ARM GAS  /tmp/ccBBQ5Xd.s 			page 1


   1              		.syntax unified
   2              		.cpu cortex-m4
   3              		.fpu softvfp
   4              		.eabi_attribute 20, 1
   5              		.eabi_attribute 21, 1
   6              		.eabi_attribute 23, 3
   7              		.eabi_attribute 24, 1
   8              		.eabi_attribute 25, 1
   9              		.eabi_attribute 26, 1
  10              		.eabi_attribute 30, 2
  11              		.eabi_attribute 34, 1
  12              		.eabi_attribute 18, 4
  13              		.thumb
  14              		.syntax unified
  15              		.file	"chmemcore.c"
  16              		.text
  17              	.Ltext0:
  18              		.cfi_sections	.debug_frame
  19              		.section	.text._core_init,"ax",%progbits
  20              		.align	2
  21              		.p2align 4,,15
  22              		.global	_core_init
  23              		.thumb
  24              		.thumb_func
  25              		.type	_core_init, %function
  26              	_core_init:
  27              	.LFB227:
  28              		.file 1 "/home/selim/working/ChibiOS/os/rt/src/chmemcore.c"
  29              		.loc 1 78 0
  30              		.cfi_startproc
  31              		@ args = 0, pretend = 0, frame = 0
  32              		@ frame_needed = 0, uses_anonymous_args = 0
  33              		@ link register save eliminated.
  34              		.loc 1 84 0
  35 0000 054A     		ldr	r2, .L2
  36              		.loc 1 85 0
  37 0002 064B     		ldr	r3, .L2+4
  38              		.loc 1 84 0
  39 0004 0648     		ldr	r0, .L2+8
  40              		.loc 1 85 0
  41 0006 0749     		ldr	r1, .L2+12
  42              		.loc 1 84 0
  43 0008 22F00702 		bic	r2, r2, #7
  44              		.loc 1 85 0
  45 000c 23F00703 		bic	r3, r3, #7
  46              		.loc 1 84 0
  47 0010 0260     		str	r2, [r0]
  48              		.loc 1 85 0
  49 0012 0B60     		str	r3, [r1]
  50 0014 7047     		bx	lr
  51              	.L3:
  52 0016 00BF     		.align	2
  53              	.L2:
  54 0018 07000000 		.word	__heap_base__+7
  55 001c 00000000 		.word	__heap_end__
  56 0020 00000000 		.word	.LANCHOR0
  57 0024 00000000 		.word	.LANCHOR1
ARM GAS  /tmp/ccBBQ5Xd.s 			page 2


  58              		.cfi_endproc
  59              	.LFE227:
  60              		.size	_core_init, .-_core_init
  61              		.section	.text.chCoreAlloc,"ax",%progbits
  62              		.align	2
  63              		.p2align 4,,15
  64              		.global	chCoreAlloc
  65              		.thumb
  66              		.thumb_func
  67              		.type	chCoreAlloc, %function
  68              	chCoreAlloc:
  69              	.LFB228:
  70              		.loc 1 109 0
  71              		.cfi_startproc
  72              		@ args = 0, pretend = 0, frame = 0
  73              		@ frame_needed = 0, uses_anonymous_args = 0
  74              		@ link register save eliminated.
  75              	.LVL0:
  76 0000 10B4     		push	{r4}
  77              		.cfi_def_cfa_offset 4
  78              		.cfi_offset 4, -4
  79              	.LBB26:
  80              	.LBB27:
  81              	.LBB28:
  82              	.LBB29:
  83              		.file 2 "/home/selim/working/ChibiOS/os/ext/CMSIS/include/core_cmFunc.h"
  84              		.loc 2 546 0
  85 0002 2023     		movs	r3, #32
  86              		.syntax unified
  87              	@ 546 "/home/selim/working/ChibiOS/os/ext/CMSIS/include/core_cmFunc.h" 1
  88 0004 83F31188 		MSR basepri, r3
  89              	@ 0 "" 2
  90              	.LVL1:
  91              		.thumb
  92              		.syntax unified
  93              	.LBE29:
  94              	.LBE28:
  95              	.LBE27:
  96              	.LBE26:
  97              	.LBB30:
  98              	.LBB31:
  99              		.loc 1 138 0
 100 0008 094C     		ldr	r4, .L9
 101 000a 0A4B     		ldr	r3, .L9+4
 102 000c 2268     		ldr	r2, [r4]
 103 000e 1968     		ldr	r1, [r3]
 104              		.loc 1 136 0
 105 0010 C31D     		adds	r3, r0, #7
 106 0012 23F00703 		bic	r3, r3, #7
 107              	.LVL2:
 108              		.loc 1 138 0
 109 0016 891A     		subs	r1, r1, r2
 110 0018 8B42     		cmp	r3, r1
 111              	.LVL3:
 112              		.loc 1 143 0
 113 001a 9DBF     		ittte	ls
 114 001c 9B18     		addls	r3, r3, r2
ARM GAS  /tmp/ccBBQ5Xd.s 			page 3


 115              	.LVL4:
 116 001e 2360     		strls	r3, [r4]
 117              		.loc 1 145 0
 118 0020 1046     		movls	r0, r2
 119              	.LVL5:
 120              		.loc 1 140 0
 121 0022 0020     		movhi	r0, #0
 122              	.LVL6:
 123              	.LBE31:
 124              	.LBE30:
 125              	.LBB32:
 126              	.LBB33:
 127              	.LBB34:
 128              	.LBB35:
 129              	.LBB36:
 130              		.loc 2 546 0
 131 0024 0023     		movs	r3, #0
 132              		.syntax unified
 133              	@ 546 "/home/selim/working/ChibiOS/os/ext/CMSIS/include/core_cmFunc.h" 1
 134 0026 83F31188 		MSR basepri, r3
 135              	@ 0 "" 2
 136              	.LVL7:
 137              		.thumb
 138              		.syntax unified
 139              	.LBE36:
 140              	.LBE35:
 141              	.LBE34:
 142              	.LBE33:
 143              	.LBE32:
 144              		.loc 1 117 0
 145 002a 10BC     		pop	{r4}
 146              		.cfi_restore 4
 147              		.cfi_def_cfa_offset 0
 148 002c 7047     		bx	lr
 149              	.L10:
 150 002e 00BF     		.align	2
 151              	.L9:
 152 0030 00000000 		.word	.LANCHOR0
 153 0034 00000000 		.word	.LANCHOR1
 154              		.cfi_endproc
 155              	.LFE228:
 156              		.size	chCoreAlloc, .-chCoreAlloc
 157              		.section	.text.chCoreAllocI,"ax",%progbits
 158              		.align	2
 159              		.p2align 4,,15
 160              		.global	chCoreAllocI
 161              		.thumb
 162              		.thumb_func
 163              		.type	chCoreAllocI, %function
 164              	chCoreAllocI:
 165              	.LFB229:
 166              		.loc 1 131 0
 167              		.cfi_startproc
 168              		@ args = 0, pretend = 0, frame = 0
 169              		@ frame_needed = 0, uses_anonymous_args = 0
 170              		@ link register save eliminated.
 171              	.LVL8:
ARM GAS  /tmp/ccBBQ5Xd.s 			page 4


 172 0000 10B4     		push	{r4}
 173              		.cfi_def_cfa_offset 4
 174              		.cfi_offset 4, -4
 175              		.loc 1 138 0
 176 0002 084B     		ldr	r3, .L15
 177 0004 084C     		ldr	r4, .L15+4
 178 0006 1968     		ldr	r1, [r3]
 179 0008 2268     		ldr	r2, [r4]
 180              		.loc 1 136 0
 181 000a 0730     		adds	r0, r0, #7
 182              	.LVL9:
 183 000c 20F00703 		bic	r3, r0, #7
 184              	.LVL10:
 185              		.loc 1 138 0
 186 0010 891A     		subs	r1, r1, r2
 187 0012 8B42     		cmp	r3, r1
 188              	.LVL11:
 189              		.loc 1 143 0
 190 0014 9DBF     		ittte	ls
 191 0016 9B18     		addls	r3, r3, r2
 192              	.LVL12:
 193 0018 2360     		strls	r3, [r4]
 194              		.loc 1 145 0
 195 001a 1046     		movls	r0, r2
 196              	.LVL13:
 197              		.loc 1 140 0
 198 001c 0020     		movhi	r0, #0
 199              		.loc 1 146 0
 200 001e 10BC     		pop	{r4}
 201              		.cfi_restore 4
 202              		.cfi_def_cfa_offset 0
 203 0020 7047     		bx	lr
 204              	.L16:
 205 0022 00BF     		.align	2
 206              	.L15:
 207 0024 00000000 		.word	.LANCHOR1
 208 0028 00000000 		.word	.LANCHOR0
 209              		.cfi_endproc
 210              	.LFE229:
 211              		.size	chCoreAllocI, .-chCoreAllocI
 212              		.section	.text.chCoreGetStatusX,"ax",%progbits
 213              		.align	2
 214              		.p2align 4,,15
 215              		.global	chCoreGetStatusX
 216              		.thumb
 217              		.thumb_func
 218              		.type	chCoreGetStatusX, %function
 219              	chCoreGetStatusX:
 220              	.LFB230:
 221              		.loc 1 155 0
 222              		.cfi_startproc
 223              		@ args = 0, pretend = 0, frame = 0
 224              		@ frame_needed = 0, uses_anonymous_args = 0
 225              		@ link register save eliminated.
 226              		.loc 1 158 0
 227 0000 024A     		ldr	r2, .L18
 228 0002 034B     		ldr	r3, .L18+4
ARM GAS  /tmp/ccBBQ5Xd.s 			page 5


 229 0004 1068     		ldr	r0, [r2]
 230 0006 1B68     		ldr	r3, [r3]
 231              		.loc 1 160 0
 232 0008 C01A     		subs	r0, r0, r3
 233 000a 7047     		bx	lr
 234              	.L19:
 235              		.align	2
 236              	.L18:
 237 000c 00000000 		.word	.LANCHOR1
 238 0010 00000000 		.word	.LANCHOR0
 239              		.cfi_endproc
 240              	.LFE230:
 241              		.size	chCoreGetStatusX, .-chCoreGetStatusX
 242              		.section	.bss.endmem,"aw",%nobits
 243              		.align	2
 244              		.set	.LANCHOR1,. + 0
 245              		.type	endmem, %object
 246              		.size	endmem, 4
 247              	endmem:
 248 0000 00000000 		.space	4
 249              		.section	.bss.nextmem,"aw",%nobits
 250              		.align	2
 251              		.set	.LANCHOR0,. + 0
 252              		.type	nextmem, %object
 253              		.size	nextmem, 4
 254              	nextmem:
 255 0000 00000000 		.space	4
 256              		.text
 257              	.Letext0:
 258              		.file 3 "/usr/lib/gcc/arm-none-eabi/5.3.1/include/stddef.h"
 259              		.file 4 "/usr/arm-none-eabi/include/machine/_default_types.h"
 260              		.file 5 "/usr/arm-none-eabi/include/sys/_stdint.h"
 261              		.file 6 "/home/selim/working/ChibiOS/os/rt/ports/ARMCMx/compilers/GCC/chtypes.h"
 262              		.file 7 "/home/selim/working/ChibiOS/os/rt/include/chsystypes.h"
 263              		.file 8 "/home/selim/working/ChibiOS/os/rt/include/chschd.h"
 264              		.file 9 "/home/selim/working/ChibiOS/os/rt/ports/ARMCMx/chcore.h"
 265              		.file 10 "/home/selim/working/ChibiOS/os/rt/ports/ARMCMx/chcore_v7m.h"
 266              		.file 11 "/home/selim/working/ChibiOS/os/rt/include/chtm.h"
 267              		.file 12 "/home/selim/working/ChibiOS/os/rt/include/chsem.h"
 268              		.file 13 "/home/selim/working/ChibiOS/os/rt/include/chmtx.h"
 269              		.file 14 "/home/selim/working/ChibiOS/os/rt/include/chsys.h"
 270              		.file 15 "/home/selim/working/ChibiOS/os/ext/CMSIS/include/core_cm4.h"