ARM GAS  /tmp/ccHWwNZw.s 			page 1


   1              		.syntax unified
   2              		.cpu cortex-m4
   3              		.fpu softvfp
   4              		.eabi_attribute 20, 1
   5              		.eabi_attribute 21, 1
   6              		.eabi_attribute 23, 3
   7              		.eabi_attribute 24, 1
   8              		.eabi_attribute 25, 1
   9              		.eabi_attribute 26, 1
  10              		.eabi_attribute 30, 2
  11              		.eabi_attribute 34, 1
  12              		.eabi_attribute 18, 4
  13              		.thumb
  14              		.syntax unified
  15              		.file	"chprintf.c"
  16              		.text
  17              	.Ltext0:
  18              		.cfi_sections	.debug_frame
  19              		.section	.text.ch_ltoa,"ax",%progbits
  20              		.align	2
  21              		.p2align 4,,15
  22              		.thumb
  23              		.thumb_func
  24              		.type	ch_ltoa, %function
  25              	ch_ltoa:
  26              	.LFB260:
  27              		.file 1 "/home/selim/working/ChibiOS/os/hal/lib/streams/chprintf.c"
  28              		.loc 1 70 0
  29              		.cfi_startproc
  30              		@ args = 0, pretend = 0, frame = 0
  31              		@ frame_needed = 0, uses_anonymous_args = 0
  32              		@ link register save eliminated.
  33              	.LVL0:
  34 0000 F0B4     		push	{r4, r5, r6, r7}
  35              		.cfi_def_cfa_offset 16
  36              		.cfi_offset 4, -16
  37              		.cfi_offset 5, -12
  38              		.cfi_offset 6, -8
  39              		.cfi_offset 7, -4
  40              	.LBB4:
  41              	.LBB5:
  42              		.loc 1 52 0
  43 0002 00F10B07 		add	r7, r0, #11
  44              	.LVL1:
  45 0006 3C46     		mov	r4, r7
  46 0008 0D46     		mov	r5, r1
  47              	.LVL2:
  48              	.L3:
  49              		.loc 1 54 0
  50 000a B1FBF2F6 		udiv	r6, r1, r2
  51 000e 02FB1611 		mls	r1, r2, r6, r1
  52              	.LVL3:
  53              		.loc 1 55 0
  54 0012 01F13003 		add	r3, r1, #48
  55              	.LVL4:
  56              		.loc 1 56 0
  57 0016 392B     		cmp	r3, #57
ARM GAS  /tmp/ccHWwNZw.s 			page 2


  58              		.loc 1 57 0
  59 0018 C8BF     		it	gt
  60 001a 01F13703 		addgt	r3, r1, #55
  61              	.LVL5:
  62              		.loc 1 58 0
  63 001e DBB2     		uxtb	r3, r3
  64              	.LVL6:
  65 0020 04F8013D 		strb	r3, [r4, #-1]!
  66              	.LVL7:
  67              		.loc 1 60 0
  68 0024 B5FBF2F5 		udiv	r5, r5, r2
  69              	.LVL8:
  70              		.loc 1 59 0
  71 0028 3146     		mov	r1, r6
  72              	.LVL9:
  73              		.loc 1 60 0
  74 002a 002D     		cmp	r5, #0
  75 002c EDD1     		bne	.L3
  76              	.LVL10:
  77 002e 3A1B     		subs	r2, r7, r4
  78              	.LVL11:
  79 0030 0244     		add	r2, r2, r0
  80 0032 01E0     		b	.L5
  81              	.LVL12:
  82              	.L10:
  83 0034 14F8013F 		ldrb	r3, [r4, #1]!	@ zero_extendqisi2
  84              	.LVL13:
  85              	.L5:
  86              		.loc 1 64 0
  87 0038 00F8013B 		strb	r3, [r0], #1
  88              	.LVL14:
  89              		.loc 1 65 0
  90 003c 9042     		cmp	r0, r2
  91 003e F9D1     		bne	.L10
  92              	.LVL15:
  93              	.LBE5:
  94              	.LBE4:
  95              		.loc 1 73 0
  96 0040 F0BC     		pop	{r4, r5, r6, r7}
  97              		.cfi_restore 7
  98              		.cfi_restore 6
  99              		.cfi_restore 5
 100              		.cfi_restore 4
 101              		.cfi_def_cfa_offset 0
 102              	.LVL16:
 103 0042 7047     		bx	lr
 104              		.cfi_endproc
 105              	.LFE260:
 106              		.size	ch_ltoa, .-ch_ltoa
 107              		.section	.text.chvprintf,"ax",%progbits
 108              		.align	2
 109              		.p2align 4,,15
 110              		.global	chvprintf
 111              		.thumb
 112              		.thumb_func
 113              		.type	chvprintf, %function
 114              	chvprintf:
ARM GAS  /tmp/ccHWwNZw.s 			page 3


 115              	.LFB261:
 116              		.loc 1 121 0
 117              		.cfi_startproc
 118              		@ args = 0, pretend = 0, frame = 24
 119              		@ frame_needed = 0, uses_anonymous_args = 0
 120              	.LVL17:
 121 0000 2DE9F04F 		push	{r4, r5, r6, r7, r8, r9, r10, fp, lr}
 122              		.cfi_def_cfa_offset 36
 123              		.cfi_offset 4, -36
 124              		.cfi_offset 5, -32
 125              		.cfi_offset 6, -28
 126              		.cfi_offset 7, -24
 127              		.cfi_offset 8, -20
 128              		.cfi_offset 9, -16
 129              		.cfi_offset 10, -12
 130              		.cfi_offset 11, -8
 131              		.cfi_offset 14, -4
 132 0004 87B0     		sub	sp, sp, #28
 133              		.cfi_def_cfa_offset 64
 134              		.loc 1 121 0
 135 0006 1746     		mov	r7, r2
 136              	.LVL18:
 137 0008 0DF10D03 		add	r3, sp, #13
 138 000c 03AA     		add	r2, sp, #12
 139              	.LVL19:
 140 000e 9B1A     		subs	r3, r3, r2
 141 0010 0646     		mov	r6, r0
 142 0012 0D46     		mov	r5, r1
 143 0014 0193     		str	r3, [sp, #4]
 144              		.loc 1 124 0
 145 0016 4FF0000A 		mov	r10, #0
 146              	.LVL20:
 147              	.L12:
 148              		.loc 1 135 0
 149 001a 2978     		ldrb	r1, [r5]	@ zero_extendqisi2
 150 001c 6A1C     		adds	r2, r5, #1
 151              	.LVL21:
 152              		.loc 1 136 0
 153 001e 61B1     		cbz	r1, .L84
 154              	.L96:
 155              		.loc 1 138 0
 156 0020 2529     		cmp	r1, #37
 157 0022 0ED0     		beq	.L14
 158              		.loc 1 139 0
 159 0024 3368     		ldr	r3, [r6]
 160              		.loc 1 135 0
 161 0026 1546     		mov	r5, r2
 162              		.loc 1 139 0
 163 0028 9B68     		ldr	r3, [r3, #8]
 164 002a 3046     		mov	r0, r6
 165 002c 9847     		blx	r3
 166              	.LVL22:
 167              		.loc 1 135 0
 168 002e 2978     		ldrb	r1, [r5]	@ zero_extendqisi2
 169              		.loc 1 140 0
 170 0030 0AF1010A 		add	r10, r10, #1
 171              	.LVL23:
ARM GAS  /tmp/ccHWwNZw.s 			page 4


 172              		.loc 1 135 0
 173 0034 6A1C     		adds	r2, r5, #1
 174              	.LVL24:
 175              		.loc 1 136 0
 176 0036 0029     		cmp	r1, #0
 177 0038 F2D1     		bne	.L96
 178              	.L84:
 179              		.loc 1 277 0
 180 003a 5046     		mov	r0, r10
 181 003c 07B0     		add	sp, sp, #28
 182              		.cfi_remember_state
 183              		.cfi_def_cfa_offset 36
 184              		@ sp needed
 185 003e BDE8F08F 		pop	{r4, r5, r6, r7, r8, r9, r10, fp, pc}
 186              	.LVL25:
 187              	.L14:
 188              		.cfi_restore_state
 189              		.loc 1 146 0
 190 0042 6978     		ldrb	r1, [r5, #1]	@ zero_extendqisi2
 191              	.LVL26:
 192 0044 2D29     		cmp	r1, #45
 193 0046 03BF     		ittte	eq
 194 0048 A978     		ldrbeq	r1, [r5, #2]	@ zero_extendqisi2
 195              		.loc 1 147 0
 196 004a AA1C     		addeq	r2, r5, #2
 197              	.LVL27:
 198              		.loc 1 148 0
 199 004c 4FF0010B 		moveq	fp, #1
 200              		.loc 1 145 0
 201 0050 4FF0000B 		movne	fp, #0
 202              	.LVL28:
 203              		.loc 1 151 0
 204 0054 3029     		cmp	r1, #48
 205 0056 03BF     		ittte	eq
 206 0058 5178     		ldrbeq	r1, [r2, #1]	@ zero_extendqisi2
 207              		.loc 1 152 0
 208 005a 0132     		addeq	r2, r2, #1
 209              	.LVL29:
 210              		.loc 1 153 0
 211 005c 4FF03008 		moveq	r8, #48
 212              		.loc 1 150 0
 213 0060 4FF02008 		movne	r8, #32
 214              	.LVL30:
 215 0064 501C     		adds	r0, r2, #1
 216              		.loc 1 155 0
 217 0066 4FF00009 		mov	r9, #0
 218 006a 05E0     		b	.L20
 219              	.LVL31:
 220              	.L97:
 221              		.loc 1 161 0
 222 006c 3B78     		ldrb	r3, [r7]	@ zero_extendqisi2
 223              	.LVL32:
 224 006e 0437     		adds	r7, r7, #4
 225              	.LVL33:
 226              	.L18:
 227 0070 2978     		ldrb	r1, [r5]	@ zero_extendqisi2
 228              		.loc 1 164 0
ARM GAS  /tmp/ccHWwNZw.s 			page 5


 229 0072 03EB4209 		add	r9, r3, r2, lsl #1
 230              	.LVL34:
 231 0076 0130     		adds	r0, r0, #1
 232              	.LVL35:
 233              	.L20:
 234              		.loc 1 158 0
 235 0078 A1F13003 		sub	r3, r1, #48
 236 007c DBB2     		uxtb	r3, r3
 237 007e 092B     		cmp	r3, #9
 238              		.loc 1 157 0
 239 0080 0546     		mov	r5, r0
 240              	.LVL36:
 241              		.loc 1 164 0
 242 0082 09EB8902 		add	r2, r9, r9, lsl #2
 243              		.loc 1 158 0
 244 0086 F3D9     		bls	.L18
 245              		.loc 1 160 0
 246 0088 2A29     		cmp	r1, #42
 247 008a EFD0     		beq	.L97
 248              	.LVL37:
 249              		.loc 1 167 0
 250 008c 2E29     		cmp	r1, #46
 251 008e 4FF00000 		mov	r0, #0
 252              	.LVL38:
 253 0092 43D0     		beq	.L23
 254              	.LVL39:
 255              		.loc 1 181 0
 256 0094 01F0DF02 		and	r2, r1, #223
 257 0098 4C2A     		cmp	r2, #76
 258 009a 4ED0     		beq	.L98
 259              	.L85:
 260              		.loc 1 190 0
 261 009c A1F14402 		sub	r2, r1, #68
 262 00a0 342A     		cmp	r2, #52
 263 00a2 00F2F980 		bhi	.L26
 264 00a6 DFE812F0 		tbh	[pc, r2, lsl #1]
 265              	.L35:
 266 00aa EE00     		.2byte	(.L43-.L35)/2
 267 00ac F700     		.2byte	(.L26-.L35)/2
 268 00ae F700     		.2byte	(.L26-.L35)/2
 269 00b0 F700     		.2byte	(.L26-.L35)/2
 270 00b2 F700     		.2byte	(.L26-.L35)/2
 271 00b4 EE00     		.2byte	(.L43-.L35)/2
 272 00b6 F700     		.2byte	(.L26-.L35)/2
 273 00b8 F700     		.2byte	(.L26-.L35)/2
 274 00ba F700     		.2byte	(.L26-.L35)/2
 275 00bc F700     		.2byte	(.L26-.L35)/2
 276 00be F700     		.2byte	(.L26-.L35)/2
 277 00c0 EC00     		.2byte	(.L29-.L35)/2
 278 00c2 F700     		.2byte	(.L26-.L35)/2
 279 00c4 F700     		.2byte	(.L26-.L35)/2
 280 00c6 F700     		.2byte	(.L26-.L35)/2
 281 00c8 F700     		.2byte	(.L26-.L35)/2
 282 00ca F700     		.2byte	(.L26-.L35)/2
 283 00cc B900     		.2byte	(.L30-.L35)/2
 284 00ce F700     		.2byte	(.L26-.L35)/2
 285 00d0 F700     		.2byte	(.L26-.L35)/2
ARM GAS  /tmp/ccHWwNZw.s 			page 6


 286 00d2 6F00     		.2byte	(.L66-.L35)/2
 287 00d4 F700     		.2byte	(.L26-.L35)/2
 288 00d6 F700     		.2byte	(.L26-.L35)/2
 289 00d8 F700     		.2byte	(.L26-.L35)/2
 290 00da F700     		.2byte	(.L26-.L35)/2
 291 00dc F700     		.2byte	(.L26-.L35)/2
 292 00de F700     		.2byte	(.L26-.L35)/2
 293 00e0 F700     		.2byte	(.L26-.L35)/2
 294 00e2 F700     		.2byte	(.L26-.L35)/2
 295 00e4 F700     		.2byte	(.L26-.L35)/2
 296 00e6 F700     		.2byte	(.L26-.L35)/2
 297 00e8 E000     		.2byte	(.L32-.L35)/2
 298 00ea EE00     		.2byte	(.L43-.L35)/2
 299 00ec F700     		.2byte	(.L26-.L35)/2
 300 00ee F700     		.2byte	(.L26-.L35)/2
 301 00f0 F700     		.2byte	(.L26-.L35)/2
 302 00f2 F700     		.2byte	(.L26-.L35)/2
 303 00f4 EE00     		.2byte	(.L43-.L35)/2
 304 00f6 F700     		.2byte	(.L26-.L35)/2
 305 00f8 F700     		.2byte	(.L26-.L35)/2
 306 00fa F700     		.2byte	(.L26-.L35)/2
 307 00fc F700     		.2byte	(.L26-.L35)/2
 308 00fe F700     		.2byte	(.L26-.L35)/2
 309 0100 EC00     		.2byte	(.L29-.L35)/2
 310 0102 F700     		.2byte	(.L26-.L35)/2
 311 0104 F700     		.2byte	(.L26-.L35)/2
 312 0106 F700     		.2byte	(.L26-.L35)/2
 313 0108 BB00     		.2byte	(.L33-.L35)/2
 314 010a F700     		.2byte	(.L26-.L35)/2
 315 010c B900     		.2byte	(.L30-.L35)/2
 316 010e F700     		.2byte	(.L26-.L35)/2
 317 0110 F700     		.2byte	(.L26-.L35)/2
 318 0112 6F00     		.2byte	(.L66-.L35)/2
 319              	.LVL40:
 320              		.p2align 1
 321              	.L99:
 322              		.loc 1 173 0
 323 0114 3B78     		ldrb	r3, [r7]	@ zero_extendqisi2
 324              	.LVL41:
 325 0116 0437     		adds	r7, r7, #4
 326              	.LVL42:
 327              	.L22:
 328              		.loc 1 177 0
 329 0118 03EB4200 		add	r0, r3, r2, lsl #1
 330              	.LVL43:
 331              	.L23:
 332              		.loc 1 169 0
 333 011c 15F8011B 		ldrb	r1, [r5], #1	@ zero_extendqisi2
 334              	.LVL44:
 335              		.loc 1 170 0
 336 0120 A1F13003 		sub	r3, r1, #48
 337 0124 DBB2     		uxtb	r3, r3
 338 0126 092B     		cmp	r3, #9
 339              		.loc 1 176 0
 340 0128 00EB8002 		add	r2, r0, r0, lsl #2
 341              		.loc 1 170 0
 342 012c F4D9     		bls	.L22
ARM GAS  /tmp/ccHWwNZw.s 			page 7


 343              		.loc 1 172 0
 344 012e 2A29     		cmp	r1, #42
 345 0130 F0D0     		beq	.L99
 346              	.LVL45:
 347              		.loc 1 181 0
 348 0132 01F0DF02 		and	r2, r1, #223
 349 0136 4C2A     		cmp	r2, #76
 350 0138 B0D1     		bne	.L85
 351              	.L98:
 352              	.LVL46:
 353              		.loc 1 183 0
 354 013a 2C78     		ldrb	r4, [r5]	@ zero_extendqisi2
 355 013c 002C     		cmp	r4, #0
 356 013e 00F0AB80 		beq	.L26
 357              		.loc 1 190 0
 358 0142 A4F14402 		sub	r2, r4, #68
 359              		.loc 1 184 0
 360 0146 0135     		adds	r5, r5, #1
 361              	.LVL47:
 362              		.loc 1 190 0
 363 0148 342A     		cmp	r2, #52
 364 014a 00F2A480 		bhi	.L63
 365 014e DFE802F0 		tbb	[pc, r2]
 366              	.L28:
 367 0152 9A       		.byte	(.L43-.L28)/2
 368 0153 A2       		.byte	(.L63-.L28)/2
 369 0154 A2       		.byte	(.L63-.L28)/2
 370 0155 A2       		.byte	(.L63-.L28)/2
 371 0156 A2       		.byte	(.L63-.L28)/2
 372 0157 9A       		.byte	(.L43-.L28)/2
 373 0158 A2       		.byte	(.L63-.L28)/2
 374 0159 A2       		.byte	(.L63-.L28)/2
 375 015a A2       		.byte	(.L63-.L28)/2
 376 015b A2       		.byte	(.L63-.L28)/2
 377 015c A2       		.byte	(.L63-.L28)/2
 378 015d 98       		.byte	(.L29-.L28)/2
 379 015e A2       		.byte	(.L63-.L28)/2
 380 015f A2       		.byte	(.L63-.L28)/2
 381 0160 A2       		.byte	(.L63-.L28)/2
 382 0161 A2       		.byte	(.L63-.L28)/2
 383 0162 A2       		.byte	(.L63-.L28)/2
 384 0163 65       		.byte	(.L30-.L28)/2
 385 0164 A2       		.byte	(.L63-.L28)/2
 386 0165 A2       		.byte	(.L63-.L28)/2
 387 0166 1B       		.byte	(.L66-.L28)/2
 388 0167 A2       		.byte	(.L63-.L28)/2
 389 0168 A2       		.byte	(.L63-.L28)/2
 390 0169 A2       		.byte	(.L63-.L28)/2
 391 016a A2       		.byte	(.L63-.L28)/2
 392 016b A2       		.byte	(.L63-.L28)/2
 393 016c A2       		.byte	(.L63-.L28)/2
 394 016d A2       		.byte	(.L63-.L28)/2
 395 016e A2       		.byte	(.L63-.L28)/2
 396 016f A2       		.byte	(.L63-.L28)/2
 397 0170 A2       		.byte	(.L63-.L28)/2
 398 0171 8C       		.byte	(.L32-.L28)/2
 399 0172 9A       		.byte	(.L43-.L28)/2
ARM GAS  /tmp/ccHWwNZw.s 			page 8


 400 0173 A2       		.byte	(.L63-.L28)/2
 401 0174 A2       		.byte	(.L63-.L28)/2
 402 0175 A2       		.byte	(.L63-.L28)/2
 403 0176 A2       		.byte	(.L63-.L28)/2
 404 0177 9A       		.byte	(.L43-.L28)/2
 405 0178 A2       		.byte	(.L63-.L28)/2
 406 0179 A2       		.byte	(.L63-.L28)/2
 407 017a A2       		.byte	(.L63-.L28)/2
 408 017b A2       		.byte	(.L63-.L28)/2
 409 017c A2       		.byte	(.L63-.L28)/2
 410 017d 98       		.byte	(.L29-.L28)/2
 411 017e A2       		.byte	(.L63-.L28)/2
 412 017f A2       		.byte	(.L63-.L28)/2
 413 0180 A2       		.byte	(.L63-.L28)/2
 414 0181 67       		.byte	(.L33-.L28)/2
 415 0182 A2       		.byte	(.L63-.L28)/2
 416 0183 65       		.byte	(.L30-.L28)/2
 417 0184 A2       		.byte	(.L63-.L28)/2
 418 0185 A2       		.byte	(.L63-.L28)/2
 419 0186 1B       		.byte	(.L66-.L28)/2
 420              	.L36:
 421              	.LVL48:
 422 0187 00       		.p2align 1
 423              	.L66:
 424 0188 1022     		movs	r2, #16
 425              	.L46:
 426              		.loc 1 243 0
 427 018a 3968     		ldr	r1, [r7]
 428              	.LVL49:
 429              		.loc 1 244 0
 430 018c 03A8     		add	r0, sp, #12
 431              	.LVL50:
 432              		.loc 1 243 0
 433 018e 0437     		adds	r7, r7, #4
 434              	.LVL51:
 435              	.L92:
 436              		.loc 1 244 0
 437 0190 FFF7FEFF 		bl	ch_ltoa
 438              	.LVL52:
 439 0194 03AB     		add	r3, sp, #12
 440              	.LVL53:
 441 0196 C01A     		subs	r0, r0, r3
 442              	.LVL54:
 443 0198 431E     		subs	r3, r0, #1
 444              	.LVL55:
 445 019a 0093     		str	r3, [sp]
 446              		.loc 1 144 0
 447 019c 03AC     		add	r4, sp, #12
 448              	.LVL56:
 449              	.L37:
 450              		.loc 1 251 0
 451 019e C0EB0909 		rsb	r9, r0, r9
 452              	.LVL57:
 453 01a2 29EAE979 		bic	r9, r9, r9, asr #31
 454              	.LVL58:
 455              		.loc 1 253 0
 456 01a6 BBF1000F 		cmp	fp, #0
ARM GAS  /tmp/ccHWwNZw.s 			page 9


 457 01aa 5AD1     		bne	.L48
 458              	.LVL59:
 459              	.L59:
 460              		.loc 1 254 0
 461 01ac C9F1000B 		rsb	fp, r9, #0
 462              	.LVL60:
 463              		.loc 1 255 0
 464 01b0 BBF1000F 		cmp	fp, #0
 465 01b4 78D0     		beq	.L49
 466              		.loc 1 256 0
 467 01b6 2178     		ldrb	r1, [r4]	@ zero_extendqisi2
 468 01b8 2D29     		cmp	r1, #45
 469 01ba 00F08880 		beq	.L100
 470              	.LVL61:
 471              	.L51:
 472              		.loc 1 262 0 discriminator 1
 473 01be 3368     		ldr	r3, [r6]
 474 01c0 4146     		mov	r1, r8
 475 01c2 9B68     		ldr	r3, [r3, #8]
 476 01c4 3046     		mov	r0, r6
 477 01c6 9847     		blx	r3
 478              	.LVL62:
 479              		.loc 1 264 0 discriminator 1
 480 01c8 1BF1010B 		adds	fp, fp, #1
 481              	.LVL63:
 482 01cc F7D1     		bne	.L51
 483              		.loc 1 266 0
 484 01ce 009B     		ldr	r3, [sp]
 485 01d0 002B     		cmp	r3, #0
 486 01d2 CA44     		add	r10, r10, r9
 487              	.LVL64:
 488 01d4 FFF621AF 		blt	.L12
 489              	.L73:
 490 01d8 D946     		mov	r9, fp
 491              	.LVL65:
 492              	.L58:
 493 01da DDF800B0 		ldr	fp, [sp]
 494              	.LVL66:
 495              	.L54:
 496              		.loc 1 267 0
 497 01de 3368     		ldr	r3, [r6]
 498 01e0 14F8011B 		ldrb	r1, [r4], #1	@ zero_extendqisi2
 499              	.LVL67:
 500 01e4 9B68     		ldr	r3, [r3, #8]
 501              		.loc 1 266 0
 502 01e6 0BF1FF3B 		add	fp, fp, #-1
 503              	.LVL68:
 504              		.loc 1 267 0
 505 01ea 3046     		mov	r0, r6
 506 01ec 9847     		blx	r3
 507              	.LVL69:
 508              		.loc 1 266 0
 509 01ee BBF1FF3F 		cmp	fp, #-1
 510 01f2 F4D1     		bne	.L54
 511 01f4 009B     		ldr	r3, [sp]
 512 01f6 0AF1010A 		add	r10, r10, #1
 513 01fa 002B     		cmp	r3, #0
ARM GAS  /tmp/ccHWwNZw.s 			page 10


 514 01fc A8BF     		it	ge
 515 01fe 9A44     		addge	r10, r10, r3
 516              	.LVL70:
 517              	.L53:
 518              		.loc 1 271 0
 519 0200 B9F1000F 		cmp	r9, #0
 520 0204 3FF409AF 		beq	.L12
 521 0208 4C46     		mov	r4, r9
 522              	.LVL71:
 523              	.L55:
 524              		.loc 1 272 0
 525 020a 3368     		ldr	r3, [r6]
 526 020c 4146     		mov	r1, r8
 527 020e 9B68     		ldr	r3, [r3, #8]
 528 0210 3046     		mov	r0, r6
 529 0212 9847     		blx	r3
 530              	.LVL72:
 531              		.loc 1 271 0
 532 0214 013C     		subs	r4, r4, #1
 533              	.LVL73:
 534 0216 F8D1     		bne	.L55
 535 0218 CA44     		add	r10, r10, r9
 536 021a FEE6     		b	.L12
 537              	.LVL74:
 538              	.L30:
 539              		.loc 1 235 0
 540 021c 0A22     		movs	r2, #10
 541 021e B4E7     		b	.L46
 542              	.LVL75:
 543              	.L33:
 544              		.loc 1 197 0
 545 0220 3C68     		ldr	r4, [r7]
 546              		.loc 1 198 0
 547 0222 374A     		ldr	r2, .L103
 548 0224 002C     		cmp	r4, #0
 549 0226 08BF     		it	eq
 550 0228 1446     		moveq	r4, r2
 551              		.loc 1 197 0
 552 022a 0437     		adds	r7, r7, #4
 553              	.LVL76:
 554              		.loc 1 201 0
 555 022c 2278     		ldrb	r2, [r4]	@ zero_extendqisi2
 556              		.loc 1 199 0
 557 022e 0028     		cmp	r0, #0
 558 0230 3ED0     		beq	.L39
 559              	.LVL77:
 560              		.loc 1 201 0 discriminator 1
 561 0232 002A     		cmp	r2, #0
 562 0234 40D0     		beq	.L40
 563              		.loc 1 201 0 is_stmt 0
 564 0236 0138     		subs	r0, r0, #1
 565              	.LVL78:
 566              	.L57:
 567              		.loc 1 201 0 discriminator 4
 568 0238 2246     		mov	r2, r4
 569 023a 01E0     		b	.L42
 570              	.LVL79:
ARM GAS  /tmp/ccHWwNZw.s 			page 11


 571              	.L101:
 572              		.loc 1 201 0 discriminator 3
 573 023c 431C     		adds	r3, r0, #1
 574 023e 04D0     		beq	.L91
 575              	.LVL80:
 576              	.L42:
 577              		.loc 1 201 0 discriminator 4
 578 0240 12F8013F 		ldrb	r3, [r2, #1]!	@ zero_extendqisi2
 579              	.LVL81:
 580 0244 0138     		subs	r0, r0, #1
 581              	.LVL82:
 582 0246 002B     		cmp	r3, #0
 583 0248 F8D1     		bne	.L101
 584              	.L91:
 585 024a 101B     		subs	r0, r2, r4
 586              	.LVL83:
 587 024c 431E     		subs	r3, r0, #1
 588              		.loc 1 251 0 is_stmt 1
 589 024e C0EB0909 		rsb	r9, r0, r9
 590              	.LVL84:
 591 0252 0093     		str	r3, [sp]
 592              		.loc 1 196 0
 593 0254 4FF02008 		mov	r8, #32
 594              	.LVL85:
 595 0258 29EAE979 		bic	r9, r9, r9, asr #31
 596              	.LVL86:
 597              		.loc 1 253 0
 598 025c BBF1000F 		cmp	fp, #0
 599 0260 A4D0     		beq	.L59
 600              	.L48:
 601              		.loc 1 266 0
 602 0262 009B     		ldr	r3, [sp]
 603 0264 002B     		cmp	r3, #0
 604 0266 B8DA     		bge	.L58
 605 0268 CAE7     		b	.L53
 606              	.LVL87:
 607              	.L32:
 608 026a 019B     		ldr	r3, [sp, #4]
 609              		.loc 1 193 0
 610 026c 3A68     		ldr	r2, [r7]
 611 026e 8DF80C20 		strb	r2, [sp, #12]
 612 0272 1846     		mov	r0, r3
 613              	.LVL88:
 614 0274 013B     		subs	r3, r3, #1
 615 0276 0437     		adds	r7, r7, #4
 616 0278 0093     		str	r3, [sp]
 617              		.loc 1 192 0
 618 027a 4FF02008 		mov	r8, #32
 619              		.loc 1 144 0
 620 027e 03AC     		add	r4, sp, #12
 621              	.LVL89:
 622              		.loc 1 194 0
 623 0280 8DE7     		b	.L37
 624              	.LVL90:
 625              	.L29:
 626 0282 0822     		movs	r2, #8
 627 0284 81E7     		b	.L46
ARM GAS  /tmp/ccHWwNZw.s 			page 12


 628              	.LVL91:
 629              	.L43:
 630              		.loc 1 211 0
 631 0286 3968     		ldr	r1, [r7]
 632              	.LVL92:
 633              		.loc 1 212 0
 634 0288 0029     		cmp	r1, #0
 635              		.loc 1 211 0
 636 028a 07F10407 		add	r7, r7, #4
 637              		.loc 1 212 0
 638 028e 2DDB     		blt	.L102
 639              		.loc 1 143 0
 640 0290 03A8     		add	r0, sp, #12
 641              	.LVL93:
 642              	.L45:
 643              		.loc 1 216 0
 644 0292 0A22     		movs	r2, #10
 645 0294 7CE7     		b	.L92
 646              	.LVL94:
 647              	.L63:
 648              		.loc 1 190 0
 649 0296 2146     		mov	r1, r4
 650              	.LVL95:
 651              	.L26:
 652 0298 019B     		ldr	r3, [sp, #4]
 653              		.loc 1 247 0
 654 029a 8DF80C10 		strb	r1, [sp, #12]
 655 029e 1846     		mov	r0, r3
 656              	.LVL96:
 657 02a0 013B     		subs	r3, r3, #1
 658 02a2 0093     		str	r3, [sp]
 659              		.loc 1 144 0
 660 02a4 03AC     		add	r4, sp, #12
 661              	.LVL97:
 662              		.loc 1 248 0
 663 02a6 7AE7     		b	.L37
 664              	.LVL98:
 665              	.L49:
 666              		.loc 1 266 0
 667 02a8 009B     		ldr	r3, [sp]
 668 02aa 002B     		cmp	r3, #0
 669 02ac 94DA     		bge	.L73
 670 02ae B4E6     		b	.L12
 671              	.LVL99:
 672              	.L39:
 673              		.loc 1 201 0
 674 02b0 47F6FE70 		movw	r0, #32766
 675 02b4 002A     		cmp	r2, #0
 676 02b6 BFD1     		bne	.L57
 677              	.LVL100:
 678              	.L40:
 679 02b8 29EAE979 		bic	r9, r9, r9, asr #31
 680              	.LVL101:
 681              		.loc 1 253 0
 682 02bc BBF1000F 		cmp	fp, #0
 683 02c0 1BD1     		bne	.L72
 684 02c2 4FF0FF33 		mov	r3, #-1
ARM GAS  /tmp/ccHWwNZw.s 			page 13


 685 02c6 0093     		str	r3, [sp]
 686 02c8 4FF02008 		mov	r8, #32
 687 02cc 6EE7     		b	.L59
 688              	.LVL102:
 689              	.L100:
 690              		.loc 1 256 0 discriminator 1
 691 02ce B8F1300F 		cmp	r8, #48
 692 02d2 7FF474AF 		bne	.L51
 693              		.loc 1 257 0
 694 02d6 3268     		ldr	r2, [r6]
 695 02d8 3046     		mov	r0, r6
 696 02da 9268     		ldr	r2, [r2, #8]
 697 02dc 9047     		blx	r2
 698              	.LVL103:
 699 02de 009B     		ldr	r3, [sp]
 700 02e0 013B     		subs	r3, r3, #1
 701 02e2 0134     		adds	r4, r4, #1
 702              	.LVL104:
 703              		.loc 1 258 0
 704 02e4 0AF1010A 		add	r10, r10, #1
 705              	.LVL105:
 706 02e8 0093     		str	r3, [sp]
 707 02ea 68E7     		b	.L51
 708              	.LVL106:
 709              	.L102:
 710              		.loc 1 213 0
 711 02ec 2D22     		movs	r2, #45
 712              		.loc 1 214 0
 713 02ee 4942     		negs	r1, r1
 714              	.LVL107:
 715              		.loc 1 213 0
 716 02f0 8DF80C20 		strb	r2, [sp, #12]
 717 02f4 0DF10D00 		add	r0, sp, #13
 718              	.LVL108:
 719 02f8 CBE7     		b	.L45
 720              	.LVL109:
 721              	.L72:
 722              		.loc 1 253 0
 723 02fa 4FF02008 		mov	r8, #32
 724 02fe 7FE7     		b	.L53
 725              	.L104:
 726              		.align	2
 727              	.L103:
 728 0300 00000000 		.word	.LC0
 729              		.cfi_endproc
 730              	.LFE261:
 731              		.size	chvprintf, .-chvprintf
 732              		.section	.text.chsnprintf,"ax",%progbits
 733              		.align	2
 734              		.p2align 4,,15
 735              		.global	chsnprintf
 736              		.thumb
 737              		.thumb_func
 738              		.type	chsnprintf, %function
 739              	chsnprintf:
 740              	.LFB262:
 741              		.loc 1 307 0
ARM GAS  /tmp/ccHWwNZw.s 			page 14


 742              		.cfi_startproc
 743              		@ args = 4, pretend = 8, frame = 24
 744              		@ frame_needed = 0, uses_anonymous_args = 1
 745              	.LVL110:
 746 0000 0CB4     		push	{r2, r3}
 747              		.cfi_def_cfa_offset 8
 748              		.cfi_offset 2, -8
 749              		.cfi_offset 3, -4
 750 0002 30B5     		push	{r4, r5, lr}
 751              		.cfi_def_cfa_offset 20
 752              		.cfi_offset 4, -20
 753              		.cfi_offset 5, -16
 754              		.cfi_offset 14, -12
 755 0004 0546     		mov	r5, r0
 756 0006 87B0     		sub	sp, sp, #28
 757              		.cfi_def_cfa_offset 48
 758              		.loc 1 314 0
 759 0008 0C46     		mov	r4, r1
 760 000a B1B1     		cbz	r1, .L106
 761              	.LVL111:
 762              		.loc 1 321 0
 763 000c 4A1E     		subs	r2, r1, #1
 764              	.LVL112:
 765 000e 01A8     		add	r0, sp, #4
 766              	.LVL113:
 767 0010 0023     		movs	r3, #0
 768 0012 2946     		mov	r1, r5
 769              	.LVL114:
 770 0014 FFF7FEFF 		bl	msObjectInit
 771              	.LVL115:
 772              		.loc 1 325 0
 773 0018 0BAB     		add	r3, sp, #44
 774              		.loc 1 326 0
 775 001a 1A46     		mov	r2, r3
 776 001c 01A8     		add	r0, sp, #4
 777              	.LVL116:
 778 001e 0A99     		ldr	r1, [sp, #40]
 779              		.loc 1 325 0
 780 0020 0093     		str	r3, [sp]
 781              		.loc 1 326 0
 782 0022 FFF7FEFF 		bl	chvprintf
 783              	.LVL117:
 784              		.loc 1 330 0
 785 0026 049B     		ldr	r3, [sp, #16]
 786 0028 9C42     		cmp	r4, r3
 787 002a 01D9     		bls	.L108
 788              		.loc 1 331 0
 789 002c 0022     		movs	r2, #0
 790 002e EA54     		strb	r2, [r5, r3]
 791              	.L108:
 792              		.loc 1 335 0
 793 0030 07B0     		add	sp, sp, #28
 794              		.cfi_remember_state
 795              		.cfi_def_cfa_offset 20
 796              		@ sp needed
 797 0032 BDE83040 		pop	{r4, r5, lr}
 798              		.cfi_restore 14
ARM GAS  /tmp/ccHWwNZw.s 			page 15


 799              		.cfi_restore 5
 800              		.cfi_restore 4
 801              		.cfi_def_cfa_offset 8
 802              	.LVL118:
 803 0036 02B0     		add	sp, sp, #8
 804              		.cfi_restore 3
 805              		.cfi_restore 2
 806              		.cfi_def_cfa_offset 0
 807 0038 7047     		bx	lr
 808              	.LVL119:
 809              	.L106:
 810              		.cfi_restore_state
 811              		.loc 1 321 0
 812 003a 0146     		mov	r1, r0
 813              	.LVL120:
 814 003c 2346     		mov	r3, r4
 815 003e 01A8     		add	r0, sp, #4
 816              	.LVL121:
 817 0040 2246     		mov	r2, r4
 818 0042 FFF7FEFF 		bl	msObjectInit
 819              	.LVL122:
 820              		.loc 1 325 0
 821 0046 0BAB     		add	r3, sp, #44
 822              		.loc 1 326 0
 823 0048 01A8     		add	r0, sp, #4
 824              	.LVL123:
 825 004a 1A46     		mov	r2, r3
 826 004c 0A99     		ldr	r1, [sp, #40]
 827              		.loc 1 325 0
 828 004e 0093     		str	r3, [sp]
 829              		.loc 1 326 0
 830 0050 FFF7FEFF 		bl	chvprintf
 831              	.LVL124:
 832              		.loc 1 335 0
 833 0054 07B0     		add	sp, sp, #28
 834              		.cfi_def_cfa_offset 20
 835              		@ sp needed
 836 0056 BDE83040 		pop	{r4, r5, lr}
 837              		.cfi_restore 4
 838              		.cfi_restore 5
 839              		.cfi_restore 14
 840              		.cfi_def_cfa_offset 8
 841              	.LVL125:
 842 005a 02B0     		add	sp, sp, #8
 843              		.cfi_restore 2
 844              		.cfi_restore 3
 845              		.cfi_def_cfa_offset 0
 846 005c 7047     		bx	lr
 847              		.cfi_endproc
 848              	.LFE262:
 849              		.size	chsnprintf, .-chsnprintf
 850 005e 00BF     		.section	.rodata.str1.4,"aMS",%progbits,1
 851              		.align	2
 852              	.LC0:
 853 0000 286E756C 		.ascii	"(null)\000"
 853      6C2900
 854              		.text
ARM GAS  /tmp/ccHWwNZw.s 			page 16


 855              	.Letext0:
 856              		.file 2 "/usr/lib/gcc/arm-none-eabi/5.3.1/include/stddef.h"
 857              		.file 3 "/usr/arm-none-eabi/include/machine/_default_types.h"
 858              		.file 4 "/usr/arm-none-eabi/include/sys/_stdint.h"
 859              		.file 5 "/home/selim/working/ChibiOS/os/rt/ports/ARMCMx/compilers/GCC/chtypes.h"
 860              		.file 6 "/home/selim/working/ChibiOS/os/rt/include/chsystypes.h"
 861              		.file 7 "/home/selim/working/ChibiOS/os/rt/include/chschd.h"
 862              		.file 8 "/home/selim/working/ChibiOS/os/rt/ports/ARMCMx/chcore.h"
 863              		.file 9 "/home/selim/working/ChibiOS/os/rt/ports/ARMCMx/chcore_v7m.h"
 864              		.file 10 "/home/selim/working/ChibiOS/os/rt/include/chtm.h"
 865              		.file 11 "/home/selim/working/ChibiOS/os/rt/include/chsem.h"
 866              		.file 12 "/home/selim/working/ChibiOS/os/rt/include/chmtx.h"
 867              		.file 13 "/home/selim/working/ChibiOS/os/rt/include/chstreams.h"
 868              		.file 14 "/usr/lib/gcc/arm-none-eabi/5.3.1/include/stdarg.h"
 869              		.file 15 "<built-in>"
 870              		.file 16 "/home/selim/working/ChibiOS/os/hal/lib/streams/memstreams.h"
 871              		.file 17 "/home/selim/working/ChibiOS/os/ext/CMSIS/include/core_cm4.h"
 872              		.section	.debug_info,"",%progbits
 873              	.Ldebug_info0:
 874 0000 9A0B0000 		.4byte	0xb9a
 875 0004 0400     		.2byte	0x4
 876 0006 00000000 		.4byte	.Ldebug_abbrev0
 877 000a 04       		.byte	0x4
 878 000b 01       		.uleb128 0x1
 879 000c E3030000 		.4byte	.LASF129
 880 0010 0C       		.byte	0xc
 881 0011 9D020000 		.4byte	.LASF130
 882 0015 16050000 		.4byte	.LASF131
 883 0019 00000000 		.4byte	.Ldebug_ranges0+0
 884 001d 00000000 		.4byte	0
 885 0021 00000000 		.4byte	.Ldebug_line0
 886 0025 02       		.uleb128 0x2
 887 0026 04       		.byte	0x4
 888 0027 05       		.byte	0x5
 889 0028 696E7400 		.ascii	"int\000"
 890 002c 03       		.uleb128 0x3
 891 002d 15000000 		.4byte	.LASF4
 892 0031 02       		.byte	0x2
 893 0032 D8       		.byte	0xd8
 894 0033 37000000 		.4byte	0x37
 895 0037 04       		.uleb128 0x4
 896 0038 04       		.byte	0x4
 897 0039 07       		.byte	0x7
 898 003a AA010000 		.4byte	.LASF0
 899 003e 04       		.uleb128 0x4
 900 003f 08       		.byte	0x8
 901 0040 05       		.byte	0x5
 902 0041 C4000000 		.4byte	.LASF1
 903 0045 04       		.uleb128 0x4
 904 0046 08       		.byte	0x8
 905 0047 04       		.byte	0x4
 906 0048 91020000 		.4byte	.LASF2
 907 004c 04       		.uleb128 0x4
 908 004d 01       		.byte	0x1
 909 004e 06       		.byte	0x6
 910 004f D2000000 		.4byte	.LASF3
 911 0053 03       		.uleb128 0x3
ARM GAS  /tmp/ccHWwNZw.s 			page 17


 912 0054 25000000 		.4byte	.LASF5
 913 0058 03       		.byte	0x3
 914 0059 1D       		.byte	0x1d
 915 005a 5E000000 		.4byte	0x5e
 916 005e 04       		.uleb128 0x4
 917 005f 01       		.byte	0x1
 918 0060 08       		.byte	0x8
 919 0061 A4030000 		.4byte	.LASF6
 920 0065 04       		.uleb128 0x4
 921 0066 02       		.byte	0x2
 922 0067 05       		.byte	0x5
 923 0068 CA030000 		.4byte	.LASF7
 924 006c 04       		.uleb128 0x4
 925 006d 02       		.byte	0x2
 926 006e 07       		.byte	0x7
 927 006f E2010000 		.4byte	.LASF8
 928 0073 03       		.uleb128 0x3
 929 0074 2C020000 		.4byte	.LASF9
 930 0078 03       		.byte	0x3
 931 0079 3F       		.byte	0x3f
 932 007a 7E000000 		.4byte	0x7e
 933 007e 04       		.uleb128 0x4
 934 007f 04       		.byte	0x4
 935 0080 05       		.byte	0x5
 936 0081 0F010000 		.4byte	.LASF10
 937 0085 03       		.uleb128 0x3
 938 0086 DB050000 		.4byte	.LASF11
 939 008a 03       		.byte	0x3
 940 008b 41       		.byte	0x41
 941 008c 90000000 		.4byte	0x90
 942 0090 04       		.uleb128 0x4
 943 0091 04       		.byte	0x4
 944 0092 07       		.byte	0x7
 945 0093 DE000000 		.4byte	.LASF12
 946 0097 03       		.uleb128 0x3
 947 0098 48030000 		.4byte	.LASF13
 948 009c 03       		.byte	0x3
 949 009d 5B       		.byte	0x5b
 950 009e A2000000 		.4byte	0xa2
 951 00a2 04       		.uleb128 0x4
 952 00a3 08       		.byte	0x8
 953 00a4 07       		.byte	0x7
 954 00a5 5E000000 		.4byte	.LASF14
 955 00a9 03       		.uleb128 0x3
 956 00aa 4D060000 		.4byte	.LASF15
 957 00ae 04       		.byte	0x4
 958 00af 14       		.byte	0x14
 959 00b0 53000000 		.4byte	0x53
 960 00b4 03       		.uleb128 0x3
 961 00b5 9C030000 		.4byte	.LASF16
 962 00b9 04       		.byte	0x4
 963 00ba 1F       		.byte	0x1f
 964 00bb 73000000 		.4byte	0x73
 965 00bf 03       		.uleb128 0x3
 966 00c0 62050000 		.4byte	.LASF17
 967 00c4 04       		.byte	0x4
 968 00c5 20       		.byte	0x20
ARM GAS  /tmp/ccHWwNZw.s 			page 18


 969 00c6 85000000 		.4byte	0x85
 970 00ca 03       		.uleb128 0x3
 971 00cb 1C000000 		.4byte	.LASF18
 972 00cf 04       		.byte	0x4
 973 00d0 26       		.byte	0x26
 974 00d1 97000000 		.4byte	0x97
 975 00d5 05       		.uleb128 0x5
 976 00d6 B4000000 		.4byte	0xb4
 977 00da 03       		.uleb128 0x3
 978 00db 10060000 		.4byte	.LASF19
 979 00df 05       		.byte	0x5
 980 00e0 46       		.byte	0x46
 981 00e1 BF000000 		.4byte	0xbf
 982 00e5 03       		.uleb128 0x3
 983 00e6 0A020000 		.4byte	.LASF20
 984 00ea 05       		.byte	0x5
 985 00eb 49       		.byte	0x49
 986 00ec A9000000 		.4byte	0xa9
 987 00f0 03       		.uleb128 0x3
 988 00f1 18010000 		.4byte	.LASF21
 989 00f5 05       		.byte	0x5
 990 00f6 4A       		.byte	0x4a
 991 00f7 A9000000 		.4byte	0xa9
 992 00fb 03       		.uleb128 0x3
 993 00fc 00000000 		.4byte	.LASF22
 994 0100 05       		.byte	0x5
 995 0101 4B       		.byte	0x4b
 996 0102 A9000000 		.4byte	0xa9
 997 0106 03       		.uleb128 0x3
 998 0107 6A030000 		.4byte	.LASF23
 999 010b 05       		.byte	0x5
 1000 010c 4D       		.byte	0x4d
 1001 010d BF000000 		.4byte	0xbf
 1002 0111 03       		.uleb128 0x3
 1003 0112 FF010000 		.4byte	.LASF24
 1004 0116 05       		.byte	0x5
 1005 0117 4E       		.byte	0x4e
 1006 0118 B4000000 		.4byte	0xb4
 1007 011c 03       		.uleb128 0x3
 1008 011d 20020000 		.4byte	.LASF25
 1009 0121 05       		.byte	0x5
 1010 0122 50       		.byte	0x50
 1011 0123 BF000000 		.4byte	0xbf
 1012 0127 03       		.uleb128 0x3
 1013 0128 A4010000 		.4byte	.LASF26
 1014 012c 05       		.byte	0x5
 1015 012d 52       		.byte	0x52
 1016 012e B4000000 		.4byte	0xb4
 1017 0132 03       		.uleb128 0x3
 1018 0133 BD050000 		.4byte	.LASF27
 1019 0137 06       		.byte	0x6
 1020 0138 33       		.byte	0x33
 1021 0139 BF000000 		.4byte	0xbf
 1022 013d 03       		.uleb128 0x3
 1023 013e AD050000 		.4byte	.LASF28
 1024 0142 06       		.byte	0x6
 1025 0143 3F       		.byte	0x3f
ARM GAS  /tmp/ccHWwNZw.s 			page 19


 1026 0144 48010000 		.4byte	0x148
 1027 0148 06       		.uleb128 0x6
 1028 0149 F5010000 		.4byte	.LASF48
 1029 014d 44       		.byte	0x44
 1030 014e 07       		.byte	0x7
 1031 014f C2       		.byte	0xc2
 1032 0150 35020000 		.4byte	0x235
 1033 0154 07       		.uleb128 0x7
 1034 0155 C4040000 		.4byte	.LASF29
 1035 0159 07       		.byte	0x7
 1036 015a C3       		.byte	0xc3
 1037 015b 40020000 		.4byte	0x240
 1038 015f 00       		.byte	0
 1039 0160 07       		.uleb128 0x7
 1040 0161 63030000 		.4byte	.LASF30
 1041 0165 07       		.byte	0x7
 1042 0166 C5       		.byte	0xc5
 1043 0167 40020000 		.4byte	0x240
 1044 016b 04       		.byte	0x4
 1045 016c 07       		.uleb128 0x7
 1046 016d BD000000 		.4byte	.LASF31
 1047 0171 07       		.byte	0x7
 1048 0172 C7       		.byte	0xc7
 1049 0173 06010000 		.4byte	0x106
 1050 0177 08       		.byte	0x8
 1051 0178 07       		.uleb128 0x7
 1052 0179 A4060000 		.4byte	.LASF32
 1053 017d 07       		.byte	0x7
 1054 017e C8       		.byte	0xc8
 1055 017f 70040000 		.4byte	0x470
 1056 0183 0C       		.byte	0xc
 1057 0184 07       		.uleb128 0x7
 1058 0185 39010000 		.4byte	.LASF33
 1059 0189 07       		.byte	0x7
 1060 018a CA       		.byte	0xca
 1061 018b 40020000 		.4byte	0x240
 1062 018f 10       		.byte	0x10
 1063 0190 07       		.uleb128 0x7
 1064 0191 0A030000 		.4byte	.LASF34
 1065 0195 07       		.byte	0x7
 1066 0196 CB       		.byte	0xcb
 1067 0197 40020000 		.4byte	0x240
 1068 019b 14       		.byte	0x14
 1069 019c 07       		.uleb128 0x7
 1070 019d 7F030000 		.4byte	.LASF35
 1071 01a1 07       		.byte	0x7
 1072 01a2 D2       		.byte	0xd2
 1073 01a3 EF050000 		.4byte	0x5ef
 1074 01a7 18       		.byte	0x18
 1075 01a8 07       		.uleb128 0x7
 1076 01a9 D4030000 		.4byte	.LASF36
 1077 01ad 07       		.byte	0x7
 1078 01ae DD       		.byte	0xdd
 1079 01af F0000000 		.4byte	0xf0
 1080 01b3 1C       		.byte	0x1c
 1081 01b4 07       		.uleb128 0x7
 1082 01b5 E3040000 		.4byte	.LASF37
ARM GAS  /tmp/ccHWwNZw.s 			page 20


 1083 01b9 07       		.byte	0x7
 1084 01ba E1       		.byte	0xe1
 1085 01bb E5000000 		.4byte	0xe5
 1086 01bf 1D       		.byte	0x1d
 1087 01c0 07       		.uleb128 0x7
 1088 01c1 38060000 		.4byte	.LASF38
 1089 01c5 07       		.byte	0x7
 1090 01c6 E6       		.byte	0xe6
 1091 01c7 FB000000 		.4byte	0xfb
 1092 01cb 1E       		.byte	0x1e
 1093 01cc 08       		.uleb128 0x8
 1094 01cd 705F7500 		.ascii	"p_u\000"
 1095 01d1 07       		.byte	0x7
 1096 01d2 3101     		.2byte	0x131
 1097 01d4 2A050000 		.4byte	0x52a
 1098 01d8 20       		.byte	0x20
 1099 01d9 09       		.uleb128 0x9
 1100 01da 54020000 		.4byte	.LASF39
 1101 01de 07       		.byte	0x7
 1102 01df 3601     		.2byte	0x136
 1103 01e1 46020000 		.4byte	0x246
 1104 01e5 24       		.byte	0x24
 1105 01e6 09       		.uleb128 0x9
 1106 01e7 C6010000 		.4byte	.LASF40
 1107 01eb 07       		.byte	0x7
 1108 01ec 3C01     		.2byte	0x13c
 1109 01ee 6A020000 		.4byte	0x26a
 1110 01f2 28       		.byte	0x28
 1111 01f3 09       		.uleb128 0x9
 1112 01f4 96060000 		.4byte	.LASF41
 1113 01f8 07       		.byte	0x7
 1114 01f9 4001     		.2byte	0x140
 1115 01fb 11010000 		.4byte	0x111
 1116 01ff 30       		.byte	0x30
 1117 0200 09       		.uleb128 0x9
 1118 0201 57050000 		.4byte	.LASF42
 1119 0205 07       		.byte	0x7
 1120 0206 4601     		.2byte	0x146
 1121 0208 1C010000 		.4byte	0x11c
 1122 020c 34       		.byte	0x34
 1123 020d 09       		.uleb128 0x9
 1124 020e C0030000 		.4byte	.LASF43
 1125 0212 07       		.byte	0x7
 1126 0213 4D01     		.2byte	0x14d
 1127 0215 E9050000 		.4byte	0x5e9
 1128 0219 38       		.byte	0x38
 1129 021a 09       		.uleb128 0x9
 1130 021b C7050000 		.4byte	.LASF44
 1131 021f 07       		.byte	0x7
 1132 0220 5101     		.2byte	0x151
 1133 0222 06010000 		.4byte	0x106
 1134 0226 3C       		.byte	0x3c
 1135 0227 09       		.uleb128 0x9
 1136 0228 F0000000 		.4byte	.LASF45
 1137 022c 07       		.byte	0x7
 1138 022d 5801     		.2byte	0x158
 1139 022f 1D030000 		.4byte	0x31d
ARM GAS  /tmp/ccHWwNZw.s 			page 21


 1140 0233 40       		.byte	0x40
 1141 0234 00       		.byte	0
 1142 0235 03       		.uleb128 0x3
 1143 0236 67020000 		.4byte	.LASF46
 1144 023a 06       		.byte	0x6
 1145 023b 44       		.byte	0x44
 1146 023c 40020000 		.4byte	0x240
 1147 0240 0A       		.uleb128 0xa
 1148 0241 04       		.byte	0x4
 1149 0242 3D010000 		.4byte	0x13d
 1150 0246 03       		.uleb128 0x3
 1151 0247 87060000 		.4byte	.LASF47
 1152 024b 06       		.byte	0x6
 1153 024c 49       		.byte	0x49
 1154 024d 51020000 		.4byte	0x251
 1155 0251 06       		.uleb128 0x6
 1156 0252 83050000 		.4byte	.LASF49
 1157 0256 04       		.byte	0x4
 1158 0257 07       		.byte	0x7
 1159 0258 B0       		.byte	0xb0
 1160 0259 6A020000 		.4byte	0x26a
 1161 025d 07       		.uleb128 0x7
 1162 025e C4040000 		.4byte	.LASF29
 1163 0262 07       		.byte	0x7
 1164 0263 B1       		.byte	0xb1
 1165 0264 40020000 		.4byte	0x240
 1166 0268 00       		.byte	0
 1167 0269 00       		.byte	0
 1168 026a 03       		.uleb128 0x3
 1169 026b 1F060000 		.4byte	.LASF50
 1170 026f 06       		.byte	0x6
 1171 0270 50       		.byte	0x50
 1172 0271 75020000 		.4byte	0x275
 1173 0275 06       		.uleb128 0x6
 1174 0276 AC000000 		.4byte	.LASF51
 1175 027a 08       		.byte	0x8
 1176 027b 07       		.byte	0x7
 1177 027c B7       		.byte	0xb7
 1178 027d 9A020000 		.4byte	0x29a
 1179 0281 07       		.uleb128 0x7
 1180 0282 C4040000 		.4byte	.LASF29
 1181 0286 07       		.byte	0x7
 1182 0287 B8       		.byte	0xb8
 1183 0288 40020000 		.4byte	0x240
 1184 028c 00       		.byte	0
 1185 028d 07       		.uleb128 0x7
 1186 028e 63030000 		.4byte	.LASF30
 1187 0292 07       		.byte	0x7
 1188 0293 B9       		.byte	0xb9
 1189 0294 40020000 		.4byte	0x240
 1190 0298 04       		.byte	0x4
 1191 0299 00       		.byte	0
 1192 029a 03       		.uleb128 0x3
 1193 029b 08000000 		.4byte	.LASF52
 1194 029f 06       		.byte	0x6
 1195 02a0 57       		.byte	0x57
 1196 02a1 A5020000 		.4byte	0x2a5
ARM GAS  /tmp/ccHWwNZw.s 			page 22


 1197 02a5 0B       		.uleb128 0xb
 1198 02a6 12020000 		.4byte	.LASF53
 1199 02aa 1C       		.byte	0x1c
 1200 02ab 07       		.byte	0x7
 1201 02ac 9001     		.2byte	0x190
 1202 02ae 01030000 		.4byte	0x301
 1203 02b2 09       		.uleb128 0x9
 1204 02b3 72050000 		.4byte	.LASF54
 1205 02b7 07       		.byte	0x7
 1206 02b8 9101     		.2byte	0x191
 1207 02ba 6A020000 		.4byte	0x26a
 1208 02be 00       		.byte	0
 1209 02bf 09       		.uleb128 0x9
 1210 02c0 DC030000 		.4byte	.LASF55
 1211 02c4 07       		.byte	0x7
 1212 02c5 9201     		.2byte	0x192
 1213 02c7 06010000 		.4byte	0x106
 1214 02cb 08       		.byte	0x8
 1215 02cc 09       		.uleb128 0x9
 1216 02cd 12030000 		.4byte	.LASF56
 1217 02d1 07       		.byte	0x7
 1218 02d2 9401     		.2byte	0x194
 1219 02d4 70040000 		.4byte	0x470
 1220 02d8 0C       		.byte	0xc
 1221 02d9 09       		.uleb128 0x9
 1222 02da 49010000 		.4byte	.LASF57
 1223 02de 07       		.byte	0x7
 1224 02df 9701     		.2byte	0x197
 1225 02e1 40020000 		.4byte	0x240
 1226 02e5 10       		.byte	0x10
 1227 02e6 09       		.uleb128 0x9
 1228 02e7 33030000 		.4byte	.LASF58
 1229 02eb 07       		.byte	0x7
 1230 02ec 9801     		.2byte	0x198
 1231 02ee 40020000 		.4byte	0x240
 1232 02f2 14       		.byte	0x14
 1233 02f3 09       		.uleb128 0x9
 1234 02f4 29030000 		.4byte	.LASF59
 1235 02f8 07       		.byte	0x7
 1236 02f9 9B01     		.2byte	0x19b
 1237 02fb 40020000 		.4byte	0x240
 1238 02ff 18       		.byte	0x18
 1239 0300 00       		.byte	0
 1240 0301 03       		.uleb128 0x3
 1241 0302 D2050000 		.4byte	.LASF60
 1242 0306 06       		.byte	0x6
 1243 0307 5C       		.byte	0x5c
 1244 0308 0C030000 		.4byte	0x30c
 1245 030c 0A       		.uleb128 0xa
 1246 030d 04       		.byte	0x4
 1247 030e 12030000 		.4byte	0x312
 1248 0312 0C       		.uleb128 0xc
 1249 0313 1D030000 		.4byte	0x31d
 1250 0317 0D       		.uleb128 0xd
 1251 0318 1D030000 		.4byte	0x31d
 1252 031c 00       		.byte	0
 1253 031d 0E       		.uleb128 0xe
ARM GAS  /tmp/ccHWwNZw.s 			page 23


 1254 031e 04       		.byte	0x4
 1255 031f 03       		.uleb128 0x3
 1256 0320 53030000 		.4byte	.LASF61
 1257 0324 06       		.byte	0x6
 1258 0325 61       		.byte	0x61
 1259 0326 2A030000 		.4byte	0x32a
 1260 032a 0B       		.uleb128 0xb
 1261 032b F8040000 		.4byte	.LASF62
 1262 032f 14       		.byte	0x14
 1263 0330 07       		.byte	0x7
 1264 0331 6B01     		.2byte	0x16b
 1265 0333 79030000 		.4byte	0x379
 1266 0337 09       		.uleb128 0x9
 1267 0338 B7010000 		.4byte	.LASF63
 1268 033c 07       		.byte	0x7
 1269 033d 6C01     		.2byte	0x16c
 1270 033f 01060000 		.4byte	0x601
 1271 0343 00       		.byte	0
 1272 0344 09       		.uleb128 0x9
 1273 0345 5A010000 		.4byte	.LASF64
 1274 0349 07       		.byte	0x7
 1275 034a 6D01     		.2byte	0x16d
 1276 034c 01060000 		.4byte	0x601
 1277 0350 04       		.byte	0x4
 1278 0351 09       		.uleb128 0x9
 1279 0352 7A050000 		.4byte	.LASF65
 1280 0356 07       		.byte	0x7
 1281 0357 6E01     		.2byte	0x16e
 1282 0359 32010000 		.4byte	0x132
 1283 035d 08       		.byte	0x8
 1284 035e 09       		.uleb128 0x9
 1285 035f AA060000 		.4byte	.LASF66
 1286 0363 07       		.byte	0x7
 1287 0364 6F01     		.2byte	0x16f
 1288 0366 01030000 		.4byte	0x301
 1289 036a 0C       		.byte	0xc
 1290 036b 09       		.uleb128 0x9
 1291 036c 18060000 		.4byte	.LASF67
 1292 0370 07       		.byte	0x7
 1293 0371 7101     		.2byte	0x171
 1294 0373 1D030000 		.4byte	0x31d
 1295 0377 10       		.byte	0x10
 1296 0378 00       		.byte	0
 1297 0379 03       		.uleb128 0x3
 1298 037a 89000000 		.4byte	.LASF68
 1299 037e 06       		.byte	0x6
 1300 037f 66       		.byte	0x66
 1301 0380 84030000 		.4byte	0x384
 1302 0384 0B       		.uleb128 0xb
 1303 0385 7A020000 		.4byte	.LASF69
 1304 0389 10       		.byte	0x10
 1305 038a 07       		.byte	0x7
 1306 038b 7B01     		.2byte	0x17b
 1307 038d C6030000 		.4byte	0x3c6
 1308 0391 09       		.uleb128 0x9
 1309 0392 B7010000 		.4byte	.LASF63
 1310 0396 07       		.byte	0x7
ARM GAS  /tmp/ccHWwNZw.s 			page 24


 1311 0397 7C01     		.2byte	0x17c
 1312 0399 01060000 		.4byte	0x601
 1313 039d 00       		.byte	0
 1314 039e 09       		.uleb128 0x9
 1315 039f 5A010000 		.4byte	.LASF64
 1316 03a3 07       		.byte	0x7
 1317 03a4 7E01     		.2byte	0x17e
 1318 03a6 01060000 		.4byte	0x601
 1319 03aa 04       		.byte	0x4
 1320 03ab 09       		.uleb128 0x9
 1321 03ac 7A050000 		.4byte	.LASF65
 1322 03b0 07       		.byte	0x7
 1323 03b1 8001     		.2byte	0x180
 1324 03b3 32010000 		.4byte	0x132
 1325 03b7 08       		.byte	0x8
 1326 03b8 09       		.uleb128 0x9
 1327 03b9 FE020000 		.4byte	.LASF70
 1328 03bd 07       		.byte	0x7
 1329 03be 8801     		.2byte	0x188
 1330 03c0 32010000 		.4byte	0x132
 1331 03c4 0C       		.byte	0xc
 1332 03c5 00       		.byte	0
 1333 03c6 03       		.uleb128 0x3
 1334 03c7 43000000 		.4byte	.LASF71
 1335 03cb 06       		.byte	0x6
 1336 03cc 6B       		.byte	0x6b
 1337 03cd D1030000 		.4byte	0x3d1
 1338 03d1 0B       		.uleb128 0xb
 1339 03d2 86030000 		.4byte	.LASF72
 1340 03d6 04       		.byte	0x4
 1341 03d7 07       		.byte	0x7
 1342 03d8 A201     		.2byte	0x1a2
 1343 03da EC030000 		.4byte	0x3ec
 1344 03de 09       		.uleb128 0x9
 1345 03df E6050000 		.4byte	.LASF73
 1346 03e3 07       		.byte	0x7
 1347 03e4 AA01     		.2byte	0x1aa
 1348 03e6 07060000 		.4byte	0x607
 1349 03ea 00       		.byte	0
 1350 03eb 00       		.byte	0
 1351 03ec 03       		.uleb128 0x3
 1352 03ed 04060000 		.4byte	.LASF74
 1353 03f1 06       		.byte	0x6
 1354 03f2 70       		.byte	0x70
 1355 03f3 F7030000 		.4byte	0x3f7
 1356 03f7 0F       		.uleb128 0xf
 1357 03f8 05010000 		.4byte	.LASF75
 1358 03fc 5001     		.2byte	0x150
 1359 03fe 07       		.byte	0x7
 1360 03ff C201     		.2byte	0x1c2
 1361 0401 53040000 		.4byte	0x453
 1362 0405 09       		.uleb128 0x9
 1363 0406 47060000 		.4byte	.LASF76
 1364 040a 07       		.byte	0x7
 1365 040b C601     		.2byte	0x1c6
 1366 040d 9A020000 		.4byte	0x29a
 1367 0411 00       		.byte	0
ARM GAS  /tmp/ccHWwNZw.s 			page 25


 1368 0412 09       		.uleb128 0x9
 1369 0413 62010000 		.4byte	.LASF77
 1370 0417 07       		.byte	0x7
 1371 0418 CA01     		.2byte	0x1ca
 1372 041a 79030000 		.4byte	0x379
 1373 041e 1C       		.byte	0x1c
 1374 041f 08       		.uleb128 0x8
 1375 0420 64626700 		.ascii	"dbg\000"
 1376 0424 07       		.byte	0x7
 1377 0425 CE01     		.2byte	0x1ce
 1378 0427 C6030000 		.4byte	0x3c6
 1379 042b 2C       		.byte	0x2c
 1380 042c 09       		.uleb128 0x9
 1381 042d 7E000000 		.4byte	.LASF78
 1382 0431 07       		.byte	0x7
 1383 0432 D201     		.2byte	0x1d2
 1384 0434 3D010000 		.4byte	0x13d
 1385 0438 30       		.byte	0x30
 1386 0439 08       		.uleb128 0x8
 1387 043a 746D00   		.ascii	"tm\000"
 1388 043d 07       		.byte	0x7
 1389 043e D701     		.2byte	0x1d7
 1390 0440 1F050000 		.4byte	0x51f
 1391 0444 74       		.byte	0x74
 1392 0445 09       		.uleb128 0x9
 1393 0446 95010000 		.4byte	.LASF79
 1394 044a 07       		.byte	0x7
 1395 044b E301     		.2byte	0x1e3
 1396 044d 0C060000 		.4byte	0x60c
 1397 0451 78       		.byte	0x78
 1398 0452 00       		.byte	0
 1399 0453 04       		.uleb128 0x4
 1400 0454 04       		.byte	0x4
 1401 0455 07       		.byte	0x7
 1402 0456 5E020000 		.4byte	.LASF80
 1403 045a 03       		.uleb128 0x3
 1404 045b 51010000 		.4byte	.LASF81
 1405 045f 08       		.byte	0x8
 1406 0460 65       		.byte	0x65
 1407 0461 1D030000 		.4byte	0x31d
 1408 0465 03       		.uleb128 0x3
 1409 0466 36020000 		.4byte	.LASF82
 1410 046a 08       		.byte	0x8
 1411 046b 6D       		.byte	0x6d
 1412 046c CA000000 		.4byte	0xca
 1413 0470 06       		.uleb128 0x6
 1414 0471 FC050000 		.4byte	.LASF83
 1415 0475 04       		.byte	0x4
 1416 0476 08       		.byte	0x8
 1417 0477 89       		.byte	0x89
 1418 0478 89040000 		.4byte	0x489
 1419 047c 10       		.uleb128 0x10
 1420 047d 72313300 		.ascii	"r13\000"
 1421 0481 08       		.byte	0x8
 1422 0482 8A       		.byte	0x8a
 1423 0483 04050000 		.4byte	0x504
 1424 0487 00       		.byte	0
ARM GAS  /tmp/ccHWwNZw.s 			page 26


 1425 0488 00       		.byte	0
 1426 0489 06       		.uleb128 0x6
 1427 048a 2F000000 		.4byte	.LASF84
 1428 048e 24       		.byte	0x24
 1429 048f 09       		.byte	0x9
 1430 0490 F4       		.byte	0xf4
 1431 0491 04050000 		.4byte	0x504
 1432 0495 08       		.uleb128 0x8
 1433 0496 723400   		.ascii	"r4\000"
 1434 0499 09       		.byte	0x9
 1435 049a 0701     		.2byte	0x107
 1436 049c 5A040000 		.4byte	0x45a
 1437 04a0 00       		.byte	0
 1438 04a1 08       		.uleb128 0x8
 1439 04a2 723500   		.ascii	"r5\000"
 1440 04a5 09       		.byte	0x9
 1441 04a6 0801     		.2byte	0x108
 1442 04a8 5A040000 		.4byte	0x45a
 1443 04ac 04       		.byte	0x4
 1444 04ad 08       		.uleb128 0x8
 1445 04ae 723600   		.ascii	"r6\000"
 1446 04b1 09       		.byte	0x9
 1447 04b2 0901     		.2byte	0x109
 1448 04b4 5A040000 		.4byte	0x45a
 1449 04b8 08       		.byte	0x8
 1450 04b9 08       		.uleb128 0x8
 1451 04ba 723700   		.ascii	"r7\000"
 1452 04bd 09       		.byte	0x9
 1453 04be 0A01     		.2byte	0x10a
 1454 04c0 5A040000 		.4byte	0x45a
 1455 04c4 0C       		.byte	0xc
 1456 04c5 08       		.uleb128 0x8
 1457 04c6 723800   		.ascii	"r8\000"
 1458 04c9 09       		.byte	0x9
 1459 04ca 0B01     		.2byte	0x10b
 1460 04cc 5A040000 		.4byte	0x45a
 1461 04d0 10       		.byte	0x10
 1462 04d1 08       		.uleb128 0x8
 1463 04d2 723900   		.ascii	"r9\000"
 1464 04d5 09       		.byte	0x9
 1465 04d6 0C01     		.2byte	0x10c
 1466 04d8 5A040000 		.4byte	0x45a
 1467 04dc 14       		.byte	0x14
 1468 04dd 08       		.uleb128 0x8
 1469 04de 72313000 		.ascii	"r10\000"
 1470 04e2 09       		.byte	0x9
 1471 04e3 0D01     		.2byte	0x10d
 1472 04e5 5A040000 		.4byte	0x45a
 1473 04e9 18       		.byte	0x18
 1474 04ea 08       		.uleb128 0x8
 1475 04eb 72313100 		.ascii	"r11\000"
 1476 04ef 09       		.byte	0x9
 1477 04f0 0E01     		.2byte	0x10e
 1478 04f2 5A040000 		.4byte	0x45a
 1479 04f6 1C       		.byte	0x1c
 1480 04f7 08       		.uleb128 0x8
 1481 04f8 6C7200   		.ascii	"lr\000"
ARM GAS  /tmp/ccHWwNZw.s 			page 27


 1482 04fb 09       		.byte	0x9
 1483 04fc 0F01     		.2byte	0x10f
 1484 04fe 5A040000 		.4byte	0x45a
 1485 0502 20       		.byte	0x20
 1486 0503 00       		.byte	0
 1487 0504 0A       		.uleb128 0xa
 1488 0505 04       		.byte	0x4
 1489 0506 89040000 		.4byte	0x489
 1490 050a 11       		.uleb128 0x11
 1491 050b 04       		.byte	0x4
 1492 050c 0A       		.byte	0xa
 1493 050d 38       		.byte	0x38
 1494 050e 1F050000 		.4byte	0x51f
 1495 0512 07       		.uleb128 0x7
 1496 0513 F0050000 		.4byte	.LASF85
 1497 0517 0A       		.byte	0xa
 1498 0518 3C       		.byte	0x3c
 1499 0519 DA000000 		.4byte	0xda
 1500 051d 00       		.byte	0
 1501 051e 00       		.byte	0
 1502 051f 03       		.uleb128 0x3
 1503 0520 18030000 		.4byte	.LASF86
 1504 0524 0A       		.byte	0xa
 1505 0525 3D       		.byte	0x3d
 1506 0526 0A050000 		.4byte	0x50a
 1507 052a 12       		.uleb128 0x12
 1508 052b 04       		.byte	0x4
 1509 052c 07       		.byte	0x7
 1510 052d FA       		.byte	0xfa
 1511 052e 87050000 		.4byte	0x587
 1512 0532 13       		.uleb128 0x13
 1513 0533 F1040000 		.4byte	.LASF87
 1514 0537 07       		.byte	0x7
 1515 0538 0101     		.2byte	0x101
 1516 053a 11010000 		.4byte	0x111
 1517 053e 13       		.uleb128 0x13
 1518 053f 75000000 		.4byte	.LASF88
 1519 0543 07       		.byte	0x7
 1520 0544 0801     		.2byte	0x108
 1521 0546 11010000 		.4byte	0x111
 1522 054a 13       		.uleb128 0x13
 1523 054b 5F060000 		.4byte	.LASF89
 1524 054f 07       		.byte	0x7
 1525 0550 0F01     		.2byte	0x10f
 1526 0552 1D030000 		.4byte	0x31d
 1527 0556 13       		.uleb128 0x13
 1528 0557 FF000000 		.4byte	.LASF90
 1529 055b 07       		.byte	0x7
 1530 055c 1601     		.2byte	0x116
 1531 055e 87050000 		.4byte	0x587
 1532 0562 13       		.uleb128 0x13
 1533 0563 BF010000 		.4byte	.LASF91
 1534 0567 07       		.byte	0x7
 1535 0568 1E01     		.2byte	0x11e
 1536 056a B2050000 		.4byte	0x5b2
 1537 056e 13       		.uleb128 0x13
 1538 056f 6B050000 		.4byte	.LASF92
ARM GAS  /tmp/ccHWwNZw.s 			page 28


 1539 0573 07       		.byte	0x7
 1540 0574 2701     		.2byte	0x127
 1541 0576 E9050000 		.4byte	0x5e9
 1542 057a 13       		.uleb128 0x13
 1543 057b BD040000 		.4byte	.LASF93
 1544 057f 07       		.byte	0x7
 1545 0580 2F01     		.2byte	0x12f
 1546 0582 1C010000 		.4byte	0x11c
 1547 0586 00       		.byte	0
 1548 0587 0A       		.uleb128 0xa
 1549 0588 04       		.byte	0x4
 1550 0589 35020000 		.4byte	0x235
 1551 058d 06       		.uleb128 0x6
 1552 058e 09050000 		.4byte	.LASF94
 1553 0592 0C       		.byte	0xc
 1554 0593 0B       		.byte	0xb
 1555 0594 34       		.byte	0x34
 1556 0595 B2050000 		.4byte	0x5b2
 1557 0599 07       		.uleb128 0x7
 1558 059a 41010000 		.4byte	.LASF95
 1559 059e 0B       		.byte	0xb
 1560 059f 35       		.byte	0x35
 1561 05a0 6A020000 		.4byte	0x26a
 1562 05a4 00       		.byte	0
 1563 05a5 07       		.uleb128 0x7
 1564 05a6 BA030000 		.4byte	.LASF96
 1565 05aa 0B       		.byte	0xb
 1566 05ab 37       		.byte	0x37
 1567 05ac 27010000 		.4byte	0x127
 1568 05b0 08       		.byte	0x8
 1569 05b1 00       		.byte	0
 1570 05b2 0A       		.uleb128 0xa
 1571 05b3 04       		.byte	0x4
 1572 05b4 8D050000 		.4byte	0x58d
 1573 05b8 06       		.uleb128 0x6
 1574 05b9 2F060000 		.4byte	.LASF97
 1575 05bd 10       		.byte	0x10
 1576 05be 0C       		.byte	0xc
 1577 05bf 39       		.byte	0x39
 1578 05c0 E9050000 		.4byte	0x5e9
 1579 05c4 07       		.uleb128 0x7
 1580 05c5 B2030000 		.4byte	.LASF98
 1581 05c9 0C       		.byte	0xc
 1582 05ca 3A       		.byte	0x3a
 1583 05cb 6A020000 		.4byte	0x26a
 1584 05cf 00       		.byte	0
 1585 05d0 07       		.uleb128 0x7
 1586 05d1 9C060000 		.4byte	.LASF99
 1587 05d5 0C       		.byte	0xc
 1588 05d6 3C       		.byte	0x3c
 1589 05d7 40020000 		.4byte	0x240
 1590 05db 08       		.byte	0x8
 1591 05dc 07       		.uleb128 0x7
 1592 05dd B6050000 		.4byte	.LASF100
 1593 05e1 0C       		.byte	0xc
 1594 05e2 3E       		.byte	0x3e
 1595 05e3 27060000 		.4byte	0x627
ARM GAS  /tmp/ccHWwNZw.s 			page 29


 1596 05e7 0C       		.byte	0xc
 1597 05e8 00       		.byte	0
 1598 05e9 0A       		.uleb128 0xa
 1599 05ea 04       		.byte	0x4
 1600 05eb B8050000 		.4byte	0x5b8
 1601 05ef 0A       		.uleb128 0xa
 1602 05f0 04       		.byte	0x4
 1603 05f1 FC050000 		.4byte	0x5fc
 1604 05f5 04       		.uleb128 0x4
 1605 05f6 01       		.byte	0x1
 1606 05f7 08       		.byte	0x8
 1607 05f8 9E050000 		.4byte	.LASF101
 1608 05fc 14       		.uleb128 0x14
 1609 05fd F5050000 		.4byte	0x5f5
 1610 0601 0A       		.uleb128 0xa
 1611 0602 04       		.byte	0x4
 1612 0603 1F030000 		.4byte	0x31f
 1613 0607 05       		.uleb128 0x5
 1614 0608 EF050000 		.4byte	0x5ef
 1615 060c 15       		.uleb128 0x15
 1616 060d 65040000 		.4byte	0x465
 1617 0611 1C060000 		.4byte	0x61c
 1618 0615 16       		.uleb128 0x16
 1619 0616 53040000 		.4byte	0x453
 1620 061a 1A       		.byte	0x1a
 1621 061b 00       		.byte	0
 1622 061c 03       		.uleb128 0x3
 1623 061d 78010000 		.4byte	.LASF102
 1624 0621 0C       		.byte	0xc
 1625 0622 34       		.byte	0x34
 1626 0623 B8050000 		.4byte	0x5b8
 1627 0627 0A       		.uleb128 0xa
 1628 0628 04       		.byte	0x4
 1629 0629 1C060000 		.4byte	0x61c
 1630 062d 0A       		.uleb128 0xa
 1631 062e 04       		.byte	0x4
 1632 062f A9000000 		.4byte	0xa9
 1633 0633 06       		.uleb128 0x6
 1634 0634 CB040000 		.4byte	.LASF103
 1635 0638 10       		.byte	0x10
 1636 0639 0D       		.byte	0xd
 1637 063a 40       		.byte	0x40
 1638 063b 70060000 		.4byte	0x670
 1639 063f 07       		.uleb128 0x7
 1640 0640 4E020000 		.4byte	.LASF104
 1641 0644 0D       		.byte	0xd
 1642 0645 41       		.byte	0x41
 1643 0646 94060000 		.4byte	0x694
 1644 064a 00       		.byte	0
 1645 064b 07       		.uleb128 0x7
 1646 064c 05020000 		.4byte	.LASF105
 1647 0650 0D       		.byte	0xd
 1648 0651 41       		.byte	0x41
 1649 0652 B3060000 		.4byte	0x6b3
 1650 0656 04       		.byte	0x4
 1651 0657 10       		.uleb128 0x10
 1652 0658 70757400 		.ascii	"put\000"
ARM GAS  /tmp/ccHWwNZw.s 			page 30


 1653 065c 0D       		.byte	0xd
 1654 065d 41       		.byte	0x41
 1655 065e CD060000 		.4byte	0x6cd
 1656 0662 08       		.byte	0x8
 1657 0663 10       		.uleb128 0x10
 1658 0664 67657400 		.ascii	"get\000"
 1659 0668 0D       		.byte	0xd
 1660 0669 41       		.byte	0x41
 1661 066a E2060000 		.4byte	0x6e2
 1662 066e 0C       		.byte	0xc
 1663 066f 00       		.byte	0
 1664 0670 17       		.uleb128 0x17
 1665 0671 2C000000 		.4byte	0x2c
 1666 0675 89060000 		.4byte	0x689
 1667 0679 0D       		.uleb128 0xd
 1668 067a 1D030000 		.4byte	0x31d
 1669 067e 0D       		.uleb128 0xd
 1670 067f 89060000 		.4byte	0x689
 1671 0683 0D       		.uleb128 0xd
 1672 0684 2C000000 		.4byte	0x2c
 1673 0688 00       		.byte	0
 1674 0689 0A       		.uleb128 0xa
 1675 068a 04       		.byte	0x4
 1676 068b 8F060000 		.4byte	0x68f
 1677 068f 14       		.uleb128 0x14
 1678 0690 A9000000 		.4byte	0xa9
 1679 0694 0A       		.uleb128 0xa
 1680 0695 04       		.byte	0x4
 1681 0696 70060000 		.4byte	0x670
 1682 069a 17       		.uleb128 0x17
 1683 069b 2C000000 		.4byte	0x2c
 1684 069f B3060000 		.4byte	0x6b3
 1685 06a3 0D       		.uleb128 0xd
 1686 06a4 1D030000 		.4byte	0x31d
 1687 06a8 0D       		.uleb128 0xd
 1688 06a9 2D060000 		.4byte	0x62d
 1689 06ad 0D       		.uleb128 0xd
 1690 06ae 2C000000 		.4byte	0x2c
 1691 06b2 00       		.byte	0
 1692 06b3 0A       		.uleb128 0xa
 1693 06b4 04       		.byte	0x4
 1694 06b5 9A060000 		.4byte	0x69a
 1695 06b9 17       		.uleb128 0x17
 1696 06ba 11010000 		.4byte	0x111
 1697 06be CD060000 		.4byte	0x6cd
 1698 06c2 0D       		.uleb128 0xd
 1699 06c3 1D030000 		.4byte	0x31d
 1700 06c7 0D       		.uleb128 0xd
 1701 06c8 A9000000 		.4byte	0xa9
 1702 06cc 00       		.byte	0
 1703 06cd 0A       		.uleb128 0xa
 1704 06ce 04       		.byte	0x4
 1705 06cf B9060000 		.4byte	0x6b9
 1706 06d3 17       		.uleb128 0x17
 1707 06d4 11010000 		.4byte	0x111
 1708 06d8 E2060000 		.4byte	0x6e2
 1709 06dc 0D       		.uleb128 0xd
ARM GAS  /tmp/ccHWwNZw.s 			page 31


 1710 06dd 1D030000 		.4byte	0x31d
 1711 06e1 00       		.byte	0
 1712 06e2 0A       		.uleb128 0xa
 1713 06e3 04       		.byte	0x4
 1714 06e4 D3060000 		.4byte	0x6d3
 1715 06e8 11       		.uleb128 0x11
 1716 06e9 04       		.byte	0x4
 1717 06ea 0D       		.byte	0xd
 1718 06eb 49       		.byte	0x49
 1719 06ec FD060000 		.4byte	0x6fd
 1720 06f0 10       		.uleb128 0x10
 1721 06f1 766D7400 		.ascii	"vmt\000"
 1722 06f5 0D       		.byte	0xd
 1723 06f6 4B       		.byte	0x4b
 1724 06f7 FD060000 		.4byte	0x6fd
 1725 06fb 00       		.byte	0
 1726 06fc 00       		.byte	0
 1727 06fd 0A       		.uleb128 0xa
 1728 06fe 04       		.byte	0x4
 1729 06ff 03070000 		.4byte	0x703
 1730 0703 14       		.uleb128 0x14
 1731 0704 33060000 		.4byte	0x633
 1732 0708 03       		.uleb128 0x3
 1733 0709 80010000 		.4byte	.LASF106
 1734 070d 0D       		.byte	0xd
 1735 070e 4D       		.byte	0x4d
 1736 070f E8060000 		.4byte	0x6e8
 1737 0713 04       		.uleb128 0x4
 1738 0714 01       		.byte	0x1
 1739 0715 02       		.byte	0x2
 1740 0716 96030000 		.4byte	.LASF107
 1741 071a 03       		.uleb128 0x3
 1742 071b EF020000 		.4byte	.LASF108
 1743 071f 0E       		.byte	0xe
 1744 0720 28       		.byte	0x28
 1745 0721 25070000 		.4byte	0x725
 1746 0725 06       		.uleb128 0x6
 1747 0726 21010000 		.4byte	.LASF109
 1748 072a 04       		.byte	0x4
 1749 072b 0F       		.byte	0xf
 1750 072c 00       		.byte	0
 1751 072d 3C070000 		.4byte	0x73c
 1752 0731 18       		.uleb128 0x18
 1753 0732 F7050000 		.4byte	.LASF110
 1754 0736 1D030000 		.4byte	0x31d
 1755 073a 00       		.byte	0
 1756 073b 00       		.byte	0
 1757 073c 03       		.uleb128 0x3
 1758 073d 3B000000 		.4byte	.LASF111
 1759 0741 0E       		.byte	0xe
 1760 0742 62       		.byte	0x62
 1761 0743 1A070000 		.4byte	0x71a
 1762 0747 06       		.uleb128 0x6
 1763 0748 3B030000 		.4byte	.LASF112
 1764 074c 10       		.byte	0x10
 1765 074d 10       		.byte	0x10
 1766 074e 3D       		.byte	0x3d
ARM GAS  /tmp/ccHWwNZw.s 			page 32


 1767 074f 84070000 		.4byte	0x784
 1768 0753 07       		.uleb128 0x7
 1769 0754 4E020000 		.4byte	.LASF104
 1770 0758 10       		.byte	0x10
 1771 0759 3E       		.byte	0x3e
 1772 075a 94060000 		.4byte	0x694
 1773 075e 00       		.byte	0
 1774 075f 07       		.uleb128 0x7
 1775 0760 05020000 		.4byte	.LASF105
 1776 0764 10       		.byte	0x10
 1777 0765 3E       		.byte	0x3e
 1778 0766 B3060000 		.4byte	0x6b3
 1779 076a 04       		.byte	0x4
 1780 076b 10       		.uleb128 0x10
 1781 076c 70757400 		.ascii	"put\000"
 1782 0770 10       		.byte	0x10
 1783 0771 3E       		.byte	0x3e
 1784 0772 CD060000 		.4byte	0x6cd
 1785 0776 08       		.byte	0x8
 1786 0777 10       		.uleb128 0x10
 1787 0778 67657400 		.ascii	"get\000"
 1788 077c 10       		.byte	0x10
 1789 077d 3E       		.byte	0x3e
 1790 077e E2060000 		.4byte	0x6e2
 1791 0782 0C       		.byte	0xc
 1792 0783 00       		.byte	0
 1793 0784 11       		.uleb128 0x11
 1794 0785 14       		.byte	0x14
 1795 0786 10       		.byte	0x10
 1796 0787 46       		.byte	0x46
 1797 0788 C9070000 		.4byte	0x7c9
 1798 078c 10       		.uleb128 0x10
 1799 078d 766D7400 		.ascii	"vmt\000"
 1800 0791 10       		.byte	0x10
 1801 0792 48       		.byte	0x48
 1802 0793 C9070000 		.4byte	0x7c9
 1803 0797 00       		.byte	0
 1804 0798 07       		.uleb128 0x7
 1805 0799 32010000 		.4byte	.LASF113
 1806 079d 10       		.byte	0x10
 1807 079e 49       		.byte	0x49
 1808 079f 2D060000 		.4byte	0x62d
 1809 07a3 04       		.byte	0x4
 1810 07a4 07       		.uleb128 0x7
 1811 07a5 82060000 		.4byte	.LASF114
 1812 07a9 10       		.byte	0x10
 1813 07aa 49       		.byte	0x49
 1814 07ab 2C000000 		.4byte	0x2c
 1815 07af 08       		.byte	0x8
 1816 07b0 10       		.uleb128 0x10
 1817 07b1 656F7300 		.ascii	"eos\000"
 1818 07b5 10       		.byte	0x10
 1819 07b6 49       		.byte	0x49
 1820 07b7 2C000000 		.4byte	0x2c
 1821 07bb 0C       		.byte	0xc
 1822 07bc 07       		.uleb128 0x7
 1823 07bd F0050000 		.4byte	.LASF85
ARM GAS  /tmp/ccHWwNZw.s 			page 33


 1824 07c1 10       		.byte	0x10
 1825 07c2 49       		.byte	0x49
 1826 07c3 2C000000 		.4byte	0x2c
 1827 07c7 10       		.byte	0x10
 1828 07c8 00       		.byte	0
 1829 07c9 0A       		.uleb128 0xa
 1830 07ca 04       		.byte	0x4
 1831 07cb CF070000 		.4byte	0x7cf
 1832 07cf 14       		.uleb128 0x14
 1833 07d0 47070000 		.4byte	0x747
 1834 07d4 03       		.uleb128 0x3
 1835 07d5 72030000 		.4byte	.LASF115
 1836 07d9 10       		.byte	0x10
 1837 07da 4A       		.byte	0x4a
 1838 07db 84070000 		.4byte	0x784
 1839 07df 19       		.uleb128 0x19
 1840 07e0 66060000 		.4byte	.LASF132
 1841 07e4 01       		.byte	0x1
 1842 07e5 25       		.byte	0x25
 1843 07e6 3F080000 		.4byte	0x83f
 1844 07ea 01       		.byte	0x1
 1845 07eb 3F080000 		.4byte	0x83f
 1846 07ef 1A       		.uleb128 0x1a
 1847 07f0 7000     		.ascii	"p\000"
 1848 07f2 01       		.byte	0x1
 1849 07f3 25       		.byte	0x25
 1850 07f4 3F080000 		.4byte	0x83f
 1851 07f8 1A       		.uleb128 0x1a
 1852 07f9 6E756D00 		.ascii	"num\000"
 1853 07fd 01       		.byte	0x1
 1854 07fe 26       		.byte	0x26
 1855 07ff 7E000000 		.4byte	0x7e
 1856 0803 1B       		.uleb128 0x1b
 1857 0804 EB040000 		.4byte	.LASF116
 1858 0808 01       		.byte	0x1
 1859 0809 27       		.byte	0x27
 1860 080a 37000000 		.4byte	0x37
 1861 080e 1B       		.uleb128 0x1b
 1862 080f E7020000 		.4byte	.LASF117
 1863 0813 01       		.byte	0x1
 1864 0814 28       		.byte	0x28
 1865 0815 7E000000 		.4byte	0x7e
 1866 0819 1C       		.uleb128 0x1c
 1867 081a 6900     		.ascii	"i\000"
 1868 081c 01       		.byte	0x1
 1869 081d 29       		.byte	0x29
 1870 081e 25000000 		.4byte	0x25
 1871 0822 1C       		.uleb128 0x1c
 1872 0823 7100     		.ascii	"q\000"
 1873 0825 01       		.byte	0x1
 1874 0826 2A       		.byte	0x2a
 1875 0827 3F080000 		.4byte	0x83f
 1876 082b 1C       		.uleb128 0x1c
 1877 082c 6C00     		.ascii	"l\000"
 1878 082e 01       		.byte	0x1
 1879 082f 2B       		.byte	0x2b
 1880 0830 7E000000 		.4byte	0x7e
ARM GAS  /tmp/ccHWwNZw.s 			page 34


 1881 0834 1C       		.uleb128 0x1c
 1882 0835 6C6C00   		.ascii	"ll\000"
 1883 0838 01       		.byte	0x1
 1884 0839 2B       		.byte	0x2b
 1885 083a 7E000000 		.4byte	0x7e
 1886 083e 00       		.byte	0
 1887 083f 0A       		.uleb128 0xa
 1888 0840 04       		.byte	0x4
 1889 0841 F5050000 		.4byte	0x5f5
 1890 0845 1D       		.uleb128 0x1d
 1891 0846 3F060000 		.4byte	.LASF133
 1892 084a 01       		.byte	0x1
 1893 084b 46       		.byte	0x46
 1894 084c 3F080000 		.4byte	0x83f
 1895 0850 00000000 		.4byte	.LFB260
 1896 0854 44000000 		.4byte	.LFE260-.LFB260
 1897 0858 01       		.uleb128 0x1
 1898 0859 9C       		.byte	0x9c
 1899 085a EC080000 		.4byte	0x8ec
 1900 085e 1E       		.uleb128 0x1e
 1901 085f 7000     		.ascii	"p\000"
 1902 0861 01       		.byte	0x1
 1903 0862 46       		.byte	0x46
 1904 0863 3F080000 		.4byte	0x83f
 1905 0867 00000000 		.4byte	.LLST0
 1906 086b 1E       		.uleb128 0x1e
 1907 086c 6E756D00 		.ascii	"num\000"
 1908 0870 01       		.byte	0x1
 1909 0871 46       		.byte	0x46
 1910 0872 7E000000 		.4byte	0x7e
 1911 0876 2E000000 		.4byte	.LLST1
 1912 087a 1F       		.uleb128 0x1f
 1913 087b EB040000 		.4byte	.LASF116
 1914 087f 01       		.byte	0x1
 1915 0880 46       		.byte	0x46
 1916 0881 37000000 		.4byte	0x37
 1917 0885 4F000000 		.4byte	.LLST2
 1918 0889 20       		.uleb128 0x20
 1919 088a DF070000 		.4byte	0x7df
 1920 088e 02000000 		.4byte	.LBB4
 1921 0892 3E000000 		.4byte	.LBE4-.LBB4
 1922 0896 01       		.byte	0x1
 1923 0897 48       		.byte	0x48
 1924 0898 21       		.uleb128 0x21
 1925 0899 0E080000 		.4byte	0x80e
 1926 089d 70000000 		.4byte	.LLST3
 1927 08a1 21       		.uleb128 0x21
 1928 08a2 03080000 		.4byte	0x803
 1929 08a6 84000000 		.4byte	.LLST4
 1930 08aa 21       		.uleb128 0x21
 1931 08ab F8070000 		.4byte	0x7f8
 1932 08af A5000000 		.4byte	.LLST5
 1933 08b3 21       		.uleb128 0x21
 1934 08b4 EF070000 		.4byte	0x7ef
 1935 08b8 C6000000 		.4byte	.LLST6
 1936 08bc 22       		.uleb128 0x22
 1937 08bd 02000000 		.4byte	.LBB5
ARM GAS  /tmp/ccHWwNZw.s 			page 35


 1938 08c1 3E000000 		.4byte	.LBE5-.LBB5
 1939 08c5 23       		.uleb128 0x23
 1940 08c6 19080000 		.4byte	0x819
 1941 08ca FE000000 		.4byte	.LLST7
 1942 08ce 23       		.uleb128 0x23
 1943 08cf 22080000 		.4byte	0x822
 1944 08d3 2C010000 		.4byte	.LLST8
 1945 08d7 23       		.uleb128 0x23
 1946 08d8 2B080000 		.4byte	0x82b
 1947 08dc 62010000 		.4byte	.LLST9
 1948 08e0 23       		.uleb128 0x23
 1949 08e1 34080000 		.4byte	0x834
 1950 08e5 80010000 		.4byte	.LLST10
 1951 08e9 00       		.byte	0
 1952 08ea 00       		.byte	0
 1953 08eb 00       		.byte	0
 1954 08ec 24       		.uleb128 0x24
 1955 08ed 55060000 		.4byte	.LASF124
 1956 08f1 01       		.byte	0x1
 1957 08f2 79       		.byte	0x79
 1958 08f3 25000000 		.4byte	0x25
 1959 08f7 00000000 		.4byte	.LFB261
 1960 08fb 04030000 		.4byte	.LFE261-.LFB261
 1961 08ff 01       		.uleb128 0x1
 1962 0900 9C       		.byte	0x9c
 1963 0901 450A0000 		.4byte	0xa45
 1964 0905 1E       		.uleb128 0x1e
 1965 0906 63687000 		.ascii	"chp\000"
 1966 090a 01       		.byte	0x1
 1967 090b 79       		.byte	0x79
 1968 090c 450A0000 		.4byte	0xa45
 1969 0910 A9010000 		.4byte	.LLST11
 1970 0914 1E       		.uleb128 0x1e
 1971 0915 666D7400 		.ascii	"fmt\000"
 1972 0919 01       		.byte	0x1
 1973 091a 79       		.byte	0x79
 1974 091b EF050000 		.4byte	0x5ef
 1975 091f C7010000 		.4byte	.LLST12
 1976 0923 1E       		.uleb128 0x1e
 1977 0924 617000   		.ascii	"ap\000"
 1978 0927 01       		.byte	0x1
 1979 0928 79       		.byte	0x79
 1980 0929 3C070000 		.4byte	0x73c
 1981 092d 7C020000 		.4byte	.LLST13
 1982 0931 25       		.uleb128 0x25
 1983 0932 7000     		.ascii	"p\000"
 1984 0934 01       		.byte	0x1
 1985 0935 7A       		.byte	0x7a
 1986 0936 3F080000 		.4byte	0x83f
 1987 093a 8F020000 		.4byte	.LLST14
 1988 093e 25       		.uleb128 0x25
 1989 093f 7300     		.ascii	"s\000"
 1990 0941 01       		.byte	0x1
 1991 0942 7A       		.byte	0x7a
 1992 0943 3F080000 		.4byte	0x83f
 1993 0947 59030000 		.4byte	.LLST15
 1994 094b 25       		.uleb128 0x25
ARM GAS  /tmp/ccHWwNZw.s 			page 36


 1995 094c 6300     		.ascii	"c\000"
 1996 094e 01       		.byte	0x1
 1997 094f 7A       		.byte	0x7a
 1998 0950 F5050000 		.4byte	0x5f5
 1999 0954 2C040000 		.4byte	.LLST16
 2000 0958 26       		.uleb128 0x26
 2001 0959 69010000 		.4byte	.LASF118
 2002 095d 01       		.byte	0x1
 2003 095e 7A       		.byte	0x7a
 2004 095f F5050000 		.4byte	0x5f5
 2005 0963 C8040000 		.4byte	.LLST17
 2006 0967 25       		.uleb128 0x25
 2007 0968 6900     		.ascii	"i\000"
 2008 096a 01       		.byte	0x1
 2009 096b 7B       		.byte	0x7b
 2010 096c 25000000 		.4byte	0x25
 2011 0970 48050000 		.4byte	.LLST18
 2012 0974 26       		.uleb128 0x26
 2013 0975 A3050000 		.4byte	.LASF119
 2014 0979 01       		.byte	0x1
 2015 097a 7B       		.byte	0x7b
 2016 097b 25000000 		.4byte	0x25
 2017 097f 73050000 		.4byte	.LLST19
 2018 0983 26       		.uleb128 0x26
 2019 0984 DC010000 		.4byte	.LASF120
 2020 0988 01       		.byte	0x1
 2021 0989 7B       		.byte	0x7b
 2022 098a 25000000 		.4byte	0x25
 2023 098e F1050000 		.4byte	.LLST20
 2024 0992 25       		.uleb128 0x25
 2025 0993 6E00     		.ascii	"n\000"
 2026 0995 01       		.byte	0x1
 2027 0996 7C       		.byte	0x7c
 2028 0997 25000000 		.4byte	0x25
 2029 099b B0060000 		.4byte	.LLST21
 2030 099f 26       		.uleb128 0x26
 2031 09a0 70010000 		.4byte	.LASF121
 2032 09a4 01       		.byte	0x1
 2033 09a5 7D       		.byte	0x7d
 2034 09a6 13070000 		.4byte	0x713
 2035 09aa F0060000 		.4byte	.LLST22
 2036 09ae 26       		.uleb128 0x26
 2037 09af D1010000 		.4byte	.LASF122
 2038 09b3 01       		.byte	0x1
 2039 09b4 7D       		.byte	0x7d
 2040 09b5 13070000 		.4byte	0x713
 2041 09b9 10070000 		.4byte	.LLST23
 2042 09bd 25       		.uleb128 0x25
 2043 09be 6C00     		.ascii	"l\000"
 2044 09c0 01       		.byte	0x1
 2045 09c1 7E       		.byte	0x7e
 2046 09c2 7E000000 		.4byte	0x7e
 2047 09c6 5C070000 		.4byte	.LLST24
 2048 09ca 27       		.uleb128 0x27
 2049 09cb F8000000 		.4byte	.LASF123
 2050 09cf 01       		.byte	0x1
 2051 09d0 83       		.byte	0x83
ARM GAS  /tmp/ccHWwNZw.s 			page 37


 2052 09d1 4B0A0000 		.4byte	0xa4b
 2053 09d5 02       		.uleb128 0x2
 2054 09d6 91       		.byte	0x91
 2055 09d7 4C       		.sleb128 -52
 2056 09d8 28       		.uleb128 0x28
 2057 09d9 D7020000 		.4byte	.LASF134
 2058 09dd 01       		.byte	0x1
 2059 09de EF       		.byte	0xef
 2060 09df 87010000 		.4byte	.L36
 2061 09e3 29       		.uleb128 0x29
 2062 09e4 2E000000 		.4byte	.LVL22
 2063 09e8 F3090000 		.4byte	0x9f3
 2064 09ec 2A       		.uleb128 0x2a
 2065 09ed 01       		.uleb128 0x1
 2066 09ee 50       		.byte	0x50
 2067 09ef 02       		.uleb128 0x2
 2068 09f0 76       		.byte	0x76
 2069 09f1 00       		.sleb128 0
 2070 09f2 00       		.byte	0
 2071 09f3 2B       		.uleb128 0x2b
 2072 09f4 94010000 		.4byte	.LVL52
 2073 09f8 45080000 		.4byte	0x845
 2074 09fc 29       		.uleb128 0x29
 2075 09fd C8010000 		.4byte	.LVL62
 2076 0a01 120A0000 		.4byte	0xa12
 2077 0a05 2A       		.uleb128 0x2a
 2078 0a06 01       		.uleb128 0x1
 2079 0a07 50       		.byte	0x50
 2080 0a08 02       		.uleb128 0x2
 2081 0a09 76       		.byte	0x76
 2082 0a0a 00       		.sleb128 0
 2083 0a0b 2A       		.uleb128 0x2a
 2084 0a0c 01       		.uleb128 0x1
 2085 0a0d 51       		.byte	0x51
 2086 0a0e 02       		.uleb128 0x2
 2087 0a0f 78       		.byte	0x78
 2088 0a10 00       		.sleb128 0
 2089 0a11 00       		.byte	0
 2090 0a12 29       		.uleb128 0x29
 2091 0a13 EE010000 		.4byte	.LVL69
 2092 0a17 220A0000 		.4byte	0xa22
 2093 0a1b 2A       		.uleb128 0x2a
 2094 0a1c 01       		.uleb128 0x1
 2095 0a1d 50       		.byte	0x50
 2096 0a1e 02       		.uleb128 0x2
 2097 0a1f 76       		.byte	0x76
 2098 0a20 00       		.sleb128 0
 2099 0a21 00       		.byte	0
 2100 0a22 29       		.uleb128 0x29
 2101 0a23 14020000 		.4byte	.LVL72
 2102 0a27 380A0000 		.4byte	0xa38
 2103 0a2b 2A       		.uleb128 0x2a
 2104 0a2c 01       		.uleb128 0x1
 2105 0a2d 50       		.byte	0x50
 2106 0a2e 02       		.uleb128 0x2
 2107 0a2f 76       		.byte	0x76
 2108 0a30 00       		.sleb128 0
ARM GAS  /tmp/ccHWwNZw.s 			page 38


 2109 0a31 2A       		.uleb128 0x2a
 2110 0a32 01       		.uleb128 0x1
 2111 0a33 51       		.byte	0x51
 2112 0a34 02       		.uleb128 0x2
 2113 0a35 78       		.byte	0x78
 2114 0a36 00       		.sleb128 0
 2115 0a37 00       		.byte	0
 2116 0a38 2C       		.uleb128 0x2c
 2117 0a39 DE020000 		.4byte	.LVL103
 2118 0a3d 2A       		.uleb128 0x2a
 2119 0a3e 01       		.uleb128 0x1
 2120 0a3f 50       		.byte	0x50
 2121 0a40 02       		.uleb128 0x2
 2122 0a41 76       		.byte	0x76
 2123 0a42 00       		.sleb128 0
 2124 0a43 00       		.byte	0
 2125 0a44 00       		.byte	0
 2126 0a45 0A       		.uleb128 0xa
 2127 0a46 04       		.byte	0x4
 2128 0a47 08070000 		.4byte	0x708
 2129 0a4b 15       		.uleb128 0x15
 2130 0a4c F5050000 		.4byte	0x5f5
 2131 0a50 5B0A0000 		.4byte	0xa5b
 2132 0a54 16       		.uleb128 0x16
 2133 0a55 53040000 		.4byte	0x453
 2134 0a59 0B       		.byte	0xb
 2135 0a5a 00       		.byte	0
 2136 0a5b 2D       		.uleb128 0x2d
 2137 0a5c 93050000 		.4byte	.LASF125
 2138 0a60 01       		.byte	0x1
 2139 0a61 3301     		.2byte	0x133
 2140 0a63 25000000 		.4byte	0x25
 2141 0a67 00000000 		.4byte	.LFB262
 2142 0a6b 5E000000 		.4byte	.LFE262-.LFB262
 2143 0a6f 01       		.uleb128 0x1
 2144 0a70 9C       		.byte	0x9c
 2145 0a71 7B0B0000 		.4byte	0xb7b
 2146 0a75 2E       		.uleb128 0x2e
 2147 0a76 73747200 		.ascii	"str\000"
 2148 0a7a 01       		.byte	0x1
 2149 0a7b 3301     		.2byte	0x133
 2150 0a7d 3F080000 		.4byte	0x83f
 2151 0a81 85070000 		.4byte	.LLST25
 2152 0a85 2F       		.uleb128 0x2f
 2153 0a86 82060000 		.4byte	.LASF114
 2154 0a8a 01       		.byte	0x1
 2155 0a8b 3301     		.2byte	0x133
 2156 0a8d 2C000000 		.4byte	0x2c
 2157 0a91 D5070000 		.4byte	.LLST26
 2158 0a95 30       		.uleb128 0x30
 2159 0a96 666D7400 		.ascii	"fmt\000"
 2160 0a9a 01       		.byte	0x1
 2161 0a9b 3301     		.2byte	0x133
 2162 0a9d EF050000 		.4byte	0x5ef
 2163 0aa1 02       		.uleb128 0x2
 2164 0aa2 91       		.byte	0x91
 2165 0aa3 78       		.sleb128 -8
ARM GAS  /tmp/ccHWwNZw.s 			page 39


 2166 0aa4 31       		.uleb128 0x31
 2167 0aa5 32       		.uleb128 0x32
 2168 0aa6 617000   		.ascii	"ap\000"
 2169 0aa9 01       		.byte	0x1
 2170 0aaa 3401     		.2byte	0x134
 2171 0aac 3C070000 		.4byte	0x73c
 2172 0ab0 02       		.uleb128 0x2
 2173 0ab1 91       		.byte	0x91
 2174 0ab2 50       		.sleb128 -48
 2175 0ab3 32       		.uleb128 0x32
 2176 0ab4 6D7300   		.ascii	"ms\000"
 2177 0ab7 01       		.byte	0x1
 2178 0ab8 3501     		.2byte	0x135
 2179 0aba D4070000 		.4byte	0x7d4
 2180 0abe 02       		.uleb128 0x2
 2181 0abf 91       		.byte	0x91
 2182 0ac0 54       		.sleb128 -44
 2183 0ac1 33       		.uleb128 0x33
 2184 0ac2 63687000 		.ascii	"chp\000"
 2185 0ac6 01       		.byte	0x1
 2186 0ac7 3601     		.2byte	0x136
 2187 0ac9 450A0000 		.4byte	0xa45
 2188 0acd 25080000 		.4byte	.LLST27
 2189 0ad1 34       		.uleb128 0x34
 2190 0ad2 52000000 		.4byte	.LASF126
 2191 0ad6 01       		.byte	0x1
 2192 0ad7 3701     		.2byte	0x137
 2193 0ad9 2C000000 		.4byte	0x2c
 2194 0add 77080000 		.4byte	.LLST28
 2195 0ae1 34       		.uleb128 0x34
 2196 0ae2 2B010000 		.4byte	.LASF127
 2197 0ae6 01       		.byte	0x1
 2198 0ae7 3801     		.2byte	0x138
 2199 0ae9 25000000 		.4byte	0x25
 2200 0aed C0080000 		.4byte	.LLST29
 2201 0af1 35       		.uleb128 0x35
 2202 0af2 18000000 		.4byte	.LVL115
 2203 0af6 920B0000 		.4byte	0xb92
 2204 0afa 160B0000 		.4byte	0xb16
 2205 0afe 2A       		.uleb128 0x2a
 2206 0aff 01       		.uleb128 0x1
 2207 0b00 50       		.byte	0x50
 2208 0b01 02       		.uleb128 0x2
 2209 0b02 91       		.byte	0x91
 2210 0b03 44       		.sleb128 -60
 2211 0b04 2A       		.uleb128 0x2a
 2212 0b05 01       		.uleb128 0x1
 2213 0b06 51       		.byte	0x51
 2214 0b07 02       		.uleb128 0x2
 2215 0b08 75       		.byte	0x75
 2216 0b09 00       		.sleb128 0
 2217 0b0a 2A       		.uleb128 0x2a
 2218 0b0b 01       		.uleb128 0x1
 2219 0b0c 52       		.byte	0x52
 2220 0b0d 02       		.uleb128 0x2
 2221 0b0e 74       		.byte	0x74
 2222 0b0f 7F       		.sleb128 -1
ARM GAS  /tmp/ccHWwNZw.s 			page 40


 2223 0b10 2A       		.uleb128 0x2a
 2224 0b11 01       		.uleb128 0x1
 2225 0b12 53       		.byte	0x53
 2226 0b13 01       		.uleb128 0x1
 2227 0b14 30       		.byte	0x30
 2228 0b15 00       		.byte	0
 2229 0b16 35       		.uleb128 0x35
 2230 0b17 26000000 		.4byte	.LVL117
 2231 0b1b EC080000 		.4byte	0x8ec
 2232 0b1f 370B0000 		.4byte	0xb37
 2233 0b23 2A       		.uleb128 0x2a
 2234 0b24 01       		.uleb128 0x1
 2235 0b25 50       		.byte	0x50
 2236 0b26 02       		.uleb128 0x2
 2237 0b27 91       		.byte	0x91
 2238 0b28 44       		.sleb128 -60
 2239 0b29 2A       		.uleb128 0x2a
 2240 0b2a 01       		.uleb128 0x1
 2241 0b2b 51       		.byte	0x51
 2242 0b2c 03       		.uleb128 0x3
 2243 0b2d 91       		.byte	0x91
 2244 0b2e 68       		.sleb128 -24
 2245 0b2f 06       		.byte	0x6
 2246 0b30 2A       		.uleb128 0x2a
 2247 0b31 01       		.uleb128 0x1
 2248 0b32 52       		.byte	0x52
 2249 0b33 02       		.uleb128 0x2
 2250 0b34 91       		.byte	0x91
 2251 0b35 6C       		.sleb128 -20
 2252 0b36 00       		.byte	0
 2253 0b37 35       		.uleb128 0x35
 2254 0b38 46000000 		.4byte	.LVL122
 2255 0b3c 920B0000 		.4byte	0xb92
 2256 0b40 5D0B0000 		.4byte	0xb5d
 2257 0b44 2A       		.uleb128 0x2a
 2258 0b45 01       		.uleb128 0x1
 2259 0b46 50       		.byte	0x50
 2260 0b47 02       		.uleb128 0x2
 2261 0b48 91       		.byte	0x91
 2262 0b49 44       		.sleb128 -60
 2263 0b4a 2A       		.uleb128 0x2a
 2264 0b4b 01       		.uleb128 0x1
 2265 0b4c 51       		.byte	0x51
 2266 0b4d 02       		.uleb128 0x2
 2267 0b4e 75       		.byte	0x75
 2268 0b4f 00       		.sleb128 0
 2269 0b50 2A       		.uleb128 0x2a
 2270 0b51 01       		.uleb128 0x1
 2271 0b52 52       		.byte	0x52
 2272 0b53 02       		.uleb128 0x2
 2273 0b54 74       		.byte	0x74
 2274 0b55 00       		.sleb128 0
 2275 0b56 2A       		.uleb128 0x2a
 2276 0b57 01       		.uleb128 0x1
 2277 0b58 53       		.byte	0x53
 2278 0b59 02       		.uleb128 0x2
 2279 0b5a 74       		.byte	0x74
ARM GAS  /tmp/ccHWwNZw.s 			page 41


 2280 0b5b 00       		.sleb128 0
 2281 0b5c 00       		.byte	0
 2282 0b5d 36       		.uleb128 0x36
 2283 0b5e 54000000 		.4byte	.LVL124
 2284 0b62 EC080000 		.4byte	0x8ec
 2285 0b66 2A       		.uleb128 0x2a
 2286 0b67 01       		.uleb128 0x1
 2287 0b68 50       		.byte	0x50
 2288 0b69 02       		.uleb128 0x2
 2289 0b6a 91       		.byte	0x91
 2290 0b6b 44       		.sleb128 -60
 2291 0b6c 2A       		.uleb128 0x2a
 2292 0b6d 01       		.uleb128 0x1
 2293 0b6e 51       		.byte	0x51
 2294 0b6f 03       		.uleb128 0x3
 2295 0b70 91       		.byte	0x91
 2296 0b71 68       		.sleb128 -24
 2297 0b72 06       		.byte	0x6
 2298 0b73 2A       		.uleb128 0x2a
 2299 0b74 01       		.uleb128 0x1
 2300 0b75 52       		.byte	0x52
 2301 0b76 02       		.uleb128 0x2
 2302 0b77 91       		.byte	0x91
 2303 0b78 6C       		.sleb128 -20
 2304 0b79 00       		.byte	0
 2305 0b7a 00       		.byte	0
 2306 0b7b 37       		.uleb128 0x37
 2307 0b7c 9F000000 		.4byte	.LASF128
 2308 0b80 11       		.byte	0x11
 2309 0b81 A706     		.2byte	0x6a7
 2310 0b83 D5000000 		.4byte	0xd5
 2311 0b87 38       		.uleb128 0x38
 2312 0b88 636800   		.ascii	"ch\000"
 2313 0b8b 07       		.byte	0x7
 2314 0b8c 0902     		.2byte	0x209
 2315 0b8e EC030000 		.4byte	0x3ec
 2316 0b92 39       		.uleb128 0x39
 2317 0b93 41020000 		.4byte	.LASF135
 2318 0b97 41020000 		.4byte	.LASF135
 2319 0b9b 10       		.byte	0x10
 2320 0b9c 57       		.byte	0x57
 2321 0b9d 00       		.byte	0
 2322              		.section	.debug_abbrev,"",%progbits
 2323              	.Ldebug_abbrev0:
 2324 0000 01       		.uleb128 0x1
 2325 0001 11       		.uleb128 0x11
 2326 0002 01       		.byte	0x1
 2327 0003 25       		.uleb128 0x25
 2328 0004 0E       		.uleb128 0xe
 2329 0005 13       		.uleb128 0x13
 2330 0006 0B       		.uleb128 0xb
 2331 0007 03       		.uleb128 0x3
 2332 0008 0E       		.uleb128 0xe
 2333 0009 1B       		.uleb128 0x1b
 2334 000a 0E       		.uleb128 0xe
 2335 000b 55       		.uleb128 0x55
 2336 000c 17       		.uleb128 0x17
ARM GAS  /tmp/ccHWwNZw.s 			page 42


 2337 000d 11       		.uleb128 0x11
 2338 000e 01       		.uleb128 0x1
 2339 000f 10       		.uleb128 0x10
 2340 0010 17       		.uleb128 0x17
 2341 0011 00       		.byte	0
 2342 0012 00       		.byte	0
 2343 0013 02       		.uleb128 0x2
 2344 0014 24       		.uleb128 0x24
 2345 0015 00       		.byte	0
 2346 0016 0B       		.uleb128 0xb
 2347 0017 0B       		.uleb128 0xb
 2348 0018 3E       		.uleb128 0x3e
 2349 0019 0B       		.uleb128 0xb
 2350 001a 03       		.uleb128 0x3
 2351 001b 08       		.uleb128 0x8
 2352 001c 00       		.byte	0
 2353 001d 00       		.byte	0
 2354 001e 03       		.uleb128 0x3
 2355 001f 16       		.uleb128 0x16
 2356 0020 00       		.byte	0
 2357 0021 03       		.uleb128 0x3
 2358 0022 0E       		.uleb128 0xe
 2359 0023 3A       		.uleb128 0x3a
 2360 0024 0B       		.uleb128 0xb
 2361 0025 3B       		.uleb128 0x3b
 2362 0026 0B       		.uleb128 0xb
 2363 0027 49       		.uleb128 0x49
 2364 0028 13       		.uleb128 0x13
 2365 0029 00       		.byte	0
 2366 002a 00       		.byte	0
 2367 002b 04       		.uleb128 0x4
 2368 002c 24       		.uleb128 0x24
 2369 002d 00       		.byte	0
 2370 002e 0B       		.uleb128 0xb
 2371 002f 0B       		.uleb128 0xb
 2372 0030 3E       		.uleb128 0x3e
 2373 0031 0B       		.uleb128 0xb
 2374 0032 03       		.uleb128 0x3
 2375 0033 0E       		.uleb128 0xe
 2376 0034 00       		.byte	0
 2377 0035 00       		.byte	0
 2378 0036 05       		.uleb128 0x5
 2379 0037 35       		.uleb128 0x35
 2380 0038 00       		.byte	0
 2381 0039 49       		.uleb128 0x49
 2382 003a 13       		.uleb128 0x13
 2383 003b 00       		.byte	0
 2384 003c 00       		.byte	0
 2385 003d 06       		.uleb128 0x6
 2386 003e 13       		.uleb128 0x13
 2387 003f 01       		.byte	0x1
 2388 0040 03       		.uleb128 0x3
 2389 0041 0E       		.uleb128 0xe
 2390 0042 0B       		.uleb128 0xb
 2391 0043 0B       		.uleb128 0xb
 2392 0044 3A       		.uleb128 0x3a
 2393 0045 0B       		.uleb128 0xb
ARM GAS  /tmp/ccHWwNZw.s 			page 43


 2394 0046 3B       		.uleb128 0x3b
 2395 0047 0B       		.uleb128 0xb
 2396 0048 01       		.uleb128 0x1
 2397 0049 13       		.uleb128 0x13
 2398 004a 00       		.byte	0
 2399 004b 00       		.byte	0
 2400 004c 07       		.uleb128 0x7
 2401 004d 0D       		.uleb128 0xd
 2402 004e 00       		.byte	0
 2403 004f 03       		.uleb128 0x3
 2404 0050 0E       		.uleb128 0xe
 2405 0051 3A       		.uleb128 0x3a
 2406 0052 0B       		.uleb128 0xb
 2407 0053 3B       		.uleb128 0x3b
 2408 0054 0B       		.uleb128 0xb
 2409 0055 49       		.uleb128 0x49
 2410 0056 13       		.uleb128 0x13
 2411 0057 38       		.uleb128 0x38
 2412 0058 0B       		.uleb128 0xb
 2413 0059 00       		.byte	0
 2414 005a 00       		.byte	0
 2415 005b 08       		.uleb128 0x8
 2416 005c 0D       		.uleb128 0xd
 2417 005d 00       		.byte	0
 2418 005e 03       		.uleb128 0x3
 2419 005f 08       		.uleb128 0x8
 2420 0060 3A       		.uleb128 0x3a
 2421 0061 0B       		.uleb128 0xb
 2422 0062 3B       		.uleb128 0x3b
 2423 0063 05       		.uleb128 0x5
 2424 0064 49       		.uleb128 0x49
 2425 0065 13       		.uleb128 0x13
 2426 0066 38       		.uleb128 0x38
 2427 0067 0B       		.uleb128 0xb
 2428 0068 00       		.byte	0
 2429 0069 00       		.byte	0
 2430 006a 09       		.uleb128 0x9
 2431 006b 0D       		.uleb128 0xd
 2432 006c 00       		.byte	0
 2433 006d 03       		.uleb128 0x3
 2434 006e 0E       		.uleb128 0xe
 2435 006f 3A       		.uleb128 0x3a
 2436 0070 0B       		.uleb128 0xb
 2437 0071 3B       		.uleb128 0x3b
 2438 0072 05       		.uleb128 0x5
 2439 0073 49       		.uleb128 0x49
 2440 0074 13       		.uleb128 0x13
 2441 0075 38       		.uleb128 0x38
 2442 0076 0B       		.uleb128 0xb
 2443 0077 00       		.byte	0
 2444 0078 00       		.byte	0
 2445 0079 0A       		.uleb128 0xa
 2446 007a 0F       		.uleb128 0xf
 2447 007b 00       		.byte	0
 2448 007c 0B       		.uleb128 0xb
 2449 007d 0B       		.uleb128 0xb
 2450 007e 49       		.uleb128 0x49
ARM GAS  /tmp/ccHWwNZw.s 			page 44


 2451 007f 13       		.uleb128 0x13
 2452 0080 00       		.byte	0
 2453 0081 00       		.byte	0
 2454 0082 0B       		.uleb128 0xb
 2455 0083 13       		.uleb128 0x13
 2456 0084 01       		.byte	0x1
 2457 0085 03       		.uleb128 0x3
 2458 0086 0E       		.uleb128 0xe
 2459 0087 0B       		.uleb128 0xb
 2460 0088 0B       		.uleb128 0xb
 2461 0089 3A       		.uleb128 0x3a
 2462 008a 0B       		.uleb128 0xb
 2463 008b 3B       		.uleb128 0x3b
 2464 008c 05       		.uleb128 0x5
 2465 008d 01       		.uleb128 0x1
 2466 008e 13       		.uleb128 0x13
 2467 008f 00       		.byte	0
 2468 0090 00       		.byte	0
 2469 0091 0C       		.uleb128 0xc
 2470 0092 15       		.uleb128 0x15
 2471 0093 01       		.byte	0x1
 2472 0094 27       		.uleb128 0x27
 2473 0095 19       		.uleb128 0x19
 2474 0096 01       		.uleb128 0x1
 2475 0097 13       		.uleb128 0x13
 2476 0098 00       		.byte	0
 2477 0099 00       		.byte	0
 2478 009a 0D       		.uleb128 0xd
 2479 009b 05       		.uleb128 0x5
 2480 009c 00       		.byte	0
 2481 009d 49       		.uleb128 0x49
 2482 009e 13       		.uleb128 0x13
 2483 009f 00       		.byte	0
 2484 00a0 00       		.byte	0
 2485 00a1 0E       		.uleb128 0xe
 2486 00a2 0F       		.uleb128 0xf
 2487 00a3 00       		.byte	0
 2488 00a4 0B       		.uleb128 0xb
 2489 00a5 0B       		.uleb128 0xb
 2490 00a6 00       		.byte	0
 2491 00a7 00       		.byte	0
 2492 00a8 0F       		.uleb128 0xf
 2493 00a9 13       		.uleb128 0x13
 2494 00aa 01       		.byte	0x1
 2495 00ab 03       		.uleb128 0x3
 2496 00ac 0E       		.uleb128 0xe
 2497 00ad 0B       		.uleb128 0xb
 2498 00ae 05       		.uleb128 0x5
 2499 00af 3A       		.uleb128 0x3a
 2500 00b0 0B       		.uleb128 0xb
 2501 00b1 3B       		.uleb128 0x3b
 2502 00b2 05       		.uleb128 0x5
 2503 00b3 01       		.uleb128 0x1
 2504 00b4 13       		.uleb128 0x13
 2505 00b5 00       		.byte	0
 2506 00b6 00       		.byte	0
 2507 00b7 10       		.uleb128 0x10
ARM GAS  /tmp/ccHWwNZw.s 			page 45


 2508 00b8 0D       		.uleb128 0xd
 2509 00b9 00       		.byte	0
 2510 00ba 03       		.uleb128 0x3
 2511 00bb 08       		.uleb128 0x8
 2512 00bc 3A       		.uleb128 0x3a
 2513 00bd 0B       		.uleb128 0xb
 2514 00be 3B       		.uleb128 0x3b
 2515 00bf 0B       		.uleb128 0xb
 2516 00c0 49       		.uleb128 0x49
 2517 00c1 13       		.uleb128 0x13
 2518 00c2 38       		.uleb128 0x38
 2519 00c3 0B       		.uleb128 0xb
 2520 00c4 00       		.byte	0
 2521 00c5 00       		.byte	0
 2522 00c6 11       		.uleb128 0x11
 2523 00c7 13       		.uleb128 0x13
 2524 00c8 01       		.byte	0x1
 2525 00c9 0B       		.uleb128 0xb
 2526 00ca 0B       		.uleb128 0xb
 2527 00cb 3A       		.uleb128 0x3a
 2528 00cc 0B       		.uleb128 0xb
 2529 00cd 3B       		.uleb128 0x3b
 2530 00ce 0B       		.uleb128 0xb
 2531 00cf 01       		.uleb128 0x1
 2532 00d0 13       		.uleb128 0x13
 2533 00d1 00       		.byte	0
 2534 00d2 00       		.byte	0
 2535 00d3 12       		.uleb128 0x12
 2536 00d4 17       		.uleb128 0x17
 2537 00d5 01       		.byte	0x1
 2538 00d6 0B       		.uleb128 0xb
 2539 00d7 0B       		.uleb128 0xb
 2540 00d8 3A       		.uleb128 0x3a
 2541 00d9 0B       		.uleb128 0xb
 2542 00da 3B       		.uleb128 0x3b
 2543 00db 0B       		.uleb128 0xb
 2544 00dc 01       		.uleb128 0x1
 2545 00dd 13       		.uleb128 0x13
 2546 00de 00       		.byte	0
 2547 00df 00       		.byte	0
 2548 00e0 13       		.uleb128 0x13
 2549 00e1 0D       		.uleb128 0xd
 2550 00e2 00       		.byte	0
 2551 00e3 03       		.uleb128 0x3
 2552 00e4 0E       		.uleb128 0xe
 2553 00e5 3A       		.uleb128 0x3a
 2554 00e6 0B       		.uleb128 0xb
 2555 00e7 3B       		.uleb128 0x3b
 2556 00e8 05       		.uleb128 0x5
 2557 00e9 49       		.uleb128 0x49
 2558 00ea 13       		.uleb128 0x13
 2559 00eb 00       		.byte	0
 2560 00ec 00       		.byte	0
 2561 00ed 14       		.uleb128 0x14
 2562 00ee 26       		.uleb128 0x26
 2563 00ef 00       		.byte	0
 2564 00f0 49       		.uleb128 0x49
ARM GAS  /tmp/ccHWwNZw.s 			page 46


 2565 00f1 13       		.uleb128 0x13
 2566 00f2 00       		.byte	0
 2567 00f3 00       		.byte	0
 2568 00f4 15       		.uleb128 0x15
 2569 00f5 01       		.uleb128 0x1
 2570 00f6 01       		.byte	0x1
 2571 00f7 49       		.uleb128 0x49
 2572 00f8 13       		.uleb128 0x13
 2573 00f9 01       		.uleb128 0x1
 2574 00fa 13       		.uleb128 0x13
 2575 00fb 00       		.byte	0
 2576 00fc 00       		.byte	0
 2577 00fd 16       		.uleb128 0x16
 2578 00fe 21       		.uleb128 0x21
 2579 00ff 00       		.byte	0
 2580 0100 49       		.uleb128 0x49
 2581 0101 13       		.uleb128 0x13
 2582 0102 2F       		.uleb128 0x2f
 2583 0103 0B       		.uleb128 0xb
 2584 0104 00       		.byte	0
 2585 0105 00       		.byte	0
 2586 0106 17       		.uleb128 0x17
 2587 0107 15       		.uleb128 0x15
 2588 0108 01       		.byte	0x1
 2589 0109 27       		.uleb128 0x27
 2590 010a 19       		.uleb128 0x19
 2591 010b 49       		.uleb128 0x49
 2592 010c 13       		.uleb128 0x13
 2593 010d 01       		.uleb128 0x1
 2594 010e 13       		.uleb128 0x13
 2595 010f 00       		.byte	0
 2596 0110 00       		.byte	0
 2597 0111 18       		.uleb128 0x18
 2598 0112 0D       		.uleb128 0xd
 2599 0113 00       		.byte	0
 2600 0114 03       		.uleb128 0x3
 2601 0115 0E       		.uleb128 0xe
 2602 0116 49       		.uleb128 0x49
 2603 0117 13       		.uleb128 0x13
 2604 0118 38       		.uleb128 0x38
 2605 0119 0B       		.uleb128 0xb
 2606 011a 34       		.uleb128 0x34
 2607 011b 19       		.uleb128 0x19
 2608 011c 00       		.byte	0
 2609 011d 00       		.byte	0
 2610 011e 19       		.uleb128 0x19
 2611 011f 2E       		.uleb128 0x2e
 2612 0120 01       		.byte	0x1
 2613 0121 03       		.uleb128 0x3
 2614 0122 0E       		.uleb128 0xe
 2615 0123 3A       		.uleb128 0x3a
 2616 0124 0B       		.uleb128 0xb
 2617 0125 3B       		.uleb128 0x3b
 2618 0126 0B       		.uleb128 0xb
 2619 0127 27       		.uleb128 0x27
 2620 0128 19       		.uleb128 0x19
 2621 0129 49       		.uleb128 0x49
ARM GAS  /tmp/ccHWwNZw.s 			page 47


 2622 012a 13       		.uleb128 0x13
 2623 012b 20       		.uleb128 0x20
 2624 012c 0B       		.uleb128 0xb
 2625 012d 01       		.uleb128 0x1
 2626 012e 13       		.uleb128 0x13
 2627 012f 00       		.byte	0
 2628 0130 00       		.byte	0
 2629 0131 1A       		.uleb128 0x1a
 2630 0132 05       		.uleb128 0x5
 2631 0133 00       		.byte	0
 2632 0134 03       		.uleb128 0x3
 2633 0135 08       		.uleb128 0x8
 2634 0136 3A       		.uleb128 0x3a
 2635 0137 0B       		.uleb128 0xb
 2636 0138 3B       		.uleb128 0x3b
 2637 0139 0B       		.uleb128 0xb
 2638 013a 49       		.uleb128 0x49
 2639 013b 13       		.uleb128 0x13
 2640 013c 00       		.byte	0
 2641 013d 00       		.byte	0
 2642 013e 1B       		.uleb128 0x1b
 2643 013f 05       		.uleb128 0x5
 2644 0140 00       		.byte	0
 2645 0141 03       		.uleb128 0x3
 2646 0142 0E       		.uleb128 0xe
 2647 0143 3A       		.uleb128 0x3a
 2648 0144 0B       		.uleb128 0xb
 2649 0145 3B       		.uleb128 0x3b
 2650 0146 0B       		.uleb128 0xb
 2651 0147 49       		.uleb128 0x49
 2652 0148 13       		.uleb128 0x13
 2653 0149 00       		.byte	0
 2654 014a 00       		.byte	0
 2655 014b 1C       		.uleb128 0x1c
 2656 014c 34       		.uleb128 0x34
 2657 014d 00       		.byte	0
 2658 014e 03       		.uleb128 0x3
 2659 014f 08       		.uleb128 0x8
 2660 0150 3A       		.uleb128 0x3a
 2661 0151 0B       		.uleb128 0xb
 2662 0152 3B       		.uleb128 0x3b
 2663 0153 0B       		.uleb128 0xb
 2664 0154 49       		.uleb128 0x49
 2665 0155 13       		.uleb128 0x13
 2666 0156 00       		.byte	0
 2667 0157 00       		.byte	0
 2668 0158 1D       		.uleb128 0x1d
 2669 0159 2E       		.uleb128 0x2e
 2670 015a 01       		.byte	0x1
 2671 015b 03       		.uleb128 0x3
 2672 015c 0E       		.uleb128 0xe
 2673 015d 3A       		.uleb128 0x3a
 2674 015e 0B       		.uleb128 0xb
 2675 015f 3B       		.uleb128 0x3b
 2676 0160 0B       		.uleb128 0xb
 2677 0161 27       		.uleb128 0x27
 2678 0162 19       		.uleb128 0x19
ARM GAS  /tmp/ccHWwNZw.s 			page 48


 2679 0163 49       		.uleb128 0x49
 2680 0164 13       		.uleb128 0x13
 2681 0165 11       		.uleb128 0x11
 2682 0166 01       		.uleb128 0x1
 2683 0167 12       		.uleb128 0x12
 2684 0168 06       		.uleb128 0x6
 2685 0169 40       		.uleb128 0x40
 2686 016a 18       		.uleb128 0x18
 2687 016b 9742     		.uleb128 0x2117
 2688 016d 19       		.uleb128 0x19
 2689 016e 01       		.uleb128 0x1
 2690 016f 13       		.uleb128 0x13
 2691 0170 00       		.byte	0
 2692 0171 00       		.byte	0
 2693 0172 1E       		.uleb128 0x1e
 2694 0173 05       		.uleb128 0x5
 2695 0174 00       		.byte	0
 2696 0175 03       		.uleb128 0x3
 2697 0176 08       		.uleb128 0x8
 2698 0177 3A       		.uleb128 0x3a
 2699 0178 0B       		.uleb128 0xb
 2700 0179 3B       		.uleb128 0x3b
 2701 017a 0B       		.uleb128 0xb
 2702 017b 49       		.uleb128 0x49
 2703 017c 13       		.uleb128 0x13
 2704 017d 02       		.uleb128 0x2
 2705 017e 17       		.uleb128 0x17
 2706 017f 00       		.byte	0
 2707 0180 00       		.byte	0
 2708 0181 1F       		.uleb128 0x1f
 2709 0182 05       		.uleb128 0x5
 2710 0183 00       		.byte	0
 2711 0184 03       		.uleb128 0x3
 2712 0185 0E       		.uleb128 0xe
 2713 0186 3A       		.uleb128 0x3a
 2714 0187 0B       		.uleb128 0xb
 2715 0188 3B       		.uleb128 0x3b
 2716 0189 0B       		.uleb128 0xb
 2717 018a 49       		.uleb128 0x49
 2718 018b 13       		.uleb128 0x13
 2719 018c 02       		.uleb128 0x2
 2720 018d 17       		.uleb128 0x17
 2721 018e 00       		.byte	0
 2722 018f 00       		.byte	0
 2723 0190 20       		.uleb128 0x20
 2724 0191 1D       		.uleb128 0x1d
 2725 0192 01       		.byte	0x1
 2726 0193 31       		.uleb128 0x31
 2727 0194 13       		.uleb128 0x13
 2728 0195 11       		.uleb128 0x11
 2729 0196 01       		.uleb128 0x1
 2730 0197 12       		.uleb128 0x12
 2731 0198 06       		.uleb128 0x6
 2732 0199 58       		.uleb128 0x58
 2733 019a 0B       		.uleb128 0xb
 2734 019b 59       		.uleb128 0x59
 2735 019c 0B       		.uleb128 0xb
ARM GAS  /tmp/ccHWwNZw.s 			page 49


 2736 019d 00       		.byte	0
 2737 019e 00       		.byte	0
 2738 019f 21       		.uleb128 0x21
 2739 01a0 05       		.uleb128 0x5
 2740 01a1 00       		.byte	0
 2741 01a2 31       		.uleb128 0x31
 2742 01a3 13       		.uleb128 0x13
 2743 01a4 02       		.uleb128 0x2
 2744 01a5 17       		.uleb128 0x17
 2745 01a6 00       		.byte	0
 2746 01a7 00       		.byte	0
 2747 01a8 22       		.uleb128 0x22
 2748 01a9 0B       		.uleb128 0xb
 2749 01aa 01       		.byte	0x1
 2750 01ab 11       		.uleb128 0x11
 2751 01ac 01       		.uleb128 0x1
 2752 01ad 12       		.uleb128 0x12
 2753 01ae 06       		.uleb128 0x6
 2754 01af 00       		.byte	0
 2755 01b0 00       		.byte	0
 2756 01b1 23       		.uleb128 0x23
 2757 01b2 34       		.uleb128 0x34
 2758 01b3 00       		.byte	0
 2759 01b4 31       		.uleb128 0x31
 2760 01b5 13       		.uleb128 0x13
 2761 01b6 02       		.uleb128 0x2
 2762 01b7 17       		.uleb128 0x17
 2763 01b8 00       		.byte	0
 2764 01b9 00       		.byte	0
 2765 01ba 24       		.uleb128 0x24
 2766 01bb 2E       		.uleb128 0x2e
 2767 01bc 01       		.byte	0x1
 2768 01bd 3F       		.uleb128 0x3f
 2769 01be 19       		.uleb128 0x19
 2770 01bf 03       		.uleb128 0x3
 2771 01c0 0E       		.uleb128 0xe
 2772 01c1 3A       		.uleb128 0x3a
 2773 01c2 0B       		.uleb128 0xb
 2774 01c3 3B       		.uleb128 0x3b
 2775 01c4 0B       		.uleb128 0xb
 2776 01c5 27       		.uleb128 0x27
 2777 01c6 19       		.uleb128 0x19
 2778 01c7 49       		.uleb128 0x49
 2779 01c8 13       		.uleb128 0x13
 2780 01c9 11       		.uleb128 0x11
 2781 01ca 01       		.uleb128 0x1
 2782 01cb 12       		.uleb128 0x12
 2783 01cc 06       		.uleb128 0x6
 2784 01cd 40       		.uleb128 0x40
 2785 01ce 18       		.uleb128 0x18
 2786 01cf 9742     		.uleb128 0x2117
 2787 01d1 19       		.uleb128 0x19
 2788 01d2 01       		.uleb128 0x1
 2789 01d3 13       		.uleb128 0x13
 2790 01d4 00       		.byte	0
 2791 01d5 00       		.byte	0
 2792 01d6 25       		.uleb128 0x25
ARM GAS  /tmp/ccHWwNZw.s 			page 50


 2793 01d7 34       		.uleb128 0x34
 2794 01d8 00       		.byte	0
 2795 01d9 03       		.uleb128 0x3
 2796 01da 08       		.uleb128 0x8
 2797 01db 3A       		.uleb128 0x3a
 2798 01dc 0B       		.uleb128 0xb
 2799 01dd 3B       		.uleb128 0x3b
 2800 01de 0B       		.uleb128 0xb
 2801 01df 49       		.uleb128 0x49
 2802 01e0 13       		.uleb128 0x13
 2803 01e1 02       		.uleb128 0x2
 2804 01e2 17       		.uleb128 0x17
 2805 01e3 00       		.byte	0
 2806 01e4 00       		.byte	0
 2807 01e5 26       		.uleb128 0x26
 2808 01e6 34       		.uleb128 0x34
 2809 01e7 00       		.byte	0
 2810 01e8 03       		.uleb128 0x3
 2811 01e9 0E       		.uleb128 0xe
 2812 01ea 3A       		.uleb128 0x3a
 2813 01eb 0B       		.uleb128 0xb
 2814 01ec 3B       		.uleb128 0x3b
 2815 01ed 0B       		.uleb128 0xb
 2816 01ee 49       		.uleb128 0x49
 2817 01ef 13       		.uleb128 0x13
 2818 01f0 02       		.uleb128 0x2
 2819 01f1 17       		.uleb128 0x17
 2820 01f2 00       		.byte	0
 2821 01f3 00       		.byte	0
 2822 01f4 27       		.uleb128 0x27
 2823 01f5 34       		.uleb128 0x34
 2824 01f6 00       		.byte	0
 2825 01f7 03       		.uleb128 0x3
 2826 01f8 0E       		.uleb128 0xe
 2827 01f9 3A       		.uleb128 0x3a
 2828 01fa 0B       		.uleb128 0xb
 2829 01fb 3B       		.uleb128 0x3b
 2830 01fc 0B       		.uleb128 0xb
 2831 01fd 49       		.uleb128 0x49
 2832 01fe 13       		.uleb128 0x13
 2833 01ff 02       		.uleb128 0x2
 2834 0200 18       		.uleb128 0x18
 2835 0201 00       		.byte	0
 2836 0202 00       		.byte	0
 2837 0203 28       		.uleb128 0x28
 2838 0204 0A       		.uleb128 0xa
 2839 0205 00       		.byte	0
 2840 0206 03       		.uleb128 0x3
 2841 0207 0E       		.uleb128 0xe
 2842 0208 3A       		.uleb128 0x3a
 2843 0209 0B       		.uleb128 0xb
 2844 020a 3B       		.uleb128 0x3b
 2845 020b 0B       		.uleb128 0xb
 2846 020c 11       		.uleb128 0x11
 2847 020d 01       		.uleb128 0x1
 2848 020e 00       		.byte	0
 2849 020f 00       		.byte	0
ARM GAS  /tmp/ccHWwNZw.s 			page 51


 2850 0210 29       		.uleb128 0x29
 2851 0211 898201   		.uleb128 0x4109
 2852 0214 01       		.byte	0x1
 2853 0215 11       		.uleb128 0x11
 2854 0216 01       		.uleb128 0x1
 2855 0217 01       		.uleb128 0x1
 2856 0218 13       		.uleb128 0x13
 2857 0219 00       		.byte	0
 2858 021a 00       		.byte	0
 2859 021b 2A       		.uleb128 0x2a
 2860 021c 8A8201   		.uleb128 0x410a
 2861 021f 00       		.byte	0
 2862 0220 02       		.uleb128 0x2
 2863 0221 18       		.uleb128 0x18
 2864 0222 9142     		.uleb128 0x2111
 2865 0224 18       		.uleb128 0x18
 2866 0225 00       		.byte	0
 2867 0226 00       		.byte	0
 2868 0227 2B       		.uleb128 0x2b
 2869 0228 898201   		.uleb128 0x4109
 2870 022b 00       		.byte	0
 2871 022c 11       		.uleb128 0x11
 2872 022d 01       		.uleb128 0x1
 2873 022e 31       		.uleb128 0x31
 2874 022f 13       		.uleb128 0x13
 2875 0230 00       		.byte	0
 2876 0231 00       		.byte	0
 2877 0232 2C       		.uleb128 0x2c
 2878 0233 898201   		.uleb128 0x4109
 2879 0236 01       		.byte	0x1
 2880 0237 11       		.uleb128 0x11
 2881 0238 01       		.uleb128 0x1
 2882 0239 00       		.byte	0
 2883 023a 00       		.byte	0
 2884 023b 2D       		.uleb128 0x2d
 2885 023c 2E       		.uleb128 0x2e
 2886 023d 01       		.byte	0x1
 2887 023e 3F       		.uleb128 0x3f
 2888 023f 19       		.uleb128 0x19
 2889 0240 03       		.uleb128 0x3
 2890 0241 0E       		.uleb128 0xe
 2891 0242 3A       		.uleb128 0x3a
 2892 0243 0B       		.uleb128 0xb
 2893 0244 3B       		.uleb128 0x3b
 2894 0245 05       		.uleb128 0x5
 2895 0246 27       		.uleb128 0x27
 2896 0247 19       		.uleb128 0x19
 2897 0248 49       		.uleb128 0x49
 2898 0249 13       		.uleb128 0x13
 2899 024a 11       		.uleb128 0x11
 2900 024b 01       		.uleb128 0x1
 2901 024c 12       		.uleb128 0x12
 2902 024d 06       		.uleb128 0x6
 2903 024e 40       		.uleb128 0x40
 2904 024f 18       		.uleb128 0x18
 2905 0250 9742     		.uleb128 0x2117
 2906 0252 19       		.uleb128 0x19
ARM GAS  /tmp/ccHWwNZw.s 			page 52


 2907 0253 01       		.uleb128 0x1
 2908 0254 13       		.uleb128 0x13
 2909 0255 00       		.byte	0
 2910 0256 00       		.byte	0
 2911 0257 2E       		.uleb128 0x2e
 2912 0258 05       		.uleb128 0x5
 2913 0259 00       		.byte	0
 2914 025a 03       		.uleb128 0x3
 2915 025b 08       		.uleb128 0x8
 2916 025c 3A       		.uleb128 0x3a
 2917 025d 0B       		.uleb128 0xb
 2918 025e 3B       		.uleb128 0x3b
 2919 025f 05       		.uleb128 0x5
 2920 0260 49       		.uleb128 0x49
 2921 0261 13       		.uleb128 0x13
 2922 0262 02       		.uleb128 0x2
 2923 0263 17       		.uleb128 0x17
 2924 0264 00       		.byte	0
 2925 0265 00       		.byte	0
 2926 0266 2F       		.uleb128 0x2f
 2927 0267 05       		.uleb128 0x5
 2928 0268 00       		.byte	0
 2929 0269 03       		.uleb128 0x3
 2930 026a 0E       		.uleb128 0xe
 2931 026b 3A       		.uleb128 0x3a
 2932 026c 0B       		.uleb128 0xb
 2933 026d 3B       		.uleb128 0x3b
 2934 026e 05       		.uleb128 0x5
 2935 026f 49       		.uleb128 0x49
 2936 0270 13       		.uleb128 0x13
 2937 0271 02       		.uleb128 0x2
 2938 0272 17       		.uleb128 0x17
 2939 0273 00       		.byte	0
 2940 0274 00       		.byte	0
 2941 0275 30       		.uleb128 0x30
 2942 0276 05       		.uleb128 0x5
 2943 0277 00       		.byte	0
 2944 0278 03       		.uleb128 0x3
 2945 0279 08       		.uleb128 0x8
 2946 027a 3A       		.uleb128 0x3a
 2947 027b 0B       		.uleb128 0xb
 2948 027c 3B       		.uleb128 0x3b
 2949 027d 05       		.uleb128 0x5
 2950 027e 49       		.uleb128 0x49
 2951 027f 13       		.uleb128 0x13
 2952 0280 02       		.uleb128 0x2
 2953 0281 18       		.uleb128 0x18
 2954 0282 00       		.byte	0
 2955 0283 00       		.byte	0
 2956 0284 31       		.uleb128 0x31
 2957 0285 18       		.uleb128 0x18
 2958 0286 00       		.byte	0
 2959 0287 00       		.byte	0
 2960 0288 00       		.byte	0
 2961 0289 32       		.uleb128 0x32
 2962 028a 34       		.uleb128 0x34
 2963 028b 00       		.byte	0
ARM GAS  /tmp/ccHWwNZw.s 			page 53


 2964 028c 03       		.uleb128 0x3
 2965 028d 08       		.uleb128 0x8
 2966 028e 3A       		.uleb128 0x3a
 2967 028f 0B       		.uleb128 0xb
 2968 0290 3B       		.uleb128 0x3b
 2969 0291 05       		.uleb128 0x5
 2970 0292 49       		.uleb128 0x49
 2971 0293 13       		.uleb128 0x13
 2972 0294 02       		.uleb128 0x2
 2973 0295 18       		.uleb128 0x18
 2974 0296 00       		.byte	0
 2975 0297 00       		.byte	0
 2976 0298 33       		.uleb128 0x33
 2977 0299 34       		.uleb128 0x34
 2978 029a 00       		.byte	0
 2979 029b 03       		.uleb128 0x3
 2980 029c 08       		.uleb128 0x8
 2981 029d 3A       		.uleb128 0x3a
 2982 029e 0B       		.uleb128 0xb
 2983 029f 3B       		.uleb128 0x3b
 2984 02a0 05       		.uleb128 0x5
 2985 02a1 49       		.uleb128 0x49
 2986 02a2 13       		.uleb128 0x13
 2987 02a3 02       		.uleb128 0x2
 2988 02a4 17       		.uleb128 0x17
 2989 02a5 00       		.byte	0
 2990 02a6 00       		.byte	0
 2991 02a7 34       		.uleb128 0x34
 2992 02a8 34       		.uleb128 0x34
 2993 02a9 00       		.byte	0
 2994 02aa 03       		.uleb128 0x3
 2995 02ab 0E       		.uleb128 0xe
 2996 02ac 3A       		.uleb128 0x3a
 2997 02ad 0B       		.uleb128 0xb
 2998 02ae 3B       		.uleb128 0x3b
 2999 02af 05       		.uleb128 0x5
 3000 02b0 49       		.uleb128 0x49
 3001 02b1 13       		.uleb128 0x13
 3002 02b2 02       		.uleb128 0x2
 3003 02b3 17       		.uleb128 0x17
 3004 02b4 00       		.byte	0
 3005 02b5 00       		.byte	0
 3006 02b6 35       		.uleb128 0x35
 3007 02b7 898201   		.uleb128 0x4109
 3008 02ba 01       		.byte	0x1
 3009 02bb 11       		.uleb128 0x11
 3010 02bc 01       		.uleb128 0x1
 3011 02bd 31       		.uleb128 0x31
 3012 02be 13       		.uleb128 0x13
 3013 02bf 01       		.uleb128 0x1
 3014 02c0 13       		.uleb128 0x13
 3015 02c1 00       		.byte	0
 3016 02c2 00       		.byte	0
 3017 02c3 36       		.uleb128 0x36
 3018 02c4 898201   		.uleb128 0x4109
 3019 02c7 01       		.byte	0x1
 3020 02c8 11       		.uleb128 0x11
ARM GAS  /tmp/ccHWwNZw.s 			page 54


 3021 02c9 01       		.uleb128 0x1
 3022 02ca 31       		.uleb128 0x31
 3023 02cb 13       		.uleb128 0x13
 3024 02cc 00       		.byte	0
 3025 02cd 00       		.byte	0
 3026 02ce 37       		.uleb128 0x37
 3027 02cf 34       		.uleb128 0x34
 3028 02d0 00       		.byte	0
 3029 02d1 03       		.uleb128 0x3
 3030 02d2 0E       		.uleb128 0xe
 3031 02d3 3A       		.uleb128 0x3a
 3032 02d4 0B       		.uleb128 0xb
 3033 02d5 3B       		.uleb128 0x3b
 3034 02d6 05       		.uleb128 0x5
 3035 02d7 49       		.uleb128 0x49
 3036 02d8 13       		.uleb128 0x13
 3037 02d9 3F       		.uleb128 0x3f
 3038 02da 19       		.uleb128 0x19
 3039 02db 3C       		.uleb128 0x3c
 3040 02dc 19       		.uleb128 0x19
 3041 02dd 00       		.byte	0
 3042 02de 00       		.byte	0
 3043 02df 38       		.uleb128 0x38
 3044 02e0 34       		.uleb128 0x34
 3045 02e1 00       		.byte	0
 3046 02e2 03       		.uleb128 0x3
 3047 02e3 08       		.uleb128 0x8
 3048 02e4 3A       		.uleb128 0x3a
 3049 02e5 0B       		.uleb128 0xb
 3050 02e6 3B       		.uleb128 0x3b
 3051 02e7 05       		.uleb128 0x5
 3052 02e8 49       		.uleb128 0x49
 3053 02e9 13       		.uleb128 0x13
 3054 02ea 3F       		.uleb128 0x3f
 3055 02eb 19       		.uleb128 0x19
 3056 02ec 3C       		.uleb128 0x3c
 3057 02ed 19       		.uleb128 0x19
 3058 02ee 00       		.byte	0
 3059 02ef 00       		.byte	0
 3060 02f0 39       		.uleb128 0x39
 3061 02f1 2E       		.uleb128 0x2e
 3062 02f2 00       		.byte	0
 3063 02f3 3F       		.uleb128 0x3f
 3064 02f4 19       		.uleb128 0x19
 3065 02f5 3C       		.uleb128 0x3c
 3066 02f6 19       		.uleb128 0x19
 3067 02f7 6E       		.uleb128 0x6e
 3068 02f8 0E       		.uleb128 0xe
 3069 02f9 03       		.uleb128 0x3
 3070 02fa 0E       		.uleb128 0xe
 3071 02fb 3A       		.uleb128 0x3a
 3072 02fc 0B       		.uleb128 0xb
 3073 02fd 3B       		.uleb128 0x3b
 3074 02fe 0B       		.uleb128 0xb
 3075 02ff 00       		.byte	0
 3076 0300 00       		.byte	0
 3077 0301 00       		.byte	0
ARM GAS  /tmp/ccHWwNZw.s 			page 55


 3078              		.section	.debug_loc,"",%progbits
 3079              	.Ldebug_loc0:
 3080              	.LLST0:
 3081 0000 00000000 		.4byte	.LVL0
 3082 0004 34000000 		.4byte	.LVL12
 3083 0008 0100     		.2byte	0x1
 3084 000a 50       		.byte	0x50
 3085 000b 34000000 		.4byte	.LVL12
 3086 000f 42000000 		.4byte	.LVL16
 3087 0013 0300     		.2byte	0x3
 3088 0015 77       		.byte	0x77
 3089 0016 75       		.sleb128 -11
 3090 0017 9F       		.byte	0x9f
 3091 0018 42000000 		.4byte	.LVL16
 3092 001c 44000000 		.4byte	.LFE260
 3093 0020 0400     		.2byte	0x4
 3094 0022 F3       		.byte	0xf3
 3095 0023 01       		.uleb128 0x1
 3096 0024 50       		.byte	0x50
 3097 0025 9F       		.byte	0x9f
 3098 0026 00000000 		.4byte	0
 3099 002a 00000000 		.4byte	0
 3100              	.LLST1:
 3101 002e 00000000 		.4byte	.LVL0
 3102 0032 0A000000 		.4byte	.LVL2
 3103 0036 0100     		.2byte	0x1
 3104 0038 51       		.byte	0x51
 3105 0039 0A000000 		.4byte	.LVL2
 3106 003d 44000000 		.4byte	.LFE260
 3107 0041 0400     		.2byte	0x4
 3108 0043 F3       		.byte	0xf3
 3109 0044 01       		.uleb128 0x1
 3110 0045 51       		.byte	0x51
 3111 0046 9F       		.byte	0x9f
 3112 0047 00000000 		.4byte	0
 3113 004b 00000000 		.4byte	0
 3114              	.LLST2:
 3115 004f 00000000 		.4byte	.LVL0
 3116 0053 30000000 		.4byte	.LVL11
 3117 0057 0100     		.2byte	0x1
 3118 0059 52       		.byte	0x52
 3119 005a 30000000 		.4byte	.LVL11
 3120 005e 44000000 		.4byte	.LFE260
 3121 0062 0400     		.2byte	0x4
 3122 0064 F3       		.byte	0xf3
 3123 0065 01       		.uleb128 0x1
 3124 0066 52       		.byte	0x52
 3125 0067 9F       		.byte	0x9f
 3126 0068 00000000 		.4byte	0
 3127 006c 00000000 		.4byte	0
 3128              	.LLST3:
 3129 0070 06000000 		.4byte	.LVL1
 3130 0074 40000000 		.4byte	.LVL15
 3131 0078 0200     		.2byte	0x2
 3132 007a 30       		.byte	0x30
 3133 007b 9F       		.byte	0x9f
 3134 007c 00000000 		.4byte	0
ARM GAS  /tmp/ccHWwNZw.s 			page 56


 3135 0080 00000000 		.4byte	0
 3136              	.LLST4:
 3137 0084 06000000 		.4byte	.LVL1
 3138 0088 30000000 		.4byte	.LVL11
 3139 008c 0100     		.2byte	0x1
 3140 008e 52       		.byte	0x52
 3141 008f 30000000 		.4byte	.LVL11
 3142 0093 40000000 		.4byte	.LVL15
 3143 0097 0400     		.2byte	0x4
 3144 0099 F3       		.byte	0xf3
 3145 009a 01       		.uleb128 0x1
 3146 009b 52       		.byte	0x52
 3147 009c 9F       		.byte	0x9f
 3148 009d 00000000 		.4byte	0
 3149 00a1 00000000 		.4byte	0
 3150              	.LLST5:
 3151 00a5 00000000 		.4byte	.LVL0
 3152 00a9 0A000000 		.4byte	.LVL2
 3153 00ad 0100     		.2byte	0x1
 3154 00af 51       		.byte	0x51
 3155 00b0 0A000000 		.4byte	.LVL2
 3156 00b4 40000000 		.4byte	.LVL15
 3157 00b8 0400     		.2byte	0x4
 3158 00ba F3       		.byte	0xf3
 3159 00bb 01       		.uleb128 0x1
 3160 00bc 51       		.byte	0x51
 3161 00bd 9F       		.byte	0x9f
 3162 00be 00000000 		.4byte	0
 3163 00c2 00000000 		.4byte	0
 3164              	.LLST6:
 3165 00c6 00000000 		.4byte	.LVL0
 3166 00ca 34000000 		.4byte	.LVL12
 3167 00ce 0100     		.2byte	0x1
 3168 00d0 50       		.byte	0x50
 3169 00d1 34000000 		.4byte	.LVL12
 3170 00d5 38000000 		.4byte	.LVL13
 3171 00d9 0300     		.2byte	0x3
 3172 00db 70       		.byte	0x70
 3173 00dc 7F       		.sleb128 -1
 3174 00dd 9F       		.byte	0x9f
 3175 00de 38000000 		.4byte	.LVL13
 3176 00e2 3C000000 		.4byte	.LVL14
 3177 00e6 0100     		.2byte	0x1
 3178 00e8 50       		.byte	0x50
 3179 00e9 3C000000 		.4byte	.LVL14
 3180 00ed 40000000 		.4byte	.LVL15
 3181 00f1 0300     		.2byte	0x3
 3182 00f3 70       		.byte	0x70
 3183 00f4 7F       		.sleb128 -1
 3184 00f5 9F       		.byte	0x9f
 3185 00f6 00000000 		.4byte	0
 3186 00fa 00000000 		.4byte	0
 3187              	.LLST7:
 3188 00fe 12000000 		.4byte	.LVL3
 3189 0102 16000000 		.4byte	.LVL4
 3190 0106 0100     		.2byte	0x1
 3191 0108 51       		.byte	0x51
ARM GAS  /tmp/ccHWwNZw.s 			page 57


 3192 0109 16000000 		.4byte	.LVL4
 3193 010d 20000000 		.4byte	.LVL6
 3194 0111 0100     		.2byte	0x1
 3195 0113 53       		.byte	0x53
 3196 0114 2E000000 		.4byte	.LVL10
 3197 0118 34000000 		.4byte	.LVL12
 3198 011c 0600     		.2byte	0x6
 3199 011e 77       		.byte	0x77
 3200 011f 00       		.sleb128 0
 3201 0120 74       		.byte	0x74
 3202 0121 00       		.sleb128 0
 3203 0122 1C       		.byte	0x1c
 3204 0123 9F       		.byte	0x9f
 3205 0124 00000000 		.4byte	0
 3206 0128 00000000 		.4byte	0
 3207              	.LLST8:
 3208 012c 06000000 		.4byte	.LVL1
 3209 0130 0A000000 		.4byte	.LVL2
 3210 0134 0100     		.2byte	0x1
 3211 0136 57       		.byte	0x57
 3212 0137 0A000000 		.4byte	.LVL2
 3213 013b 1E000000 		.4byte	.LVL5
 3214 013f 0100     		.2byte	0x1
 3215 0141 54       		.byte	0x54
 3216 0142 1E000000 		.4byte	.LVL5
 3217 0146 24000000 		.4byte	.LVL7
 3218 014a 0300     		.2byte	0x3
 3219 014c 74       		.byte	0x74
 3220 014d 7F       		.sleb128 -1
 3221 014e 9F       		.byte	0x9f
 3222 014f 24000000 		.4byte	.LVL7
 3223 0153 34000000 		.4byte	.LVL12
 3224 0157 0100     		.2byte	0x1
 3225 0159 54       		.byte	0x54
 3226 015a 00000000 		.4byte	0
 3227 015e 00000000 		.4byte	0
 3228              	.LLST9:
 3229 0162 06000000 		.4byte	.LVL1
 3230 0166 12000000 		.4byte	.LVL3
 3231 016a 0100     		.2byte	0x1
 3232 016c 51       		.byte	0x51
 3233 016d 2A000000 		.4byte	.LVL9
 3234 0171 44000000 		.4byte	.LFE260
 3235 0175 0100     		.2byte	0x1
 3236 0177 51       		.byte	0x51
 3237 0178 00000000 		.4byte	0
 3238 017c 00000000 		.4byte	0
 3239              	.LLST10:
 3240 0180 06000000 		.4byte	.LVL1
 3241 0184 0A000000 		.4byte	.LVL2
 3242 0188 0100     		.2byte	0x1
 3243 018a 51       		.byte	0x51
 3244 018b 0A000000 		.4byte	.LVL2
 3245 018f 28000000 		.4byte	.LVL8
 3246 0193 0100     		.2byte	0x1
 3247 0195 55       		.byte	0x55
 3248 0196 2A000000 		.4byte	.LVL9
ARM GAS  /tmp/ccHWwNZw.s 			page 58


 3249 019a 42000000 		.4byte	.LVL16
 3250 019e 0100     		.2byte	0x1
 3251 01a0 55       		.byte	0x55
 3252 01a1 00000000 		.4byte	0
 3253 01a5 00000000 		.4byte	0
 3254              	.LLST11:
 3255 01a9 00000000 		.4byte	.LVL17
 3256 01ad 1A000000 		.4byte	.LVL20
 3257 01b1 0100     		.2byte	0x1
 3258 01b3 50       		.byte	0x50
 3259 01b4 1A000000 		.4byte	.LVL20
 3260 01b8 04030000 		.4byte	.LFE261
 3261 01bc 0100     		.2byte	0x1
 3262 01be 56       		.byte	0x56
 3263 01bf 00000000 		.4byte	0
 3264 01c3 00000000 		.4byte	0
 3265              	.LLST12:
 3266 01c7 00000000 		.4byte	.LVL17
 3267 01cb 1A000000 		.4byte	.LVL20
 3268 01cf 0100     		.2byte	0x1
 3269 01d1 51       		.byte	0x51
 3270 01d2 1A000000 		.4byte	.LVL20
 3271 01d6 1E000000 		.4byte	.LVL21
 3272 01da 0100     		.2byte	0x1
 3273 01dc 55       		.byte	0x55
 3274 01dd 1E000000 		.4byte	.LVL21
 3275 01e1 2D000000 		.4byte	.LVL22-1
 3276 01e5 0100     		.2byte	0x1
 3277 01e7 52       		.byte	0x52
 3278 01e8 2D000000 		.4byte	.LVL22-1
 3279 01ec 36000000 		.4byte	.LVL24
 3280 01f0 0100     		.2byte	0x1
 3281 01f2 55       		.byte	0x55
 3282 01f3 36000000 		.4byte	.LVL24
 3283 01f7 54000000 		.4byte	.LVL28
 3284 01fb 0100     		.2byte	0x1
 3285 01fd 52       		.byte	0x52
 3286 01fe 54000000 		.4byte	.LVL28
 3287 0202 5C000000 		.4byte	.LVL29
 3288 0206 0300     		.2byte	0x3
 3289 0208 72       		.byte	0x72
 3290 0209 01       		.sleb128 1
 3291 020a 9F       		.byte	0x9f
 3292 020b 64000000 		.4byte	.LVL30
 3293 020f 6C000000 		.4byte	.LVL31
 3294 0213 0100     		.2byte	0x1
 3295 0215 52       		.byte	0x52
 3296 0216 6C000000 		.4byte	.LVL31
 3297 021a 78000000 		.4byte	.LVL35
 3298 021e 0100     		.2byte	0x1
 3299 0220 50       		.byte	0x50
 3300 0221 78000000 		.4byte	.LVL35
 3301 0225 82000000 		.4byte	.LVL36
 3302 0229 0300     		.2byte	0x3
 3303 022b 70       		.byte	0x70
 3304 022c 7F       		.sleb128 -1
 3305 022d 9F       		.byte	0x9f
ARM GAS  /tmp/ccHWwNZw.s 			page 59


 3306 022e 82000000 		.4byte	.LVL36
 3307 0232 92000000 		.4byte	.LVL38
 3308 0236 0100     		.2byte	0x1
 3309 0238 50       		.byte	0x50
 3310 0239 92000000 		.4byte	.LVL38
 3311 023d 14010000 		.4byte	.LVL40
 3312 0241 0100     		.2byte	0x1
 3313 0243 55       		.byte	0x55
 3314 0244 14010000 		.4byte	.LVL40
 3315 0248 1C010000 		.4byte	.LVL43
 3316 024c 0300     		.2byte	0x3
 3317 024e 75       		.byte	0x75
 3318 024f 7F       		.sleb128 -1
 3319 0250 9F       		.byte	0x9f
 3320 0251 1C010000 		.4byte	.LVL43
 3321 0255 20010000 		.4byte	.LVL44
 3322 0259 0100     		.2byte	0x1
 3323 025b 55       		.byte	0x55
 3324 025c 20010000 		.4byte	.LVL44
 3325 0260 32010000 		.4byte	.LVL45
 3326 0264 0300     		.2byte	0x3
 3327 0266 75       		.byte	0x75
 3328 0267 7F       		.sleb128 -1
 3329 0268 9F       		.byte	0x9f
 3330 0269 32010000 		.4byte	.LVL45
 3331 026d 04030000 		.4byte	.LFE261
 3332 0271 0100     		.2byte	0x1
 3333 0273 55       		.byte	0x55
 3334 0274 00000000 		.4byte	0
 3335 0278 00000000 		.4byte	0
 3336              	.LLST13:
 3337 027c 00000000 		.4byte	.LVL17
 3338 0280 0E000000 		.4byte	.LVL19
 3339 0284 0100     		.2byte	0x1
 3340 0286 52       		.byte	0x52
 3341 0287 00000000 		.4byte	0
 3342 028b 00000000 		.4byte	0
 3343              	.LLST14:
 3344 028f 42000000 		.4byte	.LVL25
 3345 0293 8E010000 		.4byte	.LVL50
 3346 0297 0300     		.2byte	0x3
 3347 0299 91       		.byte	0x91
 3348 029a 4C       		.sleb128 -52
 3349 029b 9F       		.byte	0x9f
 3350 029c 8E010000 		.4byte	.LVL50
 3351 02a0 93010000 		.4byte	.LVL52-1
 3352 02a4 0100     		.2byte	0x1
 3353 02a6 50       		.byte	0x50
 3354 02a7 94010000 		.4byte	.LVL52
 3355 02ab 98010000 		.4byte	.LVL54
 3356 02af 0100     		.2byte	0x1
 3357 02b1 50       		.byte	0x50
 3358 02b2 1C020000 		.4byte	.LVL74
 3359 02b6 32020000 		.4byte	.LVL77
 3360 02ba 0300     		.2byte	0x3
 3361 02bc 91       		.byte	0x91
 3362 02bd 4C       		.sleb128 -52
ARM GAS  /tmp/ccHWwNZw.s 			page 60


 3363 02be 9F       		.byte	0x9f
 3364 02bf 32020000 		.4byte	.LVL77
 3365 02c3 3C020000 		.4byte	.LVL79
 3366 02c7 0100     		.2byte	0x1
 3367 02c9 54       		.byte	0x54
 3368 02ca 3C020000 		.4byte	.LVL79
 3369 02ce 40020000 		.4byte	.LVL80
 3370 02d2 0300     		.2byte	0x3
 3371 02d4 72       		.byte	0x72
 3372 02d5 7F       		.sleb128 -1
 3373 02d6 9F       		.byte	0x9f
 3374 02d7 40020000 		.4byte	.LVL80
 3375 02db 44020000 		.4byte	.LVL81
 3376 02df 0100     		.2byte	0x1
 3377 02e1 52       		.byte	0x52
 3378 02e2 44020000 		.4byte	.LVL81
 3379 02e6 58020000 		.4byte	.LVL85
 3380 02ea 0300     		.2byte	0x3
 3381 02ec 72       		.byte	0x72
 3382 02ed 7F       		.sleb128 -1
 3383 02ee 9F       		.byte	0x9f
 3384 02ef 6A020000 		.4byte	.LVL87
 3385 02f3 82020000 		.4byte	.LVL90
 3386 02f7 0300     		.2byte	0x3
 3387 02f9 91       		.byte	0x91
 3388 02fa 4D       		.sleb128 -51
 3389 02fb 9F       		.byte	0x9f
 3390 02fc 82020000 		.4byte	.LVL90
 3391 0300 92020000 		.4byte	.LVL93
 3392 0304 0300     		.2byte	0x3
 3393 0306 91       		.byte	0x91
 3394 0307 4C       		.sleb128 -52
 3395 0308 9F       		.byte	0x9f
 3396 0309 92020000 		.4byte	.LVL93
 3397 030d 96020000 		.4byte	.LVL94
 3398 0311 0100     		.2byte	0x1
 3399 0313 50       		.byte	0x50
 3400 0314 96020000 		.4byte	.LVL94
 3401 0318 98020000 		.4byte	.LVL95
 3402 031c 0300     		.2byte	0x3
 3403 031e 91       		.byte	0x91
 3404 031f 4C       		.sleb128 -52
 3405 0320 9F       		.byte	0x9f
 3406 0321 98020000 		.4byte	.LVL95
 3407 0325 A8020000 		.4byte	.LVL98
 3408 0329 0300     		.2byte	0x3
 3409 032b 91       		.byte	0x91
 3410 032c 4D       		.sleb128 -51
 3411 032d 9F       		.byte	0x9f
 3412 032e B0020000 		.4byte	.LVL99
 3413 0332 B8020000 		.4byte	.LVL100
 3414 0336 0100     		.2byte	0x1
 3415 0338 54       		.byte	0x54
 3416 0339 EC020000 		.4byte	.LVL106
 3417 033d F8020000 		.4byte	.LVL108
 3418 0341 0300     		.2byte	0x3
 3419 0343 91       		.byte	0x91
ARM GAS  /tmp/ccHWwNZw.s 			page 61


 3420 0344 4D       		.sleb128 -51
 3421 0345 9F       		.byte	0x9f
 3422 0346 F8020000 		.4byte	.LVL108
 3423 034a FA020000 		.4byte	.LVL109
 3424 034e 0100     		.2byte	0x1
 3425 0350 50       		.byte	0x50
 3426 0351 00000000 		.4byte	0
 3427 0355 00000000 		.4byte	0
 3428              	.LLST15:
 3429 0359 42000000 		.4byte	.LVL25
 3430 035d 8E010000 		.4byte	.LVL50
 3431 0361 0300     		.2byte	0x3
 3432 0363 91       		.byte	0x91
 3433 0364 4C       		.sleb128 -52
 3434 0365 9F       		.byte	0x9f
 3435 0366 8E010000 		.4byte	.LVL50
 3436 036a 90010000 		.4byte	.LVL51
 3437 036e 0100     		.2byte	0x1
 3438 0370 50       		.byte	0x50
 3439 0371 90010000 		.4byte	.LVL51
 3440 0375 96010000 		.4byte	.LVL53
 3441 0379 0300     		.2byte	0x3
 3442 037b 91       		.byte	0x91
 3443 037c 4C       		.sleb128 -52
 3444 037d 9F       		.byte	0x9f
 3445 037e 96010000 		.4byte	.LVL53
 3446 0382 9A010000 		.4byte	.LVL55
 3447 0386 0100     		.2byte	0x1
 3448 0388 53       		.byte	0x53
 3449 0389 9A010000 		.4byte	.LVL55
 3450 038d 9E010000 		.4byte	.LVL56
 3451 0391 0300     		.2byte	0x3
 3452 0393 91       		.byte	0x91
 3453 0394 4C       		.sleb128 -52
 3454 0395 9F       		.byte	0x9f
 3455 0396 9E010000 		.4byte	.LVL56
 3456 039a BE010000 		.4byte	.LVL61
 3457 039e 0100     		.2byte	0x1
 3458 03a0 54       		.byte	0x54
 3459 03a1 D4010000 		.4byte	.LVL64
 3460 03a5 E4010000 		.4byte	.LVL67
 3461 03a9 0100     		.2byte	0x1
 3462 03ab 54       		.byte	0x54
 3463 03ac E4010000 		.4byte	.LVL67
 3464 03b0 EE010000 		.4byte	.LVL69
 3465 03b4 0300     		.2byte	0x3
 3466 03b6 74       		.byte	0x74
 3467 03b7 7F       		.sleb128 -1
 3468 03b8 9F       		.byte	0x9f
 3469 03b9 EE010000 		.4byte	.LVL69
 3470 03bd 0A020000 		.4byte	.LVL71
 3471 03c1 0100     		.2byte	0x1
 3472 03c3 54       		.byte	0x54
 3473 03c4 1C020000 		.4byte	.LVL74
 3474 03c8 2C020000 		.4byte	.LVL76
 3475 03cc 0300     		.2byte	0x3
 3476 03ce 91       		.byte	0x91
ARM GAS  /tmp/ccHWwNZw.s 			page 62


 3477 03cf 4C       		.sleb128 -52
 3478 03d0 9F       		.byte	0x9f
 3479 03d1 2C020000 		.4byte	.LVL76
 3480 03d5 6A020000 		.4byte	.LVL87
 3481 03d9 0100     		.2byte	0x1
 3482 03db 54       		.byte	0x54
 3483 03dc 6A020000 		.4byte	.LVL87
 3484 03e0 80020000 		.4byte	.LVL89
 3485 03e4 0300     		.2byte	0x3
 3486 03e6 91       		.byte	0x91
 3487 03e7 4C       		.sleb128 -52
 3488 03e8 9F       		.byte	0x9f
 3489 03e9 80020000 		.4byte	.LVL89
 3490 03ed 82020000 		.4byte	.LVL90
 3491 03f1 0100     		.2byte	0x1
 3492 03f3 54       		.byte	0x54
 3493 03f4 82020000 		.4byte	.LVL90
 3494 03f8 A6020000 		.4byte	.LVL97
 3495 03fc 0300     		.2byte	0x3
 3496 03fe 91       		.byte	0x91
 3497 03ff 4C       		.sleb128 -52
 3498 0400 9F       		.byte	0x9f
 3499 0401 A6020000 		.4byte	.LVL97
 3500 0405 EC020000 		.4byte	.LVL106
 3501 0409 0100     		.2byte	0x1
 3502 040b 54       		.byte	0x54
 3503 040c EC020000 		.4byte	.LVL106
 3504 0410 FA020000 		.4byte	.LVL109
 3505 0414 0300     		.2byte	0x3
 3506 0416 91       		.byte	0x91
 3507 0417 4C       		.sleb128 -52
 3508 0418 9F       		.byte	0x9f
 3509 0419 FA020000 		.4byte	.LVL109
 3510 041d 04030000 		.4byte	.LFE261
 3511 0421 0100     		.2byte	0x1
 3512 0423 54       		.byte	0x54
 3513 0424 00000000 		.4byte	0
 3514 0428 00000000 		.4byte	0
 3515              	.LLST16:
 3516 042c 1E000000 		.4byte	.LVL21
 3517 0430 2D000000 		.4byte	.LVL22-1
 3518 0434 0100     		.2byte	0x1
 3519 0436 51       		.byte	0x51
 3520 0437 36000000 		.4byte	.LVL24
 3521 043b 44000000 		.4byte	.LVL26
 3522 043f 0100     		.2byte	0x1
 3523 0441 51       		.byte	0x51
 3524 0442 6C000000 		.4byte	.LVL31
 3525 0446 6E000000 		.4byte	.LVL32
 3526 044a 0200     		.2byte	0x2
 3527 044c 70       		.byte	0x70
 3528 044d 7F       		.sleb128 -1
 3529 044e 6E000000 		.4byte	.LVL32
 3530 0452 78000000 		.4byte	.LVL35
 3531 0456 0100     		.2byte	0x1
 3532 0458 53       		.byte	0x53
 3533 0459 82000000 		.4byte	.LVL36
ARM GAS  /tmp/ccHWwNZw.s 			page 63


 3534 045d 92000000 		.4byte	.LVL38
 3535 0461 0200     		.2byte	0x2
 3536 0463 70       		.byte	0x70
 3537 0464 7F       		.sleb128 -1
 3538 0465 92000000 		.4byte	.LVL38
 3539 0469 94000000 		.4byte	.LVL39
 3540 046d 0200     		.2byte	0x2
 3541 046f 75       		.byte	0x75
 3542 0470 7F       		.sleb128 -1
 3543 0471 94000000 		.4byte	.LVL39
 3544 0475 16010000 		.4byte	.LVL41
 3545 0479 0100     		.2byte	0x1
 3546 047b 51       		.byte	0x51
 3547 047c 16010000 		.4byte	.LVL41
 3548 0480 1C010000 		.4byte	.LVL43
 3549 0484 0100     		.2byte	0x1
 3550 0486 53       		.byte	0x53
 3551 0487 20010000 		.4byte	.LVL44
 3552 048b 48010000 		.4byte	.LVL47
 3553 048f 0100     		.2byte	0x1
 3554 0491 51       		.byte	0x51
 3555 0492 48010000 		.4byte	.LVL47
 3556 0496 87010000 		.4byte	.LVL48
 3557 049a 0100     		.2byte	0x1
 3558 049c 54       		.byte	0x54
 3559 049d 1C020000 		.4byte	.LVL74
 3560 04a1 20020000 		.4byte	.LVL75
 3561 04a5 0200     		.2byte	0x2
 3562 04a7 3A       		.byte	0x3a
 3563 04a8 9F       		.byte	0x9f
 3564 04a9 82020000 		.4byte	.LVL90
 3565 04ad 86020000 		.4byte	.LVL91
 3566 04b1 0200     		.2byte	0x2
 3567 04b3 38       		.byte	0x38
 3568 04b4 9F       		.byte	0x9f
 3569 04b5 96020000 		.4byte	.LVL94
 3570 04b9 98020000 		.4byte	.LVL95
 3571 04bd 0100     		.2byte	0x1
 3572 04bf 54       		.byte	0x54
 3573 04c0 00000000 		.4byte	0
 3574 04c4 00000000 		.4byte	0
 3575              	.LLST17:
 3576 04c8 54000000 		.4byte	.LVL28
 3577 04cc 64000000 		.4byte	.LVL30
 3578 04d0 0300     		.2byte	0x3
 3579 04d2 08       		.byte	0x8
 3580 04d3 30       		.byte	0x30
 3581 04d4 9F       		.byte	0x9f
 3582 04d5 64000000 		.4byte	.LVL30
 3583 04d9 AC010000 		.4byte	.LVL59
 3584 04dd 0100     		.2byte	0x1
 3585 04df 58       		.byte	0x58
 3586 04e0 1C020000 		.4byte	.LVL74
 3587 04e4 20020000 		.4byte	.LVL75
 3588 04e8 0100     		.2byte	0x1
 3589 04ea 58       		.byte	0x58
 3590 04eb 20020000 		.4byte	.LVL75
ARM GAS  /tmp/ccHWwNZw.s 			page 64


 3591 04ef 58020000 		.4byte	.LVL85
 3592 04f3 0300     		.2byte	0x3
 3593 04f5 08       		.byte	0x8
 3594 04f6 20       		.byte	0x20
 3595 04f7 9F       		.byte	0x9f
 3596 04f8 58020000 		.4byte	.LVL85
 3597 04fc 6A020000 		.4byte	.LVL87
 3598 0500 0100     		.2byte	0x1
 3599 0502 58       		.byte	0x58
 3600 0503 6A020000 		.4byte	.LVL87
 3601 0507 82020000 		.4byte	.LVL90
 3602 050b 0300     		.2byte	0x3
 3603 050d 08       		.byte	0x8
 3604 050e 20       		.byte	0x20
 3605 050f 9F       		.byte	0x9f
 3606 0510 82020000 		.4byte	.LVL90
 3607 0514 A8020000 		.4byte	.LVL98
 3608 0518 0100     		.2byte	0x1
 3609 051a 58       		.byte	0x58
 3610 051b B0020000 		.4byte	.LVL99
 3611 051f CE020000 		.4byte	.LVL102
 3612 0523 0300     		.2byte	0x3
 3613 0525 08       		.byte	0x8
 3614 0526 20       		.byte	0x20
 3615 0527 9F       		.byte	0x9f
 3616 0528 EC020000 		.4byte	.LVL106
 3617 052c FA020000 		.4byte	.LVL109
 3618 0530 0100     		.2byte	0x1
 3619 0532 58       		.byte	0x58
 3620 0533 FA020000 		.4byte	.LVL109
 3621 0537 04030000 		.4byte	.LFE261
 3622 053b 0300     		.2byte	0x3
 3623 053d 08       		.byte	0x8
 3624 053e 20       		.byte	0x20
 3625 053f 9F       		.byte	0x9f
 3626 0540 00000000 		.4byte	0
 3627 0544 00000000 		.4byte	0
 3628              	.LLST18:
 3629 0548 DE010000 		.4byte	.LVL66
 3630 054c EA010000 		.4byte	.LVL68
 3631 0550 0100     		.2byte	0x1
 3632 0552 5B       		.byte	0x5b
 3633 0553 EA010000 		.4byte	.LVL68
 3634 0557 EE010000 		.4byte	.LVL69
 3635 055b 0300     		.2byte	0x3
 3636 055d 7B       		.byte	0x7b
 3637 055e 01       		.sleb128 1
 3638 055f 9F       		.byte	0x9f
 3639 0560 EE010000 		.4byte	.LVL69
 3640 0564 00020000 		.4byte	.LVL70
 3641 0568 0100     		.2byte	0x1
 3642 056a 5B       		.byte	0x5b
 3643 056b 00000000 		.4byte	0
 3644 056f 00000000 		.4byte	0
 3645              	.LLST19:
 3646 0573 8C000000 		.4byte	.LVL37
 3647 0577 94000000 		.4byte	.LVL39
ARM GAS  /tmp/ccHWwNZw.s 			page 65


 3648 057b 0200     		.2byte	0x2
 3649 057d 30       		.byte	0x30
 3650 057e 9F       		.byte	0x9f
 3651 057f 94000000 		.4byte	.LVL39
 3652 0583 18010000 		.4byte	.LVL42
 3653 0587 0100     		.2byte	0x1
 3654 0589 50       		.byte	0x50
 3655 058a 18010000 		.4byte	.LVL42
 3656 058e 1C010000 		.4byte	.LVL43
 3657 0592 0500     		.2byte	0x5
 3658 0594 72       		.byte	0x72
 3659 0595 00       		.sleb128 0
 3660 0596 31       		.byte	0x31
 3661 0597 24       		.byte	0x24
 3662 0598 9F       		.byte	0x9f
 3663 0599 1C010000 		.4byte	.LVL43
 3664 059d 8E010000 		.4byte	.LVL50
 3665 05a1 0100     		.2byte	0x1
 3666 05a3 50       		.byte	0x50
 3667 05a4 1C020000 		.4byte	.LVL74
 3668 05a8 4C020000 		.4byte	.LVL83
 3669 05ac 0100     		.2byte	0x1
 3670 05ae 50       		.byte	0x50
 3671 05af 6A020000 		.4byte	.LVL87
 3672 05b3 74020000 		.4byte	.LVL88
 3673 05b7 0100     		.2byte	0x1
 3674 05b9 50       		.byte	0x50
 3675 05ba 82020000 		.4byte	.LVL90
 3676 05be 92020000 		.4byte	.LVL93
 3677 05c2 0100     		.2byte	0x1
 3678 05c4 50       		.byte	0x50
 3679 05c5 96020000 		.4byte	.LVL94
 3680 05c9 A0020000 		.4byte	.LVL96
 3681 05cd 0100     		.2byte	0x1
 3682 05cf 50       		.byte	0x50
 3683 05d0 B0020000 		.4byte	.LVL99
 3684 05d4 B8020000 		.4byte	.LVL100
 3685 05d8 0400     		.2byte	0x4
 3686 05da 0A       		.byte	0xa
 3687 05db FF7F     		.2byte	0x7fff
 3688 05dd 9F       		.byte	0x9f
 3689 05de EC020000 		.4byte	.LVL106
 3690 05e2 F8020000 		.4byte	.LVL108
 3691 05e6 0100     		.2byte	0x1
 3692 05e8 50       		.byte	0x50
 3693 05e9 00000000 		.4byte	0
 3694 05ed 00000000 		.4byte	0
 3695              	.LLST20:
 3696 05f1 64000000 		.4byte	.LVL30
 3697 05f5 6C000000 		.4byte	.LVL31
 3698 05f9 0200     		.2byte	0x2
 3699 05fb 30       		.byte	0x30
 3700 05fc 9F       		.byte	0x9f
 3701 05fd 6C000000 		.4byte	.LVL31
 3702 0601 B0010000 		.4byte	.LVL60
 3703 0605 0100     		.2byte	0x1
 3704 0607 59       		.byte	0x59
ARM GAS  /tmp/ccHWwNZw.s 			page 66


 3705 0608 B0010000 		.4byte	.LVL60
 3706 060c C8010000 		.4byte	.LVL62
 3707 0610 0100     		.2byte	0x1
 3708 0612 5B       		.byte	0x5b
 3709 0613 C8010000 		.4byte	.LVL62
 3710 0617 CC010000 		.4byte	.LVL63
 3711 061b 0300     		.2byte	0x3
 3712 061d 7B       		.byte	0x7b
 3713 061e 01       		.sleb128 1
 3714 061f 9F       		.byte	0x9f
 3715 0620 CC010000 		.4byte	.LVL63
 3716 0624 D4010000 		.4byte	.LVL64
 3717 0628 0100     		.2byte	0x1
 3718 062a 5B       		.byte	0x5b
 3719 062b D4010000 		.4byte	.LVL64
 3720 062f DA010000 		.4byte	.LVL65
 3721 0633 0200     		.2byte	0x2
 3722 0635 30       		.byte	0x30
 3723 0636 9F       		.byte	0x9f
 3724 0637 00020000 		.4byte	.LVL70
 3725 063b 0A020000 		.4byte	.LVL71
 3726 063f 0100     		.2byte	0x1
 3727 0641 59       		.byte	0x59
 3728 0642 0A020000 		.4byte	.LVL71
 3729 0646 14020000 		.4byte	.LVL72
 3730 064a 0100     		.2byte	0x1
 3731 064c 54       		.byte	0x54
 3732 064d 14020000 		.4byte	.LVL72
 3733 0651 16020000 		.4byte	.LVL73
 3734 0655 0300     		.2byte	0x3
 3735 0657 74       		.byte	0x74
 3736 0658 7F       		.sleb128 -1
 3737 0659 9F       		.byte	0x9f
 3738 065a 16020000 		.4byte	.LVL73
 3739 065e 1C020000 		.4byte	.LVL74
 3740 0662 0100     		.2byte	0x1
 3741 0664 54       		.byte	0x54
 3742 0665 1C020000 		.4byte	.LVL74
 3743 0669 52020000 		.4byte	.LVL84
 3744 066d 0100     		.2byte	0x1
 3745 066f 59       		.byte	0x59
 3746 0670 58020000 		.4byte	.LVL85
 3747 0674 A8020000 		.4byte	.LVL98
 3748 0678 0100     		.2byte	0x1
 3749 067a 59       		.byte	0x59
 3750 067b A8020000 		.4byte	.LVL98
 3751 067f B0020000 		.4byte	.LVL99
 3752 0683 0200     		.2byte	0x2
 3753 0685 30       		.byte	0x30
 3754 0686 9F       		.byte	0x9f
 3755 0687 B0020000 		.4byte	.LVL99
 3756 068b CE020000 		.4byte	.LVL102
 3757 068f 0100     		.2byte	0x1
 3758 0691 59       		.byte	0x59
 3759 0692 CE020000 		.4byte	.LVL102
 3760 0696 EC020000 		.4byte	.LVL106
 3761 069a 0100     		.2byte	0x1
ARM GAS  /tmp/ccHWwNZw.s 			page 67


 3762 069c 5B       		.byte	0x5b
 3763 069d EC020000 		.4byte	.LVL106
 3764 06a1 04030000 		.4byte	.LFE261
 3765 06a5 0100     		.2byte	0x1
 3766 06a7 59       		.byte	0x59
 3767 06a8 00000000 		.4byte	0
 3768 06ac 00000000 		.4byte	0
 3769              	.LLST21:
 3770 06b0 08000000 		.4byte	.LVL18
 3771 06b4 1A000000 		.4byte	.LVL20
 3772 06b8 0200     		.2byte	0x2
 3773 06ba 30       		.byte	0x30
 3774 06bb 9F       		.byte	0x9f
 3775 06bc 1A000000 		.4byte	.LVL20
 3776 06c0 BE010000 		.4byte	.LVL61
 3777 06c4 0100     		.2byte	0x1
 3778 06c6 5A       		.byte	0x5a
 3779 06c7 D4010000 		.4byte	.LVL64
 3780 06cb DE010000 		.4byte	.LVL66
 3781 06cf 0100     		.2byte	0x1
 3782 06d1 5A       		.byte	0x5a
 3783 06d2 00020000 		.4byte	.LVL70
 3784 06d6 0A020000 		.4byte	.LVL71
 3785 06da 0100     		.2byte	0x1
 3786 06dc 5A       		.byte	0x5a
 3787 06dd 1C020000 		.4byte	.LVL74
 3788 06e1 04030000 		.4byte	.LFE261
 3789 06e5 0100     		.2byte	0x1
 3790 06e7 5A       		.byte	0x5a
 3791 06e8 00000000 		.4byte	0
 3792 06ec 00000000 		.4byte	0
 3793              	.LLST22:
 3794 06f0 3A010000 		.4byte	.LVL46
 3795 06f4 87010000 		.4byte	.LVL48
 3796 06f8 0200     		.2byte	0x2
 3797 06fa 31       		.byte	0x31
 3798 06fb 9F       		.byte	0x9f
 3799 06fc 96020000 		.4byte	.LVL94
 3800 0700 98020000 		.4byte	.LVL95
 3801 0704 0200     		.2byte	0x2
 3802 0706 31       		.byte	0x31
 3803 0707 9F       		.byte	0x9f
 3804 0708 00000000 		.4byte	0
 3805 070c 00000000 		.4byte	0
 3806              	.LLST23:
 3807 0710 42000000 		.4byte	.LVL25
 3808 0714 4C000000 		.4byte	.LVL27
 3809 0718 0200     		.2byte	0x2
 3810 071a 30       		.byte	0x30
 3811 071b 9F       		.byte	0x9f
 3812 071c 4C000000 		.4byte	.LVL27
 3813 0720 54000000 		.4byte	.LVL28
 3814 0724 0200     		.2byte	0x2
 3815 0726 31       		.byte	0x31
 3816 0727 9F       		.byte	0x9f
 3817 0728 54000000 		.4byte	.LVL28
 3818 072c B0010000 		.4byte	.LVL60
ARM GAS  /tmp/ccHWwNZw.s 			page 68


 3819 0730 0100     		.2byte	0x1
 3820 0732 5B       		.byte	0x5b
 3821 0733 1C020000 		.4byte	.LVL74
 3822 0737 A8020000 		.4byte	.LVL98
 3823 073b 0100     		.2byte	0x1
 3824 073d 5B       		.byte	0x5b
 3825 073e B0020000 		.4byte	.LVL99
 3826 0742 CE020000 		.4byte	.LVL102
 3827 0746 0100     		.2byte	0x1
 3828 0748 5B       		.byte	0x5b
 3829 0749 EC020000 		.4byte	.LVL106
 3830 074d 04030000 		.4byte	.LFE261
 3831 0751 0100     		.2byte	0x1
 3832 0753 5B       		.byte	0x5b
 3833 0754 00000000 		.4byte	0
 3834 0758 00000000 		.4byte	0
 3835              	.LLST24:
 3836 075c 8C010000 		.4byte	.LVL49
 3837 0760 93010000 		.4byte	.LVL52-1
 3838 0764 0100     		.2byte	0x1
 3839 0766 51       		.byte	0x51
 3840 0767 88020000 		.4byte	.LVL92
 3841 076b 96020000 		.4byte	.LVL94
 3842 076f 0100     		.2byte	0x1
 3843 0771 51       		.byte	0x51
 3844 0772 EC020000 		.4byte	.LVL106
 3845 0776 FA020000 		.4byte	.LVL109
 3846 077a 0100     		.2byte	0x1
 3847 077c 51       		.byte	0x51
 3848 077d 00000000 		.4byte	0
 3849 0781 00000000 		.4byte	0
 3850              	.LLST25:
 3851 0785 00000000 		.4byte	.LVL110
 3852 0789 10000000 		.4byte	.LVL113
 3853 078d 0100     		.2byte	0x1
 3854 078f 50       		.byte	0x50
 3855 0790 10000000 		.4byte	.LVL113
 3856 0794 36000000 		.4byte	.LVL118
 3857 0798 0100     		.2byte	0x1
 3858 079a 55       		.byte	0x55
 3859 079b 36000000 		.4byte	.LVL118
 3860 079f 3A000000 		.4byte	.LVL119
 3861 07a3 0400     		.2byte	0x4
 3862 07a5 F3       		.byte	0xf3
 3863 07a6 01       		.uleb128 0x1
 3864 07a7 50       		.byte	0x50
 3865 07a8 9F       		.byte	0x9f
 3866 07a9 3A000000 		.4byte	.LVL119
 3867 07ad 40000000 		.4byte	.LVL121
 3868 07b1 0100     		.2byte	0x1
 3869 07b3 50       		.byte	0x50
 3870 07b4 40000000 		.4byte	.LVL121
 3871 07b8 5A000000 		.4byte	.LVL125
 3872 07bc 0100     		.2byte	0x1
 3873 07be 55       		.byte	0x55
 3874 07bf 5A000000 		.4byte	.LVL125
 3875 07c3 5E000000 		.4byte	.LFE262
ARM GAS  /tmp/ccHWwNZw.s 			page 69


 3876 07c7 0400     		.2byte	0x4
 3877 07c9 F3       		.byte	0xf3
 3878 07ca 01       		.uleb128 0x1
 3879 07cb 50       		.byte	0x50
 3880 07cc 9F       		.byte	0x9f
 3881 07cd 00000000 		.4byte	0
 3882 07d1 00000000 		.4byte	0
 3883              	.LLST26:
 3884 07d5 00000000 		.4byte	.LVL110
 3885 07d9 14000000 		.4byte	.LVL114
 3886 07dd 0100     		.2byte	0x1
 3887 07df 51       		.byte	0x51
 3888 07e0 14000000 		.4byte	.LVL114
 3889 07e4 36000000 		.4byte	.LVL118
 3890 07e8 0100     		.2byte	0x1
 3891 07ea 54       		.byte	0x54
 3892 07eb 36000000 		.4byte	.LVL118
 3893 07ef 3A000000 		.4byte	.LVL119
 3894 07f3 0400     		.2byte	0x4
 3895 07f5 F3       		.byte	0xf3
 3896 07f6 01       		.uleb128 0x1
 3897 07f7 51       		.byte	0x51
 3898 07f8 9F       		.byte	0x9f
 3899 07f9 3A000000 		.4byte	.LVL119
 3900 07fd 3C000000 		.4byte	.LVL120
 3901 0801 0100     		.2byte	0x1
 3902 0803 51       		.byte	0x51
 3903 0804 3C000000 		.4byte	.LVL120
 3904 0808 5A000000 		.4byte	.LVL125
 3905 080c 0100     		.2byte	0x1
 3906 080e 54       		.byte	0x54
 3907 080f 5A000000 		.4byte	.LVL125
 3908 0813 5E000000 		.4byte	.LFE262
 3909 0817 0400     		.2byte	0x4
 3910 0819 F3       		.byte	0xf3
 3911 081a 01       		.uleb128 0x1
 3912 081b 51       		.byte	0x51
 3913 081c 9F       		.byte	0x9f
 3914 081d 00000000 		.4byte	0
 3915 0821 00000000 		.4byte	0
 3916              	.LLST27:
 3917 0825 18000000 		.4byte	.LVL115
 3918 0829 1E000000 		.4byte	.LVL116
 3919 082d 0300     		.2byte	0x3
 3920 082f 91       		.byte	0x91
 3921 0830 44       		.sleb128 -60
 3922 0831 9F       		.byte	0x9f
 3923 0832 1E000000 		.4byte	.LVL116
 3924 0836 25000000 		.4byte	.LVL117-1
 3925 083a 0100     		.2byte	0x1
 3926 083c 50       		.byte	0x50
 3927 083d 25000000 		.4byte	.LVL117-1
 3928 0841 3A000000 		.4byte	.LVL119
 3929 0845 0300     		.2byte	0x3
 3930 0847 91       		.byte	0x91
 3931 0848 44       		.sleb128 -60
 3932 0849 9F       		.byte	0x9f
ARM GAS  /tmp/ccHWwNZw.s 			page 70


 3933 084a 46000000 		.4byte	.LVL122
 3934 084e 4A000000 		.4byte	.LVL123
 3935 0852 0300     		.2byte	0x3
 3936 0854 91       		.byte	0x91
 3937 0855 44       		.sleb128 -60
 3938 0856 9F       		.byte	0x9f
 3939 0857 4A000000 		.4byte	.LVL123
 3940 085b 53000000 		.4byte	.LVL124-1
 3941 085f 0100     		.2byte	0x1
 3942 0861 50       		.byte	0x50
 3943 0862 53000000 		.4byte	.LVL124-1
 3944 0866 5E000000 		.4byte	.LFE262
 3945 086a 0300     		.2byte	0x3
 3946 086c 91       		.byte	0x91
 3947 086d 44       		.sleb128 -60
 3948 086e 9F       		.byte	0x9f
 3949 086f 00000000 		.4byte	0
 3950 0873 00000000 		.4byte	0
 3951              	.LLST28:
 3952 0877 0C000000 		.4byte	.LVL111
 3953 087b 0E000000 		.4byte	.LVL112
 3954 087f 0300     		.2byte	0x3
 3955 0881 71       		.byte	0x71
 3956 0882 7F       		.sleb128 -1
 3957 0883 9F       		.byte	0x9f
 3958 0884 0E000000 		.4byte	.LVL112
 3959 0888 17000000 		.4byte	.LVL115-1
 3960 088c 0100     		.2byte	0x1
 3961 088e 52       		.byte	0x52
 3962 088f 17000000 		.4byte	.LVL115-1
 3963 0893 36000000 		.4byte	.LVL118
 3964 0897 0300     		.2byte	0x3
 3965 0899 74       		.byte	0x74
 3966 089a 7F       		.sleb128 -1
 3967 089b 9F       		.byte	0x9f
 3968 089c 36000000 		.4byte	.LVL118
 3969 08a0 3A000000 		.4byte	.LVL119
 3970 08a4 0600     		.2byte	0x6
 3971 08a6 F3       		.byte	0xf3
 3972 08a7 01       		.uleb128 0x1
 3973 08a8 51       		.byte	0x51
 3974 08a9 31       		.byte	0x31
 3975 08aa 1C       		.byte	0x1c
 3976 08ab 9F       		.byte	0x9f
 3977 08ac 3A000000 		.4byte	.LVL119
 3978 08b0 5E000000 		.4byte	.LFE262
 3979 08b4 0200     		.2byte	0x2
 3980 08b6 30       		.byte	0x30
 3981 08b7 9F       		.byte	0x9f
 3982 08b8 00000000 		.4byte	0
 3983 08bc 00000000 		.4byte	0
 3984              	.LLST29:
 3985 08c0 26000000 		.4byte	.LVL117
 3986 08c4 3A000000 		.4byte	.LVL119
 3987 08c8 0100     		.2byte	0x1
 3988 08ca 50       		.byte	0x50
 3989 08cb 54000000 		.4byte	.LVL124
ARM GAS  /tmp/ccHWwNZw.s 			page 71


 3990 08cf 5E000000 		.4byte	.LFE262
 3991 08d3 0100     		.2byte	0x1
 3992 08d5 50       		.byte	0x50
 3993 08d6 00000000 		.4byte	0
 3994 08da 00000000 		.4byte	0
 3995              		.section	.debug_aranges,"",%progbits
 3996 0000 2C000000 		.4byte	0x2c
 3997 0004 0200     		.2byte	0x2
 3998 0006 00000000 		.4byte	.Ldebug_info0
 3999 000a 04       		.byte	0x4
 4000 000b 00       		.byte	0
 4001 000c 0000     		.2byte	0
 4002 000e 0000     		.2byte	0
 4003 0010 00000000 		.4byte	.LFB260
 4004 0014 44000000 		.4byte	.LFE260-.LFB260
 4005 0018 00000000 		.4byte	.LFB261
 4006 001c 04030000 		.4byte	.LFE261-.LFB261
 4007 0020 00000000 		.4byte	.LFB262
 4008 0024 5E000000 		.4byte	.LFE262-.LFB262
 4009 0028 00000000 		.4byte	0
 4010 002c 00000000 		.4byte	0
 4011              		.section	.debug_ranges,"",%progbits
 4012              	.Ldebug_ranges0:
 4013 0000 00000000 		.4byte	.LFB260
 4014 0004 44000000 		.4byte	.LFE260
 4015 0008 00000000 		.4byte	.LFB261
 4016 000c 04030000 		.4byte	.LFE261
 4017 0010 00000000 		.4byte	.LFB262
 4018 0014 5E000000 		.4byte	.LFE262
 4019 0018 00000000 		.4byte	0
 4020 001c 00000000 		.4byte	0
 4021              		.section	.debug_line,"",%progbits
 4022              	.Ldebug_line0:
 4023 0000 8C030000 		.section	.debug_str,"MS",%progbits,1
 4023      02005B02 
 4023      00000201 
 4023      FB0E0D00 
 4023      01010101 
 4024              	.LASF22:
 4025 0000 74726566 		.ascii	"trefs_t\000"
 4025      735F7400 
 4026              	.LASF52:
 4027 0008 72656164 		.ascii	"ready_list_t\000"
 4027      795F6C69 
 4027      73745F74 
 4027      00
 4028              	.LASF4:
 4029 0015 73697A65 		.ascii	"size_t\000"
 4029      5F7400
 4030              	.LASF18:
 4031 001c 75696E74 		.ascii	"uint64_t\000"
 4031      36345F74 
 4031      00
 4032              	.LASF5:
 4033 0025 5F5F7569 		.ascii	"__uint8_t\000"
 4033      6E74385F 
 4033      7400
ARM GAS  /tmp/ccHWwNZw.s 			page 72


 4034              	.LASF84:
 4035 002f 706F7274 		.ascii	"port_intctx\000"
 4035      5F696E74 
 4035      63747800 
 4036              	.LASF111:
 4037 003b 76615F6C 		.ascii	"va_list\000"
 4037      69737400 
 4038              	.LASF71:
 4039 0043 73797374 		.ascii	"system_debug_t\000"
 4039      656D5F64 
 4039      65627567 
 4039      5F7400
 4040              	.LASF126:
 4041 0052 73697A65 		.ascii	"size_wo_nul\000"
 4041      5F776F5F 
 4041      6E756C00 
 4042              	.LASF14:
 4043 005e 6C6F6E67 		.ascii	"long long unsigned int\000"
 4043      206C6F6E 
 4043      6720756E 
 4043      7369676E 
 4043      65642069 
 4044              	.LASF88:
 4045 0075 65786974 		.ascii	"exitcode\000"
 4045      636F6465 
 4045      00
 4046              	.LASF78:
 4047 007e 6D61696E 		.ascii	"mainthread\000"
 4047      74687265 
 4047      616400
 4048              	.LASF68:
 4049 0089 76697274 		.ascii	"virtual_timers_list_t\000"
 4049      75616C5F 
 4049      74696D65 
 4049      72735F6C 
 4049      6973745F 
 4050              	.LASF128:
 4051 009f 49544D5F 		.ascii	"ITM_RxBuffer\000"
 4051      52784275 
 4051      66666572 
 4051      00
 4052              	.LASF51:
 4053 00ac 63685F74 		.ascii	"ch_threads_queue\000"
 4053      68726561 
 4053      64735F71 
 4053      75657565 
 4053      00
 4054              	.LASF31:
 4055 00bd 705F7072 		.ascii	"p_prio\000"
 4055      696F00
 4056              	.LASF1:
 4057 00c4 6C6F6E67 		.ascii	"long long int\000"
 4057      206C6F6E 
 4057      6720696E 
 4057      7400
 4058              	.LASF3:
 4059 00d2 7369676E 		.ascii	"signed char\000"
ARM GAS  /tmp/ccHWwNZw.s 			page 73


 4059      65642063 
 4059      68617200 
 4060              	.LASF12:
 4061 00de 6C6F6E67 		.ascii	"long unsigned int\000"
 4061      20756E73 
 4061      69676E65 
 4061      6420696E 
 4061      7400
 4062              	.LASF45:
 4063 00f0 705F6D70 		.ascii	"p_mpool\000"
 4063      6F6F6C00 
 4064              	.LASF123:
 4065 00f8 746D7062 		.ascii	"tmpbuf\000"
 4065      756600
 4066              	.LASF90:
 4067 00ff 77747472 		.ascii	"wttrp\000"
 4067      7000
 4068              	.LASF75:
 4069 0105 63685F73 		.ascii	"ch_system\000"
 4069      79737465 
 4069      6D00
 4070              	.LASF10:
 4071 010f 6C6F6E67 		.ascii	"long int\000"
 4071      20696E74 
 4071      00
 4072              	.LASF21:
 4073 0118 74737461 		.ascii	"tstate_t\000"
 4073      74655F74 
 4073      00
 4074              	.LASF109:
 4075 0121 5F5F7661 		.ascii	"__va_list\000"
 4075      5F6C6973 
 4075      7400
 4076              	.LASF127:
 4077 012b 72657476 		.ascii	"retval\000"
 4077      616C00
 4078              	.LASF113:
 4079 0132 62756666 		.ascii	"buffer\000"
 4079      657200
 4080              	.LASF33:
 4081 0139 705F6E65 		.ascii	"p_newer\000"
 4081      77657200 
 4082              	.LASF95:
 4083 0141 735F7175 		.ascii	"s_queue\000"
 4083      65756500 
 4084              	.LASF57:
 4085 0149 725F6E65 		.ascii	"r_newer\000"
 4085      77657200 
 4086              	.LASF81:
 4087 0151 72656761 		.ascii	"regarm_t\000"
 4087      726D5F74 
 4087      00
 4088              	.LASF64:
 4089 015a 76745F70 		.ascii	"vt_prev\000"
 4089      72657600 
 4090              	.LASF77:
 4091 0162 76746C69 		.ascii	"vtlist\000"
ARM GAS  /tmp/ccHWwNZw.s 			page 74


 4091      737400
 4092              	.LASF118:
 4093 0169 66696C6C 		.ascii	"filler\000"
 4093      657200
 4094              	.LASF121:
 4095 0170 69735F6C 		.ascii	"is_long\000"
 4095      6F6E6700 
 4096              	.LASF102:
 4097 0178 6D757465 		.ascii	"mutex_t\000"
 4097      785F7400 
 4098              	.LASF106:
 4099 0180 42617365 		.ascii	"BaseSequentialStream\000"
 4099      53657175 
 4099      656E7469 
 4099      616C5374 
 4099      7265616D 
 4100              	.LASF79:
 4101 0195 69646C65 		.ascii	"idle_thread_wa\000"
 4101      5F746872 
 4101      6561645F 
 4101      776100
 4102              	.LASF26:
 4103 01a4 636E745F 		.ascii	"cnt_t\000"
 4103      7400
 4104              	.LASF0:
 4105 01aa 756E7369 		.ascii	"unsigned int\000"
 4105      676E6564 
 4105      20696E74 
 4105      00
 4106              	.LASF63:
 4107 01b7 76745F6E 		.ascii	"vt_next\000"
 4107      65787400 
 4108              	.LASF91:
 4109 01bf 77747365 		.ascii	"wtsemp\000"
 4109      6D7000
 4110              	.LASF40:
 4111 01c6 705F6D73 		.ascii	"p_msgqueue\000"
 4111      67717565 
 4111      756500
 4112              	.LASF122:
 4113 01d1 6C656674 		.ascii	"left_align\000"
 4113      5F616C69 
 4113      676E00
 4114              	.LASF120:
 4115 01dc 77696474 		.ascii	"width\000"
 4115      6800
 4116              	.LASF8:
 4117 01e2 73686F72 		.ascii	"short unsigned int\000"
 4117      7420756E 
 4117      7369676E 
 4117      65642069 
 4117      6E7400
 4118              	.LASF48:
 4119 01f5 63685F74 		.ascii	"ch_thread\000"
 4119      68726561 
 4119      6400
 4120              	.LASF24:
ARM GAS  /tmp/ccHWwNZw.s 			page 75


 4121 01ff 6D73675F 		.ascii	"msg_t\000"
 4121      7400
 4122              	.LASF105:
 4123 0205 72656164 		.ascii	"read\000"
 4123      00
 4124              	.LASF20:
 4125 020a 746D6F64 		.ascii	"tmode_t\000"
 4125      655F7400 
 4126              	.LASF53:
 4127 0212 63685F72 		.ascii	"ch_ready_list\000"
 4127      65616479 
 4127      5F6C6973 
 4127      7400
 4128              	.LASF25:
 4129 0220 6576656E 		.ascii	"eventmask_t\000"
 4129      746D6173 
 4129      6B5F7400 
 4130              	.LASF9:
 4131 022c 5F5F696E 		.ascii	"__int32_t\000"
 4131      7433325F 
 4131      7400
 4132              	.LASF82:
 4133 0236 73746B61 		.ascii	"stkalign_t\000"
 4133      6C69676E 
 4133      5F7400
 4134              	.LASF135:
 4135 0241 6D734F62 		.ascii	"msObjectInit\000"
 4135      6A656374 
 4135      496E6974 
 4135      00
 4136              	.LASF104:
 4137 024e 77726974 		.ascii	"write\000"
 4137      6500
 4138              	.LASF39:
 4139 0254 705F7761 		.ascii	"p_waiting\000"
 4139      6974696E 
 4139      6700
 4140              	.LASF80:
 4141 025e 73697A65 		.ascii	"sizetype\000"
 4141      74797065 
 4141      00
 4142              	.LASF46:
 4143 0267 74687265 		.ascii	"thread_reference_t\000"
 4143      61645F72 
 4143      65666572 
 4143      656E6365 
 4143      5F7400
 4144              	.LASF69:
 4145 027a 63685F76 		.ascii	"ch_virtual_timers_list\000"
 4145      69727475 
 4145      616C5F74 
 4145      696D6572 
 4145      735F6C69 
 4146              	.LASF2:
 4147 0291 6C6F6E67 		.ascii	"long double\000"
 4147      20646F75 
 4147      626C6500 
ARM GAS  /tmp/ccHWwNZw.s 			page 76


 4148              	.LASF130:
 4149 029d 2F686F6D 		.ascii	"/home/selim/working/ChibiOS/os/hal/lib/streams/chpr"
 4149      652F7365 
 4149      6C696D2F 
 4149      776F726B 
 4149      696E672F 
 4150 02d0 696E7466 		.ascii	"intf.c\000"
 4150      2E6300
 4151              	.LASF134:
 4152 02d7 756E7369 		.ascii	"unsigned_common\000"
 4152      676E6564 
 4152      5F636F6D 
 4152      6D6F6E00 
 4153              	.LASF117:
 4154 02e7 64697669 		.ascii	"divisor\000"
 4154      736F7200 
 4155              	.LASF108:
 4156 02ef 5F5F676E 		.ascii	"__gnuc_va_list\000"
 4156      75635F76 
 4156      615F6C69 
 4156      737400
 4157              	.LASF70:
 4158 02fe 76745F6C 		.ascii	"vt_lasttime\000"
 4158      61737474 
 4158      696D6500 
 4159              	.LASF34:
 4160 030a 705F6F6C 		.ascii	"p_older\000"
 4160      64657200 
 4161              	.LASF56:
 4162 0312 725F6374 		.ascii	"r_ctx\000"
 4162      7800
 4163              	.LASF86:
 4164 0318 746D5F63 		.ascii	"tm_calibration_t\000"
 4164      616C6962 
 4164      72617469 
 4164      6F6E5F74 
 4164      00
 4165              	.LASF59:
 4166 0329 725F6375 		.ascii	"r_current\000"
 4166      7272656E 
 4166      7400
 4167              	.LASF58:
 4168 0333 725F6F6C 		.ascii	"r_older\000"
 4168      64657200 
 4169              	.LASF112:
 4170 033b 4D656D53 		.ascii	"MemStreamVMT\000"
 4170      74726561 
 4170      6D564D54 
 4170      00
 4171              	.LASF13:
 4172 0348 5F5F7569 		.ascii	"__uint64_t\000"
 4172      6E743634 
 4172      5F7400
 4173              	.LASF61:
 4174 0353 76697274 		.ascii	"virtual_timer_t\000"
 4174      75616C5F 
 4174      74696D65 
ARM GAS  /tmp/ccHWwNZw.s 			page 77


 4174      725F7400 
 4175              	.LASF30:
 4176 0363 705F7072 		.ascii	"p_prev\000"
 4176      657600
 4177              	.LASF23:
 4178 036a 74707269 		.ascii	"tprio_t\000"
 4178      6F5F7400 
 4179              	.LASF115:
 4180 0372 4D656D6F 		.ascii	"MemoryStream\000"
 4180      72795374 
 4180      7265616D 
 4180      00
 4181              	.LASF35:
 4182 037f 705F6E61 		.ascii	"p_name\000"
 4182      6D6500
 4183              	.LASF72:
 4184 0386 63685F73 		.ascii	"ch_system_debug\000"
 4184      79737465 
 4184      6D5F6465 
 4184      62756700 
 4185              	.LASF107:
 4186 0396 5F426F6F 		.ascii	"_Bool\000"
 4186      6C00
 4187              	.LASF16:
 4188 039c 696E7433 		.ascii	"int32_t\000"
 4188      325F7400 
 4189              	.LASF6:
 4190 03a4 756E7369 		.ascii	"unsigned char\000"
 4190      676E6564 
 4190      20636861 
 4190      7200
 4191              	.LASF98:
 4192 03b2 6D5F7175 		.ascii	"m_queue\000"
 4192      65756500 
 4193              	.LASF96:
 4194 03ba 735F636E 		.ascii	"s_cnt\000"
 4194      7400
 4195              	.LASF43:
 4196 03c0 705F6D74 		.ascii	"p_mtxlist\000"
 4196      786C6973 
 4196      7400
 4197              	.LASF7:
 4198 03ca 73686F72 		.ascii	"short int\000"
 4198      7420696E 
 4198      7400
 4199              	.LASF36:
 4200 03d4 705F7374 		.ascii	"p_state\000"
 4200      61746500 
 4201              	.LASF55:
 4202 03dc 725F7072 		.ascii	"r_prio\000"
 4202      696F00
 4203              	.LASF129:
 4204 03e3 474E5520 		.ascii	"GNU C11 5.3.1 20160307 (release) [ARM/embedded-5-br"
 4204      43313120 
 4204      352E332E 
 4204      31203230 
 4204      31363033 
ARM GAS  /tmp/ccHWwNZw.s 			page 78


 4205 0416 616E6368 		.ascii	"anch revision 234589] -mcpu=cortex-m4 -mno-thumb-in"
 4205      20726576 
 4205      6973696F 
 4205      6E203233 
 4205      34353839 
 4206 0449 74657277 		.ascii	"terwork -mthumb -ggdb -O2 -fomit-frame-pointer -fal"
 4206      6F726B20 
 4206      2D6D7468 
 4206      756D6220 
 4206      2D676764 
 4207 047c 69676E2D 		.ascii	"ign-functions=16 -ffunction-sections -fdata-section"
 4207      66756E63 
 4207      74696F6E 
 4207      733D3136 
 4207      202D6666 
 4208 04af 73202D66 		.ascii	"s -fno-common\000"
 4208      6E6F2D63 
 4208      6F6D6D6F 
 4208      6E00
 4209              	.LASF93:
 4210 04bd 65776D61 		.ascii	"ewmask\000"
 4210      736B00
 4211              	.LASF29:
 4212 04c4 705F6E65 		.ascii	"p_next\000"
 4212      787400
 4213              	.LASF103:
 4214 04cb 42617365 		.ascii	"BaseSequentialStreamVMT\000"
 4214      53657175 
 4214      656E7469 
 4214      616C5374 
 4214      7265616D 
 4215              	.LASF37:
 4216 04e3 705F666C 		.ascii	"p_flags\000"
 4216      61677300 
 4217              	.LASF116:
 4218 04eb 72616469 		.ascii	"radix\000"
 4218      7800
 4219              	.LASF87:
 4220 04f1 7264796D 		.ascii	"rdymsg\000"
 4220      736700
 4221              	.LASF62:
 4222 04f8 63685F76 		.ascii	"ch_virtual_timer\000"
 4222      69727475 
 4222      616C5F74 
 4222      696D6572 
 4222      00
 4223              	.LASF94:
 4224 0509 63685F73 		.ascii	"ch_semaphore\000"
 4224      656D6170 
 4224      686F7265 
 4224      00
 4225              	.LASF131:
 4226 0516 2F686F6D 		.ascii	"/home/selim/working/test/PWM_Program/RT-STM32F407-D"
 4226      652F7365 
 4226      6C696D2F 
 4226      776F726B 
 4226      696E672F 
ARM GAS  /tmp/ccHWwNZw.s 			page 79


 4227 0549 4953434F 		.ascii	"ISCOVERY-MEMS\000"
 4227      56455259 
 4227      2D4D454D 
 4227      5300
 4228              	.LASF42:
 4229 0557 705F6570 		.ascii	"p_epending\000"
 4229      656E6469 
 4229      6E6700
 4230              	.LASF17:
 4231 0562 75696E74 		.ascii	"uint32_t\000"
 4231      33325F74 
 4231      00
 4232              	.LASF92:
 4233 056b 77746D74 		.ascii	"wtmtxp\000"
 4233      787000
 4234              	.LASF54:
 4235 0572 725F7175 		.ascii	"r_queue\000"
 4235      65756500 
 4236              	.LASF65:
 4237 057a 76745F64 		.ascii	"vt_delta\000"
 4237      656C7461 
 4237      00
 4238              	.LASF49:
 4239 0583 63685F74 		.ascii	"ch_threads_list\000"
 4239      68726561 
 4239      64735F6C 
 4239      69737400 
 4240              	.LASF125:
 4241 0593 6368736E 		.ascii	"chsnprintf\000"
 4241      7072696E 
 4241      746600
 4242              	.LASF101:
 4243 059e 63686172 		.ascii	"char\000"
 4243      00
 4244              	.LASF119:
 4245 05a3 70726563 		.ascii	"precision\000"
 4245      6973696F 
 4245      6E00
 4246              	.LASF28:
 4247 05ad 74687265 		.ascii	"thread_t\000"
 4247      61645F74 
 4247      00
 4248              	.LASF100:
 4249 05b6 6D5F6E65 		.ascii	"m_next\000"
 4249      787400
 4250              	.LASF27:
 4251 05bd 73797374 		.ascii	"systime_t\000"
 4251      696D655F 
 4251      7400
 4252              	.LASF44:
 4253 05c7 705F7265 		.ascii	"p_realprio\000"
 4253      616C7072 
 4253      696F00
 4254              	.LASF60:
 4255 05d2 76746675 		.ascii	"vtfunc_t\000"
 4255      6E635F74 
 4255      00
ARM GAS  /tmp/ccHWwNZw.s 			page 80


 4256              	.LASF11:
 4257 05db 5F5F7569 		.ascii	"__uint32_t\000"
 4257      6E743332 
 4257      5F7400
 4258              	.LASF73:
 4259 05e6 70616E69 		.ascii	"panic_msg\000"
 4259      635F6D73 
 4259      6700
 4260              	.LASF85:
 4261 05f0 6F666673 		.ascii	"offset\000"
 4261      657400
 4262              	.LASF110:
 4263 05f7 5F5F6170 		.ascii	"__ap\000"
 4263      00
 4264              	.LASF83:
 4265 05fc 636F6E74 		.ascii	"context\000"
 4265      65787400 
 4266              	.LASF74:
 4267 0604 63685F73 		.ascii	"ch_system_t\000"
 4267      79737465 
 4267      6D5F7400 
 4268              	.LASF19:
 4269 0610 7274636E 		.ascii	"rtcnt_t\000"
 4269      745F7400 
 4270              	.LASF67:
 4271 0618 76745F70 		.ascii	"vt_par\000"
 4271      617200
 4272              	.LASF50:
 4273 061f 74687265 		.ascii	"threads_queue_t\000"
 4273      6164735F 
 4273      71756575 
 4273      655F7400 
 4274              	.LASF97:
 4275 062f 63685F6D 		.ascii	"ch_mutex\000"
 4275      75746578 
 4275      00
 4276              	.LASF38:
 4277 0638 705F7265 		.ascii	"p_refs\000"
 4277      667300
 4278              	.LASF133:
 4279 063f 63685F6C 		.ascii	"ch_ltoa\000"
 4279      746F6100 
 4280              	.LASF76:
 4281 0647 726C6973 		.ascii	"rlist\000"
 4281      7400
 4282              	.LASF15:
 4283 064d 75696E74 		.ascii	"uint8_t\000"
 4283      385F7400 
 4284              	.LASF124:
 4285 0655 63687670 		.ascii	"chvprintf\000"
 4285      72696E74 
 4285      6600
 4286              	.LASF89:
 4287 065f 77746F62 		.ascii	"wtobjp\000"
 4287      6A7000
 4288              	.LASF132:
 4289 0666 6C6F6E67 		.ascii	"long_to_string_with_divisor\000"
ARM GAS  /tmp/ccHWwNZw.s 			page 81


 4289      5F746F5F 
 4289      73747269 
 4289      6E675F77 
 4289      6974685F 
 4290              	.LASF114:
 4291 0682 73697A65 		.ascii	"size\000"
 4291      00
 4292              	.LASF47:
 4293 0687 74687265 		.ascii	"threads_list_t\000"
 4293      6164735F 
 4293      6C697374 
 4293      5F7400
 4294              	.LASF41:
 4295 0696 705F6D73 		.ascii	"p_msg\000"
 4295      6700
 4296              	.LASF99:
 4297 069c 6D5F6F77 		.ascii	"m_owner\000"
 4297      6E657200 
 4298              	.LASF32:
 4299 06a4 705F6374 		.ascii	"p_ctx\000"
 4299      7800
 4300              	.LASF66:
 4301 06aa 76745F66 		.ascii	"vt_func\000"
 4301      756E6300 
 4302              		.ident	"GCC: (GNU Tools for ARM Embedded Processors) 5.3.1 20160307 (release) [ARM/embedded-5-bran
ARM GAS  /tmp/ccHWwNZw.s 			page 82


DEFINED SYMBOLS
                            *ABS*:0000000000000000 chprintf.c
     /tmp/ccHWwNZw.s:20     .text.ch_ltoa:0000000000000000 $t
     /tmp/ccHWwNZw.s:25     .text.ch_ltoa:0000000000000000 ch_ltoa
     /tmp/ccHWwNZw.s:108    .text.chvprintf:0000000000000000 $t
     /tmp/ccHWwNZw.s:114    .text.chvprintf:0000000000000000 chvprintf
     /tmp/ccHWwNZw.s:266    .text.chvprintf:00000000000000aa $d
     /tmp/ccHWwNZw.s:320    .text.chvprintf:0000000000000114 $t
     /tmp/ccHWwNZw.s:367    .text.chvprintf:0000000000000152 $d
     /tmp/ccHWwNZw.s:728    .text.chvprintf:0000000000000300 $d
     /tmp/ccHWwNZw.s:733    .text.chsnprintf:0000000000000000 $t
     /tmp/ccHWwNZw.s:739    .text.chsnprintf:0000000000000000 chsnprintf
     /tmp/ccHWwNZw.s:851    .rodata.str1.4:0000000000000000 $d
                     .debug_frame:0000000000000010 $d
     /tmp/ccHWwNZw.s:422    .text.chvprintf:0000000000000187 $d
     /tmp/ccHWwNZw.s:422    .text.chvprintf:0000000000000188 $t

UNDEFINED SYMBOLS
msObjectInit
