ARM GAS  /tmp/ccHWwNZw.s 			page 1


   1              		.syntax unified
   2              		.cpu cortex-m4
   3              		.fpu softvfp
   4              		.eabi_attribute 20, 1
   5              		.eabi_attribute 21, 1
   6              		.eabi_attribute 23, 3
   7              		.eabi_attribute 24, 1
   8              		.eabi_attribute 25, 1
   9              		.eabi_attribute 26, 1
  10              		.eabi_attribute 30, 2
  11              		.eabi_attribute 34, 1
  12              		.eabi_attribute 18, 4
  13              		.thumb
  14              		.syntax unified
  15              		.file	"chprintf.c"
  16              		.text
  17              	.Ltext0:
  18              		.cfi_sections	.debug_frame
  19              		.section	.text.ch_ltoa,"ax",%progbits
  20              		.align	2
  21              		.p2align 4,,15
  22              		.thumb
  23              		.thumb_func
  24              		.type	ch_ltoa, %function
  25              	ch_ltoa:
  26              	.LFB260:
  27              		.file 1 "/home/selim/working/ChibiOS/os/hal/lib/streams/chprintf.c"
  28              		.loc 1 70 0
  29              		.cfi_startproc
  30              		@ args = 0, pretend = 0, frame = 0
  31              		@ frame_needed = 0, uses_anonymous_args = 0
  32              		@ link register save eliminated.
  33              	.LVL0:
  34 0000 F0B4     		push	{r4, r5, r6, r7}
  35              		.cfi_def_cfa_offset 16
  36              		.cfi_offset 4, -16
  37              		.cfi_offset 5, -12
  38              		.cfi_offset 6, -8
  39              		.cfi_offset 7, -4
  40              	.LBB4:
  41              	.LBB5:
  42              		.loc 1 52 0
  43 0002 00F10B07 		add	r7, r0, #11
  44              	.LVL1:
  45 0006 3C46     		mov	r4, r7
  46 0008 0D46     		mov	r5, r1
  47              	.LVL2:
  48              	.L3:
  49              		.loc 1 54 0
  50 000a B1FBF2F6 		udiv	r6, r1, r2
  51 000e 02FB1611 		mls	r1, r2, r6, r1
  52              	.LVL3:
  53              		.loc 1 55 0
  54 0012 01F13003 		add	r3, r1, #48
  55              	.LVL4:
  56              		.loc 1 56 0
  57 0016 392B     		cmp	r3, #57
ARM GAS  /tmp/ccHWwNZw.s 			page 2


  58              		.loc 1 57 0
  59 0018 C8BF     		it	gt
  60 001a 01F13703 		addgt	r3, r1, #55
  61              	.LVL5:
  62              		.loc 1 58 0
  63 001e DBB2     		uxtb	r3, r3
  64              	.LVL6:
  65 0020 04F8013D 		strb	r3, [r4, #-1]!
  66              	.LVL7:
  67              		.loc 1 60 0
  68 0024 B5FBF2F5 		udiv	r5, r5, r2
  69              	.LVL8:
  70              		.loc 1 59 0
  71 0028 3146     		mov	r1, r6
  72              	.LVL9:
  73              		.loc 1 60 0
  74 002a 002D     		cmp	r5, #0
  75 002c EDD1     		bne	.L3
  76              	.LVL10:
  77 002e 3A1B     		subs	r2, r7, r4
  78              	.LVL11:
  79 0030 0244     		add	r2, r2, r0
  80 0032 01E0     		b	.L5
  81              	.LVL12:
  82              	.L10:
  83 0034 14F8013F 		ldrb	r3, [r4, #1]!	@ zero_extendqisi2
  84              	.LVL13:
  85              	.L5:
  86              		.loc 1 64 0
  87 0038 00F8013B 		strb	r3, [r0], #1
  88              	.LVL14:
  89              		.loc 1 65 0
  90 003c 9042     		cmp	r0, r2
  91 003e F9D1     		bne	.L10
  92              	.LVL15:
  93              	.LBE5:
  94              	.LBE4:
  95              		.loc 1 73 0
  96 0040 F0BC     		pop	{r4, r5, r6, r7}
  97              		.cfi_restore 7
  98              		.cfi_restore 6
  99              		.cfi_restore 5
 100              		.cfi_restore 4
 101              		.cfi_def_cfa_offset 0
 102              	.LVL16:
 103 0042 7047     		bx	lr
 104              		.cfi_endproc
 105              	.LFE260:
 106              		.size	ch_ltoa, .-ch_ltoa
 107              		.section	.text.chvprintf,"ax",%progbits
 108              		.align	2
 109              		.p2align 4,,15
 110              		.global	chvprintf
 111              		.thumb
 112              		.thumb_func
 113              		.type	chvprintf, %function
 114              	chvprintf:
ARM GAS  /tmp/ccHWwNZw.s 			page 3


 115              	.LFB261:
 116              		.loc 1 121 0
 117              		.cfi_startproc
 118              		@ args = 0, pretend = 0, frame = 24
 119              		@ frame_needed = 0, uses_anonymous_args = 0
 120              	.LVL17:
 121 0000 2DE9F04F 		push	{r4, r5, r6, r7, r8, r9, r10, fp, lr}
 122              		.cfi_def_cfa_offset 36
 123              		.cfi_offset 4, -36
 124              		.cfi_offset 5, -32
 125              		.cfi_offset 6, -28
 126              		.cfi_offset 7, -24
 127              		.cfi_offset 8, -20
 128              		.cfi_offset 9, -16
 129              		.cfi_offset 10, -12
 130              		.cfi_offset 11, -8
 131              		.cfi_offset 14, -4
 132 0004 87B0     		sub	sp, sp, #28
 133              		.cfi_def_cfa_offset 64
 134              		.loc 1 121 0
 135 0006 1746     		mov	r7, r2
 136              	.LVL18:
 137 0008 0DF10D03 		add	r3, sp, #13
 138 000c 03AA     		add	r2, sp, #12
 139              	.LVL19:
 140 000e 9B1A     		subs	r3, r3, r2
 141 0010 0646     		mov	r6, r0
 142 0012 0D46     		mov	r5, r1
 143 0014 0193     		str	r3, [sp, #4]
 144              		.loc 1 124 0
 145 0016 4FF0000A 		mov	r10, #0
 146              	.LVL20:
 147              	.L12:
 148              		.loc 1 135 0
 149 001a 2978     		ldrb	r1, [r5]	@ zero_extendqisi2
 150 001c 6A1C     		adds	r2, r5, #1
 151              	.LVL21:
 152              		.loc 1 136 0
 153 001e 61B1     		cbz	r1, .L84
 154              	.L96:
 155              		.loc 1 138 0
 156 0020 2529     		cmp	r1, #37
 157 0022 0ED0     		beq	.L14
 158              		.loc 1 139 0
 159 0024 3368     		ldr	r3, [r6]
 160              		.loc 1 135 0
 161 0026 1546     		mov	r5, r2
 162              		.loc 1 139 0
 163 0028 9B68     		ldr	r3, [r3, #8]
 164 002a 3046     		mov	r0, r6
 165 002c 9847     		blx	r3
 166              	.LVL22:
 167              		.loc 1 135 0
 168 002e 2978     		ldrb	r1, [r5]	@ zero_extendqisi2
 169              		.loc 1 140 0
 170 0030 0AF1010A 		add	r10, r10, #1
 171              	.LVL23:
ARM GAS  /tmp/ccHWwNZw.s 			page 4


 172              		.loc 1 135 0
 173 0034 6A1C     		adds	r2, r5, #1
 174              	.LVL24:
 175              		.loc 1 136 0
 176 0036 0029     		cmp	r1, #0
 177 0038 F2D1     		bne	.L96
 178              	.L84:
 179              		.loc 1 277 0
 180 003a 5046     		mov	r0, r10
 181 003c 07B0     		add	sp, sp, #28
 182              		.cfi_remember_state
 183              		.cfi_def_cfa_offset 36
 184              		@ sp needed
 185 003e BDE8F08F 		pop	{r4, r5, r6, r7, r8, r9, r10, fp, pc}
 186              	.LVL25:
 187              	.L14:
 188              		.cfi_restore_state
 189              		.loc 1 146 0
 190 0042 6978     		ldrb	r1, [r5, #1]	@ zero_extendqisi2
 191              	.LVL26:
 192 0044 2D29     		cmp	r1, #45
 193 0046 03BF     		ittte	eq
 194 0048 A978     		ldrbeq	r1, [r5, #2]	@ zero_extendqisi2
 195              		.loc 1 147 0
 196 004a AA1C     		addeq	r2, r5, #2
 197              	.LVL27:
 198              		.loc 1 148 0
 199 004c 4FF0010B 		moveq	fp, #1
 200              		.loc 1 145 0
 201 0050 4FF0000B 		movne	fp, #0
 202              	.LVL28:
 203              		.loc 1 151 0
 204 0054 3029     		cmp	r1, #48
 205 0056 03BF     		ittte	eq
 206 0058 5178     		ldrbeq	r1, [r2, #1]	@ zero_extendqisi2
 207              		.loc 1 152 0
 208 005a 0132     		addeq	r2, r2, #1
 209              	.LVL29:
 210              		.loc 1 153 0
 211 005c 4FF03008 		moveq	r8, #48
 212              		.loc 1 150 0
 213 0060 4FF02008 		movne	r8, #32
 214              	.LVL30:
 215 0064 501C     		adds	r0, r2, #1
 216              		.loc 1 155 0
 217 0066 4FF00009 		mov	r9, #0
 218 006a 05E0     		b	.L20
 219              	.LVL31:
 220              	.L97:
 221              		.loc 1 161 0
 222 006c 3B78     		ldrb	r3, [r7]	@ zero_extendqisi2
 223              	.LVL32:
 224 006e 0437     		adds	r7, r7, #4
 225              	.LVL33:
 226              	.L18:
 227 0070 2978     		ldrb	r1, [r5]	@ zero_extendqisi2
 228              		.loc 1 164 0
ARM GAS  /tmp/ccHWwNZw.s 			page 5


 229 0072 03EB4209 		add	r9, r3, r2, lsl #1
 230              	.LVL34:
 231 0076 0130     		adds	r0, r0, #1
 232              	.LVL35:
 233              	.L20:
 234              		.loc 1 158 0
 235 0078 A1F13003 		sub	r3, r1, #48
 236 007c DBB2     		uxtb	r3, r3
 237 007e 092B     		cmp	r3, #9
 238              		.loc 1 157 0
 239 0080 0546     		mov	r5, r0
 240              	.LVL36:
 241              		.loc 1 164 0
 242 0082 09EB8902 		add	r2, r9, r9, lsl #2
 243              		.loc 1 158 0
 244 0086 F3D9     		bls	.L18
 245              		.loc 1 160 0
 246 0088 2A29     		cmp	r1, #42
 247 008a EFD0     		beq	.L97
 248              	.LVL37:
 249              		.loc 1 167 0
 250 008c 2E29     		cmp	r1, #46
 251 008e 4FF00000 		mov	r0, #0
 252              	.LVL38:
 253 0092 43D0     		beq	.L23
 254              	.LVL39:
 255              		.loc 1 181 0
 256 0094 01F0DF02 		and	r2, r1, #223
 257 0098 4C2A     		cmp	r2, #76
 258 009a 4ED0     		beq	.L98
 259              	.L85:
 260              		.loc 1 190 0
 261 009c A1F14402 		sub	r2, r1, #68
 262 00a0 342A     		cmp	r2, #52
 263 00a2 00F2F980 		bhi	.L26
 264 00a6 DFE812F0 		tbh	[pc, r2, lsl #1]
 265              	.L35:
 266 00aa EE00     		.2byte	(.L43-.L35)/2
 267 00ac F700     		.2byte	(.L26-.L35)/2
 268 00ae F700     		.2byte	(.L26-.L35)/2
 269 00b0 F700     		.2byte	(.L26-.L35)/2
 270 00b2 F700     		.2byte	(.L26-.L35)/2
 271 00b4 EE00     		.2byte	(.L43-.L35)/2
 272 00b6 F700     		.2byte	(.L26-.L35)/2
 273 00b8 F700     		.2byte	(.L26-.L35)/2
 274 00ba F700     		.2byte	(.L26-.L35)/2
 275 00bc F700     		.2byte	(.L26-.L35)/2
 276 00be F700     		.2byte	(.L26-.L35)/2
 277 00c0 EC00     		.2byte	(.L29-.L35)/2
 278 00c2 F700     		.2byte	(.L26-.L35)/2
 279 00c4 F700     		.2byte	(.L26-.L35)/2
 280 00c6 F700     		.2byte	(.L26-.L35)/2
 281 00c8 F700     		.2byte	(.L26-.L35)/2
 282 00ca F700     		.2byte	(.L26-.L35)/2
 283 00cc B900     		.2byte	(.L30-.L35)/2
 284 00ce F700     		.2byte	(.L26-.L35)/2
 285 00d0 F700     		.2byte	(.L26-.L35)/2
ARM GAS  /tmp/ccHWwNZw.s 			page 6


 286 00d2 6F00     		.2byte	(.L66-.L35)/2
 287 00d4 F700     		.2byte	(.L26-.L35)/2
 288 00d6 F700     		.2byte	(.L26-.L35)/2
 289 00d8 F700     		.2byte	(.L26-.L35)/2
 290 00da F700     		.2byte	(.L26-.L35)/2
 291 00dc F700     		.2byte	(.L26-.L35)/2
 292 00de F700     		.2byte	(.L26-.L35)/2
 293 00e0 F700     		.2byte	(.L26-.L35)/2
 294 00e2 F700     		.2byte	(.L26-.L35)/2
 295 00e4 F700     		.2byte	(.L26-.L35)/2
 296 00e6 F700     		.2byte	(.L26-.L35)/2
 297 00e8 E000     		.2byte	(.L32-.L35)/2
 298 00ea EE00     		.2byte	(.L43-.L35)/2
 299 00ec F700     		.2byte	(.L26-.L35)/2
 300 00ee F700     		.2byte	(.L26-.L35)/2
 301 00f0 F700     		.2byte	(.L26-.L35)/2
 302 00f2 F700     		.2byte	(.L26-.L35)/2
 303 00f4 EE00     		.2byte	(.L43-.L35)/2
 304 00f6 F700     		.2byte	(.L26-.L35)/2
 305 00f8 F700     		.2byte	(.L26-.L35)/2
 306 00fa F700     		.2byte	(.L26-.L35)/2
 307 00fc F700     		.2byte	(.L26-.L35)/2
 308 00fe F700     		.2byte	(.L26-.L35)/2
 309 0100 EC00     		.2byte	(.L29-.L35)/2
 310 0102 F700     		.2byte	(.L26-.L35)/2
 311 0104 F700     		.2byte	(.L26-.L35)/2
 312 0106 F700     		.2byte	(.L26-.L35)/2
 313 0108 BB00     		.2byte	(.L33-.L35)/2
 314 010a F700     		.2byte	(.L26-.L35)/2
 315 010c B900     		.2byte	(.L30-.L35)/2
 316 010e F700     		.2byte	(.L26-.L35)/2
 317 0110 F700     		.2byte	(.L26-.L35)/2
 318 0112 6F00     		.2byte	(.L66-.L35)/2
 319              	.LVL40:
 320              		.p2align 1
 321              	.L99:
 322              		.loc 1 173 0
 323 0114 3B78     		ldrb	r3, [r7]	@ zero_extendqisi2
 324              	.LVL41:
 325 0116 0437     		adds	r7, r7, #4
 326              	.LVL42:
 327              	.L22:
 328              		.loc 1 177 0
 329 0118 03EB4200 		add	r0, r3, r2, lsl #1
 330              	.LVL43:
 331              	.L23:
 332              		.loc 1 169 0
 333 011c 15F8011B 		ldrb	r1, [r5], #1	@ zero_extendqisi2
 334              	.LVL44:
 335              		.loc 1 170 0
 336 0120 A1F13003 		sub	r3, r1, #48
 337 0124 DBB2     		uxtb	r3, r3
 338 0126 092B     		cmp	r3, #9
 339              		.loc 1 176 0
 340 0128 00EB8002 		add	r2, r0, r0, lsl #2
 341              		.loc 1 170 0
 342 012c F4D9     		bls	.L22
ARM GAS  /tmp/ccHWwNZw.s 			page 7


 343              		.loc 1 172 0
 344 012e 2A29     		cmp	r1, #42
 345 0130 F0D0     		beq	.L99
 346              	.LVL45:
 347              		.loc 1 181 0
 348 0132 01F0DF02 		and	r2, r1, #223
 349 0136 4C2A     		cmp	r2, #76
 350 0138 B0D1     		bne	.L85
 351              	.L98:
 352              	.LVL46:
 353              		.loc 1 183 0
 354 013a 2C78     		ldrb	r4, [r5]	@ zero_extendqisi2
 355 013c 002C     		cmp	r4, #0
 356 013e 00F0AB80 		beq	.L26
 357              		.loc 1 190 0
 358 0142 A4F14402 		sub	r2, r4, #68
 359              		.loc 1 184 0
 360 0146 0135     		adds	r5, r5, #1
 361              	.LVL47:
 362              		.loc 1 190 0
 363 0148 342A     		cmp	r2, #52
 364 014a 00F2A480 		bhi	.L63
 365 014e DFE802F0 		tbb	[pc, r2]
 366              	.L28:
 367 0152 9A       		.byte	(.L43-.L28)/2
 368 0153 A2       		.byte	(.L63-.L28)/2
 369 0154 A2       		.byte	(.L63-.L28)/2
 370 0155 A2       		.byte	(.L63-.L28)/2
 371 0156 A2       		.byte	(.L63-.L28)/2
 372 0157 9A       		.byte	(.L43-.L28)/2
 373 0158 A2       		.byte	(.L63-.L28)/2
 374 0159 A2       		.byte	(.L63-.L28)/2
 375 015a A2       		.byte	(.L63-.L28)/2
 376 015b A2       		.byte	(.L63-.L28)/2
 377 015c A2       		.byte	(.L63-.L28)/2
 378 015d 98       		.byte	(.L29-.L28)/2
 379 015e A2       		.byte	(.L63-.L28)/2
 380 015f A2       		.byte	(.L63-.L28)/2
 381 0160 A2       		.byte	(.L63-.L28)/2
 382 0161 A2       		.byte	(.L63-.L28)/2
 383 0162 A2       		.byte	(.L63-.L28)/2
 384 0163 65       		.byte	(.L30-.L28)/2
 385 0164 A2       		.byte	(.L63-.L28)/2
 386 0165 A2       		.byte	(.L63-.L28)/2
 387 0166 1B       		.byte	(.L66-.L28)/2
 388 0167 A2       		.byte	(.L63-.L28)/2
 389 0168 A2       		.byte	(.L63-.L28)/2
 390 0169 A2       		.byte	(.L63-.L28)/2
 391 016a A2       		.byte	(.L63-.L28)/2
 392 016b A2       		.byte	(.L63-.L28)/2
 393 016c A2       		.byte	(.L63-.L28)/2
 394 016d A2       		.byte	(.L63-.L28)/2
 395 016e A2       		.byte	(.L63-.L28)/2
 396 016f A2       		.byte	(.L63-.L28)/2
 397 0170 A2       		.byte	(.L63-.L28)/2
 398 0171 8C       		.byte	(.L32-.L28)/2
 399 0172 9A       		.byte	(.L43-.L28)/2
ARM GAS  /tmp/ccHWwNZw.s 			page 8


 400 0173 A2       		.byte	(.L63-.L28)/2
 401 0174 A2       		.byte	(.L63-.L28)/2
 402 0175 A2       		.byte	(.L63-.L28)/2
 403 0176 A2       		.byte	(.L63-.L28)/2
 404 0177 9A       		.byte	(.L43-.L28)/2
 405 0178 A2       		.byte	(.L63-.L28)/2
 406 0179 A2       		.byte	(.L63-.L28)/2
 407 017a A2       		.byte	(.L63-.L28)/2
 408 017b A2       		.byte	(.L63-.L28)/2
 409 017c A2       		.byte	(.L63-.L28)/2
 410 017d 98       		.byte	(.L29-.L28)/2
 411 017e A2       		.byte	(.L63-.L28)/2
 412 017f A2       		.byte	(.L63-.L28)/2
 413 0180 A2       		.byte	(.L63-.L28)/2
 414 0181 67       		.byte	(.L33-.L28)/2
 415 0182 A2       		.byte	(.L63-.L28)/2
 416 0183 65       		.byte	(.L30-.L28)/2
 417 0184 A2       		.byte	(.L63-.L28)/2
 418 0185 A2       		.byte	(.L63-.L28)/2
 419 0186 1B       		.byte	(.L66-.L28)/2
 420              	.L36:
 421              	.LVL48:
 422 0187 00       		.p2align 1
 423              	.L66:
 424 0188 1022     		movs	r2, #16
 425              	.L46:
 426              		.loc 1 243 0
 427 018a 3968     		ldr	r1, [r7]
 428              	.LVL49:
 429              		.loc 1 244 0
 430 018c 03A8     		add	r0, sp, #12
 431              	.LVL50:
 432              		.loc 1 243 0
 433 018e 0437     		adds	r7, r7, #4
 434              	.LVL51:
 435              	.L92:
 436              		.loc 1 244 0
 437 0190 FFF7FEFF 		bl	ch_ltoa
 438              	.LVL52:
 439 0194 03AB     		add	r3, sp, #12
 440              	.LVL53:
 441 0196 C01A     		subs	r0, r0, r3
 442              	.LVL54:
 443 0198 431E     		subs	r3, r0, #1
 444              	.LVL55:
 445 019a 0093     		str	r3, [sp]
 446              		.loc 1 144 0
 447 019c 03AC     		add	r4, sp, #12
 448              	.LVL56:
 449              	.L37:
 450              		.loc 1 251 0
 451 019e C0EB0909 		rsb	r9, r0, r9
 452              	.LVL57:
 453 01a2 29EAE979 		bic	r9, r9, r9, asr #31
 454              	.LVL58:
 455              		.loc 1 253 0
 456 01a6 BBF1000F 		cmp	fp, #0
ARM GAS  /tmp/ccHWwNZw.s 			page 9


 457 01aa 5AD1     		bne	.L48
 458              	.LVL59:
 459              	.L59:
 460              		.loc 1 254 0
 461 01ac C9F1000B 		rsb	fp, r9, #0
 462              	.LVL60:
 463              		.loc 1 255 0
 464 01b0 BBF1000F 		cmp	fp, #0
 465 01b4 78D0     		beq	.L49
 466              		.loc 1 256 0
 467 01b6 2178     		ldrb	r1, [r4]	@ zero_extendqisi2
 468 01b8 2D29     		cmp	r1, #45
 469 01ba 00F08880 		beq	.L100
 470              	.LVL61:
 471              	.L51:
 472              		.loc 1 262 0 discriminator 1
 473 01be 3368     		ldr	r3, [r6]
 474 01c0 4146     		mov	r1, r8
 475 01c2 9B68     		ldr	r3, [r3, #8]
 476 01c4 3046     		mov	r0, r6
 477 01c6 9847     		blx	r3
 478              	.LVL62:
 479              		.loc 1 264 0 discriminator 1
 480 01c8 1BF1010B 		adds	fp, fp, #1
 481              	.LVL63:
 482 01cc F7D1     		bne	.L51
 483              		.loc 1 266 0
 484 01ce 009B     		ldr	r3, [sp]
 485 01d0 002B     		cmp	r3, #0
 486 01d2 CA44     		add	r10, r10, r9
 487              	.LVL64:
 488 01d4 FFF621AF 		blt	.L12
 489              	.L73:
 490 01d8 D946     		mov	r9, fp
 491              	.LVL65:
 492              	.L58:
 493 01da DDF800B0 		ldr	fp, [sp]
 494              	.LVL66:
 495              	.L54:
 496              		.loc 1 267 0
 497 01de 3368     		ldr	r3, [r6]
 498 01e0 14F8011B 		ldrb	r1, [r4], #1	@ zero_extendqisi2
 499              	.LVL67:
 500 01e4 9B68     		ldr	r3, [r3, #8]
 501              		.loc 1 266 0
 502 01e6 0BF1FF3B 		add	fp, fp, #-1
 503              	.LVL68:
 504              		.loc 1 267 0
 505 01ea 3046     		mov	r0, r6
 506 01ec 9847     		blx	r3
 507              	.LVL69:
 508              		.loc 1 266 0
 509 01ee BBF1FF3F 		cmp	fp, #-1
 510 01f2 F4D1     		bne	.L54
 511 01f4 009B     		ldr	r3, [sp]
 512 01f6 0AF1010A 		add	r10, r10, #1
 513 01fa 002B     		cmp	r3, #0
ARM GAS  /tmp/ccHWwNZw.s 			page 10


 514 01fc A8BF     		it	ge
 515 01fe 9A44     		addge	r10, r10, r3
 516              	.LVL70:
 517              	.L53:
 518              		.loc 1 271 0
 519 0200 B9F1000F 		cmp	r9, #0
 520 0204 3FF409AF 		beq	.L12
 521 0208 4C46     		mov	r4, r9
 522              	.LVL71:
 523              	.L55:
 524              		.loc 1 272 0
 525 020a 3368     		ldr	r3, [r6]
 526 020c 4146     		mov	r1, r8
 527 020e 9B68     		ldr	r3, [r3, #8]
 528 0210 3046     		mov	r0, r6
 529 0212 9847     		blx	r3
 530              	.LVL72:
 531              		.loc 1 271 0
 532 0214 013C     		subs	r4, r4, #1
 533              	.LVL73:
 534 0216 F8D1     		bne	.L55
 535 0218 CA44     		add	r10, r10, r9
 536 021a FEE6     		b	.L12
 537              	.LVL74:
 538              	.L30:
 539              		.loc 1 235 0
 540 021c 0A22     		movs	r2, #10
 541 021e B4E7     		b	.L46
 542              	.LVL75:
 543              	.L33:
 544              		.loc 1 197 0
 545 0220 3C68     		ldr	r4, [r7]
 546              		.loc 1 198 0
 547 0222 374A     		ldr	r2, .L103
 548 0224 002C     		cmp	r4, #0
 549 0226 08BF     		it	eq
 550 0228 1446     		moveq	r4, r2
 551              		.loc 1 197 0
 552 022a 0437     		adds	r7, r7, #4
 553              	.LVL76:
 554              		.loc 1 201 0
 555 022c 2278     		ldrb	r2, [r4]	@ zero_extendqisi2
 556              		.loc 1 199 0
 557 022e 0028     		cmp	r0, #0
 558 0230 3ED0     		beq	.L39
 559              	.LVL77:
 560              		.loc 1 201 0 discriminator 1
 561 0232 002A     		cmp	r2, #0
 562 0234 40D0     		beq	.L40
 563              		.loc 1 201 0 is_stmt 0
 564 0236 0138     		subs	r0, r0, #1
 565              	.LVL78:
 566              	.L57:
 567              		.loc 1 201 0 discriminator 4
 568 0238 2246     		mov	r2, r4
 569 023a 01E0     		b	.L42
 570              	.LVL79:
ARM GAS  /tmp/ccHWwNZw.s 			page 11


 571              	.L101:
 572              		.loc 1 201 0 discriminator 3
 573 023c 431C     		adds	r3, r0, #1
 574 023e 04D0     		beq	.L91
 575              	.LVL80:
 576              	.L42:
 577              		.loc 1 201 0 discriminator 4
 578 0240 12F8013F 		ldrb	r3, [r2, #1]!	@ zero_extendqisi2
 579              	.LVL81:
 580 0244 0138     		subs	r0, r0, #1
 581              	.LVL82:
 582 0246 002B     		cmp	r3, #0
 583 0248 F8D1     		bne	.L101
 584              	.L91:
 585 024a 101B     		subs	r0, r2, r4
 586              	.LVL83:
 587 024c 431E     		subs	r3, r0, #1
 588              		.loc 1 251 0 is_stmt 1
 589 024e C0EB0909 		rsb	r9, r0, r9
 590              	.LVL84:
 591 0252 0093     		str	r3, [sp]
 592              		.loc 1 196 0
 593 0254 4FF02008 		mov	r8, #32
 594              	.LVL85:
 595 0258 29EAE979 		bic	r9, r9, r9, asr #31
 596              	.LVL86:
 597              		.loc 1 253 0
 598 025c BBF1000F 		cmp	fp, #0
 599 0260 A4D0     		beq	.L59
 600              	.L48:
 601              		.loc 1 266 0
 602 0262 009B     		ldr	r3, [sp]
 603 0264 002B     		cmp	r3, #0
 604 0266 B8DA     		bge	.L58
 605 0268 CAE7     		b	.L53
 606              	.LVL87:
 607              	.L32:
 608 026a 019B     		ldr	r3, [sp, #4]
 609              		.loc 1 193 0
 610 026c 3A68     		ldr	r2, [r7]
 611 026e 8DF80C20 		strb	r2, [sp, #12]
 612 0272 1846     		mov	r0, r3
 613              	.LVL88:
 614 0274 013B     		subs	r3, r3, #1
 615 0276 0437     		adds	r7, r7, #4
 616 0278 0093     		str	r3, [sp]
 617              		.loc 1 192 0
 618 027a 4FF02008 		mov	r8, #32
 619              		.loc 1 144 0
 620 027e 03AC     		add	r4, sp, #12
 621              	.LVL89:
 622              		.loc 1 194 0
 623 0280 8DE7     		b	.L37
 624              	.LVL90:
 625              	.L29:
 626 0282 0822     		movs	r2, #8
 627 0284 81E7     		b	.L46
ARM GAS  /tmp/ccHWwNZw.s 			page 12


 628              	.LVL91:
 629              	.L43:
 630              		.loc 1 211 0
 631 0286 3968     		ldr	r1, [r7]
 632              	.LVL92:
 633              		.loc 1 212 0
 634 0288 0029     		cmp	r1, #0
 635              		.loc 1 211 0
 636 028a 07F10407 		add	r7, r7, #4
 637              		.loc 1 212 0
 638 028e 2DDB     		blt	.L102
 639              		.loc 1 143 0
 640 0290 03A8     		add	r0, sp, #12
 641              	.LVL93:
 642              	.L45:
 643              		.loc 1 216 0
 644 0292 0A22     		movs	r2, #10
 645 0294 7CE7     		b	.L92
 646              	.LVL94:
 647              	.L63:
 648              		.loc 1 190 0
 649 0296 2146     		mov	r1, r4
 650              	.LVL95:
 651              	.L26:
 652 0298 019B     		ldr	r3, [sp, #4]
 653              		.loc 1 247 0
 654 029a 8DF80C10 		strb	r1, [sp, #12]
 655 029e 1846     		mov	r0, r3
 656              	.LVL96:
 657 02a0 013B     		subs	r3, r3, #1
 658 02a2 0093     		str	r3, [sp]
 659              		.loc 1 144 0
 660 02a4 03AC     		add	r4, sp, #12
 661              	.LVL97:
 662              		.loc 1 248 0
 663 02a6 7AE7     		b	.L37
 664              	.LVL98:
 665              	.L49:
 666              		.loc 1 266 0
 667 02a8 009B     		ldr	r3, [sp]
 668 02aa 002B     		cmp	r3, #0
 669 02ac 94DA     		bge	.L73
 670 02ae B4E6     		b	.L12
 671              	.LVL99:
 672              	.L39:
 673              		.loc 1 201 0
 674 02b0 47F6FE70 		movw	r0, #32766
 675 02b4 002A     		cmp	r2, #0
 676 02b6 BFD1     		bne	.L57
 677              	.LVL100:
 678              	.L40:
 679 02b8 29EAE979 		bic	r9, r9, r9, asr #31
 680              	.LVL101:
 681              		.loc 1 253 0
 682 02bc BBF1000F 		cmp	fp, #0
 683 02c0 1BD1     		bne	.L72
 684 02c2 4FF0FF33 		mov	r3, #-1
ARM GAS  /tmp/ccHWwNZw.s 			page 13


 685 02c6 0093     		str	r3, [sp]
 686 02c8 4FF02008 		mov	r8, #32
 687 02cc 6EE7     		b	.L59
 688              	.LVL102:
 689              	.L100:
 690              		.loc 1 256 0 discriminator 1
 691 02ce B8F1300F 		cmp	r8, #48
 692 02d2 7FF474AF 		bne	.L51
 693              		.loc 1 257 0
 694 02d6 3268     		ldr	r2, [r6]
 695 02d8 3046     		mov	r0, r6
 696 02da 9268     		ldr	r2, [r2, #8]
 697 02dc 9047     		blx	r2
 698              	.LVL103:
 699 02de 009B     		ldr	r3, [sp]
 700 02e0 013B     		subs	r3, r3, #1
 701 02e2 0134     		adds	r4, r4, #1
 702              	.LVL104:
 703              		.loc 1 258 0
 704 02e4 0AF1010A 		add	r10, r10, #1
 705              	.LVL105:
 706 02e8 0093     		str	r3, [sp]
 707 02ea 68E7     		b	.L51
 708              	.LVL106:
 709              	.L102:
 710              		.loc 1 213 0
 711 02ec 2D22     		movs	r2, #45
 712              		.loc 1 214 0
 713 02ee 4942     		negs	r1, r1
 714              	.LVL107:
 715              		.loc 1 213 0
 716 02f0 8DF80C20 		strb	r2, [sp, #12]
 717 02f4 0DF10D00 		add	r0, sp, #13
 718              	.LVL108:
 719 02f8 CBE7     		b	.L45
 720              	.LVL109:
 721              	.L72:
 722              		.loc 1 253 0
 723 02fa 4FF02008 		mov	r8, #32
 724 02fe 7FE7     		b	.L53
 725              	.L104:
 726              		.align	2
 727              	.L103:
 728 0300 00000000 		.word	.LC0
 729              		.cfi_endproc
 730              	.LFE261:
 731              		.size	chvprintf, .-chvprintf
 732              		.section	.text.chsnprintf,"ax",%progbits
 733              		.align	2
 734              		.p2align 4,,15
 735              		.global	chsnprintf
 736              		.thumb
 737              		.thumb_func
 738              		.type	chsnprintf, %function
 739              	chsnprintf:
 740              	.LFB262:
 741              		.loc 1 307 0
ARM GAS  /tmp/ccHWwNZw.s 			page 14


 742              		.cfi_startproc
 743              		@ args = 4, pretend = 8, frame = 24
 744              		@ frame_needed = 0, uses_anonymous_args = 1
 745              	.LVL110:
 746 0000 0CB4     		push	{r2, r3}
 747              		.cfi_def_cfa_offset 8
 748              		.cfi_offset 2, -8
 749              		.cfi_offset 3, -4
 750 0002 30B5     		push	{r4, r5, lr}
 751              		.cfi_def_cfa_offset 20
 752              		.cfi_offset 4, -20
 753              		.cfi_offset 5, -16
 754              		.cfi_offset 14, -12
 755 0004 0546     		mov	r5, r0
 756 0006 87B0     		sub	sp, sp, #28
 757              		.cfi_def_cfa_offset 48
 758              		.loc 1 314 0
 759 0008 0C46     		mov	r4, r1
 760 000a B1B1     		cbz	r1, .L106
 761              	.LVL111:
 762              		.loc 1 321 0
 763 000c 4A1E     		subs	r2, r1, #1
 764              	.LVL112:
 765 000e 01A8     		add	r0, sp, #4
 766              	.LVL113:
 767 0010 0023     		movs	r3, #0
 768 0012 2946     		mov	r1, r5
 769              	.LVL114:
 770 0014 FFF7FEFF 		bl	msObjectInit
 771              	.LVL115:
 772              		.loc 1 325 0
 773 0018 0BAB     		add	r3, sp, #44
 774              		.loc 1 326 0
 775 001a 1A46     		mov	r2, r3
 776 001c 01A8     		add	r0, sp, #4
 777              	.LVL116:
 778 001e 0A99     		ldr	r1, [sp, #40]
 779              		.loc 1 325 0
 780 0020 0093     		str	r3, [sp]
 781              		.loc 1 326 0
 782 0022 FFF7FEFF 		bl	chvprintf
 783              	.LVL117:
 784              		.loc 1 330 0
 785 0026 049B     		ldr	r3, [sp, #16]
 786 0028 9C42     		cmp	r4, r3
 787 002a 01D9     		bls	.L108
 788              		.loc 1 331 0
 789 002c 0022     		movs	r2, #0
 790 002e EA54     		strb	r2, [r5, r3]
 791              	.L108:
 792              		.loc 1 335 0
 793 0030 07B0     		add	sp, sp, #28
 794              		.cfi_remember_state
 795              		.cfi_def_cfa_offset 20
 796              		@ sp needed
 797 0032 BDE83040 		pop	{r4, r5, lr}
 798              		.cfi_restore 14
ARM GAS  /tmp/ccHWwNZw.s 			page 15


 799              		.cfi_restore 5
 800              		.cfi_restore 4
 801              		.cfi_def_cfa_offset 8
 802              	.LVL118:
 803 0036 02B0     		add	sp, sp, #8
 804              		.cfi_restore 3
 805              		.cfi_restore 2
 806              		.cfi_def_cfa_offset 0
 807 0038 7047     		bx	lr
 808              	.LVL119:
 809              	.L106:
 810              		.cfi_restore_state
 811              		.loc 1 321 0
 812 003a 0146     		mov	r1, r0
 813              	.LVL120:
 814 003c 2346     		mov	r3, r4
 815 003e 01A8     		add	r0, sp, #4
 816              	.LVL121:
 817 0040 2246     		mov	r2, r4
 818 0042 FFF7FEFF 		bl	msObjectInit
 819              	.LVL122:
 820              		.loc 1 325 0
 821 0046 0BAB     		add	r3, sp, #44
 822              		.loc 1 326 0
 823 0048 01A8     		add	r0, sp, #4
 824              	.LVL123:
 825 004a 1A46     		mov	r2, r3
 826 004c 0A99     		ldr	r1, [sp, #40]
 827              		.loc 1 325 0
 828 004e 0093     		str	r3, [sp]
 829              		.loc 1 326 0
 830 0050 FFF7FEFF 		bl	chvprintf
 831              	.LVL124:
 832              		.loc 1 335 0
 833 0054 07B0     		add	sp, sp, #28
 834              		.cfi_def_cfa_offset 20
 835              		@ sp needed
 836 0056 BDE83040 		pop	{r4, r5, lr}
 837              		.cfi_restore 4
 838              		.cfi_restore 5
 839              		.cfi_restore 14
 840              		.cfi_def_cfa_offset 8
 841              	.LVL125:
 842 005a 02B0     		add	sp, sp, #8
 843              		.cfi_restore 2
 844              		.cfi_restore 3
 845              		.cfi_def_cfa_offset 0
 846 005c 7047     		bx	lr
 847              		.cfi_endproc
 848              	.LFE262:
 849              		.size	chsnprintf, .-chsnprintf
 850 005e 00BF     		.section	.rodata.str1.4,"aMS",%progbits,1
 851              		.align	2
 852              	.LC0:
 853 0000 286E756C 		.ascii	"(null)\000"
 853      6C2900
 854              		.text
ARM GAS  /tmp/ccHWwNZw.s 			page 16


 855              	.Letext0:
 856              		.file 2 "/usr/lib/gcc/arm-none-eabi/5.3.1/include/stddef.h"
 857              		.file 3 "/usr/arm-none-eabi/include/machine/_default_types.h"
 858              		.file 4 "/usr/arm-none-eabi/include/sys/_stdint.h"
 859              		.file 5 "/home/selim/working/ChibiOS/os/rt/ports/ARMCMx/compilers/GCC/chtypes.h"
 860              		.file 6 "/home/selim/working/ChibiOS/os/rt/include/chsystypes.h"
 861              		.file 7 "/home/selim/working/ChibiOS/os/rt/include/chschd.h"
 862              		.file 8 "/home/selim/working/ChibiOS/os/rt/ports/ARMCMx/chcore.h"
 863              		.file 9 "/home/selim/working/ChibiOS/os/rt/ports/ARMCMx/chcore_v7m.h"
 864              		.file 10 "/home/selim/working/ChibiOS/os/rt/include/chtm.h"
 865              		.file 11 "/home/selim/working/ChibiOS/os/rt/include/chsem.h"
 866              		.file 12 "/home/selim/working/ChibiOS/os/rt/include/chmtx.h"
 867              		.file 13 "/home/selim/working/ChibiOS/os/rt/include/chstreams.h"
 868              		.file 14 "/usr/lib/gcc/arm-none-eabi/5.3.1/include/stdarg.h"
 869              		.file 15 "<built-in>"
 870              		.file 16 "/home/selim/working/ChibiOS/os/hal/lib/streams/memstreams.h"
 871              		.file 17 "/home/selim/working/ChibiOS/os/ext/CMSIS/include/core_cm4.h"