ARM GAS  /tmp/ccjSLPR4.s 			page 1


   1              		.syntax unified
   2              		.cpu cortex-m4
   3              		.fpu softvfp
   4              		.eabi_attribute 20, 1
   5              		.eabi_attribute 21, 1
   6              		.eabi_attribute 23, 3
   7              		.eabi_attribute 24, 1
   8              		.eabi_attribute 25, 1
   9              		.eabi_attribute 26, 1
  10              		.eabi_attribute 30, 2
  11              		.eabi_attribute 34, 1
  12              		.eabi_attribute 18, 4
  13              		.thumb
  14              		.syntax unified
  15              		.file	"chtm.c"
  16              		.text
  17              	.Ltext0:
  18              		.cfi_sections	.debug_frame
  19              		.section	.text.chTMObjectInit,"ax",%progbits
  20              		.align	2
  21              		.p2align 4,,15
  22              		.global	chTMObjectInit
  23              		.thumb
  24              		.thumb_func
  25              		.type	chTMObjectInit, %function
  26              	chTMObjectInit:
  27              	.LFB229:
  28              		.file 1 "/home/selim/working/ChibiOS/os/rt/src/chtm.c"
  29              		.loc 1 99 0
  30              		.cfi_startproc
  31              		@ args = 0, pretend = 0, frame = 0
  32              		@ frame_needed = 0, uses_anonymous_args = 0
  33              		@ link register save eliminated.
  34              	.LVL0:
  35              		.loc 1 105 0
  36 0000 0022     		movs	r2, #0
  37 0002 0023     		movs	r3, #0
  38 0004 C0E90423 		strd	r2, [r0, #16]
  39              		.loc 1 102 0
  40 0008 0023     		movs	r3, #0
  41 000a 4FF0FF32 		mov	r2, #-1
  42 000e 80E80C00 		stmia	r0, {r2, r3}
  43              		.loc 1 103 0
  44 0012 8360     		str	r3, [r0, #8]
  45              		.loc 1 104 0
  46 0014 C360     		str	r3, [r0, #12]
  47 0016 7047     		bx	lr
  48              		.cfi_endproc
  49              	.LFE229:
  50              		.size	chTMObjectInit, .-chTMObjectInit
  51              		.section	.text.chTMStartMeasurementX,"ax",%progbits
  52              		.align	2
  53              		.p2align 4,,15
  54              		.global	chTMStartMeasurementX
  55              		.thumb
  56              		.thumb_func
  57              		.type	chTMStartMeasurementX, %function
ARM GAS  /tmp/ccjSLPR4.s 			page 2


  58              	chTMStartMeasurementX:
  59              	.LFB230:
  60              		.loc 1 116 0
  61              		.cfi_startproc
  62              		@ args = 0, pretend = 0, frame = 0
  63              		@ frame_needed = 0, uses_anonymous_args = 0
  64              		@ link register save eliminated.
  65              	.LVL1:
  66              	.LBB14:
  67              	.LBB15:
  68              		.file 2 "/home/selim/working/ChibiOS/os/rt/ports/ARMCMx/chcore_v7m.h"
  69              		.loc 2 548 0
  70 0000 014B     		ldr	r3, .L3
  71 0002 5B68     		ldr	r3, [r3, #4]
  72              	.LBE15:
  73              	.LBE14:
  74              		.loc 1 118 0
  75 0004 8360     		str	r3, [r0, #8]
  76 0006 7047     		bx	lr
  77              	.L4:
  78              		.align	2
  79              	.L3:
  80 0008 001000E0 		.word	-536866816
  81              		.cfi_endproc
  82              	.LFE230:
  83              		.size	chTMStartMeasurementX, .-chTMStartMeasurementX
  84              		.section	.text.chTMStopMeasurementX,"ax",%progbits
  85              		.align	2
  86              		.p2align 4,,15
  87              		.global	chTMStopMeasurementX
  88              		.thumb
  89              		.thumb_func
  90              		.type	chTMStopMeasurementX, %function
  91              	chTMStopMeasurementX:
  92              	.LFB231:
  93              		.loc 1 129 0
  94              		.cfi_startproc
  95              		@ args = 0, pretend = 0, frame = 0
  96              		@ frame_needed = 0, uses_anonymous_args = 0
  97              		@ link register save eliminated.
  98              	.LVL2:
  99              	.LBB16:
 100              	.LBB17:
 101              		.loc 2 548 0
 102 0000 0F4B     		ldr	r3, .L11
 103              	.LBE17:
 104              	.LBE16:
 105              		.loc 1 131 0
 106 0002 1049     		ldr	r1, .L11+4
 107              	.LBB19:
 108              	.LBB18:
 109              		.loc 2 548 0
 110 0004 5A68     		ldr	r2, [r3, #4]
 111              	.LBE18:
 112              	.LBE19:
 113              	.LBB20:
 114              	.LBB21:
ARM GAS  /tmp/ccjSLPR4.s 			page 3


 115              		.loc 1 58 0
 116 0006 8368     		ldr	r3, [r0, #8]
 117              	.LBE21:
 118              	.LBE20:
 119              		.loc 1 129 0
 120 0008 F0B4     		push	{r4, r5, r6, r7}
 121              		.cfi_def_cfa_offset 16
 122              		.cfi_offset 4, -16
 123              		.cfi_offset 5, -12
 124              		.cfi_offset 6, -8
 125              		.cfi_offset 7, -4
 126              		.loc 1 131 0
 127 000a 4F6F     		ldr	r7, [r1, #116]
 128              	.LVL3:
 129              	.LBB24:
 130              	.LBB22:
 131              		.loc 1 57 0
 132 000c C668     		ldr	r6, [r0, #12]
 133              		.loc 1 61 0
 134 000e 4168     		ldr	r1, [r0, #4]
 135              		.loc 1 59 0
 136 0010 D0E90445 		ldrd	r4, [r0, #16]
 137              		.loc 1 58 0
 138 0014 D31A     		subs	r3, r2, r3
 139 0016 DB1B     		subs	r3, r3, r7
 140              		.loc 1 59 0
 141 0018 E418     		adds	r4, r4, r3
 142 001a 45F10005 		adc	r5, r5, #0
 143              		.loc 1 57 0
 144 001e 0136     		adds	r6, r6, #1
 145              		.loc 1 61 0
 146 0020 8B42     		cmp	r3, r1
 147              		.loc 1 57 0
 148 0022 C660     		str	r6, [r0, #12]
 149              		.loc 1 58 0
 150 0024 8360     		str	r3, [r0, #8]
 151              		.loc 1 59 0
 152 0026 C0E90445 		strd	r4, [r0, #16]
 153              		.loc 1 61 0
 154 002a 05D8     		bhi	.L10
 155              		.loc 1 64 0
 156 002c 0268     		ldr	r2, [r0]
 157 002e 9342     		cmp	r3, r2
 158              		.loc 1 65 0
 159 0030 38BF     		it	cc
 160 0032 0360     		strcc	r3, [r0]
 161              	.LVL4:
 162              	.LBE22:
 163              	.LBE24:
 164              		.loc 1 132 0
 165 0034 F0BC     		pop	{r4, r5, r6, r7}
 166              		.cfi_remember_state
 167              		.cfi_restore 7
 168              		.cfi_restore 6
 169              		.cfi_restore 5
 170              		.cfi_restore 4
 171              		.cfi_def_cfa_offset 0
ARM GAS  /tmp/ccjSLPR4.s 			page 4


 172 0036 7047     		bx	lr
 173              	.LVL5:
 174              	.L10:
 175              		.cfi_restore_state
 176              	.LBB25:
 177              	.LBB23:
 178              		.loc 1 62 0
 179 0038 4360     		str	r3, [r0, #4]
 180              	.LBE23:
 181              	.LBE25:
 182              		.loc 1 132 0
 183 003a F0BC     		pop	{r4, r5, r6, r7}
 184              		.cfi_restore 4
 185              		.cfi_restore 5
 186              		.cfi_restore 6
 187              		.cfi_restore 7
 188              		.cfi_def_cfa_offset 0
 189              	.LVL6:
 190 003c 7047     		bx	lr
 191              	.L12:
 192 003e 00BF     		.align	2
 193              	.L11:
 194 0040 001000E0 		.word	-536866816
 195 0044 00000000 		.word	ch
 196              		.cfi_endproc
 197              	.LFE231:
 198              		.size	chTMStopMeasurementX, .-chTMStopMeasurementX
 199              		.section	.text._tm_init,"ax",%progbits
 200              		.align	2
 201              		.p2align 4,,15
 202              		.global	_tm_init
 203              		.thumb
 204              		.thumb_func
 205              		.type	_tm_init, %function
 206              	_tm_init:
 207              	.LFB228:
 208              		.loc 1 79 0
 209              		.cfi_startproc
 210              		@ args = 0, pretend = 0, frame = 24
 211              		@ frame_needed = 0, uses_anonymous_args = 0
 212 0000 D0B5     		push	{r4, r6, r7, lr}
 213              		.cfi_def_cfa_offset 16
 214              		.cfi_offset 4, -16
 215              		.cfi_offset 6, -12
 216              		.cfi_offset 7, -8
 217              		.cfi_offset 14, -4
 218              		.loc 1 85 0
 219 0002 0C4C     		ldr	r4, .L15
 220              		.loc 1 79 0
 221 0004 86B0     		sub	sp, sp, #24
 222              		.cfi_def_cfa_offset 40
 223              		.loc 1 85 0
 224 0006 0023     		movs	r3, #0
 225              	.LBB26:
 226              	.LBB27:
 227              		.loc 1 101 0
 228 0008 4FF0FF32 		mov	r2, #-1
ARM GAS  /tmp/ccjSLPR4.s 			page 5


 229              	.LBE27:
 230              	.LBE26:
 231              		.loc 1 87 0
 232 000c 6846     		mov	r0, sp
 233              	.LBB30:
 234              	.LBB28:
 235              		.loc 1 105 0
 236 000e 0026     		movs	r6, #0
 237 0010 0027     		movs	r7, #0
 238              	.LBE28:
 239              	.LBE30:
 240              		.loc 1 85 0
 241 0012 6367     		str	r3, [r4, #116]
 242              	.LVL7:
 243              	.LBB31:
 244              	.LBB29:
 245              		.loc 1 102 0
 246 0014 0193     		str	r3, [sp, #4]
 247              		.loc 1 103 0
 248 0016 0293     		str	r3, [sp, #8]
 249              		.loc 1 104 0
 250 0018 0393     		str	r3, [sp, #12]
 251              		.loc 1 101 0
 252 001a 0092     		str	r2, [sp]
 253              		.loc 1 105 0
 254 001c CDE90467 		strd	r6, [sp, #16]
 255              	.LVL8:
 256              	.LBE29:
 257              	.LBE31:
 258              		.loc 1 87 0
 259 0020 FFF7FEFF 		bl	chTMStartMeasurementX
 260              	.LVL9:
 261              		.loc 1 88 0
 262 0024 6846     		mov	r0, sp
 263 0026 FFF7FEFF 		bl	chTMStopMeasurementX
 264              	.LVL10:
 265              		.loc 1 89 0
 266 002a 029B     		ldr	r3, [sp, #8]
 267 002c 6367     		str	r3, [r4, #116]
 268              		.loc 1 90 0
 269 002e 06B0     		add	sp, sp, #24
 270              		.cfi_def_cfa_offset 16
 271              		@ sp needed
 272 0030 D0BD     		pop	{r4, r6, r7, pc}
 273              	.L16:
 274 0032 00BF     		.align	2
 275              	.L15:
 276 0034 00000000 		.word	ch
 277              		.cfi_endproc
 278              	.LFE228:
 279              		.size	_tm_init, .-_tm_init
 280              		.section	.text.chTMChainMeasurementToX,"ax",%progbits
 281              		.align	2
 282              		.p2align 4,,15
 283              		.global	chTMChainMeasurementToX
 284              		.thumb
 285              		.thumb_func
ARM GAS  /tmp/ccjSLPR4.s 			page 6


 286              		.type	chTMChainMeasurementToX, %function
 287              	chTMChainMeasurementToX:
 288              	.LFB232:
 289              		.loc 1 147 0
 290              		.cfi_startproc
 291              		@ args = 0, pretend = 0, frame = 0
 292              		@ frame_needed = 0, uses_anonymous_args = 0
 293              		@ link register save eliminated.
 294              	.LVL11:
 295              	.LBB32:
 296              	.LBB33:
 297              		.loc 2 548 0
 298 0000 0E4B     		ldr	r3, .L22
 299              	.LBE33:
 300              	.LBE32:
 301              	.LBB35:
 302              	.LBB36:
 303              		.loc 1 61 0
 304 0002 4268     		ldr	r2, [r0, #4]
 305              	.LBE36:
 306              	.LBE35:
 307              	.LBB39:
 308              	.LBB34:
 309              		.loc 2 548 0
 310 0004 5B68     		ldr	r3, [r3, #4]
 311              	.LBE34:
 312              	.LBE39:
 313              		.loc 1 147 0
 314 0006 70B4     		push	{r4, r5, r6}
 315              		.cfi_def_cfa_offset 12
 316              		.cfi_offset 4, -12
 317              		.cfi_offset 5, -8
 318              		.cfi_offset 6, -4
 319              		.loc 1 150 0
 320 0008 8B60     		str	r3, [r1, #8]
 321              	.LVL12:
 322              	.LBB40:
 323              	.LBB37:
 324              		.loc 1 59 0
 325 000a D0E90445 		ldrd	r4, [r0, #16]
 326              		.loc 1 58 0
 327 000e 8668     		ldr	r6, [r0, #8]
 328              		.loc 1 57 0
 329 0010 C168     		ldr	r1, [r0, #12]
 330              	.LVL13:
 331              		.loc 1 58 0
 332 0012 9B1B     		subs	r3, r3, r6
 333              	.LVL14:
 334              		.loc 1 59 0
 335 0014 E418     		adds	r4, r4, r3
 336 0016 45F10005 		adc	r5, r5, #0
 337              		.loc 1 57 0
 338 001a 0131     		adds	r1, r1, #1
 339              		.loc 1 61 0
 340 001c 9342     		cmp	r3, r2
 341              		.loc 1 57 0
 342 001e C160     		str	r1, [r0, #12]
ARM GAS  /tmp/ccjSLPR4.s 			page 7


 343              		.loc 1 58 0
 344 0020 8360     		str	r3, [r0, #8]
 345              	.LVL15:
 346              		.loc 1 59 0
 347 0022 C0E90445 		strd	r4, [r0, #16]
 348              		.loc 1 61 0
 349 0026 05D8     		bhi	.L21
 350              		.loc 1 64 0
 351 0028 0268     		ldr	r2, [r0]
 352 002a 9342     		cmp	r3, r2
 353              		.loc 1 65 0
 354 002c 38BF     		it	cc
 355 002e 0360     		strcc	r3, [r0]
 356              	.LVL16:
 357              	.LBE37:
 358              	.LBE40:
 359              		.loc 1 154 0
 360 0030 70BC     		pop	{r4, r5, r6}
 361              		.cfi_remember_state
 362              		.cfi_restore 6
 363              		.cfi_restore 5
 364              		.cfi_restore 4
 365              		.cfi_def_cfa_offset 0
 366 0032 7047     		bx	lr
 367              	.LVL17:
 368              	.L21:
 369              		.cfi_restore_state
 370              	.LBB41:
 371              	.LBB38:
 372              		.loc 1 62 0
 373 0034 4360     		str	r3, [r0, #4]
 374              	.LBE38:
 375              	.LBE41:
 376              		.loc 1 154 0
 377 0036 70BC     		pop	{r4, r5, r6}
 378              		.cfi_restore 4
 379              		.cfi_restore 5
 380              		.cfi_restore 6
 381              		.cfi_def_cfa_offset 0
 382 0038 7047     		bx	lr
 383              	.L23:
 384 003a 00BF     		.align	2
 385              	.L22:
 386 003c 001000E0 		.word	-536866816
 387              		.cfi_endproc
 388              	.LFE232:
 389              		.size	chTMChainMeasurementToX, .-chTMChainMeasurementToX
 390              		.text
 391              	.Letext0:
 392              		.file 3 "/usr/arm-none-eabi/include/machine/_default_types.h"
 393              		.file 4 "/usr/arm-none-eabi/include/sys/_stdint.h"
 394              		.file 5 "/home/selim/working/ChibiOS/os/rt/ports/ARMCMx/compilers/GCC/chtypes.h"
 395              		.file 6 "/home/selim/working/ChibiOS/os/rt/include/chsystypes.h"
 396              		.file 7 "/home/selim/working/ChibiOS/os/rt/include/chschd.h"
 397              		.file 8 "/home/selim/working/ChibiOS/os/ext/CMSIS/include/core_cm4.h"
 398              		.file 9 "/home/selim/working/ChibiOS/os/rt/ports/ARMCMx/chcore.h"
 399              		.file 10 "/home/selim/working/ChibiOS/os/rt/include/chtm.h"
ARM GAS  /tmp/ccjSLPR4.s 			page 8


 400              		.file 11 "/home/selim/working/ChibiOS/os/rt/include/chsem.h"
 401              		.file 12 "/home/selim/working/ChibiOS/os/rt/include/chmtx.h"
 402              		.section	.debug_info,"",%progbits
 403              	.Ldebug_info0:
 404 0000 C0090000 		.4byte	0x9c0
 405 0004 0400     		.2byte	0x4
 406 0006 00000000 		.4byte	.Ldebug_abbrev0
 407 000a 04       		.byte	0x4
 408 000b 01       		.uleb128 0x1
 409 000c 06040000 		.4byte	.LASF140
 410 0010 0C       		.byte	0xc
 411 0011 27060000 		.4byte	.LASF141
 412 0015 90000000 		.4byte	.Ldebug_ranges0+0x90
 413 0019 00000000 		.4byte	0
 414 001d 00000000 		.4byte	.Ldebug_line0
 415 0021 02       		.uleb128 0x2
 416 0022 04       		.byte	0x4
 417 0023 05       		.byte	0x5
 418 0024 696E7400 		.ascii	"int\000"
 419 0028 03       		.uleb128 0x3
 420 0029 04       		.byte	0x4
 421 002a 07       		.byte	0x7
 422 002b B8010000 		.4byte	.LASF0
 423 002f 03       		.uleb128 0x3
 424 0030 08       		.byte	0x8
 425 0031 05       		.byte	0x5
 426 0032 E4000000 		.4byte	.LASF1
 427 0036 03       		.uleb128 0x3
 428 0037 08       		.byte	0x8
 429 0038 04       		.byte	0x4
 430 0039 D5020000 		.4byte	.LASF2
 431 003d 03       		.uleb128 0x3
 432 003e 01       		.byte	0x1
 433 003f 06       		.byte	0x6
 434 0040 F2000000 		.4byte	.LASF3
 435 0044 04       		.uleb128 0x4
 436 0045 23000000 		.4byte	.LASF7
 437 0049 03       		.byte	0x3
 438 004a 1D       		.byte	0x1d
 439 004b 4F000000 		.4byte	0x4f
 440 004f 03       		.uleb128 0x3
 441 0050 01       		.byte	0x1
 442 0051 08       		.byte	0x8
 443 0052 AA030000 		.4byte	.LASF4
 444 0056 03       		.uleb128 0x3
 445 0057 02       		.byte	0x2
 446 0058 05       		.byte	0x5
 447 0059 ED030000 		.4byte	.LASF5
 448 005d 03       		.uleb128 0x3
 449 005e 02       		.byte	0x2
 450 005f 07       		.byte	0x7
 451 0060 04020000 		.4byte	.LASF6
 452 0064 04       		.uleb128 0x4
 453 0065 64020000 		.4byte	.LASF8
 454 0069 03       		.byte	0x3
 455 006a 3F       		.byte	0x3f
 456 006b 6F000000 		.4byte	0x6f
ARM GAS  /tmp/ccjSLPR4.s 			page 9


 457 006f 03       		.uleb128 0x3
 458 0070 04       		.byte	0x4
 459 0071 05       		.byte	0x5
 460 0072 47010000 		.4byte	.LASF9
 461 0076 04       		.uleb128 0x4
 462 0077 C0050000 		.4byte	.LASF10
 463 007b 03       		.byte	0x3
 464 007c 41       		.byte	0x41
 465 007d 81000000 		.4byte	0x81
 466 0081 03       		.uleb128 0x3
 467 0082 04       		.byte	0x4
 468 0083 07       		.byte	0x7
 469 0084 61050000 		.4byte	.LASF11
 470 0088 04       		.uleb128 0x4
 471 0089 36030000 		.4byte	.LASF12
 472 008d 03       		.byte	0x3
 473 008e 5B       		.byte	0x5b
 474 008f 93000000 		.4byte	0x93
 475 0093 03       		.uleb128 0x3
 476 0094 08       		.byte	0x8
 477 0095 07       		.byte	0x7
 478 0096 72000000 		.4byte	.LASF13
 479 009a 04       		.uleb128 0x4
 480 009b 5A060000 		.4byte	.LASF14
 481 009f 04       		.byte	0x4
 482 00a0 14       		.byte	0x14
 483 00a1 44000000 		.4byte	0x44
 484 00a5 04       		.uleb128 0x4
 485 00a6 A2030000 		.4byte	.LASF15
 486 00aa 04       		.byte	0x4
 487 00ab 1F       		.byte	0x1f
 488 00ac 64000000 		.4byte	0x64
 489 00b0 04       		.uleb128 0x4
 490 00b1 30050000 		.4byte	.LASF16
 491 00b5 04       		.byte	0x4
 492 00b6 20       		.byte	0x20
 493 00b7 76000000 		.4byte	0x76
 494 00bb 04       		.uleb128 0x4
 495 00bc 1A000000 		.4byte	.LASF17
 496 00c0 04       		.byte	0x4
 497 00c1 26       		.byte	0x26
 498 00c2 88000000 		.4byte	0x88
 499 00c6 05       		.uleb128 0x5
 500 00c7 A5000000 		.4byte	0xa5
 501 00cb 05       		.uleb128 0x5
 502 00cc B0000000 		.4byte	0xb0
 503 00d0 04       		.uleb128 0x4
 504 00d1 ED050000 		.4byte	.LASF18
 505 00d5 05       		.byte	0x5
 506 00d6 46       		.byte	0x46
 507 00d7 B0000000 		.4byte	0xb0
 508 00db 04       		.uleb128 0x4
 509 00dc CA000000 		.4byte	.LASF19
 510 00e0 05       		.byte	0x5
 511 00e1 47       		.byte	0x47
 512 00e2 BB000000 		.4byte	0xbb
 513 00e6 04       		.uleb128 0x4
ARM GAS  /tmp/ccjSLPR4.s 			page 10


 514 00e7 46020000 		.4byte	.LASF20
 515 00eb 05       		.byte	0x5
 516 00ec 49       		.byte	0x49
 517 00ed 9A000000 		.4byte	0x9a
 518 00f1 04       		.uleb128 0x4
 519 00f2 50010000 		.4byte	.LASF21
 520 00f6 05       		.byte	0x5
 521 00f7 4A       		.byte	0x4a
 522 00f8 9A000000 		.4byte	0x9a
 523 00fc 04       		.uleb128 0x4
 524 00fd 4C030000 		.4byte	.LASF22
 525 0101 05       		.byte	0x5
 526 0102 4B       		.byte	0x4b
 527 0103 9A000000 		.4byte	0x9a
 528 0107 04       		.uleb128 0x4
 529 0108 89030000 		.4byte	.LASF23
 530 010c 05       		.byte	0x5
 531 010d 4D       		.byte	0x4d
 532 010e B0000000 		.4byte	0xb0
 533 0112 04       		.uleb128 0x4
 534 0113 28020000 		.4byte	.LASF24
 535 0117 05       		.byte	0x5
 536 0118 4E       		.byte	0x4e
 537 0119 A5000000 		.4byte	0xa5
 538 011d 04       		.uleb128 0x4
 539 011e 58020000 		.4byte	.LASF25
 540 0122 05       		.byte	0x5
 541 0123 50       		.byte	0x50
 542 0124 B0000000 		.4byte	0xb0
 543 0128 04       		.uleb128 0x4
 544 0129 B2010000 		.4byte	.LASF26
 545 012d 05       		.byte	0x5
 546 012e 52       		.byte	0x52
 547 012f A5000000 		.4byte	0xa5
 548 0133 04       		.uleb128 0x4
 549 0134 33020000 		.4byte	.LASF27
 550 0138 05       		.byte	0x5
 551 0139 53       		.byte	0x53
 552 013a B0000000 		.4byte	0xb0
 553 013e 04       		.uleb128 0x4
 554 013f A2050000 		.4byte	.LASF28
 555 0143 06       		.byte	0x6
 556 0144 33       		.byte	0x33
 557 0145 B0000000 		.4byte	0xb0
 558 0149 04       		.uleb128 0x4
 559 014a 78050000 		.4byte	.LASF29
 560 014e 06       		.byte	0x6
 561 014f 3F       		.byte	0x3f
 562 0150 54010000 		.4byte	0x154
 563 0154 06       		.uleb128 0x6
 564 0155 17020000 		.4byte	.LASF49
 565 0159 44       		.byte	0x44
 566 015a 07       		.byte	0x7
 567 015b C2       		.byte	0xc2
 568 015c 41020000 		.4byte	0x241
 569 0160 07       		.uleb128 0x7
 570 0161 E7040000 		.4byte	.LASF30
ARM GAS  /tmp/ccjSLPR4.s 			page 11


 571 0165 07       		.byte	0x7
 572 0166 C3       		.byte	0xc3
 573 0167 4C020000 		.4byte	0x24c
 574 016b 00       		.byte	0
 575 016c 07       		.uleb128 0x7
 576 016d 82030000 		.4byte	.LASF31
 577 0171 07       		.byte	0x7
 578 0172 C5       		.byte	0xc5
 579 0173 4C020000 		.4byte	0x24c
 580 0177 04       		.byte	0x4
 581 0178 07       		.uleb128 0x7
 582 0179 D3000000 		.4byte	.LASF32
 583 017d 07       		.byte	0x7
 584 017e C7       		.byte	0xc7
 585 017f 07010000 		.4byte	0x107
 586 0183 08       		.byte	0x8
 587 0184 07       		.uleb128 0x7
 588 0185 0C030000 		.4byte	.LASF33
 589 0189 07       		.byte	0x7
 590 018a C8       		.byte	0xc8
 591 018b D2050000 		.4byte	0x5d2
 592 018f 0C       		.byte	0xc
 593 0190 07       		.uleb128 0x7
 594 0191 62010000 		.4byte	.LASF34
 595 0195 07       		.byte	0x7
 596 0196 CA       		.byte	0xca
 597 0197 4C020000 		.4byte	0x24c
 598 019b 10       		.byte	0x10
 599 019c 07       		.uleb128 0x7
 600 019d FE020000 		.4byte	.LASF35
 601 01a1 07       		.byte	0x7
 602 01a2 CB       		.byte	0xcb
 603 01a3 4C020000 		.4byte	0x24c
 604 01a7 14       		.byte	0x14
 605 01a8 07       		.uleb128 0x7
 606 01a9 71060000 		.4byte	.LASF36
 607 01ad 07       		.byte	0x7
 608 01ae D2       		.byte	0xd2
 609 01af 9F070000 		.4byte	0x79f
 610 01b3 18       		.byte	0x18
 611 01b4 07       		.uleb128 0x7
 612 01b5 F7030000 		.4byte	.LASF37
 613 01b9 07       		.byte	0x7
 614 01ba DD       		.byte	0xdd
 615 01bb F1000000 		.4byte	0xf1
 616 01bf 1C       		.byte	0x1c
 617 01c0 07       		.uleb128 0x7
 618 01c1 EE040000 		.4byte	.LASF38
 619 01c5 07       		.byte	0x7
 620 01c6 E1       		.byte	0xe1
 621 01c7 E6000000 		.4byte	0xe6
 622 01cb 1D       		.byte	0x1d
 623 01cc 07       		.uleb128 0x7
 624 01cd 20060000 		.4byte	.LASF39
 625 01d1 07       		.byte	0x7
 626 01d2 E6       		.byte	0xe6
 627 01d3 FC000000 		.4byte	0xfc
ARM GAS  /tmp/ccjSLPR4.s 			page 12


 628 01d7 1E       		.byte	0x1e
 629 01d8 08       		.uleb128 0x8
 630 01d9 705F7500 		.ascii	"p_u\000"
 631 01dd 07       		.byte	0x7
 632 01de 3101     		.2byte	0x131
 633 01e0 DA060000 		.4byte	0x6da
 634 01e4 20       		.byte	0x20
 635 01e5 09       		.uleb128 0x9
 636 01e6 98020000 		.4byte	.LASF40
 637 01ea 07       		.byte	0x7
 638 01eb 3601     		.2byte	0x136
 639 01ed 52020000 		.4byte	0x252
 640 01f1 24       		.byte	0x24
 641 01f2 09       		.uleb128 0x9
 642 01f3 E0010000 		.4byte	.LASF41
 643 01f7 07       		.byte	0x7
 644 01f8 3C01     		.2byte	0x13c
 645 01fa 76020000 		.4byte	0x276
 646 01fe 28       		.byte	0x28
 647 01ff 09       		.uleb128 0x9
 648 0200 87060000 		.4byte	.LASF42
 649 0204 07       		.byte	0x7
 650 0205 4001     		.2byte	0x140
 651 0207 12010000 		.4byte	0x112
 652 020b 30       		.byte	0x30
 653 020c 09       		.uleb128 0x9
 654 020d 1E050000 		.4byte	.LASF43
 655 0211 07       		.byte	0x7
 656 0212 4601     		.2byte	0x146
 657 0214 1D010000 		.4byte	0x11d
 658 0218 34       		.byte	0x34
 659 0219 09       		.uleb128 0x9
 660 021a 4E020000 		.4byte	.LASF44
 661 021e 07       		.byte	0x7
 662 021f 4D01     		.2byte	0x14d
 663 0221 99070000 		.4byte	0x799
 664 0225 38       		.byte	0x38
 665 0226 09       		.uleb128 0x9
 666 0227 AC050000 		.4byte	.LASF45
 667 022b 07       		.byte	0x7
 668 022c 5101     		.2byte	0x151
 669 022e 07010000 		.4byte	0x107
 670 0232 3C       		.byte	0x3c
 671 0233 09       		.uleb128 0x9
 672 0234 FE000000 		.4byte	.LASF46
 673 0238 07       		.byte	0x7
 674 0239 5801     		.2byte	0x158
 675 023b 29030000 		.4byte	0x329
 676 023f 40       		.byte	0x40
 677 0240 00       		.byte	0
 678 0241 04       		.uleb128 0x4
 679 0242 AB020000 		.4byte	.LASF47
 680 0246 06       		.byte	0x6
 681 0247 44       		.byte	0x44
 682 0248 4C020000 		.4byte	0x24c
 683 024c 0A       		.uleb128 0xa
 684 024d 04       		.byte	0x4
ARM GAS  /tmp/ccjSLPR4.s 			page 13


 685 024e 49010000 		.4byte	0x149
 686 0252 04       		.uleb128 0x4
 687 0253 78060000 		.4byte	.LASF48
 688 0257 06       		.byte	0x6
 689 0258 49       		.byte	0x49
 690 0259 5D020000 		.4byte	0x25d
 691 025d 06       		.uleb128 0x6
 692 025e 51050000 		.4byte	.LASF50
 693 0262 04       		.byte	0x4
 694 0263 07       		.byte	0x7
 695 0264 B0       		.byte	0xb0
 696 0265 76020000 		.4byte	0x276
 697 0269 07       		.uleb128 0x7
 698 026a E7040000 		.4byte	.LASF30
 699 026e 07       		.byte	0x7
 700 026f B1       		.byte	0xb1
 701 0270 4C020000 		.4byte	0x24c
 702 0274 00       		.byte	0
 703 0275 00       		.byte	0
 704 0276 04       		.uleb128 0x4
 705 0277 07060000 		.4byte	.LASF51
 706 027b 06       		.byte	0x6
 707 027c 50       		.byte	0x50
 708 027d 81020000 		.4byte	0x281
 709 0281 06       		.uleb128 0x6
 710 0282 39000000 		.4byte	.LASF52
 711 0286 08       		.byte	0x8
 712 0287 07       		.byte	0x7
 713 0288 B7       		.byte	0xb7
 714 0289 A6020000 		.4byte	0x2a6
 715 028d 07       		.uleb128 0x7
 716 028e E7040000 		.4byte	.LASF30
 717 0292 07       		.byte	0x7
 718 0293 B8       		.byte	0xb8
 719 0294 4C020000 		.4byte	0x24c
 720 0298 00       		.byte	0
 721 0299 07       		.uleb128 0x7
 722 029a 82030000 		.4byte	.LASF31
 723 029e 07       		.byte	0x7
 724 029f B9       		.byte	0xb9
 725 02a0 4C020000 		.4byte	0x24c
 726 02a4 04       		.byte	0x4
 727 02a5 00       		.byte	0
 728 02a6 04       		.uleb128 0x4
 729 02a7 00000000 		.4byte	.LASF53
 730 02ab 06       		.byte	0x6
 731 02ac 57       		.byte	0x57
 732 02ad B1020000 		.4byte	0x2b1
 733 02b1 0B       		.uleb128 0xb
 734 02b2 EB010000 		.4byte	.LASF54
 735 02b6 1C       		.byte	0x1c
 736 02b7 07       		.byte	0x7
 737 02b8 9001     		.2byte	0x190
 738 02ba 0D030000 		.4byte	0x30d
 739 02be 09       		.uleb128 0x9
 740 02bf 40050000 		.4byte	.LASF55
 741 02c3 07       		.byte	0x7
ARM GAS  /tmp/ccjSLPR4.s 			page 14


 742 02c4 9101     		.2byte	0x191
 743 02c6 76020000 		.4byte	0x276
 744 02ca 00       		.byte	0
 745 02cb 09       		.uleb128 0x9
 746 02cc FF030000 		.4byte	.LASF56
 747 02d0 07       		.byte	0x7
 748 02d1 9201     		.2byte	0x192
 749 02d3 07010000 		.4byte	0x107
 750 02d7 08       		.byte	0x8
 751 02d8 09       		.uleb128 0x9
 752 02d9 06030000 		.4byte	.LASF57
 753 02dd 07       		.byte	0x7
 754 02de 9401     		.2byte	0x194
 755 02e0 D2050000 		.4byte	0x5d2
 756 02e4 0C       		.byte	0xc
 757 02e5 09       		.uleb128 0x9
 758 02e6 72010000 		.4byte	.LASF58
 759 02ea 07       		.byte	0x7
 760 02eb 9701     		.2byte	0x197
 761 02ed 4C020000 		.4byte	0x24c
 762 02f1 10       		.byte	0x10
 763 02f2 09       		.uleb128 0x9
 764 02f3 2E030000 		.4byte	.LASF59
 765 02f7 07       		.byte	0x7
 766 02f8 9801     		.2byte	0x198
 767 02fa 4C020000 		.4byte	0x24c
 768 02fe 14       		.byte	0x14
 769 02ff 09       		.uleb128 0x9
 770 0300 24030000 		.4byte	.LASF60
 771 0304 07       		.byte	0x7
 772 0305 9B01     		.2byte	0x19b
 773 0307 4C020000 		.4byte	0x24c
 774 030b 18       		.byte	0x18
 775 030c 00       		.byte	0
 776 030d 04       		.uleb128 0x4
 777 030e B7050000 		.4byte	.LASF61
 778 0312 06       		.byte	0x6
 779 0313 5C       		.byte	0x5c
 780 0314 18030000 		.4byte	0x318
 781 0318 0A       		.uleb128 0xa
 782 0319 04       		.byte	0x4
 783 031a 1E030000 		.4byte	0x31e
 784 031e 0C       		.uleb128 0xc
 785 031f 29030000 		.4byte	0x329
 786 0323 0D       		.uleb128 0xd
 787 0324 29030000 		.4byte	0x329
 788 0328 00       		.byte	0
 789 0329 0E       		.uleb128 0xe
 790 032a 04       		.byte	0x4
 791 032b 04       		.uleb128 0x4
 792 032c 72030000 		.4byte	.LASF62
 793 0330 06       		.byte	0x6
 794 0331 61       		.byte	0x61
 795 0332 36030000 		.4byte	0x336
 796 0336 0B       		.uleb128 0xb
 797 0337 00050000 		.4byte	.LASF63
 798 033b 14       		.byte	0x14
ARM GAS  /tmp/ccjSLPR4.s 			page 15


 799 033c 07       		.byte	0x7
 800 033d 6B01     		.2byte	0x16b
 801 033f 85030000 		.4byte	0x385
 802 0343 09       		.uleb128 0x9
 803 0344 C5010000 		.4byte	.LASF64
 804 0348 07       		.byte	0x7
 805 0349 6C01     		.2byte	0x16c
 806 034b B1070000 		.4byte	0x7b1
 807 034f 00       		.byte	0
 808 0350 09       		.uleb128 0x9
 809 0351 83010000 		.4byte	.LASF65
 810 0355 07       		.byte	0x7
 811 0356 6D01     		.2byte	0x16d
 812 0358 B1070000 		.4byte	0x7b1
 813 035c 04       		.byte	0x4
 814 035d 09       		.uleb128 0x9
 815 035e 48050000 		.4byte	.LASF66
 816 0362 07       		.byte	0x7
 817 0363 6E01     		.2byte	0x16e
 818 0365 3E010000 		.4byte	0x13e
 819 0369 08       		.byte	0x8
 820 036a 09       		.uleb128 0x9
 821 036b 95060000 		.4byte	.LASF67
 822 036f 07       		.byte	0x7
 823 0370 6F01     		.2byte	0x16f
 824 0372 0D030000 		.4byte	0x30d
 825 0376 0C       		.byte	0xc
 826 0377 09       		.uleb128 0x9
 827 0378 FA050000 		.4byte	.LASF68
 828 037c 07       		.byte	0x7
 829 037d 7101     		.2byte	0x171
 830 037f 29030000 		.4byte	0x329
 831 0383 10       		.byte	0x10
 832 0384 00       		.byte	0
 833 0385 04       		.uleb128 0x4
 834 0386 A5000000 		.4byte	.LASF69
 835 038a 06       		.byte	0x6
 836 038b 66       		.byte	0x66
 837 038c 90030000 		.4byte	0x390
 838 0390 0B       		.uleb128 0xb
 839 0391 BE020000 		.4byte	.LASF70
 840 0395 10       		.byte	0x10
 841 0396 07       		.byte	0x7
 842 0397 7B01     		.2byte	0x17b
 843 0399 D2030000 		.4byte	0x3d2
 844 039d 09       		.uleb128 0x9
 845 039e C5010000 		.4byte	.LASF64
 846 03a2 07       		.byte	0x7
 847 03a3 7C01     		.2byte	0x17c
 848 03a5 B1070000 		.4byte	0x7b1
 849 03a9 00       		.byte	0
 850 03aa 09       		.uleb128 0x9
 851 03ab 83010000 		.4byte	.LASF65
 852 03af 07       		.byte	0x7
 853 03b0 7E01     		.2byte	0x17e
 854 03b2 B1070000 		.4byte	0x7b1
 855 03b6 04       		.byte	0x4
ARM GAS  /tmp/ccjSLPR4.s 			page 16


 856 03b7 09       		.uleb128 0x9
 857 03b8 48050000 		.4byte	.LASF66
 858 03bc 07       		.byte	0x7
 859 03bd 8001     		.2byte	0x180
 860 03bf 3E010000 		.4byte	0x13e
 861 03c3 08       		.byte	0x8
 862 03c4 09       		.uleb128 0x9
 863 03c5 F2020000 		.4byte	.LASF71
 864 03c9 07       		.byte	0x7
 865 03ca 8801     		.2byte	0x188
 866 03cc 3E010000 		.4byte	0x13e
 867 03d0 0C       		.byte	0xc
 868 03d1 00       		.byte	0
 869 03d2 04       		.uleb128 0x4
 870 03d3 4A000000 		.4byte	.LASF72
 871 03d7 06       		.byte	0x6
 872 03d8 6B       		.byte	0x6b
 873 03d9 DD030000 		.4byte	0x3dd
 874 03dd 0B       		.uleb128 0xb
 875 03de 8B010000 		.4byte	.LASF73
 876 03e2 04       		.byte	0x4
 877 03e3 07       		.byte	0x7
 878 03e4 A201     		.2byte	0x1a2
 879 03e6 F8030000 		.4byte	0x3f8
 880 03ea 09       		.uleb128 0x9
 881 03eb CB050000 		.4byte	.LASF74
 882 03ef 07       		.byte	0x7
 883 03f0 AA01     		.2byte	0x1aa
 884 03f2 B7070000 		.4byte	0x7b7
 885 03f6 00       		.byte	0
 886 03f7 00       		.byte	0
 887 03f8 04       		.uleb128 0x4
 888 03f9 3A020000 		.4byte	.LASF75
 889 03fd 06       		.byte	0x6
 890 03fe 70       		.byte	0x70
 891 03ff 03040000 		.4byte	0x403
 892 0403 0F       		.uleb128 0xf
 893 0404 F6040000 		.4byte	.LASF76
 894 0408 5001     		.2byte	0x150
 895 040a 07       		.byte	0x7
 896 040b C201     		.2byte	0x1c2
 897 040d 5F040000 		.4byte	0x45f
 898 0411 09       		.uleb128 0x9
 899 0412 54060000 		.4byte	.LASF77
 900 0416 07       		.byte	0x7
 901 0417 C601     		.2byte	0x1c6
 902 0419 A6020000 		.4byte	0x2a6
 903 041d 00       		.byte	0
 904 041e 09       		.uleb128 0x9
 905 041f 15010000 		.4byte	.LASF78
 906 0423 07       		.byte	0x7
 907 0424 CA01     		.2byte	0x1ca
 908 0426 85030000 		.4byte	0x385
 909 042a 1C       		.byte	0x1c
 910 042b 08       		.uleb128 0x8
 911 042c 64626700 		.ascii	"dbg\000"
 912 0430 07       		.byte	0x7
ARM GAS  /tmp/ccjSLPR4.s 			page 17


 913 0431 CE01     		.2byte	0x1ce
 914 0433 D2030000 		.4byte	0x3d2
 915 0437 2C       		.byte	0x2c
 916 0438 09       		.uleb128 0x9
 917 0439 92000000 		.4byte	.LASF79
 918 043d 07       		.byte	0x7
 919 043e D201     		.2byte	0x1d2
 920 0440 49010000 		.4byte	0x149
 921 0444 30       		.byte	0x30
 922 0445 08       		.uleb128 0x8
 923 0446 746D00   		.ascii	"tm\000"
 924 0449 07       		.byte	0x7
 925 044a D701     		.2byte	0x1d7
 926 044c 81060000 		.4byte	0x681
 927 0450 74       		.byte	0x74
 928 0451 09       		.uleb128 0x9
 929 0452 A3010000 		.4byte	.LASF80
 930 0456 07       		.byte	0x7
 931 0457 E301     		.2byte	0x1e3
 932 0459 BC070000 		.4byte	0x7bc
 933 045d 78       		.byte	0x78
 934 045e 00       		.byte	0
 935 045f 03       		.uleb128 0x3
 936 0460 04       		.byte	0x4
 937 0461 07       		.byte	0x7
 938 0462 A2020000 		.4byte	.LASF81
 939 0466 10       		.uleb128 0x10
 940 0467 CB000000 		.4byte	0xcb
 941 046b 11       		.uleb128 0x11
 942 046c B0000000 		.4byte	0xb0
 943 0470 7B040000 		.4byte	0x47b
 944 0474 12       		.uleb128 0x12
 945 0475 5F040000 		.4byte	0x45f
 946 0479 00       		.byte	0
 947 047a 00       		.byte	0
 948 047b 13       		.uleb128 0x13
 949 047c 5C       		.byte	0x5c
 950 047d 08       		.byte	0x8
 951 047e 0603     		.2byte	0x306
 952 0480 B0050000 		.4byte	0x5b0
 953 0484 09       		.uleb128 0x9
 954 0485 F5050000 		.4byte	.LASF82
 955 0489 08       		.byte	0x8
 956 048a 0803     		.2byte	0x308
 957 048c CB000000 		.4byte	0xcb
 958 0490 00       		.byte	0
 959 0491 09       		.uleb128 0x9
 960 0492 91020000 		.4byte	.LASF83
 961 0496 08       		.byte	0x8
 962 0497 0903     		.2byte	0x309
 963 0499 CB000000 		.4byte	0xcb
 964 049d 04       		.byte	0x4
 965 049e 09       		.uleb128 0x9
 966 049f 06010000 		.4byte	.LASF84
 967 04a3 08       		.byte	0x8
 968 04a4 0A03     		.2byte	0x30a
 969 04a6 CB000000 		.4byte	0xcb
ARM GAS  /tmp/ccjSLPR4.s 			page 18


 970 04aa 08       		.byte	0x8
 971 04ab 09       		.uleb128 0x9
 972 04ac 21020000 		.4byte	.LASF85
 973 04b0 08       		.byte	0x8
 974 04b1 0B03     		.2byte	0x30b
 975 04b3 CB000000 		.4byte	0xcb
 976 04b7 0C       		.byte	0xc
 977 04b8 09       		.uleb128 0x9
 978 04b9 59010000 		.4byte	.LASF86
 979 04bd 08       		.byte	0x8
 980 04be 0C03     		.2byte	0x30c
 981 04c0 CB000000 		.4byte	0xcb
 982 04c4 10       		.byte	0x10
 983 04c5 09       		.uleb128 0x9
 984 04c6 29050000 		.4byte	.LASF87
 985 04ca 08       		.byte	0x8
 986 04cb 0D03     		.2byte	0x30d
 987 04cd CB000000 		.4byte	0xcb
 988 04d1 14       		.byte	0x14
 989 04d2 09       		.uleb128 0x9
 990 04d3 62060000 		.4byte	.LASF88
 991 04d7 08       		.byte	0x8
 992 04d8 0E03     		.2byte	0x30e
 993 04da CB000000 		.4byte	0xcb
 994 04de 18       		.byte	0x18
 995 04df 09       		.uleb128 0x9
 996 04e0 91030000 		.4byte	.LASF89
 997 04e4 08       		.byte	0x8
 998 04e5 0F03     		.2byte	0x30f
 999 04e7 66040000 		.4byte	0x466
 1000 04eb 1C       		.byte	0x1c
 1001 04ec 09       		.uleb128 0x9
 1002 04ed 01060000 		.4byte	.LASF90
 1003 04f1 08       		.byte	0x8
 1004 04f2 1003     		.2byte	0x310
 1005 04f4 CB000000 		.4byte	0xcb
 1006 04f8 20       		.byte	0x20
 1007 04f9 09       		.uleb128 0x9
 1008 04fa 96030000 		.4byte	.LASF91
 1009 04fe 08       		.byte	0x8
 1010 04ff 1103     		.2byte	0x311
 1011 0501 CB000000 		.4byte	0xcb
 1012 0505 24       		.byte	0x24
 1013 0506 09       		.uleb128 0x9
 1014 0507 C5030000 		.4byte	.LASF92
 1015 050b 08       		.byte	0x8
 1016 050c 1203     		.2byte	0x312
 1017 050e CB000000 		.4byte	0xcb
 1018 0512 28       		.byte	0x28
 1019 0513 09       		.uleb128 0x9
 1020 0514 54030000 		.4byte	.LASF93
 1021 0518 08       		.byte	0x8
 1022 0519 1303     		.2byte	0x313
 1023 051b 6B040000 		.4byte	0x46b
 1024 051f 2C       		.byte	0x2c
 1025 0520 09       		.uleb128 0x9
 1026 0521 12030000 		.4byte	.LASF94
ARM GAS  /tmp/ccjSLPR4.s 			page 19


 1027 0525 08       		.byte	0x8
 1028 0526 1403     		.2byte	0x314
 1029 0528 CB000000 		.4byte	0xcb
 1030 052c 30       		.byte	0x30
 1031 052d 09       		.uleb128 0x9
 1032 052e 9C030000 		.4byte	.LASF95
 1033 0532 08       		.byte	0x8
 1034 0533 1503     		.2byte	0x315
 1035 0535 CB000000 		.4byte	0xcb
 1036 0539 34       		.byte	0x34
 1037 053a 09       		.uleb128 0x9
 1038 053b CF030000 		.4byte	.LASF96
 1039 053f 08       		.byte	0x8
 1040 0540 1603     		.2byte	0x316
 1041 0542 CB000000 		.4byte	0xcb
 1042 0546 38       		.byte	0x38
 1043 0547 09       		.uleb128 0x9
 1044 0548 5E030000 		.4byte	.LASF97
 1045 054c 08       		.byte	0x8
 1046 054d 1703     		.2byte	0x317
 1047 054f 6B040000 		.4byte	0x46b
 1048 0553 3C       		.byte	0x3c
 1049 0554 09       		.uleb128 0x9
 1050 0555 18030000 		.4byte	.LASF98
 1051 0559 08       		.byte	0x8
 1052 055a 1803     		.2byte	0x318
 1053 055c CB000000 		.4byte	0xcb
 1054 0560 40       		.byte	0x40
 1055 0561 09       		.uleb128 0x9
 1056 0562 CD010000 		.4byte	.LASF99
 1057 0566 08       		.byte	0x8
 1058 0567 1903     		.2byte	0x319
 1059 0569 CB000000 		.4byte	0xcb
 1060 056d 44       		.byte	0x44
 1061 056e 09       		.uleb128 0x9
 1062 056f D9030000 		.4byte	.LASF100
 1063 0573 08       		.byte	0x8
 1064 0574 1A03     		.2byte	0x31a
 1065 0576 CB000000 		.4byte	0xcb
 1066 057a 48       		.byte	0x48
 1067 057b 09       		.uleb128 0x9
 1068 057c 68030000 		.4byte	.LASF101
 1069 0580 08       		.byte	0x8
 1070 0581 1B03     		.2byte	0x31b
 1071 0583 6B040000 		.4byte	0x46b
 1072 0587 4C       		.byte	0x4c
 1073 0588 09       		.uleb128 0x9
 1074 0589 1E030000 		.4byte	.LASF102
 1075 058d 08       		.byte	0x8
 1076 058e 1C03     		.2byte	0x31c
 1077 0590 CB000000 		.4byte	0xcb
 1078 0594 50       		.byte	0x50
 1079 0595 09       		.uleb128 0x9
 1080 0596 D3010000 		.4byte	.LASF103
 1081 059a 08       		.byte	0x8
 1082 059b 1D03     		.2byte	0x31d
 1083 059d CB000000 		.4byte	0xcb
ARM GAS  /tmp/ccjSLPR4.s 			page 20


 1084 05a1 54       		.byte	0x54
 1085 05a2 09       		.uleb128 0x9
 1086 05a3 E3030000 		.4byte	.LASF104
 1087 05a7 08       		.byte	0x8
 1088 05a8 1E03     		.2byte	0x31e
 1089 05aa CB000000 		.4byte	0xcb
 1090 05ae 58       		.byte	0x58
 1091 05af 00       		.byte	0
 1092 05b0 14       		.uleb128 0x14
 1093 05b1 E4050000 		.4byte	.LASF105
 1094 05b5 08       		.byte	0x8
 1095 05b6 1F03     		.2byte	0x31f
 1096 05b8 7B040000 		.4byte	0x47b
 1097 05bc 04       		.uleb128 0x4
 1098 05bd 7A010000 		.4byte	.LASF106
 1099 05c1 09       		.byte	0x9
 1100 05c2 65       		.byte	0x65
 1101 05c3 29030000 		.4byte	0x329
 1102 05c7 04       		.uleb128 0x4
 1103 05c8 86020000 		.4byte	.LASF107
 1104 05cc 09       		.byte	0x9
 1105 05cd 6D       		.byte	0x6d
 1106 05ce BB000000 		.4byte	0xbb
 1107 05d2 06       		.uleb128 0x6
 1108 05d3 DC050000 		.4byte	.LASF108
 1109 05d7 04       		.byte	0x4
 1110 05d8 09       		.byte	0x9
 1111 05d9 89       		.byte	0x89
 1112 05da EB050000 		.4byte	0x5eb
 1113 05de 15       		.uleb128 0x15
 1114 05df 72313300 		.ascii	"r13\000"
 1115 05e3 09       		.byte	0x9
 1116 05e4 8A       		.byte	0x8a
 1117 05e5 66060000 		.4byte	0x666
 1118 05e9 00       		.byte	0
 1119 05ea 00       		.byte	0
 1120 05eb 06       		.uleb128 0x6
 1121 05ec 2D000000 		.4byte	.LASF109
 1122 05f0 24       		.byte	0x24
 1123 05f1 02       		.byte	0x2
 1124 05f2 F4       		.byte	0xf4
 1125 05f3 66060000 		.4byte	0x666
 1126 05f7 08       		.uleb128 0x8
 1127 05f8 723400   		.ascii	"r4\000"
 1128 05fb 02       		.byte	0x2
 1129 05fc 0701     		.2byte	0x107
 1130 05fe BC050000 		.4byte	0x5bc
 1131 0602 00       		.byte	0
 1132 0603 08       		.uleb128 0x8
 1133 0604 723500   		.ascii	"r5\000"
 1134 0607 02       		.byte	0x2
 1135 0608 0801     		.2byte	0x108
 1136 060a BC050000 		.4byte	0x5bc
 1137 060e 04       		.byte	0x4
 1138 060f 08       		.uleb128 0x8
 1139 0610 723600   		.ascii	"r6\000"
 1140 0613 02       		.byte	0x2
ARM GAS  /tmp/ccjSLPR4.s 			page 21


 1141 0614 0901     		.2byte	0x109
 1142 0616 BC050000 		.4byte	0x5bc
 1143 061a 08       		.byte	0x8
 1144 061b 08       		.uleb128 0x8
 1145 061c 723700   		.ascii	"r7\000"
 1146 061f 02       		.byte	0x2
 1147 0620 0A01     		.2byte	0x10a
 1148 0622 BC050000 		.4byte	0x5bc
 1149 0626 0C       		.byte	0xc
 1150 0627 08       		.uleb128 0x8
 1151 0628 723800   		.ascii	"r8\000"
 1152 062b 02       		.byte	0x2
 1153 062c 0B01     		.2byte	0x10b
 1154 062e BC050000 		.4byte	0x5bc
 1155 0632 10       		.byte	0x10
 1156 0633 08       		.uleb128 0x8
 1157 0634 723900   		.ascii	"r9\000"
 1158 0637 02       		.byte	0x2
 1159 0638 0C01     		.2byte	0x10c
 1160 063a BC050000 		.4byte	0x5bc
 1161 063e 14       		.byte	0x14
 1162 063f 08       		.uleb128 0x8
 1163 0640 72313000 		.ascii	"r10\000"
 1164 0644 02       		.byte	0x2
 1165 0645 0D01     		.2byte	0x10d
 1166 0647 BC050000 		.4byte	0x5bc
 1167 064b 18       		.byte	0x18
 1168 064c 08       		.uleb128 0x8
 1169 064d 72313100 		.ascii	"r11\000"
 1170 0651 02       		.byte	0x2
 1171 0652 0E01     		.2byte	0x10e
 1172 0654 BC050000 		.4byte	0x5bc
 1173 0658 1C       		.byte	0x1c
 1174 0659 08       		.uleb128 0x8
 1175 065a 6C7200   		.ascii	"lr\000"
 1176 065d 02       		.byte	0x2
 1177 065e 0F01     		.2byte	0x10f
 1178 0660 BC050000 		.4byte	0x5bc
 1179 0664 20       		.byte	0x20
 1180 0665 00       		.byte	0
 1181 0666 0A       		.uleb128 0xa
 1182 0667 04       		.byte	0x4
 1183 0668 EB050000 		.4byte	0x5eb
 1184 066c 16       		.uleb128 0x16
 1185 066d 04       		.byte	0x4
 1186 066e 0A       		.byte	0xa
 1187 066f 38       		.byte	0x38
 1188 0670 81060000 		.4byte	0x681
 1189 0674 07       		.uleb128 0x7
 1190 0675 D5050000 		.4byte	.LASF110
 1191 0679 0A       		.byte	0xa
 1192 067a 3C       		.byte	0x3c
 1193 067b D0000000 		.4byte	0xd0
 1194 067f 00       		.byte	0
 1195 0680 00       		.byte	0
 1196 0681 04       		.uleb128 0x4
 1197 0682 E1020000 		.4byte	.LASF111
ARM GAS  /tmp/ccjSLPR4.s 			page 22


 1198 0686 0A       		.byte	0xa
 1199 0687 3D       		.byte	0x3d
 1200 0688 6C060000 		.4byte	0x66c
 1201 068c 16       		.uleb128 0x16
 1202 068d 18       		.byte	0x18
 1203 068e 0A       		.byte	0xa
 1204 068f 48       		.byte	0x48
 1205 0690 CF060000 		.4byte	0x6cf
 1206 0694 07       		.uleb128 0x7
 1207 0695 FF010000 		.4byte	.LASF112
 1208 0699 0A       		.byte	0xa
 1209 069a 49       		.byte	0x49
 1210 069b D0000000 		.4byte	0xd0
 1211 069f 00       		.byte	0
 1212 06a0 07       		.uleb128 0x7
 1213 06a1 59000000 		.4byte	.LASF113
 1214 06a5 0A       		.byte	0xa
 1215 06a6 4A       		.byte	0x4a
 1216 06a7 D0000000 		.4byte	0xd0
 1217 06ab 04       		.byte	0x4
 1218 06ac 07       		.uleb128 0x7
 1219 06ad 2E020000 		.4byte	.LASF114
 1220 06b1 0A       		.byte	0xa
 1221 06b2 4B       		.byte	0x4b
 1222 06b3 D0000000 		.4byte	0xd0
 1223 06b7 08       		.byte	0x8
 1224 06b8 15       		.uleb128 0x15
 1225 06b9 6E00     		.ascii	"n\000"
 1226 06bb 0A       		.byte	0xa
 1227 06bc 4C       		.byte	0x4c
 1228 06bd 33010000 		.4byte	0x133
 1229 06c1 0C       		.byte	0xc
 1230 06c2 07       		.uleb128 0x7
 1231 06c3 41030000 		.4byte	.LASF115
 1232 06c7 0A       		.byte	0xa
 1233 06c8 4D       		.byte	0x4d
 1234 06c9 DB000000 		.4byte	0xdb
 1235 06cd 10       		.byte	0x10
 1236 06ce 00       		.byte	0
 1237 06cf 04       		.uleb128 0x4
 1238 06d0 5F000000 		.4byte	.LASF116
 1239 06d4 0A       		.byte	0xa
 1240 06d5 4E       		.byte	0x4e
 1241 06d6 8C060000 		.4byte	0x68c
 1242 06da 17       		.uleb128 0x17
 1243 06db 04       		.byte	0x4
 1244 06dc 07       		.byte	0x7
 1245 06dd FA       		.byte	0xfa
 1246 06de 37070000 		.4byte	0x737
 1247 06e2 18       		.uleb128 0x18
 1248 06e3 13000000 		.4byte	.LASF117
 1249 06e7 07       		.byte	0x7
 1250 06e8 0101     		.2byte	0x101
 1251 06ea 12010000 		.4byte	0x112
 1252 06ee 18       		.uleb128 0x18
 1253 06ef 89000000 		.4byte	.LASF118
 1254 06f3 07       		.byte	0x7
ARM GAS  /tmp/ccjSLPR4.s 			page 23


 1255 06f4 0801     		.2byte	0x108
 1256 06f6 12010000 		.4byte	0x112
 1257 06fa 18       		.uleb128 0x18
 1258 06fb 6A060000 		.4byte	.LASF119
 1259 06ff 07       		.byte	0x7
 1260 0700 0F01     		.2byte	0x10f
 1261 0702 29030000 		.4byte	0x329
 1262 0706 18       		.uleb128 0x18
 1263 0707 0D000000 		.4byte	.LASF120
 1264 070b 07       		.byte	0x7
 1265 070c 1601     		.2byte	0x116
 1266 070e 37070000 		.4byte	0x737
 1267 0712 18       		.uleb128 0x18
 1268 0713 D9010000 		.4byte	.LASF121
 1269 0717 07       		.byte	0x7
 1270 0718 1E01     		.2byte	0x11e
 1271 071a 62070000 		.4byte	0x762
 1272 071e 18       		.uleb128 0x18
 1273 071f 39050000 		.4byte	.LASF122
 1274 0723 07       		.byte	0x7
 1275 0724 2701     		.2byte	0x127
 1276 0726 99070000 		.4byte	0x799
 1277 072a 18       		.uleb128 0x18
 1278 072b E0040000 		.4byte	.LASF123
 1279 072f 07       		.byte	0x7
 1280 0730 2F01     		.2byte	0x12f
 1281 0732 1D010000 		.4byte	0x11d
 1282 0736 00       		.byte	0
 1283 0737 0A       		.uleb128 0xa
 1284 0738 04       		.byte	0x4
 1285 0739 41020000 		.4byte	0x241
 1286 073d 06       		.uleb128 0x6
 1287 073e 11050000 		.4byte	.LASF124
 1288 0742 0C       		.byte	0xc
 1289 0743 0B       		.byte	0xb
 1290 0744 34       		.byte	0x34
 1291 0745 62070000 		.4byte	0x762
 1292 0749 07       		.uleb128 0x7
 1293 074a 6A010000 		.4byte	.LASF125
 1294 074e 0B       		.byte	0xb
 1295 074f 35       		.byte	0x35
 1296 0750 76020000 		.4byte	0x276
 1297 0754 00       		.byte	0
 1298 0755 07       		.uleb128 0x7
 1299 0756 F9010000 		.4byte	.LASF126
 1300 075a 0B       		.byte	0xb
 1301 075b 37       		.byte	0x37
 1302 075c 28010000 		.4byte	0x128
 1303 0760 08       		.byte	0x8
 1304 0761 00       		.byte	0
 1305 0762 0A       		.uleb128 0xa
 1306 0763 04       		.byte	0x4
 1307 0764 3D070000 		.4byte	0x73d
 1308 0768 06       		.uleb128 0x6
 1309 0769 17060000 		.4byte	.LASF127
 1310 076d 10       		.byte	0x10
 1311 076e 0C       		.byte	0xc
ARM GAS  /tmp/ccjSLPR4.s 			page 24


 1312 076f 39       		.byte	0x39
 1313 0770 99070000 		.4byte	0x799
 1314 0774 07       		.uleb128 0x7
 1315 0775 0D010000 		.4byte	.LASF128
 1316 0779 0C       		.byte	0xc
 1317 077a 3A       		.byte	0x3a
 1318 077b 76020000 		.4byte	0x276
 1319 077f 00       		.byte	0
 1320 0780 07       		.uleb128 0x7
 1321 0781 8D060000 		.4byte	.LASF129
 1322 0785 0C       		.byte	0xc
 1323 0786 3C       		.byte	0x3c
 1324 0787 4C020000 		.4byte	0x24c
 1325 078b 08       		.byte	0x8
 1326 078c 07       		.uleb128 0x7
 1327 078d 9B050000 		.4byte	.LASF130
 1328 0791 0C       		.byte	0xc
 1329 0792 3E       		.byte	0x3e
 1330 0793 D7070000 		.4byte	0x7d7
 1331 0797 0C       		.byte	0xc
 1332 0798 00       		.byte	0
 1333 0799 0A       		.uleb128 0xa
 1334 079a 04       		.byte	0x4
 1335 079b 68070000 		.4byte	0x768
 1336 079f 0A       		.uleb128 0xa
 1337 07a0 04       		.byte	0x4
 1338 07a1 AC070000 		.4byte	0x7ac
 1339 07a5 03       		.uleb128 0x3
 1340 07a6 01       		.byte	0x1
 1341 07a7 08       		.byte	0x8
 1342 07a8 73050000 		.4byte	.LASF131
 1343 07ac 10       		.uleb128 0x10
 1344 07ad A5070000 		.4byte	0x7a5
 1345 07b1 0A       		.uleb128 0xa
 1346 07b2 04       		.byte	0x4
 1347 07b3 2B030000 		.4byte	0x32b
 1348 07b7 05       		.uleb128 0x5
 1349 07b8 9F070000 		.4byte	0x79f
 1350 07bc 11       		.uleb128 0x11
 1351 07bd C7050000 		.4byte	0x5c7
 1352 07c1 CC070000 		.4byte	0x7cc
 1353 07c5 12       		.uleb128 0x12
 1354 07c6 5F040000 		.4byte	0x45f
 1355 07ca 1A       		.byte	0x1a
 1356 07cb 00       		.byte	0
 1357 07cc 04       		.uleb128 0x4
 1358 07cd 9B010000 		.4byte	.LASF132
 1359 07d1 0C       		.byte	0xc
 1360 07d2 34       		.byte	0x34
 1361 07d3 68070000 		.4byte	0x768
 1362 07d7 0A       		.uleb128 0xa
 1363 07d8 04       		.byte	0x4
 1364 07d9 CC070000 		.4byte	0x7cc
 1365 07dd 19       		.uleb128 0x19
 1366 07de 81050000 		.4byte	.LASF142
 1367 07e2 02       		.byte	0x2
 1368 07e3 2202     		.2byte	0x222
ARM GAS  /tmp/ccjSLPR4.s 			page 25


 1369 07e5 D0000000 		.4byte	0xd0
 1370 07e9 03       		.byte	0x3
 1371 07ea 1A       		.uleb128 0x1a
 1372 07eb 9D000000 		.4byte	.LASF143
 1373 07ef 01       		.byte	0x1
 1374 07f0 35       		.byte	0x35
 1375 07f1 03       		.byte	0x3
 1376 07f2 18080000 		.4byte	0x818
 1377 07f6 1B       		.uleb128 0x1b
 1378 07f7 746D7000 		.ascii	"tmp\000"
 1379 07fb 01       		.byte	0x1
 1380 07fc 35       		.byte	0x35
 1381 07fd 18080000 		.4byte	0x818
 1382 0801 1B       		.uleb128 0x1b
 1383 0802 6E6F7700 		.ascii	"now\000"
 1384 0806 01       		.byte	0x1
 1385 0807 36       		.byte	0x36
 1386 0808 D0000000 		.4byte	0xd0
 1387 080c 1C       		.uleb128 0x1c
 1388 080d D5050000 		.4byte	.LASF110
 1389 0811 01       		.byte	0x1
 1390 0812 37       		.byte	0x37
 1391 0813 D0000000 		.4byte	0xd0
 1392 0817 00       		.byte	0
 1393 0818 0A       		.uleb128 0xa
 1394 0819 04       		.byte	0x4
 1395 081a CF060000 		.4byte	0x6cf
 1396 081e 1D       		.uleb128 0x1d
 1397 081f BB000000 		.4byte	.LASF144
 1398 0823 01       		.byte	0x1
 1399 0824 63       		.byte	0x63
 1400 0825 01       		.byte	0x1
 1401 0826 36080000 		.4byte	0x836
 1402 082a 1B       		.uleb128 0x1b
 1403 082b 746D7000 		.ascii	"tmp\000"
 1404 082f 01       		.byte	0x1
 1405 0830 63       		.byte	0x63
 1406 0831 18080000 		.4byte	0x818
 1407 0835 00       		.byte	0
 1408 0836 1E       		.uleb128 0x1e
 1409 0837 1E080000 		.4byte	0x81e
 1410 083b 00000000 		.4byte	.LFB229
 1411 083f 18000000 		.4byte	.LFE229-.LFB229
 1412 0843 01       		.uleb128 0x1
 1413 0844 9C       		.byte	0x9c
 1414 0845 51080000 		.4byte	0x851
 1415 0849 1F       		.uleb128 0x1f
 1416 084a 2A080000 		.4byte	0x82a
 1417 084e 01       		.uleb128 0x1
 1418 084f 50       		.byte	0x50
 1419 0850 00       		.byte	0
 1420 0851 20       		.uleb128 0x20
 1421 0852 1C010000 		.4byte	.LASF133
 1422 0856 01       		.byte	0x1
 1423 0857 74       		.byte	0x74
 1424 0858 00000000 		.4byte	.LFB230
 1425 085c 0C000000 		.4byte	.LFE230-.LFB230
ARM GAS  /tmp/ccjSLPR4.s 			page 26


 1426 0860 01       		.uleb128 0x1
 1427 0861 9C       		.byte	0x9c
 1428 0862 83080000 		.4byte	0x883
 1429 0866 21       		.uleb128 0x21
 1430 0867 746D7000 		.ascii	"tmp\000"
 1431 086b 01       		.byte	0x1
 1432 086c 74       		.byte	0x74
 1433 086d 18080000 		.4byte	0x818
 1434 0871 01       		.uleb128 0x1
 1435 0872 50       		.byte	0x50
 1436 0873 22       		.uleb128 0x22
 1437 0874 DD070000 		.4byte	0x7dd
 1438 0878 00000000 		.4byte	.LBB14
 1439 087c 04000000 		.4byte	.LBE14-.LBB14
 1440 0880 01       		.byte	0x1
 1441 0881 76       		.byte	0x76
 1442 0882 00       		.byte	0
 1443 0883 20       		.uleb128 0x20
 1444 0884 32010000 		.4byte	.LASF134
 1445 0888 01       		.byte	0x1
 1446 0889 81       		.byte	0x81
 1447 088a 00000000 		.4byte	.LFB231
 1448 088e 48000000 		.4byte	.LFE231-.LFB231
 1449 0892 01       		.uleb128 0x1
 1450 0893 9C       		.byte	0x9c
 1451 0894 DC080000 		.4byte	0x8dc
 1452 0898 21       		.uleb128 0x21
 1453 0899 746D7000 		.ascii	"tmp\000"
 1454 089d 01       		.byte	0x1
 1455 089e 81       		.byte	0x81
 1456 089f 18080000 		.4byte	0x818
 1457 08a3 01       		.uleb128 0x1
 1458 08a4 50       		.byte	0x50
 1459 08a5 23       		.uleb128 0x23
 1460 08a6 DD070000 		.4byte	0x7dd
 1461 08aa 00000000 		.4byte	.LBB16
 1462 08ae 00000000 		.4byte	.Ldebug_ranges0+0
 1463 08b2 01       		.byte	0x1
 1464 08b3 83       		.byte	0x83
 1465 08b4 24       		.uleb128 0x24
 1466 08b5 EA070000 		.4byte	0x7ea
 1467 08b9 06000000 		.4byte	.LBB20
 1468 08bd 18000000 		.4byte	.Ldebug_ranges0+0x18
 1469 08c1 01       		.byte	0x1
 1470 08c2 83       		.byte	0x83
 1471 08c3 25       		.uleb128 0x25
 1472 08c4 0C080000 		.4byte	0x80c
 1473 08c8 00000000 		.4byte	.LLST0
 1474 08cc 26       		.uleb128 0x26
 1475 08cd 01080000 		.4byte	0x801
 1476 08d1 25       		.uleb128 0x25
 1477 08d2 F6070000 		.4byte	0x7f6
 1478 08d6 1E000000 		.4byte	.LLST1
 1479 08da 00       		.byte	0
 1480 08db 00       		.byte	0
 1481 08dc 20       		.uleb128 0x20
 1482 08dd 9D060000 		.4byte	.LASF135
ARM GAS  /tmp/ccjSLPR4.s 			page 27


 1483 08e1 01       		.byte	0x1
 1484 08e2 4F       		.byte	0x4f
 1485 08e3 00000000 		.4byte	.LFB228
 1486 08e7 38000000 		.4byte	.LFE228-.LFB228
 1487 08eb 01       		.uleb128 0x1
 1488 08ec 9C       		.byte	0x9c
 1489 08ed 40090000 		.4byte	0x940
 1490 08f1 27       		.uleb128 0x27
 1491 08f2 746D00   		.ascii	"tm\000"
 1492 08f5 01       		.byte	0x1
 1493 08f6 50       		.byte	0x50
 1494 08f7 CF060000 		.4byte	0x6cf
 1495 08fb 02       		.uleb128 0x2
 1496 08fc 91       		.byte	0x91
 1497 08fd 58       		.sleb128 -40
 1498 08fe 28       		.uleb128 0x28
 1499 08ff 1E080000 		.4byte	0x81e
 1500 0903 08000000 		.4byte	.LBB26
 1501 0907 38000000 		.4byte	.Ldebug_ranges0+0x38
 1502 090b 01       		.byte	0x1
 1503 090c 56       		.byte	0x56
 1504 090d 1B090000 		.4byte	0x91b
 1505 0911 25       		.uleb128 0x25
 1506 0912 2A080000 		.4byte	0x82a
 1507 0916 3C000000 		.4byte	.LLST2
 1508 091a 00       		.byte	0
 1509 091b 29       		.uleb128 0x29
 1510 091c 24000000 		.4byte	.LVL9
 1511 0920 51080000 		.4byte	0x851
 1512 0924 2F090000 		.4byte	0x92f
 1513 0928 2A       		.uleb128 0x2a
 1514 0929 01       		.uleb128 0x1
 1515 092a 50       		.byte	0x50
 1516 092b 02       		.uleb128 0x2
 1517 092c 7D       		.byte	0x7d
 1518 092d 00       		.sleb128 0
 1519 092e 00       		.byte	0
 1520 092f 2B       		.uleb128 0x2b
 1521 0930 2A000000 		.4byte	.LVL10
 1522 0934 83080000 		.4byte	0x883
 1523 0938 2A       		.uleb128 0x2a
 1524 0939 01       		.uleb128 0x1
 1525 093a 50       		.byte	0x50
 1526 093b 02       		.uleb128 0x2
 1527 093c 7D       		.byte	0x7d
 1528 093d 00       		.sleb128 0
 1529 093e 00       		.byte	0
 1530 093f 00       		.byte	0
 1531 0940 20       		.uleb128 0x20
 1532 0941 6E020000 		.4byte	.LASF136
 1533 0945 01       		.byte	0x1
 1534 0946 92       		.byte	0x92
 1535 0947 00000000 		.4byte	.LFB232
 1536 094b 40000000 		.4byte	.LFE232-.LFB232
 1537 094f 01       		.uleb128 0x1
 1538 0950 9C       		.byte	0x9c
 1539 0951 AC090000 		.4byte	0x9ac
ARM GAS  /tmp/ccjSLPR4.s 			page 28


 1540 0955 2C       		.uleb128 0x2c
 1541 0956 DA000000 		.4byte	.LASF137
 1542 095a 01       		.byte	0x1
 1543 095b 92       		.byte	0x92
 1544 095c 18080000 		.4byte	0x818
 1545 0960 01       		.uleb128 0x1
 1546 0961 50       		.byte	0x50
 1547 0962 2D       		.uleb128 0x2d
 1548 0963 DF000000 		.4byte	.LASF138
 1549 0967 01       		.byte	0x1
 1550 0968 93       		.byte	0x93
 1551 0969 18080000 		.4byte	0x818
 1552 096d 4F000000 		.4byte	.LLST3
 1553 0971 23       		.uleb128 0x23
 1554 0972 DD070000 		.4byte	0x7dd
 1555 0976 00000000 		.4byte	.LBB32
 1556 097a 58000000 		.4byte	.Ldebug_ranges0+0x58
 1557 097e 01       		.byte	0x1
 1558 097f 96       		.byte	0x96
 1559 0980 24       		.uleb128 0x24
 1560 0981 EA070000 		.4byte	0x7ea
 1561 0985 02000000 		.4byte	.LBB35
 1562 0989 70000000 		.4byte	.Ldebug_ranges0+0x70
 1563 098d 01       		.byte	0x1
 1564 098e 99       		.byte	0x99
 1565 098f 25       		.uleb128 0x25
 1566 0990 0C080000 		.4byte	0x80c
 1567 0994 70000000 		.4byte	.LLST4
 1568 0998 25       		.uleb128 0x25
 1569 0999 01080000 		.4byte	0x801
 1570 099d 90000000 		.4byte	.LLST5
 1571 09a1 25       		.uleb128 0x25
 1572 09a2 F6070000 		.4byte	0x7f6
 1573 09a6 B2000000 		.4byte	.LLST6
 1574 09aa 00       		.byte	0
 1575 09ab 00       		.byte	0
 1576 09ac 2E       		.uleb128 0x2e
 1577 09ad B8030000 		.4byte	.LASF139
 1578 09b1 08       		.byte	0x8
 1579 09b2 A706     		.2byte	0x6a7
 1580 09b4 C6000000 		.4byte	0xc6
 1581 09b8 2F       		.uleb128 0x2f
 1582 09b9 636800   		.ascii	"ch\000"
 1583 09bc 07       		.byte	0x7
 1584 09bd 0902     		.2byte	0x209
 1585 09bf F8030000 		.4byte	0x3f8
 1586 09c3 00       		.byte	0
 1587              		.section	.debug_abbrev,"",%progbits
 1588              	.Ldebug_abbrev0:
 1589 0000 01       		.uleb128 0x1
 1590 0001 11       		.uleb128 0x11
 1591 0002 01       		.byte	0x1
 1592 0003 25       		.uleb128 0x25
 1593 0004 0E       		.uleb128 0xe
 1594 0005 13       		.uleb128 0x13
 1595 0006 0B       		.uleb128 0xb
 1596 0007 03       		.uleb128 0x3
ARM GAS  /tmp/ccjSLPR4.s 			page 29


 1597 0008 0E       		.uleb128 0xe
 1598 0009 55       		.uleb128 0x55
 1599 000a 17       		.uleb128 0x17
 1600 000b 11       		.uleb128 0x11
 1601 000c 01       		.uleb128 0x1
 1602 000d 10       		.uleb128 0x10
 1603 000e 17       		.uleb128 0x17
 1604 000f 00       		.byte	0
 1605 0010 00       		.byte	0
 1606 0011 02       		.uleb128 0x2
 1607 0012 24       		.uleb128 0x24
 1608 0013 00       		.byte	0
 1609 0014 0B       		.uleb128 0xb
 1610 0015 0B       		.uleb128 0xb
 1611 0016 3E       		.uleb128 0x3e
 1612 0017 0B       		.uleb128 0xb
 1613 0018 03       		.uleb128 0x3
 1614 0019 08       		.uleb128 0x8
 1615 001a 00       		.byte	0
 1616 001b 00       		.byte	0
 1617 001c 03       		.uleb128 0x3
 1618 001d 24       		.uleb128 0x24
 1619 001e 00       		.byte	0
 1620 001f 0B       		.uleb128 0xb
 1621 0020 0B       		.uleb128 0xb
 1622 0021 3E       		.uleb128 0x3e
 1623 0022 0B       		.uleb128 0xb
 1624 0023 03       		.uleb128 0x3
 1625 0024 0E       		.uleb128 0xe
 1626 0025 00       		.byte	0
 1627 0026 00       		.byte	0
 1628 0027 04       		.uleb128 0x4
 1629 0028 16       		.uleb128 0x16
 1630 0029 00       		.byte	0
 1631 002a 03       		.uleb128 0x3
 1632 002b 0E       		.uleb128 0xe
 1633 002c 3A       		.uleb128 0x3a
 1634 002d 0B       		.uleb128 0xb
 1635 002e 3B       		.uleb128 0x3b
 1636 002f 0B       		.uleb128 0xb
 1637 0030 49       		.uleb128 0x49
 1638 0031 13       		.uleb128 0x13
 1639 0032 00       		.byte	0
 1640 0033 00       		.byte	0
 1641 0034 05       		.uleb128 0x5
 1642 0035 35       		.uleb128 0x35
 1643 0036 00       		.byte	0
 1644 0037 49       		.uleb128 0x49
 1645 0038 13       		.uleb128 0x13
 1646 0039 00       		.byte	0
 1647 003a 00       		.byte	0
 1648 003b 06       		.uleb128 0x6
 1649 003c 13       		.uleb128 0x13
 1650 003d 01       		.byte	0x1
 1651 003e 03       		.uleb128 0x3
 1652 003f 0E       		.uleb128 0xe
 1653 0040 0B       		.uleb128 0xb
ARM GAS  /tmp/ccjSLPR4.s 			page 30


 1654 0041 0B       		.uleb128 0xb
 1655 0042 3A       		.uleb128 0x3a
 1656 0043 0B       		.uleb128 0xb
 1657 0044 3B       		.uleb128 0x3b
 1658 0045 0B       		.uleb128 0xb
 1659 0046 01       		.uleb128 0x1
 1660 0047 13       		.uleb128 0x13
 1661 0048 00       		.byte	0
 1662 0049 00       		.byte	0
 1663 004a 07       		.uleb128 0x7
 1664 004b 0D       		.uleb128 0xd
 1665 004c 00       		.byte	0
 1666 004d 03       		.uleb128 0x3
 1667 004e 0E       		.uleb128 0xe
 1668 004f 3A       		.uleb128 0x3a
 1669 0050 0B       		.uleb128 0xb
 1670 0051 3B       		.uleb128 0x3b
 1671 0052 0B       		.uleb128 0xb
 1672 0053 49       		.uleb128 0x49
 1673 0054 13       		.uleb128 0x13
 1674 0055 38       		.uleb128 0x38
 1675 0056 0B       		.uleb128 0xb
 1676 0057 00       		.byte	0
 1677 0058 00       		.byte	0
 1678 0059 08       		.uleb128 0x8
 1679 005a 0D       		.uleb128 0xd
 1680 005b 00       		.byte	0
 1681 005c 03       		.uleb128 0x3
 1682 005d 08       		.uleb128 0x8
 1683 005e 3A       		.uleb128 0x3a
 1684 005f 0B       		.uleb128 0xb
 1685 0060 3B       		.uleb128 0x3b
 1686 0061 05       		.uleb128 0x5
 1687 0062 49       		.uleb128 0x49
 1688 0063 13       		.uleb128 0x13
 1689 0064 38       		.uleb128 0x38
 1690 0065 0B       		.uleb128 0xb
 1691 0066 00       		.byte	0
 1692 0067 00       		.byte	0
 1693 0068 09       		.uleb128 0x9
 1694 0069 0D       		.uleb128 0xd
 1695 006a 00       		.byte	0
 1696 006b 03       		.uleb128 0x3
 1697 006c 0E       		.uleb128 0xe
 1698 006d 3A       		.uleb128 0x3a
 1699 006e 0B       		.uleb128 0xb
 1700 006f 3B       		.uleb128 0x3b
 1701 0070 05       		.uleb128 0x5
 1702 0071 49       		.uleb128 0x49
 1703 0072 13       		.uleb128 0x13
 1704 0073 38       		.uleb128 0x38
 1705 0074 0B       		.uleb128 0xb
 1706 0075 00       		.byte	0
 1707 0076 00       		.byte	0
 1708 0077 0A       		.uleb128 0xa
 1709 0078 0F       		.uleb128 0xf
 1710 0079 00       		.byte	0
ARM GAS  /tmp/ccjSLPR4.s 			page 31


 1711 007a 0B       		.uleb128 0xb
 1712 007b 0B       		.uleb128 0xb
 1713 007c 49       		.uleb128 0x49
 1714 007d 13       		.uleb128 0x13
 1715 007e 00       		.byte	0
 1716 007f 00       		.byte	0
 1717 0080 0B       		.uleb128 0xb
 1718 0081 13       		.uleb128 0x13
 1719 0082 01       		.byte	0x1
 1720 0083 03       		.uleb128 0x3
 1721 0084 0E       		.uleb128 0xe
 1722 0085 0B       		.uleb128 0xb
 1723 0086 0B       		.uleb128 0xb
 1724 0087 3A       		.uleb128 0x3a
 1725 0088 0B       		.uleb128 0xb
 1726 0089 3B       		.uleb128 0x3b
 1727 008a 05       		.uleb128 0x5
 1728 008b 01       		.uleb128 0x1
 1729 008c 13       		.uleb128 0x13
 1730 008d 00       		.byte	0
 1731 008e 00       		.byte	0
 1732 008f 0C       		.uleb128 0xc
 1733 0090 15       		.uleb128 0x15
 1734 0091 01       		.byte	0x1
 1735 0092 27       		.uleb128 0x27
 1736 0093 19       		.uleb128 0x19
 1737 0094 01       		.uleb128 0x1
 1738 0095 13       		.uleb128 0x13
 1739 0096 00       		.byte	0
 1740 0097 00       		.byte	0
 1741 0098 0D       		.uleb128 0xd
 1742 0099 05       		.uleb128 0x5
 1743 009a 00       		.byte	0
 1744 009b 49       		.uleb128 0x49
 1745 009c 13       		.uleb128 0x13
 1746 009d 00       		.byte	0
 1747 009e 00       		.byte	0
 1748 009f 0E       		.uleb128 0xe
 1749 00a0 0F       		.uleb128 0xf
 1750 00a1 00       		.byte	0
 1751 00a2 0B       		.uleb128 0xb
 1752 00a3 0B       		.uleb128 0xb
 1753 00a4 00       		.byte	0
 1754 00a5 00       		.byte	0
 1755 00a6 0F       		.uleb128 0xf
 1756 00a7 13       		.uleb128 0x13
 1757 00a8 01       		.byte	0x1
 1758 00a9 03       		.uleb128 0x3
 1759 00aa 0E       		.uleb128 0xe
 1760 00ab 0B       		.uleb128 0xb
 1761 00ac 05       		.uleb128 0x5
 1762 00ad 3A       		.uleb128 0x3a
 1763 00ae 0B       		.uleb128 0xb
 1764 00af 3B       		.uleb128 0x3b
 1765 00b0 05       		.uleb128 0x5
 1766 00b1 01       		.uleb128 0x1
 1767 00b2 13       		.uleb128 0x13
ARM GAS  /tmp/ccjSLPR4.s 			page 32


 1768 00b3 00       		.byte	0
 1769 00b4 00       		.byte	0
 1770 00b5 10       		.uleb128 0x10
 1771 00b6 26       		.uleb128 0x26
 1772 00b7 00       		.byte	0
 1773 00b8 49       		.uleb128 0x49
 1774 00b9 13       		.uleb128 0x13
 1775 00ba 00       		.byte	0
 1776 00bb 00       		.byte	0
 1777 00bc 11       		.uleb128 0x11
 1778 00bd 01       		.uleb128 0x1
 1779 00be 01       		.byte	0x1
 1780 00bf 49       		.uleb128 0x49
 1781 00c0 13       		.uleb128 0x13
 1782 00c1 01       		.uleb128 0x1
 1783 00c2 13       		.uleb128 0x13
 1784 00c3 00       		.byte	0
 1785 00c4 00       		.byte	0
 1786 00c5 12       		.uleb128 0x12
 1787 00c6 21       		.uleb128 0x21
 1788 00c7 00       		.byte	0
 1789 00c8 49       		.uleb128 0x49
 1790 00c9 13       		.uleb128 0x13
 1791 00ca 2F       		.uleb128 0x2f
 1792 00cb 0B       		.uleb128 0xb
 1793 00cc 00       		.byte	0
 1794 00cd 00       		.byte	0
 1795 00ce 13       		.uleb128 0x13
 1796 00cf 13       		.uleb128 0x13
 1797 00d0 01       		.byte	0x1
 1798 00d1 0B       		.uleb128 0xb
 1799 00d2 0B       		.uleb128 0xb
 1800 00d3 3A       		.uleb128 0x3a
 1801 00d4 0B       		.uleb128 0xb
 1802 00d5 3B       		.uleb128 0x3b
 1803 00d6 05       		.uleb128 0x5
 1804 00d7 01       		.uleb128 0x1
 1805 00d8 13       		.uleb128 0x13
 1806 00d9 00       		.byte	0
 1807 00da 00       		.byte	0
 1808 00db 14       		.uleb128 0x14
 1809 00dc 16       		.uleb128 0x16
 1810 00dd 00       		.byte	0
 1811 00de 03       		.uleb128 0x3
 1812 00df 0E       		.uleb128 0xe
 1813 00e0 3A       		.uleb128 0x3a
 1814 00e1 0B       		.uleb128 0xb
 1815 00e2 3B       		.uleb128 0x3b
 1816 00e3 05       		.uleb128 0x5
 1817 00e4 49       		.uleb128 0x49
 1818 00e5 13       		.uleb128 0x13
 1819 00e6 00       		.byte	0
 1820 00e7 00       		.byte	0
 1821 00e8 15       		.uleb128 0x15
 1822 00e9 0D       		.uleb128 0xd
 1823 00ea 00       		.byte	0
 1824 00eb 03       		.uleb128 0x3
ARM GAS  /tmp/ccjSLPR4.s 			page 33


 1825 00ec 08       		.uleb128 0x8
 1826 00ed 3A       		.uleb128 0x3a
 1827 00ee 0B       		.uleb128 0xb
 1828 00ef 3B       		.uleb128 0x3b
 1829 00f0 0B       		.uleb128 0xb
 1830 00f1 49       		.uleb128 0x49
 1831 00f2 13       		.uleb128 0x13
 1832 00f3 38       		.uleb128 0x38
 1833 00f4 0B       		.uleb128 0xb
 1834 00f5 00       		.byte	0
 1835 00f6 00       		.byte	0
 1836 00f7 16       		.uleb128 0x16
 1837 00f8 13       		.uleb128 0x13
 1838 00f9 01       		.byte	0x1
 1839 00fa 0B       		.uleb128 0xb
 1840 00fb 0B       		.uleb128 0xb
 1841 00fc 3A       		.uleb128 0x3a
 1842 00fd 0B       		.uleb128 0xb
 1843 00fe 3B       		.uleb128 0x3b
 1844 00ff 0B       		.uleb128 0xb
 1845 0100 01       		.uleb128 0x1
 1846 0101 13       		.uleb128 0x13
 1847 0102 00       		.byte	0
 1848 0103 00       		.byte	0
 1849 0104 17       		.uleb128 0x17
 1850 0105 17       		.uleb128 0x17
 1851 0106 01       		.byte	0x1
 1852 0107 0B       		.uleb128 0xb
 1853 0108 0B       		.uleb128 0xb
 1854 0109 3A       		.uleb128 0x3a
 1855 010a 0B       		.uleb128 0xb
 1856 010b 3B       		.uleb128 0x3b
 1857 010c 0B       		.uleb128 0xb
 1858 010d 01       		.uleb128 0x1
 1859 010e 13       		.uleb128 0x13
 1860 010f 00       		.byte	0
 1861 0110 00       		.byte	0
 1862 0111 18       		.uleb128 0x18
 1863 0112 0D       		.uleb128 0xd
 1864 0113 00       		.byte	0
 1865 0114 03       		.uleb128 0x3
 1866 0115 0E       		.uleb128 0xe
 1867 0116 3A       		.uleb128 0x3a
 1868 0117 0B       		.uleb128 0xb
 1869 0118 3B       		.uleb128 0x3b
 1870 0119 05       		.uleb128 0x5
 1871 011a 49       		.uleb128 0x49
 1872 011b 13       		.uleb128 0x13
 1873 011c 00       		.byte	0
 1874 011d 00       		.byte	0
 1875 011e 19       		.uleb128 0x19
 1876 011f 2E       		.uleb128 0x2e
 1877 0120 00       		.byte	0
 1878 0121 03       		.uleb128 0x3
 1879 0122 0E       		.uleb128 0xe
 1880 0123 3A       		.uleb128 0x3a
 1881 0124 0B       		.uleb128 0xb
ARM GAS  /tmp/ccjSLPR4.s 			page 34


 1882 0125 3B       		.uleb128 0x3b
 1883 0126 05       		.uleb128 0x5
 1884 0127 27       		.uleb128 0x27
 1885 0128 19       		.uleb128 0x19
 1886 0129 49       		.uleb128 0x49
 1887 012a 13       		.uleb128 0x13
 1888 012b 20       		.uleb128 0x20
 1889 012c 0B       		.uleb128 0xb
 1890 012d 00       		.byte	0
 1891 012e 00       		.byte	0
 1892 012f 1A       		.uleb128 0x1a
 1893 0130 2E       		.uleb128 0x2e
 1894 0131 01       		.byte	0x1
 1895 0132 03       		.uleb128 0x3
 1896 0133 0E       		.uleb128 0xe
 1897 0134 3A       		.uleb128 0x3a
 1898 0135 0B       		.uleb128 0xb
 1899 0136 3B       		.uleb128 0x3b
 1900 0137 0B       		.uleb128 0xb
 1901 0138 27       		.uleb128 0x27
 1902 0139 19       		.uleb128 0x19
 1903 013a 20       		.uleb128 0x20
 1904 013b 0B       		.uleb128 0xb
 1905 013c 01       		.uleb128 0x1
 1906 013d 13       		.uleb128 0x13
 1907 013e 00       		.byte	0
 1908 013f 00       		.byte	0
 1909 0140 1B       		.uleb128 0x1b
 1910 0141 05       		.uleb128 0x5
 1911 0142 00       		.byte	0
 1912 0143 03       		.uleb128 0x3
 1913 0144 08       		.uleb128 0x8
 1914 0145 3A       		.uleb128 0x3a
 1915 0146 0B       		.uleb128 0xb
 1916 0147 3B       		.uleb128 0x3b
 1917 0148 0B       		.uleb128 0xb
 1918 0149 49       		.uleb128 0x49
 1919 014a 13       		.uleb128 0x13
 1920 014b 00       		.byte	0
 1921 014c 00       		.byte	0
 1922 014d 1C       		.uleb128 0x1c
 1923 014e 05       		.uleb128 0x5
 1924 014f 00       		.byte	0
 1925 0150 03       		.uleb128 0x3
 1926 0151 0E       		.uleb128 0xe
 1927 0152 3A       		.uleb128 0x3a
 1928 0153 0B       		.uleb128 0xb
 1929 0154 3B       		.uleb128 0x3b
 1930 0155 0B       		.uleb128 0xb
 1931 0156 49       		.uleb128 0x49
 1932 0157 13       		.uleb128 0x13
 1933 0158 00       		.byte	0
 1934 0159 00       		.byte	0
 1935 015a 1D       		.uleb128 0x1d
 1936 015b 2E       		.uleb128 0x2e
 1937 015c 01       		.byte	0x1
 1938 015d 3F       		.uleb128 0x3f
ARM GAS  /tmp/ccjSLPR4.s 			page 35


 1939 015e 19       		.uleb128 0x19
 1940 015f 03       		.uleb128 0x3
 1941 0160 0E       		.uleb128 0xe
 1942 0161 3A       		.uleb128 0x3a
 1943 0162 0B       		.uleb128 0xb
 1944 0163 3B       		.uleb128 0x3b
 1945 0164 0B       		.uleb128 0xb
 1946 0165 27       		.uleb128 0x27
 1947 0166 19       		.uleb128 0x19
 1948 0167 20       		.uleb128 0x20
 1949 0168 0B       		.uleb128 0xb
 1950 0169 01       		.uleb128 0x1
 1951 016a 13       		.uleb128 0x13
 1952 016b 00       		.byte	0
 1953 016c 00       		.byte	0
 1954 016d 1E       		.uleb128 0x1e
 1955 016e 2E       		.uleb128 0x2e
 1956 016f 01       		.byte	0x1
 1957 0170 31       		.uleb128 0x31
 1958 0171 13       		.uleb128 0x13
 1959 0172 11       		.uleb128 0x11
 1960 0173 01       		.uleb128 0x1
 1961 0174 12       		.uleb128 0x12
 1962 0175 06       		.uleb128 0x6
 1963 0176 40       		.uleb128 0x40
 1964 0177 18       		.uleb128 0x18
 1965 0178 9742     		.uleb128 0x2117
 1966 017a 19       		.uleb128 0x19
 1967 017b 01       		.uleb128 0x1
 1968 017c 13       		.uleb128 0x13
 1969 017d 00       		.byte	0
 1970 017e 00       		.byte	0
 1971 017f 1F       		.uleb128 0x1f
 1972 0180 05       		.uleb128 0x5
 1973 0181 00       		.byte	0
 1974 0182 31       		.uleb128 0x31
 1975 0183 13       		.uleb128 0x13
 1976 0184 02       		.uleb128 0x2
 1977 0185 18       		.uleb128 0x18
 1978 0186 00       		.byte	0
 1979 0187 00       		.byte	0
 1980 0188 20       		.uleb128 0x20
 1981 0189 2E       		.uleb128 0x2e
 1982 018a 01       		.byte	0x1
 1983 018b 3F       		.uleb128 0x3f
 1984 018c 19       		.uleb128 0x19
 1985 018d 03       		.uleb128 0x3
 1986 018e 0E       		.uleb128 0xe
 1987 018f 3A       		.uleb128 0x3a
 1988 0190 0B       		.uleb128 0xb
 1989 0191 3B       		.uleb128 0x3b
 1990 0192 0B       		.uleb128 0xb
 1991 0193 27       		.uleb128 0x27
 1992 0194 19       		.uleb128 0x19
 1993 0195 11       		.uleb128 0x11
 1994 0196 01       		.uleb128 0x1
 1995 0197 12       		.uleb128 0x12
ARM GAS  /tmp/ccjSLPR4.s 			page 36


 1996 0198 06       		.uleb128 0x6
 1997 0199 40       		.uleb128 0x40
 1998 019a 18       		.uleb128 0x18
 1999 019b 9742     		.uleb128 0x2117
 2000 019d 19       		.uleb128 0x19
 2001 019e 01       		.uleb128 0x1
 2002 019f 13       		.uleb128 0x13
 2003 01a0 00       		.byte	0
 2004 01a1 00       		.byte	0
 2005 01a2 21       		.uleb128 0x21
 2006 01a3 05       		.uleb128 0x5
 2007 01a4 00       		.byte	0
 2008 01a5 03       		.uleb128 0x3
 2009 01a6 08       		.uleb128 0x8
 2010 01a7 3A       		.uleb128 0x3a
 2011 01a8 0B       		.uleb128 0xb
 2012 01a9 3B       		.uleb128 0x3b
 2013 01aa 0B       		.uleb128 0xb
 2014 01ab 49       		.uleb128 0x49
 2015 01ac 13       		.uleb128 0x13
 2016 01ad 02       		.uleb128 0x2
 2017 01ae 18       		.uleb128 0x18
 2018 01af 00       		.byte	0
 2019 01b0 00       		.byte	0
 2020 01b1 22       		.uleb128 0x22
 2021 01b2 1D       		.uleb128 0x1d
 2022 01b3 00       		.byte	0
 2023 01b4 31       		.uleb128 0x31
 2024 01b5 13       		.uleb128 0x13
 2025 01b6 11       		.uleb128 0x11
 2026 01b7 01       		.uleb128 0x1
 2027 01b8 12       		.uleb128 0x12
 2028 01b9 06       		.uleb128 0x6
 2029 01ba 58       		.uleb128 0x58
 2030 01bb 0B       		.uleb128 0xb
 2031 01bc 59       		.uleb128 0x59
 2032 01bd 0B       		.uleb128 0xb
 2033 01be 00       		.byte	0
 2034 01bf 00       		.byte	0
 2035 01c0 23       		.uleb128 0x23
 2036 01c1 1D       		.uleb128 0x1d
 2037 01c2 00       		.byte	0
 2038 01c3 31       		.uleb128 0x31
 2039 01c4 13       		.uleb128 0x13
 2040 01c5 52       		.uleb128 0x52
 2041 01c6 01       		.uleb128 0x1
 2042 01c7 55       		.uleb128 0x55
 2043 01c8 17       		.uleb128 0x17
 2044 01c9 58       		.uleb128 0x58
 2045 01ca 0B       		.uleb128 0xb
 2046 01cb 59       		.uleb128 0x59
 2047 01cc 0B       		.uleb128 0xb
 2048 01cd 00       		.byte	0
 2049 01ce 00       		.byte	0
 2050 01cf 24       		.uleb128 0x24
 2051 01d0 1D       		.uleb128 0x1d
 2052 01d1 01       		.byte	0x1
ARM GAS  /tmp/ccjSLPR4.s 			page 37


 2053 01d2 31       		.uleb128 0x31
 2054 01d3 13       		.uleb128 0x13
 2055 01d4 52       		.uleb128 0x52
 2056 01d5 01       		.uleb128 0x1
 2057 01d6 55       		.uleb128 0x55
 2058 01d7 17       		.uleb128 0x17
 2059 01d8 58       		.uleb128 0x58
 2060 01d9 0B       		.uleb128 0xb
 2061 01da 59       		.uleb128 0x59
 2062 01db 0B       		.uleb128 0xb
 2063 01dc 00       		.byte	0
 2064 01dd 00       		.byte	0
 2065 01de 25       		.uleb128 0x25
 2066 01df 05       		.uleb128 0x5
 2067 01e0 00       		.byte	0
 2068 01e1 31       		.uleb128 0x31
 2069 01e2 13       		.uleb128 0x13
 2070 01e3 02       		.uleb128 0x2
 2071 01e4 17       		.uleb128 0x17
 2072 01e5 00       		.byte	0
 2073 01e6 00       		.byte	0
 2074 01e7 26       		.uleb128 0x26
 2075 01e8 05       		.uleb128 0x5
 2076 01e9 00       		.byte	0
 2077 01ea 31       		.uleb128 0x31
 2078 01eb 13       		.uleb128 0x13
 2079 01ec 00       		.byte	0
 2080 01ed 00       		.byte	0
 2081 01ee 27       		.uleb128 0x27
 2082 01ef 34       		.uleb128 0x34
 2083 01f0 00       		.byte	0
 2084 01f1 03       		.uleb128 0x3
 2085 01f2 08       		.uleb128 0x8
 2086 01f3 3A       		.uleb128 0x3a
 2087 01f4 0B       		.uleb128 0xb
 2088 01f5 3B       		.uleb128 0x3b
 2089 01f6 0B       		.uleb128 0xb
 2090 01f7 49       		.uleb128 0x49
 2091 01f8 13       		.uleb128 0x13
 2092 01f9 02       		.uleb128 0x2
 2093 01fa 18       		.uleb128 0x18
 2094 01fb 00       		.byte	0
 2095 01fc 00       		.byte	0
 2096 01fd 28       		.uleb128 0x28
 2097 01fe 1D       		.uleb128 0x1d
 2098 01ff 01       		.byte	0x1
 2099 0200 31       		.uleb128 0x31
 2100 0201 13       		.uleb128 0x13
 2101 0202 52       		.uleb128 0x52
 2102 0203 01       		.uleb128 0x1
 2103 0204 55       		.uleb128 0x55
 2104 0205 17       		.uleb128 0x17
 2105 0206 58       		.uleb128 0x58
 2106 0207 0B       		.uleb128 0xb
 2107 0208 59       		.uleb128 0x59
 2108 0209 0B       		.uleb128 0xb
 2109 020a 01       		.uleb128 0x1
ARM GAS  /tmp/ccjSLPR4.s 			page 38


 2110 020b 13       		.uleb128 0x13
 2111 020c 00       		.byte	0
 2112 020d 00       		.byte	0
 2113 020e 29       		.uleb128 0x29
 2114 020f 898201   		.uleb128 0x4109
 2115 0212 01       		.byte	0x1
 2116 0213 11       		.uleb128 0x11
 2117 0214 01       		.uleb128 0x1
 2118 0215 31       		.uleb128 0x31
 2119 0216 13       		.uleb128 0x13
 2120 0217 01       		.uleb128 0x1
 2121 0218 13       		.uleb128 0x13
 2122 0219 00       		.byte	0
 2123 021a 00       		.byte	0
 2124 021b 2A       		.uleb128 0x2a
 2125 021c 8A8201   		.uleb128 0x410a
 2126 021f 00       		.byte	0
 2127 0220 02       		.uleb128 0x2
 2128 0221 18       		.uleb128 0x18
 2129 0222 9142     		.uleb128 0x2111
 2130 0224 18       		.uleb128 0x18
 2131 0225 00       		.byte	0
 2132 0226 00       		.byte	0
 2133 0227 2B       		.uleb128 0x2b
 2134 0228 898201   		.uleb128 0x4109
 2135 022b 01       		.byte	0x1
 2136 022c 11       		.uleb128 0x11
 2137 022d 01       		.uleb128 0x1
 2138 022e 31       		.uleb128 0x31
 2139 022f 13       		.uleb128 0x13
 2140 0230 00       		.byte	0
 2141 0231 00       		.byte	0
 2142 0232 2C       		.uleb128 0x2c
 2143 0233 05       		.uleb128 0x5
 2144 0234 00       		.byte	0
 2145 0235 03       		.uleb128 0x3
 2146 0236 0E       		.uleb128 0xe
 2147 0237 3A       		.uleb128 0x3a
 2148 0238 0B       		.uleb128 0xb
 2149 0239 3B       		.uleb128 0x3b
 2150 023a 0B       		.uleb128 0xb
 2151 023b 49       		.uleb128 0x49
 2152 023c 13       		.uleb128 0x13
 2153 023d 02       		.uleb128 0x2
 2154 023e 18       		.uleb128 0x18
 2155 023f 00       		.byte	0
 2156 0240 00       		.byte	0
 2157 0241 2D       		.uleb128 0x2d
 2158 0242 05       		.uleb128 0x5
 2159 0243 00       		.byte	0
 2160 0244 03       		.uleb128 0x3
 2161 0245 0E       		.uleb128 0xe
 2162 0246 3A       		.uleb128 0x3a
 2163 0247 0B       		.uleb128 0xb
 2164 0248 3B       		.uleb128 0x3b
 2165 0249 0B       		.uleb128 0xb
 2166 024a 49       		.uleb128 0x49
ARM GAS  /tmp/ccjSLPR4.s 			page 39


 2167 024b 13       		.uleb128 0x13
 2168 024c 02       		.uleb128 0x2
 2169 024d 17       		.uleb128 0x17
 2170 024e 00       		.byte	0
 2171 024f 00       		.byte	0
 2172 0250 2E       		.uleb128 0x2e
 2173 0251 34       		.uleb128 0x34
 2174 0252 00       		.byte	0
 2175 0253 03       		.uleb128 0x3
 2176 0254 0E       		.uleb128 0xe
 2177 0255 3A       		.uleb128 0x3a
 2178 0256 0B       		.uleb128 0xb
 2179 0257 3B       		.uleb128 0x3b
 2180 0258 05       		.uleb128 0x5
 2181 0259 49       		.uleb128 0x49
 2182 025a 13       		.uleb128 0x13
 2183 025b 3F       		.uleb128 0x3f
 2184 025c 19       		.uleb128 0x19
 2185 025d 3C       		.uleb128 0x3c
 2186 025e 19       		.uleb128 0x19
 2187 025f 00       		.byte	0
 2188 0260 00       		.byte	0
 2189 0261 2F       		.uleb128 0x2f
 2190 0262 34       		.uleb128 0x34
 2191 0263 00       		.byte	0
 2192 0264 03       		.uleb128 0x3
 2193 0265 08       		.uleb128 0x8
 2194 0266 3A       		.uleb128 0x3a
 2195 0267 0B       		.uleb128 0xb
 2196 0268 3B       		.uleb128 0x3b
 2197 0269 05       		.uleb128 0x5
 2198 026a 49       		.uleb128 0x49
 2199 026b 13       		.uleb128 0x13
 2200 026c 3F       		.uleb128 0x3f
 2201 026d 19       		.uleb128 0x19
 2202 026e 3C       		.uleb128 0x3c
 2203 026f 19       		.uleb128 0x19
 2204 0270 00       		.byte	0
 2205 0271 00       		.byte	0
 2206 0272 00       		.byte	0
 2207              		.section	.debug_loc,"",%progbits
 2208              	.Ldebug_loc0:
 2209              	.LLST0:
 2210 0000 0C000000 		.4byte	.LVL3
 2211 0004 34000000 		.4byte	.LVL4
 2212 0008 0100     		.2byte	0x1
 2213 000a 57       		.byte	0x57
 2214 000b 38000000 		.4byte	.LVL5
 2215 000f 3C000000 		.4byte	.LVL6
 2216 0013 0100     		.2byte	0x1
 2217 0015 57       		.byte	0x57
 2218 0016 00000000 		.4byte	0
 2219 001a 00000000 		.4byte	0
 2220              	.LLST1:
 2221 001e 0C000000 		.4byte	.LVL3
 2222 0022 34000000 		.4byte	.LVL4
 2223 0026 0100     		.2byte	0x1
ARM GAS  /tmp/ccjSLPR4.s 			page 40


 2224 0028 50       		.byte	0x50
 2225 0029 38000000 		.4byte	.LVL5
 2226 002d 48000000 		.4byte	.LFE231
 2227 0031 0100     		.2byte	0x1
 2228 0033 50       		.byte	0x50
 2229 0034 00000000 		.4byte	0
 2230 0038 00000000 		.4byte	0
 2231              	.LLST2:
 2232 003c 14000000 		.4byte	.LVL7
 2233 0040 20000000 		.4byte	.LVL8
 2234 0044 0100     		.2byte	0x1
 2235 0046 50       		.byte	0x50
 2236 0047 00000000 		.4byte	0
 2237 004b 00000000 		.4byte	0
 2238              	.LLST3:
 2239 004f 00000000 		.4byte	.LVL11
 2240 0053 12000000 		.4byte	.LVL13
 2241 0057 0100     		.2byte	0x1
 2242 0059 51       		.byte	0x51
 2243 005a 12000000 		.4byte	.LVL13
 2244 005e 40000000 		.4byte	.LFE232
 2245 0062 0400     		.2byte	0x4
 2246 0064 F3       		.byte	0xf3
 2247 0065 01       		.uleb128 0x1
 2248 0066 51       		.byte	0x51
 2249 0067 9F       		.byte	0x9f
 2250 0068 00000000 		.4byte	0
 2251 006c 00000000 		.4byte	0
 2252              	.LLST4:
 2253 0070 0A000000 		.4byte	.LVL12
 2254 0074 30000000 		.4byte	.LVL16
 2255 0078 0200     		.2byte	0x2
 2256 007a 30       		.byte	0x30
 2257 007b 9F       		.byte	0x9f
 2258 007c 34000000 		.4byte	.LVL17
 2259 0080 40000000 		.4byte	.LFE232
 2260 0084 0200     		.2byte	0x2
 2261 0086 30       		.byte	0x30
 2262 0087 9F       		.byte	0x9f
 2263 0088 00000000 		.4byte	0
 2264 008c 00000000 		.4byte	0
 2265              	.LLST5:
 2266 0090 0A000000 		.4byte	.LVL12
 2267 0094 14000000 		.4byte	.LVL14
 2268 0098 0100     		.2byte	0x1
 2269 009a 53       		.byte	0x53
 2270 009b 14000000 		.4byte	.LVL14
 2271 009f 22000000 		.4byte	.LVL15
 2272 00a3 0500     		.2byte	0x5
 2273 00a5 F3       		.byte	0xf3
 2274 00a6 01       		.uleb128 0x1
 2275 00a7 51       		.byte	0x51
 2276 00a8 23       		.byte	0x23
 2277 00a9 08       		.uleb128 0x8
 2278 00aa 00000000 		.4byte	0
 2279 00ae 00000000 		.4byte	0
 2280              	.LLST6:
ARM GAS  /tmp/ccjSLPR4.s 			page 41


 2281 00b2 0A000000 		.4byte	.LVL12
 2282 00b6 30000000 		.4byte	.LVL16
 2283 00ba 0100     		.2byte	0x1
 2284 00bc 50       		.byte	0x50
 2285 00bd 34000000 		.4byte	.LVL17
 2286 00c1 40000000 		.4byte	.LFE232
 2287 00c5 0100     		.2byte	0x1
 2288 00c7 50       		.byte	0x50
 2289 00c8 00000000 		.4byte	0
 2290 00cc 00000000 		.4byte	0
 2291              		.section	.debug_aranges,"",%progbits
 2292 0000 3C000000 		.4byte	0x3c
 2293 0004 0200     		.2byte	0x2
 2294 0006 00000000 		.4byte	.Ldebug_info0
 2295 000a 04       		.byte	0x4
 2296 000b 00       		.byte	0
 2297 000c 0000     		.2byte	0
 2298 000e 0000     		.2byte	0
 2299 0010 00000000 		.4byte	.LFB229
 2300 0014 18000000 		.4byte	.LFE229-.LFB229
 2301 0018 00000000 		.4byte	.LFB230
 2302 001c 0C000000 		.4byte	.LFE230-.LFB230
 2303 0020 00000000 		.4byte	.LFB231
 2304 0024 48000000 		.4byte	.LFE231-.LFB231
 2305 0028 00000000 		.4byte	.LFB228
 2306 002c 38000000 		.4byte	.LFE228-.LFB228
 2307 0030 00000000 		.4byte	.LFB232
 2308 0034 40000000 		.4byte	.LFE232-.LFB232
 2309 0038 00000000 		.4byte	0
 2310 003c 00000000 		.4byte	0
 2311              		.section	.debug_ranges,"",%progbits
 2312              	.Ldebug_ranges0:
 2313 0000 00000000 		.4byte	.LBB16
 2314 0004 02000000 		.4byte	.LBE16
 2315 0008 04000000 		.4byte	.LBB19
 2316 000c 06000000 		.4byte	.LBE19
 2317 0010 00000000 		.4byte	0
 2318 0014 00000000 		.4byte	0
 2319 0018 06000000 		.4byte	.LBB20
 2320 001c 08000000 		.4byte	.LBE20
 2321 0020 0C000000 		.4byte	.LBB24
 2322 0024 34000000 		.4byte	.LBE24
 2323 0028 38000000 		.4byte	.LBB25
 2324 002c 3A000000 		.4byte	.LBE25
 2325 0030 00000000 		.4byte	0
 2326 0034 00000000 		.4byte	0
 2327 0038 08000000 		.4byte	.LBB26
 2328 003c 0C000000 		.4byte	.LBE26
 2329 0040 0E000000 		.4byte	.LBB30
 2330 0044 12000000 		.4byte	.LBE30
 2331 0048 14000000 		.4byte	.LBB31
 2332 004c 20000000 		.4byte	.LBE31
 2333 0050 00000000 		.4byte	0
 2334 0054 00000000 		.4byte	0
 2335 0058 00000000 		.4byte	.LBB32
 2336 005c 02000000 		.4byte	.LBE32
 2337 0060 04000000 		.4byte	.LBB39
ARM GAS  /tmp/ccjSLPR4.s 			page 42


 2338 0064 06000000 		.4byte	.LBE39
 2339 0068 00000000 		.4byte	0
 2340 006c 00000000 		.4byte	0
 2341 0070 02000000 		.4byte	.LBB35
 2342 0074 04000000 		.4byte	.LBE35
 2343 0078 0A000000 		.4byte	.LBB40
 2344 007c 30000000 		.4byte	.LBE40
 2345 0080 34000000 		.4byte	.LBB41
 2346 0084 36000000 		.4byte	.LBE41
 2347 0088 00000000 		.4byte	0
 2348 008c 00000000 		.4byte	0
 2349 0090 00000000 		.4byte	.LFB229
 2350 0094 18000000 		.4byte	.LFE229
 2351 0098 00000000 		.4byte	.LFB230
 2352 009c 0C000000 		.4byte	.LFE230
 2353 00a0 00000000 		.4byte	.LFB231
 2354 00a4 48000000 		.4byte	.LFE231
 2355 00a8 00000000 		.4byte	.LFB228
 2356 00ac 38000000 		.4byte	.LFE228
 2357 00b0 00000000 		.4byte	.LFB232
 2358 00b4 40000000 		.4byte	.LFE232
 2359 00b8 00000000 		.4byte	0
 2360 00bc 00000000 		.4byte	0
 2361              		.section	.debug_line,"",%progbits
 2362              	.Ldebug_line0:
 2363 0000 D2020000 		.section	.debug_str,"MS",%progbits,1
 2363      0200E001 
 2363      00000201 
 2363      FB0E0D00 
 2363      01010101 
 2364              	.LASF53:
 2365 0000 72656164 		.ascii	"ready_list_t\000"
 2365      795F6C69 
 2365      73745F74 
 2365      00
 2366              	.LASF120:
 2367 000d 77747472 		.ascii	"wttrp\000"
 2367      7000
 2368              	.LASF117:
 2369 0013 7264796D 		.ascii	"rdymsg\000"
 2369      736700
 2370              	.LASF17:
 2371 001a 75696E74 		.ascii	"uint64_t\000"
 2371      36345F74 
 2371      00
 2372              	.LASF7:
 2373 0023 5F5F7569 		.ascii	"__uint8_t\000"
 2373      6E74385F 
 2373      7400
 2374              	.LASF109:
 2375 002d 706F7274 		.ascii	"port_intctx\000"
 2375      5F696E74 
 2375      63747800 
 2376              	.LASF52:
 2377 0039 63685F74 		.ascii	"ch_threads_queue\000"
 2377      68726561 
 2377      64735F71 
ARM GAS  /tmp/ccjSLPR4.s 			page 43


 2377      75657565 
 2377      00
 2378              	.LASF72:
 2379 004a 73797374 		.ascii	"system_debug_t\000"
 2379      656D5F64 
 2379      65627567 
 2379      5F7400
 2380              	.LASF113:
 2381 0059 776F7273 		.ascii	"worst\000"
 2381      7400
 2382              	.LASF116:
 2383 005f 74696D65 		.ascii	"time_measurement_t\000"
 2383      5F6D6561 
 2383      73757265 
 2383      6D656E74 
 2383      5F7400
 2384              	.LASF13:
 2385 0072 6C6F6E67 		.ascii	"long long unsigned int\000"
 2385      206C6F6E 
 2385      6720756E 
 2385      7369676E 
 2385      65642069 
 2386              	.LASF118:
 2387 0089 65786974 		.ascii	"exitcode\000"
 2387      636F6465 
 2387      00
 2388              	.LASF79:
 2389 0092 6D61696E 		.ascii	"mainthread\000"
 2389      74687265 
 2389      616400
 2390              	.LASF143:
 2391 009d 746D5F73 		.ascii	"tm_stop\000"
 2391      746F7000 
 2392              	.LASF69:
 2393 00a5 76697274 		.ascii	"virtual_timers_list_t\000"
 2393      75616C5F 
 2393      74696D65 
 2393      72735F6C 
 2393      6973745F 
 2394              	.LASF144:
 2395 00bb 6368544D 		.ascii	"chTMObjectInit\000"
 2395      4F626A65 
 2395      6374496E 
 2395      697400
 2396              	.LASF19:
 2397 00ca 72747469 		.ascii	"rttime_t\000"
 2397      6D655F74 
 2397      00
 2398              	.LASF32:
 2399 00d3 705F7072 		.ascii	"p_prio\000"
 2399      696F00
 2400              	.LASF137:
 2401 00da 746D7031 		.ascii	"tmp1\000"
 2401      00
 2402              	.LASF138:
 2403 00df 746D7032 		.ascii	"tmp2\000"
 2403      00
ARM GAS  /tmp/ccjSLPR4.s 			page 44


 2404              	.LASF1:
 2405 00e4 6C6F6E67 		.ascii	"long long int\000"
 2405      206C6F6E 
 2405      6720696E 
 2405      7400
 2406              	.LASF3:
 2407 00f2 7369676E 		.ascii	"signed char\000"
 2407      65642063 
 2407      68617200 
 2408              	.LASF46:
 2409 00fe 705F6D70 		.ascii	"p_mpool\000"
 2409      6F6F6C00 
 2410              	.LASF84:
 2411 0106 43504943 		.ascii	"CPICNT\000"
 2411      4E5400
 2412              	.LASF128:
 2413 010d 6D5F7175 		.ascii	"m_queue\000"
 2413      65756500 
 2414              	.LASF78:
 2415 0115 76746C69 		.ascii	"vtlist\000"
 2415      737400
 2416              	.LASF133:
 2417 011c 6368544D 		.ascii	"chTMStartMeasurementX\000"
 2417      53746172 
 2417      744D6561 
 2417      73757265 
 2417      6D656E74 
 2418              	.LASF134:
 2419 0132 6368544D 		.ascii	"chTMStopMeasurementX\000"
 2419      53746F70 
 2419      4D656173 
 2419      7572656D 
 2419      656E7458 
 2420              	.LASF9:
 2421 0147 6C6F6E67 		.ascii	"long int\000"
 2421      20696E74 
 2421      00
 2422              	.LASF21:
 2423 0150 74737461 		.ascii	"tstate_t\000"
 2423      74655F74 
 2423      00
 2424              	.LASF86:
 2425 0159 534C4545 		.ascii	"SLEEPCNT\000"
 2425      50434E54 
 2425      00
 2426              	.LASF34:
 2427 0162 705F6E65 		.ascii	"p_newer\000"
 2427      77657200 
 2428              	.LASF125:
 2429 016a 735F7175 		.ascii	"s_queue\000"
 2429      65756500 
 2430              	.LASF58:
 2431 0172 725F6E65 		.ascii	"r_newer\000"
 2431      77657200 
 2432              	.LASF106:
 2433 017a 72656761 		.ascii	"regarm_t\000"
 2433      726D5F74 
ARM GAS  /tmp/ccjSLPR4.s 			page 45


 2433      00
 2434              	.LASF65:
 2435 0183 76745F70 		.ascii	"vt_prev\000"
 2435      72657600 
 2436              	.LASF73:
 2437 018b 63685F73 		.ascii	"ch_system_debug\000"
 2437      79737465 
 2437      6D5F6465 
 2437      62756700 
 2438              	.LASF132:
 2439 019b 6D757465 		.ascii	"mutex_t\000"
 2439      785F7400 
 2440              	.LASF80:
 2441 01a3 69646C65 		.ascii	"idle_thread_wa\000"
 2441      5F746872 
 2441      6561645F 
 2441      776100
 2442              	.LASF26:
 2443 01b2 636E745F 		.ascii	"cnt_t\000"
 2443      7400
 2444              	.LASF0:
 2445 01b8 756E7369 		.ascii	"unsigned int\000"
 2445      676E6564 
 2445      20696E74 
 2445      00
 2446              	.LASF64:
 2447 01c5 76745F6E 		.ascii	"vt_next\000"
 2447      65787400 
 2448              	.LASF99:
 2449 01cd 4D41534B 		.ascii	"MASK2\000"
 2449      3200
 2450              	.LASF103:
 2451 01d3 4D41534B 		.ascii	"MASK3\000"
 2451      3300
 2452              	.LASF121:
 2453 01d9 77747365 		.ascii	"wtsemp\000"
 2453      6D7000
 2454              	.LASF41:
 2455 01e0 705F6D73 		.ascii	"p_msgqueue\000"
 2455      67717565 
 2455      756500
 2456              	.LASF54:
 2457 01eb 63685F72 		.ascii	"ch_ready_list\000"
 2457      65616479 
 2457      5F6C6973 
 2457      7400
 2458              	.LASF126:
 2459 01f9 735F636E 		.ascii	"s_cnt\000"
 2459      7400
 2460              	.LASF112:
 2461 01ff 62657374 		.ascii	"best\000"
 2461      00
 2462              	.LASF6:
 2463 0204 73686F72 		.ascii	"short unsigned int\000"
 2463      7420756E 
 2463      7369676E 
 2463      65642069 
ARM GAS  /tmp/ccjSLPR4.s 			page 46


 2463      6E7400
 2464              	.LASF49:
 2465 0217 63685F74 		.ascii	"ch_thread\000"
 2465      68726561 
 2465      6400
 2466              	.LASF85:
 2467 0221 45584343 		.ascii	"EXCCNT\000"
 2467      4E5400
 2468              	.LASF24:
 2469 0228 6D73675F 		.ascii	"msg_t\000"
 2469      7400
 2470              	.LASF114:
 2471 022e 6C617374 		.ascii	"last\000"
 2471      00
 2472              	.LASF27:
 2473 0233 75636E74 		.ascii	"ucnt_t\000"
 2473      5F7400
 2474              	.LASF75:
 2475 023a 63685F73 		.ascii	"ch_system_t\000"
 2475      79737465 
 2475      6D5F7400 
 2476              	.LASF20:
 2477 0246 746D6F64 		.ascii	"tmode_t\000"
 2477      655F7400 
 2478              	.LASF44:
 2479 024e 705F6D74 		.ascii	"p_mtxlist\000"
 2479      786C6973 
 2479      7400
 2480              	.LASF25:
 2481 0258 6576656E 		.ascii	"eventmask_t\000"
 2481      746D6173 
 2481      6B5F7400 
 2482              	.LASF8:
 2483 0264 5F5F696E 		.ascii	"__int32_t\000"
 2483      7433325F 
 2483      7400
 2484              	.LASF136:
 2485 026e 6368544D 		.ascii	"chTMChainMeasurementToX\000"
 2485      43686169 
 2485      6E4D6561 
 2485      73757265 
 2485      6D656E74 
 2486              	.LASF107:
 2487 0286 73746B61 		.ascii	"stkalign_t\000"
 2487      6C69676E 
 2487      5F7400
 2488              	.LASF83:
 2489 0291 43594343 		.ascii	"CYCCNT\000"
 2489      4E5400
 2490              	.LASF40:
 2491 0298 705F7761 		.ascii	"p_waiting\000"
 2491      6974696E 
 2491      6700
 2492              	.LASF81:
 2493 02a2 73697A65 		.ascii	"sizetype\000"
 2493      74797065 
 2493      00
ARM GAS  /tmp/ccjSLPR4.s 			page 47


 2494              	.LASF47:
 2495 02ab 74687265 		.ascii	"thread_reference_t\000"
 2495      61645F72 
 2495      65666572 
 2495      656E6365 
 2495      5F7400
 2496              	.LASF70:
 2497 02be 63685F76 		.ascii	"ch_virtual_timers_list\000"
 2497      69727475 
 2497      616C5F74 
 2497      696D6572 
 2497      735F6C69 
 2498              	.LASF2:
 2499 02d5 6C6F6E67 		.ascii	"long double\000"
 2499      20646F75 
 2499      626C6500 
 2500              	.LASF111:
 2501 02e1 746D5F63 		.ascii	"tm_calibration_t\000"
 2501      616C6962 
 2501      72617469 
 2501      6F6E5F74 
 2501      00
 2502              	.LASF71:
 2503 02f2 76745F6C 		.ascii	"vt_lasttime\000"
 2503      61737474 
 2503      696D6500 
 2504              	.LASF35:
 2505 02fe 705F6F6C 		.ascii	"p_older\000"
 2505      64657200 
 2506              	.LASF57:
 2507 0306 725F6374 		.ascii	"r_ctx\000"
 2507      7800
 2508              	.LASF33:
 2509 030c 705F6374 		.ascii	"p_ctx\000"
 2509      7800
 2510              	.LASF94:
 2511 0312 434F4D50 		.ascii	"COMP1\000"
 2511      3100
 2512              	.LASF98:
 2513 0318 434F4D50 		.ascii	"COMP2\000"
 2513      3200
 2514              	.LASF102:
 2515 031e 434F4D50 		.ascii	"COMP3\000"
 2515      3300
 2516              	.LASF60:
 2517 0324 725F6375 		.ascii	"r_current\000"
 2517      7272656E 
 2517      7400
 2518              	.LASF59:
 2519 032e 725F6F6C 		.ascii	"r_older\000"
 2519      64657200 
 2520              	.LASF12:
 2521 0336 5F5F7569 		.ascii	"__uint64_t\000"
 2521      6E743634 
 2521      5F7400
 2522              	.LASF115:
 2523 0341 63756D75 		.ascii	"cumulative\000"
ARM GAS  /tmp/ccjSLPR4.s 			page 48


 2523      6C617469 
 2523      766500
 2524              	.LASF22:
 2525 034c 74726566 		.ascii	"trefs_t\000"
 2525      735F7400 
 2526              	.LASF93:
 2527 0354 52455345 		.ascii	"RESERVED0\000"
 2527      52564544 
 2527      3000
 2528              	.LASF97:
 2529 035e 52455345 		.ascii	"RESERVED1\000"
 2529      52564544 
 2529      3100
 2530              	.LASF101:
 2531 0368 52455345 		.ascii	"RESERVED2\000"
 2531      52564544 
 2531      3200
 2532              	.LASF62:
 2533 0372 76697274 		.ascii	"virtual_timer_t\000"
 2533      75616C5F 
 2533      74696D65 
 2533      725F7400 
 2534              	.LASF31:
 2535 0382 705F7072 		.ascii	"p_prev\000"
 2535      657600
 2536              	.LASF23:
 2537 0389 74707269 		.ascii	"tprio_t\000"
 2537      6F5F7400 
 2538              	.LASF89:
 2539 0391 50435352 		.ascii	"PCSR\000"
 2539      00
 2540              	.LASF91:
 2541 0396 4D41534B 		.ascii	"MASK0\000"
 2541      3000
 2542              	.LASF95:
 2543 039c 4D41534B 		.ascii	"MASK1\000"
 2543      3100
 2544              	.LASF15:
 2545 03a2 696E7433 		.ascii	"int32_t\000"
 2545      325F7400 
 2546              	.LASF4:
 2547 03aa 756E7369 		.ascii	"unsigned char\000"
 2547      676E6564 
 2547      20636861 
 2547      7200
 2548              	.LASF139:
 2549 03b8 49544D5F 		.ascii	"ITM_RxBuffer\000"
 2549      52784275 
 2549      66666572 
 2549      00
 2550              	.LASF92:
 2551 03c5 46554E43 		.ascii	"FUNCTION0\000"
 2551      54494F4E 
 2551      3000
 2552              	.LASF96:
 2553 03cf 46554E43 		.ascii	"FUNCTION1\000"
 2553      54494F4E 
ARM GAS  /tmp/ccjSLPR4.s 			page 49


 2553      3100
 2554              	.LASF100:
 2555 03d9 46554E43 		.ascii	"FUNCTION2\000"
 2555      54494F4E 
 2555      3200
 2556              	.LASF104:
 2557 03e3 46554E43 		.ascii	"FUNCTION3\000"
 2557      54494F4E 
 2557      3300
 2558              	.LASF5:
 2559 03ed 73686F72 		.ascii	"short int\000"
 2559      7420696E 
 2559      7400
 2560              	.LASF37:
 2561 03f7 705F7374 		.ascii	"p_state\000"
 2561      61746500 
 2562              	.LASF56:
 2563 03ff 725F7072 		.ascii	"r_prio\000"
 2563      696F00
 2564              	.LASF140:
 2565 0406 474E5520 		.ascii	"GNU C11 5.3.1 20160307 (release) [ARM/embedded-5-br"
 2565      43313120 
 2565      352E332E 
 2565      31203230 
 2565      31363033 
 2566 0439 616E6368 		.ascii	"anch revision 234589] -mcpu=cortex-m4 -mno-thumb-in"
 2566      20726576 
 2566      6973696F 
 2566      6E203233 
 2566      34353839 
 2567 046c 74657277 		.ascii	"terwork -mthumb -ggdb -O2 -fomit-frame-pointer -fal"
 2567      6F726B20 
 2567      2D6D7468 
 2567      756D6220 
 2567      2D676764 
 2568 049f 69676E2D 		.ascii	"ign-functions=16 -ffunction-sections -fdata-section"
 2568      66756E63 
 2568      74696F6E 
 2568      733D3136 
 2568      202D6666 
 2569 04d2 73202D66 		.ascii	"s -fno-common\000"
 2569      6E6F2D63 
 2569      6F6D6D6F 
 2569      6E00
 2570              	.LASF123:
 2571 04e0 65776D61 		.ascii	"ewmask\000"
 2571      736B00
 2572              	.LASF30:
 2573 04e7 705F6E65 		.ascii	"p_next\000"
 2573      787400
 2574              	.LASF38:
 2575 04ee 705F666C 		.ascii	"p_flags\000"
 2575      61677300 
 2576              	.LASF76:
 2577 04f6 63685F73 		.ascii	"ch_system\000"
 2577      79737465 
 2577      6D00
ARM GAS  /tmp/ccjSLPR4.s 			page 50


 2578              	.LASF63:
 2579 0500 63685F76 		.ascii	"ch_virtual_timer\000"
 2579      69727475 
 2579      616C5F74 
 2579      696D6572 
 2579      00
 2580              	.LASF124:
 2581 0511 63685F73 		.ascii	"ch_semaphore\000"
 2581      656D6170 
 2581      686F7265 
 2581      00
 2582              	.LASF43:
 2583 051e 705F6570 		.ascii	"p_epending\000"
 2583      656E6469 
 2583      6E6700
 2584              	.LASF87:
 2585 0529 4C535543 		.ascii	"LSUCNT\000"
 2585      4E5400
 2586              	.LASF16:
 2587 0530 75696E74 		.ascii	"uint32_t\000"
 2587      33325F74 
 2587      00
 2588              	.LASF122:
 2589 0539 77746D74 		.ascii	"wtmtxp\000"
 2589      787000
 2590              	.LASF55:
 2591 0540 725F7175 		.ascii	"r_queue\000"
 2591      65756500 
 2592              	.LASF66:
 2593 0548 76745F64 		.ascii	"vt_delta\000"
 2593      656C7461 
 2593      00
 2594              	.LASF50:
 2595 0551 63685F74 		.ascii	"ch_threads_list\000"
 2595      68726561 
 2595      64735F6C 
 2595      69737400 
 2596              	.LASF11:
 2597 0561 6C6F6E67 		.ascii	"long unsigned int\000"
 2597      20756E73 
 2597      69676E65 
 2597      6420696E 
 2597      7400
 2598              	.LASF131:
 2599 0573 63686172 		.ascii	"char\000"
 2599      00
 2600              	.LASF29:
 2601 0578 74687265 		.ascii	"thread_t\000"
 2601      61645F74 
 2601      00
 2602              	.LASF142:
 2603 0581 706F7274 		.ascii	"port_rt_get_counter_value\000"
 2603      5F72745F 
 2603      6765745F 
 2603      636F756E 
 2603      7465725F 
 2604              	.LASF130:
ARM GAS  /tmp/ccjSLPR4.s 			page 51


 2605 059b 6D5F6E65 		.ascii	"m_next\000"
 2605      787400
 2606              	.LASF28:
 2607 05a2 73797374 		.ascii	"systime_t\000"
 2607      696D655F 
 2607      7400
 2608              	.LASF45:
 2609 05ac 705F7265 		.ascii	"p_realprio\000"
 2609      616C7072 
 2609      696F00
 2610              	.LASF61:
 2611 05b7 76746675 		.ascii	"vtfunc_t\000"
 2611      6E635F74 
 2611      00
 2612              	.LASF10:
 2613 05c0 5F5F7569 		.ascii	"__uint32_t\000"
 2613      6E743332 
 2613      5F7400
 2614              	.LASF74:
 2615 05cb 70616E69 		.ascii	"panic_msg\000"
 2615      635F6D73 
 2615      6700
 2616              	.LASF110:
 2617 05d5 6F666673 		.ascii	"offset\000"
 2617      657400
 2618              	.LASF108:
 2619 05dc 636F6E74 		.ascii	"context\000"
 2619      65787400 
 2620              	.LASF105:
 2621 05e4 4457545F 		.ascii	"DWT_Type\000"
 2621      54797065 
 2621      00
 2622              	.LASF18:
 2623 05ed 7274636E 		.ascii	"rtcnt_t\000"
 2623      745F7400 
 2624              	.LASF82:
 2625 05f5 4354524C 		.ascii	"CTRL\000"
 2625      00
 2626              	.LASF68:
 2627 05fa 76745F70 		.ascii	"vt_par\000"
 2627      617200
 2628              	.LASF90:
 2629 0601 434F4D50 		.ascii	"COMP0\000"
 2629      3000
 2630              	.LASF51:
 2631 0607 74687265 		.ascii	"threads_queue_t\000"
 2631      6164735F 
 2631      71756575 
 2631      655F7400 
 2632              	.LASF127:
 2633 0617 63685F6D 		.ascii	"ch_mutex\000"
 2633      75746578 
 2633      00
 2634              	.LASF39:
 2635 0620 705F7265 		.ascii	"p_refs\000"
 2635      667300
 2636              	.LASF141:
ARM GAS  /tmp/ccjSLPR4.s 			page 52


 2637 0627 2F686F6D 		.ascii	"/home/selim/working/ChibiOS/os/rt/src/chtm.c\000"
 2637      652F7365 
 2637      6C696D2F 
 2637      776F726B 
 2637      696E672F 
 2638              	.LASF77:
 2639 0654 726C6973 		.ascii	"rlist\000"
 2639      7400
 2640              	.LASF14:
 2641 065a 75696E74 		.ascii	"uint8_t\000"
 2641      385F7400 
 2642              	.LASF88:
 2643 0662 464F4C44 		.ascii	"FOLDCNT\000"
 2643      434E5400 
 2644              	.LASF119:
 2645 066a 77746F62 		.ascii	"wtobjp\000"
 2645      6A7000
 2646              	.LASF36:
 2647 0671 705F6E61 		.ascii	"p_name\000"
 2647      6D6500
 2648              	.LASF48:
 2649 0678 74687265 		.ascii	"threads_list_t\000"
 2649      6164735F 
 2649      6C697374 
 2649      5F7400
 2650              	.LASF42:
 2651 0687 705F6D73 		.ascii	"p_msg\000"
 2651      6700
 2652              	.LASF129:
 2653 068d 6D5F6F77 		.ascii	"m_owner\000"
 2653      6E657200 
 2654              	.LASF67:
 2655 0695 76745F66 		.ascii	"vt_func\000"
 2655      756E6300 
 2656              	.LASF135:
 2657 069d 5F746D5F 		.ascii	"_tm_init\000"
 2657      696E6974 
 2657      00
 2658              		.ident	"GCC: (GNU Tools for ARM Embedded Processors) 5.3.1 20160307 (release) [ARM/embedded-5-bran
ARM GAS  /tmp/ccjSLPR4.s 			page 53


DEFINED SYMBOLS
                            *ABS*:0000000000000000 chtm.c
     /tmp/ccjSLPR4.s:20     .text.chTMObjectInit:0000000000000000 $t
     /tmp/ccjSLPR4.s:26     .text.chTMObjectInit:0000000000000000 chTMObjectInit
     /tmp/ccjSLPR4.s:52     .text.chTMStartMeasurementX:0000000000000000 $t
     /tmp/ccjSLPR4.s:58     .text.chTMStartMeasurementX:0000000000000000 chTMStartMeasurementX
     /tmp/ccjSLPR4.s:80     .text.chTMStartMeasurementX:0000000000000008 $d
     /tmp/ccjSLPR4.s:85     .text.chTMStopMeasurementX:0000000000000000 $t
     /tmp/ccjSLPR4.s:91     .text.chTMStopMeasurementX:0000000000000000 chTMStopMeasurementX
     /tmp/ccjSLPR4.s:194    .text.chTMStopMeasurementX:0000000000000040 $d
     /tmp/ccjSLPR4.s:200    .text._tm_init:0000000000000000 $t
     /tmp/ccjSLPR4.s:206    .text._tm_init:0000000000000000 _tm_init
     /tmp/ccjSLPR4.s:276    .text._tm_init:0000000000000034 $d
     /tmp/ccjSLPR4.s:281    .text.chTMChainMeasurementToX:0000000000000000 $t
     /tmp/ccjSLPR4.s:287    .text.chTMChainMeasurementToX:0000000000000000 chTMChainMeasurementToX
     /tmp/ccjSLPR4.s:386    .text.chTMChainMeasurementToX:000000000000003c $d
                     .debug_frame:0000000000000010 $d

UNDEFINED SYMBOLS
ch
