ARM GAS  /tmp/cc7YPD4S.s 			page 1


   1              		.syntax unified
   2              		.cpu cortex-m4
   3              		.fpu softvfp
   4              		.eabi_attribute 20, 1
   5              		.eabi_attribute 21, 1
   6              		.eabi_attribute 23, 3
   7              		.eabi_attribute 24, 1
   8              		.eabi_attribute 25, 1
   9              		.eabi_attribute 26, 1
  10              		.eabi_attribute 30, 2
  11              		.eabi_attribute 34, 1
  12              		.eabi_attribute 18, 4
  13              		.thumb
  14              		.syntax unified
  15              		.file	"main.c"
  16              		.text
  17              	.Ltext0:
  18              		.cfi_sections	.debug_frame
  19              		.section	.text.chprintf,"ax",%progbits
  20              		.align	2
  21              		.p2align 4,,15
  22              		.thumb
  23              		.thumb_func
  24              		.type	chprintf, %function
  25              	chprintf:
  26              	.LFB258:
  27              		.file 1 "/home/selim/working/ChibiOS/os/hal/lib/streams/chprintf.h"
  28              		.loc 1 69 0
  29              		.cfi_startproc
  30              		@ args = 4, pretend = 12, frame = 8
  31              		@ frame_needed = 0, uses_anonymous_args = 1
  32              	.LVL0:
  33 0000 0EB4     		push	{r1, r2, r3}
  34              		.cfi_def_cfa_offset 12
  35              		.cfi_offset 1, -12
  36              		.cfi_offset 2, -8
  37              		.cfi_offset 3, -4
  38 0002 00B5     		push	{lr}
  39              		.cfi_def_cfa_offset 16
  40              		.cfi_offset 14, -16
  41 0004 82B0     		sub	sp, sp, #8
  42              		.cfi_def_cfa_offset 24
  43              		.loc 1 69 0
  44 0006 03AA     		add	r2, sp, #12
  45 0008 52F8041B 		ldr	r1, [r2], #4
  46              		.loc 1 73 0
  47 000c 0192     		str	r2, [sp, #4]
  48              		.loc 1 74 0
  49 000e FFF7FEFF 		bl	chvprintf
  50              	.LVL1:
  51              		.loc 1 78 0
  52 0012 02B0     		add	sp, sp, #8
  53              		.cfi_def_cfa_offset 16
  54              		@ sp needed
  55 0014 5DF804EB 		ldr	lr, [sp], #4
  56              		.cfi_restore 14
  57              		.cfi_def_cfa_offset 12
ARM GAS  /tmp/cc7YPD4S.s 			page 2


  58 0018 03B0     		add	sp, sp, #12
  59              		.cfi_restore 3
  60              		.cfi_restore 2
  61              		.cfi_restore 1
  62              		.cfi_def_cfa_offset 0
  63 001a 7047     		bx	lr
  64              		.cfi_endproc
  65              	.LFE258:
  66              		.size	chprintf, .-chprintf
  67              		.section	.text.Thread1,"ax",%progbits
  68              		.align	2
  69              		.p2align 4,,15
  70              		.thumb
  71              		.thumb_func
  72              		.type	Thread1, %function
  73              	Thread1:
  74              	.LFB263:
  75              		.file 2 "main.c"
  76              		.loc 2 182 0
  77              		.cfi_startproc
  78              		@ args = 0, pretend = 0, frame = 0
  79              		@ frame_needed = 0, uses_anonymous_args = 0
  80              	.LVL2:
  81 0000 F8B5     		push	{r3, r4, r5, r6, r7, lr}
  82              		.cfi_def_cfa_offset 24
  83              		.cfi_offset 3, -24
  84              		.cfi_offset 4, -20
  85              		.cfi_offset 5, -16
  86              		.cfi_offset 6, -12
  87              		.cfi_offset 7, -8
  88              		.cfi_offset 14, -4
  89              		.loc 2 187 0
  90 0002 264B     		ldr	r3, .L9
  91 0004 264A     		ldr	r2, .L9+4
  92 0006 9B69     		ldr	r3, [r3, #24]
  93              		.loc 2 190 0
  94 0008 2648     		ldr	r0, .L9+8
  95              	.LVL3:
  96              		.loc 2 187 0
  97 000a 9A61     		str	r2, [r3, #24]
  98              		.loc 2 190 0
  99 000c 2021     		movs	r1, #32
 100 000e 4322     		movs	r2, #67
 101 0010 FFF7FEFF 		bl	lis302dlWriteRegister
 102              	.LVL4:
 103              		.loc 2 191 0
 104 0014 0022     		movs	r2, #0
 105 0016 2121     		movs	r1, #33
 106 0018 2248     		ldr	r0, .L9+8
 107 001a FFF7FEFF 		bl	lis302dlWriteRegister
 108              	.LVL5:
 109              		.loc 2 192 0
 110 001e 0022     		movs	r2, #0
 111 0020 2221     		movs	r1, #34
 112 0022 2048     		ldr	r0, .L9+8
 113 0024 FFF7FEFF 		bl	lis302dlWriteRegister
 114              	.LVL6:
ARM GAS  /tmp/cc7YPD4S.s 			page 3


 115              	.LBB65:
 116              	.LBB66:
 117              	.LBB67:
 118              	.LBB68:
 119              	.LBB69:
 120              	.LBB70:
 121              		.file 3 "/home/selim/working/ChibiOS/os/ext/CMSIS/include/core_cmFunc.h"
 122              		.loc 3 546 0
 123 0028 2023     		movs	r3, #32
 124              		.syntax unified
 125              	@ 546 "/home/selim/working/ChibiOS/os/ext/CMSIS/include/core_cmFunc.h" 1
 126 002a 83F31188 		MSR basepri, r3
 127              	@ 0 "" 2
 128              	.LVL7:
 129              		.thumb
 130              		.syntax unified
 131              	.LBE70:
 132              	.LBE69:
 133              	.LBE68:
 134              	.LBE67:
 135              	.LBB71:
 136              	.LBB72:
 137              	.LBB73:
 138              	.LBB74:
 139              		.file 4 "/home/selim/working/ChibiOS/os/hal/ports/STM32/LLD/TIMv1/st_lld.h"
 140              		.loc 4 129 0
 141 002e 4FF08042 		mov	r2, #1073741824
 142              	.LBE74:
 143              	.LBE73:
 144              	.LBE72:
 145              	.LBE71:
 146              	.LBB78:
 147              	.LBB79:
 148              	.LBB80:
 149              	.LBB81:
 150              	.LBB82:
 151              		.loc 3 546 0
 152 0032 0023     		movs	r3, #0
 153              	.LBE82:
 154              	.LBE81:
 155              	.LBE80:
 156              	.LBE79:
 157              	.LBE78:
 158              	.LBB87:
 159              	.LBB77:
 160              	.LBB76:
 161              	.LBB75:
 162              		.loc 4 129 0
 163 0034 556A     		ldr	r5, [r2, #36]
 164              	.LVL8:
 165              	.LBE75:
 166              	.LBE76:
 167              	.LBE77:
 168              	.LBE87:
 169              	.LBB88:
 170              	.LBB86:
 171              	.LBB85:
ARM GAS  /tmp/cc7YPD4S.s 			page 4


 172              	.LBB84:
 173              	.LBB83:
 174              		.loc 3 546 0
 175              		.syntax unified
 176              	@ 546 "/home/selim/working/ChibiOS/os/ext/CMSIS/include/core_cmFunc.h" 1
 177 0036 83F31188 		MSR basepri, r3
 178              	@ 0 "" 2
 179              	.LVL9:
 180              		.thumb
 181              		.syntax unified
 182 003a 1B4F     		ldr	r7, .L9+12
 183 003c 1B4E     		ldr	r6, .L9+16
 184              	.L5:
 185              	.LVL10:
 186 003e 1C49     		ldr	r1, .L9+20
 187 0040 1C4A     		ldr	r2, .L9+24
 188 0042 4C1C     		adds	r4, r1, #1
 189 0044 501C     		adds	r0, r2, #1
 190              	.LBE83:
 191              	.LBE84:
 192              	.LBE85:
 193              	.LBE86:
 194              	.LBE88:
 195              	.LBE66:
 196              	.LBE65:
 197              	.LBB89:
 198              		.loc 2 201 0
 199 0046 0323     		movs	r3, #3
 200              	.LVL11:
 201              	.L4:
 202              		.loc 2 202 0 discriminator 3
 203 0048 11F901CD 		ldrsb	ip, [r1, #-1]!
 204              		.loc 2 203 0 discriminator 3
 205 004c 12F901ED 		ldrsb	lr, [r2, #-1]!
 206              		.loc 2 202 0 discriminator 3
 207 0050 04F801CD 		strb	ip, [r4, #-1]!
 208              		.loc 2 201 0 discriminator 3
 209 0054 013B     		subs	r3, r3, #1
 210              	.LVL12:
 211              		.loc 2 203 0 discriminator 3
 212 0056 00F801ED 		strb	lr, [r0, #-1]!
 213              	.LVL13:
 214              		.loc 2 201 0 discriminator 3
 215 005a F5D1     		bne	.L4
 216              		.loc 2 207 0
 217 005c 2921     		movs	r1, #41
 218 005e 1148     		ldr	r0, .L9+8
 219 0060 FFF7FEFF 		bl	lis302dlReadRegister
 220              	.LVL14:
 221              		.loc 2 208 0
 222 0064 2B21     		movs	r1, #43
 223              		.loc 2 207 0
 224 0066 3870     		strb	r0, [r7]
 225              		.loc 2 208 0
 226 0068 0E48     		ldr	r0, .L9+8
 227 006a FFF7FEFF 		bl	lis302dlReadRegister
 228              	.LVL15:
ARM GAS  /tmp/cc7YPD4S.s 			page 5


 229 006e 3070     		strb	r0, [r6]
 230              		.loc 2 211 0
 231 0070 1148     		ldr	r0, .L9+28
 232 0072 FFF7FEFF 		bl	spiSelect
 233              	.LVL16:
 234              		.loc 2 212 0
 235 0076 0C4A     		ldr	r2, .L9+12
 236 0078 0F48     		ldr	r0, .L9+28
 237 007a 0421     		movs	r1, #4
 238 007c FFF7FEFF 		bl	spiSend
 239              	.LVL17:
 240              		.loc 2 213 0
 241 0080 0A4A     		ldr	r2, .L9+16
 242 0082 0D48     		ldr	r0, .L9+28
 243 0084 0421     		movs	r1, #4
 244 0086 FFF7FEFF 		bl	spiSend
 245              	.LVL18:
 246              		.loc 2 231 0
 247 008a 05F57A75 		add	r5, r5, #1000
 248              	.LVL19:
 249              		.loc 2 214 0
 250 008e 0A48     		ldr	r0, .L9+28
 251 0090 FFF7FEFF 		bl	spiUnselect
 252              	.LVL20:
 253              		.loc 2 231 0
 254 0094 2846     		mov	r0, r5
 255 0096 FFF7FEFF 		bl	chThdSleepUntil
 256              	.LVL21:
 257              	.LBE89:
 258              		.loc 2 232 0
 259 009a D0E7     		b	.L5
 260              	.L10:
 261              		.align	2
 262              	.L9:
 263 009c 00000000 		.word	ch
 264 00a0 00000000 		.word	.LC0
 265 00a4 00000000 		.word	SPID1
 266 00a8 00000000 		.word	.LANCHOR0
 267 00ac 00000000 		.word	.LANCHOR1
 268 00b0 03000000 		.word	.LANCHOR0+3
 269 00b4 03000000 		.word	.LANCHOR1+3
 270 00b8 00000000 		.word	SPID2
 271              		.cfi_endproc
 272              	.LFE263:
 273              		.size	Thread1, .-Thread1
 274              		.section	.text.command_set_pwm,"ax",%progbits
 275              		.align	2
 276              		.p2align 4,,15
 277              		.thumb
 278              		.thumb_func
 279              		.type	command_set_pwm, %function
 280              	command_set_pwm:
 281              	.LFB262:
 282              		.loc 2 89 0
 283              		.cfi_startproc
 284              		@ args = 0, pretend = 0, frame = 0
 285              		@ frame_needed = 0, uses_anonymous_args = 0
ARM GAS  /tmp/cc7YPD4S.s 			page 6


 286              	.LVL22:
 287              		.loc 2 91 0
 288 0000 0429     		cmp	r1, #4
 289 0002 16D1     		bne	.L12
 290              		.loc 2 89 0
 291 0004 70B5     		push	{r4, r5, r6, lr}
 292              		.cfi_def_cfa_offset 16
 293              		.cfi_offset 4, -16
 294              		.cfi_offset 5, -12
 295              		.cfi_offset 6, -8
 296              		.cfi_offset 14, -4
 297 0006 0646     		mov	r6, r0
 298 0008 151F     		subs	r5, r2, #4
 299              		.loc 2 91 0
 300 000a 0024     		movs	r4, #0
 301              	.LVL23:
 302              	.L14:
 303              	.LBB95:
 304              	.LBB96:
 305              	.LBB97:
 306              		.loc 2 99 0
 307 000c 0022     		movs	r2, #0
 308 000e 1146     		mov	r1, r2
 309 0010 55F8040F 		ldr	r0, [r5, #4]!
 310 0014 FFF7FEFF 		bl	strtol
 311              	.LVL24:
 312 0018 0346     		mov	r3, r0
 313              	.LVL25:
 314              		.loc 2 101 0
 315 001a 642B     		cmp	r3, #100
 316              		.loc 2 107 0
 317 001c E1B2     		uxtb	r1, r4
 318 001e 0246     		mov	r2, r0
 319              	.LBE97:
 320              		.loc 2 97 0
 321 0020 04F10104 		add	r4, r4, #1
 322              	.LVL26:
 323              	.LBB98:
 324              		.loc 2 107 0
 325 0024 0748     		ldr	r0, .L20
 326              	.LVL27:
 327              		.loc 2 101 0
 328 0026 07D8     		bhi	.L19
 329              		.loc 2 107 0
 330 0028 FFF7FEFF 		bl	pwmEnableChannel
 331              	.LVL28:
 332              	.LBE98:
 333              		.loc 2 97 0
 334 002c 042C     		cmp	r4, #4
 335 002e EDD1     		bne	.L14
 336 0030 70BD     		pop	{r4, r5, r6, pc}
 337              	.LVL29:
 338              	.L12:
 339              		.cfi_def_cfa_offset 0
 340              		.cfi_restore 4
 341              		.cfi_restore 5
 342              		.cfi_restore 6
ARM GAS  /tmp/cc7YPD4S.s 			page 7


 343              		.cfi_restore 14
 344              	.LBE96:
 345              	.LBE95:
 346              		.loc 2 93 0
 347 0032 0549     		ldr	r1, .L20+4
 348              	.LVL30:
 349 0034 FFF7FEBF 		b	chprintf
 350              	.LVL31:
 351              	.L19:
 352              		.cfi_def_cfa_offset 16
 353              		.cfi_offset 4, -16
 354              		.cfi_offset 5, -12
 355              		.cfi_offset 6, -8
 356              		.cfi_offset 14, -4
 357              	.LBB103:
 358              	.LBB101:
 359              	.LBB99:
 360              		.loc 2 103 0
 361 0038 3046     		mov	r0, r6
 362 003a 0449     		ldr	r1, .L20+8
 363              	.LBE99:
 364              	.LBE101:
 365              	.LBE103:
 366              		.loc 2 112 0
 367 003c BDE87040 		pop	{r4, r5, r6, lr}
 368              		.cfi_restore 14
 369              		.cfi_restore 6
 370              		.cfi_restore 5
 371              		.cfi_restore 4
 372              		.cfi_def_cfa_offset 0
 373              	.LVL32:
 374              	.LBB104:
 375              	.LBB102:
 376              	.LBB100:
 377              		.loc 2 103 0
 378 0040 FFF7FEBF 		b	chprintf
 379              	.LVL33:
 380              	.L21:
 381              		.align	2
 382              	.L20:
 383 0044 00000000 		.word	PWMD1
 384 0048 24000000 		.word	.LC2
 385 004c 08000000 		.word	.LC1
 386              	.LBE100:
 387              	.LBE102:
 388              	.LBE104:
 389              		.cfi_endproc
 390              	.LFE262:
 391              		.size	command_set_pwm, .-command_set_pwm
 392              		.section	.text.cmd_test,"ax",%progbits
 393              		.align	2
 394              		.p2align 4,,15
 395              		.thumb
 396              		.thumb_func
 397              		.type	cmd_test, %function
 398              	cmd_test:
 399              	.LFB261:
ARM GAS  /tmp/cc7YPD4S.s 			page 8


 400              		.loc 2 72 0
 401              		.cfi_startproc
 402              		@ args = 0, pretend = 0, frame = 0
 403              		@ frame_needed = 0, uses_anonymous_args = 0
 404              	.LVL34:
 405              		.loc 2 76 0
 406 0000 0029     		cmp	r1, #0
 407 0002 02DD     		ble	.L23
 408              		.loc 2 77 0
 409 0004 0E49     		ldr	r1, .L27
 410              	.LVL35:
 411 0006 FFF7FEBF 		b	chprintf
 412              	.LVL36:
 413              	.L23:
 414              		.loc 2 72 0
 415 000a 10B5     		push	{r4, lr}
 416              		.cfi_def_cfa_offset 8
 417              		.cfi_offset 4, -8
 418              		.cfi_offset 14, -4
 419              	.LBB111:
 420              	.LBB112:
 421              	.LBB113:
 422              	.LBB114:
 423              	.LBB115:
 424              	.LBB116:
 425              		.file 5 "/home/selim/working/ChibiOS/os/rt/include/chthreads.h"
 426              		.loc 5 176 0
 427 000c 0D4A     		ldr	r2, .L27+4
 428              	.LVL37:
 429              	.LBE116:
 430              	.LBE115:
 431              	.LBE114:
 432              	.LBE113:
 433              		.loc 2 80 0
 434 000e 0E4B     		ldr	r3, .L27+8
 435              	.LBB118:
 436              	.LBB117:
 437              		.loc 5 189 0
 438 0010 9269     		ldr	r2, [r2, #24]
 439              	.LBE117:
 440              	.LBE118:
 441              	.LBE112:
 442              	.LBE111:
 443              		.loc 2 72 0
 444 0012 82B0     		sub	sp, sp, #8
 445              		.cfi_def_cfa_offset 16
 446 0014 0446     		mov	r4, r0
 447              	.LBB122:
 448              	.LBB119:
 449              		.loc 2 80 0
 450 0016 9268     		ldr	r2, [r2, #8]
 451 0018 0090     		str	r0, [sp]
 452 001a 4FF4E471 		mov	r1, #456
 453              	.LVL38:
 454 001e 0020     		movs	r0, #0
 455              	.LVL39:
 456 0020 FFF7FEFF 		bl	chThdCreateFromHeap
ARM GAS  /tmp/cc7YPD4S.s 			page 9


 457              	.LVL40:
 458              		.loc 2 82 0
 459 0024 20B1     		cbz	r0, .L26
 460              	.LBE119:
 461              	.LBE122:
 462              		.loc 2 87 0
 463 0026 02B0     		add	sp, sp, #8
 464              		.cfi_remember_state
 465              		.cfi_def_cfa_offset 8
 466              		@ sp needed
 467 0028 BDE81040 		pop	{r4, lr}
 468              		.cfi_restore 14
 469              		.cfi_restore 4
 470              		.cfi_def_cfa_offset 0
 471              	.LVL41:
 472              	.LBB123:
 473              	.LBB120:
 474              		.loc 2 86 0
 475 002c FFF7FEBF 		b	chThdWait
 476              	.LVL42:
 477              	.L26:
 478              		.cfi_restore_state
 479              		.loc 2 83 0
 480 0030 0649     		ldr	r1, .L27+12
 481 0032 2046     		mov	r0, r4
 482              	.LVL43:
 483              	.LBE120:
 484              	.LBE123:
 485              		.loc 2 87 0
 486 0034 02B0     		add	sp, sp, #8
 487              		.cfi_def_cfa_offset 8
 488              		@ sp needed
 489 0036 BDE81040 		pop	{r4, lr}
 490              		.cfi_restore 14
 491              		.cfi_restore 4
 492              		.cfi_def_cfa_offset 0
 493              	.LVL44:
 494              	.LBB124:
 495              	.LBB121:
 496              		.loc 2 83 0
 497 003a FFF7FEBF 		b	chprintf
 498              	.LVL45:
 499              	.L28:
 500 003e 00BF     		.align	2
 501              	.L27:
 502 0040 40000000 		.word	.LC3
 503 0044 00000000 		.word	ch
 504 0048 00000000 		.word	TestThread
 505 004c 50000000 		.word	.LC4
 506              	.LBE121:
 507              	.LBE124:
 508              		.cfi_endproc
 509              	.LFE261:
 510              		.size	cmd_test, .-cmd_test
 511              		.section	.text.cmd_threads,"ax",%progbits
 512              		.align	2
 513              		.p2align 4,,15
ARM GAS  /tmp/cc7YPD4S.s 			page 10


 514              		.thumb
 515              		.thumb_func
 516              		.type	cmd_threads, %function
 517              	cmd_threads:
 518              	.LFB260:
 519              		.loc 2 52 0
 520              		.cfi_startproc
 521              		@ args = 0, pretend = 0, frame = 0
 522              		@ frame_needed = 0, uses_anonymous_args = 0
 523              	.LVL46:
 524              		.loc 2 57 0
 525 0000 0029     		cmp	r1, #0
 526 0002 02DD     		ble	.L30
 527              		.loc 2 58 0
 528 0004 1149     		ldr	r1, .L34
 529              	.LVL47:
 530 0006 FFF7FEBF 		b	chprintf
 531              	.LVL48:
 532              	.L30:
 533              		.loc 2 52 0
 534 000a 70B5     		push	{r4, r5, r6, lr}
 535              		.cfi_def_cfa_offset 16
 536              		.cfi_offset 4, -16
 537              		.cfi_offset 5, -12
 538              		.cfi_offset 6, -8
 539              		.cfi_offset 14, -4
 540              	.LBB127:
 541              	.LBB128:
 542              		.loc 2 61 0
 543 000c 1049     		ldr	r1, .L34+4
 544              	.LVL49:
 545 000e 114E     		ldr	r6, .L34+8
 546              	.LBE128:
 547              	.LBE127:
 548              		.loc 2 52 0
 549 0010 84B0     		sub	sp, sp, #16
 550              		.cfi_def_cfa_offset 32
 551 0012 0546     		mov	r5, r0
 552              	.LVL50:
 553              	.LBB130:
 554              	.LBB129:
 555              		.loc 2 61 0
 556 0014 FFF7FEFF 		bl	chprintf
 557              	.LVL51:
 558              		.loc 2 62 0
 559 0018 FFF7FEFF 		bl	chRegFirstThread
 560              	.LVL52:
 561 001c 0446     		mov	r4, r0
 562              	.LVL53:
 563              	.L31:
 564              		.loc 2 64 0
 565 001e 227F     		ldrb	r2, [r4, #28]	@ zero_extendqisi2
 566 0020 E368     		ldr	r3, [r4, #12]
 567 0022 56F82220 		ldr	r2, [r6, r2, lsl #2]
 568 0026 0292     		str	r2, [sp, #8]
 569 0028 A27F     		ldrb	r2, [r4, #30]	@ zero_extendqisi2
 570 002a 0B49     		ldr	r1, .L34+12
ARM GAS  /tmp/cc7YPD4S.s 			page 11


 571 002c 013A     		subs	r2, r2, #1
 572 002e 0192     		str	r2, [sp, #4]
 573 0030 A268     		ldr	r2, [r4, #8]
 574 0032 0092     		str	r2, [sp]
 575 0034 2846     		mov	r0, r5
 576              	.LVL54:
 577 0036 2246     		mov	r2, r4
 578 0038 FFF7FEFF 		bl	chprintf
 579              	.LVL55:
 580              		.loc 2 68 0
 581 003c 2046     		mov	r0, r4
 582 003e FFF7FEFF 		bl	chRegNextThread
 583              	.LVL56:
 584              		.loc 2 69 0
 585 0042 0446     		mov	r4, r0
 586 0044 0028     		cmp	r0, #0
 587 0046 EAD1     		bne	.L31
 588              	.LBE129:
 589              	.LBE130:
 590              		.loc 2 70 0
 591 0048 04B0     		add	sp, sp, #16
 592              		.cfi_def_cfa_offset 16
 593              		@ sp needed
 594 004a 70BD     		pop	{r4, r5, r6, pc}
 595              	.LVL57:
 596              	.L35:
 597              		.align	2
 598              	.L34:
 599 004c 60000000 		.word	.LC5
 600 0050 74000000 		.word	.LC6
 601 0054 00000000 		.word	.LANCHOR2
 602 0058 9C000000 		.word	.LC7
 603              		.cfi_endproc
 604              	.LFE260:
 605              		.size	cmd_threads, .-cmd_threads
 606              		.section	.text.cmd_mem,"ax",%progbits
 607              		.align	2
 608              		.p2align 4,,15
 609              		.thumb
 610              		.thumb_func
 611              		.type	cmd_mem, %function
 612              	cmd_mem:
 613              	.LFB259:
 614              		.loc 2 38 0
 615              		.cfi_startproc
 616              		@ args = 0, pretend = 0, frame = 8
 617              		@ frame_needed = 0, uses_anonymous_args = 0
 618              	.LVL58:
 619 0000 30B5     		push	{r4, r5, lr}
 620              		.cfi_def_cfa_offset 12
 621              		.cfi_offset 4, -12
 622              		.cfi_offset 5, -8
 623              		.cfi_offset 14, -4
 624              		.loc 2 42 0
 625 0002 0029     		cmp	r1, #0
 626              		.loc 2 38 0
 627 0004 83B0     		sub	sp, sp, #12
ARM GAS  /tmp/cc7YPD4S.s 			page 12


 628              		.cfi_def_cfa_offset 24
 629              		.loc 2 42 0
 630 0006 04DD     		ble	.L37
 631              		.loc 2 43 0
 632 0008 0E49     		ldr	r1, .L40
 633              	.LVL59:
 634 000a FFF7FEFF 		bl	chprintf
 635              	.LVL60:
 636              		.loc 2 50 0
 637 000e 03B0     		add	sp, sp, #12
 638              		.cfi_remember_state
 639              		.cfi_def_cfa_offset 12
 640              		@ sp needed
 641 0010 30BD     		pop	{r4, r5, pc}
 642              	.LVL61:
 643              	.L37:
 644              		.cfi_restore_state
 645 0012 0446     		mov	r4, r0
 646              	.LVL62:
 647              	.LBB133:
 648              	.LBB134:
 649              		.loc 2 46 0
 650 0014 01A9     		add	r1, sp, #4
 651              	.LVL63:
 652 0016 0020     		movs	r0, #0
 653              	.LVL64:
 654 0018 FFF7FEFF 		bl	chHeapStatus
 655              	.LVL65:
 656 001c 0546     		mov	r5, r0
 657              	.LVL66:
 658              		.loc 2 47 0
 659 001e FFF7FEFF 		bl	chCoreGetStatusX
 660              	.LVL67:
 661 0022 0949     		ldr	r1, .L40+4
 662 0024 0246     		mov	r2, r0
 663 0026 2046     		mov	r0, r4
 664 0028 FFF7FEFF 		bl	chprintf
 665              	.LVL68:
 666              		.loc 2 48 0
 667 002c 2A46     		mov	r2, r5
 668 002e 0749     		ldr	r1, .L40+8
 669 0030 2046     		mov	r0, r4
 670 0032 FFF7FEFF 		bl	chprintf
 671              	.LVL69:
 672              		.loc 2 49 0
 673 0036 2046     		mov	r0, r4
 674 0038 019A     		ldr	r2, [sp, #4]
 675 003a 0549     		ldr	r1, .L40+12
 676 003c FFF7FEFF 		bl	chprintf
 677              	.LVL70:
 678              	.LBE134:
 679              	.LBE133:
 680              		.loc 2 50 0
 681 0040 03B0     		add	sp, sp, #12
 682              		.cfi_def_cfa_offset 12
 683              		@ sp needed
 684 0042 30BD     		pop	{r4, r5, pc}
ARM GAS  /tmp/cc7YPD4S.s 			page 13


 685              	.LVL71:
 686              	.L41:
 687              		.align	2
 688              	.L40:
 689 0044 B8000000 		.word	.LC8
 690 0048 C8000000 		.word	.LC9
 691 004c E8000000 		.word	.LC10
 692 0050 00010000 		.word	.LC11
 693              		.cfi_endproc
 694              	.LFE259:
 695              		.size	cmd_mem, .-cmd_mem
 696              		.section	.text.startup.main,"ax",%progbits
 697              		.align	2
 698              		.p2align 4,,15
 699              		.global	main
 700              		.thumb
 701              		.thumb_func
 702              		.type	main, %function
 703              	main:
 704              	.LFB264:
 705              		.loc 2 242 0
 706              		.cfi_startproc
 707              		@ args = 0, pretend = 0, frame = 0
 708              		@ frame_needed = 0, uses_anonymous_args = 0
 709              	.LVL72:
 710 0000 70B5     		push	{r4, r5, r6, lr}
 711              		.cfi_def_cfa_offset 16
 712              		.cfi_offset 4, -16
 713              		.cfi_offset 5, -12
 714              		.cfi_offset 6, -8
 715              		.cfi_offset 14, -4
 716 0002 574D     		ldr	r5, .L49
 717              		.loc 2 264 0
 718 0004 574E     		ldr	r6, .L49+4
 719              		.loc 2 298 0
 720 0006 584C     		ldr	r4, .L49+8
 721              		.loc 2 242 0
 722 0008 82B0     		sub	sp, sp, #8
 723              		.cfi_def_cfa_offset 24
 724              		.loc 2 252 0
 725 000a FFF7FEFF 		bl	halInit
 726              	.LVL73:
 727              		.loc 2 253 0
 728 000e FFF7FEFF 		bl	chSysInit
 729              	.LVL74:
 730              		.loc 2 258 0
 731 0012 FFF7FEFF 		bl	shellInit
 732              	.LVL75:
 733              		.loc 2 263 0
 734 0016 2846     		mov	r0, r5
 735 0018 FFF7FEFF 		bl	sduObjectInit
 736              	.LVL76:
 737              		.loc 2 264 0
 738 001c 3146     		mov	r1, r6
 739 001e 2846     		mov	r0, r5
 740 0020 FFF7FEFF 		bl	sduStart
 741              	.LVL77:
ARM GAS  /tmp/cc7YPD4S.s 			page 14


 742              		.loc 2 271 0
 743 0024 3368     		ldr	r3, [r6]
 744 0026 1A6D     		ldr	r2, [r3, #80]
 745 0028 936B     		ldr	r3, [r2, #56]
 746 002a 23F40023 		bic	r3, r3, #524288
 747 002e 9363     		str	r3, [r2, #56]
 748              		.loc 2 272 0
 749 0030 42F21070 		movw	r0, #10000
 750 0034 FFF7FEFF 		bl	chThdSleep
 751              	.LVL78:
 752              		.loc 2 273 0
 753 0038 3068     		ldr	r0, [r6]
 754 003a 4C49     		ldr	r1, .L49+12
 755 003c FFF7FEFF 		bl	usbStart
 756              	.LVL79:
 757              		.loc 2 274 0
 758 0040 3368     		ldr	r3, [r6]
 759              		.loc 2 280 0
 760 0042 4B48     		ldr	r0, .L49+16
 761              		.loc 2 274 0
 762 0044 1A6D     		ldr	r2, [r3, #80]
 763 0046 936B     		ldr	r3, [r2, #56]
 764 0048 43F40023 		orr	r3, r3, #524288
 765 004c 9363     		str	r3, [r2, #56]
 766              		.loc 2 280 0
 767 004e 0021     		movs	r1, #0
 768 0050 FFF7FEFF 		bl	sdStart
 769              	.LVL80:
 770              		.loc 2 281 0
 771 0054 40F28232 		movw	r2, #898
 772 0058 0421     		movs	r1, #4
 773 005a 4648     		ldr	r0, .L49+20
 774 005c FFF7FEFF 		bl	_pal_lld_setgroupmode
 775              	.LVL81:
 776              		.loc 2 282 0
 777 0060 40F28232 		movw	r2, #898
 778 0064 0821     		movs	r1, #8
 779 0066 4348     		ldr	r0, .L49+20
 780 0068 FFF7FEFF 		bl	_pal_lld_setgroupmode
 781              	.LVL82:
 782              		.loc 2 288 0
 783 006c 4249     		ldr	r1, .L49+24
 784 006e 4348     		ldr	r0, .L49+28
 785 0070 FFF7FEFF 		bl	spiStart
 786              	.LVL83:
 787              		.loc 2 297 0
 788 0074 4249     		ldr	r1, .L49+32
 789 0076 4348     		ldr	r0, .L49+36
 790 0078 FFF7FEFF 		bl	spiStart
 791              	.LVL84:
 792              		.loc 2 298 0
 793 007c 4FF48051 		mov	r1, #4096
 794 0080 2183     		strh	r1, [r4, #24]	@ movhi
 795              		.loc 2 299 0
 796 0082 2046     		mov	r0, r4
 797 0084 1922     		movs	r2, #25
 798 0086 FFF7FEFF 		bl	_pal_lld_setgroupmode
ARM GAS  /tmp/cc7YPD4S.s 			page 15


 799              	.LVL85:
 800              		.loc 2 301 0
 801 008a 2046     		mov	r0, r4
 802 008c 40F29A22 		movw	r2, #666
 803 0090 4FF40051 		mov	r1, #8192
 804 0094 FFF7FEFF 		bl	_pal_lld_setgroupmode
 805              	.LVL86:
 806              		.loc 2 303 0
 807 0098 2046     		mov	r0, r4
 808 009a 40F28222 		movw	r2, #642
 809 009e 4FF48041 		mov	r1, #16384
 810 00a2 FFF7FEFF 		bl	_pal_lld_setgroupmode
 811              	.LVL87:
 812              		.loc 2 304 0
 813 00a6 2046     		mov	r0, r4
 814 00a8 40F29A22 		movw	r2, #666
 815 00ac 4FF40041 		mov	r1, #32768
 816 00b0 FFF7FEFF 		bl	_pal_lld_setgroupmode
 817              	.LVL88:
 818              		.loc 2 310 0
 819 00b4 3449     		ldr	r1, .L49+40
 820 00b6 3548     		ldr	r0, .L49+44
 821 00b8 FFF7FEFF 		bl	pwmStart
 822              	.LVL89:
 823              		.loc 2 311 0
 824 00bc 8222     		movs	r2, #130
 825 00be 4FF40071 		mov	r1, #512
 826 00c2 3348     		ldr	r0, .L49+48
 827 00c4 FFF7FEFF 		bl	_pal_lld_setgroupmode
 828              	.LVL90:
 829              		.loc 2 312 0
 830 00c8 8222     		movs	r2, #130
 831 00ca 4FF40061 		mov	r1, #2048
 832 00ce 3048     		ldr	r0, .L49+48
 833 00d0 FFF7FEFF 		bl	_pal_lld_setgroupmode
 834              	.LVL91:
 835              		.loc 2 313 0
 836 00d4 8222     		movs	r2, #130
 837 00d6 4FF40051 		mov	r1, #8192
 838 00da 2D48     		ldr	r0, .L49+48
 839 00dc FFF7FEFF 		bl	_pal_lld_setgroupmode
 840              	.LVL92:
 841              		.loc 2 314 0
 842 00e0 8222     		movs	r2, #130
 843 00e2 4FF48041 		mov	r1, #16384
 844 00e6 2A48     		ldr	r0, .L49+48
 845 00e8 FFF7FEFF 		bl	_pal_lld_setgroupmode
 846              	.LVL93:
 847              		.loc 2 316 0
 848 00ec 3222     		movs	r2, #50
 849 00ee 0021     		movs	r1, #0
 850 00f0 2648     		ldr	r0, .L49+44
 851 00f2 FFF7FEFF 		bl	pwmEnableChannel
 852              	.LVL94:
 853              		.loc 2 317 0
 854 00f6 3222     		movs	r2, #50
 855 00f8 0121     		movs	r1, #1
ARM GAS  /tmp/cc7YPD4S.s 			page 16


 856 00fa 2448     		ldr	r0, .L49+44
 857 00fc FFF7FEFF 		bl	pwmEnableChannel
 858              	.LVL95:
 859              		.loc 2 318 0
 860 0100 3222     		movs	r2, #50
 861 0102 0221     		movs	r1, #2
 862 0104 2148     		ldr	r0, .L49+44
 863 0106 FFF7FEFF 		bl	pwmEnableChannel
 864              	.LVL96:
 865              		.loc 2 324 0
 866 010a 0024     		movs	r4, #0
 867              		.loc 2 319 0
 868 010c 3222     		movs	r2, #50
 869 010e 0321     		movs	r1, #3
 870 0110 1E48     		ldr	r0, .L49+44
 871 0112 FFF7FEFF 		bl	pwmEnableChannel
 872              	.LVL97:
 873              		.loc 2 324 0
 874 0116 0094     		str	r4, [sp]
 875 0118 1E4B     		ldr	r3, .L49+52
 876 011a 1F48     		ldr	r0, .L49+56
 877 011c 4A22     		movs	r2, #74
 878 011e 4FF4A471 		mov	r1, #328
 879 0122 FFF7FEFF 		bl	chThdCreateStatic
 880              	.LVL98:
 881              		.loc 2 332 0
 882 0126 44B1     		cbz	r4, .L47
 883              	.L43:
 884              		.loc 2 340 0
 885 0128 237F     		ldrb	r3, [r4, #28]	@ zero_extendqisi2
 886 012a 0F2B     		cmp	r3, #15
 887 012c 13D0     		beq	.L48
 888              	.LVL99:
 889              	.L44:
 890              		.loc 2 346 0
 891 012e 41F28830 		movw	r0, #5000
 892 0132 FFF7FEFF 		bl	chThdSleep
 893              	.LVL100:
 894              		.loc 2 332 0
 895 0136 002C     		cmp	r4, #0
 896 0138 F6D1     		bne	.L43
 897              	.L47:
 898              	.LVL101:
 899              		.loc 2 333 0
 900 013a D5F85432 		ldr	r3, [r5, #596]
 901 013e 1B68     		ldr	r3, [r3]
 902 0140 1B78     		ldrb	r3, [r3]	@ zero_extendqisi2
 903 0142 042B     		cmp	r3, #4
 904 0144 F3D1     		bne	.L44
 905              		.loc 2 335 0
 906 0146 4022     		movs	r2, #64
 907 0148 40F6C801 		movw	r1, #2248
 908 014c 1348     		ldr	r0, .L49+60
 909 014e FFF7FEFF 		bl	shellCreate
 910              	.LVL102:
 911 0152 0446     		mov	r4, r0
 912              	.LVL103:
ARM GAS  /tmp/cc7YPD4S.s 			page 17


 913 0154 EBE7     		b	.L44
 914              	.LVL104:
 915              	.L48:
 916              		.loc 2 342 0
 917 0156 2046     		mov	r0, r4
 918 0158 FFF7FEFF 		bl	chThdRelease
 919              	.LVL105:
 920              		.loc 2 343 0
 921 015c 0024     		movs	r4, #0
 922              	.LVL106:
 923 015e E6E7     		b	.L44
 924              	.L50:
 925              		.align	2
 926              	.L49:
 927 0160 00000000 		.word	.LANCHOR3
 928 0164 00000000 		.word	serusbcfg
 929 0168 00040240 		.word	1073873920
 930 016c 00000000 		.word	usbcfg
 931 0170 00000000 		.word	SD2
 932 0174 00000240 		.word	1073872896
 933 0178 00000000 		.word	.LANCHOR4
 934 017c 00000000 		.word	SPID1
 935 0180 00000000 		.word	.LANCHOR5
 936 0184 00000000 		.word	SPID2
 937 0188 00000000 		.word	.LANCHOR6
 938 018c 00000000 		.word	PWMD1
 939 0190 00100240 		.word	1073876992
 940 0194 00000000 		.word	Thread1
 941 0198 00000000 		.word	.LANCHOR7
 942 019c 00000000 		.word	.LANCHOR8
 943              		.cfi_endproc
 944              	.LFE264:
 945              		.size	main, .-main
 946              		.global	SDU1
 947              		.section	.rodata.commands,"a",%progbits
 948              		.align	2
 949              		.type	commands, %object
 950              		.size	commands, 40
 951              	commands:
 952 0000 AC010000 		.word	.LC28
 953 0004 00000000 		.word	cmd_mem
 954 0008 B0010000 		.word	.LC29
 955 000c 00000000 		.word	cmd_threads
 956 0010 B8010000 		.word	.LC30
 957 0014 00000000 		.word	cmd_test
 958 0018 C0010000 		.word	.LC31
 959 001c 00000000 		.word	command_set_pwm
 960 0020 00000000 		.word	0
 961 0024 00000000 		.word	0
 962              		.section	.bss.waThread1,"aw",%nobits
 963              		.align	3
 964              		.set	.LANCHOR7,. + 0
 965              		.type	waThread1, %object
 966              		.size	waThread1, 328
 967              	waThread1:
 968 0000 00000000 		.space	328
 968      00000000 
ARM GAS  /tmp/cc7YPD4S.s 			page 18


 968      00000000 
 968      00000000 
 968      00000000 
 969              		.section	.bss.SDU1,"aw",%nobits
 970              		.align	2
 971              		.set	.LANCHOR3,. + 0
 972              		.type	SDU1, %object
 973              		.size	SDU1, 600
 974              	SDU1:
 975 0000 00000000 		.space	600
 975      00000000 
 975      00000000 
 975      00000000 
 975      00000000 
 976              		.section	.rodata.states.8287,"a",%progbits
 977              		.align	2
 978              		.set	.LANCHOR2,. + 0
 979              		.type	states.8287, %object
 980              		.size	states.8287, 64
 981              	states.8287:
 982 0000 20010000 		.word	.LC12
 983 0004 28010000 		.word	.LC13
 984 0008 30010000 		.word	.LC14
 985 000c 38010000 		.word	.LC15
 986 0010 44010000 		.word	.LC16
 987 0014 4C010000 		.word	.LC17
 988 0018 54010000 		.word	.LC18
 989 001c 5C010000 		.word	.LC19
 990 0020 64010000 		.word	.LC20
 991 0024 70010000 		.word	.LC21
 992 0028 78010000 		.word	.LC22
 993 002c 80010000 		.word	.LC23
 994 0030 8C010000 		.word	.LC24
 995 0034 94010000 		.word	.LC25
 996 0038 9C010000 		.word	.LC26
 997 003c A4010000 		.word	.LC27
 998              		.section	.rodata.spi2cfg,"a",%progbits
 999              		.align	2
 1000              		.set	.LANCHOR5,. + 0
 1001              		.type	spi2cfg, %object
 1002              		.size	spi2cfg, 12
 1003              	spi2cfg:
 1004 0000 00000000 		.word	0
 1005 0004 00040240 		.word	1073873920
 1006 0008 0C00     		.short	12
 1007 000a 0000     		.short	0
 1008              		.section	.bss.ybuf.8317,"aw",%nobits
 1009              		.align	2
 1010              		.set	.LANCHOR1,. + 0
 1011              		.type	ybuf.8317, %object
 1012              		.size	ybuf.8317, 4
 1013              	ybuf.8317:
 1014 0000 00000000 		.space	4
 1015              		.section	.rodata.str1.4,"aMS",%progbits,1
 1016              		.align	2
 1017              	.LC0:
 1018 0000 72656164 		.ascii	"reader\000"
ARM GAS  /tmp/cc7YPD4S.s 			page 19


 1018      657200
 1019 0007 00       		.space	1
 1020              	.LC1:
 1021 0008 70776D20 		.ascii	"pwm value is out of range\015\012\000"
 1021      76616C75 
 1021      65206973 
 1021      206F7574 
 1021      206F6620 
 1022              	.LC2:
 1023 0024 70776D5F 		.ascii	"pwm_set needs 4 arguments\000"
 1023      73657420 
 1023      6E656564 
 1023      73203420 
 1023      61726775 
 1024 003e 0000     		.space	2
 1025              	.LC3:
 1026 0040 55736167 		.ascii	"Usage: test\015\012\000"
 1026      653A2074 
 1026      6573740D 
 1026      0A00
 1027 004e 0000     		.space	2
 1028              	.LC4:
 1029 0050 6F757420 		.ascii	"out of memory\015\012\000"
 1029      6F66206D 
 1029      656D6F72 
 1029      790D0A00 
 1030              	.LC5:
 1031 0060 55736167 		.ascii	"Usage: threads\015\012\000"
 1031      653A2074 
 1031      68726561 
 1031      64730D0A 
 1031      00
 1032 0071 000000   		.space	3
 1033              	.LC6:
 1034 0074 20202020 		.ascii	"    addr    stack prio refs     state\015\012\000"
 1034      61646472 
 1034      20202020 
 1034      73746163 
 1034      6B207072 
 1035              	.LC7:
 1036 009c 2530386C 		.ascii	"%08lx %08lx %4lu %4lu %9s\015\012\000"
 1036      78202530 
 1036      386C7820 
 1036      25346C75 
 1036      2025346C 
 1037              	.LC8:
 1038 00b8 55736167 		.ascii	"Usage: mem\015\012\000"
 1038      653A206D 
 1038      656D0D0A 
 1038      00
 1039 00c5 000000   		.space	3
 1040              	.LC9:
 1041 00c8 636F7265 		.ascii	"core free memory : %u bytes\015\012\000"
 1041      20667265 
 1041      65206D65 
 1041      6D6F7279 
 1041      203A2025 
ARM GAS  /tmp/cc7YPD4S.s 			page 20


 1042 00e6 0000     		.space	2
 1043              	.LC10:
 1044 00e8 68656170 		.ascii	"heap fragments   : %u\015\012\000"
 1044      20667261 
 1044      676D656E 
 1044      74732020 
 1044      203A2025 
 1045              	.LC11:
 1046 0100 68656170 		.ascii	"heap free total  : %u bytes\015\012\000"
 1046      20667265 
 1046      6520746F 
 1046      74616C20 
 1046      203A2025 
 1047 011e 0000     		.space	2
 1048              	.LC12:
 1049 0120 52454144 		.ascii	"READY\000"
 1049      5900
 1050 0126 0000     		.space	2
 1051              	.LC13:
 1052 0128 43555252 		.ascii	"CURRENT\000"
 1052      454E5400 
 1053              	.LC14:
 1054 0130 57545354 		.ascii	"WTSTART\000"
 1054      41525400 
 1055              	.LC15:
 1056 0138 53555350 		.ascii	"SUSPENDED\000"
 1056      454E4445 
 1056      4400
 1057 0142 0000     		.space	2
 1058              	.LC16:
 1059 0144 51554555 		.ascii	"QUEUED\000"
 1059      454400
 1060 014b 00       		.space	1
 1061              	.LC17:
 1062 014c 57545345 		.ascii	"WTSEM\000"
 1062      4D00
 1063 0152 0000     		.space	2
 1064              	.LC18:
 1065 0154 57544D54 		.ascii	"WTMTX\000"
 1065      5800
 1066 015a 0000     		.space	2
 1067              	.LC19:
 1068 015c 5754434F 		.ascii	"WTCOND\000"
 1068      4E4400
 1069 0163 00       		.space	1
 1070              	.LC20:
 1071 0164 534C4545 		.ascii	"SLEEPING\000"
 1071      50494E47 
 1071      00
 1072 016d 000000   		.space	3
 1073              	.LC21:
 1074 0170 57544558 		.ascii	"WTEXIT\000"
 1074      495400
 1075 0177 00       		.space	1
 1076              	.LC22:
 1077 0178 57544F52 		.ascii	"WTOREVT\000"
 1077      45565400 
ARM GAS  /tmp/cc7YPD4S.s 			page 21


 1078              	.LC23:
 1079 0180 5754414E 		.ascii	"WTANDEVT\000"
 1079      44455654 
 1079      00
 1080 0189 000000   		.space	3
 1081              	.LC24:
 1082 018c 534E444D 		.ascii	"SNDMSGQ\000"
 1082      53475100 
 1083              	.LC25:
 1084 0194 534E444D 		.ascii	"SNDMSG\000"
 1084      534700
 1085 019b 00       		.space	1
 1086              	.LC26:
 1087 019c 57544D53 		.ascii	"WTMSG\000"
 1087      4700
 1088 01a2 0000     		.space	2
 1089              	.LC27:
 1090 01a4 46494E41 		.ascii	"FINAL\000"
 1090      4C00
 1091 01aa 0000     		.space	2
 1092              	.LC28:
 1093 01ac 6D656D00 		.ascii	"mem\000"
 1094              	.LC29:
 1095 01b0 74687265 		.ascii	"threads\000"
 1095      61647300 
 1096              	.LC30:
 1097 01b8 74657374 		.ascii	"test\000"
 1097      00
 1098 01bd 000000   		.space	3
 1099              	.LC31:
 1100 01c0 7365745F 		.ascii	"set_pwm\000"
 1100      70776D00 
 1101              		.section	.rodata.pwmcfg,"a",%progbits
 1102              		.align	2
 1103              		.set	.LANCHOR6,. + 0
 1104              		.type	pwmcfg, %object
 1105              		.size	pwmcfg, 52
 1106              	pwmcfg:
 1107 0000 A0860100 		.word	100000
 1108 0004 64000000 		.word	100
 1109 0008 00000000 		.word	0
 1110 000c 01000000 		.word	1
 1111 0010 00000000 		.word	0
 1112 0014 01000000 		.word	1
 1113 0018 00000000 		.word	0
 1114 001c 01000000 		.word	1
 1115 0020 00000000 		.word	0
 1116 0024 01000000 		.word	1
 1117 0028 00000000 		.word	0
 1118 002c 00000000 		.word	0
 1119 0030 00000000 		.word	0
 1120              		.section	.rodata.shell_cfg1,"a",%progbits
 1121              		.align	2
 1122              		.set	.LANCHOR8,. + 0
 1123              		.type	shell_cfg1, %object
 1124              		.size	shell_cfg1, 8
 1125              	shell_cfg1:
ARM GAS  /tmp/cc7YPD4S.s 			page 22


 1126 0000 00000000 		.word	SDU1
 1127 0004 00000000 		.word	commands
 1128              		.section	.rodata.spi1cfg,"a",%progbits
 1129              		.align	2
 1130              		.set	.LANCHOR4,. + 0
 1131              		.type	spi1cfg, %object
 1132              		.size	spi1cfg, 12
 1133              	spi1cfg:
 1134 0000 00000000 		.word	0
 1135 0004 00100240 		.word	1073876992
 1136 0008 0300     		.short	3
 1137 000a 1B00     		.short	27
 1138              		.section	.bss.xbuf.8316,"aw",%nobits
 1139              		.align	2
 1140              		.set	.LANCHOR0,. + 0
 1141              		.type	xbuf.8316, %object
 1142              		.size	xbuf.8316, 4
 1143              	xbuf.8316:
 1144 0000 00000000 		.space	4
 1145              		.text
 1146              	.Letext0:
 1147              		.file 6 "/usr/lib/gcc/arm-none-eabi/5.3.1/include/stddef.h"
 1148              		.file 7 "/usr/arm-none-eabi/include/machine/_default_types.h"
 1149              		.file 8 "/usr/arm-none-eabi/include/sys/_stdint.h"
 1150              		.file 9 "/home/selim/working/ChibiOS/os/rt/ports/ARMCMx/compilers/GCC/chtypes.h"
 1151              		.file 10 "/home/selim/working/ChibiOS/os/rt/include/chsystypes.h"
 1152              		.file 11 "/home/selim/working/ChibiOS/os/rt/include/chschd.h"
 1153              		.file 12 "/home/selim/working/ChibiOS/os/ext/CMSIS/ST/stm32f407xx.h"
 1154              		.file 13 "/home/selim/working/ChibiOS/os/rt/ports/ARMCMx/chcore.h"
 1155              		.file 14 "/home/selim/working/ChibiOS/os/rt/ports/ARMCMx/chcore_v7m.h"
 1156              		.file 15 "/home/selim/working/ChibiOS/os/hal/ports/STM32/LLD/TIMv1/stm32_tim.h"
 1157              		.file 16 "/home/selim/working/ChibiOS/os/rt/include/chtm.h"
 1158              		.file 17 "/home/selim/working/ChibiOS/os/rt/include/chsem.h"
 1159              		.file 18 "/home/selim/working/ChibiOS/os/rt/include/chmtx.h"
 1160              		.file 19 "/home/selim/working/ChibiOS/os/rt/include/chevents.h"
 1161              		.file 20 "/home/selim/working/ChibiOS/os/rt/include/chqueues.h"
 1162              		.file 21 "/home/selim/working/ChibiOS/os/rt/include/chstreams.h"
 1163              		.file 22 "/home/selim/working/ChibiOS/os/hal/ports/STM32/STM32F4xx/stm32_dma.h"
 1164              		.file 23 "/home/selim/working/ChibiOS/os/hal/ports/STM32/LLD/GPIOv2/pal_lld.h"
 1165              		.file 24 "/home/selim/working/ChibiOS/os/hal/include/pwm.h"
 1166              		.file 25 "/home/selim/working/ChibiOS/os/hal/ports/STM32/LLD/TIMv1/pwm_lld.h"
 1167              		.file 26 "/home/selim/working/ChibiOS/os/hal/include/serial.h"
 1168              		.file 27 "/home/selim/working/ChibiOS/os/hal/include/spi.h"
 1169              		.file 28 "/home/selim/working/ChibiOS/os/hal/ports/STM32/LLD/SPIv1/spi_lld.h"
 1170              		.file 29 "/home/selim/working/ChibiOS/os/hal/include/usb.h"
 1171              		.file 30 "/home/selim/working/ChibiOS/os/hal/ports/STM32/LLD/OTGv1/usb_lld.h"
 1172              		.file 31 "/home/selim/working/ChibiOS/os/hal/ports/STM32/LLD/OTGv1/stm32_otg.h"
 1173              		.file 32 "/home/selim/working/ChibiOS/os/hal/include/serial_usb.h"
 1174              		.file 33 "/usr/lib/gcc/arm-none-eabi/5.3.1/include/stdarg.h"
 1175              		.file 34 "<built-in>"
 1176              		.file 35 "/home/selim/working/ChibiOS/os/various/shell.h"
 1177              		.file 36 "/home/selim/working/ChibiOS/os/rt/ports/ARMCMx/chcore_timer.h"
 1178              		.file 37 "/home/selim/working/ChibiOS/os/rt/include/chsys.h"
 1179              		.file 38 "/home/selim/working/ChibiOS/os/rt/include/chvt.h"
 1180              		.file 39 "/home/selim/working/ChibiOS/os/ext/CMSIS/include/core_cm4.h"
 1181              		.file 40 "/home/selim/working/ChibiOS/os/hal/ports/STM32/LLD/USARTv1/serial_lld.h"
 1182              		.file 41 "usbcfg.h"
ARM GAS  /tmp/cc7YPD4S.s 			page 23


 1183              		.file 42 "/home/selim/working/ChibiOS/os/various/devices_lib/accel/lis302dl.h"
 1184              		.file 43 "/usr/arm-none-eabi/include/stdlib.h"
 1185              		.file 44 "/home/selim/working/ChibiOS/os/rt/include/chdynamic.h"
 1186              		.file 45 "/home/selim/working/ChibiOS/os/rt/include/chregistry.h"
 1187              		.file 46 "/home/selim/working/ChibiOS/os/rt/include/chheap.h"
 1188              		.file 47 "/home/selim/working/ChibiOS/os/rt/include/chmemcore.h"
 1189              		.file 48 "/home/selim/working/ChibiOS/os/hal/include/hal.h"