ARM GAS  /tmp/ccDhVJfd.s 			page 1


   1              		.syntax unified
   2              		.cpu cortex-m4
   3              		.fpu softvfp
   4              		.eabi_attribute 20, 1
   5              		.eabi_attribute 21, 1
   6              		.eabi_attribute 23, 3
   7              		.eabi_attribute 24, 1
   8              		.eabi_attribute 25, 1
   9              		.eabi_attribute 26, 1
  10              		.eabi_attribute 30, 2
  11              		.eabi_attribute 34, 1
  12              		.eabi_attribute 18, 4
  13              		.thumb
  14              		.syntax unified
  15              		.file	"pal_lld.c"
  16              		.text
  17              	.Ltext0:
  18              		.cfi_sections	.debug_frame
  19              		.section	.text._pal_lld_init,"ax",%progbits
  20              		.align	2
  21              		.p2align 4,,15
  22              		.global	_pal_lld_init
  23              		.thumb
  24              		.thumb_func
  25              		.type	_pal_lld_init, %function
  26              	_pal_lld_init:
  27              	.LFB259:
  28              		.file 1 "/home/selim/working/ChibiOS/os/hal/ports/STM32/LLD/GPIOv2/pal_lld.c"
  29              		.loc 1 92 0
  30              		.cfi_startproc
  31              		@ args = 0, pretend = 0, frame = 0
  32              		@ frame_needed = 0, uses_anonymous_args = 0
  33              		@ link register save eliminated.
  34              	.LVL0:
  35 0000 F0B4     		push	{r4, r5, r6, r7}
  36              		.cfi_def_cfa_offset 16
  37              		.cfi_offset 4, -16
  38              		.cfi_offset 5, -12
  39              		.cfi_offset 6, -8
  40              		.cfi_offset 7, -4
  41              		.loc 1 105 0
  42 0002 654D     		ldr	r5, .L3
  43              	.LBB20:
  44              	.LBB21:
  45              		.loc 1 67 0
  46 0004 654C     		ldr	r4, .L3+4
  47              	.LBE21:
  48              	.LBE20:
  49              		.loc 1 105 0
  50 0006 2F6B     		ldr	r7, [r5, #48]
  51              	.LBB23:
  52              	.LBB24:
  53              		.loc 1 67 0
  54 0008 6549     		ldr	r1, .L3+8
  55              	.LBE24:
  56              	.LBE23:
  57              	.LBB26:
ARM GAS  /tmp/ccDhVJfd.s 			page 2


  58              	.LBB27:
  59 000a 664A     		ldr	r2, .L3+12
  60              	.LBE27:
  61              	.LBE26:
  62              	.LBB29:
  63              	.LBB30:
  64 000c 664B     		ldr	r3, .L3+16
  65              	.LBE30:
  66              	.LBE29:
  67              		.loc 1 105 0
  68 000e 40F2FF16 		movw	r6, #511
  69 0012 3743     		orrs	r7, r7, r6
  70 0014 2F63     		str	r7, [r5, #48]
  71              		.loc 1 106 0
  72 0016 2F6D     		ldr	r7, [r5, #80]
  73 0018 3E43     		orrs	r6, r6, r7
  74 001a 2E65     		str	r6, [r5, #80]
  75              	.LVL1:
  76              	.LBB32:
  77              	.LBB22:
  78              		.loc 1 67 0
  79 001c 4568     		ldr	r5, [r0, #4]
  80 001e 6560     		str	r5, [r4, #4]
  81              		.loc 1 68 0
  82 0020 8568     		ldr	r5, [r0, #8]
  83 0022 A560     		str	r5, [r4, #8]
  84              		.loc 1 69 0
  85 0024 C568     		ldr	r5, [r0, #12]
  86 0026 E560     		str	r5, [r4, #12]
  87              		.loc 1 70 0
  88 0028 0569     		ldr	r5, [r0, #16]
  89 002a 6561     		str	r5, [r4, #20]
  90              		.loc 1 71 0
  91 002c 4569     		ldr	r5, [r0, #20]
  92 002e 2562     		str	r5, [r4, #32]
  93              		.loc 1 72 0
  94 0030 8569     		ldr	r5, [r0, #24]
  95 0032 6562     		str	r5, [r4, #36]
  96              		.loc 1 73 0
  97 0034 0568     		ldr	r5, [r0]
  98 0036 2560     		str	r5, [r4]
  99              	.LVL2:
 100              	.LBE22:
 101              	.LBE32:
 102              	.LBB33:
 103              	.LBB25:
 104              		.loc 1 67 0
 105 0038 046A     		ldr	r4, [r0, #32]
 106 003a 4C60     		str	r4, [r1, #4]
 107              		.loc 1 68 0
 108 003c 446A     		ldr	r4, [r0, #36]
 109 003e 8C60     		str	r4, [r1, #8]
 110              		.loc 1 69 0
 111 0040 846A     		ldr	r4, [r0, #40]
 112 0042 CC60     		str	r4, [r1, #12]
 113              		.loc 1 70 0
 114 0044 C46A     		ldr	r4, [r0, #44]
ARM GAS  /tmp/ccDhVJfd.s 			page 3


 115 0046 4C61     		str	r4, [r1, #20]
 116              		.loc 1 71 0
 117 0048 046B     		ldr	r4, [r0, #48]
 118 004a 0C62     		str	r4, [r1, #32]
 119              		.loc 1 72 0
 120 004c 446B     		ldr	r4, [r0, #52]
 121 004e 4C62     		str	r4, [r1, #36]
 122              		.loc 1 73 0
 123 0050 C469     		ldr	r4, [r0, #28]
 124 0052 0C60     		str	r4, [r1]
 125              	.LVL3:
 126              	.LBE25:
 127              	.LBE33:
 128              	.LBB34:
 129              	.LBB28:
 130              		.loc 1 67 0
 131 0054 C16B     		ldr	r1, [r0, #60]
 132 0056 5160     		str	r1, [r2, #4]
 133              		.loc 1 68 0
 134 0058 016C     		ldr	r1, [r0, #64]
 135 005a 9160     		str	r1, [r2, #8]
 136              		.loc 1 69 0
 137 005c 416C     		ldr	r1, [r0, #68]
 138 005e D160     		str	r1, [r2, #12]
 139              		.loc 1 70 0
 140 0060 816C     		ldr	r1, [r0, #72]
 141 0062 5161     		str	r1, [r2, #20]
 142              		.loc 1 71 0
 143 0064 C16C     		ldr	r1, [r0, #76]
 144 0066 1162     		str	r1, [r2, #32]
 145              		.loc 1 72 0
 146 0068 016D     		ldr	r1, [r0, #80]
 147 006a 5162     		str	r1, [r2, #36]
 148              		.loc 1 73 0
 149 006c 816B     		ldr	r1, [r0, #56]
 150 006e 1160     		str	r1, [r2]
 151              	.LVL4:
 152              	.LBE28:
 153              	.LBE34:
 154              	.LBB35:
 155              	.LBB31:
 156              		.loc 1 67 0
 157 0070 826D     		ldr	r2, [r0, #88]
 158 0072 5A60     		str	r2, [r3, #4]
 159              		.loc 1 68 0
 160 0074 C26D     		ldr	r2, [r0, #92]
 161 0076 9A60     		str	r2, [r3, #8]
 162              		.loc 1 69 0
 163 0078 026E     		ldr	r2, [r0, #96]
 164 007a DA60     		str	r2, [r3, #12]
 165              		.loc 1 70 0
 166 007c 426E     		ldr	r2, [r0, #100]
 167 007e 5A61     		str	r2, [r3, #20]
 168              		.loc 1 71 0
 169 0080 826E     		ldr	r2, [r0, #104]
 170 0082 1A62     		str	r2, [r3, #32]
 171              		.loc 1 72 0
ARM GAS  /tmp/ccDhVJfd.s 			page 4


 172 0084 C26E     		ldr	r2, [r0, #108]
 173 0086 5A62     		str	r2, [r3, #36]
 174              		.loc 1 73 0
 175 0088 426D     		ldr	r2, [r0, #84]
 176 008a 1A60     		str	r2, [r3]
 177              	.LVL5:
 178              	.LBE31:
 179              	.LBE35:
 180              	.LBB36:
 181              	.LBB37:
 182              		.loc 1 67 0
 183 008c 426F     		ldr	r2, [r0, #116]
 184 008e C3F80424 		str	r2, [r3, #1028]
 185              		.loc 1 68 0
 186 0092 826F     		ldr	r2, [r0, #120]
 187 0094 C3F80824 		str	r2, [r3, #1032]
 188              		.loc 1 69 0
 189 0098 C26F     		ldr	r2, [r0, #124]
 190 009a C3F80C24 		str	r2, [r3, #1036]
 191              		.loc 1 70 0
 192 009e D0F88020 		ldr	r2, [r0, #128]
 193 00a2 C3F81424 		str	r2, [r3, #1044]
 194              		.loc 1 71 0
 195 00a6 D0F88420 		ldr	r2, [r0, #132]
 196 00aa C3F82024 		str	r2, [r3, #1056]
 197              		.loc 1 72 0
 198 00ae D0F88820 		ldr	r2, [r0, #136]
 199 00b2 C3F82424 		str	r2, [r3, #1060]
 200              		.loc 1 73 0
 201 00b6 026F     		ldr	r2, [r0, #112]
 202 00b8 C3F80024 		str	r2, [r3, #1024]
 203              	.LVL6:
 204              	.LBE37:
 205              	.LBE36:
 206              	.LBB38:
 207              	.LBB39:
 208              		.loc 1 67 0
 209 00bc D0F89020 		ldr	r2, [r0, #144]
 210 00c0 C3F80428 		str	r2, [r3, #2052]
 211              		.loc 1 68 0
 212 00c4 D0F89420 		ldr	r2, [r0, #148]
 213 00c8 C3F80828 		str	r2, [r3, #2056]
 214              		.loc 1 69 0
 215 00cc D0F89820 		ldr	r2, [r0, #152]
 216 00d0 C3F80C28 		str	r2, [r3, #2060]
 217              		.loc 1 70 0
 218 00d4 D0F89C20 		ldr	r2, [r0, #156]
 219 00d8 C3F81428 		str	r2, [r3, #2068]
 220              		.loc 1 71 0
 221 00dc D0F8A020 		ldr	r2, [r0, #160]
 222 00e0 C3F82028 		str	r2, [r3, #2080]
 223              		.loc 1 72 0
 224 00e4 D0F8A420 		ldr	r2, [r0, #164]
 225 00e8 C3F82428 		str	r2, [r3, #2084]
 226              		.loc 1 73 0
 227 00ec D0F88C20 		ldr	r2, [r0, #140]
 228 00f0 C3F80028 		str	r2, [r3, #2048]
ARM GAS  /tmp/ccDhVJfd.s 			page 5


 229              	.LVL7:
 230              	.LBE39:
 231              	.LBE38:
 232              	.LBB40:
 233              	.LBB41:
 234              		.loc 1 67 0
 235 00f4 03F54063 		add	r3, r3, #3072
 236 00f8 D0F8AC20 		ldr	r2, [r0, #172]
 237 00fc 5A60     		str	r2, [r3, #4]
 238              		.loc 1 68 0
 239 00fe D0F8B020 		ldr	r2, [r0, #176]
 240 0102 9A60     		str	r2, [r3, #8]
 241              		.loc 1 69 0
 242 0104 D0F8B420 		ldr	r2, [r0, #180]
 243 0108 DA60     		str	r2, [r3, #12]
 244              		.loc 1 70 0
 245 010a D0F8B820 		ldr	r2, [r0, #184]
 246 010e 5A61     		str	r2, [r3, #20]
 247              		.loc 1 71 0
 248 0110 D0F8BC20 		ldr	r2, [r0, #188]
 249 0114 1A62     		str	r2, [r3, #32]
 250              		.loc 1 72 0
 251 0116 D0F8C020 		ldr	r2, [r0, #192]
 252 011a 5A62     		str	r2, [r3, #36]
 253              		.loc 1 73 0
 254 011c D0F8A820 		ldr	r2, [r0, #168]
 255 0120 1A60     		str	r2, [r3]
 256              	.LVL8:
 257              	.LBE41:
 258              	.LBE40:
 259              	.LBB42:
 260              	.LBB43:
 261              		.loc 1 67 0
 262 0122 D0F8C820 		ldr	r2, [r0, #200]
 263 0126 C3F80424 		str	r2, [r3, #1028]
 264              		.loc 1 68 0
 265 012a D0F8CC20 		ldr	r2, [r0, #204]
 266 012e C3F80824 		str	r2, [r3, #1032]
 267              		.loc 1 69 0
 268 0132 D0F8D020 		ldr	r2, [r0, #208]
 269 0136 C3F80C24 		str	r2, [r3, #1036]
 270              		.loc 1 70 0
 271 013a D0F8D420 		ldr	r2, [r0, #212]
 272 013e C3F81424 		str	r2, [r3, #1044]
 273              		.loc 1 71 0
 274 0142 D0F8D820 		ldr	r2, [r0, #216]
 275 0146 C3F82024 		str	r2, [r3, #1056]
 276              		.loc 1 72 0
 277 014a D0F8DC20 		ldr	r2, [r0, #220]
 278 014e C3F82424 		str	r2, [r3, #1060]
 279              		.loc 1 73 0
 280 0152 D0F8C420 		ldr	r2, [r0, #196]
 281 0156 C3F80024 		str	r2, [r3, #1024]
 282              	.LVL9:
 283              	.LBE43:
 284              	.LBE42:
 285              	.LBB44:
ARM GAS  /tmp/ccDhVJfd.s 			page 6


 286              	.LBB45:
 287              		.loc 1 67 0
 288 015a D0F8E420 		ldr	r2, [r0, #228]
 289 015e C3F80428 		str	r2, [r3, #2052]
 290              		.loc 1 68 0
 291 0162 D0F8E820 		ldr	r2, [r0, #232]
 292 0166 C3F80828 		str	r2, [r3, #2056]
 293              		.loc 1 69 0
 294 016a D0F8EC20 		ldr	r2, [r0, #236]
 295 016e C3F80C28 		str	r2, [r3, #2060]
 296              		.loc 1 70 0
 297 0172 D0F8F020 		ldr	r2, [r0, #240]
 298 0176 C3F81428 		str	r2, [r3, #2068]
 299              		.loc 1 71 0
 300 017a D0F8F420 		ldr	r2, [r0, #244]
 301 017e C3F82028 		str	r2, [r3, #2080]
 302              		.loc 1 72 0
 303 0182 D0F8F820 		ldr	r2, [r0, #248]
 304 0186 C3F82428 		str	r2, [r3, #2084]
 305              		.loc 1 73 0
 306 018a D0F8E020 		ldr	r2, [r0, #224]
 307 018e C3F80028 		str	r2, [r3, #2048]
 308              	.LVL10:
 309              	.LBE45:
 310              	.LBE44:
 311              		.loc 1 139 0
 312 0192 F0BC     		pop	{r4, r5, r6, r7}
 313              		.cfi_restore 7
 314              		.cfi_restore 6
 315              		.cfi_restore 5
 316              		.cfi_restore 4
 317              		.cfi_def_cfa_offset 0
 318 0194 7047     		bx	lr
 319              	.L4:
 320 0196 00BF     		.align	2
 321              	.L3:
 322 0198 00380240 		.word	1073887232
 323 019c 00000240 		.word	1073872896
 324 01a0 00040240 		.word	1073873920
 325 01a4 00080240 		.word	1073874944
 326 01a8 000C0240 		.word	1073875968
 327              		.cfi_endproc
 328              	.LFE259:
 329              		.size	_pal_lld_init, .-_pal_lld_init
 330              		.section	.text._pal_lld_setgroupmode,"ax",%progbits
 331              		.align	2
 332              		.p2align 4,,15
 333              		.global	_pal_lld_setgroupmode
 334              		.thumb
 335              		.thumb_func
 336              		.type	_pal_lld_setgroupmode, %function
 337              	_pal_lld_setgroupmode:
 338              	.LFB260:
 339              		.loc 1 157 0
 340              		.cfi_startproc
 341              		@ args = 0, pretend = 0, frame = 0
 342              		@ frame_needed = 0, uses_anonymous_args = 0
ARM GAS  /tmp/ccDhVJfd.s 			page 7


 343              	.LVL11:
 344 0000 2DE9F04F 		push	{r4, r5, r6, r7, r8, r9, r10, fp, lr}
 345              		.cfi_def_cfa_offset 36
 346              		.cfi_offset 4, -36
 347              		.cfi_offset 5, -32
 348              		.cfi_offset 6, -28
 349              		.cfi_offset 7, -24
 350              		.cfi_offset 8, -20
 351              		.cfi_offset 9, -16
 352              		.cfi_offset 10, -12
 353              		.cfi_offset 11, -8
 354              		.cfi_offset 14, -4
 355              	.LBB46:
 356              		.loc 1 170 0
 357 0004 4FF00F0C 		mov	ip, #15
 358              	.LBE46:
 359              		.loc 1 159 0
 360 0008 02F0030E 		and	lr, r2, #3
 361              	.LVL12:
 362              		.loc 1 160 0
 363 000c C2F38007 		ubfx	r7, r2, #2, #1
 364              	.LVL13:
 365              		.loc 1 161 0
 366 0010 C2F3C106 		ubfx	r6, r2, #3, #2
 367              	.LVL14:
 368              		.loc 1 162 0
 369 0014 C2F34115 		ubfx	r5, r2, #5, #2
 370              	.LVL15:
 371              		.loc 1 164 0
 372 0018 0024     		movs	r4, #0
 373              		.loc 1 163 0
 374 001a C2F3C312 		ubfx	r2, r2, #7, #4
 375              	.LVL16:
 376              	.LBB47:
 377              		.loc 1 176 0
 378 001e 4FF00109 		mov	r9, #1
 379              		.loc 1 178 0
 380 0022 4FF00308 		mov	r8, #3
 381 0026 30E0     		b	.L10
 382              	.LVL17:
 383              	.L16:
 384              		.loc 1 172 0
 385 0028 D0F820B0 		ldr	fp, [r0, #32]
 386 002c 2BEA0303 		bic	r3, fp, r3
 387              	.LVL18:
 388 0030 43EA0A03 		orr	r3, r3, r10
 389 0034 0362     		str	r3, [r0, #32]
 390              	.L8:
 391              	.LVL19:
 392              		.loc 1 176 0
 393 0036 4368     		ldr	r3, [r0, #4]
 394 0038 09FA04FA 		lsl	r10, r9, r4
 395              	.LVL20:
 396 003c 23EA0A03 		bic	r3, r3, r10
 397 0040 3B43     		orrs	r3, r3, r7
 398 0042 4360     		str	r3, [r0, #4]
 399              	.LVL21:
ARM GAS  /tmp/ccDhVJfd.s 			page 8


 400              		.loc 1 178 0
 401 0044 6300     		lsls	r3, r4, #1
 402 0046 D0F808A0 		ldr	r10, [r0, #8]
 403 004a 08FA03F3 		lsl	r3, r8, r3
 404 004e DB43     		mvns	r3, r3
 405 0050 0AEA030A 		and	r10, r10, r3
 406 0054 4AEA060A 		orr	r10, r10, r6
 407 0058 C0F808A0 		str	r10, [r0, #8]
 408              		.loc 1 179 0
 409 005c D0F80CA0 		ldr	r10, [r0, #12]
 410 0060 03EA0A0A 		and	r10, r3, r10
 411 0064 4AEA050A 		orr	r10, r10, r5
 412 0068 C0F80CA0 		str	r10, [r0, #12]
 413              		.loc 1 180 0
 414 006c D0F800A0 		ldr	r10, [r0]
 415 0070 03EA0A03 		and	r3, r3, r10
 416 0074 43EA0E03 		orr	r3, r3, lr
 417 0078 0360     		str	r3, [r0]
 418              	.LVL22:
 419              	.L6:
 420              	.LBE47:
 421              		.loc 1 183 0
 422 007a 4908     		lsrs	r1, r1, #1
 423              	.LVL23:
 424 007c 19D0     		beq	.L5
 425              		.loc 1 185 0
 426 007e 7F00     		lsls	r7, r7, #1
 427              	.LVL24:
 428              		.loc 1 186 0
 429 0080 B600     		lsls	r6, r6, #2
 430              	.LVL25:
 431              		.loc 1 187 0
 432 0082 AD00     		lsls	r5, r5, #2
 433              	.LVL26:
 434              		.loc 1 188 0
 435 0084 4FEA8E0E 		lsl	lr, lr, #2
 436              	.LVL27:
 437              		.loc 1 189 0
 438 0088 0134     		adds	r4, r4, #1
 439              	.LVL28:
 440              	.L10:
 441              	.LBB48:
 442              		.loc 1 169 0
 443 008a 04F00703 		and	r3, r4, #7
 444 008e 9B00     		lsls	r3, r3, #2
 445              	.LBE48:
 446              		.loc 1 166 0
 447 0090 11F0010F 		tst	r1, #1
 448              	.LBB49:
 449              		.loc 1 169 0
 450 0094 02FA03FA 		lsl	r10, r2, r3
 451              	.LVL29:
 452              		.loc 1 170 0
 453 0098 0CFA03F3 		lsl	r3, ip, r3
 454              	.LVL30:
 455              	.LBE49:
 456              		.loc 1 166 0
ARM GAS  /tmp/ccDhVJfd.s 			page 9


 457 009c EDD0     		beq	.L6
 458              	.LBB50:
 459              		.loc 1 171 0
 460 009e 072C     		cmp	r4, #7
 461 00a0 C2D9     		bls	.L16
 462              		.loc 1 174 0
 463 00a2 D0F824B0 		ldr	fp, [r0, #36]
 464 00a6 2BEA0303 		bic	r3, fp, r3
 465              	.LVL31:
 466 00aa 43EA0A03 		orr	r3, r3, r10
 467 00ae 4362     		str	r3, [r0, #36]
 468 00b0 C1E7     		b	.L8
 469              	.LVL32:
 470              	.L5:
 471 00b2 BDE8F08F 		pop	{r4, r5, r6, r7, r8, r9, r10, fp, pc}
 472              	.LBE50:
 473              		.cfi_endproc
 474              	.LFE260:
 475              		.size	_pal_lld_setgroupmode, .-_pal_lld_setgroupmode
 476 00b6 00BF     		.text
 477              	.Letext0:
 478              		.file 2 "/usr/arm-none-eabi/include/machine/_default_types.h"
 479              		.file 3 "/usr/arm-none-eabi/include/sys/_stdint.h"
 480              		.file 4 "/home/selim/working/ChibiOS/os/rt/ports/ARMCMx/compilers/GCC/chtypes.h"
 481              		.file 5 "/home/selim/working/ChibiOS/os/rt/include/chsystypes.h"
 482              		.file 6 "/home/selim/working/ChibiOS/os/rt/include/chschd.h"
 483              		.file 7 "/home/selim/working/ChibiOS/os/ext/CMSIS/ST/stm32f407xx.h"
 484              		.file 8 "/home/selim/working/ChibiOS/os/rt/ports/ARMCMx/chcore.h"
 485              		.file 9 "/home/selim/working/ChibiOS/os/rt/ports/ARMCMx/chcore_v7m.h"
 486              		.file 10 "/home/selim/working/ChibiOS/os/rt/include/chtm.h"
 487              		.file 11 "/home/selim/working/ChibiOS/os/rt/include/chsem.h"
 488              		.file 12 "/home/selim/working/ChibiOS/os/rt/include/chmtx.h"
 489              		.file 13 "/home/selim/working/ChibiOS/os/hal/ports/STM32/LLD/GPIOv2/pal_lld.h"
 490              		.file 14 "/home/selim/working/ChibiOS/os/ext/CMSIS/include/core_cm4.h"