ARM GAS  /tmp/ccDhVJfd.s 			page 1


   1              		.syntax unified
   2              		.cpu cortex-m4
   3              		.fpu softvfp
   4              		.eabi_attribute 20, 1
   5              		.eabi_attribute 21, 1
   6              		.eabi_attribute 23, 3
   7              		.eabi_attribute 24, 1
   8              		.eabi_attribute 25, 1
   9              		.eabi_attribute 26, 1
  10              		.eabi_attribute 30, 2
  11              		.eabi_attribute 34, 1
  12              		.eabi_attribute 18, 4
  13              		.thumb
  14              		.syntax unified
  15              		.file	"pal_lld.c"
  16              		.text
  17              	.Ltext0:
  18              		.cfi_sections	.debug_frame
  19              		.section	.text._pal_lld_init,"ax",%progbits
  20              		.align	2
  21              		.p2align 4,,15
  22              		.global	_pal_lld_init
  23              		.thumb
  24              		.thumb_func
  25              		.type	_pal_lld_init, %function
  26              	_pal_lld_init:
  27              	.LFB259:
  28              		.file 1 "/home/selim/working/ChibiOS/os/hal/ports/STM32/LLD/GPIOv2/pal_lld.c"
  29              		.loc 1 92 0
  30              		.cfi_startproc
  31              		@ args = 0, pretend = 0, frame = 0
  32              		@ frame_needed = 0, uses_anonymous_args = 0
  33              		@ link register save eliminated.
  34              	.LVL0:
  35 0000 F0B4     		push	{r4, r5, r6, r7}
  36              		.cfi_def_cfa_offset 16
  37              		.cfi_offset 4, -16
  38              		.cfi_offset 5, -12
  39              		.cfi_offset 6, -8
  40              		.cfi_offset 7, -4
  41              		.loc 1 105 0
  42 0002 654D     		ldr	r5, .L3
  43              	.LBB20:
  44              	.LBB21:
  45              		.loc 1 67 0
  46 0004 654C     		ldr	r4, .L3+4
  47              	.LBE21:
  48              	.LBE20:
  49              		.loc 1 105 0
  50 0006 2F6B     		ldr	r7, [r5, #48]
  51              	.LBB23:
  52              	.LBB24:
  53              		.loc 1 67 0
  54 0008 6549     		ldr	r1, .L3+8
  55              	.LBE24:
  56              	.LBE23:
  57              	.LBB26:
ARM GAS  /tmp/ccDhVJfd.s 			page 2


  58              	.LBB27:
  59 000a 664A     		ldr	r2, .L3+12
  60              	.LBE27:
  61              	.LBE26:
  62              	.LBB29:
  63              	.LBB30:
  64 000c 664B     		ldr	r3, .L3+16
  65              	.LBE30:
  66              	.LBE29:
  67              		.loc 1 105 0
  68 000e 40F2FF16 		movw	r6, #511
  69 0012 3743     		orrs	r7, r7, r6
  70 0014 2F63     		str	r7, [r5, #48]
  71              		.loc 1 106 0
  72 0016 2F6D     		ldr	r7, [r5, #80]
  73 0018 3E43     		orrs	r6, r6, r7
  74 001a 2E65     		str	r6, [r5, #80]
  75              	.LVL1:
  76              	.LBB32:
  77              	.LBB22:
  78              		.loc 1 67 0
  79 001c 4568     		ldr	r5, [r0, #4]
  80 001e 6560     		str	r5, [r4, #4]
  81              		.loc 1 68 0
  82 0020 8568     		ldr	r5, [r0, #8]
  83 0022 A560     		str	r5, [r4, #8]
  84              		.loc 1 69 0
  85 0024 C568     		ldr	r5, [r0, #12]
  86 0026 E560     		str	r5, [r4, #12]
  87              		.loc 1 70 0
  88 0028 0569     		ldr	r5, [r0, #16]
  89 002a 6561     		str	r5, [r4, #20]
  90              		.loc 1 71 0
  91 002c 4569     		ldr	r5, [r0, #20]
  92 002e 2562     		str	r5, [r4, #32]
  93              		.loc 1 72 0
  94 0030 8569     		ldr	r5, [r0, #24]
  95 0032 6562     		str	r5, [r4, #36]
  96              		.loc 1 73 0
  97 0034 0568     		ldr	r5, [r0]
  98 0036 2560     		str	r5, [r4]
  99              	.LVL2:
 100              	.LBE22:
 101              	.LBE32:
 102              	.LBB33:
 103              	.LBB25:
 104              		.loc 1 67 0
 105 0038 046A     		ldr	r4, [r0, #32]
 106 003a 4C60     		str	r4, [r1, #4]
 107              		.loc 1 68 0
 108 003c 446A     		ldr	r4, [r0, #36]
 109 003e 8C60     		str	r4, [r1, #8]
 110              		.loc 1 69 0
 111 0040 846A     		ldr	r4, [r0, #40]
 112 0042 CC60     		str	r4, [r1, #12]
 113              		.loc 1 70 0
 114 0044 C46A     		ldr	r4, [r0, #44]
ARM GAS  /tmp/ccDhVJfd.s 			page 3


 115 0046 4C61     		str	r4, [r1, #20]
 116              		.loc 1 71 0
 117 0048 046B     		ldr	r4, [r0, #48]
 118 004a 0C62     		str	r4, [r1, #32]
 119              		.loc 1 72 0
 120 004c 446B     		ldr	r4, [r0, #52]
 121 004e 4C62     		str	r4, [r1, #36]
 122              		.loc 1 73 0
 123 0050 C469     		ldr	r4, [r0, #28]
 124 0052 0C60     		str	r4, [r1]
 125              	.LVL3:
 126              	.LBE25:
 127              	.LBE33:
 128              	.LBB34:
 129              	.LBB28:
 130              		.loc 1 67 0
 131 0054 C16B     		ldr	r1, [r0, #60]
 132 0056 5160     		str	r1, [r2, #4]
 133              		.loc 1 68 0
 134 0058 016C     		ldr	r1, [r0, #64]
 135 005a 9160     		str	r1, [r2, #8]
 136              		.loc 1 69 0
 137 005c 416C     		ldr	r1, [r0, #68]
 138 005e D160     		str	r1, [r2, #12]
 139              		.loc 1 70 0
 140 0060 816C     		ldr	r1, [r0, #72]
 141 0062 5161     		str	r1, [r2, #20]
 142              		.loc 1 71 0
 143 0064 C16C     		ldr	r1, [r0, #76]
 144 0066 1162     		str	r1, [r2, #32]
 145              		.loc 1 72 0
 146 0068 016D     		ldr	r1, [r0, #80]
 147 006a 5162     		str	r1, [r2, #36]
 148              		.loc 1 73 0
 149 006c 816B     		ldr	r1, [r0, #56]
 150 006e 1160     		str	r1, [r2]
 151              	.LVL4:
 152              	.LBE28:
 153              	.LBE34:
 154              	.LBB35:
 155              	.LBB31:
 156              		.loc 1 67 0
 157 0070 826D     		ldr	r2, [r0, #88]
 158 0072 5A60     		str	r2, [r3, #4]
 159              		.loc 1 68 0
 160 0074 C26D     		ldr	r2, [r0, #92]
 161 0076 9A60     		str	r2, [r3, #8]
 162              		.loc 1 69 0
 163 0078 026E     		ldr	r2, [r0, #96]
 164 007a DA60     		str	r2, [r3, #12]
 165              		.loc 1 70 0
 166 007c 426E     		ldr	r2, [r0, #100]
 167 007e 5A61     		str	r2, [r3, #20]
 168              		.loc 1 71 0
 169 0080 826E     		ldr	r2, [r0, #104]
 170 0082 1A62     		str	r2, [r3, #32]
 171              		.loc 1 72 0
ARM GAS  /tmp/ccDhVJfd.s 			page 4


 172 0084 C26E     		ldr	r2, [r0, #108]
 173 0086 5A62     		str	r2, [r3, #36]
 174              		.loc 1 73 0
 175 0088 426D     		ldr	r2, [r0, #84]
 176 008a 1A60     		str	r2, [r3]
 177              	.LVL5:
 178              	.LBE31:
 179              	.LBE35:
 180              	.LBB36:
 181              	.LBB37:
 182              		.loc 1 67 0
 183 008c 426F     		ldr	r2, [r0, #116]
 184 008e C3F80424 		str	r2, [r3, #1028]
 185              		.loc 1 68 0
 186 0092 826F     		ldr	r2, [r0, #120]
 187 0094 C3F80824 		str	r2, [r3, #1032]
 188              		.loc 1 69 0
 189 0098 C26F     		ldr	r2, [r0, #124]
 190 009a C3F80C24 		str	r2, [r3, #1036]
 191              		.loc 1 70 0
 192 009e D0F88020 		ldr	r2, [r0, #128]
 193 00a2 C3F81424 		str	r2, [r3, #1044]
 194              		.loc 1 71 0
 195 00a6 D0F88420 		ldr	r2, [r0, #132]
 196 00aa C3F82024 		str	r2, [r3, #1056]
 197              		.loc 1 72 0
 198 00ae D0F88820 		ldr	r2, [r0, #136]
 199 00b2 C3F82424 		str	r2, [r3, #1060]
 200              		.loc 1 73 0
 201 00b6 026F     		ldr	r2, [r0, #112]
 202 00b8 C3F80024 		str	r2, [r3, #1024]
 203              	.LVL6:
 204              	.LBE37:
 205              	.LBE36:
 206              	.LBB38:
 207              	.LBB39:
 208              		.loc 1 67 0
 209 00bc D0F89020 		ldr	r2, [r0, #144]
 210 00c0 C3F80428 		str	r2, [r3, #2052]
 211              		.loc 1 68 0
 212 00c4 D0F89420 		ldr	r2, [r0, #148]
 213 00c8 C3F80828 		str	r2, [r3, #2056]
 214              		.loc 1 69 0
 215 00cc D0F89820 		ldr	r2, [r0, #152]
 216 00d0 C3F80C28 		str	r2, [r3, #2060]
 217              		.loc 1 70 0
 218 00d4 D0F89C20 		ldr	r2, [r0, #156]
 219 00d8 C3F81428 		str	r2, [r3, #2068]
 220              		.loc 1 71 0
 221 00dc D0F8A020 		ldr	r2, [r0, #160]
 222 00e0 C3F82028 		str	r2, [r3, #2080]
 223              		.loc 1 72 0
 224 00e4 D0F8A420 		ldr	r2, [r0, #164]
 225 00e8 C3F82428 		str	r2, [r3, #2084]
 226              		.loc 1 73 0
 227 00ec D0F88C20 		ldr	r2, [r0, #140]
 228 00f0 C3F80028 		str	r2, [r3, #2048]
ARM GAS  /tmp/ccDhVJfd.s 			page 5


 229              	.LVL7:
 230              	.LBE39:
 231              	.LBE38:
 232              	.LBB40:
 233              	.LBB41:
 234              		.loc 1 67 0
 235 00f4 03F54063 		add	r3, r3, #3072
 236 00f8 D0F8AC20 		ldr	r2, [r0, #172]
 237 00fc 5A60     		str	r2, [r3, #4]
 238              		.loc 1 68 0
 239 00fe D0F8B020 		ldr	r2, [r0, #176]
 240 0102 9A60     		str	r2, [r3, #8]
 241              		.loc 1 69 0
 242 0104 D0F8B420 		ldr	r2, [r0, #180]
 243 0108 DA60     		str	r2, [r3, #12]
 244              		.loc 1 70 0
 245 010a D0F8B820 		ldr	r2, [r0, #184]
 246 010e 5A61     		str	r2, [r3, #20]
 247              		.loc 1 71 0
 248 0110 D0F8BC20 		ldr	r2, [r0, #188]
 249 0114 1A62     		str	r2, [r3, #32]
 250              		.loc 1 72 0
 251 0116 D0F8C020 		ldr	r2, [r0, #192]
 252 011a 5A62     		str	r2, [r3, #36]
 253              		.loc 1 73 0
 254 011c D0F8A820 		ldr	r2, [r0, #168]
 255 0120 1A60     		str	r2, [r3]
 256              	.LVL8:
 257              	.LBE41:
 258              	.LBE40:
 259              	.LBB42:
 260              	.LBB43:
 261              		.loc 1 67 0
 262 0122 D0F8C820 		ldr	r2, [r0, #200]
 263 0126 C3F80424 		str	r2, [r3, #1028]
 264              		.loc 1 68 0
 265 012a D0F8CC20 		ldr	r2, [r0, #204]
 266 012e C3F80824 		str	r2, [r3, #1032]
 267              		.loc 1 69 0
 268 0132 D0F8D020 		ldr	r2, [r0, #208]
 269 0136 C3F80C24 		str	r2, [r3, #1036]
 270              		.loc 1 70 0
 271 013a D0F8D420 		ldr	r2, [r0, #212]
 272 013e C3F81424 		str	r2, [r3, #1044]
 273              		.loc 1 71 0
 274 0142 D0F8D820 		ldr	r2, [r0, #216]
 275 0146 C3F82024 		str	r2, [r3, #1056]
 276              		.loc 1 72 0
 277 014a D0F8DC20 		ldr	r2, [r0, #220]
 278 014e C3F82424 		str	r2, [r3, #1060]
 279              		.loc 1 73 0
 280 0152 D0F8C420 		ldr	r2, [r0, #196]
 281 0156 C3F80024 		str	r2, [r3, #1024]
 282              	.LVL9:
 283              	.LBE43:
 284              	.LBE42:
 285              	.LBB44:
ARM GAS  /tmp/ccDhVJfd.s 			page 6


 286              	.LBB45:
 287              		.loc 1 67 0
 288 015a D0F8E420 		ldr	r2, [r0, #228]
 289 015e C3F80428 		str	r2, [r3, #2052]
 290              		.loc 1 68 0
 291 0162 D0F8E820 		ldr	r2, [r0, #232]
 292 0166 C3F80828 		str	r2, [r3, #2056]
 293              		.loc 1 69 0
 294 016a D0F8EC20 		ldr	r2, [r0, #236]
 295 016e C3F80C28 		str	r2, [r3, #2060]
 296              		.loc 1 70 0
 297 0172 D0F8F020 		ldr	r2, [r0, #240]
 298 0176 C3F81428 		str	r2, [r3, #2068]
 299              		.loc 1 71 0
 300 017a D0F8F420 		ldr	r2, [r0, #244]
 301 017e C3F82028 		str	r2, [r3, #2080]
 302              		.loc 1 72 0
 303 0182 D0F8F820 		ldr	r2, [r0, #248]
 304 0186 C3F82428 		str	r2, [r3, #2084]
 305              		.loc 1 73 0
 306 018a D0F8E020 		ldr	r2, [r0, #224]
 307 018e C3F80028 		str	r2, [r3, #2048]
 308              	.LVL10:
 309              	.LBE45:
 310              	.LBE44:
 311              		.loc 1 139 0
 312 0192 F0BC     		pop	{r4, r5, r6, r7}
 313              		.cfi_restore 7
 314              		.cfi_restore 6
 315              		.cfi_restore 5
 316              		.cfi_restore 4
 317              		.cfi_def_cfa_offset 0
 318 0194 7047     		bx	lr
 319              	.L4:
 320 0196 00BF     		.align	2
 321              	.L3:
 322 0198 00380240 		.word	1073887232
 323 019c 00000240 		.word	1073872896
 324 01a0 00040240 		.word	1073873920
 325 01a4 00080240 		.word	1073874944
 326 01a8 000C0240 		.word	1073875968
 327              		.cfi_endproc
 328              	.LFE259:
 329              		.size	_pal_lld_init, .-_pal_lld_init
 330              		.section	.text._pal_lld_setgroupmode,"ax",%progbits
 331              		.align	2
 332              		.p2align 4,,15
 333              		.global	_pal_lld_setgroupmode
 334              		.thumb
 335              		.thumb_func
 336              		.type	_pal_lld_setgroupmode, %function
 337              	_pal_lld_setgroupmode:
 338              	.LFB260:
 339              		.loc 1 157 0
 340              		.cfi_startproc
 341              		@ args = 0, pretend = 0, frame = 0
 342              		@ frame_needed = 0, uses_anonymous_args = 0
ARM GAS  /tmp/ccDhVJfd.s 			page 7


 343              	.LVL11:
 344 0000 2DE9F04F 		push	{r4, r5, r6, r7, r8, r9, r10, fp, lr}
 345              		.cfi_def_cfa_offset 36
 346              		.cfi_offset 4, -36
 347              		.cfi_offset 5, -32
 348              		.cfi_offset 6, -28
 349              		.cfi_offset 7, -24
 350              		.cfi_offset 8, -20
 351              		.cfi_offset 9, -16
 352              		.cfi_offset 10, -12
 353              		.cfi_offset 11, -8
 354              		.cfi_offset 14, -4
 355              	.LBB46:
 356              		.loc 1 170 0
 357 0004 4FF00F0C 		mov	ip, #15
 358              	.LBE46:
 359              		.loc 1 159 0
 360 0008 02F0030E 		and	lr, r2, #3
 361              	.LVL12:
 362              		.loc 1 160 0
 363 000c C2F38007 		ubfx	r7, r2, #2, #1
 364              	.LVL13:
 365              		.loc 1 161 0
 366 0010 C2F3C106 		ubfx	r6, r2, #3, #2
 367              	.LVL14:
 368              		.loc 1 162 0
 369 0014 C2F34115 		ubfx	r5, r2, #5, #2
 370              	.LVL15:
 371              		.loc 1 164 0
 372 0018 0024     		movs	r4, #0
 373              		.loc 1 163 0
 374 001a C2F3C312 		ubfx	r2, r2, #7, #4
 375              	.LVL16:
 376              	.LBB47:
 377              		.loc 1 176 0
 378 001e 4FF00109 		mov	r9, #1
 379              		.loc 1 178 0
 380 0022 4FF00308 		mov	r8, #3
 381 0026 30E0     		b	.L10
 382              	.LVL17:
 383              	.L16:
 384              		.loc 1 172 0
 385 0028 D0F820B0 		ldr	fp, [r0, #32]
 386 002c 2BEA0303 		bic	r3, fp, r3
 387              	.LVL18:
 388 0030 43EA0A03 		orr	r3, r3, r10
 389 0034 0362     		str	r3, [r0, #32]
 390              	.L8:
 391              	.LVL19:
 392              		.loc 1 176 0
 393 0036 4368     		ldr	r3, [r0, #4]
 394 0038 09FA04FA 		lsl	r10, r9, r4
 395              	.LVL20:
 396 003c 23EA0A03 		bic	r3, r3, r10
 397 0040 3B43     		orrs	r3, r3, r7
 398 0042 4360     		str	r3, [r0, #4]
 399              	.LVL21:
ARM GAS  /tmp/ccDhVJfd.s 			page 8


 400              		.loc 1 178 0
 401 0044 6300     		lsls	r3, r4, #1
 402 0046 D0F808A0 		ldr	r10, [r0, #8]
 403 004a 08FA03F3 		lsl	r3, r8, r3
 404 004e DB43     		mvns	r3, r3
 405 0050 0AEA030A 		and	r10, r10, r3
 406 0054 4AEA060A 		orr	r10, r10, r6
 407 0058 C0F808A0 		str	r10, [r0, #8]
 408              		.loc 1 179 0
 409 005c D0F80CA0 		ldr	r10, [r0, #12]
 410 0060 03EA0A0A 		and	r10, r3, r10
 411 0064 4AEA050A 		orr	r10, r10, r5
 412 0068 C0F80CA0 		str	r10, [r0, #12]
 413              		.loc 1 180 0
 414 006c D0F800A0 		ldr	r10, [r0]
 415 0070 03EA0A03 		and	r3, r3, r10
 416 0074 43EA0E03 		orr	r3, r3, lr
 417 0078 0360     		str	r3, [r0]
 418              	.LVL22:
 419              	.L6:
 420              	.LBE47:
 421              		.loc 1 183 0
 422 007a 4908     		lsrs	r1, r1, #1
 423              	.LVL23:
 424 007c 19D0     		beq	.L5
 425              		.loc 1 185 0
 426 007e 7F00     		lsls	r7, r7, #1
 427              	.LVL24:
 428              		.loc 1 186 0
 429 0080 B600     		lsls	r6, r6, #2
 430              	.LVL25:
 431              		.loc 1 187 0
 432 0082 AD00     		lsls	r5, r5, #2
 433              	.LVL26:
 434              		.loc 1 188 0
 435 0084 4FEA8E0E 		lsl	lr, lr, #2
 436              	.LVL27:
 437              		.loc 1 189 0
 438 0088 0134     		adds	r4, r4, #1
 439              	.LVL28:
 440              	.L10:
 441              	.LBB48:
 442              		.loc 1 169 0
 443 008a 04F00703 		and	r3, r4, #7
 444 008e 9B00     		lsls	r3, r3, #2
 445              	.LBE48:
 446              		.loc 1 166 0
 447 0090 11F0010F 		tst	r1, #1
 448              	.LBB49:
 449              		.loc 1 169 0
 450 0094 02FA03FA 		lsl	r10, r2, r3
 451              	.LVL29:
 452              		.loc 1 170 0
 453 0098 0CFA03F3 		lsl	r3, ip, r3
 454              	.LVL30:
 455              	.LBE49:
 456              		.loc 1 166 0
ARM GAS  /tmp/ccDhVJfd.s 			page 9


 457 009c EDD0     		beq	.L6
 458              	.LBB50:
 459              		.loc 1 171 0
 460 009e 072C     		cmp	r4, #7
 461 00a0 C2D9     		bls	.L16
 462              		.loc 1 174 0
 463 00a2 D0F824B0 		ldr	fp, [r0, #36]
 464 00a6 2BEA0303 		bic	r3, fp, r3
 465              	.LVL31:
 466 00aa 43EA0A03 		orr	r3, r3, r10
 467 00ae 4362     		str	r3, [r0, #36]
 468 00b0 C1E7     		b	.L8
 469              	.LVL32:
 470              	.L5:
 471 00b2 BDE8F08F 		pop	{r4, r5, r6, r7, r8, r9, r10, fp, pc}
 472              	.LBE50:
 473              		.cfi_endproc
 474              	.LFE260:
 475              		.size	_pal_lld_setgroupmode, .-_pal_lld_setgroupmode
 476 00b6 00BF     		.text
 477              	.Letext0:
 478              		.file 2 "/usr/arm-none-eabi/include/machine/_default_types.h"
 479              		.file 3 "/usr/arm-none-eabi/include/sys/_stdint.h"
 480              		.file 4 "/home/selim/working/ChibiOS/os/rt/ports/ARMCMx/compilers/GCC/chtypes.h"
 481              		.file 5 "/home/selim/working/ChibiOS/os/rt/include/chsystypes.h"
 482              		.file 6 "/home/selim/working/ChibiOS/os/rt/include/chschd.h"
 483              		.file 7 "/home/selim/working/ChibiOS/os/ext/CMSIS/ST/stm32f407xx.h"
 484              		.file 8 "/home/selim/working/ChibiOS/os/rt/ports/ARMCMx/chcore.h"
 485              		.file 9 "/home/selim/working/ChibiOS/os/rt/ports/ARMCMx/chcore_v7m.h"
 486              		.file 10 "/home/selim/working/ChibiOS/os/rt/include/chtm.h"
 487              		.file 11 "/home/selim/working/ChibiOS/os/rt/include/chsem.h"
 488              		.file 12 "/home/selim/working/ChibiOS/os/rt/include/chmtx.h"
 489              		.file 13 "/home/selim/working/ChibiOS/os/hal/ports/STM32/LLD/GPIOv2/pal_lld.h"
 490              		.file 14 "/home/selim/working/ChibiOS/os/ext/CMSIS/include/core_cm4.h"
 491              		.section	.debug_info,"",%progbits
 492              	.Ldebug_info0:
 493 0000 680C0000 		.4byte	0xc68
 494 0004 0400     		.2byte	0x4
 495 0006 00000000 		.4byte	.Ldebug_abbrev0
 496 000a 04       		.byte	0x4
 497 000b 01       		.uleb128 0x1
 498 000c A5040000 		.4byte	.LASF173
 499 0010 0C       		.byte	0xc
 500 0011 1E020000 		.4byte	.LASF174
 501 0015 90000000 		.4byte	.Ldebug_ranges0+0x90
 502 0019 00000000 		.4byte	0
 503 001d 00000000 		.4byte	.Ldebug_line0
 504 0021 02       		.uleb128 0x2
 505 0022 04       		.byte	0x4
 506 0023 05       		.byte	0x5
 507 0024 696E7400 		.ascii	"int\000"
 508 0028 03       		.uleb128 0x3
 509 0029 04       		.byte	0x4
 510 002a 07       		.byte	0x7
 511 002b F7010000 		.4byte	.LASF0
 512 002f 03       		.uleb128 0x3
 513 0030 08       		.byte	0x8
ARM GAS  /tmp/ccDhVJfd.s 			page 10


 514 0031 05       		.byte	0x5
 515 0032 F2000000 		.4byte	.LASF1
 516 0036 03       		.uleb128 0x3
 517 0037 08       		.byte	0x8
 518 0038 04       		.byte	0x4
 519 0039 6A030000 		.4byte	.LASF2
 520 003d 03       		.uleb128 0x3
 521 003e 01       		.byte	0x1
 522 003f 06       		.byte	0x6
 523 0040 00010000 		.4byte	.LASF3
 524 0044 04       		.uleb128 0x4
 525 0045 36000000 		.4byte	.LASF6
 526 0049 02       		.byte	0x2
 527 004a 1D       		.byte	0x1d
 528 004b 4F000000 		.4byte	0x4f
 529 004f 03       		.uleb128 0x3
 530 0050 01       		.byte	0x1
 531 0051 08       		.byte	0x8
 532 0052 5F040000 		.4byte	.LASF4
 533 0056 03       		.uleb128 0x3
 534 0057 02       		.byte	0x2
 535 0058 05       		.byte	0x5
 536 0059 82040000 		.4byte	.LASF5
 537 005d 04       		.uleb128 0x4
 538 005e 36060000 		.4byte	.LASF7
 539 0062 02       		.byte	0x2
 540 0063 2B       		.byte	0x2b
 541 0064 68000000 		.4byte	0x68
 542 0068 03       		.uleb128 0x3
 543 0069 02       		.byte	0x2
 544 006a 07       		.byte	0x7
 545 006b 76020000 		.4byte	.LASF8
 546 006f 04       		.uleb128 0x4
 547 0070 EC020000 		.4byte	.LASF9
 548 0074 02       		.byte	0x2
 549 0075 3F       		.byte	0x3f
 550 0076 7A000000 		.4byte	0x7a
 551 007a 03       		.uleb128 0x3
 552 007b 04       		.byte	0x4
 553 007c 05       		.byte	0x5
 554 007d 46010000 		.4byte	.LASF10
 555 0081 04       		.uleb128 0x4
 556 0082 78060000 		.4byte	.LASF11
 557 0086 02       		.byte	0x2
 558 0087 41       		.byte	0x41
 559 0088 8C000000 		.4byte	0x8c
 560 008c 03       		.uleb128 0x3
 561 008d 04       		.byte	0x4
 562 008e 07       		.byte	0x7
 563 008f 0E060000 		.4byte	.LASF12
 564 0093 04       		.uleb128 0x4
 565 0094 D9030000 		.4byte	.LASF13
 566 0098 02       		.byte	0x2
 567 0099 5B       		.byte	0x5b
 568 009a 9E000000 		.4byte	0x9e
 569 009e 03       		.uleb128 0x3
 570 009f 08       		.byte	0x8
ARM GAS  /tmp/ccDhVJfd.s 			page 11


 571 00a0 07       		.byte	0x7
 572 00a1 7C000000 		.4byte	.LASF14
 573 00a5 04       		.uleb128 0x4
 574 00a6 2C070000 		.4byte	.LASF15
 575 00aa 03       		.byte	0x3
 576 00ab 14       		.byte	0x14
 577 00ac 44000000 		.4byte	0x44
 578 00b0 04       		.uleb128 0x4
 579 00b1 72010000 		.4byte	.LASF16
 580 00b5 03       		.byte	0x3
 581 00b6 1A       		.byte	0x1a
 582 00b7 5D000000 		.4byte	0x5d
 583 00bb 04       		.uleb128 0x4
 584 00bc 57040000 		.4byte	.LASF17
 585 00c0 03       		.byte	0x3
 586 00c1 1F       		.byte	0x1f
 587 00c2 6F000000 		.4byte	0x6f
 588 00c6 04       		.uleb128 0x4
 589 00c7 DD050000 		.4byte	.LASF18
 590 00cb 03       		.byte	0x3
 591 00cc 20       		.byte	0x20
 592 00cd 81000000 		.4byte	0x81
 593 00d1 04       		.uleb128 0x4
 594 00d2 2D000000 		.4byte	.LASF19
 595 00d6 03       		.byte	0x3
 596 00d7 26       		.byte	0x26
 597 00d8 93000000 		.4byte	0x93
 598 00dc 05       		.uleb128 0x5
 599 00dd BB000000 		.4byte	0xbb
 600 00e1 05       		.uleb128 0x5
 601 00e2 C6000000 		.4byte	0xc6
 602 00e6 04       		.uleb128 0x4
 603 00e7 DE060000 		.4byte	.LASF20
 604 00eb 04       		.byte	0x4
 605 00ec 46       		.byte	0x46
 606 00ed C6000000 		.4byte	0xc6
 607 00f1 04       		.uleb128 0x4
 608 00f2 C0020000 		.4byte	.LASF21
 609 00f6 04       		.byte	0x4
 610 00f7 49       		.byte	0x49
 611 00f8 A5000000 		.4byte	0xa5
 612 00fc 04       		.uleb128 0x4
 613 00fd 69010000 		.4byte	.LASF22
 614 0101 04       		.byte	0x4
 615 0102 4A       		.byte	0x4a
 616 0103 A5000000 		.4byte	0xa5
 617 0107 04       		.uleb128 0x4
 618 0108 EE030000 		.4byte	.LASF23
 619 010c 04       		.byte	0x4
 620 010d 4B       		.byte	0x4b
 621 010e A5000000 		.4byte	0xa5
 622 0112 04       		.uleb128 0x4
 623 0113 39040000 		.4byte	.LASF24
 624 0117 04       		.byte	0x4
 625 0118 4D       		.byte	0x4d
 626 0119 C6000000 		.4byte	0xc6
 627 011d 04       		.uleb128 0x4
ARM GAS  /tmp/ccDhVJfd.s 			page 12


 628 011e A5020000 		.4byte	.LASF25
 629 0122 04       		.byte	0x4
 630 0123 4E       		.byte	0x4e
 631 0124 BB000000 		.4byte	0xbb
 632 0128 04       		.uleb128 0x4
 633 0129 E0020000 		.4byte	.LASF26
 634 012d 04       		.byte	0x4
 635 012e 50       		.byte	0x50
 636 012f C6000000 		.4byte	0xc6
 637 0133 04       		.uleb128 0x4
 638 0134 F1010000 		.4byte	.LASF27
 639 0138 04       		.byte	0x4
 640 0139 52       		.byte	0x52
 641 013a BB000000 		.4byte	0xbb
 642 013e 04       		.uleb128 0x4
 643 013f 5A060000 		.4byte	.LASF28
 644 0143 05       		.byte	0x5
 645 0144 33       		.byte	0x33
 646 0145 C6000000 		.4byte	0xc6
 647 0149 04       		.uleb128 0x4
 648 014a 4A060000 		.4byte	.LASF29
 649 014e 05       		.byte	0x5
 650 014f 3F       		.byte	0x3f
 651 0150 54010000 		.4byte	0x154
 652 0154 06       		.uleb128 0x6
 653 0155 90020000 		.4byte	.LASF49
 654 0159 44       		.byte	0x44
 655 015a 06       		.byte	0x6
 656 015b C2       		.byte	0xc2
 657 015c 41020000 		.4byte	0x241
 658 0160 07       		.uleb128 0x7
 659 0161 76030000 		.4byte	.LASF30
 660 0165 06       		.byte	0x6
 661 0166 C3       		.byte	0xc3
 662 0167 4C020000 		.4byte	0x24c
 663 016b 00       		.byte	0
 664 016c 07       		.uleb128 0x7
 665 016d 28040000 		.4byte	.LASF31
 666 0171 06       		.byte	0x6
 667 0172 C5       		.byte	0xc5
 668 0173 4C020000 		.4byte	0x24c
 669 0177 04       		.byte	0x4
 670 0178 07       		.uleb128 0x7
 671 0179 EB000000 		.4byte	.LASF32
 672 017d 06       		.byte	0x6
 673 017e C7       		.byte	0xc7
 674 017f 12010000 		.4byte	0x112
 675 0183 08       		.byte	0x8
 676 0184 07       		.uleb128 0x7
 677 0185 85070000 		.4byte	.LASF33
 678 0189 06       		.byte	0x6
 679 018a C8       		.byte	0xc8
 680 018b 27060000 		.4byte	0x627
 681 018f 0C       		.byte	0xc
 682 0190 07       		.uleb128 0x7
 683 0191 84010000 		.4byte	.LASF34
 684 0195 06       		.byte	0x6
ARM GAS  /tmp/ccDhVJfd.s 			page 13


 685 0196 CA       		.byte	0xca
 686 0197 4C020000 		.4byte	0x24c
 687 019b 10       		.byte	0x10
 688 019c 07       		.uleb128 0x7
 689 019d 91030000 		.4byte	.LASF35
 690 01a1 06       		.byte	0x6
 691 01a2 CB       		.byte	0xcb
 692 01a3 4C020000 		.4byte	0x24c
 693 01a7 14       		.byte	0x14
 694 01a8 07       		.uleb128 0x7
 695 01a9 41070000 		.4byte	.LASF36
 696 01ad 06       		.byte	0x6
 697 01ae D2       		.byte	0xd2
 698 01af A6070000 		.4byte	0x7a6
 699 01b3 18       		.byte	0x18
 700 01b4 07       		.uleb128 0x7
 701 01b5 8C040000 		.4byte	.LASF37
 702 01b9 06       		.byte	0x6
 703 01ba DD       		.byte	0xdd
 704 01bb FC000000 		.4byte	0xfc
 705 01bf 1C       		.byte	0x1c
 706 01c0 07       		.uleb128 0x7
 707 01c1 8D050000 		.4byte	.LASF38
 708 01c5 06       		.byte	0x6
 709 01c6 E1       		.byte	0xe1
 710 01c7 F1000000 		.4byte	0xf1
 711 01cb 1D       		.byte	0x1d
 712 01cc 07       		.uleb128 0x7
 713 01cd 0C070000 		.4byte	.LASF39
 714 01d1 06       		.byte	0x6
 715 01d2 E6       		.byte	0xe6
 716 01d3 07010000 		.4byte	0x107
 717 01d7 1E       		.byte	0x1e
 718 01d8 08       		.uleb128 0x8
 719 01d9 705F7500 		.ascii	"p_u\000"
 720 01dd 06       		.byte	0x6
 721 01de 3101     		.2byte	0x131
 722 01e0 E1060000 		.4byte	0x6e1
 723 01e4 20       		.byte	0x20
 724 01e5 09       		.uleb128 0x9
 725 01e6 27030000 		.4byte	.LASF40
 726 01ea 06       		.byte	0x6
 727 01eb 3601     		.2byte	0x136
 728 01ed 52020000 		.4byte	0x252
 729 01f1 24       		.byte	0x24
 730 01f2 09       		.uleb128 0x9
 731 01f3 13020000 		.4byte	.LASF41
 732 01f7 06       		.byte	0x6
 733 01f8 3C01     		.2byte	0x13c
 734 01fa 76020000 		.4byte	0x276
 735 01fe 28       		.byte	0x28
 736 01ff 09       		.uleb128 0x9
 737 0200 64070000 		.4byte	.LASF42
 738 0204 06       		.byte	0x6
 739 0205 4001     		.2byte	0x140
 740 0207 1D010000 		.4byte	0x11d
 741 020b 30       		.byte	0x30
ARM GAS  /tmp/ccDhVJfd.s 			page 14


 742 020c 09       		.uleb128 0x9
 743 020d C8050000 		.4byte	.LASF43
 744 0211 06       		.byte	0x6
 745 0212 4601     		.2byte	0x146
 746 0214 28010000 		.4byte	0x128
 747 0218 34       		.byte	0x34
 748 0219 09       		.uleb128 0x9
 749 021a 78040000 		.4byte	.LASF44
 750 021e 06       		.byte	0x6
 751 021f 4D01     		.2byte	0x14d
 752 0221 A0070000 		.4byte	0x7a0
 753 0225 38       		.byte	0x38
 754 0226 09       		.uleb128 0x9
 755 0227 64060000 		.4byte	.LASF45
 756 022b 06       		.byte	0x6
 757 022c 5101     		.2byte	0x151
 758 022e 12010000 		.4byte	0x112
 759 0232 3C       		.byte	0x3c
 760 0233 09       		.uleb128 0x9
 761 0234 1A010000 		.4byte	.LASF46
 762 0238 06       		.byte	0x6
 763 0239 5801     		.2byte	0x158
 764 023b 29030000 		.4byte	0x329
 765 023f 40       		.byte	0x40
 766 0240 00       		.byte	0
 767 0241 04       		.uleb128 0x4
 768 0242 3A030000 		.4byte	.LASF47
 769 0246 05       		.byte	0x5
 770 0247 44       		.byte	0x44
 771 0248 4C020000 		.4byte	0x24c
 772 024c 0A       		.uleb128 0xa
 773 024d 04       		.byte	0x4
 774 024e 49010000 		.4byte	0x149
 775 0252 04       		.uleb128 0x4
 776 0253 08030000 		.4byte	.LASF48
 777 0257 05       		.byte	0x5
 778 0258 49       		.byte	0x49
 779 0259 5D020000 		.4byte	0x25d
 780 025d 06       		.uleb128 0x6
 781 025e FE050000 		.4byte	.LASF50
 782 0262 04       		.byte	0x4
 783 0263 06       		.byte	0x6
 784 0264 B0       		.byte	0xb0
 785 0265 76020000 		.4byte	0x276
 786 0269 07       		.uleb128 0x7
 787 026a 76030000 		.4byte	.LASF30
 788 026e 06       		.byte	0x6
 789 026f B1       		.byte	0xb1
 790 0270 4C020000 		.4byte	0x24c
 791 0274 00       		.byte	0
 792 0275 00       		.byte	0
 793 0276 04       		.uleb128 0x4
 794 0277 F3060000 		.4byte	.LASF51
 795 027b 05       		.byte	0x5
 796 027c 50       		.byte	0x50
 797 027d 81020000 		.4byte	0x281
 798 0281 06       		.uleb128 0x6
ARM GAS  /tmp/ccDhVJfd.s 			page 15


 799 0282 D0000000 		.4byte	.LASF52
 800 0286 08       		.byte	0x8
 801 0287 06       		.byte	0x6
 802 0288 B7       		.byte	0xb7
 803 0289 A6020000 		.4byte	0x2a6
 804 028d 07       		.uleb128 0x7
 805 028e 76030000 		.4byte	.LASF30
 806 0292 06       		.byte	0x6
 807 0293 B8       		.byte	0xb8
 808 0294 4C020000 		.4byte	0x24c
 809 0298 00       		.byte	0
 810 0299 07       		.uleb128 0x7
 811 029a 28040000 		.4byte	.LASF31
 812 029e 06       		.byte	0x6
 813 029f B9       		.byte	0xb9
 814 02a0 4C020000 		.4byte	0x24c
 815 02a4 04       		.byte	0x4
 816 02a5 00       		.byte	0
 817 02a6 04       		.uleb128 0x4
 818 02a7 13000000 		.4byte	.LASF53
 819 02ab 05       		.byte	0x5
 820 02ac 57       		.byte	0x57
 821 02ad B1020000 		.4byte	0x2b1
 822 02b1 0B       		.uleb128 0xb
 823 02b2 D2020000 		.4byte	.LASF54
 824 02b6 1C       		.byte	0x1c
 825 02b7 06       		.byte	0x6
 826 02b8 9001     		.2byte	0x190
 827 02ba 0D030000 		.4byte	0x30d
 828 02be 09       		.uleb128 0x9
 829 02bf ED050000 		.4byte	.LASF55
 830 02c3 06       		.byte	0x6
 831 02c4 9101     		.2byte	0x191
 832 02c6 76020000 		.4byte	0x276
 833 02ca 00       		.byte	0
 834 02cb 09       		.uleb128 0x9
 835 02cc 9E040000 		.4byte	.LASF56
 836 02d0 06       		.byte	0x6
 837 02d1 9201     		.2byte	0x192
 838 02d3 12010000 		.4byte	0x112
 839 02d7 08       		.byte	0x8
 840 02d8 09       		.uleb128 0x9
 841 02d9 99030000 		.4byte	.LASF57
 842 02dd 06       		.byte	0x6
 843 02de 9401     		.2byte	0x194
 844 02e0 27060000 		.4byte	0x627
 845 02e4 0C       		.byte	0xc
 846 02e5 09       		.uleb128 0x9
 847 02e6 9C010000 		.4byte	.LASF58
 848 02ea 06       		.byte	0x6
 849 02eb 9701     		.2byte	0x197
 850 02ed 4C020000 		.4byte	0x24c
 851 02f1 10       		.byte	0x10
 852 02f2 09       		.uleb128 0x9
 853 02f3 C0060000 		.4byte	.LASF59
 854 02f7 06       		.byte	0x6
 855 02f8 9801     		.2byte	0x198
ARM GAS  /tmp/ccDhVJfd.s 			page 16


 856 02fa 4C020000 		.4byte	0x24c
 857 02fe 14       		.byte	0x14
 858 02ff 09       		.uleb128 0x9
 859 0300 C6030000 		.4byte	.LASF60
 860 0304 06       		.byte	0x6
 861 0305 9B01     		.2byte	0x19b
 862 0307 4C020000 		.4byte	0x24c
 863 030b 18       		.byte	0x18
 864 030c 00       		.byte	0
 865 030d 04       		.uleb128 0x4
 866 030e 6F060000 		.4byte	.LASF61
 867 0312 05       		.byte	0x5
 868 0313 5C       		.byte	0x5c
 869 0314 18030000 		.4byte	0x318
 870 0318 0A       		.uleb128 0xa
 871 0319 04       		.byte	0x4
 872 031a 1E030000 		.4byte	0x31e
 873 031e 0C       		.uleb128 0xc
 874 031f 29030000 		.4byte	0x329
 875 0323 0D       		.uleb128 0xd
 876 0324 29030000 		.4byte	0x329
 877 0328 00       		.byte	0
 878 0329 0E       		.uleb128 0xe
 879 032a 04       		.byte	0x4
 880 032b 04       		.uleb128 0x4
 881 032c 17030000 		.4byte	.LASF62
 882 0330 05       		.byte	0x5
 883 0331 61       		.byte	0x61
 884 0332 36030000 		.4byte	0x336
 885 0336 0B       		.uleb128 0xb
 886 0337 AA050000 		.4byte	.LASF63
 887 033b 14       		.byte	0x14
 888 033c 06       		.byte	0x6
 889 033d 6B01     		.2byte	0x16b
 890 033f 85030000 		.4byte	0x385
 891 0343 09       		.uleb128 0x9
 892 0344 04020000 		.4byte	.LASF64
 893 0348 06       		.byte	0x6
 894 0349 6C01     		.2byte	0x16c
 895 034b B8070000 		.4byte	0x7b8
 896 034f 00       		.byte	0
 897 0350 09       		.uleb128 0x9
 898 0351 B2010000 		.4byte	.LASF65
 899 0355 06       		.byte	0x6
 900 0356 6D01     		.2byte	0x16d
 901 0358 B8070000 		.4byte	0x7b8
 902 035c 04       		.byte	0x4
 903 035d 09       		.uleb128 0x9
 904 035e F5050000 		.4byte	.LASF66
 905 0362 06       		.byte	0x6
 906 0363 6E01     		.2byte	0x16e
 907 0365 3E010000 		.4byte	0x13e
 908 0369 08       		.byte	0x8
 909 036a 09       		.uleb128 0x9
 910 036b 8B070000 		.4byte	.LASF67
 911 036f 06       		.byte	0x6
 912 0370 6F01     		.2byte	0x16f
ARM GAS  /tmp/ccDhVJfd.s 			page 17


 913 0372 0D030000 		.4byte	0x30d
 914 0376 0C       		.byte	0xc
 915 0377 09       		.uleb128 0x9
 916 0378 E6060000 		.4byte	.LASF68
 917 037c 06       		.byte	0x6
 918 037d 7101     		.2byte	0x171
 919 037f 29030000 		.4byte	0x329
 920 0383 10       		.byte	0x10
 921 0384 00       		.byte	0
 922 0385 04       		.uleb128 0x4
 923 0386 AD000000 		.4byte	.LASF69
 924 038a 05       		.byte	0x5
 925 038b 66       		.byte	0x66
 926 038c 90030000 		.4byte	0x390
 927 0390 0B       		.uleb128 0xb
 928 0391 4D030000 		.4byte	.LASF70
 929 0395 10       		.byte	0x10
 930 0396 06       		.byte	0x6
 931 0397 7B01     		.2byte	0x17b
 932 0399 D2030000 		.4byte	0x3d2
 933 039d 09       		.uleb128 0x9
 934 039e 04020000 		.4byte	.LASF64
 935 03a2 06       		.byte	0x6
 936 03a3 7C01     		.2byte	0x17c
 937 03a5 B8070000 		.4byte	0x7b8
 938 03a9 00       		.byte	0
 939 03aa 09       		.uleb128 0x9
 940 03ab B2010000 		.4byte	.LASF65
 941 03af 06       		.byte	0x6
 942 03b0 7E01     		.2byte	0x17e
 943 03b2 B8070000 		.4byte	0x7b8
 944 03b6 04       		.byte	0x4
 945 03b7 09       		.uleb128 0x9
 946 03b8 F5050000 		.4byte	.LASF66
 947 03bc 06       		.byte	0x6
 948 03bd 8001     		.2byte	0x180
 949 03bf 3E010000 		.4byte	0x13e
 950 03c3 08       		.byte	0x8
 951 03c4 09       		.uleb128 0x9
 952 03c5 85030000 		.4byte	.LASF71
 953 03c9 06       		.byte	0x6
 954 03ca 8801     		.2byte	0x188
 955 03cc 3E010000 		.4byte	0x13e
 956 03d0 0C       		.byte	0xc
 957 03d1 00       		.byte	0
 958 03d2 04       		.uleb128 0x4
 959 03d3 53000000 		.4byte	.LASF72
 960 03d7 05       		.byte	0x5
 961 03d8 6B       		.byte	0x6b
 962 03d9 DD030000 		.4byte	0x3dd
 963 03dd 0B       		.uleb128 0xb
 964 03de 41040000 		.4byte	.LASF73
 965 03e2 04       		.byte	0x4
 966 03e3 06       		.byte	0x6
 967 03e4 A201     		.2byte	0x1a2
 968 03e6 F8030000 		.4byte	0x3f8
 969 03ea 09       		.uleb128 0x9
ARM GAS  /tmp/ccDhVJfd.s 			page 18


 970 03eb 8C060000 		.4byte	.LASF74
 971 03ef 06       		.byte	0x6
 972 03f0 AA01     		.2byte	0x1aa
 973 03f2 BE070000 		.4byte	0x7be
 974 03f6 00       		.byte	0
 975 03f7 00       		.byte	0
 976 03f8 04       		.uleb128 0x4
 977 03f9 B4020000 		.4byte	.LASF75
 978 03fd 05       		.byte	0x5
 979 03fe 70       		.byte	0x70
 980 03ff 03040000 		.4byte	0x403
 981 0403 0F       		.uleb128 0xf
 982 0404 3C010000 		.4byte	.LASF76
 983 0408 5001     		.2byte	0x150
 984 040a 06       		.byte	0x6
 985 040b C201     		.2byte	0x1c2
 986 040d 5F040000 		.4byte	0x45f
 987 0411 09       		.uleb128 0x9
 988 0412 26070000 		.4byte	.LASF77
 989 0416 06       		.byte	0x6
 990 0417 C601     		.2byte	0x1c6
 991 0419 A6020000 		.4byte	0x2a6
 992 041d 00       		.byte	0
 993 041e 09       		.uleb128 0x9
 994 041f BA010000 		.4byte	.LASF78
 995 0423 06       		.byte	0x6
 996 0424 CA01     		.2byte	0x1ca
 997 0426 85030000 		.4byte	0x385
 998 042a 1C       		.byte	0x1c
 999 042b 08       		.uleb128 0x8
 1000 042c 64626700 		.ascii	"dbg\000"
 1001 0430 06       		.byte	0x6
 1002 0431 CE01     		.2byte	0x1ce
 1003 0433 D2030000 		.4byte	0x3d2
 1004 0437 2C       		.byte	0x2c
 1005 0438 09       		.uleb128 0x9
 1006 0439 A2000000 		.4byte	.LASF79
 1007 043d 06       		.byte	0x6
 1008 043e D201     		.2byte	0x1d2
 1009 0440 49010000 		.4byte	0x149
 1010 0444 30       		.byte	0x30
 1011 0445 08       		.uleb128 0x8
 1012 0446 746D00   		.ascii	"tm\000"
 1013 0449 06       		.byte	0x6
 1014 044a D701     		.2byte	0x1d7
 1015 044c D6060000 		.4byte	0x6d6
 1016 0450 74       		.byte	0x74
 1017 0451 09       		.uleb128 0x9
 1018 0452 E2010000 		.4byte	.LASF80
 1019 0456 06       		.byte	0x6
 1020 0457 E301     		.2byte	0x1e3
 1021 0459 C3070000 		.4byte	0x7c3
 1022 045d 78       		.byte	0x78
 1023 045e 00       		.byte	0
 1024 045f 03       		.uleb128 0x3
 1025 0460 04       		.byte	0x4
 1026 0461 07       		.byte	0x7
ARM GAS  /tmp/ccDhVJfd.s 			page 19


 1027 0462 31030000 		.4byte	.LASF81
 1028 0466 10       		.uleb128 0x10
 1029 0467 C6000000 		.4byte	0xc6
 1030 046b 76040000 		.4byte	0x476
 1031 046f 11       		.uleb128 0x11
 1032 0470 5F040000 		.4byte	0x45f
 1033 0474 01       		.byte	0x1
 1034 0475 00       		.byte	0
 1035 0476 12       		.uleb128 0x12
 1036 0477 88       		.byte	0x88
 1037 0478 07       		.byte	0x7
 1038 0479 6702     		.2byte	0x267
 1039 047b 05060000 		.4byte	0x605
 1040 047f 08       		.uleb128 0x8
 1041 0480 435200   		.ascii	"CR\000"
 1042 0483 07       		.byte	0x7
 1043 0484 6902     		.2byte	0x269
 1044 0486 E1000000 		.4byte	0xe1
 1045 048a 00       		.byte	0
 1046 048b 09       		.uleb128 0x9
 1047 048c 8C010000 		.4byte	.LASF82
 1048 0490 07       		.byte	0x7
 1049 0491 6A02     		.2byte	0x26a
 1050 0493 E1000000 		.4byte	0xe1
 1051 0497 04       		.byte	0x4
 1052 0498 09       		.uleb128 0x9
 1053 0499 57070000 		.4byte	.LASF83
 1054 049d 07       		.byte	0x7
 1055 049e 6B02     		.2byte	0x26b
 1056 04a0 E1000000 		.4byte	0xe1
 1057 04a4 08       		.byte	0x8
 1058 04a5 08       		.uleb128 0x8
 1059 04a6 43495200 		.ascii	"CIR\000"
 1060 04aa 07       		.byte	0x7
 1061 04ab 6C02     		.2byte	0x26c
 1062 04ad E1000000 		.4byte	0xe1
 1063 04b1 0C       		.byte	0xc
 1064 04b2 09       		.uleb128 0x9
 1065 04b3 11010000 		.4byte	.LASF84
 1066 04b7 07       		.byte	0x7
 1067 04b8 6D02     		.2byte	0x26d
 1068 04ba E1000000 		.4byte	0xe1
 1069 04be 10       		.byte	0x10
 1070 04bf 09       		.uleb128 0x9
 1071 04c0 41060000 		.4byte	.LASF85
 1072 04c4 07       		.byte	0x7
 1073 04c5 6E02     		.2byte	0x26e
 1074 04c7 E1000000 		.4byte	0xe1
 1075 04cb 14       		.byte	0x14
 1076 04cc 09       		.uleb128 0x9
 1077 04cd AB020000 		.4byte	.LASF86
 1078 04d1 07       		.byte	0x7
 1079 04d2 6F02     		.2byte	0x26f
 1080 04d4 E1000000 		.4byte	0xe1
 1081 04d8 18       		.byte	0x18
 1082 04d9 09       		.uleb128 0x9
 1083 04da F6030000 		.4byte	.LASF87
ARM GAS  /tmp/ccDhVJfd.s 			page 20


 1084 04de 07       		.byte	0x7
 1085 04df 7002     		.2byte	0x270
 1086 04e1 C6000000 		.4byte	0xc6
 1087 04e5 1C       		.byte	0x1c
 1088 04e6 09       		.uleb128 0x9
 1089 04e7 D0030000 		.4byte	.LASF88
 1090 04eb 07       		.byte	0x7
 1091 04ec 7102     		.2byte	0x271
 1092 04ee E1000000 		.4byte	0xe1
 1093 04f2 20       		.byte	0x20
 1094 04f3 09       		.uleb128 0x9
 1095 04f4 56010000 		.4byte	.LASF89
 1096 04f8 07       		.byte	0x7
 1097 04f9 7202     		.2byte	0x272
 1098 04fb E1000000 		.4byte	0xe1
 1099 04ff 24       		.byte	0x24
 1100 0500 09       		.uleb128 0x9
 1101 0501 00040000 		.4byte	.LASF90
 1102 0505 07       		.byte	0x7
 1103 0506 7302     		.2byte	0x273
 1104 0508 66040000 		.4byte	0x466
 1105 050c 28       		.byte	0x28
 1106 050d 09       		.uleb128 0x9
 1107 050e 48070000 		.4byte	.LASF91
 1108 0512 07       		.byte	0x7
 1109 0513 7402     		.2byte	0x274
 1110 0515 E1000000 		.4byte	0xe1
 1111 0519 30       		.byte	0x30
 1112 051a 09       		.uleb128 0x9
 1113 051b B0060000 		.4byte	.LASF92
 1114 051f 07       		.byte	0x7
 1115 0520 7502     		.2byte	0x275
 1116 0522 E1000000 		.4byte	0xe1
 1117 0526 34       		.byte	0x34
 1118 0527 09       		.uleb128 0x9
 1119 0528 7D030000 		.4byte	.LASF93
 1120 052c 07       		.byte	0x7
 1121 052d 7602     		.2byte	0x276
 1122 052f E1000000 		.4byte	0xe1
 1123 0533 38       		.byte	0x38
 1124 0534 09       		.uleb128 0x9
 1125 0535 0A040000 		.4byte	.LASF94
 1126 0539 07       		.byte	0x7
 1127 053a 7702     		.2byte	0x277
 1128 053c C6000000 		.4byte	0xc6
 1129 0540 3C       		.byte	0x3c
 1130 0541 09       		.uleb128 0x9
 1131 0542 9D060000 		.4byte	.LASF95
 1132 0546 07       		.byte	0x7
 1133 0547 7802     		.2byte	0x278
 1134 0549 E1000000 		.4byte	0xe1
 1135 054d 40       		.byte	0x40
 1136 054e 09       		.uleb128 0x9
 1137 054f 9B050000 		.4byte	.LASF96
 1138 0553 07       		.byte	0x7
 1139 0554 7902     		.2byte	0x279
 1140 0556 E1000000 		.4byte	0xe1
ARM GAS  /tmp/ccDhVJfd.s 			page 21


 1141 055a 44       		.byte	0x44
 1142 055b 09       		.uleb128 0x9
 1143 055c 14040000 		.4byte	.LASF97
 1144 0560 07       		.byte	0x7
 1145 0561 7A02     		.2byte	0x27a
 1146 0563 66040000 		.4byte	0x466
 1147 0567 48       		.byte	0x48
 1148 0568 09       		.uleb128 0x9
 1149 0569 E1000000 		.4byte	.LASF98
 1150 056d 07       		.byte	0x7
 1151 056e 7B02     		.2byte	0x27b
 1152 0570 E1000000 		.4byte	0xe1
 1153 0574 50       		.byte	0x50
 1154 0575 09       		.uleb128 0x9
 1155 0576 9F030000 		.4byte	.LASF99
 1156 057a 07       		.byte	0x7
 1157 057b 7C02     		.2byte	0x27c
 1158 057d E1000000 		.4byte	0xe1
 1159 0581 54       		.byte	0x54
 1160 0582 09       		.uleb128 0x9
 1161 0583 94040000 		.4byte	.LASF100
 1162 0587 07       		.byte	0x7
 1163 0588 7D02     		.2byte	0x27d
 1164 058a E1000000 		.4byte	0xe1
 1165 058e 58       		.byte	0x58
 1166 058f 09       		.uleb128 0x9
 1167 0590 1E040000 		.4byte	.LASF101
 1168 0594 07       		.byte	0x7
 1169 0595 7E02     		.2byte	0x27e
 1170 0597 C6000000 		.4byte	0xc6
 1171 059b 5C       		.byte	0x5c
 1172 059c 09       		.uleb128 0x9
 1173 059d 5F010000 		.4byte	.LASF102
 1174 05a1 07       		.byte	0x7
 1175 05a2 7F02     		.2byte	0x27f
 1176 05a4 E1000000 		.4byte	0xe1
 1177 05a8 60       		.byte	0x60
 1178 05a9 09       		.uleb128 0x9
 1179 05aa C8020000 		.4byte	.LASF103
 1180 05ae 07       		.byte	0x7
 1181 05af 8002     		.2byte	0x280
 1182 05b1 E1000000 		.4byte	0xe1
 1183 05b5 64       		.byte	0x64
 1184 05b6 09       		.uleb128 0x9
 1185 05b7 D3050000 		.4byte	.LASF104
 1186 05bb 07       		.byte	0x7
 1187 05bc 8102     		.2byte	0x281
 1188 05be 66040000 		.4byte	0x466
 1189 05c2 68       		.byte	0x68
 1190 05c3 09       		.uleb128 0x9
 1191 05c4 21070000 		.4byte	.LASF105
 1192 05c8 07       		.byte	0x7
 1193 05c9 8202     		.2byte	0x282
 1194 05cb E1000000 		.4byte	0xe1
 1195 05cf 70       		.byte	0x70
 1196 05d0 08       		.uleb128 0x8
 1197 05d1 43535200 		.ascii	"CSR\000"
ARM GAS  /tmp/ccDhVJfd.s 			page 22


 1198 05d5 07       		.byte	0x7
 1199 05d6 8302     		.2byte	0x283
 1200 05d8 E1000000 		.4byte	0xe1
 1201 05dc 74       		.byte	0x74
 1202 05dd 09       		.uleb128 0x9
 1203 05de 2F040000 		.4byte	.LASF106
 1204 05e2 07       		.byte	0x7
 1205 05e3 8402     		.2byte	0x284
 1206 05e5 66040000 		.4byte	0x466
 1207 05e9 78       		.byte	0x78
 1208 05ea 09       		.uleb128 0x9
 1209 05eb ED060000 		.4byte	.LASF107
 1210 05ef 07       		.byte	0x7
 1211 05f0 8502     		.2byte	0x285
 1212 05f2 E1000000 		.4byte	0xe1
 1213 05f6 80       		.byte	0x80
 1214 05f7 09       		.uleb128 0x9
 1215 05f8 9A020000 		.4byte	.LASF108
 1216 05fc 07       		.byte	0x7
 1217 05fd 8602     		.2byte	0x286
 1218 05ff E1000000 		.4byte	0xe1
 1219 0603 84       		.byte	0x84
 1220 0604 00       		.byte	0
 1221 0605 13       		.uleb128 0x13
 1222 0606 30010000 		.4byte	.LASF109
 1223 060a 07       		.byte	0x7
 1224 060b 8802     		.2byte	0x288
 1225 060d 76040000 		.4byte	0x476
 1226 0611 04       		.uleb128 0x4
 1227 0612 A9010000 		.4byte	.LASF110
 1228 0616 08       		.byte	0x8
 1229 0617 65       		.byte	0x65
 1230 0618 29030000 		.4byte	0x329
 1231 061c 04       		.uleb128 0x4
 1232 061d FD020000 		.4byte	.LASF111
 1233 0621 08       		.byte	0x8
 1234 0622 6D       		.byte	0x6d
 1235 0623 D1000000 		.4byte	0xd1
 1236 0627 06       		.uleb128 0x6
 1237 0628 B8060000 		.4byte	.LASF112
 1238 062c 04       		.byte	0x4
 1239 062d 08       		.byte	0x8
 1240 062e 89       		.byte	0x89
 1241 062f 40060000 		.4byte	0x640
 1242 0633 14       		.uleb128 0x14
 1243 0634 72313300 		.ascii	"r13\000"
 1244 0638 08       		.byte	0x8
 1245 0639 8A       		.byte	0x8a
 1246 063a BB060000 		.4byte	0x6bb
 1247 063e 00       		.byte	0
 1248 063f 00       		.byte	0
 1249 0640 06       		.uleb128 0x6
 1250 0641 47000000 		.4byte	.LASF113
 1251 0645 24       		.byte	0x24
 1252 0646 09       		.byte	0x9
 1253 0647 F4       		.byte	0xf4
 1254 0648 BB060000 		.4byte	0x6bb
ARM GAS  /tmp/ccDhVJfd.s 			page 23


 1255 064c 08       		.uleb128 0x8
 1256 064d 723400   		.ascii	"r4\000"
 1257 0650 09       		.byte	0x9
 1258 0651 0701     		.2byte	0x107
 1259 0653 11060000 		.4byte	0x611
 1260 0657 00       		.byte	0
 1261 0658 08       		.uleb128 0x8
 1262 0659 723500   		.ascii	"r5\000"
 1263 065c 09       		.byte	0x9
 1264 065d 0801     		.2byte	0x108
 1265 065f 11060000 		.4byte	0x611
 1266 0663 04       		.byte	0x4
 1267 0664 08       		.uleb128 0x8
 1268 0665 723600   		.ascii	"r6\000"
 1269 0668 09       		.byte	0x9
 1270 0669 0901     		.2byte	0x109
 1271 066b 11060000 		.4byte	0x611
 1272 066f 08       		.byte	0x8
 1273 0670 08       		.uleb128 0x8
 1274 0671 723700   		.ascii	"r7\000"
 1275 0674 09       		.byte	0x9
 1276 0675 0A01     		.2byte	0x10a
 1277 0677 11060000 		.4byte	0x611
 1278 067b 0C       		.byte	0xc
 1279 067c 08       		.uleb128 0x8
 1280 067d 723800   		.ascii	"r8\000"
 1281 0680 09       		.byte	0x9
 1282 0681 0B01     		.2byte	0x10b
 1283 0683 11060000 		.4byte	0x611
 1284 0687 10       		.byte	0x10
 1285 0688 08       		.uleb128 0x8
 1286 0689 723900   		.ascii	"r9\000"
 1287 068c 09       		.byte	0x9
 1288 068d 0C01     		.2byte	0x10c
 1289 068f 11060000 		.4byte	0x611
 1290 0693 14       		.byte	0x14
 1291 0694 08       		.uleb128 0x8
 1292 0695 72313000 		.ascii	"r10\000"
 1293 0699 09       		.byte	0x9
 1294 069a 0D01     		.2byte	0x10d
 1295 069c 11060000 		.4byte	0x611
 1296 06a0 18       		.byte	0x18
 1297 06a1 08       		.uleb128 0x8
 1298 06a2 72313100 		.ascii	"r11\000"
 1299 06a6 09       		.byte	0x9
 1300 06a7 0E01     		.2byte	0x10e
 1301 06a9 11060000 		.4byte	0x611
 1302 06ad 1C       		.byte	0x1c
 1303 06ae 08       		.uleb128 0x8
 1304 06af 6C7200   		.ascii	"lr\000"
 1305 06b2 09       		.byte	0x9
 1306 06b3 0F01     		.2byte	0x10f
 1307 06b5 11060000 		.4byte	0x611
 1308 06b9 20       		.byte	0x20
 1309 06ba 00       		.byte	0
 1310 06bb 0A       		.uleb128 0xa
 1311 06bc 04       		.byte	0x4
ARM GAS  /tmp/ccDhVJfd.s 			page 24


 1312 06bd 40060000 		.4byte	0x640
 1313 06c1 15       		.uleb128 0x15
 1314 06c2 04       		.byte	0x4
 1315 06c3 0A       		.byte	0xa
 1316 06c4 38       		.byte	0x38
 1317 06c5 D6060000 		.4byte	0x6d6
 1318 06c9 07       		.uleb128 0x7
 1319 06ca 96060000 		.4byte	.LASF114
 1320 06ce 0A       		.byte	0xa
 1321 06cf 3C       		.byte	0x3c
 1322 06d0 E6000000 		.4byte	0xe6
 1323 06d4 00       		.byte	0
 1324 06d5 00       		.byte	0
 1325 06d6 04       		.uleb128 0x4
 1326 06d7 A9030000 		.4byte	.LASF115
 1327 06db 0A       		.byte	0xa
 1328 06dc 3D       		.byte	0x3d
 1329 06dd C1060000 		.4byte	0x6c1
 1330 06e1 16       		.uleb128 0x16
 1331 06e2 04       		.byte	0x4
 1332 06e3 06       		.byte	0x6
 1333 06e4 FA       		.byte	0xfa
 1334 06e5 3E070000 		.4byte	0x73e
 1335 06e9 17       		.uleb128 0x17
 1336 06ea 26000000 		.4byte	.LASF116
 1337 06ee 06       		.byte	0x6
 1338 06ef 0101     		.2byte	0x101
 1339 06f1 1D010000 		.4byte	0x11d
 1340 06f5 17       		.uleb128 0x17
 1341 06f6 99000000 		.4byte	.LASF117
 1342 06fa 06       		.byte	0x6
 1343 06fb 0801     		.2byte	0x108
 1344 06fd 1D010000 		.4byte	0x11d
 1345 0701 17       		.uleb128 0x17
 1346 0702 3A070000 		.4byte	.LASF118
 1347 0706 06       		.byte	0x6
 1348 0707 0F01     		.2byte	0x10f
 1349 0709 29030000 		.4byte	0x329
 1350 070d 17       		.uleb128 0x17
 1351 070e 20000000 		.4byte	.LASF119
 1352 0712 06       		.byte	0x6
 1353 0713 1601     		.2byte	0x116
 1354 0715 3E070000 		.4byte	0x73e
 1355 0719 17       		.uleb128 0x17
 1356 071a 0C020000 		.4byte	.LASF120
 1357 071e 06       		.byte	0x6
 1358 071f 1E01     		.2byte	0x11e
 1359 0721 69070000 		.4byte	0x769
 1360 0725 17       		.uleb128 0x17
 1361 0726 E6050000 		.4byte	.LASF121
 1362 072a 06       		.byte	0x6
 1363 072b 2701     		.2byte	0x127
 1364 072d A0070000 		.4byte	0x7a0
 1365 0731 17       		.uleb128 0x17
 1366 0732 86050000 		.4byte	.LASF122
 1367 0736 06       		.byte	0x6
 1368 0737 2F01     		.2byte	0x12f
ARM GAS  /tmp/ccDhVJfd.s 			page 25


 1369 0739 28010000 		.4byte	0x128
 1370 073d 00       		.byte	0
 1371 073e 0A       		.uleb128 0xa
 1372 073f 04       		.byte	0x4
 1373 0740 41020000 		.4byte	0x241
 1374 0744 06       		.uleb128 0x6
 1375 0745 BB050000 		.4byte	.LASF123
 1376 0749 0C       		.byte	0xc
 1377 074a 0B       		.byte	0xb
 1378 074b 34       		.byte	0x34
 1379 074c 69070000 		.4byte	0x769
 1380 0750 07       		.uleb128 0x7
 1381 0751 5C070000 		.4byte	.LASF124
 1382 0755 0B       		.byte	0xb
 1383 0756 35       		.byte	0x35
 1384 0757 76020000 		.4byte	0x276
 1385 075b 00       		.byte	0
 1386 075c 07       		.uleb128 0x7
 1387 075d 72040000 		.4byte	.LASF125
 1388 0761 0B       		.byte	0xb
 1389 0762 37       		.byte	0x37
 1390 0763 33010000 		.4byte	0x133
 1391 0767 08       		.byte	0x8
 1392 0768 00       		.byte	0
 1393 0769 0A       		.uleb128 0xa
 1394 076a 04       		.byte	0x4
 1395 076b 44070000 		.4byte	0x744
 1396 076f 06       		.uleb128 0x6
 1397 0770 03070000 		.4byte	.LASF126
 1398 0774 10       		.byte	0x10
 1399 0775 0C       		.byte	0xc
 1400 0776 39       		.byte	0x39
 1401 0777 A0070000 		.4byte	0x7a0
 1402 077b 07       		.uleb128 0x7
 1403 077c 22010000 		.4byte	.LASF127
 1404 0780 0C       		.byte	0xc
 1405 0781 3A       		.byte	0x3a
 1406 0782 76020000 		.4byte	0x276
 1407 0786 00       		.byte	0
 1408 0787 07       		.uleb128 0x7
 1409 0788 7D070000 		.4byte	.LASF128
 1410 078c 0C       		.byte	0xc
 1411 078d 3C       		.byte	0x3c
 1412 078e 4C020000 		.4byte	0x24c
 1413 0792 08       		.byte	0x8
 1414 0793 07       		.uleb128 0x7
 1415 0794 53060000 		.4byte	.LASF129
 1416 0798 0C       		.byte	0xc
 1417 0799 3E       		.byte	0x3e
 1418 079a DE070000 		.4byte	0x7de
 1419 079e 0C       		.byte	0xc
 1420 079f 00       		.byte	0
 1421 07a0 0A       		.uleb128 0xa
 1422 07a1 04       		.byte	0x4
 1423 07a2 6F070000 		.4byte	0x76f
 1424 07a6 0A       		.uleb128 0xa
 1425 07a7 04       		.byte	0x4
ARM GAS  /tmp/ccDhVJfd.s 			page 26


 1426 07a8 B3070000 		.4byte	0x7b3
 1427 07ac 03       		.uleb128 0x3
 1428 07ad 01       		.byte	0x1
 1429 07ae 08       		.byte	0x8
 1430 07af 25060000 		.4byte	.LASF130
 1431 07b3 18       		.uleb128 0x18
 1432 07b4 AC070000 		.4byte	0x7ac
 1433 07b8 0A       		.uleb128 0xa
 1434 07b9 04       		.byte	0x4
 1435 07ba 2B030000 		.4byte	0x32b
 1436 07be 05       		.uleb128 0x5
 1437 07bf A6070000 		.4byte	0x7a6
 1438 07c3 10       		.uleb128 0x10
 1439 07c4 1C060000 		.4byte	0x61c
 1440 07c8 D3070000 		.4byte	0x7d3
 1441 07cc 11       		.uleb128 0x11
 1442 07cd 5F040000 		.4byte	0x45f
 1443 07d1 1A       		.byte	0x1a
 1444 07d2 00       		.byte	0
 1445 07d3 04       		.uleb128 0x4
 1446 07d4 D3010000 		.4byte	.LASF131
 1447 07d8 0C       		.byte	0xc
 1448 07d9 34       		.byte	0x34
 1449 07da 6F070000 		.4byte	0x76f
 1450 07de 0A       		.uleb128 0xa
 1451 07df 04       		.byte	0x4
 1452 07e0 D3070000 		.4byte	0x7d3
 1453 07e4 03       		.uleb128 0x3
 1454 07e5 01       		.byte	0x1
 1455 07e6 02       		.byte	0x2
 1456 07e7 51040000 		.4byte	.LASF132
 1457 07eb 15       		.uleb128 0x15
 1458 07ec 04       		.byte	0x4
 1459 07ed 0D       		.byte	0xd
 1460 07ee B3       		.byte	0xb3
 1461 07ef 0C080000 		.4byte	0x80c
 1462 07f3 14       		.uleb128 0x14
 1463 07f4 73657400 		.ascii	"set\000"
 1464 07f8 0D       		.byte	0xd
 1465 07f9 B4       		.byte	0xb4
 1466 07fa B0000000 		.4byte	0xb0
 1467 07fe 00       		.byte	0
 1468 07ff 07       		.uleb128 0x7
 1469 0800 64030000 		.4byte	.LASF133
 1470 0804 0D       		.byte	0xd
 1471 0805 B5       		.byte	0xb5
 1472 0806 B0000000 		.4byte	0xb0
 1473 080a 02       		.byte	0x2
 1474 080b 00       		.byte	0
 1475 080c 16       		.uleb128 0x16
 1476 080d 04       		.byte	0x4
 1477 080e 0D       		.byte	0xd
 1478 080f B1       		.byte	0xb1
 1479 0810 27080000 		.4byte	0x827
 1480 0814 19       		.uleb128 0x19
 1481 0815 5700     		.ascii	"W\000"
 1482 0817 0D       		.byte	0xd
ARM GAS  /tmp/ccDhVJfd.s 			page 27


 1483 0818 B2       		.byte	0xb2
 1484 0819 C6000000 		.4byte	0xc6
 1485 081d 19       		.uleb128 0x19
 1486 081e 4800     		.ascii	"H\000"
 1487 0820 0D       		.byte	0xd
 1488 0821 B6       		.byte	0xb6
 1489 0822 EB070000 		.4byte	0x7eb
 1490 0826 00       		.byte	0
 1491 0827 15       		.uleb128 0x15
 1492 0828 2C       		.byte	0x2c
 1493 0829 0D       		.byte	0xd
 1494 082a A9       		.byte	0xa9
 1495 082b B4080000 		.4byte	0x8b4
 1496 082f 07       		.uleb128 0x7
 1497 0830 76000000 		.4byte	.LASF134
 1498 0834 0D       		.byte	0xd
 1499 0835 AB       		.byte	0xab
 1500 0836 E1000000 		.4byte	0xe1
 1501 083a 00       		.byte	0
 1502 083b 07       		.uleb128 0x7
 1503 083c 40000000 		.4byte	.LASF135
 1504 0840 0D       		.byte	0xd
 1505 0841 AC       		.byte	0xac
 1506 0842 E1000000 		.4byte	0xe1
 1507 0846 04       		.byte	0x4
 1508 0847 07       		.uleb128 0x7
 1509 0848 94010000 		.4byte	.LASF136
 1510 084c 0D       		.byte	0xd
 1511 084d AD       		.byte	0xad
 1512 084e E1000000 		.4byte	0xe1
 1513 0852 08       		.byte	0x8
 1514 0853 07       		.uleb128 0x7
 1515 0854 93000000 		.4byte	.LASF137
 1516 0858 0D       		.byte	0xd
 1517 0859 AE       		.byte	0xae
 1518 085a E1000000 		.4byte	0xe1
 1519 085e 0C       		.byte	0xc
 1520 085f 14       		.uleb128 0x14
 1521 0860 49445200 		.ascii	"IDR\000"
 1522 0864 0D       		.byte	0xd
 1523 0865 AF       		.byte	0xaf
 1524 0866 E1000000 		.4byte	0xe1
 1525 086a 10       		.byte	0x10
 1526 086b 14       		.uleb128 0x14
 1527 086c 4F445200 		.ascii	"ODR\000"
 1528 0870 0D       		.byte	0xd
 1529 0871 B0       		.byte	0xb0
 1530 0872 E1000000 		.4byte	0xe1
 1531 0876 14       		.byte	0x14
 1532 0877 07       		.uleb128 0x7
 1533 0878 0C010000 		.4byte	.LASF138
 1534 087c 0D       		.byte	0xd
 1535 087d B7       		.byte	0xb7
 1536 087e B4080000 		.4byte	0x8b4
 1537 0882 18       		.byte	0x18
 1538 0883 07       		.uleb128 0x7
 1539 0884 6A020000 		.4byte	.LASF139
ARM GAS  /tmp/ccDhVJfd.s 			page 28


 1540 0888 0D       		.byte	0xd
 1541 0889 B8       		.byte	0xb8
 1542 088a E1000000 		.4byte	0xe1
 1543 088e 1C       		.byte	0x1c
 1544 088f 07       		.uleb128 0x7
 1545 0890 E9030000 		.4byte	.LASF140
 1546 0894 0D       		.byte	0xd
 1547 0895 B9       		.byte	0xb9
 1548 0896 E1000000 		.4byte	0xe1
 1549 089a 20       		.byte	0x20
 1550 089b 07       		.uleb128 0x7
 1551 089c E4030000 		.4byte	.LASF141
 1552 08a0 0D       		.byte	0xd
 1553 08a1 BA       		.byte	0xba
 1554 08a2 E1000000 		.4byte	0xe1
 1555 08a6 24       		.byte	0x24
 1556 08a7 14       		.uleb128 0x14
 1557 08a8 42525200 		.ascii	"BRR\000"
 1558 08ac 0D       		.byte	0xd
 1559 08ad BB       		.byte	0xbb
 1560 08ae E1000000 		.4byte	0xe1
 1561 08b2 28       		.byte	0x28
 1562 08b3 00       		.byte	0
 1563 08b4 05       		.uleb128 0x5
 1564 08b5 0C080000 		.4byte	0x80c
 1565 08b9 04       		.uleb128 0x4
 1566 08ba C1010000 		.4byte	.LASF142
 1567 08be 0D       		.byte	0xd
 1568 08bf BC       		.byte	0xbc
 1569 08c0 27080000 		.4byte	0x827
 1570 08c4 15       		.uleb128 0x15
 1571 08c5 1C       		.byte	0x1c
 1572 08c6 0D       		.byte	0xd
 1573 08c7 C1       		.byte	0xc1
 1574 08c8 21090000 		.4byte	0x921
 1575 08cc 07       		.uleb128 0x7
 1576 08cd 2A010000 		.4byte	.LASF143
 1577 08d1 0D       		.byte	0xd
 1578 08d2 C3       		.byte	0xc3
 1579 08d3 C6000000 		.4byte	0xc6
 1580 08d7 00       		.byte	0
 1581 08d8 07       		.uleb128 0x7
 1582 08d9 6F020000 		.4byte	.LASF144
 1583 08dd 0D       		.byte	0xd
 1584 08de C5       		.byte	0xc5
 1585 08df C6000000 		.4byte	0xc6
 1586 08e3 04       		.byte	0x4
 1587 08e4 07       		.uleb128 0x7
 1588 08e5 62020000 		.4byte	.LASF145
 1589 08e9 0D       		.byte	0xd
 1590 08ea C7       		.byte	0xc7
 1591 08eb C6000000 		.4byte	0xc6
 1592 08ef 08       		.byte	0x8
 1593 08f0 07       		.uleb128 0x7
 1594 08f1 34070000 		.4byte	.LASF146
 1595 08f5 0D       		.byte	0xd
 1596 08f6 C9       		.byte	0xc9
ARM GAS  /tmp/ccDhVJfd.s 			page 29


 1597 08f7 C6000000 		.4byte	0xc6
 1598 08fb 0C       		.byte	0xc
 1599 08fc 14       		.uleb128 0x14
 1600 08fd 6F647200 		.ascii	"odr\000"
 1601 0901 0D       		.byte	0xd
 1602 0902 CB       		.byte	0xcb
 1603 0903 C6000000 		.4byte	0xc6
 1604 0907 10       		.byte	0x10
 1605 0908 07       		.uleb128 0x7
 1606 0909 6D040000 		.4byte	.LASF147
 1607 090d 0D       		.byte	0xd
 1608 090e CD       		.byte	0xcd
 1609 090f C6000000 		.4byte	0xc6
 1610 0913 14       		.byte	0x14
 1611 0914 07       		.uleb128 0x7
 1612 0915 BA030000 		.4byte	.LASF148
 1613 0919 0D       		.byte	0xd
 1614 091a CF       		.byte	0xcf
 1615 091b C6000000 		.4byte	0xc6
 1616 091f 18       		.byte	0x18
 1617 0920 00       		.byte	0
 1618 0921 04       		.uleb128 0x4
 1619 0922 00000000 		.4byte	.LASF149
 1620 0926 0D       		.byte	0xd
 1621 0927 D0       		.byte	0xd0
 1622 0928 C4080000 		.4byte	0x8c4
 1623 092c 15       		.uleb128 0x15
 1624 092d FC       		.byte	0xfc
 1625 092e 0D       		.byte	0xd
 1626 092f D9       		.byte	0xd9
 1627 0930 A1090000 		.4byte	0x9a1
 1628 0934 07       		.uleb128 0x7
 1629 0935 7F050000 		.4byte	.LASF150
 1630 0939 0D       		.byte	0xd
 1631 093a DC       		.byte	0xdc
 1632 093b 21090000 		.4byte	0x921
 1633 093f 00       		.byte	0
 1634 0940 07       		.uleb128 0x7
 1635 0941 DB010000 		.4byte	.LASF151
 1636 0945 0D       		.byte	0xd
 1637 0946 E0       		.byte	0xe0
 1638 0947 21090000 		.4byte	0x921
 1639 094b 1C       		.byte	0x1c
 1640 094c 07       		.uleb128 0x7
 1641 094d 50070000 		.4byte	.LASF152
 1642 0951 0D       		.byte	0xd
 1643 0952 E4       		.byte	0xe4
 1644 0953 21090000 		.4byte	0x921
 1645 0957 38       		.byte	0x38
 1646 0958 07       		.uleb128 0x7
 1647 0959 BF030000 		.4byte	.LASF153
 1648 095d 0D       		.byte	0xd
 1649 095e E8       		.byte	0xe8
 1650 095f 21090000 		.4byte	0x921
 1651 0963 54       		.byte	0x54
 1652 0964 07       		.uleb128 0x7
 1653 0965 4F010000 		.4byte	.LASF154
ARM GAS  /tmp/ccDhVJfd.s 			page 30


 1654 0969 0D       		.byte	0xd
 1655 096a EC       		.byte	0xec
 1656 096b 21090000 		.4byte	0x921
 1657 096f 70       		.byte	0x70
 1658 0970 07       		.uleb128 0x7
 1659 0971 89020000 		.4byte	.LASF155
 1660 0975 0D       		.byte	0xd
 1661 0976 F0       		.byte	0xf0
 1662 0977 21090000 		.4byte	0x921
 1663 097b 8C       		.byte	0x8c
 1664 097c 07       		.uleb128 0x7
 1665 097d F6020000 		.4byte	.LASF156
 1666 0981 0D       		.byte	0xd
 1667 0982 F4       		.byte	0xf4
 1668 0983 21090000 		.4byte	0x921
 1669 0987 A8       		.byte	0xa8
 1670 0988 07       		.uleb128 0x7
 1671 0989 6F000000 		.4byte	.LASF157
 1672 098d 0D       		.byte	0xd
 1673 098e F8       		.byte	0xf8
 1674 098f 21090000 		.4byte	0x921
 1675 0993 C4       		.byte	0xc4
 1676 0994 07       		.uleb128 0x7
 1677 0995 A3050000 		.4byte	.LASF158
 1678 0999 0D       		.byte	0xd
 1679 099a FC       		.byte	0xfc
 1680 099b 21090000 		.4byte	0x921
 1681 099f E0       		.byte	0xe0
 1682 09a0 00       		.byte	0
 1683 09a1 04       		.uleb128 0x4
 1684 09a2 73070000 		.4byte	.LASF159
 1685 09a6 0D       		.byte	0xd
 1686 09a7 FE       		.byte	0xfe
 1687 09a8 2C090000 		.4byte	0x92c
 1688 09ac 13       		.uleb128 0x13
 1689 09ad 62000000 		.4byte	.LASF160
 1690 09b1 0D       		.byte	0xd
 1691 09b2 0E01     		.2byte	0x10e
 1692 09b4 C6000000 		.4byte	0xc6
 1693 09b8 13       		.uleb128 0x13
 1694 09b9 6A070000 		.4byte	.LASF161
 1695 09bd 0D       		.byte	0xd
 1696 09be 1301     		.2byte	0x113
 1697 09c0 C6000000 		.4byte	0xc6
 1698 09c4 13       		.uleb128 0x13
 1699 09c5 A5060000 		.4byte	.LASF162
 1700 09c9 0D       		.byte	0xd
 1701 09ca 1B01     		.2byte	0x11b
 1702 09cc D0090000 		.4byte	0x9d0
 1703 09d0 0A       		.uleb128 0xa
 1704 09d1 04       		.byte	0x4
 1705 09d2 B9080000 		.4byte	0x8b9
 1706 09d6 1A       		.uleb128 0x1a
 1707 09d7 83060000 		.4byte	.LASF175
 1708 09db 01       		.byte	0x1
 1709 09dc 41       		.byte	0x41
 1710 09dd 01       		.byte	0x1
ARM GAS  /tmp/ccDhVJfd.s 			page 31


 1711 09de F9090000 		.4byte	0x9f9
 1712 09e2 1B       		.uleb128 0x1b
 1713 09e3 95050000 		.4byte	.LASF163
 1714 09e7 01       		.byte	0x1
 1715 09e8 41       		.byte	0x41
 1716 09e9 D0090000 		.4byte	0x9d0
 1717 09ed 1B       		.uleb128 0x1b
 1718 09ee 2F060000 		.4byte	.LASF164
 1719 09f2 01       		.byte	0x1
 1720 09f3 41       		.byte	0x41
 1721 09f4 F9090000 		.4byte	0x9f9
 1722 09f8 00       		.byte	0
 1723 09f9 0A       		.uleb128 0xa
 1724 09fa 04       		.byte	0x4
 1725 09fb FF090000 		.4byte	0x9ff
 1726 09ff 18       		.uleb128 0x18
 1727 0a00 21090000 		.4byte	0x921
 1728 0a04 1C       		.uleb128 0x1c
 1729 0a05 13070000 		.4byte	.LASF165
 1730 0a09 01       		.byte	0x1
 1731 0a0a 5C       		.byte	0x5c
 1732 0a0b 00000000 		.4byte	.LFB259
 1733 0a0f AC010000 		.4byte	.LFE259-.LFB259
 1734 0a13 01       		.uleb128 0x1
 1735 0a14 9C       		.byte	0x9c
 1736 0a15 790B0000 		.4byte	0xb79
 1737 0a19 1D       		.uleb128 0x1d
 1738 0a1a 2F060000 		.4byte	.LASF164
 1739 0a1e 01       		.byte	0x1
 1740 0a1f 5C       		.byte	0x5c
 1741 0a20 790B0000 		.4byte	0xb79
 1742 0a24 01       		.uleb128 0x1
 1743 0a25 50       		.byte	0x50
 1744 0a26 1E       		.uleb128 0x1e
 1745 0a27 D6090000 		.4byte	0x9d6
 1746 0a2b 04000000 		.4byte	.LBB20
 1747 0a2f 00000000 		.4byte	.Ldebug_ranges0+0
 1748 0a33 01       		.byte	0x1
 1749 0a34 71       		.byte	0x71
 1750 0a35 4C0A0000 		.4byte	0xa4c
 1751 0a39 1F       		.uleb128 0x1f
 1752 0a3a ED090000 		.4byte	0x9ed
 1753 0a3e 00000000 		.4byte	.LLST0
 1754 0a42 1F       		.uleb128 0x1f
 1755 0a43 E2090000 		.4byte	0x9e2
 1756 0a47 13000000 		.4byte	.LLST1
 1757 0a4b 00       		.byte	0
 1758 0a4c 1E       		.uleb128 0x1e
 1759 0a4d D6090000 		.4byte	0x9d6
 1760 0a51 08000000 		.4byte	.LBB23
 1761 0a55 18000000 		.4byte	.Ldebug_ranges0+0x18
 1762 0a59 01       		.byte	0x1
 1763 0a5a 74       		.byte	0x74
 1764 0a5b 720A0000 		.4byte	0xa72
 1765 0a5f 1F       		.uleb128 0x1f
 1766 0a60 ED090000 		.4byte	0x9ed
 1767 0a64 2B000000 		.4byte	.LLST2
ARM GAS  /tmp/ccDhVJfd.s 			page 32


 1768 0a68 1F       		.uleb128 0x1f
 1769 0a69 E2090000 		.4byte	0x9e2
 1770 0a6d 40000000 		.4byte	.LLST3
 1771 0a71 00       		.byte	0
 1772 0a72 1E       		.uleb128 0x1e
 1773 0a73 D6090000 		.4byte	0x9d6
 1774 0a77 0A000000 		.4byte	.LBB26
 1775 0a7b 30000000 		.4byte	.Ldebug_ranges0+0x30
 1776 0a7f 01       		.byte	0x1
 1777 0a80 77       		.byte	0x77
 1778 0a81 980A0000 		.4byte	0xa98
 1779 0a85 1F       		.uleb128 0x1f
 1780 0a86 ED090000 		.4byte	0x9ed
 1781 0a8a 58000000 		.4byte	.LLST4
 1782 0a8e 1F       		.uleb128 0x1f
 1783 0a8f E2090000 		.4byte	0x9e2
 1784 0a93 6D000000 		.4byte	.LLST5
 1785 0a97 00       		.byte	0
 1786 0a98 1E       		.uleb128 0x1e
 1787 0a99 D6090000 		.4byte	0x9d6
 1788 0a9d 0C000000 		.4byte	.LBB29
 1789 0aa1 48000000 		.4byte	.Ldebug_ranges0+0x48
 1790 0aa5 01       		.byte	0x1
 1791 0aa6 7A       		.byte	0x7a
 1792 0aa7 BE0A0000 		.4byte	0xabe
 1793 0aab 1F       		.uleb128 0x1f
 1794 0aac ED090000 		.4byte	0x9ed
 1795 0ab0 85000000 		.4byte	.LLST6
 1796 0ab4 1F       		.uleb128 0x1f
 1797 0ab5 E2090000 		.4byte	0x9e2
 1798 0ab9 9B000000 		.4byte	.LLST7
 1799 0abd 00       		.byte	0
 1800 0abe 20       		.uleb128 0x20
 1801 0abf D6090000 		.4byte	0x9d6
 1802 0ac3 8C000000 		.4byte	.LBB36
 1803 0ac7 30000000 		.4byte	.LBE36-.LBB36
 1804 0acb 01       		.byte	0x1
 1805 0acc 7D       		.byte	0x7d
 1806 0acd E40A0000 		.4byte	0xae4
 1807 0ad1 1F       		.uleb128 0x1f
 1808 0ad2 ED090000 		.4byte	0x9ed
 1809 0ad6 B3000000 		.4byte	.LLST8
 1810 0ada 1F       		.uleb128 0x1f
 1811 0adb E2090000 		.4byte	0x9e2
 1812 0adf C9000000 		.4byte	.LLST9
 1813 0ae3 00       		.byte	0
 1814 0ae4 20       		.uleb128 0x20
 1815 0ae5 D6090000 		.4byte	0x9d6
 1816 0ae9 BC000000 		.4byte	.LBB38
 1817 0aed 38000000 		.4byte	.LBE38-.LBB38
 1818 0af1 01       		.byte	0x1
 1819 0af2 80       		.byte	0x80
 1820 0af3 0A0B0000 		.4byte	0xb0a
 1821 0af7 1F       		.uleb128 0x1f
 1822 0af8 ED090000 		.4byte	0x9ed
 1823 0afc E1000000 		.4byte	.LLST10
 1824 0b00 1F       		.uleb128 0x1f
ARM GAS  /tmp/ccDhVJfd.s 			page 33


 1825 0b01 E2090000 		.4byte	0x9e2
 1826 0b05 F7000000 		.4byte	.LLST11
 1827 0b09 00       		.byte	0
 1828 0b0a 20       		.uleb128 0x20
 1829 0b0b D6090000 		.4byte	0x9d6
 1830 0b0f F4000000 		.4byte	.LBB40
 1831 0b13 2E000000 		.4byte	.LBE40-.LBB40
 1832 0b17 01       		.byte	0x1
 1833 0b18 83       		.byte	0x83
 1834 0b19 300B0000 		.4byte	0xb30
 1835 0b1d 1F       		.uleb128 0x1f
 1836 0b1e ED090000 		.4byte	0x9ed
 1837 0b22 0F010000 		.4byte	.LLST12
 1838 0b26 1F       		.uleb128 0x1f
 1839 0b27 E2090000 		.4byte	0x9e2
 1840 0b2b 25010000 		.4byte	.LLST13
 1841 0b2f 00       		.byte	0
 1842 0b30 20       		.uleb128 0x20
 1843 0b31 D6090000 		.4byte	0x9d6
 1844 0b35 22010000 		.4byte	.LBB42
 1845 0b39 38000000 		.4byte	.LBE42-.LBB42
 1846 0b3d 01       		.byte	0x1
 1847 0b3e 86       		.byte	0x86
 1848 0b3f 560B0000 		.4byte	0xb56
 1849 0b43 1F       		.uleb128 0x1f
 1850 0b44 ED090000 		.4byte	0x9ed
 1851 0b48 3D010000 		.4byte	.LLST14
 1852 0b4c 1F       		.uleb128 0x1f
 1853 0b4d E2090000 		.4byte	0x9e2
 1854 0b51 53010000 		.4byte	.LLST15
 1855 0b55 00       		.byte	0
 1856 0b56 21       		.uleb128 0x21
 1857 0b57 D6090000 		.4byte	0x9d6
 1858 0b5b 5A010000 		.4byte	.LBB44
 1859 0b5f 38000000 		.4byte	.LBE44-.LBB44
 1860 0b63 01       		.byte	0x1
 1861 0b64 89       		.byte	0x89
 1862 0b65 1F       		.uleb128 0x1f
 1863 0b66 ED090000 		.4byte	0x9ed
 1864 0b6a 6B010000 		.4byte	.LLST16
 1865 0b6e 1F       		.uleb128 0x1f
 1866 0b6f E2090000 		.4byte	0x9e2
 1867 0b73 81010000 		.4byte	.LLST17
 1868 0b77 00       		.byte	0
 1869 0b78 00       		.byte	0
 1870 0b79 0A       		.uleb128 0xa
 1871 0b7a 04       		.byte	0x4
 1872 0b7b 7F0B0000 		.4byte	0xb7f
 1873 0b7f 18       		.uleb128 0x18
 1874 0b80 A1090000 		.4byte	0x9a1
 1875 0b84 1C       		.uleb128 0x1c
 1876 0b85 C8060000 		.4byte	.LASF166
 1877 0b89 01       		.byte	0x1
 1878 0b8a 9B       		.byte	0x9b
 1879 0b8b 00000000 		.4byte	.LFB260
 1880 0b8f B6000000 		.4byte	.LFE260-.LFB260
 1881 0b93 01       		.uleb128 0x1
ARM GAS  /tmp/ccDhVJfd.s 			page 34


 1882 0b94 9C       		.byte	0x9c
 1883 0b95 540C0000 		.4byte	0xc54
 1884 0b99 1D       		.uleb128 0x1d
 1885 0b9a CE010000 		.4byte	.LASF167
 1886 0b9e 01       		.byte	0x1
 1887 0b9f 9B       		.byte	0x9b
 1888 0ba0 C4090000 		.4byte	0x9c4
 1889 0ba4 01       		.uleb128 0x1
 1890 0ba5 50       		.byte	0x50
 1891 0ba6 22       		.uleb128 0x22
 1892 0ba7 A4010000 		.4byte	.LASF168
 1893 0bab 01       		.byte	0x1
 1894 0bac 9C       		.byte	0x9c
 1895 0bad AC090000 		.4byte	0x9ac
 1896 0bb1 99010000 		.4byte	.LLST18
 1897 0bb5 22       		.uleb128 0x22
 1898 0bb6 2A060000 		.4byte	.LASF169
 1899 0bba 01       		.byte	0x1
 1900 0bbb 9D       		.byte	0x9d
 1901 0bbc B8090000 		.4byte	0x9b8
 1902 0bc0 C6010000 		.4byte	.LLST19
 1903 0bc4 23       		.uleb128 0x23
 1904 0bc5 2A010000 		.4byte	.LASF143
 1905 0bc9 01       		.byte	0x1
 1906 0bca 9F       		.byte	0x9f
 1907 0bcb C6000000 		.4byte	0xc6
 1908 0bcf 01       		.uleb128 0x1
 1909 0bd0 5E       		.byte	0x5e
 1910 0bd1 23       		.uleb128 0x23
 1911 0bd2 6F020000 		.4byte	.LASF144
 1912 0bd6 01       		.byte	0x1
 1913 0bd7 A0       		.byte	0xa0
 1914 0bd8 C6000000 		.4byte	0xc6
 1915 0bdc 01       		.uleb128 0x1
 1916 0bdd 57       		.byte	0x57
 1917 0bde 23       		.uleb128 0x23
 1918 0bdf 62020000 		.4byte	.LASF145
 1919 0be3 01       		.byte	0x1
 1920 0be4 A1       		.byte	0xa1
 1921 0be5 C6000000 		.4byte	0xc6
 1922 0be9 01       		.uleb128 0x1
 1923 0bea 56       		.byte	0x56
 1924 0beb 23       		.uleb128 0x23
 1925 0bec 34070000 		.4byte	.LASF146
 1926 0bf0 01       		.byte	0x1
 1927 0bf1 A2       		.byte	0xa2
 1928 0bf2 C6000000 		.4byte	0xc6
 1929 0bf6 01       		.uleb128 0x1
 1930 0bf7 55       		.byte	0x55
 1931 0bf8 23       		.uleb128 0x23
 1932 0bf9 20060000 		.4byte	.LASF170
 1933 0bfd 01       		.byte	0x1
 1934 0bfe A3       		.byte	0xa3
 1935 0bff C6000000 		.4byte	0xc6
 1936 0c03 01       		.uleb128 0x1
 1937 0c04 52       		.byte	0x52
 1938 0c05 24       		.uleb128 0x24
ARM GAS  /tmp/ccDhVJfd.s 			page 35


 1939 0c06 62697400 		.ascii	"bit\000"
 1940 0c0a 01       		.byte	0x1
 1941 0c0b A4       		.byte	0xa4
 1942 0c0c C6000000 		.4byte	0xc6
 1943 0c10 E7010000 		.4byte	.LLST20
 1944 0c14 25       		.uleb128 0x25
 1945 0c15 60000000 		.4byte	.Ldebug_ranges0+0x60
 1946 0c19 26       		.uleb128 0x26
 1947 0c1a 7B010000 		.4byte	.LASF171
 1948 0c1e 01       		.byte	0x1
 1949 0c1f A7       		.byte	0xa7
 1950 0c20 C6000000 		.4byte	0xc6
 1951 0c24 06020000 		.4byte	.LLST21
 1952 0c28 24       		.uleb128 0x24
 1953 0c29 6D3100   		.ascii	"m1\000"
 1954 0c2c 01       		.byte	0x1
 1955 0c2d A7       		.byte	0xa7
 1956 0c2e C6000000 		.4byte	0xc6
 1957 0c32 4C020000 		.4byte	.LLST22
 1958 0c36 24       		.uleb128 0x24
 1959 0c37 6D3200   		.ascii	"m2\000"
 1960 0c3a 01       		.byte	0x1
 1961 0c3b A7       		.byte	0xa7
 1962 0c3c C6000000 		.4byte	0xc6
 1963 0c40 63020000 		.4byte	.LLST23
 1964 0c44 24       		.uleb128 0x24
 1965 0c45 6D3400   		.ascii	"m4\000"
 1966 0c48 01       		.byte	0x1
 1967 0c49 A7       		.byte	0xa7
 1968 0c4a C6000000 		.4byte	0xc6
 1969 0c4e 7C020000 		.4byte	.LLST24
 1970 0c52 00       		.byte	0
 1971 0c53 00       		.byte	0
 1972 0c54 27       		.uleb128 0x27
 1973 0c55 C3000000 		.4byte	.LASF172
 1974 0c59 0E       		.byte	0xe
 1975 0c5a A706     		.2byte	0x6a7
 1976 0c5c DC000000 		.4byte	0xdc
 1977 0c60 28       		.uleb128 0x28
 1978 0c61 636800   		.ascii	"ch\000"
 1979 0c64 06       		.byte	0x6
 1980 0c65 0902     		.2byte	0x209
 1981 0c67 F8030000 		.4byte	0x3f8
 1982 0c6b 00       		.byte	0
 1983              		.section	.debug_abbrev,"",%progbits
 1984              	.Ldebug_abbrev0:
 1985 0000 01       		.uleb128 0x1
 1986 0001 11       		.uleb128 0x11
 1987 0002 01       		.byte	0x1
 1988 0003 25       		.uleb128 0x25
 1989 0004 0E       		.uleb128 0xe
 1990 0005 13       		.uleb128 0x13
 1991 0006 0B       		.uleb128 0xb
 1992 0007 03       		.uleb128 0x3
 1993 0008 0E       		.uleb128 0xe
 1994 0009 55       		.uleb128 0x55
 1995 000a 17       		.uleb128 0x17
ARM GAS  /tmp/ccDhVJfd.s 			page 36


 1996 000b 11       		.uleb128 0x11
 1997 000c 01       		.uleb128 0x1
 1998 000d 10       		.uleb128 0x10
 1999 000e 17       		.uleb128 0x17
 2000 000f 00       		.byte	0
 2001 0010 00       		.byte	0
 2002 0011 02       		.uleb128 0x2
 2003 0012 24       		.uleb128 0x24
 2004 0013 00       		.byte	0
 2005 0014 0B       		.uleb128 0xb
 2006 0015 0B       		.uleb128 0xb
 2007 0016 3E       		.uleb128 0x3e
 2008 0017 0B       		.uleb128 0xb
 2009 0018 03       		.uleb128 0x3
 2010 0019 08       		.uleb128 0x8
 2011 001a 00       		.byte	0
 2012 001b 00       		.byte	0
 2013 001c 03       		.uleb128 0x3
 2014 001d 24       		.uleb128 0x24
 2015 001e 00       		.byte	0
 2016 001f 0B       		.uleb128 0xb
 2017 0020 0B       		.uleb128 0xb
 2018 0021 3E       		.uleb128 0x3e
 2019 0022 0B       		.uleb128 0xb
 2020 0023 03       		.uleb128 0x3
 2021 0024 0E       		.uleb128 0xe
 2022 0025 00       		.byte	0
 2023 0026 00       		.byte	0
 2024 0027 04       		.uleb128 0x4
 2025 0028 16       		.uleb128 0x16
 2026 0029 00       		.byte	0
 2027 002a 03       		.uleb128 0x3
 2028 002b 0E       		.uleb128 0xe
 2029 002c 3A       		.uleb128 0x3a
 2030 002d 0B       		.uleb128 0xb
 2031 002e 3B       		.uleb128 0x3b
 2032 002f 0B       		.uleb128 0xb
 2033 0030 49       		.uleb128 0x49
 2034 0031 13       		.uleb128 0x13
 2035 0032 00       		.byte	0
 2036 0033 00       		.byte	0
 2037 0034 05       		.uleb128 0x5
 2038 0035 35       		.uleb128 0x35
 2039 0036 00       		.byte	0
 2040 0037 49       		.uleb128 0x49
 2041 0038 13       		.uleb128 0x13
 2042 0039 00       		.byte	0
 2043 003a 00       		.byte	0
 2044 003b 06       		.uleb128 0x6
 2045 003c 13       		.uleb128 0x13
 2046 003d 01       		.byte	0x1
 2047 003e 03       		.uleb128 0x3
 2048 003f 0E       		.uleb128 0xe
 2049 0040 0B       		.uleb128 0xb
 2050 0041 0B       		.uleb128 0xb
 2051 0042 3A       		.uleb128 0x3a
 2052 0043 0B       		.uleb128 0xb
ARM GAS  /tmp/ccDhVJfd.s 			page 37


 2053 0044 3B       		.uleb128 0x3b
 2054 0045 0B       		.uleb128 0xb
 2055 0046 01       		.uleb128 0x1
 2056 0047 13       		.uleb128 0x13
 2057 0048 00       		.byte	0
 2058 0049 00       		.byte	0
 2059 004a 07       		.uleb128 0x7
 2060 004b 0D       		.uleb128 0xd
 2061 004c 00       		.byte	0
 2062 004d 03       		.uleb128 0x3
 2063 004e 0E       		.uleb128 0xe
 2064 004f 3A       		.uleb128 0x3a
 2065 0050 0B       		.uleb128 0xb
 2066 0051 3B       		.uleb128 0x3b
 2067 0052 0B       		.uleb128 0xb
 2068 0053 49       		.uleb128 0x49
 2069 0054 13       		.uleb128 0x13
 2070 0055 38       		.uleb128 0x38
 2071 0056 0B       		.uleb128 0xb
 2072 0057 00       		.byte	0
 2073 0058 00       		.byte	0
 2074 0059 08       		.uleb128 0x8
 2075 005a 0D       		.uleb128 0xd
 2076 005b 00       		.byte	0
 2077 005c 03       		.uleb128 0x3
 2078 005d 08       		.uleb128 0x8
 2079 005e 3A       		.uleb128 0x3a
 2080 005f 0B       		.uleb128 0xb
 2081 0060 3B       		.uleb128 0x3b
 2082 0061 05       		.uleb128 0x5
 2083 0062 49       		.uleb128 0x49
 2084 0063 13       		.uleb128 0x13
 2085 0064 38       		.uleb128 0x38
 2086 0065 0B       		.uleb128 0xb
 2087 0066 00       		.byte	0
 2088 0067 00       		.byte	0
 2089 0068 09       		.uleb128 0x9
 2090 0069 0D       		.uleb128 0xd
 2091 006a 00       		.byte	0
 2092 006b 03       		.uleb128 0x3
 2093 006c 0E       		.uleb128 0xe
 2094 006d 3A       		.uleb128 0x3a
 2095 006e 0B       		.uleb128 0xb
 2096 006f 3B       		.uleb128 0x3b
 2097 0070 05       		.uleb128 0x5
 2098 0071 49       		.uleb128 0x49
 2099 0072 13       		.uleb128 0x13
 2100 0073 38       		.uleb128 0x38
 2101 0074 0B       		.uleb128 0xb
 2102 0075 00       		.byte	0
 2103 0076 00       		.byte	0
 2104 0077 0A       		.uleb128 0xa
 2105 0078 0F       		.uleb128 0xf
 2106 0079 00       		.byte	0
 2107 007a 0B       		.uleb128 0xb
 2108 007b 0B       		.uleb128 0xb
 2109 007c 49       		.uleb128 0x49
ARM GAS  /tmp/ccDhVJfd.s 			page 38


 2110 007d 13       		.uleb128 0x13
 2111 007e 00       		.byte	0
 2112 007f 00       		.byte	0
 2113 0080 0B       		.uleb128 0xb
 2114 0081 13       		.uleb128 0x13
 2115 0082 01       		.byte	0x1
 2116 0083 03       		.uleb128 0x3
 2117 0084 0E       		.uleb128 0xe
 2118 0085 0B       		.uleb128 0xb
 2119 0086 0B       		.uleb128 0xb
 2120 0087 3A       		.uleb128 0x3a
 2121 0088 0B       		.uleb128 0xb
 2122 0089 3B       		.uleb128 0x3b
 2123 008a 05       		.uleb128 0x5
 2124 008b 01       		.uleb128 0x1
 2125 008c 13       		.uleb128 0x13
 2126 008d 00       		.byte	0
 2127 008e 00       		.byte	0
 2128 008f 0C       		.uleb128 0xc
 2129 0090 15       		.uleb128 0x15
 2130 0091 01       		.byte	0x1
 2131 0092 27       		.uleb128 0x27
 2132 0093 19       		.uleb128 0x19
 2133 0094 01       		.uleb128 0x1
 2134 0095 13       		.uleb128 0x13
 2135 0096 00       		.byte	0
 2136 0097 00       		.byte	0
 2137 0098 0D       		.uleb128 0xd
 2138 0099 05       		.uleb128 0x5
 2139 009a 00       		.byte	0
 2140 009b 49       		.uleb128 0x49
 2141 009c 13       		.uleb128 0x13
 2142 009d 00       		.byte	0
 2143 009e 00       		.byte	0
 2144 009f 0E       		.uleb128 0xe
 2145 00a0 0F       		.uleb128 0xf
 2146 00a1 00       		.byte	0
 2147 00a2 0B       		.uleb128 0xb
 2148 00a3 0B       		.uleb128 0xb
 2149 00a4 00       		.byte	0
 2150 00a5 00       		.byte	0
 2151 00a6 0F       		.uleb128 0xf
 2152 00a7 13       		.uleb128 0x13
 2153 00a8 01       		.byte	0x1
 2154 00a9 03       		.uleb128 0x3
 2155 00aa 0E       		.uleb128 0xe
 2156 00ab 0B       		.uleb128 0xb
 2157 00ac 05       		.uleb128 0x5
 2158 00ad 3A       		.uleb128 0x3a
 2159 00ae 0B       		.uleb128 0xb
 2160 00af 3B       		.uleb128 0x3b
 2161 00b0 05       		.uleb128 0x5
 2162 00b1 01       		.uleb128 0x1
 2163 00b2 13       		.uleb128 0x13
 2164 00b3 00       		.byte	0
 2165 00b4 00       		.byte	0
 2166 00b5 10       		.uleb128 0x10
ARM GAS  /tmp/ccDhVJfd.s 			page 39


 2167 00b6 01       		.uleb128 0x1
 2168 00b7 01       		.byte	0x1
 2169 00b8 49       		.uleb128 0x49
 2170 00b9 13       		.uleb128 0x13
 2171 00ba 01       		.uleb128 0x1
 2172 00bb 13       		.uleb128 0x13
 2173 00bc 00       		.byte	0
 2174 00bd 00       		.byte	0
 2175 00be 11       		.uleb128 0x11
 2176 00bf 21       		.uleb128 0x21
 2177 00c0 00       		.byte	0
 2178 00c1 49       		.uleb128 0x49
 2179 00c2 13       		.uleb128 0x13
 2180 00c3 2F       		.uleb128 0x2f
 2181 00c4 0B       		.uleb128 0xb
 2182 00c5 00       		.byte	0
 2183 00c6 00       		.byte	0
 2184 00c7 12       		.uleb128 0x12
 2185 00c8 13       		.uleb128 0x13
 2186 00c9 01       		.byte	0x1
 2187 00ca 0B       		.uleb128 0xb
 2188 00cb 0B       		.uleb128 0xb
 2189 00cc 3A       		.uleb128 0x3a
 2190 00cd 0B       		.uleb128 0xb
 2191 00ce 3B       		.uleb128 0x3b
 2192 00cf 05       		.uleb128 0x5
 2193 00d0 01       		.uleb128 0x1
 2194 00d1 13       		.uleb128 0x13
 2195 00d2 00       		.byte	0
 2196 00d3 00       		.byte	0
 2197 00d4 13       		.uleb128 0x13
 2198 00d5 16       		.uleb128 0x16
 2199 00d6 00       		.byte	0
 2200 00d7 03       		.uleb128 0x3
 2201 00d8 0E       		.uleb128 0xe
 2202 00d9 3A       		.uleb128 0x3a
 2203 00da 0B       		.uleb128 0xb
 2204 00db 3B       		.uleb128 0x3b
 2205 00dc 05       		.uleb128 0x5
 2206 00dd 49       		.uleb128 0x49
 2207 00de 13       		.uleb128 0x13
 2208 00df 00       		.byte	0
 2209 00e0 00       		.byte	0
 2210 00e1 14       		.uleb128 0x14
 2211 00e2 0D       		.uleb128 0xd
 2212 00e3 00       		.byte	0
 2213 00e4 03       		.uleb128 0x3
 2214 00e5 08       		.uleb128 0x8
 2215 00e6 3A       		.uleb128 0x3a
 2216 00e7 0B       		.uleb128 0xb
 2217 00e8 3B       		.uleb128 0x3b
 2218 00e9 0B       		.uleb128 0xb
 2219 00ea 49       		.uleb128 0x49
 2220 00eb 13       		.uleb128 0x13
 2221 00ec 38       		.uleb128 0x38
 2222 00ed 0B       		.uleb128 0xb
 2223 00ee 00       		.byte	0
ARM GAS  /tmp/ccDhVJfd.s 			page 40


 2224 00ef 00       		.byte	0
 2225 00f0 15       		.uleb128 0x15
 2226 00f1 13       		.uleb128 0x13
 2227 00f2 01       		.byte	0x1
 2228 00f3 0B       		.uleb128 0xb
 2229 00f4 0B       		.uleb128 0xb
 2230 00f5 3A       		.uleb128 0x3a
 2231 00f6 0B       		.uleb128 0xb
 2232 00f7 3B       		.uleb128 0x3b
 2233 00f8 0B       		.uleb128 0xb
 2234 00f9 01       		.uleb128 0x1
 2235 00fa 13       		.uleb128 0x13
 2236 00fb 00       		.byte	0
 2237 00fc 00       		.byte	0
 2238 00fd 16       		.uleb128 0x16
 2239 00fe 17       		.uleb128 0x17
 2240 00ff 01       		.byte	0x1
 2241 0100 0B       		.uleb128 0xb
 2242 0101 0B       		.uleb128 0xb
 2243 0102 3A       		.uleb128 0x3a
 2244 0103 0B       		.uleb128 0xb
 2245 0104 3B       		.uleb128 0x3b
 2246 0105 0B       		.uleb128 0xb
 2247 0106 01       		.uleb128 0x1
 2248 0107 13       		.uleb128 0x13
 2249 0108 00       		.byte	0
 2250 0109 00       		.byte	0
 2251 010a 17       		.uleb128 0x17
 2252 010b 0D       		.uleb128 0xd
 2253 010c 00       		.byte	0
 2254 010d 03       		.uleb128 0x3
 2255 010e 0E       		.uleb128 0xe
 2256 010f 3A       		.uleb128 0x3a
 2257 0110 0B       		.uleb128 0xb
 2258 0111 3B       		.uleb128 0x3b
 2259 0112 05       		.uleb128 0x5
 2260 0113 49       		.uleb128 0x49
 2261 0114 13       		.uleb128 0x13
 2262 0115 00       		.byte	0
 2263 0116 00       		.byte	0
 2264 0117 18       		.uleb128 0x18
 2265 0118 26       		.uleb128 0x26
 2266 0119 00       		.byte	0
 2267 011a 49       		.uleb128 0x49
 2268 011b 13       		.uleb128 0x13
 2269 011c 00       		.byte	0
 2270 011d 00       		.byte	0
 2271 011e 19       		.uleb128 0x19
 2272 011f 0D       		.uleb128 0xd
 2273 0120 00       		.byte	0
 2274 0121 03       		.uleb128 0x3
 2275 0122 08       		.uleb128 0x8
 2276 0123 3A       		.uleb128 0x3a
 2277 0124 0B       		.uleb128 0xb
 2278 0125 3B       		.uleb128 0x3b
 2279 0126 0B       		.uleb128 0xb
 2280 0127 49       		.uleb128 0x49
ARM GAS  /tmp/ccDhVJfd.s 			page 41


 2281 0128 13       		.uleb128 0x13
 2282 0129 00       		.byte	0
 2283 012a 00       		.byte	0
 2284 012b 1A       		.uleb128 0x1a
 2285 012c 2E       		.uleb128 0x2e
 2286 012d 01       		.byte	0x1
 2287 012e 03       		.uleb128 0x3
 2288 012f 0E       		.uleb128 0xe
 2289 0130 3A       		.uleb128 0x3a
 2290 0131 0B       		.uleb128 0xb
 2291 0132 3B       		.uleb128 0x3b
 2292 0133 0B       		.uleb128 0xb
 2293 0134 27       		.uleb128 0x27
 2294 0135 19       		.uleb128 0x19
 2295 0136 20       		.uleb128 0x20
 2296 0137 0B       		.uleb128 0xb
 2297 0138 01       		.uleb128 0x1
 2298 0139 13       		.uleb128 0x13
 2299 013a 00       		.byte	0
 2300 013b 00       		.byte	0
 2301 013c 1B       		.uleb128 0x1b
 2302 013d 05       		.uleb128 0x5
 2303 013e 00       		.byte	0
 2304 013f 03       		.uleb128 0x3
 2305 0140 0E       		.uleb128 0xe
 2306 0141 3A       		.uleb128 0x3a
 2307 0142 0B       		.uleb128 0xb
 2308 0143 3B       		.uleb128 0x3b
 2309 0144 0B       		.uleb128 0xb
 2310 0145 49       		.uleb128 0x49
 2311 0146 13       		.uleb128 0x13
 2312 0147 00       		.byte	0
 2313 0148 00       		.byte	0
 2314 0149 1C       		.uleb128 0x1c
 2315 014a 2E       		.uleb128 0x2e
 2316 014b 01       		.byte	0x1
 2317 014c 3F       		.uleb128 0x3f
 2318 014d 19       		.uleb128 0x19
 2319 014e 03       		.uleb128 0x3
 2320 014f 0E       		.uleb128 0xe
 2321 0150 3A       		.uleb128 0x3a
 2322 0151 0B       		.uleb128 0xb
 2323 0152 3B       		.uleb128 0x3b
 2324 0153 0B       		.uleb128 0xb
 2325 0154 27       		.uleb128 0x27
 2326 0155 19       		.uleb128 0x19
 2327 0156 11       		.uleb128 0x11
 2328 0157 01       		.uleb128 0x1
 2329 0158 12       		.uleb128 0x12
 2330 0159 06       		.uleb128 0x6
 2331 015a 40       		.uleb128 0x40
 2332 015b 18       		.uleb128 0x18
 2333 015c 9742     		.uleb128 0x2117
 2334 015e 19       		.uleb128 0x19
 2335 015f 01       		.uleb128 0x1
 2336 0160 13       		.uleb128 0x13
 2337 0161 00       		.byte	0
ARM GAS  /tmp/ccDhVJfd.s 			page 42


 2338 0162 00       		.byte	0
 2339 0163 1D       		.uleb128 0x1d
 2340 0164 05       		.uleb128 0x5
 2341 0165 00       		.byte	0
 2342 0166 03       		.uleb128 0x3
 2343 0167 0E       		.uleb128 0xe
 2344 0168 3A       		.uleb128 0x3a
 2345 0169 0B       		.uleb128 0xb
 2346 016a 3B       		.uleb128 0x3b
 2347 016b 0B       		.uleb128 0xb
 2348 016c 49       		.uleb128 0x49
 2349 016d 13       		.uleb128 0x13
 2350 016e 02       		.uleb128 0x2
 2351 016f 18       		.uleb128 0x18
 2352 0170 00       		.byte	0
 2353 0171 00       		.byte	0
 2354 0172 1E       		.uleb128 0x1e
 2355 0173 1D       		.uleb128 0x1d
 2356 0174 01       		.byte	0x1
 2357 0175 31       		.uleb128 0x31
 2358 0176 13       		.uleb128 0x13
 2359 0177 52       		.uleb128 0x52
 2360 0178 01       		.uleb128 0x1
 2361 0179 55       		.uleb128 0x55
 2362 017a 17       		.uleb128 0x17
 2363 017b 58       		.uleb128 0x58
 2364 017c 0B       		.uleb128 0xb
 2365 017d 59       		.uleb128 0x59
 2366 017e 0B       		.uleb128 0xb
 2367 017f 01       		.uleb128 0x1
 2368 0180 13       		.uleb128 0x13
 2369 0181 00       		.byte	0
 2370 0182 00       		.byte	0
 2371 0183 1F       		.uleb128 0x1f
 2372 0184 05       		.uleb128 0x5
 2373 0185 00       		.byte	0
 2374 0186 31       		.uleb128 0x31
 2375 0187 13       		.uleb128 0x13
 2376 0188 02       		.uleb128 0x2
 2377 0189 17       		.uleb128 0x17
 2378 018a 00       		.byte	0
 2379 018b 00       		.byte	0
 2380 018c 20       		.uleb128 0x20
 2381 018d 1D       		.uleb128 0x1d
 2382 018e 01       		.byte	0x1
 2383 018f 31       		.uleb128 0x31
 2384 0190 13       		.uleb128 0x13
 2385 0191 11       		.uleb128 0x11
 2386 0192 01       		.uleb128 0x1
 2387 0193 12       		.uleb128 0x12
 2388 0194 06       		.uleb128 0x6
 2389 0195 58       		.uleb128 0x58
 2390 0196 0B       		.uleb128 0xb
 2391 0197 59       		.uleb128 0x59
 2392 0198 0B       		.uleb128 0xb
 2393 0199 01       		.uleb128 0x1
 2394 019a 13       		.uleb128 0x13
ARM GAS  /tmp/ccDhVJfd.s 			page 43


 2395 019b 00       		.byte	0
 2396 019c 00       		.byte	0
 2397 019d 21       		.uleb128 0x21
 2398 019e 1D       		.uleb128 0x1d
 2399 019f 01       		.byte	0x1
 2400 01a0 31       		.uleb128 0x31
 2401 01a1 13       		.uleb128 0x13
 2402 01a2 11       		.uleb128 0x11
 2403 01a3 01       		.uleb128 0x1
 2404 01a4 12       		.uleb128 0x12
 2405 01a5 06       		.uleb128 0x6
 2406 01a6 58       		.uleb128 0x58
 2407 01a7 0B       		.uleb128 0xb
 2408 01a8 59       		.uleb128 0x59
 2409 01a9 0B       		.uleb128 0xb
 2410 01aa 00       		.byte	0
 2411 01ab 00       		.byte	0
 2412 01ac 22       		.uleb128 0x22
 2413 01ad 05       		.uleb128 0x5
 2414 01ae 00       		.byte	0
 2415 01af 03       		.uleb128 0x3
 2416 01b0 0E       		.uleb128 0xe
 2417 01b1 3A       		.uleb128 0x3a
 2418 01b2 0B       		.uleb128 0xb
 2419 01b3 3B       		.uleb128 0x3b
 2420 01b4 0B       		.uleb128 0xb
 2421 01b5 49       		.uleb128 0x49
 2422 01b6 13       		.uleb128 0x13
 2423 01b7 02       		.uleb128 0x2
 2424 01b8 17       		.uleb128 0x17
 2425 01b9 00       		.byte	0
 2426 01ba 00       		.byte	0
 2427 01bb 23       		.uleb128 0x23
 2428 01bc 34       		.uleb128 0x34
 2429 01bd 00       		.byte	0
 2430 01be 03       		.uleb128 0x3
 2431 01bf 0E       		.uleb128 0xe
 2432 01c0 3A       		.uleb128 0x3a
 2433 01c1 0B       		.uleb128 0xb
 2434 01c2 3B       		.uleb128 0x3b
 2435 01c3 0B       		.uleb128 0xb
 2436 01c4 49       		.uleb128 0x49
 2437 01c5 13       		.uleb128 0x13
 2438 01c6 02       		.uleb128 0x2
 2439 01c7 18       		.uleb128 0x18
 2440 01c8 00       		.byte	0
 2441 01c9 00       		.byte	0
 2442 01ca 24       		.uleb128 0x24
 2443 01cb 34       		.uleb128 0x34
 2444 01cc 00       		.byte	0
 2445 01cd 03       		.uleb128 0x3
 2446 01ce 08       		.uleb128 0x8
 2447 01cf 3A       		.uleb128 0x3a
 2448 01d0 0B       		.uleb128 0xb
 2449 01d1 3B       		.uleb128 0x3b
 2450 01d2 0B       		.uleb128 0xb
 2451 01d3 49       		.uleb128 0x49
ARM GAS  /tmp/ccDhVJfd.s 			page 44


 2452 01d4 13       		.uleb128 0x13
 2453 01d5 02       		.uleb128 0x2
 2454 01d6 17       		.uleb128 0x17
 2455 01d7 00       		.byte	0
 2456 01d8 00       		.byte	0
 2457 01d9 25       		.uleb128 0x25
 2458 01da 0B       		.uleb128 0xb
 2459 01db 01       		.byte	0x1
 2460 01dc 55       		.uleb128 0x55
 2461 01dd 17       		.uleb128 0x17
 2462 01de 00       		.byte	0
 2463 01df 00       		.byte	0
 2464 01e0 26       		.uleb128 0x26
 2465 01e1 34       		.uleb128 0x34
 2466 01e2 00       		.byte	0
 2467 01e3 03       		.uleb128 0x3
 2468 01e4 0E       		.uleb128 0xe
 2469 01e5 3A       		.uleb128 0x3a
 2470 01e6 0B       		.uleb128 0xb
 2471 01e7 3B       		.uleb128 0x3b
 2472 01e8 0B       		.uleb128 0xb
 2473 01e9 49       		.uleb128 0x49
 2474 01ea 13       		.uleb128 0x13
 2475 01eb 02       		.uleb128 0x2
 2476 01ec 17       		.uleb128 0x17
 2477 01ed 00       		.byte	0
 2478 01ee 00       		.byte	0
 2479 01ef 27       		.uleb128 0x27
 2480 01f0 34       		.uleb128 0x34
 2481 01f1 00       		.byte	0
 2482 01f2 03       		.uleb128 0x3
 2483 01f3 0E       		.uleb128 0xe
 2484 01f4 3A       		.uleb128 0x3a
 2485 01f5 0B       		.uleb128 0xb
 2486 01f6 3B       		.uleb128 0x3b
 2487 01f7 05       		.uleb128 0x5
 2488 01f8 49       		.uleb128 0x49
 2489 01f9 13       		.uleb128 0x13
 2490 01fa 3F       		.uleb128 0x3f
 2491 01fb 19       		.uleb128 0x19
 2492 01fc 3C       		.uleb128 0x3c
 2493 01fd 19       		.uleb128 0x19
 2494 01fe 00       		.byte	0
 2495 01ff 00       		.byte	0
 2496 0200 28       		.uleb128 0x28
 2497 0201 34       		.uleb128 0x34
 2498 0202 00       		.byte	0
 2499 0203 03       		.uleb128 0x3
 2500 0204 08       		.uleb128 0x8
 2501 0205 3A       		.uleb128 0x3a
 2502 0206 0B       		.uleb128 0xb
 2503 0207 3B       		.uleb128 0x3b
 2504 0208 05       		.uleb128 0x5
 2505 0209 49       		.uleb128 0x49
 2506 020a 13       		.uleb128 0x13
 2507 020b 3F       		.uleb128 0x3f
 2508 020c 19       		.uleb128 0x19
ARM GAS  /tmp/ccDhVJfd.s 			page 45


 2509 020d 3C       		.uleb128 0x3c
 2510 020e 19       		.uleb128 0x19
 2511 020f 00       		.byte	0
 2512 0210 00       		.byte	0
 2513 0211 00       		.byte	0
 2514              		.section	.debug_loc,"",%progbits
 2515              	.Ldebug_loc0:
 2516              	.LLST0:
 2517 0000 1C000000 		.4byte	.LVL1
 2518 0004 38000000 		.4byte	.LVL2
 2519 0008 0100     		.2byte	0x1
 2520 000a 50       		.byte	0x50
 2521 000b 00000000 		.4byte	0
 2522 000f 00000000 		.4byte	0
 2523              	.LLST1:
 2524 0013 1C000000 		.4byte	.LVL1
 2525 0017 38000000 		.4byte	.LVL2
 2526 001b 0600     		.2byte	0x6
 2527 001d 0C       		.byte	0xc
 2528 001e 00000240 		.4byte	0x40020000
 2529 0022 9F       		.byte	0x9f
 2530 0023 00000000 		.4byte	0
 2531 0027 00000000 		.4byte	0
 2532              	.LLST2:
 2533 002b 38000000 		.4byte	.LVL2
 2534 002f 54000000 		.4byte	.LVL3
 2535 0033 0300     		.2byte	0x3
 2536 0035 70       		.byte	0x70
 2537 0036 1C       		.sleb128 28
 2538 0037 9F       		.byte	0x9f
 2539 0038 00000000 		.4byte	0
 2540 003c 00000000 		.4byte	0
 2541              	.LLST3:
 2542 0040 38000000 		.4byte	.LVL2
 2543 0044 54000000 		.4byte	.LVL3
 2544 0048 0600     		.2byte	0x6
 2545 004a 0C       		.byte	0xc
 2546 004b 00040240 		.4byte	0x40020400
 2547 004f 9F       		.byte	0x9f
 2548 0050 00000000 		.4byte	0
 2549 0054 00000000 		.4byte	0
 2550              	.LLST4:
 2551 0058 54000000 		.4byte	.LVL3
 2552 005c 70000000 		.4byte	.LVL4
 2553 0060 0300     		.2byte	0x3
 2554 0062 70       		.byte	0x70
 2555 0063 38       		.sleb128 56
 2556 0064 9F       		.byte	0x9f
 2557 0065 00000000 		.4byte	0
 2558 0069 00000000 		.4byte	0
 2559              	.LLST5:
 2560 006d 54000000 		.4byte	.LVL3
 2561 0071 70000000 		.4byte	.LVL4
 2562 0075 0600     		.2byte	0x6
 2563 0077 0C       		.byte	0xc
 2564 0078 00080240 		.4byte	0x40020800
 2565 007c 9F       		.byte	0x9f
ARM GAS  /tmp/ccDhVJfd.s 			page 46


 2566 007d 00000000 		.4byte	0
 2567 0081 00000000 		.4byte	0
 2568              	.LLST6:
 2569 0085 70000000 		.4byte	.LVL4
 2570 0089 8C000000 		.4byte	.LVL5
 2571 008d 0400     		.2byte	0x4
 2572 008f 70       		.byte	0x70
 2573 0090 D400     		.sleb128 84
 2574 0092 9F       		.byte	0x9f
 2575 0093 00000000 		.4byte	0
 2576 0097 00000000 		.4byte	0
 2577              	.LLST7:
 2578 009b 70000000 		.4byte	.LVL4
 2579 009f 8C000000 		.4byte	.LVL5
 2580 00a3 0600     		.2byte	0x6
 2581 00a5 0C       		.byte	0xc
 2582 00a6 000C0240 		.4byte	0x40020c00
 2583 00aa 9F       		.byte	0x9f
 2584 00ab 00000000 		.4byte	0
 2585 00af 00000000 		.4byte	0
 2586              	.LLST8:
 2587 00b3 8C000000 		.4byte	.LVL5
 2588 00b7 BC000000 		.4byte	.LVL6
 2589 00bb 0400     		.2byte	0x4
 2590 00bd 70       		.byte	0x70
 2591 00be F000     		.sleb128 112
 2592 00c0 9F       		.byte	0x9f
 2593 00c1 00000000 		.4byte	0
 2594 00c5 00000000 		.4byte	0
 2595              	.LLST9:
 2596 00c9 8C000000 		.4byte	.LVL5
 2597 00cd BC000000 		.4byte	.LVL6
 2598 00d1 0600     		.2byte	0x6
 2599 00d3 0C       		.byte	0xc
 2600 00d4 00100240 		.4byte	0x40021000
 2601 00d8 9F       		.byte	0x9f
 2602 00d9 00000000 		.4byte	0
 2603 00dd 00000000 		.4byte	0
 2604              	.LLST10:
 2605 00e1 BC000000 		.4byte	.LVL6
 2606 00e5 F4000000 		.4byte	.LVL7
 2607 00e9 0400     		.2byte	0x4
 2608 00eb 70       		.byte	0x70
 2609 00ec 8C01     		.sleb128 140
 2610 00ee 9F       		.byte	0x9f
 2611 00ef 00000000 		.4byte	0
 2612 00f3 00000000 		.4byte	0
 2613              	.LLST11:
 2614 00f7 BC000000 		.4byte	.LVL6
 2615 00fb F4000000 		.4byte	.LVL7
 2616 00ff 0600     		.2byte	0x6
 2617 0101 0C       		.byte	0xc
 2618 0102 00140240 		.4byte	0x40021400
 2619 0106 9F       		.byte	0x9f
 2620 0107 00000000 		.4byte	0
 2621 010b 00000000 		.4byte	0
 2622              	.LLST12:
ARM GAS  /tmp/ccDhVJfd.s 			page 47


 2623 010f F4000000 		.4byte	.LVL7
 2624 0113 22010000 		.4byte	.LVL8
 2625 0117 0400     		.2byte	0x4
 2626 0119 70       		.byte	0x70
 2627 011a A801     		.sleb128 168
 2628 011c 9F       		.byte	0x9f
 2629 011d 00000000 		.4byte	0
 2630 0121 00000000 		.4byte	0
 2631              	.LLST13:
 2632 0125 F4000000 		.4byte	.LVL7
 2633 0129 22010000 		.4byte	.LVL8
 2634 012d 0600     		.2byte	0x6
 2635 012f 0C       		.byte	0xc
 2636 0130 00180240 		.4byte	0x40021800
 2637 0134 9F       		.byte	0x9f
 2638 0135 00000000 		.4byte	0
 2639 0139 00000000 		.4byte	0
 2640              	.LLST14:
 2641 013d 22010000 		.4byte	.LVL8
 2642 0141 5A010000 		.4byte	.LVL9
 2643 0145 0400     		.2byte	0x4
 2644 0147 70       		.byte	0x70
 2645 0148 C401     		.sleb128 196
 2646 014a 9F       		.byte	0x9f
 2647 014b 00000000 		.4byte	0
 2648 014f 00000000 		.4byte	0
 2649              	.LLST15:
 2650 0153 22010000 		.4byte	.LVL8
 2651 0157 5A010000 		.4byte	.LVL9
 2652 015b 0600     		.2byte	0x6
 2653 015d 0C       		.byte	0xc
 2654 015e 001C0240 		.4byte	0x40021c00
 2655 0162 9F       		.byte	0x9f
 2656 0163 00000000 		.4byte	0
 2657 0167 00000000 		.4byte	0
 2658              	.LLST16:
 2659 016b 5A010000 		.4byte	.LVL9
 2660 016f 92010000 		.4byte	.LVL10
 2661 0173 0400     		.2byte	0x4
 2662 0175 70       		.byte	0x70
 2663 0176 E001     		.sleb128 224
 2664 0178 9F       		.byte	0x9f
 2665 0179 00000000 		.4byte	0
 2666 017d 00000000 		.4byte	0
 2667              	.LLST17:
 2668 0181 5A010000 		.4byte	.LVL9
 2669 0185 92010000 		.4byte	.LVL10
 2670 0189 0600     		.2byte	0x6
 2671 018b 0C       		.byte	0xc
 2672 018c 00200240 		.4byte	0x40022000
 2673 0190 9F       		.byte	0x9f
 2674 0191 00000000 		.4byte	0
 2675 0195 00000000 		.4byte	0
 2676              	.LLST18:
 2677 0199 00000000 		.4byte	.LVL11
 2678 019d 7A000000 		.4byte	.LVL22
 2679 01a1 0100     		.2byte	0x1
ARM GAS  /tmp/ccDhVJfd.s 			page 48


 2680 01a3 51       		.byte	0x51
 2681 01a4 7A000000 		.4byte	.LVL22
 2682 01a8 7C000000 		.4byte	.LVL23
 2683 01ac 0500     		.2byte	0x5
 2684 01ae 71       		.byte	0x71
 2685 01af 00       		.sleb128 0
 2686 01b0 31       		.byte	0x31
 2687 01b1 25       		.byte	0x25
 2688 01b2 9F       		.byte	0x9f
 2689 01b3 7C000000 		.4byte	.LVL23
 2690 01b7 B6000000 		.4byte	.LFE260
 2691 01bb 0100     		.2byte	0x1
 2692 01bd 51       		.byte	0x51
 2693 01be 00000000 		.4byte	0
 2694 01c2 00000000 		.4byte	0
 2695              	.LLST19:
 2696 01c6 00000000 		.4byte	.LVL11
 2697 01ca 1E000000 		.4byte	.LVL16
 2698 01ce 0100     		.2byte	0x1
 2699 01d0 52       		.byte	0x52
 2700 01d1 1E000000 		.4byte	.LVL16
 2701 01d5 B6000000 		.4byte	.LFE260
 2702 01d9 0400     		.2byte	0x4
 2703 01db F3       		.byte	0xf3
 2704 01dc 01       		.uleb128 0x1
 2705 01dd 52       		.byte	0x52
 2706 01de 9F       		.byte	0x9f
 2707 01df 00000000 		.4byte	0
 2708 01e3 00000000 		.4byte	0
 2709              	.LLST20:
 2710 01e7 1E000000 		.4byte	.LVL16
 2711 01eb 28000000 		.4byte	.LVL17
 2712 01ef 0200     		.2byte	0x2
 2713 01f1 30       		.byte	0x30
 2714 01f2 9F       		.byte	0x9f
 2715 01f3 28000000 		.4byte	.LVL17
 2716 01f7 B6000000 		.4byte	.LFE260
 2717 01fb 0100     		.2byte	0x1
 2718 01fd 54       		.byte	0x54
 2719 01fe 00000000 		.4byte	0
 2720 0202 00000000 		.4byte	0
 2721              	.LLST21:
 2722 0206 28000000 		.4byte	.LVL17
 2723 020a 3C000000 		.4byte	.LVL20
 2724 020e 0100     		.2byte	0x1
 2725 0210 5A       		.byte	0x5a
 2726 0211 3C000000 		.4byte	.LVL20
 2727 0215 8A000000 		.4byte	.LVL28
 2728 0219 0A00     		.2byte	0xa
 2729 021b 72       		.byte	0x72
 2730 021c 00       		.sleb128 0
 2731 021d 74       		.byte	0x74
 2732 021e 00       		.sleb128 0
 2733 021f 37       		.byte	0x37
 2734 0220 1A       		.byte	0x1a
 2735 0221 32       		.byte	0x32
 2736 0222 24       		.byte	0x24
ARM GAS  /tmp/ccDhVJfd.s 			page 49


 2737 0223 24       		.byte	0x24
 2738 0224 9F       		.byte	0x9f
 2739 0225 98000000 		.4byte	.LVL29
 2740 0229 B2000000 		.4byte	.LVL32
 2741 022d 0100     		.2byte	0x1
 2742 022f 5A       		.byte	0x5a
 2743 0230 B2000000 		.4byte	.LVL32
 2744 0234 B6000000 		.4byte	.LFE260
 2745 0238 0A00     		.2byte	0xa
 2746 023a 72       		.byte	0x72
 2747 023b 00       		.sleb128 0
 2748 023c 74       		.byte	0x74
 2749 023d 00       		.sleb128 0
 2750 023e 37       		.byte	0x37
 2751 023f 1A       		.byte	0x1a
 2752 0240 32       		.byte	0x32
 2753 0241 24       		.byte	0x24
 2754 0242 24       		.byte	0x24
 2755 0243 9F       		.byte	0x9f
 2756 0244 00000000 		.4byte	0
 2757 0248 00000000 		.4byte	0
 2758              	.LLST22:
 2759 024c 36000000 		.4byte	.LVL19
 2760 0250 7A000000 		.4byte	.LVL22
 2761 0254 0500     		.2byte	0x5
 2762 0256 31       		.byte	0x31
 2763 0257 74       		.byte	0x74
 2764 0258 00       		.sleb128 0
 2765 0259 24       		.byte	0x24
 2766 025a 9F       		.byte	0x9f
 2767 025b 00000000 		.4byte	0
 2768 025f 00000000 		.4byte	0
 2769              	.LLST23:
 2770 0263 44000000 		.4byte	.LVL21
 2771 0267 7A000000 		.4byte	.LVL22
 2772 026b 0700     		.2byte	0x7
 2773 026d 33       		.byte	0x33
 2774 026e 74       		.byte	0x74
 2775 026f 00       		.sleb128 0
 2776 0270 31       		.byte	0x31
 2777 0271 24       		.byte	0x24
 2778 0272 24       		.byte	0x24
 2779 0273 9F       		.byte	0x9f
 2780 0274 00000000 		.4byte	0
 2781 0278 00000000 		.4byte	0
 2782              	.LLST24:
 2783 027c 28000000 		.4byte	.LVL17
 2784 0280 30000000 		.4byte	.LVL18
 2785 0284 0100     		.2byte	0x1
 2786 0286 53       		.byte	0x53
 2787 0287 30000000 		.4byte	.LVL18
 2788 028b 8A000000 		.4byte	.LVL28
 2789 028f 0A00     		.2byte	0xa
 2790 0291 7C       		.byte	0x7c
 2791 0292 00       		.sleb128 0
 2792 0293 74       		.byte	0x74
 2793 0294 00       		.sleb128 0
ARM GAS  /tmp/ccDhVJfd.s 			page 50


 2794 0295 37       		.byte	0x37
 2795 0296 1A       		.byte	0x1a
 2796 0297 32       		.byte	0x32
 2797 0298 24       		.byte	0x24
 2798 0299 24       		.byte	0x24
 2799 029a 9F       		.byte	0x9f
 2800 029b 9C000000 		.4byte	.LVL30
 2801 029f AA000000 		.4byte	.LVL31
 2802 02a3 0100     		.2byte	0x1
 2803 02a5 53       		.byte	0x53
 2804 02a6 AA000000 		.4byte	.LVL31
 2805 02aa B6000000 		.4byte	.LFE260
 2806 02ae 0A00     		.2byte	0xa
 2807 02b0 7C       		.byte	0x7c
 2808 02b1 00       		.sleb128 0
 2809 02b2 74       		.byte	0x74
 2810 02b3 00       		.sleb128 0
 2811 02b4 37       		.byte	0x37
 2812 02b5 1A       		.byte	0x1a
 2813 02b6 32       		.byte	0x32
 2814 02b7 24       		.byte	0x24
 2815 02b8 24       		.byte	0x24
 2816 02b9 9F       		.byte	0x9f
 2817 02ba 00000000 		.4byte	0
 2818 02be 00000000 		.4byte	0
 2819              		.section	.debug_aranges,"",%progbits
 2820 0000 24000000 		.4byte	0x24
 2821 0004 0200     		.2byte	0x2
 2822 0006 00000000 		.4byte	.Ldebug_info0
 2823 000a 04       		.byte	0x4
 2824 000b 00       		.byte	0
 2825 000c 0000     		.2byte	0
 2826 000e 0000     		.2byte	0
 2827 0010 00000000 		.4byte	.LFB259
 2828 0014 AC010000 		.4byte	.LFE259-.LFB259
 2829 0018 00000000 		.4byte	.LFB260
 2830 001c B6000000 		.4byte	.LFE260-.LFB260
 2831 0020 00000000 		.4byte	0
 2832 0024 00000000 		.4byte	0
 2833              		.section	.debug_ranges,"",%progbits
 2834              	.Ldebug_ranges0:
 2835 0000 04000000 		.4byte	.LBB20
 2836 0004 06000000 		.4byte	.LBE20
 2837 0008 1C000000 		.4byte	.LBB32
 2838 000c 38000000 		.4byte	.LBE32
 2839 0010 00000000 		.4byte	0
 2840 0014 00000000 		.4byte	0
 2841 0018 08000000 		.4byte	.LBB23
 2842 001c 0A000000 		.4byte	.LBE23
 2843 0020 38000000 		.4byte	.LBB33
 2844 0024 54000000 		.4byte	.LBE33
 2845 0028 00000000 		.4byte	0
 2846 002c 00000000 		.4byte	0
 2847 0030 0A000000 		.4byte	.LBB26
 2848 0034 0C000000 		.4byte	.LBE26
 2849 0038 54000000 		.4byte	.LBB34
 2850 003c 70000000 		.4byte	.LBE34
ARM GAS  /tmp/ccDhVJfd.s 			page 51


 2851 0040 00000000 		.4byte	0
 2852 0044 00000000 		.4byte	0
 2853 0048 0C000000 		.4byte	.LBB29
 2854 004c 0E000000 		.4byte	.LBE29
 2855 0050 70000000 		.4byte	.LBB35
 2856 0054 8C000000 		.4byte	.LBE35
 2857 0058 00000000 		.4byte	0
 2858 005c 00000000 		.4byte	0
 2859 0060 04000000 		.4byte	.LBB46
 2860 0064 08000000 		.4byte	.LBE46
 2861 0068 1E000000 		.4byte	.LBB47
 2862 006c 7A000000 		.4byte	.LBE47
 2863 0070 8A000000 		.4byte	.LBB48
 2864 0074 90000000 		.4byte	.LBE48
 2865 0078 94000000 		.4byte	.LBB49
 2866 007c 9C000000 		.4byte	.LBE49
 2867 0080 9E000000 		.4byte	.LBB50
 2868 0084 B6000000 		.4byte	.LBE50
 2869 0088 00000000 		.4byte	0
 2870 008c 00000000 		.4byte	0
 2871 0090 00000000 		.4byte	.LFB259
 2872 0094 AC010000 		.4byte	.LFE259
 2873 0098 00000000 		.4byte	.LFB260
 2874 009c B6000000 		.4byte	.LFE260
 2875 00a0 00000000 		.4byte	0
 2876 00a4 00000000 		.4byte	0
 2877              		.section	.debug_line,"",%progbits
 2878              	.Ldebug_line0:
 2879 0000 F1020000 		.section	.debug_str,"MS",%progbits,1
 2879      02004102 
 2879      00000201 
 2879      FB0E0D00 
 2879      01010101 
 2880              	.LASF149:
 2881 0000 73746D33 		.ascii	"stm32_gpio_setup_t\000"
 2881      325F6770 
 2881      696F5F73 
 2881      65747570 
 2881      5F7400
 2882              	.LASF53:
 2883 0013 72656164 		.ascii	"ready_list_t\000"
 2883      795F6C69 
 2883      73745F74 
 2883      00
 2884              	.LASF119:
 2885 0020 77747472 		.ascii	"wttrp\000"
 2885      7000
 2886              	.LASF116:
 2887 0026 7264796D 		.ascii	"rdymsg\000"
 2887      736700
 2888              	.LASF19:
 2889 002d 75696E74 		.ascii	"uint64_t\000"
 2889      36345F74 
 2889      00
 2890              	.LASF6:
 2891 0036 5F5F7569 		.ascii	"__uint8_t\000"
 2891      6E74385F 
ARM GAS  /tmp/ccDhVJfd.s 			page 52


 2891      7400
 2892              	.LASF135:
 2893 0040 4F545950 		.ascii	"OTYPER\000"
 2893      455200
 2894              	.LASF113:
 2895 0047 706F7274 		.ascii	"port_intctx\000"
 2895      5F696E74 
 2895      63747800 
 2896              	.LASF72:
 2897 0053 73797374 		.ascii	"system_debug_t\000"
 2897      656D5F64 
 2897      65627567 
 2897      5F7400
 2898              	.LASF160:
 2899 0062 696F706F 		.ascii	"ioportmask_t\000"
 2899      72746D61 
 2899      736B5F74 
 2899      00
 2900              	.LASF157:
 2901 006f 50484461 		.ascii	"PHData\000"
 2901      746100
 2902              	.LASF134:
 2903 0076 4D4F4445 		.ascii	"MODER\000"
 2903      5200
 2904              	.LASF14:
 2905 007c 6C6F6E67 		.ascii	"long long unsigned int\000"
 2905      206C6F6E 
 2905      6720756E 
 2905      7369676E 
 2905      65642069 
 2906              	.LASF137:
 2907 0093 50555044 		.ascii	"PUPDR\000"
 2907      5200
 2908              	.LASF117:
 2909 0099 65786974 		.ascii	"exitcode\000"
 2909      636F6465 
 2909      00
 2910              	.LASF79:
 2911 00a2 6D61696E 		.ascii	"mainthread\000"
 2911      74687265 
 2911      616400
 2912              	.LASF69:
 2913 00ad 76697274 		.ascii	"virtual_timers_list_t\000"
 2913      75616C5F 
 2913      74696D65 
 2913      72735F6C 
 2913      6973745F 
 2914              	.LASF172:
 2915 00c3 49544D5F 		.ascii	"ITM_RxBuffer\000"
 2915      52784275 
 2915      66666572 
 2915      00
 2916              	.LASF52:
 2917 00d0 63685F74 		.ascii	"ch_threads_queue\000"
 2917      68726561 
 2917      64735F71 
 2917      75657565 
ARM GAS  /tmp/ccDhVJfd.s 			page 53


 2917      00
 2918              	.LASF98:
 2919 00e1 41484231 		.ascii	"AHB1LPENR\000"
 2919      4C50454E 
 2919      5200
 2920              	.LASF32:
 2921 00eb 705F7072 		.ascii	"p_prio\000"
 2921      696F00
 2922              	.LASF1:
 2923 00f2 6C6F6E67 		.ascii	"long long int\000"
 2923      206C6F6E 
 2923      6720696E 
 2923      7400
 2924              	.LASF3:
 2925 0100 7369676E 		.ascii	"signed char\000"
 2925      65642063 
 2925      68617200 
 2926              	.LASF138:
 2927 010c 42535252 		.ascii	"BSRR\000"
 2927      00
 2928              	.LASF84:
 2929 0111 41484231 		.ascii	"AHB1RSTR\000"
 2929      52535452 
 2929      00
 2930              	.LASF46:
 2931 011a 705F6D70 		.ascii	"p_mpool\000"
 2931      6F6F6C00 
 2932              	.LASF127:
 2933 0122 6D5F7175 		.ascii	"m_queue\000"
 2933      65756500 
 2934              	.LASF143:
 2935 012a 6D6F6465 		.ascii	"moder\000"
 2935      7200
 2936              	.LASF109:
 2937 0130 5243435F 		.ascii	"RCC_TypeDef\000"
 2937      54797065 
 2937      44656600 
 2938              	.LASF76:
 2939 013c 63685F73 		.ascii	"ch_system\000"
 2939      79737465 
 2939      6D00
 2940              	.LASF10:
 2941 0146 6C6F6E67 		.ascii	"long int\000"
 2941      20696E74 
 2941      00
 2942              	.LASF154:
 2943 014f 50454461 		.ascii	"PEData\000"
 2943      746100
 2944              	.LASF89:
 2945 0156 41504232 		.ascii	"APB2RSTR\000"
 2945      52535452 
 2945      00
 2946              	.LASF102:
 2947 015f 41504231 		.ascii	"APB1LPENR\000"
 2947      4C50454E 
 2947      5200
 2948              	.LASF22:
ARM GAS  /tmp/ccDhVJfd.s 			page 54


 2949 0169 74737461 		.ascii	"tstate_t\000"
 2949      74655F74 
 2949      00
 2950              	.LASF16:
 2951 0172 75696E74 		.ascii	"uint16_t\000"
 2951      31365F74 
 2951      00
 2952              	.LASF171:
 2953 017b 616C7472 		.ascii	"altrmask\000"
 2953      6D61736B 
 2953      00
 2954              	.LASF34:
 2955 0184 705F6E65 		.ascii	"p_newer\000"
 2955      77657200 
 2956              	.LASF82:
 2957 018c 504C4C43 		.ascii	"PLLCFGR\000"
 2957      46475200 
 2958              	.LASF136:
 2959 0194 4F535045 		.ascii	"OSPEEDR\000"
 2959      45445200 
 2960              	.LASF58:
 2961 019c 725F6E65 		.ascii	"r_newer\000"
 2961      77657200 
 2962              	.LASF168:
 2963 01a4 6D61736B 		.ascii	"mask\000"
 2963      00
 2964              	.LASF110:
 2965 01a9 72656761 		.ascii	"regarm_t\000"
 2965      726D5F74 
 2965      00
 2966              	.LASF65:
 2967 01b2 76745F70 		.ascii	"vt_prev\000"
 2967      72657600 
 2968              	.LASF78:
 2969 01ba 76746C69 		.ascii	"vtlist\000"
 2969      737400
 2970              	.LASF142:
 2971 01c1 73746D33 		.ascii	"stm32_gpio_t\000"
 2971      325F6770 
 2971      696F5F74 
 2971      00
 2972              	.LASF167:
 2973 01ce 706F7274 		.ascii	"port\000"
 2973      00
 2974              	.LASF131:
 2975 01d3 6D757465 		.ascii	"mutex_t\000"
 2975      785F7400 
 2976              	.LASF151:
 2977 01db 50424461 		.ascii	"PBData\000"
 2977      746100
 2978              	.LASF80:
 2979 01e2 69646C65 		.ascii	"idle_thread_wa\000"
 2979      5F746872 
 2979      6561645F 
 2979      776100
 2980              	.LASF27:
 2981 01f1 636E745F 		.ascii	"cnt_t\000"
ARM GAS  /tmp/ccDhVJfd.s 			page 55


 2981      7400
 2982              	.LASF0:
 2983 01f7 756E7369 		.ascii	"unsigned int\000"
 2983      676E6564 
 2983      20696E74 
 2983      00
 2984              	.LASF64:
 2985 0204 76745F6E 		.ascii	"vt_next\000"
 2985      65787400 
 2986              	.LASF120:
 2987 020c 77747365 		.ascii	"wtsemp\000"
 2987      6D7000
 2988              	.LASF41:
 2989 0213 705F6D73 		.ascii	"p_msgqueue\000"
 2989      67717565 
 2989      756500
 2990              	.LASF174:
 2991 021e 2F686F6D 		.ascii	"/home/selim/working/ChibiOS/os/hal/ports/STM32/LLD/"
 2991      652F7365 
 2991      6C696D2F 
 2991      776F726B 
 2991      696E672F 
 2992 0251 4750494F 		.ascii	"GPIOv2/pal_lld.c\000"
 2992      76322F70 
 2992      616C5F6C 
 2992      6C642E63 
 2992      00
 2993              	.LASF145:
 2994 0262 6F737065 		.ascii	"ospeedr\000"
 2994      65647200 
 2995              	.LASF139:
 2996 026a 4C434B52 		.ascii	"LCKR\000"
 2996      00
 2997              	.LASF144:
 2998 026f 6F747970 		.ascii	"otyper\000"
 2998      657200
 2999              	.LASF8:
 3000 0276 73686F72 		.ascii	"short unsigned int\000"
 3000      7420756E 
 3000      7369676E 
 3000      65642069 
 3000      6E7400
 3001              	.LASF155:
 3002 0289 50464461 		.ascii	"PFData\000"
 3002      746100
 3003              	.LASF49:
 3004 0290 63685F74 		.ascii	"ch_thread\000"
 3004      68726561 
 3004      6400
 3005              	.LASF108:
 3006 029a 504C4C49 		.ascii	"PLLI2SCFGR\000"
 3006      32534346 
 3006      475200
 3007              	.LASF25:
 3008 02a5 6D73675F 		.ascii	"msg_t\000"
 3008      7400
 3009              	.LASF86:
ARM GAS  /tmp/ccDhVJfd.s 			page 56


 3010 02ab 41484233 		.ascii	"AHB3RSTR\000"
 3010      52535452 
 3010      00
 3011              	.LASF75:
 3012 02b4 63685F73 		.ascii	"ch_system_t\000"
 3012      79737465 
 3012      6D5F7400 
 3013              	.LASF21:
 3014 02c0 746D6F64 		.ascii	"tmode_t\000"
 3014      655F7400 
 3015              	.LASF103:
 3016 02c8 41504232 		.ascii	"APB2LPENR\000"
 3016      4C50454E 
 3016      5200
 3017              	.LASF54:
 3018 02d2 63685F72 		.ascii	"ch_ready_list\000"
 3018      65616479 
 3018      5F6C6973 
 3018      7400
 3019              	.LASF26:
 3020 02e0 6576656E 		.ascii	"eventmask_t\000"
 3020      746D6173 
 3020      6B5F7400 
 3021              	.LASF9:
 3022 02ec 5F5F696E 		.ascii	"__int32_t\000"
 3022      7433325F 
 3022      7400
 3023              	.LASF156:
 3024 02f6 50474461 		.ascii	"PGData\000"
 3024      746100
 3025              	.LASF111:
 3026 02fd 73746B61 		.ascii	"stkalign_t\000"
 3026      6C69676E 
 3026      5F7400
 3027              	.LASF48:
 3028 0308 74687265 		.ascii	"threads_list_t\000"
 3028      6164735F 
 3028      6C697374 
 3028      5F7400
 3029              	.LASF62:
 3030 0317 76697274 		.ascii	"virtual_timer_t\000"
 3030      75616C5F 
 3030      74696D65 
 3030      725F7400 
 3031              	.LASF40:
 3032 0327 705F7761 		.ascii	"p_waiting\000"
 3032      6974696E 
 3032      6700
 3033              	.LASF81:
 3034 0331 73697A65 		.ascii	"sizetype\000"
 3034      74797065 
 3034      00
 3035              	.LASF47:
 3036 033a 74687265 		.ascii	"thread_reference_t\000"
 3036      61645F72 
 3036      65666572 
 3036      656E6365 
ARM GAS  /tmp/ccDhVJfd.s 			page 57


 3036      5F7400
 3037              	.LASF70:
 3038 034d 63685F76 		.ascii	"ch_virtual_timers_list\000"
 3038      69727475 
 3038      616C5F74 
 3038      696D6572 
 3038      735F6C69 
 3039              	.LASF133:
 3040 0364 636C6561 		.ascii	"clear\000"
 3040      7200
 3041              	.LASF2:
 3042 036a 6C6F6E67 		.ascii	"long double\000"
 3042      20646F75 
 3042      626C6500 
 3043              	.LASF30:
 3044 0376 705F6E65 		.ascii	"p_next\000"
 3044      787400
 3045              	.LASF93:
 3046 037d 41484233 		.ascii	"AHB3ENR\000"
 3046      454E5200 
 3047              	.LASF71:
 3048 0385 76745F6C 		.ascii	"vt_lasttime\000"
 3048      61737474 
 3048      696D6500 
 3049              	.LASF35:
 3050 0391 705F6F6C 		.ascii	"p_older\000"
 3050      64657200 
 3051              	.LASF57:
 3052 0399 725F6374 		.ascii	"r_ctx\000"
 3052      7800
 3053              	.LASF99:
 3054 039f 41484232 		.ascii	"AHB2LPENR\000"
 3054      4C50454E 
 3054      5200
 3055              	.LASF115:
 3056 03a9 746D5F63 		.ascii	"tm_calibration_t\000"
 3056      616C6962 
 3056      72617469 
 3056      6F6E5F74 
 3056      00
 3057              	.LASF148:
 3058 03ba 61667268 		.ascii	"afrh\000"
 3058      00
 3059              	.LASF153:
 3060 03bf 50444461 		.ascii	"PDData\000"
 3060      746100
 3061              	.LASF60:
 3062 03c6 725F6375 		.ascii	"r_current\000"
 3062      7272656E 
 3062      7400
 3063              	.LASF88:
 3064 03d0 41504231 		.ascii	"APB1RSTR\000"
 3064      52535452 
 3064      00
 3065              	.LASF13:
 3066 03d9 5F5F7569 		.ascii	"__uint64_t\000"
 3066      6E743634 
ARM GAS  /tmp/ccDhVJfd.s 			page 58


 3066      5F7400
 3067              	.LASF141:
 3068 03e4 41465248 		.ascii	"AFRH\000"
 3068      00
 3069              	.LASF140:
 3070 03e9 4146524C 		.ascii	"AFRL\000"
 3070      00
 3071              	.LASF23:
 3072 03ee 74726566 		.ascii	"trefs_t\000"
 3072      735F7400 
 3073              	.LASF87:
 3074 03f6 52455345 		.ascii	"RESERVED0\000"
 3074      52564544 
 3074      3000
 3075              	.LASF90:
 3076 0400 52455345 		.ascii	"RESERVED1\000"
 3076      52564544 
 3076      3100
 3077              	.LASF94:
 3078 040a 52455345 		.ascii	"RESERVED2\000"
 3078      52564544 
 3078      3200
 3079              	.LASF97:
 3080 0414 52455345 		.ascii	"RESERVED3\000"
 3080      52564544 
 3080      3300
 3081              	.LASF101:
 3082 041e 52455345 		.ascii	"RESERVED4\000"
 3082      52564544 
 3082      3400
 3083              	.LASF31:
 3084 0428 705F7072 		.ascii	"p_prev\000"
 3084      657600
 3085              	.LASF106:
 3086 042f 52455345 		.ascii	"RESERVED6\000"
 3086      52564544 
 3086      3600
 3087              	.LASF24:
 3088 0439 74707269 		.ascii	"tprio_t\000"
 3088      6F5F7400 
 3089              	.LASF73:
 3090 0441 63685F73 		.ascii	"ch_system_debug\000"
 3090      79737465 
 3090      6D5F6465 
 3090      62756700 
 3091              	.LASF132:
 3092 0451 5F426F6F 		.ascii	"_Bool\000"
 3092      6C00
 3093              	.LASF17:
 3094 0457 696E7433 		.ascii	"int32_t\000"
 3094      325F7400 
 3095              	.LASF4:
 3096 045f 756E7369 		.ascii	"unsigned char\000"
 3096      676E6564 
 3096      20636861 
 3096      7200
 3097              	.LASF147:
ARM GAS  /tmp/ccDhVJfd.s 			page 59


 3098 046d 6166726C 		.ascii	"afrl\000"
 3098      00
 3099              	.LASF125:
 3100 0472 735F636E 		.ascii	"s_cnt\000"
 3100      7400
 3101              	.LASF44:
 3102 0478 705F6D74 		.ascii	"p_mtxlist\000"
 3102      786C6973 
 3102      7400
 3103              	.LASF5:
 3104 0482 73686F72 		.ascii	"short int\000"
 3104      7420696E 
 3104      7400
 3105              	.LASF37:
 3106 048c 705F7374 		.ascii	"p_state\000"
 3106      61746500 
 3107              	.LASF100:
 3108 0494 41484233 		.ascii	"AHB3LPENR\000"
 3108      4C50454E 
 3108      5200
 3109              	.LASF56:
 3110 049e 725F7072 		.ascii	"r_prio\000"
 3110      696F00
 3111              	.LASF173:
 3112 04a5 474E5520 		.ascii	"GNU C11 5.3.1 20160307 (release) [ARM/embedded-5-br"
 3112      43313120 
 3112      352E332E 
 3112      31203230 
 3112      31363033 
 3113 04d8 616E6368 		.ascii	"anch revision 234589] -mcpu=cortex-m4 -mno-thumb-in"
 3113      20726576 
 3113      6973696F 
 3113      6E203233 
 3113      34353839 
 3114 050b 74657277 		.ascii	"terwork -mthumb -ggdb -O2 -fomit-frame-pointer -fal"
 3114      6F726B20 
 3114      2D6D7468 
 3114      756D6220 
 3114      2D676764 
 3115 053e 69676E2D 		.ascii	"ign-functions=16 -ffunction-sections -fdata-section"
 3115      66756E63 
 3115      74696F6E 
 3115      733D3136 
 3115      202D6666 
 3116 0571 73202D66 		.ascii	"s -fno-common\000"
 3116      6E6F2D63 
 3116      6F6D6D6F 
 3116      6E00
 3117              	.LASF150:
 3118 057f 50414461 		.ascii	"PAData\000"
 3118      746100
 3119              	.LASF122:
 3120 0586 65776D61 		.ascii	"ewmask\000"
 3120      736B00
 3121              	.LASF38:
 3122 058d 705F666C 		.ascii	"p_flags\000"
 3122      61677300 
ARM GAS  /tmp/ccDhVJfd.s 			page 60


 3123              	.LASF163:
 3124 0595 6770696F 		.ascii	"gpiop\000"
 3124      7000
 3125              	.LASF96:
 3126 059b 41504232 		.ascii	"APB2ENR\000"
 3126      454E5200 
 3127              	.LASF158:
 3128 05a3 50494461 		.ascii	"PIData\000"
 3128      746100
 3129              	.LASF63:
 3130 05aa 63685F76 		.ascii	"ch_virtual_timer\000"
 3130      69727475 
 3130      616C5F74 
 3130      696D6572 
 3130      00
 3131              	.LASF123:
 3132 05bb 63685F73 		.ascii	"ch_semaphore\000"
 3132      656D6170 
 3132      686F7265 
 3132      00
 3133              	.LASF43:
 3134 05c8 705F6570 		.ascii	"p_epending\000"
 3134      656E6469 
 3134      6E6700
 3135              	.LASF104:
 3136 05d3 52455345 		.ascii	"RESERVED5\000"
 3136      52564544 
 3136      3500
 3137              	.LASF18:
 3138 05dd 75696E74 		.ascii	"uint32_t\000"
 3138      33325F74 
 3138      00
 3139              	.LASF121:
 3140 05e6 77746D74 		.ascii	"wtmtxp\000"
 3140      787000
 3141              	.LASF55:
 3142 05ed 725F7175 		.ascii	"r_queue\000"
 3142      65756500 
 3143              	.LASF66:
 3144 05f5 76745F64 		.ascii	"vt_delta\000"
 3144      656C7461 
 3144      00
 3145              	.LASF50:
 3146 05fe 63685F74 		.ascii	"ch_threads_list\000"
 3146      68726561 
 3146      64735F6C 
 3146      69737400 
 3147              	.LASF12:
 3148 060e 6C6F6E67 		.ascii	"long unsigned int\000"
 3148      20756E73 
 3148      69676E65 
 3148      6420696E 
 3148      7400
 3149              	.LASF170:
 3150 0620 616C7472 		.ascii	"altr\000"
 3150      00
 3151              	.LASF130:
ARM GAS  /tmp/ccDhVJfd.s 			page 61


 3152 0625 63686172 		.ascii	"char\000"
 3152      00
 3153              	.LASF169:
 3154 062a 6D6F6465 		.ascii	"mode\000"
 3154      00
 3155              	.LASF164:
 3156 062f 636F6E66 		.ascii	"config\000"
 3156      696700
 3157              	.LASF7:
 3158 0636 5F5F7569 		.ascii	"__uint16_t\000"
 3158      6E743136 
 3158      5F7400
 3159              	.LASF85:
 3160 0641 41484232 		.ascii	"AHB2RSTR\000"
 3160      52535452 
 3160      00
 3161              	.LASF29:
 3162 064a 74687265 		.ascii	"thread_t\000"
 3162      61645F74 
 3162      00
 3163              	.LASF129:
 3164 0653 6D5F6E65 		.ascii	"m_next\000"
 3164      787400
 3165              	.LASF28:
 3166 065a 73797374 		.ascii	"systime_t\000"
 3166      696D655F 
 3166      7400
 3167              	.LASF45:
 3168 0664 705F7265 		.ascii	"p_realprio\000"
 3168      616C7072 
 3168      696F00
 3169              	.LASF61:
 3170 066f 76746675 		.ascii	"vtfunc_t\000"
 3170      6E635F74 
 3170      00
 3171              	.LASF11:
 3172 0678 5F5F7569 		.ascii	"__uint32_t\000"
 3172      6E743332 
 3172      5F7400
 3173              	.LASF175:
 3174 0683 696E6974 		.ascii	"initgpio\000"
 3174      6770696F 
 3174      00
 3175              	.LASF74:
 3176 068c 70616E69 		.ascii	"panic_msg\000"
 3176      635F6D73 
 3176      6700
 3177              	.LASF114:
 3178 0696 6F666673 		.ascii	"offset\000"
 3178      657400
 3179              	.LASF95:
 3180 069d 41504231 		.ascii	"APB1ENR\000"
 3180      454E5200 
 3181              	.LASF162:
 3182 06a5 696F706F 		.ascii	"ioportid_t\000"
 3182      72746964 
 3182      5F7400
ARM GAS  /tmp/ccDhVJfd.s 			page 62


 3183              	.LASF92:
 3184 06b0 41484232 		.ascii	"AHB2ENR\000"
 3184      454E5200 
 3185              	.LASF112:
 3186 06b8 636F6E74 		.ascii	"context\000"
 3186      65787400 
 3187              	.LASF59:
 3188 06c0 725F6F6C 		.ascii	"r_older\000"
 3188      64657200 
 3189              	.LASF166:
 3190 06c8 5F70616C 		.ascii	"_pal_lld_setgroupmode\000"
 3190      5F6C6C64 
 3190      5F736574 
 3190      67726F75 
 3190      706D6F64 
 3191              	.LASF20:
 3192 06de 7274636E 		.ascii	"rtcnt_t\000"
 3192      745F7400 
 3193              	.LASF68:
 3194 06e6 76745F70 		.ascii	"vt_par\000"
 3194      617200
 3195              	.LASF107:
 3196 06ed 53534347 		.ascii	"SSCGR\000"
 3196      5200
 3197              	.LASF51:
 3198 06f3 74687265 		.ascii	"threads_queue_t\000"
 3198      6164735F 
 3198      71756575 
 3198      655F7400 
 3199              	.LASF126:
 3200 0703 63685F6D 		.ascii	"ch_mutex\000"
 3200      75746578 
 3200      00
 3201              	.LASF39:
 3202 070c 705F7265 		.ascii	"p_refs\000"
 3202      667300
 3203              	.LASF165:
 3204 0713 5F70616C 		.ascii	"_pal_lld_init\000"
 3204      5F6C6C64 
 3204      5F696E69 
 3204      7400
 3205              	.LASF105:
 3206 0721 42444352 		.ascii	"BDCR\000"
 3206      00
 3207              	.LASF77:
 3208 0726 726C6973 		.ascii	"rlist\000"
 3208      7400
 3209              	.LASF15:
 3210 072c 75696E74 		.ascii	"uint8_t\000"
 3210      385F7400 
 3211              	.LASF146:
 3212 0734 70757064 		.ascii	"pupdr\000"
 3212      7200
 3213              	.LASF118:
 3214 073a 77746F62 		.ascii	"wtobjp\000"
 3214      6A7000
 3215              	.LASF36:
ARM GAS  /tmp/ccDhVJfd.s 			page 63


 3216 0741 705F6E61 		.ascii	"p_name\000"
 3216      6D6500
 3217              	.LASF91:
 3218 0748 41484231 		.ascii	"AHB1ENR\000"
 3218      454E5200 
 3219              	.LASF152:
 3220 0750 50434461 		.ascii	"PCData\000"
 3220      746100
 3221              	.LASF83:
 3222 0757 43464752 		.ascii	"CFGR\000"
 3222      00
 3223              	.LASF124:
 3224 075c 735F7175 		.ascii	"s_queue\000"
 3224      65756500 
 3225              	.LASF42:
 3226 0764 705F6D73 		.ascii	"p_msg\000"
 3226      6700
 3227              	.LASF161:
 3228 076a 696F6D6F 		.ascii	"iomode_t\000"
 3228      64655F74 
 3228      00
 3229              	.LASF159:
 3230 0773 50414C43 		.ascii	"PALConfig\000"
 3230      6F6E6669 
 3230      6700
 3231              	.LASF128:
 3232 077d 6D5F6F77 		.ascii	"m_owner\000"
 3232      6E657200 
 3233              	.LASF33:
 3234 0785 705F6374 		.ascii	"p_ctx\000"
 3234      7800
 3235              	.LASF67:
 3236 078b 76745F66 		.ascii	"vt_func\000"
 3236      756E6300 
 3237              		.ident	"GCC: (GNU Tools for ARM Embedded Processors) 5.3.1 20160307 (release) [ARM/embedded-5-bran
ARM GAS  /tmp/ccDhVJfd.s 			page 64


DEFINED SYMBOLS
                            *ABS*:0000000000000000 pal_lld.c
     /tmp/ccDhVJfd.s:20     .text._pal_lld_init:0000000000000000 $t
     /tmp/ccDhVJfd.s:26     .text._pal_lld_init:0000000000000000 _pal_lld_init
     /tmp/ccDhVJfd.s:322    .text._pal_lld_init:0000000000000198 $d
     /tmp/ccDhVJfd.s:331    .text._pal_lld_setgroupmode:0000000000000000 $t
     /tmp/ccDhVJfd.s:337    .text._pal_lld_setgroupmode:0000000000000000 _pal_lld_setgroupmode
                     .debug_frame:0000000000000010 $d

NO UNDEFINED SYMBOLS
