ARM GAS  /tmp/cckDB2hV.s 			page 1


   1              		.syntax unified
   2              		.cpu cortex-m4
   3              		.fpu softvfp
   4              		.eabi_attribute 20, 1
   5              		.eabi_attribute 21, 1
   6              		.eabi_attribute 23, 3
   7              		.eabi_attribute 24, 1
   8              		.eabi_attribute 25, 1
   9              		.eabi_attribute 26, 1
  10              		.eabi_attribute 30, 2
  11              		.eabi_attribute 34, 1
  12              		.eabi_attribute 18, 4
  13              		.thumb
  14              		.syntax unified
  15              		.file	"pwm_lld.c"
  16              		.text
  17              	.Ltext0:
  18              		.cfi_sections	.debug_frame
  19              		.section	.text.VectorA4,"ax",%progbits
  20              		.align	2
  21              		.p2align 4,,15
  22              		.global	VectorA4
  23              		.thumb
  24              		.thumb_func
  25              		.type	VectorA4, %function
  26              	VectorA4:
  27              	.LFB259:
  28              		.file 1 "/home/selim/working/ChibiOS/os/hal/ports/STM32/LLD/TIMv1/pwm_lld.c"
  29              		.loc 1 150 0
  30              		.cfi_startproc
  31              		@ args = 0, pretend = 0, frame = 0
  32              		@ frame_needed = 0, uses_anonymous_args = 0
  33              		.loc 1 155 0
  34 0000 0648     		ldr	r0, .L8
  35              		.loc 1 154 0
  36 0002 074A     		ldr	r2, .L8+4
  37              		.loc 1 150 0
  38 0004 08B5     		push	{r3, lr}
  39              		.cfi_def_cfa_offset 8
  40              		.cfi_offset 3, -8
  41              		.cfi_offset 14, -4
  42              		.loc 1 155 0
  43 0006 4368     		ldr	r3, [r0, #4]
  44 0008 9B68     		ldr	r3, [r3, #8]
  45              		.loc 1 154 0
  46 000a 6FF00101 		mvn	r1, #1
  47 000e 1161     		str	r1, [r2, #16]
  48              		.loc 1 155 0
  49 0010 03B1     		cbz	r3, .L2
  50              		.loc 1 156 0
  51 0012 9847     		blx	r3
  52              	.LVL0:
  53              	.L2:
  54              		.loc 1 159 0
  55 0014 BDE80840 		pop	{r3, lr}
  56              		.cfi_restore 14
  57              		.cfi_restore 3
ARM GAS  /tmp/cckDB2hV.s 			page 2


  58              		.cfi_def_cfa_offset 0
  59              		.loc 1 158 0
  60 0018 FFF7FEBF 		b	_port_irq_epilogue
  61              	.LVL1:
  62              	.L9:
  63              		.align	2
  64              	.L8:
  65 001c 00000000 		.word	.LANCHOR0
  66 0020 00000140 		.word	1073807360
  67              		.cfi_endproc
  68              	.LFE259:
  69              		.size	VectorA4, .-VectorA4
  70              		.section	.text.VectorAC,"ax",%progbits
  71              		.align	2
  72              		.p2align 4,,15
  73              		.global	VectorAC
  74              		.thumb
  75              		.thumb_func
  76              		.type	VectorAC, %function
  77              	VectorAC:
  78              	.LFB260:
  79              		.loc 1 172 0
  80              		.cfi_startproc
  81              		@ args = 0, pretend = 0, frame = 0
  82              		@ frame_needed = 0, uses_anonymous_args = 0
  83              		.loc 1 177 0
  84 0000 144B     		ldr	r3, .L40
  85              		.loc 1 172 0
  86 0002 10B5     		push	{r4, lr}
  87              		.cfi_def_cfa_offset 8
  88              		.cfi_offset 4, -8
  89              		.cfi_offset 14, -4
  90              		.loc 1 177 0
  91 0004 1C69     		ldr	r4, [r3, #16]
  92 0006 DA68     		ldr	r2, [r3, #12]
  93 0008 1440     		ands	r4, r4, r2
  94              	.LVL2:
  95              		.loc 1 181 0
  96 000a 04F01E02 		and	r2, r4, #30
  97              	.LVL3:
  98 000e D243     		mvns	r2, r2
  99              	.LVL4:
 100              		.loc 1 182 0
 101 0010 A007     		lsls	r0, r4, #30
 102              		.loc 1 181 0
 103 0012 1A61     		str	r2, [r3, #16]
 104              		.loc 1 182 0
 105 0014 04D5     		bpl	.L11
 106              		.loc 1 183 0 discriminator 1
 107 0016 1048     		ldr	r0, .L40+4
 108 0018 4368     		ldr	r3, [r0, #4]
 109 001a 1B69     		ldr	r3, [r3, #16]
 110              		.loc 1 182 0 discriminator 1
 111 001c 03B1     		cbz	r3, .L11
 112              		.loc 1 184 0
 113 001e 9847     		blx	r3
 114              	.LVL5:
ARM GAS  /tmp/cckDB2hV.s 			page 3


 115              	.L11:
 116              		.loc 1 185 0
 117 0020 6107     		lsls	r1, r4, #29
 118 0022 04D5     		bpl	.L12
 119              		.loc 1 186 0 discriminator 1
 120 0024 0C48     		ldr	r0, .L40+4
 121 0026 4368     		ldr	r3, [r0, #4]
 122 0028 9B69     		ldr	r3, [r3, #24]
 123              		.loc 1 185 0 discriminator 1
 124 002a 03B1     		cbz	r3, .L12
 125              		.loc 1 187 0
 126 002c 9847     		blx	r3
 127              	.LVL6:
 128              	.L12:
 129              		.loc 1 188 0
 130 002e 2207     		lsls	r2, r4, #28
 131 0030 04D5     		bpl	.L13
 132              		.loc 1 189 0 discriminator 1
 133 0032 0948     		ldr	r0, .L40+4
 134 0034 4368     		ldr	r3, [r0, #4]
 135 0036 1B6A     		ldr	r3, [r3, #32]
 136              		.loc 1 188 0 discriminator 1
 137 0038 03B1     		cbz	r3, .L13
 138              		.loc 1 190 0
 139 003a 9847     		blx	r3
 140              	.LVL7:
 141              	.L13:
 142              		.loc 1 191 0
 143 003c E306     		lsls	r3, r4, #27
 144 003e 04D5     		bpl	.L14
 145              		.loc 1 192 0 discriminator 1
 146 0040 0548     		ldr	r0, .L40+4
 147 0042 4368     		ldr	r3, [r0, #4]
 148 0044 9B6A     		ldr	r3, [r3, #40]
 149              		.loc 1 191 0 discriminator 1
 150 0046 03B1     		cbz	r3, .L14
 151              		.loc 1 193 0
 152 0048 9847     		blx	r3
 153              	.LVL8:
 154              	.L14:
 155              		.loc 1 196 0
 156 004a BDE81040 		pop	{r4, lr}
 157              		.cfi_restore 14
 158              		.cfi_restore 4
 159              		.cfi_def_cfa_offset 0
 160              	.LVL9:
 161              		.loc 1 195 0
 162 004e FFF7FEBF 		b	_port_irq_epilogue
 163              	.LVL10:
 164              	.L41:
 165 0052 00BF     		.align	2
 166              	.L40:
 167 0054 00000140 		.word	1073807360
 168 0058 00000000 		.word	.LANCHOR0
 169              		.cfi_endproc
 170              	.LFE260:
 171              		.size	VectorAC, .-VectorAC
ARM GAS  /tmp/cckDB2hV.s 			page 4


 172              		.section	.text.VectorB8,"ax",%progbits
 173              		.align	2
 174              		.p2align 4,,15
 175              		.global	VectorB8
 176              		.thumb
 177              		.thumb_func
 178              		.type	VectorB8, %function
 179              	VectorB8:
 180              	.LFB261:
 181              		.loc 1 246 0
 182              		.cfi_startproc
 183              		@ args = 0, pretend = 0, frame = 0
 184              		@ frame_needed = 0, uses_anonymous_args = 0
 185              	.LVL11:
 186 0000 38B5     		push	{r3, r4, r5, lr}
 187              		.cfi_def_cfa_offset 16
 188              		.cfi_offset 3, -16
 189              		.cfi_offset 4, -12
 190              		.cfi_offset 5, -8
 191              		.cfi_offset 14, -4
 192              	.LBB4:
 193              	.LBB5:
 194              		.loc 1 114 0
 195 0002 174D     		ldr	r5, .L79
 196 0004 AB69     		ldr	r3, [r5, #24]
 197 0006 1C69     		ldr	r4, [r3, #16]
 198              	.LVL12:
 199              		.loc 1 115 0
 200 0008 DA68     		ldr	r2, [r3, #12]
 201 000a 1440     		ands	r4, r4, r2
 202              	.LVL13:
 203              		.loc 1 116 0
 204 000c E2B2     		uxtb	r2, r4
 205 000e D243     		mvns	r2, r2
 206 0010 1A61     		str	r2, [r3, #16]
 207              		.loc 1 117 0
 208 0012 A307     		lsls	r3, r4, #30
 209 0014 04D5     		bpl	.L43
 210              		.loc 1 118 0
 211 0016 6B68     		ldr	r3, [r5, #4]
 212 0018 1B69     		ldr	r3, [r3, #16]
 213              		.loc 1 117 0
 214 001a 0BB1     		cbz	r3, .L43
 215              		.loc 1 119 0
 216 001c 2846     		mov	r0, r5
 217 001e 9847     		blx	r3
 218              	.LVL14:
 219              	.L43:
 220              		.loc 1 120 0
 221 0020 6007     		lsls	r0, r4, #29
 222 0022 04D5     		bpl	.L44
 223              		.loc 1 121 0
 224 0024 6B68     		ldr	r3, [r5, #4]
 225 0026 9B69     		ldr	r3, [r3, #24]
 226              		.loc 1 120 0
 227 0028 0BB1     		cbz	r3, .L44
 228              		.loc 1 122 0
ARM GAS  /tmp/cckDB2hV.s 			page 5


 229 002a 0D48     		ldr	r0, .L79
 230 002c 9847     		blx	r3
 231              	.LVL15:
 232              	.L44:
 233              		.loc 1 123 0
 234 002e 2107     		lsls	r1, r4, #28
 235 0030 04D5     		bpl	.L45
 236              		.loc 1 124 0
 237 0032 6B68     		ldr	r3, [r5, #4]
 238 0034 1B6A     		ldr	r3, [r3, #32]
 239              		.loc 1 123 0
 240 0036 0BB1     		cbz	r3, .L45
 241              		.loc 1 125 0
 242 0038 0948     		ldr	r0, .L79
 243 003a 9847     		blx	r3
 244              	.LVL16:
 245              	.L45:
 246              		.loc 1 126 0
 247 003c E206     		lsls	r2, r4, #27
 248 003e 04D5     		bpl	.L46
 249              		.loc 1 127 0
 250 0040 6B68     		ldr	r3, [r5, #4]
 251 0042 9B6A     		ldr	r3, [r3, #40]
 252              		.loc 1 126 0
 253 0044 0BB1     		cbz	r3, .L46
 254              		.loc 1 128 0
 255 0046 0648     		ldr	r0, .L79
 256 0048 9847     		blx	r3
 257              	.LVL17:
 258              	.L46:
 259              		.loc 1 129 0
 260 004a E307     		lsls	r3, r4, #31
 261 004c 04D5     		bpl	.L47
 262 004e 6B68     		ldr	r3, [r5, #4]
 263 0050 9B68     		ldr	r3, [r3, #8]
 264 0052 0BB1     		cbz	r3, .L47
 265              		.loc 1 130 0
 266 0054 0248     		ldr	r0, .L79
 267 0056 9847     		blx	r3
 268              	.LVL18:
 269              	.L47:
 270              	.LBE5:
 271              	.LBE4:
 272              		.loc 1 253 0
 273 0058 BDE83840 		pop	{r3, r4, r5, lr}
 274              		.cfi_restore 14
 275              		.cfi_restore 5
 276              		.cfi_restore 4
 277              		.cfi_restore 3
 278              		.cfi_def_cfa_offset 0
 279              		.loc 1 252 0
 280 005c FFF7FEBF 		b	_port_irq_epilogue
 281              	.LVL19:
 282              	.L80:
 283              		.align	2
 284              	.L79:
 285 0060 00000000 		.word	.LANCHOR1
ARM GAS  /tmp/cckDB2hV.s 			page 6


 286              		.cfi_endproc
 287              	.LFE261:
 288              		.size	VectorB8, .-VectorB8
 289              		.section	.text.pwm_lld_init,"ax",%progbits
 290              		.align	2
 291              		.p2align 4,,15
 292              		.global	pwm_lld_init
 293              		.thumb
 294              		.thumb_func
 295              		.type	pwm_lld_init, %function
 296              	pwm_lld_init:
 297              	.LFB262:
 298              		.loc 1 364 0
 299              		.cfi_startproc
 300              		@ args = 0, pretend = 0, frame = 0
 301              		@ frame_needed = 0, uses_anonymous_args = 0
 302 0000 70B5     		push	{r4, r5, r6, lr}
 303              		.cfi_def_cfa_offset 16
 304              		.cfi_offset 4, -16
 305              		.cfi_offset 5, -12
 306              		.cfi_offset 6, -8
 307              		.cfi_offset 14, -4
 308              		.loc 1 368 0
 309 0002 084D     		ldr	r5, .L83
 310              		.loc 1 389 0
 311 0004 084C     		ldr	r4, .L83+4
 312              		.loc 1 368 0
 313 0006 2846     		mov	r0, r5
 314 0008 FFF7FEFF 		bl	pwmObjectInit
 315              	.LVL20:
 316              		.loc 1 369 0
 317 000c 0426     		movs	r6, #4
 318              		.loc 1 370 0
 319 000e 074B     		ldr	r3, .L83+8
 320 0010 AB61     		str	r3, [r5, #24]
 321              		.loc 1 389 0
 322 0012 2046     		mov	r0, r4
 323              		.loc 1 369 0
 324 0014 2E74     		strb	r6, [r5, #16]
 325              		.loc 1 389 0
 326 0016 FFF7FEFF 		bl	pwmObjectInit
 327              	.LVL21:
 328              		.loc 1 391 0
 329 001a 054B     		ldr	r3, .L83+12
 330              		.loc 1 390 0
 331 001c 2674     		strb	r6, [r4, #16]
 332              		.loc 1 391 0
 333 001e A361     		str	r3, [r4, #24]
 334 0020 70BD     		pop	{r4, r5, r6, pc}
 335              	.L84:
 336 0022 00BF     		.align	2
 337              	.L83:
 338 0024 00000000 		.word	.LANCHOR0
 339 0028 00000000 		.word	.LANCHOR1
 340 002c 00000140 		.word	1073807360
 341 0030 00080040 		.word	1073743872
 342              		.cfi_endproc
ARM GAS  /tmp/cckDB2hV.s 			page 7


 343              	.LFE262:
 344              		.size	pwm_lld_init, .-pwm_lld_init
 345              		.section	.text.pwm_lld_start,"ax",%progbits
 346              		.align	2
 347              		.p2align 4,,15
 348              		.global	pwm_lld_start
 349              		.thumb
 350              		.thumb_func
 351              		.type	pwm_lld_start, %function
 352              	pwm_lld_start:
 353              	.LFB263:
 354              		.loc 1 425 0
 355              		.cfi_startproc
 356              		@ args = 0, pretend = 0, frame = 0
 357              		@ frame_needed = 0, uses_anonymous_args = 0
 358              	.LVL22:
 359 0000 F8B5     		push	{r3, r4, r5, r6, r7, lr}
 360              		.cfi_def_cfa_offset 24
 361              		.cfi_offset 3, -24
 362              		.cfi_offset 4, -20
 363              		.cfi_offset 5, -16
 364              		.cfi_offset 6, -12
 365              		.cfi_offset 7, -8
 366              		.cfi_offset 14, -4
 367              		.loc 1 429 0
 368 0002 0378     		ldrb	r3, [r0]	@ zero_extendqisi2
 369 0004 012B     		cmp	r3, #1
 370              		.loc 1 425 0
 371 0006 0446     		mov	r4, r0
 372              		.loc 1 429 0
 373 0008 4ED0     		beq	.L114
 374              		.loc 1 512 0
 375 000a 8369     		ldr	r3, [r0, #24]
 376 000c 0022     		movs	r2, #0
 377 000e 1A60     		str	r2, [r3]
 378              		.loc 1 513 0
 379 0010 5A63     		str	r2, [r3, #52]
 380              		.loc 1 514 0
 381 0012 9A63     		str	r2, [r3, #56]
 382              		.loc 1 515 0
 383 0014 DA63     		str	r2, [r3, #60]
 384              		.loc 1 516 0
 385 0016 1A64     		str	r2, [r3, #64]
 386              		.loc 1 523 0
 387 0018 5A62     		str	r2, [r3, #36]
 388              	.LVL23:
 389              	.L89:
 390              		.loc 1 527 0
 391 001a 6168     		ldr	r1, [r4, #4]
 392              		.loc 1 532 0
 393 001c A568     		ldr	r5, [r4, #8]
 394              		.loc 1 537 0
 395 001e CA68     		ldr	r2, [r1, #12]
 396              		.loc 1 527 0
 397 0020 6069     		ldr	r0, [r4, #20]
 398 0022 0F68     		ldr	r7, [r1]
 399              		.loc 1 533 0
ARM GAS  /tmp/cckDB2hV.s 			page 8


 400 0024 CE6A     		ldr	r6, [r1, #44]
 401              		.loc 1 527 0
 402 0026 B0FBF7F0 		udiv	r0, r0, r7
 403              		.loc 1 537 0
 404 002a 02F00F02 		and	r2, r2, #15
 405              		.loc 1 532 0
 406 002e 6C1E     		subs	r4, r5, #1
 407              	.LVL24:
 408              		.loc 1 527 0
 409 0030 0138     		subs	r0, r0, #1
 410              	.LVL25:
 411              		.loc 1 537 0
 412 0032 012A     		cmp	r2, #1
 413              		.loc 1 531 0
 414 0034 9862     		str	r0, [r3, #40]
 415              		.loc 1 532 0
 416 0036 DC62     		str	r4, [r3, #44]
 417              		.loc 1 533 0
 418 0038 5E60     		str	r6, [r3, #4]
 419              	.LVL26:
 420              		.loc 1 537 0
 421 003a 03D0     		beq	.L90
 422              		.loc 1 536 0
 423 003c 022A     		cmp	r2, #2
 424 003e 0CBF     		ite	eq
 425 0040 0322     		moveq	r2, #3
 426 0042 0022     		movne	r2, #0
 427              	.L90:
 428              	.LVL27:
 429              		.loc 1 545 0
 430 0044 4869     		ldr	r0, [r1, #20]
 431              	.LVL28:
 432 0046 00F00F00 		and	r0, r0, #15
 433 004a 0128     		cmp	r0, #1
 434 004c 29D0     		beq	.L94
 435 004e 0228     		cmp	r0, #2
 436 0050 25D0     		beq	.L115
 437              	.L93:
 438              		.loc 1 553 0
 439 0052 C869     		ldr	r0, [r1, #28]
 440 0054 00F00F00 		and	r0, r0, #15
 441 0058 0128     		cmp	r0, #1
 442 005a 1DD0     		beq	.L97
 443 005c 0228     		cmp	r0, #2
 444 005e 19D0     		beq	.L116
 445              	.L96:
 446              		.loc 1 561 0
 447 0060 486A     		ldr	r0, [r1, #36]
 448 0062 00F00F00 		and	r0, r0, #15
 449 0066 0128     		cmp	r0, #1
 450 0068 03D0     		beq	.L100
 451 006a 0228     		cmp	r0, #2
 452 006c 03D1     		bne	.L99
 453              		.loc 1 563 0
 454 006e 42F40052 		orr	r2, r2, #8192
 455              	.LVL29:
 456              	.L100:
ARM GAS  /tmp/cckDB2hV.s 			page 9


 457              		.loc 1 565 0
 458 0072 42F48052 		orr	r2, r2, #4096
 459              	.LVL30:
 460              	.L99:
 461              		.loc 1 609 0
 462 0076 096B     		ldr	r1, [r1, #48]
 463              		.loc 1 606 0
 464 0078 1A62     		str	r2, [r3, #32]
 465              		.loc 1 607 0
 466 007a 0125     		movs	r5, #1
 467              		.loc 1 609 0
 468 007c 21F0FF02 		bic	r2, r1, #255
 469              	.LVL31:
 470              		.loc 1 608 0
 471 0080 0024     		movs	r4, #0
 472              		.loc 1 615 0
 473 0082 4FF40040 		mov	r0, #32768
 474              		.loc 1 619 0
 475 0086 8521     		movs	r1, #133
 476              		.loc 1 607 0
 477 0088 5D61     		str	r5, [r3, #20]
 478              	.LVL32:
 479              		.loc 1 608 0
 480 008a 1C61     		str	r4, [r3, #16]
 481              		.loc 1 609 0
 482 008c DA60     		str	r2, [r3, #12]
 483              		.loc 1 615 0
 484 008e 5864     		str	r0, [r3, #68]
 485              		.loc 1 619 0
 486 0090 1960     		str	r1, [r3]
 487 0092 F8BD     		pop	{r3, r4, r5, r6, r7, pc}
 488              	.LVL33:
 489              	.L116:
 490              		.loc 1 555 0
 491 0094 42F40072 		orr	r2, r2, #512
 492              	.LVL34:
 493              	.L97:
 494              		.loc 1 557 0
 495 0098 42F48072 		orr	r2, r2, #256
 496              	.LVL35:
 497 009c E0E7     		b	.L96
 498              	.L115:
 499              		.loc 1 547 0
 500 009e 42F02002 		orr	r2, r2, #32
 501              	.LVL36:
 502              	.L94:
 503              		.loc 1 549 0
 504 00a2 42F01002 		orr	r2, r2, #16
 505              	.LVL37:
 506 00a6 D4E7     		b	.L93
 507              	.LVL38:
 508              	.L114:
 509              		.loc 1 432 0
 510 00a8 194B     		ldr	r3, .L119
 511 00aa 9842     		cmp	r0, r3
 512 00ac 08D0     		beq	.L117
 513              		.loc 1 461 0
ARM GAS  /tmp/cckDB2hV.s 			page 10


 514 00ae 194B     		ldr	r3, .L119+4
 515 00b0 9842     		cmp	r0, r3
 516 00b2 1BD0     		beq	.L118
 517              	.LVL39:
 518              	.L88:
 519              		.loc 1 501 0
 520 00b4 A369     		ldr	r3, [r4, #24]
 521 00b6 46F66802 		movw	r2, #26728
 522 00ba 9A61     		str	r2, [r3, #24]
 523              		.loc 1 503 0
 524 00bc DA61     		str	r2, [r3, #28]
 525 00be ACE7     		b	.L89
 526              	.LVL40:
 527              	.L117:
 528              		.loc 1 433 0
 529 00c0 154B     		ldr	r3, .L119+8
 530 00c2 5A6C     		ldr	r2, [r3, #68]
 531 00c4 42F00102 		orr	r2, r2, #1
 532 00c8 5A64     		str	r2, [r3, #68]
 533              		.loc 1 434 0
 534 00ca 5A6A     		ldr	r2, [r3, #36]
 535 00cc 0020     		movs	r0, #0
 536              	.LVL41:
 537 00ce 42F00102 		orr	r2, r2, #1
 538 00d2 5A62     		str	r2, [r3, #36]
 539              		.loc 1 435 0
 540 00d4 0721     		movs	r1, #7
 541              		.loc 1 434 0
 542 00d6 5862     		str	r0, [r3, #36]
 543              		.loc 1 435 0
 544 00d8 1920     		movs	r0, #25
 545 00da FFF7FEFF 		bl	nvicEnableVector
 546              	.LVL42:
 547              		.loc 1 436 0
 548 00de 0721     		movs	r1, #7
 549 00e0 1B20     		movs	r0, #27
 550 00e2 FFF7FEFF 		bl	nvicEnableVector
 551              	.LVL43:
 552              		.loc 1 440 0
 553 00e6 0D4B     		ldr	r3, .L119+12
 554 00e8 6361     		str	r3, [r4, #20]
 555 00ea E3E7     		b	.L88
 556              	.LVL44:
 557              	.L118:
 558              		.loc 1 462 0
 559 00ec 0A4B     		ldr	r3, .L119+8
 560 00ee 1A6C     		ldr	r2, [r3, #64]
 561 00f0 42F00402 		orr	r2, r2, #4
 562 00f4 1A64     		str	r2, [r3, #64]
 563              		.loc 1 463 0
 564 00f6 1A6A     		ldr	r2, [r3, #32]
 565 00f8 0020     		movs	r0, #0
 566              	.LVL45:
 567 00fa 42F00402 		orr	r2, r2, #4
 568 00fe 1A62     		str	r2, [r3, #32]
 569              		.loc 1 464 0
 570 0100 0721     		movs	r1, #7
ARM GAS  /tmp/cckDB2hV.s 			page 11


 571              		.loc 1 463 0
 572 0102 1862     		str	r0, [r3, #32]
 573              		.loc 1 464 0
 574 0104 1E20     		movs	r0, #30
 575 0106 FFF7FEFF 		bl	nvicEnableVector
 576              	.LVL46:
 577              		.loc 1 465 0
 578 010a 054B     		ldr	r3, .L119+16
 579 010c 6361     		str	r3, [r4, #20]
 580 010e D1E7     		b	.L88
 581              	.L120:
 582              		.align	2
 583              	.L119:
 584 0110 00000000 		.word	.LANCHOR0
 585 0114 00000000 		.word	.LANCHOR1
 586 0118 00380240 		.word	1073887232
 587 011c 007A030A 		.word	168000000
 588 0120 00BD0105 		.word	84000000
 589              		.cfi_endproc
 590              	.LFE263:
 591              		.size	pwm_lld_start, .-pwm_lld_start
 592              		.section	.text.pwm_lld_stop,"ax",%progbits
 593              		.align	2
 594              		.p2align 4,,15
 595              		.global	pwm_lld_stop
 596              		.thumb
 597              		.thumb_func
 598              		.type	pwm_lld_stop, %function
 599              	pwm_lld_stop:
 600              	.LFB264:
 601              		.loc 1 630 0
 602              		.cfi_startproc
 603              		@ args = 0, pretend = 0, frame = 0
 604              		@ frame_needed = 0, uses_anonymous_args = 0
 605              	.LVL47:
 606 0000 08B5     		push	{r3, lr}
 607              		.cfi_def_cfa_offset 8
 608              		.cfi_offset 3, -8
 609              		.cfi_offset 14, -4
 610              		.loc 1 633 0
 611 0002 0378     		ldrb	r3, [r0]	@ zero_extendqisi2
 612 0004 022B     		cmp	r3, #2
 613 0006 00D0     		beq	.L127
 614              	.LVL48:
 615              	.L121:
 616 0008 08BD     		pop	{r3, pc}
 617              	.LVL49:
 618              	.L127:
 619              		.loc 1 642 0
 620 000a 1049     		ldr	r1, .L129
 621              		.loc 1 634 0
 622 000c 8369     		ldr	r3, [r0, #24]
 623 000e 0022     		movs	r2, #0
 624              		.loc 1 642 0
 625 0010 8842     		cmp	r0, r1
 626              		.loc 1 634 0
 627 0012 1A60     		str	r2, [r3]
ARM GAS  /tmp/cckDB2hV.s 			page 12


 628              		.loc 1 635 0
 629 0014 DA60     		str	r2, [r3, #12]
 630              		.loc 1 636 0
 631 0016 1A61     		str	r2, [r3, #16]
 632              		.loc 1 638 0
 633 0018 5A64     		str	r2, [r3, #68]
 634              		.loc 1 642 0
 635 001a 0BD0     		beq	.L128
 636              		.loc 1 661 0
 637 001c 0C4B     		ldr	r3, .L129+4
 638 001e 9842     		cmp	r0, r3
 639 0020 F2D1     		bne	.L121
 640              		.loc 1 662 0
 641 0022 1E20     		movs	r0, #30
 642              	.LVL50:
 643 0024 FFF7FEFF 		bl	nvicDisableVector
 644              	.LVL51:
 645              		.loc 1 663 0
 646 0028 0A4A     		ldr	r2, .L129+8
 647 002a 136C     		ldr	r3, [r2, #64]
 648 002c 23F00403 		bic	r3, r3, #4
 649 0030 1364     		str	r3, [r2, #64]
 650              		.loc 1 686 0
 651 0032 E9E7     		b	.L121
 652              	.LVL52:
 653              	.L128:
 654              		.loc 1 643 0
 655 0034 1920     		movs	r0, #25
 656              	.LVL53:
 657 0036 FFF7FEFF 		bl	nvicDisableVector
 658              	.LVL54:
 659              		.loc 1 644 0
 660 003a 1B20     		movs	r0, #27
 661 003c FFF7FEFF 		bl	nvicDisableVector
 662              	.LVL55:
 663              		.loc 1 645 0
 664 0040 044A     		ldr	r2, .L129+8
 665 0042 536C     		ldr	r3, [r2, #68]
 666 0044 23F00103 		bic	r3, r3, #1
 667 0048 5364     		str	r3, [r2, #68]
 668 004a 08BD     		pop	{r3, pc}
 669              	.L130:
 670              		.align	2
 671              	.L129:
 672 004c 00000000 		.word	.LANCHOR0
 673 0050 00000000 		.word	.LANCHOR1
 674 0054 00380240 		.word	1073887232
 675              		.cfi_endproc
 676              	.LFE264:
 677              		.size	pwm_lld_stop, .-pwm_lld_stop
 678              		.section	.text.pwm_lld_enable_channel,"ax",%progbits
 679              		.align	2
 680              		.p2align 4,,15
 681              		.global	pwm_lld_enable_channel
 682              		.thumb
 683              		.thumb_func
 684              		.type	pwm_lld_enable_channel, %function
ARM GAS  /tmp/cckDB2hV.s 			page 13


 685              	pwm_lld_enable_channel:
 686              	.LFB265:
 687              		.loc 1 703 0
 688              		.cfi_startproc
 689              		@ args = 0, pretend = 0, frame = 0
 690              		@ frame_needed = 0, uses_anonymous_args = 0
 691              		@ link register save eliminated.
 692              	.LVL56:
 693              		.loc 1 707 0
 694 0000 8369     		ldr	r3, [r0, #24]
 695 0002 0C31     		adds	r1, r1, #12
 696              	.LVL57:
 697 0004 03EB8103 		add	r3, r3, r1, lsl #2
 698 0008 5A60     		str	r2, [r3, #4]
 699 000a 7047     		bx	lr
 700              		.cfi_endproc
 701              	.LFE265:
 702              		.size	pwm_lld_enable_channel, .-pwm_lld_enable_channel
 703              		.section	.text.pwm_lld_disable_channel,"ax",%progbits
 704              		.align	2
 705              		.p2align 4,,15
 706              		.global	pwm_lld_disable_channel
 707              		.thumb
 708              		.thumb_func
 709              		.type	pwm_lld_disable_channel, %function
 710              	pwm_lld_disable_channel:
 711              	.LFB266:
 712              		.loc 1 728 0
 713              		.cfi_startproc
 714              		@ args = 0, pretend = 0, frame = 0
 715              		@ frame_needed = 0, uses_anonymous_args = 0
 716              		@ link register save eliminated.
 717              	.LVL58:
 718              		.loc 1 731 0
 719 0000 8369     		ldr	r3, [r0, #24]
 720 0002 01F10C02 		add	r2, r1, #12
 721 0006 03EB8202 		add	r2, r3, r2, lsl #2
 722 000a 0020     		movs	r0, #0
 723              	.LVL59:
 724 000c 5060     		str	r0, [r2, #4]
 725              		.loc 1 732 0
 726 000e DA68     		ldr	r2, [r3, #12]
 727 0010 0220     		movs	r0, #2
 728 0012 00FA01F1 		lsl	r1, r0, r1
 729              	.LVL60:
 730 0016 22EA0101 		bic	r1, r2, r1
 731 001a D960     		str	r1, [r3, #12]
 732 001c 7047     		bx	lr
 733              		.cfi_endproc
 734              	.LFE266:
 735              		.size	pwm_lld_disable_channel, .-pwm_lld_disable_channel
 736 001e 00BF     		.section	.text.pwm_lld_enable_periodic_notification,"ax",%progbits
 737              		.align	2
 738              		.p2align 4,,15
 739              		.global	pwm_lld_enable_periodic_notification
 740              		.thumb
 741              		.thumb_func
ARM GAS  /tmp/cckDB2hV.s 			page 14


 742              		.type	pwm_lld_enable_periodic_notification, %function
 743              	pwm_lld_enable_periodic_notification:
 744              	.LFB267:
 745              		.loc 1 752 0
 746              		.cfi_startproc
 747              		@ args = 0, pretend = 0, frame = 0
 748              		@ frame_needed = 0, uses_anonymous_args = 0
 749              		@ link register save eliminated.
 750              	.LVL61:
 751              		.loc 1 753 0
 752 0000 8369     		ldr	r3, [r0, #24]
 753 0002 DA68     		ldr	r2, [r3, #12]
 754              	.LVL62:
 755              		.loc 1 757 0
 756 0004 D107     		lsls	r1, r2, #31
 757 0006 06D4     		bmi	.L133
 758              		.loc 1 758 0
 759 0008 42F00102 		orr	r2, r2, #1
 760              	.LVL63:
 761 000c DA60     		str	r2, [r3, #12]
 762              		.loc 1 759 0
 763 000e 1A69     		ldr	r2, [r3, #16]
 764 0010 02F00102 		and	r2, r2, #1
 765 0014 1A61     		str	r2, [r3, #16]
 766              	.L133:
 767 0016 7047     		bx	lr
 768              		.cfi_endproc
 769              	.LFE267:
 770              		.size	pwm_lld_enable_periodic_notification, .-pwm_lld_enable_periodic_notification
 771              		.section	.text.pwm_lld_disable_periodic_notification,"ax",%progbits
 772              		.align	2
 773              		.p2align 4,,15
 774              		.global	pwm_lld_disable_periodic_notification
 775              		.thumb
 776              		.thumb_func
 777              		.type	pwm_lld_disable_periodic_notification, %function
 778              	pwm_lld_disable_periodic_notification:
 779              	.LFB268:
 780              		.loc 1 772 0
 781              		.cfi_startproc
 782              		@ args = 0, pretend = 0, frame = 0
 783              		@ frame_needed = 0, uses_anonymous_args = 0
 784              		@ link register save eliminated.
 785              	.LVL64:
 786              		.loc 1 774 0
 787 0000 8269     		ldr	r2, [r0, #24]
 788 0002 D368     		ldr	r3, [r2, #12]
 789 0004 23F00103 		bic	r3, r3, #1
 790 0008 D360     		str	r3, [r2, #12]
 791 000a 7047     		bx	lr
 792              		.cfi_endproc
 793              	.LFE268:
 794              		.size	pwm_lld_disable_periodic_notification, .-pwm_lld_disable_periodic_notification
 795              		.section	.text.pwm_lld_enable_channel_notification,"ax",%progbits
 796              		.align	2
 797              		.p2align 4,,15
 798              		.global	pwm_lld_enable_channel_notification
ARM GAS  /tmp/cckDB2hV.s 			page 15


 799              		.thumb
 800              		.thumb_func
 801              		.type	pwm_lld_enable_channel_notification, %function
 802              	pwm_lld_enable_channel_notification:
 803              	.LFB269:
 804              		.loc 1 789 0
 805              		.cfi_startproc
 806              		@ args = 0, pretend = 0, frame = 0
 807              		@ frame_needed = 0, uses_anonymous_args = 0
 808              		@ link register save eliminated.
 809              	.LVL65:
 810              		.loc 1 790 0
 811 0000 8069     		ldr	r0, [r0, #24]
 812              	.LVL66:
 813              		.loc 1 799 0
 814 0002 0223     		movs	r3, #2
 815              		.loc 1 790 0
 816 0004 C268     		ldr	r2, [r0, #12]
 817              	.LVL67:
 818              		.loc 1 799 0
 819 0006 03FA01F1 		lsl	r1, r3, r1
 820              	.LVL68:
 821 000a 0A42     		tst	r2, r1
 822 000c 03D1     		bne	.L136
 823              		.loc 1 800 0
 824 000e 0A43     		orrs	r2, r2, r1
 825              	.LVL69:
 826              		.loc 1 801 0
 827 0010 C943     		mvns	r1, r1
 828              		.loc 1 800 0
 829 0012 C260     		str	r2, [r0, #12]
 830              		.loc 1 801 0
 831 0014 0161     		str	r1, [r0, #16]
 832              	.L136:
 833 0016 7047     		bx	lr
 834              		.cfi_endproc
 835              	.LFE269:
 836              		.size	pwm_lld_enable_channel_notification, .-pwm_lld_enable_channel_notification
 837              		.section	.text.pwm_lld_disable_channel_notification,"ax",%progbits
 838              		.align	2
 839              		.p2align 4,,15
 840              		.global	pwm_lld_disable_channel_notification
 841              		.thumb
 842              		.thumb_func
 843              		.type	pwm_lld_disable_channel_notification, %function
 844              	pwm_lld_disable_channel_notification:
 845              	.LFB270:
 846              		.loc 1 817 0
 847              		.cfi_startproc
 848              		@ args = 0, pretend = 0, frame = 0
 849              		@ frame_needed = 0, uses_anonymous_args = 0
 850              		@ link register save eliminated.
 851              	.LVL70:
 852              		.loc 1 819 0
 853 0000 8069     		ldr	r0, [r0, #24]
 854              	.LVL71:
 855 0002 0222     		movs	r2, #2
ARM GAS  /tmp/cckDB2hV.s 			page 16


 856 0004 C368     		ldr	r3, [r0, #12]
 857 0006 02FA01F1 		lsl	r1, r2, r1
 858              	.LVL72:
 859 000a 23EA0103 		bic	r3, r3, r1
 860 000e C360     		str	r3, [r0, #12]
 861 0010 7047     		bx	lr
 862              		.cfi_endproc
 863              	.LFE270:
 864              		.size	pwm_lld_disable_channel_notification, .-pwm_lld_disable_channel_notification
 865              		.global	PWMD4
 866              		.global	PWMD1
 867 0012 00BF     		.section	.bss.PWMD1,"aw",%nobits
 868              		.align	2
 869              		.set	.LANCHOR0,. + 0
 870              		.type	PWMD1, %object
 871              		.size	PWMD1, 28
 872              	PWMD1:
 873 0000 00000000 		.space	28
 873      00000000 
 873      00000000 
 873      00000000 
 873      00000000 
 874              		.section	.bss.PWMD4,"aw",%nobits
 875              		.align	2
 876              		.set	.LANCHOR1,. + 0
 877              		.type	PWMD4, %object
 878              		.size	PWMD4, 28
 879              	PWMD4:
 880 0000 00000000 		.space	28
 880      00000000 
 880      00000000 
 880      00000000 
 880      00000000 
 881              		.text
 882              	.Letext0:
 883              		.file 2 "/usr/lib/gcc/arm-none-eabi/5.3.1/include/stddef.h"
 884              		.file 3 "/usr/arm-none-eabi/include/machine/_default_types.h"
 885              		.file 4 "/usr/arm-none-eabi/include/sys/_stdint.h"
 886              		.file 5 "/home/selim/working/ChibiOS/os/rt/ports/ARMCMx/compilers/GCC/chtypes.h"
 887              		.file 6 "/home/selim/working/ChibiOS/os/rt/include/chsystypes.h"
 888              		.file 7 "/home/selim/working/ChibiOS/os/rt/include/chschd.h"
 889              		.file 8 "/home/selim/working/ChibiOS/os/ext/CMSIS/ST/stm32f407xx.h"
 890              		.file 9 "/home/selim/working/ChibiOS/os/rt/ports/ARMCMx/chcore.h"
 891              		.file 10 "/home/selim/working/ChibiOS/os/rt/ports/ARMCMx/chcore_v7m.h"
 892              		.file 11 "/home/selim/working/ChibiOS/os/hal/ports/STM32/LLD/TIMv1/stm32_tim.h"
 893              		.file 12 "/home/selim/working/ChibiOS/os/rt/include/chtm.h"
 894              		.file 13 "/home/selim/working/ChibiOS/os/rt/include/chsem.h"
 895              		.file 14 "/home/selim/working/ChibiOS/os/rt/include/chmtx.h"
 896              		.file 15 "/home/selim/working/ChibiOS/os/hal/include/pwm.h"
 897              		.file 16 "/home/selim/working/ChibiOS/os/hal/ports/STM32/LLD/TIMv1/pwm_lld.h"
 898              		.file 17 "/home/selim/working/ChibiOS/os/ext/CMSIS/include/core_cm4.h"
 899              		.file 18 "/home/selim/working/ChibiOS/os/hal/ports/common/ARMCMx/nvic.h"