ARM GAS  /tmp/ccK5PcP8.s 			page 1


   1              		.syntax unified
   2              		.cpu cortex-m4
   3              		.fpu softvfp
   4              		.eabi_attribute 20, 1
   5              		.eabi_attribute 21, 1
   6              		.eabi_attribute 23, 3
   7              		.eabi_attribute 24, 1
   8              		.eabi_attribute 25, 1
   9              		.eabi_attribute 26, 1
  10              		.eabi_attribute 30, 2
  11              		.eabi_attribute 34, 1
  12              		.eabi_attribute 18, 4
  13              		.thumb
  14              		.syntax unified
  15              		.file	"serial.c"
  16              		.text
  17              	.Ltext0:
  18              		.cfi_sections	.debug_frame
  19              		.section	.text.readt,"ax",%progbits
  20              		.align	2
  21              		.p2align 4,,15
  22              		.thumb
  23              		.thumb_func
  24              		.type	readt, %function
  25              	readt:
  26              	.LFB265:
  27              		.file 1 "/home/selim/working/ChibiOS/os/hal/src/serial.c"
  28              		.loc 1 87 0
  29              		.cfi_startproc
  30              		@ args = 0, pretend = 0, frame = 0
  31              		@ frame_needed = 0, uses_anonymous_args = 0
  32              		@ link register save eliminated.
  33              	.LVL0:
  34              		.loc 1 89 0
  35 0000 0C30     		adds	r0, r0, #12
  36              	.LVL1:
  37 0002 FFF7FEBF 		b	chIQReadTimeout
  38              	.LVL2:
  39              		.cfi_endproc
  40              	.LFE265:
  41              		.size	readt, .-readt
  42 0006 00BF     		.section	.text.read,"ax",%progbits
  43              		.align	2
  44              		.p2align 4,,15
  45              		.thumb
  46              		.thumb_func
  47              		.type	read, %function
  48              	read:
  49              	.LFB259:
  50              		.loc 1 56 0
  51              		.cfi_startproc
  52              		@ args = 0, pretend = 0, frame = 0
  53              		@ frame_needed = 0, uses_anonymous_args = 0
  54              		@ link register save eliminated.
  55              	.LVL3:
  56              		.loc 1 58 0
  57 0000 0C30     		adds	r0, r0, #12
ARM GAS  /tmp/ccK5PcP8.s 			page 2


  58              	.LVL4:
  59 0002 4FF0FF33 		mov	r3, #-1
  60 0006 FFF7FEBF 		b	chIQReadTimeout
  61              	.LVL5:
  62              		.cfi_endproc
  63              	.LFE259:
  64              		.size	read, .-read
  65 000a 00BF     		.section	.text.writet,"ax",%progbits
  66              		.align	2
  67              		.p2align 4,,15
  68              		.thumb
  69              		.thumb_func
  70              		.type	writet, %function
  71              	writet:
  72              	.LFB264:
  73              		.loc 1 82 0
  74              		.cfi_startproc
  75              		@ args = 0, pretend = 0, frame = 0
  76              		@ frame_needed = 0, uses_anonymous_args = 0
  77              		@ link register save eliminated.
  78              	.LVL6:
  79              		.loc 1 84 0
  80 0000 3030     		adds	r0, r0, #48
  81              	.LVL7:
  82 0002 FFF7FEBF 		b	chOQWriteTimeout
  83              	.LVL8:
  84              		.cfi_endproc
  85              	.LFE264:
  86              		.size	writet, .-writet
  87 0006 00BF     		.section	.text.write,"ax",%progbits
  88              		.align	2
  89              		.p2align 4,,15
  90              		.thumb
  91              		.thumb_func
  92              		.type	write, %function
  93              	write:
  94              	.LFB258:
  95              		.loc 1 50 0
  96              		.cfi_startproc
  97              		@ args = 0, pretend = 0, frame = 0
  98              		@ frame_needed = 0, uses_anonymous_args = 0
  99              		@ link register save eliminated.
 100              	.LVL9:
 101              		.loc 1 52 0
 102 0000 3030     		adds	r0, r0, #48
 103              	.LVL10:
 104 0002 4FF0FF33 		mov	r3, #-1
 105 0006 FFF7FEBF 		b	chOQWriteTimeout
 106              	.LVL11:
 107              		.cfi_endproc
 108              	.LFE258:
 109              		.size	write, .-write
 110 000a 00BF     		.section	.text.gett,"ax",%progbits
 111              		.align	2
 112              		.p2align 4,,15
 113              		.thumb
 114              		.thumb_func
ARM GAS  /tmp/ccK5PcP8.s 			page 3


 115              		.type	gett, %function
 116              	gett:
 117              	.LFB263:
 118              		.loc 1 77 0
 119              		.cfi_startproc
 120              		@ args = 0, pretend = 0, frame = 0
 121              		@ frame_needed = 0, uses_anonymous_args = 0
 122              		@ link register save eliminated.
 123              	.LVL12:
 124              		.loc 1 79 0
 125 0000 0C30     		adds	r0, r0, #12
 126              	.LVL13:
 127 0002 FFF7FEBF 		b	chIQGetTimeout
 128              	.LVL14:
 129              		.cfi_endproc
 130              	.LFE263:
 131              		.size	gett, .-gett
 132 0006 00BF     		.section	.text.get,"ax",%progbits
 133              		.align	2
 134              		.p2align 4,,15
 135              		.thumb
 136              		.thumb_func
 137              		.type	get, %function
 138              	get:
 139              	.LFB261:
 140              		.loc 1 67 0
 141              		.cfi_startproc
 142              		@ args = 0, pretend = 0, frame = 0
 143              		@ frame_needed = 0, uses_anonymous_args = 0
 144              		@ link register save eliminated.
 145              	.LVL15:
 146              		.loc 1 69 0
 147 0000 0C30     		adds	r0, r0, #12
 148              	.LVL16:
 149 0002 4FF0FF31 		mov	r1, #-1
 150 0006 FFF7FEBF 		b	chIQGetTimeout
 151              	.LVL17:
 152              		.cfi_endproc
 153              	.LFE261:
 154              		.size	get, .-get
 155 000a 00BF     		.section	.text.putt,"ax",%progbits
 156              		.align	2
 157              		.p2align 4,,15
 158              		.thumb
 159              		.thumb_func
 160              		.type	putt, %function
 161              	putt:
 162              	.LFB262:
 163              		.loc 1 72 0
 164              		.cfi_startproc
 165              		@ args = 0, pretend = 0, frame = 0
 166              		@ frame_needed = 0, uses_anonymous_args = 0
 167              		@ link register save eliminated.
 168              	.LVL18:
 169              		.loc 1 74 0
 170 0000 3030     		adds	r0, r0, #48
 171              	.LVL19:
ARM GAS  /tmp/ccK5PcP8.s 			page 4


 172 0002 FFF7FEBF 		b	chOQPutTimeout
 173              	.LVL20:
 174              		.cfi_endproc
 175              	.LFE262:
 176              		.size	putt, .-putt
 177 0006 00BF     		.section	.text.put,"ax",%progbits
 178              		.align	2
 179              		.p2align 4,,15
 180              		.thumb
 181              		.thumb_func
 182              		.type	put, %function
 183              	put:
 184              	.LFB260:
 185              		.loc 1 62 0
 186              		.cfi_startproc
 187              		@ args = 0, pretend = 0, frame = 0
 188              		@ frame_needed = 0, uses_anonymous_args = 0
 189              		@ link register save eliminated.
 190              	.LVL21:
 191              		.loc 1 64 0
 192 0000 3030     		adds	r0, r0, #48
 193              	.LVL22:
 194 0002 4FF0FF32 		mov	r2, #-1
 195 0006 FFF7FEBF 		b	chOQPutTimeout
 196              	.LVL23:
 197              		.cfi_endproc
 198              	.LFE260:
 199              		.size	put, .-put
 200 000a 00BF     		.section	.text.sdInit,"ax",%progbits
 201              		.align	2
 202              		.p2align 4,,15
 203              		.global	sdInit
 204              		.thumb
 205              		.thumb_func
 206              		.type	sdInit, %function
 207              	sdInit:
 208              	.LFB266:
 209              		.loc 1 108 0
 210              		.cfi_startproc
 211              		@ args = 0, pretend = 0, frame = 0
 212              		@ frame_needed = 0, uses_anonymous_args = 0
 213              		@ link register save eliminated.
 214              		.loc 1 110 0
 215 0000 FFF7FEBF 		b	sd_lld_init
 216              	.LVL24:
 217              		.cfi_endproc
 218              	.LFE266:
 219              		.size	sdInit, .-sdInit
 220              		.section	.text.sdObjectInit,"ax",%progbits
 221              		.align	2
 222              		.p2align 4,,15
 223              		.global	sdObjectInit
 224              		.thumb
 225              		.thumb_func
 226              		.type	sdObjectInit, %function
 227              	sdObjectInit:
 228              	.LFB267:
ARM GAS  /tmp/ccK5PcP8.s 			page 5


 229              		.loc 1 128 0
 230              		.cfi_startproc
 231              		@ args = 0, pretend = 0, frame = 0
 232              		@ frame_needed = 0, uses_anonymous_args = 0
 233              	.LVL25:
 234 0000 70B5     		push	{r4, r5, r6, lr}
 235              		.cfi_def_cfa_offset 16
 236              		.cfi_offset 4, -16
 237              		.cfi_offset 5, -12
 238              		.cfi_offset 6, -8
 239              		.cfi_offset 14, -4
 240              		.loc 1 130 0
 241 0002 0E4B     		ldr	r3, .L12
 242              		.loc 1 128 0
 243 0004 0446     		mov	r4, r0
 244 0006 82B0     		sub	sp, sp, #8
 245              		.cfi_def_cfa_offset 24
 246              		.loc 1 130 0
 247 0008 40F8043B 		str	r3, [r0], #4
 248              	.LVL26:
 249              		.loc 1 132 0
 250 000c 0126     		movs	r6, #1
 251              		.loc 1 133 0
 252 000e 0094     		str	r4, [sp]
 253              		.loc 1 128 0
 254 0010 1546     		mov	r5, r2
 255              		.loc 1 133 0
 256 0012 0B46     		mov	r3, r1
 257              	.LBB66:
 258              	.LBB67:
 259              	.LBB68:
 260              		.file 2 "/home/selim/working/ChibiOS/os/rt/include/chevents.h"
 261              		.loc 2 172 0
 262 0014 6060     		str	r0, [r4, #4]
 263              	.LVL27:
 264              	.LBE68:
 265              	.LBE67:
 266              	.LBE66:
 267              		.loc 1 133 0
 268 0016 04F15401 		add	r1, r4, #84
 269              	.LVL28:
 270 001a 04F10C00 		add	r0, r4, #12
 271              		.loc 1 132 0
 272 001e 2672     		strb	r6, [r4, #8]
 273              		.loc 1 133 0
 274 0020 1022     		movs	r2, #16
 275              	.LVL29:
 276 0022 FFF7FEFF 		bl	chIQObjectInit
 277              	.LVL30:
 278              		.loc 1 134 0
 279 0026 0094     		str	r4, [sp]
 280 0028 2B46     		mov	r3, r5
 281 002a 04F16401 		add	r1, r4, #100
 282 002e 04F13000 		add	r0, r4, #48
 283 0032 1022     		movs	r2, #16
 284 0034 FFF7FEFF 		bl	chOQObjectInit
 285              	.LVL31:
ARM GAS  /tmp/ccK5PcP8.s 			page 6


 286              		.loc 1 135 0
 287 0038 02B0     		add	sp, sp, #8
 288              		.cfi_def_cfa_offset 16
 289              		@ sp needed
 290 003a 70BD     		pop	{r4, r5, r6, pc}
 291              	.LVL32:
 292              	.L13:
 293              		.align	2
 294              	.L12:
 295 003c 00000000 		.word	.LANCHOR0
 296              		.cfi_endproc
 297              	.LFE267:
 298              		.size	sdObjectInit, .-sdObjectInit
 299              		.section	.text.sdStart,"ax",%progbits
 300              		.align	2
 301              		.p2align 4,,15
 302              		.global	sdStart
 303              		.thumb
 304              		.thumb_func
 305              		.type	sdStart, %function
 306              	sdStart:
 307              	.LFB268:
 308              		.loc 1 147 0
 309              		.cfi_startproc
 310              		@ args = 0, pretend = 0, frame = 0
 311              		@ frame_needed = 0, uses_anonymous_args = 0
 312              	.LVL33:
 313 0000 10B5     		push	{r4, lr}
 314              		.cfi_def_cfa_offset 8
 315              		.cfi_offset 4, -8
 316              		.cfi_offset 14, -4
 317              	.LBB69:
 318              	.LBB70:
 319              	.LBB71:
 320              	.LBB72:
 321              	.LBB73:
 322              		.file 3 "/home/selim/working/ChibiOS/os/ext/CMSIS/include/core_cmFunc.h"
 323              		.loc 3 546 0
 324 0002 2023     		movs	r3, #32
 325              	.LBE73:
 326              	.LBE72:
 327              	.LBE71:
 328              	.LBE70:
 329              	.LBE69:
 330              		.loc 1 147 0
 331 0004 0446     		mov	r4, r0
 332              	.LBB78:
 333              	.LBB77:
 334              	.LBB76:
 335              	.LBB75:
 336              	.LBB74:
 337              		.loc 3 546 0
 338              		.syntax unified
 339              	@ 546 "/home/selim/working/ChibiOS/os/ext/CMSIS/include/core_cmFunc.h" 1
 340 0006 83F31188 		MSR basepri, r3
 341              	@ 0 "" 2
 342              	.LVL34:
ARM GAS  /tmp/ccK5PcP8.s 			page 7


 343              		.thumb
 344              		.syntax unified
 345              	.LBE74:
 346              	.LBE75:
 347              	.LBE76:
 348              	.LBE77:
 349              	.LBE78:
 350              		.loc 1 154 0
 351 000a FFF7FEFF 		bl	sd_lld_start
 352              	.LVL35:
 353              		.loc 1 155 0
 354 000e 0223     		movs	r3, #2
 355 0010 2372     		strb	r3, [r4, #8]
 356              	.LVL36:
 357              	.LBB79:
 358              	.LBB80:
 359              	.LBB81:
 360              	.LBB82:
 361              	.LBB83:
 362              	.LBB84:
 363              		.loc 3 546 0
 364 0012 0023     		movs	r3, #0
 365              		.syntax unified
 366              	@ 546 "/home/selim/working/ChibiOS/os/ext/CMSIS/include/core_cmFunc.h" 1
 367 0014 83F31188 		MSR basepri, r3
 368              	@ 0 "" 2
 369              	.LVL37:
 370              		.thumb
 371              		.syntax unified
 372 0018 10BD     		pop	{r4, pc}
 373              	.LBE84:
 374              	.LBE83:
 375              	.LBE82:
 376              	.LBE81:
 377              	.LBE80:
 378              	.LBE79:
 379              		.cfi_endproc
 380              	.LFE268:
 381              		.size	sdStart, .-sdStart
 382 001a 00BF     		.section	.text.sdStop,"ax",%progbits
 383              		.align	2
 384              		.p2align 4,,15
 385              		.global	sdStop
 386              		.thumb
 387              		.thumb_func
 388              		.type	sdStop, %function
 389              	sdStop:
 390              	.LFB269:
 391              		.loc 1 168 0
 392              		.cfi_startproc
 393              		@ args = 0, pretend = 0, frame = 0
 394              		@ frame_needed = 0, uses_anonymous_args = 0
 395              	.LVL38:
 396 0000 10B5     		push	{r4, lr}
 397              		.cfi_def_cfa_offset 8
 398              		.cfi_offset 4, -8
 399              		.cfi_offset 14, -4
ARM GAS  /tmp/ccK5PcP8.s 			page 8


 400              	.LBB85:
 401              	.LBB86:
 402              	.LBB87:
 403              	.LBB88:
 404              	.LBB89:
 405              		.loc 3 546 0
 406 0002 2023     		movs	r3, #32
 407              	.LBE89:
 408              	.LBE88:
 409              	.LBE87:
 410              	.LBE86:
 411              	.LBE85:
 412              		.loc 1 168 0
 413 0004 0446     		mov	r4, r0
 414              	.LBB94:
 415              	.LBB93:
 416              	.LBB92:
 417              	.LBB91:
 418              	.LBB90:
 419              		.loc 3 546 0
 420              		.syntax unified
 421              	@ 546 "/home/selim/working/ChibiOS/os/ext/CMSIS/include/core_cmFunc.h" 1
 422 0006 83F31188 		MSR basepri, r3
 423              	@ 0 "" 2
 424              	.LVL39:
 425              		.thumb
 426              		.syntax unified
 427              	.LBE90:
 428              	.LBE91:
 429              	.LBE92:
 430              	.LBE93:
 431              	.LBE94:
 432              		.loc 1 175 0
 433 000a FFF7FEFF 		bl	sd_lld_stop
 434              	.LVL40:
 435              		.loc 1 176 0
 436 000e 0123     		movs	r3, #1
 437 0010 2372     		strb	r3, [r4, #8]
 438              		.loc 1 177 0
 439 0012 04F13000 		add	r0, r4, #48
 440 0016 FFF7FEFF 		bl	chOQResetI
 441              	.LVL41:
 442              		.loc 1 178 0
 443 001a 04F10C00 		add	r0, r4, #12
 444 001e FFF7FEFF 		bl	chIQResetI
 445              	.LVL42:
 446              	.LBB95:
 447              	.LBB96:
 448              		.file 4 "/home/selim/working/ChibiOS/os/hal/osal/rt/osal.h"
 449              		.loc 4 554 0
 450 0022 FFF7FEFF 		bl	chSchRescheduleS
 451              	.LVL43:
 452              	.LBE96:
 453              	.LBE95:
 454              	.LBB97:
 455              	.LBB98:
 456              	.LBB99:
ARM GAS  /tmp/ccK5PcP8.s 			page 9


 457              	.LBB100:
 458              	.LBB101:
 459              	.LBB102:
 460              		.loc 3 546 0
 461 0026 0023     		movs	r3, #0
 462              		.syntax unified
 463              	@ 546 "/home/selim/working/ChibiOS/os/ext/CMSIS/include/core_cmFunc.h" 1
 464 0028 83F31188 		MSR basepri, r3
 465              	@ 0 "" 2
 466              	.LVL44:
 467              		.thumb
 468              		.syntax unified
 469 002c 10BD     		pop	{r4, pc}
 470              	.LBE102:
 471              	.LBE101:
 472              	.LBE100:
 473              	.LBE99:
 474              	.LBE98:
 475              	.LBE97:
 476              		.cfi_endproc
 477              	.LFE269:
 478              		.size	sdStop, .-sdStop
 479 002e 00BF     		.section	.text.sdIncomingDataI,"ax",%progbits
 480              		.align	2
 481              		.p2align 4,,15
 482              		.global	sdIncomingDataI
 483              		.thumb
 484              		.thumb_func
 485              		.type	sdIncomingDataI, %function
 486              	sdIncomingDataI:
 487              	.LFB270:
 488              		.loc 1 199 0
 489              		.cfi_startproc
 490              		@ args = 0, pretend = 0, frame = 0
 491              		@ frame_needed = 0, uses_anonymous_args = 0
 492              	.LVL45:
 493 0000 38B5     		push	{r3, r4, r5, lr}
 494              		.cfi_def_cfa_offset 16
 495              		.cfi_offset 3, -16
 496              		.cfi_offset 4, -12
 497              		.cfi_offset 5, -8
 498              		.cfi_offset 14, -4
 499              		.loc 1 204 0
 500 0002 4369     		ldr	r3, [r0, #20]
 501              		.loc 1 199 0
 502 0004 0446     		mov	r4, r0
 503              	.LVL46:
 504 0006 0D46     		mov	r5, r1
 505              		.loc 1 204 0
 506 0008 3BB1     		cbz	r3, .L23
 507              		.loc 1 206 0
 508 000a 2946     		mov	r1, r5
 509              	.LVL47:
 510 000c 04F10C00 		add	r0, r4, #12
 511              	.LVL48:
 512 0010 FFF7FEFF 		bl	chIQPutI
 513              	.LVL49:
ARM GAS  /tmp/ccK5PcP8.s 			page 10


 514 0014 0028     		cmp	r0, #0
 515 0016 0BDB     		blt	.L24
 516              	.L18:
 517 0018 38BD     		pop	{r3, r4, r5, pc}
 518              	.LVL50:
 519              	.L23:
 520              	.LBB103:
 521              	.LBB104:
 522              		.loc 4 798 0
 523 001a 0421     		movs	r1, #4
 524              	.LVL51:
 525 001c 0844     		add	r0, r0, r1
 526              	.LVL52:
 527 001e FFF7FEFF 		bl	chEvtBroadcastFlagsI
 528              	.LVL53:
 529              	.LBE104:
 530              	.LBE103:
 531              		.loc 1 206 0
 532 0022 2946     		mov	r1, r5
 533 0024 04F10C00 		add	r0, r4, #12
 534 0028 FFF7FEFF 		bl	chIQPutI
 535              	.LVL54:
 536 002c 0028     		cmp	r0, #0
 537 002e F3DA     		bge	.L18
 538              	.LVL55:
 539              	.L24:
 540              	.LBB105:
 541              	.LBB106:
 542              		.loc 4 798 0
 543 0030 201D     		adds	r0, r4, #4
 544              	.LVL56:
 545 0032 8021     		movs	r1, #128
 546              	.LBE106:
 547              	.LBE105:
 548              		.loc 1 208 0
 549 0034 BDE83840 		pop	{r3, r4, r5, lr}
 550              		.cfi_restore 14
 551              		.cfi_restore 5
 552              		.cfi_restore 4
 553              		.cfi_restore 3
 554              		.cfi_def_cfa_offset 0
 555              	.LVL57:
 556              	.LBB108:
 557              	.LBB107:
 558              		.loc 4 798 0
 559 0038 FFF7FEBF 		b	chEvtBroadcastFlagsI
 560              	.LVL58:
 561              	.LBE107:
 562              	.LBE108:
 563              		.cfi_endproc
 564              	.LFE270:
 565              		.size	sdIncomingDataI, .-sdIncomingDataI
 566              		.section	.text.sdRequestDataI,"ax",%progbits
 567              		.align	2
 568              		.p2align 4,,15
 569              		.global	sdRequestDataI
 570              		.thumb
ARM GAS  /tmp/ccK5PcP8.s 			page 11


 571              		.thumb_func
 572              		.type	sdRequestDataI, %function
 573              	sdRequestDataI:
 574              	.LFB271:
 575              		.loc 1 225 0
 576              		.cfi_startproc
 577              		@ args = 0, pretend = 0, frame = 0
 578              		@ frame_needed = 0, uses_anonymous_args = 0
 579              	.LVL59:
 580 0000 38B5     		push	{r3, r4, r5, lr}
 581              		.cfi_def_cfa_offset 16
 582              		.cfi_offset 3, -16
 583              		.cfi_offset 4, -12
 584              		.cfi_offset 5, -8
 585              		.cfi_offset 14, -4
 586              		.loc 1 225 0
 587 0002 0446     		mov	r4, r0
 588              		.loc 1 231 0
 589 0004 3030     		adds	r0, r0, #48
 590              	.LVL60:
 591 0006 FFF7FEFF 		bl	chOQGetI
 592              	.LVL61:
 593              		.loc 1 232 0
 594 000a 051E     		subs	r5, r0, #0
 595 000c 01DB     		blt	.L28
 596              		.loc 1 235 0
 597 000e 2846     		mov	r0, r5
 598 0010 38BD     		pop	{r3, r4, r5, pc}
 599              	.LVL62:
 600              	.L28:
 601              	.LBB109:
 602              	.LBB110:
 603              		.loc 4 798 0
 604 0012 201D     		adds	r0, r4, #4
 605              	.LVL63:
 606 0014 0821     		movs	r1, #8
 607 0016 FFF7FEFF 		bl	chEvtBroadcastFlagsI
 608              	.LVL64:
 609              	.LBE110:
 610              	.LBE109:
 611              		.loc 1 235 0
 612 001a 2846     		mov	r0, r5
 613 001c 38BD     		pop	{r3, r4, r5, pc}
 614              		.cfi_endproc
 615              	.LFE271:
 616              		.size	sdRequestDataI, .-sdRequestDataI
 617 001e 00BF     		.section	.rodata.vmt,"a",%progbits
 618              		.align	2
 619              		.set	.LANCHOR0,. + 0
 620              		.type	vmt, %object
 621              		.size	vmt, 32
 622              	vmt:
 623 0000 00000000 		.word	write
 624 0004 00000000 		.word	read
 625 0008 00000000 		.word	put
 626 000c 00000000 		.word	get
 627 0010 00000000 		.word	putt
ARM GAS  /tmp/ccK5PcP8.s 			page 12


 628 0014 00000000 		.word	gett
 629 0018 00000000 		.word	writet
 630 001c 00000000 		.word	readt
 631              		.text
 632              	.Letext0:
 633              		.file 5 "/usr/lib/gcc/arm-none-eabi/5.3.1/include/stddef.h"
 634              		.file 6 "/usr/arm-none-eabi/include/machine/_default_types.h"
 635              		.file 7 "/usr/arm-none-eabi/include/sys/_stdint.h"
 636              		.file 8 "/home/selim/working/ChibiOS/os/rt/ports/ARMCMx/compilers/GCC/chtypes.h"
 637              		.file 9 "/home/selim/working/ChibiOS/os/rt/include/chsystypes.h"
 638              		.file 10 "/home/selim/working/ChibiOS/os/rt/include/chschd.h"
 639              		.file 11 "/home/selim/working/ChibiOS/os/ext/CMSIS/ST/stm32f407xx.h"
 640              		.file 12 "/home/selim/working/ChibiOS/os/rt/ports/ARMCMx/chcore.h"
 641              		.file 13 "/home/selim/working/ChibiOS/os/rt/ports/ARMCMx/chcore_v7m.h"
 642              		.file 14 "/home/selim/working/ChibiOS/os/rt/include/chtm.h"
 643              		.file 15 "/home/selim/working/ChibiOS/os/rt/include/chsem.h"
 644              		.file 16 "/home/selim/working/ChibiOS/os/rt/include/chmtx.h"
 645              		.file 17 "/home/selim/working/ChibiOS/os/rt/include/chqueues.h"
 646              		.file 18 "/home/selim/working/ChibiOS/os/hal/include/serial.h"
 647              		.file 19 "/home/selim/working/ChibiOS/os/hal/ports/STM32/LLD/USARTv1/serial_lld.h"
 648              		.file 20 "/home/selim/working/ChibiOS/os/rt/include/chsys.h"
 649              		.file 21 "/home/selim/working/ChibiOS/os/ext/CMSIS/include/core_cm4.h"