ARM GAS  /tmp/ccIclJjK.s 			page 1


   1              		.syntax unified
   2              		.cpu cortex-m4
   3              		.fpu softvfp
   4              		.eabi_attribute 20, 1
   5              		.eabi_attribute 21, 1
   6              		.eabi_attribute 23, 3
   7              		.eabi_attribute 24, 1
   8              		.eabi_attribute 25, 1
   9              		.eabi_attribute 26, 1
  10              		.eabi_attribute 30, 2
  11              		.eabi_attribute 34, 1
  12              		.eabi_attribute 18, 4
  13              		.thumb
  14              		.syntax unified
  15              		.file	"st.c"
  16              		.text
  17              	.Ltext0:
  18              		.cfi_sections	.debug_frame
  19              		.section	.text.stInit,"ax",%progbits
  20              		.align	2
  21              		.p2align 4,,15
  22              		.global	stInit
  23              		.thumb
  24              		.thumb_func
  25              		.type	stInit, %function
  26              	stInit:
  27              	.LFB258:
  28              		.file 1 "/home/selim/working/ChibiOS/os/hal/src/st.c"
  29              		.loc 1 60 0
  30              		.cfi_startproc
  31              		@ args = 0, pretend = 0, frame = 0
  32              		@ frame_needed = 0, uses_anonymous_args = 0
  33              		@ link register save eliminated.
  34              		.loc 1 62 0
  35 0000 FFF7FEBF 		b	st_lld_init
  36              	.LVL0:
  37              		.cfi_endproc
  38              	.LFE258:
  39              		.size	stInit, .-stInit
  40              		.section	.text.stStartAlarm,"ax",%progbits
  41              		.align	2
  42              		.p2align 4,,15
  43              		.global	stStartAlarm
  44              		.thumb
  45              		.thumb_func
  46              		.type	stStartAlarm, %function
  47              	stStartAlarm:
  48              	.LFB259:
  49              		.loc 1 77 0
  50              		.cfi_startproc
  51              		@ args = 0, pretend = 0, frame = 0
  52              		@ frame_needed = 0, uses_anonymous_args = 0
  53              		@ link register save eliminated.
  54              	.LVL1:
  55              	.LBB10:
  56              	.LBB11:
  57              		.file 2 "/home/selim/working/ChibiOS/os/hal/ports/STM32/LLD/TIMv1/st_lld.h"
ARM GAS  /tmp/ccIclJjK.s 			page 2


  58              		.loc 2 143 0
  59 0000 4FF08043 		mov	r3, #1073741824
  60              	.LVL2:
  61              		.loc 2 144 0
  62 0004 0021     		movs	r1, #0
  63              		.loc 2 145 0
  64 0006 0222     		movs	r2, #2
  65              		.loc 2 143 0
  66 0008 5863     		str	r0, [r3, #52]
  67              		.loc 2 144 0
  68 000a 1961     		str	r1, [r3, #16]
  69              		.loc 2 145 0
  70 000c DA60     		str	r2, [r3, #12]
  71              	.LVL3:
  72 000e 7047     		bx	lr
  73              	.LBE11:
  74              	.LBE10:
  75              		.cfi_endproc
  76              	.LFE259:
  77              		.size	stStartAlarm, .-stStartAlarm
  78              		.section	.text.stStopAlarm,"ax",%progbits
  79              		.align	2
  80              		.p2align 4,,15
  81              		.global	stStopAlarm
  82              		.thumb
  83              		.thumb_func
  84              		.type	stStopAlarm, %function
  85              	stStopAlarm:
  86              	.LFB260:
  87              		.loc 1 91 0
  88              		.cfi_startproc
  89              		@ args = 0, pretend = 0, frame = 0
  90              		@ frame_needed = 0, uses_anonymous_args = 0
  91              		@ link register save eliminated.
  92              	.LBB12:
  93              	.LBB13:
  94              		.loc 2 155 0
  95 0000 4FF08043 		mov	r3, #1073741824
  96 0004 0022     		movs	r2, #0
  97 0006 DA60     		str	r2, [r3, #12]
  98 0008 7047     		bx	lr
  99              	.LBE13:
 100              	.LBE12:
 101              		.cfi_endproc
 102              	.LFE260:
 103              		.size	stStopAlarm, .-stStopAlarm
 104              		.section	.text.stSetAlarm,"ax",%progbits
 105              		.align	2
 106              		.p2align 4,,15
 107              		.global	stSetAlarm
 108              		.thumb
 109              		.thumb_func
 110              		.type	stSetAlarm, %function
 111              	stSetAlarm:
 112              	.LFB261:
 113              		.loc 1 105 0
 114              		.cfi_startproc
ARM GAS  /tmp/ccIclJjK.s 			page 3


 115              		@ args = 0, pretend = 0, frame = 0
 116              		@ frame_needed = 0, uses_anonymous_args = 0
 117              		@ link register save eliminated.
 118              	.LVL4:
 119              	.LBB14:
 120              	.LBB15:
 121              		.loc 2 167 0
 122 0000 4FF08043 		mov	r3, #1073741824
 123              	.LVL5:
 124 0004 5863     		str	r0, [r3, #52]
 125              	.LVL6:
 126 0006 7047     		bx	lr
 127              	.LBE15:
 128              	.LBE14:
 129              		.cfi_endproc
 130              	.LFE261:
 131              		.size	stSetAlarm, .-stSetAlarm
 132              		.section	.text.stGetAlarm,"ax",%progbits
 133              		.align	2
 134              		.p2align 4,,15
 135              		.global	stGetAlarm
 136              		.thumb
 137              		.thumb_func
 138              		.type	stGetAlarm, %function
 139              	stGetAlarm:
 140              	.LFB262:
 141              		.loc 1 121 0
 142              		.cfi_startproc
 143              		@ args = 0, pretend = 0, frame = 0
 144              		@ frame_needed = 0, uses_anonymous_args = 0
 145              		@ link register save eliminated.
 146              	.LBB16:
 147              	.LBB17:
 148              		.loc 2 179 0
 149 0000 4FF08043 		mov	r3, #1073741824
 150 0004 586B     		ldr	r0, [r3, #52]
 151              	.LBE17:
 152              	.LBE16:
 153              		.loc 1 126 0
 154 0006 7047     		bx	lr
 155              		.cfi_endproc
 156              	.LFE262:
 157              		.size	stGetAlarm, .-stGetAlarm
 158              		.text
 159              	.Letext0:
 160              		.file 3 "/usr/arm-none-eabi/include/machine/_default_types.h"
 161              		.file 4 "/usr/arm-none-eabi/include/sys/_stdint.h"
 162              		.file 5 "/home/selim/working/ChibiOS/os/rt/ports/ARMCMx/compilers/GCC/chtypes.h"
 163              		.file 6 "/home/selim/working/ChibiOS/os/rt/include/chsystypes.h"
 164              		.file 7 "/home/selim/working/ChibiOS/os/rt/include/chschd.h"
 165              		.file 8 "/home/selim/working/ChibiOS/os/rt/ports/ARMCMx/chcore.h"
 166              		.file 9 "/home/selim/working/ChibiOS/os/rt/ports/ARMCMx/chcore_v7m.h"
 167              		.file 10 "/home/selim/working/ChibiOS/os/hal/ports/STM32/LLD/TIMv1/stm32_tim.h"
 168              		.file 11 "/home/selim/working/ChibiOS/os/rt/include/chtm.h"
 169              		.file 12 "/home/selim/working/ChibiOS/os/rt/include/chsem.h"
 170              		.file 13 "/home/selim/working/ChibiOS/os/rt/include/chmtx.h"
 171              		.file 14 "/home/selim/working/ChibiOS/os/ext/CMSIS/include/core_cm4.h"
ARM GAS  /tmp/ccIclJjK.s 			page 4

