ARM GAS  /tmp/ccIclJjK.s 			page 1


   1              		.syntax unified
   2              		.cpu cortex-m4
   3              		.fpu softvfp
   4              		.eabi_attribute 20, 1
   5              		.eabi_attribute 21, 1
   6              		.eabi_attribute 23, 3
   7              		.eabi_attribute 24, 1
   8              		.eabi_attribute 25, 1
   9              		.eabi_attribute 26, 1
  10              		.eabi_attribute 30, 2
  11              		.eabi_attribute 34, 1
  12              		.eabi_attribute 18, 4
  13              		.thumb
  14              		.syntax unified
  15              		.file	"st.c"
  16              		.text
  17              	.Ltext0:
  18              		.cfi_sections	.debug_frame
  19              		.section	.text.stInit,"ax",%progbits
  20              		.align	2
  21              		.p2align 4,,15
  22              		.global	stInit
  23              		.thumb
  24              		.thumb_func
  25              		.type	stInit, %function
  26              	stInit:
  27              	.LFB258:
  28              		.file 1 "/home/selim/working/ChibiOS/os/hal/src/st.c"
  29              		.loc 1 60 0
  30              		.cfi_startproc
  31              		@ args = 0, pretend = 0, frame = 0
  32              		@ frame_needed = 0, uses_anonymous_args = 0
  33              		@ link register save eliminated.
  34              		.loc 1 62 0
  35 0000 FFF7FEBF 		b	st_lld_init
  36              	.LVL0:
  37              		.cfi_endproc
  38              	.LFE258:
  39              		.size	stInit, .-stInit
  40              		.section	.text.stStartAlarm,"ax",%progbits
  41              		.align	2
  42              		.p2align 4,,15
  43              		.global	stStartAlarm
  44              		.thumb
  45              		.thumb_func
  46              		.type	stStartAlarm, %function
  47              	stStartAlarm:
  48              	.LFB259:
  49              		.loc 1 77 0
  50              		.cfi_startproc
  51              		@ args = 0, pretend = 0, frame = 0
  52              		@ frame_needed = 0, uses_anonymous_args = 0
  53              		@ link register save eliminated.
  54              	.LVL1:
  55              	.LBB10:
  56              	.LBB11:
  57              		.file 2 "/home/selim/working/ChibiOS/os/hal/ports/STM32/LLD/TIMv1/st_lld.h"
ARM GAS  /tmp/ccIclJjK.s 			page 2


  58              		.loc 2 143 0
  59 0000 4FF08043 		mov	r3, #1073741824
  60              	.LVL2:
  61              		.loc 2 144 0
  62 0004 0021     		movs	r1, #0
  63              		.loc 2 145 0
  64 0006 0222     		movs	r2, #2
  65              		.loc 2 143 0
  66 0008 5863     		str	r0, [r3, #52]
  67              		.loc 2 144 0
  68 000a 1961     		str	r1, [r3, #16]
  69              		.loc 2 145 0
  70 000c DA60     		str	r2, [r3, #12]
  71              	.LVL3:
  72 000e 7047     		bx	lr
  73              	.LBE11:
  74              	.LBE10:
  75              		.cfi_endproc
  76              	.LFE259:
  77              		.size	stStartAlarm, .-stStartAlarm
  78              		.section	.text.stStopAlarm,"ax",%progbits
  79              		.align	2
  80              		.p2align 4,,15
  81              		.global	stStopAlarm
  82              		.thumb
  83              		.thumb_func
  84              		.type	stStopAlarm, %function
  85              	stStopAlarm:
  86              	.LFB260:
  87              		.loc 1 91 0
  88              		.cfi_startproc
  89              		@ args = 0, pretend = 0, frame = 0
  90              		@ frame_needed = 0, uses_anonymous_args = 0
  91              		@ link register save eliminated.
  92              	.LBB12:
  93              	.LBB13:
  94              		.loc 2 155 0
  95 0000 4FF08043 		mov	r3, #1073741824
  96 0004 0022     		movs	r2, #0
  97 0006 DA60     		str	r2, [r3, #12]
  98 0008 7047     		bx	lr
  99              	.LBE13:
 100              	.LBE12:
 101              		.cfi_endproc
 102              	.LFE260:
 103              		.size	stStopAlarm, .-stStopAlarm
 104              		.section	.text.stSetAlarm,"ax",%progbits
 105              		.align	2
 106              		.p2align 4,,15
 107              		.global	stSetAlarm
 108              		.thumb
 109              		.thumb_func
 110              		.type	stSetAlarm, %function
 111              	stSetAlarm:
 112              	.LFB261:
 113              		.loc 1 105 0
 114              		.cfi_startproc
ARM GAS  /tmp/ccIclJjK.s 			page 3


 115              		@ args = 0, pretend = 0, frame = 0
 116              		@ frame_needed = 0, uses_anonymous_args = 0
 117              		@ link register save eliminated.
 118              	.LVL4:
 119              	.LBB14:
 120              	.LBB15:
 121              		.loc 2 167 0
 122 0000 4FF08043 		mov	r3, #1073741824
 123              	.LVL5:
 124 0004 5863     		str	r0, [r3, #52]
 125              	.LVL6:
 126 0006 7047     		bx	lr
 127              	.LBE15:
 128              	.LBE14:
 129              		.cfi_endproc
 130              	.LFE261:
 131              		.size	stSetAlarm, .-stSetAlarm
 132              		.section	.text.stGetAlarm,"ax",%progbits
 133              		.align	2
 134              		.p2align 4,,15
 135              		.global	stGetAlarm
 136              		.thumb
 137              		.thumb_func
 138              		.type	stGetAlarm, %function
 139              	stGetAlarm:
 140              	.LFB262:
 141              		.loc 1 121 0
 142              		.cfi_startproc
 143              		@ args = 0, pretend = 0, frame = 0
 144              		@ frame_needed = 0, uses_anonymous_args = 0
 145              		@ link register save eliminated.
 146              	.LBB16:
 147              	.LBB17:
 148              		.loc 2 179 0
 149 0000 4FF08043 		mov	r3, #1073741824
 150 0004 586B     		ldr	r0, [r3, #52]
 151              	.LBE17:
 152              	.LBE16:
 153              		.loc 1 126 0
 154 0006 7047     		bx	lr
 155              		.cfi_endproc
 156              	.LFE262:
 157              		.size	stGetAlarm, .-stGetAlarm
 158              		.text
 159              	.Letext0:
 160              		.file 3 "/usr/arm-none-eabi/include/machine/_default_types.h"
 161              		.file 4 "/usr/arm-none-eabi/include/sys/_stdint.h"
 162              		.file 5 "/home/selim/working/ChibiOS/os/rt/ports/ARMCMx/compilers/GCC/chtypes.h"
 163              		.file 6 "/home/selim/working/ChibiOS/os/rt/include/chsystypes.h"
 164              		.file 7 "/home/selim/working/ChibiOS/os/rt/include/chschd.h"
 165              		.file 8 "/home/selim/working/ChibiOS/os/rt/ports/ARMCMx/chcore.h"
 166              		.file 9 "/home/selim/working/ChibiOS/os/rt/ports/ARMCMx/chcore_v7m.h"
 167              		.file 10 "/home/selim/working/ChibiOS/os/hal/ports/STM32/LLD/TIMv1/stm32_tim.h"
 168              		.file 11 "/home/selim/working/ChibiOS/os/rt/include/chtm.h"
 169              		.file 12 "/home/selim/working/ChibiOS/os/rt/include/chsem.h"
 170              		.file 13 "/home/selim/working/ChibiOS/os/rt/include/chmtx.h"
 171              		.file 14 "/home/selim/working/ChibiOS/os/ext/CMSIS/include/core_cm4.h"
ARM GAS  /tmp/ccIclJjK.s 			page 4


 172              		.section	.debug_info,"",%progbits
 173              	.Ldebug_info0:
 174 0000 FE080000 		.4byte	0x8fe
 175 0004 0400     		.2byte	0x4
 176 0006 00000000 		.4byte	.Ldebug_abbrev0
 177 000a 04       		.byte	0x4
 178 000b 01       		.uleb128 0x1
 179 000c 64030000 		.4byte	.LASF123
 180 0010 0C       		.byte	0xc
 181 0011 15030000 		.4byte	.LASF124
 182 0015 00000000 		.4byte	.Ldebug_ranges0+0
 183 0019 00000000 		.4byte	0
 184 001d 00000000 		.4byte	.Ldebug_line0
 185 0021 02       		.uleb128 0x2
 186 0022 04       		.byte	0x4
 187 0023 05       		.byte	0x5
 188 0024 696E7400 		.ascii	"int\000"
 189 0028 03       		.uleb128 0x3
 190 0029 04       		.byte	0x4
 191 002a 07       		.byte	0x7
 192 002b 89010000 		.4byte	.LASF0
 193 002f 03       		.uleb128 0x3
 194 0030 08       		.byte	0x8
 195 0031 05       		.byte	0x5
 196 0032 1A010000 		.4byte	.LASF1
 197 0036 03       		.uleb128 0x3
 198 0037 08       		.byte	0x8
 199 0038 04       		.byte	0x4
 200 0039 62020000 		.4byte	.LASF2
 201 003d 03       		.uleb128 0x3
 202 003e 01       		.byte	0x1
 203 003f 06       		.byte	0x6
 204 0040 D6000000 		.4byte	.LASF3
 205 0044 04       		.uleb128 0x4
 206 0045 28000000 		.4byte	.LASF7
 207 0049 03       		.byte	0x3
 208 004a 1D       		.byte	0x1d
 209 004b 4F000000 		.4byte	0x4f
 210 004f 03       		.uleb128 0x3
 211 0050 01       		.byte	0x1
 212 0051 08       		.byte	0x8
 213 0052 07030000 		.4byte	.LASF4
 214 0056 03       		.uleb128 0x3
 215 0057 02       		.byte	0x2
 216 0058 05       		.byte	0x5
 217 0059 4B030000 		.4byte	.LASF5
 218 005d 03       		.uleb128 0x3
 219 005e 02       		.byte	0x2
 220 005f 07       		.byte	0x7
 221 0060 38010000 		.4byte	.LASF6
 222 0064 04       		.uleb128 0x4
 223 0065 FD010000 		.4byte	.LASF8
 224 0069 03       		.byte	0x3
 225 006a 3F       		.byte	0x3f
 226 006b 6F000000 		.4byte	0x6f
 227 006f 03       		.uleb128 0x3
 228 0070 04       		.byte	0x4
ARM GAS  /tmp/ccIclJjK.s 			page 5


 229 0071 05       		.byte	0x5
 230 0072 FB000000 		.4byte	.LASF9
 231 0076 04       		.uleb128 0x4
 232 0077 23050000 		.4byte	.LASF10
 233 007b 03       		.byte	0x3
 234 007c 41       		.byte	0x41
 235 007d 81000000 		.4byte	0x81
 236 0081 03       		.uleb128 0x3
 237 0082 04       		.byte	0x4
 238 0083 07       		.byte	0x7
 239 0084 CD040000 		.4byte	.LASF11
 240 0088 04       		.uleb128 0x4
 241 0089 B7020000 		.4byte	.LASF12
 242 008d 03       		.byte	0x3
 243 008e 5B       		.byte	0x5b
 244 008f 93000000 		.4byte	0x93
 245 0093 03       		.uleb128 0x3
 246 0094 08       		.byte	0x8
 247 0095 07       		.byte	0x7
 248 0096 4D000000 		.4byte	.LASF13
 249 009a 04       		.uleb128 0x4
 250 009b 4C040000 		.4byte	.LASF14
 251 009f 04       		.byte	0x4
 252 00a0 14       		.byte	0x14
 253 00a1 44000000 		.4byte	0x44
 254 00a5 04       		.uleb128 0x4
 255 00a6 FF020000 		.4byte	.LASF15
 256 00aa 04       		.byte	0x4
 257 00ab 1F       		.byte	0x1f
 258 00ac 64000000 		.4byte	0x64
 259 00b0 04       		.uleb128 0x4
 260 00b1 9C040000 		.4byte	.LASF16
 261 00b5 04       		.byte	0x4
 262 00b6 20       		.byte	0x20
 263 00b7 76000000 		.4byte	0x76
 264 00bb 04       		.uleb128 0x4
 265 00bc 1F000000 		.4byte	.LASF17
 266 00c0 04       		.byte	0x4
 267 00c1 26       		.byte	0x26
 268 00c2 88000000 		.4byte	0x88
 269 00c6 05       		.uleb128 0x5
 270 00c7 A5000000 		.4byte	0xa5
 271 00cb 05       		.uleb128 0x5
 272 00cc B0000000 		.4byte	0xb0
 273 00d0 04       		.uleb128 0x4
 274 00d1 5A050000 		.4byte	.LASF18
 275 00d5 05       		.byte	0x5
 276 00d6 46       		.byte	0x46
 277 00d7 B0000000 		.4byte	0xb0
 278 00db 04       		.uleb128 0x4
 279 00dc 04010000 		.4byte	.LASF19
 280 00e0 05       		.byte	0x5
 281 00e1 49       		.byte	0x49
 282 00e2 9A000000 		.4byte	0x9a
 283 00e6 04       		.uleb128 0x4
 284 00e7 0C010000 		.4byte	.LASF20
 285 00eb 05       		.byte	0x5
ARM GAS  /tmp/ccIclJjK.s 			page 6


 286 00ec 4A       		.byte	0x4a
 287 00ed 9A000000 		.4byte	0x9a
 288 00f1 04       		.uleb128 0x4
 289 00f2 C2020000 		.4byte	.LASF21
 290 00f6 05       		.byte	0x5
 291 00f7 4B       		.byte	0x4b
 292 00f8 9A000000 		.4byte	0x9a
 293 00fc 04       		.uleb128 0x4
 294 00fd E1020000 		.4byte	.LASF22
 295 0101 05       		.byte	0x5
 296 0102 4D       		.byte	0x4d
 297 0103 B0000000 		.4byte	0xb0
 298 0107 04       		.uleb128 0x4
 299 0108 C5010000 		.4byte	.LASF23
 300 010c 05       		.byte	0x5
 301 010d 4E       		.byte	0x4e
 302 010e A5000000 		.4byte	0xa5
 303 0112 04       		.uleb128 0x4
 304 0113 F1010000 		.4byte	.LASF24
 305 0117 05       		.byte	0x5
 306 0118 50       		.byte	0x50
 307 0119 B0000000 		.4byte	0xb0
 308 011d 04       		.uleb128 0x4
 309 011e 83010000 		.4byte	.LASF25
 310 0122 05       		.byte	0x5
 311 0123 52       		.byte	0x52
 312 0124 A5000000 		.4byte	0xa5
 313 0128 04       		.uleb128 0x4
 314 0129 05050000 		.4byte	.LASF26
 315 012d 06       		.byte	0x6
 316 012e 33       		.byte	0x33
 317 012f B0000000 		.4byte	0xb0
 318 0133 04       		.uleb128 0x4
 319 0134 F5040000 		.4byte	.LASF27
 320 0138 06       		.byte	0x6
 321 0139 3F       		.byte	0x3f
 322 013a 3E010000 		.4byte	0x13e
 323 013e 06       		.uleb128 0x6
 324 013f BB010000 		.4byte	.LASF47
 325 0143 44       		.byte	0x44
 326 0144 07       		.byte	0x7
 327 0145 C2       		.byte	0xc2
 328 0146 2B020000 		.4byte	0x22b
 329 014a 07       		.uleb128 0x7
 330 014b 45040000 		.4byte	.LASF28
 331 014f 07       		.byte	0x7
 332 0150 C3       		.byte	0xc3
 333 0151 36020000 		.4byte	0x236
 334 0155 00       		.byte	0
 335 0156 07       		.uleb128 0x7
 336 0157 DA020000 		.4byte	.LASF29
 337 015b 07       		.byte	0x7
 338 015c C5       		.byte	0xc5
 339 015d 36020000 		.4byte	0x236
 340 0161 04       		.byte	0x4
 341 0162 07       		.uleb128 0x7
 342 0163 BD000000 		.4byte	.LASF30
ARM GAS  /tmp/ccIclJjK.s 			page 7


 343 0167 07       		.byte	0x7
 344 0168 C7       		.byte	0xc7
 345 0169 FC000000 		.4byte	0xfc
 346 016d 08       		.byte	0x8
 347 016e 07       		.uleb128 0x7
 348 016f FD050000 		.4byte	.LASF31
 349 0173 07       		.byte	0x7
 350 0174 C8       		.byte	0xc8
 351 0175 86040000 		.4byte	0x486
 352 0179 0C       		.byte	0xc
 353 017a 07       		.uleb128 0x7
 354 017b 28010000 		.4byte	.LASF32
 355 017f 07       		.byte	0x7
 356 0180 CA       		.byte	0xca
 357 0181 36020000 		.4byte	0x236
 358 0185 10       		.byte	0x10
 359 0186 07       		.uleb128 0x7
 360 0187 7A020000 		.4byte	.LASF33
 361 018b 07       		.byte	0x7
 362 018c CB       		.byte	0xcb
 363 018d 36020000 		.4byte	0x236
 364 0191 14       		.byte	0x14
 365 0192 07       		.uleb128 0x7
 366 0193 BE050000 		.4byte	.LASF34
 367 0197 07       		.byte	0x7
 368 0198 D2       		.byte	0xd2
 369 0199 27070000 		.4byte	0x727
 370 019d 18       		.byte	0x18
 371 019e 07       		.uleb128 0x7
 372 019f 55030000 		.4byte	.LASF35
 373 01a3 07       		.byte	0x7
 374 01a4 DD       		.byte	0xdd
 375 01a5 E6000000 		.4byte	0xe6
 376 01a9 1C       		.byte	0x1c
 377 01aa 07       		.uleb128 0x7
 378 01ab DC050000 		.4byte	.LASF36
 379 01af 07       		.byte	0x7
 380 01b0 E1       		.byte	0xe1
 381 01b1 DB000000 		.4byte	0xdb
 382 01b5 1D       		.byte	0x1d
 383 01b6 07       		.uleb128 0x7
 384 01b7 94050000 		.4byte	.LASF37
 385 01bb 07       		.byte	0x7
 386 01bc E6       		.byte	0xe6
 387 01bd F1000000 		.4byte	0xf1
 388 01c1 1E       		.byte	0x1e
 389 01c2 08       		.uleb128 0x8
 390 01c3 705F7500 		.ascii	"p_u\000"
 391 01c7 07       		.byte	0x7
 392 01c8 3101     		.2byte	0x131
 393 01ca 62060000 		.4byte	0x662
 394 01ce 20       		.byte	0x20
 395 01cf 09       		.uleb128 0x9
 396 01d0 25020000 		.4byte	.LASF38
 397 01d4 07       		.byte	0x7
 398 01d5 3601     		.2byte	0x136
 399 01d7 3C020000 		.4byte	0x23c
ARM GAS  /tmp/ccIclJjK.s 			page 8


 400 01db 24       		.byte	0x24
 401 01dc 09       		.uleb128 0x9
 402 01dd A5010000 		.4byte	.LASF39
 403 01e1 07       		.byte	0x7
 404 01e2 3C01     		.2byte	0x13c
 405 01e4 60020000 		.4byte	0x260
 406 01e8 28       		.byte	0x28
 407 01e9 09       		.uleb128 0x9
 408 01ea 54050000 		.4byte	.LASF40
 409 01ee 07       		.byte	0x7
 410 01ef 4001     		.2byte	0x140
 411 01f1 07010000 		.4byte	0x107
 412 01f5 30       		.byte	0x30
 413 01f6 09       		.uleb128 0x9
 414 01f7 91040000 		.4byte	.LASF41
 415 01fb 07       		.byte	0x7
 416 01fc 4601     		.2byte	0x146
 417 01fe 12010000 		.4byte	0x112
 418 0202 34       		.byte	0x34
 419 0203 09       		.uleb128 0x9
 420 0204 41030000 		.4byte	.LASF42
 421 0208 07       		.byte	0x7
 422 0209 4D01     		.2byte	0x14d
 423 020b 21070000 		.4byte	0x721
 424 020f 38       		.byte	0x38
 425 0210 09       		.uleb128 0x9
 426 0211 0F050000 		.4byte	.LASF43
 427 0215 07       		.byte	0x7
 428 0216 5101     		.2byte	0x151
 429 0218 FC000000 		.4byte	0xfc
 430 021c 3C       		.byte	0x3c
 431 021d 09       		.uleb128 0x9
 432 021e 53010000 		.4byte	.LASF44
 433 0222 07       		.byte	0x7
 434 0223 5801     		.2byte	0x158
 435 0225 13030000 		.4byte	0x313
 436 0229 40       		.byte	0x40
 437 022a 00       		.byte	0
 438 022b 04       		.uleb128 0x4
 439 022c 38020000 		.4byte	.LASF45
 440 0230 06       		.byte	0x6
 441 0231 44       		.byte	0x44
 442 0232 36020000 		.4byte	0x236
 443 0236 0A       		.uleb128 0xa
 444 0237 04       		.byte	0x4
 445 0238 33010000 		.4byte	0x133
 446 023c 04       		.uleb128 0x4
 447 023d C5050000 		.4byte	.LASF46
 448 0241 06       		.byte	0x6
 449 0242 49       		.byte	0x49
 450 0243 47020000 		.4byte	0x247
 451 0247 06       		.uleb128 0x6
 452 0248 BD040000 		.4byte	.LASF48
 453 024c 04       		.byte	0x4
 454 024d 07       		.byte	0x7
 455 024e B0       		.byte	0xb0
 456 024f 60020000 		.4byte	0x260
ARM GAS  /tmp/ccIclJjK.s 			page 9


 457 0253 07       		.uleb128 0x7
 458 0254 45040000 		.4byte	.LASF28
 459 0258 07       		.byte	0x7
 460 0259 B1       		.byte	0xb1
 461 025a 36020000 		.4byte	0x236
 462 025e 00       		.byte	0
 463 025f 00       		.byte	0
 464 0260 04       		.uleb128 0x4
 465 0261 7B050000 		.4byte	.LASF49
 466 0265 06       		.byte	0x6
 467 0266 50       		.byte	0x50
 468 0267 6B020000 		.4byte	0x26b
 469 026b 06       		.uleb128 0x6
 470 026c AC000000 		.4byte	.LASF50
 471 0270 08       		.byte	0x8
 472 0271 07       		.byte	0x7
 473 0272 B7       		.byte	0xb7
 474 0273 90020000 		.4byte	0x290
 475 0277 07       		.uleb128 0x7
 476 0278 45040000 		.4byte	.LASF28
 477 027c 07       		.byte	0x7
 478 027d B8       		.byte	0xb8
 479 027e 36020000 		.4byte	0x236
 480 0282 00       		.byte	0
 481 0283 07       		.uleb128 0x7
 482 0284 DA020000 		.4byte	.LASF29
 483 0288 07       		.byte	0x7
 484 0289 B9       		.byte	0xb9
 485 028a 36020000 		.4byte	0x236
 486 028e 04       		.byte	0x4
 487 028f 00       		.byte	0
 488 0290 04       		.uleb128 0x4
 489 0291 00000000 		.4byte	.LASF51
 490 0295 06       		.byte	0x6
 491 0296 57       		.byte	0x57
 492 0297 9B020000 		.4byte	0x29b
 493 029b 0B       		.uleb128 0xb
 494 029c E3010000 		.4byte	.LASF52
 495 02a0 1C       		.byte	0x1c
 496 02a1 07       		.byte	0x7
 497 02a2 9001     		.2byte	0x190
 498 02a4 F7020000 		.4byte	0x2f7
 499 02a8 09       		.uleb128 0x9
 500 02a9 AC040000 		.4byte	.LASF53
 501 02ad 07       		.byte	0x7
 502 02ae 9101     		.2byte	0x191
 503 02b0 60020000 		.4byte	0x260
 504 02b4 00       		.byte	0
 505 02b5 09       		.uleb128 0x9
 506 02b6 5D030000 		.4byte	.LASF54
 507 02ba 07       		.byte	0x7
 508 02bb 9201     		.2byte	0x192
 509 02bd FC000000 		.4byte	0xfc
 510 02c1 08       		.byte	0x8
 511 02c2 09       		.uleb128 0x9
 512 02c3 89020000 		.4byte	.LASF55
 513 02c7 07       		.byte	0x7
ARM GAS  /tmp/ccIclJjK.s 			page 10


 514 02c8 9401     		.2byte	0x194
 515 02ca 86040000 		.4byte	0x486
 516 02ce 0C       		.byte	0xc
 517 02cf 09       		.uleb128 0x9
 518 02d0 4B010000 		.4byte	.LASF56
 519 02d4 07       		.byte	0x7
 520 02d5 9701     		.2byte	0x197
 521 02d7 36020000 		.4byte	0x236
 522 02db 10       		.byte	0x10
 523 02dc 09       		.uleb128 0x9
 524 02dd AF020000 		.4byte	.LASF57
 525 02e1 07       		.byte	0x7
 526 02e2 9801     		.2byte	0x198
 527 02e4 36020000 		.4byte	0x236
 528 02e8 14       		.byte	0x14
 529 02e9 09       		.uleb128 0x9
 530 02ea A5020000 		.4byte	.LASF58
 531 02ee 07       		.byte	0x7
 532 02ef 9B01     		.2byte	0x19b
 533 02f1 36020000 		.4byte	0x236
 534 02f5 18       		.byte	0x18
 535 02f6 00       		.byte	0
 536 02f7 04       		.uleb128 0x4
 537 02f8 1A050000 		.4byte	.LASF59
 538 02fc 06       		.byte	0x6
 539 02fd 5C       		.byte	0x5c
 540 02fe 02030000 		.4byte	0x302
 541 0302 0A       		.uleb128 0xa
 542 0303 04       		.byte	0x4
 543 0304 08030000 		.4byte	0x308
 544 0308 0C       		.uleb128 0xc
 545 0309 13030000 		.4byte	0x313
 546 030d 0D       		.uleb128 0xd
 547 030e 13030000 		.4byte	0x313
 548 0312 00       		.byte	0
 549 0313 0E       		.uleb128 0xe
 550 0314 04       		.byte	0x4
 551 0315 04       		.uleb128 0x4
 552 0316 CA020000 		.4byte	.LASF60
 553 031a 06       		.byte	0x6
 554 031b 61       		.byte	0x61
 555 031c 20030000 		.4byte	0x320
 556 0320 0B       		.uleb128 0xb
 557 0321 5D040000 		.4byte	.LASF61
 558 0325 14       		.byte	0x14
 559 0326 07       		.byte	0x7
 560 0327 6B01     		.2byte	0x16b
 561 0329 6F030000 		.4byte	0x36f
 562 032d 09       		.uleb128 0x9
 563 032e 96010000 		.4byte	.LASF62
 564 0332 07       		.byte	0x7
 565 0333 6C01     		.2byte	0x16c
 566 0335 39070000 		.4byte	0x739
 567 0339 00       		.byte	0
 568 033a 09       		.uleb128 0x9
 569 033b 64010000 		.4byte	.LASF63
 570 033f 07       		.byte	0x7
ARM GAS  /tmp/ccIclJjK.s 			page 11


 571 0340 6D01     		.2byte	0x16d
 572 0342 39070000 		.4byte	0x739
 573 0346 04       		.byte	0x4
 574 0347 09       		.uleb128 0x9
 575 0348 B4040000 		.4byte	.LASF64
 576 034c 07       		.byte	0x7
 577 034d 6E01     		.2byte	0x16e
 578 034f 28010000 		.4byte	0x128
 579 0353 08       		.byte	0x8
 580 0354 09       		.uleb128 0x9
 581 0355 03060000 		.4byte	.LASF65
 582 0359 07       		.byte	0x7
 583 035a 6F01     		.2byte	0x16f
 584 035c F7020000 		.4byte	0x2f7
 585 0360 0C       		.byte	0xc
 586 0361 09       		.uleb128 0x9
 587 0362 74050000 		.4byte	.LASF66
 588 0366 07       		.byte	0x7
 589 0367 7101     		.2byte	0x171
 590 0369 13030000 		.4byte	0x313
 591 036d 10       		.byte	0x10
 592 036e 00       		.byte	0
 593 036f 04       		.uleb128 0x4
 594 0370 78000000 		.4byte	.LASF67
 595 0374 06       		.byte	0x6
 596 0375 66       		.byte	0x66
 597 0376 7A030000 		.4byte	0x37a
 598 037a 0B       		.uleb128 0xb
 599 037b 4B020000 		.4byte	.LASF68
 600 037f 10       		.byte	0x10
 601 0380 07       		.byte	0x7
 602 0381 7B01     		.2byte	0x17b
 603 0383 BC030000 		.4byte	0x3bc
 604 0387 09       		.uleb128 0x9
 605 0388 96010000 		.4byte	.LASF62
 606 038c 07       		.byte	0x7
 607 038d 7C01     		.2byte	0x17c
 608 038f 39070000 		.4byte	0x739
 609 0393 00       		.byte	0
 610 0394 09       		.uleb128 0x9
 611 0395 64010000 		.4byte	.LASF63
 612 0399 07       		.byte	0x7
 613 039a 7E01     		.2byte	0x17e
 614 039c 39070000 		.4byte	0x739
 615 03a0 04       		.byte	0x4
 616 03a1 09       		.uleb128 0x9
 617 03a2 B4040000 		.4byte	.LASF64
 618 03a6 07       		.byte	0x7
 619 03a7 8001     		.2byte	0x180
 620 03a9 28010000 		.4byte	0x128
 621 03ad 08       		.byte	0x8
 622 03ae 09       		.uleb128 0x9
 623 03af 6E020000 		.4byte	.LASF69
 624 03b3 07       		.byte	0x7
 625 03b4 8801     		.2byte	0x188
 626 03b6 28010000 		.4byte	0x128
 627 03ba 0C       		.byte	0xc
ARM GAS  /tmp/ccIclJjK.s 			page 12


 628 03bb 00       		.byte	0
 629 03bc 04       		.uleb128 0x4
 630 03bd 3E000000 		.4byte	.LASF70
 631 03c1 06       		.byte	0x6
 632 03c2 6B       		.byte	0x6b
 633 03c3 C7030000 		.4byte	0x3c7
 634 03c7 0B       		.uleb128 0xb
 635 03c8 E9020000 		.4byte	.LASF71
 636 03cc 04       		.byte	0x4
 637 03cd 07       		.byte	0x7
 638 03ce A201     		.2byte	0x1a2
 639 03d0 E2030000 		.4byte	0x3e2
 640 03d4 09       		.uleb128 0x9
 641 03d5 2E050000 		.4byte	.LASF72
 642 03d9 07       		.byte	0x7
 643 03da AA01     		.2byte	0x1aa
 644 03dc 3F070000 		.4byte	0x73f
 645 03e0 00       		.byte	0
 646 03e1 00       		.byte	0
 647 03e2 04       		.uleb128 0x4
 648 03e3 CB010000 		.4byte	.LASF73
 649 03e7 06       		.byte	0x6
 650 03e8 70       		.byte	0x70
 651 03e9 ED030000 		.4byte	0x3ed
 652 03ed 0F       		.uleb128 0xf
 653 03ee F1000000 		.4byte	.LASF74
 654 03f2 5001     		.2byte	0x150
 655 03f4 07       		.byte	0x7
 656 03f5 C201     		.2byte	0x1c2
 657 03f7 49040000 		.4byte	0x449
 658 03fb 09       		.uleb128 0x9
 659 03fc 9B050000 		.4byte	.LASF75
 660 0400 07       		.byte	0x7
 661 0401 C601     		.2byte	0x1c6
 662 0403 90020000 		.4byte	0x290
 663 0407 00       		.byte	0
 664 0408 09       		.uleb128 0x9
 665 0409 EA000000 		.4byte	.LASF76
 666 040d 07       		.byte	0x7
 667 040e CA01     		.2byte	0x1ca
 668 0410 6F030000 		.4byte	0x36f
 669 0414 1C       		.byte	0x1c
 670 0415 08       		.uleb128 0x8
 671 0416 64626700 		.ascii	"dbg\000"
 672 041a 07       		.byte	0x7
 673 041b CE01     		.2byte	0x1ce
 674 041d BC030000 		.4byte	0x3bc
 675 0421 2C       		.byte	0x2c
 676 0422 09       		.uleb128 0x9
 677 0423 6D000000 		.4byte	.LASF77
 678 0427 07       		.byte	0x7
 679 0428 D201     		.2byte	0x1d2
 680 042a 33010000 		.4byte	0x133
 681 042e 30       		.byte	0x30
 682 042f 08       		.uleb128 0x8
 683 0430 746D00   		.ascii	"tm\000"
 684 0433 07       		.byte	0x7
ARM GAS  /tmp/ccIclJjK.s 			page 13


 685 0434 D701     		.2byte	0x1d7
 686 0436 57060000 		.4byte	0x657
 687 043a 74       		.byte	0x74
 688 043b 09       		.uleb128 0x9
 689 043c 74010000 		.4byte	.LASF78
 690 0440 07       		.byte	0x7
 691 0441 E301     		.2byte	0x1e3
 692 0443 44070000 		.4byte	0x744
 693 0447 78       		.byte	0x78
 694 0448 00       		.byte	0
 695 0449 03       		.uleb128 0x3
 696 044a 04       		.byte	0x4
 697 044b 07       		.byte	0x7
 698 044c 2F020000 		.4byte	.LASF79
 699 0450 10       		.uleb128 0x10
 700 0451 CB000000 		.4byte	0xcb
 701 0455 60040000 		.4byte	0x460
 702 0459 11       		.uleb128 0x11
 703 045a 49040000 		.4byte	0x449
 704 045e 01       		.byte	0x1
 705 045f 00       		.byte	0
 706 0460 10       		.uleb128 0x10
 707 0461 CB000000 		.4byte	0xcb
 708 0465 70040000 		.4byte	0x470
 709 0469 11       		.uleb128 0x11
 710 046a 49040000 		.4byte	0x449
 711 046e 03       		.byte	0x3
 712 046f 00       		.byte	0
 713 0470 04       		.uleb128 0x4
 714 0471 5B010000 		.4byte	.LASF80
 715 0475 08       		.byte	0x8
 716 0476 65       		.byte	0x65
 717 0477 13030000 		.4byte	0x313
 718 047b 04       		.uleb128 0x4
 719 047c 1A020000 		.4byte	.LASF81
 720 0480 08       		.byte	0x8
 721 0481 6D       		.byte	0x6d
 722 0482 BB000000 		.4byte	0xbb
 723 0486 06       		.uleb128 0x6
 724 0487 4C050000 		.4byte	.LASF82
 725 048b 04       		.byte	0x4
 726 048c 08       		.byte	0x8
 727 048d 89       		.byte	0x89
 728 048e 9F040000 		.4byte	0x49f
 729 0492 12       		.uleb128 0x12
 730 0493 72313300 		.ascii	"r13\000"
 731 0497 08       		.byte	0x8
 732 0498 8A       		.byte	0x8a
 733 0499 1A050000 		.4byte	0x51a
 734 049d 00       		.byte	0
 735 049e 00       		.byte	0
 736 049f 06       		.uleb128 0x6
 737 04a0 32000000 		.4byte	.LASF83
 738 04a4 24       		.byte	0x24
 739 04a5 09       		.byte	0x9
 740 04a6 F4       		.byte	0xf4
 741 04a7 1A050000 		.4byte	0x51a
ARM GAS  /tmp/ccIclJjK.s 			page 14


 742 04ab 08       		.uleb128 0x8
 743 04ac 723400   		.ascii	"r4\000"
 744 04af 09       		.byte	0x9
 745 04b0 0701     		.2byte	0x107
 746 04b2 70040000 		.4byte	0x470
 747 04b6 00       		.byte	0
 748 04b7 08       		.uleb128 0x8
 749 04b8 723500   		.ascii	"r5\000"
 750 04bb 09       		.byte	0x9
 751 04bc 0801     		.2byte	0x108
 752 04be 70040000 		.4byte	0x470
 753 04c2 04       		.byte	0x4
 754 04c3 08       		.uleb128 0x8
 755 04c4 723600   		.ascii	"r6\000"
 756 04c7 09       		.byte	0x9
 757 04c8 0901     		.2byte	0x109
 758 04ca 70040000 		.4byte	0x470
 759 04ce 08       		.byte	0x8
 760 04cf 08       		.uleb128 0x8
 761 04d0 723700   		.ascii	"r7\000"
 762 04d3 09       		.byte	0x9
 763 04d4 0A01     		.2byte	0x10a
 764 04d6 70040000 		.4byte	0x470
 765 04da 0C       		.byte	0xc
 766 04db 08       		.uleb128 0x8
 767 04dc 723800   		.ascii	"r8\000"
 768 04df 09       		.byte	0x9
 769 04e0 0B01     		.2byte	0x10b
 770 04e2 70040000 		.4byte	0x470
 771 04e6 10       		.byte	0x10
 772 04e7 08       		.uleb128 0x8
 773 04e8 723900   		.ascii	"r9\000"
 774 04eb 09       		.byte	0x9
 775 04ec 0C01     		.2byte	0x10c
 776 04ee 70040000 		.4byte	0x470
 777 04f2 14       		.byte	0x14
 778 04f3 08       		.uleb128 0x8
 779 04f4 72313000 		.ascii	"r10\000"
 780 04f8 09       		.byte	0x9
 781 04f9 0D01     		.2byte	0x10d
 782 04fb 70040000 		.4byte	0x470
 783 04ff 18       		.byte	0x18
 784 0500 08       		.uleb128 0x8
 785 0501 72313100 		.ascii	"r11\000"
 786 0505 09       		.byte	0x9
 787 0506 0E01     		.2byte	0x10e
 788 0508 70040000 		.4byte	0x470
 789 050c 1C       		.byte	0x1c
 790 050d 08       		.uleb128 0x8
 791 050e 6C7200   		.ascii	"lr\000"
 792 0511 09       		.byte	0x9
 793 0512 0F01     		.2byte	0x10f
 794 0514 70040000 		.4byte	0x470
 795 0518 20       		.byte	0x20
 796 0519 00       		.byte	0
 797 051a 0A       		.uleb128 0xa
 798 051b 04       		.byte	0x4
ARM GAS  /tmp/ccIclJjK.s 			page 15


 799 051c 9F040000 		.4byte	0x49f
 800 0520 13       		.uleb128 0x13
 801 0521 60       		.byte	0x60
 802 0522 0A       		.byte	0xa
 803 0523 9E01     		.2byte	0x19e
 804 0525 2C060000 		.4byte	0x62c
 805 0529 08       		.uleb128 0x8
 806 052a 43523100 		.ascii	"CR1\000"
 807 052e 0A       		.byte	0xa
 808 052f 9F01     		.2byte	0x19f
 809 0531 CB000000 		.4byte	0xcb
 810 0535 00       		.byte	0
 811 0536 08       		.uleb128 0x8
 812 0537 43523200 		.ascii	"CR2\000"
 813 053b 0A       		.byte	0xa
 814 053c A001     		.2byte	0x1a0
 815 053e CB000000 		.4byte	0xcb
 816 0542 04       		.byte	0x4
 817 0543 09       		.uleb128 0x9
 818 0544 B6010000 		.4byte	.LASF84
 819 0548 0A       		.byte	0xa
 820 0549 A101     		.2byte	0x1a1
 821 054b CB000000 		.4byte	0xcb
 822 054f 08       		.byte	0x8
 823 0550 09       		.uleb128 0x9
 824 0551 0D000000 		.4byte	.LASF85
 825 0555 0A       		.byte	0xa
 826 0556 A201     		.2byte	0x1a2
 827 0558 CB000000 		.4byte	0xcb
 828 055c 0C       		.byte	0xc
 829 055d 08       		.uleb128 0x8
 830 055e 535200   		.ascii	"SR\000"
 831 0561 0A       		.byte	0xa
 832 0562 A301     		.2byte	0x1a3
 833 0564 CB000000 		.4byte	0xcb
 834 0568 10       		.byte	0x10
 835 0569 08       		.uleb128 0x8
 836 056a 45475200 		.ascii	"EGR\000"
 837 056e 0A       		.byte	0xa
 838 056f A401     		.2byte	0x1a4
 839 0571 CB000000 		.4byte	0xcb
 840 0575 14       		.byte	0x14
 841 0576 09       		.uleb128 0x9
 842 0577 C4000000 		.4byte	.LASF86
 843 057b 0A       		.byte	0xa
 844 057c A501     		.2byte	0x1a5
 845 057e CB000000 		.4byte	0xcb
 846 0582 18       		.byte	0x18
 847 0583 09       		.uleb128 0x9
 848 0584 CA000000 		.4byte	.LASF87
 849 0588 0A       		.byte	0xa
 850 0589 A601     		.2byte	0x1a6
 851 058b CB000000 		.4byte	0xcb
 852 058f 1C       		.byte	0x1c
 853 0590 09       		.uleb128 0x9
 854 0591 15010000 		.4byte	.LASF88
 855 0595 0A       		.byte	0xa
ARM GAS  /tmp/ccIclJjK.s 			page 16


 856 0596 A701     		.2byte	0x1a7
 857 0598 CB000000 		.4byte	0xcb
 858 059c 20       		.byte	0x20
 859 059d 08       		.uleb128 0x8
 860 059e 434E5400 		.ascii	"CNT\000"
 861 05a2 0A       		.byte	0xa
 862 05a3 A801     		.2byte	0x1a8
 863 05a5 CB000000 		.4byte	0xcb
 864 05a9 24       		.byte	0x24
 865 05aa 08       		.uleb128 0x8
 866 05ab 50534300 		.ascii	"PSC\000"
 867 05af 0A       		.byte	0xa
 868 05b0 A901     		.2byte	0x1a9
 869 05b2 CB000000 		.4byte	0xcb
 870 05b6 28       		.byte	0x28
 871 05b7 08       		.uleb128 0x8
 872 05b8 41525200 		.ascii	"ARR\000"
 873 05bc 0A       		.byte	0xa
 874 05bd AA01     		.2byte	0x1aa
 875 05bf CB000000 		.4byte	0xcb
 876 05c3 2C       		.byte	0x2c
 877 05c4 08       		.uleb128 0x8
 878 05c5 52435200 		.ascii	"RCR\000"
 879 05c9 0A       		.byte	0xa
 880 05ca AB01     		.2byte	0x1ab
 881 05cc CB000000 		.4byte	0xcb
 882 05d0 30       		.byte	0x30
 883 05d1 08       		.uleb128 0x8
 884 05d2 43435200 		.ascii	"CCR\000"
 885 05d6 0A       		.byte	0xa
 886 05d7 AC01     		.2byte	0x1ac
 887 05d9 2C060000 		.4byte	0x62c
 888 05dd 34       		.byte	0x34
 889 05de 09       		.uleb128 0x9
 890 05df A7000000 		.4byte	.LASF89
 891 05e3 0A       		.byte	0xa
 892 05e4 AD01     		.2byte	0x1ad
 893 05e6 CB000000 		.4byte	0xcb
 894 05ea 44       		.byte	0x44
 895 05eb 08       		.uleb128 0x8
 896 05ec 44435200 		.ascii	"DCR\000"
 897 05f0 0A       		.byte	0xa
 898 05f1 AE01     		.2byte	0x1ae
 899 05f3 CB000000 		.4byte	0xcb
 900 05f7 48       		.byte	0x48
 901 05f8 09       		.uleb128 0x9
 902 05f9 F0040000 		.4byte	.LASF90
 903 05fd 0A       		.byte	0xa
 904 05fe AF01     		.2byte	0x1af
 905 0600 CB000000 		.4byte	0xcb
 906 0604 4C       		.byte	0x4c
 907 0605 08       		.uleb128 0x8
 908 0606 4F5200   		.ascii	"OR\000"
 909 0609 0A       		.byte	0xa
 910 060a B001     		.2byte	0x1b0
 911 060c CB000000 		.4byte	0xcb
 912 0610 50       		.byte	0x50
ARM GAS  /tmp/ccIclJjK.s 			page 17


 913 0611 09       		.uleb128 0x9
 914 0612 D0000000 		.4byte	.LASF91
 915 0616 0A       		.byte	0xa
 916 0617 B101     		.2byte	0x1b1
 917 0619 CB000000 		.4byte	0xcb
 918 061d 54       		.byte	0x54
 919 061e 09       		.uleb128 0x9
 920 061f 8C040000 		.4byte	.LASF92
 921 0623 0A       		.byte	0xa
 922 0624 B201     		.2byte	0x1b2
 923 0626 31060000 		.4byte	0x631
 924 062a 58       		.byte	0x58
 925 062b 00       		.byte	0
 926 062c 05       		.uleb128 0x5
 927 062d 60040000 		.4byte	0x460
 928 0631 05       		.uleb128 0x5
 929 0632 50040000 		.4byte	0x450
 930 0636 14       		.uleb128 0x14
 931 0637 D7010000 		.4byte	.LASF93
 932 063b 0A       		.byte	0xa
 933 063c B301     		.2byte	0x1b3
 934 063e 20050000 		.4byte	0x520
 935 0642 15       		.uleb128 0x15
 936 0643 04       		.byte	0x4
 937 0644 0B       		.byte	0xb
 938 0645 38       		.byte	0x38
 939 0646 57060000 		.4byte	0x657
 940 064a 07       		.uleb128 0x7
 941 064b 38050000 		.4byte	.LASF94
 942 064f 0B       		.byte	0xb
 943 0650 3C       		.byte	0x3c
 944 0651 D0000000 		.4byte	0xd0
 945 0655 00       		.byte	0
 946 0656 00       		.byte	0
 947 0657 04       		.uleb128 0x4
 948 0658 8F020000 		.4byte	.LASF95
 949 065c 0B       		.byte	0xb
 950 065d 3D       		.byte	0x3d
 951 065e 42060000 		.4byte	0x642
 952 0662 16       		.uleb128 0x16
 953 0663 04       		.byte	0x4
 954 0664 07       		.byte	0x7
 955 0665 FA       		.byte	0xfa
 956 0666 BF060000 		.4byte	0x6bf
 957 066a 17       		.uleb128 0x17
 958 066b 18000000 		.4byte	.LASF96
 959 066f 07       		.byte	0x7
 960 0670 0101     		.2byte	0x101
 961 0672 07010000 		.4byte	0x107
 962 0676 17       		.uleb128 0x17
 963 0677 64000000 		.4byte	.LASF97
 964 067b 07       		.byte	0x7
 965 067c 0801     		.2byte	0x108
 966 067e 07010000 		.4byte	0x107
 967 0682 17       		.uleb128 0x17
 968 0683 B7050000 		.4byte	.LASF98
 969 0687 07       		.byte	0x7
ARM GAS  /tmp/ccIclJjK.s 			page 18


 970 0688 0F01     		.2byte	0x10f
 971 068a 13030000 		.4byte	0x313
 972 068e 17       		.uleb128 0x17
 973 068f 12000000 		.4byte	.LASF99
 974 0693 07       		.byte	0x7
 975 0694 1601     		.2byte	0x116
 976 0696 BF060000 		.4byte	0x6bf
 977 069a 17       		.uleb128 0x17
 978 069b 9E010000 		.4byte	.LASF100
 979 069f 07       		.byte	0x7
 980 06a0 1E01     		.2byte	0x11e
 981 06a2 EA060000 		.4byte	0x6ea
 982 06a6 17       		.uleb128 0x17
 983 06a7 A5040000 		.4byte	.LASF101
 984 06ab 07       		.byte	0x7
 985 06ac 2701     		.2byte	0x127
 986 06ae 21070000 		.4byte	0x721
 987 06b2 17       		.uleb128 0x17
 988 06b3 3E040000 		.4byte	.LASF102
 989 06b7 07       		.byte	0x7
 990 06b8 2F01     		.2byte	0x12f
 991 06ba 12010000 		.4byte	0x112
 992 06be 00       		.byte	0
 993 06bf 0A       		.uleb128 0xa
 994 06c0 04       		.byte	0x4
 995 06c1 2B020000 		.4byte	0x22b
 996 06c5 06       		.uleb128 0x6
 997 06c6 7F040000 		.4byte	.LASF103
 998 06ca 0C       		.byte	0xc
 999 06cb 0C       		.byte	0xc
 1000 06cc 34       		.byte	0x34
 1001 06cd EA060000 		.4byte	0x6ea
 1002 06d1 07       		.uleb128 0x7
 1003 06d2 30010000 		.4byte	.LASF104
 1004 06d6 0C       		.byte	0xc
 1005 06d7 35       		.byte	0x35
 1006 06d8 60020000 		.4byte	0x260
 1007 06dc 00       		.byte	0
 1008 06dd 07       		.uleb128 0x7
 1009 06de B0010000 		.4byte	.LASF105
 1010 06e2 0C       		.byte	0xc
 1011 06e3 37       		.byte	0x37
 1012 06e4 1D010000 		.4byte	0x11d
 1013 06e8 08       		.byte	0x8
 1014 06e9 00       		.byte	0
 1015 06ea 0A       		.uleb128 0xa
 1016 06eb 04       		.byte	0x4
 1017 06ec C5060000 		.4byte	0x6c5
 1018 06f0 06       		.uleb128 0x6
 1019 06f1 8B050000 		.4byte	.LASF106
 1020 06f5 10       		.byte	0x10
 1021 06f6 0D       		.byte	0xd
 1022 06f7 39       		.byte	0x39
 1023 06f8 21070000 		.4byte	0x721
 1024 06fc 07       		.uleb128 0x7
 1025 06fd E2000000 		.4byte	.LASF107
 1026 0701 0D       		.byte	0xd
ARM GAS  /tmp/ccIclJjK.s 			page 19


 1027 0702 3A       		.byte	0x3a
 1028 0703 60020000 		.4byte	0x260
 1029 0707 00       		.byte	0
 1030 0708 07       		.uleb128 0x7
 1031 0709 F5050000 		.4byte	.LASF108
 1032 070d 0D       		.byte	0xd
 1033 070e 3C       		.byte	0x3c
 1034 070f 36020000 		.4byte	0x236
 1035 0713 08       		.byte	0x8
 1036 0714 07       		.uleb128 0x7
 1037 0715 FE040000 		.4byte	.LASF109
 1038 0719 0D       		.byte	0xd
 1039 071a 3E       		.byte	0x3e
 1040 071b 5F070000 		.4byte	0x75f
 1041 071f 0C       		.byte	0xc
 1042 0720 00       		.byte	0
 1043 0721 0A       		.uleb128 0xa
 1044 0722 04       		.byte	0x4
 1045 0723 F0060000 		.4byte	0x6f0
 1046 0727 0A       		.uleb128 0xa
 1047 0728 04       		.byte	0x4
 1048 0729 34070000 		.4byte	0x734
 1049 072d 03       		.uleb128 0x3
 1050 072e 01       		.byte	0x1
 1051 072f 08       		.byte	0x8
 1052 0730 EB040000 		.4byte	.LASF110
 1053 0734 18       		.uleb128 0x18
 1054 0735 2D070000 		.4byte	0x72d
 1055 0739 0A       		.uleb128 0xa
 1056 073a 04       		.byte	0x4
 1057 073b 15030000 		.4byte	0x315
 1058 073f 05       		.uleb128 0x5
 1059 0740 27070000 		.4byte	0x727
 1060 0744 10       		.uleb128 0x10
 1061 0745 7B040000 		.4byte	0x47b
 1062 0749 54070000 		.4byte	0x754
 1063 074d 11       		.uleb128 0x11
 1064 074e 49040000 		.4byte	0x449
 1065 0752 1A       		.byte	0x1a
 1066 0753 00       		.byte	0
 1067 0754 04       		.uleb128 0x4
 1068 0755 6C010000 		.4byte	.LASF111
 1069 0759 0D       		.byte	0xd
 1070 075a 34       		.byte	0x34
 1071 075b F0060000 		.4byte	0x6f0
 1072 075f 0A       		.uleb128 0xa
 1073 0760 04       		.byte	0x4
 1074 0761 54070000 		.4byte	0x754
 1075 0765 03       		.uleb128 0x3
 1076 0766 01       		.byte	0x1
 1077 0767 02       		.byte	0x2
 1078 0768 F9020000 		.4byte	.LASF112
 1079 076c 19       		.uleb128 0x19
 1080 076d 07020000 		.4byte	.LASF113
 1081 0771 02       		.byte	0x2
 1082 0772 8D       		.byte	0x8d
 1083 0773 03       		.byte	0x3
ARM GAS  /tmp/ccIclJjK.s 			page 20


 1084 0774 84070000 		.4byte	0x784
 1085 0778 1A       		.uleb128 0x1a
 1086 0779 A0020000 		.4byte	.LASF115
 1087 077d 02       		.byte	0x2
 1088 077e 8D       		.byte	0x8d
 1089 077f 28010000 		.4byte	0x128
 1090 0783 00       		.byte	0
 1091 0784 1B       		.uleb128 0x1b
 1092 0785 62050000 		.4byte	.LASF125
 1093 0789 02       		.byte	0x2
 1094 078a 99       		.byte	0x99
 1095 078b 03       		.byte	0x3
 1096 078c 19       		.uleb128 0x19
 1097 078d E4050000 		.4byte	.LASF114
 1098 0791 02       		.byte	0x2
 1099 0792 A5       		.byte	0xa5
 1100 0793 03       		.byte	0x3
 1101 0794 A4070000 		.4byte	0x7a4
 1102 0798 1A       		.uleb128 0x1a
 1103 0799 A0020000 		.4byte	.LASF115
 1104 079d 02       		.byte	0x2
 1105 079e A5       		.byte	0xa5
 1106 079f 28010000 		.4byte	0x128
 1107 07a3 00       		.byte	0
 1108 07a4 1C       		.uleb128 0x1c
 1109 07a5 6E040000 		.4byte	.LASF126
 1110 07a9 02       		.byte	0x2
 1111 07aa B1       		.byte	0xb1
 1112 07ab 28010000 		.4byte	0x128
 1113 07af 03       		.byte	0x3
 1114 07b0 1D       		.uleb128 0x1d
 1115 07b1 82020000 		.4byte	.LASF116
 1116 07b5 01       		.byte	0x1
 1117 07b6 3C       		.byte	0x3c
 1118 07b7 00000000 		.4byte	.LFB258
 1119 07bb 04000000 		.4byte	.LFE258-.LFB258
 1120 07bf 01       		.uleb128 0x1
 1121 07c0 9C       		.byte	0x9c
 1122 07c1 CF070000 		.4byte	0x7cf
 1123 07c5 1E       		.uleb128 0x1e
 1124 07c6 04000000 		.4byte	.LVL0
 1125 07ca F6080000 		.4byte	0x8f6
 1126 07ce 00       		.byte	0
 1127 07cf 1D       		.uleb128 0x1d
 1128 07d0 3F050000 		.4byte	.LASF117
 1129 07d4 01       		.byte	0x1
 1130 07d5 4D       		.byte	0x4d
 1131 07d6 00000000 		.4byte	.LFB259
 1132 07da 10000000 		.4byte	.LFE259-.LFB259
 1133 07de 01       		.uleb128 0x1
 1134 07df 9C       		.byte	0x9c
 1135 07e0 14080000 		.4byte	0x814
 1136 07e4 1F       		.uleb128 0x1f
 1137 07e5 D4050000 		.4byte	.LASF120
 1138 07e9 01       		.byte	0x1
 1139 07ea 4D       		.byte	0x4d
 1140 07eb 28010000 		.4byte	0x128
ARM GAS  /tmp/ccIclJjK.s 			page 21


 1141 07ef 01       		.uleb128 0x1
 1142 07f0 50       		.byte	0x50
 1143 07f1 20       		.uleb128 0x20
 1144 07f2 54040000 		.4byte	.LASF121
 1145 07f6 24080000 		.4byte	0x824
 1146 07fa 21       		.uleb128 0x21
 1147 07fb 6C070000 		.4byte	0x76c
 1148 07ff 00000000 		.4byte	.LBB10
 1149 0803 10000000 		.4byte	.LBE10-.LBB10
 1150 0807 01       		.byte	0x1
 1151 0808 51       		.byte	0x51
 1152 0809 22       		.uleb128 0x22
 1153 080a 78070000 		.4byte	0x778
 1154 080e 00000000 		.4byte	.LLST0
 1155 0812 00       		.byte	0
 1156 0813 00       		.byte	0
 1157 0814 10       		.uleb128 0x10
 1158 0815 34070000 		.4byte	0x734
 1159 0819 24080000 		.4byte	0x824
 1160 081d 11       		.uleb128 0x11
 1161 081e 49040000 		.4byte	0x449
 1162 0822 0C       		.byte	0xc
 1163 0823 00       		.byte	0
 1164 0824 18       		.uleb128 0x18
 1165 0825 14080000 		.4byte	0x814
 1166 0829 1D       		.uleb128 0x1d
 1167 082a DF040000 		.4byte	.LASF118
 1168 082e 01       		.byte	0x1
 1169 082f 5B       		.byte	0x5b
 1170 0830 00000000 		.4byte	.LFB260
 1171 0834 0A000000 		.4byte	.LFE260-.LFB260
 1172 0838 01       		.uleb128 0x1
 1173 0839 9C       		.byte	0x9c
 1174 083a 4E080000 		.4byte	0x84e
 1175 083e 23       		.uleb128 0x23
 1176 083f 84070000 		.4byte	0x784
 1177 0843 00000000 		.4byte	.LBB12
 1178 0847 0A000000 		.4byte	.LBE12-.LBB12
 1179 084b 01       		.byte	0x1
 1180 084c 5D       		.byte	0x5d
 1181 084d 00       		.byte	0
 1182 084e 1D       		.uleb128 0x1d
 1183 084f A1050000 		.4byte	.LASF119
 1184 0853 01       		.byte	0x1
 1185 0854 69       		.byte	0x69
 1186 0855 00000000 		.4byte	.LFB261
 1187 0859 08000000 		.4byte	.LFE261-.LFB261
 1188 085d 01       		.uleb128 0x1
 1189 085e 9C       		.byte	0x9c
 1190 085f 93080000 		.4byte	0x893
 1191 0863 1F       		.uleb128 0x1f
 1192 0864 D4050000 		.4byte	.LASF120
 1193 0868 01       		.byte	0x1
 1194 0869 69       		.byte	0x69
 1195 086a 28010000 		.4byte	0x128
 1196 086e 01       		.uleb128 0x1
 1197 086f 50       		.byte	0x50
ARM GAS  /tmp/ccIclJjK.s 			page 22


 1198 0870 20       		.uleb128 0x20
 1199 0871 54040000 		.4byte	.LASF121
 1200 0875 A3080000 		.4byte	0x8a3
 1201 0879 21       		.uleb128 0x21
 1202 087a 8C070000 		.4byte	0x78c
 1203 087e 00000000 		.4byte	.LBB14
 1204 0882 08000000 		.4byte	.LBE14-.LBB14
 1205 0886 01       		.byte	0x1
 1206 0887 6D       		.byte	0x6d
 1207 0888 22       		.uleb128 0x22
 1208 0889 98070000 		.4byte	0x798
 1209 088d 13000000 		.4byte	.LLST1
 1210 0891 00       		.byte	0
 1211 0892 00       		.byte	0
 1212 0893 10       		.uleb128 0x10
 1213 0894 34070000 		.4byte	0x734
 1214 0898 A3080000 		.4byte	0x8a3
 1215 089c 11       		.uleb128 0x11
 1216 089d 49040000 		.4byte	0x449
 1217 08a1 0A       		.byte	0xa
 1218 08a2 00       		.byte	0
 1219 08a3 18       		.uleb128 0x18
 1220 08a4 93080000 		.4byte	0x893
 1221 08a8 24       		.uleb128 0x24
 1222 08a9 AC050000 		.4byte	.LASF127
 1223 08ad 01       		.byte	0x1
 1224 08ae 79       		.byte	0x79
 1225 08af 28010000 		.4byte	0x128
 1226 08b3 00000000 		.4byte	.LFB262
 1227 08b7 08000000 		.4byte	.LFE262-.LFB262
 1228 08bb 01       		.uleb128 0x1
 1229 08bc 9C       		.byte	0x9c
 1230 08bd DA080000 		.4byte	0x8da
 1231 08c1 20       		.uleb128 0x20
 1232 08c2 54040000 		.4byte	.LASF121
 1233 08c6 DA080000 		.4byte	0x8da
 1234 08ca 23       		.uleb128 0x23
 1235 08cb A4070000 		.4byte	0x7a4
 1236 08cf 00000000 		.4byte	.LBB16
 1237 08d3 06000000 		.4byte	.LBE16-.LBB16
 1238 08d7 01       		.byte	0x1
 1239 08d8 7D       		.byte	0x7d
 1240 08d9 00       		.byte	0
 1241 08da 18       		.uleb128 0x18
 1242 08db 93080000 		.4byte	0x893
 1243 08df 25       		.uleb128 0x25
 1244 08e0 8E000000 		.4byte	.LASF122
 1245 08e4 0E       		.byte	0xe
 1246 08e5 A706     		.2byte	0x6a7
 1247 08e7 C6000000 		.4byte	0xc6
 1248 08eb 26       		.uleb128 0x26
 1249 08ec 636800   		.ascii	"ch\000"
 1250 08ef 07       		.byte	0x7
 1251 08f0 0902     		.2byte	0x209
 1252 08f2 E2030000 		.4byte	0x3e2
 1253 08f6 27       		.uleb128 0x27
 1254 08f7 9B000000 		.4byte	.LASF128
ARM GAS  /tmp/ccIclJjK.s 			page 23


 1255 08fb 9B000000 		.4byte	.LASF128
 1256 08ff 02       		.byte	0x2
 1257 0900 6F       		.byte	0x6f
 1258 0901 00       		.byte	0
 1259              		.section	.debug_abbrev,"",%progbits
 1260              	.Ldebug_abbrev0:
 1261 0000 01       		.uleb128 0x1
 1262 0001 11       		.uleb128 0x11
 1263 0002 01       		.byte	0x1
 1264 0003 25       		.uleb128 0x25
 1265 0004 0E       		.uleb128 0xe
 1266 0005 13       		.uleb128 0x13
 1267 0006 0B       		.uleb128 0xb
 1268 0007 03       		.uleb128 0x3
 1269 0008 0E       		.uleb128 0xe
 1270 0009 55       		.uleb128 0x55
 1271 000a 17       		.uleb128 0x17
 1272 000b 11       		.uleb128 0x11
 1273 000c 01       		.uleb128 0x1
 1274 000d 10       		.uleb128 0x10
 1275 000e 17       		.uleb128 0x17
 1276 000f 00       		.byte	0
 1277 0010 00       		.byte	0
 1278 0011 02       		.uleb128 0x2
 1279 0012 24       		.uleb128 0x24
 1280 0013 00       		.byte	0
 1281 0014 0B       		.uleb128 0xb
 1282 0015 0B       		.uleb128 0xb
 1283 0016 3E       		.uleb128 0x3e
 1284 0017 0B       		.uleb128 0xb
 1285 0018 03       		.uleb128 0x3
 1286 0019 08       		.uleb128 0x8
 1287 001a 00       		.byte	0
 1288 001b 00       		.byte	0
 1289 001c 03       		.uleb128 0x3
 1290 001d 24       		.uleb128 0x24
 1291 001e 00       		.byte	0
 1292 001f 0B       		.uleb128 0xb
 1293 0020 0B       		.uleb128 0xb
 1294 0021 3E       		.uleb128 0x3e
 1295 0022 0B       		.uleb128 0xb
 1296 0023 03       		.uleb128 0x3
 1297 0024 0E       		.uleb128 0xe
 1298 0025 00       		.byte	0
 1299 0026 00       		.byte	0
 1300 0027 04       		.uleb128 0x4
 1301 0028 16       		.uleb128 0x16
 1302 0029 00       		.byte	0
 1303 002a 03       		.uleb128 0x3
 1304 002b 0E       		.uleb128 0xe
 1305 002c 3A       		.uleb128 0x3a
 1306 002d 0B       		.uleb128 0xb
 1307 002e 3B       		.uleb128 0x3b
 1308 002f 0B       		.uleb128 0xb
 1309 0030 49       		.uleb128 0x49
 1310 0031 13       		.uleb128 0x13
 1311 0032 00       		.byte	0
ARM GAS  /tmp/ccIclJjK.s 			page 24


 1312 0033 00       		.byte	0
 1313 0034 05       		.uleb128 0x5
 1314 0035 35       		.uleb128 0x35
 1315 0036 00       		.byte	0
 1316 0037 49       		.uleb128 0x49
 1317 0038 13       		.uleb128 0x13
 1318 0039 00       		.byte	0
 1319 003a 00       		.byte	0
 1320 003b 06       		.uleb128 0x6
 1321 003c 13       		.uleb128 0x13
 1322 003d 01       		.byte	0x1
 1323 003e 03       		.uleb128 0x3
 1324 003f 0E       		.uleb128 0xe
 1325 0040 0B       		.uleb128 0xb
 1326 0041 0B       		.uleb128 0xb
 1327 0042 3A       		.uleb128 0x3a
 1328 0043 0B       		.uleb128 0xb
 1329 0044 3B       		.uleb128 0x3b
 1330 0045 0B       		.uleb128 0xb
 1331 0046 01       		.uleb128 0x1
 1332 0047 13       		.uleb128 0x13
 1333 0048 00       		.byte	0
 1334 0049 00       		.byte	0
 1335 004a 07       		.uleb128 0x7
 1336 004b 0D       		.uleb128 0xd
 1337 004c 00       		.byte	0
 1338 004d 03       		.uleb128 0x3
 1339 004e 0E       		.uleb128 0xe
 1340 004f 3A       		.uleb128 0x3a
 1341 0050 0B       		.uleb128 0xb
 1342 0051 3B       		.uleb128 0x3b
 1343 0052 0B       		.uleb128 0xb
 1344 0053 49       		.uleb128 0x49
 1345 0054 13       		.uleb128 0x13
 1346 0055 38       		.uleb128 0x38
 1347 0056 0B       		.uleb128 0xb
 1348 0057 00       		.byte	0
 1349 0058 00       		.byte	0
 1350 0059 08       		.uleb128 0x8
 1351 005a 0D       		.uleb128 0xd
 1352 005b 00       		.byte	0
 1353 005c 03       		.uleb128 0x3
 1354 005d 08       		.uleb128 0x8
 1355 005e 3A       		.uleb128 0x3a
 1356 005f 0B       		.uleb128 0xb
 1357 0060 3B       		.uleb128 0x3b
 1358 0061 05       		.uleb128 0x5
 1359 0062 49       		.uleb128 0x49
 1360 0063 13       		.uleb128 0x13
 1361 0064 38       		.uleb128 0x38
 1362 0065 0B       		.uleb128 0xb
 1363 0066 00       		.byte	0
 1364 0067 00       		.byte	0
 1365 0068 09       		.uleb128 0x9
 1366 0069 0D       		.uleb128 0xd
 1367 006a 00       		.byte	0
 1368 006b 03       		.uleb128 0x3
ARM GAS  /tmp/ccIclJjK.s 			page 25


 1369 006c 0E       		.uleb128 0xe
 1370 006d 3A       		.uleb128 0x3a
 1371 006e 0B       		.uleb128 0xb
 1372 006f 3B       		.uleb128 0x3b
 1373 0070 05       		.uleb128 0x5
 1374 0071 49       		.uleb128 0x49
 1375 0072 13       		.uleb128 0x13
 1376 0073 38       		.uleb128 0x38
 1377 0074 0B       		.uleb128 0xb
 1378 0075 00       		.byte	0
 1379 0076 00       		.byte	0
 1380 0077 0A       		.uleb128 0xa
 1381 0078 0F       		.uleb128 0xf
 1382 0079 00       		.byte	0
 1383 007a 0B       		.uleb128 0xb
 1384 007b 0B       		.uleb128 0xb
 1385 007c 49       		.uleb128 0x49
 1386 007d 13       		.uleb128 0x13
 1387 007e 00       		.byte	0
 1388 007f 00       		.byte	0
 1389 0080 0B       		.uleb128 0xb
 1390 0081 13       		.uleb128 0x13
 1391 0082 01       		.byte	0x1
 1392 0083 03       		.uleb128 0x3
 1393 0084 0E       		.uleb128 0xe
 1394 0085 0B       		.uleb128 0xb
 1395 0086 0B       		.uleb128 0xb
 1396 0087 3A       		.uleb128 0x3a
 1397 0088 0B       		.uleb128 0xb
 1398 0089 3B       		.uleb128 0x3b
 1399 008a 05       		.uleb128 0x5
 1400 008b 01       		.uleb128 0x1
 1401 008c 13       		.uleb128 0x13
 1402 008d 00       		.byte	0
 1403 008e 00       		.byte	0
 1404 008f 0C       		.uleb128 0xc
 1405 0090 15       		.uleb128 0x15
 1406 0091 01       		.byte	0x1
 1407 0092 27       		.uleb128 0x27
 1408 0093 19       		.uleb128 0x19
 1409 0094 01       		.uleb128 0x1
 1410 0095 13       		.uleb128 0x13
 1411 0096 00       		.byte	0
 1412 0097 00       		.byte	0
 1413 0098 0D       		.uleb128 0xd
 1414 0099 05       		.uleb128 0x5
 1415 009a 00       		.byte	0
 1416 009b 49       		.uleb128 0x49
 1417 009c 13       		.uleb128 0x13
 1418 009d 00       		.byte	0
 1419 009e 00       		.byte	0
 1420 009f 0E       		.uleb128 0xe
 1421 00a0 0F       		.uleb128 0xf
 1422 00a1 00       		.byte	0
 1423 00a2 0B       		.uleb128 0xb
 1424 00a3 0B       		.uleb128 0xb
 1425 00a4 00       		.byte	0
ARM GAS  /tmp/ccIclJjK.s 			page 26


 1426 00a5 00       		.byte	0
 1427 00a6 0F       		.uleb128 0xf
 1428 00a7 13       		.uleb128 0x13
 1429 00a8 01       		.byte	0x1
 1430 00a9 03       		.uleb128 0x3
 1431 00aa 0E       		.uleb128 0xe
 1432 00ab 0B       		.uleb128 0xb
 1433 00ac 05       		.uleb128 0x5
 1434 00ad 3A       		.uleb128 0x3a
 1435 00ae 0B       		.uleb128 0xb
 1436 00af 3B       		.uleb128 0x3b
 1437 00b0 05       		.uleb128 0x5
 1438 00b1 01       		.uleb128 0x1
 1439 00b2 13       		.uleb128 0x13
 1440 00b3 00       		.byte	0
 1441 00b4 00       		.byte	0
 1442 00b5 10       		.uleb128 0x10
 1443 00b6 01       		.uleb128 0x1
 1444 00b7 01       		.byte	0x1
 1445 00b8 49       		.uleb128 0x49
 1446 00b9 13       		.uleb128 0x13
 1447 00ba 01       		.uleb128 0x1
 1448 00bb 13       		.uleb128 0x13
 1449 00bc 00       		.byte	0
 1450 00bd 00       		.byte	0
 1451 00be 11       		.uleb128 0x11
 1452 00bf 21       		.uleb128 0x21
 1453 00c0 00       		.byte	0
 1454 00c1 49       		.uleb128 0x49
 1455 00c2 13       		.uleb128 0x13
 1456 00c3 2F       		.uleb128 0x2f
 1457 00c4 0B       		.uleb128 0xb
 1458 00c5 00       		.byte	0
 1459 00c6 00       		.byte	0
 1460 00c7 12       		.uleb128 0x12
 1461 00c8 0D       		.uleb128 0xd
 1462 00c9 00       		.byte	0
 1463 00ca 03       		.uleb128 0x3
 1464 00cb 08       		.uleb128 0x8
 1465 00cc 3A       		.uleb128 0x3a
 1466 00cd 0B       		.uleb128 0xb
 1467 00ce 3B       		.uleb128 0x3b
 1468 00cf 0B       		.uleb128 0xb
 1469 00d0 49       		.uleb128 0x49
 1470 00d1 13       		.uleb128 0x13
 1471 00d2 38       		.uleb128 0x38
 1472 00d3 0B       		.uleb128 0xb
 1473 00d4 00       		.byte	0
 1474 00d5 00       		.byte	0
 1475 00d6 13       		.uleb128 0x13
 1476 00d7 13       		.uleb128 0x13
 1477 00d8 01       		.byte	0x1
 1478 00d9 0B       		.uleb128 0xb
 1479 00da 0B       		.uleb128 0xb
 1480 00db 3A       		.uleb128 0x3a
 1481 00dc 0B       		.uleb128 0xb
 1482 00dd 3B       		.uleb128 0x3b
ARM GAS  /tmp/ccIclJjK.s 			page 27


 1483 00de 05       		.uleb128 0x5
 1484 00df 01       		.uleb128 0x1
 1485 00e0 13       		.uleb128 0x13
 1486 00e1 00       		.byte	0
 1487 00e2 00       		.byte	0
 1488 00e3 14       		.uleb128 0x14
 1489 00e4 16       		.uleb128 0x16
 1490 00e5 00       		.byte	0
 1491 00e6 03       		.uleb128 0x3
 1492 00e7 0E       		.uleb128 0xe
 1493 00e8 3A       		.uleb128 0x3a
 1494 00e9 0B       		.uleb128 0xb
 1495 00ea 3B       		.uleb128 0x3b
 1496 00eb 05       		.uleb128 0x5
 1497 00ec 49       		.uleb128 0x49
 1498 00ed 13       		.uleb128 0x13
 1499 00ee 00       		.byte	0
 1500 00ef 00       		.byte	0
 1501 00f0 15       		.uleb128 0x15
 1502 00f1 13       		.uleb128 0x13
 1503 00f2 01       		.byte	0x1
 1504 00f3 0B       		.uleb128 0xb
 1505 00f4 0B       		.uleb128 0xb
 1506 00f5 3A       		.uleb128 0x3a
 1507 00f6 0B       		.uleb128 0xb
 1508 00f7 3B       		.uleb128 0x3b
 1509 00f8 0B       		.uleb128 0xb
 1510 00f9 01       		.uleb128 0x1
 1511 00fa 13       		.uleb128 0x13
 1512 00fb 00       		.byte	0
 1513 00fc 00       		.byte	0
 1514 00fd 16       		.uleb128 0x16
 1515 00fe 17       		.uleb128 0x17
 1516 00ff 01       		.byte	0x1
 1517 0100 0B       		.uleb128 0xb
 1518 0101 0B       		.uleb128 0xb
 1519 0102 3A       		.uleb128 0x3a
 1520 0103 0B       		.uleb128 0xb
 1521 0104 3B       		.uleb128 0x3b
 1522 0105 0B       		.uleb128 0xb
 1523 0106 01       		.uleb128 0x1
 1524 0107 13       		.uleb128 0x13
 1525 0108 00       		.byte	0
 1526 0109 00       		.byte	0
 1527 010a 17       		.uleb128 0x17
 1528 010b 0D       		.uleb128 0xd
 1529 010c 00       		.byte	0
 1530 010d 03       		.uleb128 0x3
 1531 010e 0E       		.uleb128 0xe
 1532 010f 3A       		.uleb128 0x3a
 1533 0110 0B       		.uleb128 0xb
 1534 0111 3B       		.uleb128 0x3b
 1535 0112 05       		.uleb128 0x5
 1536 0113 49       		.uleb128 0x49
 1537 0114 13       		.uleb128 0x13
 1538 0115 00       		.byte	0
 1539 0116 00       		.byte	0
ARM GAS  /tmp/ccIclJjK.s 			page 28


 1540 0117 18       		.uleb128 0x18
 1541 0118 26       		.uleb128 0x26
 1542 0119 00       		.byte	0
 1543 011a 49       		.uleb128 0x49
 1544 011b 13       		.uleb128 0x13
 1545 011c 00       		.byte	0
 1546 011d 00       		.byte	0
 1547 011e 19       		.uleb128 0x19
 1548 011f 2E       		.uleb128 0x2e
 1549 0120 01       		.byte	0x1
 1550 0121 03       		.uleb128 0x3
 1551 0122 0E       		.uleb128 0xe
 1552 0123 3A       		.uleb128 0x3a
 1553 0124 0B       		.uleb128 0xb
 1554 0125 3B       		.uleb128 0x3b
 1555 0126 0B       		.uleb128 0xb
 1556 0127 27       		.uleb128 0x27
 1557 0128 19       		.uleb128 0x19
 1558 0129 20       		.uleb128 0x20
 1559 012a 0B       		.uleb128 0xb
 1560 012b 01       		.uleb128 0x1
 1561 012c 13       		.uleb128 0x13
 1562 012d 00       		.byte	0
 1563 012e 00       		.byte	0
 1564 012f 1A       		.uleb128 0x1a
 1565 0130 05       		.uleb128 0x5
 1566 0131 00       		.byte	0
 1567 0132 03       		.uleb128 0x3
 1568 0133 0E       		.uleb128 0xe
 1569 0134 3A       		.uleb128 0x3a
 1570 0135 0B       		.uleb128 0xb
 1571 0136 3B       		.uleb128 0x3b
 1572 0137 0B       		.uleb128 0xb
 1573 0138 49       		.uleb128 0x49
 1574 0139 13       		.uleb128 0x13
 1575 013a 00       		.byte	0
 1576 013b 00       		.byte	0
 1577 013c 1B       		.uleb128 0x1b
 1578 013d 2E       		.uleb128 0x2e
 1579 013e 00       		.byte	0
 1580 013f 03       		.uleb128 0x3
 1581 0140 0E       		.uleb128 0xe
 1582 0141 3A       		.uleb128 0x3a
 1583 0142 0B       		.uleb128 0xb
 1584 0143 3B       		.uleb128 0x3b
 1585 0144 0B       		.uleb128 0xb
 1586 0145 27       		.uleb128 0x27
 1587 0146 19       		.uleb128 0x19
 1588 0147 20       		.uleb128 0x20
 1589 0148 0B       		.uleb128 0xb
 1590 0149 00       		.byte	0
 1591 014a 00       		.byte	0
 1592 014b 1C       		.uleb128 0x1c
 1593 014c 2E       		.uleb128 0x2e
 1594 014d 00       		.byte	0
 1595 014e 03       		.uleb128 0x3
 1596 014f 0E       		.uleb128 0xe
ARM GAS  /tmp/ccIclJjK.s 			page 29


 1597 0150 3A       		.uleb128 0x3a
 1598 0151 0B       		.uleb128 0xb
 1599 0152 3B       		.uleb128 0x3b
 1600 0153 0B       		.uleb128 0xb
 1601 0154 27       		.uleb128 0x27
 1602 0155 19       		.uleb128 0x19
 1603 0156 49       		.uleb128 0x49
 1604 0157 13       		.uleb128 0x13
 1605 0158 20       		.uleb128 0x20
 1606 0159 0B       		.uleb128 0xb
 1607 015a 00       		.byte	0
 1608 015b 00       		.byte	0
 1609 015c 1D       		.uleb128 0x1d
 1610 015d 2E       		.uleb128 0x2e
 1611 015e 01       		.byte	0x1
 1612 015f 3F       		.uleb128 0x3f
 1613 0160 19       		.uleb128 0x19
 1614 0161 03       		.uleb128 0x3
 1615 0162 0E       		.uleb128 0xe
 1616 0163 3A       		.uleb128 0x3a
 1617 0164 0B       		.uleb128 0xb
 1618 0165 3B       		.uleb128 0x3b
 1619 0166 0B       		.uleb128 0xb
 1620 0167 27       		.uleb128 0x27
 1621 0168 19       		.uleb128 0x19
 1622 0169 11       		.uleb128 0x11
 1623 016a 01       		.uleb128 0x1
 1624 016b 12       		.uleb128 0x12
 1625 016c 06       		.uleb128 0x6
 1626 016d 40       		.uleb128 0x40
 1627 016e 18       		.uleb128 0x18
 1628 016f 9742     		.uleb128 0x2117
 1629 0171 19       		.uleb128 0x19
 1630 0172 01       		.uleb128 0x1
 1631 0173 13       		.uleb128 0x13
 1632 0174 00       		.byte	0
 1633 0175 00       		.byte	0
 1634 0176 1E       		.uleb128 0x1e
 1635 0177 898201   		.uleb128 0x4109
 1636 017a 00       		.byte	0
 1637 017b 11       		.uleb128 0x11
 1638 017c 01       		.uleb128 0x1
 1639 017d 9542     		.uleb128 0x2115
 1640 017f 19       		.uleb128 0x19
 1641 0180 31       		.uleb128 0x31
 1642 0181 13       		.uleb128 0x13
 1643 0182 00       		.byte	0
 1644 0183 00       		.byte	0
 1645 0184 1F       		.uleb128 0x1f
 1646 0185 05       		.uleb128 0x5
 1647 0186 00       		.byte	0
 1648 0187 03       		.uleb128 0x3
 1649 0188 0E       		.uleb128 0xe
 1650 0189 3A       		.uleb128 0x3a
 1651 018a 0B       		.uleb128 0xb
 1652 018b 3B       		.uleb128 0x3b
 1653 018c 0B       		.uleb128 0xb
ARM GAS  /tmp/ccIclJjK.s 			page 30


 1654 018d 49       		.uleb128 0x49
 1655 018e 13       		.uleb128 0x13
 1656 018f 02       		.uleb128 0x2
 1657 0190 18       		.uleb128 0x18
 1658 0191 00       		.byte	0
 1659 0192 00       		.byte	0
 1660 0193 20       		.uleb128 0x20
 1661 0194 34       		.uleb128 0x34
 1662 0195 00       		.byte	0
 1663 0196 03       		.uleb128 0x3
 1664 0197 0E       		.uleb128 0xe
 1665 0198 49       		.uleb128 0x49
 1666 0199 13       		.uleb128 0x13
 1667 019a 34       		.uleb128 0x34
 1668 019b 19       		.uleb128 0x19
 1669 019c 00       		.byte	0
 1670 019d 00       		.byte	0
 1671 019e 21       		.uleb128 0x21
 1672 019f 1D       		.uleb128 0x1d
 1673 01a0 01       		.byte	0x1
 1674 01a1 31       		.uleb128 0x31
 1675 01a2 13       		.uleb128 0x13
 1676 01a3 11       		.uleb128 0x11
 1677 01a4 01       		.uleb128 0x1
 1678 01a5 12       		.uleb128 0x12
 1679 01a6 06       		.uleb128 0x6
 1680 01a7 58       		.uleb128 0x58
 1681 01a8 0B       		.uleb128 0xb
 1682 01a9 59       		.uleb128 0x59
 1683 01aa 0B       		.uleb128 0xb
 1684 01ab 00       		.byte	0
 1685 01ac 00       		.byte	0
 1686 01ad 22       		.uleb128 0x22
 1687 01ae 05       		.uleb128 0x5
 1688 01af 00       		.byte	0
 1689 01b0 31       		.uleb128 0x31
 1690 01b1 13       		.uleb128 0x13
 1691 01b2 02       		.uleb128 0x2
 1692 01b3 17       		.uleb128 0x17
 1693 01b4 00       		.byte	0
 1694 01b5 00       		.byte	0
 1695 01b6 23       		.uleb128 0x23
 1696 01b7 1D       		.uleb128 0x1d
 1697 01b8 00       		.byte	0
 1698 01b9 31       		.uleb128 0x31
 1699 01ba 13       		.uleb128 0x13
 1700 01bb 11       		.uleb128 0x11
 1701 01bc 01       		.uleb128 0x1
 1702 01bd 12       		.uleb128 0x12
 1703 01be 06       		.uleb128 0x6
 1704 01bf 58       		.uleb128 0x58
 1705 01c0 0B       		.uleb128 0xb
 1706 01c1 59       		.uleb128 0x59
 1707 01c2 0B       		.uleb128 0xb
 1708 01c3 00       		.byte	0
 1709 01c4 00       		.byte	0
 1710 01c5 24       		.uleb128 0x24
ARM GAS  /tmp/ccIclJjK.s 			page 31


 1711 01c6 2E       		.uleb128 0x2e
 1712 01c7 01       		.byte	0x1
 1713 01c8 3F       		.uleb128 0x3f
 1714 01c9 19       		.uleb128 0x19
 1715 01ca 03       		.uleb128 0x3
 1716 01cb 0E       		.uleb128 0xe
 1717 01cc 3A       		.uleb128 0x3a
 1718 01cd 0B       		.uleb128 0xb
 1719 01ce 3B       		.uleb128 0x3b
 1720 01cf 0B       		.uleb128 0xb
 1721 01d0 27       		.uleb128 0x27
 1722 01d1 19       		.uleb128 0x19
 1723 01d2 49       		.uleb128 0x49
 1724 01d3 13       		.uleb128 0x13
 1725 01d4 11       		.uleb128 0x11
 1726 01d5 01       		.uleb128 0x1
 1727 01d6 12       		.uleb128 0x12
 1728 01d7 06       		.uleb128 0x6
 1729 01d8 40       		.uleb128 0x40
 1730 01d9 18       		.uleb128 0x18
 1731 01da 9742     		.uleb128 0x2117
 1732 01dc 19       		.uleb128 0x19
 1733 01dd 01       		.uleb128 0x1
 1734 01de 13       		.uleb128 0x13
 1735 01df 00       		.byte	0
 1736 01e0 00       		.byte	0
 1737 01e1 25       		.uleb128 0x25
 1738 01e2 34       		.uleb128 0x34
 1739 01e3 00       		.byte	0
 1740 01e4 03       		.uleb128 0x3
 1741 01e5 0E       		.uleb128 0xe
 1742 01e6 3A       		.uleb128 0x3a
 1743 01e7 0B       		.uleb128 0xb
 1744 01e8 3B       		.uleb128 0x3b
 1745 01e9 05       		.uleb128 0x5
 1746 01ea 49       		.uleb128 0x49
 1747 01eb 13       		.uleb128 0x13
 1748 01ec 3F       		.uleb128 0x3f
 1749 01ed 19       		.uleb128 0x19
 1750 01ee 3C       		.uleb128 0x3c
 1751 01ef 19       		.uleb128 0x19
 1752 01f0 00       		.byte	0
 1753 01f1 00       		.byte	0
 1754 01f2 26       		.uleb128 0x26
 1755 01f3 34       		.uleb128 0x34
 1756 01f4 00       		.byte	0
 1757 01f5 03       		.uleb128 0x3
 1758 01f6 08       		.uleb128 0x8
 1759 01f7 3A       		.uleb128 0x3a
 1760 01f8 0B       		.uleb128 0xb
 1761 01f9 3B       		.uleb128 0x3b
 1762 01fa 05       		.uleb128 0x5
 1763 01fb 49       		.uleb128 0x49
 1764 01fc 13       		.uleb128 0x13
 1765 01fd 3F       		.uleb128 0x3f
 1766 01fe 19       		.uleb128 0x19
 1767 01ff 3C       		.uleb128 0x3c
ARM GAS  /tmp/ccIclJjK.s 			page 32


 1768 0200 19       		.uleb128 0x19
 1769 0201 00       		.byte	0
 1770 0202 00       		.byte	0
 1771 0203 27       		.uleb128 0x27
 1772 0204 2E       		.uleb128 0x2e
 1773 0205 00       		.byte	0
 1774 0206 3F       		.uleb128 0x3f
 1775 0207 19       		.uleb128 0x19
 1776 0208 3C       		.uleb128 0x3c
 1777 0209 19       		.uleb128 0x19
 1778 020a 6E       		.uleb128 0x6e
 1779 020b 0E       		.uleb128 0xe
 1780 020c 03       		.uleb128 0x3
 1781 020d 0E       		.uleb128 0xe
 1782 020e 3A       		.uleb128 0x3a
 1783 020f 0B       		.uleb128 0xb
 1784 0210 3B       		.uleb128 0x3b
 1785 0211 0B       		.uleb128 0xb
 1786 0212 00       		.byte	0
 1787 0213 00       		.byte	0
 1788 0214 00       		.byte	0
 1789              		.section	.debug_loc,"",%progbits
 1790              	.Ldebug_loc0:
 1791              	.LLST0:
 1792 0000 04000000 		.4byte	.LVL2
 1793 0004 0E000000 		.4byte	.LVL3
 1794 0008 0100     		.2byte	0x1
 1795 000a 50       		.byte	0x50
 1796 000b 00000000 		.4byte	0
 1797 000f 00000000 		.4byte	0
 1798              	.LLST1:
 1799 0013 04000000 		.4byte	.LVL5
 1800 0017 06000000 		.4byte	.LVL6
 1801 001b 0100     		.2byte	0x1
 1802 001d 50       		.byte	0x50
 1803 001e 00000000 		.4byte	0
 1804 0022 00000000 		.4byte	0
 1805              		.section	.debug_aranges,"",%progbits
 1806 0000 3C000000 		.4byte	0x3c
 1807 0004 0200     		.2byte	0x2
 1808 0006 00000000 		.4byte	.Ldebug_info0
 1809 000a 04       		.byte	0x4
 1810 000b 00       		.byte	0
 1811 000c 0000     		.2byte	0
 1812 000e 0000     		.2byte	0
 1813 0010 00000000 		.4byte	.LFB258
 1814 0014 04000000 		.4byte	.LFE258-.LFB258
 1815 0018 00000000 		.4byte	.LFB259
 1816 001c 10000000 		.4byte	.LFE259-.LFB259
 1817 0020 00000000 		.4byte	.LFB260
 1818 0024 0A000000 		.4byte	.LFE260-.LFB260
 1819 0028 00000000 		.4byte	.LFB261
 1820 002c 08000000 		.4byte	.LFE261-.LFB261
 1821 0030 00000000 		.4byte	.LFB262
 1822 0034 08000000 		.4byte	.LFE262-.LFB262
 1823 0038 00000000 		.4byte	0
 1824 003c 00000000 		.4byte	0
ARM GAS  /tmp/ccIclJjK.s 			page 33


 1825              		.section	.debug_ranges,"",%progbits
 1826              	.Ldebug_ranges0:
 1827 0000 00000000 		.4byte	.LFB258
 1828 0004 04000000 		.4byte	.LFE258
 1829 0008 00000000 		.4byte	.LFB259
 1830 000c 10000000 		.4byte	.LFE259
 1831 0010 00000000 		.4byte	.LFB260
 1832 0014 0A000000 		.4byte	.LFE260
 1833 0018 00000000 		.4byte	.LFB261
 1834 001c 08000000 		.4byte	.LFE261
 1835 0020 00000000 		.4byte	.LFB262
 1836 0024 08000000 		.4byte	.LFE262
 1837 0028 00000000 		.4byte	0
 1838 002c 00000000 		.4byte	0
 1839              		.section	.debug_line,"",%progbits
 1840              	.Ldebug_line0:
 1841 0000 A9020000 		.section	.debug_str,"MS",%progbits,1
 1841      02003302 
 1841      00000201 
 1841      FB0E0D00 
 1841      01010101 
 1842              	.LASF51:
 1843 0000 72656164 		.ascii	"ready_list_t\000"
 1843      795F6C69 
 1843      73745F74 
 1843      00
 1844              	.LASF85:
 1845 000d 44494552 		.ascii	"DIER\000"
 1845      00
 1846              	.LASF99:
 1847 0012 77747472 		.ascii	"wttrp\000"
 1847      7000
 1848              	.LASF96:
 1849 0018 7264796D 		.ascii	"rdymsg\000"
 1849      736700
 1850              	.LASF17:
 1851 001f 75696E74 		.ascii	"uint64_t\000"
 1851      36345F74 
 1851      00
 1852              	.LASF7:
 1853 0028 5F5F7569 		.ascii	"__uint8_t\000"
 1853      6E74385F 
 1853      7400
 1854              	.LASF83:
 1855 0032 706F7274 		.ascii	"port_intctx\000"
 1855      5F696E74 
 1855      63747800 
 1856              	.LASF70:
 1857 003e 73797374 		.ascii	"system_debug_t\000"
 1857      656D5F64 
 1857      65627567 
 1857      5F7400
 1858              	.LASF13:
 1859 004d 6C6F6E67 		.ascii	"long long unsigned int\000"
 1859      206C6F6E 
 1859      6720756E 
 1859      7369676E 
ARM GAS  /tmp/ccIclJjK.s 			page 34


 1859      65642069 
 1860              	.LASF97:
 1861 0064 65786974 		.ascii	"exitcode\000"
 1861      636F6465 
 1861      00
 1862              	.LASF77:
 1863 006d 6D61696E 		.ascii	"mainthread\000"
 1863      74687265 
 1863      616400
 1864              	.LASF67:
 1865 0078 76697274 		.ascii	"virtual_timers_list_t\000"
 1865      75616C5F 
 1865      74696D65 
 1865      72735F6C 
 1865      6973745F 
 1866              	.LASF122:
 1867 008e 49544D5F 		.ascii	"ITM_RxBuffer\000"
 1867      52784275 
 1867      66666572 
 1867      00
 1868              	.LASF128:
 1869 009b 73745F6C 		.ascii	"st_lld_init\000"
 1869      6C645F69 
 1869      6E697400 
 1870              	.LASF89:
 1871 00a7 42445452 		.ascii	"BDTR\000"
 1871      00
 1872              	.LASF50:
 1873 00ac 63685F74 		.ascii	"ch_threads_queue\000"
 1873      68726561 
 1873      64735F71 
 1873      75657565 
 1873      00
 1874              	.LASF30:
 1875 00bd 705F7072 		.ascii	"p_prio\000"
 1875      696F00
 1876              	.LASF86:
 1877 00c4 43434D52 		.ascii	"CCMR1\000"
 1877      3100
 1878              	.LASF87:
 1879 00ca 43434D52 		.ascii	"CCMR2\000"
 1879      3200
 1880              	.LASF91:
 1881 00d0 43434D52 		.ascii	"CCMR3\000"
 1881      3300
 1882              	.LASF3:
 1883 00d6 7369676E 		.ascii	"signed char\000"
 1883      65642063 
 1883      68617200 
 1884              	.LASF107:
 1885 00e2 6D5F7175 		.ascii	"m_queue\000"
 1885      65756500 
 1886              	.LASF76:
 1887 00ea 76746C69 		.ascii	"vtlist\000"
 1887      737400
 1888              	.LASF74:
 1889 00f1 63685F73 		.ascii	"ch_system\000"
ARM GAS  /tmp/ccIclJjK.s 			page 35


 1889      79737465 
 1889      6D00
 1890              	.LASF9:
 1891 00fb 6C6F6E67 		.ascii	"long int\000"
 1891      20696E74 
 1891      00
 1892              	.LASF19:
 1893 0104 746D6F64 		.ascii	"tmode_t\000"
 1893      655F7400 
 1894              	.LASF20:
 1895 010c 74737461 		.ascii	"tstate_t\000"
 1895      74655F74 
 1895      00
 1896              	.LASF88:
 1897 0115 43434552 		.ascii	"CCER\000"
 1897      00
 1898              	.LASF1:
 1899 011a 6C6F6E67 		.ascii	"long long int\000"
 1899      206C6F6E 
 1899      6720696E 
 1899      7400
 1900              	.LASF32:
 1901 0128 705F6E65 		.ascii	"p_newer\000"
 1901      77657200 
 1902              	.LASF104:
 1903 0130 735F7175 		.ascii	"s_queue\000"
 1903      65756500 
 1904              	.LASF6:
 1905 0138 73686F72 		.ascii	"short unsigned int\000"
 1905      7420756E 
 1905      7369676E 
 1905      65642069 
 1905      6E7400
 1906              	.LASF56:
 1907 014b 725F6E65 		.ascii	"r_newer\000"
 1907      77657200 
 1908              	.LASF44:
 1909 0153 705F6D70 		.ascii	"p_mpool\000"
 1909      6F6F6C00 
 1910              	.LASF80:
 1911 015b 72656761 		.ascii	"regarm_t\000"
 1911      726D5F74 
 1911      00
 1912              	.LASF63:
 1913 0164 76745F70 		.ascii	"vt_prev\000"
 1913      72657600 
 1914              	.LASF111:
 1915 016c 6D757465 		.ascii	"mutex_t\000"
 1915      785F7400 
 1916              	.LASF78:
 1917 0174 69646C65 		.ascii	"idle_thread_wa\000"
 1917      5F746872 
 1917      6561645F 
 1917      776100
 1918              	.LASF25:
 1919 0183 636E745F 		.ascii	"cnt_t\000"
 1919      7400
ARM GAS  /tmp/ccIclJjK.s 			page 36


 1920              	.LASF0:
 1921 0189 756E7369 		.ascii	"unsigned int\000"
 1921      676E6564 
 1921      20696E74 
 1921      00
 1922              	.LASF62:
 1923 0196 76745F6E 		.ascii	"vt_next\000"
 1923      65787400 
 1924              	.LASF100:
 1925 019e 77747365 		.ascii	"wtsemp\000"
 1925      6D7000
 1926              	.LASF39:
 1927 01a5 705F6D73 		.ascii	"p_msgqueue\000"
 1927      67717565 
 1927      756500
 1928              	.LASF105:
 1929 01b0 735F636E 		.ascii	"s_cnt\000"
 1929      7400
 1930              	.LASF84:
 1931 01b6 534D4352 		.ascii	"SMCR\000"
 1931      00
 1932              	.LASF47:
 1933 01bb 63685F74 		.ascii	"ch_thread\000"
 1933      68726561 
 1933      6400
 1934              	.LASF23:
 1935 01c5 6D73675F 		.ascii	"msg_t\000"
 1935      7400
 1936              	.LASF73:
 1937 01cb 63685F73 		.ascii	"ch_system_t\000"
 1937      79737465 
 1937      6D5F7400 
 1938              	.LASF93:
 1939 01d7 73746D33 		.ascii	"stm32_tim_t\000"
 1939      325F7469 
 1939      6D5F7400 
 1940              	.LASF52:
 1941 01e3 63685F72 		.ascii	"ch_ready_list\000"
 1941      65616479 
 1941      5F6C6973 
 1941      7400
 1942              	.LASF24:
 1943 01f1 6576656E 		.ascii	"eventmask_t\000"
 1943      746D6173 
 1943      6B5F7400 
 1944              	.LASF8:
 1945 01fd 5F5F696E 		.ascii	"__int32_t\000"
 1945      7433325F 
 1945      7400
 1946              	.LASF113:
 1947 0207 73745F6C 		.ascii	"st_lld_start_alarm\000"
 1947      6C645F73 
 1947      74617274 
 1947      5F616C61 
 1947      726D00
 1948              	.LASF81:
 1949 021a 73746B61 		.ascii	"stkalign_t\000"
ARM GAS  /tmp/ccIclJjK.s 			page 37


 1949      6C69676E 
 1949      5F7400
 1950              	.LASF38:
 1951 0225 705F7761 		.ascii	"p_waiting\000"
 1951      6974696E 
 1951      6700
 1952              	.LASF79:
 1953 022f 73697A65 		.ascii	"sizetype\000"
 1953      74797065 
 1953      00
 1954              	.LASF45:
 1955 0238 74687265 		.ascii	"thread_reference_t\000"
 1955      61645F72 
 1955      65666572 
 1955      656E6365 
 1955      5F7400
 1956              	.LASF68:
 1957 024b 63685F76 		.ascii	"ch_virtual_timers_list\000"
 1957      69727475 
 1957      616C5F74 
 1957      696D6572 
 1957      735F6C69 
 1958              	.LASF2:
 1959 0262 6C6F6E67 		.ascii	"long double\000"
 1959      20646F75 
 1959      626C6500 
 1960              	.LASF69:
 1961 026e 76745F6C 		.ascii	"vt_lasttime\000"
 1961      61737474 
 1961      696D6500 
 1962              	.LASF33:
 1963 027a 705F6F6C 		.ascii	"p_older\000"
 1963      64657200 
 1964              	.LASF116:
 1965 0282 7374496E 		.ascii	"stInit\000"
 1965      697400
 1966              	.LASF55:
 1967 0289 725F6374 		.ascii	"r_ctx\000"
 1967      7800
 1968              	.LASF95:
 1969 028f 746D5F63 		.ascii	"tm_calibration_t\000"
 1969      616C6962 
 1969      72617469 
 1969      6F6E5F74 
 1969      00
 1970              	.LASF115:
 1971 02a0 74696D65 		.ascii	"time\000"
 1971      00
 1972              	.LASF58:
 1973 02a5 725F6375 		.ascii	"r_current\000"
 1973      7272656E 
 1973      7400
 1974              	.LASF57:
 1975 02af 725F6F6C 		.ascii	"r_older\000"
 1975      64657200 
 1976              	.LASF12:
 1977 02b7 5F5F7569 		.ascii	"__uint64_t\000"
ARM GAS  /tmp/ccIclJjK.s 			page 38


 1977      6E743634 
 1977      5F7400
 1978              	.LASF21:
 1979 02c2 74726566 		.ascii	"trefs_t\000"
 1979      735F7400 
 1980              	.LASF60:
 1981 02ca 76697274 		.ascii	"virtual_timer_t\000"
 1981      75616C5F 
 1981      74696D65 
 1981      725F7400 
 1982              	.LASF29:
 1983 02da 705F7072 		.ascii	"p_prev\000"
 1983      657600
 1984              	.LASF22:
 1985 02e1 74707269 		.ascii	"tprio_t\000"
 1985      6F5F7400 
 1986              	.LASF71:
 1987 02e9 63685F73 		.ascii	"ch_system_debug\000"
 1987      79737465 
 1987      6D5F6465 
 1987      62756700 
 1988              	.LASF112:
 1989 02f9 5F426F6F 		.ascii	"_Bool\000"
 1989      6C00
 1990              	.LASF15:
 1991 02ff 696E7433 		.ascii	"int32_t\000"
 1991      325F7400 
 1992              	.LASF4:
 1993 0307 756E7369 		.ascii	"unsigned char\000"
 1993      676E6564 
 1993      20636861 
 1993      7200
 1994              	.LASF124:
 1995 0315 2F686F6D 		.ascii	"/home/selim/working/ChibiOS/os/hal/src/st.c\000"
 1995      652F7365 
 1995      6C696D2F 
 1995      776F726B 
 1995      696E672F 
 1996              	.LASF42:
 1997 0341 705F6D74 		.ascii	"p_mtxlist\000"
 1997      786C6973 
 1997      7400
 1998              	.LASF5:
 1999 034b 73686F72 		.ascii	"short int\000"
 1999      7420696E 
 1999      7400
 2000              	.LASF35:
 2001 0355 705F7374 		.ascii	"p_state\000"
 2001      61746500 
 2002              	.LASF54:
 2003 035d 725F7072 		.ascii	"r_prio\000"
 2003      696F00
 2004              	.LASF123:
 2005 0364 474E5520 		.ascii	"GNU C11 5.3.1 20160307 (release) [ARM/embedded-5-br"
 2005      43313120 
 2005      352E332E 
 2005      31203230 
ARM GAS  /tmp/ccIclJjK.s 			page 39


 2005      31363033 
 2006 0397 616E6368 		.ascii	"anch revision 234589] -mcpu=cortex-m4 -mno-thumb-in"
 2006      20726576 
 2006      6973696F 
 2006      6E203233 
 2006      34353839 
 2007 03ca 74657277 		.ascii	"terwork -mthumb -ggdb -O2 -fomit-frame-pointer -fal"
 2007      6F726B20 
 2007      2D6D7468 
 2007      756D6220 
 2007      2D676764 
 2008 03fd 69676E2D 		.ascii	"ign-functions=16 -ffunction-sections -fdata-section"
 2008      66756E63 
 2008      74696F6E 
 2008      733D3136 
 2008      202D6666 
 2009 0430 73202D66 		.ascii	"s -fno-common\000"
 2009      6E6F2D63 
 2009      6F6D6D6F 
 2009      6E00
 2010              	.LASF102:
 2011 043e 65776D61 		.ascii	"ewmask\000"
 2011      736B00
 2012              	.LASF28:
 2013 0445 705F6E65 		.ascii	"p_next\000"
 2013      787400
 2014              	.LASF14:
 2015 044c 75696E74 		.ascii	"uint8_t\000"
 2015      385F7400 
 2016              	.LASF121:
 2017 0454 5F5F6675 		.ascii	"__func__\000"
 2017      6E635F5F 
 2017      00
 2018              	.LASF61:
 2019 045d 63685F76 		.ascii	"ch_virtual_timer\000"
 2019      69727475 
 2019      616C5F74 
 2019      696D6572 
 2019      00
 2020              	.LASF126:
 2021 046e 73745F6C 		.ascii	"st_lld_get_alarm\000"
 2021      6C645F67 
 2021      65745F61 
 2021      6C61726D 
 2021      00
 2022              	.LASF103:
 2023 047f 63685F73 		.ascii	"ch_semaphore\000"
 2023      656D6170 
 2023      686F7265 
 2023      00
 2024              	.LASF92:
 2025 048c 43435852 		.ascii	"CCXR\000"
 2025      00
 2026              	.LASF41:
 2027 0491 705F6570 		.ascii	"p_epending\000"
 2027      656E6469 
 2027      6E6700
ARM GAS  /tmp/ccIclJjK.s 			page 40


 2028              	.LASF16:
 2029 049c 75696E74 		.ascii	"uint32_t\000"
 2029      33325F74 
 2029      00
 2030              	.LASF101:
 2031 04a5 77746D74 		.ascii	"wtmtxp\000"
 2031      787000
 2032              	.LASF53:
 2033 04ac 725F7175 		.ascii	"r_queue\000"
 2033      65756500 
 2034              	.LASF64:
 2035 04b4 76745F64 		.ascii	"vt_delta\000"
 2035      656C7461 
 2035      00
 2036              	.LASF48:
 2037 04bd 63685F74 		.ascii	"ch_threads_list\000"
 2037      68726561 
 2037      64735F6C 
 2037      69737400 
 2038              	.LASF11:
 2039 04cd 6C6F6E67 		.ascii	"long unsigned int\000"
 2039      20756E73 
 2039      69676E65 
 2039      6420696E 
 2039      7400
 2040              	.LASF118:
 2041 04df 73745374 		.ascii	"stStopAlarm\000"
 2041      6F70416C 
 2041      61726D00 
 2042              	.LASF110:
 2043 04eb 63686172 		.ascii	"char\000"
 2043      00
 2044              	.LASF90:
 2045 04f0 444D4152 		.ascii	"DMAR\000"
 2045      00
 2046              	.LASF27:
 2047 04f5 74687265 		.ascii	"thread_t\000"
 2047      61645F74 
 2047      00
 2048              	.LASF109:
 2049 04fe 6D5F6E65 		.ascii	"m_next\000"
 2049      787400
 2050              	.LASF26:
 2051 0505 73797374 		.ascii	"systime_t\000"
 2051      696D655F 
 2051      7400
 2052              	.LASF43:
 2053 050f 705F7265 		.ascii	"p_realprio\000"
 2053      616C7072 
 2053      696F00
 2054              	.LASF59:
 2055 051a 76746675 		.ascii	"vtfunc_t\000"
 2055      6E635F74 
 2055      00
 2056              	.LASF10:
 2057 0523 5F5F7569 		.ascii	"__uint32_t\000"
 2057      6E743332 
ARM GAS  /tmp/ccIclJjK.s 			page 41


 2057      5F7400
 2058              	.LASF72:
 2059 052e 70616E69 		.ascii	"panic_msg\000"
 2059      635F6D73 
 2059      6700
 2060              	.LASF94:
 2061 0538 6F666673 		.ascii	"offset\000"
 2061      657400
 2062              	.LASF117:
 2063 053f 73745374 		.ascii	"stStartAlarm\000"
 2063      61727441 
 2063      6C61726D 
 2063      00
 2064              	.LASF82:
 2065 054c 636F6E74 		.ascii	"context\000"
 2065      65787400 
 2066              	.LASF40:
 2067 0554 705F6D73 		.ascii	"p_msg\000"
 2067      6700
 2068              	.LASF18:
 2069 055a 7274636E 		.ascii	"rtcnt_t\000"
 2069      745F7400 
 2070              	.LASF125:
 2071 0562 73745F6C 		.ascii	"st_lld_stop_alarm\000"
 2071      6C645F73 
 2071      746F705F 
 2071      616C6172 
 2071      6D00
 2072              	.LASF66:
 2073 0574 76745F70 		.ascii	"vt_par\000"
 2073      617200
 2074              	.LASF49:
 2075 057b 74687265 		.ascii	"threads_queue_t\000"
 2075      6164735F 
 2075      71756575 
 2075      655F7400 
 2076              	.LASF106:
 2077 058b 63685F6D 		.ascii	"ch_mutex\000"
 2077      75746578 
 2077      00
 2078              	.LASF37:
 2079 0594 705F7265 		.ascii	"p_refs\000"
 2079      667300
 2080              	.LASF75:
 2081 059b 726C6973 		.ascii	"rlist\000"
 2081      7400
 2082              	.LASF119:
 2083 05a1 73745365 		.ascii	"stSetAlarm\000"
 2083      74416C61 
 2083      726D00
 2084              	.LASF127:
 2085 05ac 73744765 		.ascii	"stGetAlarm\000"
 2085      74416C61 
 2085      726D00
 2086              	.LASF98:
 2087 05b7 77746F62 		.ascii	"wtobjp\000"
 2087      6A7000
ARM GAS  /tmp/ccIclJjK.s 			page 42


 2088              	.LASF34:
 2089 05be 705F6E61 		.ascii	"p_name\000"
 2089      6D6500
 2090              	.LASF46:
 2091 05c5 74687265 		.ascii	"threads_list_t\000"
 2091      6164735F 
 2091      6C697374 
 2091      5F7400
 2092              	.LASF120:
 2093 05d4 61627374 		.ascii	"abstime\000"
 2093      696D6500 
 2094              	.LASF36:
 2095 05dc 705F666C 		.ascii	"p_flags\000"
 2095      61677300 
 2096              	.LASF114:
 2097 05e4 73745F6C 		.ascii	"st_lld_set_alarm\000"
 2097      6C645F73 
 2097      65745F61 
 2097      6C61726D 
 2097      00
 2098              	.LASF108:
 2099 05f5 6D5F6F77 		.ascii	"m_owner\000"
 2099      6E657200 
 2100              	.LASF31:
 2101 05fd 705F6374 		.ascii	"p_ctx\000"
 2101      7800
 2102              	.LASF65:
 2103 0603 76745F66 		.ascii	"vt_func\000"
 2103      756E6300 
 2104              		.ident	"GCC: (GNU Tools for ARM Embedded Processors) 5.3.1 20160307 (release) [ARM/embedded-5-bran
ARM GAS  /tmp/ccIclJjK.s 			page 43


DEFINED SYMBOLS
                            *ABS*:0000000000000000 st.c
     /tmp/ccIclJjK.s:20     .text.stInit:0000000000000000 $t
     /tmp/ccIclJjK.s:26     .text.stInit:0000000000000000 stInit
     /tmp/ccIclJjK.s:41     .text.stStartAlarm:0000000000000000 $t
     /tmp/ccIclJjK.s:47     .text.stStartAlarm:0000000000000000 stStartAlarm
     /tmp/ccIclJjK.s:79     .text.stStopAlarm:0000000000000000 $t
     /tmp/ccIclJjK.s:85     .text.stStopAlarm:0000000000000000 stStopAlarm
     /tmp/ccIclJjK.s:105    .text.stSetAlarm:0000000000000000 $t
     /tmp/ccIclJjK.s:111    .text.stSetAlarm:0000000000000000 stSetAlarm
     /tmp/ccIclJjK.s:133    .text.stGetAlarm:0000000000000000 $t
     /tmp/ccIclJjK.s:139    .text.stGetAlarm:0000000000000000 stGetAlarm
                     .debug_frame:0000000000000010 $d

UNDEFINED SYMBOLS
st_lld_init
