ARM GAS  /tmp/ccwv8n5T.s 			page 1


   1              		.syntax unified
   2              		.cpu cortex-m4
   3              		.fpu softvfp
   4              		.eabi_attribute 20, 1
   5              		.eabi_attribute 21, 1
   6              		.eabi_attribute 23, 3
   7              		.eabi_attribute 24, 1
   8              		.eabi_attribute 25, 1
   9              		.eabi_attribute 26, 1
  10              		.eabi_attribute 30, 2
  11              		.eabi_attribute 34, 1
  12              		.eabi_attribute 18, 4
  13              		.thumb
  14              		.syntax unified
  15              		.file	"main.c"
  16              		.text
  17              	.Ltext0:
  18              		.cfi_sections	.debug_frame
  19              		.section	.text.adcerrorcallback,"ax",%progbits
  20              		.align	2
  21              		.p2align 4,,15
  22              		.thumb
  23              		.thumb_func
  24              		.type	adcerrorcallback, %function
  25              	adcerrorcallback:
  26              	.LFB260:
  27              		.file 1 "main.c"
  28              		.loc 1 67 0
  29              		.cfi_startproc
  30              		@ args = 0, pretend = 0, frame = 0
  31              		@ frame_needed = 0, uses_anonymous_args = 0
  32              		@ link register save eliminated.
  33              	.LVL0:
  34 0000 7047     		bx	lr
  35              		.cfi_endproc
  36              	.LFE260:
  37              		.size	adcerrorcallback, .-adcerrorcallback
  38 0002 00BF     		.section	.text.gpt3cb,"ax",%progbits
  39              		.align	2
  40              		.p2align 4,,15
  41              		.thumb
  42              		.thumb_func
  43              		.type	gpt3cb, %function
  44              	gpt3cb:
  45              	.LFB261:
  46              		.loc 1 73 0
  47              		.cfi_startproc
  48              		@ args = 0, pretend = 0, frame = 0
  49              		@ frame_needed = 0, uses_anonymous_args = 0
  50              		@ link register save eliminated.
  51              	.LVL1:
  52              		.loc 1 76 0
  53 0000 024A     		ldr	r2, .L3
  54 0002 5369     		ldr	r3, [r2, #20]
  55 0004 83F02003 		eor	r3, r3, #32
  56 0008 5361     		str	r3, [r2, #20]
  57 000a 7047     		bx	lr
ARM GAS  /tmp/ccwv8n5T.s 			page 2


  58              	.L4:
  59              		.align	2
  60              	.L3:
  61 000c 00040240 		.word	1073873920
  62              		.cfi_endproc
  63              	.LFE261:
  64              		.size	gpt3cb, .-gpt3cb
  65              		.section	.text.adccallback,"ax",%progbits
  66              		.align	2
  67              		.p2align 4,,15
  68              		.thumb
  69              		.thumb_func
  70              		.type	adccallback, %function
  71              	adccallback:
  72              	.LFB259:
  73              		.loc 1 53 0
  74              		.cfi_startproc
  75              		@ args = 0, pretend = 0, frame = 0
  76              		@ frame_needed = 0, uses_anonymous_args = 0
  77              	.LVL2:
  78              	.LBB67:
  79              	.LBB68:
  80              		.file 2 "/home/selim/working/ChibiOS/os/rt/include/chbsem.h"
  81              		.loc 2 270 0
  82 0000 0848     		ldr	r0, .L13
  83              	.LVL3:
  84              	.LBE68:
  85              	.LBE67:
  86              		.loc 1 53 0
  87 0002 08B5     		push	{r3, lr}
  88              		.cfi_def_cfa_offset 8
  89              		.cfi_offset 3, -8
  90              		.cfi_offset 14, -4
  91              	.LBB71:
  92              	.LBB69:
  93              		.loc 2 270 0
  94 0004 8368     		ldr	r3, [r0, #8]
  95 0006 002B     		cmp	r3, #0
  96 0008 09DD     		ble	.L12
  97              	.LVL4:
  98              	.L6:
  99              	.LBE69:
 100              	.LBE71:
 101              		.loc 1 62 0
 102 000a 074A     		ldr	r2, .L13+4
 103 000c 1388     		ldrh	r3, [r2]
 104 000e 0133     		adds	r3, r3, #1
 105 0010 9BB2     		uxth	r3, r3
 106              		.loc 1 63 0
 107 0012 B3F5805F 		cmp	r3, #4096
 108 0016 88BF     		it	hi
 109 0018 0023     		movhi	r3, #0
 110 001a 1380     		strh	r3, [r2]	@ movhi
 111 001c 08BD     		pop	{r3, pc}
 112              	.LVL5:
 113              	.L12:
 114              	.LBB72:
ARM GAS  /tmp/ccwv8n5T.s 			page 3


 115              	.LBB70:
 116              		.loc 2 271 0
 117 001e FFF7FEFF 		bl	chSemSignalI
 118              	.LVL6:
 119 0022 F2E7     		b	.L6
 120              	.L14:
 121              		.align	2
 122              	.L13:
 123 0024 00000000 		.word	.LANCHOR0
 124 0028 00000000 		.word	.LANCHOR1
 125              	.LBE70:
 126              	.LBE72:
 127              		.cfi_endproc
 128              	.LFE259:
 129              		.size	adccallback, .-adccallback
 130              		.section	.text.chprintf,"ax",%progbits
 131              		.align	2
 132              		.p2align 4,,15
 133              		.thumb
 134              		.thumb_func
 135              		.type	chprintf, %function
 136              	chprintf:
 137              	.LFB258:
 138              		.file 3 "/home/selim/working/ChibiOS/os/hal/lib/streams/chprintf.h"
 139              		.loc 3 69 0
 140              		.cfi_startproc
 141              		@ args = 4, pretend = 12, frame = 8
 142              		@ frame_needed = 0, uses_anonymous_args = 1
 143              	.LVL7:
 144 0000 0EB4     		push	{r1, r2, r3}
 145              		.cfi_def_cfa_offset 12
 146              		.cfi_offset 1, -12
 147              		.cfi_offset 2, -8
 148              		.cfi_offset 3, -4
 149 0002 00B5     		push	{lr}
 150              		.cfi_def_cfa_offset 16
 151              		.cfi_offset 14, -16
 152 0004 82B0     		sub	sp, sp, #8
 153              		.cfi_def_cfa_offset 24
 154              		.loc 3 69 0
 155 0006 03AA     		add	r2, sp, #12
 156 0008 52F8041B 		ldr	r1, [r2], #4
 157              		.loc 3 73 0
 158 000c 0192     		str	r2, [sp, #4]
 159              		.loc 3 74 0
 160 000e FFF7FEFF 		bl	chvprintf
 161              	.LVL8:
 162              		.loc 3 78 0
 163 0012 02B0     		add	sp, sp, #8
 164              		.cfi_def_cfa_offset 16
 165              		@ sp needed
 166 0014 5DF804EB 		ldr	lr, [sp], #4
 167              		.cfi_restore 14
 168              		.cfi_def_cfa_offset 12
 169 0018 03B0     		add	sp, sp, #12
 170              		.cfi_restore 3
 171              		.cfi_restore 2
ARM GAS  /tmp/ccwv8n5T.s 			page 4


 172              		.cfi_restore 1
 173              		.cfi_def_cfa_offset 0
 174 001a 7047     		bx	lr
 175              		.cfi_endproc
 176              	.LFE258:
 177              		.size	chprintf, .-chprintf
 178              		.section	.text.Thread2,"ax",%progbits
 179              		.align	2
 180              		.p2align 4,,15
 181              		.thumb
 182              		.thumb_func
 183              		.type	Thread2, %function
 184              	Thread2:
 185              	.LFB262:
 186              		.loc 1 127 0
 187              		.cfi_startproc
 188              		@ Volatile: function does not return.
 189              		@ args = 0, pretend = 0, frame = 0
 190              		@ frame_needed = 0, uses_anonymous_args = 0
 191              	.LVL9:
 192              		.loc 1 129 0
 193 0000 184C     		ldr	r4, .L20
 194 0002 194D     		ldr	r5, .L20+4
 195 0004 194E     		ldr	r6, .L20+8
 196              		.loc 1 127 0
 197 0006 80B5     		push	{r7, lr}
 198              		.cfi_def_cfa_offset 8
 199              		.cfi_offset 7, -8
 200              		.cfi_offset 14, -4
 201              		.loc 1 129 0
 202 0008 AA21     		movs	r1, #170
 203              		.loc 1 130 0
 204 000a BB22     		movs	r2, #187
 205              		.loc 1 131 0
 206 000c 0423     		movs	r3, #4
 207 000e 184F     		ldr	r7, .L20+12
 208              		.loc 1 129 0
 209 0010 2170     		strb	r1, [r4]
 210              		.loc 1 130 0
 211 0012 6270     		strb	r2, [r4, #1]
 212              		.loc 1 131 0
 213 0014 A370     		strb	r3, [r4, #2]
 214              	.LVL10:
 215              	.L18:
 216              	.LBB73:
 217              	.LBB74:
 218              		.loc 2 143 0 discriminator 1
 219 0016 1748     		ldr	r0, .L20+16
 220 0018 FFF7FEFF 		bl	chSemWait
 221              	.LVL11:
 222              	.LBE74:
 223              	.LBE73:
 224              		.loc 1 145 0 discriminator 1
 225 001c A889     		ldrh	r0, [r5, #12]
 226              		.loc 1 146 0 discriminator 1
 227 001e E989     		ldrh	r1, [r5, #14]
 228              		.loc 1 148 0 discriminator 1
ARM GAS  /tmp/ccwv8n5T.s 			page 5


 229 0020 3A88     		ldrh	r2, [r7]
 230              		.loc 1 139 0 discriminator 1
 231 0022 B5F800A0 		ldrh	r10, [r5]
 232              		.loc 1 141 0 discriminator 1
 233 0026 B5F80490 		ldrh	r9, [r5, #4]
 234              		.loc 1 142 0 discriminator 1
 235 002a B5F80680 		ldrh	r8, [r5, #6]
 236              		.loc 1 143 0 discriminator 1
 237 002e B5F808C0 		ldrh	ip, [r5, #8]
 238              		.loc 1 144 0 discriminator 1
 239 0032 B5F80AE0 		ldrh	lr, [r5, #10]
 240              		.loc 1 160 0 discriminator 1
 241 0036 3368     		ldr	r3, [r6]
 242              		.loc 1 145 0 discriminator 1
 243 0038 A4F80F00 		strh	r0, [r4, #15]	@ unaligned
 244              		.loc 1 146 0 discriminator 1
 245 003c A4F81110 		strh	r1, [r4, #17]	@ unaligned
 246              		.loc 1 148 0 discriminator 1
 247 0040 A4F80520 		strh	r2, [r4, #5]	@ unaligned
 248              		.loc 1 139 0 discriminator 1
 249 0044 A4F803A0 		strh	r10, [r4, #3]	@ unaligned
 250              		.loc 1 141 0 discriminator 1
 251 0048 A4F80790 		strh	r9, [r4, #7]	@ unaligned
 252              		.loc 1 142 0 discriminator 1
 253 004c A4F80980 		strh	r8, [r4, #9]	@ unaligned
 254              		.loc 1 143 0 discriminator 1
 255 0050 A4F80BC0 		strh	ip, [r4, #11]	@ unaligned
 256              		.loc 1 144 0 discriminator 1
 257 0054 A4F80DE0 		strh	lr, [r4, #13]	@ unaligned
 258              		.loc 1 160 0 discriminator 1
 259 0058 1B68     		ldr	r3, [r3]
 260 005a 0249     		ldr	r1, .L20
 261 005c 0348     		ldr	r0, .L20+8
 262 005e 0722     		movs	r2, #7
 263 0060 9847     		blx	r3
 264              	.LVL12:
 265 0062 D8E7     		b	.L18
 266              	.L21:
 267              		.align	2
 268              	.L20:
 269 0064 00000000 		.word	.LANCHOR2
 270 0068 00000000 		.word	.LANCHOR3
 271 006c 00000000 		.word	.LANCHOR4
 272 0070 00000000 		.word	.LANCHOR1
 273 0074 00000000 		.word	.LANCHOR0
 274              		.cfi_endproc
 275              	.LFE262:
 276              		.size	Thread2, .-Thread2
 277              		.section	.text.Thread1,"ax",%progbits
 278              		.align	2
 279              		.p2align 4,,15
 280              		.thumb
 281              		.thumb_func
 282              		.type	Thread1, %function
 283              	Thread1:
 284              	.LFB267:
 285              		.loc 1 298 0
ARM GAS  /tmp/ccwv8n5T.s 			page 6


 286              		.cfi_startproc
 287              		@ args = 0, pretend = 0, frame = 0
 288              		@ frame_needed = 0, uses_anonymous_args = 0
 289              	.LVL13:
 290 0000 F8B5     		push	{r3, r4, r5, r6, r7, lr}
 291              		.cfi_def_cfa_offset 24
 292              		.cfi_offset 3, -24
 293              		.cfi_offset 4, -20
 294              		.cfi_offset 5, -16
 295              		.cfi_offset 6, -12
 296              		.cfi_offset 7, -8
 297              		.cfi_offset 14, -4
 298              		.loc 1 303 0
 299 0002 4C4B     		ldr	r3, .L35
 300 0004 4C4A     		ldr	r2, .L35+4
 301 0006 9B69     		ldr	r3, [r3, #24]
 302              		.loc 1 306 0
 303 0008 4C48     		ldr	r0, .L35+8
 304              	.LVL14:
 305              		.loc 1 303 0
 306 000a 9A61     		str	r2, [r3, #24]
 307              		.loc 1 306 0
 308 000c 2021     		movs	r1, #32
 309 000e 4322     		movs	r2, #67
 310 0010 FFF7FEFF 		bl	lis302dlWriteRegister
 311              	.LVL15:
 312              		.loc 1 307 0
 313 0014 0022     		movs	r2, #0
 314 0016 2121     		movs	r1, #33
 315 0018 4848     		ldr	r0, .L35+8
 316 001a FFF7FEFF 		bl	lis302dlWriteRegister
 317              	.LVL16:
 318              		.loc 1 308 0
 319 001e 0022     		movs	r2, #0
 320 0020 2221     		movs	r1, #34
 321 0022 4648     		ldr	r0, .L35+8
 322 0024 FFF7FEFF 		bl	lis302dlWriteRegister
 323              	.LVL17:
 324              	.LBB75:
 325              	.LBB76:
 326              	.LBB77:
 327              	.LBB78:
 328              	.LBB79:
 329              	.LBB80:
 330              		.file 4 "/home/selim/working/ChibiOS/os/ext/CMSIS/include/core_cmFunc.h"
 331              		.loc 4 546 0
 332 0028 2023     		movs	r3, #32
 333              		.syntax unified
 334              	@ 546 "/home/selim/working/ChibiOS/os/ext/CMSIS/include/core_cmFunc.h" 1
 335 002a 83F31188 		MSR basepri, r3
 336              	@ 0 "" 2
 337              	.LVL18:
 338              		.thumb
 339              		.syntax unified
 340              	.LBE80:
 341              	.LBE79:
 342              	.LBE78:
ARM GAS  /tmp/ccwv8n5T.s 			page 7


 343              	.LBE77:
 344              	.LBB81:
 345              	.LBB82:
 346              	.LBB83:
 347              	.LBB84:
 348              		.file 5 "/home/selim/working/ChibiOS/os/hal/ports/STM32/LLD/TIMv1/st_lld.h"
 349              		.loc 5 129 0
 350 002e 4FF08042 		mov	r2, #1073741824
 351              	.LBE84:
 352              	.LBE83:
 353              	.LBE82:
 354              	.LBE81:
 355              	.LBB88:
 356              	.LBB89:
 357              	.LBB90:
 358              	.LBB91:
 359              	.LBB92:
 360              		.loc 4 546 0
 361 0032 0023     		movs	r3, #0
 362              	.LBE92:
 363              	.LBE91:
 364              	.LBE90:
 365              	.LBE89:
 366              	.LBE88:
 367              	.LBB97:
 368              	.LBB87:
 369              	.LBB86:
 370              	.LBB85:
 371              		.loc 5 129 0
 372 0034 576A     		ldr	r7, [r2, #36]
 373              	.LVL19:
 374              	.LBE85:
 375              	.LBE86:
 376              	.LBE87:
 377              	.LBE97:
 378              	.LBB98:
 379              	.LBB96:
 380              	.LBB95:
 381              	.LBB94:
 382              	.LBB93:
 383              		.loc 4 546 0
 384              		.syntax unified
 385              	@ 546 "/home/selim/working/ChibiOS/os/ext/CMSIS/include/core_cmFunc.h" 1
 386 0036 83F31188 		MSR basepri, r3
 387              	@ 0 "" 2
 388              	.LVL20:
 389              		.thumb
 390              		.syntax unified
 391 003a 414E     		ldr	r6, .L35+12
 392 003c 414D     		ldr	r5, .L35+16
 393              	.L30:
 394              	.LVL21:
 395 003e 4249     		ldr	r1, .L35+20
 396 0040 424A     		ldr	r2, .L35+24
 397 0042 4C1C     		adds	r4, r1, #1
 398 0044 501C     		adds	r0, r2, #1
 399              	.LBE93:
ARM GAS  /tmp/ccwv8n5T.s 			page 8


 400              	.LBE94:
 401              	.LBE95:
 402              	.LBE96:
 403              	.LBE98:
 404              	.LBE76:
 405              	.LBE75:
 406              	.LBB99:
 407              		.loc 1 317 0
 408 0046 0323     		movs	r3, #3
 409              	.LVL22:
 410              	.L23:
 411              		.loc 1 318 0 discriminator 3
 412 0048 11F901CD 		ldrsb	ip, [r1, #-1]!
 413              		.loc 1 319 0 discriminator 3
 414 004c 12F901ED 		ldrsb	lr, [r2, #-1]!
 415              		.loc 1 318 0 discriminator 3
 416 0050 04F801CD 		strb	ip, [r4, #-1]!
 417              		.loc 1 317 0 discriminator 3
 418 0054 013B     		subs	r3, r3, #1
 419              	.LVL23:
 420              		.loc 1 319 0 discriminator 3
 421 0056 00F801ED 		strb	lr, [r0, #-1]!
 422              	.LVL24:
 423              		.loc 1 317 0 discriminator 3
 424 005a F5D1     		bne	.L23
 425              		.loc 1 323 0
 426 005c 2921     		movs	r1, #41
 427 005e 3748     		ldr	r0, .L35+8
 428 0060 FFF7FEFF 		bl	lis302dlReadRegister
 429              	.LVL25:
 430              		.loc 1 324 0
 431 0064 2B21     		movs	r1, #43
 432              		.loc 1 323 0
 433 0066 3070     		strb	r0, [r6]
 434              		.loc 1 324 0
 435 0068 3448     		ldr	r0, .L35+8
 436 006a FFF7FEFF 		bl	lis302dlReadRegister
 437              	.LVL26:
 438 006e 2870     		strb	r0, [r5]
 439              		.loc 1 327 0
 440 0070 3748     		ldr	r0, .L35+28
 441 0072 FFF7FEFF 		bl	spiSelect
 442              	.LVL27:
 443              		.loc 1 328 0
 444 0076 324A     		ldr	r2, .L35+12
 445 0078 3548     		ldr	r0, .L35+28
 446 007a 0421     		movs	r1, #4
 447 007c FFF7FEFF 		bl	spiSend
 448              	.LVL28:
 449              		.loc 1 329 0
 450 0080 304A     		ldr	r2, .L35+16
 451 0082 3348     		ldr	r0, .L35+28
 452 0084 0421     		movs	r1, #4
 453 0086 FFF7FEFF 		bl	spiSend
 454              	.LVL29:
 455              		.loc 1 330 0
 456 008a 3148     		ldr	r0, .L35+28
ARM GAS  /tmp/ccwv8n5T.s 			page 9


 457 008c FFF7FEFF 		bl	spiUnselect
 458              	.LVL30:
 459              		.loc 1 333 0
 460 0090 96F90030 		ldrsb	r3, [r6]
 461 0094 96F90110 		ldrsb	r1, [r6, #1]
 462 0098 96F90220 		ldrsb	r2, [r6, #2]
 463              		.loc 1 335 0
 464 009c 95F90100 		ldrsb	r0, [r5, #1]
 465              		.loc 1 333 0
 466 00a0 96F90340 		ldrsb	r4, [r6, #3]
 467              		.loc 1 335 0
 468 00a4 95F903E0 		ldrsb	lr, [r5, #3]
 469              		.loc 1 333 0
 470 00a8 1944     		add	r1, r1, r3
 471 00aa 8B18     		adds	r3, r1, r2
 472              		.loc 1 335 0
 473 00ac 95F90020 		ldrsb	r2, [r5]
 474 00b0 95F90210 		ldrsb	r1, [r5, #2]
 475 00b4 0244     		add	r2, r2, r0
 476              		.loc 1 333 0
 477 00b6 1B19     		adds	r3, r3, r4
 478              		.loc 1 335 0
 479 00b8 0A44     		add	r2, r2, r1
 480              		.loc 1 333 0
 481 00ba 48BF     		it	mi
 482 00bc 0333     		addmi	r3, r3, #3
 483              		.loc 1 335 0
 484 00be 12EB0E02 		adds	r2, r2, lr
 485 00c2 48BF     		it	mi
 486 00c4 0332     		addmi	r2, r2, #3
 487              		.loc 1 339 0
 488 00c6 9210     		asrs	r2, r2, #2
 489              		.loc 1 333 0
 490 00c8 4FEAA304 		asr	r4, r3, #2
 491              	.LVL31:
 492              		.loc 1 339 0
 493 00cc 1AD4     		bmi	.L33
 494              		.loc 1 344 0
 495 00ce 0221     		movs	r1, #2
 496 00d0 2048     		ldr	r0, .L35+32
 497 00d2 FFF7FEFF 		bl	pwmEnableChannel
 498              	.LVL32:
 499              		.loc 1 345 0
 500 00d6 0022     		movs	r2, #0
 501 00d8 1146     		mov	r1, r2
 502 00da 1E48     		ldr	r0, .L35+32
 503 00dc FFF7FEFF 		bl	pwmEnableChannel
 504              	.LVL33:
 505              		.loc 1 347 0
 506 00e0 002C     		cmp	r4, #0
 507 00e2 1BDB     		blt	.L34
 508              	.L28:
 509              		.loc 1 352 0
 510 00e4 2246     		mov	r2, r4
 511 00e6 0321     		movs	r1, #3
 512 00e8 1A48     		ldr	r0, .L35+32
 513 00ea FFF7FEFF 		bl	pwmEnableChannel
ARM GAS  /tmp/ccwv8n5T.s 			page 10


 514              	.LVL34:
 515              		.loc 1 353 0
 516 00ee 0022     		movs	r2, #0
 517 00f0 0121     		movs	r1, #1
 518 00f2 1848     		ldr	r0, .L35+32
 519 00f4 FFF7FEFF 		bl	pwmEnableChannel
 520              	.LVL35:
 521              	.L29:
 522              		.loc 1 357 0
 523 00f8 07F57A77 		add	r7, r7, #1000
 524              	.LVL36:
 525 00fc 3846     		mov	r0, r7
 526 00fe FFF7FEFF 		bl	chThdSleepUntil
 527              	.LVL37:
 528              	.LBE99:
 529              		.loc 1 358 0
 530 0102 9CE7     		b	.L30
 531              	.L33:
 532              	.LBB100:
 533              		.loc 1 340 0
 534 0104 5242     		negs	r2, r2
 535 0106 0021     		movs	r1, #0
 536 0108 1248     		ldr	r0, .L35+32
 537 010a FFF7FEFF 		bl	pwmEnableChannel
 538              	.LVL38:
 539              		.loc 1 341 0
 540 010e 0022     		movs	r2, #0
 541 0110 0221     		movs	r1, #2
 542 0112 1048     		ldr	r0, .L35+32
 543 0114 FFF7FEFF 		bl	pwmEnableChannel
 544              	.LVL39:
 545              		.loc 1 347 0
 546 0118 002C     		cmp	r4, #0
 547 011a E3DA     		bge	.L28
 548              	.L34:
 549              		.loc 1 348 0
 550 011c 6242     		negs	r2, r4
 551 011e 0121     		movs	r1, #1
 552 0120 0C48     		ldr	r0, .L35+32
 553 0122 FFF7FEFF 		bl	pwmEnableChannel
 554              	.LVL40:
 555              		.loc 1 349 0
 556 0126 0022     		movs	r2, #0
 557 0128 0321     		movs	r1, #3
 558 012a 0A48     		ldr	r0, .L35+32
 559 012c FFF7FEFF 		bl	pwmEnableChannel
 560              	.LVL41:
 561 0130 E2E7     		b	.L29
 562              	.L36:
 563 0132 00BF     		.align	2
 564              	.L35:
 565 0134 00000000 		.word	ch
 566 0138 00000000 		.word	.LC0
 567 013c 00000000 		.word	SPID1
 568 0140 00000000 		.word	.LANCHOR5
 569 0144 00000000 		.word	.LANCHOR6
 570 0148 03000000 		.word	.LANCHOR5+3
ARM GAS  /tmp/ccwv8n5T.s 			page 11


 571 014c 03000000 		.word	.LANCHOR6+3
 572 0150 00000000 		.word	SPID2
 573 0154 00000000 		.word	PWMD4
 574              	.LBE100:
 575              		.cfi_endproc
 576              	.LFE267:
 577              		.size	Thread1, .-Thread1
 578              		.section	.text.cmd_test,"ax",%progbits
 579              		.align	2
 580              		.p2align 4,,15
 581              		.thumb
 582              		.thumb_func
 583              		.type	cmd_test, %function
 584              	cmd_test:
 585              	.LFB266:
 586              		.loc 1 214 0
 587              		.cfi_startproc
 588              		@ args = 0, pretend = 0, frame = 0
 589              		@ frame_needed = 0, uses_anonymous_args = 0
 590              	.LVL42:
 591              		.loc 1 218 0
 592 0000 0029     		cmp	r1, #0
 593 0002 02DD     		ble	.L38
 594              		.loc 1 219 0
 595 0004 0E49     		ldr	r1, .L42
 596              	.LVL43:
 597 0006 FFF7FEBF 		b	chprintf
 598              	.LVL44:
 599              	.L38:
 600              		.loc 1 214 0
 601 000a 10B5     		push	{r4, lr}
 602              		.cfi_def_cfa_offset 8
 603              		.cfi_offset 4, -8
 604              		.cfi_offset 14, -4
 605              	.LBB107:
 606              	.LBB108:
 607              	.LBB109:
 608              	.LBB110:
 609              	.LBB111:
 610              	.LBB112:
 611              		.file 6 "/home/selim/working/ChibiOS/os/rt/include/chthreads.h"
 612              		.loc 6 176 0
 613 000c 0D4A     		ldr	r2, .L42+4
 614              	.LVL45:
 615              	.LBE112:
 616              	.LBE111:
 617              	.LBE110:
 618              	.LBE109:
 619              		.loc 1 222 0
 620 000e 0E4B     		ldr	r3, .L42+8
 621              	.LBB114:
 622              	.LBB113:
 623              		.loc 6 189 0
 624 0010 9269     		ldr	r2, [r2, #24]
 625              	.LBE113:
 626              	.LBE114:
 627              	.LBE108:
ARM GAS  /tmp/ccwv8n5T.s 			page 12


 628              	.LBE107:
 629              		.loc 1 214 0
 630 0012 82B0     		sub	sp, sp, #8
 631              		.cfi_def_cfa_offset 16
 632 0014 0446     		mov	r4, r0
 633              	.LBB118:
 634              	.LBB115:
 635              		.loc 1 222 0
 636 0016 9268     		ldr	r2, [r2, #8]
 637 0018 0090     		str	r0, [sp]
 638 001a 4FF4E471 		mov	r1, #456
 639              	.LVL46:
 640 001e 0020     		movs	r0, #0
 641              	.LVL47:
 642 0020 FFF7FEFF 		bl	chThdCreateFromHeap
 643              	.LVL48:
 644              		.loc 1 224 0
 645 0024 20B1     		cbz	r0, .L41
 646              	.LBE115:
 647              	.LBE118:
 648              		.loc 1 229 0
 649 0026 02B0     		add	sp, sp, #8
 650              		.cfi_remember_state
 651              		.cfi_def_cfa_offset 8
 652              		@ sp needed
 653 0028 BDE81040 		pop	{r4, lr}
 654              		.cfi_restore 14
 655              		.cfi_restore 4
 656              		.cfi_def_cfa_offset 0
 657              	.LVL49:
 658              	.LBB119:
 659              	.LBB116:
 660              		.loc 1 228 0
 661 002c FFF7FEBF 		b	chThdWait
 662              	.LVL50:
 663              	.L41:
 664              		.cfi_restore_state
 665              		.loc 1 225 0
 666 0030 0649     		ldr	r1, .L42+12
 667 0032 2046     		mov	r0, r4
 668              	.LVL51:
 669              	.LBE116:
 670              	.LBE119:
 671              		.loc 1 229 0
 672 0034 02B0     		add	sp, sp, #8
 673              		.cfi_def_cfa_offset 8
 674              		@ sp needed
 675 0036 BDE81040 		pop	{r4, lr}
 676              		.cfi_restore 14
 677              		.cfi_restore 4
 678              		.cfi_def_cfa_offset 0
 679              	.LVL52:
 680              	.LBB120:
 681              	.LBB117:
 682              		.loc 1 225 0
 683 003a FFF7FEBF 		b	chprintf
 684              	.LVL53:
ARM GAS  /tmp/ccwv8n5T.s 			page 13


 685              	.L43:
 686 003e 00BF     		.align	2
 687              	.L42:
 688 0040 08000000 		.word	.LC1
 689 0044 00000000 		.word	ch
 690 0048 00000000 		.word	TestThread
 691 004c 18000000 		.word	.LC2
 692              	.LBE117:
 693              	.LBE120:
 694              		.cfi_endproc
 695              	.LFE266:
 696              		.size	cmd_test, .-cmd_test
 697              		.section	.text.cmd_threads,"ax",%progbits
 698              		.align	2
 699              		.p2align 4,,15
 700              		.thumb
 701              		.thumb_func
 702              		.type	cmd_threads, %function
 703              	cmd_threads:
 704              	.LFB265:
 705              		.loc 1 194 0
 706              		.cfi_startproc
 707              		@ args = 0, pretend = 0, frame = 0
 708              		@ frame_needed = 0, uses_anonymous_args = 0
 709              	.LVL54:
 710              		.loc 1 199 0
 711 0000 0029     		cmp	r1, #0
 712 0002 02DD     		ble	.L45
 713              		.loc 1 200 0
 714 0004 1149     		ldr	r1, .L49
 715              	.LVL55:
 716 0006 FFF7FEBF 		b	chprintf
 717              	.LVL56:
 718              	.L45:
 719              		.loc 1 194 0
 720 000a 70B5     		push	{r4, r5, r6, lr}
 721              		.cfi_def_cfa_offset 16
 722              		.cfi_offset 4, -16
 723              		.cfi_offset 5, -12
 724              		.cfi_offset 6, -8
 725              		.cfi_offset 14, -4
 726              	.LBB123:
 727              	.LBB124:
 728              		.loc 1 203 0
 729 000c 1049     		ldr	r1, .L49+4
 730              	.LVL57:
 731 000e 114E     		ldr	r6, .L49+8
 732              	.LBE124:
 733              	.LBE123:
 734              		.loc 1 194 0
 735 0010 84B0     		sub	sp, sp, #16
 736              		.cfi_def_cfa_offset 32
 737 0012 0546     		mov	r5, r0
 738              	.LVL58:
 739              	.LBB126:
 740              	.LBB125:
 741              		.loc 1 203 0
ARM GAS  /tmp/ccwv8n5T.s 			page 14


 742 0014 FFF7FEFF 		bl	chprintf
 743              	.LVL59:
 744              		.loc 1 204 0
 745 0018 FFF7FEFF 		bl	chRegFirstThread
 746              	.LVL60:
 747 001c 0446     		mov	r4, r0
 748              	.LVL61:
 749              	.L46:
 750              		.loc 1 206 0
 751 001e 227F     		ldrb	r2, [r4, #28]	@ zero_extendqisi2
 752 0020 E368     		ldr	r3, [r4, #12]
 753 0022 56F82220 		ldr	r2, [r6, r2, lsl #2]
 754 0026 0292     		str	r2, [sp, #8]
 755 0028 A27F     		ldrb	r2, [r4, #30]	@ zero_extendqisi2
 756 002a 0B49     		ldr	r1, .L49+12
 757 002c 013A     		subs	r2, r2, #1
 758 002e 0192     		str	r2, [sp, #4]
 759 0030 A268     		ldr	r2, [r4, #8]
 760 0032 0092     		str	r2, [sp]
 761 0034 2846     		mov	r0, r5
 762              	.LVL62:
 763 0036 2246     		mov	r2, r4
 764 0038 FFF7FEFF 		bl	chprintf
 765              	.LVL63:
 766              		.loc 1 210 0
 767 003c 2046     		mov	r0, r4
 768 003e FFF7FEFF 		bl	chRegNextThread
 769              	.LVL64:
 770              		.loc 1 211 0
 771 0042 0446     		mov	r4, r0
 772 0044 0028     		cmp	r0, #0
 773 0046 EAD1     		bne	.L46
 774              	.LBE125:
 775              	.LBE126:
 776              		.loc 1 212 0
 777 0048 04B0     		add	sp, sp, #16
 778              		.cfi_def_cfa_offset 16
 779              		@ sp needed
 780 004a 70BD     		pop	{r4, r5, r6, pc}
 781              	.LVL65:
 782              	.L50:
 783              		.align	2
 784              	.L49:
 785 004c 28000000 		.word	.LC3
 786 0050 3C000000 		.word	.LC4
 787 0054 00000000 		.word	.LANCHOR7
 788 0058 64000000 		.word	.LC5
 789              		.cfi_endproc
 790              	.LFE265:
 791              		.size	cmd_threads, .-cmd_threads
 792              		.section	.text.cmd_mem,"ax",%progbits
 793              		.align	2
 794              		.p2align 4,,15
 795              		.thumb
 796              		.thumb_func
 797              		.type	cmd_mem, %function
 798              	cmd_mem:
ARM GAS  /tmp/ccwv8n5T.s 			page 15


 799              	.LFB264:
 800              		.loc 1 181 0
 801              		.cfi_startproc
 802              		@ args = 0, pretend = 0, frame = 8
 803              		@ frame_needed = 0, uses_anonymous_args = 0
 804              	.LVL66:
 805 0000 30B5     		push	{r4, r5, lr}
 806              		.cfi_def_cfa_offset 12
 807              		.cfi_offset 4, -12
 808              		.cfi_offset 5, -8
 809              		.cfi_offset 14, -4
 810              		.loc 1 184 0
 811 0002 0029     		cmp	r1, #0
 812              		.loc 1 181 0
 813 0004 83B0     		sub	sp, sp, #12
 814              		.cfi_def_cfa_offset 24
 815              		.loc 1 184 0
 816 0006 04DD     		ble	.L52
 817              		.loc 1 185 0
 818 0008 0E49     		ldr	r1, .L55
 819              	.LVL67:
 820 000a FFF7FEFF 		bl	chprintf
 821              	.LVL68:
 822              		.loc 1 192 0
 823 000e 03B0     		add	sp, sp, #12
 824              		.cfi_remember_state
 825              		.cfi_def_cfa_offset 12
 826              		@ sp needed
 827 0010 30BD     		pop	{r4, r5, pc}
 828              	.LVL69:
 829              	.L52:
 830              		.cfi_restore_state
 831 0012 0446     		mov	r4, r0
 832              	.LVL70:
 833              	.LBB129:
 834              	.LBB130:
 835              		.loc 1 188 0
 836 0014 01A9     		add	r1, sp, #4
 837              	.LVL71:
 838 0016 0020     		movs	r0, #0
 839              	.LVL72:
 840 0018 FFF7FEFF 		bl	chHeapStatus
 841              	.LVL73:
 842 001c 0546     		mov	r5, r0
 843              	.LVL74:
 844              		.loc 1 189 0
 845 001e FFF7FEFF 		bl	chCoreGetStatusX
 846              	.LVL75:
 847 0022 0949     		ldr	r1, .L55+4
 848 0024 0246     		mov	r2, r0
 849 0026 2046     		mov	r0, r4
 850 0028 FFF7FEFF 		bl	chprintf
 851              	.LVL76:
 852              		.loc 1 190 0
 853 002c 2A46     		mov	r2, r5
 854 002e 0749     		ldr	r1, .L55+8
 855 0030 2046     		mov	r0, r4
ARM GAS  /tmp/ccwv8n5T.s 			page 16


 856 0032 FFF7FEFF 		bl	chprintf
 857              	.LVL77:
 858              		.loc 1 191 0
 859 0036 2046     		mov	r0, r4
 860 0038 019A     		ldr	r2, [sp, #4]
 861 003a 0549     		ldr	r1, .L55+12
 862 003c FFF7FEFF 		bl	chprintf
 863              	.LVL78:
 864              	.LBE130:
 865              	.LBE129:
 866              		.loc 1 192 0
 867 0040 03B0     		add	sp, sp, #12
 868              		.cfi_def_cfa_offset 12
 869              		@ sp needed
 870 0042 30BD     		pop	{r4, r5, pc}
 871              	.LVL79:
 872              	.L56:
 873              		.align	2
 874              	.L55:
 875 0044 80000000 		.word	.LC6
 876 0048 90000000 		.word	.LC7
 877 004c B0000000 		.word	.LC8
 878 0050 C8000000 		.word	.LC9
 879              		.cfi_endproc
 880              	.LFE264:
 881              		.size	cmd_mem, .-cmd_mem
 882              		.section	.text.startADC,"ax",%progbits
 883              		.align	2
 884              		.p2align 4,,15
 885              		.global	startADC
 886              		.thumb
 887              		.thumb_func
 888              		.type	startADC, %function
 889              	startADC:
 890              	.LFB263:
 891              		.loc 1 167 0
 892              		.cfi_startproc
 893              		@ args = 0, pretend = 0, frame = 0
 894              		@ frame_needed = 0, uses_anonymous_args = 0
 895 0000 38B5     		push	{r3, r4, r5, lr}
 896              		.cfi_def_cfa_offset 16
 897              		.cfi_offset 3, -16
 898              		.cfi_offset 4, -12
 899              		.cfi_offset 5, -8
 900              		.cfi_offset 14, -4
 901              		.loc 1 170 0
 902 0002 0C4D     		ldr	r5, .L59
 903              		.loc 1 174 0
 904 0004 0C4C     		ldr	r4, .L59+4
 905              		.loc 1 170 0
 906 0006 2846     		mov	r0, r5
 907 0008 0021     		movs	r1, #0
 908 000a FFF7FEFF 		bl	adcStart
 909              	.LVL80:
 910              		.loc 1 171 0
 911 000e FFF7FEFF 		bl	adcSTM32EnableTSVREFE
 912              	.LVL81:
ARM GAS  /tmp/ccwv8n5T.s 			page 17


 913              		.loc 1 172 0
 914 0012 2846     		mov	r0, r5
 915 0014 0123     		movs	r3, #1
 916 0016 094A     		ldr	r2, .L59+8
 917 0018 0949     		ldr	r1, .L59+12
 918 001a FFF7FEFF 		bl	adcStartConversion
 919              	.LVL82:
 920              		.loc 1 174 0
 921 001e 2046     		mov	r0, r4
 922 0020 0849     		ldr	r1, .L59+16
 923 0022 FFF7FEFF 		bl	gptStart
 924              	.LVL83:
 925              		.loc 1 175 0
 926 0026 2046     		mov	r0, r4
 927 0028 4FF47A71 		mov	r1, #1000
 928              		.loc 1 178 0
 929 002c BDE83840 		pop	{r3, r4, r5, lr}
 930              		.cfi_restore 14
 931              		.cfi_restore 5
 932              		.cfi_restore 4
 933              		.cfi_restore 3
 934              		.cfi_def_cfa_offset 0
 935              		.loc 1 175 0
 936 0030 FFF7FEBF 		b	gptStartContinuous
 937              	.LVL84:
 938              	.L60:
 939              		.align	2
 940              	.L59:
 941 0034 00000000 		.word	ADCD1
 942 0038 00000000 		.word	GPTD3
 943 003c 00000000 		.word	.LANCHOR3
 944 0040 00000000 		.word	.LANCHOR8
 945 0044 00000000 		.word	.LANCHOR9
 946              		.cfi_endproc
 947              	.LFE263:
 948              		.size	startADC, .-startADC
 949              		.section	.text.startup.main,"ax",%progbits
 950              		.align	2
 951              		.p2align 4,,15
 952              		.global	main
 953              		.thumb
 954              		.thumb_func
 955              		.type	main, %function
 956              	main:
 957              	.LFB268:
 958              		.loc 1 368 0
 959              		.cfi_startproc
 960              		@ args = 0, pretend = 0, frame = 0
 961              		@ frame_needed = 0, uses_anonymous_args = 0
 962              	.LVL85:
 963 0000 70B5     		push	{r4, r5, r6, lr}
 964              		.cfi_def_cfa_offset 16
 965              		.cfi_offset 4, -16
 966              		.cfi_offset 5, -12
 967              		.cfi_offset 6, -8
 968              		.cfi_offset 14, -4
 969              		.loc 1 381 0
ARM GAS  /tmp/ccwv8n5T.s 			page 18


 970 0002 624C     		ldr	r4, .L68
 971 0004 624D     		ldr	r5, .L68+4
 972              		.loc 1 406 0
 973 0006 634E     		ldr	r6, .L68+8
 974              		.loc 1 368 0
 975 0008 82B0     		sub	sp, sp, #8
 976              		.cfi_def_cfa_offset 24
 977              		.loc 1 377 0
 978 000a FFF7FEFF 		bl	halInit
 979              	.LVL86:
 980              		.loc 1 378 0
 981 000e FFF7FEFF 		bl	chSysInit
 982              	.LVL87:
 983              		.loc 1 380 0
 984 0012 0122     		movs	r2, #1
 985 0014 8021     		movs	r1, #128
 986 0016 6048     		ldr	r0, .L68+12
 987 0018 FFF7FEFF 		bl	_pal_lld_setgroupmode
 988              	.LVL88:
 989              		.loc 1 381 0
 990 001c 2046     		mov	r0, r4
 991 001e 0122     		movs	r2, #1
 992 0020 2021     		movs	r1, #32
 993 0022 FFF7FEFF 		bl	_pal_lld_setgroupmode
 994              	.LVL89:
 995              		.loc 1 383 0
 996 0026 5D48     		ldr	r0, .L68+16
 997 0028 4FF48073 		mov	r3, #256
 998 002c 0383     		strh	r3, [r0, #24]	@ movhi
 999              		.loc 1 389 0
 1000 002e 0322     		movs	r2, #3
 1001 0030 3621     		movs	r1, #54
 1002 0032 FFF7FEFF 		bl	_pal_lld_setgroupmode
 1003              	.LVL90:
 1004              		.loc 1 391 0
 1005 0036 0322     		movs	r2, #3
 1006 0038 0E21     		movs	r1, #14
 1007 003a 5948     		ldr	r0, .L68+20
 1008 003c FFF7FEFF 		bl	_pal_lld_setgroupmode
 1009              	.LVL91:
 1010              		.loc 1 393 0
 1011 0040 0322     		movs	r2, #3
 1012 0042 2046     		mov	r0, r4
 1013 0044 0121     		movs	r1, #1
 1014 0046 FFF7FEFF 		bl	_pal_lld_setgroupmode
 1015              	.LVL92:
 1016              		.loc 1 399 0
 1017 004a FFF7FEFF 		bl	shellInit
 1018              	.LVL93:
 1019              		.loc 1 405 0
 1020 004e 2846     		mov	r0, r5
 1021 0050 FFF7FEFF 		bl	sduObjectInit
 1022              	.LVL94:
 1023              		.loc 1 406 0
 1024 0054 3146     		mov	r1, r6
 1025 0056 2846     		mov	r0, r5
 1026 0058 FFF7FEFF 		bl	sduStart
ARM GAS  /tmp/ccwv8n5T.s 			page 19


 1027              	.LVL95:
 1028              		.loc 1 413 0
 1029 005c 3368     		ldr	r3, [r6]
 1030 005e 1A6D     		ldr	r2, [r3, #80]
 1031 0060 936B     		ldr	r3, [r2, #56]
 1032 0062 23F40023 		bic	r3, r3, #524288
 1033 0066 9363     		str	r3, [r2, #56]
 1034              		.loc 1 414 0
 1035 0068 42F21070 		movw	r0, #10000
 1036 006c FFF7FEFF 		bl	chThdSleep
 1037              	.LVL96:
 1038              		.loc 1 415 0
 1039 0070 3068     		ldr	r0, [r6]
 1040 0072 4C49     		ldr	r1, .L68+24
 1041 0074 FFF7FEFF 		bl	usbStart
 1042              	.LVL97:
 1043              		.loc 1 416 0
 1044 0078 3368     		ldr	r3, [r6]
 1045              		.loc 1 422 0
 1046 007a 4B48     		ldr	r0, .L68+28
 1047              		.loc 1 416 0
 1048 007c 1A6D     		ldr	r2, [r3, #80]
 1049 007e 936B     		ldr	r3, [r2, #56]
 1050 0080 43F40023 		orr	r3, r3, #524288
 1051 0084 9363     		str	r3, [r2, #56]
 1052              		.loc 1 422 0
 1053 0086 0021     		movs	r1, #0
 1054 0088 FFF7FEFF 		bl	sdStart
 1055              	.LVL98:
 1056              		.loc 1 423 0
 1057 008c 40F28232 		movw	r2, #898
 1058 0090 0421     		movs	r1, #4
 1059 0092 4348     		ldr	r0, .L68+20
 1060 0094 FFF7FEFF 		bl	_pal_lld_setgroupmode
 1061              	.LVL99:
 1062              		.loc 1 424 0
 1063 0098 40F28232 		movw	r2, #898
 1064 009c 0821     		movs	r1, #8
 1065 009e 4048     		ldr	r0, .L68+20
 1066 00a0 FFF7FEFF 		bl	_pal_lld_setgroupmode
 1067              	.LVL100:
 1068              		.loc 1 430 0
 1069 00a4 4149     		ldr	r1, .L68+32
 1070 00a6 4248     		ldr	r0, .L68+36
 1071 00a8 FFF7FEFF 		bl	spiStart
 1072              	.LVL101:
 1073              		.loc 1 440 0
 1074 00ac 4FF48056 		mov	r6, #4096
 1075              		.loc 1 439 0
 1076 00b0 4049     		ldr	r1, .L68+40
 1077 00b2 4148     		ldr	r0, .L68+44
 1078 00b4 FFF7FEFF 		bl	spiStart
 1079              	.LVL102:
 1080              		.loc 1 441 0
 1081 00b8 2046     		mov	r0, r4
 1082              		.loc 1 440 0
 1083 00ba 2683     		strh	r6, [r4, #24]	@ movhi
ARM GAS  /tmp/ccwv8n5T.s 			page 20


 1084              		.loc 1 441 0
 1085 00bc 3146     		mov	r1, r6
 1086 00be 1922     		movs	r2, #25
 1087 00c0 FFF7FEFF 		bl	_pal_lld_setgroupmode
 1088              	.LVL103:
 1089              		.loc 1 443 0
 1090 00c4 2046     		mov	r0, r4
 1091 00c6 40F29A22 		movw	r2, #666
 1092 00ca 4FF40051 		mov	r1, #8192
 1093 00ce FFF7FEFF 		bl	_pal_lld_setgroupmode
 1094              	.LVL104:
 1095              		.loc 1 445 0
 1096 00d2 2046     		mov	r0, r4
 1097 00d4 40F28222 		movw	r2, #642
 1098 00d8 4FF48041 		mov	r1, #16384
 1099 00dc FFF7FEFF 		bl	_pal_lld_setgroupmode
 1100              	.LVL105:
 1101              		.loc 1 446 0
 1102 00e0 2046     		mov	r0, r4
 1103 00e2 40F29A22 		movw	r2, #666
 1104 00e6 4FF40041 		mov	r1, #32768
 1105 00ea FFF7FEFF 		bl	_pal_lld_setgroupmode
 1106              	.LVL106:
 1107              		.loc 1 452 0
 1108 00ee 3349     		ldr	r1, .L68+48
 1109 00f0 3348     		ldr	r0, .L68+52
 1110 00f2 FFF7FEFF 		bl	pwmStart
 1111              	.LVL107:
 1112              		.loc 1 453 0
 1113 00f6 3146     		mov	r1, r6
 1114 00f8 4FF48172 		mov	r2, #258
 1115 00fc 2648     		ldr	r0, .L68+12
 1116 00fe FFF7FEFF 		bl	_pal_lld_setgroupmode
 1117              	.LVL108:
 1118              		.loc 1 454 0
 1119 0102 4FF48172 		mov	r2, #258
 1120 0106 4FF40051 		mov	r1, #8192
 1121 010a 2348     		ldr	r0, .L68+12
 1122 010c FFF7FEFF 		bl	_pal_lld_setgroupmode
 1123              	.LVL109:
 1124              		.loc 1 455 0
 1125 0110 4FF48172 		mov	r2, #258
 1126 0114 4FF48041 		mov	r1, #16384
 1127 0118 1F48     		ldr	r0, .L68+12
 1128 011a FFF7FEFF 		bl	_pal_lld_setgroupmode
 1129              	.LVL110:
 1130              		.loc 1 481 0
 1131 011e 0024     		movs	r4, #0
 1132              		.loc 1 456 0
 1133 0120 4FF48172 		mov	r2, #258
 1134 0124 4FF40041 		mov	r1, #32768
 1135 0128 1B48     		ldr	r0, .L68+12
 1136 012a FFF7FEFF 		bl	_pal_lld_setgroupmode
 1137              	.LVL111:
 1138              		.loc 1 481 0
 1139 012e 254B     		ldr	r3, .L68+56
 1140 0130 0094     		str	r4, [sp]
ARM GAS  /tmp/ccwv8n5T.s 			page 21


 1141 0132 4A22     		movs	r2, #74
 1142 0134 4FF4A471 		mov	r1, #328
 1143 0138 2348     		ldr	r0, .L68+60
 1144 013a FFF7FEFF 		bl	chThdCreateStatic
 1145              	.LVL112:
 1146              		.loc 1 488 0
 1147 013e FFF7FEFF 		bl	startADC
 1148              	.LVL113:
 1149              		.loc 1 489 0
 1150 0142 0094     		str	r4, [sp]
 1151 0144 214B     		ldr	r3, .L68+64
 1152 0146 2248     		ldr	r0, .L68+68
 1153 0148 4A22     		movs	r2, #74
 1154 014a 4FF4A471 		mov	r1, #328
 1155 014e FFF7FEFF 		bl	chThdCreateStatic
 1156              	.LVL114:
 1157              		.loc 1 500 0
 1158 0152 44B1     		cbz	r4, .L66
 1159              	.L62:
 1160              		.loc 1 508 0
 1161 0154 237F     		ldrb	r3, [r4, #28]	@ zero_extendqisi2
 1162 0156 0F2B     		cmp	r3, #15
 1163 0158 13D0     		beq	.L67
 1164              	.LVL115:
 1165              	.L63:
 1166              		.loc 1 514 0
 1167 015a 41F28830 		movw	r0, #5000
 1168 015e FFF7FEFF 		bl	chThdSleep
 1169              	.LVL116:
 1170              		.loc 1 500 0
 1171 0162 002C     		cmp	r4, #0
 1172 0164 F6D1     		bne	.L62
 1173              	.L66:
 1174              	.LVL117:
 1175              		.loc 1 501 0
 1176 0166 D5F85432 		ldr	r3, [r5, #596]
 1177 016a 1B68     		ldr	r3, [r3]
 1178 016c 1B78     		ldrb	r3, [r3]	@ zero_extendqisi2
 1179 016e 042B     		cmp	r3, #4
 1180 0170 F3D1     		bne	.L63
 1181              		.loc 1 503 0
 1182 0172 4022     		movs	r2, #64
 1183 0174 40F6C801 		movw	r1, #2248
 1184 0178 1648     		ldr	r0, .L68+72
 1185 017a FFF7FEFF 		bl	shellCreate
 1186              	.LVL118:
 1187 017e 0446     		mov	r4, r0
 1188              	.LVL119:
 1189 0180 EBE7     		b	.L63
 1190              	.LVL120:
 1191              	.L67:
 1192              		.loc 1 510 0
 1193 0182 2046     		mov	r0, r4
 1194 0184 FFF7FEFF 		bl	chThdRelease
 1195              	.LVL121:
 1196              		.loc 1 511 0
 1197 0188 0024     		movs	r4, #0
ARM GAS  /tmp/ccwv8n5T.s 			page 22


 1198              	.LVL122:
 1199 018a E6E7     		b	.L63
 1200              	.L69:
 1201              		.align	2
 1202              	.L68:
 1203 018c 00040240 		.word	1073873920
 1204 0190 00000000 		.word	.LANCHOR4
 1205 0194 00000000 		.word	serusbcfg
 1206 0198 000C0240 		.word	1073875968
 1207 019c 00080240 		.word	1073874944
 1208 01a0 00000240 		.word	1073872896
 1209 01a4 00000000 		.word	usbcfg
 1210 01a8 00000000 		.word	SD2
 1211 01ac 00000000 		.word	.LANCHOR10
 1212 01b0 00000000 		.word	SPID1
 1213 01b4 00000000 		.word	.LANCHOR11
 1214 01b8 00000000 		.word	SPID2
 1215 01bc 00000000 		.word	.LANCHOR12
 1216 01c0 00000000 		.word	PWMD4
 1217 01c4 00000000 		.word	Thread1
 1218 01c8 00000000 		.word	.LANCHOR13
 1219 01cc 00000000 		.word	Thread2
 1220 01d0 00000000 		.word	.LANCHOR14
 1221 01d4 00000000 		.word	.LANCHOR15
 1222              		.cfi_endproc
 1223              	.LFE268:
 1224              		.size	main, .-main
 1225              		.global	dat
 1226              		.global	count
 1227              		.global	samples
 1228              		.global	adccomplete
 1229              		.global	SDU1
 1230              		.section	.rodata.adcgrpcfg2,"a",%progbits
 1231              		.align	2
 1232              		.set	.LANCHOR8,. + 0
 1233              		.type	adcgrpcfg2, %object
 1234              		.size	adcgrpcfg2, 40
 1235              	adcgrpcfg2:
 1236 0000 01       		.byte	1
 1237 0001 00       		.space	1
 1238 0002 0800     		.short	8
 1239 0004 00000000 		.word	adccallback
 1240 0008 00000000 		.word	adcerrorcallback
 1241 000c 00000000 		.word	0
 1242 0010 00000018 		.word	402653184
 1243 0014 00000000 		.word	0
 1244 0018 00000000 		.word	0
 1245 001c 00007000 		.word	7340032
 1246 0020 0F010000 		.word	271
 1247 0024 8B05311C 		.word	472974731
 1248              		.section	.bss.waThread1,"aw",%nobits
 1249              		.align	3
 1250              		.set	.LANCHOR13,. + 0
 1251              		.type	waThread1, %object
 1252              		.size	waThread1, 328
 1253              	waThread1:
 1254 0000 00000000 		.space	328
ARM GAS  /tmp/ccwv8n5T.s 			page 23


 1254      00000000 
 1254      00000000 
 1254      00000000 
 1254      00000000 
 1255              		.section	.rodata.states.7931,"a",%progbits
 1256              		.align	2
 1257              		.set	.LANCHOR7,. + 0
 1258              		.type	states.7931, %object
 1259              		.size	states.7931, 64
 1260              	states.7931:
 1261 0000 E8000000 		.word	.LC10
 1262 0004 F0000000 		.word	.LC11
 1263 0008 F8000000 		.word	.LC12
 1264 000c 00010000 		.word	.LC13
 1265 0010 0C010000 		.word	.LC14
 1266 0014 14010000 		.word	.LC15
 1267 0018 1C010000 		.word	.LC16
 1268 001c 24010000 		.word	.LC17
 1269 0020 2C010000 		.word	.LC18
 1270 0024 38010000 		.word	.LC19
 1271 0028 40010000 		.word	.LC20
 1272 002c 48010000 		.word	.LC21
 1273 0030 54010000 		.word	.LC22
 1274 0034 5C010000 		.word	.LC23
 1275 0038 64010000 		.word	.LC24
 1276 003c 6C010000 		.word	.LC25
 1277              		.section	.bss.SDU1,"aw",%nobits
 1278              		.align	2
 1279              		.set	.LANCHOR4,. + 0
 1280              		.type	SDU1, %object
 1281              		.size	SDU1, 600
 1282              	SDU1:
 1283 0000 00000000 		.space	600
 1283      00000000 
 1283      00000000 
 1283      00000000 
 1283      00000000 
 1284              		.section	.bss.xbuf.7950,"aw",%nobits
 1285              		.align	2
 1286              		.set	.LANCHOR5,. + 0
 1287              		.type	xbuf.7950, %object
 1288              		.size	xbuf.7950, 4
 1289              	xbuf.7950:
 1290 0000 00000000 		.space	4
 1291              		.section	.rodata.shell_cfg1,"a",%progbits
 1292              		.align	2
 1293              		.set	.LANCHOR15,. + 0
 1294              		.type	shell_cfg1, %object
 1295              		.size	shell_cfg1, 8
 1296              	shell_cfg1:
 1297 0000 00000000 		.word	SDU1
 1298 0004 00000000 		.word	commands
 1299              		.section	.rodata.gpt1cfg,"a",%progbits
 1300              		.align	2
 1301              		.set	.LANCHOR9,. + 0
 1302              		.type	gpt1cfg, %object
 1303              		.size	gpt1cfg, 16
ARM GAS  /tmp/ccwv8n5T.s 			page 24


 1304              	gpt1cfg:
 1305 0000 40420F00 		.word	1000000
 1306 0004 00000000 		.word	gpt3cb
 1307 0008 20000000 		.word	32
 1308 000c 00000000 		.word	0
 1309              		.section	.bss.count,"aw",%nobits
 1310              		.align	1
 1311              		.set	.LANCHOR1,. + 0
 1312              		.type	count, %object
 1313              		.size	count, 2
 1314              	count:
 1315 0000 0000     		.space	2
 1316              		.section	.rodata.spi1cfg,"a",%progbits
 1317              		.align	2
 1318              		.set	.LANCHOR10,. + 0
 1319              		.type	spi1cfg, %object
 1320              		.size	spi1cfg, 12
 1321              	spi1cfg:
 1322 0000 00000000 		.word	0
 1323 0004 00100240 		.word	1073876992
 1324 0008 0300     		.short	3
 1325 000a 1B00     		.short	27
 1326              		.section	.rodata.spi2cfg,"a",%progbits
 1327              		.align	2
 1328              		.set	.LANCHOR11,. + 0
 1329              		.type	spi2cfg, %object
 1330              		.size	spi2cfg, 12
 1331              	spi2cfg:
 1332 0000 00000000 		.word	0
 1333 0004 00040240 		.word	1073873920
 1334 0008 0C00     		.short	12
 1335 000a 0000     		.short	0
 1336              		.section	.rodata.commands,"a",%progbits
 1337              		.align	2
 1338              		.type	commands, %object
 1339              		.size	commands, 32
 1340              	commands:
 1341 0000 74010000 		.word	.LC26
 1342 0004 00000000 		.word	cmd_mem
 1343 0008 78010000 		.word	.LC27
 1344 000c 00000000 		.word	cmd_threads
 1345 0010 80010000 		.word	.LC28
 1346 0014 00000000 		.word	cmd_test
 1347 0018 00000000 		.word	0
 1348 001c 00000000 		.word	0
 1349              		.section	.rodata.str1.4,"aMS",%progbits,1
 1350              		.align	2
 1351              	.LC0:
 1352 0000 72656164 		.ascii	"reader\000"
 1352      657200
 1353 0007 00       		.space	1
 1354              	.LC1:
 1355 0008 55736167 		.ascii	"Usage: test\015\012\000"
 1355      653A2074 
 1355      6573740D 
 1355      0A00
 1356 0016 0000     		.space	2
ARM GAS  /tmp/ccwv8n5T.s 			page 25


 1357              	.LC2:
 1358 0018 6F757420 		.ascii	"out of memory\015\012\000"
 1358      6F66206D 
 1358      656D6F72 
 1358      790D0A00 
 1359              	.LC3:
 1360 0028 55736167 		.ascii	"Usage: threads\015\012\000"
 1360      653A2074 
 1360      68726561 
 1360      64730D0A 
 1360      00
 1361 0039 000000   		.space	3
 1362              	.LC4:
 1363 003c 20202020 		.ascii	"    addr    stack prio refs     state\015\012\000"
 1363      61646472 
 1363      20202020 
 1363      73746163 
 1363      6B207072 
 1364              	.LC5:
 1365 0064 2530386C 		.ascii	"%08lx %08lx %4lu %4lu %9s\015\012\000"
 1365      78202530 
 1365      386C7820 
 1365      25346C75 
 1365      2025346C 
 1366              	.LC6:
 1367 0080 55736167 		.ascii	"Usage: mem\015\012\000"
 1367      653A206D 
 1367      656D0D0A 
 1367      00
 1368 008d 000000   		.space	3
 1369              	.LC7:
 1370 0090 636F7265 		.ascii	"core free memory : %u bytes\015\012\000"
 1370      20667265 
 1370      65206D65 
 1370      6D6F7279 
 1370      203A2025 
 1371 00ae 0000     		.space	2
 1372              	.LC8:
 1373 00b0 68656170 		.ascii	"heap fragments   : %u\015\012\000"
 1373      20667261 
 1373      676D656E 
 1373      74732020 
 1373      203A2025 
 1374              	.LC9:
 1375 00c8 68656170 		.ascii	"heap free total  : %u bytes\015\012\000"
 1375      20667265 
 1375      6520746F 
 1375      74616C20 
 1375      203A2025 
 1376 00e6 0000     		.space	2
 1377              	.LC10:
 1378 00e8 52454144 		.ascii	"READY\000"
 1378      5900
 1379 00ee 0000     		.space	2
 1380              	.LC11:
 1381 00f0 43555252 		.ascii	"CURRENT\000"
 1381      454E5400 
ARM GAS  /tmp/ccwv8n5T.s 			page 26


 1382              	.LC12:
 1383 00f8 57545354 		.ascii	"WTSTART\000"
 1383      41525400 
 1384              	.LC13:
 1385 0100 53555350 		.ascii	"SUSPENDED\000"
 1385      454E4445 
 1385      4400
 1386 010a 0000     		.space	2
 1387              	.LC14:
 1388 010c 51554555 		.ascii	"QUEUED\000"
 1388      454400
 1389 0113 00       		.space	1
 1390              	.LC15:
 1391 0114 57545345 		.ascii	"WTSEM\000"
 1391      4D00
 1392 011a 0000     		.space	2
 1393              	.LC16:
 1394 011c 57544D54 		.ascii	"WTMTX\000"
 1394      5800
 1395 0122 0000     		.space	2
 1396              	.LC17:
 1397 0124 5754434F 		.ascii	"WTCOND\000"
 1397      4E4400
 1398 012b 00       		.space	1
 1399              	.LC18:
 1400 012c 534C4545 		.ascii	"SLEEPING\000"
 1400      50494E47 
 1400      00
 1401 0135 000000   		.space	3
 1402              	.LC19:
 1403 0138 57544558 		.ascii	"WTEXIT\000"
 1403      495400
 1404 013f 00       		.space	1
 1405              	.LC20:
 1406 0140 57544F52 		.ascii	"WTOREVT\000"
 1406      45565400 
 1407              	.LC21:
 1408 0148 5754414E 		.ascii	"WTANDEVT\000"
 1408      44455654 
 1408      00
 1409 0151 000000   		.space	3
 1410              	.LC22:
 1411 0154 534E444D 		.ascii	"SNDMSGQ\000"
 1411      53475100 
 1412              	.LC23:
 1413 015c 534E444D 		.ascii	"SNDMSG\000"
 1413      534700
 1414 0163 00       		.space	1
 1415              	.LC24:
 1416 0164 57544D53 		.ascii	"WTMSG\000"
 1416      4700
 1417 016a 0000     		.space	2
 1418              	.LC25:
 1419 016c 46494E41 		.ascii	"FINAL\000"
 1419      4C00
 1420 0172 0000     		.space	2
 1421              	.LC26:
ARM GAS  /tmp/ccwv8n5T.s 			page 27


 1422 0174 6D656D00 		.ascii	"mem\000"
 1423              	.LC27:
 1424 0178 74687265 		.ascii	"threads\000"
 1424      61647300 
 1425              	.LC28:
 1426 0180 74657374 		.ascii	"test\000"
 1426      00
 1427              		.section	.rodata.pwmcfg,"a",%progbits
 1428              		.align	2
 1429              		.set	.LANCHOR12,. + 0
 1430              		.type	pwmcfg, %object
 1431              		.size	pwmcfg, 52
 1432              	pwmcfg:
 1433 0000 A0860100 		.word	100000
 1434 0004 80000000 		.word	128
 1435 0008 00000000 		.word	0
 1436 000c 01000000 		.word	1
 1437 0010 00000000 		.word	0
 1438 0014 01000000 		.word	1
 1439 0018 00000000 		.word	0
 1440 001c 01000000 		.word	1
 1441 0020 00000000 		.word	0
 1442 0024 01000000 		.word	1
 1443 0028 00000000 		.word	0
 1444 002c 00000000 		.word	0
 1445 0030 00000000 		.word	0
 1446              		.section	.bss.dat,"aw",%nobits
 1447              		.align	2
 1448              		.set	.LANCHOR2,. + 0
 1449              		.type	dat, %object
 1450              		.size	dat, 19
 1451              	dat:
 1452 0000 00000000 		.space	19
 1452      00000000 
 1452      00000000 
 1452      00000000 
 1452      000000
 1453              		.section	.bss.ybuf.7951,"aw",%nobits
 1454              		.align	2
 1455              		.set	.LANCHOR6,. + 0
 1456              		.type	ybuf.7951, %object
 1457              		.size	ybuf.7951, 4
 1458              	ybuf.7951:
 1459 0000 00000000 		.space	4
 1460              		.section	.data.adccomplete,"aw",%progbits
 1461              		.align	2
 1462              		.set	.LANCHOR0,. + 0
 1463              		.type	adccomplete, %object
 1464              		.size	adccomplete, 12
 1465              	adccomplete:
 1466 0000 00000000 		.word	adccomplete
 1467 0004 00000000 		.word	adccomplete
 1468 0008 00000000 		.word	0
 1469              		.section	.bss.waThread2,"aw",%nobits
 1470              		.align	3
 1471              		.set	.LANCHOR14,. + 0
 1472              		.type	waThread2, %object
ARM GAS  /tmp/ccwv8n5T.s 			page 28


 1473              		.size	waThread2, 328
 1474              	waThread2:
 1475 0000 00000000 		.space	328
 1475      00000000 
 1475      00000000 
 1475      00000000 
 1475      00000000 
 1476              		.section	.bss.samples,"aw",%nobits
 1477              		.align	2
 1478              		.set	.LANCHOR3,. + 0
 1479              		.type	samples, %object
 1480              		.size	samples, 16
 1481              	samples:
 1482 0000 00000000 		.space	16
 1482      00000000 
 1482      00000000 
 1482      00000000 
 1483              		.text
 1484              	.Letext0:
 1485              		.file 7 "/usr/lib/gcc/arm-none-eabi/5.3.1/include/stddef.h"
 1486              		.file 8 "/usr/arm-none-eabi/include/machine/_default_types.h"
 1487              		.file 9 "/usr/arm-none-eabi/include/sys/_stdint.h"
 1488              		.file 10 "/home/selim/working/ChibiOS/os/rt/ports/ARMCMx/compilers/GCC/chtypes.h"
 1489              		.file 11 "/home/selim/working/ChibiOS/os/rt/include/chsystypes.h"
 1490              		.file 12 "/home/selim/working/ChibiOS/os/rt/include/chschd.h"
 1491              		.file 13 "/home/selim/working/ChibiOS/os/ext/CMSIS/ST/stm32f407xx.h"
 1492              		.file 14 "/home/selim/working/ChibiOS/os/rt/ports/ARMCMx/chcore.h"
 1493              		.file 15 "/home/selim/working/ChibiOS/os/rt/ports/ARMCMx/chcore_v7m.h"
 1494              		.file 16 "/home/selim/working/ChibiOS/os/hal/ports/STM32/LLD/TIMv1/stm32_tim.h"
 1495              		.file 17 "/home/selim/working/ChibiOS/os/rt/include/chtm.h"
 1496              		.file 18 "/home/selim/working/ChibiOS/os/rt/include/chsem.h"
 1497              		.file 19 "/home/selim/working/ChibiOS/os/rt/include/chmtx.h"
 1498              		.file 20 "/home/selim/working/ChibiOS/os/rt/include/chevents.h"
 1499              		.file 21 "/home/selim/working/ChibiOS/os/rt/include/chqueues.h"
 1500              		.file 22 "/home/selim/working/ChibiOS/os/rt/include/chstreams.h"
 1501              		.file 23 "/home/selim/working/ChibiOS/os/hal/ports/STM32/STM32F4xx/stm32_dma.h"
 1502              		.file 24 "/home/selim/working/ChibiOS/os/hal/ports/STM32/LLD/GPIOv2/pal_lld.h"
 1503              		.file 25 "/home/selim/working/ChibiOS/os/hal/include/adc.h"
 1504              		.file 26 "/home/selim/working/ChibiOS/os/hal/ports/STM32/STM32F4xx/adc_lld.h"
 1505              		.file 27 "/home/selim/working/ChibiOS/os/hal/include/gpt.h"
 1506              		.file 28 "/home/selim/working/ChibiOS/os/hal/ports/STM32/LLD/TIMv1/gpt_lld.h"
 1507              		.file 29 "/home/selim/working/ChibiOS/os/hal/include/pwm.h"
 1508              		.file 30 "/home/selim/working/ChibiOS/os/hal/ports/STM32/LLD/TIMv1/pwm_lld.h"
 1509              		.file 31 "/home/selim/working/ChibiOS/os/hal/include/serial.h"
 1510              		.file 32 "/home/selim/working/ChibiOS/os/hal/include/spi.h"
 1511              		.file 33 "/home/selim/working/ChibiOS/os/hal/ports/STM32/LLD/SPIv1/spi_lld.h"
 1512              		.file 34 "/home/selim/working/ChibiOS/os/hal/include/usb.h"
 1513              		.file 35 "/home/selim/working/ChibiOS/os/hal/ports/STM32/LLD/OTGv1/usb_lld.h"
 1514              		.file 36 "/home/selim/working/ChibiOS/os/hal/ports/STM32/LLD/OTGv1/stm32_otg.h"
 1515              		.file 37 "/home/selim/working/ChibiOS/os/hal/include/serial_usb.h"
 1516              		.file 38 "/usr/lib/gcc/arm-none-eabi/5.3.1/include/stdarg.h"
 1517              		.file 39 "<built-in>"
 1518              		.file 40 "/home/selim/working/ChibiOS/os/various/shell.h"
 1519              		.file 41 "/home/selim/working/ChibiOS/os/rt/ports/ARMCMx/chcore_timer.h"
 1520              		.file 42 "/home/selim/working/ChibiOS/os/rt/include/chsys.h"
 1521              		.file 43 "/home/selim/working/ChibiOS/os/rt/include/chvt.h"
 1522              		.file 44 "/home/selim/working/ChibiOS/os/ext/CMSIS/include/core_cm4.h"
ARM GAS  /tmp/ccwv8n5T.s 			page 29


 1523              		.file 45 "/home/selim/working/ChibiOS/os/hal/ports/STM32/LLD/USARTv1/serial_lld.h"
 1524              		.file 46 "usbcfg.h"
 1525              		.file 47 "/home/selim/working/ChibiOS/os/various/devices_lib/accel/lis302dl.h"
 1526              		.file 48 "/home/selim/working/ChibiOS/os/rt/include/chdynamic.h"
 1527              		.file 49 "/home/selim/working/ChibiOS/os/rt/include/chregistry.h"
 1528              		.file 50 "/home/selim/working/ChibiOS/os/rt/include/chheap.h"
 1529              		.file 51 "/home/selim/working/ChibiOS/os/rt/include/chmemcore.h"
 1530              		.file 52 "/home/selim/working/ChibiOS/os/hal/include/hal.h"