ARM GAS  /tmp/cctsFDUV.s 			page 1


   1              		.syntax unified
   2              		.cpu cortex-m4
   3              		.fpu softvfp
   4              		.eabi_attribute 20, 1
   5              		.eabi_attribute 21, 1
   6              		.eabi_attribute 23, 3
   7              		.eabi_attribute 24, 1
   8              		.eabi_attribute 25, 1
   9              		.eabi_attribute 26, 1
  10              		.eabi_attribute 30, 2
  11              		.eabi_attribute 34, 1
  12              		.eabi_attribute 18, 4
  13              		.thumb
  14              		.syntax unified
  15              		.file	"test.c"
  16              		.text
  17              	.Ltext0:
  18              		.cfi_sections	.debug_frame
  19              		.section	.text.tmr,"ax",%progbits
  20              		.align	2
  21              		.p2align 4,,15
  22              		.thumb
  23              		.thumb_func
  24              		.type	tmr, %function
  25              	tmr:
  26              	.LFB271:
  27              		.file 1 "/home/selim/working/ChibiOS/test/rt/test.c"
  28              		.loc 1 264 0
  29              		.cfi_startproc
  30              		@ args = 0, pretend = 0, frame = 0
  31              		@ frame_needed = 0, uses_anonymous_args = 0
  32              		@ link register save eliminated.
  33              	.LVL0:
  34              		.loc 1 267 0
  35 0000 014B     		ldr	r3, .L2
  36 0002 0122     		movs	r2, #1
  37 0004 1A70     		strb	r2, [r3]
  38 0006 7047     		bx	lr
  39              	.L3:
  40              		.align	2
  41              	.L2:
  42 0008 00000000 		.word	.LANCHOR0
  43              		.cfi_endproc
  44              	.LFE271:
  45              		.size	tmr, .-tmr
  46              		.section	.text.print_line,"ax",%progbits
  47              		.align	2
  48              		.p2align 4,,15
  49              		.thumb
  50              		.thumb_func
  51              		.type	print_line, %function
  52              	print_line:
  53              	.LFB274:
  54              		.loc 1 303 0
  55              		.cfi_startproc
  56              		@ args = 0, pretend = 0, frame = 0
  57              		@ frame_needed = 0, uses_anonymous_args = 0
ARM GAS  /tmp/cctsFDUV.s 			page 2


  58              	.LVL1:
  59 0000 70B5     		push	{r4, r5, r6, lr}
  60              		.cfi_def_cfa_offset 16
  61              		.cfi_offset 4, -16
  62              		.cfi_offset 5, -12
  63              		.cfi_offset 6, -8
  64              		.cfi_offset 14, -4
  65 0002 094E     		ldr	r6, .L9
  66              		.loc 1 303 0
  67 0004 4C24     		movs	r4, #76
  68              	.LVL2:
  69              	.L5:
  70              		.loc 1 307 0 discriminator 3
  71 0006 3068     		ldr	r0, [r6]
  72 0008 074D     		ldr	r5, .L9
  73 000a 0368     		ldr	r3, [r0]
  74 000c 2D21     		movs	r1, #45
  75 000e 9B68     		ldr	r3, [r3, #8]
  76 0010 9847     		blx	r3
  77              	.LVL3:
  78              		.loc 1 306 0 discriminator 3
  79 0012 013C     		subs	r4, r4, #1
  80              	.LVL4:
  81 0014 F7D1     		bne	.L5
  82              		.loc 1 308 0
  83 0016 2868     		ldr	r0, [r5]
  84 0018 0449     		ldr	r1, .L9+4
  85 001a 0368     		ldr	r3, [r0]
  86 001c 0222     		movs	r2, #2
  87 001e 1B68     		ldr	r3, [r3]
  88              		.loc 1 309 0
  89 0020 BDE87040 		pop	{r4, r5, r6, lr}
  90              		.cfi_restore 14
  91              		.cfi_restore 6
  92              		.cfi_restore 5
  93              		.cfi_restore 4
  94              		.cfi_def_cfa_offset 0
  95              	.LVL5:
  96              		.loc 1 308 0
  97 0024 1847     		bx	r3
  98              	.LVL6:
  99              	.L10:
 100 0026 00BF     		.align	2
 101              	.L9:
 102 0028 00000000 		.word	.LANCHOR1
 103 002c 00000000 		.word	.LC0
 104              		.cfi_endproc
 105              	.LFE274:
 106              		.size	print_line, .-print_line
 107              		.section	.text.test_printn,"ax",%progbits
 108              		.align	2
 109              		.p2align 4,,15
 110              		.global	test_printn
 111              		.thumb
 112              		.thumb_func
 113              		.type	test_printn, %function
 114              	test_printn:
ARM GAS  /tmp/cctsFDUV.s 			page 3


 115              	.LFB258:
 116              		.loc 1 94 0
 117              		.cfi_startproc
 118              		@ args = 0, pretend = 0, frame = 16
 119              		@ frame_needed = 0, uses_anonymous_args = 0
 120              	.LVL7:
 121              		.loc 1 97 0
 122 0000 10B3     		cbz	r0, .L19
 123              		.loc 1 94 0
 124 0002 70B5     		push	{r4, r5, r6, lr}
 125              		.cfi_def_cfa_offset 16
 126              		.cfi_offset 4, -16
 127              		.cfi_offset 5, -12
 128              		.cfi_offset 6, -8
 129              		.cfi_offset 14, -4
 130              		.loc 1 102 0
 131 0004 134A     		ldr	r2, .L21
 132              		.loc 1 94 0
 133 0006 84B0     		sub	sp, sp, #16
 134              		.cfi_def_cfa_offset 32
 135 0008 6D46     		mov	r5, sp
 136 000a 6C46     		mov	r4, sp
 137              	.L13:
 138              	.LVL8:
 139              		.loc 1 102 0
 140 000c A2FB0013 		umull	r1, r3, r2, r0
 141 0010 DB08     		lsrs	r3, r3, #3
 142 0012 03EB8301 		add	r1, r3, r3, lsl #2
 143 0016 A0EB4100 		sub	r0, r0, r1, lsl #1
 144              	.LVL9:
 145 001a 00F13001 		add	r1, r0, #48
 146 001e C9B2     		uxtb	r1, r1
 147 0020 04F8011B 		strb	r1, [r4], #1
 148              	.LVL10:
 149              		.loc 1 101 0
 150 0024 1846     		mov	r0, r3
 151 0026 002B     		cmp	r3, #0
 152 0028 F0D1     		bne	.L13
 153              		.loc 1 103 0
 154 002a AC42     		cmp	r4, r5
 155 002c 0AD9     		bls	.L11
 156 002e 0A4E     		ldr	r6, .L21+4
 157 0030 013C     		subs	r4, r4, #1
 158              	.LVL11:
 159 0032 01E0     		b	.L15
 160              	.LVL12:
 161              	.L20:
 162 0034 14F8011D 		ldrb	r1, [r4, #-1]!	@ zero_extendqisi2
 163              	.LVL13:
 164              	.L15:
 165              		.loc 1 104 0
 166 0038 3068     		ldr	r0, [r6]
 167              	.LVL14:
 168 003a 0368     		ldr	r3, [r0]
 169 003c 9B68     		ldr	r3, [r3, #8]
 170 003e 9847     		blx	r3
 171              	.LVL15:
ARM GAS  /tmp/cctsFDUV.s 			page 4


 172              		.loc 1 103 0
 173 0040 AC42     		cmp	r4, r5
 174 0042 F7D1     		bne	.L20
 175              	.LVL16:
 176              	.L11:
 177              		.loc 1 106 0
 178 0044 04B0     		add	sp, sp, #16
 179              		.cfi_def_cfa_offset 16
 180              		@ sp needed
 181 0046 70BD     		pop	{r4, r5, r6, pc}
 182              	.LVL17:
 183              	.L19:
 184              		.cfi_def_cfa_offset 0
 185              		.cfi_restore 4
 186              		.cfi_restore 5
 187              		.cfi_restore 6
 188              		.cfi_restore 14
 189              	.LBB173:
 190              	.LBB174:
 191              		.loc 1 98 0
 192 0048 034B     		ldr	r3, .L21+4
 193 004a 1868     		ldr	r0, [r3]
 194              	.LVL18:
 195 004c 0368     		ldr	r3, [r0]
 196 004e 3021     		movs	r1, #48
 197 0050 9B68     		ldr	r3, [r3, #8]
 198 0052 1847     		bx	r3
 199              	.LVL19:
 200              	.L22:
 201              		.align	2
 202              	.L21:
 203 0054 CDCCCCCC 		.word	-858993459
 204 0058 00000000 		.word	.LANCHOR1
 205              	.LBE174:
 206              	.LBE173:
 207              		.cfi_endproc
 208              	.LFE258:
 209              		.size	test_printn, .-test_printn
 210              		.section	.text.test_print,"ax",%progbits
 211              		.align	2
 212              		.p2align 4,,15
 213              		.global	test_print
 214              		.thumb
 215              		.thumb_func
 216              		.type	test_print, %function
 217              	test_print:
 218              	.LFB259:
 219              		.loc 1 113 0
 220              		.cfi_startproc
 221              		@ args = 0, pretend = 0, frame = 0
 222              		@ frame_needed = 0, uses_anonymous_args = 0
 223              	.LVL20:
 224              		.loc 1 115 0
 225 0000 0178     		ldrb	r1, [r0]	@ zero_extendqisi2
 226 0002 59B1     		cbz	r1, .L29
 227              		.loc 1 113 0
 228 0004 38B5     		push	{r3, r4, r5, lr}
ARM GAS  /tmp/cctsFDUV.s 			page 5


 229              		.cfi_def_cfa_offset 16
 230              		.cfi_offset 3, -16
 231              		.cfi_offset 4, -12
 232              		.cfi_offset 5, -8
 233              		.cfi_offset 14, -4
 234 0006 064D     		ldr	r5, .L30
 235 0008 0446     		mov	r4, r0
 236              	.LVL21:
 237              	.L25:
 238              		.loc 1 116 0
 239 000a 2868     		ldr	r0, [r5]
 240 000c 0368     		ldr	r3, [r0]
 241 000e 9B68     		ldr	r3, [r3, #8]
 242 0010 9847     		blx	r3
 243              	.LVL22:
 244              		.loc 1 115 0
 245 0012 14F8011F 		ldrb	r1, [r4, #1]!	@ zero_extendqisi2
 246              	.LVL23:
 247 0016 0029     		cmp	r1, #0
 248 0018 F7D1     		bne	.L25
 249 001a 38BD     		pop	{r3, r4, r5, pc}
 250              	.LVL24:
 251              	.L29:
 252              		.cfi_def_cfa_offset 0
 253              		.cfi_restore 3
 254              		.cfi_restore 4
 255              		.cfi_restore 5
 256              		.cfi_restore 14
 257 001c 7047     		bx	lr
 258              	.L31:
 259 001e 00BF     		.align	2
 260              	.L30:
 261 0020 00000000 		.word	.LANCHOR1
 262              		.cfi_endproc
 263              	.LFE259:
 264              		.size	test_print, .-test_print
 265              		.section	.text.test_println,"ax",%progbits
 266              		.align	2
 267              		.p2align 4,,15
 268              		.global	test_println
 269              		.thumb
 270              		.thumb_func
 271              		.type	test_println, %function
 272              	test_println:
 273              	.LFB260:
 274              		.loc 1 124 0
 275              		.cfi_startproc
 276              		@ args = 0, pretend = 0, frame = 0
 277              		@ frame_needed = 0, uses_anonymous_args = 0
 278              	.LVL25:
 279 0000 70B5     		push	{r4, r5, r6, lr}
 280              		.cfi_def_cfa_offset 16
 281              		.cfi_offset 4, -16
 282              		.cfi_offset 5, -12
 283              		.cfi_offset 6, -8
 284              		.cfi_offset 14, -4
 285              	.LBB175:
ARM GAS  /tmp/cctsFDUV.s 			page 6


 286              	.LBB176:
 287              		.loc 1 115 0
 288 0002 0178     		ldrb	r1, [r0]	@ zero_extendqisi2
 289 0004 89B1     		cbz	r1, .L38
 290 0006 0A4D     		ldr	r5, .L39
 291 0008 0446     		mov	r4, r0
 292              	.LVL26:
 293              	.L34:
 294              		.loc 1 116 0
 295 000a 2868     		ldr	r0, [r5]
 296 000c 0368     		ldr	r3, [r0]
 297 000e 9B68     		ldr	r3, [r3, #8]
 298 0010 9847     		blx	r3
 299              	.LVL27:
 300              		.loc 1 115 0
 301 0012 14F8011F 		ldrb	r1, [r4, #1]!	@ zero_extendqisi2
 302              	.LVL28:
 303 0016 0029     		cmp	r1, #0
 304 0018 F7D1     		bne	.L34
 305              	.LVL29:
 306              	.L35:
 307              	.LBE176:
 308              	.LBE175:
 309              		.loc 1 127 0
 310 001a 2868     		ldr	r0, [r5]
 311 001c 0549     		ldr	r1, .L39+4
 312 001e 0368     		ldr	r3, [r0]
 313 0020 0222     		movs	r2, #2
 314 0022 1B68     		ldr	r3, [r3]
 315              		.loc 1 128 0
 316 0024 BDE87040 		pop	{r4, r5, r6, lr}
 317              		.cfi_remember_state
 318              		.cfi_restore 14
 319              		.cfi_restore 6
 320              		.cfi_restore 5
 321              		.cfi_restore 4
 322              		.cfi_def_cfa_offset 0
 323              		.loc 1 127 0
 324 0028 1847     		bx	r3
 325              	.LVL30:
 326              	.L38:
 327              		.cfi_restore_state
 328 002a 014D     		ldr	r5, .L39
 329 002c F5E7     		b	.L35
 330              	.L40:
 331 002e 00BF     		.align	2
 332              	.L39:
 333 0030 00000000 		.word	.LANCHOR1
 334 0034 00000000 		.word	.LC0
 335              		.cfi_endproc
 336              	.LFE260:
 337              		.size	test_println, .-test_println
 338              		.section	.text.test_emit_token,"ax",%progbits
 339              		.align	2
 340              		.p2align 4,,15
 341              		.global	test_emit_token
 342              		.thumb
ARM GAS  /tmp/cctsFDUV.s 			page 7


 343              		.thumb_func
 344              		.type	test_emit_token, %function
 345              	test_emit_token:
 346              	.LFB263:
 347              		.loc 1 150 0
 348              		.cfi_startproc
 349              		@ args = 0, pretend = 0, frame = 0
 350              		@ frame_needed = 0, uses_anonymous_args = 0
 351              		@ link register save eliminated.
 352              	.LVL31:
 353              	.LBB177:
 354              	.LBB178:
 355              	.LBB179:
 356              	.LBB180:
 357              		.file 2 "/home/selim/working/ChibiOS/os/ext/CMSIS/include/core_cmFunc.h"
 358              		.loc 2 546 0
 359 0000 2023     		movs	r3, #32
 360              		.syntax unified
 361              	@ 546 "/home/selim/working/ChibiOS/os/ext/CMSIS/include/core_cmFunc.h" 1
 362 0002 83F31188 		MSR basepri, r3
 363              	@ 0 "" 2
 364              	.LVL32:
 365              		.thumb
 366              		.syntax unified
 367              	.LBE180:
 368              	.LBE179:
 369              	.LBE178:
 370              	.LBE177:
 371              		.loc 1 153 0
 372 0006 044B     		ldr	r3, .L42
 373 0008 1A68     		ldr	r2, [r3]
 374 000a 511C     		adds	r1, r2, #1
 375 000c 1960     		str	r1, [r3]
 376 000e 1070     		strb	r0, [r2]
 377              	.LVL33:
 378              	.LBB181:
 379              	.LBB182:
 380              	.LBB183:
 381              	.LBB184:
 382              	.LBB185:
 383              		.loc 2 546 0
 384 0010 0023     		movs	r3, #0
 385              		.syntax unified
 386              	@ 546 "/home/selim/working/ChibiOS/os/ext/CMSIS/include/core_cmFunc.h" 1
 387 0012 83F31188 		MSR basepri, r3
 388              	@ 0 "" 2
 389              	.LVL34:
 390              		.thumb
 391              		.syntax unified
 392 0016 7047     		bx	lr
 393              	.L43:
 394              		.align	2
 395              	.L42:
 396 0018 00000000 		.word	.LANCHOR2
 397              	.LBE185:
 398              	.LBE184:
 399              	.LBE183:
ARM GAS  /tmp/cctsFDUV.s 			page 8


 400              	.LBE182:
 401              	.LBE181:
 402              		.cfi_endproc
 403              	.LFE263:
 404              		.size	test_emit_token, .-test_emit_token
 405              		.section	.text._test_fail,"ax",%progbits
 406              		.align	2
 407              		.p2align 4,,15
 408              		.global	_test_fail
 409              		.thumb
 410              		.thumb_func
 411              		.type	_test_fail, %function
 412              	_test_fail:
 413              	.LFB264:
 414              		.loc 1 160 0
 415              		.cfi_startproc
 416              		@ args = 0, pretend = 0, frame = 0
 417              		@ frame_needed = 0, uses_anonymous_args = 0
 418              		@ link register save eliminated.
 419              	.LVL35:
 420              		.loc 1 164 0
 421 0000 0349     		ldr	r1, .L45
 422              		.loc 1 162 0
 423 0002 044A     		ldr	r2, .L45+4
 424              		.loc 1 163 0
 425 0004 044B     		ldr	r3, .L45+8
 426              		.loc 1 164 0
 427 0006 0860     		str	r0, [r1]
 428              		.loc 1 162 0
 429 0008 0120     		movs	r0, #1
 430              	.LVL36:
 431 000a 1070     		strb	r0, [r2]
 432              		.loc 1 163 0
 433 000c 1870     		strb	r0, [r3]
 434              		.loc 1 166 0
 435 000e 7047     		bx	lr
 436              	.L46:
 437              		.align	2
 438              	.L45:
 439 0010 00000000 		.word	.LANCHOR5
 440 0014 00000000 		.word	.LANCHOR3
 441 0018 00000000 		.word	.LANCHOR4
 442              		.cfi_endproc
 443              	.LFE264:
 444              		.size	_test_fail, .-_test_fail
 445              		.section	.text._test_assert,"ax",%progbits
 446              		.align	2
 447              		.p2align 4,,15
 448              		.global	_test_assert
 449              		.thumb
 450              		.thumb_func
 451              		.type	_test_assert, %function
 452              	_test_assert:
 453              	.LFB265:
 454              		.loc 1 168 0
 455              		.cfi_startproc
 456              		@ args = 0, pretend = 0, frame = 0
ARM GAS  /tmp/cctsFDUV.s 			page 9


 457              		@ frame_needed = 0, uses_anonymous_args = 0
 458              		@ link register save eliminated.
 459              	.LVL37:
 460              		.loc 1 170 0
 461 0000 51B9     		cbnz	r1, .L49
 462              	.LVL38:
 463              		.loc 1 168 0
 464 0002 10B4     		push	{r4}
 465              		.cfi_def_cfa_offset 4
 466              		.cfi_offset 4, -4
 467              	.LBB186:
 468              	.LBB187:
 469              		.loc 1 163 0
 470 0004 0649     		ldr	r1, .L52
 471              	.LVL39:
 472              		.loc 1 162 0
 473 0006 074C     		ldr	r4, .L52+4
 474              		.loc 1 164 0
 475 0008 074A     		ldr	r2, .L52+8
 476              		.loc 1 162 0
 477 000a 0123     		movs	r3, #1
 478 000c 2370     		strb	r3, [r4]
 479              		.loc 1 164 0
 480 000e 1060     		str	r0, [r2]
 481              	.LVL40:
 482              		.loc 1 163 0
 483 0010 0B70     		strb	r3, [r1]
 484              	.LBE187:
 485              	.LBE186:
 486              		.loc 1 173 0
 487 0012 1846     		mov	r0, r3
 488              	.LVL41:
 489 0014 10BC     		pop	{r4}
 490              		.cfi_restore 4
 491              		.cfi_def_cfa_offset 0
 492 0016 7047     		bx	lr
 493              	.LVL42:
 494              	.L49:
 495              		.loc 1 172 0
 496 0018 0023     		movs	r3, #0
 497              		.loc 1 173 0
 498 001a 1846     		mov	r0, r3
 499              	.LVL43:
 500 001c 7047     		bx	lr
 501              	.L53:
 502 001e 00BF     		.align	2
 503              	.L52:
 504 0020 00000000 		.word	.LANCHOR4
 505 0024 00000000 		.word	.LANCHOR3
 506 0028 00000000 		.word	.LANCHOR5
 507              		.cfi_endproc
 508              	.LFE265:
 509              		.size	_test_assert, .-_test_assert
 510              		.section	.text._test_assert_sequence,"ax",%progbits
 511              		.align	2
 512              		.p2align 4,,15
 513              		.global	_test_assert_sequence
ARM GAS  /tmp/cctsFDUV.s 			page 10


 514              		.thumb
 515              		.thumb_func
 516              		.type	_test_assert_sequence, %function
 517              	_test_assert_sequence:
 518              	.LFB266:
 519              		.loc 1 175 0
 520              		.cfi_startproc
 521              		@ args = 0, pretend = 0, frame = 0
 522              		@ frame_needed = 0, uses_anonymous_args = 0
 523              		@ link register save eliminated.
 524              	.LVL44:
 525 0000 F0B4     		push	{r4, r5, r6, r7}
 526              		.cfi_def_cfa_offset 16
 527              		.cfi_offset 4, -16
 528              		.cfi_offset 5, -12
 529              		.cfi_offset 6, -8
 530              		.cfi_offset 7, -4
 531 0002 0E4E     		ldr	r6, .L61
 532              		.loc 1 176 0
 533 0004 0E4F     		ldr	r7, .L61+4
 534 0006 3568     		ldr	r5, [r6]
 535 0008 3B46     		mov	r3, r7
 536              		.loc 1 177 0
 537 000a 05E0     		b	.L55
 538              	.LVL45:
 539              	.L57:
 540              		.loc 1 178 0
 541 000c 13F8014B 		ldrb	r4, [r3], #1	@ zero_extendqisi2
 542              	.LVL46:
 543 0010 11F8012B 		ldrb	r2, [r1], #1	@ zero_extendqisi2
 544              	.LVL47:
 545 0014 9442     		cmp	r4, r2
 546 0016 07D1     		bne	.L58
 547              	.LVL48:
 548              	.L55:
 549              		.loc 1 177 0
 550 0018 AB42     		cmp	r3, r5
 551 001a F7D3     		bcc	.L57
 552              		.loc 1 181 0
 553 001c 0B78     		ldrb	r3, [r1]	@ zero_extendqisi2
 554              	.LVL49:
 555 001e 1BB9     		cbnz	r3, .L58
 556              	.LBB188:
 557              	.LBB189:
 558              		.loc 1 135 0
 559 0020 3760     		str	r7, [r6]
 560              	.LBE189:
 561              	.LBE188:
 562              		.loc 1 185 0
 563 0022 1846     		mov	r0, r3
 564              	.LVL50:
 565 0024 F0BC     		pop	{r4, r5, r6, r7}
 566              		.cfi_remember_state
 567              		.cfi_restore 4
 568              		.cfi_restore 5
 569              		.cfi_restore 6
 570              		.cfi_restore 7
ARM GAS  /tmp/cctsFDUV.s 			page 11


 571              		.cfi_def_cfa_offset 0
 572 0026 7047     		bx	lr
 573              	.LVL51:
 574              	.L58:
 575              		.cfi_restore_state
 576              	.LBB190:
 577              	.LBB191:
 578              		.loc 1 162 0
 579 0028 064C     		ldr	r4, .L61+8
 580              		.loc 1 163 0
 581 002a 0749     		ldr	r1, .L61+12
 582              		.loc 1 164 0
 583 002c 074A     		ldr	r2, .L61+16
 584              		.loc 1 162 0
 585 002e 0123     		movs	r3, #1
 586 0030 2370     		strb	r3, [r4]
 587              		.loc 1 164 0
 588 0032 1060     		str	r0, [r2]
 589              	.LVL52:
 590              		.loc 1 163 0
 591 0034 0B70     		strb	r3, [r1]
 592              	.LBE191:
 593              	.LBE190:
 594              		.loc 1 185 0
 595 0036 1846     		mov	r0, r3
 596              	.LVL53:
 597 0038 F0BC     		pop	{r4, r5, r6, r7}
 598              		.cfi_restore 7
 599              		.cfi_restore 6
 600              		.cfi_restore 5
 601              		.cfi_restore 4
 602              		.cfi_def_cfa_offset 0
 603 003a 7047     		bx	lr
 604              	.L62:
 605              		.align	2
 606              	.L61:
 607 003c 00000000 		.word	.LANCHOR2
 608 0040 00000000 		.word	.LANCHOR6
 609 0044 00000000 		.word	.LANCHOR3
 610 0048 00000000 		.word	.LANCHOR4
 611 004c 00000000 		.word	.LANCHOR5
 612              		.cfi_endproc
 613              	.LFE266:
 614              		.size	_test_assert_sequence, .-_test_assert_sequence
 615              		.section	.text._test_assert_time_window,"ax",%progbits
 616              		.align	2
 617              		.p2align 4,,15
 618              		.global	_test_assert_time_window
 619              		.thumb
 620              		.thumb_func
 621              		.type	_test_assert_time_window, %function
 622              	_test_assert_time_window:
 623              	.LFB267:
 624              		.loc 1 187 0
 625              		.cfi_startproc
 626              		@ args = 0, pretend = 0, frame = 0
 627              		@ frame_needed = 0, uses_anonymous_args = 0
ARM GAS  /tmp/cctsFDUV.s 			page 12


 628              		@ link register save eliminated.
 629              	.LVL54:
 630 0000 10B4     		push	{r4}
 631              		.cfi_def_cfa_offset 4
 632              		.cfi_offset 4, -4
 633              	.LBB192:
 634              	.LBB193:
 635              	.LBB194:
 636              	.LBB195:
 637              	.LBB196:
 638              	.LBB197:
 639              	.LBB198:
 640              		.loc 2 546 0
 641 0002 2023     		movs	r3, #32
 642              		.syntax unified
 643              	@ 546 "/home/selim/working/ChibiOS/os/ext/CMSIS/include/core_cmFunc.h" 1
 644 0004 83F31188 		MSR basepri, r3
 645              	@ 0 "" 2
 646              	.LVL55:
 647              		.thumb
 648              		.syntax unified
 649              	.LBE198:
 650              	.LBE197:
 651              	.LBE196:
 652              	.LBE195:
 653              	.LBB199:
 654              	.LBB200:
 655              	.LBB201:
 656              	.LBB202:
 657              		.file 3 "/home/selim/working/ChibiOS/os/hal/ports/STM32/LLD/TIMv1/st_lld.h"
 658              		.loc 3 129 0
 659 0008 4FF08044 		mov	r4, #1073741824
 660              	.LBE202:
 661              	.LBE201:
 662              	.LBE200:
 663              	.LBE199:
 664              	.LBB206:
 665              	.LBB207:
 666              	.LBB208:
 667              	.LBB209:
 668              	.LBB210:
 669              		.loc 2 546 0
 670 000c 0023     		movs	r3, #0
 671              	.LBE210:
 672              	.LBE209:
 673              	.LBE208:
 674              	.LBE207:
 675              	.LBE206:
 676              	.LBB215:
 677              	.LBB205:
 678              	.LBB204:
 679              	.LBB203:
 680              		.loc 3 129 0
 681 000e 646A     		ldr	r4, [r4, #36]
 682              	.LVL56:
 683              	.LBE203:
 684              	.LBE204:
ARM GAS  /tmp/cctsFDUV.s 			page 13


 685              	.LBE205:
 686              	.LBE215:
 687              	.LBB216:
 688              	.LBB214:
 689              	.LBB213:
 690              	.LBB212:
 691              	.LBB211:
 692              		.loc 2 546 0
 693              		.syntax unified
 694              	@ 546 "/home/selim/working/ChibiOS/os/ext/CMSIS/include/core_cmFunc.h" 1
 695 0010 83F31188 		MSR basepri, r3
 696              	@ 0 "" 2
 697              	.LVL57:
 698              		.thumb
 699              		.syntax unified
 700              	.LBE211:
 701              	.LBE212:
 702              	.LBE213:
 703              	.LBE214:
 704              	.LBE216:
 705              	.LBE194:
 706              	.LBE193:
 707              	.LBE192:
 708              	.LBB217:
 709              	.LBB218:
 710              		.loc 1 170 0
 711 0014 641A     		subs	r4, r4, r1
 712 0016 521A     		subs	r2, r2, r1
 713              	.LVL58:
 714 0018 9442     		cmp	r4, r2
 715 001a 06D3     		bcc	.L64
 716              	.LVL59:
 717              	.LBB219:
 718              	.LBB220:
 719              		.loc 1 162 0
 720 001c 044C     		ldr	r4, .L67
 721              		.loc 1 163 0
 722 001e 0549     		ldr	r1, .L67+4
 723              	.LVL60:
 724              		.loc 1 164 0
 725 0020 054A     		ldr	r2, .L67+8
 726              		.loc 1 162 0
 727 0022 0123     		movs	r3, #1
 728 0024 2370     		strb	r3, [r4]
 729              		.loc 1 163 0
 730 0026 0B70     		strb	r3, [r1]
 731              		.loc 1 164 0
 732 0028 1060     		str	r0, [r2]
 733              	.LVL61:
 734              	.L64:
 735              	.LBE220:
 736              	.LBE219:
 737              	.LBE218:
 738              	.LBE217:
 739              		.loc 1 190 0
 740 002a 1846     		mov	r0, r3
 741              	.LVL62:
ARM GAS  /tmp/cctsFDUV.s 			page 14


 742 002c 10BC     		pop	{r4}
 743              		.cfi_restore 4
 744              		.cfi_def_cfa_offset 0
 745 002e 7047     		bx	lr
 746              	.L68:
 747              		.align	2
 748              	.L67:
 749 0030 00000000 		.word	.LANCHOR3
 750 0034 00000000 		.word	.LANCHOR4
 751 0038 00000000 		.word	.LANCHOR5
 752              		.cfi_endproc
 753              	.LFE267:
 754              		.size	_test_assert_time_window, .-_test_assert_time_window
 755              		.section	.text.test_terminate_threads,"ax",%progbits
 756              		.align	2
 757              		.p2align 4,,15
 758              		.global	test_terminate_threads
 759              		.thumb
 760              		.thumb_func
 761              		.type	test_terminate_threads, %function
 762              	test_terminate_threads:
 763              	.LFB268:
 764              		.loc 1 199 0
 765              		.cfi_startproc
 766              		@ args = 0, pretend = 0, frame = 0
 767              		@ frame_needed = 0, uses_anonymous_args = 0
 768              	.LVL63:
 769 0000 38B5     		push	{r3, r4, r5, lr}
 770              		.cfi_def_cfa_offset 16
 771              		.cfi_offset 3, -16
 772              		.cfi_offset 4, -12
 773              		.cfi_offset 5, -8
 774              		.cfi_offset 14, -4
 775 0002 064C     		ldr	r4, .L77
 776 0004 04F11405 		add	r5, r4, #20
 777              	.LVL64:
 778              	.L71:
 779              		.loc 1 203 0
 780 0008 54F8043B 		ldr	r3, [r4], #4
 781              		.loc 1 204 0
 782 000c 1846     		mov	r0, r3
 783              		.loc 1 203 0
 784 000e 0BB1     		cbz	r3, .L70
 785              		.loc 1 204 0
 786 0010 FFF7FEFF 		bl	chThdTerminate
 787              	.LVL65:
 788              	.L70:
 789              		.loc 1 202 0 discriminator 2
 790 0014 AC42     		cmp	r4, r5
 791 0016 F7D1     		bne	.L71
 792              		.loc 1 205 0
 793 0018 38BD     		pop	{r3, r4, r5, pc}
 794              	.L78:
 795 001a 00BF     		.align	2
 796              	.L77:
 797 001c 00000000 		.word	.LANCHOR7
 798              		.cfi_endproc
ARM GAS  /tmp/cctsFDUV.s 			page 15


 799              	.LFE268:
 800              		.size	test_terminate_threads, .-test_terminate_threads
 801              		.section	.text.test_wait_threads,"ax",%progbits
 802              		.align	2
 803              		.p2align 4,,15
 804              		.global	test_wait_threads
 805              		.thumb
 806              		.thumb_func
 807              		.type	test_wait_threads, %function
 808              	test_wait_threads:
 809              	.LFB269:
 810              		.loc 1 210 0
 811              		.cfi_startproc
 812              		@ args = 0, pretend = 0, frame = 0
 813              		@ frame_needed = 0, uses_anonymous_args = 0
 814              	.LVL66:
 815 0000 70B5     		push	{r4, r5, r6, lr}
 816              		.cfi_def_cfa_offset 16
 817              		.cfi_offset 4, -16
 818              		.cfi_offset 5, -12
 819              		.cfi_offset 6, -8
 820              		.cfi_offset 14, -4
 821 0002 074C     		ldr	r4, .L87
 822              		.loc 1 216 0
 823 0004 0026     		movs	r6, #0
 824 0006 04F11405 		add	r5, r4, #20
 825              	.LVL67:
 826              	.L81:
 827              		.loc 1 214 0
 828 000a 54F8040B 		ldr	r0, [r4], #4
 829 000e 18B1     		cbz	r0, .L80
 830              		.loc 1 215 0
 831 0010 FFF7FEFF 		bl	chThdWait
 832              	.LVL68:
 833              		.loc 1 216 0
 834 0014 44F8046C 		str	r6, [r4, #-4]
 835              	.L80:
 836              		.loc 1 213 0 discriminator 2
 837 0018 AC42     		cmp	r4, r5
 838 001a F6D1     		bne	.L81
 839              		.loc 1 218 0
 840 001c 70BD     		pop	{r4, r5, r6, pc}
 841              	.L88:
 842 001e 00BF     		.align	2
 843              	.L87:
 844 0020 00000000 		.word	.LANCHOR7
 845              		.cfi_endproc
 846              	.LFE269:
 847              		.size	test_wait_threads, .-test_wait_threads
 848              		.section	.text.test_wait_tick,"ax",%progbits
 849              		.align	2
 850              		.p2align 4,,15
 851              		.global	test_wait_tick
 852              		.thumb
 853              		.thumb_func
 854              		.type	test_wait_tick, %function
 855              	test_wait_tick:
ARM GAS  /tmp/cctsFDUV.s 			page 16


 856              	.LFB270:
 857              		.loc 1 248 0
 858              		.cfi_startproc
 859              		@ args = 0, pretend = 0, frame = 0
 860              		@ frame_needed = 0, uses_anonymous_args = 0
 861 0000 08B5     		push	{r3, lr}
 862              		.cfi_def_cfa_offset 8
 863              		.cfi_offset 3, -8
 864              		.cfi_offset 14, -4
 865              		.loc 1 250 0
 866 0002 0120     		movs	r0, #1
 867 0004 FFF7FEFF 		bl	chThdSleep
 868              	.LVL69:
 869              	.LBB221:
 870              	.LBB222:
 871              	.LBB223:
 872              	.LBB224:
 873              	.LBB225:
 874              	.LBB226:
 875              		.loc 2 546 0
 876 0008 2023     		movs	r3, #32
 877              		.syntax unified
 878              	@ 546 "/home/selim/working/ChibiOS/os/ext/CMSIS/include/core_cmFunc.h" 1
 879 000a 83F31188 		MSR basepri, r3
 880              	@ 0 "" 2
 881              	.LVL70:
 882              		.thumb
 883              		.syntax unified
 884              	.LBE226:
 885              	.LBE225:
 886              	.LBE224:
 887              	.LBE223:
 888              	.LBB227:
 889              	.LBB228:
 890              	.LBB229:
 891              	.LBB230:
 892              		.loc 3 129 0
 893 000e 4FF08042 		mov	r2, #1073741824
 894              	.LBE230:
 895              	.LBE229:
 896              	.LBE228:
 897              	.LBE227:
 898              	.LBB234:
 899              	.LBB235:
 900              	.LBB236:
 901              	.LBB237:
 902              	.LBB238:
 903              		.loc 2 546 0
 904 0012 0023     		movs	r3, #0
 905              	.LBE238:
 906              	.LBE237:
 907              	.LBE236:
 908              	.LBE235:
 909              	.LBE234:
 910              	.LBB243:
 911              	.LBB233:
 912              	.LBB232:
ARM GAS  /tmp/cctsFDUV.s 			page 17


 913              	.LBB231:
 914              		.loc 3 129 0
 915 0014 506A     		ldr	r0, [r2, #36]
 916              	.LVL71:
 917              	.LBE231:
 918              	.LBE232:
 919              	.LBE233:
 920              	.LBE243:
 921              	.LBB244:
 922              	.LBB242:
 923              	.LBB241:
 924              	.LBB240:
 925              	.LBB239:
 926              		.loc 2 546 0
 927              		.syntax unified
 928              	@ 546 "/home/selim/working/ChibiOS/os/ext/CMSIS/include/core_cmFunc.h" 1
 929 0016 83F31188 		MSR basepri, r3
 930              	@ 0 "" 2
 931              	.LVL72:
 932              		.thumb
 933              		.syntax unified
 934              	.LBE239:
 935              	.LBE240:
 936              	.LBE241:
 937              	.LBE242:
 938              	.LBE244:
 939              	.LBE222:
 940              	.LBE221:
 941              		.loc 1 252 0
 942 001a 08BD     		pop	{r3, pc}
 943              		.cfi_endproc
 944              	.LFE270:
 945              		.size	test_wait_tick, .-test_wait_tick
 946              		.section	.text.test_start_timer,"ax",%progbits
 947              		.align	2
 948              		.p2align 4,,15
 949              		.global	test_start_timer
 950              		.thumb
 951              		.thumb_func
 952              		.type	test_start_timer, %function
 953              	test_start_timer:
 954              	.LFB272:
 955              		.loc 1 275 0
 956              		.cfi_startproc
 957              		@ args = 0, pretend = 0, frame = 0
 958              		@ frame_needed = 0, uses_anonymous_args = 0
 959              	.LVL73:
 960 0000 10B5     		push	{r4, lr}
 961              		.cfi_def_cfa_offset 8
 962              		.cfi_offset 4, -8
 963              		.cfi_offset 14, -4
 964              		.loc 1 277 0
 965 0002 42F21074 		movw	r4, #10000
 966 0006 04FB00F0 		mul	r0, r4, r0
 967              	.LVL74:
 968 000a 0D49     		ldr	r1, .L97
 969              		.loc 1 278 0
ARM GAS  /tmp/cctsFDUV.s 			page 18


 970 000c 0D4B     		ldr	r3, .L97+4
 971              		.loc 1 277 0
 972 000e 00F2E734 		addw	r4, r0, #999
 973 0012 A1FB0424 		umull	r2, r4, r1, r4
 974              		.loc 1 278 0
 975 0016 0022     		movs	r2, #0
 976 0018 1A70     		strb	r2, [r3]
 977              		.loc 1 277 0
 978 001a A409     		lsrs	r4, r4, #6
 979              	.LVL75:
 980              	.LBB260:
 981              	.LBB261:
 982              	.LBB262:
 983              	.LBB263:
 984              	.LBB264:
 985              		.loc 2 546 0
 986 001c 2023     		movs	r3, #32
 987              		.syntax unified
 988              	@ 546 "/home/selim/working/ChibiOS/os/ext/CMSIS/include/core_cmFunc.h" 1
 989 001e 83F31188 		MSR basepri, r3
 990              	@ 0 "" 2
 991              	.LVL76:
 992              		.thumb
 993              		.syntax unified
 994 0022 0948     		ldr	r0, .L97+8
 995              	.LBE264:
 996              	.LBE263:
 997              	.LBE262:
 998              	.LBE261:
 999              	.LBB265:
 1000              	.LBB266:
 1001              	.LBB267:
 1002              	.LBB268:
 1003              		.file 4 "/home/selim/working/ChibiOS/os/rt/include/chvt.h"
 1004              		.loc 4 376 0
 1005 0024 C368     		ldr	r3, [r0, #12]
 1006 0026 0BB1     		cbz	r3, .L92
 1007              		.loc 4 377 0
 1008 0028 FFF7FEFF 		bl	chVTDoResetI
 1009              	.LVL77:
 1010              	.L92:
 1011              	.LBE268:
 1012              	.LBE267:
 1013              		.loc 4 424 0
 1014 002c 2146     		mov	r1, r4
 1015 002e 0023     		movs	r3, #0
 1016 0030 064A     		ldr	r2, .L97+12
 1017 0032 0548     		ldr	r0, .L97+8
 1018 0034 FFF7FEFF 		bl	chVTDoSetI
 1019              	.LVL78:
 1020              	.LBE266:
 1021              	.LBE265:
 1022              	.LBB269:
 1023              	.LBB270:
 1024              	.LBB271:
 1025              	.LBB272:
 1026              	.LBB273:
ARM GAS  /tmp/cctsFDUV.s 			page 19


 1027              		.loc 2 546 0
 1028 0038 0023     		movs	r3, #0
 1029              		.syntax unified
 1030              	@ 546 "/home/selim/working/ChibiOS/os/ext/CMSIS/include/core_cmFunc.h" 1
 1031 003a 83F31188 		MSR basepri, r3
 1032              	@ 0 "" 2
 1033              	.LVL79:
 1034              		.thumb
 1035              		.syntax unified
 1036 003e 10BD     		pop	{r4, pc}
 1037              	.LVL80:
 1038              	.L98:
 1039              		.align	2
 1040              	.L97:
 1041 0040 D34D6210 		.word	274877907
 1042 0044 00000000 		.word	.LANCHOR0
 1043 0048 00000000 		.word	.LANCHOR8
 1044 004c 00000000 		.word	tmr
 1045              	.LBE273:
 1046              	.LBE272:
 1047              	.LBE271:
 1048              	.LBE270:
 1049              	.LBE269:
 1050              	.LBE260:
 1051              		.cfi_endproc
 1052              	.LFE272:
 1053              		.size	test_start_timer, .-test_start_timer
 1054              		.section	.text.TestThread,"ax",%progbits
 1055              		.align	2
 1056              		.p2align 4,,15
 1057              		.global	TestThread
 1058              		.thumb
 1059              		.thumb_func
 1060              		.type	TestThread, %function
 1061              	TestThread:
 1062              	.LFB275:
 1063              		.loc 1 316 0
 1064              		.cfi_startproc
 1065              		@ args = 0, pretend = 0, frame = 16
 1066              		@ frame_needed = 0, uses_anonymous_args = 0
 1067              	.LVL81:
 1068 0000 2DE9F04F 		push	{r4, r5, r6, r7, r8, r9, r10, fp, lr}
 1069              		.cfi_def_cfa_offset 36
 1070              		.cfi_offset 4, -36
 1071              		.cfi_offset 5, -32
 1072              		.cfi_offset 6, -28
 1073              		.cfi_offset 7, -24
 1074              		.cfi_offset 8, -20
 1075              		.cfi_offset 9, -16
 1076              		.cfi_offset 10, -12
 1077              		.cfi_offset 11, -8
 1078              		.cfi_offset 14, -4
 1079              		.loc 1 319 0
 1080 0004 9F4C     		ldr	r4, .L186
 1081              		.loc 1 322 0
 1082 0006 A04D     		ldr	r5, .L186+4
 1083              		.loc 1 319 0
ARM GAS  /tmp/cctsFDUV.s 			page 20


 1084 0008 2060     		str	r0, [r4]
 1085              		.loc 1 316 0
 1086 000a 85B0     		sub	sp, sp, #20
 1087              		.cfi_def_cfa_offset 56
 1088              		.loc 1 320 0
 1089 000c 9F48     		ldr	r0, .L186+8
 1090              	.LVL82:
 1091 000e FFF7FEFF 		bl	test_println
 1092              	.LVL83:
 1093              		.loc 1 321 0
 1094 0012 9F48     		ldr	r0, .L186+12
 1095 0014 FFF7FEFF 		bl	test_println
 1096              	.LVL84:
 1097              		.loc 1 322 0
 1098 0018 9E48     		ldr	r0, .L186+16
 1099 001a FFF7FEFF 		bl	test_println
 1100              	.LVL85:
 1101 001e 2A21     		movs	r1, #42
 1102              	.LVL86:
 1103              	.L100:
 1104              	.LBB310:
 1105              	.LBB311:
 1106              		.loc 1 116 0
 1107 0020 2068     		ldr	r0, [r4]
 1108 0022 0368     		ldr	r3, [r0]
 1109 0024 9B68     		ldr	r3, [r3, #8]
 1110 0026 9847     		blx	r3
 1111              	.LVL87:
 1112              		.loc 1 115 0
 1113 0028 15F8011F 		ldrb	r1, [r5, #1]!	@ zero_extendqisi2
 1114              	.LVL88:
 1115 002c 0029     		cmp	r1, #0
 1116 002e F7D1     		bne	.L100
 1117              	.LVL89:
 1118              	.LBE311:
 1119              	.LBE310:
 1120              		.loc 1 324 0
 1121 0030 9948     		ldr	r0, .L186+20
 1122 0032 9A4D     		ldr	r5, .L186+24
 1123 0034 FFF7FEFF 		bl	test_println
 1124              	.LVL90:
 1125 0038 2A21     		movs	r1, #42
 1126              	.LVL91:
 1127              	.L102:
 1128              	.LBB312:
 1129              	.LBB313:
 1130              		.loc 1 116 0
 1131 003a 2068     		ldr	r0, [r4]
 1132 003c 0368     		ldr	r3, [r0]
 1133 003e 9B68     		ldr	r3, [r3, #8]
 1134 0040 9847     		blx	r3
 1135              	.LVL92:
 1136              		.loc 1 115 0
 1137 0042 15F8011F 		ldrb	r1, [r5, #1]!	@ zero_extendqisi2
 1138              	.LVL93:
 1139 0046 0029     		cmp	r1, #0
 1140 0048 F7D1     		bne	.L102
ARM GAS  /tmp/cctsFDUV.s 			page 21


 1141              	.LVL94:
 1142              	.LBE313:
 1143              	.LBE312:
 1144              		.loc 1 326 0
 1145 004a 9548     		ldr	r0, .L186+28
 1146 004c 954D     		ldr	r5, .L186+32
 1147 004e FFF7FEFF 		bl	test_println
 1148              	.LVL95:
 1149 0052 2A21     		movs	r1, #42
 1150              	.LVL96:
 1151              	.L104:
 1152              	.LBB314:
 1153              	.LBB315:
 1154              		.loc 1 116 0
 1155 0054 2068     		ldr	r0, [r4]
 1156 0056 0368     		ldr	r3, [r0]
 1157 0058 9B68     		ldr	r3, [r3, #8]
 1158 005a 9847     		blx	r3
 1159              	.LVL97:
 1160              		.loc 1 115 0
 1161 005c 15F8011F 		ldrb	r1, [r5, #1]!	@ zero_extendqisi2
 1162              	.LVL98:
 1163 0060 0029     		cmp	r1, #0
 1164 0062 F7D1     		bne	.L104
 1165              	.LVL99:
 1166              	.LBE315:
 1167              	.LBE314:
 1168              		.loc 1 329 0
 1169 0064 9048     		ldr	r0, .L186+36
 1170 0066 914D     		ldr	r5, .L186+40
 1171 0068 FFF7FEFF 		bl	test_println
 1172              	.LVL100:
 1173 006c 2A21     		movs	r1, #42
 1174              	.LVL101:
 1175              	.L106:
 1176              	.LBB316:
 1177              	.LBB317:
 1178              		.loc 1 116 0
 1179 006e 2068     		ldr	r0, [r4]
 1180 0070 0368     		ldr	r3, [r0]
 1181 0072 9B68     		ldr	r3, [r3, #8]
 1182 0074 9847     		blx	r3
 1183              	.LVL102:
 1184              		.loc 1 115 0
 1185 0076 15F8011F 		ldrb	r1, [r5, #1]!	@ zero_extendqisi2
 1186              	.LVL103:
 1187 007a 0029     		cmp	r1, #0
 1188 007c F7D1     		bne	.L106
 1189              	.LVL104:
 1190              	.LBE317:
 1191              	.LBE316:
 1192              		.loc 1 332 0
 1193 007e 8C48     		ldr	r0, .L186+44
 1194 0080 8C4D     		ldr	r5, .L186+48
 1195 0082 FFF7FEFF 		bl	test_println
 1196              	.LVL105:
 1197 0086 2A21     		movs	r1, #42
ARM GAS  /tmp/cctsFDUV.s 			page 22


 1198              	.LVL106:
 1199              	.L108:
 1200              	.LBB318:
 1201              	.LBB319:
 1202              		.loc 1 116 0
 1203 0088 2068     		ldr	r0, [r4]
 1204 008a 0368     		ldr	r3, [r0]
 1205 008c 9B68     		ldr	r3, [r3, #8]
 1206 008e 9847     		blx	r3
 1207              	.LVL107:
 1208              		.loc 1 115 0
 1209 0090 15F8011F 		ldrb	r1, [r5, #1]!	@ zero_extendqisi2
 1210              	.LVL108:
 1211 0094 0029     		cmp	r1, #0
 1212 0096 F7D1     		bne	.L108
 1213              	.LVL109:
 1214              	.LBE319:
 1215              	.LBE318:
 1216              		.loc 1 335 0
 1217 0098 8748     		ldr	r0, .L186+52
 1218 009a 884D     		ldr	r5, .L186+56
 1219 009c FFF7FEFF 		bl	test_println
 1220              	.LVL110:
 1221 00a0 2A21     		movs	r1, #42
 1222              	.LVL111:
 1223              	.L110:
 1224              	.LBB320:
 1225              	.LBB321:
 1226              		.loc 1 116 0
 1227 00a2 2068     		ldr	r0, [r4]
 1228 00a4 0368     		ldr	r3, [r0]
 1229 00a6 9B68     		ldr	r3, [r3, #8]
 1230 00a8 9847     		blx	r3
 1231              	.LVL112:
 1232              		.loc 1 115 0
 1233 00aa 15F8011F 		ldrb	r1, [r5, #1]!	@ zero_extendqisi2
 1234              	.LVL113:
 1235 00ae 0029     		cmp	r1, #0
 1236 00b0 F7D1     		bne	.L110
 1237              	.LVL114:
 1238              	.LBE321:
 1239              	.LBE320:
 1240              		.loc 1 339 0
 1241 00b2 8348     		ldr	r0, .L186+60
 1242 00b4 834D     		ldr	r5, .L186+64
 1243 00b6 FFF7FEFF 		bl	test_println
 1244              	.LVL115:
 1245 00ba 2A21     		movs	r1, #42
 1246              	.LVL116:
 1247              	.L112:
 1248              	.LBB322:
 1249              	.LBB323:
 1250              		.loc 1 116 0
 1251 00bc 2068     		ldr	r0, [r4]
 1252 00be 0368     		ldr	r3, [r0]
 1253 00c0 9B68     		ldr	r3, [r3, #8]
 1254 00c2 9847     		blx	r3
ARM GAS  /tmp/cctsFDUV.s 			page 23


 1255              	.LVL117:
 1256              		.loc 1 115 0
 1257 00c4 15F8011F 		ldrb	r1, [r5, #1]!	@ zero_extendqisi2
 1258              	.LVL118:
 1259 00c8 0029     		cmp	r1, #0
 1260 00ca F7D1     		bne	.L112
 1261              	.LVL119:
 1262              	.LBE323:
 1263              	.LBE322:
 1264              		.loc 1 343 0
 1265 00cc 7E48     		ldr	r0, .L186+68
 1266 00ce 7F4D     		ldr	r5, .L186+72
 1267 00d0 FFF7FEFF 		bl	test_println
 1268              	.LVL120:
 1269 00d4 2A21     		movs	r1, #42
 1270              	.LVL121:
 1271              	.L114:
 1272              	.LBB324:
 1273              	.LBB325:
 1274              		.loc 1 116 0
 1275 00d6 2068     		ldr	r0, [r4]
 1276 00d8 0368     		ldr	r3, [r0]
 1277 00da 9B68     		ldr	r3, [r3, #8]
 1278 00dc 9847     		blx	r3
 1279              	.LVL122:
 1280              		.loc 1 115 0
 1281 00de 15F8011F 		ldrb	r1, [r5, #1]!	@ zero_extendqisi2
 1282              	.LVL123:
 1283 00e2 0029     		cmp	r1, #0
 1284 00e4 F7D1     		bne	.L114
 1285 00e6 7A4B     		ldr	r3, .L186+76
 1286              	.LBE325:
 1287              	.LBE324:
 1288              		.loc 1 347 0
 1289 00e8 7A48     		ldr	r0, .L186+80
 1290 00ea 0293     		str	r3, [sp, #8]
 1291              		.loc 1 351 0
 1292 00ec 7A4B     		ldr	r3, .L186+84
 1293 00ee 0191     		str	r1, [sp, #4]
 1294              	.LVL124:
 1295 00f0 0393     		str	r3, [sp, #12]
 1296              		.loc 1 347 0
 1297 00f2 FFF7FEFF 		bl	test_println
 1298              	.LVL125:
 1299              		.loc 1 349 0
 1300 00f6 6548     		ldr	r0, .L186+8
 1301              	.LBB326:
 1302              	.LBB327:
 1303              		.loc 1 116 0
 1304 00f8 DFF888B1 		ldr	fp, .L186
 1305              	.LBE327:
 1306              	.LBE326:
 1307              		.loc 1 351 0
 1308 00fc 774F     		ldr	r7, .L186+88
 1309              		.loc 1 349 0
 1310 00fe FFF7FEFF 		bl	test_println
 1311              	.LVL126:
ARM GAS  /tmp/cctsFDUV.s 			page 24


 1312              		.loc 1 351 0
 1313 0102 774B     		ldr	r3, .L186+92
 1314 0104 0199     		ldr	r1, [sp, #4]
 1315 0106 1970     		strb	r1, [r3]
 1316              	.LVL127:
 1317              	.L137:
 1318 0108 019B     		ldr	r3, [sp, #4]
 1319 010a 0133     		adds	r3, r3, #1
 1320 010c 0193     		str	r3, [sp, #4]
 1321              	.LVL128:
 1322 010e 043F     		subs	r7, r7, #4
 1323              	.LBB329:
 1324              	.LBB330:
 1325              		.loc 1 141 0
 1326 0110 4FF00008 		mov	r8, #0
 1327              	.LVL129:
 1328              	.L134:
 1329              	.LBE330:
 1330              	.LBE329:
 1331              		.loc 1 355 0
 1332 0114 57F8043F 		ldr	r3, [r7, #4]!
 1333 0118 002B     		cmp	r3, #0
 1334 011a 00F08780 		beq	.L183
 1335              	.L132:
 1336              		.loc 1 356 0
 1337 011e 714D     		ldr	r5, .L186+96
 1338 0120 FFF7FEFF 		bl	print_line
 1339              	.LVL130:
 1340 0124 2D21     		movs	r1, #45
 1341              	.LVL131:
 1342              	.L116:
 1343              	.LBB332:
 1344              	.LBB328:
 1345              		.loc 1 116 0
 1346 0126 2068     		ldr	r0, [r4]
 1347 0128 0368     		ldr	r3, [r0]
 1348 012a 9B68     		ldr	r3, [r3, #8]
 1349 012c 9847     		blx	r3
 1350              	.LVL132:
 1351              		.loc 1 115 0
 1352 012e 15F8011F 		ldrb	r1, [r5, #1]!	@ zero_extendqisi2
 1353              	.LVL133:
 1354 0132 0029     		cmp	r1, #0
 1355 0134 F7D1     		bne	.L116
 1356              	.LVL134:
 1357              	.LBE328:
 1358              	.LBE332:
 1359              		.loc 1 358 0
 1360 0136 0198     		ldr	r0, [sp, #4]
 1361              		.loc 1 360 0
 1362 0138 6B4D     		ldr	r5, .L186+100
 1363              		.loc 1 358 0
 1364 013a FFF7FEFF 		bl	test_printn
 1365              	.LVL135:
 1366              	.LBB333:
 1367              	.LBB334:
 1368              		.loc 1 116 0
ARM GAS  /tmp/cctsFDUV.s 			page 25


 1369 013e DBF80000 		ldr	r0, [fp]
 1370              	.LVL136:
 1371 0142 0368     		ldr	r3, [r0]
 1372 0144 2E21     		movs	r1, #46
 1373 0146 9B68     		ldr	r3, [r3, #8]
 1374              	.LBE334:
 1375              	.LBE333:
 1376              		.loc 1 360 0
 1377 0148 08F10108 		add	r8, r8, #1
 1378              	.LVL137:
 1379              	.LBB336:
 1380              	.LBB335:
 1381              		.loc 1 116 0
 1382 014c 9847     		blx	r3
 1383              	.LVL138:
 1384              	.LBE335:
 1385              	.LBE336:
 1386              		.loc 1 360 0
 1387 014e 4046     		mov	r0, r8
 1388 0150 FFF7FEFF 		bl	test_printn
 1389              	.LVL139:
 1390 0154 2021     		movs	r1, #32
 1391              	.LVL140:
 1392              	.L118:
 1393              	.LBB337:
 1394              	.LBB338:
 1395              		.loc 1 116 0
 1396 0156 2068     		ldr	r0, [r4]
 1397 0158 0368     		ldr	r3, [r0]
 1398 015a 9B68     		ldr	r3, [r3, #8]
 1399 015c 9847     		blx	r3
 1400              	.LVL141:
 1401              		.loc 1 115 0
 1402 015e 15F8011F 		ldrb	r1, [r5, #1]!	@ zero_extendqisi2
 1403              	.LVL142:
 1404 0162 0029     		cmp	r1, #0
 1405 0164 F7D1     		bne	.L118
 1406              	.LVL143:
 1407              	.LBE338:
 1408              	.LBE337:
 1409              		.loc 1 362 0
 1410 0166 3B68     		ldr	r3, [r7]
 1411 0168 1D68     		ldr	r5, [r3]
 1412              	.LVL144:
 1413              	.LBB339:
 1414              	.LBB340:
 1415              		.loc 1 115 0
 1416 016a 2978     		ldrb	r1, [r5]	@ zero_extendqisi2
 1417 016c 39B1     		cbz	r1, .L123
 1418              	.LVL145:
 1419              	.L122:
 1420              		.loc 1 116 0
 1421 016e 2068     		ldr	r0, [r4]
 1422 0170 0368     		ldr	r3, [r0]
 1423 0172 9B68     		ldr	r3, [r3, #8]
 1424 0174 9847     		blx	r3
 1425              	.LVL146:
ARM GAS  /tmp/cctsFDUV.s 			page 26


 1426              		.loc 1 115 0
 1427 0176 15F8011F 		ldrb	r1, [r5, #1]!	@ zero_extendqisi2
 1428              	.LVL147:
 1429 017a 0029     		cmp	r1, #0
 1430 017c F7D1     		bne	.L122
 1431              	.LVL148:
 1432              	.L123:
 1433              	.LBE340:
 1434              	.LBE339:
 1435              		.loc 1 363 0
 1436 017e 5B48     		ldr	r0, .L186+104
 1437              	.LBB341:
 1438              	.LBB342:
 1439              		.loc 1 290 0
 1440 0180 DFF89091 		ldr	r9, .L186+144
 1441              	.LBB343:
 1442              	.LBB344:
 1443              		.loc 1 135 0
 1444 0184 5A4E     		ldr	r6, .L186+108
 1445 0186 5B4D     		ldr	r5, .L186+112
 1446              	.LBE344:
 1447              	.LBE343:
 1448              	.LBE342:
 1449              	.LBE341:
 1450              		.loc 1 363 0
 1451 0188 FFF7FEFF 		bl	test_println
 1452              	.LVL149:
 1453              		.loc 1 365 0
 1454 018c 4FF4FA60 		mov	r0, #2000
 1455 0190 FFF7FEFF 		bl	chThdSleep
 1456              	.LVL150:
 1457              	.LBB349:
 1458              	.LBB347:
 1459              		.loc 1 292 0
 1460 0194 584A     		ldr	r2, .L186+116
 1461              	.LBE347:
 1462              	.LBE349:
 1463              		.loc 1 367 0
 1464 0196 D7F800A0 		ldr	r10, [r7]
 1465              	.LVL151:
 1466              	.LBB350:
 1467              	.LBB348:
 1468              	.LBB346:
 1469              	.LBB345:
 1470              		.loc 1 135 0
 1471 019a 3560     		str	r5, [r6]
 1472              	.LBE345:
 1473              	.LBE346:
 1474              		.loc 1 290 0
 1475 019c 0023     		movs	r3, #0
 1476              		.loc 1 292 0
 1477 019e 1360     		str	r3, [r2]
 1478 01a0 5360     		str	r3, [r2, #4]
 1479 01a2 9360     		str	r3, [r2, #8]
 1480 01a4 D360     		str	r3, [r2, #12]
 1481 01a6 1361     		str	r3, [r2, #16]
 1482              		.loc 1 294 0
ARM GAS  /tmp/cctsFDUV.s 			page 27


 1483 01a8 DAF80420 		ldr	r2, [r10, #4]
 1484              		.loc 1 290 0
 1485 01ac 89F80030 		strb	r3, [r9]
 1486              	.LVL152:
 1487              		.loc 1 294 0
 1488 01b0 02B1     		cbz	r2, .L121
 1489              		.loc 1 295 0
 1490 01b2 9047     		blx	r2
 1491              	.LVL153:
 1492              	.L121:
 1493              		.loc 1 296 0
 1494 01b4 DAF80C30 		ldr	r3, [r10, #12]
 1495 01b8 9847     		blx	r3
 1496              	.LVL154:
 1497              		.loc 1 297 0
 1498 01ba DAF80830 		ldr	r3, [r10, #8]
 1499 01be 03B1     		cbz	r3, .L124
 1500              		.loc 1 298 0
 1501 01c0 9847     		blx	r3
 1502              	.LVL155:
 1503              	.L124:
 1504              		.loc 1 300 0
 1505 01c2 FFF7FEFF 		bl	test_wait_threads
 1506              	.LVL156:
 1507              	.LBE348:
 1508              	.LBE350:
 1509              		.loc 1 368 0
 1510 01c6 99F80030 		ldrb	r3, [r9]	@ zero_extendqisi2
 1511 01ca 002B     		cmp	r3, #0
 1512 01cc 38D0     		beq	.L184
 1513 01ce DFF84891 		ldr	r9, .L186+148
 1514 01d2 2D21     		movs	r1, #45
 1515              	.L125:
 1516              	.LVL157:
 1517              	.LBB351:
 1518              	.LBB352:
 1519              		.loc 1 116 0
 1520 01d4 2068     		ldr	r0, [r4]
 1521 01d6 0368     		ldr	r3, [r0]
 1522 01d8 9B68     		ldr	r3, [r3, #8]
 1523 01da 9847     		blx	r3
 1524              	.LVL158:
 1525              		.loc 1 115 0
 1526 01dc 19F8011F 		ldrb	r1, [r9, #1]!	@ zero_extendqisi2
 1527              	.LVL159:
 1528 01e0 0029     		cmp	r1, #0
 1529 01e2 F7D1     		bne	.L125
 1530              	.LVL160:
 1531              	.LBE352:
 1532              	.LBE351:
 1533              		.loc 1 370 0
 1534 01e4 454B     		ldr	r3, .L186+120
 1535 01e6 DFF83491 		ldr	r9, .L186+152
 1536 01ea 1868     		ldr	r0, [r3]
 1537 01ec FFF7FEFF 		bl	test_printn
 1538              	.LVL161:
 1539 01f0 2021     		movs	r1, #32
ARM GAS  /tmp/cctsFDUV.s 			page 28


 1540              	.LVL162:
 1541              	.L127:
 1542              	.LBB353:
 1543              	.LBB354:
 1544              		.loc 1 116 0
 1545 01f2 2068     		ldr	r0, [r4]
 1546 01f4 0368     		ldr	r3, [r0]
 1547 01f6 9B68     		ldr	r3, [r3, #8]
 1548 01f8 9847     		blx	r3
 1549              	.LVL163:
 1550              		.loc 1 115 0
 1551 01fa 19F8011F 		ldrb	r1, [r9, #1]!	@ zero_extendqisi2
 1552              	.LVL164:
 1553 01fe 0029     		cmp	r1, #0
 1554 0200 F7D1     		bne	.L127
 1555              	.LVL165:
 1556              	.LBE354:
 1557              	.LBE353:
 1558              	.LBB355:
 1559              	.LBB331:
 1560              		.loc 1 141 0
 1561 0202 3368     		ldr	r3, [r6]
 1562 0204 AB42     		cmp	r3, r5
 1563 0206 09D9     		bls	.L131
 1564 0208 3A4D     		ldr	r5, .L186+112
 1565              	.LVL166:
 1566              	.L130:
 1567              		.loc 1 142 0
 1568 020a 2068     		ldr	r0, [r4]
 1569 020c 15F8011B 		ldrb	r1, [r5], #1	@ zero_extendqisi2
 1570              	.LVL167:
 1571 0210 0368     		ldr	r3, [r0]
 1572 0212 9B68     		ldr	r3, [r3, #8]
 1573 0214 9847     		blx	r3
 1574              	.LVL168:
 1575              		.loc 1 141 0
 1576 0216 3368     		ldr	r3, [r6]
 1577 0218 9D42     		cmp	r5, r3
 1578 021a F6D3     		bcc	.L130
 1579              	.LVL169:
 1580              	.L131:
 1581              	.LBE331:
 1582              	.LBE355:
 1583              		.loc 1 373 0
 1584 021c 3848     		ldr	r0, .L186+124
 1585 021e FFF7FEFF 		bl	test_println
 1586              	.LVL170:
 1587              		.loc 1 355 0
 1588 0222 57F8043F 		ldr	r3, [r7, #4]!
 1589 0226 002B     		cmp	r3, #0
 1590 0228 7FF479AF 		bne	.L132
 1591              	.LVL171:
 1592              	.L183:
 1593              		.loc 1 353 0
 1594 022c 039B     		ldr	r3, [sp, #12]
 1595 022e 5BB1     		cbz	r3, .L133
 1596 0230 1F46     		mov	r7, r3
ARM GAS  /tmp/cctsFDUV.s 			page 29


 1597 0232 029B     		ldr	r3, [sp, #8]
 1598 0234 1A46     		mov	r2, r3
 1599 0236 52F8043F 		ldr	r3, [r2, #4]!
 1600 023a 0393     		str	r3, [sp, #12]
 1601 023c 0292     		str	r2, [sp, #8]
 1602 023e 63E7     		b	.L137
 1603              	.LVL172:
 1604              	.L184:
 1605              		.loc 1 376 0
 1606 0240 3048     		ldr	r0, .L186+128
 1607 0242 FFF7FEFF 		bl	test_println
 1608              	.LVL173:
 1609 0246 65E7     		b	.L134
 1610              	.LVL174:
 1611              	.L133:
 1612              		.loc 1 381 0
 1613 0248 FFF7FEFF 		bl	print_line
 1614              	.LVL175:
 1615              		.loc 1 382 0
 1616 024c 2E4D     		ldr	r5, .L186+132
 1617 024e 0F48     		ldr	r0, .L186+8
 1618 0250 FFF7FEFF 		bl	test_println
 1619              	.LVL176:
 1620 0254 4621     		movs	r1, #70
 1621              	.LVL177:
 1622              	.L135:
 1623              	.LBB356:
 1624              	.LBB357:
 1625              		.loc 1 116 0
 1626 0256 2068     		ldr	r0, [r4]
 1627 0258 0368     		ldr	r3, [r0]
 1628 025a 9B68     		ldr	r3, [r3, #8]
 1629 025c 9847     		blx	r3
 1630              	.LVL178:
 1631              		.loc 1 115 0
 1632 025e 15F8011F 		ldrb	r1, [r5, #1]!	@ zero_extendqisi2
 1633              	.LVL179:
 1634 0262 0029     		cmp	r1, #0
 1635 0264 F7D1     		bne	.L135
 1636              	.LVL180:
 1637              	.LBE357:
 1638              	.LBE356:
 1639              		.loc 1 384 0
 1640 0266 1E4B     		ldr	r3, .L186+92
 1641 0268 1B78     		ldrb	r3, [r3]	@ zero_extendqisi2
 1642 026a 2BB9     		cbnz	r3, .L185
 1643              		.loc 1 387 0
 1644 026c 2748     		ldr	r0, .L186+136
 1645              		.loc 1 388 0
 1646 026e 05B0     		add	sp, sp, #20
 1647              		.cfi_remember_state
 1648              		.cfi_def_cfa_offset 36
 1649              		@ sp needed
 1650 0270 BDE8F04F 		pop	{r4, r5, r6, r7, r8, r9, r10, fp, lr}
 1651              		.cfi_restore 14
 1652              		.cfi_restore 11
 1653              		.cfi_restore 10
ARM GAS  /tmp/cctsFDUV.s 			page 30


 1654              		.cfi_restore 9
 1655              		.cfi_restore 8
 1656              		.cfi_restore 7
 1657              		.cfi_restore 6
 1658              		.cfi_restore 5
 1659              		.cfi_restore 4
 1660              		.cfi_def_cfa_offset 0
 1661              	.LVL181:
 1662              		.loc 1 387 0
 1663 0274 FFF7FEBF 		b	test_println
 1664              	.LVL182:
 1665              	.L185:
 1666              		.cfi_restore_state
 1667              		.loc 1 385 0
 1668 0278 2548     		ldr	r0, .L186+140
 1669              		.loc 1 388 0
 1670 027a 05B0     		add	sp, sp, #20
 1671              		.cfi_def_cfa_offset 36
 1672              		@ sp needed
 1673 027c BDE8F04F 		pop	{r4, r5, r6, r7, r8, r9, r10, fp, lr}
 1674              		.cfi_restore 4
 1675              		.cfi_restore 5
 1676              		.cfi_restore 6
 1677              		.cfi_restore 7
 1678              		.cfi_restore 8
 1679              		.cfi_restore 9
 1680              		.cfi_restore 10
 1681              		.cfi_restore 11
 1682              		.cfi_restore 14
 1683              		.cfi_def_cfa_offset 0
 1684              	.LVL183:
 1685              		.loc 1 387 0
 1686 0280 FFF7FEBF 		b	test_println
 1687              	.LVL184:
 1688              	.L187:
 1689              		.align	2
 1690              	.L186:
 1691 0284 00000000 		.word	.LANCHOR1
 1692 0288 04000000 		.word	.LC1
 1693 028c E4000000 		.word	.LC14
 1694 0290 E8000000 		.word	.LC15
 1695 0294 04010000 		.word	.LC16
 1696 0298 34010000 		.word	.LC22
 1697 029c 18000000 		.word	.LC2
 1698 02a0 3C010000 		.word	.LC23
 1699 02a4 2C000000 		.word	.LC3
 1700 02a8 54010000 		.word	.LC24
 1701 02ac 40000000 		.word	.LC4
 1702 02b0 9C010000 		.word	.LC25
 1703 02b4 54000000 		.word	.LC5
 1704 02b8 A8010000 		.word	.LC26
 1705 02bc 68000000 		.word	.LC6
 1706 02c0 B4010000 		.word	.LC27
 1707 02c4 7C000000 		.word	.LC7
 1708 02c8 CC010000 		.word	.LC28
 1709 02cc 90000000 		.word	.LC8
 1710 02d0 04000000 		.word	.LANCHOR9+4
ARM GAS  /tmp/cctsFDUV.s 			page 31


 1711 02d4 F8010000 		.word	.LC29
 1712 02d8 00000000 		.word	patternthd
 1713 02dc 00000000 		.word	patternsys
 1714 02e0 00000000 		.word	.LANCHOR3
 1715 02e4 A4000000 		.word	.LC9
 1716 02e8 B4000000 		.word	.LC10
 1717 02ec 08010000 		.word	.LC17
 1718 02f0 00000000 		.word	.LANCHOR2
 1719 02f4 00000000 		.word	.LANCHOR6
 1720 02f8 00000000 		.word	.LANCHOR7
 1721 02fc 00000000 		.word	.LANCHOR5
 1722 0300 0C010000 		.word	.LC18
 1723 0304 10010000 		.word	.LC19
 1724 0308 D4000000 		.word	.LC13
 1725 030c 2C010000 		.word	.LC21
 1726 0310 24010000 		.word	.LC20
 1727 0314 00000000 		.word	.LANCHOR4
 1728 0318 B8000000 		.word	.LC11
 1729 031c D0000000 		.word	.LC12
 1730              		.cfi_endproc
 1731              	.LFE275:
 1732              		.size	TestThread, .-TestThread
 1733              		.global	test_timer_done
 1734              		.global	wa
 1735              		.global	threads
 1736              		.global	test
 1737              		.global	test_global_fail
 1738              		.section	.bss.test,"aw",%nobits
 1739              		.align	3
 1740              		.type	test, %object
 1741              		.size	test, 1640
 1742              	test:
 1743 0000 00000000 		.space	1640
 1743      00000000 
 1743      00000000 
 1743      00000000 
 1743      00000000 
 1744              		.section	.bss.failpoint,"aw",%nobits
 1745              		.align	2
 1746              		.set	.LANCHOR5,. + 0
 1747              		.type	failpoint, %object
 1748              		.size	failpoint, 4
 1749              	failpoint:
 1750 0000 00000000 		.space	4
 1751              		.section	.bss.local_fail,"aw",%nobits
 1752              		.set	.LANCHOR4,. + 0
 1753              		.type	local_fail, %object
 1754              		.size	local_fail, 1
 1755              	local_fail:
 1756 0000 00       		.space	1
 1757              		.section	.bss.test_timer_done,"aw",%nobits
 1758              		.set	.LANCHOR0,. + 0
 1759              		.type	test_timer_done, %object
 1760              		.size	test_timer_done, 1
 1761              	test_timer_done:
 1762 0000 00       		.space	1
 1763              		.section	.rodata.wa,"a",%progbits
ARM GAS  /tmp/cctsFDUV.s 			page 32


 1764              		.align	2
 1765              		.type	wa, %object
 1766              		.size	wa, 20
 1767              	wa:
 1768 0000 00000000 		.word	test
 1769 0004 48010000 		.word	test+328
 1770 0008 90020000 		.word	test+656
 1771 000c D8030000 		.word	test+984
 1772 0010 20050000 		.word	test+1312
 1773              		.section	.bss.tokp,"aw",%nobits
 1774              		.align	2
 1775              		.set	.LANCHOR2,. + 0
 1776              		.type	tokp, %object
 1777              		.size	tokp, 4
 1778              	tokp:
 1779 0000 00000000 		.space	4
 1780              		.section	.rodata.patterns,"a",%progbits
 1781              		.align	2
 1782              		.set	.LANCHOR9,. + 0
 1783              		.type	patterns, %object
 1784              		.size	patterns, 52
 1785              	patterns:
 1786 0000 00000000 		.word	patternsys
 1787 0004 00000000 		.word	patternthd
 1788 0008 00000000 		.word	patternsem
 1789 000c 00000000 		.word	patternmtx
 1790 0010 00000000 		.word	patternmsg
 1791 0014 00000000 		.word	patternmbox
 1792 0018 00000000 		.word	patternevt
 1793 001c 00000000 		.word	patternheap
 1794 0020 00000000 		.word	patternpools
 1795 0024 00000000 		.word	patterndyn
 1796 0028 00000000 		.word	patternqueues
 1797 002c 00000000 		.word	patternbmk
 1798 0030 00000000 		.word	0
 1799              		.section	.rodata.str1.4,"aMS",%progbits,1
 1800              		.align	2
 1801              	.LC0:
 1802 0000 0D0A00   		.ascii	"\015\012\000"
 1803 0003 00       		.space	1
 1804              	.LC1:
 1805 0004 2A2A2A20 		.ascii	"*** Kernel:       \000"
 1805      4B65726E 
 1805      656C3A20 
 1805      20202020 
 1805      202000
 1806 0017 00       		.space	1
 1807              	.LC2:
 1808 0018 2A2A2A20 		.ascii	"*** Compiled:     \000"
 1808      436F6D70 
 1808      696C6564 
 1808      3A202020 
 1808      202000
 1809 002b 00       		.space	1
 1810              	.LC3:
 1811 002c 2A2A2A20 		.ascii	"*** Compiler:     \000"
 1811      436F6D70 
ARM GAS  /tmp/cctsFDUV.s 			page 33


 1811      696C6572 
 1811      3A202020 
 1811      202000
 1812 003f 00       		.space	1
 1813              	.LC4:
 1814 0040 2A2A2A20 		.ascii	"*** Architecture: \000"
 1814      41726368 
 1814      69746563 
 1814      74757265 
 1814      3A2000
 1815 0053 00       		.space	1
 1816              	.LC5:
 1817 0054 2A2A2A20 		.ascii	"*** Core Variant: \000"
 1817      436F7265 
 1817      20566172 
 1817      69616E74 
 1817      3A2000
 1818 0067 00       		.space	1
 1819              	.LC6:
 1820 0068 2A2A2A20 		.ascii	"*** Port Info:    \000"
 1820      506F7274 
 1820      20496E66 
 1820      6F3A2020 
 1820      202000
 1821 007b 00       		.space	1
 1822              	.LC7:
 1823 007c 2A2A2A20 		.ascii	"*** Platform:     \000"
 1823      506C6174 
 1823      666F726D 
 1823      3A202020 
 1823      202000
 1824 008f 00       		.space	1
 1825              	.LC8:
 1826 0090 2A2A2A20 		.ascii	"*** Test Board:   \000"
 1826      54657374 
 1826      20426F61 
 1826      72643A20 
 1826      202000
 1827 00a3 00       		.space	1
 1828              	.LC9:
 1829 00a4 2D2D2D20 		.ascii	"--- Test Case \000"
 1829      54657374 
 1829      20436173 
 1829      652000
 1830 00b3 00       		.space	1
 1831              	.LC10:
 1832 00b4 202800   		.ascii	" (\000"
 1833 00b7 00       		.space	1
 1834              	.LC11:
 1835 00b8 2D2D2D20 		.ascii	"--- Result: FAILURE (#\000"
 1835      52657375 
 1835      6C743A20 
 1835      4641494C 
 1835      55524520 
 1836 00cf 00       		.space	1
 1837              	.LC12:
 1838 00d0 205B00   		.ascii	" [\000"
ARM GAS  /tmp/cctsFDUV.s 			page 34


 1839 00d3 00       		.space	1
 1840              	.LC13:
 1841 00d4 46696E61 		.ascii	"Final result: \000"
 1841      6C207265 
 1841      73756C74 
 1841      3A2000
 1842 00e3 00       		.space	1
 1843              	.LC14:
 1844 00e4 00       		.ascii	"\000"
 1845 00e5 000000   		.space	3
 1846              	.LC15:
 1847 00e8 2A2A2A20 		.ascii	"*** ChibiOS/RT test suite\000"
 1847      43686962 
 1847      694F532F 
 1847      52542074 
 1847      65737420 
 1848 0102 0000     		.space	2
 1849              	.LC16:
 1850 0104 2A2A2A00 		.ascii	"***\000"
 1851              	.LC17:
 1852 0108 2900     		.ascii	")\000"
 1853 010a 0000     		.space	2
 1854              	.LC18:
 1855 010c 5D2900   		.ascii	"])\000"
 1856 010f 00       		.space	1
 1857              	.LC19:
 1858 0110 2D2D2D20 		.ascii	"--- Result: SUCCESS\000"
 1858      52657375 
 1858      6C743A20 
 1858      53554343 
 1858      45535300 
 1859              	.LC20:
 1860 0124 4641494C 		.ascii	"FAILURE\000"
 1860      55524500 
 1861              	.LC21:
 1862 012c 53554343 		.ascii	"SUCCESS\000"
 1862      45535300 
 1863              	.LC22:
 1864 0134 332E302E 		.ascii	"3.0.0p6\000"
 1864      30703600 
 1865              	.LC23:
 1866 013c 41756720 		.ascii	"Aug  4 2016 - 19:04:37\000"
 1866      20342032 
 1866      30313620 
 1866      2D203139 
 1866      3A30343A 
 1867 0153 00       		.space	1
 1868              	.LC24:
 1869 0154 47434320 		.ascii	"GCC 5.3.1 20160307 (release) [ARM/embedded-5-branch"
 1869      352E332E 
 1869      31203230 
 1869      31363033 
 1869      30372028 
 1870 0187 20726576 		.ascii	" revision 234589]\000"
 1870      6973696F 
 1870      6E203233 
 1870      34353839 
ARM GAS  /tmp/cctsFDUV.s 			page 35


 1870      5D00
 1871 0199 000000   		.space	3
 1872              	.LC25:
 1873 019c 41524D76 		.ascii	"ARMv7-ME\000"
 1873      372D4D45 
 1873      00
 1874 01a5 000000   		.space	3
 1875              	.LC26:
 1876 01a8 436F7274 		.ascii	"Cortex-M4\000"
 1876      65782D4D 
 1876      3400
 1877 01b2 0000     		.space	2
 1878              	.LC27:
 1879 01b4 41647661 		.ascii	"Advanced kernel mode\000"
 1879      6E636564 
 1879      206B6572 
 1879      6E656C20 
 1879      6D6F6465 
 1880 01c9 000000   		.space	3
 1881              	.LC28:
 1882 01cc 53544D33 		.ascii	"STM32F407 High Performance with DSP and FPU\000"
 1882      32463430 
 1882      37204869 
 1882      67682050 
 1882      6572666F 
 1883              	.LC29:
 1884 01f8 53544D69 		.ascii	"STMicroelectronics STM32F4-Discovery\000"
 1884      63726F65 
 1884      6C656374 
 1884      726F6E69 
 1884      63732053 
 1885              		.section	.bss.vt,"aw",%nobits
 1886              		.align	2
 1887              		.set	.LANCHOR8,. + 0
 1888              		.type	vt, %object
 1889              		.size	vt, 20
 1890              	vt:
 1891 0000 00000000 		.space	20
 1891      00000000 
 1891      00000000 
 1891      00000000 
 1891      00000000 
 1892              		.section	.bss.threads,"aw",%nobits
 1893              		.align	2
 1894              		.set	.LANCHOR7,. + 0
 1895              		.type	threads, %object
 1896              		.size	threads, 20
 1897              	threads:
 1898 0000 00000000 		.space	20
 1898      00000000 
 1898      00000000 
 1898      00000000 
 1898      00000000 
 1899              		.section	.bss.chp,"aw",%nobits
 1900              		.align	2
 1901              		.set	.LANCHOR1,. + 0
 1902              		.type	chp, %object
ARM GAS  /tmp/cctsFDUV.s 			page 36


 1903              		.size	chp, 4
 1904              	chp:
 1905 0000 00000000 		.space	4
 1906              		.section	.bss.tokens_buffer,"aw",%nobits
 1907              		.align	2
 1908              		.set	.LANCHOR6,. + 0
 1909              		.type	tokens_buffer, %object
 1910              		.size	tokens_buffer, 16
 1911              	tokens_buffer:
 1912 0000 00000000 		.space	16
 1912      00000000 
 1912      00000000 
 1912      00000000 
 1913              		.section	.bss.test_global_fail,"aw",%nobits
 1914              		.set	.LANCHOR3,. + 0
 1915              		.type	test_global_fail, %object
 1916              		.size	test_global_fail, 1
 1917              	test_global_fail:
 1918 0000 00       		.space	1
 1919              		.text
 1920              	.Letext0:
 1921              		.file 5 "/usr/lib/gcc/arm-none-eabi/5.3.1/include/stddef.h"
 1922              		.file 6 "/usr/arm-none-eabi/include/machine/_default_types.h"
 1923              		.file 7 "/usr/arm-none-eabi/include/sys/_stdint.h"
 1924              		.file 8 "/home/selim/working/ChibiOS/os/rt/ports/ARMCMx/compilers/GCC/chtypes.h"
 1925              		.file 9 "/home/selim/working/ChibiOS/os/rt/include/chsystypes.h"
 1926              		.file 10 "/home/selim/working/ChibiOS/os/rt/include/chschd.h"
 1927              		.file 11 "/home/selim/working/ChibiOS/os/rt/ports/ARMCMx/chcore.h"
 1928              		.file 12 "/home/selim/working/ChibiOS/os/rt/ports/ARMCMx/chcore_v7m.h"
 1929              		.file 13 "/home/selim/working/ChibiOS/os/hal/ports/STM32/LLD/TIMv1/stm32_tim.h"
 1930              		.file 14 "/home/selim/working/ChibiOS/os/rt/include/chtm.h"
 1931              		.file 15 "/home/selim/working/ChibiOS/os/rt/include/chsem.h"
 1932              		.file 16 "/home/selim/working/ChibiOS/os/rt/include/chmtx.h"
 1933              		.file 17 "/home/selim/working/ChibiOS/os/rt/include/chstreams.h"
 1934              		.file 18 "/home/selim/working/ChibiOS/test/rt/test.h"
 1935              		.file 19 "/home/selim/working/ChibiOS/os/rt/ports/ARMCMx/chcore_timer.h"
 1936              		.file 20 "/home/selim/working/ChibiOS/os/rt/include/chsys.h"
 1937              		.file 21 "/home/selim/working/ChibiOS/os/ext/CMSIS/include/core_cm4.h"
 1938              		.file 22 "/home/selim/working/ChibiOS/test/rt/testsys.h"
 1939              		.file 23 "/home/selim/working/ChibiOS/test/rt/testthd.h"
 1940              		.file 24 "/home/selim/working/ChibiOS/test/rt/testsem.h"
 1941              		.file 25 "/home/selim/working/ChibiOS/test/rt/testmtx.h"
 1942              		.file 26 "/home/selim/working/ChibiOS/test/rt/testmsg.h"
 1943              		.file 27 "/home/selim/working/ChibiOS/test/rt/testmbox.h"
 1944              		.file 28 "/home/selim/working/ChibiOS/test/rt/testevt.h"
 1945              		.file 29 "/home/selim/working/ChibiOS/test/rt/testheap.h"
 1946              		.file 30 "/home/selim/working/ChibiOS/test/rt/testpools.h"
 1947              		.file 31 "/home/selim/working/ChibiOS/test/rt/testdyn.h"
 1948              		.file 32 "/home/selim/working/ChibiOS/test/rt/testqueues.h"
 1949              		.file 33 "/home/selim/working/ChibiOS/test/rt/testbmk.h"
 1950              		.file 34 "/home/selim/working/ChibiOS/os/rt/include/chthreads.h"