ARM GAS  /tmp/ccML9HRd.s 			page 1


   1              		.syntax unified
   2              		.cpu cortex-m4
   3              		.fpu softvfp
   4              		.eabi_attribute 20, 1
   5              		.eabi_attribute 21, 1
   6              		.eabi_attribute 23, 3
   7              		.eabi_attribute 24, 1
   8              		.eabi_attribute 25, 1
   9              		.eabi_attribute 26, 1
  10              		.eabi_attribute 30, 2
  11              		.eabi_attribute 34, 1
  12              		.eabi_attribute 18, 4
  13              		.thumb
  14              		.syntax unified
  15              		.file	"usb.c"
  16              		.text
  17              	.Ltext0:
  18              		.cfi_sections	.debug_frame
  19              		.section	.text.usbInit,"ax",%progbits
  20              		.align	2
  21              		.p2align 4,,15
  22              		.global	usbInit
  23              		.thumb
  24              		.thumb_func
  25              		.type	usbInit, %function
  26              	usbInit:
  27              	.LFB261:
  28              		.file 1 "/home/selim/working/ChibiOS/os/hal/src/usb.c"
  29              		.loc 1 254 0
  30              		.cfi_startproc
  31              		@ args = 0, pretend = 0, frame = 0
  32              		@ frame_needed = 0, uses_anonymous_args = 0
  33              		@ link register save eliminated.
  34              		.loc 1 256 0
  35 0000 FFF7FEBF 		b	usb_lld_init
  36              	.LVL0:
  37              		.cfi_endproc
  38              	.LFE261:
  39              		.size	usbInit, .-usbInit
  40              		.section	.text.usbObjectInit,"ax",%progbits
  41              		.align	2
  42              		.p2align 4,,15
  43              		.global	usbObjectInit
  44              		.thumb
  45              		.thumb_func
  46              		.type	usbObjectInit, %function
  47              	usbObjectInit:
  48              	.LFB262:
  49              		.loc 1 266 0
  50              		.cfi_startproc
  51              		@ args = 0, pretend = 0, frame = 0
  52              		@ frame_needed = 0, uses_anonymous_args = 0
  53              		@ link register save eliminated.
  54              	.LVL1:
  55              		.loc 1 270 0
  56 0000 0023     		movs	r3, #0
  57              		.loc 1 269 0
ARM GAS  /tmp/ccML9HRd.s 			page 2


  58 0002 0122     		movs	r2, #1
  59 0004 0270     		strb	r2, [r0]
  60              		.loc 1 270 0
  61 0006 4360     		str	r3, [r0, #4]
  62              	.LVL2:
  63              		.loc 1 272 0
  64 0008 C361     		str	r3, [r0, #28]
  65              		.loc 1 273 0
  66 000a 8362     		str	r3, [r0, #40]
  67              	.LVL3:
  68              		.loc 1 272 0
  69 000c 0362     		str	r3, [r0, #32]
  70              		.loc 1 273 0
  71 000e C362     		str	r3, [r0, #44]
  72              	.LVL4:
  73              		.loc 1 272 0
  74 0010 4362     		str	r3, [r0, #36]
  75              		.loc 1 273 0
  76 0012 0363     		str	r3, [r0, #48]
  77              	.LVL5:
  78              		.loc 1 275 0
  79 0014 0381     		strh	r3, [r0, #8]	@ movhi
  80              		.loc 1 276 0
  81 0016 4381     		strh	r3, [r0, #10]	@ movhi
  82 0018 7047     		bx	lr
  83              		.cfi_endproc
  84              	.LFE262:
  85              		.size	usbObjectInit, .-usbObjectInit
  86 001a 00BF     		.section	.text.usbStart,"ax",%progbits
  87              		.align	2
  88              		.p2align 4,,15
  89              		.global	usbStart
  90              		.thumb
  91              		.thumb_func
  92              		.type	usbStart, %function
  93              	usbStart:
  94              	.LFB263:
  95              		.loc 1 287 0
  96              		.cfi_startproc
  97              		@ args = 0, pretend = 0, frame = 0
  98              		@ frame_needed = 0, uses_anonymous_args = 0
  99              	.LVL6:
 100 0000 38B5     		push	{r3, r4, r5, lr}
 101              		.cfi_def_cfa_offset 16
 102              		.cfi_offset 3, -16
 103              		.cfi_offset 4, -12
 104              		.cfi_offset 5, -8
 105              		.cfi_offset 14, -4
 106              		.loc 1 287 0
 107 0002 0446     		mov	r4, r0
 108              	.LBB212:
 109              	.LBB213:
 110              	.LBB214:
 111              	.LBB215:
 112              	.LBB216:
 113              		.file 2 "/home/selim/working/ChibiOS/os/ext/CMSIS/include/core_cmFunc.h"
 114              		.loc 2 546 0
ARM GAS  /tmp/ccML9HRd.s 			page 3


 115 0004 2023     		movs	r3, #32
 116              		.syntax unified
 117              	@ 546 "/home/selim/working/ChibiOS/os/ext/CMSIS/include/core_cmFunc.h" 1
 118 0006 83F31188 		MSR basepri, r3
 119              	@ 0 "" 2
 120              	.LVL7:
 121              		.thumb
 122              		.syntax unified
 123              	.LBE216:
 124              	.LBE215:
 125              	.LBE214:
 126              	.LBE213:
 127              	.LBE212:
 128              		.loc 1 297 0
 129 000a 0025     		movs	r5, #0
 130              		.loc 1 295 0
 131 000c 4160     		str	r1, [r0, #4]
 132              	.LVL8:
 133              		.loc 1 297 0
 134 000e C560     		str	r5, [r0, #12]
 135              	.LVL9:
 136 0010 0561     		str	r5, [r0, #16]
 137              	.LVL10:
 138 0012 4561     		str	r5, [r0, #20]
 139              	.LVL11:
 140 0014 8561     		str	r5, [r0, #24]
 141              	.LVL12:
 142              		.loc 1 299 0
 143 0016 FFF7FEFF 		bl	usb_lld_start
 144              	.LVL13:
 145              		.loc 1 300 0
 146 001a 0223     		movs	r3, #2
 147 001c 2370     		strb	r3, [r4]
 148              	.LVL14:
 149              	.LBB217:
 150              	.LBB218:
 151              	.LBB219:
 152              	.LBB220:
 153              	.LBB221:
 154              	.LBB222:
 155              		.loc 2 546 0
 156              		.syntax unified
 157              	@ 546 "/home/selim/working/ChibiOS/os/ext/CMSIS/include/core_cmFunc.h" 1
 158 001e 85F31188 		MSR basepri, r5
 159              	@ 0 "" 2
 160              	.LVL15:
 161              		.thumb
 162              		.syntax unified
 163 0022 38BD     		pop	{r3, r4, r5, pc}
 164              	.LBE222:
 165              	.LBE221:
 166              	.LBE220:
 167              	.LBE219:
 168              	.LBE218:
 169              	.LBE217:
 170              		.cfi_endproc
 171              	.LFE263:
ARM GAS  /tmp/ccML9HRd.s 			page 4


 172              		.size	usbStart, .-usbStart
 173              		.section	.text.usbStop,"ax",%progbits
 174              		.align	2
 175              		.p2align 4,,15
 176              		.global	usbStop
 177              		.thumb
 178              		.thumb_func
 179              		.type	usbStop, %function
 180              	usbStop:
 181              	.LFB264:
 182              		.loc 1 311 0
 183              		.cfi_startproc
 184              		@ args = 0, pretend = 0, frame = 0
 185              		@ frame_needed = 0, uses_anonymous_args = 0
 186              	.LVL16:
 187 0000 10B5     		push	{r4, lr}
 188              		.cfi_def_cfa_offset 8
 189              		.cfi_offset 4, -8
 190              		.cfi_offset 14, -4
 191              	.LBB223:
 192              	.LBB224:
 193              	.LBB225:
 194              	.LBB226:
 195              	.LBB227:
 196              		.loc 2 546 0
 197 0002 2023     		movs	r3, #32
 198              	.LBE227:
 199              	.LBE226:
 200              	.LBE225:
 201              	.LBE224:
 202              	.LBE223:
 203              		.loc 1 311 0
 204 0004 0446     		mov	r4, r0
 205              	.LBB232:
 206              	.LBB231:
 207              	.LBB230:
 208              	.LBB229:
 209              	.LBB228:
 210              		.loc 2 546 0
 211              		.syntax unified
 212              	@ 546 "/home/selim/working/ChibiOS/os/ext/CMSIS/include/core_cmFunc.h" 1
 213 0006 83F31188 		MSR basepri, r3
 214              	@ 0 "" 2
 215              	.LVL17:
 216              		.thumb
 217              		.syntax unified
 218              	.LBE228:
 219              	.LBE229:
 220              	.LBE230:
 221              	.LBE231:
 222              	.LBE232:
 223              		.loc 1 319 0
 224 000a FFF7FEFF 		bl	usb_lld_stop
 225              	.LVL18:
 226              		.loc 1 320 0
 227 000e 0123     		movs	r3, #1
 228 0010 2370     		strb	r3, [r4]
ARM GAS  /tmp/ccML9HRd.s 			page 5


 229              	.LVL19:
 230              	.LBB233:
 231              	.LBB234:
 232              	.LBB235:
 233              	.LBB236:
 234              	.LBB237:
 235              	.LBB238:
 236              		.loc 2 546 0
 237 0012 0023     		movs	r3, #0
 238              		.syntax unified
 239              	@ 546 "/home/selim/working/ChibiOS/os/ext/CMSIS/include/core_cmFunc.h" 1
 240 0014 83F31188 		MSR basepri, r3
 241              	@ 0 "" 2
 242              	.LVL20:
 243              		.thumb
 244              		.syntax unified
 245 0018 10BD     		pop	{r4, pc}
 246              	.LBE238:
 247              	.LBE237:
 248              	.LBE236:
 249              	.LBE235:
 250              	.LBE234:
 251              	.LBE233:
 252              		.cfi_endproc
 253              	.LFE264:
 254              		.size	usbStop, .-usbStop
 255 001a 00BF     		.section	.text.usbInitEndpointI,"ax",%progbits
 256              		.align	2
 257              		.p2align 4,,15
 258              		.global	usbInitEndpointI
 259              		.thumb
 260              		.thumb_func
 261              		.type	usbInitEndpointI, %function
 262              	usbInitEndpointI:
 263              	.LFB265:
 264              		.loc 1 338 0
 265              		.cfi_startproc
 266              		@ args = 0, pretend = 0, frame = 0
 267              		@ frame_needed = 0, uses_anonymous_args = 0
 268              		@ link register save eliminated.
 269              	.LVL21:
 270              		.loc 1 347 0
 271 0000 5369     		ldr	r3, [r2, #20]
 272              		.loc 1 338 0
 273 0002 10B4     		push	{r4}
 274              		.cfi_def_cfa_offset 4
 275              		.cfi_offset 4, -4
 276              		.loc 1 347 0
 277 0004 2BB1     		cbz	r3, .L8
 278              		.loc 1 348 0
 279 0006 0024     		movs	r4, #0
 280 0008 1C60     		str	r4, [r3]	@ unaligned
 281 000a 5C60     		str	r4, [r3, #4]	@ unaligned
 282 000c 9C60     		str	r4, [r3, #8]	@ unaligned
 283 000e DC60     		str	r4, [r3, #12]	@ unaligned
 284 0010 1C61     		str	r4, [r3, #16]	@ unaligned
 285              	.L8:
ARM GAS  /tmp/ccML9HRd.s 			page 6


 286              		.loc 1 350 0
 287 0012 9369     		ldr	r3, [r2, #24]
 288 0014 2BB1     		cbz	r3, .L9
 289              		.loc 1 351 0
 290 0016 0024     		movs	r4, #0
 291 0018 1C60     		str	r4, [r3]	@ unaligned
 292 001a 5C60     		str	r4, [r3, #4]	@ unaligned
 293 001c 9C60     		str	r4, [r3, #8]	@ unaligned
 294 001e DC60     		str	r4, [r3, #12]	@ unaligned
 295 0020 1C61     		str	r4, [r3, #16]	@ unaligned
 296              	.L9:
 297              		.loc 1 354 0
 298 0022 00EB8103 		add	r3, r0, r1, lsl #2
 299              		.loc 1 358 0
 300 0026 10BC     		pop	{r4}
 301              		.cfi_restore 4
 302              		.cfi_def_cfa_offset 0
 303              		.loc 1 354 0
 304 0028 DA60     		str	r2, [r3, #12]
 305              		.loc 1 357 0
 306 002a FFF7FEBF 		b	usb_lld_init_endpoint
 307              	.LVL22:
 308              		.cfi_endproc
 309              	.LFE265:
 310              		.size	usbInitEndpointI, .-usbInitEndpointI
 311 002e 00BF     		.section	.text.usbDisableEndpointsI,"ax",%progbits
 312              		.align	2
 313              		.p2align 4,,15
 314              		.global	usbDisableEndpointsI
 315              		.thumb
 316              		.thumb_func
 317              		.type	usbDisableEndpointsI, %function
 318              	usbDisableEndpointsI:
 319              	.LFB266:
 320              		.loc 1 371 0
 321              		.cfi_startproc
 322              		@ args = 0, pretend = 0, frame = 0
 323              		@ frame_needed = 0, uses_anonymous_args = 0
 324              		@ link register save eliminated.
 325              	.LVL23:
 326 0000 10B4     		push	{r4}
 327              		.cfi_def_cfa_offset 4
 328              		.cfi_offset 4, -4
 329              		.loc 1 379 0
 330 0002 4189     		ldrh	r1, [r0, #10]
 331              		.loc 1 378 0
 332 0004 0489     		ldrh	r4, [r0, #8]
 333              		.loc 1 381 0
 334 0006 0022     		movs	r2, #0
 335              		.loc 1 378 0
 336 0008 24F00104 		bic	r4, r4, #1
 337              		.loc 1 379 0
 338 000c 21F00101 		bic	r1, r1, #1
 339              		.loc 1 378 0
 340 0010 0481     		strh	r4, [r0, #8]	@ movhi
 341              		.loc 1 381 0
 342 0012 0261     		str	r2, [r0, #16]
ARM GAS  /tmp/ccML9HRd.s 			page 7


 343              		.loc 1 379 0
 344 0014 4181     		strh	r1, [r0, #10]	@ movhi
 345              	.LVL24:
 346              		.loc 1 381 0
 347 0016 4261     		str	r2, [r0, #20]
 348              	.LVL25:
 349 0018 8261     		str	r2, [r0, #24]
 350              	.LVL26:
 351              		.loc 1 386 0
 352 001a 10BC     		pop	{r4}
 353              		.cfi_restore 4
 354              		.cfi_def_cfa_offset 0
 355              		.loc 1 385 0
 356 001c FFF7FEBF 		b	usb_lld_disable_endpoints
 357              	.LVL27:
 358              		.cfi_endproc
 359              	.LFE266:
 360              		.size	usbDisableEndpointsI, .-usbDisableEndpointsI
 361              		.section	.text.usbPrepareReceive,"ax",%progbits
 362              		.align	2
 363              		.p2align 4,,15
 364              		.global	usbPrepareReceive
 365              		.thumb
 366              		.thumb_func
 367              		.type	usbPrepareReceive, %function
 368              	usbPrepareReceive:
 369              	.LFB267:
 370              		.loc 1 400 0
 371              		.cfi_startproc
 372              		@ args = 0, pretend = 0, frame = 0
 373              		@ frame_needed = 0, uses_anonymous_args = 0
 374              		@ link register save eliminated.
 375              	.LVL28:
 376 0000 30B4     		push	{r4, r5}
 377              		.cfi_def_cfa_offset 8
 378              		.cfi_offset 4, -8
 379              		.cfi_offset 5, -4
 380              		.loc 1 401 0
 381 0002 00EB8104 		add	r4, r0, r1, lsl #2
 382              		.loc 1 403 0
 383 0006 0025     		movs	r5, #0
 384              		.loc 1 401 0
 385 0008 E468     		ldr	r4, [r4, #12]
 386 000a A469     		ldr	r4, [r4, #24]
 387              	.LVL29:
 388              		.loc 1 404 0
 389 000c E260     		str	r2, [r4, #12]
 390              		.loc 1 405 0
 391 000e 6360     		str	r3, [r4, #4]
 392              		.loc 1 403 0
 393 0010 2570     		strb	r5, [r4]
 394              		.loc 1 406 0
 395 0012 A560     		str	r5, [r4, #8]
 396              		.loc 1 409 0
 397 0014 30BC     		pop	{r4, r5}
 398              		.cfi_restore 5
 399              		.cfi_restore 4
ARM GAS  /tmp/ccML9HRd.s 			page 8


 400              		.cfi_def_cfa_offset 0
 401              	.LVL30:
 402              		.loc 1 408 0
 403 0016 FFF7FEBF 		b	usb_lld_prepare_receive
 404              	.LVL31:
 405              		.cfi_endproc
 406              	.LFE267:
 407              		.size	usbPrepareReceive, .-usbPrepareReceive
 408 001a 00BF     		.section	.text.usbPrepareTransmit,"ax",%progbits
 409              		.align	2
 410              		.p2align 4,,15
 411              		.global	usbPrepareTransmit
 412              		.thumb
 413              		.thumb_func
 414              		.type	usbPrepareTransmit, %function
 415              	usbPrepareTransmit:
 416              	.LFB268:
 417              		.loc 1 426 0
 418              		.cfi_startproc
 419              		@ args = 0, pretend = 0, frame = 0
 420              		@ frame_needed = 0, uses_anonymous_args = 0
 421              		@ link register save eliminated.
 422              	.LVL32:
 423 0000 30B4     		push	{r4, r5}
 424              		.cfi_def_cfa_offset 8
 425              		.cfi_offset 4, -8
 426              		.cfi_offset 5, -4
 427              		.loc 1 427 0
 428 0002 00EB8104 		add	r4, r0, r1, lsl #2
 429              		.loc 1 429 0
 430 0006 0025     		movs	r5, #0
 431              		.loc 1 427 0
 432 0008 E468     		ldr	r4, [r4, #12]
 433 000a 6469     		ldr	r4, [r4, #20]
 434              	.LVL33:
 435              		.loc 1 430 0
 436 000c E260     		str	r2, [r4, #12]
 437              		.loc 1 431 0
 438 000e 6360     		str	r3, [r4, #4]
 439              		.loc 1 429 0
 440 0010 2570     		strb	r5, [r4]
 441              		.loc 1 432 0
 442 0012 A560     		str	r5, [r4, #8]
 443              		.loc 1 435 0
 444 0014 30BC     		pop	{r4, r5}
 445              		.cfi_restore 5
 446              		.cfi_restore 4
 447              		.cfi_def_cfa_offset 0
 448              	.LVL34:
 449              		.loc 1 434 0
 450 0016 FFF7FEBF 		b	usb_lld_prepare_transmit
 451              	.LVL35:
 452              		.cfi_endproc
 453              	.LFE268:
 454              		.size	usbPrepareTransmit, .-usbPrepareTransmit
 455 001a 00BF     		.section	.text.usbPrepareQueuedReceive,"ax",%progbits
 456              		.align	2
ARM GAS  /tmp/ccML9HRd.s 			page 9


 457              		.p2align 4,,15
 458              		.global	usbPrepareQueuedReceive
 459              		.thumb
 460              		.thumb_func
 461              		.type	usbPrepareQueuedReceive, %function
 462              	usbPrepareQueuedReceive:
 463              	.LFB269:
 464              		.loc 1 455 0
 465              		.cfi_startproc
 466              		@ args = 0, pretend = 0, frame = 0
 467              		@ frame_needed = 0, uses_anonymous_args = 0
 468              		@ link register save eliminated.
 469              	.LVL36:
 470 0000 70B4     		push	{r4, r5, r6}
 471              		.cfi_def_cfa_offset 12
 472              		.cfi_offset 4, -12
 473              		.cfi_offset 5, -8
 474              		.cfi_offset 6, -4
 475              		.loc 1 456 0
 476 0002 00EB8104 		add	r4, r0, r1, lsl #2
 477              		.loc 1 458 0
 478 0006 0126     		movs	r6, #1
 479              		.loc 1 456 0
 480 0008 E468     		ldr	r4, [r4, #12]
 481 000a A469     		ldr	r4, [r4, #24]
 482              	.LVL37:
 483              		.loc 1 461 0
 484 000c 0025     		movs	r5, #0
 485              		.loc 1 459 0
 486 000e E260     		str	r2, [r4, #12]
 487              		.loc 1 460 0
 488 0010 6360     		str	r3, [r4, #4]
 489              		.loc 1 458 0
 490 0012 2670     		strb	r6, [r4]
 491              		.loc 1 461 0
 492 0014 A560     		str	r5, [r4, #8]
 493              		.loc 1 464 0
 494 0016 70BC     		pop	{r4, r5, r6}
 495              		.cfi_restore 6
 496              		.cfi_restore 5
 497              		.cfi_restore 4
 498              		.cfi_def_cfa_offset 0
 499              	.LVL38:
 500              		.loc 1 463 0
 501 0018 FFF7FEBF 		b	usb_lld_prepare_receive
 502              	.LVL39:
 503              		.cfi_endproc
 504              	.LFE269:
 505              		.size	usbPrepareQueuedReceive, .-usbPrepareQueuedReceive
 506              		.section	.text.usbPrepareQueuedTransmit,"ax",%progbits
 507              		.align	2
 508              		.p2align 4,,15
 509              		.global	usbPrepareQueuedTransmit
 510              		.thumb
 511              		.thumb_func
 512              		.type	usbPrepareQueuedTransmit, %function
 513              	usbPrepareQueuedTransmit:
ARM GAS  /tmp/ccML9HRd.s 			page 10


 514              	.LFB270:
 515              		.loc 1 481 0
 516              		.cfi_startproc
 517              		@ args = 0, pretend = 0, frame = 0
 518              		@ frame_needed = 0, uses_anonymous_args = 0
 519              		@ link register save eliminated.
 520              	.LVL40:
 521 0000 70B4     		push	{r4, r5, r6}
 522              		.cfi_def_cfa_offset 12
 523              		.cfi_offset 4, -12
 524              		.cfi_offset 5, -8
 525              		.cfi_offset 6, -4
 526              		.loc 1 482 0
 527 0002 00EB8104 		add	r4, r0, r1, lsl #2
 528              		.loc 1 484 0
 529 0006 0126     		movs	r6, #1
 530              		.loc 1 482 0
 531 0008 E468     		ldr	r4, [r4, #12]
 532 000a 6469     		ldr	r4, [r4, #20]
 533              	.LVL41:
 534              		.loc 1 487 0
 535 000c 0025     		movs	r5, #0
 536              		.loc 1 485 0
 537 000e E260     		str	r2, [r4, #12]
 538              		.loc 1 486 0
 539 0010 6360     		str	r3, [r4, #4]
 540              		.loc 1 484 0
 541 0012 2670     		strb	r6, [r4]
 542              		.loc 1 487 0
 543 0014 A560     		str	r5, [r4, #8]
 544              		.loc 1 490 0
 545 0016 70BC     		pop	{r4, r5, r6}
 546              		.cfi_restore 6
 547              		.cfi_restore 5
 548              		.cfi_restore 4
 549              		.cfi_def_cfa_offset 0
 550              	.LVL42:
 551              		.loc 1 489 0
 552 0018 FFF7FEBF 		b	usb_lld_prepare_transmit
 553              	.LVL43:
 554              		.cfi_endproc
 555              	.LFE270:
 556              		.size	usbPrepareQueuedTransmit, .-usbPrepareQueuedTransmit
 557              		.section	.text.usbStartReceiveI,"ax",%progbits
 558              		.align	2
 559              		.p2align 4,,15
 560              		.global	usbStartReceiveI
 561              		.thumb
 562              		.thumb_func
 563              		.type	usbStartReceiveI, %function
 564              	usbStartReceiveI:
 565              	.LFB271:
 566              		.loc 1 506 0
 567              		.cfi_startproc
 568              		@ args = 0, pretend = 0, frame = 0
 569              		@ frame_needed = 0, uses_anonymous_args = 0
 570              	.LVL44:
ARM GAS  /tmp/ccML9HRd.s 			page 11


 571 0000 70B5     		push	{r4, r5, r6, lr}
 572              		.cfi_def_cfa_offset 16
 573              		.cfi_offset 4, -16
 574              		.cfi_offset 5, -12
 575              		.cfi_offset 6, -8
 576              		.cfi_offset 14, -4
 577              		.loc 1 511 0
 578 0002 0123     		movs	r3, #1
 579 0004 4489     		ldrh	r4, [r0, #10]
 580 0006 03FA01F2 		lsl	r2, r3, r1
 581 000a 14EA0206 		ands	r6, r4, r2
 582 000e 01D0     		beq	.L32
 583              		.loc 1 512 0
 584 0010 1846     		mov	r0, r3
 585              	.LVL45:
 586              		.loc 1 518 0
 587 0012 70BD     		pop	{r4, r5, r6, pc}
 588              	.LVL46:
 589              	.L32:
 590              		.loc 1 515 0
 591 0014 2243     		orrs	r2, r2, r4
 592 0016 4281     		strh	r2, [r0, #10]	@ movhi
 593              		.loc 1 516 0
 594 0018 FFF7FEFF 		bl	usb_lld_start_out
 595              	.LVL47:
 596              		.loc 1 517 0
 597 001c 3046     		mov	r0, r6
 598 001e 70BD     		pop	{r4, r5, r6, pc}
 599              		.cfi_endproc
 600              	.LFE271:
 601              		.size	usbStartReceiveI, .-usbStartReceiveI
 602              		.section	.text.usbStartTransmitI,"ax",%progbits
 603              		.align	2
 604              		.p2align 4,,15
 605              		.global	usbStartTransmitI
 606              		.thumb
 607              		.thumb_func
 608              		.type	usbStartTransmitI, %function
 609              	usbStartTransmitI:
 610              	.LFB272:
 611              		.loc 1 534 0
 612              		.cfi_startproc
 613              		@ args = 0, pretend = 0, frame = 0
 614              		@ frame_needed = 0, uses_anonymous_args = 0
 615              	.LVL48:
 616 0000 70B5     		push	{r4, r5, r6, lr}
 617              		.cfi_def_cfa_offset 16
 618              		.cfi_offset 4, -16
 619              		.cfi_offset 5, -12
 620              		.cfi_offset 6, -8
 621              		.cfi_offset 14, -4
 622              		.loc 1 539 0
 623 0002 0123     		movs	r3, #1
 624 0004 0489     		ldrh	r4, [r0, #8]
 625 0006 03FA01F2 		lsl	r2, r3, r1
 626 000a 14EA0206 		ands	r6, r4, r2
 627 000e 01D0     		beq	.L37
ARM GAS  /tmp/ccML9HRd.s 			page 12


 628              		.loc 1 540 0
 629 0010 1846     		mov	r0, r3
 630              	.LVL49:
 631              		.loc 1 546 0
 632 0012 70BD     		pop	{r4, r5, r6, pc}
 633              	.LVL50:
 634              	.L37:
 635              		.loc 1 543 0
 636 0014 2243     		orrs	r2, r2, r4
 637 0016 0281     		strh	r2, [r0, #8]	@ movhi
 638              		.loc 1 544 0
 639 0018 FFF7FEFF 		bl	usb_lld_start_in
 640              	.LVL51:
 641              		.loc 1 545 0
 642 001c 3046     		mov	r0, r6
 643 001e 70BD     		pop	{r4, r5, r6, pc}
 644              		.cfi_endproc
 645              	.LFE272:
 646              		.size	usbStartTransmitI, .-usbStartTransmitI
 647              		.section	.text.usbStallReceiveI,"ax",%progbits
 648              		.align	2
 649              		.p2align 4,,15
 650              		.global	usbStallReceiveI
 651              		.thumb
 652              		.thumb_func
 653              		.type	usbStallReceiveI, %function
 654              	usbStallReceiveI:
 655              	.LFB273:
 656              		.loc 1 560 0
 657              		.cfi_startproc
 658              		@ args = 0, pretend = 0, frame = 0
 659              		@ frame_needed = 0, uses_anonymous_args = 0
 660              	.LVL52:
 661              		.loc 1 565 0
 662 0000 0123     		movs	r3, #1
 663 0002 4289     		ldrh	r2, [r0, #10]
 664              		.loc 1 560 0
 665 0004 10B5     		push	{r4, lr}
 666              		.cfi_def_cfa_offset 8
 667              		.cfi_offset 4, -8
 668              		.cfi_offset 14, -4
 669              		.loc 1 565 0
 670 0006 03FA01F4 		lsl	r4, r3, r1
 671 000a 1440     		ands	r4, r2, r4
 672 000c 01D0     		beq	.L42
 673              		.loc 1 566 0
 674 000e 1846     		mov	r0, r3
 675              	.LVL53:
 676              		.loc 1 571 0
 677 0010 10BD     		pop	{r4, pc}
 678              	.LVL54:
 679              	.L42:
 680              		.loc 1 569 0
 681 0012 FFF7FEFF 		bl	usb_lld_stall_out
 682              	.LVL55:
 683              		.loc 1 570 0
 684 0016 2046     		mov	r0, r4
ARM GAS  /tmp/ccML9HRd.s 			page 13


 685 0018 10BD     		pop	{r4, pc}
 686              		.cfi_endproc
 687              	.LFE273:
 688              		.size	usbStallReceiveI, .-usbStallReceiveI
 689 001a 00BF     		.section	.text.usbStallTransmitI,"ax",%progbits
 690              		.align	2
 691              		.p2align 4,,15
 692              		.global	usbStallTransmitI
 693              		.thumb
 694              		.thumb_func
 695              		.type	usbStallTransmitI, %function
 696              	usbStallTransmitI:
 697              	.LFB274:
 698              		.loc 1 585 0
 699              		.cfi_startproc
 700              		@ args = 0, pretend = 0, frame = 0
 701              		@ frame_needed = 0, uses_anonymous_args = 0
 702              	.LVL56:
 703              		.loc 1 590 0
 704 0000 0123     		movs	r3, #1
 705 0002 0289     		ldrh	r2, [r0, #8]
 706              		.loc 1 585 0
 707 0004 10B5     		push	{r4, lr}
 708              		.cfi_def_cfa_offset 8
 709              		.cfi_offset 4, -8
 710              		.cfi_offset 14, -4
 711              		.loc 1 590 0
 712 0006 03FA01F4 		lsl	r4, r3, r1
 713 000a 1440     		ands	r4, r2, r4
 714 000c 01D0     		beq	.L47
 715              		.loc 1 591 0
 716 000e 1846     		mov	r0, r3
 717              	.LVL57:
 718              		.loc 1 596 0
 719 0010 10BD     		pop	{r4, pc}
 720              	.LVL58:
 721              	.L47:
 722              		.loc 1 594 0
 723 0012 FFF7FEFF 		bl	usb_lld_stall_in
 724              	.LVL59:
 725              		.loc 1 595 0
 726 0016 2046     		mov	r0, r4
 727 0018 10BD     		pop	{r4, pc}
 728              		.cfi_endproc
 729              	.LFE274:
 730              		.size	usbStallTransmitI, .-usbStallTransmitI
 731 001a 00BF     		.section	.text._usb_reset,"ax",%progbits
 732              		.align	2
 733              		.p2align 4,,15
 734              		.global	_usb_reset
 735              		.thumb
 736              		.thumb_func
 737              		.type	_usb_reset, %function
 738              	_usb_reset:
 739              	.LFB275:
 740              		.loc 1 607 0
 741              		.cfi_startproc
ARM GAS  /tmp/ccML9HRd.s 			page 14


 742              		@ args = 0, pretend = 0, frame = 0
 743              		@ frame_needed = 0, uses_anonymous_args = 0
 744              		@ link register save eliminated.
 745              	.LVL60:
 746              		.loc 1 611 0
 747 0000 0022     		movs	r2, #0
 748              		.loc 1 610 0
 749 0002 0221     		movs	r1, #2
 750 0004 0170     		strb	r1, [r0]
 751              		.loc 1 611 0
 752 0006 A0F84C20 		strh	r2, [r0, #76]	@ movhi
 753              		.loc 1 612 0
 754 000a 80F84E20 		strb	r2, [r0, #78]
 755              		.loc 1 613 0
 756 000e 80F84F20 		strb	r2, [r0, #79]
 757              		.loc 1 614 0
 758 0012 0281     		strh	r2, [r0, #8]	@ movhi
 759              		.loc 1 615 0
 760 0014 4281     		strh	r2, [r0, #10]	@ movhi
 761              	.LVL61:
 762              		.loc 1 619 0
 763 0016 C260     		str	r2, [r0, #12]
 764              	.LVL62:
 765 0018 0261     		str	r2, [r0, #16]
 766              	.LVL63:
 767 001a 4261     		str	r2, [r0, #20]
 768              	.LVL64:
 769 001c 8261     		str	r2, [r0, #24]
 770              	.LVL65:
 771              		.loc 1 623 0
 772 001e 80F83420 		strb	r2, [r0, #52]
 773              		.loc 1 626 0
 774 0022 FFF7FEBF 		b	usb_lld_reset
 775              	.LVL66:
 776              		.cfi_endproc
 777              	.LFE275:
 778              		.size	_usb_reset, .-_usb_reset
 779 0026 00BF     		.section	.text._usb_ep0setup,"ax",%progbits
 780              		.align	2
 781              		.p2align 4,,15
 782              		.global	_usb_ep0setup
 783              		.thumb
 784              		.thumb_func
 785              		.type	_usb_ep0setup, %function
 786              	_usb_ep0setup:
 787              	.LFB276:
 788              		.loc 1 639 0
 789              		.cfi_startproc
 790              		@ args = 0, pretend = 0, frame = 0
 791              		@ frame_needed = 0, uses_anonymous_args = 0
 792              	.LVL67:
 793 0000 F8B5     		push	{r3, r4, r5, r6, r7, lr}
 794              		.cfi_def_cfa_offset 24
 795              		.cfi_offset 3, -24
 796              		.cfi_offset 4, -20
 797              		.cfi_offset 5, -16
 798              		.cfi_offset 6, -12
ARM GAS  /tmp/ccML9HRd.s 			page 15


 799              		.cfi_offset 7, -8
 800              		.cfi_offset 14, -4
 801              		.loc 1 642 0
 802 0002 0023     		movs	r3, #0
 803              		.loc 1 639 0
 804 0004 0446     		mov	r4, r0
 805              		.loc 1 642 0
 806 0006 80F83430 		strb	r3, [r0, #52]
 807              		.loc 1 643 0
 808 000a 00F14402 		add	r2, r0, #68
 809 000e FFF7FEFF 		bl	usb_lld_read_setup
 810              	.LVL68:
 811              		.loc 1 648 0
 812 0012 6368     		ldr	r3, [r4, #4]
 813 0014 9B68     		ldr	r3, [r3, #8]
 814 0016 002B     		cmp	r3, #0
 815 0018 36D0     		beq	.L54
 816              		.loc 1 649 0 discriminator 1
 817 001a 2046     		mov	r0, r4
 818 001c 9847     		blx	r3
 819              	.LVL69:
 820              		.loc 1 648 0 discriminator 1
 821 001e 0028     		cmp	r0, #0
 822 0020 32D0     		beq	.L54
 823 0022 E06B     		ldr	r0, [r4, #60]
 824 0024 94F84430 		ldrb	r3, [r4, #68]	@ zero_extendqisi2
 825              	.L99:
 826              		.loc 1 676 0
 827 0028 94F84B10 		ldrb	r1, [r4, #75]	@ zero_extendqisi2
 828 002c 94F84A20 		ldrb	r2, [r4, #74]	@ zero_extendqisi2
 829 0030 42EA0122 		orr	r2, r2, r1, lsl #8
 830              	.LVL70:
 831              		.loc 1 678 0
 832 0034 8242     		cmp	r2, r0
 833              		.loc 1 679 0
 834 0036 3CBF     		itt	cc
 835 0038 E263     		strcc	r2, [r4, #60]
 836 003a 1046     		movcc	r0, r2
 837              		.loc 1 681 0
 838 003c 1A06     		lsls	r2, r3, #24
 839              	.LVL71:
 840 003e 00F1AB80 		bmi	.L135
 841              		.loc 1 707 0
 842 0042 0028     		cmp	r0, #0
 843 0044 00F08B80 		beq	.L96
 844              	.LBB311:
 845              	.LBB312:
 846              		.loc 1 401 0
 847 0048 E368     		ldr	r3, [r4, #12]
 848              	.LBE312:
 849              	.LBE311:
 850              		.loc 1 710 0
 851 004a A56B     		ldr	r5, [r4, #56]
 852              	.LVL72:
 853              	.LBB315:
 854              	.LBB313:
 855              		.loc 1 401 0
ARM GAS  /tmp/ccML9HRd.s 			page 16


 856 004c 9B69     		ldr	r3, [r3, #24]
 857              	.LVL73:
 858              		.loc 1 403 0
 859 004e 0022     		movs	r2, #0
 860              	.LBE313:
 861              	.LBE315:
 862              		.loc 1 709 0
 863 0050 0421     		movs	r1, #4
 864              	.LVL74:
 865 0052 84F83410 		strb	r1, [r4, #52]
 866              	.LBB316:
 867              	.LBB314:
 868              		.loc 1 408 0
 869 0056 1146     		mov	r1, r2
 870              		.loc 1 404 0
 871 0058 DD60     		str	r5, [r3, #12]
 872              	.LVL75:
 873              		.loc 1 405 0
 874 005a 5860     		str	r0, [r3, #4]
 875              		.loc 1 403 0
 876 005c 1A70     		strb	r2, [r3]
 877              		.loc 1 406 0
 878 005e 9A60     		str	r2, [r3, #8]
 879              	.LVL76:
 880              	.L132:
 881              		.loc 1 408 0
 882 0060 2046     		mov	r0, r4
 883 0062 FFF7FEFF 		bl	usb_lld_prepare_receive
 884              	.LVL77:
 885              	.LBE314:
 886              	.LBE316:
 887              	.LBB317:
 888              	.LBB318:
 889              	.LBB319:
 890              	.LBB320:
 891              	.LBB321:
 892              	.LBB322:
 893              		.loc 2 546 0
 894 0066 2023     		movs	r3, #32
 895              		.syntax unified
 896              	@ 546 "/home/selim/working/ChibiOS/os/ext/CMSIS/include/core_cmFunc.h" 1
 897 0068 83F31188 		MSR basepri, r3
 898              	@ 0 "" 2
 899              	.LVL78:
 900              		.thumb
 901              		.syntax unified
 902              	.LBE322:
 903              	.LBE321:
 904              	.LBE320:
 905              	.LBE319:
 906              	.LBE318:
 907              	.LBE317:
 908              	.LBB323:
 909              	.LBB324:
 910              		.loc 1 511 0
 911 006c 6389     		ldrh	r3, [r4, #10]
 912 006e 13F00101 		ands	r1, r3, #1
ARM GAS  /tmp/ccML9HRd.s 			page 17


 913 0072 05D1     		bne	.L98
 914              		.loc 1 515 0
 915 0074 43F00103 		orr	r3, r3, #1
 916 0078 6381     		strh	r3, [r4, #10]	@ movhi
 917              		.loc 1 516 0
 918 007a 2046     		mov	r0, r4
 919 007c FFF7FEFF 		bl	usb_lld_start_out
 920              	.LVL79:
 921              	.L98:
 922              	.LBE324:
 923              	.LBE323:
 924              	.LBB325:
 925              	.LBB326:
 926              	.LBB327:
 927              	.LBB328:
 928              	.LBB329:
 929              	.LBB330:
 930              		.loc 2 546 0
 931 0080 0023     		movs	r3, #0
 932              		.syntax unified
 933              	@ 546 "/home/selim/working/ChibiOS/os/ext/CMSIS/include/core_cmFunc.h" 1
 934 0082 83F31188 		MSR basepri, r3
 935              	@ 0 "" 2
 936              	.LVL80:
 937              		.thumb
 938              		.syntax unified
 939 0086 F8BD     		pop	{r3, r4, r5, r6, r7, pc}
 940              	.LVL81:
 941              	.L54:
 942              	.LBE330:
 943              	.LBE329:
 944              	.LBE328:
 945              	.LBE327:
 946              	.LBE326:
 947              	.LBE325:
 948              		.loc 1 654 0
 949 0088 94F84430 		ldrb	r3, [r4, #68]	@ zero_extendqisi2
 950 008c 13F06007 		ands	r7, r3, #96
 951 0090 1E46     		mov	r6, r3
 952 0092 11D0     		beq	.L136
 953              	.L51:
 954              		.loc 1 660 0
 955 0094 0021     		movs	r1, #0
 956 0096 2046     		mov	r0, r4
 957 0098 FFF7FEFF 		bl	usb_lld_stall_in
 958              	.LVL82:
 959              		.loc 1 661 0
 960 009c 0021     		movs	r1, #0
 961 009e 2046     		mov	r0, r4
 962 00a0 FFF7FEFF 		bl	usb_lld_stall_out
 963              	.LVL83:
 964              		.loc 1 662 0
 965 00a4 6368     		ldr	r3, [r4, #4]
 966 00a6 1B68     		ldr	r3, [r3]
 967 00a8 13B1     		cbz	r3, .L88
 968              		.loc 1 662 0 is_stmt 0 discriminator 1
 969 00aa 0521     		movs	r1, #5
ARM GAS  /tmp/ccML9HRd.s 			page 18


 970 00ac 2046     		mov	r0, r4
 971 00ae 9847     		blx	r3
 972              	.LVL84:
 973              	.L88:
 974              		.loc 1 663 0 is_stmt 1
 975 00b0 0623     		movs	r3, #6
 976 00b2 84F83430 		strb	r3, [r4, #52]
 977              		.loc 1 664 0
 978 00b6 F8BD     		pop	{r3, r4, r5, r6, r7, pc}
 979              	.LVL85:
 980              	.L136:
 981              	.LBB331:
 982              	.LBB332:
 983              		.loc 1 88 0
 984 00b8 94F84500 		ldrb	r0, [r4, #69]	@ zero_extendqisi2
 985 00bc 03F07F02 		and	r2, r3, #127
 986 00c0 42EA0025 		orr	r5, r2, r0, lsl #8
 987 00c4 B5F5407F 		cmp	r5, #768
 988 00c8 00F0EB80 		beq	.L56
 989 00cc 16D9     		bls	.L137
 990 00ce B5F5C06F 		cmp	r5, #1536
 991 00d2 00F0CE80 		beq	.L64
 992 00d6 2FD9     		bls	.L138
 993 00d8 B5F5106F 		cmp	r5, #2304
 994 00dc 76D0     		beq	.L68
 995 00de 40F60242 		movw	r2, #3074
 996 00e2 9542     		cmp	r5, r2
 997 00e4 00F0EF80 		beq	.L61
 998 00e8 B5F5006F 		cmp	r5, #2048
 999 00ec D2D1     		bne	.L51
 1000              		.loc 1 141 0
 1001 00ee 04F14F02 		add	r2, r4, #79
 1002 00f2 0120     		movs	r0, #1
 1003 00f4 2764     		str	r7, [r4, #64]
 1004 00f6 A263     		str	r2, [r4, #56]
 1005 00f8 E063     		str	r0, [r4, #60]
 1006 00fa 95E7     		b	.L99
 1007              	.L137:
 1008              		.loc 1 88 0
 1009 00fc 022D     		cmp	r5, #2
 1010 00fe 00F0A280 		beq	.L58
 1011 0102 40F29780 		bls	.L139
 1012 0106 B5F5807F 		cmp	r5, #256
 1013 010a 00F08480 		beq	.L62
 1014 010e B5F5817F 		cmp	r5, #258
 1015 0112 BFD1     		bne	.L51
 1016              		.loc 1 201 0
 1017 0114 94F84630 		ldrb	r3, [r4, #70]	@ zero_extendqisi2
 1018 0118 002B     		cmp	r3, #0
 1019 011a BBD1     		bne	.L51
 1020              		.loc 1 205 0
 1021 011c 94F84830 		ldrb	r3, [r4, #72]	@ zero_extendqisi2
 1022 0120 13F00F01 		ands	r1, r3, #15
 1023 0124 15D0     		beq	.L86
 1024              		.loc 1 206 0
 1025 0126 1E06     		lsls	r6, r3, #24
 1026              		.loc 1 207 0
ARM GAS  /tmp/ccML9HRd.s 			page 19


 1027 0128 2046     		mov	r0, r4
 1028              		.loc 1 206 0
 1029 012a 00F1F480 		bmi	.L140
 1030              	.LVL86:
 1031              		.loc 1 210 0
 1032 012e FFF7FEFF 		bl	usb_lld_clear_out
 1033              	.LVL87:
 1034 0132 94F84460 		ldrb	r6, [r4, #68]	@ zero_extendqisi2
 1035 0136 0CE0     		b	.L86
 1036              	.L138:
 1037              		.loc 1 88 0
 1038 0138 40F20233 		movw	r3, #770
 1039 013c 9D42     		cmp	r5, r3
 1040 013e 57D0     		beq	.L66
 1041 0140 B5F5A06F 		cmp	r5, #1280
 1042 0144 A6D1     		bne	.L51
 1043              		.loc 1 118 0
 1044 0146 B4F84430 		ldrh	r3, [r4, #68]
 1045 014a B3F5A06F 		cmp	r3, #1280
 1046 014e 00F0D080 		beq	.L141
 1047              	.L86:
 1048              		.loc 1 229 0
 1049 0152 0023     		movs	r3, #0
 1050 0154 A363     		str	r3, [r4, #56]
 1051 0156 E363     		str	r3, [r4, #60]
 1052 0158 2364     		str	r3, [r4, #64]
 1053              	.L72:
 1054              	.LVL88:
 1055              	.LBE332:
 1056              	.LBE331:
 1057              		.loc 1 681 0
 1058 015a 3306     		lsls	r3, r6, #24
 1059 015c 2AD4     		bmi	.L93
 1060              	.LVL89:
 1061              	.L96:
 1062              	.LBB336:
 1063              	.LBB337:
 1064              		.loc 1 427 0
 1065 015e E368     		ldr	r3, [r4, #12]
 1066 0160 5A69     		ldr	r2, [r3, #20]
 1067              	.LBE337:
 1068              	.LBE336:
 1069              		.loc 1 718 0
 1070 0162 0521     		movs	r1, #5
 1071              	.LBB340:
 1072              	.LBB338:
 1073              		.loc 1 429 0
 1074 0164 0023     		movs	r3, #0
 1075              	.LBE338:
 1076              	.LBE340:
 1077              		.loc 1 718 0
 1078 0166 84F83410 		strb	r1, [r4, #52]
 1079              	.LVL90:
 1080              	.LBB341:
 1081              	.LBB339:
 1082              		.loc 1 434 0
 1083 016a 1946     		mov	r1, r3
ARM GAS  /tmp/ccML9HRd.s 			page 20


 1084              		.loc 1 429 0
 1085 016c 1370     		strb	r3, [r2]
 1086              		.loc 1 430 0
 1087 016e D360     		str	r3, [r2, #12]
 1088              		.loc 1 431 0
 1089 0170 5360     		str	r3, [r2, #4]
 1090              		.loc 1 432 0
 1091 0172 9360     		str	r3, [r2, #8]
 1092              	.LVL91:
 1093              	.L133:
 1094              		.loc 1 434 0
 1095 0174 2046     		mov	r0, r4
 1096 0176 FFF7FEFF 		bl	usb_lld_prepare_transmit
 1097              	.LVL92:
 1098              	.LBE339:
 1099              	.LBE341:
 1100              	.LBB342:
 1101              	.LBB343:
 1102              	.LBB344:
 1103              	.LBB345:
 1104              	.LBB346:
 1105              	.LBB347:
 1106              		.loc 2 546 0
 1107 017a 2023     		movs	r3, #32
 1108              		.syntax unified
 1109              	@ 546 "/home/selim/working/ChibiOS/os/ext/CMSIS/include/core_cmFunc.h" 1
 1110 017c 83F31188 		MSR basepri, r3
 1111              	@ 0 "" 2
 1112              	.LVL93:
 1113              		.thumb
 1114              		.syntax unified
 1115              	.LBE347:
 1116              	.LBE346:
 1117              	.LBE345:
 1118              	.LBE344:
 1119              	.LBE343:
 1120              	.LBE342:
 1121              	.LBB348:
 1122              	.LBB349:
 1123              		.loc 1 539 0
 1124 0180 2389     		ldrh	r3, [r4, #8]
 1125 0182 13F00101 		ands	r1, r3, #1
 1126 0186 7FF47BAF 		bne	.L98
 1127              		.loc 1 543 0
 1128 018a 43F00103 		orr	r3, r3, #1
 1129 018e 2381     		strh	r3, [r4, #8]	@ movhi
 1130              		.loc 1 544 0
 1131 0190 2046     		mov	r0, r4
 1132 0192 FFF7FEFF 		bl	usb_lld_start_in
 1133              	.LVL94:
 1134 0196 73E7     		b	.L98
 1135              	.LVL95:
 1136              	.L135:
 1137              	.LBE349:
 1138              	.LBE348:
 1139              		.loc 1 683 0
 1140 0198 60B1     		cbz	r0, .L93
ARM GAS  /tmp/ccML9HRd.s 			page 21


 1141              	.LBB350:
 1142              	.LBB351:
 1143              		.loc 1 427 0
 1144 019a E368     		ldr	r3, [r4, #12]
 1145              	.LBE351:
 1146              	.LBE350:
 1147              		.loc 1 686 0
 1148 019c A56B     		ldr	r5, [r4, #56]
 1149              	.LVL96:
 1150              	.LBB354:
 1151              	.LBB352:
 1152              		.loc 1 427 0
 1153 019e 5B69     		ldr	r3, [r3, #20]
 1154              	.LVL97:
 1155              		.loc 1 429 0
 1156 01a0 0022     		movs	r2, #0
 1157              	.LBE352:
 1158              	.LBE354:
 1159              		.loc 1 685 0
 1160 01a2 0121     		movs	r1, #1
 1161              	.LVL98:
 1162 01a4 84F83410 		strb	r1, [r4, #52]
 1163              	.LBB355:
 1164              	.LBB353:
 1165              		.loc 1 434 0
 1166 01a8 1146     		mov	r1, r2
 1167              		.loc 1 430 0
 1168 01aa DD60     		str	r5, [r3, #12]
 1169              	.LVL99:
 1170              		.loc 1 431 0
 1171 01ac 5860     		str	r0, [r3, #4]
 1172              		.loc 1 429 0
 1173 01ae 1A70     		strb	r2, [r3]
 1174              		.loc 1 432 0
 1175 01b0 9A60     		str	r2, [r3, #8]
 1176 01b2 DFE7     		b	.L133
 1177              	.LVL100:
 1178              	.L93:
 1179              	.LBE353:
 1180              	.LBE355:
 1181              	.LBB356:
 1182              	.LBB357:
 1183              		.loc 1 401 0
 1184 01b4 E368     		ldr	r3, [r4, #12]
 1185 01b6 9A69     		ldr	r2, [r3, #24]
 1186              	.LBE357:
 1187              	.LBE356:
 1188              		.loc 1 694 0
 1189 01b8 0321     		movs	r1, #3
 1190              	.LBB360:
 1191              	.LBB358:
 1192              		.loc 1 403 0
 1193 01ba 0023     		movs	r3, #0
 1194              	.LBE358:
 1195              	.LBE360:
 1196              		.loc 1 694 0
 1197 01bc 84F83410 		strb	r1, [r4, #52]
ARM GAS  /tmp/ccML9HRd.s 			page 22


 1198              	.LVL101:
 1199              	.LBB361:
 1200              	.LBB359:
 1201              		.loc 1 408 0
 1202 01c0 1946     		mov	r1, r3
 1203              		.loc 1 403 0
 1204 01c2 1370     		strb	r3, [r2]
 1205              		.loc 1 404 0
 1206 01c4 D360     		str	r3, [r2, #12]
 1207              		.loc 1 405 0
 1208 01c6 5360     		str	r3, [r2, #4]
 1209              		.loc 1 406 0
 1210 01c8 9360     		str	r3, [r2, #8]
 1211 01ca 49E7     		b	.L132
 1212              	.LVL102:
 1213              	.L68:
 1214              	.LBE359:
 1215              	.LBE361:
 1216              	.LBB362:
 1217              	.LBB335:
 1218              		.loc 1 145 0
 1219 01cc 94F84630 		ldrb	r3, [r4, #70]	@ zero_extendqisi2
 1220 01d0 84F84F30 		strb	r3, [r4, #79]
 1221              		.loc 1 146 0
 1222 01d4 002B     		cmp	r3, #0
 1223 01d6 7DD1     		bne	.L76
 1224              		.loc 1 147 0
 1225 01d8 0323     		movs	r3, #3
 1226 01da 2370     		strb	r3, [r4]
 1227              	.L77:
 1228              		.loc 1 152 0
 1229 01dc 6368     		ldr	r3, [r4, #4]
 1230 01de 1B68     		ldr	r3, [r3]
 1231 01e0 002B     		cmp	r3, #0
 1232 01e2 B6D0     		beq	.L86
 1233 01e4 0221     		movs	r1, #2
 1234 01e6 2046     		mov	r0, r4
 1235 01e8 9847     		blx	r3
 1236              	.LVL103:
 1237 01ea 94F84460 		ldrb	r6, [r4, #68]	@ zero_extendqisi2
 1238 01ee B0E7     		b	.L86
 1239              	.L66:
 1240              		.loc 1 217 0
 1241 01f0 94F84630 		ldrb	r3, [r4, #70]	@ zero_extendqisi2
 1242 01f4 002B     		cmp	r3, #0
 1243 01f6 7FF44DAF 		bne	.L51
 1244              		.loc 1 221 0
 1245 01fa 94F84830 		ldrb	r3, [r4, #72]	@ zero_extendqisi2
 1246 01fe 13F00F01 		ands	r1, r3, #15
 1247 0202 A6D0     		beq	.L86
 1248              		.loc 1 222 0
 1249 0204 1D06     		lsls	r5, r3, #24
 1250              		.loc 1 223 0
 1251 0206 2046     		mov	r0, r4
 1252              		.loc 1 222 0
 1253 0208 00F18A80 		bmi	.L142
 1254              	.LVL104:
ARM GAS  /tmp/ccML9HRd.s 			page 23


 1255              		.loc 1 226 0
 1256 020c FFF7FEFF 		bl	usb_lld_stall_out
 1257              	.LVL105:
 1258 0210 94F84460 		ldrb	r6, [r4, #68]	@ zero_extendqisi2
 1259 0214 9DE7     		b	.L86
 1260              	.L62:
 1261              		.loc 1 98 0
 1262 0216 94F84630 		ldrb	r3, [r4, #70]	@ zero_extendqisi2
 1263 021a 012B     		cmp	r3, #1
 1264 021c 7FF43AAF 		bne	.L51
 1265              		.loc 1 99 0
 1266 0220 B4F84C30 		ldrh	r3, [r4, #76]
 1267              		.loc 1 100 0
 1268 0224 A763     		str	r7, [r4, #56]
 1269              		.loc 1 99 0
 1270 0226 23F00203 		bic	r3, r3, #2
 1271              		.loc 1 100 0
 1272 022a E763     		str	r7, [r4, #60]
 1273 022c 2764     		str	r7, [r4, #64]
 1274              		.loc 1 99 0
 1275 022e A4F84C30 		strh	r3, [r4, #76]	@ movhi
 1276 0232 92E7     		b	.L72
 1277              	.L139:
 1278              		.loc 1 88 0
 1279 0234 002D     		cmp	r5, #0
 1280 0236 43D1     		bne	.L143
 1281              		.loc 1 93 0
 1282 0238 04F14C02 		add	r2, r4, #76
 1283 023c 0220     		movs	r0, #2
 1284 023e 2564     		str	r5, [r4, #64]
 1285 0240 A263     		str	r2, [r4, #56]
 1286 0242 E063     		str	r0, [r4, #60]
 1287 0244 F0E6     		b	.L99
 1288              	.L58:
 1289              		.loc 1 165 0
 1290 0246 94F84810 		ldrb	r1, [r4, #72]	@ zero_extendqisi2
 1291 024a 11F0800F 		tst	r1, #128
 1292              		.loc 1 166 0
 1293 024e 2046     		mov	r0, r4
 1294 0250 01F00F01 		and	r1, r1, #15
 1295              		.loc 1 165 0
 1296 0254 41D1     		bne	.L144
 1297              	.LVL106:
 1298              		.loc 1 183 0
 1299 0256 FFF7FEFF 		bl	usb_lld_get_status_out
 1300              	.LVL107:
 1301 025a 0128     		cmp	r0, #1
 1302 025c 41D0     		beq	.L82
 1303              	.L129:
 1304 025e 0228     		cmp	r0, #2
 1305 0260 7FF418AF 		bne	.L51
 1306              		.loc 1 191 0
 1307 0264 314B     		ldr	r3, .L145
 1308 0266 A363     		str	r3, [r4, #56]
 1309 0268 E063     		str	r0, [r4, #60]
 1310 026a 2764     		str	r7, [r4, #64]
 1311 026c 94F84430 		ldrb	r3, [r4, #68]	@ zero_extendqisi2
ARM GAS  /tmp/ccML9HRd.s 			page 24


 1312 0270 DAE6     		b	.L99
 1313              	.L64:
 1314              		.loc 1 129 0
 1315 0272 94F84900 		ldrb	r0, [r4, #73]	@ zero_extendqisi2
 1316 0276 6168     		ldr	r1, [r4, #4]
 1317 0278 94F84830 		ldrb	r3, [r4, #72]	@ zero_extendqisi2
 1318 027c 4D68     		ldr	r5, [r1, #4]
 1319 027e 94F84620 		ldrb	r2, [r4, #70]	@ zero_extendqisi2
 1320 0282 94F84710 		ldrb	r1, [r4, #71]	@ zero_extendqisi2
 1321 0286 43EA0023 		orr	r3, r3, r0, lsl #8
 1322 028a 2046     		mov	r0, r4
 1323 028c A847     		blx	r5
 1324              	.LVL108:
 1325              		.loc 1 132 0
 1326 028e 0028     		cmp	r0, #0
 1327 0290 3FF400AF 		beq	.L51
 1328              		.loc 1 136 0
 1329 0294 09C8     		ldmia	r0, {r0, r3}
 1330              	.LVL109:
 1331 0296 2764     		str	r7, [r4, #64]
 1332 0298 A363     		str	r3, [r4, #56]
 1333 029a E063     		str	r0, [r4, #60]
 1334 029c 94F84430 		ldrb	r3, [r4, #68]	@ zero_extendqisi2
 1335 02a0 C2E6     		b	.L99
 1336              	.L56:
 1337              		.loc 1 107 0
 1338 02a2 94F84630 		ldrb	r3, [r4, #70]	@ zero_extendqisi2
 1339 02a6 012B     		cmp	r3, #1
 1340 02a8 7FF4F4AE 		bne	.L51
 1341              		.loc 1 108 0
 1342 02ac B4F84C30 		ldrh	r3, [r4, #76]
 1343              		.loc 1 109 0
 1344 02b0 A763     		str	r7, [r4, #56]
 1345              		.loc 1 108 0
 1346 02b2 43F00203 		orr	r3, r3, #2
 1347              		.loc 1 109 0
 1348 02b6 E763     		str	r7, [r4, #60]
 1349 02b8 2764     		str	r7, [r4, #64]
 1350              		.loc 1 108 0
 1351 02ba A4F84C30 		strh	r3, [r4, #76]	@ movhi
 1352 02be 4CE7     		b	.L72
 1353              	.L143:
 1354              		.loc 1 88 0
 1355 02c0 012D     		cmp	r5, #1
 1356 02c2 7FF4E7AE 		bne	.L51
 1357              	.L61:
 1358              		.loc 1 160 0
 1359 02c6 1A4A     		ldr	r2, .L145+4
 1360 02c8 A263     		str	r2, [r4, #56]
 1361 02ca 0220     		movs	r0, #2
 1362 02cc 0022     		movs	r2, #0
 1363 02ce E063     		str	r0, [r4, #60]
 1364 02d0 2264     		str	r2, [r4, #64]
 1365 02d2 A9E6     		b	.L99
 1366              	.L76:
 1367              		.loc 1 150 0
 1368 02d4 0423     		movs	r3, #4
ARM GAS  /tmp/ccML9HRd.s 			page 25


 1369 02d6 2370     		strb	r3, [r4]
 1370 02d8 80E7     		b	.L77
 1371              	.LVL110:
 1372              	.L144:
 1373              		.loc 1 166 0
 1374 02da FFF7FEFF 		bl	usb_lld_get_status_in
 1375              	.LVL111:
 1376 02de 0128     		cmp	r0, #1
 1377 02e0 BDD1     		bne	.L129
 1378              	.L82:
 1379              		.loc 1 186 0
 1380 02e2 144B     		ldr	r3, .L145+8
 1381 02e4 A363     		str	r3, [r4, #56]
 1382 02e6 E563     		str	r5, [r4, #60]
 1383 02e8 2764     		str	r7, [r4, #64]
 1384 02ea 2846     		mov	r0, r5
 1385 02ec 94F84430 		ldrb	r3, [r4, #68]	@ zero_extendqisi2
 1386 02f0 9AE6     		b	.L99
 1387              	.L141:
 1388              	.LVL112:
 1389              	.LBB333:
 1390              	.LBB334:
 1391              		.loc 1 66 0
 1392 02f2 94F84630 		ldrb	r3, [r4, #70]	@ zero_extendqisi2
 1393 02f6 84F84E30 		strb	r3, [r4, #78]
 1394              		.loc 1 67 0
 1395 02fa 2046     		mov	r0, r4
 1396 02fc FFF7FEFF 		bl	usb_lld_set_address
 1397              	.LVL113:
 1398              		.loc 1 68 0
 1399 0300 6368     		ldr	r3, [r4, #4]
 1400 0302 1B68     		ldr	r3, [r3]
 1401 0304 13B1     		cbz	r3, .L75
 1402 0306 0121     		movs	r1, #1
 1403 0308 2046     		mov	r0, r4
 1404 030a 9847     		blx	r3
 1405              	.LVL114:
 1406              	.L75:
 1407              		.loc 1 69 0
 1408 030c 0323     		movs	r3, #3
 1409 030e 94F84460 		ldrb	r6, [r4, #68]	@ zero_extendqisi2
 1410 0312 2370     		strb	r3, [r4]
 1411 0314 1DE7     		b	.L86
 1412              	.LVL115:
 1413              	.L140:
 1414              	.LBE334:
 1415              	.LBE333:
 1416              		.loc 1 207 0
 1417 0316 FFF7FEFF 		bl	usb_lld_clear_in
 1418              	.LVL116:
 1419 031a 94F84460 		ldrb	r6, [r4, #68]	@ zero_extendqisi2
 1420 031e 18E7     		b	.L86
 1421              	.LVL117:
 1422              	.L142:
 1423              		.loc 1 223 0
 1424 0320 FFF7FEFF 		bl	usb_lld_stall_in
 1425              	.LVL118:
ARM GAS  /tmp/ccML9HRd.s 			page 26


 1426 0324 94F84460 		ldrb	r6, [r4, #68]	@ zero_extendqisi2
 1427 0328 13E7     		b	.L86
 1428              	.L146:
 1429 032a 00BF     		.align	2
 1430              	.L145:
 1431 032c 00000000 		.word	.LANCHOR2
 1432 0330 00000000 		.word	.LANCHOR0
 1433 0334 00000000 		.word	.LANCHOR1
 1434              	.LBE335:
 1435              	.LBE362:
 1436              		.cfi_endproc
 1437              	.LFE276:
 1438              		.size	_usb_ep0setup, .-_usb_ep0setup
 1439              		.section	.text._usb_ep0in,"ax",%progbits
 1440              		.align	2
 1441              		.p2align 4,,15
 1442              		.global	_usb_ep0in
 1443              		.thumb
 1444              		.thumb_func
 1445              		.type	_usb_ep0in, %function
 1446              	_usb_ep0in:
 1447              	.LFB277:
 1448              		.loc 1 741 0
 1449              		.cfi_startproc
 1450              		@ args = 0, pretend = 0, frame = 0
 1451              		@ frame_needed = 0, uses_anonymous_args = 0
 1452              	.LVL119:
 1453              		.loc 1 745 0
 1454 0000 90F83430 		ldrb	r3, [r0, #52]	@ zero_extendqisi2
 1455              		.loc 1 741 0
 1456 0004 10B5     		push	{r4, lr}
 1457              		.cfi_def_cfa_offset 8
 1458              		.cfi_offset 4, -8
 1459              		.cfi_offset 14, -4
 1460              		.loc 1 741 0
 1461 0006 0446     		mov	r4, r0
 1462              		.loc 1 745 0
 1463 0008 062B     		cmp	r3, #6
 1464 000a 15D8     		bhi	.L147
 1465 000c DFE803F0 		tbb	[pc, r3]
 1466              	.L150:
 1467 0010 04       		.byte	(.L149-.L150)/2
 1468 0011 3B       		.byte	(.L151-.L150)/2
 1469 0012 1C       		.byte	(.L152-.L150)/2
 1470 0013 04       		.byte	(.L149-.L150)/2
 1471 0014 04       		.byte	(.L149-.L150)/2
 1472 0015 15       		.byte	(.L153-.L150)/2
 1473 0016 04       		.byte	(.L149-.L150)/2
 1474 0017 00       		.p2align 1
 1475              	.L149:
 1476              		.loc 1 790 0
 1477 0018 0021     		movs	r1, #0
 1478              	.LVL120:
 1479 001a FFF7FEFF 		bl	usb_lld_stall_in
 1480              	.LVL121:
 1481              		.loc 1 791 0
 1482 001e 0021     		movs	r1, #0
ARM GAS  /tmp/ccML9HRd.s 			page 27


 1483 0020 2046     		mov	r0, r4
 1484 0022 FFF7FEFF 		bl	usb_lld_stall_out
 1485              	.LVL122:
 1486              		.loc 1 792 0
 1487 0026 6368     		ldr	r3, [r4, #4]
 1488 0028 1B68     		ldr	r3, [r3]
 1489 002a 13B1     		cbz	r3, .L159
 1490              		.loc 1 792 0 is_stmt 0 discriminator 1
 1491 002c 0521     		movs	r1, #5
 1492 002e 2046     		mov	r0, r4
 1493 0030 9847     		blx	r3
 1494              	.LVL123:
 1495              	.L159:
 1496              		.loc 1 793 0 is_stmt 1
 1497 0032 0623     		movs	r3, #6
 1498 0034 84F83430 		strb	r3, [r4, #52]
 1499              	.L147:
 1500 0038 10BD     		pop	{r4, pc}
 1501              	.LVL124:
 1502              	.L153:
 1503              		.loc 1 775 0
 1504 003a 036C     		ldr	r3, [r0, #64]
 1505 003c 03B1     		cbz	r3, .L158
 1506              		.loc 1 776 0
 1507 003e 9847     		blx	r3
 1508              	.LVL125:
 1509              	.L158:
 1510              		.loc 1 778 0
 1511 0040 0023     		movs	r3, #0
 1512 0042 84F83430 		strb	r3, [r4, #52]
 1513              		.loc 1 779 0
 1514 0046 10BD     		pop	{r4, pc}
 1515              	.LVL126:
 1516              	.L152:
 1517 0048 C368     		ldr	r3, [r0, #12]
 1518              	.LVL127:
 1519              	.L155:
 1520              	.LBB363:
 1521              	.LBB364:
 1522              		.loc 1 401 0
 1523 004a 9A69     		ldr	r2, [r3, #24]
 1524              	.LBE364:
 1525              	.LBE363:
 1526              		.loc 1 763 0
 1527 004c 0321     		movs	r1, #3
 1528              	.LBB367:
 1529              	.LBB365:
 1530              		.loc 1 403 0
 1531 004e 0023     		movs	r3, #0
 1532              	.LBE365:
 1533              	.LBE367:
 1534              		.loc 1 763 0
 1535 0050 84F83410 		strb	r1, [r4, #52]
 1536              	.LVL128:
 1537              	.LBB368:
 1538              	.LBB366:
 1539              		.loc 1 408 0
ARM GAS  /tmp/ccML9HRd.s 			page 28


 1540 0054 2046     		mov	r0, r4
 1541 0056 1946     		mov	r1, r3
 1542              		.loc 1 403 0
 1543 0058 1370     		strb	r3, [r2]
 1544              		.loc 1 404 0
 1545 005a D360     		str	r3, [r2, #12]
 1546              		.loc 1 405 0
 1547 005c 5360     		str	r3, [r2, #4]
 1548              		.loc 1 406 0
 1549 005e 9360     		str	r3, [r2, #8]
 1550              		.loc 1 408 0
 1551 0060 FFF7FEFF 		bl	usb_lld_prepare_receive
 1552              	.LVL129:
 1553              	.LBE366:
 1554              	.LBE368:
 1555              	.LBB369:
 1556              	.LBB370:
 1557              	.LBB371:
 1558              	.LBB372:
 1559              	.LBB373:
 1560              	.LBB374:
 1561              		.loc 2 546 0
 1562 0064 2023     		movs	r3, #32
 1563              		.syntax unified
 1564              	@ 546 "/home/selim/working/ChibiOS/os/ext/CMSIS/include/core_cmFunc.h" 1
 1565 0066 83F31188 		MSR basepri, r3
 1566              	@ 0 "" 2
 1567              	.LVL130:
 1568              		.thumb
 1569              		.syntax unified
 1570              	.LBE374:
 1571              	.LBE373:
 1572              	.LBE372:
 1573              	.LBE371:
 1574              	.LBE370:
 1575              	.LBE369:
 1576              	.LBB375:
 1577              	.LBB376:
 1578              		.loc 1 511 0
 1579 006a 6389     		ldrh	r3, [r4, #10]
 1580 006c 13F00101 		ands	r1, r3, #1
 1581 0070 05D1     		bne	.L157
 1582              		.loc 1 515 0
 1583 0072 43F00103 		orr	r3, r3, #1
 1584 0076 6381     		strh	r3, [r4, #10]	@ movhi
 1585              		.loc 1 516 0
 1586 0078 2046     		mov	r0, r4
 1587 007a FFF7FEFF 		bl	usb_lld_start_out
 1588              	.LVL131:
 1589              	.L157:
 1590              	.LBE376:
 1591              	.LBE375:
 1592              	.LBB377:
 1593              	.LBB378:
 1594              	.LBB379:
 1595              	.LBB380:
 1596              	.LBB381:
ARM GAS  /tmp/ccML9HRd.s 			page 29


 1597              	.LBB382:
 1598              		.loc 2 546 0
 1599 007e 0023     		movs	r3, #0
 1600              		.syntax unified
 1601              	@ 546 "/home/selim/working/ChibiOS/os/ext/CMSIS/include/core_cmFunc.h" 1
 1602 0080 83F31188 		MSR basepri, r3
 1603              	@ 0 "" 2
 1604              	.LVL132:
 1605              		.thumb
 1606              		.syntax unified
 1607 0084 10BD     		pop	{r4, pc}
 1608              	.LVL133:
 1609              	.L151:
 1610              	.LBE382:
 1611              	.LBE381:
 1612              	.LBE380:
 1613              	.LBE379:
 1614              	.LBE378:
 1615              	.LBE377:
 1616              		.loc 1 751 0
 1617 0086 90F84B10 		ldrb	r1, [r0, #75]	@ zero_extendqisi2
 1618              	.LVL134:
 1619 008a 90F84A30 		ldrb	r3, [r0, #74]	@ zero_extendqisi2
 1620 008e C26B     		ldr	r2, [r0, #60]
 1621 0090 43EA0123 		orr	r3, r3, r1, lsl #8
 1622 0094 9342     		cmp	r3, r2
 1623              		.loc 1 752 0
 1624 0096 C368     		ldr	r3, [r0, #12]
 1625              		.loc 1 751 0
 1626 0098 D7D9     		bls	.L155
 1627              		.loc 1 751 0 is_stmt 0 discriminator 1
 1628 009a 188A     		ldrh	r0, [r3, #16]
 1629              	.LVL135:
 1630 009c B2FBF0F1 		udiv	r1, r2, r0
 1631              	.LVL136:
 1632 00a0 00FB1122 		mls	r2, r0, r1, r2
 1633 00a4 002A     		cmp	r2, #0
 1634 00a6 D0D1     		bne	.L155
 1635              	.LVL137:
 1636              	.LBB383:
 1637              	.LBB384:
 1638              		.loc 1 427 0 is_stmt 1
 1639 00a8 5B69     		ldr	r3, [r3, #20]
 1640              	.LVL138:
 1641              		.loc 1 434 0
 1642 00aa 1146     		mov	r1, r2
 1643              		.loc 1 429 0
 1644 00ac 1A70     		strb	r2, [r3]
 1645              	.LVL139:
 1646              		.loc 1 430 0
 1647 00ae DA60     		str	r2, [r3, #12]
 1648              		.loc 1 431 0
 1649 00b0 5A60     		str	r2, [r3, #4]
 1650              		.loc 1 432 0
 1651 00b2 9A60     		str	r2, [r3, #8]
 1652              		.loc 1 434 0
 1653 00b4 2046     		mov	r0, r4
ARM GAS  /tmp/ccML9HRd.s 			page 30


 1654 00b6 FFF7FEFF 		bl	usb_lld_prepare_transmit
 1655              	.LVL140:
 1656              	.LBE384:
 1657              	.LBE383:
 1658              	.LBB385:
 1659              	.LBB386:
 1660              	.LBB387:
 1661              	.LBB388:
 1662              	.LBB389:
 1663              	.LBB390:
 1664              		.loc 2 546 0
 1665 00ba 2023     		movs	r3, #32
 1666              		.syntax unified
 1667              	@ 546 "/home/selim/working/ChibiOS/os/ext/CMSIS/include/core_cmFunc.h" 1
 1668 00bc 83F31188 		MSR basepri, r3
 1669              	@ 0 "" 2
 1670              	.LVL141:
 1671              		.thumb
 1672              		.syntax unified
 1673              	.LBE390:
 1674              	.LBE389:
 1675              	.LBE388:
 1676              	.LBE387:
 1677              	.LBE386:
 1678              	.LBE385:
 1679              	.LBB391:
 1680              	.LBB392:
 1681              		.loc 1 539 0
 1682 00c0 2389     		ldrh	r3, [r4, #8]
 1683 00c2 13F00101 		ands	r1, r3, #1
 1684 00c6 05D1     		bne	.L156
 1685              		.loc 1 543 0
 1686 00c8 43F00103 		orr	r3, r3, #1
 1687 00cc 2381     		strh	r3, [r4, #8]	@ movhi
 1688              		.loc 1 544 0
 1689 00ce 2046     		mov	r0, r4
 1690 00d0 FFF7FEFF 		bl	usb_lld_start_in
 1691              	.LVL142:
 1692              	.L156:
 1693              	.LBE392:
 1694              	.LBE391:
 1695              	.LBB393:
 1696              	.LBB394:
 1697              	.LBB395:
 1698              	.LBB396:
 1699              	.LBB397:
 1700              	.LBB398:
 1701              		.loc 2 546 0
 1702 00d4 0023     		movs	r3, #0
 1703              		.syntax unified
 1704              	@ 546 "/home/selim/working/ChibiOS/os/ext/CMSIS/include/core_cmFunc.h" 1
 1705 00d6 83F31188 		MSR basepri, r3
 1706              	@ 0 "" 2
 1707              	.LVL143:
 1708              		.thumb
 1709              		.syntax unified
 1710              	.LBE398:
ARM GAS  /tmp/ccML9HRd.s 			page 31


 1711              	.LBE397:
 1712              	.LBE396:
 1713              	.LBE395:
 1714              	.LBE394:
 1715              	.LBE393:
 1716              		.loc 1 757 0
 1717 00da 0223     		movs	r3, #2
 1718 00dc 84F83430 		strb	r3, [r4, #52]
 1719              		.loc 1 758 0
 1720 00e0 10BD     		pop	{r4, pc}
 1721              		.cfi_endproc
 1722              	.LFE277:
 1723              		.size	_usb_ep0in, .-_usb_ep0in
 1724 00e2 00BF     		.section	.text._usb_ep0out,"ax",%progbits
 1725              		.align	2
 1726              		.p2align 4,,15
 1727              		.global	_usb_ep0out
 1728              		.thumb
 1729              		.thumb_func
 1730              		.type	_usb_ep0out, %function
 1731              	_usb_ep0out:
 1732              	.LFB278:
 1733              		.loc 1 810 0
 1734              		.cfi_startproc
 1735              		@ args = 0, pretend = 0, frame = 0
 1736              		@ frame_needed = 0, uses_anonymous_args = 0
 1737              	.LVL144:
 1738              		.loc 1 813 0
 1739 0000 90F83420 		ldrb	r2, [r0, #52]	@ zero_extendqisi2
 1740 0004 062A     		cmp	r2, #6
 1741 0006 0CD8     		bhi	.L184
 1742 0008 0123     		movs	r3, #1
 1743 000a 9340     		lsls	r3, r3, r2
 1744 000c 13F0670F 		tst	r3, #103
 1745              		.loc 1 810 0
 1746 0010 10B5     		push	{r4, lr}
 1747              		.cfi_def_cfa_offset 8
 1748              		.cfi_offset 4, -8
 1749              		.cfi_offset 14, -4
 1750 0012 0446     		mov	r4, r0
 1751 0014 12D1     		bne	.L169
 1752 0016 13F00802 		ands	r2, r3, #8
 1753 001a 03D1     		bne	.L170
 1754 001c DB06     		lsls	r3, r3, #27
 1755 001e 1ED4     		bmi	.L185
 1756              	.L167:
 1757 0020 10BD     		pop	{r4, pc}
 1758              	.L184:
 1759              		.cfi_def_cfa_offset 0
 1760              		.cfi_restore 4
 1761              		.cfi_restore 14
 1762 0022 7047     		bx	lr
 1763              	.L170:
 1764              		.cfi_def_cfa_offset 8
 1765              		.cfi_offset 4, -8
 1766              		.cfi_offset 14, -4
 1767              		.loc 1 830 0
ARM GAS  /tmp/ccML9HRd.s 			page 32


 1768 0024 C368     		ldr	r3, [r0, #12]
 1769 0026 9B69     		ldr	r3, [r3, #24]
 1770 0028 9B68     		ldr	r3, [r3, #8]
 1771 002a 002B     		cmp	r3, #0
 1772 002c F8D1     		bne	.L167
 1773              		.loc 1 834 0
 1774 002e 036C     		ldr	r3, [r0, #64]
 1775 0030 03B1     		cbz	r3, .L172
 1776              		.loc 1 835 0
 1777 0032 9847     		blx	r3
 1778              	.LVL145:
 1779              	.L172:
 1780              		.loc 1 837 0
 1781 0034 0023     		movs	r3, #0
 1782 0036 84F83430 		strb	r3, [r4, #52]
 1783              		.loc 1 838 0
 1784 003a 10BD     		pop	{r4, pc}
 1785              	.LVL146:
 1786              	.L169:
 1787              		.loc 1 850 0
 1788 003c 0021     		movs	r1, #0
 1789              	.LVL147:
 1790 003e FFF7FEFF 		bl	usb_lld_stall_in
 1791              	.LVL148:
 1792              		.loc 1 851 0
 1793 0042 0021     		movs	r1, #0
 1794 0044 2046     		mov	r0, r4
 1795 0046 FFF7FEFF 		bl	usb_lld_stall_out
 1796              	.LVL149:
 1797              		.loc 1 852 0
 1798 004a 6368     		ldr	r3, [r4, #4]
 1799 004c 1B68     		ldr	r3, [r3]
 1800 004e 13B1     		cbz	r3, .L173
 1801              		.loc 1 852 0 is_stmt 0 discriminator 1
 1802 0050 0521     		movs	r1, #5
 1803 0052 2046     		mov	r0, r4
 1804 0054 9847     		blx	r3
 1805              	.LVL150:
 1806              	.L173:
 1807              		.loc 1 853 0 is_stmt 1
 1808 0056 0623     		movs	r3, #6
 1809 0058 84F83430 		strb	r3, [r4, #52]
 1810 005c 10BD     		pop	{r4, pc}
 1811              	.LVL151:
 1812              	.L185:
 1813              	.LBB399:
 1814              	.LBB400:
 1815              		.loc 1 427 0
 1816 005e C368     		ldr	r3, [r0, #12]
 1817 0060 5B69     		ldr	r3, [r3, #20]
 1818              	.LBE400:
 1819              	.LBE399:
 1820              		.loc 1 816 0
 1821 0062 0521     		movs	r1, #5
 1822              	.LVL152:
 1823 0064 80F83410 		strb	r1, [r0, #52]
 1824              	.LVL153:
ARM GAS  /tmp/ccML9HRd.s 			page 33


 1825              	.LBB402:
 1826              	.LBB401:
 1827              		.loc 1 429 0
 1828 0068 1A70     		strb	r2, [r3]
 1829              		.loc 1 430 0
 1830 006a DA60     		str	r2, [r3, #12]
 1831              		.loc 1 431 0
 1832 006c 5A60     		str	r2, [r3, #4]
 1833              		.loc 1 432 0
 1834 006e 9A60     		str	r2, [r3, #8]
 1835              		.loc 1 434 0
 1836 0070 1146     		mov	r1, r2
 1837 0072 FFF7FEFF 		bl	usb_lld_prepare_transmit
 1838              	.LVL154:
 1839              	.LBE401:
 1840              	.LBE402:
 1841              	.LBB403:
 1842              	.LBB404:
 1843              	.LBB405:
 1844              	.LBB406:
 1845              	.LBB407:
 1846              	.LBB408:
 1847              		.loc 2 546 0
 1848 0076 2023     		movs	r3, #32
 1849              		.syntax unified
 1850              	@ 546 "/home/selim/working/ChibiOS/os/ext/CMSIS/include/core_cmFunc.h" 1
 1851 0078 83F31188 		MSR basepri, r3
 1852              	@ 0 "" 2
 1853              	.LVL155:
 1854              		.thumb
 1855              		.syntax unified
 1856              	.LBE408:
 1857              	.LBE407:
 1858              	.LBE406:
 1859              	.LBE405:
 1860              	.LBE404:
 1861              	.LBE403:
 1862              	.LBB409:
 1863              	.LBB410:
 1864              		.loc 1 539 0
 1865 007c 2389     		ldrh	r3, [r4, #8]
 1866 007e 13F00101 		ands	r1, r3, #1
 1867 0082 03D0     		beq	.L186
 1868              	.L171:
 1869              	.LVL156:
 1870              	.LBE410:
 1871              	.LBE409:
 1872              	.LBB412:
 1873              	.LBB413:
 1874              	.LBB414:
 1875              	.LBB415:
 1876              	.LBB416:
 1877              	.LBB417:
 1878              		.loc 2 546 0
 1879 0084 0023     		movs	r3, #0
 1880              		.syntax unified
 1881              	@ 546 "/home/selim/working/ChibiOS/os/ext/CMSIS/include/core_cmFunc.h" 1
ARM GAS  /tmp/ccML9HRd.s 			page 34


 1882 0086 83F31188 		MSR basepri, r3
 1883              	@ 0 "" 2
 1884              	.LVL157:
 1885              		.thumb
 1886              		.syntax unified
 1887 008a 10BD     		pop	{r4, pc}
 1888              	.LVL158:
 1889              	.L186:
 1890              	.LBE417:
 1891              	.LBE416:
 1892              	.LBE415:
 1893              	.LBE414:
 1894              	.LBE413:
 1895              	.LBE412:
 1896              	.LBB418:
 1897              	.LBB411:
 1898              		.loc 1 543 0
 1899 008c 43F00103 		orr	r3, r3, #1
 1900 0090 2381     		strh	r3, [r4, #8]	@ movhi
 1901              		.loc 1 544 0
 1902 0092 2046     		mov	r0, r4
 1903 0094 FFF7FEFF 		bl	usb_lld_start_in
 1904              	.LVL159:
 1905 0098 F4E7     		b	.L171
 1906              	.LBE411:
 1907              	.LBE418:
 1908              		.cfi_endproc
 1909              	.LFE278:
 1910              		.size	_usb_ep0out, .-_usb_ep0out
 1911 009a 00BF     		.section	.rodata.zero_status,"a",%progbits
 1912              		.align	2
 1913              		.set	.LANCHOR0,. + 0
 1914              		.type	zero_status, %object
 1915              		.size	zero_status, 2
 1916              	zero_status:
 1917 0000 0000     		.space	2
 1918              		.section	.rodata.active_status,"a",%progbits
 1919              		.align	2
 1920              		.set	.LANCHOR2,. + 0
 1921              		.type	active_status, %object
 1922              		.size	active_status, 2
 1923              	active_status:
 1924 0000 0000     		.space	2
 1925              		.section	.rodata.halted_status,"a",%progbits
 1926              		.align	2
 1927              		.set	.LANCHOR1,. + 0
 1928              		.type	halted_status, %object
 1929              		.size	halted_status, 2
 1930              	halted_status:
 1931 0000 01       		.byte	1
 1932 0001 00       		.byte	0
 1933              		.text
 1934              	.Letext0:
 1935              		.file 3 "/usr/lib/gcc/arm-none-eabi/5.3.1/include/stddef.h"
 1936              		.file 4 "/usr/arm-none-eabi/include/machine/_default_types.h"
 1937              		.file 5 "/usr/arm-none-eabi/include/sys/_stdint.h"
 1938              		.file 6 "/home/selim/working/ChibiOS/os/rt/ports/ARMCMx/compilers/GCC/chtypes.h"
ARM GAS  /tmp/ccML9HRd.s 			page 35


 1939              		.file 7 "/home/selim/working/ChibiOS/os/rt/include/chsystypes.h"
 1940              		.file 8 "/home/selim/working/ChibiOS/os/rt/include/chschd.h"
 1941              		.file 9 "/home/selim/working/ChibiOS/os/rt/ports/ARMCMx/chcore.h"
 1942              		.file 10 "/home/selim/working/ChibiOS/os/rt/ports/ARMCMx/chcore_v7m.h"
 1943              		.file 11 "/home/selim/working/ChibiOS/os/rt/include/chtm.h"
 1944              		.file 12 "/home/selim/working/ChibiOS/os/rt/include/chsem.h"
 1945              		.file 13 "/home/selim/working/ChibiOS/os/rt/include/chmtx.h"
 1946              		.file 14 "/home/selim/working/ChibiOS/os/rt/include/chqueues.h"
 1947              		.file 15 "/home/selim/working/ChibiOS/os/hal/include/usb.h"
 1948              		.file 16 "/home/selim/working/ChibiOS/os/hal/ports/STM32/LLD/OTGv1/usb_lld.h"
 1949              		.file 17 "/home/selim/working/ChibiOS/os/hal/ports/STM32/LLD/OTGv1/stm32_otg.h"
 1950              		.file 18 "/home/selim/working/ChibiOS/os/rt/include/chsys.h"
 1951              		.file 19 "/home/selim/working/ChibiOS/os/hal/osal/rt/osal.h"
 1952              		.file 20 "/home/selim/working/ChibiOS/os/ext/CMSIS/include/core_cm4.h"