ARM GAS  /tmp/ccyJylYd.s 			page 1


   1              		.syntax unified
   2              		.cpu cortex-m4
   3              		.fpu softvfp
   4              		.eabi_attribute 20, 1
   5              		.eabi_attribute 21, 1
   6              		.eabi_attribute 23, 3
   7              		.eabi_attribute 24, 1
   8              		.eabi_attribute 25, 1
   9              		.eabi_attribute 26, 1
  10              		.eabi_attribute 30, 2
  11              		.eabi_attribute 34, 1
  12              		.eabi_attribute 18, 4
  13              		.thumb
  14              		.syntax unified
  15              		.file	"usbcfg.c"
  16              		.text
  17              	.Ltext0:
  18              		.cfi_sections	.debug_frame
  19              		.section	.text.get_descriptor,"ax",%progbits
  20              		.align	2
  21              		.p2align 4,,15
  22              		.thumb
  23              		.thumb_func
  24              		.type	get_descriptor, %function
  25              	get_descriptor:
  26              	.LFB258:
  27              		.file 1 "usbcfg.c"
  28              		.loc 1 198 0
  29              		.cfi_startproc
  30              		@ args = 0, pretend = 0, frame = 0
  31              		@ frame_needed = 0, uses_anonymous_args = 0
  32              		@ link register save eliminated.
  33              	.LVL0:
  34              		.loc 1 202 0
  35 0000 0229     		cmp	r1, #2
  36 0002 06D0     		beq	.L3
  37 0004 0329     		cmp	r1, #3
  38 0006 06D0     		beq	.L4
  39 0008 0129     		cmp	r1, #1
  40              		.loc 1 211 0
  41 000a 0648     		ldr	r0, .L9
  42              	.LVL1:
  43 000c 18BF     		it	ne
  44 000e 0020     		movne	r0, #0
  45 0010 7047     		bx	lr
  46              	.LVL2:
  47              	.L3:
  48              		.loc 1 206 0
  49 0012 0548     		ldr	r0, .L9+4
  50              	.LVL3:
  51 0014 7047     		bx	lr
  52              	.LVL4:
  53              	.L4:
  54              		.loc 1 208 0
  55 0016 032A     		cmp	r2, #3
  56              		.loc 1 209 0
  57 0018 9ABF     		itte	ls
ARM GAS  /tmp/ccyJylYd.s 			page 2


  58 001a 044B     		ldrls	r3, .L9+8
  59              	.LVL5:
  60 001c 03EBC200 		addls	r0, r3, r2, lsl #3
  61              	.LVL6:
  62              		.loc 1 211 0
  63 0020 0020     		movhi	r0, #0
  64              		.loc 1 212 0
  65 0022 7047     		bx	lr
  66              	.L10:
  67              		.align	2
  68              	.L9:
  69 0024 00000000 		.word	.LANCHOR0
  70 0028 00000000 		.word	.LANCHOR1
  71 002c 00000000 		.word	.LANCHOR2
  72              		.cfi_endproc
  73              	.LFE258:
  74              		.size	get_descriptor, .-get_descriptor
  75              		.section	.text.usb_event,"ax",%progbits
  76              		.align	2
  77              		.p2align 4,,15
  78              		.thumb
  79              		.thumb_func
  80              		.type	usb_event, %function
  81              	usb_event:
  82              	.LFB259:
  83              		.loc 1 264 0
  84              		.cfi_startproc
  85              		@ args = 0, pretend = 0, frame = 0
  86              		@ frame_needed = 0, uses_anonymous_args = 0
  87              	.LVL7:
  88              		.loc 1 267 0
  89 0000 0229     		cmp	r1, #2
  90 0002 15D1     		bne	.L15
  91              		.loc 1 264 0
  92 0004 38B5     		push	{r3, r4, r5, lr}
  93              		.cfi_def_cfa_offset 16
  94              		.cfi_offset 3, -16
  95              		.cfi_offset 4, -12
  96              		.cfi_offset 5, -8
  97              		.cfi_offset 14, -4
  98 0006 0546     		mov	r5, r0
  99 0008 0C46     		mov	r4, r1
 100              	.LVL8:
 101              	.LBB58:
 102              	.LBB59:
 103              	.LBB60:
 104              	.LBB61:
 105              	.LBB62:
 106              	.LBB63:
 107              	.LBB64:
 108              		.file 2 "/home/selim/working/ChibiOS/os/ext/CMSIS/include/core_cmFunc.h"
 109              		.loc 2 546 0
 110 000a 2023     		movs	r3, #32
 111              		.syntax unified
 112              	@ 546 "/home/selim/working/ChibiOS/os/ext/CMSIS/include/core_cmFunc.h" 1
 113 000c 83F31188 		MSR basepri, r3
 114              	@ 0 "" 2
ARM GAS  /tmp/ccyJylYd.s 			page 3


 115              	.LVL9:
 116              		.thumb
 117              		.syntax unified
 118              	.LBE64:
 119              	.LBE63:
 120              	.LBE62:
 121              	.LBE61:
 122              	.LBE60:
 123              		.loc 1 278 0
 124 0010 084A     		ldr	r2, .L16
 125 0012 0121     		movs	r1, #1
 126              	.LVL10:
 127 0014 FFF7FEFF 		bl	usbInitEndpointI
 128              	.LVL11:
 129              		.loc 1 279 0
 130 0018 2146     		mov	r1, r4
 131 001a 2846     		mov	r0, r5
 132 001c 064A     		ldr	r2, .L16+4
 133 001e FFF7FEFF 		bl	usbInitEndpointI
 134              	.LVL12:
 135              		.loc 1 282 0
 136 0022 0648     		ldr	r0, .L16+8
 137 0024 FFF7FEFF 		bl	sduConfigureHookI
 138              	.LVL13:
 139              	.LBB65:
 140              	.LBB66:
 141              	.LBB67:
 142              	.LBB68:
 143              	.LBB69:
 144              		.loc 2 546 0
 145 0028 0023     		movs	r3, #0
 146              		.syntax unified
 147              	@ 546 "/home/selim/working/ChibiOS/os/ext/CMSIS/include/core_cmFunc.h" 1
 148 002a 83F31188 		MSR basepri, r3
 149              	@ 0 "" 2
 150              	.LVL14:
 151              		.thumb
 152              		.syntax unified
 153 002e 38BD     		pop	{r3, r4, r5, pc}
 154              	.LVL15:
 155              	.L15:
 156              		.cfi_def_cfa_offset 0
 157              		.cfi_restore 3
 158              		.cfi_restore 4
 159              		.cfi_restore 5
 160              		.cfi_restore 14
 161 0030 7047     		bx	lr
 162              	.L17:
 163 0032 00BF     		.align	2
 164              	.L16:
 165 0034 00000000 		.word	.LANCHOR3
 166 0038 00000000 		.word	.LANCHOR4
 167 003c 00000000 		.word	SDU1
 168              	.LBE69:
 169              	.LBE68:
 170              	.LBE67:
 171              	.LBE66:
ARM GAS  /tmp/ccyJylYd.s 			page 4


 172              	.LBE65:
 173              	.LBE59:
 174              	.LBE58:
 175              		.cfi_endproc
 176              	.LFE259:
 177              		.size	usb_event, .-usb_event
 178              		.global	serusbcfg
 179              		.global	usbcfg
 180              		.section	.rodata.ep1config,"a",%progbits
 181              		.align	2
 182              		.set	.LANCHOR3,. + 0
 183              		.type	ep1config, %object
 184              		.size	ep1config, 36
 185              	ep1config:
 186 0000 02000000 		.word	2
 187 0004 00000000 		.word	0
 188 0008 00000000 		.word	sduDataTransmitted
 189 000c 00000000 		.word	sduDataReceived
 190 0010 4000     		.short	64
 191 0012 4000     		.short	64
 192 0014 00000000 		.word	ep1instate
 193 0018 00000000 		.word	ep1outstate
 194 001c 0200     		.short	2
 195 001e 0000     		.space	2
 196 0020 00000000 		.word	0
 197              		.section	.bss.ep2instate,"aw",%nobits
 198              		.align	2
 199              		.type	ep2instate, %object
 200              		.size	ep2instate, 20
 201              	ep2instate:
 202 0000 00000000 		.space	20
 202      00000000 
 202      00000000 
 202      00000000 
 202      00000000 
 203              		.section	.bss.ep1instate,"aw",%nobits
 204              		.align	2
 205              		.type	ep1instate, %object
 206              		.size	ep1instate, 20
 207              	ep1instate:
 208 0000 00000000 		.space	20
 208      00000000 
 208      00000000 
 208      00000000 
 208      00000000 
 209              		.section	.rodata.vcom_configuration_descriptor,"a",%progbits
 210              		.align	2
 211              		.set	.LANCHOR1,. + 0
 212              		.type	vcom_configuration_descriptor, %object
 213              		.size	vcom_configuration_descriptor, 8
 214              	vcom_configuration_descriptor:
 215 0000 43000000 		.word	67
 216 0004 00000000 		.word	vcom_configuration_descriptor_data
 217              		.section	.rodata.ep2config,"a",%progbits
 218              		.align	2
 219              		.set	.LANCHOR4,. + 0
 220              		.type	ep2config, %object
ARM GAS  /tmp/ccyJylYd.s 			page 5


 221              		.size	ep2config, 36
 222              	ep2config:
 223 0000 03000000 		.word	3
 224 0004 00000000 		.word	0
 225 0008 00000000 		.word	sduInterruptTransmitted
 226 000c 00000000 		.word	0
 227 0010 1000     		.short	16
 228 0012 0000     		.short	0
 229 0014 00000000 		.word	ep2instate
 230 0018 00000000 		.word	0
 231 001c 0100     		.short	1
 232 001e 0000     		.space	2
 233 0020 00000000 		.word	0
 234              		.section	.rodata.usbcfg,"a",%progbits
 235              		.align	2
 236              		.type	usbcfg, %object
 237              		.size	usbcfg, 16
 238              	usbcfg:
 239 0000 00000000 		.word	usb_event
 240 0004 00000000 		.word	get_descriptor
 241 0008 00000000 		.word	sduRequestsHook
 242 000c 00000000 		.word	0
 243              		.section	.rodata.vcom_configuration_descriptor_data,"a",%progbits
 244              		.align	2
 245              		.type	vcom_configuration_descriptor_data, %object
 246              		.size	vcom_configuration_descriptor_data, 67
 247              	vcom_configuration_descriptor_data:
 248 0000 09       		.byte	9
 249 0001 02       		.byte	2
 250 0002 43       		.byte	67
 251 0003 00       		.byte	0
 252 0004 02       		.byte	2
 253 0005 01       		.byte	1
 254 0006 00       		.byte	0
 255 0007 C0       		.byte	-64
 256 0008 32       		.byte	50
 257 0009 09       		.byte	9
 258 000a 04       		.byte	4
 259 000b 00       		.byte	0
 260 000c 00       		.byte	0
 261 000d 01       		.byte	1
 262 000e 02       		.byte	2
 263 000f 02       		.byte	2
 264 0010 01       		.byte	1
 265 0011 00       		.byte	0
 266 0012 05       		.byte	5
 267 0013 24       		.byte	36
 268 0014 00       		.byte	0
 269 0015 10       		.byte	16
 270 0016 01       		.byte	1
 271 0017 05       		.byte	5
 272 0018 24       		.byte	36
 273 0019 01       		.byte	1
 274 001a 00       		.byte	0
 275 001b 01       		.byte	1
 276 001c 04       		.byte	4
 277 001d 24       		.byte	36
ARM GAS  /tmp/ccyJylYd.s 			page 6


 278 001e 02       		.byte	2
 279 001f 02       		.byte	2
 280 0020 05       		.byte	5
 281 0021 24       		.byte	36
 282 0022 06       		.byte	6
 283 0023 00       		.byte	0
 284 0024 01       		.byte	1
 285 0025 07       		.byte	7
 286 0026 05       		.byte	5
 287 0027 82       		.byte	-126
 288 0028 03       		.byte	3
 289 0029 08       		.byte	8
 290 002a 00       		.byte	0
 291 002b FF       		.byte	-1
 292 002c 09       		.byte	9
 293 002d 04       		.byte	4
 294 002e 01       		.byte	1
 295 002f 00       		.byte	0
 296 0030 02       		.byte	2
 297 0031 0A       		.byte	10
 298 0032 00       		.byte	0
 299 0033 00       		.byte	0
 300 0034 00       		.byte	0
 301 0035 07       		.byte	7
 302 0036 05       		.byte	5
 303 0037 01       		.byte	1
 304 0038 02       		.byte	2
 305 0039 40       		.byte	64
 306 003a 00       		.byte	0
 307 003b 00       		.byte	0
 308 003c 07       		.byte	7
 309 003d 05       		.byte	5
 310 003e 81       		.byte	-127
 311 003f 02       		.byte	2
 312 0040 40       		.byte	64
 313 0041 00       		.byte	0
 314 0042 00       		.byte	0
 315              		.section	.rodata.vcom_device_descriptor_data,"a",%progbits
 316              		.align	2
 317              		.type	vcom_device_descriptor_data, %object
 318              		.size	vcom_device_descriptor_data, 18
 319              	vcom_device_descriptor_data:
 320 0000 12       		.byte	18
 321 0001 01       		.byte	1
 322 0002 10       		.byte	16
 323 0003 01       		.byte	1
 324 0004 02       		.byte	2
 325 0005 00       		.byte	0
 326 0006 00       		.byte	0
 327 0007 40       		.byte	64
 328 0008 83       		.byte	-125
 329 0009 04       		.byte	4
 330 000a 40       		.byte	64
 331 000b 57       		.byte	87
 332 000c 00       		.byte	0
 333 000d 02       		.byte	2
 334 000e 01       		.byte	1
ARM GAS  /tmp/ccyJylYd.s 			page 7


 335 000f 02       		.byte	2
 336 0010 03       		.byte	3
 337 0011 01       		.byte	1
 338              		.section	.bss.ep1outstate,"aw",%nobits
 339              		.align	2
 340              		.type	ep1outstate, %object
 341              		.size	ep1outstate, 20
 342              	ep1outstate:
 343 0000 00000000 		.space	20
 343      00000000 
 343      00000000 
 343      00000000 
 343      00000000 
 344              		.section	.rodata.vcom_string0,"a",%progbits
 345              		.align	2
 346              		.type	vcom_string0, %object
 347              		.size	vcom_string0, 4
 348              	vcom_string0:
 349 0000 04       		.byte	4
 350 0001 03       		.byte	3
 351 0002 09       		.byte	9
 352 0003 04       		.byte	4
 353              		.section	.rodata.vcom_string1,"a",%progbits
 354              		.align	2
 355              		.type	vcom_string1, %object
 356              		.size	vcom_string1, 38
 357              	vcom_string1:
 358 0000 26       		.byte	38
 359 0001 03       		.byte	3
 360 0002 53       		.byte	83
 361 0003 00       		.byte	0
 362 0004 54       		.byte	84
 363 0005 00       		.byte	0
 364 0006 4D       		.byte	77
 365 0007 00       		.byte	0
 366 0008 69       		.byte	105
 367 0009 00       		.byte	0
 368 000a 63       		.byte	99
 369 000b 00       		.byte	0
 370 000c 72       		.byte	114
 371 000d 00       		.byte	0
 372 000e 6F       		.byte	111
 373 000f 00       		.byte	0
 374 0010 65       		.byte	101
 375 0011 00       		.byte	0
 376 0012 6C       		.byte	108
 377 0013 00       		.byte	0
 378 0014 65       		.byte	101
 379 0015 00       		.byte	0
 380 0016 63       		.byte	99
 381 0017 00       		.byte	0
 382 0018 74       		.byte	116
 383 0019 00       		.byte	0
 384 001a 72       		.byte	114
 385 001b 00       		.byte	0
 386 001c 6F       		.byte	111
 387 001d 00       		.byte	0
ARM GAS  /tmp/ccyJylYd.s 			page 8


 388 001e 6E       		.byte	110
 389 001f 00       		.byte	0
 390 0020 69       		.byte	105
 391 0021 00       		.byte	0
 392 0022 63       		.byte	99
 393 0023 00       		.byte	0
 394 0024 73       		.byte	115
 395 0025 00       		.byte	0
 396              		.section	.rodata.vcom_string2,"a",%progbits
 397              		.align	2
 398              		.type	vcom_string2, %object
 399              		.size	vcom_string2, 56
 400              	vcom_string2:
 401 0000 38       		.byte	56
 402 0001 03       		.byte	3
 403 0002 43       		.byte	67
 404 0003 00       		.byte	0
 405 0004 68       		.byte	104
 406 0005 00       		.byte	0
 407 0006 69       		.byte	105
 408 0007 00       		.byte	0
 409 0008 62       		.byte	98
 410 0009 00       		.byte	0
 411 000a 69       		.byte	105
 412 000b 00       		.byte	0
 413 000c 4F       		.byte	79
 414 000d 00       		.byte	0
 415 000e 53       		.byte	83
 416 000f 00       		.byte	0
 417 0010 2F       		.byte	47
 418 0011 00       		.byte	0
 419 0012 52       		.byte	82
 420 0013 00       		.byte	0
 421 0014 54       		.byte	84
 422 0015 00       		.byte	0
 423 0016 20       		.byte	32
 424 0017 00       		.byte	0
 425 0018 56       		.byte	86
 426 0019 00       		.byte	0
 427 001a 69       		.byte	105
 428 001b 00       		.byte	0
 429 001c 72       		.byte	114
 430 001d 00       		.byte	0
 431 001e 74       		.byte	116
 432 001f 00       		.byte	0
 433 0020 75       		.byte	117
 434 0021 00       		.byte	0
 435 0022 61       		.byte	97
 436 0023 00       		.byte	0
 437 0024 6C       		.byte	108
 438 0025 00       		.byte	0
 439 0026 20       		.byte	32
 440 0027 00       		.byte	0
 441 0028 43       		.byte	67
 442 0029 00       		.byte	0
 443 002a 4F       		.byte	79
 444 002b 00       		.byte	0
ARM GAS  /tmp/ccyJylYd.s 			page 9


 445 002c 4D       		.byte	77
 446 002d 00       		.byte	0
 447 002e 20       		.byte	32
 448 002f 00       		.byte	0
 449 0030 50       		.byte	80
 450 0031 00       		.byte	0
 451 0032 6F       		.byte	111
 452 0033 00       		.byte	0
 453 0034 72       		.byte	114
 454 0035 00       		.byte	0
 455 0036 74       		.byte	116
 456 0037 00       		.byte	0
 457              		.section	.rodata.vcom_string3,"a",%progbits
 458              		.align	2
 459              		.type	vcom_string3, %object
 460              		.size	vcom_string3, 8
 461              	vcom_string3:
 462 0000 08       		.byte	8
 463 0001 03       		.byte	3
 464 0002 33       		.byte	51
 465 0003 00       		.byte	0
 466 0004 30       		.byte	48
 467 0005 00       		.byte	0
 468 0006 30       		.byte	48
 469 0007 00       		.byte	0
 470              		.section	.rodata.vcom_strings,"a",%progbits
 471              		.align	2
 472              		.set	.LANCHOR2,. + 0
 473              		.type	vcom_strings, %object
 474              		.size	vcom_strings, 32
 475              	vcom_strings:
 476 0000 04000000 		.word	4
 477 0004 00000000 		.word	vcom_string0
 478 0008 26000000 		.word	38
 479 000c 00000000 		.word	vcom_string1
 480 0010 38000000 		.word	56
 481 0014 00000000 		.word	vcom_string2
 482 0018 08000000 		.word	8
 483 001c 00000000 		.word	vcom_string3
 484              		.section	.rodata.serusbcfg,"a",%progbits
 485              		.align	2
 486              		.type	serusbcfg, %object
 487              		.size	serusbcfg, 8
 488              	serusbcfg:
 489 0000 00000000 		.word	USBD1
 490 0004 01       		.byte	1
 491 0005 01       		.byte	1
 492 0006 02       		.byte	2
 493 0007 00       		.space	1
 494              		.section	.rodata.vcom_device_descriptor,"a",%progbits
 495              		.align	2
 496              		.set	.LANCHOR0,. + 0
 497              		.type	vcom_device_descriptor, %object
 498              		.size	vcom_device_descriptor, 8
 499              	vcom_device_descriptor:
 500 0000 12000000 		.word	18
 501 0004 00000000 		.word	vcom_device_descriptor_data
ARM GAS  /tmp/ccyJylYd.s 			page 10


 502              		.text
 503              	.Letext0:
 504              		.file 3 "/usr/lib/gcc/arm-none-eabi/5.3.1/include/stddef.h"
 505              		.file 4 "/usr/arm-none-eabi/include/machine/_default_types.h"
 506              		.file 5 "/usr/arm-none-eabi/include/sys/_stdint.h"
 507              		.file 6 "/home/selim/working/ChibiOS/os/rt/ports/ARMCMx/compilers/GCC/chtypes.h"
 508              		.file 7 "/home/selim/working/ChibiOS/os/rt/include/chsystypes.h"
 509              		.file 8 "/home/selim/working/ChibiOS/os/rt/include/chschd.h"
 510              		.file 9 "/home/selim/working/ChibiOS/os/rt/ports/ARMCMx/chcore.h"
 511              		.file 10 "/home/selim/working/ChibiOS/os/rt/ports/ARMCMx/chcore_v7m.h"
 512              		.file 11 "/home/selim/working/ChibiOS/os/rt/include/chtm.h"
 513              		.file 12 "/home/selim/working/ChibiOS/os/rt/include/chsem.h"
 514              		.file 13 "/home/selim/working/ChibiOS/os/rt/include/chmtx.h"
 515              		.file 14 "/home/selim/working/ChibiOS/os/rt/include/chevents.h"
 516              		.file 15 "/home/selim/working/ChibiOS/os/rt/include/chqueues.h"
 517              		.file 16 "/home/selim/working/ChibiOS/os/hal/include/usb.h"
 518              		.file 17 "/home/selim/working/ChibiOS/os/hal/ports/STM32/LLD/OTGv1/usb_lld.h"
 519              		.file 18 "/home/selim/working/ChibiOS/os/hal/ports/STM32/LLD/OTGv1/stm32_otg.h"
 520              		.file 19 "/home/selim/working/ChibiOS/os/hal/include/serial_usb.h"
 521              		.file 20 "/home/selim/working/ChibiOS/os/rt/include/chsys.h"
 522              		.file 21 "/home/selim/working/ChibiOS/os/ext/CMSIS/include/core_cm4.h"
 523              		.section	.debug_info,"",%progbits
 524              	.Ldebug_info0:
 525 0000 15190000 		.4byte	0x1915
 526 0004 0400     		.2byte	0x4
 527 0006 00000000 		.4byte	.Ldebug_abbrev0
 528 000a 04       		.byte	0x4
 529 000b 01       		.uleb128 0x1
 530 000c C60B0000 		.4byte	.LASF344
 531 0010 0C       		.byte	0xc
 532 0011 23020000 		.4byte	.LASF345
 533 0015 E8070000 		.4byte	.LASF346
 534 0019 00000000 		.4byte	.Ldebug_ranges0+0
 535 001d 00000000 		.4byte	0
 536 0021 00000000 		.4byte	.Ldebug_line0
 537 0025 02       		.uleb128 0x2
 538 0026 04       		.byte	0x4
 539 0027 05       		.byte	0x5
 540 0028 696E7400 		.ascii	"int\000"
 541 002c 03       		.uleb128 0x3
 542 002d 00000000 		.4byte	.LASF4
 543 0031 03       		.byte	0x3
 544 0032 D8       		.byte	0xd8
 545 0033 37000000 		.4byte	0x37
 546 0037 04       		.uleb128 0x4
 547 0038 04       		.byte	0x4
 548 0039 07       		.byte	0x7
 549 003a AC070000 		.4byte	.LASF0
 550 003e 04       		.uleb128 0x4
 551 003f 08       		.byte	0x8
 552 0040 05       		.byte	0x5
 553 0041 B2060000 		.4byte	.LASF1
 554 0045 04       		.uleb128 0x4
 555 0046 08       		.byte	0x8
 556 0047 04       		.byte	0x4
 557 0048 AA080000 		.4byte	.LASF2
 558 004c 04       		.uleb128 0x4
ARM GAS  /tmp/ccyJylYd.s 			page 11


 559 004d 01       		.byte	0x1
 560 004e 06       		.byte	0x6
 561 004f 44020000 		.4byte	.LASF3
 562 0053 03       		.uleb128 0x3
 563 0054 0B010000 		.4byte	.LASF5
 564 0058 04       		.byte	0x4
 565 0059 1D       		.byte	0x1d
 566 005a 5E000000 		.4byte	0x5e
 567 005e 04       		.uleb128 0x4
 568 005f 01       		.byte	0x1
 569 0060 08       		.byte	0x8
 570 0061 CB020000 		.4byte	.LASF6
 571 0065 04       		.uleb128 0x4
 572 0066 02       		.byte	0x2
 573 0067 05       		.byte	0x5
 574 0068 2F0B0000 		.4byte	.LASF7
 575 006c 03       		.uleb128 0x3
 576 006d A7030000 		.4byte	.LASF8
 577 0071 04       		.byte	0x4
 578 0072 2B       		.byte	0x2b
 579 0073 77000000 		.4byte	0x77
 580 0077 04       		.uleb128 0x4
 581 0078 02       		.byte	0x2
 582 0079 07       		.byte	0x7
 583 007a DF0D0000 		.4byte	.LASF9
 584 007e 03       		.uleb128 0x3
 585 007f 5D0E0000 		.4byte	.LASF10
 586 0083 04       		.byte	0x4
 587 0084 3F       		.byte	0x3f
 588 0085 89000000 		.4byte	0x89
 589 0089 04       		.uleb128 0x4
 590 008a 04       		.byte	0x4
 591 008b 05       		.byte	0x5
 592 008c 84010000 		.4byte	.LASF11
 593 0090 03       		.uleb128 0x3
 594 0091 87060000 		.4byte	.LASF12
 595 0095 04       		.byte	0x4
 596 0096 41       		.byte	0x41
 597 0097 9B000000 		.4byte	0x9b
 598 009b 04       		.uleb128 0x4
 599 009c 04       		.byte	0x4
 600 009d 07       		.byte	0x7
 601 009e 51050000 		.4byte	.LASF13
 602 00a2 03       		.uleb128 0x3
 603 00a3 3E050000 		.4byte	.LASF14
 604 00a7 04       		.byte	0x4
 605 00a8 5B       		.byte	0x5b
 606 00a9 AD000000 		.4byte	0xad
 607 00ad 04       		.uleb128 0x4
 608 00ae 08       		.byte	0x8
 609 00af 07       		.byte	0x7
 610 00b0 6B090000 		.4byte	.LASF15
 611 00b4 03       		.uleb128 0x3
 612 00b5 57020000 		.4byte	.LASF16
 613 00b9 05       		.byte	0x5
 614 00ba 14       		.byte	0x14
 615 00bb 53000000 		.4byte	0x53
ARM GAS  /tmp/ccyJylYd.s 			page 12


 616 00bf 03       		.uleb128 0x3
 617 00c0 93090000 		.4byte	.LASF17
 618 00c4 05       		.byte	0x5
 619 00c5 1A       		.byte	0x1a
 620 00c6 6C000000 		.4byte	0x6c
 621 00ca 03       		.uleb128 0x3
 622 00cb 4D000000 		.4byte	.LASF18
 623 00cf 05       		.byte	0x5
 624 00d0 1F       		.byte	0x1f
 625 00d1 7E000000 		.4byte	0x7e
 626 00d5 03       		.uleb128 0x3
 627 00d6 770D0000 		.4byte	.LASF19
 628 00da 05       		.byte	0x5
 629 00db 20       		.byte	0x20
 630 00dc 90000000 		.4byte	0x90
 631 00e0 03       		.uleb128 0x3
 632 00e1 530B0000 		.4byte	.LASF20
 633 00e5 05       		.byte	0x5
 634 00e6 26       		.byte	0x26
 635 00e7 A2000000 		.4byte	0xa2
 636 00eb 05       		.uleb128 0x5
 637 00ec CA000000 		.4byte	0xca
 638 00f0 05       		.uleb128 0x5
 639 00f1 D5000000 		.4byte	0xd5
 640 00f5 03       		.uleb128 0x3
 641 00f6 CE070000 		.4byte	.LASF21
 642 00fa 06       		.byte	0x6
 643 00fb 46       		.byte	0x46
 644 00fc D5000000 		.4byte	0xd5
 645 0100 03       		.uleb128 0x3
 646 0101 D10A0000 		.4byte	.LASF22
 647 0105 06       		.byte	0x6
 648 0106 49       		.byte	0x49
 649 0107 B4000000 		.4byte	0xb4
 650 010b 03       		.uleb128 0x3
 651 010c C6010000 		.4byte	.LASF23
 652 0110 06       		.byte	0x6
 653 0111 4A       		.byte	0x4a
 654 0112 B4000000 		.4byte	0xb4
 655 0116 03       		.uleb128 0x3
 656 0117 360D0000 		.4byte	.LASF24
 657 011b 06       		.byte	0x6
 658 011c 4B       		.byte	0x4b
 659 011d B4000000 		.4byte	0xb4
 660 0121 03       		.uleb128 0x3
 661 0122 34000000 		.4byte	.LASF25
 662 0126 06       		.byte	0x6
 663 0127 4D       		.byte	0x4d
 664 0128 D5000000 		.4byte	0xd5
 665 012c 03       		.uleb128 0x3
 666 012d A9090000 		.4byte	.LASF26
 667 0131 06       		.byte	0x6
 668 0132 4E       		.byte	0x4e
 669 0133 CA000000 		.4byte	0xca
 670 0137 03       		.uleb128 0x3
 671 0138 97020000 		.4byte	.LASF27
 672 013c 06       		.byte	0x6
ARM GAS  /tmp/ccyJylYd.s 			page 13


 673 013d 50       		.byte	0x50
 674 013e D5000000 		.4byte	0xd5
 675 0142 03       		.uleb128 0x3
 676 0143 FA090000 		.4byte	.LASF28
 677 0147 06       		.byte	0x6
 678 0148 51       		.byte	0x51
 679 0149 D5000000 		.4byte	0xd5
 680 014d 03       		.uleb128 0x3
 681 014e 7D040000 		.4byte	.LASF29
 682 0152 06       		.byte	0x6
 683 0153 52       		.byte	0x52
 684 0154 CA000000 		.4byte	0xca
 685 0158 03       		.uleb128 0x3
 686 0159 17000000 		.4byte	.LASF30
 687 015d 07       		.byte	0x7
 688 015e 33       		.byte	0x33
 689 015f D5000000 		.4byte	0xd5
 690 0163 03       		.uleb128 0x3
 691 0164 A1080000 		.4byte	.LASF31
 692 0168 07       		.byte	0x7
 693 0169 3F       		.byte	0x3f
 694 016a 6E010000 		.4byte	0x16e
 695 016e 06       		.uleb128 0x6
 696 016f 90050000 		.4byte	.LASF51
 697 0173 44       		.byte	0x44
 698 0174 08       		.byte	0x8
 699 0175 C2       		.byte	0xc2
 700 0176 5B020000 		.4byte	0x25b
 701 017a 07       		.uleb128 0x7
 702 017b 8D010000 		.4byte	.LASF32
 703 017f 08       		.byte	0x8
 704 0180 C3       		.byte	0xc3
 705 0181 66020000 		.4byte	0x266
 706 0185 00       		.byte	0
 707 0186 07       		.uleb128 0x7
 708 0187 AE010000 		.4byte	.LASF33
 709 018b 08       		.byte	0x8
 710 018c C5       		.byte	0xc5
 711 018d 66020000 		.4byte	0x266
 712 0191 04       		.byte	0x4
 713 0192 07       		.uleb128 0x7
 714 0193 96030000 		.4byte	.LASF34
 715 0197 08       		.byte	0x8
 716 0198 C7       		.byte	0xc7
 717 0199 21010000 		.4byte	0x121
 718 019d 08       		.byte	0x8
 719 019e 07       		.uleb128 0x7
 720 019f 21000000 		.4byte	.LASF35
 721 01a3 08       		.byte	0x8
 722 01a4 C8       		.byte	0xc8
 723 01a5 A6040000 		.4byte	0x4a6
 724 01a9 0C       		.byte	0xc
 725 01aa 07       		.uleb128 0x7
 726 01ab 70010000 		.4byte	.LASF36
 727 01af 08       		.byte	0x8
 728 01b0 CA       		.byte	0xca
 729 01b1 66020000 		.4byte	0x266
ARM GAS  /tmp/ccyJylYd.s 			page 14


 730 01b5 10       		.byte	0x10
 731 01b6 07       		.uleb128 0x7
 732 01b7 8B090000 		.4byte	.LASF37
 733 01bb 08       		.byte	0x8
 734 01bc CB       		.byte	0xcb
 735 01bd 66020000 		.4byte	0x266
 736 01c1 14       		.byte	0x14
 737 01c2 07       		.uleb128 0x7
 738 01c3 A40E0000 		.4byte	.LASF38
 739 01c7 08       		.byte	0x8
 740 01c8 D2       		.byte	0xd2
 741 01c9 25060000 		.4byte	0x625
 742 01cd 18       		.byte	0x18
 743 01ce 07       		.uleb128 0x7
 744 01cf 0A0F0000 		.4byte	.LASF39
 745 01d3 08       		.byte	0x8
 746 01d4 DD       		.byte	0xdd
 747 01d5 0B010000 		.4byte	0x10b
 748 01d9 1C       		.byte	0x1c
 749 01da 07       		.uleb128 0x7
 750 01db 81070000 		.4byte	.LASF40
 751 01df 08       		.byte	0x8
 752 01e0 E1       		.byte	0xe1
 753 01e1 00010000 		.4byte	0x100
 754 01e5 1D       		.byte	0x1d
 755 01e6 07       		.uleb128 0x7
 756 01e7 19080000 		.4byte	.LASF41
 757 01eb 08       		.byte	0x8
 758 01ec E6       		.byte	0xe6
 759 01ed 16010000 		.4byte	0x116
 760 01f1 1E       		.byte	0x1e
 761 01f2 08       		.uleb128 0x8
 762 01f3 705F7500 		.ascii	"p_u\000"
 763 01f7 08       		.byte	0x8
 764 01f8 3101     		.2byte	0x131
 765 01fa 60050000 		.4byte	0x560
 766 01fe 20       		.byte	0x20
 767 01ff 09       		.uleb128 0x9
 768 0200 71070000 		.4byte	.LASF42
 769 0204 08       		.byte	0x8
 770 0205 3601     		.2byte	0x136
 771 0207 6C020000 		.4byte	0x26c
 772 020b 24       		.byte	0x24
 773 020c 09       		.uleb128 0x9
 774 020d 3C000000 		.4byte	.LASF43
 775 0211 08       		.byte	0x8
 776 0212 3C01     		.2byte	0x13c
 777 0214 90020000 		.4byte	0x290
 778 0218 28       		.byte	0x28
 779 0219 09       		.uleb128 0x9
 780 021a F80E0000 		.4byte	.LASF44
 781 021e 08       		.byte	0x8
 782 021f 4001     		.2byte	0x140
 783 0221 2C010000 		.4byte	0x12c
 784 0225 30       		.byte	0x30
 785 0226 09       		.uleb128 0x9
 786 0227 B2040000 		.4byte	.LASF45
ARM GAS  /tmp/ccyJylYd.s 			page 15


 787 022b 08       		.byte	0x8
 788 022c 4601     		.2byte	0x146
 789 022e 37010000 		.4byte	0x137
 790 0232 34       		.byte	0x34
 791 0233 09       		.uleb128 0x9
 792 0234 DF010000 		.4byte	.LASF46
 793 0238 08       		.byte	0x8
 794 0239 4D01     		.2byte	0x14d
 795 023b 1F060000 		.4byte	0x61f
 796 023f 38       		.byte	0x38
 797 0240 09       		.uleb128 0x9
 798 0241 D9080000 		.4byte	.LASF47
 799 0245 08       		.byte	0x8
 800 0246 5101     		.2byte	0x151
 801 0248 21010000 		.4byte	0x121
 802 024c 3C       		.byte	0x3c
 803 024d 09       		.uleb128 0x9
 804 024e E0070000 		.4byte	.LASF48
 805 0252 08       		.byte	0x8
 806 0253 5801     		.2byte	0x158
 807 0255 43030000 		.4byte	0x343
 808 0259 40       		.byte	0x40
 809 025a 00       		.byte	0
 810 025b 03       		.uleb128 0x3
 811 025c B6080000 		.4byte	.LASF49
 812 0260 07       		.byte	0x7
 813 0261 44       		.byte	0x44
 814 0262 66020000 		.4byte	0x266
 815 0266 0A       		.uleb128 0xa
 816 0267 04       		.byte	0x4
 817 0268 63010000 		.4byte	0x163
 818 026c 03       		.uleb128 0x3
 819 026d 3E0D0000 		.4byte	.LASF50
 820 0271 07       		.byte	0x7
 821 0272 49       		.byte	0x49
 822 0273 77020000 		.4byte	0x277
 823 0277 06       		.uleb128 0x6
 824 0278 2E060000 		.4byte	.LASF52
 825 027c 04       		.byte	0x4
 826 027d 08       		.byte	0x8
 827 027e B0       		.byte	0xb0
 828 027f 90020000 		.4byte	0x290
 829 0283 07       		.uleb128 0x7
 830 0284 8D010000 		.4byte	.LASF32
 831 0288 08       		.byte	0x8
 832 0289 B1       		.byte	0xb1
 833 028a 66020000 		.4byte	0x266
 834 028e 00       		.byte	0
 835 028f 00       		.byte	0
 836 0290 03       		.uleb128 0x3
 837 0291 CF010000 		.4byte	.LASF53
 838 0295 07       		.byte	0x7
 839 0296 50       		.byte	0x50
 840 0297 9B020000 		.4byte	0x29b
 841 029b 06       		.uleb128 0x6
 842 029c B4090000 		.4byte	.LASF54
 843 02a0 08       		.byte	0x8
ARM GAS  /tmp/ccyJylYd.s 			page 16


 844 02a1 08       		.byte	0x8
 845 02a2 B7       		.byte	0xb7
 846 02a3 C0020000 		.4byte	0x2c0
 847 02a7 07       		.uleb128 0x7
 848 02a8 8D010000 		.4byte	.LASF32
 849 02ac 08       		.byte	0x8
 850 02ad B8       		.byte	0xb8
 851 02ae 66020000 		.4byte	0x266
 852 02b2 00       		.byte	0
 853 02b3 07       		.uleb128 0x7
 854 02b4 AE010000 		.4byte	.LASF33
 855 02b8 08       		.byte	0x8
 856 02b9 B9       		.byte	0xb9
 857 02ba 66020000 		.4byte	0x266
 858 02be 04       		.byte	0x4
 859 02bf 00       		.byte	0
 860 02c0 03       		.uleb128 0x3
 861 02c1 F1050000 		.4byte	.LASF55
 862 02c5 07       		.byte	0x7
 863 02c6 57       		.byte	0x57
 864 02c7 CB020000 		.4byte	0x2cb
 865 02cb 0B       		.uleb128 0xb
 866 02cc CF040000 		.4byte	.LASF56
 867 02d0 1C       		.byte	0x1c
 868 02d1 08       		.byte	0x8
 869 02d2 9001     		.2byte	0x190
 870 02d4 27030000 		.4byte	0x327
 871 02d8 09       		.uleb128 0x9
 872 02d9 9F0A0000 		.4byte	.LASF57
 873 02dd 08       		.byte	0x8
 874 02de 9101     		.2byte	0x191
 875 02e0 90020000 		.4byte	0x290
 876 02e4 00       		.byte	0
 877 02e5 09       		.uleb128 0x9
 878 02e6 AF0B0000 		.4byte	.LASF58
 879 02ea 08       		.byte	0x8
 880 02eb 9201     		.2byte	0x192
 881 02ed 21010000 		.4byte	0x121
 882 02f1 08       		.byte	0x8
 883 02f2 09       		.uleb128 0x9
 884 02f3 47000000 		.4byte	.LASF59
 885 02f7 08       		.byte	0x8
 886 02f8 9401     		.2byte	0x194
 887 02fa A6040000 		.4byte	0x4a6
 888 02fe 0C       		.byte	0xc
 889 02ff 09       		.uleb128 0x9
 890 0300 06030000 		.4byte	.LASF60
 891 0304 08       		.byte	0x8
 892 0305 9701     		.2byte	0x197
 893 0307 66020000 		.4byte	0x266
 894 030b 10       		.byte	0x10
 895 030c 09       		.uleb128 0x9
 896 030d 040B0000 		.4byte	.LASF61
 897 0311 08       		.byte	0x8
 898 0312 9801     		.2byte	0x198
 899 0314 66020000 		.4byte	0x266
 900 0318 14       		.byte	0x14
ARM GAS  /tmp/ccyJylYd.s 			page 17


 901 0319 09       		.uleb128 0x9
 902 031a 200A0000 		.4byte	.LASF62
 903 031e 08       		.byte	0x8
 904 031f 9B01     		.2byte	0x19b
 905 0321 66020000 		.4byte	0x266
 906 0325 18       		.byte	0x18
 907 0326 00       		.byte	0
 908 0327 03       		.uleb128 0x3
 909 0328 6A000000 		.4byte	.LASF63
 910 032c 07       		.byte	0x7
 911 032d 5C       		.byte	0x5c
 912 032e 32030000 		.4byte	0x332
 913 0332 0A       		.uleb128 0xa
 914 0333 04       		.byte	0x4
 915 0334 38030000 		.4byte	0x338
 916 0338 0C       		.uleb128 0xc
 917 0339 43030000 		.4byte	0x343
 918 033d 0D       		.uleb128 0xd
 919 033e 43030000 		.4byte	0x343
 920 0342 00       		.byte	0
 921 0343 0E       		.uleb128 0xe
 922 0344 04       		.byte	0x4
 923 0345 03       		.uleb128 0x3
 924 0346 E1050000 		.4byte	.LASF64
 925 034a 07       		.byte	0x7
 926 034b 61       		.byte	0x61
 927 034c 50030000 		.4byte	0x350
 928 0350 0B       		.uleb128 0xb
 929 0351 37090000 		.4byte	.LASF65
 930 0355 14       		.byte	0x14
 931 0356 08       		.byte	0x8
 932 0357 6B01     		.2byte	0x16b
 933 0359 9F030000 		.4byte	0x39f
 934 035d 09       		.uleb128 0x9
 935 035e F3060000 		.4byte	.LASF66
 936 0362 08       		.byte	0x8
 937 0363 6C01     		.2byte	0x16c
 938 0365 37060000 		.4byte	0x637
 939 0369 00       		.byte	0
 940 036a 09       		.uleb128 0x9
 941 036b 03070000 		.4byte	.LASF67
 942 036f 08       		.byte	0x8
 943 0370 6D01     		.2byte	0x16d
 944 0372 37060000 		.4byte	0x637
 945 0376 04       		.byte	0x4
 946 0377 09       		.uleb128 0x9
 947 0378 23090000 		.4byte	.LASF68
 948 037c 08       		.byte	0x8
 949 037d 6E01     		.2byte	0x16e
 950 037f 58010000 		.4byte	0x158
 951 0383 08       		.byte	0x8
 952 0384 09       		.uleb128 0x9
 953 0385 83040000 		.4byte	.LASF69
 954 0389 08       		.byte	0x8
 955 038a 6F01     		.2byte	0x16f
 956 038c 27030000 		.4byte	0x327
 957 0390 0C       		.byte	0xc
ARM GAS  /tmp/ccyJylYd.s 			page 18


 958 0391 09       		.uleb128 0x9
 959 0392 ED000000 		.4byte	.LASF70
 960 0396 08       		.byte	0x8
 961 0397 7101     		.2byte	0x171
 962 0399 43030000 		.4byte	0x343
 963 039d 10       		.byte	0x10
 964 039e 00       		.byte	0
 965 039f 03       		.uleb128 0x3
 966 03a0 A2050000 		.4byte	.LASF71
 967 03a4 07       		.byte	0x7
 968 03a5 66       		.byte	0x66
 969 03a6 AA030000 		.4byte	0x3aa
 970 03aa 0B       		.uleb128 0xb
 971 03ab 7A000000 		.4byte	.LASF72
 972 03af 10       		.byte	0x10
 973 03b0 08       		.byte	0x8
 974 03b1 7B01     		.2byte	0x17b
 975 03b3 EC030000 		.4byte	0x3ec
 976 03b7 09       		.uleb128 0x9
 977 03b8 F3060000 		.4byte	.LASF66
 978 03bc 08       		.byte	0x8
 979 03bd 7C01     		.2byte	0x17c
 980 03bf 37060000 		.4byte	0x637
 981 03c3 00       		.byte	0
 982 03c4 09       		.uleb128 0x9
 983 03c5 03070000 		.4byte	.LASF67
 984 03c9 08       		.byte	0x8
 985 03ca 7E01     		.2byte	0x17e
 986 03cc 37060000 		.4byte	0x637
 987 03d0 04       		.byte	0x4
 988 03d1 09       		.uleb128 0x9
 989 03d2 23090000 		.4byte	.LASF68
 990 03d6 08       		.byte	0x8
 991 03d7 8001     		.2byte	0x180
 992 03d9 58010000 		.4byte	0x158
 993 03dd 08       		.byte	0x8
 994 03de 09       		.uleb128 0x9
 995 03df D30D0000 		.4byte	.LASF73
 996 03e3 08       		.byte	0x8
 997 03e4 8801     		.2byte	0x188
 998 03e6 58010000 		.4byte	0x158
 999 03ea 0C       		.byte	0xc
 1000 03eb 00       		.byte	0
 1001 03ec 03       		.uleb128 0x3
 1002 03ed 1D030000 		.4byte	.LASF74
 1003 03f1 07       		.byte	0x7
 1004 03f2 6B       		.byte	0x6b
 1005 03f3 F7030000 		.4byte	0x3f7
 1006 03f7 0B       		.uleb128 0xb
 1007 03f8 B60B0000 		.4byte	.LASF75
 1008 03fc 04       		.byte	0x4
 1009 03fd 08       		.byte	0x8
 1010 03fe A201     		.2byte	0x1a2
 1011 0400 12040000 		.4byte	0x412
 1012 0404 09       		.uleb128 0x9
 1013 0405 EE020000 		.4byte	.LASF76
 1014 0409 08       		.byte	0x8
ARM GAS  /tmp/ccyJylYd.s 			page 19


 1015 040a AA01     		.2byte	0x1aa
 1016 040c 3D060000 		.4byte	0x63d
 1017 0410 00       		.byte	0
 1018 0411 00       		.byte	0
 1019 0412 03       		.uleb128 0x3
 1020 0413 130E0000 		.4byte	.LASF77
 1021 0417 07       		.byte	0x7
 1022 0418 70       		.byte	0x70
 1023 0419 1D040000 		.4byte	0x41d
 1024 041d 0F       		.uleb128 0xf
 1025 041e 650D0000 		.4byte	.LASF78
 1026 0422 5001     		.2byte	0x150
 1027 0424 08       		.byte	0x8
 1028 0425 C201     		.2byte	0x1c2
 1029 0427 79040000 		.4byte	0x479
 1030 042b 09       		.uleb128 0x9
 1031 042c CB0A0000 		.4byte	.LASF79
 1032 0430 08       		.byte	0x8
 1033 0431 C601     		.2byte	0x1c6
 1034 0433 C0020000 		.4byte	0x2c0
 1035 0437 00       		.byte	0
 1036 0438 09       		.uleb128 0x9
 1037 0439 F40C0000 		.4byte	.LASF80
 1038 043d 08       		.byte	0x8
 1039 043e CA01     		.2byte	0x1ca
 1040 0440 9F030000 		.4byte	0x39f
 1041 0444 1C       		.byte	0x1c
 1042 0445 08       		.uleb128 0x8
 1043 0446 64626700 		.ascii	"dbg\000"
 1044 044a 08       		.byte	0x8
 1045 044b CE01     		.2byte	0x1ce
 1046 044d EC030000 		.4byte	0x3ec
 1047 0451 2C       		.byte	0x2c
 1048 0452 09       		.uleb128 0x9
 1049 0453 490A0000 		.4byte	.LASF81
 1050 0457 08       		.byte	0x8
 1051 0458 D201     		.2byte	0x1d2
 1052 045a 63010000 		.4byte	0x163
 1053 045e 30       		.byte	0x30
 1054 045f 08       		.uleb128 0x8
 1055 0460 746D00   		.ascii	"tm\000"
 1056 0463 08       		.byte	0x8
 1057 0464 D701     		.2byte	0x1d7
 1058 0466 55050000 		.4byte	0x555
 1059 046a 74       		.byte	0x74
 1060 046b 09       		.uleb128 0x9
 1061 046c 97070000 		.4byte	.LASF82
 1062 0470 08       		.byte	0x8
 1063 0471 E301     		.2byte	0x1e3
 1064 0473 42060000 		.4byte	0x642
 1065 0477 78       		.byte	0x78
 1066 0478 00       		.byte	0
 1067 0479 04       		.uleb128 0x4
 1068 047a 04       		.byte	0x4
 1069 047b 07       		.byte	0x7
 1070 047c 07000000 		.4byte	.LASF83
 1071 0480 10       		.uleb128 0x10
ARM GAS  /tmp/ccyJylYd.s 			page 20


 1072 0481 F0000000 		.4byte	0xf0
 1073 0485 90040000 		.4byte	0x490
 1074 0489 11       		.uleb128 0x11
 1075 048a 79040000 		.4byte	0x479
 1076 048e 0E       		.byte	0xe
 1077 048f 00       		.byte	0
 1078 0490 03       		.uleb128 0x3
 1079 0491 F6010000 		.4byte	.LASF84
 1080 0495 09       		.byte	0x9
 1081 0496 65       		.byte	0x65
 1082 0497 43030000 		.4byte	0x343
 1083 049b 03       		.uleb128 0x3
 1084 049c EB030000 		.4byte	.LASF85
 1085 04a0 09       		.byte	0x9
 1086 04a1 6D       		.byte	0x6d
 1087 04a2 E0000000 		.4byte	0xe0
 1088 04a6 06       		.uleb128 0x6
 1089 04a7 A3020000 		.4byte	.LASF86
 1090 04ab 04       		.byte	0x4
 1091 04ac 09       		.byte	0x9
 1092 04ad 89       		.byte	0x89
 1093 04ae BF040000 		.4byte	0x4bf
 1094 04b2 12       		.uleb128 0x12
 1095 04b3 72313300 		.ascii	"r13\000"
 1096 04b7 09       		.byte	0x9
 1097 04b8 8A       		.byte	0x8a
 1098 04b9 3A050000 		.4byte	0x53a
 1099 04bd 00       		.byte	0
 1100 04be 00       		.byte	0
 1101 04bf 06       		.uleb128 0x6
 1102 04c0 F8080000 		.4byte	.LASF87
 1103 04c4 24       		.byte	0x24
 1104 04c5 0A       		.byte	0xa
 1105 04c6 F4       		.byte	0xf4
 1106 04c7 3A050000 		.4byte	0x53a
 1107 04cb 08       		.uleb128 0x8
 1108 04cc 723400   		.ascii	"r4\000"
 1109 04cf 0A       		.byte	0xa
 1110 04d0 0701     		.2byte	0x107
 1111 04d2 90040000 		.4byte	0x490
 1112 04d6 00       		.byte	0
 1113 04d7 08       		.uleb128 0x8
 1114 04d8 723500   		.ascii	"r5\000"
 1115 04db 0A       		.byte	0xa
 1116 04dc 0801     		.2byte	0x108
 1117 04de 90040000 		.4byte	0x490
 1118 04e2 04       		.byte	0x4
 1119 04e3 08       		.uleb128 0x8
 1120 04e4 723600   		.ascii	"r6\000"
 1121 04e7 0A       		.byte	0xa
 1122 04e8 0901     		.2byte	0x109
 1123 04ea 90040000 		.4byte	0x490
 1124 04ee 08       		.byte	0x8
 1125 04ef 08       		.uleb128 0x8
 1126 04f0 723700   		.ascii	"r7\000"
 1127 04f3 0A       		.byte	0xa
 1128 04f4 0A01     		.2byte	0x10a
ARM GAS  /tmp/ccyJylYd.s 			page 21


 1129 04f6 90040000 		.4byte	0x490
 1130 04fa 0C       		.byte	0xc
 1131 04fb 08       		.uleb128 0x8
 1132 04fc 723800   		.ascii	"r8\000"
 1133 04ff 0A       		.byte	0xa
 1134 0500 0B01     		.2byte	0x10b
 1135 0502 90040000 		.4byte	0x490
 1136 0506 10       		.byte	0x10
 1137 0507 08       		.uleb128 0x8
 1138 0508 723900   		.ascii	"r9\000"
 1139 050b 0A       		.byte	0xa
 1140 050c 0C01     		.2byte	0x10c
 1141 050e 90040000 		.4byte	0x490
 1142 0512 14       		.byte	0x14
 1143 0513 08       		.uleb128 0x8
 1144 0514 72313000 		.ascii	"r10\000"
 1145 0518 0A       		.byte	0xa
 1146 0519 0D01     		.2byte	0x10d
 1147 051b 90040000 		.4byte	0x490
 1148 051f 18       		.byte	0x18
 1149 0520 08       		.uleb128 0x8
 1150 0521 72313100 		.ascii	"r11\000"
 1151 0525 0A       		.byte	0xa
 1152 0526 0E01     		.2byte	0x10e
 1153 0528 90040000 		.4byte	0x490
 1154 052c 1C       		.byte	0x1c
 1155 052d 08       		.uleb128 0x8
 1156 052e 6C7200   		.ascii	"lr\000"
 1157 0531 0A       		.byte	0xa
 1158 0532 0F01     		.2byte	0x10f
 1159 0534 90040000 		.4byte	0x490
 1160 0538 20       		.byte	0x20
 1161 0539 00       		.byte	0
 1162 053a 0A       		.uleb128 0xa
 1163 053b 04       		.byte	0x4
 1164 053c BF040000 		.4byte	0x4bf
 1165 0540 13       		.uleb128 0x13
 1166 0541 04       		.byte	0x4
 1167 0542 0B       		.byte	0xb
 1168 0543 38       		.byte	0x38
 1169 0544 55050000 		.4byte	0x555
 1170 0548 07       		.uleb128 0x7
 1171 0549 5E080000 		.4byte	.LASF88
 1172 054d 0B       		.byte	0xb
 1173 054e 3C       		.byte	0x3c
 1174 054f F5000000 		.4byte	0xf5
 1175 0553 00       		.byte	0
 1176 0554 00       		.byte	0
 1177 0555 03       		.uleb128 0x3
 1178 0556 0C0B0000 		.4byte	.LASF89
 1179 055a 0B       		.byte	0xb
 1180 055b 3D       		.byte	0x3d
 1181 055c 40050000 		.4byte	0x540
 1182 0560 14       		.uleb128 0x14
 1183 0561 04       		.byte	0x4
 1184 0562 08       		.byte	0x8
 1185 0563 FA       		.byte	0xfa
ARM GAS  /tmp/ccyJylYd.s 			page 22


 1186 0564 BD050000 		.4byte	0x5bd
 1187 0568 15       		.uleb128 0x15
 1188 0569 CC0D0000 		.4byte	.LASF90
 1189 056d 08       		.byte	0x8
 1190 056e 0101     		.2byte	0x101
 1191 0570 2C010000 		.4byte	0x12c
 1192 0574 15       		.uleb128 0x15
 1193 0575 F4000000 		.4byte	.LASF91
 1194 0579 08       		.byte	0x8
 1195 057a 0801     		.2byte	0x108
 1196 057c 2C010000 		.4byte	0x12c
 1197 0580 15       		.uleb128 0x15
 1198 0581 BC030000 		.4byte	.LASF92
 1199 0585 08       		.byte	0x8
 1200 0586 0F01     		.2byte	0x10f
 1201 0588 43030000 		.4byte	0x343
 1202 058c 15       		.uleb128 0x15
 1203 058d B2020000 		.4byte	.LASF93
 1204 0591 08       		.byte	0x8
 1205 0592 1601     		.2byte	0x116
 1206 0594 BD050000 		.4byte	0x5bd
 1207 0598 15       		.uleb128 0x15
 1208 0599 10000000 		.4byte	.LASF94
 1209 059d 08       		.byte	0x8
 1210 059e 1E01     		.2byte	0x11e
 1211 05a0 E8050000 		.4byte	0x5e8
 1212 05a4 15       		.uleb128 0x15
 1213 05a5 BD040000 		.4byte	.LASF95
 1214 05a9 08       		.byte	0x8
 1215 05aa 2701     		.2byte	0x127
 1216 05ac 1F060000 		.4byte	0x61f
 1217 05b0 15       		.uleb128 0x15
 1218 05b1 50020000 		.4byte	.LASF96
 1219 05b5 08       		.byte	0x8
 1220 05b6 2F01     		.2byte	0x12f
 1221 05b8 37010000 		.4byte	0x137
 1222 05bc 00       		.byte	0
 1223 05bd 0A       		.uleb128 0xa
 1224 05be 04       		.byte	0x4
 1225 05bf 5B020000 		.4byte	0x25b
 1226 05c3 06       		.uleb128 0x6
 1227 05c4 7A050000 		.4byte	.LASF97
 1228 05c8 0C       		.byte	0xc
 1229 05c9 0C       		.byte	0xc
 1230 05ca 34       		.byte	0x34
 1231 05cb E8050000 		.4byte	0x5e8
 1232 05cf 07       		.uleb128 0x7
 1233 05d0 270B0000 		.4byte	.LASF98
 1234 05d4 0C       		.byte	0xc
 1235 05d5 35       		.byte	0x35
 1236 05d6 90020000 		.4byte	0x290
 1237 05da 00       		.byte	0
 1238 05db 07       		.uleb128 0x7
 1239 05dc 48090000 		.4byte	.LASF99
 1240 05e0 0C       		.byte	0xc
 1241 05e1 37       		.byte	0x37
 1242 05e2 4D010000 		.4byte	0x14d
ARM GAS  /tmp/ccyJylYd.s 			page 23


 1243 05e6 08       		.byte	0x8
 1244 05e7 00       		.byte	0
 1245 05e8 0A       		.uleb128 0xa
 1246 05e9 04       		.byte	0x4
 1247 05ea C3050000 		.4byte	0x5c3
 1248 05ee 06       		.uleb128 0x6
 1249 05ef 660B0000 		.4byte	.LASF100
 1250 05f3 10       		.byte	0x10
 1251 05f4 0D       		.byte	0xd
 1252 05f5 39       		.byte	0x39
 1253 05f6 1F060000 		.4byte	0x61f
 1254 05fa 07       		.uleb128 0x7
 1255 05fb CF060000 		.4byte	.LASF101
 1256 05ff 0D       		.byte	0xd
 1257 0600 3A       		.byte	0x3a
 1258 0601 90020000 		.4byte	0x290
 1259 0605 00       		.byte	0
 1260 0606 07       		.uleb128 0x7
 1261 0607 E5000000 		.4byte	.LASF102
 1262 060b 0D       		.byte	0xd
 1263 060c 3C       		.byte	0x3c
 1264 060d 66020000 		.4byte	0x266
 1265 0611 08       		.byte	0x8
 1266 0612 07       		.uleb128 0x7
 1267 0613 AB0E0000 		.4byte	.LASF103
 1268 0617 0D       		.byte	0xd
 1269 0618 3E       		.byte	0x3e
 1270 0619 5D060000 		.4byte	0x65d
 1271 061d 0C       		.byte	0xc
 1272 061e 00       		.byte	0
 1273 061f 0A       		.uleb128 0xa
 1274 0620 04       		.byte	0x4
 1275 0621 EE050000 		.4byte	0x5ee
 1276 0625 0A       		.uleb128 0xa
 1277 0626 04       		.byte	0x4
 1278 0627 32060000 		.4byte	0x632
 1279 062b 04       		.uleb128 0x4
 1280 062c 01       		.byte	0x1
 1281 062d 08       		.byte	0x8
 1282 062e 7E030000 		.4byte	.LASF104
 1283 0632 16       		.uleb128 0x16
 1284 0633 2B060000 		.4byte	0x62b
 1285 0637 0A       		.uleb128 0xa
 1286 0638 04       		.byte	0x4
 1287 0639 45030000 		.4byte	0x345
 1288 063d 05       		.uleb128 0x5
 1289 063e 25060000 		.4byte	0x625
 1290 0642 10       		.uleb128 0x10
 1291 0643 9B040000 		.4byte	0x49b
 1292 0647 52060000 		.4byte	0x652
 1293 064b 11       		.uleb128 0x11
 1294 064c 79040000 		.4byte	0x479
 1295 0650 1A       		.byte	0x1a
 1296 0651 00       		.byte	0
 1297 0652 03       		.uleb128 0x3
 1298 0653 2E0D0000 		.4byte	.LASF105
 1299 0657 0D       		.byte	0xd
ARM GAS  /tmp/ccyJylYd.s 			page 24


 1300 0658 34       		.byte	0x34
 1301 0659 EE050000 		.4byte	0x5ee
 1302 065d 0A       		.uleb128 0xa
 1303 065e 04       		.byte	0x4
 1304 065f 52060000 		.4byte	0x652
 1305 0663 03       		.uleb128 0x3
 1306 0664 1E040000 		.4byte	.LASF106
 1307 0668 0E       		.byte	0xe
 1308 0669 34       		.byte	0x34
 1309 066a 6E060000 		.4byte	0x66e
 1310 066e 06       		.uleb128 0x6
 1311 066f B20D0000 		.4byte	.LASF107
 1312 0673 14       		.byte	0x14
 1313 0674 0E       		.byte	0xe
 1314 0675 39       		.byte	0x39
 1315 0676 B7060000 		.4byte	0x6b7
 1316 067a 07       		.uleb128 0x7
 1317 067b C6050000 		.4byte	.LASF108
 1318 067f 0E       		.byte	0xe
 1319 0680 3A       		.byte	0x3a
 1320 0681 B7060000 		.4byte	0x6b7
 1321 0685 00       		.byte	0
 1322 0686 07       		.uleb128 0x7
 1323 0687 FE0E0000 		.4byte	.LASF109
 1324 068b 0E       		.byte	0xe
 1325 068c 3D       		.byte	0x3d
 1326 068d 66020000 		.4byte	0x266
 1327 0691 04       		.byte	0x4
 1328 0692 07       		.uleb128 0x7
 1329 0693 34080000 		.4byte	.LASF110
 1330 0697 0E       		.byte	0xe
 1331 0698 3F       		.byte	0x3f
 1332 0699 37010000 		.4byte	0x137
 1333 069d 08       		.byte	0x8
 1334 069e 07       		.uleb128 0x7
 1335 069f A5000000 		.4byte	.LASF111
 1336 06a3 0E       		.byte	0xe
 1337 06a4 41       		.byte	0x41
 1338 06a5 42010000 		.4byte	0x142
 1339 06a9 0C       		.byte	0xc
 1340 06aa 07       		.uleb128 0x7
 1341 06ab 2A080000 		.4byte	.LASF112
 1342 06af 0E       		.byte	0xe
 1343 06b0 43       		.byte	0x43
 1344 06b1 42010000 		.4byte	0x142
 1345 06b5 10       		.byte	0x10
 1346 06b6 00       		.byte	0
 1347 06b7 0A       		.uleb128 0xa
 1348 06b8 04       		.byte	0x4
 1349 06b9 63060000 		.4byte	0x663
 1350 06bd 06       		.uleb128 0x6
 1351 06be 390B0000 		.4byte	.LASF113
 1352 06c2 04       		.byte	0x4
 1353 06c3 0E       		.byte	0xe
 1354 06c4 4A       		.byte	0x4a
 1355 06c5 D6060000 		.4byte	0x6d6
 1356 06c9 07       		.uleb128 0x7
ARM GAS  /tmp/ccyJylYd.s 			page 25


 1357 06ca 23050000 		.4byte	.LASF114
 1358 06ce 0E       		.byte	0xe
 1359 06cf 4B       		.byte	0x4b
 1360 06d0 B7060000 		.4byte	0x6b7
 1361 06d4 00       		.byte	0
 1362 06d5 00       		.byte	0
 1363 06d6 03       		.uleb128 0x3
 1364 06d7 1B070000 		.4byte	.LASF115
 1365 06db 0E       		.byte	0xe
 1366 06dc 4E       		.byte	0x4e
 1367 06dd BD060000 		.4byte	0x6bd
 1368 06e1 03       		.uleb128 0x3
 1369 06e2 B30C0000 		.4byte	.LASF116
 1370 06e6 0F       		.byte	0xf
 1371 06e7 3F       		.byte	0x3f
 1372 06e8 EC060000 		.4byte	0x6ec
 1373 06ec 06       		.uleb128 0x6
 1374 06ed 2C020000 		.4byte	.LASF117
 1375 06f1 24       		.byte	0x24
 1376 06f2 0F       		.byte	0xf
 1377 06f3 4D       		.byte	0x4d
 1378 06f4 59070000 		.4byte	0x759
 1379 06f8 07       		.uleb128 0x7
 1380 06f9 C10A0000 		.4byte	.LASF118
 1381 06fd 0F       		.byte	0xf
 1382 06fe 4E       		.byte	0x4e
 1383 06ff 90020000 		.4byte	0x290
 1384 0703 00       		.byte	0
 1385 0704 07       		.uleb128 0x7
 1386 0705 2B050000 		.4byte	.LASF119
 1387 0709 0F       		.byte	0xf
 1388 070a 4F       		.byte	0x4f
 1389 070b 2C000000 		.4byte	0x2c
 1390 070f 08       		.byte	0x8
 1391 0710 07       		.uleb128 0x7
 1392 0711 43010000 		.4byte	.LASF120
 1393 0715 0F       		.byte	0xf
 1394 0716 50       		.byte	0x50
 1395 0717 7B070000 		.4byte	0x77b
 1396 071b 0C       		.byte	0xc
 1397 071c 07       		.uleb128 0x7
 1398 071d 15010000 		.4byte	.LASF121
 1399 0721 0F       		.byte	0xf
 1400 0722 51       		.byte	0x51
 1401 0723 7B070000 		.4byte	0x77b
 1402 0727 10       		.byte	0x10
 1403 0728 07       		.uleb128 0x7
 1404 0729 FE050000 		.4byte	.LASF122
 1405 072d 0F       		.byte	0xf
 1406 072e 53       		.byte	0x53
 1407 072f 7B070000 		.4byte	0x77b
 1408 0733 14       		.byte	0x14
 1409 0734 07       		.uleb128 0x7
 1410 0735 A0010000 		.4byte	.LASF123
 1411 0739 0F       		.byte	0xf
 1412 073a 54       		.byte	0x54
 1413 073b 7B070000 		.4byte	0x77b
ARM GAS  /tmp/ccyJylYd.s 			page 26


 1414 073f 18       		.byte	0x18
 1415 0740 07       		.uleb128 0x7
 1416 0741 67010000 		.4byte	.LASF124
 1417 0745 0F       		.byte	0xf
 1418 0746 55       		.byte	0x55
 1419 0747 59070000 		.4byte	0x759
 1420 074b 1C       		.byte	0x1c
 1421 074c 07       		.uleb128 0x7
 1422 074d E7020000 		.4byte	.LASF125
 1423 0751 0F       		.byte	0xf
 1424 0752 56       		.byte	0x56
 1425 0753 43030000 		.4byte	0x343
 1426 0757 20       		.byte	0x20
 1427 0758 00       		.byte	0
 1428 0759 03       		.uleb128 0x3
 1429 075a 67070000 		.4byte	.LASF126
 1430 075e 0F       		.byte	0xf
 1431 075f 42       		.byte	0x42
 1432 0760 64070000 		.4byte	0x764
 1433 0764 0A       		.uleb128 0xa
 1434 0765 04       		.byte	0x4
 1435 0766 6A070000 		.4byte	0x76a
 1436 076a 0C       		.uleb128 0xc
 1437 076b 75070000 		.4byte	0x775
 1438 076f 0D       		.uleb128 0xd
 1439 0770 75070000 		.4byte	0x775
 1440 0774 00       		.byte	0
 1441 0775 0A       		.uleb128 0xa
 1442 0776 04       		.byte	0x4
 1443 0777 E1060000 		.4byte	0x6e1
 1444 077b 0A       		.uleb128 0xa
 1445 077c 04       		.byte	0x4
 1446 077d B4000000 		.4byte	0xb4
 1447 0781 03       		.uleb128 0x3
 1448 0782 910D0000 		.4byte	.LASF127
 1449 0786 0F       		.byte	0xf
 1450 0787 64       		.byte	0x64
 1451 0788 E1060000 		.4byte	0x6e1
 1452 078c 03       		.uleb128 0x3
 1453 078d 430E0000 		.4byte	.LASF128
 1454 0791 0F       		.byte	0xf
 1455 0792 71       		.byte	0x71
 1456 0793 E1060000 		.4byte	0x6e1
 1457 0797 17       		.uleb128 0x17
 1458 0798 2C000000 		.4byte	0x2c
 1459 079c B0070000 		.4byte	0x7b0
 1460 07a0 0D       		.uleb128 0xd
 1461 07a1 43030000 		.4byte	0x343
 1462 07a5 0D       		.uleb128 0xd
 1463 07a6 B0070000 		.4byte	0x7b0
 1464 07aa 0D       		.uleb128 0xd
 1465 07ab 2C000000 		.4byte	0x2c
 1466 07af 00       		.byte	0
 1467 07b0 0A       		.uleb128 0xa
 1468 07b1 04       		.byte	0x4
 1469 07b2 B6070000 		.4byte	0x7b6
 1470 07b6 16       		.uleb128 0x16
ARM GAS  /tmp/ccyJylYd.s 			page 27


 1471 07b7 B4000000 		.4byte	0xb4
 1472 07bb 0A       		.uleb128 0xa
 1473 07bc 04       		.byte	0x4
 1474 07bd 97070000 		.4byte	0x797
 1475 07c1 17       		.uleb128 0x17
 1476 07c2 2C000000 		.4byte	0x2c
 1477 07c6 DA070000 		.4byte	0x7da
 1478 07ca 0D       		.uleb128 0xd
 1479 07cb 43030000 		.4byte	0x343
 1480 07cf 0D       		.uleb128 0xd
 1481 07d0 7B070000 		.4byte	0x77b
 1482 07d4 0D       		.uleb128 0xd
 1483 07d5 2C000000 		.4byte	0x2c
 1484 07d9 00       		.byte	0
 1485 07da 0A       		.uleb128 0xa
 1486 07db 04       		.byte	0x4
 1487 07dc C1070000 		.4byte	0x7c1
 1488 07e0 17       		.uleb128 0x17
 1489 07e1 2C010000 		.4byte	0x12c
 1490 07e5 F4070000 		.4byte	0x7f4
 1491 07e9 0D       		.uleb128 0xd
 1492 07ea 43030000 		.4byte	0x343
 1493 07ee 0D       		.uleb128 0xd
 1494 07ef B4000000 		.4byte	0xb4
 1495 07f3 00       		.byte	0
 1496 07f4 0A       		.uleb128 0xa
 1497 07f5 04       		.byte	0x4
 1498 07f6 E0070000 		.4byte	0x7e0
 1499 07fa 17       		.uleb128 0x17
 1500 07fb 2C010000 		.4byte	0x12c
 1501 07ff 09080000 		.4byte	0x809
 1502 0803 0D       		.uleb128 0xd
 1503 0804 43030000 		.4byte	0x343
 1504 0808 00       		.byte	0
 1505 0809 0A       		.uleb128 0xa
 1506 080a 04       		.byte	0x4
 1507 080b FA070000 		.4byte	0x7fa
 1508 080f 17       		.uleb128 0x17
 1509 0810 2C010000 		.4byte	0x12c
 1510 0814 28080000 		.4byte	0x828
 1511 0818 0D       		.uleb128 0xd
 1512 0819 43030000 		.4byte	0x343
 1513 081d 0D       		.uleb128 0xd
 1514 081e B4000000 		.4byte	0xb4
 1515 0822 0D       		.uleb128 0xd
 1516 0823 58010000 		.4byte	0x158
 1517 0827 00       		.byte	0
 1518 0828 0A       		.uleb128 0xa
 1519 0829 04       		.byte	0x4
 1520 082a 0F080000 		.4byte	0x80f
 1521 082e 17       		.uleb128 0x17
 1522 082f 2C010000 		.4byte	0x12c
 1523 0833 42080000 		.4byte	0x842
 1524 0837 0D       		.uleb128 0xd
 1525 0838 43030000 		.4byte	0x343
 1526 083c 0D       		.uleb128 0xd
 1527 083d 58010000 		.4byte	0x158
ARM GAS  /tmp/ccyJylYd.s 			page 28


 1528 0841 00       		.byte	0
 1529 0842 0A       		.uleb128 0xa
 1530 0843 04       		.byte	0x4
 1531 0844 2E080000 		.4byte	0x82e
 1532 0848 17       		.uleb128 0x17
 1533 0849 2C000000 		.4byte	0x2c
 1534 084d 66080000 		.4byte	0x866
 1535 0851 0D       		.uleb128 0xd
 1536 0852 43030000 		.4byte	0x343
 1537 0856 0D       		.uleb128 0xd
 1538 0857 B0070000 		.4byte	0x7b0
 1539 085b 0D       		.uleb128 0xd
 1540 085c 2C000000 		.4byte	0x2c
 1541 0860 0D       		.uleb128 0xd
 1542 0861 58010000 		.4byte	0x158
 1543 0865 00       		.byte	0
 1544 0866 0A       		.uleb128 0xa
 1545 0867 04       		.byte	0x4
 1546 0868 48080000 		.4byte	0x848
 1547 086c 17       		.uleb128 0x17
 1548 086d 2C000000 		.4byte	0x2c
 1549 0871 8A080000 		.4byte	0x88a
 1550 0875 0D       		.uleb128 0xd
 1551 0876 43030000 		.4byte	0x343
 1552 087a 0D       		.uleb128 0xd
 1553 087b 7B070000 		.4byte	0x77b
 1554 087f 0D       		.uleb128 0xd
 1555 0880 2C000000 		.4byte	0x2c
 1556 0884 0D       		.uleb128 0xd
 1557 0885 58010000 		.4byte	0x158
 1558 0889 00       		.byte	0
 1559 088a 0A       		.uleb128 0xa
 1560 088b 04       		.byte	0x4
 1561 088c 6C080000 		.4byte	0x86c
 1562 0890 04       		.uleb128 0x4
 1563 0891 01       		.byte	0x1
 1564 0892 02       		.byte	0x2
 1565 0893 46030000 		.4byte	.LASF129
 1566 0897 03       		.uleb128 0x3
 1567 0898 B2030000 		.4byte	.LASF130
 1568 089c 10       		.byte	0x10
 1569 089d FA       		.byte	0xfa
 1570 089e A2080000 		.4byte	0x8a2
 1571 08a2 0F       		.uleb128 0xf
 1572 08a3 B2030000 		.4byte	.LASF130
 1573 08a7 B001     		.2byte	0x1b0
 1574 08a9 11       		.byte	0x11
 1575 08aa 7701     		.2byte	0x177
 1576 08ac CE090000 		.4byte	0x9ce
 1577 08b0 09       		.uleb128 0x9
 1578 08b1 B5000000 		.4byte	.LASF131
 1579 08b5 11       		.byte	0x11
 1580 08b6 7B01     		.2byte	0x17b
 1581 08b8 050A0000 		.4byte	0xa05
 1582 08bc 00       		.byte	0
 1583 08bd 09       		.uleb128 0x9
 1584 08be AE000000 		.4byte	.LASF132
ARM GAS  /tmp/ccyJylYd.s 			page 29


 1585 08c2 11       		.byte	0x11
 1586 08c3 7F01     		.2byte	0x17f
 1587 08c5 2B130000 		.4byte	0x132b
 1588 08c9 04       		.byte	0x4
 1589 08ca 09       		.uleb128 0x9
 1590 08cb 2F040000 		.4byte	.LASF133
 1591 08cf 11       		.byte	0x11
 1592 08d0 8301     		.2byte	0x183
 1593 08d2 BF000000 		.4byte	0xbf
 1594 08d6 08       		.byte	0x8
 1595 08d7 09       		.uleb128 0x9
 1596 08d8 9D030000 		.4byte	.LASF134
 1597 08dc 11       		.byte	0x11
 1598 08dd 8701     		.2byte	0x187
 1599 08df BF000000 		.4byte	0xbf
 1600 08e3 0A       		.byte	0xa
 1601 08e4 08       		.uleb128 0x8
 1602 08e5 65706300 		.ascii	"epc\000"
 1603 08e9 11       		.byte	0x11
 1604 08ea 8B01     		.2byte	0x18b
 1605 08ec 36130000 		.4byte	0x1336
 1606 08f0 0C       		.byte	0xc
 1607 08f1 09       		.uleb128 0x9
 1608 08f2 FA0A0000 		.4byte	.LASF135
 1609 08f6 11       		.byte	0x11
 1610 08f7 9201     		.2byte	0x192
 1611 08f9 51130000 		.4byte	0x1351
 1612 08fd 1C       		.byte	0x1c
 1613 08fe 09       		.uleb128 0x9
 1614 08ff 520E0000 		.4byte	.LASF136
 1615 0903 11       		.byte	0x11
 1616 0904 9901     		.2byte	0x199
 1617 0906 51130000 		.4byte	0x1351
 1618 090a 28       		.byte	0x28
 1619 090b 09       		.uleb128 0x9
 1620 090c 14030000 		.4byte	.LASF137
 1621 0910 11       		.byte	0x11
 1622 0911 9D01     		.2byte	0x19d
 1623 0913 490A0000 		.4byte	0xa49
 1624 0917 34       		.byte	0x34
 1625 0918 09       		.uleb128 0x9
 1626 0919 FB060000 		.4byte	.LASF138
 1627 091d 11       		.byte	0x11
 1628 091e A101     		.2byte	0x1a1
 1629 0920 7B070000 		.4byte	0x77b
 1630 0924 38       		.byte	0x38
 1631 0925 09       		.uleb128 0x9
 1632 0926 83030000 		.4byte	.LASF139
 1633 092a 11       		.byte	0x11
 1634 092b A501     		.2byte	0x1a5
 1635 092d 2C000000 		.4byte	0x2c
 1636 0931 3C       		.byte	0x3c
 1637 0932 09       		.uleb128 0x9
 1638 0933 87050000 		.4byte	.LASF140
 1639 0937 11       		.byte	0x11
 1640 0938 A901     		.2byte	0x1a9
 1641 093a C30A0000 		.4byte	0xac3
ARM GAS  /tmp/ccyJylYd.s 			page 30


 1642 093e 40       		.byte	0x40
 1643 093f 09       		.uleb128 0x9
 1644 0940 AC040000 		.4byte	.LASF141
 1645 0944 11       		.byte	0x11
 1646 0945 AD01     		.2byte	0x1ad
 1647 0947 61130000 		.4byte	0x1361
 1648 094b 44       		.byte	0x44
 1649 094c 09       		.uleb128 0x9
 1650 094d 63050000 		.4byte	.LASF142
 1651 0951 11       		.byte	0x11
 1652 0952 B101     		.2byte	0x1b1
 1653 0954 BF000000 		.4byte	0xbf
 1654 0958 4C       		.byte	0x4c
 1655 0959 09       		.uleb128 0x9
 1656 095a 72050000 		.4byte	.LASF143
 1657 095e 11       		.byte	0x11
 1658 095f B501     		.2byte	0x1b5
 1659 0961 B4000000 		.4byte	0xb4
 1660 0965 4E       		.byte	0x4e
 1661 0966 09       		.uleb128 0x9
 1662 0967 05050000 		.4byte	.LASF144
 1663 096b 11       		.byte	0x11
 1664 096c B901     		.2byte	0x1b9
 1665 096e B4000000 		.4byte	0xb4
 1666 0972 4F       		.byte	0x4f
 1667 0973 08       		.uleb128 0x8
 1668 0974 6F746700 		.ascii	"otg\000"
 1669 0978 11       		.byte	0x11
 1670 0979 C101     		.2byte	0x1c1
 1671 097b 71130000 		.4byte	0x1371
 1672 097f 50       		.byte	0x50
 1673 0980 09       		.uleb128 0x9
 1674 0981 04090000 		.4byte	.LASF145
 1675 0985 11       		.byte	0x11
 1676 0986 C501     		.2byte	0x1c5
 1677 0988 77130000 		.4byte	0x1377
 1678 098c 54       		.byte	0x54
 1679 098d 09       		.uleb128 0x9
 1680 098e B20E0000 		.4byte	.LASF146
 1681 0992 11       		.byte	0x11
 1682 0993 C901     		.2byte	0x1c9
 1683 0995 D5000000 		.4byte	0xd5
 1684 0999 58       		.byte	0x58
 1685 099a 09       		.uleb128 0x9
 1686 099b D6070000 		.4byte	.LASF147
 1687 099f 11       		.byte	0x11
 1688 09a0 CD01     		.2byte	0x1cd
 1689 09a2 D5000000 		.4byte	0xd5
 1690 09a6 5C       		.byte	0x5c
 1691 09a7 09       		.uleb128 0x9
 1692 09a8 62070000 		.4byte	.LASF148
 1693 09ac 11       		.byte	0x11
 1694 09ad D101     		.2byte	0x1d1
 1695 09af 5B020000 		.4byte	0x25b
 1696 09b3 60       		.byte	0x60
 1697 09b4 08       		.uleb128 0x8
 1698 09b5 747200   		.ascii	"tr\000"
ARM GAS  /tmp/ccyJylYd.s 			page 31


 1699 09b8 11       		.byte	0x11
 1700 09b9 D601     		.2byte	0x1d6
 1701 09bb 5B020000 		.4byte	0x25b
 1702 09bf 64       		.byte	0x64
 1703 09c0 09       		.uleb128 0x9
 1704 09c1 F20A0000 		.4byte	.LASF149
 1705 09c5 11       		.byte	0x11
 1706 09c6 DA01     		.2byte	0x1da
 1707 09c8 82130000 		.4byte	0x1382
 1708 09cc 68       		.byte	0x68
 1709 09cd 00       		.byte	0
 1710 09ce 03       		.uleb128 0x3
 1711 09cf 800D0000 		.4byte	.LASF150
 1712 09d3 10       		.byte	0x10
 1713 09d4 FF       		.byte	0xff
 1714 09d5 B4000000 		.4byte	0xb4
 1715 09d9 18       		.uleb128 0x18
 1716 09da 01       		.byte	0x1
 1717 09db 5E000000 		.4byte	0x5e
 1718 09df 10       		.byte	0x10
 1719 09e0 0401     		.2byte	0x104
 1720 09e2 050A0000 		.4byte	0xa05
 1721 09e6 19       		.uleb128 0x19
 1722 09e7 2C090000 		.4byte	.LASF151
 1723 09eb 00       		.byte	0
 1724 09ec 19       		.uleb128 0x19
 1725 09ed 6E080000 		.4byte	.LASF152
 1726 09f1 01       		.byte	0x1
 1727 09f2 19       		.uleb128 0x19
 1728 09f3 C0060000 		.4byte	.LASF153
 1729 09f7 02       		.byte	0x2
 1730 09f8 19       		.uleb128 0x19
 1731 09f9 F8040000 		.4byte	.LASF154
 1732 09fd 03       		.byte	0x3
 1733 09fe 19       		.uleb128 0x19
 1734 09ff C8000000 		.4byte	.LASF155
 1735 0a03 04       		.byte	0x4
 1736 0a04 00       		.byte	0
 1737 0a05 1A       		.uleb128 0x1a
 1738 0a06 23060000 		.4byte	.LASF156
 1739 0a0a 10       		.byte	0x10
 1740 0a0b 0A01     		.2byte	0x10a
 1741 0a0d D9090000 		.4byte	0x9d9
 1742 0a11 18       		.uleb128 0x18
 1743 0a12 01       		.byte	0x1
 1744 0a13 5E000000 		.4byte	0x5e
 1745 0a17 10       		.byte	0x10
 1746 0a18 1801     		.2byte	0x118
 1747 0a1a 490A0000 		.4byte	0xa49
 1748 0a1e 19       		.uleb128 0x19
 1749 0a1f 05020000 		.4byte	.LASF157
 1750 0a23 00       		.byte	0
 1751 0a24 19       		.uleb128 0x19
 1752 0a25 91000000 		.4byte	.LASF158
 1753 0a29 01       		.byte	0x1
 1754 0a2a 19       		.uleb128 0x19
 1755 0a2b E4080000 		.4byte	.LASF159
ARM GAS  /tmp/ccyJylYd.s 			page 32


 1756 0a2f 02       		.byte	0x2
 1757 0a30 19       		.uleb128 0x19
 1758 0a31 900E0000 		.4byte	.LASF160
 1759 0a35 03       		.byte	0x3
 1760 0a36 19       		.uleb128 0x19
 1761 0a37 CA0E0000 		.4byte	.LASF161
 1762 0a3b 04       		.byte	0x4
 1763 0a3c 19       		.uleb128 0x19
 1764 0a3d 770E0000 		.4byte	.LASF162
 1765 0a41 05       		.byte	0x5
 1766 0a42 19       		.uleb128 0x19
 1767 0a43 D9020000 		.4byte	.LASF163
 1768 0a47 06       		.byte	0x6
 1769 0a48 00       		.byte	0
 1770 0a49 1A       		.uleb128 0x1a
 1771 0a4a FD000000 		.4byte	.LASF164
 1772 0a4e 10       		.byte	0x10
 1773 0a4f 2001     		.2byte	0x120
 1774 0a51 110A0000 		.4byte	0xa11
 1775 0a55 18       		.uleb128 0x18
 1776 0a56 01       		.byte	0x1
 1777 0a57 5E000000 		.4byte	0x5e
 1778 0a5b 10       		.byte	0x10
 1779 0a5c 2501     		.2byte	0x125
 1780 0a5e 870A0000 		.4byte	0xa87
 1781 0a62 19       		.uleb128 0x19
 1782 0a63 6F0B0000 		.4byte	.LASF165
 1783 0a67 00       		.byte	0
 1784 0a68 19       		.uleb128 0x19
 1785 0a69 4C010000 		.4byte	.LASF166
 1786 0a6d 01       		.byte	0x1
 1787 0a6e 19       		.uleb128 0x19
 1788 0a6f A70A0000 		.4byte	.LASF167
 1789 0a73 02       		.byte	0x2
 1790 0a74 19       		.uleb128 0x19
 1791 0a75 310E0000 		.4byte	.LASF168
 1792 0a79 03       		.byte	0x3
 1793 0a7a 19       		.uleb128 0x19
 1794 0a7b 6E060000 		.4byte	.LASF169
 1795 0a7f 04       		.byte	0x4
 1796 0a80 19       		.uleb128 0x19
 1797 0a81 5F020000 		.4byte	.LASF170
 1798 0a85 05       		.byte	0x5
 1799 0a86 00       		.byte	0
 1800 0a87 1A       		.uleb128 0x1a
 1801 0a88 C4040000 		.4byte	.LASF171
 1802 0a8c 10       		.byte	0x10
 1803 0a8d 2C01     		.2byte	0x12c
 1804 0a8f 550A0000 		.4byte	0xa55
 1805 0a93 1B       		.uleb128 0x1b
 1806 0a94 08       		.byte	0x8
 1807 0a95 10       		.byte	0x10
 1808 0a96 3101     		.2byte	0x131
 1809 0a98 B70A0000 		.4byte	0xab7
 1810 0a9c 09       		.uleb128 0x9
 1811 0a9d DD040000 		.4byte	.LASF172
 1812 0aa1 10       		.byte	0x10
ARM GAS  /tmp/ccyJylYd.s 			page 33


 1813 0aa2 3501     		.2byte	0x135
 1814 0aa4 2C000000 		.4byte	0x2c
 1815 0aa8 00       		.byte	0
 1816 0aa9 09       		.uleb128 0x9
 1817 0aaa D6030000 		.4byte	.LASF173
 1818 0aae 10       		.byte	0x10
 1819 0aaf 3901     		.2byte	0x139
 1820 0ab1 B0070000 		.4byte	0x7b0
 1821 0ab5 04       		.byte	0x4
 1822 0ab6 00       		.byte	0
 1823 0ab7 1A       		.uleb128 0x1a
 1824 0ab8 8B040000 		.4byte	.LASF174
 1825 0abc 10       		.byte	0x10
 1826 0abd 3A01     		.2byte	0x13a
 1827 0abf 930A0000 		.4byte	0xa93
 1828 0ac3 1A       		.uleb128 0x1a
 1829 0ac4 D60C0000 		.4byte	.LASF175
 1830 0ac8 10       		.byte	0x10
 1831 0ac9 4201     		.2byte	0x142
 1832 0acb CF0A0000 		.4byte	0xacf
 1833 0acf 0A       		.uleb128 0xa
 1834 0ad0 04       		.byte	0x4
 1835 0ad1 D50A0000 		.4byte	0xad5
 1836 0ad5 0C       		.uleb128 0xc
 1837 0ad6 E00A0000 		.4byte	0xae0
 1838 0ada 0D       		.uleb128 0xd
 1839 0adb E00A0000 		.4byte	0xae0
 1840 0adf 00       		.byte	0
 1841 0ae0 0A       		.uleb128 0xa
 1842 0ae1 04       		.byte	0x4
 1843 0ae2 97080000 		.4byte	0x897
 1844 0ae6 1A       		.uleb128 0x1a
 1845 0ae7 33070000 		.4byte	.LASF176
 1846 0aeb 10       		.byte	0x10
 1847 0aec 4B01     		.2byte	0x14b
 1848 0aee F20A0000 		.4byte	0xaf2
 1849 0af2 0A       		.uleb128 0xa
 1850 0af3 04       		.byte	0x4
 1851 0af4 F80A0000 		.4byte	0xaf8
 1852 0af8 0C       		.uleb128 0xc
 1853 0af9 080B0000 		.4byte	0xb08
 1854 0afd 0D       		.uleb128 0xd
 1855 0afe E00A0000 		.4byte	0xae0
 1856 0b02 0D       		.uleb128 0xd
 1857 0b03 CE090000 		.4byte	0x9ce
 1858 0b07 00       		.byte	0
 1859 0b08 1A       		.uleb128 0x1a
 1860 0b09 FC030000 		.4byte	.LASF177
 1861 0b0d 10       		.byte	0x10
 1862 0b0e 5401     		.2byte	0x154
 1863 0b10 140B0000 		.4byte	0xb14
 1864 0b14 0A       		.uleb128 0xa
 1865 0b15 04       		.byte	0x4
 1866 0b16 1A0B0000 		.4byte	0xb1a
 1867 0b1a 0C       		.uleb128 0xc
 1868 0b1b 2A0B0000 		.4byte	0xb2a
 1869 0b1f 0D       		.uleb128 0xd
ARM GAS  /tmp/ccyJylYd.s 			page 34


 1870 0b20 E00A0000 		.4byte	0xae0
 1871 0b24 0D       		.uleb128 0xd
 1872 0b25 870A0000 		.4byte	0xa87
 1873 0b29 00       		.byte	0
 1874 0b2a 1A       		.uleb128 0x1a
 1875 0b2b BE0C0000 		.4byte	.LASF178
 1876 0b2f 10       		.byte	0x10
 1877 0b30 6001     		.2byte	0x160
 1878 0b32 360B0000 		.4byte	0xb36
 1879 0b36 0A       		.uleb128 0xa
 1880 0b37 04       		.byte	0x4
 1881 0b38 3C0B0000 		.4byte	0xb3c
 1882 0b3c 17       		.uleb128 0x17
 1883 0b3d 90080000 		.4byte	0x890
 1884 0b41 4B0B0000 		.4byte	0xb4b
 1885 0b45 0D       		.uleb128 0xd
 1886 0b46 E00A0000 		.4byte	0xae0
 1887 0b4a 00       		.byte	0
 1888 0b4b 1A       		.uleb128 0x1a
 1889 0b4c DF0A0000 		.4byte	.LASF179
 1890 0b50 10       		.byte	0x10
 1891 0b51 6501     		.2byte	0x165
 1892 0b53 570B0000 		.4byte	0xb57
 1893 0b57 0A       		.uleb128 0xa
 1894 0b58 04       		.byte	0x4
 1895 0b59 5D0B0000 		.4byte	0xb5d
 1896 0b5d 17       		.uleb128 0x17
 1897 0b5e 7B0B0000 		.4byte	0xb7b
 1898 0b62 7B0B0000 		.4byte	0xb7b
 1899 0b66 0D       		.uleb128 0xd
 1900 0b67 E00A0000 		.4byte	0xae0
 1901 0b6b 0D       		.uleb128 0xd
 1902 0b6c B4000000 		.4byte	0xb4
 1903 0b70 0D       		.uleb128 0xd
 1904 0b71 B4000000 		.4byte	0xb4
 1905 0b75 0D       		.uleb128 0xd
 1906 0b76 BF000000 		.4byte	0xbf
 1907 0b7a 00       		.byte	0
 1908 0b7b 0A       		.uleb128 0xa
 1909 0b7c 04       		.byte	0x4
 1910 0b7d 810B0000 		.4byte	0xb81
 1911 0b81 16       		.uleb128 0x16
 1912 0b82 B70A0000 		.4byte	0xab7
 1913 0b86 13       		.uleb128 0x13
 1914 0b87 20       		.byte	0x20
 1915 0b88 12       		.byte	0x12
 1916 0b89 35       		.byte	0x35
 1917 0b8a EF0B0000 		.4byte	0xbef
 1918 0b8e 07       		.uleb128 0x7
 1919 0b8f 64030000 		.4byte	.LASF180
 1920 0b93 12       		.byte	0x12
 1921 0b94 36       		.byte	0x36
 1922 0b95 F0000000 		.4byte	0xf0
 1923 0b99 00       		.byte	0
 1924 0b9a 07       		.uleb128 0x7
 1925 0b9b 63000000 		.4byte	.LASF181
 1926 0b9f 12       		.byte	0x12
ARM GAS  /tmp/ccyJylYd.s 			page 35


 1927 0ba0 38       		.byte	0x38
 1928 0ba1 F0000000 		.4byte	0xf0
 1929 0ba5 04       		.byte	0x4
 1930 0ba6 07       		.uleb128 0x7
 1931 0ba7 9C090000 		.4byte	.LASF182
 1932 0bab 12       		.byte	0x12
 1933 0bac 39       		.byte	0x39
 1934 0bad F0000000 		.4byte	0xf0
 1935 0bb1 08       		.byte	0x8
 1936 0bb2 07       		.uleb128 0x7
 1937 0bb3 070A0000 		.4byte	.LASF183
 1938 0bb7 12       		.byte	0x12
 1939 0bb8 3A       		.byte	0x3a
 1940 0bb9 F0000000 		.4byte	0xf0
 1941 0bbd 0C       		.byte	0xc
 1942 0bbe 07       		.uleb128 0x7
 1943 0bbf 3C040000 		.4byte	.LASF184
 1944 0bc3 12       		.byte	0x12
 1945 0bc4 3C       		.byte	0x3c
 1946 0bc5 F0000000 		.4byte	0xf0
 1947 0bc9 10       		.byte	0x10
 1948 0bca 07       		.uleb128 0x7
 1949 0bcb 7F0B0000 		.4byte	.LASF185
 1950 0bcf 12       		.byte	0x12
 1951 0bd0 3E       		.byte	0x3e
 1952 0bd1 F0000000 		.4byte	0xf0
 1953 0bd5 14       		.byte	0x14
 1954 0bd6 07       		.uleb128 0x7
 1955 0bd7 870B0000 		.4byte	.LASF186
 1956 0bdb 12       		.byte	0x12
 1957 0bdc 3F       		.byte	0x3f
 1958 0bdd F0000000 		.4byte	0xf0
 1959 0be1 18       		.byte	0x18
 1960 0be2 07       		.uleb128 0x7
 1961 0be3 AB0C0000 		.4byte	.LASF187
 1962 0be7 12       		.byte	0x12
 1963 0be8 40       		.byte	0x40
 1964 0be9 F0000000 		.4byte	0xf0
 1965 0bed 1C       		.byte	0x1c
 1966 0bee 00       		.byte	0
 1967 0bef 03       		.uleb128 0x3
 1968 0bf0 09040000 		.4byte	.LASF188
 1969 0bf4 12       		.byte	0x12
 1970 0bf5 41       		.byte	0x41
 1971 0bf6 860B0000 		.4byte	0xb86
 1972 0bfa 13       		.uleb128 0x13
 1973 0bfb 20       		.byte	0x20
 1974 0bfc 12       		.byte	0x12
 1975 0bfd 46       		.byte	0x46
 1976 0bfe 630C0000 		.4byte	0xc63
 1977 0c02 07       		.uleb128 0x7
 1978 0c03 CE0C0000 		.4byte	.LASF189
 1979 0c07 12       		.byte	0x12
 1980 0c08 47       		.byte	0x47
 1981 0c09 F0000000 		.4byte	0xf0
 1982 0c0d 00       		.byte	0
 1983 0c0e 07       		.uleb128 0x7
ARM GAS  /tmp/ccyJylYd.s 			page 36


 1984 0c0f 5C000000 		.4byte	.LASF190
 1985 0c13 12       		.byte	0x12
 1986 0c14 49       		.byte	0x49
 1987 0c15 F0000000 		.4byte	0xf0
 1988 0c19 04       		.byte	0x4
 1989 0c1a 07       		.uleb128 0x7
 1990 0c1b 170D0000 		.4byte	.LASF191
 1991 0c1f 12       		.byte	0x12
 1992 0c20 4A       		.byte	0x4a
 1993 0c21 F0000000 		.4byte	0xf0
 1994 0c25 08       		.byte	0x8
 1995 0c26 07       		.uleb128 0x7
 1996 0c27 73000000 		.4byte	.LASF192
 1997 0c2b 12       		.byte	0x12
 1998 0c2c 4C       		.byte	0x4c
 1999 0c2d F0000000 		.4byte	0xf0
 2000 0c31 0C       		.byte	0xc
 2001 0c32 07       		.uleb128 0x7
 2002 0c33 2C030000 		.4byte	.LASF193
 2003 0c37 12       		.byte	0x12
 2004 0c38 4D       		.byte	0x4d
 2005 0c39 F0000000 		.4byte	0xf0
 2006 0c3d 10       		.byte	0x10
 2007 0c3e 07       		.uleb128 0x7
 2008 0c3f 7F0B0000 		.4byte	.LASF185
 2009 0c43 12       		.byte	0x12
 2010 0c44 4F       		.byte	0x4f
 2011 0c45 F0000000 		.4byte	0xf0
 2012 0c49 14       		.byte	0x14
 2013 0c4a 07       		.uleb128 0x7
 2014 0c4b 8F0B0000 		.4byte	.LASF194
 2015 0c4f 12       		.byte	0x12
 2016 0c50 50       		.byte	0x50
 2017 0c51 F0000000 		.4byte	0xf0
 2018 0c55 18       		.byte	0x18
 2019 0c56 07       		.uleb128 0x7
 2020 0c57 9F0B0000 		.4byte	.LASF195
 2021 0c5b 12       		.byte	0x12
 2022 0c5c 52       		.byte	0x52
 2023 0c5d F0000000 		.4byte	0xf0
 2024 0c61 1C       		.byte	0x1c
 2025 0c62 00       		.byte	0
 2026 0c63 03       		.uleb128 0x3
 2027 0c64 660A0000 		.4byte	.LASF196
 2028 0c68 12       		.byte	0x12
 2029 0c69 53       		.byte	0x53
 2030 0c6a FA0B0000 		.4byte	0xbfa
 2031 0c6e 13       		.uleb128 0x13
 2032 0c6f 20       		.byte	0x20
 2033 0c70 12       		.byte	0x12
 2034 0c71 58       		.byte	0x58
 2035 0c72 D70C0000 		.4byte	0xcd7
 2036 0c76 07       		.uleb128 0x7
 2037 0c77 3C020000 		.4byte	.LASF197
 2038 0c7b 12       		.byte	0x12
 2039 0c7c 59       		.byte	0x59
 2040 0c7d F0000000 		.4byte	0xf0
ARM GAS  /tmp/ccyJylYd.s 			page 37


 2041 0c81 00       		.byte	0
 2042 0c82 07       		.uleb128 0x7
 2043 0c83 5C000000 		.4byte	.LASF190
 2044 0c87 12       		.byte	0x12
 2045 0c88 5B       		.byte	0x5b
 2046 0c89 F0000000 		.4byte	0xf0
 2047 0c8d 04       		.byte	0x4
 2048 0c8e 07       		.uleb128 0x7
 2049 0c8f 8F020000 		.4byte	.LASF198
 2050 0c93 12       		.byte	0x12
 2051 0c94 5C       		.byte	0x5c
 2052 0c95 F0000000 		.4byte	0xf0
 2053 0c99 08       		.byte	0x8
 2054 0c9a 07       		.uleb128 0x7
 2055 0c9b 73000000 		.4byte	.LASF192
 2056 0c9f 12       		.byte	0x12
 2057 0ca0 5E       		.byte	0x5e
 2058 0ca1 F0000000 		.4byte	0xf0
 2059 0ca5 0C       		.byte	0xc
 2060 0ca6 07       		.uleb128 0x7
 2061 0ca7 89070000 		.4byte	.LASF199
 2062 0cab 12       		.byte	0x12
 2063 0cac 5F       		.byte	0x5f
 2064 0cad F0000000 		.4byte	0xf0
 2065 0cb1 10       		.byte	0x10
 2066 0cb2 07       		.uleb128 0x7
 2067 0cb3 7F0B0000 		.4byte	.LASF185
 2068 0cb7 12       		.byte	0x12
 2069 0cb8 61       		.byte	0x61
 2070 0cb9 F0000000 		.4byte	0xf0
 2071 0cbd 14       		.byte	0x14
 2072 0cbe 07       		.uleb128 0x7
 2073 0cbf 870B0000 		.4byte	.LASF186
 2074 0cc3 12       		.byte	0x12
 2075 0cc4 62       		.byte	0x62
 2076 0cc5 F0000000 		.4byte	0xf0
 2077 0cc9 18       		.byte	0x18
 2078 0cca 07       		.uleb128 0x7
 2079 0ccb 9F0B0000 		.4byte	.LASF195
 2080 0ccf 12       		.byte	0x12
 2081 0cd0 63       		.byte	0x63
 2082 0cd1 F0000000 		.4byte	0xf0
 2083 0cd5 1C       		.byte	0x1c
 2084 0cd6 00       		.byte	0
 2085 0cd7 03       		.uleb128 0x3
 2086 0cd8 6B030000 		.4byte	.LASF200
 2087 0cdc 12       		.byte	0x12
 2088 0cdd 64       		.byte	0x64
 2089 0cde 6E0C0000 		.4byte	0xc6e
 2090 0ce2 1C       		.uleb128 0x1c
 2091 0ce3 00100100 		.4byte	0x11000
 2092 0ce7 12       		.byte	0x12
 2093 0ce8 69       		.byte	0x69
 2094 0ce9 BF0F0000 		.4byte	0xfbf
 2095 0ced 07       		.uleb128 0x7
 2096 0cee 47060000 		.4byte	.LASF201
 2097 0cf2 12       		.byte	0x12
ARM GAS  /tmp/ccyJylYd.s 			page 38


 2098 0cf3 6A       		.byte	0x6a
 2099 0cf4 F0000000 		.4byte	0xf0
 2100 0cf8 00       		.byte	0
 2101 0cf9 07       		.uleb128 0x7
 2102 0cfa 9B060000 		.4byte	.LASF202
 2103 0cfe 12       		.byte	0x12
 2104 0cff 6B       		.byte	0x6b
 2105 0d00 F0000000 		.4byte	0xf0
 2106 0d04 04       		.byte	0x4
 2107 0d05 07       		.uleb128 0x7
 2108 0d06 9A050000 		.4byte	.LASF203
 2109 0d0a 12       		.byte	0x12
 2110 0d0b 6C       		.byte	0x6c
 2111 0d0c F0000000 		.4byte	0xf0
 2112 0d10 08       		.byte	0x8
 2113 0d11 07       		.uleb128 0x7
 2114 0d12 C20E0000 		.4byte	.LASF204
 2115 0d16 12       		.byte	0x12
 2116 0d17 6D       		.byte	0x6d
 2117 0d18 F0000000 		.4byte	0xf0
 2118 0d1c 0C       		.byte	0xc
 2119 0d1d 07       		.uleb128 0x7
 2120 0d1e E40C0000 		.4byte	.LASF205
 2121 0d22 12       		.byte	0x12
 2122 0d23 6E       		.byte	0x6e
 2123 0d24 F0000000 		.4byte	0xf0
 2124 0d28 10       		.byte	0x10
 2125 0d29 07       		.uleb128 0x7
 2126 0d2a EC0C0000 		.4byte	.LASF206
 2127 0d2e 12       		.byte	0x12
 2128 0d2f 6F       		.byte	0x6f
 2129 0d30 F0000000 		.4byte	0xf0
 2130 0d34 14       		.byte	0x14
 2131 0d35 07       		.uleb128 0x7
 2132 0d36 82080000 		.4byte	.LASF207
 2133 0d3a 12       		.byte	0x12
 2134 0d3b 70       		.byte	0x70
 2135 0d3c F0000000 		.4byte	0xf0
 2136 0d40 18       		.byte	0x18
 2137 0d41 07       		.uleb128 0x7
 2138 0d42 66060000 		.4byte	.LASF208
 2139 0d46 12       		.byte	0x12
 2140 0d47 71       		.byte	0x71
 2141 0d48 F0000000 		.4byte	0xf0
 2142 0d4c 1C       		.byte	0x1c
 2143 0d4d 07       		.uleb128 0x7
 2144 0d4e 55060000 		.4byte	.LASF209
 2145 0d52 12       		.byte	0x12
 2146 0d53 73       		.byte	0x73
 2147 0d54 F0000000 		.4byte	0xf0
 2148 0d58 20       		.byte	0x20
 2149 0d59 07       		.uleb128 0x7
 2150 0d5a 1B050000 		.4byte	.LASF210
 2151 0d5e 12       		.byte	0x12
 2152 0d5f 75       		.byte	0x75
 2153 0d60 F0000000 		.4byte	0xf0
 2154 0d64 24       		.byte	0x24
ARM GAS  /tmp/ccyJylYd.s 			page 39


 2155 0d65 07       		.uleb128 0x7
 2156 0d66 5E010000 		.4byte	.LASF211
 2157 0d6a 12       		.byte	0x12
 2158 0d6b 76       		.byte	0x76
 2159 0d6c F0000000 		.4byte	0xf0
 2160 0d70 28       		.byte	0x28
 2161 0d71 07       		.uleb128 0x7
 2162 0d72 1F0D0000 		.4byte	.LASF212
 2163 0d76 12       		.byte	0x12
 2164 0d77 78       		.byte	0x78
 2165 0d78 F0000000 		.4byte	0xf0
 2166 0d7c 2C       		.byte	0x2c
 2167 0d7d 07       		.uleb128 0x7
 2168 0d7e 5D0D0000 		.4byte	.LASF213
 2169 0d82 12       		.byte	0x12
 2170 0d83 7A       		.byte	0x7a
 2171 0d84 F0000000 		.4byte	0xf0
 2172 0d88 30       		.byte	0x30
 2173 0d89 07       		.uleb128 0x7
 2174 0d8a 6F0D0000 		.4byte	.LASF214
 2175 0d8e 12       		.byte	0x12
 2176 0d8f 7B       		.byte	0x7b
 2177 0d90 F0000000 		.4byte	0xf0
 2178 0d94 34       		.byte	0x34
 2179 0d95 07       		.uleb128 0x7
 2180 0d96 0E030000 		.4byte	.LASF215
 2181 0d9a 12       		.byte	0x12
 2182 0d9b 7C       		.byte	0x7c
 2183 0d9c F0000000 		.4byte	0xf0
 2184 0da0 38       		.byte	0x38
 2185 0da1 12       		.uleb128 0x12
 2186 0da2 43494400 		.ascii	"CID\000"
 2187 0da6 12       		.byte	0x12
 2188 0da7 7D       		.byte	0x7d
 2189 0da8 F0000000 		.4byte	0xf0
 2190 0dac 3C       		.byte	0x3c
 2191 0dad 07       		.uleb128 0x7
 2192 0dae 6F0E0000 		.4byte	.LASF216
 2193 0db2 12       		.byte	0x12
 2194 0db3 7E       		.byte	0x7e
 2195 0db4 CF0F0000 		.4byte	0xfcf
 2196 0db8 40       		.byte	0x40
 2197 0db9 1D       		.uleb128 0x1d
 2198 0dba 82090000 		.4byte	.LASF217
 2199 0dbe 12       		.byte	0x12
 2200 0dbf 7F       		.byte	0x7f
 2201 0dc0 F0000000 		.4byte	0xf0
 2202 0dc4 0001     		.2byte	0x100
 2203 0dc6 1D       		.uleb128 0x1d
 2204 0dc7 49050000 		.4byte	.LASF218
 2205 0dcb 12       		.byte	0x12
 2206 0dcc 81       		.byte	0x81
 2207 0dcd D40F0000 		.4byte	0xfd4
 2208 0dd1 0401     		.2byte	0x104
 2209 0dd3 1D       		.uleb128 0x1d
 2210 0dd4 E20E0000 		.4byte	.LASF219
 2211 0dd8 12       		.byte	0x12
ARM GAS  /tmp/ccyJylYd.s 			page 40


 2212 0dd9 83       		.byte	0x83
 2213 0dda E90F0000 		.4byte	0xfe9
 2214 0dde 4001     		.2byte	0x140
 2215 0de0 1D       		.uleb128 0x1d
 2216 0de1 5F030000 		.4byte	.LASF220
 2217 0de5 12       		.byte	0x12
 2218 0de6 84       		.byte	0x84
 2219 0de7 F0000000 		.4byte	0xf0
 2220 0deb 0004     		.2byte	0x400
 2221 0ded 1D       		.uleb128 0x1d
 2222 0dee 8B0E0000 		.4byte	.LASF221
 2223 0df2 12       		.byte	0x12
 2224 0df3 85       		.byte	0x85
 2225 0df4 F0000000 		.4byte	0xf0
 2226 0df8 0404     		.2byte	0x404
 2227 0dfa 1D       		.uleb128 0x1d
 2228 0dfb F6030000 		.4byte	.LASF222
 2229 0dff 12       		.byte	0x12
 2230 0e00 86       		.byte	0x86
 2231 0e01 F0000000 		.4byte	0xf0
 2232 0e05 0804     		.2byte	0x408
 2233 0e07 1D       		.uleb128 0x1d
 2234 0e08 3E060000 		.4byte	.LASF223
 2235 0e0c 12       		.byte	0x12
 2236 0e0d 88       		.byte	0x88
 2237 0e0e F0000000 		.4byte	0xf0
 2238 0e12 0C04     		.2byte	0x40c
 2239 0e14 1D       		.uleb128 0x1d
 2240 0e15 670E0000 		.4byte	.LASF224
 2241 0e19 12       		.byte	0x12
 2242 0e1a 89       		.byte	0x89
 2243 0e1b F0000000 		.4byte	0xf0
 2244 0e1f 1004     		.2byte	0x410
 2245 0e21 1D       		.uleb128 0x1d
 2246 0e22 A6070000 		.4byte	.LASF225
 2247 0e26 12       		.byte	0x12
 2248 0e27 8B       		.byte	0x8b
 2249 0e28 F0000000 		.4byte	0xf0
 2250 0e2c 1404     		.2byte	0x414
 2251 0e2e 1D       		.uleb128 0x1d
 2252 0e2f 65080000 		.4byte	.LASF226
 2253 0e33 12       		.byte	0x12
 2254 0e34 8D       		.byte	0x8d
 2255 0e35 F0000000 		.4byte	0xf0
 2256 0e39 1804     		.2byte	0x418
 2257 0e3b 1D       		.uleb128 0x1d
 2258 0e3c EA060000 		.4byte	.LASF227
 2259 0e40 12       		.byte	0x12
 2260 0e41 8F       		.byte	0x8f
 2261 0e42 FE0F0000 		.4byte	0xffe
 2262 0e46 1C04     		.2byte	0x41c
 2263 0e48 1D       		.uleb128 0x1d
 2264 0e49 91030000 		.4byte	.LASF228
 2265 0e4d 12       		.byte	0x12
 2266 0e4e 90       		.byte	0x90
 2267 0e4f F0000000 		.4byte	0xf0
 2268 0e53 4004     		.2byte	0x440
ARM GAS  /tmp/ccyJylYd.s 			page 41


 2269 0e55 1D       		.uleb128 0x1d
 2270 0e56 3E080000 		.4byte	.LASF229
 2271 0e5a 12       		.byte	0x12
 2272 0e5b 92       		.byte	0x92
 2273 0e5c 13100000 		.4byte	0x1013
 2274 0e60 4404     		.2byte	0x444
 2275 0e62 1E       		.uleb128 0x1e
 2276 0e63 686300   		.ascii	"hc\000"
 2277 0e66 12       		.byte	0x12
 2278 0e67 93       		.byte	0x93
 2279 0e68 18100000 		.4byte	0x1018
 2280 0e6c 0005     		.2byte	0x500
 2281 0e6e 1D       		.uleb128 0x1d
 2282 0e6f 9C000000 		.4byte	.LASF230
 2283 0e73 12       		.byte	0x12
 2284 0e74 94       		.byte	0x94
 2285 0e75 38100000 		.4byte	0x1038
 2286 0e79 0007     		.2byte	0x700
 2287 0e7b 1D       		.uleb128 0x1d
 2288 0e7c F8020000 		.4byte	.LASF231
 2289 0e80 12       		.byte	0x12
 2290 0e81 95       		.byte	0x95
 2291 0e82 F0000000 		.4byte	0xf0
 2292 0e86 0008     		.2byte	0x800
 2293 0e88 1D       		.uleb128 0x1d
 2294 0e89 AF090000 		.4byte	.LASF232
 2295 0e8d 12       		.byte	0x12
 2296 0e8e 96       		.byte	0x96
 2297 0e8f F0000000 		.4byte	0xf0
 2298 0e93 0408     		.2byte	0x804
 2299 0e95 1D       		.uleb128 0x1d
 2300 0e96 FC0D0000 		.4byte	.LASF233
 2301 0e9a 12       		.byte	0x12
 2302 0e9b 97       		.byte	0x97
 2303 0e9c F0000000 		.4byte	0xf0
 2304 0ea0 0808     		.2byte	0x808
 2305 0ea2 1D       		.uleb128 0x1d
 2306 0ea3 88030000 		.4byte	.LASF234
 2307 0ea7 12       		.byte	0x12
 2308 0ea8 98       		.byte	0x98
 2309 0ea9 F0000000 		.4byte	0xf0
 2310 0ead 0C08     		.2byte	0x80c
 2311 0eaf 1D       		.uleb128 0x1d
 2312 0eb0 A70B0000 		.4byte	.LASF235
 2313 0eb4 12       		.byte	0x12
 2314 0eb5 99       		.byte	0x99
 2315 0eb6 F0000000 		.4byte	0xf0
 2316 0eba 1008     		.2byte	0x810
 2317 0ebc 1D       		.uleb128 0x1d
 2318 0ebd 1B020000 		.4byte	.LASF236
 2319 0ec1 12       		.byte	0x12
 2320 0ec2 9B       		.byte	0x9b
 2321 0ec3 F0000000 		.4byte	0xf0
 2322 0ec7 1408     		.2byte	0x814
 2323 0ec9 1D       		.uleb128 0x1d
 2324 0eca FF010000 		.4byte	.LASF237
 2325 0ece 12       		.byte	0x12
ARM GAS  /tmp/ccyJylYd.s 			page 42


 2326 0ecf 9D       		.byte	0x9d
 2327 0ed0 F0000000 		.4byte	0xf0
 2328 0ed4 1808     		.2byte	0x818
 2329 0ed6 1D       		.uleb128 0x1d
 2330 0ed7 540A0000 		.4byte	.LASF238
 2331 0edb 12       		.byte	0x12
 2332 0edc 9F       		.byte	0x9f
 2333 0edd F0000000 		.4byte	0xf0
 2334 0ee1 1C08     		.2byte	0x81c
 2335 0ee3 1D       		.uleb128 0x1d
 2336 0ee4 56040000 		.4byte	.LASF239
 2337 0ee8 12       		.byte	0x12
 2338 0ee9 A1       		.byte	0xa1
 2339 0eea F0000000 		.4byte	0xf0
 2340 0eee 2008     		.2byte	0x820
 2341 0ef0 1D       		.uleb128 0x1d
 2342 0ef1 5F040000 		.4byte	.LASF240
 2343 0ef5 12       		.byte	0x12
 2344 0ef6 A2       		.byte	0xa2
 2345 0ef7 F0000000 		.4byte	0xf0
 2346 0efb 2408     		.2byte	0x824
 2347 0efd 1D       		.uleb128 0x1d
 2348 0efe 5D0A0000 		.4byte	.LASF241
 2349 0f02 12       		.byte	0x12
 2350 0f03 A3       		.byte	0xa3
 2351 0f04 F0000000 		.4byte	0xf0
 2352 0f08 2808     		.2byte	0x828
 2353 0f0a 1D       		.uleb128 0x1d
 2354 0f0b 68040000 		.4byte	.LASF242
 2355 0f0f 12       		.byte	0x12
 2356 0f10 A5       		.byte	0xa5
 2357 0f11 F0000000 		.4byte	0xf0
 2358 0f15 2C08     		.2byte	0x82c
 2359 0f17 1D       		.uleb128 0x1d
 2360 0f18 12070000 		.4byte	.LASF243
 2361 0f1c 12       		.byte	0x12
 2362 0f1d A7       		.byte	0xa7
 2363 0f1e F0000000 		.4byte	0xf0
 2364 0f22 3008     		.2byte	0x830
 2365 0f24 1D       		.uleb128 0x1d
 2366 0f25 A00C0000 		.4byte	.LASF244
 2367 0f29 12       		.byte	0x12
 2368 0f2a A8       		.byte	0xa8
 2369 0f2b F0000000 		.4byte	0xf0
 2370 0f2f 3408     		.2byte	0x834
 2371 0f31 1D       		.uleb128 0x1d
 2372 0f32 2A070000 		.4byte	.LASF245
 2373 0f36 12       		.byte	0x12
 2374 0f37 AA       		.byte	0xaa
 2375 0f38 F0000000 		.4byte	0xf0
 2376 0f3c 3808     		.2byte	0x838
 2377 0f3e 1D       		.uleb128 0x1d
 2378 0f3f 59070000 		.4byte	.LASF246
 2379 0f43 12       		.byte	0x12
 2380 0f44 AB       		.byte	0xab
 2381 0f45 F0000000 		.4byte	0xf0
 2382 0f49 3C08     		.2byte	0x83c
ARM GAS  /tmp/ccyJylYd.s 			page 43


 2383 0f4b 1D       		.uleb128 0x1d
 2384 0f4c 35050000 		.4byte	.LASF247
 2385 0f50 12       		.byte	0x12
 2386 0f51 AC       		.byte	0xac
 2387 0f52 4D100000 		.4byte	0x104d
 2388 0f56 4008     		.2byte	0x840
 2389 0f58 1D       		.uleb128 0x1d
 2390 0f59 43070000 		.4byte	.LASF248
 2391 0f5d 12       		.byte	0x12
 2392 0f5e AD       		.byte	0xad
 2393 0f5f 52100000 		.4byte	0x1052
 2394 0f63 8008     		.2byte	0x880
 2395 0f65 1D       		.uleb128 0x1d
 2396 0f66 FD020000 		.4byte	.LASF249
 2397 0f6a 12       		.byte	0x12
 2398 0f6b AE       		.byte	0xae
 2399 0f6c 57100000 		.4byte	0x1057
 2400 0f70 C008     		.2byte	0x8c0
 2401 0f72 1E       		.uleb128 0x1e
 2402 0f73 696500   		.ascii	"ie\000"
 2403 0f76 12       		.byte	0x12
 2404 0f77 AF       		.byte	0xaf
 2405 0f78 5C100000 		.4byte	0x105c
 2406 0f7c 0009     		.2byte	0x900
 2407 0f7e 1E       		.uleb128 0x1e
 2408 0f7f 6F6500   		.ascii	"oe\000"
 2409 0f82 12       		.byte	0x12
 2410 0f83 B0       		.byte	0xb0
 2411 0f84 6C100000 		.4byte	0x106c
 2412 0f88 000B     		.2byte	0xb00
 2413 0f8a 1D       		.uleb128 0x1d
 2414 0f8b 62090000 		.4byte	.LASF250
 2415 0f8f 12       		.byte	0x12
 2416 0f90 B1       		.byte	0xb1
 2417 0f91 7C100000 		.4byte	0x107c
 2418 0f95 000D     		.2byte	0xd00
 2419 0f97 1D       		.uleb128 0x1d
 2420 0f98 7F060000 		.4byte	.LASF251
 2421 0f9c 12       		.byte	0x12
 2422 0f9d B2       		.byte	0xb2
 2423 0f9e F0000000 		.4byte	0xf0
 2424 0fa2 000E     		.2byte	0xe00
 2425 0fa4 1D       		.uleb128 0x1d
 2426 0fa5 540D0000 		.4byte	.LASF252
 2427 0fa9 12       		.byte	0x12
 2428 0faa B4       		.byte	0xb4
 2429 0fab 91100000 		.4byte	0x1091
 2430 0faf 040E     		.2byte	0xe04
 2431 0fb1 1D       		.uleb128 0x1d
 2432 0fb2 BC0A0000 		.4byte	.LASF253
 2433 0fb6 12       		.byte	0x12
 2434 0fb7 B5       		.byte	0xb5
 2435 0fb8 AD100000 		.4byte	0x10ad
 2436 0fbc 0010     		.2byte	0x1000
 2437 0fbe 00       		.byte	0
 2438 0fbf 10       		.uleb128 0x10
 2439 0fc0 F0000000 		.4byte	0xf0
ARM GAS  /tmp/ccyJylYd.s 			page 44


 2440 0fc4 CF0F0000 		.4byte	0xfcf
 2441 0fc8 11       		.uleb128 0x11
 2442 0fc9 79040000 		.4byte	0x479
 2443 0fcd 2F       		.byte	0x2f
 2444 0fce 00       		.byte	0
 2445 0fcf 05       		.uleb128 0x5
 2446 0fd0 BF0F0000 		.4byte	0xfbf
 2447 0fd4 05       		.uleb128 0x5
 2448 0fd5 80040000 		.4byte	0x480
 2449 0fd9 10       		.uleb128 0x10
 2450 0fda F0000000 		.4byte	0xf0
 2451 0fde E90F0000 		.4byte	0xfe9
 2452 0fe2 11       		.uleb128 0x11
 2453 0fe3 79040000 		.4byte	0x479
 2454 0fe7 AF       		.byte	0xaf
 2455 0fe8 00       		.byte	0
 2456 0fe9 05       		.uleb128 0x5
 2457 0fea D90F0000 		.4byte	0xfd9
 2458 0fee 10       		.uleb128 0x10
 2459 0fef F0000000 		.4byte	0xf0
 2460 0ff3 FE0F0000 		.4byte	0xffe
 2461 0ff7 11       		.uleb128 0x11
 2462 0ff8 79040000 		.4byte	0x479
 2463 0ffc 08       		.byte	0x8
 2464 0ffd 00       		.byte	0
 2465 0ffe 05       		.uleb128 0x5
 2466 0fff EE0F0000 		.4byte	0xfee
 2467 1003 10       		.uleb128 0x10
 2468 1004 F0000000 		.4byte	0xf0
 2469 1008 13100000 		.4byte	0x1013
 2470 100c 11       		.uleb128 0x11
 2471 100d 79040000 		.4byte	0x479
 2472 1011 2E       		.byte	0x2e
 2473 1012 00       		.byte	0
 2474 1013 05       		.uleb128 0x5
 2475 1014 03100000 		.4byte	0x1003
 2476 1018 10       		.uleb128 0x10
 2477 1019 EF0B0000 		.4byte	0xbef
 2478 101d 28100000 		.4byte	0x1028
 2479 1021 11       		.uleb128 0x11
 2480 1022 79040000 		.4byte	0x479
 2481 1026 0F       		.byte	0xf
 2482 1027 00       		.byte	0
 2483 1028 10       		.uleb128 0x10
 2484 1029 F0000000 		.4byte	0xf0
 2485 102d 38100000 		.4byte	0x1038
 2486 1031 11       		.uleb128 0x11
 2487 1032 79040000 		.4byte	0x479
 2488 1036 3F       		.byte	0x3f
 2489 1037 00       		.byte	0
 2490 1038 05       		.uleb128 0x5
 2491 1039 28100000 		.4byte	0x1028
 2492 103d 10       		.uleb128 0x10
 2493 103e F0000000 		.4byte	0xf0
 2494 1042 4D100000 		.4byte	0x104d
 2495 1046 11       		.uleb128 0x11
 2496 1047 79040000 		.4byte	0x479
ARM GAS  /tmp/ccyJylYd.s 			page 45


 2497 104b 0F       		.byte	0xf
 2498 104c 00       		.byte	0
 2499 104d 05       		.uleb128 0x5
 2500 104e 3D100000 		.4byte	0x103d
 2501 1052 05       		.uleb128 0x5
 2502 1053 3D100000 		.4byte	0x103d
 2503 1057 05       		.uleb128 0x5
 2504 1058 3D100000 		.4byte	0x103d
 2505 105c 10       		.uleb128 0x10
 2506 105d 630C0000 		.4byte	0xc63
 2507 1061 6C100000 		.4byte	0x106c
 2508 1065 11       		.uleb128 0x11
 2509 1066 79040000 		.4byte	0x479
 2510 106a 0F       		.byte	0xf
 2511 106b 00       		.byte	0
 2512 106c 10       		.uleb128 0x10
 2513 106d D70C0000 		.4byte	0xcd7
 2514 1071 7C100000 		.4byte	0x107c
 2515 1075 11       		.uleb128 0x11
 2516 1076 79040000 		.4byte	0x479
 2517 107a 0F       		.byte	0xf
 2518 107b 00       		.byte	0
 2519 107c 05       		.uleb128 0x5
 2520 107d 28100000 		.4byte	0x1028
 2521 1081 10       		.uleb128 0x10
 2522 1082 F0000000 		.4byte	0xf0
 2523 1086 91100000 		.4byte	0x1091
 2524 108a 11       		.uleb128 0x11
 2525 108b 79040000 		.4byte	0x479
 2526 108f 7E       		.byte	0x7e
 2527 1090 00       		.byte	0
 2528 1091 05       		.uleb128 0x5
 2529 1092 81100000 		.4byte	0x1081
 2530 1096 10       		.uleb128 0x10
 2531 1097 F0000000 		.4byte	0xf0
 2532 109b AD100000 		.4byte	0x10ad
 2533 109f 11       		.uleb128 0x11
 2534 10a0 79040000 		.4byte	0x479
 2535 10a4 0F       		.byte	0xf
 2536 10a5 1F       		.uleb128 0x1f
 2537 10a6 79040000 		.4byte	0x479
 2538 10aa FF03     		.2byte	0x3ff
 2539 10ac 00       		.byte	0
 2540 10ad 05       		.uleb128 0x5
 2541 10ae 96100000 		.4byte	0x1096
 2542 10b2 03       		.uleb128 0x3
 2543 10b3 0D080000 		.4byte	.LASF254
 2544 10b7 12       		.byte	0x12
 2545 10b8 B6       		.byte	0xb6
 2546 10b9 E20C0000 		.4byte	0xce2
 2547 10bd 13       		.uleb128 0x13
 2548 10be 0C       		.byte	0xc
 2549 10bf 11       		.byte	0x11
 2550 10c0 C6       		.byte	0xc6
 2551 10c1 EA100000 		.4byte	0x10ea
 2552 10c5 07       		.uleb128 0x7
 2553 10c6 460B0000 		.4byte	.LASF255
ARM GAS  /tmp/ccyJylYd.s 			page 46


 2554 10ca 11       		.byte	0x11
 2555 10cb C7       		.byte	0xc7
 2556 10cc D5000000 		.4byte	0xd5
 2557 10d0 00       		.byte	0
 2558 10d1 07       		.uleb128 0x7
 2559 10d2 860A0000 		.4byte	.LASF256
 2560 10d6 11       		.byte	0x11
 2561 10d7 C8       		.byte	0xc8
 2562 10d8 D5000000 		.4byte	0xd5
 2563 10dc 04       		.byte	0x4
 2564 10dd 07       		.uleb128 0x7
 2565 10de D3050000 		.4byte	.LASF257
 2566 10e2 11       		.byte	0x11
 2567 10e3 C9       		.byte	0xc9
 2568 10e4 D5000000 		.4byte	0xd5
 2569 10e8 08       		.byte	0x8
 2570 10e9 00       		.byte	0
 2571 10ea 03       		.uleb128 0x3
 2572 10eb 99040000 		.4byte	.LASF258
 2573 10ef 11       		.byte	0x11
 2574 10f0 CA       		.byte	0xca
 2575 10f1 BD100000 		.4byte	0x10bd
 2576 10f5 13       		.uleb128 0x13
 2577 10f6 04       		.byte	0x4
 2578 10f7 11       		.byte	0x11
 2579 10f8 DD       		.byte	0xdd
 2580 10f9 0A110000 		.4byte	0x110a
 2581 10fd 07       		.uleb128 0x7
 2582 10fe F0010000 		.4byte	.LASF259
 2583 1102 11       		.byte	0x11
 2584 1103 E1       		.byte	0xe1
 2585 1104 B0070000 		.4byte	0x7b0
 2586 1108 00       		.byte	0
 2587 1109 00       		.byte	0
 2588 110a 13       		.uleb128 0x13
 2589 110b 04       		.byte	0x4
 2590 110c 11       		.byte	0x11
 2591 110d E3       		.byte	0xe3
 2592 110e 1F110000 		.4byte	0x111f
 2593 1112 07       		.uleb128 0x7
 2594 1113 970B0000 		.4byte	.LASF260
 2595 1117 11       		.byte	0x11
 2596 1118 E7       		.byte	0xe7
 2597 1119 1F110000 		.4byte	0x111f
 2598 111d 00       		.byte	0
 2599 111e 00       		.byte	0
 2600 111f 0A       		.uleb128 0xa
 2601 1120 04       		.byte	0x4
 2602 1121 8C070000 		.4byte	0x78c
 2603 1125 14       		.uleb128 0x14
 2604 1126 04       		.byte	0x4
 2605 1127 11       		.byte	0x11
 2606 1128 DC       		.byte	0xdc
 2607 1129 44110000 		.4byte	0x1144
 2608 112d 20       		.uleb128 0x20
 2609 112e A2090000 		.4byte	.LASF261
 2610 1132 11       		.byte	0x11
ARM GAS  /tmp/ccyJylYd.s 			page 47


 2611 1133 E2       		.byte	0xe2
 2612 1134 F5100000 		.4byte	0x10f5
 2613 1138 20       		.uleb128 0x20
 2614 1139 3B0A0000 		.4byte	.LASF262
 2615 113d 11       		.byte	0x11
 2616 113e E8       		.byte	0xe8
 2617 113f 0A110000 		.4byte	0x110a
 2618 1143 00       		.byte	0
 2619 1144 13       		.uleb128 0x13
 2620 1145 14       		.byte	0x14
 2621 1146 11       		.byte	0x11
 2622 1147 CF       		.byte	0xcf
 2623 1148 89110000 		.4byte	0x1189
 2624 114c 07       		.uleb128 0x7
 2625 114d B90E0000 		.4byte	.LASF263
 2626 1151 11       		.byte	0x11
 2627 1152 D3       		.byte	0xd3
 2628 1153 90080000 		.4byte	0x890
 2629 1157 00       		.byte	0
 2630 1158 07       		.uleb128 0x7
 2631 1159 06060000 		.4byte	.LASF264
 2632 115d 11       		.byte	0x11
 2633 115e D7       		.byte	0xd7
 2634 115f 2C000000 		.4byte	0x2c
 2635 1163 04       		.byte	0x4
 2636 1164 07       		.uleb128 0x7
 2637 1165 A8010000 		.4byte	.LASF265
 2638 1169 11       		.byte	0x11
 2639 116a DB       		.byte	0xdb
 2640 116b 2C000000 		.4byte	0x2c
 2641 116f 08       		.byte	0x8
 2642 1170 07       		.uleb128 0x7
 2643 1171 5C0B0000 		.4byte	.LASF266
 2644 1175 11       		.byte	0x11
 2645 1176 E9       		.byte	0xe9
 2646 1177 25110000 		.4byte	0x1125
 2647 117b 0C       		.byte	0xc
 2648 117c 07       		.uleb128 0x7
 2649 117d 13050000 		.4byte	.LASF267
 2650 1181 11       		.byte	0x11
 2651 1182 ED       		.byte	0xed
 2652 1183 2C000000 		.4byte	0x2c
 2653 1187 10       		.byte	0x10
 2654 1188 00       		.byte	0
 2655 1189 03       		.uleb128 0x3
 2656 118a 43040000 		.4byte	.LASF268
 2657 118e 11       		.byte	0x11
 2658 118f EE       		.byte	0xee
 2659 1190 44110000 		.4byte	0x1144
 2660 1194 1B       		.uleb128 0x1b
 2661 1195 04       		.byte	0x4
 2662 1196 11       		.byte	0x11
 2663 1197 0101     		.2byte	0x101
 2664 1199 AB110000 		.4byte	0x11ab
 2665 119d 09       		.uleb128 0x9
 2666 119e 4F060000 		.4byte	.LASF269
 2667 11a2 11       		.byte	0x11
ARM GAS  /tmp/ccyJylYd.s 			page 48


 2668 11a3 0501     		.2byte	0x105
 2669 11a5 7B070000 		.4byte	0x77b
 2670 11a9 00       		.byte	0
 2671 11aa 00       		.byte	0
 2672 11ab 1B       		.uleb128 0x1b
 2673 11ac 04       		.byte	0x4
 2674 11ad 11       		.byte	0x11
 2675 11ae 0701     		.2byte	0x107
 2676 11b0 C2110000 		.4byte	0x11c2
 2677 11b4 09       		.uleb128 0x9
 2678 11b5 410A0000 		.4byte	.LASF270
 2679 11b9 11       		.byte	0x11
 2680 11ba 0B01     		.2byte	0x10b
 2681 11bc C2110000 		.4byte	0x11c2
 2682 11c0 00       		.byte	0
 2683 11c1 00       		.byte	0
 2684 11c2 0A       		.uleb128 0xa
 2685 11c3 04       		.byte	0x4
 2686 11c4 81070000 		.4byte	0x781
 2687 11c8 21       		.uleb128 0x21
 2688 11c9 04       		.byte	0x4
 2689 11ca 11       		.byte	0x11
 2690 11cb 0001     		.2byte	0x100
 2691 11cd EA110000 		.4byte	0x11ea
 2692 11d1 15       		.uleb128 0x15
 2693 11d2 A2090000 		.4byte	.LASF261
 2694 11d6 11       		.byte	0x11
 2695 11d7 0601     		.2byte	0x106
 2696 11d9 94110000 		.4byte	0x1194
 2697 11dd 15       		.uleb128 0x15
 2698 11de 3B0A0000 		.4byte	.LASF262
 2699 11e2 11       		.byte	0x11
 2700 11e3 0C01     		.2byte	0x10c
 2701 11e5 AB110000 		.4byte	0x11ab
 2702 11e9 00       		.byte	0
 2703 11ea 13       		.uleb128 0x13
 2704 11eb 14       		.byte	0x14
 2705 11ec 11       		.byte	0x11
 2706 11ed F3       		.byte	0xf3
 2707 11ee 31120000 		.4byte	0x1231
 2708 11f2 07       		.uleb128 0x7
 2709 11f3 100A0000 		.4byte	.LASF271
 2710 11f7 11       		.byte	0x11
 2711 11f8 F7       		.byte	0xf7
 2712 11f9 90080000 		.4byte	0x890
 2713 11fd 00       		.byte	0
 2714 11fe 07       		.uleb128 0x7
 2715 11ff AB020000 		.4byte	.LASF272
 2716 1203 11       		.byte	0x11
 2717 1204 FB       		.byte	0xfb
 2718 1205 2C000000 		.4byte	0x2c
 2719 1209 04       		.byte	0x4
 2720 120a 07       		.uleb128 0x7
 2721 120b 1D060000 		.4byte	.LASF273
 2722 120f 11       		.byte	0x11
 2723 1210 FF       		.byte	0xff
 2724 1211 2C000000 		.4byte	0x2c
ARM GAS  /tmp/ccyJylYd.s 			page 49


 2725 1215 08       		.byte	0x8
 2726 1216 09       		.uleb128 0x9
 2727 1217 5C0B0000 		.4byte	.LASF266
 2728 121b 11       		.byte	0x11
 2729 121c 0D01     		.2byte	0x10d
 2730 121e C8110000 		.4byte	0x11c8
 2731 1222 0C       		.byte	0xc
 2732 1223 09       		.uleb128 0x9
 2733 1224 13050000 		.4byte	.LASF267
 2734 1228 11       		.byte	0x11
 2735 1229 1101     		.2byte	0x111
 2736 122b 2C000000 		.4byte	0x2c
 2737 122f 10       		.byte	0x10
 2738 1230 00       		.byte	0
 2739 1231 1A       		.uleb128 0x1a
 2740 1232 4E090000 		.4byte	.LASF274
 2741 1236 11       		.byte	0x11
 2742 1237 1201     		.2byte	0x112
 2743 1239 EA110000 		.4byte	0x11ea
 2744 123d 1B       		.uleb128 0x1b
 2745 123e 24       		.byte	0x24
 2746 123f 11       		.byte	0x11
 2747 1240 1801     		.2byte	0x118
 2748 1242 C9120000 		.4byte	0x12c9
 2749 1246 09       		.uleb128 0x9
 2750 1247 BB000000 		.4byte	.LASF275
 2751 124b 11       		.byte	0x11
 2752 124c 1C01     		.2byte	0x11c
 2753 124e D5000000 		.4byte	0xd5
 2754 1252 00       		.byte	0
 2755 1253 09       		.uleb128 0x9
 2756 1254 CD030000 		.4byte	.LASF276
 2757 1258 11       		.byte	0x11
 2758 1259 2701     		.2byte	0x127
 2759 125b E60A0000 		.4byte	0xae6
 2760 125f 04       		.byte	0x4
 2761 1260 09       		.uleb128 0x9
 2762 1261 E0030000 		.4byte	.LASF277
 2763 1265 11       		.byte	0x11
 2764 1266 2D01     		.2byte	0x12d
 2765 1268 E60A0000 		.4byte	0xae6
 2766 126c 08       		.byte	0x8
 2767 126d 09       		.uleb128 0x9
 2768 126e 47080000 		.4byte	.LASF278
 2769 1272 11       		.byte	0x11
 2770 1273 3301     		.2byte	0x133
 2771 1275 E60A0000 		.4byte	0xae6
 2772 1279 0C       		.byte	0xc
 2773 127a 09       		.uleb128 0x9
 2774 127b 77080000 		.4byte	.LASF279
 2775 127f 11       		.byte	0x11
 2776 1280 3901     		.2byte	0x139
 2777 1282 BF000000 		.4byte	0xbf
 2778 1286 10       		.byte	0x10
 2779 1287 09       		.uleb128 0x9
 2780 1288 930A0000 		.4byte	.LASF280
 2781 128c 11       		.byte	0x11
ARM GAS  /tmp/ccyJylYd.s 			page 50


 2782 128d 3F01     		.2byte	0x13f
 2783 128f BF000000 		.4byte	0xbf
 2784 1293 12       		.byte	0x12
 2785 1294 09       		.uleb128 0x9
 2786 1295 5D060000 		.4byte	.LASF281
 2787 1299 11       		.byte	0x11
 2788 129a 4401     		.2byte	0x144
 2789 129c C9120000 		.4byte	0x12c9
 2790 12a0 14       		.byte	0x14
 2791 12a1 09       		.uleb128 0x9
 2792 12a2 97080000 		.4byte	.LASF282
 2793 12a6 11       		.byte	0x11
 2794 12a7 4901     		.2byte	0x149
 2795 12a9 CF120000 		.4byte	0x12cf
 2796 12ad 18       		.byte	0x18
 2797 12ae 09       		.uleb128 0x9
 2798 12af B8050000 		.4byte	.LASF283
 2799 12b3 11       		.byte	0x11
 2800 12b4 5001     		.2byte	0x150
 2801 12b6 BF000000 		.4byte	0xbf
 2802 12ba 1C       		.byte	0x1c
 2803 12bb 09       		.uleb128 0x9
 2804 12bc 20080000 		.4byte	.LASF284
 2805 12c0 11       		.byte	0x11
 2806 12c1 5601     		.2byte	0x156
 2807 12c3 7B070000 		.4byte	0x77b
 2808 12c7 20       		.byte	0x20
 2809 12c8 00       		.byte	0
 2810 12c9 0A       		.uleb128 0xa
 2811 12ca 04       		.byte	0x4
 2812 12cb 89110000 		.4byte	0x1189
 2813 12cf 0A       		.uleb128 0xa
 2814 12d0 04       		.byte	0x4
 2815 12d1 31120000 		.4byte	0x1231
 2816 12d5 1A       		.uleb128 0x1a
 2817 12d6 C5090000 		.4byte	.LASF285
 2818 12da 11       		.byte	0x11
 2819 12db 5701     		.2byte	0x157
 2820 12dd 3D120000 		.4byte	0x123d
 2821 12e1 1B       		.uleb128 0x1b
 2822 12e2 10       		.byte	0x10
 2823 12e3 11       		.byte	0x11
 2824 12e4 5C01     		.2byte	0x15c
 2825 12e6 1F130000 		.4byte	0x131f
 2826 12ea 09       		.uleb128 0x9
 2827 12eb 92060000 		.4byte	.LASF286
 2828 12ef 11       		.byte	0x11
 2829 12f0 6101     		.2byte	0x161
 2830 12f2 080B0000 		.4byte	0xb08
 2831 12f6 00       		.byte	0
 2832 12f7 09       		.uleb128 0x9
 2833 12f8 010E0000 		.4byte	.LASF287
 2834 12fc 11       		.byte	0x11
 2835 12fd 6601     		.2byte	0x166
 2836 12ff 4B0B0000 		.4byte	0xb4b
 2837 1303 04       		.byte	0x4
 2838 1304 09       		.uleb128 0x9
ARM GAS  /tmp/ccyJylYd.s 			page 51


 2839 1305 35030000 		.4byte	.LASF288
 2840 1309 11       		.byte	0x11
 2841 130a 6C01     		.2byte	0x16c
 2842 130c 2A0B0000 		.4byte	0xb2a
 2843 1310 08       		.byte	0x8
 2844 1311 09       		.uleb128 0x9
 2845 1312 4D0D0000 		.4byte	.LASF289
 2846 1316 11       		.byte	0x11
 2847 1317 7001     		.2byte	0x170
 2848 1319 C30A0000 		.4byte	0xac3
 2849 131d 0C       		.byte	0xc
 2850 131e 00       		.byte	0
 2851 131f 1A       		.uleb128 0x1a
 2852 1320 B9070000 		.4byte	.LASF290
 2853 1324 11       		.byte	0x11
 2854 1325 7201     		.2byte	0x172
 2855 1327 E1120000 		.4byte	0x12e1
 2856 132b 0A       		.uleb128 0xa
 2857 132c 04       		.byte	0x4
 2858 132d 31130000 		.4byte	0x1331
 2859 1331 16       		.uleb128 0x16
 2860 1332 1F130000 		.4byte	0x131f
 2861 1336 10       		.uleb128 0x10
 2862 1337 46130000 		.4byte	0x1346
 2863 133b 46130000 		.4byte	0x1346
 2864 133f 11       		.uleb128 0x11
 2865 1340 79040000 		.4byte	0x479
 2866 1344 03       		.byte	0x3
 2867 1345 00       		.byte	0
 2868 1346 0A       		.uleb128 0xa
 2869 1347 04       		.byte	0x4
 2870 1348 4C130000 		.4byte	0x134c
 2871 134c 16       		.uleb128 0x16
 2872 134d D5120000 		.4byte	0x12d5
 2873 1351 10       		.uleb128 0x10
 2874 1352 43030000 		.4byte	0x343
 2875 1356 61130000 		.4byte	0x1361
 2876 135a 11       		.uleb128 0x11
 2877 135b 79040000 		.4byte	0x479
 2878 135f 02       		.byte	0x2
 2879 1360 00       		.byte	0
 2880 1361 10       		.uleb128 0x10
 2881 1362 B4000000 		.4byte	0xb4
 2882 1366 71130000 		.4byte	0x1371
 2883 136a 11       		.uleb128 0x11
 2884 136b 79040000 		.4byte	0x479
 2885 136f 07       		.byte	0x7
 2886 1370 00       		.byte	0
 2887 1371 0A       		.uleb128 0xa
 2888 1372 04       		.byte	0x4
 2889 1373 B2100000 		.4byte	0x10b2
 2890 1377 0A       		.uleb128 0xa
 2891 1378 04       		.byte	0x4
 2892 1379 7D130000 		.4byte	0x137d
 2893 137d 16       		.uleb128 0x16
 2894 137e EA100000 		.4byte	0x10ea
 2895 1382 10       		.uleb128 0x10
ARM GAS  /tmp/ccyJylYd.s 			page 52


 2896 1383 9B040000 		.4byte	0x49b
 2897 1387 92130000 		.4byte	0x1392
 2898 138b 11       		.uleb128 0x11
 2899 138c 79040000 		.4byte	0x479
 2900 1390 28       		.byte	0x28
 2901 1391 00       		.byte	0
 2902 1392 22       		.uleb128 0x22
 2903 1393 01       		.byte	0x1
 2904 1394 5E000000 		.4byte	0x5e
 2905 1398 13       		.byte	0x13
 2906 1399 97       		.byte	0x97
 2907 139a B1130000 		.4byte	0x13b1
 2908 139e 19       		.uleb128 0x19
 2909 139f C10D0000 		.4byte	.LASF291
 2910 13a3 00       		.byte	0
 2911 13a4 19       		.uleb128 0x19
 2912 13a5 880D0000 		.4byte	.LASF292
 2913 13a9 01       		.byte	0x1
 2914 13aa 19       		.uleb128 0x19
 2915 13ab 0D060000 		.4byte	.LASF293
 2916 13af 02       		.byte	0x2
 2917 13b0 00       		.byte	0
 2918 13b1 03       		.uleb128 0x3
 2919 13b2 C3070000 		.4byte	.LASF294
 2920 13b6 13       		.byte	0x13
 2921 13b7 9B       		.byte	0x9b
 2922 13b8 92130000 		.4byte	0x1392
 2923 13bc 03       		.uleb128 0x3
 2924 13bd C9080000 		.4byte	.LASF295
 2925 13c1 13       		.byte	0x13
 2926 13c2 A0       		.byte	0xa0
 2927 13c3 C7130000 		.4byte	0x13c7
 2928 13c7 23       		.uleb128 0x23
 2929 13c8 C9080000 		.4byte	.LASF295
 2930 13cc 5802     		.2byte	0x258
 2931 13ce 13       		.byte	0x13
 2932 13cf E5       		.byte	0xe5
 2933 13d0 35140000 		.4byte	0x1435
 2934 13d4 12       		.uleb128 0x12
 2935 13d5 766D7400 		.ascii	"vmt\000"
 2936 13d9 13       		.byte	0x13
 2937 13da E7       		.byte	0xe7
 2938 13db E6140000 		.4byte	0x14e6
 2939 13df 00       		.byte	0
 2940 13e0 07       		.uleb128 0x7
 2941 13e1 7B070000 		.4byte	.LASF296
 2942 13e5 13       		.byte	0x13
 2943 13e6 E8       		.byte	0xe8
 2944 13e7 D6060000 		.4byte	0x6d6
 2945 13eb 04       		.byte	0x4
 2946 13ec 07       		.uleb128 0x7
 2947 13ed B5000000 		.4byte	.LASF131
 2948 13f1 13       		.byte	0x13
 2949 13f2 E8       		.byte	0xe8
 2950 13f3 B1130000 		.4byte	0x13b1
 2951 13f7 08       		.byte	0x8
 2952 13f8 07       		.uleb128 0x7
ARM GAS  /tmp/ccyJylYd.s 			page 53


 2953 13f9 0B070000 		.4byte	.LASF297
 2954 13fd 13       		.byte	0x13
 2955 13fe E8       		.byte	0xe8
 2956 13ff 81070000 		.4byte	0x781
 2957 1403 0C       		.byte	0xc
 2958 1404 07       		.uleb128 0x7
 2959 1405 E9010000 		.4byte	.LASF298
 2960 1409 13       		.byte	0x13
 2961 140a E8       		.byte	0xe8
 2962 140b 8C070000 		.4byte	0x78c
 2963 140f 30       		.byte	0x30
 2964 1410 12       		.uleb128 0x12
 2965 1411 696200   		.ascii	"ib\000"
 2966 1414 13       		.byte	0x13
 2967 1415 E8       		.byte	0xe8
 2968 1416 F1140000 		.4byte	0x14f1
 2969 141a 54       		.byte	0x54
 2970 141b 1E       		.uleb128 0x1e
 2971 141c 6F6200   		.ascii	"ob\000"
 2972 141f 13       		.byte	0x13
 2973 1420 E8       		.byte	0xe8
 2974 1421 F1140000 		.4byte	0x14f1
 2975 1425 5401     		.2byte	0x154
 2976 1427 1D       		.uleb128 0x1d
 2977 1428 AE000000 		.4byte	.LASF132
 2978 142c 13       		.byte	0x13
 2979 142d E8       		.byte	0xe8
 2980 142e 01150000 		.4byte	0x1501
 2981 1432 5402     		.2byte	0x254
 2982 1434 00       		.byte	0
 2983 1435 13       		.uleb128 0x13
 2984 1436 08       		.byte	0x8
 2985 1437 13       		.byte	0x13
 2986 1438 A7       		.byte	0xa7
 2987 1439 6E140000 		.4byte	0x146e
 2988 143d 07       		.uleb128 0x7
 2989 143e CE050000 		.4byte	.LASF299
 2990 1442 13       		.byte	0x13
 2991 1443 AB       		.byte	0xab
 2992 1444 E00A0000 		.4byte	0xae0
 2993 1448 00       		.byte	0
 2994 1449 07       		.uleb128 0x7
 2995 144a 6A050000 		.4byte	.LASF300
 2996 144e 13       		.byte	0x13
 2997 144f AF       		.byte	0xaf
 2998 1450 CE090000 		.4byte	0x9ce
 2999 1454 04       		.byte	0x4
 3000 1455 07       		.uleb128 0x7
 3001 1456 9F0D0000 		.4byte	.LASF301
 3002 145a 13       		.byte	0x13
 3003 145b B3       		.byte	0xb3
 3004 145c CE090000 		.4byte	0x9ce
 3005 1460 05       		.byte	0x5
 3006 1461 07       		.uleb128 0x7
 3007 1462 35020000 		.4byte	.LASF302
 3008 1466 13       		.byte	0x13
 3009 1467 B9       		.byte	0xb9
ARM GAS  /tmp/ccyJylYd.s 			page 54


 3010 1468 CE090000 		.4byte	0x9ce
 3011 146c 06       		.byte	0x6
 3012 146d 00       		.byte	0
 3013 146e 03       		.uleb128 0x3
 3014 146f 4E080000 		.4byte	.LASF303
 3015 1473 13       		.byte	0x13
 3016 1474 BA       		.byte	0xba
 3017 1475 35140000 		.4byte	0x1435
 3018 1479 06       		.uleb128 0x6
 3019 147a E5040000 		.4byte	.LASF304
 3020 147e 20       		.byte	0x20
 3021 147f 13       		.byte	0x13
 3022 1480 DA       		.byte	0xda
 3023 1481 E6140000 		.4byte	0x14e6
 3024 1485 07       		.uleb128 0x7
 3025 1486 17060000 		.4byte	.LASF305
 3026 148a 13       		.byte	0x13
 3027 148b DB       		.byte	0xdb
 3028 148c BB070000 		.4byte	0x7bb
 3029 1490 00       		.byte	0
 3030 1491 07       		.uleb128 0x7
 3031 1492 92070000 		.4byte	.LASF306
 3032 1496 13       		.byte	0x13
 3033 1497 DB       		.byte	0xdb
 3034 1498 DA070000 		.4byte	0x7da
 3035 149c 04       		.byte	0x4
 3036 149d 12       		.uleb128 0x12
 3037 149e 70757400 		.ascii	"put\000"
 3038 14a2 13       		.byte	0x13
 3039 14a3 DB       		.byte	0xdb
 3040 14a4 F4070000 		.4byte	0x7f4
 3041 14a8 08       		.byte	0x8
 3042 14a9 12       		.uleb128 0x12
 3043 14aa 67657400 		.ascii	"get\000"
 3044 14ae 13       		.byte	0x13
 3045 14af DB       		.byte	0xdb
 3046 14b0 09080000 		.4byte	0x809
 3047 14b4 0C       		.byte	0xc
 3048 14b5 07       		.uleb128 0x7
 3049 14b6 C3000000 		.4byte	.LASF307
 3050 14ba 13       		.byte	0x13
 3051 14bb DB       		.byte	0xdb
 3052 14bc 28080000 		.4byte	0x828
 3053 14c0 10       		.byte	0x10
 3054 14c1 07       		.uleb128 0x7
 3055 14c2 E6030000 		.4byte	.LASF308
 3056 14c6 13       		.byte	0x13
 3057 14c7 DB       		.byte	0xdb
 3058 14c8 42080000 		.4byte	0x842
 3059 14cc 14       		.byte	0x14
 3060 14cd 07       		.uleb128 0x7
 3061 14ce 55000000 		.4byte	.LASF309
 3062 14d2 13       		.byte	0x13
 3063 14d3 DB       		.byte	0xdb
 3064 14d4 66080000 		.4byte	0x866
 3065 14d8 18       		.byte	0x18
 3066 14d9 07       		.uleb128 0x7
ARM GAS  /tmp/ccyJylYd.s 			page 55


 3067 14da 1B010000 		.4byte	.LASF310
 3068 14de 13       		.byte	0x13
 3069 14df DB       		.byte	0xdb
 3070 14e0 8A080000 		.4byte	0x88a
 3071 14e4 1C       		.byte	0x1c
 3072 14e5 00       		.byte	0
 3073 14e6 0A       		.uleb128 0xa
 3074 14e7 04       		.byte	0x4
 3075 14e8 EC140000 		.4byte	0x14ec
 3076 14ec 16       		.uleb128 0x16
 3077 14ed 79140000 		.4byte	0x1479
 3078 14f1 10       		.uleb128 0x10
 3079 14f2 B4000000 		.4byte	0xb4
 3080 14f6 01150000 		.4byte	0x1501
 3081 14fa 11       		.uleb128 0x11
 3082 14fb 79040000 		.4byte	0x479
 3083 14ff FF       		.byte	0xff
 3084 1500 00       		.byte	0
 3085 1501 0A       		.uleb128 0xa
 3086 1502 04       		.byte	0x4
 3087 1503 07150000 		.4byte	0x1507
 3088 1507 16       		.uleb128 0x16
 3089 1508 6E140000 		.4byte	0x146e
 3090 150c 24       		.uleb128 0x24
 3091 150d 780A0000 		.4byte	.LASF317
 3092 1511 02       		.byte	0x2
 3093 1512 2002     		.2byte	0x220
 3094 1514 03       		.byte	0x3
 3095 1515 26150000 		.4byte	0x1526
 3096 1519 25       		.uleb128 0x25
 3097 151a 59030000 		.4byte	.LASF319
 3098 151e 02       		.byte	0x2
 3099 151f 2002     		.2byte	0x220
 3100 1521 D5000000 		.4byte	0xd5
 3101 1525 00       		.byte	0
 3102 1526 26       		.uleb128 0x26
 3103 1527 1D0B0000 		.4byte	.LASF311
 3104 152b 0A       		.byte	0xa
 3105 152c BC01     		.2byte	0x1bc
 3106 152e 03       		.byte	0x3
 3107 152f 26       		.uleb128 0x26
 3108 1530 94010000 		.4byte	.LASF312
 3109 1534 0A       		.byte	0xa
 3110 1535 CA01     		.2byte	0x1ca
 3111 1537 03       		.byte	0x3
 3112 1538 26       		.uleb128 0x26
 3113 1539 D7060000 		.4byte	.LASF313
 3114 153d 0A       		.byte	0xa
 3115 153e D901     		.2byte	0x1d9
 3116 1540 03       		.byte	0x3
 3117 1541 26       		.uleb128 0x26
 3118 1542 0E090000 		.4byte	.LASF314
 3119 1546 0A       		.byte	0xa
 3120 1547 E401     		.2byte	0x1e4
 3121 1549 03       		.byte	0x3
 3122 154a 26       		.uleb128 0x26
 3123 154b B8020000 		.4byte	.LASF315
ARM GAS  /tmp/ccyJylYd.s 			page 56


 3124 154f 14       		.byte	0x14
 3125 1550 9601     		.2byte	0x196
 3126 1552 03       		.byte	0x3
 3127 1553 26       		.uleb128 0x26
 3128 1554 B5010000 		.4byte	.LASF316
 3129 1558 14       		.byte	0x14
 3130 1559 8201     		.2byte	0x182
 3131 155b 03       		.byte	0x3
 3132 155c 24       		.uleb128 0x24
 3133 155d F20D0000 		.4byte	.LASF318
 3134 1561 01       		.byte	0x1
 3135 1562 0801     		.2byte	0x108
 3136 1564 01       		.byte	0x1
 3137 1565 8E150000 		.4byte	0x158e
 3138 1569 25       		.uleb128 0x25
 3139 156a CE050000 		.4byte	.LASF299
 3140 156e 01       		.byte	0x1
 3141 156f 0801     		.2byte	0x108
 3142 1571 E00A0000 		.4byte	0xae0
 3143 1575 25       		.uleb128 0x25
 3144 1576 7B070000 		.4byte	.LASF296
 3145 157a 01       		.byte	0x1
 3146 157b 0801     		.2byte	0x108
 3147 157d 870A0000 		.4byte	0xa87
 3148 1581 27       		.uleb128 0x27
 3149 1582 CA060000 		.4byte	.LASF323
 3150 1586 01       		.byte	0x1
 3151 1587 0901     		.2byte	0x109
 3152 1589 BC130000 		.4byte	0x13bc
 3153 158d 00       		.byte	0
 3154 158e 28       		.uleb128 0x28
 3155 158f A3060000 		.4byte	.LASF347
 3156 1593 01       		.byte	0x1
 3157 1594 C3       		.byte	0xc3
 3158 1595 7B0B0000 		.4byte	0xb7b
 3159 1599 00000000 		.4byte	.LFB258
 3160 159d 30000000 		.4byte	.LFE258-.LFB258
 3161 15a1 01       		.uleb128 0x1
 3162 15a2 9C       		.byte	0x9c
 3163 15a3 E0150000 		.4byte	0x15e0
 3164 15a7 29       		.uleb128 0x29
 3165 15a8 CE050000 		.4byte	.LASF299
 3166 15ac 01       		.byte	0x1
 3167 15ad C3       		.byte	0xc3
 3168 15ae E00A0000 		.4byte	0xae0
 3169 15b2 00000000 		.4byte	.LLST0
 3170 15b6 2A       		.uleb128 0x2a
 3171 15b7 D90A0000 		.4byte	.LASF320
 3172 15bb 01       		.byte	0x1
 3173 15bc C4       		.byte	0xc4
 3174 15bd B4000000 		.4byte	0xb4
 3175 15c1 01       		.uleb128 0x1
 3176 15c2 51       		.byte	0x51
 3177 15c3 2A       		.uleb128 0x2a
 3178 15c4 D3000000 		.4byte	.LASF321
 3179 15c8 01       		.byte	0x1
 3180 15c9 C5       		.byte	0xc5
ARM GAS  /tmp/ccyJylYd.s 			page 57


 3181 15ca B4000000 		.4byte	0xb4
 3182 15ce 01       		.uleb128 0x1
 3183 15cf 52       		.byte	0x52
 3184 15d0 29       		.uleb128 0x29
 3185 15d1 610B0000 		.4byte	.LASF322
 3186 15d5 01       		.byte	0x1
 3187 15d6 C6       		.byte	0xc6
 3188 15d7 BF000000 		.4byte	0xbf
 3189 15db 53000000 		.4byte	.LLST1
 3190 15df 00       		.byte	0
 3191 15e0 2B       		.uleb128 0x2b
 3192 15e1 5C150000 		.4byte	0x155c
 3193 15e5 00000000 		.4byte	.LFB259
 3194 15e9 40000000 		.4byte	.LFE259-.LFB259
 3195 15ed 01       		.uleb128 0x1
 3196 15ee 9C       		.byte	0x9c
 3197 15ef 2D170000 		.4byte	0x172d
 3198 15f3 2C       		.uleb128 0x2c
 3199 15f4 69150000 		.4byte	0x1569
 3200 15f8 74000000 		.4byte	.LLST2
 3201 15fc 2C       		.uleb128 0x2c
 3202 15fd 75150000 		.4byte	0x1575
 3203 1601 9D000000 		.4byte	.LLST3
 3204 1605 27       		.uleb128 0x27
 3205 1606 CA060000 		.4byte	.LASF323
 3206 160a 01       		.byte	0x1
 3207 160b 0901     		.2byte	0x109
 3208 160d BC130000 		.4byte	0x13bc
 3209 1611 2D       		.uleb128 0x2d
 3210 1612 0A000000 		.4byte	.LBB58
 3211 1616 36000000 		.4byte	.LBE58-.LBB58
 3212 161a 2C       		.uleb128 0x2c
 3213 161b 75150000 		.4byte	0x1575
 3214 161f C9000000 		.4byte	.LLST4
 3215 1623 2C       		.uleb128 0x2c
 3216 1624 69150000 		.4byte	0x1569
 3217 1628 DD000000 		.4byte	.LLST5
 3218 162c 2D       		.uleb128 0x2d
 3219 162d 0A000000 		.4byte	.LBB59
 3220 1631 36000000 		.4byte	.LBE59-.LBB59
 3221 1635 2E       		.uleb128 0x2e
 3222 1636 05160000 		.4byte	0x1605
 3223 163a 2F       		.uleb128 0x2f
 3224 163b 53150000 		.4byte	0x1553
 3225 163f 0A000000 		.4byte	.LBB60
 3226 1643 06000000 		.4byte	.LBE60-.LBB60
 3227 1647 01       		.byte	0x1
 3228 1648 1101     		.2byte	0x111
 3229 164a 8B160000 		.4byte	0x168b
 3230 164e 30       		.uleb128 0x30
 3231 164f 38150000 		.4byte	0x1538
 3232 1653 0A000000 		.4byte	.LBB61
 3233 1657 06000000 		.4byte	.LBE61-.LBB61
 3234 165b 14       		.byte	0x14
 3235 165c 8401     		.2byte	0x184
 3236 165e 30       		.uleb128 0x30
 3237 165f 26150000 		.4byte	0x1526
ARM GAS  /tmp/ccyJylYd.s 			page 58


 3238 1663 0A000000 		.4byte	.LBB62
 3239 1667 06000000 		.4byte	.LBE62-.LBB62
 3240 166b 0A       		.byte	0xa
 3241 166c DB01     		.2byte	0x1db
 3242 166e 30       		.uleb128 0x30
 3243 166f 0C150000 		.4byte	0x150c
 3244 1673 0A000000 		.4byte	.LBB63
 3245 1677 06000000 		.4byte	.LBE63-.LBB63
 3246 167b 0A       		.byte	0xa
 3247 167c BF01     		.2byte	0x1bf
 3248 167e 2C       		.uleb128 0x2c
 3249 167f 19150000 		.4byte	0x1519
 3250 1683 FB000000 		.4byte	.LLST6
 3251 1687 00       		.byte	0
 3252 1688 00       		.byte	0
 3253 1689 00       		.byte	0
 3254 168a 00       		.byte	0
 3255 168b 2F       		.uleb128 0x2f
 3256 168c 4A150000 		.4byte	0x154a
 3257 1690 28000000 		.4byte	.LBB65
 3258 1694 18000000 		.4byte	.LBE65-.LBB65
 3259 1698 01       		.byte	0x1
 3260 1699 1C01     		.2byte	0x11c
 3261 169b DC160000 		.4byte	0x16dc
 3262 169f 30       		.uleb128 0x30
 3263 16a0 41150000 		.4byte	0x1541
 3264 16a4 28000000 		.4byte	.LBB66
 3265 16a8 18000000 		.4byte	.LBE66-.LBB66
 3266 16ac 14       		.byte	0x14
 3267 16ad 9A01     		.2byte	0x19a
 3268 16af 30       		.uleb128 0x30
 3269 16b0 2F150000 		.4byte	0x152f
 3270 16b4 28000000 		.4byte	.LBB67
 3271 16b8 18000000 		.4byte	.LBE67-.LBB67
 3272 16bc 0A       		.byte	0xa
 3273 16bd E601     		.2byte	0x1e6
 3274 16bf 30       		.uleb128 0x30
 3275 16c0 0C150000 		.4byte	0x150c
 3276 16c4 28000000 		.4byte	.LBB68
 3277 16c8 18000000 		.4byte	.LBE68-.LBB68
 3278 16cc 0A       		.byte	0xa
 3279 16cd CD01     		.2byte	0x1cd
 3280 16cf 2C       		.uleb128 0x2c
 3281 16d0 19150000 		.4byte	0x1519
 3282 16d4 10010000 		.4byte	.LLST7
 3283 16d8 00       		.byte	0
 3284 16d9 00       		.byte	0
 3285 16da 00       		.byte	0
 3286 16db 00       		.byte	0
 3287 16dc 31       		.uleb128 0x31
 3288 16dd 18000000 		.4byte	.LVL11
 3289 16e1 01190000 		.4byte	0x1901
 3290 16e5 FE160000 		.4byte	0x16fe
 3291 16e9 32       		.uleb128 0x32
 3292 16ea 01       		.uleb128 0x1
 3293 16eb 50       		.byte	0x50
 3294 16ec 02       		.uleb128 0x2
ARM GAS  /tmp/ccyJylYd.s 			page 59


 3295 16ed 75       		.byte	0x75
 3296 16ee 00       		.sleb128 0
 3297 16ef 32       		.uleb128 0x32
 3298 16f0 01       		.uleb128 0x1
 3299 16f1 51       		.byte	0x51
 3300 16f2 01       		.uleb128 0x1
 3301 16f3 31       		.byte	0x31
 3302 16f4 32       		.uleb128 0x32
 3303 16f5 01       		.uleb128 0x1
 3304 16f6 52       		.byte	0x52
 3305 16f7 05       		.uleb128 0x5
 3306 16f8 03       		.byte	0x3
 3307 16f9 00000000 		.4byte	.LANCHOR3
 3308 16fd 00       		.byte	0
 3309 16fe 31       		.uleb128 0x31
 3310 16ff 22000000 		.4byte	.LVL12
 3311 1703 01190000 		.4byte	0x1901
 3312 1707 21170000 		.4byte	0x1721
 3313 170b 32       		.uleb128 0x32
 3314 170c 01       		.uleb128 0x1
 3315 170d 50       		.byte	0x50
 3316 170e 02       		.uleb128 0x2
 3317 170f 75       		.byte	0x75
 3318 1710 00       		.sleb128 0
 3319 1711 32       		.uleb128 0x32
 3320 1712 01       		.uleb128 0x1
 3321 1713 51       		.byte	0x51
 3322 1714 02       		.uleb128 0x2
 3323 1715 74       		.byte	0x74
 3324 1716 00       		.sleb128 0
 3325 1717 32       		.uleb128 0x32
 3326 1718 01       		.uleb128 0x1
 3327 1719 52       		.byte	0x52
 3328 171a 05       		.uleb128 0x5
 3329 171b 03       		.byte	0x3
 3330 171c 00000000 		.4byte	.LANCHOR4
 3331 1720 00       		.byte	0
 3332 1721 33       		.uleb128 0x33
 3333 1722 28000000 		.4byte	.LVL13
 3334 1726 0D190000 		.4byte	0x190d
 3335 172a 00       		.byte	0
 3336 172b 00       		.byte	0
 3337 172c 00       		.byte	0
 3338 172d 10       		.uleb128 0x10
 3339 172e B6070000 		.4byte	0x7b6
 3340 1732 3D170000 		.4byte	0x173d
 3341 1736 11       		.uleb128 0x11
 3342 1737 79040000 		.4byte	0x479
 3343 173b 11       		.byte	0x11
 3344 173c 00       		.byte	0
 3345 173d 34       		.uleb128 0x34
 3346 173e FB0C0000 		.4byte	.LASF324
 3347 1742 01       		.byte	0x1
 3348 1743 1E       		.byte	0x1e
 3349 1744 4E170000 		.4byte	0x174e
 3350 1748 05       		.uleb128 0x5
 3351 1749 03       		.byte	0x3
ARM GAS  /tmp/ccyJylYd.s 			page 60


 3352 174a 00000000 		.4byte	vcom_device_descriptor_data
 3353 174e 16       		.uleb128 0x16
 3354 174f 2D170000 		.4byte	0x172d
 3355 1753 34       		.uleb128 0x34
 3356 1754 2C010000 		.4byte	.LASF325
 3357 1758 01       		.byte	0x1
 3358 1759 30       		.byte	0x30
 3359 175a 810B0000 		.4byte	0xb81
 3360 175e 05       		.uleb128 0x5
 3361 175f 03       		.byte	0x3
 3362 1760 00000000 		.4byte	vcom_device_descriptor
 3363 1764 10       		.uleb128 0x10
 3364 1765 B6070000 		.4byte	0x7b6
 3365 1769 74170000 		.4byte	0x1774
 3366 176d 11       		.uleb128 0x11
 3367 176e 79040000 		.4byte	0x479
 3368 1772 42       		.byte	0x42
 3369 1773 00       		.byte	0
 3370 1774 34       		.uleb128 0x34
 3371 1775 D7090000 		.4byte	.LASF326
 3372 1779 01       		.byte	0x1
 3373 177a 36       		.byte	0x36
 3374 177b 85170000 		.4byte	0x1785
 3375 177f 05       		.uleb128 0x5
 3376 1780 03       		.byte	0x3
 3377 1781 00000000 		.4byte	vcom_configuration_descriptor_data
 3378 1785 16       		.uleb128 0x16
 3379 1786 64170000 		.4byte	0x1764
 3380 178a 34       		.uleb128 0x34
 3381 178b 71020000 		.4byte	.LASF327
 3382 178f 01       		.byte	0x1
 3383 1790 85       		.byte	0x85
 3384 1791 810B0000 		.4byte	0xb81
 3385 1795 05       		.uleb128 0x5
 3386 1796 03       		.byte	0x3
 3387 1797 00000000 		.4byte	vcom_configuration_descriptor
 3388 179b 10       		.uleb128 0x10
 3389 179c B6070000 		.4byte	0x7b6
 3390 17a0 AB170000 		.4byte	0x17ab
 3391 17a4 11       		.uleb128 0x11
 3392 17a5 79040000 		.4byte	0x479
 3393 17a9 03       		.byte	0x3
 3394 17aa 00       		.byte	0
 3395 17ab 34       		.uleb128 0x34
 3396 17ac 8A080000 		.4byte	.LASF328
 3397 17b0 01       		.byte	0x1
 3398 17b1 8D       		.byte	0x8d
 3399 17b2 BC170000 		.4byte	0x17bc
 3400 17b6 05       		.uleb128 0x5
 3401 17b7 03       		.byte	0x3
 3402 17b8 00000000 		.4byte	vcom_string0
 3403 17bc 16       		.uleb128 0x16
 3404 17bd 9B170000 		.4byte	0x179b
 3405 17c1 10       		.uleb128 0x10
 3406 17c2 B6070000 		.4byte	0x7b6
 3407 17c6 D1170000 		.4byte	0x17d1
 3408 17ca 11       		.uleb128 0x11
ARM GAS  /tmp/ccyJylYd.s 			page 61


 3409 17cb 79040000 		.4byte	0x479
 3410 17cf 25       		.byte	0x25
 3411 17d0 00       		.byte	0
 3412 17d1 34       		.uleb128 0x34
 3413 17d2 D50E0000 		.4byte	.LASF329
 3414 17d6 01       		.byte	0x1
 3415 17d7 96       		.byte	0x96
 3416 17d8 E2170000 		.4byte	0x17e2
 3417 17dc 05       		.uleb128 0x5
 3418 17dd 03       		.byte	0x3
 3419 17de 00000000 		.4byte	vcom_string1
 3420 17e2 16       		.uleb128 0x16
 3421 17e3 C1170000 		.4byte	0x17c1
 3422 17e7 10       		.uleb128 0x10
 3423 17e8 B6070000 		.4byte	0x7b6
 3424 17ec F7170000 		.4byte	0x17f7
 3425 17f0 11       		.uleb128 0x11
 3426 17f1 79040000 		.4byte	0x479
 3427 17f5 37       		.byte	0x37
 3428 17f6 00       		.byte	0
 3429 17f7 34       		.uleb128 0x34
 3430 17f8 4C030000 		.4byte	.LASF330
 3431 17fc 01       		.byte	0x1
 3432 17fd A1       		.byte	0xa1
 3433 17fe 08180000 		.4byte	0x1808
 3434 1802 05       		.uleb128 0x5
 3435 1803 03       		.byte	0x3
 3436 1804 00000000 		.4byte	vcom_string2
 3437 1808 16       		.uleb128 0x16
 3438 1809 E7170000 		.4byte	0x17e7
 3439 180d 10       		.uleb128 0x10
 3440 180e B6070000 		.4byte	0x7b6
 3441 1812 1D180000 		.4byte	0x181d
 3442 1816 11       		.uleb128 0x11
 3443 1817 79040000 		.4byte	0x479
 3444 181b 07       		.byte	0x7
 3445 181c 00       		.byte	0
 3446 181d 34       		.uleb128 0x34
 3447 181e EB0E0000 		.4byte	.LASF331
 3448 1822 01       		.byte	0x1
 3449 1823 AD       		.byte	0xad
 3450 1824 2E180000 		.4byte	0x182e
 3451 1828 05       		.uleb128 0x5
 3452 1829 03       		.byte	0x3
 3453 182a 00000000 		.4byte	vcom_string3
 3454 182e 16       		.uleb128 0x16
 3455 182f 0D180000 		.4byte	0x180d
 3456 1833 10       		.uleb128 0x10
 3457 1834 810B0000 		.4byte	0xb81
 3458 1838 43180000 		.4byte	0x1843
 3459 183c 11       		.uleb128 0x11
 3460 183d 79040000 		.4byte	0x479
 3461 1841 03       		.byte	0x3
 3462 1842 00       		.byte	0
 3463 1843 34       		.uleb128 0x34
 3464 1844 27000000 		.4byte	.LASF332
 3465 1848 01       		.byte	0x1
ARM GAS  /tmp/ccyJylYd.s 			page 62


 3466 1849 B8       		.byte	0xb8
 3467 184a 54180000 		.4byte	0x1854
 3468 184e 05       		.uleb128 0x5
 3469 184f 03       		.byte	0x3
 3470 1850 00000000 		.4byte	vcom_strings
 3471 1854 16       		.uleb128 0x16
 3472 1855 33180000 		.4byte	0x1833
 3473 1859 34       		.uleb128 0x34
 3474 185a 21010000 		.4byte	.LASF333
 3475 185e 01       		.byte	0x1
 3476 185f D9       		.byte	0xd9
 3477 1860 89110000 		.4byte	0x1189
 3478 1864 05       		.uleb128 0x5
 3479 1865 03       		.byte	0x3
 3480 1866 00000000 		.4byte	ep1instate
 3481 186a 34       		.uleb128 0x34
 3482 186b 78010000 		.4byte	.LASF334
 3483 186f 01       		.byte	0x1
 3484 1870 DE       		.byte	0xde
 3485 1871 31120000 		.4byte	0x1231
 3486 1875 05       		.uleb128 0x5
 3487 1876 03       		.byte	0x3
 3488 1877 00000000 		.4byte	ep1outstate
 3489 187b 34       		.uleb128 0x34
 3490 187c C3030000 		.4byte	.LASF335
 3491 1880 01       		.byte	0x1
 3492 1881 E3       		.byte	0xe3
 3493 1882 4C130000 		.4byte	0x134c
 3494 1886 05       		.uleb128 0x5
 3495 1887 03       		.byte	0x3
 3496 1888 00000000 		.4byte	ep1config
 3497 188c 34       		.uleb128 0x34
 3498 188d DA000000 		.4byte	.LASF336
 3499 1891 01       		.byte	0x1
 3500 1892 F3       		.byte	0xf3
 3501 1893 89110000 		.4byte	0x1189
 3502 1897 05       		.uleb128 0x5
 3503 1898 03       		.byte	0x3
 3504 1899 00000000 		.4byte	ep2instate
 3505 189d 34       		.uleb128 0x34
 3506 189e 73040000 		.4byte	.LASF337
 3507 18a2 01       		.byte	0x1
 3508 18a3 F8       		.byte	0xf8
 3509 18a4 4C130000 		.4byte	0x134c
 3510 18a8 05       		.uleb128 0x5
 3511 18a9 03       		.byte	0x3
 3512 18aa 00000000 		.4byte	ep2config
 3513 18ae 27       		.uleb128 0x27
 3514 18af 4C070000 		.4byte	.LASF338
 3515 18b3 15       		.byte	0x15
 3516 18b4 A706     		.2byte	0x6a7
 3517 18b6 EB000000 		.4byte	0xeb
 3518 18ba 35       		.uleb128 0x35
 3519 18bb 636800   		.ascii	"ch\000"
 3520 18be 08       		.byte	0x8
 3521 18bf 0902     		.2byte	0x209
 3522 18c1 12040000 		.4byte	0x412
ARM GAS  /tmp/ccyJylYd.s 			page 63


 3523 18c5 27       		.uleb128 0x27
 3524 18c6 280D0000 		.4byte	.LASF339
 3525 18ca 11       		.byte	0x11
 3526 18cb 0602     		.2byte	0x206
 3527 18cd 97080000 		.4byte	0x897
 3528 18d1 27       		.uleb128 0x27
 3529 18d2 CA060000 		.4byte	.LASF323
 3530 18d6 01       		.byte	0x1
 3531 18d7 0901     		.2byte	0x109
 3532 18d9 BC130000 		.4byte	0x13bc
 3533 18dd 36       		.uleb128 0x36
 3534 18de 190A0000 		.4byte	.LASF340
 3535 18e2 01       		.byte	0x1
 3536 18e3 2B01     		.2byte	0x12b
 3537 18e5 31130000 		.4byte	0x1331
 3538 18e9 05       		.uleb128 0x5
 3539 18ea 03       		.byte	0x3
 3540 18eb 00000000 		.4byte	usbcfg
 3541 18ef 36       		.uleb128 0x36
 3542 18f0 A80D0000 		.4byte	.LASF341
 3543 18f4 01       		.byte	0x1
 3544 18f5 3501     		.2byte	0x135
 3545 18f7 07150000 		.4byte	0x1507
 3546 18fb 05       		.uleb128 0x5
 3547 18fc 03       		.byte	0x3
 3548 18fd 00000000 		.4byte	serusbcfg
 3549 1901 37       		.uleb128 0x37
 3550 1902 2A0A0000 		.4byte	.LASF342
 3551 1906 2A0A0000 		.4byte	.LASF342
 3552 190a 10       		.byte	0x10
 3553 190b 3902     		.2byte	0x239
 3554 190d 38       		.uleb128 0x38
 3555 190e 1F0E0000 		.4byte	.LASF343
 3556 1912 1F0E0000 		.4byte	.LASF343
 3557 1916 13       		.byte	0x13
 3558 1917 FA       		.byte	0xfa
 3559 1918 00       		.byte	0
 3560              		.section	.debug_abbrev,"",%progbits
 3561              	.Ldebug_abbrev0:
 3562 0000 01       		.uleb128 0x1
 3563 0001 11       		.uleb128 0x11
 3564 0002 01       		.byte	0x1
 3565 0003 25       		.uleb128 0x25
 3566 0004 0E       		.uleb128 0xe
 3567 0005 13       		.uleb128 0x13
 3568 0006 0B       		.uleb128 0xb
 3569 0007 03       		.uleb128 0x3
 3570 0008 0E       		.uleb128 0xe
 3571 0009 1B       		.uleb128 0x1b
 3572 000a 0E       		.uleb128 0xe
 3573 000b 55       		.uleb128 0x55
 3574 000c 17       		.uleb128 0x17
 3575 000d 11       		.uleb128 0x11
 3576 000e 01       		.uleb128 0x1
 3577 000f 10       		.uleb128 0x10
 3578 0010 17       		.uleb128 0x17
 3579 0011 00       		.byte	0
ARM GAS  /tmp/ccyJylYd.s 			page 64


 3580 0012 00       		.byte	0
 3581 0013 02       		.uleb128 0x2
 3582 0014 24       		.uleb128 0x24
 3583 0015 00       		.byte	0
 3584 0016 0B       		.uleb128 0xb
 3585 0017 0B       		.uleb128 0xb
 3586 0018 3E       		.uleb128 0x3e
 3587 0019 0B       		.uleb128 0xb
 3588 001a 03       		.uleb128 0x3
 3589 001b 08       		.uleb128 0x8
 3590 001c 00       		.byte	0
 3591 001d 00       		.byte	0
 3592 001e 03       		.uleb128 0x3
 3593 001f 16       		.uleb128 0x16
 3594 0020 00       		.byte	0
 3595 0021 03       		.uleb128 0x3
 3596 0022 0E       		.uleb128 0xe
 3597 0023 3A       		.uleb128 0x3a
 3598 0024 0B       		.uleb128 0xb
 3599 0025 3B       		.uleb128 0x3b
 3600 0026 0B       		.uleb128 0xb
 3601 0027 49       		.uleb128 0x49
 3602 0028 13       		.uleb128 0x13
 3603 0029 00       		.byte	0
 3604 002a 00       		.byte	0
 3605 002b 04       		.uleb128 0x4
 3606 002c 24       		.uleb128 0x24
 3607 002d 00       		.byte	0
 3608 002e 0B       		.uleb128 0xb
 3609 002f 0B       		.uleb128 0xb
 3610 0030 3E       		.uleb128 0x3e
 3611 0031 0B       		.uleb128 0xb
 3612 0032 03       		.uleb128 0x3
 3613 0033 0E       		.uleb128 0xe
 3614 0034 00       		.byte	0
 3615 0035 00       		.byte	0
 3616 0036 05       		.uleb128 0x5
 3617 0037 35       		.uleb128 0x35
 3618 0038 00       		.byte	0
 3619 0039 49       		.uleb128 0x49
 3620 003a 13       		.uleb128 0x13
 3621 003b 00       		.byte	0
 3622 003c 00       		.byte	0
 3623 003d 06       		.uleb128 0x6
 3624 003e 13       		.uleb128 0x13
 3625 003f 01       		.byte	0x1
 3626 0040 03       		.uleb128 0x3
 3627 0041 0E       		.uleb128 0xe
 3628 0042 0B       		.uleb128 0xb
 3629 0043 0B       		.uleb128 0xb
 3630 0044 3A       		.uleb128 0x3a
 3631 0045 0B       		.uleb128 0xb
 3632 0046 3B       		.uleb128 0x3b
 3633 0047 0B       		.uleb128 0xb
 3634 0048 01       		.uleb128 0x1
 3635 0049 13       		.uleb128 0x13
 3636 004a 00       		.byte	0
ARM GAS  /tmp/ccyJylYd.s 			page 65


 3637 004b 00       		.byte	0
 3638 004c 07       		.uleb128 0x7
 3639 004d 0D       		.uleb128 0xd
 3640 004e 00       		.byte	0
 3641 004f 03       		.uleb128 0x3
 3642 0050 0E       		.uleb128 0xe
 3643 0051 3A       		.uleb128 0x3a
 3644 0052 0B       		.uleb128 0xb
 3645 0053 3B       		.uleb128 0x3b
 3646 0054 0B       		.uleb128 0xb
 3647 0055 49       		.uleb128 0x49
 3648 0056 13       		.uleb128 0x13
 3649 0057 38       		.uleb128 0x38
 3650 0058 0B       		.uleb128 0xb
 3651 0059 00       		.byte	0
 3652 005a 00       		.byte	0
 3653 005b 08       		.uleb128 0x8
 3654 005c 0D       		.uleb128 0xd
 3655 005d 00       		.byte	0
 3656 005e 03       		.uleb128 0x3
 3657 005f 08       		.uleb128 0x8
 3658 0060 3A       		.uleb128 0x3a
 3659 0061 0B       		.uleb128 0xb
 3660 0062 3B       		.uleb128 0x3b
 3661 0063 05       		.uleb128 0x5
 3662 0064 49       		.uleb128 0x49
 3663 0065 13       		.uleb128 0x13
 3664 0066 38       		.uleb128 0x38
 3665 0067 0B       		.uleb128 0xb
 3666 0068 00       		.byte	0
 3667 0069 00       		.byte	0
 3668 006a 09       		.uleb128 0x9
 3669 006b 0D       		.uleb128 0xd
 3670 006c 00       		.byte	0
 3671 006d 03       		.uleb128 0x3
 3672 006e 0E       		.uleb128 0xe
 3673 006f 3A       		.uleb128 0x3a
 3674 0070 0B       		.uleb128 0xb
 3675 0071 3B       		.uleb128 0x3b
 3676 0072 05       		.uleb128 0x5
 3677 0073 49       		.uleb128 0x49
 3678 0074 13       		.uleb128 0x13
 3679 0075 38       		.uleb128 0x38
 3680 0076 0B       		.uleb128 0xb
 3681 0077 00       		.byte	0
 3682 0078 00       		.byte	0
 3683 0079 0A       		.uleb128 0xa
 3684 007a 0F       		.uleb128 0xf
 3685 007b 00       		.byte	0
 3686 007c 0B       		.uleb128 0xb
 3687 007d 0B       		.uleb128 0xb
 3688 007e 49       		.uleb128 0x49
 3689 007f 13       		.uleb128 0x13
 3690 0080 00       		.byte	0
 3691 0081 00       		.byte	0
 3692 0082 0B       		.uleb128 0xb
 3693 0083 13       		.uleb128 0x13
ARM GAS  /tmp/ccyJylYd.s 			page 66


 3694 0084 01       		.byte	0x1
 3695 0085 03       		.uleb128 0x3
 3696 0086 0E       		.uleb128 0xe
 3697 0087 0B       		.uleb128 0xb
 3698 0088 0B       		.uleb128 0xb
 3699 0089 3A       		.uleb128 0x3a
 3700 008a 0B       		.uleb128 0xb
 3701 008b 3B       		.uleb128 0x3b
 3702 008c 05       		.uleb128 0x5
 3703 008d 01       		.uleb128 0x1
 3704 008e 13       		.uleb128 0x13
 3705 008f 00       		.byte	0
 3706 0090 00       		.byte	0
 3707 0091 0C       		.uleb128 0xc
 3708 0092 15       		.uleb128 0x15
 3709 0093 01       		.byte	0x1
 3710 0094 27       		.uleb128 0x27
 3711 0095 19       		.uleb128 0x19
 3712 0096 01       		.uleb128 0x1
 3713 0097 13       		.uleb128 0x13
 3714 0098 00       		.byte	0
 3715 0099 00       		.byte	0
 3716 009a 0D       		.uleb128 0xd
 3717 009b 05       		.uleb128 0x5
 3718 009c 00       		.byte	0
 3719 009d 49       		.uleb128 0x49
 3720 009e 13       		.uleb128 0x13
 3721 009f 00       		.byte	0
 3722 00a0 00       		.byte	0
 3723 00a1 0E       		.uleb128 0xe
 3724 00a2 0F       		.uleb128 0xf
 3725 00a3 00       		.byte	0
 3726 00a4 0B       		.uleb128 0xb
 3727 00a5 0B       		.uleb128 0xb
 3728 00a6 00       		.byte	0
 3729 00a7 00       		.byte	0
 3730 00a8 0F       		.uleb128 0xf
 3731 00a9 13       		.uleb128 0x13
 3732 00aa 01       		.byte	0x1
 3733 00ab 03       		.uleb128 0x3
 3734 00ac 0E       		.uleb128 0xe
 3735 00ad 0B       		.uleb128 0xb
 3736 00ae 05       		.uleb128 0x5
 3737 00af 3A       		.uleb128 0x3a
 3738 00b0 0B       		.uleb128 0xb
 3739 00b1 3B       		.uleb128 0x3b
 3740 00b2 05       		.uleb128 0x5
 3741 00b3 01       		.uleb128 0x1
 3742 00b4 13       		.uleb128 0x13
 3743 00b5 00       		.byte	0
 3744 00b6 00       		.byte	0
 3745 00b7 10       		.uleb128 0x10
 3746 00b8 01       		.uleb128 0x1
 3747 00b9 01       		.byte	0x1
 3748 00ba 49       		.uleb128 0x49
 3749 00bb 13       		.uleb128 0x13
 3750 00bc 01       		.uleb128 0x1
ARM GAS  /tmp/ccyJylYd.s 			page 67


 3751 00bd 13       		.uleb128 0x13
 3752 00be 00       		.byte	0
 3753 00bf 00       		.byte	0
 3754 00c0 11       		.uleb128 0x11
 3755 00c1 21       		.uleb128 0x21
 3756 00c2 00       		.byte	0
 3757 00c3 49       		.uleb128 0x49
 3758 00c4 13       		.uleb128 0x13
 3759 00c5 2F       		.uleb128 0x2f
 3760 00c6 0B       		.uleb128 0xb
 3761 00c7 00       		.byte	0
 3762 00c8 00       		.byte	0
 3763 00c9 12       		.uleb128 0x12
 3764 00ca 0D       		.uleb128 0xd
 3765 00cb 00       		.byte	0
 3766 00cc 03       		.uleb128 0x3
 3767 00cd 08       		.uleb128 0x8
 3768 00ce 3A       		.uleb128 0x3a
 3769 00cf 0B       		.uleb128 0xb
 3770 00d0 3B       		.uleb128 0x3b
 3771 00d1 0B       		.uleb128 0xb
 3772 00d2 49       		.uleb128 0x49
 3773 00d3 13       		.uleb128 0x13
 3774 00d4 38       		.uleb128 0x38
 3775 00d5 0B       		.uleb128 0xb
 3776 00d6 00       		.byte	0
 3777 00d7 00       		.byte	0
 3778 00d8 13       		.uleb128 0x13
 3779 00d9 13       		.uleb128 0x13
 3780 00da 01       		.byte	0x1
 3781 00db 0B       		.uleb128 0xb
 3782 00dc 0B       		.uleb128 0xb
 3783 00dd 3A       		.uleb128 0x3a
 3784 00de 0B       		.uleb128 0xb
 3785 00df 3B       		.uleb128 0x3b
 3786 00e0 0B       		.uleb128 0xb
 3787 00e1 01       		.uleb128 0x1
 3788 00e2 13       		.uleb128 0x13
 3789 00e3 00       		.byte	0
 3790 00e4 00       		.byte	0
 3791 00e5 14       		.uleb128 0x14
 3792 00e6 17       		.uleb128 0x17
 3793 00e7 01       		.byte	0x1
 3794 00e8 0B       		.uleb128 0xb
 3795 00e9 0B       		.uleb128 0xb
 3796 00ea 3A       		.uleb128 0x3a
 3797 00eb 0B       		.uleb128 0xb
 3798 00ec 3B       		.uleb128 0x3b
 3799 00ed 0B       		.uleb128 0xb
 3800 00ee 01       		.uleb128 0x1
 3801 00ef 13       		.uleb128 0x13
 3802 00f0 00       		.byte	0
 3803 00f1 00       		.byte	0
 3804 00f2 15       		.uleb128 0x15
 3805 00f3 0D       		.uleb128 0xd
 3806 00f4 00       		.byte	0
 3807 00f5 03       		.uleb128 0x3
ARM GAS  /tmp/ccyJylYd.s 			page 68


 3808 00f6 0E       		.uleb128 0xe
 3809 00f7 3A       		.uleb128 0x3a
 3810 00f8 0B       		.uleb128 0xb
 3811 00f9 3B       		.uleb128 0x3b
 3812 00fa 05       		.uleb128 0x5
 3813 00fb 49       		.uleb128 0x49
 3814 00fc 13       		.uleb128 0x13
 3815 00fd 00       		.byte	0
 3816 00fe 00       		.byte	0
 3817 00ff 16       		.uleb128 0x16
 3818 0100 26       		.uleb128 0x26
 3819 0101 00       		.byte	0
 3820 0102 49       		.uleb128 0x49
 3821 0103 13       		.uleb128 0x13
 3822 0104 00       		.byte	0
 3823 0105 00       		.byte	0
 3824 0106 17       		.uleb128 0x17
 3825 0107 15       		.uleb128 0x15
 3826 0108 01       		.byte	0x1
 3827 0109 27       		.uleb128 0x27
 3828 010a 19       		.uleb128 0x19
 3829 010b 49       		.uleb128 0x49
 3830 010c 13       		.uleb128 0x13
 3831 010d 01       		.uleb128 0x1
 3832 010e 13       		.uleb128 0x13
 3833 010f 00       		.byte	0
 3834 0110 00       		.byte	0
 3835 0111 18       		.uleb128 0x18
 3836 0112 04       		.uleb128 0x4
 3837 0113 01       		.byte	0x1
 3838 0114 0B       		.uleb128 0xb
 3839 0115 0B       		.uleb128 0xb
 3840 0116 49       		.uleb128 0x49
 3841 0117 13       		.uleb128 0x13
 3842 0118 3A       		.uleb128 0x3a
 3843 0119 0B       		.uleb128 0xb
 3844 011a 3B       		.uleb128 0x3b
 3845 011b 05       		.uleb128 0x5
 3846 011c 01       		.uleb128 0x1
 3847 011d 13       		.uleb128 0x13
 3848 011e 00       		.byte	0
 3849 011f 00       		.byte	0
 3850 0120 19       		.uleb128 0x19
 3851 0121 28       		.uleb128 0x28
 3852 0122 00       		.byte	0
 3853 0123 03       		.uleb128 0x3
 3854 0124 0E       		.uleb128 0xe
 3855 0125 1C       		.uleb128 0x1c
 3856 0126 0B       		.uleb128 0xb
 3857 0127 00       		.byte	0
 3858 0128 00       		.byte	0
 3859 0129 1A       		.uleb128 0x1a
 3860 012a 16       		.uleb128 0x16
 3861 012b 00       		.byte	0
 3862 012c 03       		.uleb128 0x3
 3863 012d 0E       		.uleb128 0xe
 3864 012e 3A       		.uleb128 0x3a
ARM GAS  /tmp/ccyJylYd.s 			page 69


 3865 012f 0B       		.uleb128 0xb
 3866 0130 3B       		.uleb128 0x3b
 3867 0131 05       		.uleb128 0x5
 3868 0132 49       		.uleb128 0x49
 3869 0133 13       		.uleb128 0x13
 3870 0134 00       		.byte	0
 3871 0135 00       		.byte	0
 3872 0136 1B       		.uleb128 0x1b
 3873 0137 13       		.uleb128 0x13
 3874 0138 01       		.byte	0x1
 3875 0139 0B       		.uleb128 0xb
 3876 013a 0B       		.uleb128 0xb
 3877 013b 3A       		.uleb128 0x3a
 3878 013c 0B       		.uleb128 0xb
 3879 013d 3B       		.uleb128 0x3b
 3880 013e 05       		.uleb128 0x5
 3881 013f 01       		.uleb128 0x1
 3882 0140 13       		.uleb128 0x13
 3883 0141 00       		.byte	0
 3884 0142 00       		.byte	0
 3885 0143 1C       		.uleb128 0x1c
 3886 0144 13       		.uleb128 0x13
 3887 0145 01       		.byte	0x1
 3888 0146 0B       		.uleb128 0xb
 3889 0147 06       		.uleb128 0x6
 3890 0148 3A       		.uleb128 0x3a
 3891 0149 0B       		.uleb128 0xb
 3892 014a 3B       		.uleb128 0x3b
 3893 014b 0B       		.uleb128 0xb
 3894 014c 01       		.uleb128 0x1
 3895 014d 13       		.uleb128 0x13
 3896 014e 00       		.byte	0
 3897 014f 00       		.byte	0
 3898 0150 1D       		.uleb128 0x1d
 3899 0151 0D       		.uleb128 0xd
 3900 0152 00       		.byte	0
 3901 0153 03       		.uleb128 0x3
 3902 0154 0E       		.uleb128 0xe
 3903 0155 3A       		.uleb128 0x3a
 3904 0156 0B       		.uleb128 0xb
 3905 0157 3B       		.uleb128 0x3b
 3906 0158 0B       		.uleb128 0xb
 3907 0159 49       		.uleb128 0x49
 3908 015a 13       		.uleb128 0x13
 3909 015b 38       		.uleb128 0x38
 3910 015c 05       		.uleb128 0x5
 3911 015d 00       		.byte	0
 3912 015e 00       		.byte	0
 3913 015f 1E       		.uleb128 0x1e
 3914 0160 0D       		.uleb128 0xd
 3915 0161 00       		.byte	0
 3916 0162 03       		.uleb128 0x3
 3917 0163 08       		.uleb128 0x8
 3918 0164 3A       		.uleb128 0x3a
 3919 0165 0B       		.uleb128 0xb
 3920 0166 3B       		.uleb128 0x3b
 3921 0167 0B       		.uleb128 0xb
ARM GAS  /tmp/ccyJylYd.s 			page 70


 3922 0168 49       		.uleb128 0x49
 3923 0169 13       		.uleb128 0x13
 3924 016a 38       		.uleb128 0x38
 3925 016b 05       		.uleb128 0x5
 3926 016c 00       		.byte	0
 3927 016d 00       		.byte	0
 3928 016e 1F       		.uleb128 0x1f
 3929 016f 21       		.uleb128 0x21
 3930 0170 00       		.byte	0
 3931 0171 49       		.uleb128 0x49
 3932 0172 13       		.uleb128 0x13
 3933 0173 2F       		.uleb128 0x2f
 3934 0174 05       		.uleb128 0x5
 3935 0175 00       		.byte	0
 3936 0176 00       		.byte	0
 3937 0177 20       		.uleb128 0x20
 3938 0178 0D       		.uleb128 0xd
 3939 0179 00       		.byte	0
 3940 017a 03       		.uleb128 0x3
 3941 017b 0E       		.uleb128 0xe
 3942 017c 3A       		.uleb128 0x3a
 3943 017d 0B       		.uleb128 0xb
 3944 017e 3B       		.uleb128 0x3b
 3945 017f 0B       		.uleb128 0xb
 3946 0180 49       		.uleb128 0x49
 3947 0181 13       		.uleb128 0x13
 3948 0182 00       		.byte	0
 3949 0183 00       		.byte	0
 3950 0184 21       		.uleb128 0x21
 3951 0185 17       		.uleb128 0x17
 3952 0186 01       		.byte	0x1
 3953 0187 0B       		.uleb128 0xb
 3954 0188 0B       		.uleb128 0xb
 3955 0189 3A       		.uleb128 0x3a
 3956 018a 0B       		.uleb128 0xb
 3957 018b 3B       		.uleb128 0x3b
 3958 018c 05       		.uleb128 0x5
 3959 018d 01       		.uleb128 0x1
 3960 018e 13       		.uleb128 0x13
 3961 018f 00       		.byte	0
 3962 0190 00       		.byte	0
 3963 0191 22       		.uleb128 0x22
 3964 0192 04       		.uleb128 0x4
 3965 0193 01       		.byte	0x1
 3966 0194 0B       		.uleb128 0xb
 3967 0195 0B       		.uleb128 0xb
 3968 0196 49       		.uleb128 0x49
 3969 0197 13       		.uleb128 0x13
 3970 0198 3A       		.uleb128 0x3a
 3971 0199 0B       		.uleb128 0xb
 3972 019a 3B       		.uleb128 0x3b
 3973 019b 0B       		.uleb128 0xb
 3974 019c 01       		.uleb128 0x1
 3975 019d 13       		.uleb128 0x13
 3976 019e 00       		.byte	0
 3977 019f 00       		.byte	0
 3978 01a0 23       		.uleb128 0x23
ARM GAS  /tmp/ccyJylYd.s 			page 71


 3979 01a1 13       		.uleb128 0x13
 3980 01a2 01       		.byte	0x1
 3981 01a3 03       		.uleb128 0x3
 3982 01a4 0E       		.uleb128 0xe
 3983 01a5 0B       		.uleb128 0xb
 3984 01a6 05       		.uleb128 0x5
 3985 01a7 3A       		.uleb128 0x3a
 3986 01a8 0B       		.uleb128 0xb
 3987 01a9 3B       		.uleb128 0x3b
 3988 01aa 0B       		.uleb128 0xb
 3989 01ab 01       		.uleb128 0x1
 3990 01ac 13       		.uleb128 0x13
 3991 01ad 00       		.byte	0
 3992 01ae 00       		.byte	0
 3993 01af 24       		.uleb128 0x24
 3994 01b0 2E       		.uleb128 0x2e
 3995 01b1 01       		.byte	0x1
 3996 01b2 03       		.uleb128 0x3
 3997 01b3 0E       		.uleb128 0xe
 3998 01b4 3A       		.uleb128 0x3a
 3999 01b5 0B       		.uleb128 0xb
 4000 01b6 3B       		.uleb128 0x3b
 4001 01b7 05       		.uleb128 0x5
 4002 01b8 27       		.uleb128 0x27
 4003 01b9 19       		.uleb128 0x19
 4004 01ba 20       		.uleb128 0x20
 4005 01bb 0B       		.uleb128 0xb
 4006 01bc 01       		.uleb128 0x1
 4007 01bd 13       		.uleb128 0x13
 4008 01be 00       		.byte	0
 4009 01bf 00       		.byte	0
 4010 01c0 25       		.uleb128 0x25
 4011 01c1 05       		.uleb128 0x5
 4012 01c2 00       		.byte	0
 4013 01c3 03       		.uleb128 0x3
 4014 01c4 0E       		.uleb128 0xe
 4015 01c5 3A       		.uleb128 0x3a
 4016 01c6 0B       		.uleb128 0xb
 4017 01c7 3B       		.uleb128 0x3b
 4018 01c8 05       		.uleb128 0x5
 4019 01c9 49       		.uleb128 0x49
 4020 01ca 13       		.uleb128 0x13
 4021 01cb 00       		.byte	0
 4022 01cc 00       		.byte	0
 4023 01cd 26       		.uleb128 0x26
 4024 01ce 2E       		.uleb128 0x2e
 4025 01cf 00       		.byte	0
 4026 01d0 03       		.uleb128 0x3
 4027 01d1 0E       		.uleb128 0xe
 4028 01d2 3A       		.uleb128 0x3a
 4029 01d3 0B       		.uleb128 0xb
 4030 01d4 3B       		.uleb128 0x3b
 4031 01d5 05       		.uleb128 0x5
 4032 01d6 27       		.uleb128 0x27
 4033 01d7 19       		.uleb128 0x19
 4034 01d8 20       		.uleb128 0x20
 4035 01d9 0B       		.uleb128 0xb
ARM GAS  /tmp/ccyJylYd.s 			page 72


 4036 01da 00       		.byte	0
 4037 01db 00       		.byte	0
 4038 01dc 27       		.uleb128 0x27
 4039 01dd 34       		.uleb128 0x34
 4040 01de 00       		.byte	0
 4041 01df 03       		.uleb128 0x3
 4042 01e0 0E       		.uleb128 0xe
 4043 01e1 3A       		.uleb128 0x3a
 4044 01e2 0B       		.uleb128 0xb
 4045 01e3 3B       		.uleb128 0x3b
 4046 01e4 05       		.uleb128 0x5
 4047 01e5 49       		.uleb128 0x49
 4048 01e6 13       		.uleb128 0x13
 4049 01e7 3F       		.uleb128 0x3f
 4050 01e8 19       		.uleb128 0x19
 4051 01e9 3C       		.uleb128 0x3c
 4052 01ea 19       		.uleb128 0x19
 4053 01eb 00       		.byte	0
 4054 01ec 00       		.byte	0
 4055 01ed 28       		.uleb128 0x28
 4056 01ee 2E       		.uleb128 0x2e
 4057 01ef 01       		.byte	0x1
 4058 01f0 03       		.uleb128 0x3
 4059 01f1 0E       		.uleb128 0xe
 4060 01f2 3A       		.uleb128 0x3a
 4061 01f3 0B       		.uleb128 0xb
 4062 01f4 3B       		.uleb128 0x3b
 4063 01f5 0B       		.uleb128 0xb
 4064 01f6 27       		.uleb128 0x27
 4065 01f7 19       		.uleb128 0x19
 4066 01f8 49       		.uleb128 0x49
 4067 01f9 13       		.uleb128 0x13
 4068 01fa 11       		.uleb128 0x11
 4069 01fb 01       		.uleb128 0x1
 4070 01fc 12       		.uleb128 0x12
 4071 01fd 06       		.uleb128 0x6
 4072 01fe 40       		.uleb128 0x40
 4073 01ff 18       		.uleb128 0x18
 4074 0200 9742     		.uleb128 0x2117
 4075 0202 19       		.uleb128 0x19
 4076 0203 01       		.uleb128 0x1
 4077 0204 13       		.uleb128 0x13
 4078 0205 00       		.byte	0
 4079 0206 00       		.byte	0
 4080 0207 29       		.uleb128 0x29
 4081 0208 05       		.uleb128 0x5
 4082 0209 00       		.byte	0
 4083 020a 03       		.uleb128 0x3
 4084 020b 0E       		.uleb128 0xe
 4085 020c 3A       		.uleb128 0x3a
 4086 020d 0B       		.uleb128 0xb
 4087 020e 3B       		.uleb128 0x3b
 4088 020f 0B       		.uleb128 0xb
 4089 0210 49       		.uleb128 0x49
 4090 0211 13       		.uleb128 0x13
 4091 0212 02       		.uleb128 0x2
 4092 0213 17       		.uleb128 0x17
ARM GAS  /tmp/ccyJylYd.s 			page 73


 4093 0214 00       		.byte	0
 4094 0215 00       		.byte	0
 4095 0216 2A       		.uleb128 0x2a
 4096 0217 05       		.uleb128 0x5
 4097 0218 00       		.byte	0
 4098 0219 03       		.uleb128 0x3
 4099 021a 0E       		.uleb128 0xe
 4100 021b 3A       		.uleb128 0x3a
 4101 021c 0B       		.uleb128 0xb
 4102 021d 3B       		.uleb128 0x3b
 4103 021e 0B       		.uleb128 0xb
 4104 021f 49       		.uleb128 0x49
 4105 0220 13       		.uleb128 0x13
 4106 0221 02       		.uleb128 0x2
 4107 0222 18       		.uleb128 0x18
 4108 0223 00       		.byte	0
 4109 0224 00       		.byte	0
 4110 0225 2B       		.uleb128 0x2b
 4111 0226 2E       		.uleb128 0x2e
 4112 0227 01       		.byte	0x1
 4113 0228 31       		.uleb128 0x31
 4114 0229 13       		.uleb128 0x13
 4115 022a 11       		.uleb128 0x11
 4116 022b 01       		.uleb128 0x1
 4117 022c 12       		.uleb128 0x12
 4118 022d 06       		.uleb128 0x6
 4119 022e 40       		.uleb128 0x40
 4120 022f 18       		.uleb128 0x18
 4121 0230 9742     		.uleb128 0x2117
 4122 0232 19       		.uleb128 0x19
 4123 0233 01       		.uleb128 0x1
 4124 0234 13       		.uleb128 0x13
 4125 0235 00       		.byte	0
 4126 0236 00       		.byte	0
 4127 0237 2C       		.uleb128 0x2c
 4128 0238 05       		.uleb128 0x5
 4129 0239 00       		.byte	0
 4130 023a 31       		.uleb128 0x31
 4131 023b 13       		.uleb128 0x13
 4132 023c 02       		.uleb128 0x2
 4133 023d 17       		.uleb128 0x17
 4134 023e 00       		.byte	0
 4135 023f 00       		.byte	0
 4136 0240 2D       		.uleb128 0x2d
 4137 0241 0B       		.uleb128 0xb
 4138 0242 01       		.byte	0x1
 4139 0243 11       		.uleb128 0x11
 4140 0244 01       		.uleb128 0x1
 4141 0245 12       		.uleb128 0x12
 4142 0246 06       		.uleb128 0x6
 4143 0247 00       		.byte	0
 4144 0248 00       		.byte	0
 4145 0249 2E       		.uleb128 0x2e
 4146 024a 34       		.uleb128 0x34
 4147 024b 00       		.byte	0
 4148 024c 31       		.uleb128 0x31
 4149 024d 13       		.uleb128 0x13
ARM GAS  /tmp/ccyJylYd.s 			page 74


 4150 024e 3C       		.uleb128 0x3c
 4151 024f 19       		.uleb128 0x19
 4152 0250 00       		.byte	0
 4153 0251 00       		.byte	0
 4154 0252 2F       		.uleb128 0x2f
 4155 0253 1D       		.uleb128 0x1d
 4156 0254 01       		.byte	0x1
 4157 0255 31       		.uleb128 0x31
 4158 0256 13       		.uleb128 0x13
 4159 0257 11       		.uleb128 0x11
 4160 0258 01       		.uleb128 0x1
 4161 0259 12       		.uleb128 0x12
 4162 025a 06       		.uleb128 0x6
 4163 025b 58       		.uleb128 0x58
 4164 025c 0B       		.uleb128 0xb
 4165 025d 59       		.uleb128 0x59
 4166 025e 05       		.uleb128 0x5
 4167 025f 01       		.uleb128 0x1
 4168 0260 13       		.uleb128 0x13
 4169 0261 00       		.byte	0
 4170 0262 00       		.byte	0
 4171 0263 30       		.uleb128 0x30
 4172 0264 1D       		.uleb128 0x1d
 4173 0265 01       		.byte	0x1
 4174 0266 31       		.uleb128 0x31
 4175 0267 13       		.uleb128 0x13
 4176 0268 11       		.uleb128 0x11
 4177 0269 01       		.uleb128 0x1
 4178 026a 12       		.uleb128 0x12
 4179 026b 06       		.uleb128 0x6
 4180 026c 58       		.uleb128 0x58
 4181 026d 0B       		.uleb128 0xb
 4182 026e 59       		.uleb128 0x59
 4183 026f 05       		.uleb128 0x5
 4184 0270 00       		.byte	0
 4185 0271 00       		.byte	0
 4186 0272 31       		.uleb128 0x31
 4187 0273 898201   		.uleb128 0x4109
 4188 0276 01       		.byte	0x1
 4189 0277 11       		.uleb128 0x11
 4190 0278 01       		.uleb128 0x1
 4191 0279 31       		.uleb128 0x31
 4192 027a 13       		.uleb128 0x13
 4193 027b 01       		.uleb128 0x1
 4194 027c 13       		.uleb128 0x13
 4195 027d 00       		.byte	0
 4196 027e 00       		.byte	0
 4197 027f 32       		.uleb128 0x32
 4198 0280 8A8201   		.uleb128 0x410a
 4199 0283 00       		.byte	0
 4200 0284 02       		.uleb128 0x2
 4201 0285 18       		.uleb128 0x18
 4202 0286 9142     		.uleb128 0x2111
 4203 0288 18       		.uleb128 0x18
 4204 0289 00       		.byte	0
 4205 028a 00       		.byte	0
 4206 028b 33       		.uleb128 0x33
ARM GAS  /tmp/ccyJylYd.s 			page 75


 4207 028c 898201   		.uleb128 0x4109
 4208 028f 00       		.byte	0
 4209 0290 11       		.uleb128 0x11
 4210 0291 01       		.uleb128 0x1
 4211 0292 31       		.uleb128 0x31
 4212 0293 13       		.uleb128 0x13
 4213 0294 00       		.byte	0
 4214 0295 00       		.byte	0
 4215 0296 34       		.uleb128 0x34
 4216 0297 34       		.uleb128 0x34
 4217 0298 00       		.byte	0
 4218 0299 03       		.uleb128 0x3
 4219 029a 0E       		.uleb128 0xe
 4220 029b 3A       		.uleb128 0x3a
 4221 029c 0B       		.uleb128 0xb
 4222 029d 3B       		.uleb128 0x3b
 4223 029e 0B       		.uleb128 0xb
 4224 029f 49       		.uleb128 0x49
 4225 02a0 13       		.uleb128 0x13
 4226 02a1 02       		.uleb128 0x2
 4227 02a2 18       		.uleb128 0x18
 4228 02a3 00       		.byte	0
 4229 02a4 00       		.byte	0
 4230 02a5 35       		.uleb128 0x35
 4231 02a6 34       		.uleb128 0x34
 4232 02a7 00       		.byte	0
 4233 02a8 03       		.uleb128 0x3
 4234 02a9 08       		.uleb128 0x8
 4235 02aa 3A       		.uleb128 0x3a
 4236 02ab 0B       		.uleb128 0xb
 4237 02ac 3B       		.uleb128 0x3b
 4238 02ad 05       		.uleb128 0x5
 4239 02ae 49       		.uleb128 0x49
 4240 02af 13       		.uleb128 0x13
 4241 02b0 3F       		.uleb128 0x3f
 4242 02b1 19       		.uleb128 0x19
 4243 02b2 3C       		.uleb128 0x3c
 4244 02b3 19       		.uleb128 0x19
 4245 02b4 00       		.byte	0
 4246 02b5 00       		.byte	0
 4247 02b6 36       		.uleb128 0x36
 4248 02b7 34       		.uleb128 0x34
 4249 02b8 00       		.byte	0
 4250 02b9 03       		.uleb128 0x3
 4251 02ba 0E       		.uleb128 0xe
 4252 02bb 3A       		.uleb128 0x3a
 4253 02bc 0B       		.uleb128 0xb
 4254 02bd 3B       		.uleb128 0x3b
 4255 02be 05       		.uleb128 0x5
 4256 02bf 49       		.uleb128 0x49
 4257 02c0 13       		.uleb128 0x13
 4258 02c1 3F       		.uleb128 0x3f
 4259 02c2 19       		.uleb128 0x19
 4260 02c3 02       		.uleb128 0x2
 4261 02c4 18       		.uleb128 0x18
 4262 02c5 00       		.byte	0
 4263 02c6 00       		.byte	0
ARM GAS  /tmp/ccyJylYd.s 			page 76


 4264 02c7 37       		.uleb128 0x37
 4265 02c8 2E       		.uleb128 0x2e
 4266 02c9 00       		.byte	0
 4267 02ca 3F       		.uleb128 0x3f
 4268 02cb 19       		.uleb128 0x19
 4269 02cc 3C       		.uleb128 0x3c
 4270 02cd 19       		.uleb128 0x19
 4271 02ce 6E       		.uleb128 0x6e
 4272 02cf 0E       		.uleb128 0xe
 4273 02d0 03       		.uleb128 0x3
 4274 02d1 0E       		.uleb128 0xe
 4275 02d2 3A       		.uleb128 0x3a
 4276 02d3 0B       		.uleb128 0xb
 4277 02d4 3B       		.uleb128 0x3b
 4278 02d5 05       		.uleb128 0x5
 4279 02d6 00       		.byte	0
 4280 02d7 00       		.byte	0
 4281 02d8 38       		.uleb128 0x38
 4282 02d9 2E       		.uleb128 0x2e
 4283 02da 00       		.byte	0
 4284 02db 3F       		.uleb128 0x3f
 4285 02dc 19       		.uleb128 0x19
 4286 02dd 3C       		.uleb128 0x3c
 4287 02de 19       		.uleb128 0x19
 4288 02df 6E       		.uleb128 0x6e
 4289 02e0 0E       		.uleb128 0xe
 4290 02e1 03       		.uleb128 0x3
 4291 02e2 0E       		.uleb128 0xe
 4292 02e3 3A       		.uleb128 0x3a
 4293 02e4 0B       		.uleb128 0xb
 4294 02e5 3B       		.uleb128 0x3b
 4295 02e6 0B       		.uleb128 0xb
 4296 02e7 00       		.byte	0
 4297 02e8 00       		.byte	0
 4298 02e9 00       		.byte	0
 4299              		.section	.debug_loc,"",%progbits
 4300              	.Ldebug_loc0:
 4301              	.LLST0:
 4302 0000 00000000 		.4byte	.LVL0
 4303 0004 0C000000 		.4byte	.LVL1
 4304 0008 0100     		.2byte	0x1
 4305 000a 50       		.byte	0x50
 4306 000b 0C000000 		.4byte	.LVL1
 4307 000f 12000000 		.4byte	.LVL2
 4308 0013 0400     		.2byte	0x4
 4309 0015 F3       		.byte	0xf3
 4310 0016 01       		.uleb128 0x1
 4311 0017 50       		.byte	0x50
 4312 0018 9F       		.byte	0x9f
 4313 0019 12000000 		.4byte	.LVL2
 4314 001d 14000000 		.4byte	.LVL3
 4315 0021 0100     		.2byte	0x1
 4316 0023 50       		.byte	0x50
 4317 0024 14000000 		.4byte	.LVL3
 4318 0028 16000000 		.4byte	.LVL4
 4319 002c 0400     		.2byte	0x4
 4320 002e F3       		.byte	0xf3
ARM GAS  /tmp/ccyJylYd.s 			page 77


 4321 002f 01       		.uleb128 0x1
 4322 0030 50       		.byte	0x50
 4323 0031 9F       		.byte	0x9f
 4324 0032 16000000 		.4byte	.LVL4
 4325 0036 20000000 		.4byte	.LVL6
 4326 003a 0100     		.2byte	0x1
 4327 003c 50       		.byte	0x50
 4328 003d 20000000 		.4byte	.LVL6
 4329 0041 30000000 		.4byte	.LFE258
 4330 0045 0400     		.2byte	0x4
 4331 0047 F3       		.byte	0xf3
 4332 0048 01       		.uleb128 0x1
 4333 0049 50       		.byte	0x50
 4334 004a 9F       		.byte	0x9f
 4335 004b 00000000 		.4byte	0
 4336 004f 00000000 		.4byte	0
 4337              	.LLST1:
 4338 0053 00000000 		.4byte	.LVL0
 4339 0057 1C000000 		.4byte	.LVL5
 4340 005b 0100     		.2byte	0x1
 4341 005d 53       		.byte	0x53
 4342 005e 1C000000 		.4byte	.LVL5
 4343 0062 30000000 		.4byte	.LFE258
 4344 0066 0400     		.2byte	0x4
 4345 0068 F3       		.byte	0xf3
 4346 0069 01       		.uleb128 0x1
 4347 006a 53       		.byte	0x53
 4348 006b 9F       		.byte	0x9f
 4349 006c 00000000 		.4byte	0
 4350 0070 00000000 		.4byte	0
 4351              	.LLST2:
 4352 0074 00000000 		.4byte	.LVL7
 4353 0078 17000000 		.4byte	.LVL11-1
 4354 007c 0100     		.2byte	0x1
 4355 007e 50       		.byte	0x50
 4356 007f 17000000 		.4byte	.LVL11-1
 4357 0083 30000000 		.4byte	.LVL15
 4358 0087 0100     		.2byte	0x1
 4359 0089 55       		.byte	0x55
 4360 008a 30000000 		.4byte	.LVL15
 4361 008e 40000000 		.4byte	.LFE259
 4362 0092 0100     		.2byte	0x1
 4363 0094 50       		.byte	0x50
 4364 0095 00000000 		.4byte	0
 4365 0099 00000000 		.4byte	0
 4366              	.LLST3:
 4367 009d 00000000 		.4byte	.LVL7
 4368 00a1 14000000 		.4byte	.LVL10
 4369 00a5 0100     		.2byte	0x1
 4370 00a7 51       		.byte	0x51
 4371 00a8 14000000 		.4byte	.LVL10
 4372 00ac 30000000 		.4byte	.LVL15
 4373 00b0 0400     		.2byte	0x4
 4374 00b2 F3       		.byte	0xf3
 4375 00b3 01       		.uleb128 0x1
 4376 00b4 51       		.byte	0x51
 4377 00b5 9F       		.byte	0x9f
ARM GAS  /tmp/ccyJylYd.s 			page 78


 4378 00b6 30000000 		.4byte	.LVL15
 4379 00ba 40000000 		.4byte	.LFE259
 4380 00be 0100     		.2byte	0x1
 4381 00c0 51       		.byte	0x51
 4382 00c1 00000000 		.4byte	0
 4383 00c5 00000000 		.4byte	0
 4384              	.LLST4:
 4385 00c9 0A000000 		.4byte	.LVL8
 4386 00cd 30000000 		.4byte	.LVL15
 4387 00d1 0200     		.2byte	0x2
 4388 00d3 32       		.byte	0x32
 4389 00d4 9F       		.byte	0x9f
 4390 00d5 00000000 		.4byte	0
 4391 00d9 00000000 		.4byte	0
 4392              	.LLST5:
 4393 00dd 0A000000 		.4byte	.LVL8
 4394 00e1 17000000 		.4byte	.LVL11-1
 4395 00e5 0100     		.2byte	0x1
 4396 00e7 50       		.byte	0x50
 4397 00e8 17000000 		.4byte	.LVL11-1
 4398 00ec 30000000 		.4byte	.LVL15
 4399 00f0 0100     		.2byte	0x1
 4400 00f2 55       		.byte	0x55
 4401 00f3 00000000 		.4byte	0
 4402 00f7 00000000 		.4byte	0
 4403              	.LLST6:
 4404 00fb 0A000000 		.4byte	.LVL8
 4405 00ff 10000000 		.4byte	.LVL9
 4406 0103 0300     		.2byte	0x3
 4407 0105 08       		.byte	0x8
 4408 0106 20       		.byte	0x20
 4409 0107 9F       		.byte	0x9f
 4410 0108 00000000 		.4byte	0
 4411 010c 00000000 		.4byte	0
 4412              	.LLST7:
 4413 0110 28000000 		.4byte	.LVL13
 4414 0114 2E000000 		.4byte	.LVL14
 4415 0118 0200     		.2byte	0x2
 4416 011a 30       		.byte	0x30
 4417 011b 9F       		.byte	0x9f
 4418 011c 00000000 		.4byte	0
 4419 0120 00000000 		.4byte	0
 4420              		.section	.debug_aranges,"",%progbits
 4421 0000 24000000 		.4byte	0x24
 4422 0004 0200     		.2byte	0x2
 4423 0006 00000000 		.4byte	.Ldebug_info0
 4424 000a 04       		.byte	0x4
 4425 000b 00       		.byte	0
 4426 000c 0000     		.2byte	0
 4427 000e 0000     		.2byte	0
 4428 0010 00000000 		.4byte	.LFB258
 4429 0014 30000000 		.4byte	.LFE258-.LFB258
 4430 0018 00000000 		.4byte	.LFB259
 4431 001c 40000000 		.4byte	.LFE259-.LFB259
 4432 0020 00000000 		.4byte	0
 4433 0024 00000000 		.4byte	0
 4434              		.section	.debug_ranges,"",%progbits
ARM GAS  /tmp/ccyJylYd.s 			page 79


 4435              	.Ldebug_ranges0:
 4436 0000 00000000 		.4byte	.LFB258
 4437 0004 30000000 		.4byte	.LFE258
 4438 0008 00000000 		.4byte	.LFB259
 4439 000c 40000000 		.4byte	.LFE259
 4440 0010 00000000 		.4byte	0
 4441 0014 00000000 		.4byte	0
 4442              		.section	.debug_line,"",%progbits
 4443              	.Ldebug_line0:
 4444 0000 07030000 		.section	.debug_str,"MS",%progbits,1
 4444      0200C202 
 4444      00000201 
 4444      FB0E0D00 
 4444      01010101 
 4445              	.LASF4:
 4446 0000 73697A65 		.ascii	"size_t\000"
 4446      5F7400
 4447              	.LASF83:
 4448 0007 73697A65 		.ascii	"sizetype\000"
 4448      74797065 
 4448      00
 4449              	.LASF94:
 4450 0010 77747365 		.ascii	"wtsemp\000"
 4450      6D7000
 4451              	.LASF30:
 4452 0017 73797374 		.ascii	"systime_t\000"
 4452      696D655F 
 4452      7400
 4453              	.LASF35:
 4454 0021 705F6374 		.ascii	"p_ctx\000"
 4454      7800
 4455              	.LASF332:
 4456 0027 76636F6D 		.ascii	"vcom_strings\000"
 4456      5F737472 
 4456      696E6773 
 4456      00
 4457              	.LASF25:
 4458 0034 74707269 		.ascii	"tprio_t\000"
 4458      6F5F7400 
 4459              	.LASF43:
 4460 003c 705F6D73 		.ascii	"p_msgqueue\000"
 4460      67717565 
 4460      756500
 4461              	.LASF59:
 4462 0047 725F6374 		.ascii	"r_ctx\000"
 4462      7800
 4463              	.LASF18:
 4464 004d 696E7433 		.ascii	"int32_t\000"
 4464      325F7400 
 4465              	.LASF309:
 4466 0055 77726974 		.ascii	"writet\000"
 4466      657400
 4467              	.LASF190:
 4468 005c 72657376 		.ascii	"resvd4\000"
 4468      643400
 4469              	.LASF181:
 4470 0063 72657376 		.ascii	"resvd8\000"
ARM GAS  /tmp/ccyJylYd.s 			page 80


 4470      643800
 4471              	.LASF63:
 4472 006a 76746675 		.ascii	"vtfunc_t\000"
 4472      6E635F74 
 4472      00
 4473              	.LASF192:
 4474 0073 72657376 		.ascii	"resvdC\000"
 4474      644300
 4475              	.LASF72:
 4476 007a 63685F76 		.ascii	"ch_virtual_timers_list\000"
 4476      69727475 
 4476      616C5F74 
 4476      696D6572 
 4476      735F6C69 
 4477              	.LASF158:
 4478 0091 5553425F 		.ascii	"USB_EP0_TX\000"
 4478      4550305F 
 4478      545800
 4479              	.LASF230:
 4480 009c 72657376 		.ascii	"resvd700\000"
 4480      64373030 
 4480      00
 4481              	.LASF111:
 4482 00a5 656C5F66 		.ascii	"el_flags\000"
 4482      6C616773 
 4482      00
 4483              	.LASF132:
 4484 00ae 636F6E66 		.ascii	"config\000"
 4484      696700
 4485              	.LASF131:
 4486 00b5 73746174 		.ascii	"state\000"
 4486      6500
 4487              	.LASF275:
 4488 00bb 65705F6D 		.ascii	"ep_mode\000"
 4488      6F646500 
 4489              	.LASF307:
 4490 00c3 70757474 		.ascii	"putt\000"
 4490      00
 4491              	.LASF155:
 4492 00c8 5553425F 		.ascii	"USB_ACTIVE\000"
 4492      41435449 
 4492      564500
 4493              	.LASF321:
 4494 00d3 64696E64 		.ascii	"dindex\000"
 4494      657800
 4495              	.LASF336:
 4496 00da 65703269 		.ascii	"ep2instate\000"
 4496      6E737461 
 4496      746500
 4497              	.LASF102:
 4498 00e5 6D5F6F77 		.ascii	"m_owner\000"
 4498      6E657200 
 4499              	.LASF70:
 4500 00ed 76745F70 		.ascii	"vt_par\000"
 4500      617200
 4501              	.LASF91:
 4502 00f4 65786974 		.ascii	"exitcode\000"
ARM GAS  /tmp/ccyJylYd.s 			page 81


 4502      636F6465 
 4502      00
 4503              	.LASF164:
 4504 00fd 75736265 		.ascii	"usbep0state_t\000"
 4504      70307374 
 4504      6174655F 
 4504      7400
 4505              	.LASF5:
 4506 010b 5F5F7569 		.ascii	"__uint8_t\000"
 4506      6E74385F 
 4506      7400
 4507              	.LASF121:
 4508 0115 715F746F 		.ascii	"q_top\000"
 4508      7000
 4509              	.LASF310:
 4510 011b 72656164 		.ascii	"readt\000"
 4510      7400
 4511              	.LASF333:
 4512 0121 65703169 		.ascii	"ep1instate\000"
 4512      6E737461 
 4512      746500
 4513              	.LASF325:
 4514 012c 76636F6D 		.ascii	"vcom_device_descriptor\000"
 4514      5F646576 
 4514      6963655F 
 4514      64657363 
 4514      72697074 
 4515              	.LASF120:
 4516 0143 715F6275 		.ascii	"q_buffer\000"
 4516      66666572 
 4516      00
 4517              	.LASF166:
 4518 014c 5553425F 		.ascii	"USB_EVENT_ADDRESS\000"
 4518      4556454E 
 4518      545F4144 
 4518      44524553 
 4518      5300
 4519              	.LASF211:
 4520 015e 44494550 		.ascii	"DIEPTXF0\000"
 4520      54584630 
 4520      00
 4521              	.LASF124:
 4522 0167 715F6E6F 		.ascii	"q_notify\000"
 4522      74696679 
 4522      00
 4523              	.LASF36:
 4524 0170 705F6E65 		.ascii	"p_newer\000"
 4524      77657200 
 4525              	.LASF334:
 4526 0178 6570316F 		.ascii	"ep1outstate\000"
 4526      75747374 
 4526      61746500 
 4527              	.LASF11:
 4528 0184 6C6F6E67 		.ascii	"long int\000"
 4528      20696E74 
 4528      00
 4529              	.LASF32:
ARM GAS  /tmp/ccyJylYd.s 			page 82


 4530 018d 705F6E65 		.ascii	"p_next\000"
 4530      787400
 4531              	.LASF312:
 4532 0194 706F7274 		.ascii	"port_unlock\000"
 4532      5F756E6C 
 4532      6F636B00 
 4533              	.LASF123:
 4534 01a0 715F7264 		.ascii	"q_rdptr\000"
 4534      70747200 
 4535              	.LASF265:
 4536 01a8 7478636E 		.ascii	"txcnt\000"
 4536      7400
 4537              	.LASF33:
 4538 01ae 705F7072 		.ascii	"p_prev\000"
 4538      657600
 4539              	.LASF316:
 4540 01b5 63685379 		.ascii	"chSysLockFromISR\000"
 4540      734C6F63 
 4540      6B46726F 
 4540      6D495352 
 4540      00
 4541              	.LASF23:
 4542 01c6 74737461 		.ascii	"tstate_t\000"
 4542      74655F74 
 4542      00
 4543              	.LASF53:
 4544 01cf 74687265 		.ascii	"threads_queue_t\000"
 4544      6164735F 
 4544      71756575 
 4544      655F7400 
 4545              	.LASF46:
 4546 01df 705F6D74 		.ascii	"p_mtxlist\000"
 4546      786C6973 
 4546      7400
 4547              	.LASF298:
 4548 01e9 6F717565 		.ascii	"oqueue\000"
 4548      756500
 4549              	.LASF259:
 4550 01f0 74786275 		.ascii	"txbuf\000"
 4550      6600
 4551              	.LASF84:
 4552 01f6 72656761 		.ascii	"regarm_t\000"
 4552      726D5F74 
 4552      00
 4553              	.LASF237:
 4554 01ff 4441494E 		.ascii	"DAINT\000"
 4554      5400
 4555              	.LASF157:
 4556 0205 5553425F 		.ascii	"USB_EP0_WAITING_SETUP\000"
 4556      4550305F 
 4556      57414954 
 4556      494E475F 
 4556      53455455 
 4557              	.LASF236:
 4558 021b 444F4550 		.ascii	"DOEPMSK\000"
 4558      4D534B00 
 4559              	.LASF345:
ARM GAS  /tmp/ccyJylYd.s 			page 83


 4560 0223 75736263 		.ascii	"usbcfg.c\000"
 4560      66672E63 
 4560      00
 4561              	.LASF117:
 4562 022c 696F5F71 		.ascii	"io_queue\000"
 4562      75657565 
 4562      00
 4563              	.LASF302:
 4564 0235 696E745F 		.ascii	"int_in\000"
 4564      696E00
 4565              	.LASF197:
 4566 023c 444F4550 		.ascii	"DOEPCTL\000"
 4566      43544C00 
 4567              	.LASF3:
 4568 0244 7369676E 		.ascii	"signed char\000"
 4568      65642063 
 4568      68617200 
 4569              	.LASF96:
 4570 0250 65776D61 		.ascii	"ewmask\000"
 4570      736B00
 4571              	.LASF16:
 4572 0257 75696E74 		.ascii	"uint8_t\000"
 4572      385F7400 
 4573              	.LASF170:
 4574 025f 5553425F 		.ascii	"USB_EVENT_STALLED\000"
 4574      4556454E 
 4574      545F5354 
 4574      414C4C45 
 4574      4400
 4575              	.LASF327:
 4576 0271 76636F6D 		.ascii	"vcom_configuration_descriptor\000"
 4576      5F636F6E 
 4576      66696775 
 4576      72617469 
 4576      6F6E5F64 
 4577              	.LASF198:
 4578 028f 444F4550 		.ascii	"DOEPINT\000"
 4578      494E5400 
 4579              	.LASF27:
 4580 0297 6576656E 		.ascii	"eventmask_t\000"
 4580      746D6173 
 4580      6B5F7400 
 4581              	.LASF86:
 4582 02a3 636F6E74 		.ascii	"context\000"
 4582      65787400 
 4583              	.LASF272:
 4584 02ab 72787369 		.ascii	"rxsize\000"
 4584      7A6500
 4585              	.LASF93:
 4586 02b2 77747472 		.ascii	"wttrp\000"
 4586      7000
 4587              	.LASF315:
 4588 02b8 63685379 		.ascii	"chSysUnlockFromISR\000"
 4588      73556E6C 
 4588      6F636B46 
 4588      726F6D49 
 4588      535200
ARM GAS  /tmp/ccyJylYd.s 			page 84


 4589              	.LASF6:
 4590 02cb 756E7369 		.ascii	"unsigned char\000"
 4590      676E6564 
 4590      20636861 
 4590      7200
 4591              	.LASF163:
 4592 02d9 5553425F 		.ascii	"USB_EP0_ERROR\000"
 4592      4550305F 
 4592      4552524F 
 4592      5200
 4593              	.LASF125:
 4594 02e7 715F6C69 		.ascii	"q_link\000"
 4594      6E6B00
 4595              	.LASF76:
 4596 02ee 70616E69 		.ascii	"panic_msg\000"
 4596      635F6D73 
 4596      6700
 4597              	.LASF231:
 4598 02f8 44434647 		.ascii	"DCFG\000"
 4598      00
 4599              	.LASF249:
 4600 02fd 72657376 		.ascii	"resvd8C0\000"
 4600      64384330 
 4600      00
 4601              	.LASF60:
 4602 0306 725F6E65 		.ascii	"r_newer\000"
 4602      77657200 
 4603              	.LASF215:
 4604 030e 47434346 		.ascii	"GCCFG\000"
 4604      4700
 4605              	.LASF137:
 4606 0314 65703073 		.ascii	"ep0state\000"
 4606      74617465 
 4606      00
 4607              	.LASF74:
 4608 031d 73797374 		.ascii	"system_debug_t\000"
 4608      656D5F64 
 4608      65627567 
 4608      5F7400
 4609              	.LASF193:
 4610 032c 44494550 		.ascii	"DIEPTSIZ\000"
 4610      5453495A 
 4610      00
 4611              	.LASF288:
 4612 0335 72657175 		.ascii	"requests_hook_cb\000"
 4612      65737473 
 4612      5F686F6F 
 4612      6B5F6362 
 4612      00
 4613              	.LASF129:
 4614 0346 5F426F6F 		.ascii	"_Bool\000"
 4614      6C00
 4615              	.LASF330:
 4616 034c 76636F6D 		.ascii	"vcom_string2\000"
 4616      5F737472 
 4616      696E6732 
 4616      00
ARM GAS  /tmp/ccyJylYd.s 			page 85


 4617              	.LASF319:
 4618 0359 76616C75 		.ascii	"value\000"
 4618      6500
 4619              	.LASF220:
 4620 035f 48434647 		.ascii	"HCFG\000"
 4620      00
 4621              	.LASF180:
 4622 0364 48434348 		.ascii	"HCCHAR\000"
 4622      415200
 4623              	.LASF200:
 4624 036b 73746D33 		.ascii	"stm32_otg_out_ep_t\000"
 4624      325F6F74 
 4624      675F6F75 
 4624      745F6570 
 4624      5F7400
 4625              	.LASF104:
 4626 037e 63686172 		.ascii	"char\000"
 4626      00
 4627              	.LASF139:
 4628 0383 6570306E 		.ascii	"ep0n\000"
 4628      00
 4629              	.LASF234:
 4630 0388 72657376 		.ascii	"resvd80C\000"
 4630      64383043 
 4630      00
 4631              	.LASF228:
 4632 0391 48505254 		.ascii	"HPRT\000"
 4632      00
 4633              	.LASF34:
 4634 0396 705F7072 		.ascii	"p_prio\000"
 4634      696F00
 4635              	.LASF134:
 4636 039d 72656365 		.ascii	"receiving\000"
 4636      6976696E 
 4636      6700
 4637              	.LASF8:
 4638 03a7 5F5F7569 		.ascii	"__uint16_t\000"
 4638      6E743136 
 4638      5F7400
 4639              	.LASF130:
 4640 03b2 55534244 		.ascii	"USBDriver\000"
 4640      72697665 
 4640      7200
 4641              	.LASF92:
 4642 03bc 77746F62 		.ascii	"wtobjp\000"
 4642      6A7000
 4643              	.LASF335:
 4644 03c3 65703163 		.ascii	"ep1config\000"
 4644      6F6E6669 
 4644      6700
 4645              	.LASF276:
 4646 03cd 73657475 		.ascii	"setup_cb\000"
 4646      705F6362 
 4646      00
 4647              	.LASF173:
 4648 03d6 75645F73 		.ascii	"ud_string\000"
 4648      7472696E 
ARM GAS  /tmp/ccyJylYd.s 			page 86


 4648      6700
 4649              	.LASF277:
 4650 03e0 696E5F63 		.ascii	"in_cb\000"
 4650      6200
 4651              	.LASF308:
 4652 03e6 67657474 		.ascii	"gett\000"
 4652      00
 4653              	.LASF85:
 4654 03eb 73746B61 		.ascii	"stkalign_t\000"
 4654      6C69676E 
 4654      5F7400
 4655              	.LASF222:
 4656 03f6 48464E55 		.ascii	"HFNUM\000"
 4656      4D00
 4657              	.LASF177:
 4658 03fc 75736265 		.ascii	"usbeventcb_t\000"
 4658      76656E74 
 4658      63625F74 
 4658      00
 4659              	.LASF188:
 4660 0409 73746D33 		.ascii	"stm32_otg_host_chn_t\000"
 4660      325F6F74 
 4660      675F686F 
 4660      73745F63 
 4660      686E5F74 
 4661              	.LASF106:
 4662 041e 6576656E 		.ascii	"event_listener_t\000"
 4662      745F6C69 
 4662      7374656E 
 4662      65725F74 
 4662      00
 4663              	.LASF133:
 4664 042f 7472616E 		.ascii	"transmitting\000"
 4664      736D6974 
 4664      74696E67 
 4664      00
 4665              	.LASF184:
 4666 043c 48435453 		.ascii	"HCTSIZ\000"
 4666      495A00
 4667              	.LASF268:
 4668 0443 55534249 		.ascii	"USBInEndpointState\000"
 4668      6E456E64 
 4668      706F696E 
 4668      74537461 
 4668      746500
 4669              	.LASF239:
 4670 0456 72657376 		.ascii	"resvd820\000"
 4670      64383230 
 4670      00
 4671              	.LASF240:
 4672 045f 72657376 		.ascii	"resvd824\000"
 4672      64383234 
 4672      00
 4673              	.LASF242:
 4674 0468 44564255 		.ascii	"DVBUSPULSE\000"
 4674      5350554C 
 4674      534500
ARM GAS  /tmp/ccyJylYd.s 			page 87


 4675              	.LASF337:
 4676 0473 65703263 		.ascii	"ep2config\000"
 4676      6F6E6669 
 4676      6700
 4677              	.LASF29:
 4678 047d 636E745F 		.ascii	"cnt_t\000"
 4678      7400
 4679              	.LASF69:
 4680 0483 76745F66 		.ascii	"vt_func\000"
 4680      756E6300 
 4681              	.LASF174:
 4682 048b 55534244 		.ascii	"USBDescriptor\000"
 4682      65736372 
 4682      6970746F 
 4682      7200
 4683              	.LASF258:
 4684 0499 73746D33 		.ascii	"stm32_otg_params_t\000"
 4684      325F6F74 
 4684      675F7061 
 4684      72616D73 
 4684      5F7400
 4685              	.LASF141:
 4686 04ac 73657475 		.ascii	"setup\000"
 4686      7000
 4687              	.LASF45:
 4688 04b2 705F6570 		.ascii	"p_epending\000"
 4688      656E6469 
 4688      6E6700
 4689              	.LASF95:
 4690 04bd 77746D74 		.ascii	"wtmtxp\000"
 4690      787000
 4691              	.LASF171:
 4692 04c4 75736265 		.ascii	"usbevent_t\000"
 4692      76656E74 
 4692      5F7400
 4693              	.LASF56:
 4694 04cf 63685F72 		.ascii	"ch_ready_list\000"
 4694      65616479 
 4694      5F6C6973 
 4694      7400
 4695              	.LASF172:
 4696 04dd 75645F73 		.ascii	"ud_size\000"
 4696      697A6500 
 4697              	.LASF304:
 4698 04e5 53657269 		.ascii	"SerialUSBDriverVMT\000"
 4698      616C5553 
 4698      42447269 
 4698      76657256 
 4698      4D5400
 4699              	.LASF154:
 4700 04f8 5553425F 		.ascii	"USB_SELECTED\000"
 4700      53454C45 
 4700      43544544 
 4700      00
 4701              	.LASF144:
 4702 0505 636F6E66 		.ascii	"configuration\000"
 4702      69677572 
ARM GAS  /tmp/ccyJylYd.s 			page 88


 4702      6174696F 
 4702      6E00
 4703              	.LASF267:
 4704 0513 746F7473 		.ascii	"totsize\000"
 4704      697A6500 
 4705              	.LASF210:
 4706 051b 47525846 		.ascii	"GRXFSIZ\000"
 4706      53495A00 
 4707              	.LASF114:
 4708 0523 65735F6E 		.ascii	"es_next\000"
 4708      65787400 
 4709              	.LASF119:
 4710 052b 715F636F 		.ascii	"q_counter\000"
 4710      756E7465 
 4710      7200
 4711              	.LASF247:
 4712 0535 72657376 		.ascii	"resvd840\000"
 4712      64383430 
 4712      00
 4713              	.LASF14:
 4714 053e 5F5F7569 		.ascii	"__uint64_t\000"
 4714      6E743634 
 4714      5F7400
 4715              	.LASF218:
 4716 0549 44494550 		.ascii	"DIEPTXF\000"
 4716      54584600 
 4717              	.LASF13:
 4718 0551 6C6F6E67 		.ascii	"long unsigned int\000"
 4718      20756E73 
 4718      69676E65 
 4718      6420696E 
 4718      7400
 4719              	.LASF142:
 4720 0563 73746174 		.ascii	"status\000"
 4720      757300
 4721              	.LASF300:
 4722 056a 62756C6B 		.ascii	"bulk_in\000"
 4722      5F696E00 
 4723              	.LASF143:
 4724 0572 61646472 		.ascii	"address\000"
 4724      65737300 
 4725              	.LASF97:
 4726 057a 63685F73 		.ascii	"ch_semaphore\000"
 4726      656D6170 
 4726      686F7265 
 4726      00
 4727              	.LASF140:
 4728 0587 65703065 		.ascii	"ep0endcb\000"
 4728      6E646362 
 4728      00
 4729              	.LASF51:
 4730 0590 63685F74 		.ascii	"ch_thread\000"
 4730      68726561 
 4730      6400
 4731              	.LASF203:
 4732 059a 47414842 		.ascii	"GAHBCFG\000"
 4732      43464700 
ARM GAS  /tmp/ccyJylYd.s 			page 89


 4733              	.LASF71:
 4734 05a2 76697274 		.ascii	"virtual_timers_list_t\000"
 4734      75616C5F 
 4734      74696D65 
 4734      72735F6C 
 4734      6973745F 
 4735              	.LASF283:
 4736 05b8 696E5F6D 		.ascii	"in_multiplier\000"
 4736      756C7469 
 4736      706C6965 
 4736      7200
 4737              	.LASF108:
 4738 05c6 656C5F6E 		.ascii	"el_next\000"
 4738      65787400 
 4739              	.LASF299:
 4740 05ce 75736270 		.ascii	"usbp\000"
 4740      00
 4741              	.LASF257:
 4742 05d3 6E756D5F 		.ascii	"num_endpoints\000"
 4742      656E6470 
 4742      6F696E74 
 4742      7300
 4743              	.LASF64:
 4744 05e1 76697274 		.ascii	"virtual_timer_t\000"
 4744      75616C5F 
 4744      74696D65 
 4744      725F7400 
 4745              	.LASF55:
 4746 05f1 72656164 		.ascii	"ready_list_t\000"
 4746      795F6C69 
 4746      73745F74 
 4746      00
 4747              	.LASF122:
 4748 05fe 715F7772 		.ascii	"q_wrptr\000"
 4748      70747200 
 4749              	.LASF264:
 4750 0606 74787369 		.ascii	"txsize\000"
 4750      7A6500
 4751              	.LASF293:
 4752 060d 5344555F 		.ascii	"SDU_READY\000"
 4752      52454144 
 4752      5900
 4753              	.LASF305:
 4754 0617 77726974 		.ascii	"write\000"
 4754      6500
 4755              	.LASF273:
 4756 061d 7278636E 		.ascii	"rxcnt\000"
 4756      7400
 4757              	.LASF156:
 4758 0623 75736273 		.ascii	"usbstate_t\000"
 4758      74617465 
 4758      5F7400
 4759              	.LASF52:
 4760 062e 63685F74 		.ascii	"ch_threads_list\000"
 4760      68726561 
 4760      64735F6C 
 4760      69737400 
ARM GAS  /tmp/ccyJylYd.s 			page 90


 4761              	.LASF223:
 4762 063e 72657376 		.ascii	"resvd40C\000"
 4762      64343043 
 4762      00
 4763              	.LASF201:
 4764 0647 474F5447 		.ascii	"GOTGCTL\000"
 4764      43544C00 
 4765              	.LASF269:
 4766 064f 72786275 		.ascii	"rxbuf\000"
 4766      6600
 4767              	.LASF209:
 4768 0655 47525853 		.ascii	"GRXSTSP\000"
 4768      54535000 
 4769              	.LASF281:
 4770 065d 696E5F73 		.ascii	"in_state\000"
 4770      74617465 
 4770      00
 4771              	.LASF208:
 4772 0666 47525853 		.ascii	"GRXSTSR\000"
 4772      54535200 
 4773              	.LASF169:
 4774 066e 5553425F 		.ascii	"USB_EVENT_WAKEUP\000"
 4774      4556454E 
 4774      545F5741 
 4774      4B455550 
 4774      00
 4775              	.LASF251:
 4776 067f 50434743 		.ascii	"PCGCCTL\000"
 4776      43544C00 
 4777              	.LASF12:
 4778 0687 5F5F7569 		.ascii	"__uint32_t\000"
 4778      6E743332 
 4778      5F7400
 4779              	.LASF286:
 4780 0692 6576656E 		.ascii	"event_cb\000"
 4780      745F6362 
 4780      00
 4781              	.LASF202:
 4782 069b 474F5447 		.ascii	"GOTGINT\000"
 4782      494E5400 
 4783              	.LASF347:
 4784 06a3 6765745F 		.ascii	"get_descriptor\000"
 4784      64657363 
 4784      72697074 
 4784      6F7200
 4785              	.LASF1:
 4786 06b2 6C6F6E67 		.ascii	"long long int\000"
 4786      206C6F6E 
 4786      6720696E 
 4786      7400
 4787              	.LASF153:
 4788 06c0 5553425F 		.ascii	"USB_READY\000"
 4788      52454144 
 4788      5900
 4789              	.LASF323:
 4790 06ca 53445531 		.ascii	"SDU1\000"
 4790      00
ARM GAS  /tmp/ccyJylYd.s 			page 91


 4791              	.LASF101:
 4792 06cf 6D5F7175 		.ascii	"m_queue\000"
 4792      65756500 
 4793              	.LASF313:
 4794 06d7 706F7274 		.ascii	"port_lock_from_isr\000"
 4794      5F6C6F63 
 4794      6B5F6672 
 4794      6F6D5F69 
 4794      737200
 4795              	.LASF227:
 4796 06ea 72657376 		.ascii	"resvd41C\000"
 4796      64343143 
 4796      00
 4797              	.LASF66:
 4798 06f3 76745F6E 		.ascii	"vt_next\000"
 4798      65787400 
 4799              	.LASF138:
 4800 06fb 6570306E 		.ascii	"ep0next\000"
 4800      65787400 
 4801              	.LASF67:
 4802 0703 76745F70 		.ascii	"vt_prev\000"
 4802      72657600 
 4803              	.LASF297:
 4804 070b 69717565 		.ascii	"iqueue\000"
 4804      756500
 4805              	.LASF243:
 4806 0712 72657376 		.ascii	"resvd830\000"
 4806      64383330 
 4806      00
 4807              	.LASF115:
 4808 071b 6576656E 		.ascii	"event_source_t\000"
 4808      745F736F 
 4808      75726365 
 4808      5F7400
 4809              	.LASF245:
 4810 072a 72657376 		.ascii	"resvd838\000"
 4810      64383338 
 4810      00
 4811              	.LASF176:
 4812 0733 75736265 		.ascii	"usbepcallback_t\000"
 4812      7063616C 
 4812      6C626163 
 4812      6B5F7400 
 4813              	.LASF248:
 4814 0743 72657376 		.ascii	"resvd880\000"
 4814      64383830 
 4814      00
 4815              	.LASF338:
 4816 074c 49544D5F 		.ascii	"ITM_RxBuffer\000"
 4816      52784275 
 4816      66666572 
 4816      00
 4817              	.LASF246:
 4818 0759 72657376 		.ascii	"resvd83C\000"
 4818      64383343 
 4818      00
 4819              	.LASF148:
ARM GAS  /tmp/ccyJylYd.s 			page 92


 4820 0762 77616974 		.ascii	"wait\000"
 4820      00
 4821              	.LASF126:
 4822 0767 716E6F74 		.ascii	"qnotify_t\000"
 4822      6966795F 
 4822      7400
 4823              	.LASF42:
 4824 0771 705F7761 		.ascii	"p_waiting\000"
 4824      6974696E 
 4824      6700
 4825              	.LASF296:
 4826 077b 6576656E 		.ascii	"event\000"
 4826      7400
 4827              	.LASF40:
 4828 0781 705F666C 		.ascii	"p_flags\000"
 4828      61677300 
 4829              	.LASF199:
 4830 0789 444F4550 		.ascii	"DOEPTSIZ\000"
 4830      5453495A 
 4830      00
 4831              	.LASF306:
 4832 0792 72656164 		.ascii	"read\000"
 4832      00
 4833              	.LASF82:
 4834 0797 69646C65 		.ascii	"idle_thread_wa\000"
 4834      5F746872 
 4834      6561645F 
 4834      776100
 4835              	.LASF225:
 4836 07a6 4841494E 		.ascii	"HAINT\000"
 4836      5400
 4837              	.LASF0:
 4838 07ac 756E7369 		.ascii	"unsigned int\000"
 4838      676E6564 
 4838      20696E74 
 4838      00
 4839              	.LASF290:
 4840 07b9 55534243 		.ascii	"USBConfig\000"
 4840      6F6E6669 
 4840      6700
 4841              	.LASF294:
 4842 07c3 73647573 		.ascii	"sdustate_t\000"
 4842      74617465 
 4842      5F7400
 4843              	.LASF21:
 4844 07ce 7274636E 		.ascii	"rtcnt_t\000"
 4844      745F7400 
 4845              	.LASF147:
 4846 07d6 74787065 		.ascii	"txpending\000"
 4846      6E64696E 
 4846      6700
 4847              	.LASF48:
 4848 07e0 705F6D70 		.ascii	"p_mpool\000"
 4848      6F6F6C00 
 4849              	.LASF346:
 4850 07e8 2F686F6D 		.ascii	"/home/selim/working/test/8_kanal_adc\000"
 4850      652F7365 
ARM GAS  /tmp/ccyJylYd.s 			page 93


 4850      6C696D2F 
 4850      776F726B 
 4850      696E672F 
 4851              	.LASF254:
 4852 080d 73746D33 		.ascii	"stm32_otg_t\000"
 4852      325F6F74 
 4852      675F7400 
 4853              	.LASF41:
 4854 0819 705F7265 		.ascii	"p_refs\000"
 4854      667300
 4855              	.LASF284:
 4856 0820 73657475 		.ascii	"setup_buf\000"
 4856      705F6275 
 4856      6600
 4857              	.LASF112:
 4858 082a 656C5F77 		.ascii	"el_wflags\000"
 4858      666C6167 
 4858      7300
 4859              	.LASF110:
 4860 0834 656C5F65 		.ascii	"el_events\000"
 4860      76656E74 
 4860      7300
 4861              	.LASF229:
 4862 083e 72657376 		.ascii	"resvd444\000"
 4862      64343434 
 4862      00
 4863              	.LASF278:
 4864 0847 6F75745F 		.ascii	"out_cb\000"
 4864      636200
 4865              	.LASF303:
 4866 084e 53657269 		.ascii	"SerialUSBConfig\000"
 4866      616C5553 
 4866      42436F6E 
 4866      66696700 
 4867              	.LASF88:
 4868 085e 6F666673 		.ascii	"offset\000"
 4868      657400
 4869              	.LASF226:
 4870 0865 4841494E 		.ascii	"HAINTMSK\000"
 4870      544D534B 
 4870      00
 4871              	.LASF152:
 4872 086e 5553425F 		.ascii	"USB_STOP\000"
 4872      53544F50 
 4872      00
 4873              	.LASF279:
 4874 0877 696E5F6D 		.ascii	"in_maxsize\000"
 4874      61787369 
 4874      7A6500
 4875              	.LASF207:
 4876 0882 47494E54 		.ascii	"GINTMSK\000"
 4876      4D534B00 
 4877              	.LASF328:
 4878 088a 76636F6D 		.ascii	"vcom_string0\000"
 4878      5F737472 
 4878      696E6730 
 4878      00
ARM GAS  /tmp/ccyJylYd.s 			page 94


 4879              	.LASF282:
 4880 0897 6F75745F 		.ascii	"out_state\000"
 4880      73746174 
 4880      6500
 4881              	.LASF31:
 4882 08a1 74687265 		.ascii	"thread_t\000"
 4882      61645F74 
 4882      00
 4883              	.LASF2:
 4884 08aa 6C6F6E67 		.ascii	"long double\000"
 4884      20646F75 
 4884      626C6500 
 4885              	.LASF49:
 4886 08b6 74687265 		.ascii	"thread_reference_t\000"
 4886      61645F72 
 4886      65666572 
 4886      656E6365 
 4886      5F7400
 4887              	.LASF295:
 4888 08c9 53657269 		.ascii	"SerialUSBDriver\000"
 4888      616C5553 
 4888      42447269 
 4888      76657200 
 4889              	.LASF47:
 4890 08d9 705F7265 		.ascii	"p_realprio\000"
 4890      616C7072 
 4890      696F00
 4891              	.LASF159:
 4892 08e4 5553425F 		.ascii	"USB_EP0_WAITING_TX0\000"
 4892      4550305F 
 4892      57414954 
 4892      494E475F 
 4892      54583000 
 4893              	.LASF87:
 4894 08f8 706F7274 		.ascii	"port_intctx\000"
 4894      5F696E74 
 4894      63747800 
 4895              	.LASF145:
 4896 0904 6F746770 		.ascii	"otgparams\000"
 4896      6172616D 
 4896      7300
 4897              	.LASF314:
 4898 090e 706F7274 		.ascii	"port_unlock_from_isr\000"
 4898      5F756E6C 
 4898      6F636B5F 
 4898      66726F6D 
 4898      5F697372 
 4899              	.LASF68:
 4900 0923 76745F64 		.ascii	"vt_delta\000"
 4900      656C7461 
 4900      00
 4901              	.LASF151:
 4902 092c 5553425F 		.ascii	"USB_UNINIT\000"
 4902      554E494E 
 4902      495400
 4903              	.LASF65:
 4904 0937 63685F76 		.ascii	"ch_virtual_timer\000"
ARM GAS  /tmp/ccyJylYd.s 			page 95


 4904      69727475 
 4904      616C5F74 
 4904      696D6572 
 4904      00
 4905              	.LASF99:
 4906 0948 735F636E 		.ascii	"s_cnt\000"
 4906      7400
 4907              	.LASF274:
 4908 094e 5553424F 		.ascii	"USBOutEndpointState\000"
 4908      7574456E 
 4908      64706F69 
 4908      6E745374 
 4908      61746500 
 4909              	.LASF250:
 4910 0962 72657376 		.ascii	"resvdD00\000"
 4910      64443030 
 4910      00
 4911              	.LASF15:
 4912 096b 6C6F6E67 		.ascii	"long long unsigned int\000"
 4912      206C6F6E 
 4912      6720756E 
 4912      7369676E 
 4912      65642069 
 4913              	.LASF217:
 4914 0982 48505458 		.ascii	"HPTXFSIZ\000"
 4914      4653495A 
 4914      00
 4915              	.LASF37:
 4916 098b 705F6F6C 		.ascii	"p_older\000"
 4916      64657200 
 4917              	.LASF17:
 4918 0993 75696E74 		.ascii	"uint16_t\000"
 4918      31365F74 
 4918      00
 4919              	.LASF182:
 4920 099c 4843494E 		.ascii	"HCINT\000"
 4920      5400
 4921              	.LASF261:
 4922 09a2 6C696E65 		.ascii	"linear\000"
 4922      617200
 4923              	.LASF26:
 4924 09a9 6D73675F 		.ascii	"msg_t\000"
 4924      7400
 4925              	.LASF232:
 4926 09af 4443544C 		.ascii	"DCTL\000"
 4926      00
 4927              	.LASF54:
 4928 09b4 63685F74 		.ascii	"ch_threads_queue\000"
 4928      68726561 
 4928      64735F71 
 4928      75657565 
 4928      00
 4929              	.LASF285:
 4930 09c5 55534245 		.ascii	"USBEndpointConfig\000"
 4930      6E64706F 
 4930      696E7443 
 4930      6F6E6669 
ARM GAS  /tmp/ccyJylYd.s 			page 96


 4930      6700
 4931              	.LASF326:
 4932 09d7 76636F6D 		.ascii	"vcom_configuration_descriptor_data\000"
 4932      5F636F6E 
 4932      66696775 
 4932      72617469 
 4932      6F6E5F64 
 4933              	.LASF28:
 4934 09fa 6576656E 		.ascii	"eventflags_t\000"
 4934      74666C61 
 4934      67735F74 
 4934      00
 4935              	.LASF183:
 4936 0a07 4843494E 		.ascii	"HCINTMSK\000"
 4936      544D534B 
 4936      00
 4937              	.LASF271:
 4938 0a10 72787175 		.ascii	"rxqueued\000"
 4938      65756564 
 4938      00
 4939              	.LASF340:
 4940 0a19 75736263 		.ascii	"usbcfg\000"
 4940      666700
 4941              	.LASF62:
 4942 0a20 725F6375 		.ascii	"r_current\000"
 4942      7272656E 
 4942      7400
 4943              	.LASF342:
 4944 0a2a 75736249 		.ascii	"usbInitEndpointI\000"
 4944      6E697445 
 4944      6E64706F 
 4944      696E7449 
 4944      00
 4945              	.LASF262:
 4946 0a3b 71756575 		.ascii	"queue\000"
 4946      6500
 4947              	.LASF270:
 4948 0a41 72787175 		.ascii	"rxqueue\000"
 4948      65756500 
 4949              	.LASF81:
 4950 0a49 6D61696E 		.ascii	"mainthread\000"
 4950      74687265 
 4950      616400
 4951              	.LASF238:
 4952 0a54 4441494E 		.ascii	"DAINTMSK\000"
 4952      544D534B 
 4952      00
 4953              	.LASF241:
 4954 0a5d 44564255 		.ascii	"DVBUSDIS\000"
 4954      53444953 
 4954      00
 4955              	.LASF196:
 4956 0a66 73746D33 		.ascii	"stm32_otg_in_ep_t\000"
 4956      325F6F74 
 4956      675F696E 
 4956      5F65705F 
 4956      7400
ARM GAS  /tmp/ccyJylYd.s 			page 97


 4957              	.LASF317:
 4958 0a78 5F5F7365 		.ascii	"__set_BASEPRI\000"
 4958      745F4241 
 4958      53455052 
 4958      4900
 4959              	.LASF256:
 4960 0a86 6F74675F 		.ascii	"otg_ram_size\000"
 4960      72616D5F 
 4960      73697A65 
 4960      00
 4961              	.LASF280:
 4962 0a93 6F75745F 		.ascii	"out_maxsize\000"
 4962      6D617873 
 4962      697A6500 
 4963              	.LASF57:
 4964 0a9f 725F7175 		.ascii	"r_queue\000"
 4964      65756500 
 4965              	.LASF167:
 4966 0aa7 5553425F 		.ascii	"USB_EVENT_CONFIGURED\000"
 4966      4556454E 
 4966      545F434F 
 4966      4E464947 
 4966      55524544 
 4967              	.LASF253:
 4968 0abc 4649464F 		.ascii	"FIFO\000"
 4968      00
 4969              	.LASF118:
 4970 0ac1 715F7761 		.ascii	"q_waiting\000"
 4970      6974696E 
 4970      6700
 4971              	.LASF79:
 4972 0acb 726C6973 		.ascii	"rlist\000"
 4972      7400
 4973              	.LASF22:
 4974 0ad1 746D6F64 		.ascii	"tmode_t\000"
 4974      655F7400 
 4975              	.LASF320:
 4976 0ad9 64747970 		.ascii	"dtype\000"
 4976      6500
 4977              	.LASF179:
 4978 0adf 75736267 		.ascii	"usbgetdescriptor_t\000"
 4978      65746465 
 4978      73637269 
 4978      70746F72 
 4978      5F7400
 4979              	.LASF149:
 4980 0af2 77615F70 		.ascii	"wa_pump\000"
 4980      756D7000 
 4981              	.LASF135:
 4982 0afa 696E5F70 		.ascii	"in_params\000"
 4982      6172616D 
 4982      7300
 4983              	.LASF61:
 4984 0b04 725F6F6C 		.ascii	"r_older\000"
 4984      64657200 
 4985              	.LASF89:
 4986 0b0c 746D5F63 		.ascii	"tm_calibration_t\000"
ARM GAS  /tmp/ccyJylYd.s 			page 98


 4986      616C6962 
 4986      72617469 
 4986      6F6E5F74 
 4986      00
 4987              	.LASF311:
 4988 0b1d 706F7274 		.ascii	"port_lock\000"
 4988      5F6C6F63 
 4988      6B00
 4989              	.LASF98:
 4990 0b27 735F7175 		.ascii	"s_queue\000"
 4990      65756500 
 4991              	.LASF7:
 4992 0b2f 73686F72 		.ascii	"short int\000"
 4992      7420696E 
 4992      7400
 4993              	.LASF113:
 4994 0b39 6576656E 		.ascii	"event_source\000"
 4994      745F736F 
 4994      75726365 
 4994      00
 4995              	.LASF255:
 4996 0b46 72785F66 		.ascii	"rx_fifo_size\000"
 4996      69666F5F 
 4996      73697A65 
 4996      00
 4997              	.LASF20:
 4998 0b53 75696E74 		.ascii	"uint64_t\000"
 4998      36345F74 
 4998      00
 4999              	.LASF266:
 5000 0b5c 6D6F6465 		.ascii	"mode\000"
 5000      00
 5001              	.LASF322:
 5002 0b61 6C616E67 		.ascii	"lang\000"
 5002      00
 5003              	.LASF100:
 5004 0b66 63685F6D 		.ascii	"ch_mutex\000"
 5004      75746578 
 5004      00
 5005              	.LASF165:
 5006 0b6f 5553425F 		.ascii	"USB_EVENT_RESET\000"
 5006      4556454E 
 5006      545F5245 
 5006      53455400 
 5007              	.LASF185:
 5008 0b7f 72657376 		.ascii	"resvd14\000"
 5008      64313400 
 5009              	.LASF186:
 5010 0b87 72657376 		.ascii	"resvd18\000"
 5010      64313800 
 5011              	.LASF194:
 5012 0b8f 44545846 		.ascii	"DTXFSTS\000"
 5012      53545300 
 5013              	.LASF260:
 5014 0b97 74787175 		.ascii	"txqueue\000"
 5014      65756500 
 5015              	.LASF195:
ARM GAS  /tmp/ccyJylYd.s 			page 99


 5016 0b9f 72657376 		.ascii	"resvd1C\000"
 5016      64314300 
 5017              	.LASF235:
 5018 0ba7 44494550 		.ascii	"DIEPMSK\000"
 5018      4D534B00 
 5019              	.LASF58:
 5020 0baf 725F7072 		.ascii	"r_prio\000"
 5020      696F00
 5021              	.LASF75:
 5022 0bb6 63685F73 		.ascii	"ch_system_debug\000"
 5022      79737465 
 5022      6D5F6465 
 5022      62756700 
 5023              	.LASF344:
 5024 0bc6 474E5520 		.ascii	"GNU C11 5.3.1 20160307 (release) [ARM/embedded-5-br"
 5024      43313120 
 5024      352E332E 
 5024      31203230 
 5024      31363033 
 5025 0bf9 616E6368 		.ascii	"anch revision 234589] -mcpu=cortex-m4 -mno-thumb-in"
 5025      20726576 
 5025      6973696F 
 5025      6E203233 
 5025      34353839 
 5026 0c2c 74657277 		.ascii	"terwork -mthumb -ggdb -O2 -fomit-frame-pointer -fal"
 5026      6F726B20 
 5026      2D6D7468 
 5026      756D6220 
 5026      2D676764 
 5027 0c5f 69676E2D 		.ascii	"ign-functions=16 -ffunction-sections -fdata-section"
 5027      66756E63 
 5027      74696F6E 
 5027      733D3136 
 5027      202D6666 
 5028 0c92 73202D66 		.ascii	"s -fno-common\000"
 5028      6E6F2D63 
 5028      6F6D6D6F 
 5028      6E00
 5029              	.LASF244:
 5030 0ca0 44494550 		.ascii	"DIEPEMPMSK\000"
 5030      454D504D 
 5030      534B00
 5031              	.LASF187:
 5032 0cab 72657376 		.ascii	"resvd1c\000"
 5032      64316300 
 5033              	.LASF116:
 5034 0cb3 696F5F71 		.ascii	"io_queue_t\000"
 5034      75657565 
 5034      5F7400
 5035              	.LASF178:
 5036 0cbe 75736272 		.ascii	"usbreqhandler_t\000"
 5036      65716861 
 5036      6E646C65 
 5036      725F7400 
 5037              	.LASF189:
 5038 0cce 44494550 		.ascii	"DIEPCTL\000"
 5038      43544C00 
ARM GAS  /tmp/ccyJylYd.s 			page 100


 5039              	.LASF175:
 5040 0cd6 75736263 		.ascii	"usbcallback_t\000"
 5040      616C6C62 
 5040      61636B5F 
 5040      7400
 5041              	.LASF205:
 5042 0ce4 47525354 		.ascii	"GRSTCTL\000"
 5042      43544C00 
 5043              	.LASF206:
 5044 0cec 47494E54 		.ascii	"GINTSTS\000"
 5044      53545300 
 5045              	.LASF80:
 5046 0cf4 76746C69 		.ascii	"vtlist\000"
 5046      737400
 5047              	.LASF324:
 5048 0cfb 76636F6D 		.ascii	"vcom_device_descriptor_data\000"
 5048      5F646576 
 5048      6963655F 
 5048      64657363 
 5048      72697074 
 5049              	.LASF191:
 5050 0d17 44494550 		.ascii	"DIEPINT\000"
 5050      494E5400 
 5051              	.LASF212:
 5052 0d1f 484E5054 		.ascii	"HNPTXSTS\000"
 5052      58535453 
 5052      00
 5053              	.LASF339:
 5054 0d28 55534244 		.ascii	"USBD1\000"
 5054      3100
 5055              	.LASF105:
 5056 0d2e 6D757465 		.ascii	"mutex_t\000"
 5056      785F7400 
 5057              	.LASF24:
 5058 0d36 74726566 		.ascii	"trefs_t\000"
 5058      735F7400 
 5059              	.LASF50:
 5060 0d3e 74687265 		.ascii	"threads_list_t\000"
 5060      6164735F 
 5060      6C697374 
 5060      5F7400
 5061              	.LASF289:
 5062 0d4d 736F665F 		.ascii	"sof_cb\000"
 5062      636200
 5063              	.LASF252:
 5064 0d54 72657376 		.ascii	"resvdE04\000"
 5064      64453034 
 5064      00
 5065              	.LASF213:
 5066 0d5d 72657376 		.ascii	"resvd30\000"
 5066      64333000 
 5067              	.LASF78:
 5068 0d65 63685F73 		.ascii	"ch_system\000"
 5068      79737465 
 5068      6D00
 5069              	.LASF214:
 5070 0d6f 72657376 		.ascii	"resvd34\000"
ARM GAS  /tmp/ccyJylYd.s 			page 101


 5070      64333400 
 5071              	.LASF19:
 5072 0d77 75696E74 		.ascii	"uint32_t\000"
 5072      33325F74 
 5072      00
 5073              	.LASF150:
 5074 0d80 75736265 		.ascii	"usbep_t\000"
 5074      705F7400 
 5075              	.LASF292:
 5076 0d88 5344555F 		.ascii	"SDU_STOP\000"
 5076      53544F50 
 5076      00
 5077              	.LASF127:
 5078 0d91 696E7075 		.ascii	"input_queue_t\000"
 5078      745F7175 
 5078      6575655F 
 5078      7400
 5079              	.LASF301:
 5080 0d9f 62756C6B 		.ascii	"bulk_out\000"
 5080      5F6F7574 
 5080      00
 5081              	.LASF341:
 5082 0da8 73657275 		.ascii	"serusbcfg\000"
 5082      73626366 
 5082      6700
 5083              	.LASF107:
 5084 0db2 6576656E 		.ascii	"event_listener\000"
 5084      745F6C69 
 5084      7374656E 
 5084      657200
 5085              	.LASF291:
 5086 0dc1 5344555F 		.ascii	"SDU_UNINIT\000"
 5086      554E494E 
 5086      495400
 5087              	.LASF90:
 5088 0dcc 7264796D 		.ascii	"rdymsg\000"
 5088      736700
 5089              	.LASF73:
 5090 0dd3 76745F6C 		.ascii	"vt_lasttime\000"
 5090      61737474 
 5090      696D6500 
 5091              	.LASF9:
 5092 0ddf 73686F72 		.ascii	"short unsigned int\000"
 5092      7420756E 
 5092      7369676E 
 5092      65642069 
 5092      6E7400
 5093              	.LASF318:
 5094 0df2 7573625F 		.ascii	"usb_event\000"
 5094      6576656E 
 5094      7400
 5095              	.LASF233:
 5096 0dfc 44535453 		.ascii	"DSTS\000"
 5096      00
 5097              	.LASF287:
 5098 0e01 6765745F 		.ascii	"get_descriptor_cb\000"
 5098      64657363 
ARM GAS  /tmp/ccyJylYd.s 			page 102


 5098      72697074 
 5098      6F725F63 
 5098      6200
 5099              	.LASF77:
 5100 0e13 63685F73 		.ascii	"ch_system_t\000"
 5100      79737465 
 5100      6D5F7400 
 5101              	.LASF343:
 5102 0e1f 73647543 		.ascii	"sduConfigureHookI\000"
 5102      6F6E6669 
 5102      67757265 
 5102      486F6F6B 
 5102      4900
 5103              	.LASF168:
 5104 0e31 5553425F 		.ascii	"USB_EVENT_SUSPEND\000"
 5104      4556454E 
 5104      545F5355 
 5104      5350454E 
 5104      4400
 5105              	.LASF128:
 5106 0e43 6F757470 		.ascii	"output_queue_t\000"
 5106      75745F71 
 5106      75657565 
 5106      5F7400
 5107              	.LASF136:
 5108 0e52 6F75745F 		.ascii	"out_params\000"
 5108      70617261 
 5108      6D7300
 5109              	.LASF10:
 5110 0e5d 5F5F696E 		.ascii	"__int32_t\000"
 5110      7433325F 
 5110      7400
 5111              	.LASF224:
 5112 0e67 48505458 		.ascii	"HPTXSTS\000"
 5112      53545300 
 5113              	.LASF216:
 5114 0e6f 72657376 		.ascii	"resvd58\000"
 5114      64353800 
 5115              	.LASF162:
 5116 0e77 5553425F 		.ascii	"USB_EP0_SENDING_STS\000"
 5116      4550305F 
 5116      53454E44 
 5116      494E475F 
 5116      53545300 
 5117              	.LASF221:
 5118 0e8b 48464952 		.ascii	"HFIR\000"
 5118      00
 5119              	.LASF160:
 5120 0e90 5553425F 		.ascii	"USB_EP0_WAITING_STS\000"
 5120      4550305F 
 5120      57414954 
 5120      494E475F 
 5120      53545300 
 5121              	.LASF38:
 5122 0ea4 705F6E61 		.ascii	"p_name\000"
 5122      6D6500
 5123              	.LASF103:
ARM GAS  /tmp/ccyJylYd.s 			page 103


 5124 0eab 6D5F6E65 		.ascii	"m_next\000"
 5124      787400
 5125              	.LASF146:
 5126 0eb2 706D6E65 		.ascii	"pmnext\000"
 5126      787400
 5127              	.LASF263:
 5128 0eb9 74787175 		.ascii	"txqueued\000"
 5128      65756564 
 5128      00
 5129              	.LASF204:
 5130 0ec2 47555342 		.ascii	"GUSBCFG\000"
 5130      43464700 
 5131              	.LASF161:
 5132 0eca 5553425F 		.ascii	"USB_EP0_RX\000"
 5132      4550305F 
 5132      525800
 5133              	.LASF329:
 5134 0ed5 76636F6D 		.ascii	"vcom_string1\000"
 5134      5F737472 
 5134      696E6731 
 5134      00
 5135              	.LASF219:
 5136 0ee2 72657376 		.ascii	"resvd140\000"
 5136      64313430 
 5136      00
 5137              	.LASF331:
 5138 0eeb 76636F6D 		.ascii	"vcom_string3\000"
 5138      5F737472 
 5138      696E6733 
 5138      00
 5139              	.LASF44:
 5140 0ef8 705F6D73 		.ascii	"p_msg\000"
 5140      6700
 5141              	.LASF109:
 5142 0efe 656C5F6C 		.ascii	"el_listener\000"
 5142      69737465 
 5142      6E657200 
 5143              	.LASF39:
 5144 0f0a 705F7374 		.ascii	"p_state\000"
 5144      61746500 
 5145              		.ident	"GCC: (GNU Tools for ARM Embedded Processors) 5.3.1 20160307 (release) [ARM/embedded-5-bran
ARM GAS  /tmp/ccyJylYd.s 			page 104


DEFINED SYMBOLS
                            *ABS*:0000000000000000 usbcfg.c
     /tmp/ccyJylYd.s:20     .text.get_descriptor:0000000000000000 $t
     /tmp/ccyJylYd.s:25     .text.get_descriptor:0000000000000000 get_descriptor
     /tmp/ccyJylYd.s:69     .text.get_descriptor:0000000000000024 $d
     /tmp/ccyJylYd.s:76     .text.usb_event:0000000000000000 $t
     /tmp/ccyJylYd.s:81     .text.usb_event:0000000000000000 usb_event
     /tmp/ccyJylYd.s:165    .text.usb_event:0000000000000034 $d
     /tmp/ccyJylYd.s:488    .rodata.serusbcfg:0000000000000000 serusbcfg
     /tmp/ccyJylYd.s:238    .rodata.usbcfg:0000000000000000 usbcfg
     /tmp/ccyJylYd.s:181    .rodata.ep1config:0000000000000000 $d
     /tmp/ccyJylYd.s:185    .rodata.ep1config:0000000000000000 ep1config
     /tmp/ccyJylYd.s:207    .bss.ep1instate:0000000000000000 ep1instate
     /tmp/ccyJylYd.s:342    .bss.ep1outstate:0000000000000000 ep1outstate
     /tmp/ccyJylYd.s:198    .bss.ep2instate:0000000000000000 $d
     /tmp/ccyJylYd.s:201    .bss.ep2instate:0000000000000000 ep2instate
     /tmp/ccyJylYd.s:204    .bss.ep1instate:0000000000000000 $d
     /tmp/ccyJylYd.s:210    .rodata.vcom_configuration_descriptor:0000000000000000 $d
     /tmp/ccyJylYd.s:214    .rodata.vcom_configuration_descriptor:0000000000000000 vcom_configuration_descriptor
     /tmp/ccyJylYd.s:247    .rodata.vcom_configuration_descriptor_data:0000000000000000 vcom_configuration_descriptor_data
     /tmp/ccyJylYd.s:218    .rodata.ep2config:0000000000000000 $d
     /tmp/ccyJylYd.s:222    .rodata.ep2config:0000000000000000 ep2config
     /tmp/ccyJylYd.s:235    .rodata.usbcfg:0000000000000000 $d
     /tmp/ccyJylYd.s:244    .rodata.vcom_configuration_descriptor_data:0000000000000000 $d
     /tmp/ccyJylYd.s:316    .rodata.vcom_device_descriptor_data:0000000000000000 $d
     /tmp/ccyJylYd.s:319    .rodata.vcom_device_descriptor_data:0000000000000000 vcom_device_descriptor_data
     /tmp/ccyJylYd.s:339    .bss.ep1outstate:0000000000000000 $d
     /tmp/ccyJylYd.s:345    .rodata.vcom_string0:0000000000000000 $d
     /tmp/ccyJylYd.s:348    .rodata.vcom_string0:0000000000000000 vcom_string0
     /tmp/ccyJylYd.s:354    .rodata.vcom_string1:0000000000000000 $d
     /tmp/ccyJylYd.s:357    .rodata.vcom_string1:0000000000000000 vcom_string1
     /tmp/ccyJylYd.s:397    .rodata.vcom_string2:0000000000000000 $d
     /tmp/ccyJylYd.s:400    .rodata.vcom_string2:0000000000000000 vcom_string2
     /tmp/ccyJylYd.s:458    .rodata.vcom_string3:0000000000000000 $d
     /tmp/ccyJylYd.s:461    .rodata.vcom_string3:0000000000000000 vcom_string3
     /tmp/ccyJylYd.s:471    .rodata.vcom_strings:0000000000000000 $d
     /tmp/ccyJylYd.s:475    .rodata.vcom_strings:0000000000000000 vcom_strings
     /tmp/ccyJylYd.s:485    .rodata.serusbcfg:0000000000000000 $d
     /tmp/ccyJylYd.s:495    .rodata.vcom_device_descriptor:0000000000000000 $d
     /tmp/ccyJylYd.s:499    .rodata.vcom_device_descriptor:0000000000000000 vcom_device_descriptor
                     .debug_frame:0000000000000010 $d

UNDEFINED SYMBOLS
usbInitEndpointI
sduConfigureHookI
SDU1
sduDataTransmitted
sduDataReceived
sduInterruptTransmitted
sduRequestsHook
USBD1
