ARM GAS  /tmp/ccyJylYd.s 			page 1


   1              		.syntax unified
   2              		.cpu cortex-m4
   3              		.fpu softvfp
   4              		.eabi_attribute 20, 1
   5              		.eabi_attribute 21, 1
   6              		.eabi_attribute 23, 3
   7              		.eabi_attribute 24, 1
   8              		.eabi_attribute 25, 1
   9              		.eabi_attribute 26, 1
  10              		.eabi_attribute 30, 2
  11              		.eabi_attribute 34, 1
  12              		.eabi_attribute 18, 4
  13              		.thumb
  14              		.syntax unified
  15              		.file	"usbcfg.c"
  16              		.text
  17              	.Ltext0:
  18              		.cfi_sections	.debug_frame
  19              		.section	.text.get_descriptor,"ax",%progbits
  20              		.align	2
  21              		.p2align 4,,15
  22              		.thumb
  23              		.thumb_func
  24              		.type	get_descriptor, %function
  25              	get_descriptor:
  26              	.LFB258:
  27              		.file 1 "usbcfg.c"
  28              		.loc 1 198 0
  29              		.cfi_startproc
  30              		@ args = 0, pretend = 0, frame = 0
  31              		@ frame_needed = 0, uses_anonymous_args = 0
  32              		@ link register save eliminated.
  33              	.LVL0:
  34              		.loc 1 202 0
  35 0000 0229     		cmp	r1, #2
  36 0002 06D0     		beq	.L3
  37 0004 0329     		cmp	r1, #3
  38 0006 06D0     		beq	.L4
  39 0008 0129     		cmp	r1, #1
  40              		.loc 1 211 0
  41 000a 0648     		ldr	r0, .L9
  42              	.LVL1:
  43 000c 18BF     		it	ne
  44 000e 0020     		movne	r0, #0
  45 0010 7047     		bx	lr
  46              	.LVL2:
  47              	.L3:
  48              		.loc 1 206 0
  49 0012 0548     		ldr	r0, .L9+4
  50              	.LVL3:
  51 0014 7047     		bx	lr
  52              	.LVL4:
  53              	.L4:
  54              		.loc 1 208 0
  55 0016 032A     		cmp	r2, #3
  56              		.loc 1 209 0
  57 0018 9ABF     		itte	ls
ARM GAS  /tmp/ccyJylYd.s 			page 2


  58 001a 044B     		ldrls	r3, .L9+8
  59              	.LVL5:
  60 001c 03EBC200 		addls	r0, r3, r2, lsl #3
  61              	.LVL6:
  62              		.loc 1 211 0
  63 0020 0020     		movhi	r0, #0
  64              		.loc 1 212 0
  65 0022 7047     		bx	lr
  66              	.L10:
  67              		.align	2
  68              	.L9:
  69 0024 00000000 		.word	.LANCHOR0
  70 0028 00000000 		.word	.LANCHOR1
  71 002c 00000000 		.word	.LANCHOR2
  72              		.cfi_endproc
  73              	.LFE258:
  74              		.size	get_descriptor, .-get_descriptor
  75              		.section	.text.usb_event,"ax",%progbits
  76              		.align	2
  77              		.p2align 4,,15
  78              		.thumb
  79              		.thumb_func
  80              		.type	usb_event, %function
  81              	usb_event:
  82              	.LFB259:
  83              		.loc 1 264 0
  84              		.cfi_startproc
  85              		@ args = 0, pretend = 0, frame = 0
  86              		@ frame_needed = 0, uses_anonymous_args = 0
  87              	.LVL7:
  88              		.loc 1 267 0
  89 0000 0229     		cmp	r1, #2
  90 0002 15D1     		bne	.L15
  91              		.loc 1 264 0
  92 0004 38B5     		push	{r3, r4, r5, lr}
  93              		.cfi_def_cfa_offset 16
  94              		.cfi_offset 3, -16
  95              		.cfi_offset 4, -12
  96              		.cfi_offset 5, -8
  97              		.cfi_offset 14, -4
  98 0006 0546     		mov	r5, r0
  99 0008 0C46     		mov	r4, r1
 100              	.LVL8:
 101              	.LBB58:
 102              	.LBB59:
 103              	.LBB60:
 104              	.LBB61:
 105              	.LBB62:
 106              	.LBB63:
 107              	.LBB64:
 108              		.file 2 "/home/selim/working/ChibiOS/os/ext/CMSIS/include/core_cmFunc.h"
 109              		.loc 2 546 0
 110 000a 2023     		movs	r3, #32
 111              		.syntax unified
 112              	@ 546 "/home/selim/working/ChibiOS/os/ext/CMSIS/include/core_cmFunc.h" 1
 113 000c 83F31188 		MSR basepri, r3
 114              	@ 0 "" 2
ARM GAS  /tmp/ccyJylYd.s 			page 3


 115              	.LVL9:
 116              		.thumb
 117              		.syntax unified
 118              	.LBE64:
 119              	.LBE63:
 120              	.LBE62:
 121              	.LBE61:
 122              	.LBE60:
 123              		.loc 1 278 0
 124 0010 084A     		ldr	r2, .L16
 125 0012 0121     		movs	r1, #1
 126              	.LVL10:
 127 0014 FFF7FEFF 		bl	usbInitEndpointI
 128              	.LVL11:
 129              		.loc 1 279 0
 130 0018 2146     		mov	r1, r4
 131 001a 2846     		mov	r0, r5
 132 001c 064A     		ldr	r2, .L16+4
 133 001e FFF7FEFF 		bl	usbInitEndpointI
 134              	.LVL12:
 135              		.loc 1 282 0
 136 0022 0648     		ldr	r0, .L16+8
 137 0024 FFF7FEFF 		bl	sduConfigureHookI
 138              	.LVL13:
 139              	.LBB65:
 140              	.LBB66:
 141              	.LBB67:
 142              	.LBB68:
 143              	.LBB69:
 144              		.loc 2 546 0
 145 0028 0023     		movs	r3, #0
 146              		.syntax unified
 147              	@ 546 "/home/selim/working/ChibiOS/os/ext/CMSIS/include/core_cmFunc.h" 1
 148 002a 83F31188 		MSR basepri, r3
 149              	@ 0 "" 2
 150              	.LVL14:
 151              		.thumb
 152              		.syntax unified
 153 002e 38BD     		pop	{r3, r4, r5, pc}
 154              	.LVL15:
 155              	.L15:
 156              		.cfi_def_cfa_offset 0
 157              		.cfi_restore 3
 158              		.cfi_restore 4
 159              		.cfi_restore 5
 160              		.cfi_restore 14
 161 0030 7047     		bx	lr
 162              	.L17:
 163 0032 00BF     		.align	2
 164              	.L16:
 165 0034 00000000 		.word	.LANCHOR3
 166 0038 00000000 		.word	.LANCHOR4
 167 003c 00000000 		.word	SDU1
 168              	.LBE69:
 169              	.LBE68:
 170              	.LBE67:
 171              	.LBE66:
ARM GAS  /tmp/ccyJylYd.s 			page 4


 172              	.LBE65:
 173              	.LBE59:
 174              	.LBE58:
 175              		.cfi_endproc
 176              	.LFE259:
 177              		.size	usb_event, .-usb_event
 178              		.global	serusbcfg
 179              		.global	usbcfg
 180              		.section	.rodata.ep1config,"a",%progbits
 181              		.align	2
 182              		.set	.LANCHOR3,. + 0
 183              		.type	ep1config, %object
 184              		.size	ep1config, 36
 185              	ep1config:
 186 0000 02000000 		.word	2
 187 0004 00000000 		.word	0
 188 0008 00000000 		.word	sduDataTransmitted
 189 000c 00000000 		.word	sduDataReceived
 190 0010 4000     		.short	64
 191 0012 4000     		.short	64
 192 0014 00000000 		.word	ep1instate
 193 0018 00000000 		.word	ep1outstate
 194 001c 0200     		.short	2
 195 001e 0000     		.space	2
 196 0020 00000000 		.word	0
 197              		.section	.bss.ep2instate,"aw",%nobits
 198              		.align	2
 199              		.type	ep2instate, %object
 200              		.size	ep2instate, 20
 201              	ep2instate:
 202 0000 00000000 		.space	20
 202      00000000 
 202      00000000 
 202      00000000 
 202      00000000 
 203              		.section	.bss.ep1instate,"aw",%nobits
 204              		.align	2
 205              		.type	ep1instate, %object
 206              		.size	ep1instate, 20
 207              	ep1instate:
 208 0000 00000000 		.space	20
 208      00000000 
 208      00000000 
 208      00000000 
 208      00000000 
 209              		.section	.rodata.vcom_configuration_descriptor,"a",%progbits
 210              		.align	2
 211              		.set	.LANCHOR1,. + 0
 212              		.type	vcom_configuration_descriptor, %object
 213              		.size	vcom_configuration_descriptor, 8
 214              	vcom_configuration_descriptor:
 215 0000 43000000 		.word	67
 216 0004 00000000 		.word	vcom_configuration_descriptor_data
 217              		.section	.rodata.ep2config,"a",%progbits
 218              		.align	2
 219              		.set	.LANCHOR4,. + 0
 220              		.type	ep2config, %object
ARM GAS  /tmp/ccyJylYd.s 			page 5


 221              		.size	ep2config, 36
 222              	ep2config:
 223 0000 03000000 		.word	3
 224 0004 00000000 		.word	0
 225 0008 00000000 		.word	sduInterruptTransmitted
 226 000c 00000000 		.word	0
 227 0010 1000     		.short	16
 228 0012 0000     		.short	0
 229 0014 00000000 		.word	ep2instate
 230 0018 00000000 		.word	0
 231 001c 0100     		.short	1
 232 001e 0000     		.space	2
 233 0020 00000000 		.word	0
 234              		.section	.rodata.usbcfg,"a",%progbits
 235              		.align	2
 236              		.type	usbcfg, %object
 237              		.size	usbcfg, 16
 238              	usbcfg:
 239 0000 00000000 		.word	usb_event
 240 0004 00000000 		.word	get_descriptor
 241 0008 00000000 		.word	sduRequestsHook
 242 000c 00000000 		.word	0
 243              		.section	.rodata.vcom_configuration_descriptor_data,"a",%progbits
 244              		.align	2
 245              		.type	vcom_configuration_descriptor_data, %object
 246              		.size	vcom_configuration_descriptor_data, 67
 247              	vcom_configuration_descriptor_data:
 248 0000 09       		.byte	9
 249 0001 02       		.byte	2
 250 0002 43       		.byte	67
 251 0003 00       		.byte	0
 252 0004 02       		.byte	2
 253 0005 01       		.byte	1
 254 0006 00       		.byte	0
 255 0007 C0       		.byte	-64
 256 0008 32       		.byte	50
 257 0009 09       		.byte	9
 258 000a 04       		.byte	4
 259 000b 00       		.byte	0
 260 000c 00       		.byte	0
 261 000d 01       		.byte	1
 262 000e 02       		.byte	2
 263 000f 02       		.byte	2
 264 0010 01       		.byte	1
 265 0011 00       		.byte	0
 266 0012 05       		.byte	5
 267 0013 24       		.byte	36
 268 0014 00       		.byte	0
 269 0015 10       		.byte	16
 270 0016 01       		.byte	1
 271 0017 05       		.byte	5
 272 0018 24       		.byte	36
 273 0019 01       		.byte	1
 274 001a 00       		.byte	0
 275 001b 01       		.byte	1
 276 001c 04       		.byte	4
 277 001d 24       		.byte	36
ARM GAS  /tmp/ccyJylYd.s 			page 6


 278 001e 02       		.byte	2
 279 001f 02       		.byte	2
 280 0020 05       		.byte	5
 281 0021 24       		.byte	36
 282 0022 06       		.byte	6
 283 0023 00       		.byte	0
 284 0024 01       		.byte	1
 285 0025 07       		.byte	7
 286 0026 05       		.byte	5
 287 0027 82       		.byte	-126
 288 0028 03       		.byte	3
 289 0029 08       		.byte	8
 290 002a 00       		.byte	0
 291 002b FF       		.byte	-1
 292 002c 09       		.byte	9
 293 002d 04       		.byte	4
 294 002e 01       		.byte	1
 295 002f 00       		.byte	0
 296 0030 02       		.byte	2
 297 0031 0A       		.byte	10
 298 0032 00       		.byte	0
 299 0033 00       		.byte	0
 300 0034 00       		.byte	0
 301 0035 07       		.byte	7
 302 0036 05       		.byte	5
 303 0037 01       		.byte	1
 304 0038 02       		.byte	2
 305 0039 40       		.byte	64
 306 003a 00       		.byte	0
 307 003b 00       		.byte	0
 308 003c 07       		.byte	7
 309 003d 05       		.byte	5
 310 003e 81       		.byte	-127
 311 003f 02       		.byte	2
 312 0040 40       		.byte	64
 313 0041 00       		.byte	0
 314 0042 00       		.byte	0
 315              		.section	.rodata.vcom_device_descriptor_data,"a",%progbits
 316              		.align	2
 317              		.type	vcom_device_descriptor_data, %object
 318              		.size	vcom_device_descriptor_data, 18
 319              	vcom_device_descriptor_data:
 320 0000 12       		.byte	18
 321 0001 01       		.byte	1
 322 0002 10       		.byte	16
 323 0003 01       		.byte	1
 324 0004 02       		.byte	2
 325 0005 00       		.byte	0
 326 0006 00       		.byte	0
 327 0007 40       		.byte	64
 328 0008 83       		.byte	-125
 329 0009 04       		.byte	4
 330 000a 40       		.byte	64
 331 000b 57       		.byte	87
 332 000c 00       		.byte	0
 333 000d 02       		.byte	2
 334 000e 01       		.byte	1
ARM GAS  /tmp/ccyJylYd.s 			page 7


 335 000f 02       		.byte	2
 336 0010 03       		.byte	3
 337 0011 01       		.byte	1
 338              		.section	.bss.ep1outstate,"aw",%nobits
 339              		.align	2
 340              		.type	ep1outstate, %object
 341              		.size	ep1outstate, 20
 342              	ep1outstate:
 343 0000 00000000 		.space	20
 343      00000000 
 343      00000000 
 343      00000000 
 343      00000000 
 344              		.section	.rodata.vcom_string0,"a",%progbits
 345              		.align	2
 346              		.type	vcom_string0, %object
 347              		.size	vcom_string0, 4
 348              	vcom_string0:
 349 0000 04       		.byte	4
 350 0001 03       		.byte	3
 351 0002 09       		.byte	9
 352 0003 04       		.byte	4
 353              		.section	.rodata.vcom_string1,"a",%progbits
 354              		.align	2
 355              		.type	vcom_string1, %object
 356              		.size	vcom_string1, 38
 357              	vcom_string1:
 358 0000 26       		.byte	38
 359 0001 03       		.byte	3
 360 0002 53       		.byte	83
 361 0003 00       		.byte	0
 362 0004 54       		.byte	84
 363 0005 00       		.byte	0
 364 0006 4D       		.byte	77
 365 0007 00       		.byte	0
 366 0008 69       		.byte	105
 367 0009 00       		.byte	0
 368 000a 63       		.byte	99
 369 000b 00       		.byte	0
 370 000c 72       		.byte	114
 371 000d 00       		.byte	0
 372 000e 6F       		.byte	111
 373 000f 00       		.byte	0
 374 0010 65       		.byte	101
 375 0011 00       		.byte	0
 376 0012 6C       		.byte	108
 377 0013 00       		.byte	0
 378 0014 65       		.byte	101
 379 0015 00       		.byte	0
 380 0016 63       		.byte	99
 381 0017 00       		.byte	0
 382 0018 74       		.byte	116
 383 0019 00       		.byte	0
 384 001a 72       		.byte	114
 385 001b 00       		.byte	0
 386 001c 6F       		.byte	111
 387 001d 00       		.byte	0
ARM GAS  /tmp/ccyJylYd.s 			page 8


 388 001e 6E       		.byte	110
 389 001f 00       		.byte	0
 390 0020 69       		.byte	105
 391 0021 00       		.byte	0
 392 0022 63       		.byte	99
 393 0023 00       		.byte	0
 394 0024 73       		.byte	115
 395 0025 00       		.byte	0
 396              		.section	.rodata.vcom_string2,"a",%progbits
 397              		.align	2
 398              		.type	vcom_string2, %object
 399              		.size	vcom_string2, 56
 400              	vcom_string2:
 401 0000 38       		.byte	56
 402 0001 03       		.byte	3
 403 0002 43       		.byte	67
 404 0003 00       		.byte	0
 405 0004 68       		.byte	104
 406 0005 00       		.byte	0
 407 0006 69       		.byte	105
 408 0007 00       		.byte	0
 409 0008 62       		.byte	98
 410 0009 00       		.byte	0
 411 000a 69       		.byte	105
 412 000b 00       		.byte	0
 413 000c 4F       		.byte	79
 414 000d 00       		.byte	0
 415 000e 53       		.byte	83
 416 000f 00       		.byte	0
 417 0010 2F       		.byte	47
 418 0011 00       		.byte	0
 419 0012 52       		.byte	82
 420 0013 00       		.byte	0
 421 0014 54       		.byte	84
 422 0015 00       		.byte	0
 423 0016 20       		.byte	32
 424 0017 00       		.byte	0
 425 0018 56       		.byte	86
 426 0019 00       		.byte	0
 427 001a 69       		.byte	105
 428 001b 00       		.byte	0
 429 001c 72       		.byte	114
 430 001d 00       		.byte	0
 431 001e 74       		.byte	116
 432 001f 00       		.byte	0
 433 0020 75       		.byte	117
 434 0021 00       		.byte	0
 435 0022 61       		.byte	97
 436 0023 00       		.byte	0
 437 0024 6C       		.byte	108
 438 0025 00       		.byte	0
 439 0026 20       		.byte	32
 440 0027 00       		.byte	0
 441 0028 43       		.byte	67
 442 0029 00       		.byte	0
 443 002a 4F       		.byte	79
 444 002b 00       		.byte	0
ARM GAS  /tmp/ccyJylYd.s 			page 9


 445 002c 4D       		.byte	77
 446 002d 00       		.byte	0
 447 002e 20       		.byte	32
 448 002f 00       		.byte	0
 449 0030 50       		.byte	80
 450 0031 00       		.byte	0
 451 0032 6F       		.byte	111
 452 0033 00       		.byte	0
 453 0034 72       		.byte	114
 454 0035 00       		.byte	0
 455 0036 74       		.byte	116
 456 0037 00       		.byte	0
 457              		.section	.rodata.vcom_string3,"a",%progbits
 458              		.align	2
 459              		.type	vcom_string3, %object
 460              		.size	vcom_string3, 8
 461              	vcom_string3:
 462 0000 08       		.byte	8
 463 0001 03       		.byte	3
 464 0002 33       		.byte	51
 465 0003 00       		.byte	0
 466 0004 30       		.byte	48
 467 0005 00       		.byte	0
 468 0006 30       		.byte	48
 469 0007 00       		.byte	0
 470              		.section	.rodata.vcom_strings,"a",%progbits
 471              		.align	2
 472              		.set	.LANCHOR2,. + 0
 473              		.type	vcom_strings, %object
 474              		.size	vcom_strings, 32
 475              	vcom_strings:
 476 0000 04000000 		.word	4
 477 0004 00000000 		.word	vcom_string0
 478 0008 26000000 		.word	38
 479 000c 00000000 		.word	vcom_string1
 480 0010 38000000 		.word	56
 481 0014 00000000 		.word	vcom_string2
 482 0018 08000000 		.word	8
 483 001c 00000000 		.word	vcom_string3
 484              		.section	.rodata.serusbcfg,"a",%progbits
 485              		.align	2
 486              		.type	serusbcfg, %object
 487              		.size	serusbcfg, 8
 488              	serusbcfg:
 489 0000 00000000 		.word	USBD1
 490 0004 01       		.byte	1
 491 0005 01       		.byte	1
 492 0006 02       		.byte	2
 493 0007 00       		.space	1
 494              		.section	.rodata.vcom_device_descriptor,"a",%progbits
 495              		.align	2
 496              		.set	.LANCHOR0,. + 0
 497              		.type	vcom_device_descriptor, %object
 498              		.size	vcom_device_descriptor, 8
 499              	vcom_device_descriptor:
 500 0000 12000000 		.word	18
 501 0004 00000000 		.word	vcom_device_descriptor_data
ARM GAS  /tmp/ccyJylYd.s 			page 10


 502              		.text
 503              	.Letext0:
 504              		.file 3 "/usr/lib/gcc/arm-none-eabi/5.3.1/include/stddef.h"
 505              		.file 4 "/usr/arm-none-eabi/include/machine/_default_types.h"
 506              		.file 5 "/usr/arm-none-eabi/include/sys/_stdint.h"
 507              		.file 6 "/home/selim/working/ChibiOS/os/rt/ports/ARMCMx/compilers/GCC/chtypes.h"
 508              		.file 7 "/home/selim/working/ChibiOS/os/rt/include/chsystypes.h"
 509              		.file 8 "/home/selim/working/ChibiOS/os/rt/include/chschd.h"
 510              		.file 9 "/home/selim/working/ChibiOS/os/rt/ports/ARMCMx/chcore.h"
 511              		.file 10 "/home/selim/working/ChibiOS/os/rt/ports/ARMCMx/chcore_v7m.h"
 512              		.file 11 "/home/selim/working/ChibiOS/os/rt/include/chtm.h"
 513              		.file 12 "/home/selim/working/ChibiOS/os/rt/include/chsem.h"
 514              		.file 13 "/home/selim/working/ChibiOS/os/rt/include/chmtx.h"
 515              		.file 14 "/home/selim/working/ChibiOS/os/rt/include/chevents.h"
 516              		.file 15 "/home/selim/working/ChibiOS/os/rt/include/chqueues.h"
 517              		.file 16 "/home/selim/working/ChibiOS/os/hal/include/usb.h"
 518              		.file 17 "/home/selim/working/ChibiOS/os/hal/ports/STM32/LLD/OTGv1/usb_lld.h"
 519              		.file 18 "/home/selim/working/ChibiOS/os/hal/ports/STM32/LLD/OTGv1/stm32_otg.h"
 520              		.file 19 "/home/selim/working/ChibiOS/os/hal/include/serial_usb.h"
 521              		.file 20 "/home/selim/working/ChibiOS/os/rt/include/chsys.h"
 522              		.file 21 "/home/selim/working/ChibiOS/os/ext/CMSIS/include/core_cm4.h"