ARM GAS  /tmp/ccLiy4WR.s 			page 1


   1              		.syntax unified
   2              		.cpu cortex-m4
   3              		.fpu softvfp
   4              		.eabi_attribute 20, 1
   5              		.eabi_attribute 21, 1
   6              		.eabi_attribute 23, 3
   7              		.eabi_attribute 24, 1
   8              		.eabi_attribute 25, 1
   9              		.eabi_attribute 26, 1
  10              		.eabi_attribute 30, 2
  11              		.eabi_attribute 34, 1
  12              		.eabi_attribute 18, 4
  13              		.thumb
  14              		.syntax unified
  15              		.file	"adc_lld.c"
  16              		.text
  17              	.Ltext0:
  18              		.cfi_sections	.debug_frame
  19              		.section	.text.adc_lld_serve_rx_interrupt,"ax",%progbits
  20              		.align	2
  21              		.p2align 4,,15
  22              		.thumb
  23              		.thumb_func
  24              		.type	adc_lld_serve_rx_interrupt, %function
  25              	adc_lld_serve_rx_interrupt:
  26              	.LFB258:
  27              		.file 1 "/home/selim/working/ChibiOS/os/hal/ports/STM32/STM32F4xx/adc_lld.c"
  28              		.loc 1 75 0
  29              		.cfi_startproc
  30              		@ args = 0, pretend = 0, frame = 0
  31              		@ frame_needed = 0, uses_anonymous_args = 0
  32              	.LVL0:
  33              		.loc 1 78 0
  34 0000 11F00C0F 		tst	r1, #12
  35              		.loc 1 75 0
  36 0004 2DE9F041 		push	{r4, r5, r6, r7, r8, lr}
  37              		.cfi_def_cfa_offset 24
  38              		.cfi_offset 4, -24
  39              		.cfi_offset 5, -20
  40              		.cfi_offset 6, -16
  41              		.cfi_offset 7, -12
  42              		.cfi_offset 8, -8
  43              		.cfi_offset 14, -4
  44              		.loc 1 75 0
  45 0008 0446     		mov	r4, r0
  46              		.loc 1 78 0
  47 000a 2ED0     		beq	.L2
  48              	.LVL1:
  49              	.LBB91:
  50              	.LBB92:
  51              		.loc 1 375 0
  52 000c C06A     		ldr	r0, [r0, #44]
  53              	.LVL2:
  54 000e 0368     		ldr	r3, [r0]
  55 0010 1A68     		ldr	r2, [r3]
  56 0012 22F01F02 		bic	r2, r2, #31
  57 0016 1A60     		str	r2, [r3]
ARM GAS  /tmp/ccLiy4WR.s 			page 2


  58              	.LVL3:
  59              	.L3:
  60 0018 1968     		ldr	r1, [r3]
  61 001a 11F00101 		ands	r1, r1, #1
  62 001e FBD1     		bne	.L3
  63              	.LBE92:
  64              	.LBE91:
  65              		.loc 1 81 0
  66 0020 2269     		ldr	r2, [r4, #16]
  67              	.LBB95:
  68              	.LBB93:
  69              		.loc 1 375 0
  70 0022 077A     		ldrb	r7, [r0, #8]	@ zero_extendqisi2
  71 0024 4668     		ldr	r6, [r0, #4]
  72              	.LBE93:
  73              	.LBE95:
  74              		.loc 1 81 0
  75 0026 9568     		ldr	r5, [r2, #8]
  76              	.LBB96:
  77              	.LBB94:
  78              		.loc 1 376 0
  79 0028 A36A     		ldr	r3, [r4, #40]
  80              		.loc 1 375 0
  81 002a 3D22     		movs	r2, #61
  82 002c BA40     		lsls	r2, r2, r7
  83              		.loc 1 378 0
  84 002e 0120     		movs	r0, #1
  85              		.loc 1 375 0
  86 0030 3260     		str	r2, [r6]
  87              		.loc 1 376 0
  88 0032 5960     		str	r1, [r3, #4]
  89              		.loc 1 377 0
  90 0034 9960     		str	r1, [r3, #8]
  91              		.loc 1 378 0
  92 0036 9860     		str	r0, [r3, #8]
  93              	.LVL4:
  94              	.LBE94:
  95              	.LBE96:
  96              		.loc 1 81 0
  97 0038 45B1     		cbz	r5, .L5
  98              		.loc 1 81 0 is_stmt 0 discriminator 1
  99 003a 0523     		movs	r3, #5
 100 003c 2370     		strb	r3, [r4]
 101 003e 2046     		mov	r0, r4
 102 0040 A847     		blx	r5
 103              	.LVL5:
 104 0042 2378     		ldrb	r3, [r4]	@ zero_extendqisi2
 105 0044 052B     		cmp	r3, #5
 106 0046 04BF     		itt	eq
 107 0048 0223     		moveq	r3, #2
 108 004a 2370     		strbeq	r3, [r4]
 109              	.L5:
 110              		.loc 1 81 0 discriminator 5
 111 004c 0025     		movs	r5, #0
 112 004e 2561     		str	r5, [r4, #16]
 113              	.LVL6:
 114              	.LBB97:
ARM GAS  /tmp/ccLiy4WR.s 			page 3


 115              	.LBB98:
 116              	.LBB99:
 117              	.LBB100:
 118              	.LBB101:
 119              	.LBB102:
 120              		.file 2 "/home/selim/working/ChibiOS/os/ext/CMSIS/include/core_cmFunc.h"
 121              		.loc 2 546 0 is_stmt 1 discriminator 5
 122 0050 2023     		movs	r3, #32
 123              		.syntax unified
 124              	@ 546 "/home/selim/working/ChibiOS/os/ext/CMSIS/include/core_cmFunc.h" 1
 125 0052 83F31188 		MSR basepri, r3
 126              	@ 0 "" 2
 127              	.LVL7:
 128              		.thumb
 129              		.syntax unified
 130              	.LBE102:
 131              	.LBE101:
 132              	.LBE100:
 133              	.LBE99:
 134              	.LBE98:
 135              	.LBE97:
 136              	.LBB103:
 137              	.LBB104:
 138              		.file 3 "/home/selim/working/ChibiOS/os/hal/osal/rt/osal.h"
 139              		.loc 3 682 0 discriminator 5
 140 0056 4FF0FF31 		mov	r1, #-1
 141 005a 04F11400 		add	r0, r4, #20
 142              	.LVL8:
 143 005e FFF7FEFF 		bl	chThdResumeI
 144              	.LVL9:
 145              	.LBE104:
 146              	.LBE103:
 147              	.LBB105:
 148              	.LBB106:
 149              	.LBB107:
 150              	.LBB108:
 151              	.LBB109:
 152              	.LBB110:
 153              		.loc 2 546 0 discriminator 5
 154              		.syntax unified
 155              	@ 546 "/home/selim/working/ChibiOS/os/ext/CMSIS/include/core_cmFunc.h" 1
 156 0062 85F31188 		MSR basepri, r5
 157              	@ 0 "" 2
 158              	.LVL10:
 159              		.thumb
 160              		.syntax unified
 161 0066 BDE8F081 		pop	{r4, r5, r6, r7, r8, pc}
 162              	.LVL11:
 163              	.L2:
 164              	.LBE110:
 165              	.LBE109:
 166              	.LBE108:
 167              	.LBE107:
 168              	.LBE106:
 169              	.LBE105:
 170              		.loc 1 86 0
 171 006a 0569     		ldr	r5, [r0, #16]
ARM GAS  /tmp/ccLiy4WR.s 			page 4


 172 006c A5B1     		cbz	r5, .L1
 173              		.loc 1 87 0
 174 006e 8A06     		lsls	r2, r1, #26
 175 0070 10D5     		bpl	.L8
 176              		.loc 1 89 0
 177 0072 2B78     		ldrb	r3, [r5]	@ zero_extendqisi2
 178 0074 DBB1     		cbz	r3, .L9
 179              		.loc 1 89 0 is_stmt 0 discriminator 1
 180 0076 6B68     		ldr	r3, [r5, #4]
 181 0078 73B1     		cbz	r3, .L1
 182              		.loc 1 89 0 discriminator 3
 183 007a C268     		ldr	r2, [r0, #12]
 184 007c 012A     		cmp	r2, #1
 185 007e 47D9     		bls	.L10
 186              	.LBB111:
 187              		.loc 1 89 0 discriminator 4
 188 0080 6988     		ldrh	r1, [r5, #2]
 189              	.LVL12:
 190 0082 8468     		ldr	r4, [r0, #8]
 191 0084 5208     		lsrs	r2, r2, #1
 192              	.LVL13:
 193 0086 02FB01F1 		mul	r1, r2, r1
 194 008a 04EB4101 		add	r1, r4, r1, lsl #1
 195              	.LBE111:
 196              		.loc 1 97 0 is_stmt 1 discriminator 4
 197 008e BDE8F041 		pop	{r4, r5, r6, r7, r8, lr}
 198              		.cfi_remember_state
 199              		.cfi_restore 14
 200              		.cfi_restore 8
 201              		.cfi_restore 7
 202              		.cfi_restore 6
 203              		.cfi_restore 5
 204              		.cfi_restore 4
 205              		.cfi_def_cfa_offset 0
 206              	.LVL14:
 207              	.LBB112:
 208              		.loc 1 89 0 discriminator 4
 209 0092 1847     		bx	r3	@ indirect register sibling call
 210              	.LVL15:
 211              	.L8:
 212              		.cfi_restore_state
 213              	.LBE112:
 214              		.loc 1 91 0
 215 0094 CB06     		lsls	r3, r1, #27
 216 0096 01D4     		bmi	.L33
 217              	.L1:
 218 0098 BDE8F081 		pop	{r4, r5, r6, r7, r8, pc}
 219              	.L33:
 220              		.loc 1 93 0
 221 009c 6B68     		ldr	r3, [r5, #4]
 222 009e 002B     		cmp	r3, #0
 223 00a0 FAD0     		beq	.L1
 224              		.loc 1 93 0 is_stmt 0 discriminator 1
 225 00a2 C268     		ldr	r2, [r0, #12]
 226 00a4 8168     		ldr	r1, [r0, #8]
 227              	.LVL16:
 228 00a6 5208     		lsrs	r2, r2, #1
ARM GAS  /tmp/ccLiy4WR.s 			page 5


 229              		.loc 1 97 0 is_stmt 1 discriminator 1
 230 00a8 BDE8F041 		pop	{r4, r5, r6, r7, r8, lr}
 231              		.cfi_remember_state
 232              		.cfi_restore 14
 233              		.cfi_restore 8
 234              		.cfi_restore 7
 235              		.cfi_restore 6
 236              		.cfi_restore 5
 237              		.cfi_restore 4
 238              		.cfi_def_cfa_offset 0
 239              		.loc 1 93 0 discriminator 1
 240 00ac 1847     		bx	r3	@ indirect register sibling call
 241              	.LVL17:
 242              	.L9:
 243              		.cfi_restore_state
 244              	.LBB113:
 245              	.LBB114:
 246              		.loc 1 375 0
 247 00ae C06A     		ldr	r0, [r0, #44]
 248              	.LVL18:
 249 00b0 0268     		ldr	r2, [r0]
 250 00b2 1368     		ldr	r3, [r2]
 251 00b4 23F01F03 		bic	r3, r3, #31
 252 00b8 1360     		str	r3, [r2]
 253              	.L11:
 254 00ba 1368     		ldr	r3, [r2]
 255 00bc 13F00103 		ands	r3, r3, #1
 256 00c0 FBD1     		bne	.L11
 257 00c2 077A     		ldrb	r7, [r0, #8]	@ zero_extendqisi2
 258 00c4 4668     		ldr	r6, [r0, #4]
 259              	.LBE114:
 260              	.LBE113:
 261              		.loc 1 89 0
 262 00c6 6D68     		ldr	r5, [r5, #4]
 263              	.LBB116:
 264              	.LBB115:
 265              		.loc 1 376 0
 266 00c8 A26A     		ldr	r2, [r4, #40]
 267              		.loc 1 375 0
 268 00ca 3D21     		movs	r1, #61
 269              	.LVL19:
 270 00cc B940     		lsls	r1, r1, r7
 271              		.loc 1 378 0
 272 00ce 0120     		movs	r0, #1
 273              		.loc 1 375 0
 274 00d0 3160     		str	r1, [r6]
 275              		.loc 1 376 0
 276 00d2 5360     		str	r3, [r2, #4]
 277              		.loc 1 377 0
 278 00d4 9360     		str	r3, [r2, #8]
 279              		.loc 1 378 0
 280 00d6 9060     		str	r0, [r2, #8]
 281              	.LVL20:
 282              	.LBE115:
 283              	.LBE116:
 284              		.loc 1 89 0
 285 00d8 ADB1     		cbz	r5, .L12
ARM GAS  /tmp/ccLiy4WR.s 			page 6


 286              		.loc 1 89 0 is_stmt 0 discriminator 6
 287 00da 0423     		movs	r3, #4
 288 00dc 2370     		strb	r3, [r4]
 289 00de E268     		ldr	r2, [r4, #12]
 290 00e0 A168     		ldr	r1, [r4, #8]
 291 00e2 2046     		mov	r0, r4
 292 00e4 A847     		blx	r5
 293              	.LVL21:
 294 00e6 2378     		ldrb	r3, [r4]	@ zero_extendqisi2
 295 00e8 042B     		cmp	r3, #4
 296 00ea 0CD0     		beq	.L12
 297              	.L13:
 298              	.LVL22:
 299              	.LBB117:
 300              	.LBB118:
 301              	.LBB119:
 302              	.LBB120:
 303              	.LBB121:
 304              	.LBB122:
 305              		.loc 2 546 0 is_stmt 1 discriminator 9
 306 00ec 2023     		movs	r3, #32
 307              		.syntax unified
 308              	@ 546 "/home/selim/working/ChibiOS/os/ext/CMSIS/include/core_cmFunc.h" 1
 309 00ee 83F31188 		MSR basepri, r3
 310              	@ 0 "" 2
 311              	.LVL23:
 312              		.thumb
 313              		.syntax unified
 314              	.LBE122:
 315              	.LBE121:
 316              	.LBE120:
 317              	.LBE119:
 318              	.LBE118:
 319              	.LBE117:
 320              	.LBB123:
 321              	.LBB124:
 322              		.loc 3 682 0 discriminator 9
 323 00f2 0021     		movs	r1, #0
 324 00f4 04F11400 		add	r0, r4, #20
 325              	.LVL24:
 326 00f8 FFF7FEFF 		bl	chThdResumeI
 327              	.LVL25:
 328              	.LBE124:
 329              	.LBE123:
 330              	.LBB125:
 331              	.LBB126:
 332              	.LBB127:
 333              	.LBB128:
 334              	.LBB129:
 335              	.LBB130:
 336              		.loc 2 546 0 discriminator 9
 337 00fc 0023     		movs	r3, #0
 338              		.syntax unified
 339              	@ 546 "/home/selim/working/ChibiOS/os/ext/CMSIS/include/core_cmFunc.h" 1
 340 00fe 83F31188 		MSR basepri, r3
 341              	@ 0 "" 2
 342              	.LVL26:
ARM GAS  /tmp/ccLiy4WR.s 			page 7


 343              		.thumb
 344              		.syntax unified
 345 0102 BDE8F081 		pop	{r4, r5, r6, r7, r8, pc}
 346              	.LVL27:
 347              	.L12:
 348              	.LBE130:
 349              	.LBE129:
 350              	.LBE128:
 351              	.LBE127:
 352              	.LBE126:
 353              	.LBE125:
 354              		.loc 1 89 0 discriminator 8
 355 0106 0222     		movs	r2, #2
 356 0108 0023     		movs	r3, #0
 357 010a 2270     		strb	r2, [r4]
 358 010c 2361     		str	r3, [r4, #16]
 359 010e EDE7     		b	.L13
 360              	.LVL28:
 361              	.L10:
 362              		.loc 1 89 0 is_stmt 0 discriminator 5
 363 0110 8168     		ldr	r1, [r0, #8]
 364              	.LVL29:
 365              		.loc 1 97 0 is_stmt 1 discriminator 5
 366 0112 BDE8F041 		pop	{r4, r5, r6, r7, r8, lr}
 367              		.cfi_restore 14
 368              		.cfi_restore 8
 369              		.cfi_restore 7
 370              		.cfi_restore 6
 371              		.cfi_restore 5
 372              		.cfi_restore 4
 373              		.cfi_def_cfa_offset 0
 374              		.loc 1 89 0 discriminator 5
 375 0116 1847     		bx	r3	@ indirect register sibling call
 376              	.LVL30:
 377              		.cfi_endproc
 378              	.LFE258:
 379              		.size	adc_lld_serve_rx_interrupt, .-adc_lld_serve_rx_interrupt
 380              		.section	.text.Vector88,"ax",%progbits
 381              		.align	2
 382              		.p2align 4,,15
 383              		.global	Vector88
 384              		.thumb
 385              		.thumb_func
 386              		.type	Vector88, %function
 387              	Vector88:
 388              	.LFB259:
 389              		.loc 1 110 0
 390              		.cfi_startproc
 391              		@ args = 0, pretend = 0, frame = 0
 392              		@ frame_needed = 0, uses_anonymous_args = 0
 393 0000 F8B5     		push	{r3, r4, r5, r6, r7, lr}
 394              		.cfi_def_cfa_offset 24
 395              		.cfi_offset 3, -24
 396              		.cfi_offset 4, -20
 397              		.cfi_offset 5, -16
 398              		.cfi_offset 6, -12
 399              		.cfi_offset 7, -8
ARM GAS  /tmp/ccLiy4WR.s 			page 8


 400              		.cfi_offset 14, -4
 401              		.loc 1 116 0
 402 0002 1E4B     		ldr	r3, .L51
 403 0004 1A68     		ldr	r2, [r3]
 404              	.LVL31:
 405              		.loc 1 117 0
 406 0006 0021     		movs	r1, #0
 407 0008 1960     		str	r1, [r3]
 408              		.loc 1 120 0
 409 000a 9306     		lsls	r3, r2, #26
 410 000c 31D5     		bpl	.L35
 411              		.loc 1 120 0 is_stmt 0 discriminator 1
 412 000e 1C4C     		ldr	r4, .L51+4
 413 0010 E16A     		ldr	r1, [r4, #44]
 414 0012 0A68     		ldr	r2, [r1]
 415              	.LVL32:
 416 0014 5368     		ldr	r3, [r2, #4]
 417 0016 63B3     		cbz	r3, .L35
 418              		.loc 1 123 0 is_stmt 1
 419 0018 2569     		ldr	r5, [r4, #16]
 420 001a 55B3     		cbz	r5, .L35
 421              	.LVL33:
 422              	.LBB131:
 423              	.LBB132:
 424              		.loc 1 375 0
 425 001c 1368     		ldr	r3, [r2]
 426 001e 23F01F03 		bic	r3, r3, #31
 427 0022 1360     		str	r3, [r2]
 428              	.L36:
 429 0024 1368     		ldr	r3, [r2]
 430 0026 13F00103 		ands	r3, r3, #1
 431 002a FBD1     		bne	.L36
 432 002c 087A     		ldrb	r0, [r1, #8]	@ zero_extendqisi2
 433              	.LBE132:
 434              	.LBE131:
 435              		.loc 1 124 0
 436 002e AE68     		ldr	r6, [r5, #8]
 437              	.LBB134:
 438              	.LBB133:
 439              		.loc 1 375 0
 440 0030 4F68     		ldr	r7, [r1, #4]
 441              		.loc 1 376 0
 442 0032 A26A     		ldr	r2, [r4, #40]
 443 0034 124D     		ldr	r5, .L51+4
 444              		.loc 1 375 0
 445 0036 3D21     		movs	r1, #61
 446 0038 01FA00F0 		lsl	r0, r1, r0
 447              		.loc 1 378 0
 448 003c 0121     		movs	r1, #1
 449              		.loc 1 375 0
 450 003e 3860     		str	r0, [r7]
 451              		.loc 1 376 0
 452 0040 5360     		str	r3, [r2, #4]
 453              		.loc 1 377 0
 454 0042 9360     		str	r3, [r2, #8]
 455              		.loc 1 378 0
 456 0044 9160     		str	r1, [r2, #8]
ARM GAS  /tmp/ccLiy4WR.s 			page 9


 457              	.LVL34:
 458              	.LBE133:
 459              	.LBE134:
 460              		.loc 1 124 0
 461 0046 46B1     		cbz	r6, .L38
 462              		.loc 1 124 0 is_stmt 0 discriminator 1
 463 0048 0523     		movs	r3, #5
 464 004a 2B70     		strb	r3, [r5]
 465 004c 2846     		mov	r0, r5
 466 004e B047     		blx	r6
 467              	.LVL35:
 468 0050 2B78     		ldrb	r3, [r5]	@ zero_extendqisi2
 469 0052 052B     		cmp	r3, #5
 470 0054 04BF     		itt	eq
 471 0056 0223     		moveq	r3, #2
 472 0058 2B70     		strbeq	r3, [r5]
 473              	.L38:
 474              		.loc 1 124 0 discriminator 5
 475 005a 0025     		movs	r5, #0
 476 005c 2561     		str	r5, [r4, #16]
 477              	.LVL36:
 478              	.LBB135:
 479              	.LBB136:
 480              	.LBB137:
 481              	.LBB138:
 482              	.LBB139:
 483              	.LBB140:
 484              		.loc 2 546 0 is_stmt 1 discriminator 5
 485 005e 2023     		movs	r3, #32
 486              		.syntax unified
 487              	@ 546 "/home/selim/working/ChibiOS/os/ext/CMSIS/include/core_cmFunc.h" 1
 488 0060 83F31188 		MSR basepri, r3
 489              	@ 0 "" 2
 490              	.LVL37:
 491              		.thumb
 492              		.syntax unified
 493              	.LBE140:
 494              	.LBE139:
 495              	.LBE138:
 496              	.LBE137:
 497              	.LBE136:
 498              	.LBE135:
 499              	.LBB141:
 500              	.LBB142:
 501              		.loc 3 682 0 discriminator 5
 502 0064 4FF0FF31 		mov	r1, #-1
 503 0068 0648     		ldr	r0, .L51+8
 504 006a FFF7FEFF 		bl	chThdResumeI
 505              	.LVL38:
 506              	.LBE142:
 507              	.LBE141:
 508              	.LBB143:
 509              	.LBB144:
 510              	.LBB145:
 511              	.LBB146:
 512              	.LBB147:
 513              	.LBB148:
ARM GAS  /tmp/ccLiy4WR.s 			page 10


 514              		.loc 2 546 0 discriminator 5
 515              		.syntax unified
 516              	@ 546 "/home/selim/working/ChibiOS/os/ext/CMSIS/include/core_cmFunc.h" 1
 517 006e 85F31188 		MSR basepri, r5
 518              	@ 0 "" 2
 519              	.LVL39:
 520              		.thumb
 521              		.syntax unified
 522              	.L35:
 523              	.LBE148:
 524              	.LBE147:
 525              	.LBE146:
 526              	.LBE145:
 527              	.LBE144:
 528              	.LBE143:
 529              		.loc 1 158 0
 530 0072 BDE8F840 		pop	{r3, r4, r5, r6, r7, lr}
 531              		.cfi_restore 14
 532              		.cfi_restore 7
 533              		.cfi_restore 6
 534              		.cfi_restore 5
 535              		.cfi_restore 4
 536              		.cfi_restore 3
 537              		.cfi_def_cfa_offset 0
 538              		.loc 1 157 0
 539 0076 FFF7FEBF 		b	_port_irq_epilogue
 540              	.LVL40:
 541              	.L52:
 542 007a 00BF     		.align	2
 543              	.L51:
 544 007c 00200140 		.word	1073815552
 545 0080 00000000 		.word	.LANCHOR0
 546 0084 14000000 		.word	.LANCHOR0+20
 547              		.cfi_endproc
 548              	.LFE259:
 549              		.size	Vector88, .-Vector88
 550              		.section	.text.adc_lld_init,"ax",%progbits
 551              		.align	2
 552              		.p2align 4,,15
 553              		.global	adc_lld_init
 554              		.thumb
 555              		.thumb_func
 556              		.type	adc_lld_init, %function
 557              	adc_lld_init:
 558              	.LFB260:
 559              		.loc 1 170 0
 560              		.cfi_startproc
 561              		@ args = 0, pretend = 0, frame = 0
 562              		@ frame_needed = 0, uses_anonymous_args = 0
 563 0000 10B5     		push	{r4, lr}
 564              		.cfi_def_cfa_offset 8
 565              		.cfi_offset 4, -8
 566              		.cfi_offset 14, -4
 567              		.loc 1 174 0
 568 0002 084C     		ldr	r4, .L55
 569 0004 2046     		mov	r0, r4
 570 0006 FFF7FEFF 		bl	adcObjectInit
ARM GAS  /tmp/ccLiy4WR.s 			page 11


 571              	.LVL41:
 572              		.loc 1 175 0
 573 000a 0749     		ldr	r1, .L55+4
 574              		.loc 1 176 0
 575 000c 074A     		ldr	r2, .L55+8
 576              		.loc 1 177 0
 577 000e 084B     		ldr	r3, .L55+12
 578              		.loc 1 175 0
 579 0010 A162     		str	r1, [r4, #40]
 580              		.loc 1 176 0
 581 0012 E262     		str	r2, [r4, #44]
 582              		.loc 1 177 0
 583 0014 2363     		str	r3, [r4, #48]
 584              		.loc 1 213 0
 585 0016 0621     		movs	r1, #6
 586 0018 1220     		movs	r0, #18
 587              		.loc 1 214 0
 588 001a BDE81040 		pop	{r4, lr}
 589              		.cfi_restore 14
 590              		.cfi_restore 4
 591              		.cfi_def_cfa_offset 0
 592              		.loc 1 213 0
 593 001e FFF7FEBF 		b	nvicEnableVector
 594              	.LVL42:
 595              	.L56:
 596 0022 00BF     		.align	2
 597              	.L55:
 598 0024 00000000 		.word	.LANCHOR0
 599 0028 00200140 		.word	1073815552
 600 002c 90000000 		.word	_stm32_dma_streams+144
 601 0030 162C0200 		.word	142358
 602              		.cfi_endproc
 603              	.LFE260:
 604              		.size	adc_lld_init, .-adc_lld_init
 605              		.section	.text.adc_lld_start,"ax",%progbits
 606              		.align	2
 607              		.p2align 4,,15
 608              		.global	adc_lld_start
 609              		.thumb
 610              		.thumb_func
 611              		.type	adc_lld_start, %function
 612              	adc_lld_start:
 613              	.LFB261:
 614              		.loc 1 223 0
 615              		.cfi_startproc
 616              		@ args = 0, pretend = 0, frame = 0
 617              		@ frame_needed = 0, uses_anonymous_args = 0
 618              	.LVL43:
 619              		.loc 1 226 0
 620 0000 0378     		ldrb	r3, [r0]	@ zero_extendqisi2
 621 0002 012B     		cmp	r3, #1
 622 0004 00D0     		beq	.L62
 623 0006 7047     		bx	lr
 624              	.L62:
 625              		.loc 1 228 0
 626 0008 114B     		ldr	r3, .L64
 627 000a 9842     		cmp	r0, r3
ARM GAS  /tmp/ccLiy4WR.s 			page 12


 628              		.loc 1 223 0
 629 000c 10B5     		push	{r4, lr}
 630              		.cfi_def_cfa_offset 8
 631              		.cfi_offset 4, -8
 632              		.cfi_offset 14, -4
 633 000e 0446     		mov	r4, r0
 634              		.loc 1 228 0
 635 0010 0DD0     		beq	.L63
 636              	.LVL44:
 637              	.L59:
 638              		.loc 1 268 0
 639 0012 1048     		ldr	r0, .L64+4
 640              		.loc 1 273 0
 641 0014 A26A     		ldr	r2, [r4, #40]
 642              		.loc 1 268 0
 643 0016 4368     		ldr	r3, [r0, #4]
 644 0018 03F44003 		and	r3, r3, #12582912
 645              		.loc 1 273 0
 646 001c 0021     		movs	r1, #0
 647              		.loc 1 268 0
 648 001e 43F48033 		orr	r3, r3, #65536
 649              		.loc 1 275 0
 650 0022 0124     		movs	r4, #1
 651              	.LVL45:
 652              		.loc 1 268 0
 653 0024 4360     		str	r3, [r0, #4]
 654              		.loc 1 273 0
 655 0026 5160     		str	r1, [r2, #4]
 656              		.loc 1 274 0
 657 0028 9160     		str	r1, [r2, #8]
 658              		.loc 1 275 0
 659 002a 9460     		str	r4, [r2, #8]
 660 002c 10BD     		pop	{r4, pc}
 661              	.LVL46:
 662              	.L63:
 663              	.LBB149:
 664              		.loc 1 230 0
 665 002e 0346     		mov	r3, r0
 666 0030 094A     		ldr	r2, .L64+8
 667 0032 C06A     		ldr	r0, [r0, #44]
 668              	.LVL47:
 669 0034 0621     		movs	r1, #6
 670 0036 FFF7FEFF 		bl	dmaStreamAllocate
 671              	.LVL48:
 672              		.loc 1 235 0
 673 003a E36A     		ldr	r3, [r4, #44]
 674              		.loc 1 236 0
 675 003c 074A     		ldr	r2, .L64+12
 676              		.loc 1 235 0
 677 003e 1B68     		ldr	r3, [r3]
 678 0040 0749     		ldr	r1, .L64+16
 679 0042 9960     		str	r1, [r3, #8]
 680              		.loc 1 236 0
 681 0044 536C     		ldr	r3, [r2, #68]
 682 0046 43F48073 		orr	r3, r3, #256
 683 004a 5364     		str	r3, [r2, #68]
 684 004c E1E7     		b	.L59
ARM GAS  /tmp/ccLiy4WR.s 			page 13


 685              	.L65:
 686 004e 00BF     		.align	2
 687              	.L64:
 688 0050 00000000 		.word	.LANCHOR0
 689 0054 00230140 		.word	1073816320
 690 0058 00000000 		.word	adc_lld_serve_rx_interrupt
 691 005c 00380240 		.word	1073887232
 692 0060 4C200140 		.word	1073815628
 693              	.LBE149:
 694              		.cfi_endproc
 695              	.LFE261:
 696              		.size	adc_lld_start, .-adc_lld_start
 697              		.section	.text.adc_lld_stop,"ax",%progbits
 698              		.align	2
 699              		.p2align 4,,15
 700              		.global	adc_lld_stop
 701              		.thumb
 702              		.thumb_func
 703              		.type	adc_lld_stop, %function
 704              	adc_lld_stop:
 705              	.LFB262:
 706              		.loc 1 286 0
 707              		.cfi_startproc
 708              		@ args = 0, pretend = 0, frame = 0
 709              		@ frame_needed = 0, uses_anonymous_args = 0
 710              	.LVL49:
 711              		.loc 1 289 0
 712 0000 0378     		ldrb	r3, [r0]	@ zero_extendqisi2
 713 0002 022B     		cmp	r3, #2
 714 0004 00D0     		beq	.L72
 715 0006 7047     		bx	lr
 716              	.L72:
 717              		.loc 1 286 0
 718 0008 10B5     		push	{r4, lr}
 719              		.cfi_def_cfa_offset 8
 720              		.cfi_offset 4, -8
 721              		.cfi_offset 14, -4
 722 000a 0446     		mov	r4, r0
 723              		.loc 1 290 0
 724 000c C06A     		ldr	r0, [r0, #44]
 725              	.LVL50:
 726 000e FFF7FEFF 		bl	dmaStreamRelease
 727              	.LVL51:
 728              		.loc 1 295 0
 729 0012 0749     		ldr	r1, .L74
 730              		.loc 1 291 0
 731 0014 A36A     		ldr	r3, [r4, #40]
 732 0016 0022     		movs	r2, #0
 733              		.loc 1 295 0
 734 0018 8C42     		cmp	r4, r1
 735              		.loc 1 291 0
 736 001a 5A60     		str	r2, [r3, #4]
 737              		.loc 1 292 0
 738 001c 9A60     		str	r2, [r3, #8]
 739              		.loc 1 295 0
 740 001e 00D0     		beq	.L73
 741              	.L66:
ARM GAS  /tmp/ccLiy4WR.s 			page 14


 742 0020 10BD     		pop	{r4, pc}
 743              	.LVL52:
 744              	.L73:
 745              		.loc 1 296 0
 746 0022 044A     		ldr	r2, .L74+4
 747 0024 536C     		ldr	r3, [r2, #68]
 748 0026 23F48073 		bic	r3, r3, #256
 749 002a 5364     		str	r3, [r2, #68]
 750              		.loc 1 309 0
 751 002c F8E7     		b	.L66
 752              	.L75:
 753 002e 00BF     		.align	2
 754              	.L74:
 755 0030 00000000 		.word	.LANCHOR0
 756 0034 00380240 		.word	1073887232
 757              		.cfi_endproc
 758              	.LFE262:
 759              		.size	adc_lld_stop, .-adc_lld_stop
 760              		.section	.text.adc_lld_start_conversion,"ax",%progbits
 761              		.align	2
 762              		.p2align 4,,15
 763              		.global	adc_lld_start_conversion
 764              		.thumb
 765              		.thumb_func
 766              		.type	adc_lld_start_conversion, %function
 767              	adc_lld_start_conversion:
 768              	.LFB263:
 769              		.loc 1 318 0
 770              		.cfi_startproc
 771              		@ args = 0, pretend = 0, frame = 0
 772              		@ frame_needed = 0, uses_anonymous_args = 0
 773              	.LVL53:
 774              		.loc 1 321 0
 775 0000 0369     		ldr	r3, [r0, #16]
 776              	.LVL54:
 777              		.loc 1 324 0
 778 0002 016B     		ldr	r1, [r0, #48]
 779              	.LVL55:
 780              		.loc 1 325 0
 781 0004 1A78     		ldrb	r2, [r3]	@ zero_extendqisi2
 782              		.loc 1 318 0
 783 0006 F0B5     		push	{r4, r5, r6, r7, lr}
 784              		.cfi_def_cfa_offset 20
 785              		.cfi_offset 4, -20
 786              		.cfi_offset 5, -16
 787              		.cfi_offset 6, -12
 788              		.cfi_offset 7, -8
 789              		.cfi_offset 14, -4
 790              		.loc 1 325 0
 791 0008 002A     		cmp	r2, #0
 792 000a 2BD1     		bne	.L77
 793 000c C268     		ldr	r2, [r0, #12]
 794              	.L78:
 795              		.loc 1 333 0
 796 000e C56A     		ldr	r5, [r0, #44]
 797              		.loc 1 334 0
 798 0010 5C88     		ldrh	r4, [r3, #2]
ARM GAS  /tmp/ccLiy4WR.s 			page 15


 799              		.loc 1 333 0
 800 0012 2D68     		ldr	r5, [r5]
 801 0014 8668     		ldr	r6, [r0, #8]
 802 0016 EE60     		str	r6, [r5, #12]
 803              		.loc 1 334 0
 804 0018 02FB04F2 		mul	r2, r2, r4
 805 001c 6A60     		str	r2, [r5, #4]
 806              		.loc 1 348 0
 807 001e DC68     		ldr	r4, [r3, #12]
 808              		.loc 1 336 0
 809 0020 2960     		str	r1, [r5]
 810              		.loc 1 337 0
 811 0022 2E68     		ldr	r6, [r5]
 812              		.loc 1 340 0
 813 0024 826A     		ldr	r2, [r0, #40]
 814              		.loc 1 351 0
 815 0026 1969     		ldr	r1, [r3, #16]
 816              	.LVL56:
 817              		.loc 1 341 0
 818 0028 D3F814E0 		ldr	lr, [r3, #20]
 819              		.loc 1 342 0
 820 002c 9F69     		ldr	r7, [r3, #24]
 821              		.loc 1 348 0
 822 002e 44F08060 		orr	r0, r4, #67108864
 823              	.LVL57:
 824              		.loc 1 337 0
 825 0032 46F00104 		orr	r4, r6, #1
 826 0036 2C60     		str	r4, [r5]
 827              	.LVL58:
 828              		.loc 1 340 0
 829 0038 0024     		movs	r4, #0
 830              		.loc 1 343 0
 831 003a DD69     		ldr	r5, [r3, #28]
 832              		.loc 1 340 0
 833 003c 1460     		str	r4, [r2]
 834              		.loc 1 344 0
 835 003e 1C6A     		ldr	r4, [r3, #32]
 836              		.loc 1 345 0
 837 0040 5B6A     		ldr	r3, [r3, #36]
 838              	.LVL59:
 839              		.loc 1 341 0
 840 0042 C2F80CE0 		str	lr, [r2, #12]
 841              		.loc 1 348 0
 842 0046 40F48070 		orr	r0, r0, #256
 843              		.loc 1 342 0
 844 004a 1761     		str	r7, [r2, #16]
 845              		.loc 1 343 0
 846 004c D562     		str	r5, [r2, #44]
 847              		.loc 1 344 0
 848 004e 1463     		str	r4, [r2, #48]
 849              		.loc 1 345 0
 850 0050 5363     		str	r3, [r2, #52]
 851              		.loc 1 355 0
 852 0052 4B00     		lsls	r3, r1, #1
 853              		.loc 1 348 0
 854 0054 5060     		str	r0, [r2, #4]
 855              		.loc 1 355 0
ARM GAS  /tmp/ccLiy4WR.s 			page 16


 856 0056 0DD4     		bmi	.L83
 857              		.loc 1 351 0
 858 0058 41F44071 		orr	r1, r1, #768
 859              	.LVL60:
 860 005c 41F00101 		orr	r1, r1, #1
 861              		.loc 1 363 0
 862 0060 9160     		str	r1, [r2, #8]
 863              	.LVL61:
 864 0062 F0BD     		pop	{r4, r5, r6, r7, pc}
 865              	.LVL62:
 866              	.L77:
 867              		.loc 1 327 0
 868 0064 C268     		ldr	r2, [r0, #12]
 869 0066 012A     		cmp	r2, #1
 870              		.loc 1 326 0
 871 0068 94BF     		ite	ls
 872 006a 41F48071 		orrls	r1, r1, #256
 873              	.LVL63:
 874              		.loc 1 330 0
 875 006e 41F48471 		orrhi	r1, r1, #264
 876              	.LVL64:
 877 0072 CCE7     		b	.L78
 878              	.LVL65:
 879              	.L83:
 880              		.loc 1 357 0
 881 0074 21F08043 		bic	r3, r1, #1073741824
 882 0078 23F00203 		bic	r3, r3, #2
 883 007c 43F44073 		orr	r3, r3, #768
 884              		.loc 1 360 0
 885 0080 41F44071 		orr	r1, r1, #768
 886              	.LVL66:
 887              		.loc 1 357 0
 888 0084 43F00303 		orr	r3, r3, #3
 889              		.loc 1 360 0
 890 0088 41F00301 		orr	r1, r1, #3
 891              		.loc 1 357 0
 892 008c 9360     		str	r3, [r2, #8]
 893              		.loc 1 360 0
 894 008e 9160     		str	r1, [r2, #8]
 895              	.LVL67:
 896 0090 F0BD     		pop	{r4, r5, r6, r7, pc}
 897              		.cfi_endproc
 898              	.LFE263:
 899              		.size	adc_lld_start_conversion, .-adc_lld_start_conversion
 900 0092 00BF     		.section	.text.adc_lld_stop_conversion,"ax",%progbits
 901              		.align	2
 902              		.p2align 4,,15
 903              		.global	adc_lld_stop_conversion
 904              		.thumb
 905              		.thumb_func
 906              		.type	adc_lld_stop_conversion, %function
 907              	adc_lld_stop_conversion:
 908              	.LFB264:
 909              		.loc 1 373 0
 910              		.cfi_startproc
 911              		@ args = 0, pretend = 0, frame = 0
 912              		@ frame_needed = 0, uses_anonymous_args = 0
ARM GAS  /tmp/ccLiy4WR.s 			page 17


 913              		@ link register save eliminated.
 914              	.LVL68:
 915 0000 30B4     		push	{r4, r5}
 916              		.cfi_def_cfa_offset 8
 917              		.cfi_offset 4, -8
 918              		.cfi_offset 5, -4
 919              		.loc 1 375 0
 920 0002 C46A     		ldr	r4, [r0, #44]
 921 0004 2268     		ldr	r2, [r4]
 922 0006 1368     		ldr	r3, [r2]
 923 0008 23F01F03 		bic	r3, r3, #31
 924 000c 1360     		str	r3, [r2]
 925              	.L85:
 926              		.loc 1 375 0 is_stmt 0 discriminator 2
 927 000e 1368     		ldr	r3, [r2]
 928 0010 13F00103 		ands	r3, r3, #1
 929 0014 FBD1     		bne	.L85
 930              		.loc 1 375 0 discriminator 3
 931 0016 257A     		ldrb	r5, [r4, #8]	@ zero_extendqisi2
 932              		.loc 1 376 0 is_stmt 1 discriminator 3
 933 0018 826A     		ldr	r2, [r0, #40]
 934              		.loc 1 375 0 discriminator 3
 935 001a 6468     		ldr	r4, [r4, #4]
 936 001c 3D21     		movs	r1, #61
 937 001e A940     		lsls	r1, r1, r5
 938              		.loc 1 378 0 discriminator 3
 939 0020 0120     		movs	r0, #1
 940              	.LVL69:
 941              		.loc 1 375 0 discriminator 3
 942 0022 2160     		str	r1, [r4]
 943              		.loc 1 376 0 discriminator 3
 944 0024 5360     		str	r3, [r2, #4]
 945              		.loc 1 379 0 discriminator 3
 946 0026 30BC     		pop	{r4, r5}
 947              		.cfi_restore 5
 948              		.cfi_restore 4
 949              		.cfi_def_cfa_offset 0
 950              		.loc 1 377 0 discriminator 3
 951 0028 9360     		str	r3, [r2, #8]
 952              		.loc 1 378 0 discriminator 3
 953 002a 9060     		str	r0, [r2, #8]
 954              		.loc 1 379 0 discriminator 3
 955 002c 7047     		bx	lr
 956              		.cfi_endproc
 957              	.LFE264:
 958              		.size	adc_lld_stop_conversion, .-adc_lld_stop_conversion
 959 002e 00BF     		.section	.text.adcSTM32EnableTSVREFE,"ax",%progbits
 960              		.align	2
 961              		.p2align 4,,15
 962              		.global	adcSTM32EnableTSVREFE
 963              		.thumb
 964              		.thumb_func
 965              		.type	adcSTM32EnableTSVREFE, %function
 966              	adcSTM32EnableTSVREFE:
 967              	.LFB265:
 968              		.loc 1 387 0
 969              		.cfi_startproc
ARM GAS  /tmp/ccLiy4WR.s 			page 18


 970              		@ args = 0, pretend = 0, frame = 0
 971              		@ frame_needed = 0, uses_anonymous_args = 0
 972              		@ link register save eliminated.
 973              		.loc 1 389 0
 974 0000 024A     		ldr	r2, .L89
 975 0002 5368     		ldr	r3, [r2, #4]
 976 0004 43F40003 		orr	r3, r3, #8388608
 977 0008 5360     		str	r3, [r2, #4]
 978 000a 7047     		bx	lr
 979              	.L90:
 980              		.align	2
 981              	.L89:
 982 000c 00230140 		.word	1073816320
 983              		.cfi_endproc
 984              	.LFE265:
 985              		.size	adcSTM32EnableTSVREFE, .-adcSTM32EnableTSVREFE
 986              		.section	.text.adcSTM32DisableTSVREFE,"ax",%progbits
 987              		.align	2
 988              		.p2align 4,,15
 989              		.global	adcSTM32DisableTSVREFE
 990              		.thumb
 991              		.thumb_func
 992              		.type	adcSTM32DisableTSVREFE, %function
 993              	adcSTM32DisableTSVREFE:
 994              	.LFB266:
 995              		.loc 1 398 0
 996              		.cfi_startproc
 997              		@ args = 0, pretend = 0, frame = 0
 998              		@ frame_needed = 0, uses_anonymous_args = 0
 999              		@ link register save eliminated.
 1000              		.loc 1 400 0
 1001 0000 024A     		ldr	r2, .L92
 1002 0002 5368     		ldr	r3, [r2, #4]
 1003 0004 23F40003 		bic	r3, r3, #8388608
 1004 0008 5360     		str	r3, [r2, #4]
 1005 000a 7047     		bx	lr
 1006              	.L93:
 1007              		.align	2
 1008              	.L92:
 1009 000c 00230140 		.word	1073816320
 1010              		.cfi_endproc
 1011              	.LFE266:
 1012              		.size	adcSTM32DisableTSVREFE, .-adcSTM32DisableTSVREFE
 1013              		.section	.text.adcSTM32EnableVBATE,"ax",%progbits
 1014              		.align	2
 1015              		.p2align 4,,15
 1016              		.global	adcSTM32EnableVBATE
 1017              		.thumb
 1018              		.thumb_func
 1019              		.type	adcSTM32EnableVBATE, %function
 1020              	adcSTM32EnableVBATE:
 1021              	.LFB267:
 1022              		.loc 1 409 0
 1023              		.cfi_startproc
 1024              		@ args = 0, pretend = 0, frame = 0
 1025              		@ frame_needed = 0, uses_anonymous_args = 0
 1026              		@ link register save eliminated.
ARM GAS  /tmp/ccLiy4WR.s 			page 19


 1027              		.loc 1 411 0
 1028 0000 024A     		ldr	r2, .L95
 1029 0002 5368     		ldr	r3, [r2, #4]
 1030 0004 43F48003 		orr	r3, r3, #4194304
 1031 0008 5360     		str	r3, [r2, #4]
 1032 000a 7047     		bx	lr
 1033              	.L96:
 1034              		.align	2
 1035              	.L95:
 1036 000c 00230140 		.word	1073816320
 1037              		.cfi_endproc
 1038              	.LFE267:
 1039              		.size	adcSTM32EnableVBATE, .-adcSTM32EnableVBATE
 1040              		.section	.text.adcSTM32DisableVBATE,"ax",%progbits
 1041              		.align	2
 1042              		.p2align 4,,15
 1043              		.global	adcSTM32DisableVBATE
 1044              		.thumb
 1045              		.thumb_func
 1046              		.type	adcSTM32DisableVBATE, %function
 1047              	adcSTM32DisableVBATE:
 1048              	.LFB268:
 1049              		.loc 1 420 0
 1050              		.cfi_startproc
 1051              		@ args = 0, pretend = 0, frame = 0
 1052              		@ frame_needed = 0, uses_anonymous_args = 0
 1053              		@ link register save eliminated.
 1054              		.loc 1 422 0
 1055 0000 024A     		ldr	r2, .L98
 1056 0002 5368     		ldr	r3, [r2, #4]
 1057 0004 23F48003 		bic	r3, r3, #4194304
 1058 0008 5360     		str	r3, [r2, #4]
 1059 000a 7047     		bx	lr
 1060              	.L99:
 1061              		.align	2
 1062              	.L98:
 1063 000c 00230140 		.word	1073816320
 1064              		.cfi_endproc
 1065              	.LFE268:
 1066              		.size	adcSTM32DisableVBATE, .-adcSTM32DisableVBATE
 1067              		.global	ADCD1
 1068              		.section	.bss.ADCD1,"aw",%nobits
 1069              		.align	2
 1070              		.set	.LANCHOR0,. + 0
 1071              		.type	ADCD1, %object
 1072              		.size	ADCD1, 52
 1073              	ADCD1:
 1074 0000 00000000 		.space	52
 1074      00000000 
 1074      00000000 
 1074      00000000 
 1074      00000000 
 1075              		.text
 1076              	.Letext0:
 1077              		.file 4 "/usr/lib/gcc/arm-none-eabi/5.3.1/include/stddef.h"
 1078              		.file 5 "/usr/arm-none-eabi/include/machine/_default_types.h"
 1079              		.file 6 "/usr/arm-none-eabi/include/sys/_stdint.h"
ARM GAS  /tmp/ccLiy4WR.s 			page 20


 1080              		.file 7 "/home/selim/working/ChibiOS/os/rt/ports/ARMCMx/compilers/GCC/chtypes.h"
 1081              		.file 8 "/home/selim/working/ChibiOS/os/rt/include/chsystypes.h"
 1082              		.file 9 "/home/selim/working/ChibiOS/os/rt/include/chschd.h"
 1083              		.file 10 "/home/selim/working/ChibiOS/os/ext/CMSIS/ST/stm32f407xx.h"
 1084              		.file 11 "/home/selim/working/ChibiOS/os/rt/ports/ARMCMx/chcore.h"
 1085              		.file 12 "/home/selim/working/ChibiOS/os/rt/ports/ARMCMx/chcore_v7m.h"
 1086              		.file 13 "/home/selim/working/ChibiOS/os/rt/include/chtm.h"
 1087              		.file 14 "/home/selim/working/ChibiOS/os/rt/include/chsem.h"
 1088              		.file 15 "/home/selim/working/ChibiOS/os/rt/include/chmtx.h"
 1089              		.file 16 "/home/selim/working/ChibiOS/os/hal/ports/STM32/STM32F4xx/stm32_dma.h"
 1090              		.file 17 "/home/selim/working/ChibiOS/os/hal/include/adc.h"
 1091              		.file 18 "/home/selim/working/ChibiOS/os/hal/ports/STM32/STM32F4xx/adc_lld.h"
 1092              		.file 19 "/home/selim/working/ChibiOS/os/rt/include/chsys.h"
 1093              		.file 20 "/home/selim/working/ChibiOS/os/ext/CMSIS/include/core_cm4.h"
 1094              		.file 21 "/home/selim/working/ChibiOS/os/rt/include/chthreads.h"
 1095              		.file 22 "/home/selim/working/ChibiOS/os/hal/ports/common/ARMCMx/nvic.h"