ARM GAS  /tmp/ccMNpivg.s 			page 1


   1              		.syntax unified
   2              		.cpu cortex-m4
   3              		.fpu softvfp
   4              		.eabi_attribute 20, 1
   5              		.eabi_attribute 21, 1
   6              		.eabi_attribute 23, 3
   7              		.eabi_attribute 24, 1
   8              		.eabi_attribute 25, 1
   9              		.eabi_attribute 26, 1
  10              		.eabi_attribute 30, 2
  11              		.eabi_attribute 34, 1
  12              		.eabi_attribute 18, 4
  13              		.thumb
  14              		.syntax unified
  15              		.file	"main.c"
  16              		.text
  17              	.Ltext0:
  18              		.cfi_sections	.debug_frame
  19              		.section	.text.adcerrorcallback,"ax",%progbits
  20              		.align	2
  21              		.p2align 4,,15
  22              		.thumb
  23              		.thumb_func
  24              		.type	adcerrorcallback, %function
  25              	adcerrorcallback:
  26              	.LFB259:
  27              		.file 1 "main.c"
  28              		.loc 1 40 0
  29              		.cfi_startproc
  30              		@ args = 0, pretend = 0, frame = 0
  31              		@ frame_needed = 0, uses_anonymous_args = 0
  32              		@ link register save eliminated.
  33              	.LVL0:
  34 0000 7047     		bx	lr
  35              		.cfi_endproc
  36              	.LFE259:
  37              		.size	adcerrorcallback, .-adcerrorcallback
  38 0002 00BF     		.section	.text.chprintf,"ax",%progbits
  39              		.align	2
  40              		.p2align 4,,15
  41              		.thumb
  42              		.thumb_func
  43              		.type	chprintf, %function
  44              	chprintf:
  45              	.LFB258:
  46              		.file 2 "/home/selim/working/ChibiOS/os/hal/lib/streams/chprintf.h"
  47              		.loc 2 69 0
  48              		.cfi_startproc
  49              		@ args = 4, pretend = 12, frame = 8
  50              		@ frame_needed = 0, uses_anonymous_args = 1
  51              	.LVL1:
  52              		.loc 2 69 0
  53 0000 0EB4     		push	{r1, r2, r3}
  54              		.cfi_def_cfa_offset 12
  55              		.cfi_offset 1, -12
  56              		.cfi_offset 2, -8
  57              		.cfi_offset 3, -4
ARM GAS  /tmp/ccMNpivg.s 			page 2


  58 0002 00B5     		push	{lr}
  59              		.cfi_def_cfa_offset 16
  60              		.cfi_offset 14, -16
  61 0004 82B0     		sub	sp, sp, #8
  62              		.cfi_def_cfa_offset 24
  63              		.loc 2 69 0
  64 0006 03AA     		add	r2, sp, #12
  65 0008 52F8041B 		ldr	r1, [r2], #4
  66              		.loc 2 73 0
  67 000c 0192     		str	r2, [sp, #4]
  68              		.loc 2 74 0
  69 000e FFF7FEFF 		bl	chvprintf
  70              	.LVL2:
  71              		.loc 2 78 0
  72 0012 02B0     		add	sp, sp, #8
  73              		.cfi_def_cfa_offset 16
  74              		@ sp needed
  75 0014 5DF804EB 		ldr	lr, [sp], #4
  76              		.cfi_restore 14
  77              		.cfi_def_cfa_offset 12
  78 0018 03B0     		add	sp, sp, #12
  79              		.cfi_restore 3
  80              		.cfi_restore 2
  81              		.cfi_restore 1
  82              		.cfi_def_cfa_offset 0
  83 001a 7047     		bx	lr
  84              		.cfi_endproc
  85              	.LFE258:
  86              		.size	chprintf, .-chprintf
  87              		.global	__aeabi_i2d
  88              		.global	__aeabi_dmul
  89              		.global	__aeabi_ddiv
  90              		.global	__aeabi_d2f
  91              		.global	__aeabi_dsub
  92              		.global	__aeabi_dadd
  93              		.section	.text.Thread2,"ax",%progbits
  94              		.align	2
  95              		.p2align 4,,15
  96              		.thumb
  97              		.thumb_func
  98              		.type	Thread2, %function
  99              	Thread2:
 100              	.LFB260:
 101              		.loc 1 85 0
 102              		.cfi_startproc
 103              		@ args = 0, pretend = 0, frame = 8
 104              		@ frame_needed = 0, uses_anonymous_args = 0
 105              	.LVL3:
 106 0000 F0B5     		push	{r4, r5, r6, r7, lr}
 107              		.cfi_def_cfa_offset 20
 108              		.cfi_offset 4, -20
 109              		.cfi_offset 5, -16
 110              		.cfi_offset 6, -12
 111              		.cfi_offset 7, -8
 112              		.cfi_offset 14, -4
 113              		.loc 1 88 0
 114 0002 0021     		movs	r1, #0
ARM GAS  /tmp/ccMNpivg.s 			page 3


 115              		.loc 1 94 0
 116 0004 384E     		ldr	r6, .L12+24
 117              		.loc 1 88 0
 118 0006 3948     		ldr	r0, .L12+28
 119              	.LVL4:
 120 0008 394D     		ldr	r5, .L12+32
 121              		.loc 1 85 0
 122 000a 83B0     		sub	sp, sp, #12
 123              		.cfi_def_cfa_offset 32
 124              		.loc 1 88 0
 125 000c FFF7FEFF 		bl	adcStart
 126              	.LVL5:
 127              		.loc 1 89 0
 128 0010 FFF7FEFF 		bl	adcSTM32EnableTSVREFE
 129              	.LVL6:
 130              		.loc 1 94 0
 131 0014 AA21     		movs	r1, #170
 132              		.loc 1 95 0
 133 0016 BB22     		movs	r2, #187
 134              		.loc 1 96 0
 135 0018 0823     		movs	r3, #8
 136              		.loc 1 94 0
 137 001a 3170     		strb	r1, [r6]
 138              		.loc 1 95 0
 139 001c 7270     		strb	r2, [r6, #1]
 140              		.loc 1 96 0
 141 001e B370     		strb	r3, [r6, #2]
 142              	.L7:
 143              	.LBB63:
 144              		.loc 1 102 0
 145 0020 0123     		movs	r3, #1
 146 0022 01AA     		add	r2, sp, #4
 147 0024 3349     		ldr	r1, .L12+36
 148 0026 3148     		ldr	r0, .L12+28
 149 0028 FFF7FEFF 		bl	adcConvert
 150              	.LVL7:
 151              		.loc 1 103 0
 152 002c BDF80400 		ldrh	r0, [sp, #4]
 153 0030 FFF7FEFF 		bl	__aeabi_i2d
 154              	.LVL8:
 155 0034 0022     		movs	r2, #0
 156 0036 304B     		ldr	r3, .L12+40
 157 0038 FFF7FEFF 		bl	__aeabi_dmul
 158              	.LVL9:
 159 003c 0022     		movs	r2, #0
 160 003e 2F4B     		ldr	r3, .L12+44
 161 0040 FFF7FEFF 		bl	__aeabi_dmul
 162              	.LVL10:
 163 0044 22A3     		adr	r3, .L12
 164 0046 D3E90023 		ldrd	r2, [r3]
 165 004a FFF7FEFF 		bl	__aeabi_ddiv
 166              	.LVL11:
 167 004e FFF7FEFF 		bl	__aeabi_d2f
 168              	.LVL12:
 169 0052 C6F80300 		str	r0, [r6, #3]	@ unaligned
 170              		.loc 1 104 0
 171 0056 BDF80600 		ldrh	r0, [sp, #6]
ARM GAS  /tmp/ccMNpivg.s 			page 4


 172 005a FFF7FEFF 		bl	__aeabi_i2d
 173              	.LVL13:
 174 005e 0022     		movs	r2, #0
 175 0060 254B     		ldr	r3, .L12+40
 176 0062 FFF7FEFF 		bl	__aeabi_dmul
 177              	.LVL14:
 178 0066 0022     		movs	r2, #0
 179 0068 244B     		ldr	r3, .L12+44
 180 006a FFF7FEFF 		bl	__aeabi_dmul
 181              	.LVL15:
 182 006e 1AA3     		adr	r3, .L12+8
 183 0070 D3E90023 		ldrd	r2, [r3]
 184 0074 FFF7FEFF 		bl	__aeabi_dsub
 185              	.LVL16:
 186 0078 19A3     		adr	r3, .L12+16
 187 007a D3E90023 		ldrd	r2, [r3]
 188 007e FFF7FEFF 		bl	__aeabi_ddiv
 189              	.LVL17:
 190 0082 0022     		movs	r2, #0
 191 0084 1E4B     		ldr	r3, .L12+48
 192 0086 FFF7FEFF 		bl	__aeabi_dadd
 193              	.LVL18:
 194 008a FFF7FEFF 		bl	__aeabi_d2f
 195              	.LVL19:
 196 008e C6F80700 		str	r0, [r6, #7]	@ unaligned
 197              		.loc 1 105 0
 198 0092 41F28830 		movw	r0, #5000
 199 0096 FFF7FEFF 		bl	chThdSleep
 200              	.LVL20:
 201 009a 1A4A     		ldr	r2, .L12+52
 202              		.loc 1 106 0
 203 009c 0023     		movs	r3, #0
 204 009e 02F10800 		add	r0, r2, #8
 205 00a2 F372     		strb	r3, [r6, #11]
 206              	.LVL21:
 207              	.L5:
 208              	.LBB64:
 209              		.loc 1 108 0 discriminator 3
 210 00a4 12F8011F 		ldrb	r1, [r2, #1]!	@ zero_extendqisi2
 211              	.LVL22:
 212 00a8 0B44     		add	r3, r3, r1
 213 00aa DBB2     		uxtb	r3, r3
 214              		.loc 1 107 0 discriminator 3
 215 00ac 8242     		cmp	r2, r0
 216              		.loc 1 108 0 discriminator 3
 217 00ae F372     		strb	r3, [r6, #11]
 218              	.LVL23:
 219              		.loc 1 107 0 discriminator 3
 220 00b0 F8D1     		bne	.L5
 221 00b2 0D4C     		ldr	r4, .L12+24
 222 00b4 04F10C07 		add	r7, r4, #12
 223              	.LVL24:
 224              	.L6:
 225              	.LBE64:
 226              	.LBB65:
 227              		.loc 1 111 0 discriminator 3
 228 00b8 2B68     		ldr	r3, [r5]
ARM GAS  /tmp/ccMNpivg.s 			page 5


 229 00ba 14F8011B 		ldrb	r1, [r4], #1	@ zero_extendqisi2
 230              	.LVL25:
 231 00be 9B68     		ldr	r3, [r3, #8]
 232 00c0 0B48     		ldr	r0, .L12+32
 233 00c2 9847     		blx	r3
 234              	.LVL26:
 235              		.loc 1 110 0 discriminator 3
 236 00c4 A742     		cmp	r7, r4
 237 00c6 F7D1     		bne	.L6
 238 00c8 AAE7     		b	.L7
 239              	.L13:
 240 00ca 00BFAFF3 		.align	3
 240      0080
 241              	.L12:
 242 00d0 7B14AE47 		.word	1202590843
 243 00d4 E17A843F 		.word	1065646817
 244 00d8 00000080 		.word	2147483648
 245 00dc EB51E83F 		.word	1072189931
 246 00e0 00000040 		.word	1073741824
 247 00e4 E17A643F 		.word	1063549665
 248 00e8 00000000 		.word	.LANCHOR0
 249 00ec 00000000 		.word	ADCD1
 250 00f0 00000000 		.word	.LANCHOR2
 251 00f4 00000000 		.word	.LANCHOR1
 252 00f8 00000840 		.word	1074266112
 253 00fc 0000303F 		.word	1060110336
 254 0100 00003940 		.word	1077477376
 255 0104 02000000 		.word	.LANCHOR0+2
 256              	.LBE65:
 257              	.LBE63:
 258              		.cfi_endproc
 259              	.LFE260:
 260              		.size	Thread2, .-Thread2
 261              		.section	.text.Thread1,"ax",%progbits
 262              		.align	2
 263              		.p2align 4,,15
 264              		.thumb
 265              		.thumb_func
 266              		.type	Thread1, %function
 267              	Thread1:
 268              	.LFB264:
 269              		.loc 1 239 0
 270              		.cfi_startproc
 271              		@ args = 0, pretend = 0, frame = 0
 272              		@ frame_needed = 0, uses_anonymous_args = 0
 273              	.LVL27:
 274 0000 F8B5     		push	{r3, r4, r5, r6, r7, lr}
 275              		.cfi_def_cfa_offset 24
 276              		.cfi_offset 3, -24
 277              		.cfi_offset 4, -20
 278              		.cfi_offset 5, -16
 279              		.cfi_offset 6, -12
 280              		.cfi_offset 7, -8
 281              		.cfi_offset 14, -4
 282              		.loc 1 244 0
 283 0002 4C4B     		ldr	r3, .L27
 284 0004 4C4A     		ldr	r2, .L27+4
ARM GAS  /tmp/ccMNpivg.s 			page 6


 285 0006 9B69     		ldr	r3, [r3, #24]
 286              		.loc 1 247 0
 287 0008 4C48     		ldr	r0, .L27+8
 288              	.LVL28:
 289              		.loc 1 244 0
 290 000a 9A61     		str	r2, [r3, #24]
 291              		.loc 1 247 0
 292 000c 2021     		movs	r1, #32
 293 000e 4322     		movs	r2, #67
 294 0010 FFF7FEFF 		bl	lis302dlWriteRegister
 295              	.LVL29:
 296              		.loc 1 248 0
 297 0014 0022     		movs	r2, #0
 298 0016 2121     		movs	r1, #33
 299 0018 4848     		ldr	r0, .L27+8
 300 001a FFF7FEFF 		bl	lis302dlWriteRegister
 301              	.LVL30:
 302              		.loc 1 249 0
 303 001e 0022     		movs	r2, #0
 304 0020 2221     		movs	r1, #34
 305 0022 4648     		ldr	r0, .L27+8
 306 0024 FFF7FEFF 		bl	lis302dlWriteRegister
 307              	.LVL31:
 308              	.LBB66:
 309              	.LBB67:
 310              	.LBB68:
 311              	.LBB69:
 312              	.LBB70:
 313              	.LBB71:
 314              		.file 3 "/home/selim/working/ChibiOS/os/ext/CMSIS/include/core_cmFunc.h"
 315              		.loc 3 546 0
 316 0028 2023     		movs	r3, #32
 317              		.syntax unified
 318              	@ 546 "/home/selim/working/ChibiOS/os/ext/CMSIS/include/core_cmFunc.h" 1
 319 002a 83F31188 		MSR basepri, r3
 320              	@ 0 "" 2
 321              	.LVL32:
 322              		.thumb
 323              		.syntax unified
 324              	.LBE71:
 325              	.LBE70:
 326              	.LBE69:
 327              	.LBE68:
 328              	.LBB72:
 329              	.LBB73:
 330              	.LBB74:
 331              	.LBB75:
 332              		.file 4 "/home/selim/working/ChibiOS/os/hal/ports/STM32/LLD/TIMv1/st_lld.h"
 333              		.loc 4 129 0
 334 002e 4FF08042 		mov	r2, #1073741824
 335              	.LBE75:
 336              	.LBE74:
 337              	.LBE73:
 338              	.LBE72:
 339              	.LBB79:
 340              	.LBB80:
 341              	.LBB81:
ARM GAS  /tmp/ccMNpivg.s 			page 7


 342              	.LBB82:
 343              	.LBB83:
 344              		.loc 3 546 0
 345 0032 0023     		movs	r3, #0
 346              	.LBE83:
 347              	.LBE82:
 348              	.LBE81:
 349              	.LBE80:
 350              	.LBE79:
 351              	.LBB88:
 352              	.LBB78:
 353              	.LBB77:
 354              	.LBB76:
 355              		.loc 4 129 0
 356 0034 576A     		ldr	r7, [r2, #36]
 357              	.LVL33:
 358              	.LBE76:
 359              	.LBE77:
 360              	.LBE78:
 361              	.LBE88:
 362              	.LBB89:
 363              	.LBB87:
 364              	.LBB86:
 365              	.LBB85:
 366              	.LBB84:
 367              		.loc 3 546 0
 368              		.syntax unified
 369              	@ 546 "/home/selim/working/ChibiOS/os/ext/CMSIS/include/core_cmFunc.h" 1
 370 0036 83F31188 		MSR basepri, r3
 371              	@ 0 "" 2
 372              	.LVL34:
 373              		.thumb
 374              		.syntax unified
 375 003a 414E     		ldr	r6, .L27+12
 376 003c 414D     		ldr	r5, .L27+16
 377              	.L22:
 378              	.LVL35:
 379 003e 4249     		ldr	r1, .L27+20
 380 0040 424A     		ldr	r2, .L27+24
 381 0042 4C1C     		adds	r4, r1, #1
 382 0044 501C     		adds	r0, r2, #1
 383              	.LBE84:
 384              	.LBE85:
 385              	.LBE86:
 386              	.LBE87:
 387              	.LBE89:
 388              	.LBE67:
 389              	.LBE66:
 390              	.LBB90:
 391              		.loc 1 258 0
 392 0046 0323     		movs	r3, #3
 393              	.LVL36:
 394              	.L15:
 395              		.loc 1 259 0 discriminator 3
 396 0048 11F901CD 		ldrsb	ip, [r1, #-1]!
 397              		.loc 1 260 0 discriminator 3
 398 004c 12F901ED 		ldrsb	lr, [r2, #-1]!
ARM GAS  /tmp/ccMNpivg.s 			page 8


 399              		.loc 1 259 0 discriminator 3
 400 0050 04F801CD 		strb	ip, [r4, #-1]!
 401              		.loc 1 258 0 discriminator 3
 402 0054 013B     		subs	r3, r3, #1
 403              	.LVL37:
 404              		.loc 1 260 0 discriminator 3
 405 0056 00F801ED 		strb	lr, [r0, #-1]!
 406              	.LVL38:
 407              		.loc 1 258 0 discriminator 3
 408 005a F5D1     		bne	.L15
 409              		.loc 1 264 0
 410 005c 2921     		movs	r1, #41
 411 005e 3748     		ldr	r0, .L27+8
 412 0060 FFF7FEFF 		bl	lis302dlReadRegister
 413              	.LVL39:
 414              		.loc 1 265 0
 415 0064 2B21     		movs	r1, #43
 416              		.loc 1 264 0
 417 0066 3070     		strb	r0, [r6]
 418              		.loc 1 265 0
 419 0068 3448     		ldr	r0, .L27+8
 420 006a FFF7FEFF 		bl	lis302dlReadRegister
 421              	.LVL40:
 422 006e 2870     		strb	r0, [r5]
 423              		.loc 1 268 0
 424 0070 3748     		ldr	r0, .L27+28
 425 0072 FFF7FEFF 		bl	spiSelect
 426              	.LVL41:
 427              		.loc 1 269 0
 428 0076 324A     		ldr	r2, .L27+12
 429 0078 3548     		ldr	r0, .L27+28
 430 007a 0421     		movs	r1, #4
 431 007c FFF7FEFF 		bl	spiSend
 432              	.LVL42:
 433              		.loc 1 270 0
 434 0080 304A     		ldr	r2, .L27+16
 435 0082 3348     		ldr	r0, .L27+28
 436 0084 0421     		movs	r1, #4
 437 0086 FFF7FEFF 		bl	spiSend
 438              	.LVL43:
 439              		.loc 1 271 0
 440 008a 3148     		ldr	r0, .L27+28
 441 008c FFF7FEFF 		bl	spiUnselect
 442              	.LVL44:
 443              		.loc 1 274 0
 444 0090 96F90030 		ldrsb	r3, [r6]
 445 0094 96F90110 		ldrsb	r1, [r6, #1]
 446 0098 96F90220 		ldrsb	r2, [r6, #2]
 447              		.loc 1 276 0
 448 009c 95F90100 		ldrsb	r0, [r5, #1]
 449              		.loc 1 274 0
 450 00a0 96F90340 		ldrsb	r4, [r6, #3]
 451              		.loc 1 276 0
 452 00a4 95F903E0 		ldrsb	lr, [r5, #3]
 453              		.loc 1 274 0
 454 00a8 1944     		add	r1, r1, r3
 455 00aa 8B18     		adds	r3, r1, r2
ARM GAS  /tmp/ccMNpivg.s 			page 9


 456              		.loc 1 276 0
 457 00ac 95F90020 		ldrsb	r2, [r5]
 458 00b0 95F90210 		ldrsb	r1, [r5, #2]
 459 00b4 0244     		add	r2, r2, r0
 460              		.loc 1 274 0
 461 00b6 1B19     		adds	r3, r3, r4
 462              		.loc 1 276 0
 463 00b8 0A44     		add	r2, r2, r1
 464              		.loc 1 274 0
 465 00ba 48BF     		it	mi
 466 00bc 0333     		addmi	r3, r3, #3
 467              		.loc 1 276 0
 468 00be 12EB0E02 		adds	r2, r2, lr
 469 00c2 48BF     		it	mi
 470 00c4 0332     		addmi	r2, r2, #3
 471              		.loc 1 280 0
 472 00c6 9210     		asrs	r2, r2, #2
 473              		.loc 1 274 0
 474 00c8 4FEAA304 		asr	r4, r3, #2
 475              	.LVL45:
 476              		.loc 1 280 0
 477 00cc 1AD4     		bmi	.L25
 478              		.loc 1 285 0
 479 00ce 0221     		movs	r1, #2
 480 00d0 2048     		ldr	r0, .L27+32
 481 00d2 FFF7FEFF 		bl	pwmEnableChannel
 482              	.LVL46:
 483              		.loc 1 286 0
 484 00d6 0022     		movs	r2, #0
 485 00d8 1146     		mov	r1, r2
 486 00da 1E48     		ldr	r0, .L27+32
 487 00dc FFF7FEFF 		bl	pwmEnableChannel
 488              	.LVL47:
 489              		.loc 1 288 0
 490 00e0 002C     		cmp	r4, #0
 491 00e2 1BDB     		blt	.L26
 492              	.L20:
 493              		.loc 1 293 0
 494 00e4 2246     		mov	r2, r4
 495 00e6 0321     		movs	r1, #3
 496 00e8 1A48     		ldr	r0, .L27+32
 497 00ea FFF7FEFF 		bl	pwmEnableChannel
 498              	.LVL48:
 499              		.loc 1 294 0
 500 00ee 0022     		movs	r2, #0
 501 00f0 0121     		movs	r1, #1
 502 00f2 1848     		ldr	r0, .L27+32
 503 00f4 FFF7FEFF 		bl	pwmEnableChannel
 504              	.LVL49:
 505              	.L21:
 506              		.loc 1 298 0
 507 00f8 07F57A77 		add	r7, r7, #1000
 508              	.LVL50:
 509 00fc 3846     		mov	r0, r7
 510 00fe FFF7FEFF 		bl	chThdSleepUntil
 511              	.LVL51:
 512              	.LBE90:
ARM GAS  /tmp/ccMNpivg.s 			page 10


 513              		.loc 1 299 0
 514 0102 9CE7     		b	.L22
 515              	.L25:
 516              	.LBB91:
 517              		.loc 1 281 0
 518 0104 5242     		negs	r2, r2
 519 0106 0021     		movs	r1, #0
 520 0108 1248     		ldr	r0, .L27+32
 521 010a FFF7FEFF 		bl	pwmEnableChannel
 522              	.LVL52:
 523              		.loc 1 282 0
 524 010e 0022     		movs	r2, #0
 525 0110 0221     		movs	r1, #2
 526 0112 1048     		ldr	r0, .L27+32
 527 0114 FFF7FEFF 		bl	pwmEnableChannel
 528              	.LVL53:
 529              		.loc 1 288 0
 530 0118 002C     		cmp	r4, #0
 531 011a E3DA     		bge	.L20
 532              	.L26:
 533              		.loc 1 289 0
 534 011c 6242     		negs	r2, r4
 535 011e 0121     		movs	r1, #1
 536 0120 0C48     		ldr	r0, .L27+32
 537 0122 FFF7FEFF 		bl	pwmEnableChannel
 538              	.LVL54:
 539              		.loc 1 290 0
 540 0126 0022     		movs	r2, #0
 541 0128 0321     		movs	r1, #3
 542 012a 0A48     		ldr	r0, .L27+32
 543 012c FFF7FEFF 		bl	pwmEnableChannel
 544              	.LVL55:
 545 0130 E2E7     		b	.L21
 546              	.L28:
 547 0132 00BF     		.align	2
 548              	.L27:
 549 0134 00000000 		.word	ch
 550 0138 00000000 		.word	.LC0
 551 013c 00000000 		.word	SPID1
 552 0140 00000000 		.word	.LANCHOR3
 553 0144 00000000 		.word	.LANCHOR4
 554 0148 03000000 		.word	.LANCHOR3+3
 555 014c 03000000 		.word	.LANCHOR4+3
 556 0150 00000000 		.word	SPID2
 557 0154 00000000 		.word	PWMD4
 558              	.LBE91:
 559              		.cfi_endproc
 560              	.LFE264:
 561              		.size	Thread1, .-Thread1
 562              		.section	.text.cmd_test,"ax",%progbits
 563              		.align	2
 564              		.p2align 4,,15
 565              		.thumb
 566              		.thumb_func
 567              		.type	cmd_test, %function
 568              	cmd_test:
 569              	.LFB263:
ARM GAS  /tmp/ccMNpivg.s 			page 11


 570              		.loc 1 155 0
 571              		.cfi_startproc
 572              		@ args = 0, pretend = 0, frame = 0
 573              		@ frame_needed = 0, uses_anonymous_args = 0
 574              	.LVL56:
 575              		.loc 1 159 0
 576 0000 0029     		cmp	r1, #0
 577 0002 02DD     		ble	.L30
 578              		.loc 1 160 0
 579 0004 0E49     		ldr	r1, .L34
 580              	.LVL57:
 581 0006 FFF7FEBF 		b	chprintf
 582              	.LVL58:
 583              	.L30:
 584              		.loc 1 155 0
 585 000a 10B5     		push	{r4, lr}
 586              		.cfi_def_cfa_offset 8
 587              		.cfi_offset 4, -8
 588              		.cfi_offset 14, -4
 589              	.LBB98:
 590              	.LBB99:
 591              	.LBB100:
 592              	.LBB101:
 593              	.LBB102:
 594              	.LBB103:
 595              		.file 5 "/home/selim/working/ChibiOS/os/rt/include/chthreads.h"
 596              		.loc 5 176 0
 597 000c 0D4A     		ldr	r2, .L34+4
 598              	.LVL59:
 599              	.LBE103:
 600              	.LBE102:
 601              	.LBE101:
 602              	.LBE100:
 603              		.loc 1 163 0
 604 000e 0E4B     		ldr	r3, .L34+8
 605              	.LBB105:
 606              	.LBB104:
 607              		.loc 5 189 0
 608 0010 9269     		ldr	r2, [r2, #24]
 609              	.LBE104:
 610              	.LBE105:
 611              	.LBE99:
 612              	.LBE98:
 613              		.loc 1 155 0
 614 0012 82B0     		sub	sp, sp, #8
 615              		.cfi_def_cfa_offset 16
 616 0014 0446     		mov	r4, r0
 617              	.LBB109:
 618              	.LBB106:
 619              		.loc 1 163 0
 620 0016 9268     		ldr	r2, [r2, #8]
 621 0018 0090     		str	r0, [sp]
 622 001a 4FF4E471 		mov	r1, #456
 623              	.LVL60:
 624 001e 0020     		movs	r0, #0
 625              	.LVL61:
 626 0020 FFF7FEFF 		bl	chThdCreateFromHeap
ARM GAS  /tmp/ccMNpivg.s 			page 12


 627              	.LVL62:
 628              		.loc 1 165 0
 629 0024 20B1     		cbz	r0, .L33
 630              	.LBE106:
 631              	.LBE109:
 632              		.loc 1 170 0
 633 0026 02B0     		add	sp, sp, #8
 634              		.cfi_remember_state
 635              		.cfi_def_cfa_offset 8
 636              		@ sp needed
 637 0028 BDE81040 		pop	{r4, lr}
 638              		.cfi_restore 14
 639              		.cfi_restore 4
 640              		.cfi_def_cfa_offset 0
 641              	.LVL63:
 642              	.LBB110:
 643              	.LBB107:
 644              		.loc 1 169 0
 645 002c FFF7FEBF 		b	chThdWait
 646              	.LVL64:
 647              	.L33:
 648              		.cfi_restore_state
 649              		.loc 1 166 0
 650 0030 0649     		ldr	r1, .L34+12
 651 0032 2046     		mov	r0, r4
 652              	.LVL65:
 653              	.LBE107:
 654              	.LBE110:
 655              		.loc 1 170 0
 656 0034 02B0     		add	sp, sp, #8
 657              		.cfi_def_cfa_offset 8
 658              		@ sp needed
 659 0036 BDE81040 		pop	{r4, lr}
 660              		.cfi_restore 14
 661              		.cfi_restore 4
 662              		.cfi_def_cfa_offset 0
 663              	.LVL66:
 664              	.LBB111:
 665              	.LBB108:
 666              		.loc 1 166 0
 667 003a FFF7FEBF 		b	chprintf
 668              	.LVL67:
 669              	.L35:
 670 003e 00BF     		.align	2
 671              	.L34:
 672 0040 08000000 		.word	.LC1
 673 0044 00000000 		.word	ch
 674 0048 00000000 		.word	TestThread
 675 004c 18000000 		.word	.LC2
 676              	.LBE108:
 677              	.LBE111:
 678              		.cfi_endproc
 679              	.LFE263:
 680              		.size	cmd_test, .-cmd_test
 681              		.section	.text.cmd_threads,"ax",%progbits
 682              		.align	2
 683              		.p2align 4,,15
ARM GAS  /tmp/ccMNpivg.s 			page 13


 684              		.thumb
 685              		.thumb_func
 686              		.type	cmd_threads, %function
 687              	cmd_threads:
 688              	.LFB262:
 689              		.loc 1 135 0
 690              		.cfi_startproc
 691              		@ args = 0, pretend = 0, frame = 0
 692              		@ frame_needed = 0, uses_anonymous_args = 0
 693              	.LVL68:
 694              		.loc 1 140 0
 695 0000 0029     		cmp	r1, #0
 696 0002 02DD     		ble	.L37
 697              		.loc 1 141 0
 698 0004 1149     		ldr	r1, .L41
 699              	.LVL69:
 700 0006 FFF7FEBF 		b	chprintf
 701              	.LVL70:
 702              	.L37:
 703              		.loc 1 135 0
 704 000a 70B5     		push	{r4, r5, r6, lr}
 705              		.cfi_def_cfa_offset 16
 706              		.cfi_offset 4, -16
 707              		.cfi_offset 5, -12
 708              		.cfi_offset 6, -8
 709              		.cfi_offset 14, -4
 710              	.LBB114:
 711              	.LBB115:
 712              		.loc 1 144 0
 713 000c 1049     		ldr	r1, .L41+4
 714              	.LVL71:
 715 000e 114E     		ldr	r6, .L41+8
 716              	.LBE115:
 717              	.LBE114:
 718              		.loc 1 135 0
 719 0010 84B0     		sub	sp, sp, #16
 720              		.cfi_def_cfa_offset 32
 721 0012 0546     		mov	r5, r0
 722              	.LVL72:
 723              	.LBB117:
 724              	.LBB116:
 725              		.loc 1 144 0
 726 0014 FFF7FEFF 		bl	chprintf
 727              	.LVL73:
 728              		.loc 1 145 0
 729 0018 FFF7FEFF 		bl	chRegFirstThread
 730              	.LVL74:
 731 001c 0446     		mov	r4, r0
 732              	.LVL75:
 733              	.L38:
 734              		.loc 1 147 0
 735 001e 227F     		ldrb	r2, [r4, #28]	@ zero_extendqisi2
 736 0020 E368     		ldr	r3, [r4, #12]
 737 0022 56F82220 		ldr	r2, [r6, r2, lsl #2]
 738 0026 0292     		str	r2, [sp, #8]
 739 0028 A27F     		ldrb	r2, [r4, #30]	@ zero_extendqisi2
 740 002a 0B49     		ldr	r1, .L41+12
ARM GAS  /tmp/ccMNpivg.s 			page 14


 741 002c 013A     		subs	r2, r2, #1
 742 002e 0192     		str	r2, [sp, #4]
 743 0030 A268     		ldr	r2, [r4, #8]
 744 0032 0092     		str	r2, [sp]
 745 0034 2846     		mov	r0, r5
 746              	.LVL76:
 747 0036 2246     		mov	r2, r4
 748 0038 FFF7FEFF 		bl	chprintf
 749              	.LVL77:
 750              		.loc 1 151 0
 751 003c 2046     		mov	r0, r4
 752 003e FFF7FEFF 		bl	chRegNextThread
 753              	.LVL78:
 754              		.loc 1 152 0
 755 0042 0446     		mov	r4, r0
 756 0044 0028     		cmp	r0, #0
 757 0046 EAD1     		bne	.L38
 758              	.LBE116:
 759              	.LBE117:
 760              		.loc 1 153 0
 761 0048 04B0     		add	sp, sp, #16
 762              		.cfi_def_cfa_offset 16
 763              		@ sp needed
 764 004a 70BD     		pop	{r4, r5, r6, pc}
 765              	.LVL79:
 766              	.L42:
 767              		.align	2
 768              	.L41:
 769 004c 28000000 		.word	.LC3
 770 0050 3C000000 		.word	.LC4
 771 0054 00000000 		.word	.LANCHOR5
 772 0058 64000000 		.word	.LC5
 773              		.cfi_endproc
 774              	.LFE262:
 775              		.size	cmd_threads, .-cmd_threads
 776              		.section	.text.cmd_mem,"ax",%progbits
 777              		.align	2
 778              		.p2align 4,,15
 779              		.thumb
 780              		.thumb_func
 781              		.type	cmd_mem, %function
 782              	cmd_mem:
 783              	.LFB261:
 784              		.loc 1 122 0
 785              		.cfi_startproc
 786              		@ args = 0, pretend = 0, frame = 8
 787              		@ frame_needed = 0, uses_anonymous_args = 0
 788              	.LVL80:
 789 0000 30B5     		push	{r4, r5, lr}
 790              		.cfi_def_cfa_offset 12
 791              		.cfi_offset 4, -12
 792              		.cfi_offset 5, -8
 793              		.cfi_offset 14, -4
 794              		.loc 1 125 0
 795 0002 0029     		cmp	r1, #0
 796              		.loc 1 122 0
 797 0004 83B0     		sub	sp, sp, #12
ARM GAS  /tmp/ccMNpivg.s 			page 15


 798              		.cfi_def_cfa_offset 24
 799              		.loc 1 125 0
 800 0006 04DD     		ble	.L44
 801              		.loc 1 126 0
 802 0008 0E49     		ldr	r1, .L47
 803              	.LVL81:
 804 000a FFF7FEFF 		bl	chprintf
 805              	.LVL82:
 806              		.loc 1 133 0
 807 000e 03B0     		add	sp, sp, #12
 808              		.cfi_remember_state
 809              		.cfi_def_cfa_offset 12
 810              		@ sp needed
 811 0010 30BD     		pop	{r4, r5, pc}
 812              	.LVL83:
 813              	.L44:
 814              		.cfi_restore_state
 815 0012 0446     		mov	r4, r0
 816              	.LVL84:
 817              	.LBB120:
 818              	.LBB121:
 819              		.loc 1 129 0
 820 0014 01A9     		add	r1, sp, #4
 821              	.LVL85:
 822 0016 0020     		movs	r0, #0
 823              	.LVL86:
 824 0018 FFF7FEFF 		bl	chHeapStatus
 825              	.LVL87:
 826 001c 0546     		mov	r5, r0
 827              	.LVL88:
 828              		.loc 1 130 0
 829 001e FFF7FEFF 		bl	chCoreGetStatusX
 830              	.LVL89:
 831 0022 0949     		ldr	r1, .L47+4
 832 0024 0246     		mov	r2, r0
 833 0026 2046     		mov	r0, r4
 834 0028 FFF7FEFF 		bl	chprintf
 835              	.LVL90:
 836              		.loc 1 131 0
 837 002c 2A46     		mov	r2, r5
 838 002e 0749     		ldr	r1, .L47+8
 839 0030 2046     		mov	r0, r4
 840 0032 FFF7FEFF 		bl	chprintf
 841              	.LVL91:
 842              		.loc 1 132 0
 843 0036 2046     		mov	r0, r4
 844 0038 019A     		ldr	r2, [sp, #4]
 845 003a 0549     		ldr	r1, .L47+12
 846 003c FFF7FEFF 		bl	chprintf
 847              	.LVL92:
 848              	.LBE121:
 849              	.LBE120:
 850              		.loc 1 133 0
 851 0040 03B0     		add	sp, sp, #12
 852              		.cfi_def_cfa_offset 12
 853              		@ sp needed
 854 0042 30BD     		pop	{r4, r5, pc}
ARM GAS  /tmp/ccMNpivg.s 			page 16


 855              	.LVL93:
 856              	.L48:
 857              		.align	2
 858              	.L47:
 859 0044 80000000 		.word	.LC6
 860 0048 90000000 		.word	.LC7
 861 004c B0000000 		.word	.LC8
 862 0050 C8000000 		.word	.LC9
 863              		.cfi_endproc
 864              	.LFE261:
 865              		.size	cmd_mem, .-cmd_mem
 866              		.section	.text.startup.main,"ax",%progbits
 867              		.align	2
 868              		.p2align 4,,15
 869              		.global	main
 870              		.thumb
 871              		.thumb_func
 872              		.type	main, %function
 873              	main:
 874              	.LFB265:
 875              		.loc 1 309 0
 876              		.cfi_startproc
 877              		@ args = 0, pretend = 0, frame = 0
 878              		@ frame_needed = 0, uses_anonymous_args = 0
 879              	.LVL94:
 880 0000 70B5     		push	{r4, r5, r6, lr}
 881              		.cfi_def_cfa_offset 16
 882              		.cfi_offset 4, -16
 883              		.cfi_offset 5, -12
 884              		.cfi_offset 6, -8
 885              		.cfi_offset 14, -4
 886 0002 564D     		ldr	r5, .L56
 887              		.loc 1 340 0
 888 0004 564E     		ldr	r6, .L56+4
 889              		.loc 1 374 0
 890 0006 574C     		ldr	r4, .L56+8
 891              		.loc 1 309 0
 892 0008 82B0     		sub	sp, sp, #8
 893              		.cfi_def_cfa_offset 24
 894              		.loc 1 319 0
 895 000a FFF7FEFF 		bl	halInit
 896              	.LVL95:
 897              		.loc 1 320 0
 898 000e FFF7FEFF 		bl	chSysInit
 899              	.LVL96:
 900              		.loc 1 326 0
 901 0012 0322     		movs	r2, #3
 902 0014 0621     		movs	r1, #6
 903 0016 5448     		ldr	r0, .L56+12
 904 0018 FFF7FEFF 		bl	_pal_lld_setgroupmode
 905              	.LVL97:
 906              		.loc 1 333 0
 907 001c FFF7FEFF 		bl	shellInit
 908              	.LVL98:
 909              		.loc 1 339 0
 910 0020 2846     		mov	r0, r5
 911 0022 FFF7FEFF 		bl	sduObjectInit
ARM GAS  /tmp/ccMNpivg.s 			page 17


 912              	.LVL99:
 913              		.loc 1 340 0
 914 0026 3146     		mov	r1, r6
 915 0028 2846     		mov	r0, r5
 916 002a FFF7FEFF 		bl	sduStart
 917              	.LVL100:
 918              		.loc 1 347 0
 919 002e 3368     		ldr	r3, [r6]
 920 0030 1A6D     		ldr	r2, [r3, #80]
 921 0032 936B     		ldr	r3, [r2, #56]
 922 0034 23F40023 		bic	r3, r3, #524288
 923 0038 9363     		str	r3, [r2, #56]
 924              		.loc 1 348 0
 925 003a 42F21070 		movw	r0, #10000
 926 003e FFF7FEFF 		bl	chThdSleep
 927              	.LVL101:
 928              		.loc 1 349 0
 929 0042 3068     		ldr	r0, [r6]
 930 0044 4949     		ldr	r1, .L56+16
 931 0046 FFF7FEFF 		bl	usbStart
 932              	.LVL102:
 933              		.loc 1 350 0
 934 004a 3368     		ldr	r3, [r6]
 935              		.loc 1 356 0
 936 004c 4848     		ldr	r0, .L56+20
 937              		.loc 1 350 0
 938 004e 1A6D     		ldr	r2, [r3, #80]
 939 0050 936B     		ldr	r3, [r2, #56]
 940 0052 43F40023 		orr	r3, r3, #524288
 941 0056 9363     		str	r3, [r2, #56]
 942              		.loc 1 356 0
 943 0058 0021     		movs	r1, #0
 944 005a FFF7FEFF 		bl	sdStart
 945              	.LVL103:
 946              		.loc 1 357 0
 947 005e 40F28232 		movw	r2, #898
 948 0062 0421     		movs	r1, #4
 949 0064 4348     		ldr	r0, .L56+24
 950 0066 FFF7FEFF 		bl	_pal_lld_setgroupmode
 951              	.LVL104:
 952              		.loc 1 358 0
 953 006a 40F28232 		movw	r2, #898
 954 006e 0821     		movs	r1, #8
 955 0070 4048     		ldr	r0, .L56+24
 956 0072 FFF7FEFF 		bl	_pal_lld_setgroupmode
 957              	.LVL105:
 958              		.loc 1 364 0
 959 0076 4049     		ldr	r1, .L56+28
 960 0078 4048     		ldr	r0, .L56+32
 961 007a FFF7FEFF 		bl	spiStart
 962              	.LVL106:
 963              		.loc 1 374 0
 964 007e 4FF48056 		mov	r6, #4096
 965              		.loc 1 373 0
 966 0082 3F49     		ldr	r1, .L56+36
 967 0084 3F48     		ldr	r0, .L56+40
 968 0086 FFF7FEFF 		bl	spiStart
ARM GAS  /tmp/ccMNpivg.s 			page 18


 969              	.LVL107:
 970              		.loc 1 375 0
 971 008a 2046     		mov	r0, r4
 972              		.loc 1 374 0
 973 008c 2683     		strh	r6, [r4, #24]	@ movhi
 974              		.loc 1 375 0
 975 008e 3146     		mov	r1, r6
 976 0090 1922     		movs	r2, #25
 977 0092 FFF7FEFF 		bl	_pal_lld_setgroupmode
 978              	.LVL108:
 979              		.loc 1 377 0
 980 0096 2046     		mov	r0, r4
 981 0098 40F29A22 		movw	r2, #666
 982 009c 4FF40051 		mov	r1, #8192
 983 00a0 FFF7FEFF 		bl	_pal_lld_setgroupmode
 984              	.LVL109:
 985              		.loc 1 379 0
 986 00a4 2046     		mov	r0, r4
 987 00a6 40F28222 		movw	r2, #642
 988 00aa 4FF48041 		mov	r1, #16384
 989 00ae FFF7FEFF 		bl	_pal_lld_setgroupmode
 990              	.LVL110:
 991              		.loc 1 380 0
 992 00b2 2046     		mov	r0, r4
 993 00b4 40F29A22 		movw	r2, #666
 994 00b8 4FF40041 		mov	r1, #32768
 995 00bc FFF7FEFF 		bl	_pal_lld_setgroupmode
 996              	.LVL111:
 997              		.loc 1 386 0
 998 00c0 3149     		ldr	r1, .L56+44
 999 00c2 3248     		ldr	r0, .L56+48
 1000 00c4 FFF7FEFF 		bl	pwmStart
 1001              	.LVL112:
 1002              		.loc 1 387 0
 1003 00c8 3146     		mov	r1, r6
 1004 00ca 4FF48172 		mov	r2, #258
 1005 00ce 3048     		ldr	r0, .L56+52
 1006 00d0 FFF7FEFF 		bl	_pal_lld_setgroupmode
 1007              	.LVL113:
 1008              		.loc 1 388 0
 1009 00d4 4FF48172 		mov	r2, #258
 1010 00d8 4FF40051 		mov	r1, #8192
 1011 00dc 2C48     		ldr	r0, .L56+52
 1012 00de FFF7FEFF 		bl	_pal_lld_setgroupmode
 1013              	.LVL114:
 1014              		.loc 1 389 0
 1015 00e2 4FF48172 		mov	r2, #258
 1016 00e6 4FF48041 		mov	r1, #16384
 1017 00ea 2948     		ldr	r0, .L56+52
 1018 00ec FFF7FEFF 		bl	_pal_lld_setgroupmode
 1019              	.LVL115:
 1020              		.loc 1 415 0
 1021 00f0 0024     		movs	r4, #0
 1022              		.loc 1 390 0
 1023 00f2 4FF48172 		mov	r2, #258
 1024 00f6 4FF40041 		mov	r1, #32768
 1025 00fa 2548     		ldr	r0, .L56+52
ARM GAS  /tmp/ccMNpivg.s 			page 19


 1026 00fc FFF7FEFF 		bl	_pal_lld_setgroupmode
 1027              	.LVL116:
 1028              		.loc 1 415 0
 1029 0100 244B     		ldr	r3, .L56+56
 1030 0102 0094     		str	r4, [sp]
 1031 0104 4A22     		movs	r2, #74
 1032 0106 4FF4A471 		mov	r1, #328
 1033 010a 2348     		ldr	r0, .L56+60
 1034 010c FFF7FEFF 		bl	chThdCreateStatic
 1035              	.LVL117:
 1036              		.loc 1 423 0
 1037 0110 0094     		str	r4, [sp]
 1038 0112 224B     		ldr	r3, .L56+64
 1039 0114 2248     		ldr	r0, .L56+68
 1040 0116 4A22     		movs	r2, #74
 1041 0118 4FF4A471 		mov	r1, #328
 1042 011c FFF7FEFF 		bl	chThdCreateStatic
 1043              	.LVL118:
 1044              		.loc 1 434 0
 1045 0120 44B1     		cbz	r4, .L54
 1046              	.L50:
 1047              		.loc 1 442 0
 1048 0122 237F     		ldrb	r3, [r4, #28]	@ zero_extendqisi2
 1049 0124 0F2B     		cmp	r3, #15
 1050 0126 13D0     		beq	.L55
 1051              	.LVL119:
 1052              	.L51:
 1053              		.loc 1 448 0
 1054 0128 41F28830 		movw	r0, #5000
 1055 012c FFF7FEFF 		bl	chThdSleep
 1056              	.LVL120:
 1057              		.loc 1 434 0
 1058 0130 002C     		cmp	r4, #0
 1059 0132 F6D1     		bne	.L50
 1060              	.L54:
 1061              	.LVL121:
 1062              		.loc 1 435 0
 1063 0134 D5F85432 		ldr	r3, [r5, #596]
 1064 0138 1B68     		ldr	r3, [r3]
 1065 013a 1B78     		ldrb	r3, [r3]	@ zero_extendqisi2
 1066 013c 042B     		cmp	r3, #4
 1067 013e F3D1     		bne	.L51
 1068              		.loc 1 437 0
 1069 0140 4022     		movs	r2, #64
 1070 0142 40F6C801 		movw	r1, #2248
 1071 0146 1748     		ldr	r0, .L56+72
 1072 0148 FFF7FEFF 		bl	shellCreate
 1073              	.LVL122:
 1074 014c 0446     		mov	r4, r0
 1075              	.LVL123:
 1076 014e EBE7     		b	.L51
 1077              	.LVL124:
 1078              	.L55:
 1079              		.loc 1 444 0
 1080 0150 2046     		mov	r0, r4
 1081 0152 FFF7FEFF 		bl	chThdRelease
 1082              	.LVL125:
ARM GAS  /tmp/ccMNpivg.s 			page 20


 1083              		.loc 1 445 0
 1084 0156 0024     		movs	r4, #0
 1085              	.LVL126:
 1086 0158 E6E7     		b	.L51
 1087              	.L57:
 1088 015a 00BF     		.align	2
 1089              	.L56:
 1090 015c 00000000 		.word	.LANCHOR2
 1091 0160 00000000 		.word	serusbcfg
 1092 0164 00040240 		.word	1073873920
 1093 0168 00080240 		.word	1073874944
 1094 016c 00000000 		.word	usbcfg
 1095 0170 00000000 		.word	SD2
 1096 0174 00000240 		.word	1073872896
 1097 0178 00000000 		.word	.LANCHOR6
 1098 017c 00000000 		.word	SPID1
 1099 0180 00000000 		.word	.LANCHOR7
 1100 0184 00000000 		.word	SPID2
 1101 0188 00000000 		.word	.LANCHOR8
 1102 018c 00000000 		.word	PWMD4
 1103 0190 000C0240 		.word	1073875968
 1104 0194 00000000 		.word	Thread1
 1105 0198 00000000 		.word	.LANCHOR9
 1106 019c 00000000 		.word	Thread2
 1107 01a0 00000000 		.word	.LANCHOR10
 1108 01a4 00000000 		.word	.LANCHOR11
 1109              		.cfi_endproc
 1110              	.LFE265:
 1111              		.size	main, .-main
 1112              		.global	dat
 1113              		.global	SDU1
 1114              		.section	.rodata.commands,"a",%progbits
 1115              		.align	2
 1116              		.type	commands, %object
 1117              		.size	commands, 32
 1118              	commands:
 1119 0000 74010000 		.word	.LC26
 1120 0004 00000000 		.word	cmd_mem
 1121 0008 78010000 		.word	.LC27
 1122 000c 00000000 		.word	cmd_threads
 1123 0010 80010000 		.word	.LC28
 1124 0014 00000000 		.word	cmd_test
 1125 0018 00000000 		.word	0
 1126 001c 00000000 		.word	0
 1127              		.section	.bss.waThread1,"aw",%nobits
 1128              		.align	3
 1129              		.set	.LANCHOR9,. + 0
 1130              		.type	waThread1, %object
 1131              		.size	waThread1, 328
 1132              	waThread1:
 1133 0000 00000000 		.space	328
 1133      00000000 
 1133      00000000 
 1133      00000000 
 1133      00000000 
 1134              		.section	.bss.waThread2,"aw",%nobits
 1135              		.align	3
ARM GAS  /tmp/ccMNpivg.s 			page 21


 1136              		.set	.LANCHOR10,. + 0
 1137              		.type	waThread2, %object
 1138              		.size	waThread2, 328
 1139              	waThread2:
 1140 0000 00000000 		.space	328
 1140      00000000 
 1140      00000000 
 1140      00000000 
 1140      00000000 
 1141              		.section	.bss.SDU1,"aw",%nobits
 1142              		.align	2
 1143              		.set	.LANCHOR2,. + 0
 1144              		.type	SDU1, %object
 1145              		.size	SDU1, 600
 1146              	SDU1:
 1147 0000 00000000 		.space	600
 1147      00000000 
 1147      00000000 
 1147      00000000 
 1147      00000000 
 1148              		.section	.bss.ybuf.7873,"aw",%nobits
 1149              		.align	2
 1150              		.set	.LANCHOR4,. + 0
 1151              		.type	ybuf.7873, %object
 1152              		.size	ybuf.7873, 4
 1153              	ybuf.7873:
 1154 0000 00000000 		.space	4
 1155              		.section	.rodata.spi1cfg,"a",%progbits
 1156              		.align	2
 1157              		.set	.LANCHOR6,. + 0
 1158              		.type	spi1cfg, %object
 1159              		.size	spi1cfg, 12
 1160              	spi1cfg:
 1161 0000 00000000 		.word	0
 1162 0004 00100240 		.word	1073876992
 1163 0008 0300     		.short	3
 1164 000a 1B00     		.short	27
 1165              		.section	.rodata.spi2cfg,"a",%progbits
 1166              		.align	2
 1167              		.set	.LANCHOR7,. + 0
 1168              		.type	spi2cfg, %object
 1169              		.size	spi2cfg, 12
 1170              	spi2cfg:
 1171 0000 00000000 		.word	0
 1172 0004 00040240 		.word	1073873920
 1173 0008 0C00     		.short	12
 1174 000a 0000     		.short	0
 1175              		.section	.rodata.str1.4,"aMS",%progbits,1
 1176              		.align	2
 1177              	.LC0:
 1178 0000 72656164 		.ascii	"reader\000"
 1178      657200
 1179 0007 00       		.space	1
 1180              	.LC1:
 1181 0008 55736167 		.ascii	"Usage: test\015\012\000"
 1181      653A2074 
 1181      6573740D 
ARM GAS  /tmp/ccMNpivg.s 			page 22


 1181      0A00
 1182 0016 0000     		.space	2
 1183              	.LC2:
 1184 0018 6F757420 		.ascii	"out of memory\015\012\000"
 1184      6F66206D 
 1184      656D6F72 
 1184      790D0A00 
 1185              	.LC3:
 1186 0028 55736167 		.ascii	"Usage: threads\015\012\000"
 1186      653A2074 
 1186      68726561 
 1186      64730D0A 
 1186      00
 1187 0039 000000   		.space	3
 1188              	.LC4:
 1189 003c 20202020 		.ascii	"    addr    stack prio refs     state\015\012\000"
 1189      61646472 
 1189      20202020 
 1189      73746163 
 1189      6B207072 
 1190              	.LC5:
 1191 0064 2530386C 		.ascii	"%08lx %08lx %4lu %4lu %9s\015\012\000"
 1191      78202530 
 1191      386C7820 
 1191      25346C75 
 1191      2025346C 
 1192              	.LC6:
 1193 0080 55736167 		.ascii	"Usage: mem\015\012\000"
 1193      653A206D 
 1193      656D0D0A 
 1193      00
 1194 008d 000000   		.space	3
 1195              	.LC7:
 1196 0090 636F7265 		.ascii	"core free memory : %u bytes\015\012\000"
 1196      20667265 
 1196      65206D65 
 1196      6D6F7279 
 1196      203A2025 
 1197 00ae 0000     		.space	2
 1198              	.LC8:
 1199 00b0 68656170 		.ascii	"heap fragments   : %u\015\012\000"
 1199      20667261 
 1199      676D656E 
 1199      74732020 
 1199      203A2025 
 1200              	.LC9:
 1201 00c8 68656170 		.ascii	"heap free total  : %u bytes\015\012\000"
 1201      20667265 
 1201      6520746F 
 1201      74616C20 
 1201      203A2025 
 1202 00e6 0000     		.space	2
 1203              	.LC10:
 1204 00e8 52454144 		.ascii	"READY\000"
 1204      5900
 1205 00ee 0000     		.space	2
 1206              	.LC11:
ARM GAS  /tmp/ccMNpivg.s 			page 23


 1207 00f0 43555252 		.ascii	"CURRENT\000"
 1207      454E5400 
 1208              	.LC12:
 1209 00f8 57545354 		.ascii	"WTSTART\000"
 1209      41525400 
 1210              	.LC13:
 1211 0100 53555350 		.ascii	"SUSPENDED\000"
 1211      454E4445 
 1211      4400
 1212 010a 0000     		.space	2
 1213              	.LC14:
 1214 010c 51554555 		.ascii	"QUEUED\000"
 1214      454400
 1215 0113 00       		.space	1
 1216              	.LC15:
 1217 0114 57545345 		.ascii	"WTSEM\000"
 1217      4D00
 1218 011a 0000     		.space	2
 1219              	.LC16:
 1220 011c 57544D54 		.ascii	"WTMTX\000"
 1220      5800
 1221 0122 0000     		.space	2
 1222              	.LC17:
 1223 0124 5754434F 		.ascii	"WTCOND\000"
 1223      4E4400
 1224 012b 00       		.space	1
 1225              	.LC18:
 1226 012c 534C4545 		.ascii	"SLEEPING\000"
 1226      50494E47 
 1226      00
 1227 0135 000000   		.space	3
 1228              	.LC19:
 1229 0138 57544558 		.ascii	"WTEXIT\000"
 1229      495400
 1230 013f 00       		.space	1
 1231              	.LC20:
 1232 0140 57544F52 		.ascii	"WTOREVT\000"
 1232      45565400 
 1233              	.LC21:
 1234 0148 5754414E 		.ascii	"WTANDEVT\000"
 1234      44455654 
 1234      00
 1235 0151 000000   		.space	3
 1236              	.LC22:
 1237 0154 534E444D 		.ascii	"SNDMSGQ\000"
 1237      53475100 
 1238              	.LC23:
 1239 015c 534E444D 		.ascii	"SNDMSG\000"
 1239      534700
 1240 0163 00       		.space	1
 1241              	.LC24:
 1242 0164 57544D53 		.ascii	"WTMSG\000"
 1242      4700
 1243 016a 0000     		.space	2
 1244              	.LC25:
 1245 016c 46494E41 		.ascii	"FINAL\000"
 1245      4C00
ARM GAS  /tmp/ccMNpivg.s 			page 24


 1246 0172 0000     		.space	2
 1247              	.LC26:
 1248 0174 6D656D00 		.ascii	"mem\000"
 1249              	.LC27:
 1250 0178 74687265 		.ascii	"threads\000"
 1250      61647300 
 1251              	.LC28:
 1252 0180 74657374 		.ascii	"test\000"
 1252      00
 1253              		.section	.rodata.states.7853,"a",%progbits
 1254              		.align	2
 1255              		.set	.LANCHOR5,. + 0
 1256              		.type	states.7853, %object
 1257              		.size	states.7853, 64
 1258              	states.7853:
 1259 0000 E8000000 		.word	.LC10
 1260 0004 F0000000 		.word	.LC11
 1261 0008 F8000000 		.word	.LC12
 1262 000c 00010000 		.word	.LC13
 1263 0010 0C010000 		.word	.LC14
 1264 0014 14010000 		.word	.LC15
 1265 0018 1C010000 		.word	.LC16
 1266 001c 24010000 		.word	.LC17
 1267 0020 2C010000 		.word	.LC18
 1268 0024 38010000 		.word	.LC19
 1269 0028 40010000 		.word	.LC20
 1270 002c 48010000 		.word	.LC21
 1271 0030 54010000 		.word	.LC22
 1272 0034 5C010000 		.word	.LC23
 1273 0038 64010000 		.word	.LC24
 1274 003c 6C010000 		.word	.LC25
 1275              		.section	.rodata.adcgrpcfg1,"a",%progbits
 1276              		.align	2
 1277              		.set	.LANCHOR1,. + 0
 1278              		.type	adcgrpcfg1, %object
 1279              		.size	adcgrpcfg1, 40
 1280              	adcgrpcfg1:
 1281 0000 00       		.byte	0
 1282 0001 00       		.space	1
 1283 0002 0200     		.short	2
 1284 0004 00000000 		.word	0
 1285 0008 00000000 		.word	adcerrorcallback
 1286 000c 00000000 		.word	0
 1287 0010 00000040 		.word	1073741824
 1288 0014 38001C00 		.word	1835064
 1289 0018 00000000 		.word	0
 1290 001c 00001000 		.word	1048576
 1291 0020 00000000 		.word	0
 1292 0024 0B020000 		.word	523
 1293              		.section	.bss.dat,"aw",%nobits
 1294              		.align	2
 1295              		.set	.LANCHOR0,. + 0
 1296              		.type	dat, %object
 1297              		.size	dat, 12
 1298              	dat:
 1299 0000 00000000 		.space	12
 1299      00000000 
ARM GAS  /tmp/ccMNpivg.s 			page 25


 1299      00000000 
 1300              		.section	.rodata.shell_cfg1,"a",%progbits
 1301              		.align	2
 1302              		.set	.LANCHOR11,. + 0
 1303              		.type	shell_cfg1, %object
 1304              		.size	shell_cfg1, 8
 1305              	shell_cfg1:
 1306 0000 00000000 		.word	SDU1
 1307 0004 00000000 		.word	commands
 1308              		.section	.rodata.pwmcfg,"a",%progbits
 1309              		.align	2
 1310              		.set	.LANCHOR8,. + 0
 1311              		.type	pwmcfg, %object
 1312              		.size	pwmcfg, 52
 1313              	pwmcfg:
 1314 0000 A0860100 		.word	100000
 1315 0004 80000000 		.word	128
 1316 0008 00000000 		.word	0
 1317 000c 01000000 		.word	1
 1318 0010 00000000 		.word	0
 1319 0014 01000000 		.word	1
 1320 0018 00000000 		.word	0
 1321 001c 01000000 		.word	1
 1322 0020 00000000 		.word	0
 1323 0024 01000000 		.word	1
 1324 0028 00000000 		.word	0
 1325 002c 00000000 		.word	0
 1326 0030 00000000 		.word	0
 1327              		.section	.bss.xbuf.7872,"aw",%nobits
 1328              		.align	2
 1329              		.set	.LANCHOR3,. + 0
 1330              		.type	xbuf.7872, %object
 1331              		.size	xbuf.7872, 4
 1332              	xbuf.7872:
 1333 0000 00000000 		.space	4
 1334              		.text
 1335              	.Letext0:
 1336              		.file 6 "/usr/lib/gcc/arm-none-eabi/5.3.1/include/stddef.h"
 1337              		.file 7 "/usr/arm-none-eabi/include/machine/_default_types.h"
 1338              		.file 8 "/usr/arm-none-eabi/include/sys/_stdint.h"
 1339              		.file 9 "/home/selim/working/ChibiOS/os/rt/ports/ARMCMx/compilers/GCC/chtypes.h"
 1340              		.file 10 "/home/selim/working/ChibiOS/os/rt/include/chsystypes.h"
 1341              		.file 11 "/home/selim/working/ChibiOS/os/rt/include/chschd.h"
 1342              		.file 12 "/home/selim/working/ChibiOS/os/ext/CMSIS/ST/stm32f407xx.h"
 1343              		.file 13 "/home/selim/working/ChibiOS/os/rt/ports/ARMCMx/chcore.h"
 1344              		.file 14 "/home/selim/working/ChibiOS/os/rt/ports/ARMCMx/chcore_v7m.h"
 1345              		.file 15 "/home/selim/working/ChibiOS/os/hal/ports/STM32/LLD/TIMv1/stm32_tim.h"
 1346              		.file 16 "/home/selim/working/ChibiOS/os/rt/include/chtm.h"
 1347              		.file 17 "/home/selim/working/ChibiOS/os/rt/include/chsem.h"
 1348              		.file 18 "/home/selim/working/ChibiOS/os/rt/include/chmtx.h"
 1349              		.file 19 "/home/selim/working/ChibiOS/os/rt/include/chevents.h"
 1350              		.file 20 "/home/selim/working/ChibiOS/os/rt/include/chqueues.h"
 1351              		.file 21 "/home/selim/working/ChibiOS/os/rt/include/chstreams.h"
 1352              		.file 22 "/home/selim/working/ChibiOS/os/hal/ports/STM32/STM32F4xx/stm32_dma.h"
 1353              		.file 23 "/home/selim/working/ChibiOS/os/hal/ports/STM32/LLD/GPIOv2/pal_lld.h"
 1354              		.file 24 "/home/selim/working/ChibiOS/os/hal/include/adc.h"
 1355              		.file 25 "/home/selim/working/ChibiOS/os/hal/ports/STM32/STM32F4xx/adc_lld.h"
ARM GAS  /tmp/ccMNpivg.s 			page 26


 1356              		.file 26 "/home/selim/working/ChibiOS/os/hal/include/pwm.h"
 1357              		.file 27 "/home/selim/working/ChibiOS/os/hal/ports/STM32/LLD/TIMv1/pwm_lld.h"
 1358              		.file 28 "/home/selim/working/ChibiOS/os/hal/include/serial.h"
 1359              		.file 29 "/home/selim/working/ChibiOS/os/hal/include/spi.h"
 1360              		.file 30 "/home/selim/working/ChibiOS/os/hal/ports/STM32/LLD/SPIv1/spi_lld.h"
 1361              		.file 31 "/home/selim/working/ChibiOS/os/hal/include/usb.h"
 1362              		.file 32 "/home/selim/working/ChibiOS/os/hal/ports/STM32/LLD/OTGv1/usb_lld.h"
 1363              		.file 33 "/home/selim/working/ChibiOS/os/hal/ports/STM32/LLD/OTGv1/stm32_otg.h"
 1364              		.file 34 "/home/selim/working/ChibiOS/os/hal/include/serial_usb.h"
 1365              		.file 35 "/usr/lib/gcc/arm-none-eabi/5.3.1/include/stdarg.h"
 1366              		.file 36 "<built-in>"
 1367              		.file 37 "/home/selim/working/ChibiOS/os/various/shell.h"
 1368              		.file 38 "/home/selim/working/ChibiOS/os/rt/ports/ARMCMx/chcore_timer.h"
 1369              		.file 39 "/home/selim/working/ChibiOS/os/rt/include/chsys.h"
 1370              		.file 40 "/home/selim/working/ChibiOS/os/rt/include/chvt.h"
 1371              		.file 41 "/home/selim/working/ChibiOS/os/ext/CMSIS/include/core_cm4.h"
 1372              		.file 42 "/home/selim/working/ChibiOS/os/hal/ports/STM32/LLD/USARTv1/serial_lld.h"
 1373              		.file 43 "usbcfg.h"
 1374              		.file 44 "/home/selim/working/ChibiOS/os/various/devices_lib/accel/lis302dl.h"
 1375              		.file 45 "/home/selim/working/ChibiOS/os/rt/include/chdynamic.h"
 1376              		.file 46 "/home/selim/working/ChibiOS/os/rt/include/chregistry.h"
 1377              		.file 47 "/home/selim/working/ChibiOS/os/rt/include/chheap.h"
 1378              		.file 48 "/home/selim/working/ChibiOS/os/rt/include/chmemcore.h"
 1379              		.file 49 "/home/selim/working/ChibiOS/os/hal/include/hal.h"