ARM GAS  /tmp/ccXjwcLW.s 			page 1


   1              		.syntax unified
   2              		.cpu cortex-m4
   3              		.fpu softvfp
   4              		.eabi_attribute 20, 1
   5              		.eabi_attribute 21, 1
   6              		.eabi_attribute 23, 3
   7              		.eabi_attribute 24, 1
   8              		.eabi_attribute 25, 1
   9              		.eabi_attribute 26, 1
  10              		.eabi_attribute 30, 2
  11              		.eabi_attribute 34, 1
  12              		.eabi_attribute 18, 4
  13              		.thumb
  14              		.syntax unified
  15              		.file	"spi.c"
  16              		.text
  17              	.Ltext0:
  18              		.cfi_sections	.debug_frame
  19              		.section	.text.spiInit,"ax",%progbits
  20              		.align	2
  21              		.p2align 4,,15
  22              		.global	spiInit
  23              		.thumb
  24              		.thumb_func
  25              		.type	spiInit, %function
  26              	spiInit:
  27              	.LFB258:
  28              		.file 1 "/home/selim/working/ChibiOS/os/hal/src/spi.c"
  29              		.loc 1 56 0
  30              		.cfi_startproc
  31              		@ args = 0, pretend = 0, frame = 0
  32              		@ frame_needed = 0, uses_anonymous_args = 0
  33              		@ link register save eliminated.
  34              		.loc 1 58 0
  35 0000 FFF7FEBF 		b	spi_lld_init
  36              	.LVL0:
  37              		.cfi_endproc
  38              	.LFE258:
  39              		.size	spiInit, .-spiInit
  40              		.section	.text.spiObjectInit,"ax",%progbits
  41              		.align	2
  42              		.p2align 4,,15
  43              		.global	spiObjectInit
  44              		.thumb
  45              		.thumb_func
  46              		.type	spiObjectInit, %function
  47              	spiObjectInit:
  48              	.LFB259:
  49              		.loc 1 68 0
  50              		.cfi_startproc
  51              		@ args = 0, pretend = 0, frame = 0
  52              		@ frame_needed = 0, uses_anonymous_args = 0
  53              		@ link register save eliminated.
  54              	.LVL1:
  55              		.loc 1 71 0
  56 0000 0023     		movs	r3, #0
  57              		.loc 1 70 0
ARM GAS  /tmp/ccXjwcLW.s 			page 2


  58 0002 0122     		movs	r2, #1
  59 0004 0270     		strb	r2, [r0]
  60              		.loc 1 71 0
  61 0006 4360     		str	r3, [r0, #4]
  62              		.loc 1 73 0
  63 0008 8360     		str	r3, [r0, #8]
  64              	.LVL2:
  65              	.LBB194:
  66              	.LBB195:
  67              		.file 2 "/home/selim/working/ChibiOS/os/hal/osal/rt/osal.h"
  68              		.loc 2 841 0
  69 000a 0C30     		adds	r0, r0, #12
  70              	.LVL3:
  71 000c FFF7FEBF 		b	chMtxObjectInit
  72              	.LVL4:
  73              	.LBE195:
  74              	.LBE194:
  75              		.cfi_endproc
  76              	.LFE259:
  77              		.size	spiObjectInit, .-spiObjectInit
  78              		.section	.text.spiStart,"ax",%progbits
  79              		.align	2
  80              		.p2align 4,,15
  81              		.global	spiStart
  82              		.thumb
  83              		.thumb_func
  84              		.type	spiStart, %function
  85              	spiStart:
  86              	.LFB260:
  87              		.loc 1 91 0
  88              		.cfi_startproc
  89              		@ args = 0, pretend = 0, frame = 0
  90              		@ frame_needed = 0, uses_anonymous_args = 0
  91              	.LVL5:
  92 0000 10B5     		push	{r4, lr}
  93              		.cfi_def_cfa_offset 8
  94              		.cfi_offset 4, -8
  95              		.cfi_offset 14, -4
  96              	.LBB196:
  97              	.LBB197:
  98              	.LBB198:
  99              	.LBB199:
 100              	.LBB200:
 101              		.file 3 "/home/selim/working/ChibiOS/os/ext/CMSIS/include/core_cmFunc.h"
 102              		.loc 3 546 0
 103 0002 2023     		movs	r3, #32
 104              	.LBE200:
 105              	.LBE199:
 106              	.LBE198:
 107              	.LBE197:
 108              	.LBE196:
 109              		.loc 1 91 0
 110 0004 0446     		mov	r4, r0
 111              	.LBB205:
 112              	.LBB204:
 113              	.LBB203:
 114              	.LBB202:
ARM GAS  /tmp/ccXjwcLW.s 			page 3


 115              	.LBB201:
 116              		.loc 3 546 0
 117              		.syntax unified
 118              	@ 546 "/home/selim/working/ChibiOS/os/ext/CMSIS/include/core_cmFunc.h" 1
 119 0006 83F31188 		MSR basepri, r3
 120              	@ 0 "" 2
 121              	.LVL6:
 122              		.thumb
 123              		.syntax unified
 124              	.LBE201:
 125              	.LBE202:
 126              	.LBE203:
 127              	.LBE204:
 128              	.LBE205:
 129              		.loc 1 98 0
 130 000a 4160     		str	r1, [r0, #4]
 131              		.loc 1 99 0
 132 000c FFF7FEFF 		bl	spi_lld_start
 133              	.LVL7:
 134              		.loc 1 100 0
 135 0010 0223     		movs	r3, #2
 136 0012 2370     		strb	r3, [r4]
 137              	.LVL8:
 138              	.LBB206:
 139              	.LBB207:
 140              	.LBB208:
 141              	.LBB209:
 142              	.LBB210:
 143              	.LBB211:
 144              		.loc 3 546 0
 145 0014 0023     		movs	r3, #0
 146              		.syntax unified
 147              	@ 546 "/home/selim/working/ChibiOS/os/ext/CMSIS/include/core_cmFunc.h" 1
 148 0016 83F31188 		MSR basepri, r3
 149              	@ 0 "" 2
 150              	.LVL9:
 151              		.thumb
 152              		.syntax unified
 153 001a 10BD     		pop	{r4, pc}
 154              	.LBE211:
 155              	.LBE210:
 156              	.LBE209:
 157              	.LBE208:
 158              	.LBE207:
 159              	.LBE206:
 160              		.cfi_endproc
 161              	.LFE260:
 162              		.size	spiStart, .-spiStart
 163              		.section	.text.spiStop,"ax",%progbits
 164              		.align	2
 165              		.p2align 4,,15
 166              		.global	spiStop
 167              		.thumb
 168              		.thumb_func
 169              		.type	spiStop, %function
 170              	spiStop:
 171              	.LFB261:
ARM GAS  /tmp/ccXjwcLW.s 			page 4


 172              		.loc 1 113 0
 173              		.cfi_startproc
 174              		@ args = 0, pretend = 0, frame = 0
 175              		@ frame_needed = 0, uses_anonymous_args = 0
 176              	.LVL10:
 177 0000 10B5     		push	{r4, lr}
 178              		.cfi_def_cfa_offset 8
 179              		.cfi_offset 4, -8
 180              		.cfi_offset 14, -4
 181              	.LBB212:
 182              	.LBB213:
 183              	.LBB214:
 184              	.LBB215:
 185              	.LBB216:
 186              		.loc 3 546 0
 187 0002 2023     		movs	r3, #32
 188              	.LBE216:
 189              	.LBE215:
 190              	.LBE214:
 191              	.LBE213:
 192              	.LBE212:
 193              		.loc 1 113 0
 194 0004 0446     		mov	r4, r0
 195              	.LBB221:
 196              	.LBB220:
 197              	.LBB219:
 198              	.LBB218:
 199              	.LBB217:
 200              		.loc 3 546 0
 201              		.syntax unified
 202              	@ 546 "/home/selim/working/ChibiOS/os/ext/CMSIS/include/core_cmFunc.h" 1
 203 0006 83F31188 		MSR basepri, r3
 204              	@ 0 "" 2
 205              	.LVL11:
 206              		.thumb
 207              		.syntax unified
 208              	.LBE217:
 209              	.LBE218:
 210              	.LBE219:
 211              	.LBE220:
 212              	.LBE221:
 213              		.loc 1 120 0
 214 000a FFF7FEFF 		bl	spi_lld_stop
 215              	.LVL12:
 216              		.loc 1 121 0
 217 000e 0123     		movs	r3, #1
 218 0010 2370     		strb	r3, [r4]
 219              	.LVL13:
 220              	.LBB222:
 221              	.LBB223:
 222              	.LBB224:
 223              	.LBB225:
 224              	.LBB226:
 225              	.LBB227:
 226              		.loc 3 546 0
 227 0012 0023     		movs	r3, #0
 228              		.syntax unified
ARM GAS  /tmp/ccXjwcLW.s 			page 5


 229              	@ 546 "/home/selim/working/ChibiOS/os/ext/CMSIS/include/core_cmFunc.h" 1
 230 0014 83F31188 		MSR basepri, r3
 231              	@ 0 "" 2
 232              	.LVL14:
 233              		.thumb
 234              		.syntax unified
 235 0018 10BD     		pop	{r4, pc}
 236              	.LBE227:
 237              	.LBE226:
 238              	.LBE225:
 239              	.LBE224:
 240              	.LBE223:
 241              	.LBE222:
 242              		.cfi_endproc
 243              	.LFE261:
 244              		.size	spiStop, .-spiStop
 245 001a 00BF     		.section	.text.spiSelect,"ax",%progbits
 246              		.align	2
 247              		.p2align 4,,15
 248              		.global	spiSelect
 249              		.thumb
 250              		.thumb_func
 251              		.type	spiSelect, %function
 252              	spiSelect:
 253              	.LFB262:
 254              		.loc 1 132 0
 255              		.cfi_startproc
 256              		@ args = 0, pretend = 0, frame = 0
 257              		@ frame_needed = 0, uses_anonymous_args = 0
 258              	.LVL15:
 259 0000 08B5     		push	{r3, lr}
 260              		.cfi_def_cfa_offset 8
 261              		.cfi_offset 3, -8
 262              		.cfi_offset 14, -4
 263              	.LBB228:
 264              	.LBB229:
 265              	.LBB230:
 266              	.LBB231:
 267              	.LBB232:
 268              		.loc 3 546 0
 269 0002 2023     		movs	r3, #32
 270              		.syntax unified
 271              	@ 546 "/home/selim/working/ChibiOS/os/ext/CMSIS/include/core_cmFunc.h" 1
 272 0004 83F31188 		MSR basepri, r3
 273              	@ 0 "" 2
 274              	.LVL16:
 275              		.thumb
 276              		.syntax unified
 277              	.LBE232:
 278              	.LBE231:
 279              	.LBE230:
 280              	.LBE229:
 281              	.LBE228:
 282              		.loc 1 138 0
 283 0008 FFF7FEFF 		bl	spi_lld_select
 284              	.LVL17:
 285              	.LBB233:
ARM GAS  /tmp/ccXjwcLW.s 			page 6


 286              	.LBB234:
 287              	.LBB235:
 288              	.LBB236:
 289              	.LBB237:
 290              	.LBB238:
 291              		.loc 3 546 0
 292 000c 0023     		movs	r3, #0
 293              		.syntax unified
 294              	@ 546 "/home/selim/working/ChibiOS/os/ext/CMSIS/include/core_cmFunc.h" 1
 295 000e 83F31188 		MSR basepri, r3
 296              	@ 0 "" 2
 297              	.LVL18:
 298              		.thumb
 299              		.syntax unified
 300 0012 08BD     		pop	{r3, pc}
 301              	.LBE238:
 302              	.LBE237:
 303              	.LBE236:
 304              	.LBE235:
 305              	.LBE234:
 306              	.LBE233:
 307              		.cfi_endproc
 308              	.LFE262:
 309              		.size	spiSelect, .-spiSelect
 310              		.section	.text.spiUnselect,"ax",%progbits
 311              		.align	2
 312              		.p2align 4,,15
 313              		.global	spiUnselect
 314              		.thumb
 315              		.thumb_func
 316              		.type	spiUnselect, %function
 317              	spiUnselect:
 318              	.LFB263:
 319              		.loc 1 150 0
 320              		.cfi_startproc
 321              		@ args = 0, pretend = 0, frame = 0
 322              		@ frame_needed = 0, uses_anonymous_args = 0
 323              	.LVL19:
 324 0000 08B5     		push	{r3, lr}
 325              		.cfi_def_cfa_offset 8
 326              		.cfi_offset 3, -8
 327              		.cfi_offset 14, -4
 328              	.LBB239:
 329              	.LBB240:
 330              	.LBB241:
 331              	.LBB242:
 332              	.LBB243:
 333              		.loc 3 546 0
 334 0002 2023     		movs	r3, #32
 335              		.syntax unified
 336              	@ 546 "/home/selim/working/ChibiOS/os/ext/CMSIS/include/core_cmFunc.h" 1
 337 0004 83F31188 		MSR basepri, r3
 338              	@ 0 "" 2
 339              	.LVL20:
 340              		.thumb
 341              		.syntax unified
 342              	.LBE243:
ARM GAS  /tmp/ccXjwcLW.s 			page 7


 343              	.LBE242:
 344              	.LBE241:
 345              	.LBE240:
 346              	.LBE239:
 347              		.loc 1 156 0
 348 0008 FFF7FEFF 		bl	spi_lld_unselect
 349              	.LVL21:
 350              	.LBB244:
 351              	.LBB245:
 352              	.LBB246:
 353              	.LBB247:
 354              	.LBB248:
 355              	.LBB249:
 356              		.loc 3 546 0
 357 000c 0023     		movs	r3, #0
 358              		.syntax unified
 359              	@ 546 "/home/selim/working/ChibiOS/os/ext/CMSIS/include/core_cmFunc.h" 1
 360 000e 83F31188 		MSR basepri, r3
 361              	@ 0 "" 2
 362              	.LVL22:
 363              		.thumb
 364              		.syntax unified
 365 0012 08BD     		pop	{r3, pc}
 366              	.LBE249:
 367              	.LBE248:
 368              	.LBE247:
 369              	.LBE246:
 370              	.LBE245:
 371              	.LBE244:
 372              		.cfi_endproc
 373              	.LFE263:
 374              		.size	spiUnselect, .-spiUnselect
 375              		.section	.text.spiStartIgnore,"ax",%progbits
 376              		.align	2
 377              		.p2align 4,,15
 378              		.global	spiStartIgnore
 379              		.thumb
 380              		.thumb_func
 381              		.type	spiStartIgnore, %function
 382              	spiStartIgnore:
 383              	.LFB264:
 384              		.loc 1 173 0
 385              		.cfi_startproc
 386              		@ args = 0, pretend = 0, frame = 0
 387              		@ frame_needed = 0, uses_anonymous_args = 0
 388              	.LVL23:
 389 0000 08B5     		push	{r3, lr}
 390              		.cfi_def_cfa_offset 8
 391              		.cfi_offset 3, -8
 392              		.cfi_offset 14, -4
 393              	.LBB250:
 394              	.LBB251:
 395              	.LBB252:
 396              	.LBB253:
 397              	.LBB254:
 398              		.loc 3 546 0
 399 0002 2022     		movs	r2, #32
ARM GAS  /tmp/ccXjwcLW.s 			page 8


 400              		.syntax unified
 401              	@ 546 "/home/selim/working/ChibiOS/os/ext/CMSIS/include/core_cmFunc.h" 1
 402 0004 82F31188 		MSR basepri, r2
 403              	@ 0 "" 2
 404              	.LVL24:
 405              		.thumb
 406              		.syntax unified
 407              	.LBE254:
 408              	.LBE253:
 409              	.LBE252:
 410              	.LBE251:
 411              	.LBE250:
 412              		.loc 1 179 0
 413 0008 0322     		movs	r2, #3
 414 000a 0270     		strb	r2, [r0]
 415 000c FFF7FEFF 		bl	spi_lld_ignore
 416              	.LVL25:
 417              	.LBB255:
 418              	.LBB256:
 419              	.LBB257:
 420              	.LBB258:
 421              	.LBB259:
 422              	.LBB260:
 423              		.loc 3 546 0
 424 0010 0023     		movs	r3, #0
 425              		.syntax unified
 426              	@ 546 "/home/selim/working/ChibiOS/os/ext/CMSIS/include/core_cmFunc.h" 1
 427 0012 83F31188 		MSR basepri, r3
 428              	@ 0 "" 2
 429              	.LVL26:
 430              		.thumb
 431              		.syntax unified
 432 0016 08BD     		pop	{r3, pc}
 433              	.LBE260:
 434              	.LBE259:
 435              	.LBE258:
 436              	.LBE257:
 437              	.LBE256:
 438              	.LBE255:
 439              		.cfi_endproc
 440              	.LFE264:
 441              		.size	spiStartIgnore, .-spiStartIgnore
 442              		.section	.text.spiStartExchange,"ax",%progbits
 443              		.align	2
 444              		.p2align 4,,15
 445              		.global	spiStartExchange
 446              		.thumb
 447              		.thumb_func
 448              		.type	spiStartExchange, %function
 449              	spiStartExchange:
 450              	.LFB265:
 451              		.loc 1 201 0
 452              		.cfi_startproc
 453              		@ args = 0, pretend = 0, frame = 0
 454              		@ frame_needed = 0, uses_anonymous_args = 0
 455              	.LVL27:
 456 0000 38B5     		push	{r3, r4, r5, lr}
ARM GAS  /tmp/ccXjwcLW.s 			page 9


 457              		.cfi_def_cfa_offset 16
 458              		.cfi_offset 3, -16
 459              		.cfi_offset 4, -12
 460              		.cfi_offset 5, -8
 461              		.cfi_offset 14, -4
 462              	.LBB261:
 463              	.LBB262:
 464              	.LBB263:
 465              	.LBB264:
 466              	.LBB265:
 467              		.loc 3 546 0
 468 0002 2025     		movs	r5, #32
 469              		.syntax unified
 470              	@ 546 "/home/selim/working/ChibiOS/os/ext/CMSIS/include/core_cmFunc.h" 1
 471 0004 85F31188 		MSR basepri, r5
 472              	@ 0 "" 2
 473              	.LVL28:
 474              		.thumb
 475              		.syntax unified
 476              	.LBE265:
 477              	.LBE264:
 478              	.LBE263:
 479              	.LBE262:
 480              	.LBE261:
 481              		.loc 1 208 0
 482 0008 0325     		movs	r5, #3
 483 000a 0570     		strb	r5, [r0]
 484 000c FFF7FEFF 		bl	spi_lld_exchange
 485              	.LVL29:
 486              	.LBB266:
 487              	.LBB267:
 488              	.LBB268:
 489              	.LBB269:
 490              	.LBB270:
 491              	.LBB271:
 492              		.loc 3 546 0
 493 0010 0023     		movs	r3, #0
 494              		.syntax unified
 495              	@ 546 "/home/selim/working/ChibiOS/os/ext/CMSIS/include/core_cmFunc.h" 1
 496 0012 83F31188 		MSR basepri, r3
 497              	@ 0 "" 2
 498              	.LVL30:
 499              		.thumb
 500              		.syntax unified
 501 0016 38BD     		pop	{r3, r4, r5, pc}
 502              	.LBE271:
 503              	.LBE270:
 504              	.LBE269:
 505              	.LBE268:
 506              	.LBE267:
 507              	.LBE266:
 508              		.cfi_endproc
 509              	.LFE265:
 510              		.size	spiStartExchange, .-spiStartExchange
 511              		.section	.text.spiStartSend,"ax",%progbits
 512              		.align	2
 513              		.p2align 4,,15
ARM GAS  /tmp/ccXjwcLW.s 			page 10


 514              		.global	spiStartSend
 515              		.thumb
 516              		.thumb_func
 517              		.type	spiStartSend, %function
 518              	spiStartSend:
 519              	.LFB266:
 520              		.loc 1 227 0
 521              		.cfi_startproc
 522              		@ args = 0, pretend = 0, frame = 0
 523              		@ frame_needed = 0, uses_anonymous_args = 0
 524              	.LVL31:
 525 0000 10B5     		push	{r4, lr}
 526              		.cfi_def_cfa_offset 8
 527              		.cfi_offset 4, -8
 528              		.cfi_offset 14, -4
 529              	.LBB272:
 530              	.LBB273:
 531              	.LBB274:
 532              	.LBB275:
 533              	.LBB276:
 534              		.loc 3 546 0
 535 0002 2024     		movs	r4, #32
 536              		.syntax unified
 537              	@ 546 "/home/selim/working/ChibiOS/os/ext/CMSIS/include/core_cmFunc.h" 1
 538 0004 84F31188 		MSR basepri, r4
 539              	@ 0 "" 2
 540              	.LVL32:
 541              		.thumb
 542              		.syntax unified
 543              	.LBE276:
 544              	.LBE275:
 545              	.LBE274:
 546              	.LBE273:
 547              	.LBE272:
 548              		.loc 1 233 0
 549 0008 0324     		movs	r4, #3
 550 000a 0470     		strb	r4, [r0]
 551 000c FFF7FEFF 		bl	spi_lld_send
 552              	.LVL33:
 553              	.LBB277:
 554              	.LBB278:
 555              	.LBB279:
 556              	.LBB280:
 557              	.LBB281:
 558              	.LBB282:
 559              		.loc 3 546 0
 560 0010 0023     		movs	r3, #0
 561              		.syntax unified
 562              	@ 546 "/home/selim/working/ChibiOS/os/ext/CMSIS/include/core_cmFunc.h" 1
 563 0012 83F31188 		MSR basepri, r3
 564              	@ 0 "" 2
 565              	.LVL34:
 566              		.thumb
 567              		.syntax unified
 568 0016 10BD     		pop	{r4, pc}
 569              	.LBE282:
 570              	.LBE281:
ARM GAS  /tmp/ccXjwcLW.s 			page 11


 571              	.LBE280:
 572              	.LBE279:
 573              	.LBE278:
 574              	.LBE277:
 575              		.cfi_endproc
 576              	.LFE266:
 577              		.size	spiStartSend, .-spiStartSend
 578              		.section	.text.spiStartReceive,"ax",%progbits
 579              		.align	2
 580              		.p2align 4,,15
 581              		.global	spiStartReceive
 582              		.thumb
 583              		.thumb_func
 584              		.type	spiStartReceive, %function
 585              	spiStartReceive:
 586              	.LFB267:
 587              		.loc 1 252 0
 588              		.cfi_startproc
 589              		@ args = 0, pretend = 0, frame = 0
 590              		@ frame_needed = 0, uses_anonymous_args = 0
 591              	.LVL35:
 592 0000 10B5     		push	{r4, lr}
 593              		.cfi_def_cfa_offset 8
 594              		.cfi_offset 4, -8
 595              		.cfi_offset 14, -4
 596              	.LBB283:
 597              	.LBB284:
 598              	.LBB285:
 599              	.LBB286:
 600              	.LBB287:
 601              		.loc 3 546 0
 602 0002 2024     		movs	r4, #32
 603              		.syntax unified
 604              	@ 546 "/home/selim/working/ChibiOS/os/ext/CMSIS/include/core_cmFunc.h" 1
 605 0004 84F31188 		MSR basepri, r4
 606              	@ 0 "" 2
 607              	.LVL36:
 608              		.thumb
 609              		.syntax unified
 610              	.LBE287:
 611              	.LBE286:
 612              	.LBE285:
 613              	.LBE284:
 614              	.LBE283:
 615              		.loc 1 258 0
 616 0008 0324     		movs	r4, #3
 617 000a 0470     		strb	r4, [r0]
 618 000c FFF7FEFF 		bl	spi_lld_receive
 619              	.LVL37:
 620              	.LBB288:
 621              	.LBB289:
 622              	.LBB290:
 623              	.LBB291:
 624              	.LBB292:
 625              	.LBB293:
 626              		.loc 3 546 0
 627 0010 0023     		movs	r3, #0
ARM GAS  /tmp/ccXjwcLW.s 			page 12


 628              		.syntax unified
 629              	@ 546 "/home/selim/working/ChibiOS/os/ext/CMSIS/include/core_cmFunc.h" 1
 630 0012 83F31188 		MSR basepri, r3
 631              	@ 0 "" 2
 632              	.LVL38:
 633              		.thumb
 634              		.syntax unified
 635 0016 10BD     		pop	{r4, pc}
 636              	.LBE293:
 637              	.LBE292:
 638              	.LBE291:
 639              	.LBE290:
 640              	.LBE289:
 641              	.LBE288:
 642              		.cfi_endproc
 643              	.LFE267:
 644              		.size	spiStartReceive, .-spiStartReceive
 645              		.section	.text.spiIgnore,"ax",%progbits
 646              		.align	2
 647              		.p2align 4,,15
 648              		.global	spiIgnore
 649              		.thumb
 650              		.thumb_func
 651              		.type	spiIgnore, %function
 652              	spiIgnore:
 653              	.LFB268:
 654              		.loc 1 277 0
 655              		.cfi_startproc
 656              		@ args = 0, pretend = 0, frame = 0
 657              		@ frame_needed = 0, uses_anonymous_args = 0
 658              	.LVL39:
 659 0000 10B5     		push	{r4, lr}
 660              		.cfi_def_cfa_offset 8
 661              		.cfi_offset 4, -8
 662              		.cfi_offset 14, -4
 663              	.LBB294:
 664              	.LBB295:
 665              	.LBB296:
 666              	.LBB297:
 667              	.LBB298:
 668              		.loc 3 546 0
 669 0002 2023     		movs	r3, #32
 670              	.LBE298:
 671              	.LBE297:
 672              	.LBE296:
 673              	.LBE295:
 674              	.LBE294:
 675              		.loc 1 277 0
 676 0004 0446     		mov	r4, r0
 677              	.LBB303:
 678              	.LBB302:
 679              	.LBB301:
 680              	.LBB300:
 681              	.LBB299:
 682              		.loc 3 546 0
 683              		.syntax unified
 684              	@ 546 "/home/selim/working/ChibiOS/os/ext/CMSIS/include/core_cmFunc.h" 1
ARM GAS  /tmp/ccXjwcLW.s 			page 13


 685 0006 83F31188 		MSR basepri, r3
 686              	@ 0 "" 2
 687              	.LVL40:
 688              		.thumb
 689              		.syntax unified
 690              	.LBE299:
 691              	.LBE300:
 692              	.LBE301:
 693              	.LBE302:
 694              	.LBE303:
 695              		.loc 1 284 0
 696 000a 0323     		movs	r3, #3
 697 000c 04F8083B 		strb	r3, [r4], #8
 698 0010 FFF7FEFF 		bl	spi_lld_ignore
 699              	.LVL41:
 700              	.LBB304:
 701              	.LBB305:
 702              		.loc 2 642 0
 703 0014 2046     		mov	r0, r4
 704 0016 FFF7FEFF 		bl	chThdSuspendS
 705              	.LVL42:
 706              	.LBE305:
 707              	.LBE304:
 708              	.LBB306:
 709              	.LBB307:
 710              	.LBB308:
 711              	.LBB309:
 712              	.LBB310:
 713              	.LBB311:
 714              		.loc 3 546 0
 715 001a 0023     		movs	r3, #0
 716              		.syntax unified
 717              	@ 546 "/home/selim/working/ChibiOS/os/ext/CMSIS/include/core_cmFunc.h" 1
 718 001c 83F31188 		MSR basepri, r3
 719              	@ 0 "" 2
 720              	.LVL43:
 721              		.thumb
 722              		.syntax unified
 723 0020 10BD     		pop	{r4, pc}
 724              	.LBE311:
 725              	.LBE310:
 726              	.LBE309:
 727              	.LBE308:
 728              	.LBE307:
 729              	.LBE306:
 730              		.cfi_endproc
 731              	.LFE268:
 732              		.size	spiIgnore, .-spiIgnore
 733 0022 00BF     		.section	.text.spiExchange,"ax",%progbits
 734              		.align	2
 735              		.p2align 4,,15
 736              		.global	spiExchange
 737              		.thumb
 738              		.thumb_func
 739              		.type	spiExchange, %function
 740              	spiExchange:
 741              	.LFB269:
ARM GAS  /tmp/ccXjwcLW.s 			page 14


 742              		.loc 1 308 0
 743              		.cfi_startproc
 744              		@ args = 0, pretend = 0, frame = 0
 745              		@ frame_needed = 0, uses_anonymous_args = 0
 746              	.LVL44:
 747 0000 38B5     		push	{r3, r4, r5, lr}
 748              		.cfi_def_cfa_offset 16
 749              		.cfi_offset 3, -16
 750              		.cfi_offset 4, -12
 751              		.cfi_offset 5, -8
 752              		.cfi_offset 14, -4
 753              		.loc 1 308 0
 754 0002 0446     		mov	r4, r0
 755              	.LBB312:
 756              	.LBB313:
 757              	.LBB314:
 758              	.LBB315:
 759              	.LBB316:
 760              		.loc 3 546 0
 761 0004 2025     		movs	r5, #32
 762              		.syntax unified
 763              	@ 546 "/home/selim/working/ChibiOS/os/ext/CMSIS/include/core_cmFunc.h" 1
 764 0006 85F31188 		MSR basepri, r5
 765              	@ 0 "" 2
 766              	.LVL45:
 767              		.thumb
 768              		.syntax unified
 769              	.LBE316:
 770              	.LBE315:
 771              	.LBE314:
 772              	.LBE313:
 773              	.LBE312:
 774              		.loc 1 316 0
 775 000a 0325     		movs	r5, #3
 776 000c 04F8085B 		strb	r5, [r4], #8
 777 0010 FFF7FEFF 		bl	spi_lld_exchange
 778              	.LVL46:
 779              	.LBB317:
 780              	.LBB318:
 781              		.loc 2 642 0
 782 0014 2046     		mov	r0, r4
 783 0016 FFF7FEFF 		bl	chThdSuspendS
 784              	.LVL47:
 785              	.LBE318:
 786              	.LBE317:
 787              	.LBB319:
 788              	.LBB320:
 789              	.LBB321:
 790              	.LBB322:
 791              	.LBB323:
 792              	.LBB324:
 793              		.loc 3 546 0
 794 001a 0023     		movs	r3, #0
 795              		.syntax unified
 796              	@ 546 "/home/selim/working/ChibiOS/os/ext/CMSIS/include/core_cmFunc.h" 1
 797 001c 83F31188 		MSR basepri, r3
 798              	@ 0 "" 2
ARM GAS  /tmp/ccXjwcLW.s 			page 15


 799              	.LVL48:
 800              		.thumb
 801              		.syntax unified
 802 0020 38BD     		pop	{r3, r4, r5, pc}
 803              	.LBE324:
 804              	.LBE323:
 805              	.LBE322:
 806              	.LBE321:
 807              	.LBE320:
 808              	.LBE319:
 809              		.cfi_endproc
 810              	.LFE269:
 811              		.size	spiExchange, .-spiExchange
 812 0022 00BF     		.section	.text.spiSend,"ax",%progbits
 813              		.align	2
 814              		.p2align 4,,15
 815              		.global	spiSend
 816              		.thumb
 817              		.thumb_func
 818              		.type	spiSend, %function
 819              	spiSend:
 820              	.LFB270:
 821              		.loc 1 337 0
 822              		.cfi_startproc
 823              		@ args = 0, pretend = 0, frame = 0
 824              		@ frame_needed = 0, uses_anonymous_args = 0
 825              	.LVL49:
 826 0000 10B5     		push	{r4, lr}
 827              		.cfi_def_cfa_offset 8
 828              		.cfi_offset 4, -8
 829              		.cfi_offset 14, -4
 830              	.LBB325:
 831              	.LBB326:
 832              	.LBB327:
 833              	.LBB328:
 834              	.LBB329:
 835              		.loc 3 546 0
 836 0002 2023     		movs	r3, #32
 837              	.LBE329:
 838              	.LBE328:
 839              	.LBE327:
 840              	.LBE326:
 841              	.LBE325:
 842              		.loc 1 337 0
 843 0004 0446     		mov	r4, r0
 844              	.LBB334:
 845              	.LBB333:
 846              	.LBB332:
 847              	.LBB331:
 848              	.LBB330:
 849              		.loc 3 546 0
 850              		.syntax unified
 851              	@ 546 "/home/selim/working/ChibiOS/os/ext/CMSIS/include/core_cmFunc.h" 1
 852 0006 83F31188 		MSR basepri, r3
 853              	@ 0 "" 2
 854              	.LVL50:
 855              		.thumb
ARM GAS  /tmp/ccXjwcLW.s 			page 16


 856              		.syntax unified
 857              	.LBE330:
 858              	.LBE331:
 859              	.LBE332:
 860              	.LBE333:
 861              	.LBE334:
 862              		.loc 1 344 0
 863 000a 0323     		movs	r3, #3
 864 000c 04F8083B 		strb	r3, [r4], #8
 865 0010 FFF7FEFF 		bl	spi_lld_send
 866              	.LVL51:
 867              	.LBB335:
 868              	.LBB336:
 869              		.loc 2 642 0
 870 0014 2046     		mov	r0, r4
 871 0016 FFF7FEFF 		bl	chThdSuspendS
 872              	.LVL52:
 873              	.LBE336:
 874              	.LBE335:
 875              	.LBB337:
 876              	.LBB338:
 877              	.LBB339:
 878              	.LBB340:
 879              	.LBB341:
 880              	.LBB342:
 881              		.loc 3 546 0
 882 001a 0023     		movs	r3, #0
 883              		.syntax unified
 884              	@ 546 "/home/selim/working/ChibiOS/os/ext/CMSIS/include/core_cmFunc.h" 1
 885 001c 83F31188 		MSR basepri, r3
 886              	@ 0 "" 2
 887              	.LVL53:
 888              		.thumb
 889              		.syntax unified
 890 0020 10BD     		pop	{r4, pc}
 891              	.LBE342:
 892              	.LBE341:
 893              	.LBE340:
 894              	.LBE339:
 895              	.LBE338:
 896              	.LBE337:
 897              		.cfi_endproc
 898              	.LFE270:
 899              		.size	spiSend, .-spiSend
 900 0022 00BF     		.section	.text.spiReceive,"ax",%progbits
 901              		.align	2
 902              		.p2align 4,,15
 903              		.global	spiReceive
 904              		.thumb
 905              		.thumb_func
 906              		.type	spiReceive, %function
 907              	spiReceive:
 908              	.LFB271:
 909              		.loc 1 365 0
 910              		.cfi_startproc
 911              		@ args = 0, pretend = 0, frame = 0
 912              		@ frame_needed = 0, uses_anonymous_args = 0
ARM GAS  /tmp/ccXjwcLW.s 			page 17


 913              	.LVL54:
 914 0000 10B5     		push	{r4, lr}
 915              		.cfi_def_cfa_offset 8
 916              		.cfi_offset 4, -8
 917              		.cfi_offset 14, -4
 918              	.LBB343:
 919              	.LBB344:
 920              	.LBB345:
 921              	.LBB346:
 922              	.LBB347:
 923              		.loc 3 546 0
 924 0002 2023     		movs	r3, #32
 925              	.LBE347:
 926              	.LBE346:
 927              	.LBE345:
 928              	.LBE344:
 929              	.LBE343:
 930              		.loc 1 365 0
 931 0004 0446     		mov	r4, r0
 932              	.LBB352:
 933              	.LBB351:
 934              	.LBB350:
 935              	.LBB349:
 936              	.LBB348:
 937              		.loc 3 546 0
 938              		.syntax unified
 939              	@ 546 "/home/selim/working/ChibiOS/os/ext/CMSIS/include/core_cmFunc.h" 1
 940 0006 83F31188 		MSR basepri, r3
 941              	@ 0 "" 2
 942              	.LVL55:
 943              		.thumb
 944              		.syntax unified
 945              	.LBE348:
 946              	.LBE349:
 947              	.LBE350:
 948              	.LBE351:
 949              	.LBE352:
 950              		.loc 1 372 0
 951 000a 0323     		movs	r3, #3
 952 000c 04F8083B 		strb	r3, [r4], #8
 953 0010 FFF7FEFF 		bl	spi_lld_receive
 954              	.LVL56:
 955              	.LBB353:
 956              	.LBB354:
 957              		.loc 2 642 0
 958 0014 2046     		mov	r0, r4
 959 0016 FFF7FEFF 		bl	chThdSuspendS
 960              	.LVL57:
 961              	.LBE354:
 962              	.LBE353:
 963              	.LBB355:
 964              	.LBB356:
 965              	.LBB357:
 966              	.LBB358:
 967              	.LBB359:
 968              	.LBB360:
 969              		.loc 3 546 0
ARM GAS  /tmp/ccXjwcLW.s 			page 18


 970 001a 0023     		movs	r3, #0
 971              		.syntax unified
 972              	@ 546 "/home/selim/working/ChibiOS/os/ext/CMSIS/include/core_cmFunc.h" 1
 973 001c 83F31188 		MSR basepri, r3
 974              	@ 0 "" 2
 975              	.LVL58:
 976              		.thumb
 977              		.syntax unified
 978 0020 10BD     		pop	{r4, pc}
 979              	.LBE360:
 980              	.LBE359:
 981              	.LBE358:
 982              	.LBE357:
 983              	.LBE356:
 984              	.LBE355:
 985              		.cfi_endproc
 986              	.LFE271:
 987              		.size	spiReceive, .-spiReceive
 988 0022 00BF     		.section	.text.spiAcquireBus,"ax",%progbits
 989              		.align	2
 990              		.p2align 4,,15
 991              		.global	spiAcquireBus
 992              		.thumb
 993              		.thumb_func
 994              		.type	spiAcquireBus, %function
 995              	spiAcquireBus:
 996              	.LFB272:
 997              		.loc 1 390 0
 998              		.cfi_startproc
 999              		@ args = 0, pretend = 0, frame = 0
 1000              		@ frame_needed = 0, uses_anonymous_args = 0
 1001              		@ link register save eliminated.
 1002              	.LVL59:
 1003              	.LBB361:
 1004              	.LBB362:
 1005              		.loc 2 861 0
 1006 0000 0C30     		adds	r0, r0, #12
 1007              	.LVL60:
 1008 0002 FFF7FEBF 		b	chMtxLock
 1009              	.LVL61:
 1010              	.LBE362:
 1011              	.LBE361:
 1012              		.cfi_endproc
 1013              	.LFE272:
 1014              		.size	spiAcquireBus, .-spiAcquireBus
 1015 0006 00BF     		.section	.text.spiReleaseBus,"ax",%progbits
 1016              		.align	2
 1017              		.p2align 4,,15
 1018              		.global	spiReleaseBus
 1019              		.thumb
 1020              		.thumb_func
 1021              		.type	spiReleaseBus, %function
 1022              	spiReleaseBus:
 1023              	.LFB273:
 1024              		.loc 1 406 0
 1025              		.cfi_startproc
 1026              		@ args = 0, pretend = 0, frame = 0
ARM GAS  /tmp/ccXjwcLW.s 			page 19


 1027              		@ frame_needed = 0, uses_anonymous_args = 0
 1028              		@ link register save eliminated.
 1029              	.LVL62:
 1030              	.LBB363:
 1031              	.LBB364:
 1032              		.loc 2 885 0
 1033 0000 0C30     		adds	r0, r0, #12
 1034              	.LVL63:
 1035 0002 FFF7FEBF 		b	chMtxUnlock
 1036              	.LVL64:
 1037              	.LBE364:
 1038              	.LBE363:
 1039              		.cfi_endproc
 1040              	.LFE273:
 1041              		.size	spiReleaseBus, .-spiReleaseBus
 1042 0006 00BF     		.text
 1043              	.Letext0:
 1044              		.file 4 "/usr/lib/gcc/arm-none-eabi/5.3.1/include/stddef.h"
 1045              		.file 5 "/usr/arm-none-eabi/include/machine/_default_types.h"
 1046              		.file 6 "/usr/arm-none-eabi/include/sys/_stdint.h"
 1047              		.file 7 "/home/selim/working/ChibiOS/os/rt/ports/ARMCMx/compilers/GCC/chtypes.h"
 1048              		.file 8 "/home/selim/working/ChibiOS/os/rt/include/chsystypes.h"
 1049              		.file 9 "/home/selim/working/ChibiOS/os/rt/include/chschd.h"
 1050              		.file 10 "/home/selim/working/ChibiOS/os/ext/CMSIS/ST/stm32f407xx.h"
 1051              		.file 11 "/home/selim/working/ChibiOS/os/rt/ports/ARMCMx/chcore.h"
 1052              		.file 12 "/home/selim/working/ChibiOS/os/rt/ports/ARMCMx/chcore_v7m.h"
 1053              		.file 13 "/home/selim/working/ChibiOS/os/rt/include/chtm.h"
 1054              		.file 14 "/home/selim/working/ChibiOS/os/rt/include/chsem.h"
 1055              		.file 15 "/home/selim/working/ChibiOS/os/rt/include/chmtx.h"
 1056              		.file 16 "/home/selim/working/ChibiOS/os/hal/ports/STM32/STM32F4xx/stm32_dma.h"
 1057              		.file 17 "/home/selim/working/ChibiOS/os/hal/ports/STM32/LLD/GPIOv2/pal_lld.h"
 1058              		.file 18 "/home/selim/working/ChibiOS/os/hal/include/spi.h"
 1059              		.file 19 "/home/selim/working/ChibiOS/os/hal/ports/STM32/LLD/SPIv1/spi_lld.h"
 1060              		.file 20 "/home/selim/working/ChibiOS/os/rt/include/chsys.h"
 1061              		.file 21 "/home/selim/working/ChibiOS/os/rt/include/chthreads.h"
 1062              		.file 22 "/home/selim/working/ChibiOS/os/ext/CMSIS/include/core_cm4.h"