ARM GAS  /tmp/ccjHnIUF.s 			page 1


   1              		.syntax unified
   2              		.cpu cortex-m4
   3              		.fpu softvfp
   4              		.eabi_attribute 20, 1
   5              		.eabi_attribute 21, 1
   6              		.eabi_attribute 23, 3
   7              		.eabi_attribute 24, 1
   8              		.eabi_attribute 25, 1
   9              		.eabi_attribute 26, 1
  10              		.eabi_attribute 30, 2
  11              		.eabi_attribute 34, 1
  12              		.eabi_attribute 18, 4
  13              		.thumb
  14              		.syntax unified
  15              		.file	"chdynamic.c"
  16              		.text
  17              	.Ltext0:
  18              		.cfi_sections	.debug_frame
  19              		.section	.text.chThdAddRef,"ax",%progbits
  20              		.align	2
  21              		.p2align 4,,15
  22              		.global	chThdAddRef
  23              		.thumb
  24              		.thumb_func
  25              		.type	chThdAddRef, %function
  26              	chThdAddRef:
  27              	.LFB227:
  28              		.file 1 "/home/selim/working/ChibiOS/os/rt/src/chdynamic.c"
  29              		.loc 1 68 0
  30              		.cfi_startproc
  31              		@ args = 0, pretend = 0, frame = 0
  32              		@ frame_needed = 0, uses_anonymous_args = 0
  33              		@ link register save eliminated.
  34              	.LVL0:
  35              	.LBB54:
  36              	.LBB55:
  37              	.LBB56:
  38              	.LBB57:
  39              		.file 2 "/home/selim/working/ChibiOS/os/ext/CMSIS/include/core_cmFunc.h"
  40              		.loc 2 546 0
  41 0000 2023     		movs	r3, #32
  42              		.syntax unified
  43              	@ 546 "/home/selim/working/ChibiOS/os/ext/CMSIS/include/core_cmFunc.h" 1
  44 0002 83F31188 		MSR basepri, r3
  45              	@ 0 "" 2
  46              	.LVL1:
  47              		.thumb
  48              		.syntax unified
  49              	.LBE57:
  50              	.LBE56:
  51              	.LBE55:
  52              	.LBE54:
  53              		.loc 1 72 0
  54 0006 837F     		ldrb	r3, [r0, #30]	@ zero_extendqisi2
  55 0008 0133     		adds	r3, r3, #1
  56 000a 8377     		strb	r3, [r0, #30]
  57              	.LVL2:
ARM GAS  /tmp/ccjHnIUF.s 			page 2


  58              	.LBB58:
  59              	.LBB59:
  60              	.LBB60:
  61              	.LBB61:
  62              	.LBB62:
  63              		.loc 2 546 0
  64 000c 0023     		movs	r3, #0
  65              		.syntax unified
  66              	@ 546 "/home/selim/working/ChibiOS/os/ext/CMSIS/include/core_cmFunc.h" 1
  67 000e 83F31188 		MSR basepri, r3
  68              	@ 0 "" 2
  69              	.LVL3:
  70              		.thumb
  71              		.syntax unified
  72              	.LBE62:
  73              	.LBE61:
  74              	.LBE60:
  75              	.LBE59:
  76              	.LBE58:
  77              		.loc 1 76 0
  78 0012 7047     		bx	lr
  79              		.cfi_endproc
  80              	.LFE227:
  81              		.size	chThdAddRef, .-chThdAddRef
  82              		.section	.text.chThdRelease,"ax",%progbits
  83              		.align	2
  84              		.p2align 4,,15
  85              		.global	chThdRelease
  86              		.thumb
  87              		.thumb_func
  88              		.type	chThdRelease, %function
  89              	chThdRelease:
  90              	.LFB228:
  91              		.loc 1 91 0
  92              		.cfi_startproc
  93              		@ args = 0, pretend = 0, frame = 0
  94              		@ frame_needed = 0, uses_anonymous_args = 0
  95              		@ link register save eliminated.
  96              	.LVL4:
  97              		.loc 1 91 0
  98 0000 0146     		mov	r1, r0
  99              	.LBB63:
 100              	.LBB64:
 101              	.LBB65:
 102              	.LBB66:
 103              		.loc 2 546 0
 104 0002 2023     		movs	r3, #32
 105              		.syntax unified
 106              	@ 546 "/home/selim/working/ChibiOS/os/ext/CMSIS/include/core_cmFunc.h" 1
 107 0004 83F31188 		MSR basepri, r3
 108              	@ 0 "" 2
 109              	.LVL5:
 110              		.thumb
 111              		.syntax unified
 112              	.LBE66:
 113              	.LBE65:
 114              	.LBE64:
ARM GAS  /tmp/ccjHnIUF.s 			page 3


 115              	.LBE63:
 116              		.loc 1 96 0
 117 0008 837F     		ldrb	r3, [r0, #30]	@ zero_extendqisi2
 118 000a 013B     		subs	r3, r3, #1
 119 000c DBB2     		uxtb	r3, r3
 120 000e 8377     		strb	r3, [r0, #30]
 121              	.LVL6:
 122              	.LBB67:
 123              	.LBB68:
 124              	.LBB69:
 125              	.LBB70:
 126              	.LBB71:
 127              		.loc 2 546 0
 128 0010 0022     		movs	r2, #0
 129              		.syntax unified
 130              	@ 546 "/home/selim/working/ChibiOS/os/ext/CMSIS/include/core_cmFunc.h" 1
 131 0012 82F31188 		MSR basepri, r2
 132              	@ 0 "" 2
 133              	.LVL7:
 134              		.thumb
 135              		.syntax unified
 136              	.LBE71:
 137              	.LBE70:
 138              	.LBE69:
 139              	.LBE68:
 140              	.LBE67:
 141              		.loc 1 103 0
 142 0016 13B9     		cbnz	r3, .L2
 143              		.loc 1 103 0 is_stmt 0 discriminator 1
 144 0018 037F     		ldrb	r3, [r0, #28]	@ zero_extendqisi2
 145              	.LVL8:
 146 001a 0F2B     		cmp	r3, #15
 147 001c 00D0     		beq	.L7
 148              	.L2:
 149 001e 7047     		bx	lr
 150              	.L7:
 151              		.loc 1 104 0 is_stmt 1
 152 0020 437F     		ldrb	r3, [r0, #29]	@ zero_extendqisi2
 153 0022 03F00303 		and	r3, r3, #3
 154 0026 012B     		cmp	r3, #1
 155 0028 02D0     		beq	.L4
 156 002a 022B     		cmp	r3, #2
 157 002c 07D0     		beq	.L5
 158 002e 7047     		bx	lr
 159              	.L4:
 160              		.loc 1 108 0
 161 0030 4369     		ldr	r3, [r0, #20]
 162 0032 0269     		ldr	r2, [r0, #16]
 163 0034 1A61     		str	r2, [r3, #16]
 164              	.LVL9:
 165 0036 0269     		ldr	r2, [r0, #16]
 166 0038 5361     		str	r3, [r2, #20]
 167              		.loc 1 110 0
 168 003a FFF7FEBF 		b	chHeapFree
 169              	.LVL10:
 170              	.L5:
 171              		.loc 1 116 0
ARM GAS  /tmp/ccjHnIUF.s 			page 4


 172 003e 4369     		ldr	r3, [r0, #20]
 173 0040 0269     		ldr	r2, [r0, #16]
 174 0042 1A61     		str	r2, [r3, #16]
 175              	.LVL11:
 176 0044 0269     		ldr	r2, [r0, #16]
 177              		.loc 1 118 0
 178 0046 006C     		ldr	r0, [r0, #64]
 179              	.LVL12:
 180              		.loc 1 116 0
 181 0048 5361     		str	r3, [r2, #20]
 182              		.loc 1 118 0
 183 004a FFF7FEBF 		b	chPoolFree
 184              	.LVL13:
 185              		.cfi_endproc
 186              	.LFE228:
 187              		.size	chThdRelease, .-chThdRelease
 188 004e 00BF     		.section	.text.chThdCreateFromHeap,"ax",%progbits
 189              		.align	2
 190              		.p2align 4,,15
 191              		.global	chThdCreateFromHeap
 192              		.thumb
 193              		.thumb_func
 194              		.type	chThdCreateFromHeap, %function
 195              	chThdCreateFromHeap:
 196              	.LFB229:
 197              		.loc 1 153 0
 198              		.cfi_startproc
 199              		@ args = 4, pretend = 0, frame = 0
 200              		@ frame_needed = 0, uses_anonymous_args = 0
 201              	.LVL14:
 202 0000 F0B5     		push	{r4, r5, r6, r7, lr}
 203              		.cfi_def_cfa_offset 20
 204              		.cfi_offset 4, -20
 205              		.cfi_offset 5, -16
 206              		.cfi_offset 6, -12
 207              		.cfi_offset 7, -8
 208              		.cfi_offset 14, -4
 209 0002 83B0     		sub	sp, sp, #12
 210              		.cfi_def_cfa_offset 32
 211              		.loc 1 153 0
 212 0004 1646     		mov	r6, r2
 213 0006 1F46     		mov	r7, r3
 214 0008 0D46     		mov	r5, r1
 215              		.loc 1 157 0
 216 000a FFF7FEFF 		bl	chHeapAlloc
 217              	.LVL15:
 218              		.loc 1 158 0
 219 000e 98B1     		cbz	r0, .L9
 220              	.LVL16:
 221              	.LBB72:
 222              	.LBB73:
 223              	.LBB74:
 224              	.LBB75:
 225              		.loc 2 546 0
 226 0010 2023     		movs	r3, #32
 227              		.syntax unified
 228              	@ 546 "/home/selim/working/ChibiOS/os/ext/CMSIS/include/core_cmFunc.h" 1
ARM GAS  /tmp/ccjHnIUF.s 			page 5


 229 0012 83F31188 		MSR basepri, r3
 230              	@ 0 "" 2
 231              	.LVL17:
 232              		.thumb
 233              		.syntax unified
 234              	.LBE75:
 235              	.LBE74:
 236              	.LBE73:
 237              	.LBE72:
 238              		.loc 1 172 0
 239 0016 089B     		ldr	r3, [sp, #32]
 240 0018 0093     		str	r3, [sp]
 241 001a 3246     		mov	r2, r6
 242 001c 3B46     		mov	r3, r7
 243 001e 2946     		mov	r1, r5
 244 0020 FFF7FEFF 		bl	chThdCreateI
 245              	.LVL18:
 246              		.loc 1 173 0
 247 0024 0123     		movs	r3, #1
 248 0026 4377     		strb	r3, [r0, #29]
 249              		.loc 1 174 0
 250 0028 0021     		movs	r1, #0
 251              		.loc 1 172 0
 252 002a 0446     		mov	r4, r0
 253              	.LVL19:
 254              		.loc 1 174 0
 255 002c FFF7FEFF 		bl	chSchWakeupS
 256              	.LVL20:
 257              	.LBB76:
 258              	.LBB77:
 259              	.LBB78:
 260              	.LBB79:
 261              	.LBB80:
 262              		.loc 2 546 0
 263 0030 0023     		movs	r3, #0
 264              		.syntax unified
 265              	@ 546 "/home/selim/working/ChibiOS/os/ext/CMSIS/include/core_cmFunc.h" 1
 266 0032 83F31188 		MSR basepri, r3
 267              	@ 0 "" 2
 268              	.LVL21:
 269              		.thumb
 270              		.syntax unified
 271              	.LBE80:
 272              	.LBE79:
 273              	.LBE78:
 274              	.LBE77:
 275              	.LBE76:
 276              		.loc 1 177 0
 277 0036 2046     		mov	r0, r4
 278              	.LVL22:
 279              	.L9:
 280              		.loc 1 178 0
 281 0038 03B0     		add	sp, sp, #12
 282              		.cfi_def_cfa_offset 20
 283              		@ sp needed
 284 003a F0BD     		pop	{r4, r5, r6, r7, pc}
 285              		.cfi_endproc
ARM GAS  /tmp/ccjHnIUF.s 			page 6


 286              	.LFE229:
 287              		.size	chThdCreateFromHeap, .-chThdCreateFromHeap
 288              		.section	.text.chThdCreateFromMemoryPool,"ax",%progbits
 289              		.align	2
 290              		.p2align 4,,15
 291              		.global	chThdCreateFromMemoryPool
 292              		.thumb
 293              		.thumb_func
 294              		.type	chThdCreateFromMemoryPool, %function
 295              	chThdCreateFromMemoryPool:
 296              	.LFB230:
 297              		.loc 1 205 0
 298              		.cfi_startproc
 299              		@ args = 0, pretend = 0, frame = 0
 300              		@ frame_needed = 0, uses_anonymous_args = 0
 301              	.LVL23:
 302 0000 2DE9F041 		push	{r4, r5, r6, r7, r8, lr}
 303              		.cfi_def_cfa_offset 24
 304              		.cfi_offset 4, -24
 305              		.cfi_offset 5, -20
 306              		.cfi_offset 6, -16
 307              		.cfi_offset 7, -12
 308              		.cfi_offset 8, -8
 309              		.cfi_offset 14, -4
 310 0004 82B0     		sub	sp, sp, #8
 311              		.cfi_def_cfa_offset 32
 312              		.loc 1 205 0
 313 0006 0E46     		mov	r6, r1
 314 0008 1746     		mov	r7, r2
 315 000a 9846     		mov	r8, r3
 316 000c 0546     		mov	r5, r0
 317              		.loc 1 211 0
 318 000e FFF7FEFF 		bl	chPoolAlloc
 319              	.LVL24:
 320              		.loc 1 212 0
 321 0012 A0B1     		cbz	r0, .L13
 322              	.LVL25:
 323              	.LBB81:
 324              	.LBB82:
 325              	.LBB83:
 326              	.LBB84:
 327              		.loc 2 546 0
 328 0014 2023     		movs	r3, #32
 329              		.syntax unified
 330              	@ 546 "/home/selim/working/ChibiOS/os/ext/CMSIS/include/core_cmFunc.h" 1
 331 0016 83F31188 		MSR basepri, r3
 332              	@ 0 "" 2
 333              	.LVL26:
 334              		.thumb
 335              		.syntax unified
 336              	.LBE84:
 337              	.LBE83:
 338              	.LBE82:
 339              	.LBE81:
 340              		.loc 1 226 0
 341 001a 6968     		ldr	r1, [r5, #4]
 342 001c CDF80080 		str	r8, [sp]
ARM GAS  /tmp/ccjHnIUF.s 			page 7


 343 0020 3B46     		mov	r3, r7
 344 0022 3246     		mov	r2, r6
 345 0024 FFF7FEFF 		bl	chThdCreateI
 346              	.LVL27:
 347              		.loc 1 227 0
 348 0028 0223     		movs	r3, #2
 349 002a 4377     		strb	r3, [r0, #29]
 350              		.loc 1 228 0
 351 002c 0564     		str	r5, [r0, #64]
 352              		.loc 1 229 0
 353 002e 0021     		movs	r1, #0
 354              		.loc 1 226 0
 355 0030 0446     		mov	r4, r0
 356              	.LVL28:
 357              		.loc 1 229 0
 358 0032 FFF7FEFF 		bl	chSchWakeupS
 359              	.LVL29:
 360              	.LBB85:
 361              	.LBB86:
 362              	.LBB87:
 363              	.LBB88:
 364              	.LBB89:
 365              		.loc 2 546 0
 366 0036 0023     		movs	r3, #0
 367              		.syntax unified
 368              	@ 546 "/home/selim/working/ChibiOS/os/ext/CMSIS/include/core_cmFunc.h" 1
 369 0038 83F31188 		MSR basepri, r3
 370              	@ 0 "" 2
 371              	.LVL30:
 372              		.thumb
 373              		.syntax unified
 374              	.LBE89:
 375              	.LBE88:
 376              	.LBE87:
 377              	.LBE86:
 378              	.LBE85:
 379              		.loc 1 232 0
 380 003c 2046     		mov	r0, r4
 381              	.LVL31:
 382              	.L13:
 383              		.loc 1 233 0
 384 003e 02B0     		add	sp, sp, #8
 385              		.cfi_def_cfa_offset 24
 386              		@ sp needed
 387 0040 BDE8F081 		pop	{r4, r5, r6, r7, r8, pc}
 388              		.cfi_endproc
 389              	.LFE230:
 390              		.size	chThdCreateFromMemoryPool, .-chThdCreateFromMemoryPool
 391              		.text
 392              	.Letext0:
 393              		.file 3 "/usr/lib/gcc/arm-none-eabi/5.3.1/include/stddef.h"
 394              		.file 4 "/usr/arm-none-eabi/include/machine/_default_types.h"
 395              		.file 5 "/usr/arm-none-eabi/include/sys/_stdint.h"
 396              		.file 6 "/home/selim/working/ChibiOS/os/rt/ports/ARMCMx/compilers/GCC/chtypes.h"
 397              		.file 7 "/home/selim/working/ChibiOS/os/rt/include/chsystypes.h"
 398              		.file 8 "/home/selim/working/ChibiOS/os/rt/include/chschd.h"
 399              		.file 9 "/home/selim/working/ChibiOS/os/rt/ports/ARMCMx/chcore.h"
ARM GAS  /tmp/ccjHnIUF.s 			page 8


 400              		.file 10 "/home/selim/working/ChibiOS/os/rt/ports/ARMCMx/chcore_v7m.h"
 401              		.file 11 "/home/selim/working/ChibiOS/os/rt/include/chtm.h"
 402              		.file 12 "/home/selim/working/ChibiOS/os/rt/include/chsem.h"
 403              		.file 13 "/home/selim/working/ChibiOS/os/rt/include/chmtx.h"
 404              		.file 14 "/home/selim/working/ChibiOS/os/rt/include/chthreads.h"
 405              		.file 15 "/home/selim/working/ChibiOS/os/rt/include/chmemcore.h"
 406              		.file 16 "/home/selim/working/ChibiOS/os/rt/include/chheap.h"
 407              		.file 17 "/home/selim/working/ChibiOS/os/rt/include/chmempools.h"
 408              		.file 18 "/home/selim/working/ChibiOS/os/rt/include/chsys.h"
 409              		.file 19 "/home/selim/working/ChibiOS/os/ext/CMSIS/include/core_cm4.h"