ARM GAS  /tmp/ccjHnIUF.s 			page 1


   1              		.syntax unified
   2              		.cpu cortex-m4
   3              		.fpu softvfp
   4              		.eabi_attribute 20, 1
   5              		.eabi_attribute 21, 1
   6              		.eabi_attribute 23, 3
   7              		.eabi_attribute 24, 1
   8              		.eabi_attribute 25, 1
   9              		.eabi_attribute 26, 1
  10              		.eabi_attribute 30, 2
  11              		.eabi_attribute 34, 1
  12              		.eabi_attribute 18, 4
  13              		.thumb
  14              		.syntax unified
  15              		.file	"chdynamic.c"
  16              		.text
  17              	.Ltext0:
  18              		.cfi_sections	.debug_frame
  19              		.section	.text.chThdAddRef,"ax",%progbits
  20              		.align	2
  21              		.p2align 4,,15
  22              		.global	chThdAddRef
  23              		.thumb
  24              		.thumb_func
  25              		.type	chThdAddRef, %function
  26              	chThdAddRef:
  27              	.LFB227:
  28              		.file 1 "/home/selim/working/ChibiOS/os/rt/src/chdynamic.c"
  29              		.loc 1 68 0
  30              		.cfi_startproc
  31              		@ args = 0, pretend = 0, frame = 0
  32              		@ frame_needed = 0, uses_anonymous_args = 0
  33              		@ link register save eliminated.
  34              	.LVL0:
  35              	.LBB54:
  36              	.LBB55:
  37              	.LBB56:
  38              	.LBB57:
  39              		.file 2 "/home/selim/working/ChibiOS/os/ext/CMSIS/include/core_cmFunc.h"
  40              		.loc 2 546 0
  41 0000 2023     		movs	r3, #32
  42              		.syntax unified
  43              	@ 546 "/home/selim/working/ChibiOS/os/ext/CMSIS/include/core_cmFunc.h" 1
  44 0002 83F31188 		MSR basepri, r3
  45              	@ 0 "" 2
  46              	.LVL1:
  47              		.thumb
  48              		.syntax unified
  49              	.LBE57:
  50              	.LBE56:
  51              	.LBE55:
  52              	.LBE54:
  53              		.loc 1 72 0
  54 0006 837F     		ldrb	r3, [r0, #30]	@ zero_extendqisi2
  55 0008 0133     		adds	r3, r3, #1
  56 000a 8377     		strb	r3, [r0, #30]
  57              	.LVL2:
ARM GAS  /tmp/ccjHnIUF.s 			page 2


  58              	.LBB58:
  59              	.LBB59:
  60              	.LBB60:
  61              	.LBB61:
  62              	.LBB62:
  63              		.loc 2 546 0
  64 000c 0023     		movs	r3, #0
  65              		.syntax unified
  66              	@ 546 "/home/selim/working/ChibiOS/os/ext/CMSIS/include/core_cmFunc.h" 1
  67 000e 83F31188 		MSR basepri, r3
  68              	@ 0 "" 2
  69              	.LVL3:
  70              		.thumb
  71              		.syntax unified
  72              	.LBE62:
  73              	.LBE61:
  74              	.LBE60:
  75              	.LBE59:
  76              	.LBE58:
  77              		.loc 1 76 0
  78 0012 7047     		bx	lr
  79              		.cfi_endproc
  80              	.LFE227:
  81              		.size	chThdAddRef, .-chThdAddRef
  82              		.section	.text.chThdRelease,"ax",%progbits
  83              		.align	2
  84              		.p2align 4,,15
  85              		.global	chThdRelease
  86              		.thumb
  87              		.thumb_func
  88              		.type	chThdRelease, %function
  89              	chThdRelease:
  90              	.LFB228:
  91              		.loc 1 91 0
  92              		.cfi_startproc
  93              		@ args = 0, pretend = 0, frame = 0
  94              		@ frame_needed = 0, uses_anonymous_args = 0
  95              		@ link register save eliminated.
  96              	.LVL4:
  97              		.loc 1 91 0
  98 0000 0146     		mov	r1, r0
  99              	.LBB63:
 100              	.LBB64:
 101              	.LBB65:
 102              	.LBB66:
 103              		.loc 2 546 0
 104 0002 2023     		movs	r3, #32
 105              		.syntax unified
 106              	@ 546 "/home/selim/working/ChibiOS/os/ext/CMSIS/include/core_cmFunc.h" 1
 107 0004 83F31188 		MSR basepri, r3
 108              	@ 0 "" 2
 109              	.LVL5:
 110              		.thumb
 111              		.syntax unified
 112              	.LBE66:
 113              	.LBE65:
 114              	.LBE64:
ARM GAS  /tmp/ccjHnIUF.s 			page 3


 115              	.LBE63:
 116              		.loc 1 96 0
 117 0008 837F     		ldrb	r3, [r0, #30]	@ zero_extendqisi2
 118 000a 013B     		subs	r3, r3, #1
 119 000c DBB2     		uxtb	r3, r3
 120 000e 8377     		strb	r3, [r0, #30]
 121              	.LVL6:
 122              	.LBB67:
 123              	.LBB68:
 124              	.LBB69:
 125              	.LBB70:
 126              	.LBB71:
 127              		.loc 2 546 0
 128 0010 0022     		movs	r2, #0
 129              		.syntax unified
 130              	@ 546 "/home/selim/working/ChibiOS/os/ext/CMSIS/include/core_cmFunc.h" 1
 131 0012 82F31188 		MSR basepri, r2
 132              	@ 0 "" 2
 133              	.LVL7:
 134              		.thumb
 135              		.syntax unified
 136              	.LBE71:
 137              	.LBE70:
 138              	.LBE69:
 139              	.LBE68:
 140              	.LBE67:
 141              		.loc 1 103 0
 142 0016 13B9     		cbnz	r3, .L2
 143              		.loc 1 103 0 is_stmt 0 discriminator 1
 144 0018 037F     		ldrb	r3, [r0, #28]	@ zero_extendqisi2
 145              	.LVL8:
 146 001a 0F2B     		cmp	r3, #15
 147 001c 00D0     		beq	.L7
 148              	.L2:
 149 001e 7047     		bx	lr
 150              	.L7:
 151              		.loc 1 104 0 is_stmt 1
 152 0020 437F     		ldrb	r3, [r0, #29]	@ zero_extendqisi2
 153 0022 03F00303 		and	r3, r3, #3
 154 0026 012B     		cmp	r3, #1
 155 0028 02D0     		beq	.L4
 156 002a 022B     		cmp	r3, #2
 157 002c 07D0     		beq	.L5
 158 002e 7047     		bx	lr
 159              	.L4:
 160              		.loc 1 108 0
 161 0030 4369     		ldr	r3, [r0, #20]
 162 0032 0269     		ldr	r2, [r0, #16]
 163 0034 1A61     		str	r2, [r3, #16]
 164              	.LVL9:
 165 0036 0269     		ldr	r2, [r0, #16]
 166 0038 5361     		str	r3, [r2, #20]
 167              		.loc 1 110 0
 168 003a FFF7FEBF 		b	chHeapFree
 169              	.LVL10:
 170              	.L5:
 171              		.loc 1 116 0
ARM GAS  /tmp/ccjHnIUF.s 			page 4


 172 003e 4369     		ldr	r3, [r0, #20]
 173 0040 0269     		ldr	r2, [r0, #16]
 174 0042 1A61     		str	r2, [r3, #16]
 175              	.LVL11:
 176 0044 0269     		ldr	r2, [r0, #16]
 177              		.loc 1 118 0
 178 0046 006C     		ldr	r0, [r0, #64]
 179              	.LVL12:
 180              		.loc 1 116 0
 181 0048 5361     		str	r3, [r2, #20]
 182              		.loc 1 118 0
 183 004a FFF7FEBF 		b	chPoolFree
 184              	.LVL13:
 185              		.cfi_endproc
 186              	.LFE228:
 187              		.size	chThdRelease, .-chThdRelease
 188 004e 00BF     		.section	.text.chThdCreateFromHeap,"ax",%progbits
 189              		.align	2
 190              		.p2align 4,,15
 191              		.global	chThdCreateFromHeap
 192              		.thumb
 193              		.thumb_func
 194              		.type	chThdCreateFromHeap, %function
 195              	chThdCreateFromHeap:
 196              	.LFB229:
 197              		.loc 1 153 0
 198              		.cfi_startproc
 199              		@ args = 4, pretend = 0, frame = 0
 200              		@ frame_needed = 0, uses_anonymous_args = 0
 201              	.LVL14:
 202 0000 F0B5     		push	{r4, r5, r6, r7, lr}
 203              		.cfi_def_cfa_offset 20
 204              		.cfi_offset 4, -20
 205              		.cfi_offset 5, -16
 206              		.cfi_offset 6, -12
 207              		.cfi_offset 7, -8
 208              		.cfi_offset 14, -4
 209 0002 83B0     		sub	sp, sp, #12
 210              		.cfi_def_cfa_offset 32
 211              		.loc 1 153 0
 212 0004 1646     		mov	r6, r2
 213 0006 1F46     		mov	r7, r3
 214 0008 0D46     		mov	r5, r1
 215              		.loc 1 157 0
 216 000a FFF7FEFF 		bl	chHeapAlloc
 217              	.LVL15:
 218              		.loc 1 158 0
 219 000e 98B1     		cbz	r0, .L9
 220              	.LVL16:
 221              	.LBB72:
 222              	.LBB73:
 223              	.LBB74:
 224              	.LBB75:
 225              		.loc 2 546 0
 226 0010 2023     		movs	r3, #32
 227              		.syntax unified
 228              	@ 546 "/home/selim/working/ChibiOS/os/ext/CMSIS/include/core_cmFunc.h" 1
ARM GAS  /tmp/ccjHnIUF.s 			page 5


 229 0012 83F31188 		MSR basepri, r3
 230              	@ 0 "" 2
 231              	.LVL17:
 232              		.thumb
 233              		.syntax unified
 234              	.LBE75:
 235              	.LBE74:
 236              	.LBE73:
 237              	.LBE72:
 238              		.loc 1 172 0
 239 0016 089B     		ldr	r3, [sp, #32]
 240 0018 0093     		str	r3, [sp]
 241 001a 3246     		mov	r2, r6
 242 001c 3B46     		mov	r3, r7
 243 001e 2946     		mov	r1, r5
 244 0020 FFF7FEFF 		bl	chThdCreateI
 245              	.LVL18:
 246              		.loc 1 173 0
 247 0024 0123     		movs	r3, #1
 248 0026 4377     		strb	r3, [r0, #29]
 249              		.loc 1 174 0
 250 0028 0021     		movs	r1, #0
 251              		.loc 1 172 0
 252 002a 0446     		mov	r4, r0
 253              	.LVL19:
 254              		.loc 1 174 0
 255 002c FFF7FEFF 		bl	chSchWakeupS
 256              	.LVL20:
 257              	.LBB76:
 258              	.LBB77:
 259              	.LBB78:
 260              	.LBB79:
 261              	.LBB80:
 262              		.loc 2 546 0
 263 0030 0023     		movs	r3, #0
 264              		.syntax unified
 265              	@ 546 "/home/selim/working/ChibiOS/os/ext/CMSIS/include/core_cmFunc.h" 1
 266 0032 83F31188 		MSR basepri, r3
 267              	@ 0 "" 2
 268              	.LVL21:
 269              		.thumb
 270              		.syntax unified
 271              	.LBE80:
 272              	.LBE79:
 273              	.LBE78:
 274              	.LBE77:
 275              	.LBE76:
 276              		.loc 1 177 0
 277 0036 2046     		mov	r0, r4
 278              	.LVL22:
 279              	.L9:
 280              		.loc 1 178 0
 281 0038 03B0     		add	sp, sp, #12
 282              		.cfi_def_cfa_offset 20
 283              		@ sp needed
 284 003a F0BD     		pop	{r4, r5, r6, r7, pc}
 285              		.cfi_endproc
ARM GAS  /tmp/ccjHnIUF.s 			page 6


 286              	.LFE229:
 287              		.size	chThdCreateFromHeap, .-chThdCreateFromHeap
 288              		.section	.text.chThdCreateFromMemoryPool,"ax",%progbits
 289              		.align	2
 290              		.p2align 4,,15
 291              		.global	chThdCreateFromMemoryPool
 292              		.thumb
 293              		.thumb_func
 294              		.type	chThdCreateFromMemoryPool, %function
 295              	chThdCreateFromMemoryPool:
 296              	.LFB230:
 297              		.loc 1 205 0
 298              		.cfi_startproc
 299              		@ args = 0, pretend = 0, frame = 0
 300              		@ frame_needed = 0, uses_anonymous_args = 0
 301              	.LVL23:
 302 0000 2DE9F041 		push	{r4, r5, r6, r7, r8, lr}
 303              		.cfi_def_cfa_offset 24
 304              		.cfi_offset 4, -24
 305              		.cfi_offset 5, -20
 306              		.cfi_offset 6, -16
 307              		.cfi_offset 7, -12
 308              		.cfi_offset 8, -8
 309              		.cfi_offset 14, -4
 310 0004 82B0     		sub	sp, sp, #8
 311              		.cfi_def_cfa_offset 32
 312              		.loc 1 205 0
 313 0006 0E46     		mov	r6, r1
 314 0008 1746     		mov	r7, r2
 315 000a 9846     		mov	r8, r3
 316 000c 0546     		mov	r5, r0
 317              		.loc 1 211 0
 318 000e FFF7FEFF 		bl	chPoolAlloc
 319              	.LVL24:
 320              		.loc 1 212 0
 321 0012 A0B1     		cbz	r0, .L13
 322              	.LVL25:
 323              	.LBB81:
 324              	.LBB82:
 325              	.LBB83:
 326              	.LBB84:
 327              		.loc 2 546 0
 328 0014 2023     		movs	r3, #32
 329              		.syntax unified
 330              	@ 546 "/home/selim/working/ChibiOS/os/ext/CMSIS/include/core_cmFunc.h" 1
 331 0016 83F31188 		MSR basepri, r3
 332              	@ 0 "" 2
 333              	.LVL26:
 334              		.thumb
 335              		.syntax unified
 336              	.LBE84:
 337              	.LBE83:
 338              	.LBE82:
 339              	.LBE81:
 340              		.loc 1 226 0
 341 001a 6968     		ldr	r1, [r5, #4]
 342 001c CDF80080 		str	r8, [sp]
ARM GAS  /tmp/ccjHnIUF.s 			page 7


 343 0020 3B46     		mov	r3, r7
 344 0022 3246     		mov	r2, r6
 345 0024 FFF7FEFF 		bl	chThdCreateI
 346              	.LVL27:
 347              		.loc 1 227 0
 348 0028 0223     		movs	r3, #2
 349 002a 4377     		strb	r3, [r0, #29]
 350              		.loc 1 228 0
 351 002c 0564     		str	r5, [r0, #64]
 352              		.loc 1 229 0
 353 002e 0021     		movs	r1, #0
 354              		.loc 1 226 0
 355 0030 0446     		mov	r4, r0
 356              	.LVL28:
 357              		.loc 1 229 0
 358 0032 FFF7FEFF 		bl	chSchWakeupS
 359              	.LVL29:
 360              	.LBB85:
 361              	.LBB86:
 362              	.LBB87:
 363              	.LBB88:
 364              	.LBB89:
 365              		.loc 2 546 0
 366 0036 0023     		movs	r3, #0
 367              		.syntax unified
 368              	@ 546 "/home/selim/working/ChibiOS/os/ext/CMSIS/include/core_cmFunc.h" 1
 369 0038 83F31188 		MSR basepri, r3
 370              	@ 0 "" 2
 371              	.LVL30:
 372              		.thumb
 373              		.syntax unified
 374              	.LBE89:
 375              	.LBE88:
 376              	.LBE87:
 377              	.LBE86:
 378              	.LBE85:
 379              		.loc 1 232 0
 380 003c 2046     		mov	r0, r4
 381              	.LVL31:
 382              	.L13:
 383              		.loc 1 233 0
 384 003e 02B0     		add	sp, sp, #8
 385              		.cfi_def_cfa_offset 24
 386              		@ sp needed
 387 0040 BDE8F081 		pop	{r4, r5, r6, r7, r8, pc}
 388              		.cfi_endproc
 389              	.LFE230:
 390              		.size	chThdCreateFromMemoryPool, .-chThdCreateFromMemoryPool
 391              		.text
 392              	.Letext0:
 393              		.file 3 "/usr/lib/gcc/arm-none-eabi/5.3.1/include/stddef.h"
 394              		.file 4 "/usr/arm-none-eabi/include/machine/_default_types.h"
 395              		.file 5 "/usr/arm-none-eabi/include/sys/_stdint.h"
 396              		.file 6 "/home/selim/working/ChibiOS/os/rt/ports/ARMCMx/compilers/GCC/chtypes.h"
 397              		.file 7 "/home/selim/working/ChibiOS/os/rt/include/chsystypes.h"
 398              		.file 8 "/home/selim/working/ChibiOS/os/rt/include/chschd.h"
 399              		.file 9 "/home/selim/working/ChibiOS/os/rt/ports/ARMCMx/chcore.h"
ARM GAS  /tmp/ccjHnIUF.s 			page 8


 400              		.file 10 "/home/selim/working/ChibiOS/os/rt/ports/ARMCMx/chcore_v7m.h"
 401              		.file 11 "/home/selim/working/ChibiOS/os/rt/include/chtm.h"
 402              		.file 12 "/home/selim/working/ChibiOS/os/rt/include/chsem.h"
 403              		.file 13 "/home/selim/working/ChibiOS/os/rt/include/chmtx.h"
 404              		.file 14 "/home/selim/working/ChibiOS/os/rt/include/chthreads.h"
 405              		.file 15 "/home/selim/working/ChibiOS/os/rt/include/chmemcore.h"
 406              		.file 16 "/home/selim/working/ChibiOS/os/rt/include/chheap.h"
 407              		.file 17 "/home/selim/working/ChibiOS/os/rt/include/chmempools.h"
 408              		.file 18 "/home/selim/working/ChibiOS/os/rt/include/chsys.h"
 409              		.file 19 "/home/selim/working/ChibiOS/os/ext/CMSIS/include/core_cm4.h"
 410              		.section	.debug_info,"",%progbits
 411              	.Ldebug_info0:
 412 0000 980C0000 		.4byte	0xc98
 413 0004 0400     		.2byte	0x4
 414 0006 00000000 		.4byte	.Ldebug_abbrev0
 415 000a 04       		.byte	0x4
 416 000b 01       		.uleb128 0x1
 417 000c 62010000 		.4byte	.LASF139
 418 0010 0C       		.byte	0xc
 419 0011 BD000000 		.4byte	.LASF140
 420 0015 00000000 		.4byte	.Ldebug_ranges0+0
 421 0019 00000000 		.4byte	0
 422 001d 00000000 		.4byte	.Ldebug_line0
 423 0021 02       		.uleb128 0x2
 424 0022 04       		.byte	0x4
 425 0023 05       		.byte	0x5
 426 0024 696E7400 		.ascii	"int\000"
 427 0028 03       		.uleb128 0x3
 428 0029 15000000 		.4byte	.LASF4
 429 002d 03       		.byte	0x3
 430 002e D8       		.byte	0xd8
 431 002f 33000000 		.4byte	0x33
 432 0033 04       		.uleb128 0x4
 433 0034 04       		.byte	0x4
 434 0035 07       		.byte	0x7
 435 0036 00030000 		.4byte	.LASF0
 436 003a 04       		.uleb128 0x4
 437 003b 08       		.byte	0x8
 438 003c 05       		.byte	0x5
 439 003d 07010000 		.4byte	.LASF1
 440 0041 04       		.uleb128 0x4
 441 0042 08       		.byte	0x8
 442 0043 04       		.byte	0x4
 443 0044 02040000 		.4byte	.LASF2
 444 0048 04       		.uleb128 0x4
 445 0049 01       		.byte	0x1
 446 004a 06       		.byte	0x6
 447 004b 15010000 		.4byte	.LASF3
 448 004f 03       		.uleb128 0x3
 449 0050 31000000 		.4byte	.LASF5
 450 0054 04       		.byte	0x4
 451 0055 1D       		.byte	0x1d
 452 0056 5A000000 		.4byte	0x5a
 453 005a 04       		.uleb128 0x4
 454 005b 01       		.byte	0x1
 455 005c 08       		.byte	0x8
 456 005d AC040000 		.4byte	.LASF6
ARM GAS  /tmp/ccjHnIUF.s 			page 9


 457 0061 04       		.uleb128 0x4
 458 0062 02       		.byte	0x2
 459 0063 05       		.byte	0x5
 460 0064 D0040000 		.4byte	.LASF7
 461 0068 04       		.uleb128 0x4
 462 0069 02       		.byte	0x2
 463 006a 07       		.byte	0x7
 464 006b 3B030000 		.4byte	.LASF8
 465 006f 03       		.uleb128 0x3
 466 0070 A4030000 		.4byte	.LASF9
 467 0074 04       		.byte	0x4
 468 0075 3F       		.byte	0x3f
 469 0076 7A000000 		.4byte	0x7a
 470 007a 04       		.uleb128 0x4
 471 007b 04       		.byte	0x4
 472 007c 05       		.byte	0x5
 473 007d 4C020000 		.4byte	.LASF10
 474 0081 03       		.uleb128 0x3
 475 0082 C8050000 		.4byte	.LASF11
 476 0086 04       		.byte	0x4
 477 0087 41       		.byte	0x41
 478 0088 8C000000 		.4byte	0x8c
 479 008c 04       		.uleb128 0x4
 480 008d 04       		.byte	0x4
 481 008e 07       		.byte	0x7
 482 008f 79050000 		.4byte	.LASF12
 483 0093 03       		.uleb128 0x3
 484 0094 55040000 		.4byte	.LASF13
 485 0098 04       		.byte	0x4
 486 0099 5B       		.byte	0x5b
 487 009a 9E000000 		.4byte	0x9e
 488 009e 04       		.uleb128 0x4
 489 009f 08       		.byte	0x8
 490 00a0 07       		.byte	0x7
 491 00a1 6D000000 		.4byte	.LASF14
 492 00a5 03       		.uleb128 0x3
 493 00a6 4C060000 		.4byte	.LASF15
 494 00aa 05       		.byte	0x5
 495 00ab 14       		.byte	0x14
 496 00ac 4F000000 		.4byte	0x4f
 497 00b0 03       		.uleb128 0x3
 498 00b1 A4040000 		.4byte	.LASF16
 499 00b5 05       		.byte	0x5
 500 00b6 1F       		.byte	0x1f
 501 00b7 6F000000 		.4byte	0x6f
 502 00bb 03       		.uleb128 0x3
 503 00bc 43050000 		.4byte	.LASF17
 504 00c0 05       		.byte	0x5
 505 00c1 20       		.byte	0x20
 506 00c2 81000000 		.4byte	0x81
 507 00c6 03       		.uleb128 0x3
 508 00c7 28000000 		.4byte	.LASF18
 509 00cb 05       		.byte	0x5
 510 00cc 26       		.byte	0x26
 511 00cd 93000000 		.4byte	0x93
 512 00d1 05       		.uleb128 0x5
 513 00d2 B0000000 		.4byte	0xb0
ARM GAS  /tmp/ccjHnIUF.s 			page 10


 514 00d6 03       		.uleb128 0x3
 515 00d7 14060000 		.4byte	.LASF19
 516 00db 06       		.byte	0x6
 517 00dc 46       		.byte	0x46
 518 00dd BB000000 		.4byte	0xbb
 519 00e1 03       		.uleb128 0x3
 520 00e2 82030000 		.4byte	.LASF20
 521 00e6 06       		.byte	0x6
 522 00e7 49       		.byte	0x49
 523 00e8 A5000000 		.4byte	0xa5
 524 00ec 03       		.uleb128 0x3
 525 00ed 69020000 		.4byte	.LASF21
 526 00f1 06       		.byte	0x6
 527 00f2 4A       		.byte	0x4a
 528 00f3 A5000000 		.4byte	0xa5
 529 00f7 03       		.uleb128 0x3
 530 00f8 68040000 		.4byte	.LASF22
 531 00fc 06       		.byte	0x6
 532 00fd 4B       		.byte	0x4b
 533 00fe A5000000 		.4byte	0xa5
 534 0102 03       		.uleb128 0x3
 535 0103 8C040000 		.4byte	.LASF23
 536 0107 06       		.byte	0x6
 537 0108 4D       		.byte	0x4d
 538 0109 BB000000 		.4byte	0xbb
 539 010d 03       		.uleb128 0x3
 540 010e 70030000 		.4byte	.LASF24
 541 0112 06       		.byte	0x6
 542 0113 4E       		.byte	0x4e
 543 0114 B0000000 		.4byte	0xb0
 544 0118 03       		.uleb128 0x3
 545 0119 98030000 		.4byte	.LASF25
 546 011d 06       		.byte	0x6
 547 011e 50       		.byte	0x50
 548 011f BB000000 		.4byte	0xbb
 549 0123 03       		.uleb128 0x3
 550 0124 FA020000 		.4byte	.LASF26
 551 0128 06       		.byte	0x6
 552 0129 52       		.byte	0x52
 553 012a B0000000 		.4byte	0xb0
 554 012e 03       		.uleb128 0x3
 555 012f AA050000 		.4byte	.LASF27
 556 0133 07       		.byte	0x7
 557 0134 33       		.byte	0x33
 558 0135 BB000000 		.4byte	0xbb
 559 0139 03       		.uleb128 0x3
 560 013a 9A050000 		.4byte	.LASF28
 561 013e 07       		.byte	0x7
 562 013f 3F       		.byte	0x3f
 563 0140 44010000 		.4byte	0x144
 564 0144 06       		.uleb128 0x6
 565 0145 4E030000 		.4byte	.LASF48
 566 0149 44       		.byte	0x44
 567 014a 08       		.byte	0x8
 568 014b C2       		.byte	0xc2
 569 014c 31020000 		.4byte	0x231
 570 0150 07       		.uleb128 0x7
ARM GAS  /tmp/ccjHnIUF.s 			page 11


 571 0151 F0040000 		.4byte	.LASF29
 572 0155 08       		.byte	0x8
 573 0156 C3       		.byte	0xc3
 574 0157 3C020000 		.4byte	0x23c
 575 015b 00       		.byte	0
 576 015c 07       		.uleb128 0x7
 577 015d 85040000 		.4byte	.LASF30
 578 0161 08       		.byte	0x8
 579 0162 C5       		.byte	0xc5
 580 0163 3C020000 		.4byte	0x23c
 581 0167 04       		.byte	0x4
 582 0168 07       		.uleb128 0x7
 583 0169 00010000 		.4byte	.LASF31
 584 016d 08       		.byte	0x8
 585 016e C7       		.byte	0xc7
 586 016f 02010000 		.4byte	0x102
 587 0173 08       		.byte	0x8
 588 0174 07       		.uleb128 0x7
 589 0175 B2060000 		.4byte	.LASF32
 590 0179 08       		.byte	0x8
 591 017a C8       		.byte	0xc8
 592 017b 6C040000 		.4byte	0x46c
 593 017f 0C       		.byte	0xc
 594 0180 07       		.uleb128 0x7
 595 0181 88020000 		.4byte	.LASF33
 596 0185 08       		.byte	0x8
 597 0186 CA       		.byte	0xca
 598 0187 3C020000 		.4byte	0x23c
 599 018b 10       		.byte	0x10
 600 018c 07       		.uleb128 0x7
 601 018d 1A040000 		.4byte	.LASF34
 602 0191 08       		.byte	0x8
 603 0192 CB       		.byte	0xcb
 604 0193 3C020000 		.4byte	0x23c
 605 0197 14       		.byte	0x14
 606 0198 07       		.uleb128 0x7
 607 0199 7D060000 		.4byte	.LASF35
 608 019d 08       		.byte	0x8
 609 019e D2       		.byte	0xd2
 610 019f EB050000 		.4byte	0x5eb
 611 01a3 18       		.byte	0x18
 612 01a4 07       		.uleb128 0x7
 613 01a5 DA040000 		.4byte	.LASF36
 614 01a9 08       		.byte	0x8
 615 01aa DD       		.byte	0xdd
 616 01ab EC000000 		.4byte	0xec
 617 01af 1C       		.byte	0x1c
 618 01b0 07       		.uleb128 0x7
 619 01b1 F7040000 		.4byte	.LASF37
 620 01b5 08       		.byte	0x8
 621 01b6 E1       		.byte	0xe1
 622 01b7 E1000000 		.4byte	0xe1
 623 01bb 1D       		.byte	0x1d
 624 01bc 07       		.uleb128 0x7
 625 01bd 3F060000 		.4byte	.LASF38
 626 01c1 08       		.byte	0x8
 627 01c2 E6       		.byte	0xe6
ARM GAS  /tmp/ccjHnIUF.s 			page 12


 628 01c3 F7000000 		.4byte	0xf7
 629 01c7 1E       		.byte	0x1e
 630 01c8 08       		.uleb128 0x8
 631 01c9 705F7500 		.ascii	"p_u\000"
 632 01cd 08       		.byte	0x8
 633 01ce 3101     		.2byte	0x131
 634 01d0 26050000 		.4byte	0x526
 635 01d4 20       		.byte	0x20
 636 01d5 09       		.uleb128 0x9
 637 01d6 C5030000 		.4byte	.LASF39
 638 01da 08       		.byte	0x8
 639 01db 3601     		.2byte	0x136
 640 01dd 42020000 		.4byte	0x242
 641 01e1 24       		.byte	0x24
 642 01e2 09       		.uleb128 0x9
 643 01e3 1C030000 		.4byte	.LASF40
 644 01e7 08       		.byte	0x8
 645 01e8 3C01     		.2byte	0x13c
 646 01ea 66020000 		.4byte	0x266
 647 01ee 28       		.byte	0x28
 648 01ef 09       		.uleb128 0x9
 649 01f0 A4060000 		.4byte	.LASF41
 650 01f4 08       		.byte	0x8
 651 01f5 4001     		.2byte	0x140
 652 01f7 0D010000 		.4byte	0x10d
 653 01fb 30       		.byte	0x30
 654 01fc 09       		.uleb128 0x9
 655 01fd 38050000 		.4byte	.LASF42
 656 0201 08       		.byte	0x8
 657 0202 4601     		.2byte	0x146
 658 0204 18010000 		.4byte	0x118
 659 0208 34       		.byte	0x34
 660 0209 09       		.uleb128 0x9
 661 020a C6040000 		.4byte	.LASF43
 662 020e 08       		.byte	0x8
 663 020f 4D01     		.2byte	0x14d
 664 0211 E5050000 		.4byte	0x5e5
 665 0215 38       		.byte	0x38
 666 0216 09       		.uleb128 0x9
 667 0217 B4050000 		.4byte	.LASF44
 668 021b 08       		.byte	0x8
 669 021c 5101     		.2byte	0x151
 670 021e 02010000 		.4byte	0x102
 671 0222 3C       		.byte	0x3c
 672 0223 09       		.uleb128 0x9
 673 0224 27010000 		.4byte	.LASF45
 674 0228 08       		.byte	0x8
 675 0229 5801     		.2byte	0x158
 676 022b 19030000 		.4byte	0x319
 677 022f 40       		.byte	0x40
 678 0230 00       		.byte	0
 679 0231 03       		.uleb128 0x3
 680 0232 D8030000 		.4byte	.LASF46
 681 0236 07       		.byte	0x7
 682 0237 44       		.byte	0x44
 683 0238 3C020000 		.4byte	0x23c
 684 023c 0A       		.uleb128 0xa
ARM GAS  /tmp/ccjHnIUF.s 			page 13


 685 023d 04       		.byte	0x4
 686 023e 39010000 		.4byte	0x139
 687 0242 03       		.uleb128 0x3
 688 0243 89060000 		.4byte	.LASF47
 689 0247 07       		.byte	0x7
 690 0248 49       		.byte	0x49
 691 0249 4D020000 		.4byte	0x24d
 692 024d 06       		.uleb128 0x6
 693 024e 64050000 		.4byte	.LASF49
 694 0252 04       		.byte	0x4
 695 0253 08       		.byte	0x8
 696 0254 B0       		.byte	0xb0
 697 0255 66020000 		.4byte	0x266
 698 0259 07       		.uleb128 0x7
 699 025a F0040000 		.4byte	.LASF29
 700 025e 08       		.byte	0x8
 701 025f B1       		.byte	0xb1
 702 0260 3C020000 		.4byte	0x23c
 703 0264 00       		.byte	0
 704 0265 00       		.byte	0
 705 0266 03       		.uleb128 0x3
 706 0267 23060000 		.4byte	.LASF50
 707 026b 07       		.byte	0x7
 708 026c 50       		.byte	0x50
 709 026d 71020000 		.4byte	0x271
 710 0271 06       		.uleb128 0x6
 711 0272 EF000000 		.4byte	.LASF51
 712 0276 08       		.byte	0x8
 713 0277 08       		.byte	0x8
 714 0278 B7       		.byte	0xb7
 715 0279 96020000 		.4byte	0x296
 716 027d 07       		.uleb128 0x7
 717 027e F0040000 		.4byte	.LASF29
 718 0282 08       		.byte	0x8
 719 0283 B8       		.byte	0xb8
 720 0284 3C020000 		.4byte	0x23c
 721 0288 00       		.byte	0
 722 0289 07       		.uleb128 0x7
 723 028a 85040000 		.4byte	.LASF30
 724 028e 08       		.byte	0x8
 725 028f B9       		.byte	0xb9
 726 0290 3C020000 		.4byte	0x23c
 727 0294 04       		.byte	0x4
 728 0295 00       		.byte	0
 729 0296 03       		.uleb128 0x3
 730 0297 08000000 		.4byte	.LASF52
 731 029b 07       		.byte	0x7
 732 029c 57       		.byte	0x57
 733 029d A1020000 		.4byte	0x2a1
 734 02a1 0B       		.uleb128 0xb
 735 02a2 8A030000 		.4byte	.LASF53
 736 02a6 1C       		.byte	0x1c
 737 02a7 08       		.byte	0x8
 738 02a8 9001     		.2byte	0x190
 739 02aa FD020000 		.4byte	0x2fd
 740 02ae 09       		.uleb128 0x9
 741 02af 53050000 		.4byte	.LASF54
ARM GAS  /tmp/ccjHnIUF.s 			page 14


 742 02b3 08       		.byte	0x8
 743 02b4 9101     		.2byte	0x191
 744 02b6 66020000 		.4byte	0x266
 745 02ba 00       		.byte	0
 746 02bb 09       		.uleb128 0x9
 747 02bc E2040000 		.4byte	.LASF55
 748 02c0 08       		.byte	0x8
 749 02c1 9201     		.2byte	0x192
 750 02c3 02010000 		.4byte	0x102
 751 02c7 08       		.byte	0x8
 752 02c8 09       		.uleb128 0x9
 753 02c9 22040000 		.4byte	.LASF56
 754 02cd 08       		.byte	0x8
 755 02ce 9401     		.2byte	0x194
 756 02d0 6C040000 		.4byte	0x46c
 757 02d4 0C       		.byte	0xc
 758 02d5 09       		.uleb128 0x9
 759 02d6 B2020000 		.4byte	.LASF57
 760 02da 08       		.byte	0x8
 761 02db 9701     		.2byte	0x197
 762 02dd 3C020000 		.4byte	0x23c
 763 02e1 10       		.byte	0x10
 764 02e2 09       		.uleb128 0x9
 765 02e3 4D040000 		.4byte	.LASF58
 766 02e7 08       		.byte	0x8
 767 02e8 9801     		.2byte	0x198
 768 02ea 3C020000 		.4byte	0x23c
 769 02ee 14       		.byte	0x14
 770 02ef 09       		.uleb128 0x9
 771 02f0 8B050000 		.4byte	.LASF59
 772 02f4 08       		.byte	0x8
 773 02f5 9B01     		.2byte	0x19b
 774 02f7 3C020000 		.4byte	0x23c
 775 02fb 18       		.byte	0x18
 776 02fc 00       		.byte	0
 777 02fd 03       		.uleb128 0x3
 778 02fe BF050000 		.4byte	.LASF60
 779 0302 07       		.byte	0x7
 780 0303 5C       		.byte	0x5c
 781 0304 08030000 		.4byte	0x308
 782 0308 0A       		.uleb128 0xa
 783 0309 04       		.byte	0x4
 784 030a 0E030000 		.4byte	0x30e
 785 030e 0C       		.uleb128 0xc
 786 030f 19030000 		.4byte	0x319
 787 0313 0D       		.uleb128 0xd
 788 0314 19030000 		.4byte	0x319
 789 0318 00       		.byte	0
 790 0319 0E       		.uleb128 0xe
 791 031a 04       		.byte	0x4
 792 031b 03       		.uleb128 0x3
 793 031c 75040000 		.4byte	.LASF61
 794 0320 07       		.byte	0x7
 795 0321 61       		.byte	0x61
 796 0322 26030000 		.4byte	0x326
 797 0326 0B       		.uleb128 0xb
 798 0327 03060000 		.4byte	.LASF62
ARM GAS  /tmp/ccjHnIUF.s 			page 15


 799 032b 14       		.byte	0x14
 800 032c 08       		.byte	0x8
 801 032d 6B01     		.2byte	0x16b
 802 032f 75030000 		.4byte	0x375
 803 0333 09       		.uleb128 0x9
 804 0334 0D030000 		.4byte	.LASF63
 805 0338 08       		.byte	0x8
 806 0339 6C01     		.2byte	0x16c
 807 033b FD050000 		.4byte	0x5fd
 808 033f 00       		.byte	0
 809 0340 09       		.uleb128 0x9
 810 0341 CF020000 		.4byte	.LASF64
 811 0345 08       		.byte	0x8
 812 0346 6D01     		.2byte	0x16d
 813 0348 FD050000 		.4byte	0x5fd
 814 034c 04       		.byte	0x4
 815 034d 09       		.uleb128 0x9
 816 034e 5B050000 		.4byte	.LASF65
 817 0352 08       		.byte	0x8
 818 0353 6E01     		.2byte	0x16e
 819 0355 2E010000 		.4byte	0x12e
 820 0359 08       		.byte	0x8
 821 035a 09       		.uleb128 0x9
 822 035b B8060000 		.4byte	.LASF66
 823 035f 08       		.byte	0x8
 824 0360 6F01     		.2byte	0x16f
 825 0362 FD020000 		.4byte	0x2fd
 826 0366 0C       		.byte	0xc
 827 0367 09       		.uleb128 0x9
 828 0368 1C060000 		.4byte	.LASF67
 829 036c 08       		.byte	0x8
 830 036d 7101     		.2byte	0x171
 831 036f 19030000 		.4byte	0x319
 832 0373 10       		.byte	0x10
 833 0374 00       		.byte	0
 834 0375 03       		.uleb128 0x3
 835 0376 94000000 		.4byte	.LASF68
 836 037a 07       		.byte	0x7
 837 037b 66       		.byte	0x66
 838 037c 80030000 		.4byte	0x380
 839 0380 0B       		.uleb128 0xb
 840 0381 EB030000 		.4byte	.LASF69
 841 0385 10       		.byte	0x10
 842 0386 08       		.byte	0x8
 843 0387 7B01     		.2byte	0x17b
 844 0389 C2030000 		.4byte	0x3c2
 845 038d 09       		.uleb128 0x9
 846 038e 0D030000 		.4byte	.LASF63
 847 0392 08       		.byte	0x8
 848 0393 7C01     		.2byte	0x17c
 849 0395 FD050000 		.4byte	0x5fd
 850 0399 00       		.byte	0
 851 039a 09       		.uleb128 0x9
 852 039b CF020000 		.4byte	.LASF64
 853 039f 08       		.byte	0x8
 854 03a0 7E01     		.2byte	0x17e
 855 03a2 FD050000 		.4byte	0x5fd
ARM GAS  /tmp/ccjHnIUF.s 			page 16


 856 03a6 04       		.byte	0x4
 857 03a7 09       		.uleb128 0x9
 858 03a8 5B050000 		.4byte	.LASF65
 859 03ac 08       		.byte	0x8
 860 03ad 8001     		.2byte	0x180
 861 03af 2E010000 		.4byte	0x12e
 862 03b3 08       		.byte	0x8
 863 03b4 09       		.uleb128 0x9
 864 03b5 0E040000 		.4byte	.LASF70
 865 03b9 08       		.byte	0x8
 866 03ba 8801     		.2byte	0x188
 867 03bc 2E010000 		.4byte	0x12e
 868 03c0 0C       		.byte	0xc
 869 03c1 00       		.byte	0
 870 03c2 03       		.uleb128 0x3
 871 03c3 47000000 		.4byte	.LASF71
 872 03c7 07       		.byte	0x7
 873 03c8 6B       		.byte	0x6b
 874 03c9 CD030000 		.4byte	0x3cd
 875 03cd 0B       		.uleb128 0xb
 876 03ce 94040000 		.4byte	.LASF72
 877 03d2 04       		.byte	0x4
 878 03d3 08       		.byte	0x8
 879 03d4 A201     		.2byte	0x1a2
 880 03d6 E8030000 		.4byte	0x3e8
 881 03da 09       		.uleb128 0x9
 882 03db E1050000 		.4byte	.LASF73
 883 03df 08       		.byte	0x8
 884 03e0 AA01     		.2byte	0x1aa
 885 03e2 03060000 		.4byte	0x603
 886 03e6 00       		.byte	0
 887 03e7 00       		.byte	0
 888 03e8 03       		.uleb128 0x3
 889 03e9 76030000 		.4byte	.LASF74
 890 03ed 07       		.byte	0x7
 891 03ee 70       		.byte	0x70
 892 03ef F3030000 		.4byte	0x3f3
 893 03f3 0F       		.uleb128 0xf
 894 03f4 42020000 		.4byte	.LASF75
 895 03f8 5001     		.2byte	0x150
 896 03fa 08       		.byte	0x8
 897 03fb C201     		.2byte	0x1c2
 898 03fd 4F040000 		.4byte	0x44f
 899 0401 09       		.uleb128 0x9
 900 0402 46060000 		.4byte	.LASF76
 901 0406 08       		.byte	0x8
 902 0407 C601     		.2byte	0x1c6
 903 0409 96020000 		.4byte	0x296
 904 040d 00       		.byte	0
 905 040e 09       		.uleb128 0x9
 906 040f 42010000 		.4byte	.LASF77
 907 0413 08       		.byte	0x8
 908 0414 CA01     		.2byte	0x1ca
 909 0416 75030000 		.4byte	0x375
 910 041a 1C       		.byte	0x1c
 911 041b 08       		.uleb128 0x8
 912 041c 64626700 		.ascii	"dbg\000"
ARM GAS  /tmp/ccjHnIUF.s 			page 17


 913 0420 08       		.byte	0x8
 914 0421 CE01     		.2byte	0x1ce
 915 0423 C2030000 		.4byte	0x3c2
 916 0427 2C       		.byte	0x2c
 917 0428 09       		.uleb128 0x9
 918 0429 65030000 		.4byte	.LASF78
 919 042d 08       		.byte	0x8
 920 042e D201     		.2byte	0x1d2
 921 0430 39010000 		.4byte	0x139
 922 0434 30       		.byte	0x30
 923 0435 08       		.uleb128 0x8
 924 0436 746D00   		.ascii	"tm\000"
 925 0439 08       		.byte	0x8
 926 043a D701     		.2byte	0x1d7
 927 043c 1B050000 		.4byte	0x51b
 928 0440 74       		.byte	0x74
 929 0441 09       		.uleb128 0x9
 930 0442 EB020000 		.4byte	.LASF79
 931 0446 08       		.byte	0x8
 932 0447 E301     		.2byte	0x1e3
 933 0449 08060000 		.4byte	0x608
 934 044d 78       		.byte	0x78
 935 044e 00       		.byte	0
 936 044f 04       		.uleb128 0x4
 937 0450 04       		.byte	0x4
 938 0451 07       		.byte	0x7
 939 0452 CF030000 		.4byte	.LASF80
 940 0456 03       		.uleb128 0x3
 941 0457 C6020000 		.4byte	.LASF81
 942 045b 09       		.byte	0x9
 943 045c 65       		.byte	0x65
 944 045d 19030000 		.4byte	0x319
 945 0461 03       		.uleb128 0x3
 946 0462 BA030000 		.4byte	.LASF82
 947 0466 09       		.byte	0x9
 948 0467 6D       		.byte	0x6d
 949 0468 C6000000 		.4byte	0xc6
 950 046c 06       		.uleb128 0x6
 951 046d FB050000 		.4byte	.LASF83
 952 0471 04       		.byte	0x4
 953 0472 09       		.byte	0x9
 954 0473 89       		.byte	0x89
 955 0474 85040000 		.4byte	0x485
 956 0478 10       		.uleb128 0x10
 957 0479 72313300 		.ascii	"r13\000"
 958 047d 09       		.byte	0x9
 959 047e 8A       		.byte	0x8a
 960 047f 00050000 		.4byte	0x500
 961 0483 00       		.byte	0
 962 0484 00       		.byte	0
 963 0485 06       		.uleb128 0x6
 964 0486 3B000000 		.4byte	.LASF84
 965 048a 24       		.byte	0x24
 966 048b 0A       		.byte	0xa
 967 048c F4       		.byte	0xf4
 968 048d 00050000 		.4byte	0x500
 969 0491 08       		.uleb128 0x8
ARM GAS  /tmp/ccjHnIUF.s 			page 18


 970 0492 723400   		.ascii	"r4\000"
 971 0495 0A       		.byte	0xa
 972 0496 0701     		.2byte	0x107
 973 0498 56040000 		.4byte	0x456
 974 049c 00       		.byte	0
 975 049d 08       		.uleb128 0x8
 976 049e 723500   		.ascii	"r5\000"
 977 04a1 0A       		.byte	0xa
 978 04a2 0801     		.2byte	0x108
 979 04a4 56040000 		.4byte	0x456
 980 04a8 04       		.byte	0x4
 981 04a9 08       		.uleb128 0x8
 982 04aa 723600   		.ascii	"r6\000"
 983 04ad 0A       		.byte	0xa
 984 04ae 0901     		.2byte	0x109
 985 04b0 56040000 		.4byte	0x456
 986 04b4 08       		.byte	0x8
 987 04b5 08       		.uleb128 0x8
 988 04b6 723700   		.ascii	"r7\000"
 989 04b9 0A       		.byte	0xa
 990 04ba 0A01     		.2byte	0x10a
 991 04bc 56040000 		.4byte	0x456
 992 04c0 0C       		.byte	0xc
 993 04c1 08       		.uleb128 0x8
 994 04c2 723800   		.ascii	"r8\000"
 995 04c5 0A       		.byte	0xa
 996 04c6 0B01     		.2byte	0x10b
 997 04c8 56040000 		.4byte	0x456
 998 04cc 10       		.byte	0x10
 999 04cd 08       		.uleb128 0x8
 1000 04ce 723900   		.ascii	"r9\000"
 1001 04d1 0A       		.byte	0xa
 1002 04d2 0C01     		.2byte	0x10c
 1003 04d4 56040000 		.4byte	0x456
 1004 04d8 14       		.byte	0x14
 1005 04d9 08       		.uleb128 0x8
 1006 04da 72313000 		.ascii	"r10\000"
 1007 04de 0A       		.byte	0xa
 1008 04df 0D01     		.2byte	0x10d
 1009 04e1 56040000 		.4byte	0x456
 1010 04e5 18       		.byte	0x18
 1011 04e6 08       		.uleb128 0x8
 1012 04e7 72313100 		.ascii	"r11\000"
 1013 04eb 0A       		.byte	0xa
 1014 04ec 0E01     		.2byte	0x10e
 1015 04ee 56040000 		.4byte	0x456
 1016 04f2 1C       		.byte	0x1c
 1017 04f3 08       		.uleb128 0x8
 1018 04f4 6C7200   		.ascii	"lr\000"
 1019 04f7 0A       		.byte	0xa
 1020 04f8 0F01     		.2byte	0x10f
 1021 04fa 56040000 		.4byte	0x456
 1022 04fe 20       		.byte	0x20
 1023 04ff 00       		.byte	0
 1024 0500 0A       		.uleb128 0xa
 1025 0501 04       		.byte	0x4
 1026 0502 85040000 		.4byte	0x485
ARM GAS  /tmp/ccjHnIUF.s 			page 19


 1027 0506 11       		.uleb128 0x11
 1028 0507 04       		.byte	0x4
 1029 0508 0B       		.byte	0xb
 1030 0509 38       		.byte	0x38
 1031 050a 1B050000 		.4byte	0x51b
 1032 050e 07       		.uleb128 0x7
 1033 050f EB050000 		.4byte	.LASF85
 1034 0513 0B       		.byte	0xb
 1035 0514 3C       		.byte	0x3c
 1036 0515 D6000000 		.4byte	0xd6
 1037 0519 00       		.byte	0
 1038 051a 00       		.byte	0
 1039 051b 03       		.uleb128 0x3
 1040 051c 37040000 		.4byte	.LASF86
 1041 0520 0B       		.byte	0xb
 1042 0521 3D       		.byte	0x3d
 1043 0522 06050000 		.4byte	0x506
 1044 0526 12       		.uleb128 0x12
 1045 0527 04       		.byte	0x4
 1046 0528 08       		.byte	0x8
 1047 0529 FA       		.byte	0xfa
 1048 052a 83050000 		.4byte	0x583
 1049 052e 13       		.uleb128 0x13
 1050 052f 21000000 		.4byte	.LASF87
 1051 0533 08       		.byte	0x8
 1052 0534 0101     		.2byte	0x101
 1053 0536 0D010000 		.4byte	0x10d
 1054 053a 13       		.uleb128 0x13
 1055 053b 84000000 		.4byte	.LASF88
 1056 053f 08       		.byte	0x8
 1057 0540 0801     		.2byte	0x108
 1058 0542 0D010000 		.4byte	0x10d
 1059 0546 13       		.uleb128 0x13
 1060 0547 76060000 		.4byte	.LASF89
 1061 054b 08       		.byte	0x8
 1062 054c 0F01     		.2byte	0x10f
 1063 054e 19030000 		.4byte	0x319
 1064 0552 13       		.uleb128 0x13
 1065 0553 3C020000 		.4byte	.LASF90
 1066 0557 08       		.byte	0x8
 1067 0558 1601     		.2byte	0x116
 1068 055a 83050000 		.4byte	0x583
 1069 055e 13       		.uleb128 0x13
 1070 055f 15030000 		.4byte	.LASF91
 1071 0563 08       		.byte	0x8
 1072 0564 1E01     		.2byte	0x11e
 1073 0566 AE050000 		.4byte	0x5ae
 1074 056a 13       		.uleb128 0x13
 1075 056b 4C050000 		.4byte	.LASF92
 1076 056f 08       		.byte	0x8
 1077 0570 2701     		.2byte	0x127
 1078 0572 E5050000 		.4byte	0x5e5
 1079 0576 13       		.uleb128 0x13
 1080 0577 E9040000 		.4byte	.LASF93
 1081 057b 08       		.byte	0x8
 1082 057c 2F01     		.2byte	0x12f
 1083 057e 18010000 		.4byte	0x118
ARM GAS  /tmp/ccjHnIUF.s 			page 20


 1084 0582 00       		.byte	0
 1085 0583 0A       		.uleb128 0xa
 1086 0584 04       		.byte	0x4
 1087 0585 31020000 		.4byte	0x231
 1088 0589 06       		.uleb128 0x6
 1089 058a 2B050000 		.4byte	.LASF94
 1090 058e 0C       		.byte	0xc
 1091 058f 0C       		.byte	0xc
 1092 0590 34       		.byte	0x34
 1093 0591 AE050000 		.4byte	0x5ae
 1094 0595 07       		.uleb128 0x7
 1095 0596 90020000 		.4byte	.LASF95
 1096 059a 0C       		.byte	0xc
 1097 059b 35       		.byte	0x35
 1098 059c 66020000 		.4byte	0x266
 1099 05a0 00       		.byte	0
 1100 05a1 07       		.uleb128 0x7
 1101 05a2 35030000 		.4byte	.LASF96
 1102 05a6 0C       		.byte	0xc
 1103 05a7 37       		.byte	0x37
 1104 05a8 23010000 		.4byte	0x123
 1105 05ac 08       		.byte	0x8
 1106 05ad 00       		.byte	0
 1107 05ae 0A       		.uleb128 0xa
 1108 05af 04       		.byte	0x4
 1109 05b0 89050000 		.4byte	0x589
 1110 05b4 06       		.uleb128 0x6
 1111 05b5 F2050000 		.4byte	.LASF97
 1112 05b9 10       		.byte	0x10
 1113 05ba 0D       		.byte	0xd
 1114 05bb 39       		.byte	0x39
 1115 05bc E5050000 		.4byte	0x5e5
 1116 05c0 07       		.uleb128 0x7
 1117 05c1 2F010000 		.4byte	.LASF98
 1118 05c5 0D       		.byte	0xd
 1119 05c6 3A       		.byte	0x3a
 1120 05c7 66020000 		.4byte	0x266
 1121 05cb 00       		.byte	0
 1122 05cc 07       		.uleb128 0x7
 1123 05cd AA060000 		.4byte	.LASF99
 1124 05d1 0D       		.byte	0xd
 1125 05d2 3C       		.byte	0x3c
 1126 05d3 3C020000 		.4byte	0x23c
 1127 05d7 08       		.byte	0x8
 1128 05d8 07       		.uleb128 0x7
 1129 05d9 A3050000 		.4byte	.LASF100
 1130 05dd 0D       		.byte	0xd
 1131 05de 3E       		.byte	0x3e
 1132 05df 2E060000 		.4byte	0x62e
 1133 05e3 0C       		.byte	0xc
 1134 05e4 00       		.byte	0
 1135 05e5 0A       		.uleb128 0xa
 1136 05e6 04       		.byte	0x4
 1137 05e7 B4050000 		.4byte	0x5b4
 1138 05eb 0A       		.uleb128 0xa
 1139 05ec 04       		.byte	0x4
 1140 05ed F8050000 		.4byte	0x5f8
ARM GAS  /tmp/ccjHnIUF.s 			page 21


 1141 05f1 04       		.uleb128 0x4
 1142 05f2 01       		.byte	0x1
 1143 05f3 08       		.byte	0x8
 1144 05f4 95050000 		.4byte	.LASF101
 1145 05f8 14       		.uleb128 0x14
 1146 05f9 F1050000 		.4byte	0x5f1
 1147 05fd 0A       		.uleb128 0xa
 1148 05fe 04       		.byte	0x4
 1149 05ff 1B030000 		.4byte	0x31b
 1150 0603 05       		.uleb128 0x5
 1151 0604 EB050000 		.4byte	0x5eb
 1152 0608 15       		.uleb128 0x15
 1153 0609 61040000 		.4byte	0x461
 1154 060d 18060000 		.4byte	0x618
 1155 0611 16       		.uleb128 0x16
 1156 0612 4F040000 		.4byte	0x44f
 1157 0616 1A       		.byte	0x1a
 1158 0617 00       		.byte	0
 1159 0618 03       		.uleb128 0x3
 1160 0619 00000000 		.4byte	.LASF102
 1161 061d 0E       		.byte	0xe
 1162 061e 34       		.byte	0x34
 1163 061f 08030000 		.4byte	0x308
 1164 0623 03       		.uleb128 0x3
 1165 0624 D7020000 		.4byte	.LASF103
 1166 0628 0D       		.byte	0xd
 1167 0629 34       		.byte	0x34
 1168 062a B4050000 		.4byte	0x5b4
 1169 062e 0A       		.uleb128 0xa
 1170 062f 04       		.byte	0x4
 1171 0630 23060000 		.4byte	0x623
 1172 0634 03       		.uleb128 0x3
 1173 0635 60000000 		.4byte	.LASF104
 1174 0639 0F       		.byte	0xf
 1175 063a 36       		.byte	0x36
 1176 063b 3F060000 		.4byte	0x63f
 1177 063f 0A       		.uleb128 0xa
 1178 0640 04       		.byte	0x4
 1179 0641 45060000 		.4byte	0x645
 1180 0645 17       		.uleb128 0x17
 1181 0646 19030000 		.4byte	0x319
 1182 064a 54060000 		.4byte	0x654
 1183 064e 0D       		.uleb128 0xd
 1184 064f 28000000 		.4byte	0x28
 1185 0653 00       		.byte	0
 1186 0654 03       		.uleb128 0x3
 1187 0655 72020000 		.4byte	.LASF105
 1188 0659 10       		.byte	0x10
 1189 065a 3C       		.byte	0x3c
 1190 065b 5F060000 		.4byte	0x65f
 1191 065f 06       		.uleb128 0x6
 1192 0660 C0060000 		.4byte	.LASF106
 1193 0664 20       		.byte	0x20
 1194 0665 10       		.byte	0x10
 1195 0666 4F       		.byte	0x4f
 1196 0667 90060000 		.4byte	0x690
 1197 066b 07       		.uleb128 0x7
ARM GAS  /tmp/ccjHnIUF.s 			page 22


 1198 066c 6B060000 		.4byte	.LASF107
 1199 0670 10       		.byte	0x10
 1200 0671 50       		.byte	0x50
 1201 0672 34060000 		.4byte	0x634
 1202 0676 00       		.byte	0
 1203 0677 07       		.uleb128 0x7
 1204 0678 8D000000 		.4byte	.LASF108
 1205 067c 10       		.byte	0x10
 1206 067d 52       		.byte	0x52
 1207 067e AF060000 		.4byte	0x6af
 1208 0682 08       		.byte	0x8
 1209 0683 07       		.uleb128 0x7
 1210 0684 21010000 		.4byte	.LASF109
 1211 0688 10       		.byte	0x10
 1212 0689 54       		.byte	0x54
 1213 068a 23060000 		.4byte	0x623
 1214 068e 10       		.byte	0x10
 1215 068f 00       		.byte	0
 1216 0690 12       		.uleb128 0x12
 1217 0691 04       		.byte	0x4
 1218 0692 10       		.byte	0x10
 1219 0693 44       		.byte	0x44
 1220 0694 AF060000 		.4byte	0x6af
 1221 0698 18       		.uleb128 0x18
 1222 0699 1C000000 		.4byte	.LASF110
 1223 069d 10       		.byte	0x10
 1224 069e 45       		.byte	0x45
 1225 069f D0060000 		.4byte	0x6d0
 1226 06a3 18       		.uleb128 0x18
 1227 06a4 74050000 		.4byte	.LASF111
 1228 06a8 10       		.byte	0x10
 1229 06a9 46       		.byte	0x46
 1230 06aa D6060000 		.4byte	0x6d6
 1231 06ae 00       		.byte	0
 1232 06af 19       		.uleb128 0x19
 1233 06b0 BA040000 		.4byte	.LASF141
 1234 06b4 08       		.byte	0x8
 1235 06b5 10       		.byte	0x10
 1236 06b6 41       		.byte	0x41
 1237 06b7 D0060000 		.4byte	0x6d0
 1238 06bb 18       		.uleb128 0x18
 1239 06bc E5020000 		.4byte	.LASF112
 1240 06c0 10       		.byte	0x10
 1241 06c1 42       		.byte	0x42
 1242 06c2 61040000 		.4byte	0x461
 1243 06c6 1A       		.uleb128 0x1a
 1244 06c7 6800     		.ascii	"h\000"
 1245 06c9 10       		.byte	0x10
 1246 06ca 49       		.byte	0x49
 1247 06cb DC060000 		.4byte	0x6dc
 1248 06cf 00       		.byte	0
 1249 06d0 0A       		.uleb128 0xa
 1250 06d1 04       		.byte	0x4
 1251 06d2 AF060000 		.4byte	0x6af
 1252 06d6 0A       		.uleb128 0xa
 1253 06d7 04       		.byte	0x4
 1254 06d8 54060000 		.4byte	0x654
ARM GAS  /tmp/ccjHnIUF.s 			page 23


 1255 06dc 11       		.uleb128 0x11
 1256 06dd 08       		.byte	0x8
 1257 06de 10       		.byte	0x10
 1258 06df 43       		.byte	0x43
 1259 06e0 FB060000 		.4byte	0x6fb
 1260 06e4 10       		.uleb128 0x10
 1261 06e5 7500     		.ascii	"u\000"
 1262 06e7 10       		.byte	0x10
 1263 06e8 47       		.byte	0x47
 1264 06e9 90060000 		.4byte	0x690
 1265 06ed 00       		.byte	0
 1266 06ee 07       		.uleb128 0x7
 1267 06ef 84060000 		.4byte	.LASF113
 1268 06f3 10       		.byte	0x10
 1269 06f4 48       		.byte	0x48
 1270 06f5 28000000 		.4byte	0x28
 1271 06f9 04       		.byte	0x4
 1272 06fa 00       		.byte	0
 1273 06fb 06       		.uleb128 0x6
 1274 06fc 33060000 		.4byte	.LASF114
 1275 0700 04       		.byte	0x4
 1276 0701 11       		.byte	0x11
 1277 0702 38       		.byte	0x38
 1278 0703 14070000 		.4byte	0x714
 1279 0707 07       		.uleb128 0x7
 1280 0708 60040000 		.4byte	.LASF115
 1281 070c 11       		.byte	0x11
 1282 070d 39       		.byte	0x39
 1283 070e 14070000 		.4byte	0x714
 1284 0712 00       		.byte	0
 1285 0713 00       		.byte	0
 1286 0714 0A       		.uleb128 0xa
 1287 0715 04       		.byte	0x4
 1288 0716 FB060000 		.4byte	0x6fb
 1289 071a 11       		.uleb128 0x11
 1290 071b 0C       		.byte	0xc
 1291 071c 11       		.byte	0x11
 1292 071d 40       		.byte	0x40
 1293 071e 47070000 		.4byte	0x747
 1294 0722 07       		.uleb128 0x7
 1295 0723 80020000 		.4byte	.LASF116
 1296 0727 11       		.byte	0x11
 1297 0728 41       		.byte	0x41
 1298 0729 14070000 		.4byte	0x714
 1299 072d 00       		.byte	0
 1300 072e 07       		.uleb128 0x7
 1301 072f 28040000 		.4byte	.LASF117
 1302 0733 11       		.byte	0x11
 1303 0734 42       		.byte	0x42
 1304 0735 28000000 		.4byte	0x28
 1305 0739 04       		.byte	0x4
 1306 073a 07       		.uleb128 0x7
 1307 073b BA020000 		.4byte	.LASF118
 1308 073f 11       		.byte	0x11
 1309 0740 44       		.byte	0x44
 1310 0741 34060000 		.4byte	0x634
 1311 0745 08       		.byte	0x8
ARM GAS  /tmp/ccjHnIUF.s 			page 24


 1312 0746 00       		.byte	0
 1313 0747 03       		.uleb128 0x3
 1314 0748 27030000 		.4byte	.LASF119
 1315 074c 11       		.byte	0x11
 1316 074d 46       		.byte	0x46
 1317 074e 1A070000 		.4byte	0x71a
 1318 0752 1B       		.uleb128 0x1b
 1319 0753 D3050000 		.4byte	.LASF122
 1320 0757 02       		.byte	0x2
 1321 0758 2002     		.2byte	0x220
 1322 075a 03       		.byte	0x3
 1323 075b 6C070000 		.4byte	0x76c
 1324 075f 1C       		.uleb128 0x1c
 1325 0760 DF020000 		.4byte	.LASF142
 1326 0764 02       		.byte	0x2
 1327 0765 2002     		.2byte	0x220
 1328 0767 BB000000 		.4byte	0xbb
 1329 076b 00       		.byte	0
 1330 076c 1D       		.uleb128 0x1d
 1331 076d 56000000 		.4byte	.LASF120
 1332 0771 0A       		.byte	0xa
 1333 0772 BC01     		.2byte	0x1bc
 1334 0774 03       		.byte	0x3
 1335 0775 1D       		.uleb128 0x1d
 1336 0776 49010000 		.4byte	.LASF121
 1337 077a 0A       		.byte	0xa
 1338 077b CA01     		.2byte	0x1ca
 1339 077d 03       		.byte	0x3
 1340 077e 1B       		.uleb128 0x1b
 1341 077f 98060000 		.4byte	.LASF123
 1342 0783 12       		.byte	0x12
 1343 0784 6601     		.2byte	0x166
 1344 0786 03       		.byte	0x3
 1345 0787 99070000 		.4byte	0x799
 1346 078b 1E       		.uleb128 0x1e
 1347 078c FF040000 		.4byte	.LASF125
 1348 0790 A9070000 		.4byte	0x7a9
 1349 0794 98060000 		.4byte	.LASF123
 1350 0798 00       		.byte	0
 1351 0799 15       		.uleb128 0x15
 1352 079a F8050000 		.4byte	0x5f8
 1353 079e A9070000 		.4byte	0x7a9
 1354 07a2 16       		.uleb128 0x16
 1355 07a3 4F040000 		.4byte	0x44f
 1356 07a7 0B       		.byte	0xb
 1357 07a8 00       		.byte	0
 1358 07a9 14       		.uleb128 0x14
 1359 07aa 99070000 		.4byte	0x799
 1360 07ae 1D       		.uleb128 0x1d
 1361 07af 08050000 		.4byte	.LASF124
 1362 07b3 12       		.byte	0x12
 1363 07b4 5A01     		.2byte	0x15a
 1364 07b6 03       		.byte	0x3
 1365 07b7 1F       		.uleb128 0x1f
 1366 07b8 AE030000 		.4byte	.LASF126
 1367 07bc 01       		.byte	0x1
 1368 07bd 44       		.byte	0x44
ARM GAS  /tmp/ccjHnIUF.s 			page 25


 1369 07be 3C020000 		.4byte	0x23c
 1370 07c2 00000000 		.4byte	.LFB227
 1371 07c6 14000000 		.4byte	.LFE227-.LFB227
 1372 07ca 01       		.uleb128 0x1
 1373 07cb 9C       		.byte	0x9c
 1374 07cc 6F080000 		.4byte	0x86f
 1375 07d0 20       		.uleb128 0x20
 1376 07d1 747000   		.ascii	"tp\000"
 1377 07d4 01       		.byte	0x1
 1378 07d5 44       		.byte	0x44
 1379 07d6 3C020000 		.4byte	0x23c
 1380 07da 01       		.uleb128 0x1
 1381 07db 50       		.byte	0x50
 1382 07dc 21       		.uleb128 0x21
 1383 07dd FF040000 		.4byte	.LASF125
 1384 07e1 6F080000 		.4byte	0x86f
 1385 07e5 22       		.uleb128 0x22
 1386 07e6 AE070000 		.4byte	0x7ae
 1387 07ea 00000000 		.4byte	.LBB54
 1388 07ee 06000000 		.4byte	.LBE54-.LBB54
 1389 07f2 01       		.byte	0x1
 1390 07f3 46       		.byte	0x46
 1391 07f4 24080000 		.4byte	0x824
 1392 07f8 23       		.uleb128 0x23
 1393 07f9 6C070000 		.4byte	0x76c
 1394 07fd 00000000 		.4byte	.LBB55
 1395 0801 06000000 		.4byte	.LBE55-.LBB55
 1396 0805 12       		.byte	0x12
 1397 0806 5C01     		.2byte	0x15c
 1398 0808 23       		.uleb128 0x23
 1399 0809 52070000 		.4byte	0x752
 1400 080d 00000000 		.4byte	.LBB56
 1401 0811 06000000 		.4byte	.LBE56-.LBB56
 1402 0815 0A       		.byte	0xa
 1403 0816 BF01     		.2byte	0x1bf
 1404 0818 24       		.uleb128 0x24
 1405 0819 5F070000 		.4byte	0x75f
 1406 081d 00000000 		.4byte	.LLST0
 1407 0821 00       		.byte	0
 1408 0822 00       		.byte	0
 1409 0823 00       		.byte	0
 1410 0824 25       		.uleb128 0x25
 1411 0825 7E070000 		.4byte	0x77e
 1412 0829 0C000000 		.4byte	.LBB58
 1413 082d 06000000 		.4byte	.LBE58-.LBB58
 1414 0831 01       		.byte	0x1
 1415 0832 49       		.byte	0x49
 1416 0833 26       		.uleb128 0x26
 1417 0834 0C000000 		.4byte	.LBB59
 1418 0838 06000000 		.4byte	.LBE59-.LBB59
 1419 083c 27       		.uleb128 0x27
 1420 083d 8B070000 		.4byte	0x78b
 1421 0841 23       		.uleb128 0x23
 1422 0842 75070000 		.4byte	0x775
 1423 0846 0C000000 		.4byte	.LBB60
 1424 084a 06000000 		.4byte	.LBE60-.LBB60
 1425 084e 12       		.byte	0x12
ARM GAS  /tmp/ccjHnIUF.s 			page 26


 1426 084f 7301     		.2byte	0x173
 1427 0851 23       		.uleb128 0x23
 1428 0852 52070000 		.4byte	0x752
 1429 0856 0C000000 		.4byte	.LBB61
 1430 085a 06000000 		.4byte	.LBE61-.LBB61
 1431 085e 0A       		.byte	0xa
 1432 085f CD01     		.2byte	0x1cd
 1433 0861 24       		.uleb128 0x24
 1434 0862 5F070000 		.4byte	0x75f
 1435 0866 15000000 		.4byte	.LLST1
 1436 086a 00       		.byte	0
 1437 086b 00       		.byte	0
 1438 086c 00       		.byte	0
 1439 086d 00       		.byte	0
 1440 086e 00       		.byte	0
 1441 086f 14       		.uleb128 0x14
 1442 0870 99070000 		.4byte	0x799
 1443 0874 28       		.uleb128 0x28
 1444 0875 12050000 		.4byte	.LASF143
 1445 0879 01       		.byte	0x1
 1446 087a 5B       		.byte	0x5b
 1447 087b 00000000 		.4byte	.LFB228
 1448 087f 4E000000 		.4byte	.LFE228-.LFB228
 1449 0883 01       		.uleb128 0x1
 1450 0884 9C       		.byte	0x9c
 1451 0885 5B090000 		.4byte	0x95b
 1452 0889 29       		.uleb128 0x29
 1453 088a 747000   		.ascii	"tp\000"
 1454 088d 01       		.byte	0x1
 1455 088e 5B       		.byte	0x5b
 1456 088f 3C020000 		.4byte	0x23c
 1457 0893 29000000 		.4byte	.LLST2
 1458 0897 2A       		.uleb128 0x2a
 1459 0898 70040000 		.4byte	.LASF130
 1460 089c 01       		.byte	0x1
 1461 089d 5C       		.byte	0x5c
 1462 089e F7000000 		.4byte	0xf7
 1463 08a2 6E000000 		.4byte	.LLST3
 1464 08a6 21       		.uleb128 0x21
 1465 08a7 FF040000 		.4byte	.LASF125
 1466 08ab 6B090000 		.4byte	0x96b
 1467 08af 22       		.uleb128 0x22
 1468 08b0 AE070000 		.4byte	0x7ae
 1469 08b4 02000000 		.4byte	.LBB63
 1470 08b8 06000000 		.4byte	.LBE63-.LBB63
 1471 08bc 01       		.byte	0x1
 1472 08bd 5E       		.byte	0x5e
 1473 08be EE080000 		.4byte	0x8ee
 1474 08c2 23       		.uleb128 0x23
 1475 08c3 6C070000 		.4byte	0x76c
 1476 08c7 02000000 		.4byte	.LBB64
 1477 08cb 06000000 		.4byte	.LBE64-.LBB64
 1478 08cf 12       		.byte	0x12
 1479 08d0 5C01     		.2byte	0x15c
 1480 08d2 23       		.uleb128 0x23
 1481 08d3 52070000 		.4byte	0x752
 1482 08d7 02000000 		.4byte	.LBB65
ARM GAS  /tmp/ccjHnIUF.s 			page 27


 1483 08db 06000000 		.4byte	.LBE65-.LBB65
 1484 08df 0A       		.byte	0xa
 1485 08e0 BF01     		.2byte	0x1bf
 1486 08e2 24       		.uleb128 0x24
 1487 08e3 5F070000 		.4byte	0x75f
 1488 08e7 99000000 		.4byte	.LLST4
 1489 08eb 00       		.byte	0
 1490 08ec 00       		.byte	0
 1491 08ed 00       		.byte	0
 1492 08ee 22       		.uleb128 0x22
 1493 08ef 7E070000 		.4byte	0x77e
 1494 08f3 10000000 		.4byte	.LBB67
 1495 08f7 06000000 		.4byte	.LBE67-.LBB67
 1496 08fb 01       		.byte	0x1
 1497 08fc 62       		.byte	0x62
 1498 08fd 3C090000 		.4byte	0x93c
 1499 0901 26       		.uleb128 0x26
 1500 0902 10000000 		.4byte	.LBB68
 1501 0906 06000000 		.4byte	.LBE68-.LBB68
 1502 090a 27       		.uleb128 0x27
 1503 090b 8B070000 		.4byte	0x78b
 1504 090f 23       		.uleb128 0x23
 1505 0910 75070000 		.4byte	0x775
 1506 0914 10000000 		.4byte	.LBB69
 1507 0918 06000000 		.4byte	.LBE69-.LBB69
 1508 091c 12       		.byte	0x12
 1509 091d 7301     		.2byte	0x173
 1510 091f 23       		.uleb128 0x23
 1511 0920 52070000 		.4byte	0x752
 1512 0924 10000000 		.4byte	.LBB70
 1513 0928 06000000 		.4byte	.LBE70-.LBB70
 1514 092c 0A       		.byte	0xa
 1515 092d CD01     		.2byte	0x1cd
 1516 092f 24       		.uleb128 0x24
 1517 0930 5F070000 		.4byte	0x75f
 1518 0934 AE000000 		.4byte	.LLST5
 1519 0938 00       		.byte	0
 1520 0939 00       		.byte	0
 1521 093a 00       		.byte	0
 1522 093b 00       		.byte	0
 1523 093c 2B       		.uleb128 0x2b
 1524 093d 3E000000 		.4byte	.LVL10
 1525 0941 580C0000 		.4byte	0xc58
 1526 0945 51090000 		.4byte	0x951
 1527 0949 2C       		.uleb128 0x2c
 1528 094a 01       		.uleb128 0x1
 1529 094b 50       		.byte	0x50
 1530 094c 03       		.uleb128 0x3
 1531 094d F3       		.byte	0xf3
 1532 094e 01       		.uleb128 0x1
 1533 094f 50       		.byte	0x50
 1534 0950 00       		.byte	0
 1535 0951 2D       		.uleb128 0x2d
 1536 0952 4E000000 		.4byte	.LVL13
 1537 0956 630C0000 		.4byte	0xc63
 1538 095a 00       		.byte	0
 1539 095b 15       		.uleb128 0x15
ARM GAS  /tmp/ccjHnIUF.s 			page 28


 1540 095c F8050000 		.4byte	0x5f8
 1541 0960 6B090000 		.4byte	0x96b
 1542 0964 16       		.uleb128 0x16
 1543 0965 4F040000 		.4byte	0x44f
 1544 0969 0C       		.byte	0xc
 1545 096a 00       		.byte	0
 1546 096b 14       		.uleb128 0x14
 1547 096c 5B090000 		.4byte	0x95b
 1548 0970 1F       		.uleb128 0x1f
 1549 0971 55020000 		.4byte	.LASF127
 1550 0975 01       		.byte	0x1
 1551 0976 98       		.byte	0x98
 1552 0977 3C020000 		.4byte	0x23c
 1553 097b 00000000 		.4byte	.LFB229
 1554 097f 3C000000 		.4byte	.LFE229-.LFB229
 1555 0983 01       		.uleb128 0x1
 1556 0984 9C       		.byte	0x9c
 1557 0985 D50A0000 		.4byte	0xad5
 1558 0989 2E       		.uleb128 0x2e
 1559 098a B7000000 		.4byte	.LASF128
 1560 098e 01       		.byte	0x1
 1561 098f 98       		.byte	0x98
 1562 0990 D6060000 		.4byte	0x6d6
 1563 0994 C2000000 		.4byte	.LLST6
 1564 0998 2E       		.uleb128 0x2e
 1565 0999 84060000 		.4byte	.LASF113
 1566 099d 01       		.byte	0x1
 1567 099e 98       		.byte	0x98
 1568 099f 28000000 		.4byte	0x28
 1569 09a3 E3000000 		.4byte	.LLST7
 1570 09a7 2E       		.uleb128 0x2e
 1571 09a8 48040000 		.4byte	.LASF129
 1572 09ac 01       		.byte	0x1
 1573 09ad 99       		.byte	0x99
 1574 09ae 02010000 		.4byte	0x102
 1575 09b2 01010000 		.4byte	.LLST8
 1576 09b6 29       		.uleb128 0x29
 1577 09b7 706600   		.ascii	"pf\000"
 1578 09ba 01       		.byte	0x1
 1579 09bb 99       		.byte	0x99
 1580 09bc 18060000 		.4byte	0x618
 1581 09c0 1F010000 		.4byte	.LLST9
 1582 09c4 20       		.uleb128 0x20
 1583 09c5 61726700 		.ascii	"arg\000"
 1584 09c9 01       		.byte	0x1
 1585 09ca 99       		.byte	0x99
 1586 09cb 19030000 		.4byte	0x319
 1587 09cf 02       		.uleb128 0x2
 1588 09d0 91       		.byte	0x91
 1589 09d1 00       		.sleb128 0
 1590 09d2 2F       		.uleb128 0x2f
 1591 09d3 77737000 		.ascii	"wsp\000"
 1592 09d7 01       		.byte	0x1
 1593 09d8 9A       		.byte	0x9a
 1594 09d9 19030000 		.4byte	0x319
 1595 09dd 3D010000 		.4byte	.LLST10
 1596 09e1 2F       		.uleb128 0x2f
ARM GAS  /tmp/ccjHnIUF.s 			page 29


 1597 09e2 747000   		.ascii	"tp\000"
 1598 09e5 01       		.byte	0x1
 1599 09e6 9B       		.byte	0x9b
 1600 09e7 3C020000 		.4byte	0x23c
 1601 09eb 50010000 		.4byte	.LLST11
 1602 09ef 22       		.uleb128 0x22
 1603 09f0 AE070000 		.4byte	0x7ae
 1604 09f4 10000000 		.4byte	.LBB72
 1605 09f8 06000000 		.4byte	.LBE72-.LBB72
 1606 09fc 01       		.byte	0x1
 1607 09fd AB       		.byte	0xab
 1608 09fe 2E0A0000 		.4byte	0xa2e
 1609 0a02 23       		.uleb128 0x23
 1610 0a03 6C070000 		.4byte	0x76c
 1611 0a07 10000000 		.4byte	.LBB73
 1612 0a0b 06000000 		.4byte	.LBE73-.LBB73
 1613 0a0f 12       		.byte	0x12
 1614 0a10 5C01     		.2byte	0x15c
 1615 0a12 23       		.uleb128 0x23
 1616 0a13 52070000 		.4byte	0x752
 1617 0a17 10000000 		.4byte	.LBB74
 1618 0a1b 06000000 		.4byte	.LBE74-.LBB74
 1619 0a1f 0A       		.byte	0xa
 1620 0a20 BF01     		.2byte	0x1bf
 1621 0a22 24       		.uleb128 0x24
 1622 0a23 5F070000 		.4byte	0x75f
 1623 0a27 6E010000 		.4byte	.LLST12
 1624 0a2b 00       		.byte	0
 1625 0a2c 00       		.byte	0
 1626 0a2d 00       		.byte	0
 1627 0a2e 22       		.uleb128 0x22
 1628 0a2f 7E070000 		.4byte	0x77e
 1629 0a33 30000000 		.4byte	.LBB76
 1630 0a37 06000000 		.4byte	.LBE76-.LBB76
 1631 0a3b 01       		.byte	0x1
 1632 0a3c AF       		.byte	0xaf
 1633 0a3d 7C0A0000 		.4byte	0xa7c
 1634 0a41 26       		.uleb128 0x26
 1635 0a42 30000000 		.4byte	.LBB77
 1636 0a46 06000000 		.4byte	.LBE77-.LBB77
 1637 0a4a 27       		.uleb128 0x27
 1638 0a4b 8B070000 		.4byte	0x78b
 1639 0a4f 23       		.uleb128 0x23
 1640 0a50 75070000 		.4byte	0x775
 1641 0a54 30000000 		.4byte	.LBB78
 1642 0a58 06000000 		.4byte	.LBE78-.LBB78
 1643 0a5c 12       		.byte	0x12
 1644 0a5d 7301     		.2byte	0x173
 1645 0a5f 23       		.uleb128 0x23
 1646 0a60 52070000 		.4byte	0x752
 1647 0a64 30000000 		.4byte	.LBB79
 1648 0a68 06000000 		.4byte	.LBE79-.LBB79
 1649 0a6c 0A       		.byte	0xa
 1650 0a6d CD01     		.2byte	0x1cd
 1651 0a6f 24       		.uleb128 0x24
 1652 0a70 5F070000 		.4byte	0x75f
 1653 0a74 83010000 		.4byte	.LLST13
ARM GAS  /tmp/ccjHnIUF.s 			page 30


 1654 0a78 00       		.byte	0
 1655 0a79 00       		.byte	0
 1656 0a7a 00       		.byte	0
 1657 0a7b 00       		.byte	0
 1658 0a7c 30       		.uleb128 0x30
 1659 0a7d 0E000000 		.4byte	.LVL15
 1660 0a81 6E0C0000 		.4byte	0xc6e
 1661 0a85 970A0000 		.4byte	0xa97
 1662 0a89 2C       		.uleb128 0x2c
 1663 0a8a 01       		.uleb128 0x1
 1664 0a8b 50       		.byte	0x50
 1665 0a8c 03       		.uleb128 0x3
 1666 0a8d F3       		.byte	0xf3
 1667 0a8e 01       		.uleb128 0x1
 1668 0a8f 50       		.byte	0x50
 1669 0a90 2C       		.uleb128 0x2c
 1670 0a91 01       		.uleb128 0x1
 1671 0a92 51       		.byte	0x51
 1672 0a93 02       		.uleb128 0x2
 1673 0a94 75       		.byte	0x75
 1674 0a95 00       		.sleb128 0
 1675 0a96 00       		.byte	0
 1676 0a97 30       		.uleb128 0x30
 1677 0a98 24000000 		.4byte	.LVL18
 1678 0a9c 790C0000 		.4byte	0xc79
 1679 0aa0 BF0A0000 		.4byte	0xabf
 1680 0aa4 2C       		.uleb128 0x2c
 1681 0aa5 01       		.uleb128 0x1
 1682 0aa6 51       		.byte	0x51
 1683 0aa7 02       		.uleb128 0x2
 1684 0aa8 75       		.byte	0x75
 1685 0aa9 00       		.sleb128 0
 1686 0aaa 2C       		.uleb128 0x2c
 1687 0aab 01       		.uleb128 0x1
 1688 0aac 52       		.byte	0x52
 1689 0aad 02       		.uleb128 0x2
 1690 0aae 76       		.byte	0x76
 1691 0aaf 00       		.sleb128 0
 1692 0ab0 2C       		.uleb128 0x2c
 1693 0ab1 01       		.uleb128 0x1
 1694 0ab2 53       		.byte	0x53
 1695 0ab3 02       		.uleb128 0x2
 1696 0ab4 77       		.byte	0x77
 1697 0ab5 00       		.sleb128 0
 1698 0ab6 2C       		.uleb128 0x2c
 1699 0ab7 02       		.uleb128 0x2
 1700 0ab8 7D       		.byte	0x7d
 1701 0ab9 00       		.sleb128 0
 1702 0aba 03       		.uleb128 0x3
 1703 0abb 91       		.byte	0x91
 1704 0abc 00       		.sleb128 0
 1705 0abd 06       		.byte	0x6
 1706 0abe 00       		.byte	0
 1707 0abf 31       		.uleb128 0x31
 1708 0ac0 30000000 		.4byte	.LVL20
 1709 0ac4 840C0000 		.4byte	0xc84
 1710 0ac8 2C       		.uleb128 0x2c
ARM GAS  /tmp/ccjHnIUF.s 			page 31


 1711 0ac9 01       		.uleb128 0x1
 1712 0aca 50       		.byte	0x50
 1713 0acb 02       		.uleb128 0x2
 1714 0acc 74       		.byte	0x74
 1715 0acd 00       		.sleb128 0
 1716 0ace 2C       		.uleb128 0x2c
 1717 0acf 01       		.uleb128 0x1
 1718 0ad0 51       		.byte	0x51
 1719 0ad1 01       		.uleb128 0x1
 1720 0ad2 30       		.byte	0x30
 1721 0ad3 00       		.byte	0
 1722 0ad4 00       		.byte	0
 1723 0ad5 1F       		.uleb128 0x1f
 1724 0ad6 98020000 		.4byte	.LASF131
 1725 0ada 01       		.byte	0x1
 1726 0adb CC       		.byte	0xcc
 1727 0adc 3C020000 		.4byte	0x23c
 1728 0ae0 00000000 		.4byte	.LFB230
 1729 0ae4 44000000 		.4byte	.LFE230-.LFB230
 1730 0ae8 01       		.uleb128 0x1
 1731 0ae9 9C       		.byte	0x9c
 1732 0aea 260C0000 		.4byte	0xc26
 1733 0aee 29       		.uleb128 0x29
 1734 0aef 6D7000   		.ascii	"mp\000"
 1735 0af2 01       		.byte	0x1
 1736 0af3 CC       		.byte	0xcc
 1737 0af4 260C0000 		.4byte	0xc26
 1738 0af8 97010000 		.4byte	.LLST14
 1739 0afc 2E       		.uleb128 0x2e
 1740 0afd 48040000 		.4byte	.LASF129
 1741 0b01 01       		.byte	0x1
 1742 0b02 CC       		.byte	0xcc
 1743 0b03 02010000 		.4byte	0x102
 1744 0b07 B5010000 		.4byte	.LLST15
 1745 0b0b 29       		.uleb128 0x29
 1746 0b0c 706600   		.ascii	"pf\000"
 1747 0b0f 01       		.byte	0x1
 1748 0b10 CD       		.byte	0xcd
 1749 0b11 18060000 		.4byte	0x618
 1750 0b15 D3010000 		.4byte	.LLST16
 1751 0b19 29       		.uleb128 0x29
 1752 0b1a 61726700 		.ascii	"arg\000"
 1753 0b1e 01       		.byte	0x1
 1754 0b1f CD       		.byte	0xcd
 1755 0b20 19030000 		.4byte	0x319
 1756 0b24 F1010000 		.4byte	.LLST17
 1757 0b28 2F       		.uleb128 0x2f
 1758 0b29 77737000 		.ascii	"wsp\000"
 1759 0b2d 01       		.byte	0x1
 1760 0b2e CE       		.byte	0xce
 1761 0b2f 19030000 		.4byte	0x319
 1762 0b33 0F020000 		.4byte	.LLST18
 1763 0b37 2F       		.uleb128 0x2f
 1764 0b38 747000   		.ascii	"tp\000"
 1765 0b3b 01       		.byte	0x1
 1766 0b3c CF       		.byte	0xcf
 1767 0b3d 3C020000 		.4byte	0x23c
ARM GAS  /tmp/ccjHnIUF.s 			page 32


 1768 0b41 22020000 		.4byte	.LLST19
 1769 0b45 21       		.uleb128 0x21
 1770 0b46 FF040000 		.4byte	.LASF125
 1771 0b4a 3C0C0000 		.4byte	0xc3c
 1772 0b4e 22       		.uleb128 0x22
 1773 0b4f AE070000 		.4byte	0x7ae
 1774 0b53 14000000 		.4byte	.LBB81
 1775 0b57 06000000 		.4byte	.LBE81-.LBB81
 1776 0b5b 01       		.byte	0x1
 1777 0b5c E1       		.byte	0xe1
 1778 0b5d 8D0B0000 		.4byte	0xb8d
 1779 0b61 23       		.uleb128 0x23
 1780 0b62 6C070000 		.4byte	0x76c
 1781 0b66 14000000 		.4byte	.LBB82
 1782 0b6a 06000000 		.4byte	.LBE82-.LBB82
 1783 0b6e 12       		.byte	0x12
 1784 0b6f 5C01     		.2byte	0x15c
 1785 0b71 23       		.uleb128 0x23
 1786 0b72 52070000 		.4byte	0x752
 1787 0b76 14000000 		.4byte	.LBB83
 1788 0b7a 06000000 		.4byte	.LBE83-.LBB83
 1789 0b7e 0A       		.byte	0xa
 1790 0b7f BF01     		.2byte	0x1bf
 1791 0b81 24       		.uleb128 0x24
 1792 0b82 5F070000 		.4byte	0x75f
 1793 0b86 40020000 		.4byte	.LLST20
 1794 0b8a 00       		.byte	0
 1795 0b8b 00       		.byte	0
 1796 0b8c 00       		.byte	0
 1797 0b8d 22       		.uleb128 0x22
 1798 0b8e 7E070000 		.4byte	0x77e
 1799 0b92 36000000 		.4byte	.LBB85
 1800 0b96 06000000 		.4byte	.LBE85-.LBB85
 1801 0b9a 01       		.byte	0x1
 1802 0b9b E6       		.byte	0xe6
 1803 0b9c DB0B0000 		.4byte	0xbdb
 1804 0ba0 26       		.uleb128 0x26
 1805 0ba1 36000000 		.4byte	.LBB86
 1806 0ba5 06000000 		.4byte	.LBE86-.LBB86
 1807 0ba9 27       		.uleb128 0x27
 1808 0baa 8B070000 		.4byte	0x78b
 1809 0bae 23       		.uleb128 0x23
 1810 0baf 75070000 		.4byte	0x775
 1811 0bb3 36000000 		.4byte	.LBB87
 1812 0bb7 06000000 		.4byte	.LBE87-.LBB87
 1813 0bbb 12       		.byte	0x12
 1814 0bbc 7301     		.2byte	0x173
 1815 0bbe 23       		.uleb128 0x23
 1816 0bbf 52070000 		.4byte	0x752
 1817 0bc3 36000000 		.4byte	.LBB88
 1818 0bc7 06000000 		.4byte	.LBE88-.LBB88
 1819 0bcb 0A       		.byte	0xa
 1820 0bcc CD01     		.2byte	0x1cd
 1821 0bce 24       		.uleb128 0x24
 1822 0bcf 5F070000 		.4byte	0x75f
 1823 0bd3 55020000 		.4byte	.LLST21
 1824 0bd7 00       		.byte	0
ARM GAS  /tmp/ccjHnIUF.s 			page 33


 1825 0bd8 00       		.byte	0
 1826 0bd9 00       		.byte	0
 1827 0bda 00       		.byte	0
 1828 0bdb 30       		.uleb128 0x30
 1829 0bdc 12000000 		.4byte	.LVL24
 1830 0be0 900C0000 		.4byte	0xc90
 1831 0be4 EF0B0000 		.4byte	0xbef
 1832 0be8 2C       		.uleb128 0x2c
 1833 0be9 01       		.uleb128 0x1
 1834 0bea 50       		.byte	0x50
 1835 0beb 02       		.uleb128 0x2
 1836 0bec 75       		.byte	0x75
 1837 0bed 00       		.sleb128 0
 1838 0bee 00       		.byte	0
 1839 0bef 30       		.uleb128 0x30
 1840 0bf0 28000000 		.4byte	.LVL27
 1841 0bf4 790C0000 		.4byte	0xc79
 1842 0bf8 100C0000 		.4byte	0xc10
 1843 0bfc 2C       		.uleb128 0x2c
 1844 0bfd 01       		.uleb128 0x1
 1845 0bfe 52       		.byte	0x52
 1846 0bff 02       		.uleb128 0x2
 1847 0c00 76       		.byte	0x76
 1848 0c01 00       		.sleb128 0
 1849 0c02 2C       		.uleb128 0x2c
 1850 0c03 01       		.uleb128 0x1
 1851 0c04 53       		.byte	0x53
 1852 0c05 02       		.uleb128 0x2
 1853 0c06 77       		.byte	0x77
 1854 0c07 00       		.sleb128 0
 1855 0c08 2C       		.uleb128 0x2c
 1856 0c09 02       		.uleb128 0x2
 1857 0c0a 7D       		.byte	0x7d
 1858 0c0b 00       		.sleb128 0
 1859 0c0c 02       		.uleb128 0x2
 1860 0c0d 78       		.byte	0x78
 1861 0c0e 00       		.sleb128 0
 1862 0c0f 00       		.byte	0
 1863 0c10 31       		.uleb128 0x31
 1864 0c11 36000000 		.4byte	.LVL29
 1865 0c15 840C0000 		.4byte	0xc84
 1866 0c19 2C       		.uleb128 0x2c
 1867 0c1a 01       		.uleb128 0x1
 1868 0c1b 50       		.byte	0x50
 1869 0c1c 02       		.uleb128 0x2
 1870 0c1d 74       		.byte	0x74
 1871 0c1e 00       		.sleb128 0
 1872 0c1f 2C       		.uleb128 0x2c
 1873 0c20 01       		.uleb128 0x1
 1874 0c21 51       		.byte	0x51
 1875 0c22 01       		.uleb128 0x1
 1876 0c23 30       		.byte	0x30
 1877 0c24 00       		.byte	0
 1878 0c25 00       		.byte	0
 1879 0c26 0A       		.uleb128 0xa
 1880 0c27 04       		.byte	0x4
 1881 0c28 47070000 		.4byte	0x747
ARM GAS  /tmp/ccjHnIUF.s 			page 34


 1882 0c2c 15       		.uleb128 0x15
 1883 0c2d F8050000 		.4byte	0x5f8
 1884 0c31 3C0C0000 		.4byte	0xc3c
 1885 0c35 16       		.uleb128 0x16
 1886 0c36 4F040000 		.4byte	0x44f
 1887 0c3a 19       		.byte	0x19
 1888 0c3b 00       		.byte	0
 1889 0c3c 14       		.uleb128 0x14
 1890 0c3d 2C0C0000 		.4byte	0xc2c
 1891 0c41 32       		.uleb128 0x32
 1892 0c42 AA000000 		.4byte	.LASF132
 1893 0c46 13       		.byte	0x13
 1894 0c47 A706     		.2byte	0x6a7
 1895 0c49 D1000000 		.4byte	0xd1
 1896 0c4d 33       		.uleb128 0x33
 1897 0c4e 636800   		.ascii	"ch\000"
 1898 0c51 08       		.byte	0x8
 1899 0c52 0902     		.2byte	0x209
 1900 0c54 E8030000 		.4byte	0x3e8
 1901 0c58 34       		.uleb128 0x34
 1902 0c59 37010000 		.4byte	.LASF133
 1903 0c5d 37010000 		.4byte	.LASF133
 1904 0c61 10       		.byte	0x10
 1905 0c62 68       		.byte	0x68
 1906 0c63 34       		.uleb128 0x34
 1907 0c64 60060000 		.4byte	.LASF134
 1908 0c68 60060000 		.4byte	.LASF134
 1909 0c6c 11       		.byte	0x11
 1910 0c6d 71       		.byte	0x71
 1911 0c6e 34       		.uleb128 0x34
 1912 0c6f 1F050000 		.4byte	.LASF135
 1913 0c73 1F050000 		.4byte	.LASF135
 1914 0c77 10       		.byte	0x10
 1915 0c78 67       		.byte	0x67
 1916 0c79 34       		.uleb128 0x34
 1917 0c7a 55010000 		.4byte	.LASF136
 1918 0c7e 55010000 		.4byte	.LASF136
 1919 0c82 0E       		.byte	0xe
 1920 0c83 87       		.byte	0x87
 1921 0c84 35       		.uleb128 0x35
 1922 0c85 58030000 		.4byte	.LASF137
 1923 0c89 58030000 		.4byte	.LASF137
 1924 0c8d 08       		.byte	0x8
 1925 0c8e 1602     		.2byte	0x216
 1926 0c90 34       		.uleb128 0x34
 1927 0c91 54060000 		.4byte	.LASF138
 1928 0c95 54060000 		.4byte	.LASF138
 1929 0c99 11       		.byte	0x11
 1930 0c9a 6F       		.byte	0x6f
 1931 0c9b 00       		.byte	0
 1932              		.section	.debug_abbrev,"",%progbits
 1933              	.Ldebug_abbrev0:
 1934 0000 01       		.uleb128 0x1
 1935 0001 11       		.uleb128 0x11
 1936 0002 01       		.byte	0x1
 1937 0003 25       		.uleb128 0x25
 1938 0004 0E       		.uleb128 0xe
ARM GAS  /tmp/ccjHnIUF.s 			page 35


 1939 0005 13       		.uleb128 0x13
 1940 0006 0B       		.uleb128 0xb
 1941 0007 03       		.uleb128 0x3
 1942 0008 0E       		.uleb128 0xe
 1943 0009 55       		.uleb128 0x55
 1944 000a 17       		.uleb128 0x17
 1945 000b 11       		.uleb128 0x11
 1946 000c 01       		.uleb128 0x1
 1947 000d 10       		.uleb128 0x10
 1948 000e 17       		.uleb128 0x17
 1949 000f 00       		.byte	0
 1950 0010 00       		.byte	0
 1951 0011 02       		.uleb128 0x2
 1952 0012 24       		.uleb128 0x24
 1953 0013 00       		.byte	0
 1954 0014 0B       		.uleb128 0xb
 1955 0015 0B       		.uleb128 0xb
 1956 0016 3E       		.uleb128 0x3e
 1957 0017 0B       		.uleb128 0xb
 1958 0018 03       		.uleb128 0x3
 1959 0019 08       		.uleb128 0x8
 1960 001a 00       		.byte	0
 1961 001b 00       		.byte	0
 1962 001c 03       		.uleb128 0x3
 1963 001d 16       		.uleb128 0x16
 1964 001e 00       		.byte	0
 1965 001f 03       		.uleb128 0x3
 1966 0020 0E       		.uleb128 0xe
 1967 0021 3A       		.uleb128 0x3a
 1968 0022 0B       		.uleb128 0xb
 1969 0023 3B       		.uleb128 0x3b
 1970 0024 0B       		.uleb128 0xb
 1971 0025 49       		.uleb128 0x49
 1972 0026 13       		.uleb128 0x13
 1973 0027 00       		.byte	0
 1974 0028 00       		.byte	0
 1975 0029 04       		.uleb128 0x4
 1976 002a 24       		.uleb128 0x24
 1977 002b 00       		.byte	0
 1978 002c 0B       		.uleb128 0xb
 1979 002d 0B       		.uleb128 0xb
 1980 002e 3E       		.uleb128 0x3e
 1981 002f 0B       		.uleb128 0xb
 1982 0030 03       		.uleb128 0x3
 1983 0031 0E       		.uleb128 0xe
 1984 0032 00       		.byte	0
 1985 0033 00       		.byte	0
 1986 0034 05       		.uleb128 0x5
 1987 0035 35       		.uleb128 0x35
 1988 0036 00       		.byte	0
 1989 0037 49       		.uleb128 0x49
 1990 0038 13       		.uleb128 0x13
 1991 0039 00       		.byte	0
 1992 003a 00       		.byte	0
 1993 003b 06       		.uleb128 0x6
 1994 003c 13       		.uleb128 0x13
 1995 003d 01       		.byte	0x1
ARM GAS  /tmp/ccjHnIUF.s 			page 36


 1996 003e 03       		.uleb128 0x3
 1997 003f 0E       		.uleb128 0xe
 1998 0040 0B       		.uleb128 0xb
 1999 0041 0B       		.uleb128 0xb
 2000 0042 3A       		.uleb128 0x3a
 2001 0043 0B       		.uleb128 0xb
 2002 0044 3B       		.uleb128 0x3b
 2003 0045 0B       		.uleb128 0xb
 2004 0046 01       		.uleb128 0x1
 2005 0047 13       		.uleb128 0x13
 2006 0048 00       		.byte	0
 2007 0049 00       		.byte	0
 2008 004a 07       		.uleb128 0x7
 2009 004b 0D       		.uleb128 0xd
 2010 004c 00       		.byte	0
 2011 004d 03       		.uleb128 0x3
 2012 004e 0E       		.uleb128 0xe
 2013 004f 3A       		.uleb128 0x3a
 2014 0050 0B       		.uleb128 0xb
 2015 0051 3B       		.uleb128 0x3b
 2016 0052 0B       		.uleb128 0xb
 2017 0053 49       		.uleb128 0x49
 2018 0054 13       		.uleb128 0x13
 2019 0055 38       		.uleb128 0x38
 2020 0056 0B       		.uleb128 0xb
 2021 0057 00       		.byte	0
 2022 0058 00       		.byte	0
 2023 0059 08       		.uleb128 0x8
 2024 005a 0D       		.uleb128 0xd
 2025 005b 00       		.byte	0
 2026 005c 03       		.uleb128 0x3
 2027 005d 08       		.uleb128 0x8
 2028 005e 3A       		.uleb128 0x3a
 2029 005f 0B       		.uleb128 0xb
 2030 0060 3B       		.uleb128 0x3b
 2031 0061 05       		.uleb128 0x5
 2032 0062 49       		.uleb128 0x49
 2033 0063 13       		.uleb128 0x13
 2034 0064 38       		.uleb128 0x38
 2035 0065 0B       		.uleb128 0xb
 2036 0066 00       		.byte	0
 2037 0067 00       		.byte	0
 2038 0068 09       		.uleb128 0x9
 2039 0069 0D       		.uleb128 0xd
 2040 006a 00       		.byte	0
 2041 006b 03       		.uleb128 0x3
 2042 006c 0E       		.uleb128 0xe
 2043 006d 3A       		.uleb128 0x3a
 2044 006e 0B       		.uleb128 0xb
 2045 006f 3B       		.uleb128 0x3b
 2046 0070 05       		.uleb128 0x5
 2047 0071 49       		.uleb128 0x49
 2048 0072 13       		.uleb128 0x13
 2049 0073 38       		.uleb128 0x38
 2050 0074 0B       		.uleb128 0xb
 2051 0075 00       		.byte	0
 2052 0076 00       		.byte	0
ARM GAS  /tmp/ccjHnIUF.s 			page 37


 2053 0077 0A       		.uleb128 0xa
 2054 0078 0F       		.uleb128 0xf
 2055 0079 00       		.byte	0
 2056 007a 0B       		.uleb128 0xb
 2057 007b 0B       		.uleb128 0xb
 2058 007c 49       		.uleb128 0x49
 2059 007d 13       		.uleb128 0x13
 2060 007e 00       		.byte	0
 2061 007f 00       		.byte	0
 2062 0080 0B       		.uleb128 0xb
 2063 0081 13       		.uleb128 0x13
 2064 0082 01       		.byte	0x1
 2065 0083 03       		.uleb128 0x3
 2066 0084 0E       		.uleb128 0xe
 2067 0085 0B       		.uleb128 0xb
 2068 0086 0B       		.uleb128 0xb
 2069 0087 3A       		.uleb128 0x3a
 2070 0088 0B       		.uleb128 0xb
 2071 0089 3B       		.uleb128 0x3b
 2072 008a 05       		.uleb128 0x5
 2073 008b 01       		.uleb128 0x1
 2074 008c 13       		.uleb128 0x13
 2075 008d 00       		.byte	0
 2076 008e 00       		.byte	0
 2077 008f 0C       		.uleb128 0xc
 2078 0090 15       		.uleb128 0x15
 2079 0091 01       		.byte	0x1
 2080 0092 27       		.uleb128 0x27
 2081 0093 19       		.uleb128 0x19
 2082 0094 01       		.uleb128 0x1
 2083 0095 13       		.uleb128 0x13
 2084 0096 00       		.byte	0
 2085 0097 00       		.byte	0
 2086 0098 0D       		.uleb128 0xd
 2087 0099 05       		.uleb128 0x5
 2088 009a 00       		.byte	0
 2089 009b 49       		.uleb128 0x49
 2090 009c 13       		.uleb128 0x13
 2091 009d 00       		.byte	0
 2092 009e 00       		.byte	0
 2093 009f 0E       		.uleb128 0xe
 2094 00a0 0F       		.uleb128 0xf
 2095 00a1 00       		.byte	0
 2096 00a2 0B       		.uleb128 0xb
 2097 00a3 0B       		.uleb128 0xb
 2098 00a4 00       		.byte	0
 2099 00a5 00       		.byte	0
 2100 00a6 0F       		.uleb128 0xf
 2101 00a7 13       		.uleb128 0x13
 2102 00a8 01       		.byte	0x1
 2103 00a9 03       		.uleb128 0x3
 2104 00aa 0E       		.uleb128 0xe
 2105 00ab 0B       		.uleb128 0xb
 2106 00ac 05       		.uleb128 0x5
 2107 00ad 3A       		.uleb128 0x3a
 2108 00ae 0B       		.uleb128 0xb
 2109 00af 3B       		.uleb128 0x3b
ARM GAS  /tmp/ccjHnIUF.s 			page 38


 2110 00b0 05       		.uleb128 0x5
 2111 00b1 01       		.uleb128 0x1
 2112 00b2 13       		.uleb128 0x13
 2113 00b3 00       		.byte	0
 2114 00b4 00       		.byte	0
 2115 00b5 10       		.uleb128 0x10
 2116 00b6 0D       		.uleb128 0xd
 2117 00b7 00       		.byte	0
 2118 00b8 03       		.uleb128 0x3
 2119 00b9 08       		.uleb128 0x8
 2120 00ba 3A       		.uleb128 0x3a
 2121 00bb 0B       		.uleb128 0xb
 2122 00bc 3B       		.uleb128 0x3b
 2123 00bd 0B       		.uleb128 0xb
 2124 00be 49       		.uleb128 0x49
 2125 00bf 13       		.uleb128 0x13
 2126 00c0 38       		.uleb128 0x38
 2127 00c1 0B       		.uleb128 0xb
 2128 00c2 00       		.byte	0
 2129 00c3 00       		.byte	0
 2130 00c4 11       		.uleb128 0x11
 2131 00c5 13       		.uleb128 0x13
 2132 00c6 01       		.byte	0x1
 2133 00c7 0B       		.uleb128 0xb
 2134 00c8 0B       		.uleb128 0xb
 2135 00c9 3A       		.uleb128 0x3a
 2136 00ca 0B       		.uleb128 0xb
 2137 00cb 3B       		.uleb128 0x3b
 2138 00cc 0B       		.uleb128 0xb
 2139 00cd 01       		.uleb128 0x1
 2140 00ce 13       		.uleb128 0x13
 2141 00cf 00       		.byte	0
 2142 00d0 00       		.byte	0
 2143 00d1 12       		.uleb128 0x12
 2144 00d2 17       		.uleb128 0x17
 2145 00d3 01       		.byte	0x1
 2146 00d4 0B       		.uleb128 0xb
 2147 00d5 0B       		.uleb128 0xb
 2148 00d6 3A       		.uleb128 0x3a
 2149 00d7 0B       		.uleb128 0xb
 2150 00d8 3B       		.uleb128 0x3b
 2151 00d9 0B       		.uleb128 0xb
 2152 00da 01       		.uleb128 0x1
 2153 00db 13       		.uleb128 0x13
 2154 00dc 00       		.byte	0
 2155 00dd 00       		.byte	0
 2156 00de 13       		.uleb128 0x13
 2157 00df 0D       		.uleb128 0xd
 2158 00e0 00       		.byte	0
 2159 00e1 03       		.uleb128 0x3
 2160 00e2 0E       		.uleb128 0xe
 2161 00e3 3A       		.uleb128 0x3a
 2162 00e4 0B       		.uleb128 0xb
 2163 00e5 3B       		.uleb128 0x3b
 2164 00e6 05       		.uleb128 0x5
 2165 00e7 49       		.uleb128 0x49
 2166 00e8 13       		.uleb128 0x13
ARM GAS  /tmp/ccjHnIUF.s 			page 39


 2167 00e9 00       		.byte	0
 2168 00ea 00       		.byte	0
 2169 00eb 14       		.uleb128 0x14
 2170 00ec 26       		.uleb128 0x26
 2171 00ed 00       		.byte	0
 2172 00ee 49       		.uleb128 0x49
 2173 00ef 13       		.uleb128 0x13
 2174 00f0 00       		.byte	0
 2175 00f1 00       		.byte	0
 2176 00f2 15       		.uleb128 0x15
 2177 00f3 01       		.uleb128 0x1
 2178 00f4 01       		.byte	0x1
 2179 00f5 49       		.uleb128 0x49
 2180 00f6 13       		.uleb128 0x13
 2181 00f7 01       		.uleb128 0x1
 2182 00f8 13       		.uleb128 0x13
 2183 00f9 00       		.byte	0
 2184 00fa 00       		.byte	0
 2185 00fb 16       		.uleb128 0x16
 2186 00fc 21       		.uleb128 0x21
 2187 00fd 00       		.byte	0
 2188 00fe 49       		.uleb128 0x49
 2189 00ff 13       		.uleb128 0x13
 2190 0100 2F       		.uleb128 0x2f
 2191 0101 0B       		.uleb128 0xb
 2192 0102 00       		.byte	0
 2193 0103 00       		.byte	0
 2194 0104 17       		.uleb128 0x17
 2195 0105 15       		.uleb128 0x15
 2196 0106 01       		.byte	0x1
 2197 0107 27       		.uleb128 0x27
 2198 0108 19       		.uleb128 0x19
 2199 0109 49       		.uleb128 0x49
 2200 010a 13       		.uleb128 0x13
 2201 010b 01       		.uleb128 0x1
 2202 010c 13       		.uleb128 0x13
 2203 010d 00       		.byte	0
 2204 010e 00       		.byte	0
 2205 010f 18       		.uleb128 0x18
 2206 0110 0D       		.uleb128 0xd
 2207 0111 00       		.byte	0
 2208 0112 03       		.uleb128 0x3
 2209 0113 0E       		.uleb128 0xe
 2210 0114 3A       		.uleb128 0x3a
 2211 0115 0B       		.uleb128 0xb
 2212 0116 3B       		.uleb128 0x3b
 2213 0117 0B       		.uleb128 0xb
 2214 0118 49       		.uleb128 0x49
 2215 0119 13       		.uleb128 0x13
 2216 011a 00       		.byte	0
 2217 011b 00       		.byte	0
 2218 011c 19       		.uleb128 0x19
 2219 011d 17       		.uleb128 0x17
 2220 011e 01       		.byte	0x1
 2221 011f 03       		.uleb128 0x3
 2222 0120 0E       		.uleb128 0xe
 2223 0121 0B       		.uleb128 0xb
ARM GAS  /tmp/ccjHnIUF.s 			page 40


 2224 0122 0B       		.uleb128 0xb
 2225 0123 3A       		.uleb128 0x3a
 2226 0124 0B       		.uleb128 0xb
 2227 0125 3B       		.uleb128 0x3b
 2228 0126 0B       		.uleb128 0xb
 2229 0127 01       		.uleb128 0x1
 2230 0128 13       		.uleb128 0x13
 2231 0129 00       		.byte	0
 2232 012a 00       		.byte	0
 2233 012b 1A       		.uleb128 0x1a
 2234 012c 0D       		.uleb128 0xd
 2235 012d 00       		.byte	0
 2236 012e 03       		.uleb128 0x3
 2237 012f 08       		.uleb128 0x8
 2238 0130 3A       		.uleb128 0x3a
 2239 0131 0B       		.uleb128 0xb
 2240 0132 3B       		.uleb128 0x3b
 2241 0133 0B       		.uleb128 0xb
 2242 0134 49       		.uleb128 0x49
 2243 0135 13       		.uleb128 0x13
 2244 0136 00       		.byte	0
 2245 0137 00       		.byte	0
 2246 0138 1B       		.uleb128 0x1b
 2247 0139 2E       		.uleb128 0x2e
 2248 013a 01       		.byte	0x1
 2249 013b 03       		.uleb128 0x3
 2250 013c 0E       		.uleb128 0xe
 2251 013d 3A       		.uleb128 0x3a
 2252 013e 0B       		.uleb128 0xb
 2253 013f 3B       		.uleb128 0x3b
 2254 0140 05       		.uleb128 0x5
 2255 0141 27       		.uleb128 0x27
 2256 0142 19       		.uleb128 0x19
 2257 0143 20       		.uleb128 0x20
 2258 0144 0B       		.uleb128 0xb
 2259 0145 01       		.uleb128 0x1
 2260 0146 13       		.uleb128 0x13
 2261 0147 00       		.byte	0
 2262 0148 00       		.byte	0
 2263 0149 1C       		.uleb128 0x1c
 2264 014a 05       		.uleb128 0x5
 2265 014b 00       		.byte	0
 2266 014c 03       		.uleb128 0x3
 2267 014d 0E       		.uleb128 0xe
 2268 014e 3A       		.uleb128 0x3a
 2269 014f 0B       		.uleb128 0xb
 2270 0150 3B       		.uleb128 0x3b
 2271 0151 05       		.uleb128 0x5
 2272 0152 49       		.uleb128 0x49
 2273 0153 13       		.uleb128 0x13
 2274 0154 00       		.byte	0
 2275 0155 00       		.byte	0
 2276 0156 1D       		.uleb128 0x1d
 2277 0157 2E       		.uleb128 0x2e
 2278 0158 00       		.byte	0
 2279 0159 03       		.uleb128 0x3
 2280 015a 0E       		.uleb128 0xe
ARM GAS  /tmp/ccjHnIUF.s 			page 41


 2281 015b 3A       		.uleb128 0x3a
 2282 015c 0B       		.uleb128 0xb
 2283 015d 3B       		.uleb128 0x3b
 2284 015e 05       		.uleb128 0x5
 2285 015f 27       		.uleb128 0x27
 2286 0160 19       		.uleb128 0x19
 2287 0161 20       		.uleb128 0x20
 2288 0162 0B       		.uleb128 0xb
 2289 0163 00       		.byte	0
 2290 0164 00       		.byte	0
 2291 0165 1E       		.uleb128 0x1e
 2292 0166 34       		.uleb128 0x34
 2293 0167 00       		.byte	0
 2294 0168 03       		.uleb128 0x3
 2295 0169 0E       		.uleb128 0xe
 2296 016a 49       		.uleb128 0x49
 2297 016b 13       		.uleb128 0x13
 2298 016c 34       		.uleb128 0x34
 2299 016d 19       		.uleb128 0x19
 2300 016e 1C       		.uleb128 0x1c
 2301 016f 0E       		.uleb128 0xe
 2302 0170 00       		.byte	0
 2303 0171 00       		.byte	0
 2304 0172 1F       		.uleb128 0x1f
 2305 0173 2E       		.uleb128 0x2e
 2306 0174 01       		.byte	0x1
 2307 0175 3F       		.uleb128 0x3f
 2308 0176 19       		.uleb128 0x19
 2309 0177 03       		.uleb128 0x3
 2310 0178 0E       		.uleb128 0xe
 2311 0179 3A       		.uleb128 0x3a
 2312 017a 0B       		.uleb128 0xb
 2313 017b 3B       		.uleb128 0x3b
 2314 017c 0B       		.uleb128 0xb
 2315 017d 27       		.uleb128 0x27
 2316 017e 19       		.uleb128 0x19
 2317 017f 49       		.uleb128 0x49
 2318 0180 13       		.uleb128 0x13
 2319 0181 11       		.uleb128 0x11
 2320 0182 01       		.uleb128 0x1
 2321 0183 12       		.uleb128 0x12
 2322 0184 06       		.uleb128 0x6
 2323 0185 40       		.uleb128 0x40
 2324 0186 18       		.uleb128 0x18
 2325 0187 9742     		.uleb128 0x2117
 2326 0189 19       		.uleb128 0x19
 2327 018a 01       		.uleb128 0x1
 2328 018b 13       		.uleb128 0x13
 2329 018c 00       		.byte	0
 2330 018d 00       		.byte	0
 2331 018e 20       		.uleb128 0x20
 2332 018f 05       		.uleb128 0x5
 2333 0190 00       		.byte	0
 2334 0191 03       		.uleb128 0x3
 2335 0192 08       		.uleb128 0x8
 2336 0193 3A       		.uleb128 0x3a
 2337 0194 0B       		.uleb128 0xb
ARM GAS  /tmp/ccjHnIUF.s 			page 42


 2338 0195 3B       		.uleb128 0x3b
 2339 0196 0B       		.uleb128 0xb
 2340 0197 49       		.uleb128 0x49
 2341 0198 13       		.uleb128 0x13
 2342 0199 02       		.uleb128 0x2
 2343 019a 18       		.uleb128 0x18
 2344 019b 00       		.byte	0
 2345 019c 00       		.byte	0
 2346 019d 21       		.uleb128 0x21
 2347 019e 34       		.uleb128 0x34
 2348 019f 00       		.byte	0
 2349 01a0 03       		.uleb128 0x3
 2350 01a1 0E       		.uleb128 0xe
 2351 01a2 49       		.uleb128 0x49
 2352 01a3 13       		.uleb128 0x13
 2353 01a4 34       		.uleb128 0x34
 2354 01a5 19       		.uleb128 0x19
 2355 01a6 00       		.byte	0
 2356 01a7 00       		.byte	0
 2357 01a8 22       		.uleb128 0x22
 2358 01a9 1D       		.uleb128 0x1d
 2359 01aa 01       		.byte	0x1
 2360 01ab 31       		.uleb128 0x31
 2361 01ac 13       		.uleb128 0x13
 2362 01ad 11       		.uleb128 0x11
 2363 01ae 01       		.uleb128 0x1
 2364 01af 12       		.uleb128 0x12
 2365 01b0 06       		.uleb128 0x6
 2366 01b1 58       		.uleb128 0x58
 2367 01b2 0B       		.uleb128 0xb
 2368 01b3 59       		.uleb128 0x59
 2369 01b4 0B       		.uleb128 0xb
 2370 01b5 01       		.uleb128 0x1
 2371 01b6 13       		.uleb128 0x13
 2372 01b7 00       		.byte	0
 2373 01b8 00       		.byte	0
 2374 01b9 23       		.uleb128 0x23
 2375 01ba 1D       		.uleb128 0x1d
 2376 01bb 01       		.byte	0x1
 2377 01bc 31       		.uleb128 0x31
 2378 01bd 13       		.uleb128 0x13
 2379 01be 11       		.uleb128 0x11
 2380 01bf 01       		.uleb128 0x1
 2381 01c0 12       		.uleb128 0x12
 2382 01c1 06       		.uleb128 0x6
 2383 01c2 58       		.uleb128 0x58
 2384 01c3 0B       		.uleb128 0xb
 2385 01c4 59       		.uleb128 0x59
 2386 01c5 05       		.uleb128 0x5
 2387 01c6 00       		.byte	0
 2388 01c7 00       		.byte	0
 2389 01c8 24       		.uleb128 0x24
 2390 01c9 05       		.uleb128 0x5
 2391 01ca 00       		.byte	0
 2392 01cb 31       		.uleb128 0x31
 2393 01cc 13       		.uleb128 0x13
 2394 01cd 02       		.uleb128 0x2
ARM GAS  /tmp/ccjHnIUF.s 			page 43


 2395 01ce 17       		.uleb128 0x17
 2396 01cf 00       		.byte	0
 2397 01d0 00       		.byte	0
 2398 01d1 25       		.uleb128 0x25
 2399 01d2 1D       		.uleb128 0x1d
 2400 01d3 01       		.byte	0x1
 2401 01d4 31       		.uleb128 0x31
 2402 01d5 13       		.uleb128 0x13
 2403 01d6 11       		.uleb128 0x11
 2404 01d7 01       		.uleb128 0x1
 2405 01d8 12       		.uleb128 0x12
 2406 01d9 06       		.uleb128 0x6
 2407 01da 58       		.uleb128 0x58
 2408 01db 0B       		.uleb128 0xb
 2409 01dc 59       		.uleb128 0x59
 2410 01dd 0B       		.uleb128 0xb
 2411 01de 00       		.byte	0
 2412 01df 00       		.byte	0
 2413 01e0 26       		.uleb128 0x26
 2414 01e1 0B       		.uleb128 0xb
 2415 01e2 01       		.byte	0x1
 2416 01e3 11       		.uleb128 0x11
 2417 01e4 01       		.uleb128 0x1
 2418 01e5 12       		.uleb128 0x12
 2419 01e6 06       		.uleb128 0x6
 2420 01e7 00       		.byte	0
 2421 01e8 00       		.byte	0
 2422 01e9 27       		.uleb128 0x27
 2423 01ea 34       		.uleb128 0x34
 2424 01eb 00       		.byte	0
 2425 01ec 31       		.uleb128 0x31
 2426 01ed 13       		.uleb128 0x13
 2427 01ee 00       		.byte	0
 2428 01ef 00       		.byte	0
 2429 01f0 28       		.uleb128 0x28
 2430 01f1 2E       		.uleb128 0x2e
 2431 01f2 01       		.byte	0x1
 2432 01f3 3F       		.uleb128 0x3f
 2433 01f4 19       		.uleb128 0x19
 2434 01f5 03       		.uleb128 0x3
 2435 01f6 0E       		.uleb128 0xe
 2436 01f7 3A       		.uleb128 0x3a
 2437 01f8 0B       		.uleb128 0xb
 2438 01f9 3B       		.uleb128 0x3b
 2439 01fa 0B       		.uleb128 0xb
 2440 01fb 27       		.uleb128 0x27
 2441 01fc 19       		.uleb128 0x19
 2442 01fd 11       		.uleb128 0x11
 2443 01fe 01       		.uleb128 0x1
 2444 01ff 12       		.uleb128 0x12
 2445 0200 06       		.uleb128 0x6
 2446 0201 40       		.uleb128 0x40
 2447 0202 18       		.uleb128 0x18
 2448 0203 9742     		.uleb128 0x2117
 2449 0205 19       		.uleb128 0x19
 2450 0206 01       		.uleb128 0x1
 2451 0207 13       		.uleb128 0x13
ARM GAS  /tmp/ccjHnIUF.s 			page 44


 2452 0208 00       		.byte	0
 2453 0209 00       		.byte	0
 2454 020a 29       		.uleb128 0x29
 2455 020b 05       		.uleb128 0x5
 2456 020c 00       		.byte	0
 2457 020d 03       		.uleb128 0x3
 2458 020e 08       		.uleb128 0x8
 2459 020f 3A       		.uleb128 0x3a
 2460 0210 0B       		.uleb128 0xb
 2461 0211 3B       		.uleb128 0x3b
 2462 0212 0B       		.uleb128 0xb
 2463 0213 49       		.uleb128 0x49
 2464 0214 13       		.uleb128 0x13
 2465 0215 02       		.uleb128 0x2
 2466 0216 17       		.uleb128 0x17
 2467 0217 00       		.byte	0
 2468 0218 00       		.byte	0
 2469 0219 2A       		.uleb128 0x2a
 2470 021a 34       		.uleb128 0x34
 2471 021b 00       		.byte	0
 2472 021c 03       		.uleb128 0x3
 2473 021d 0E       		.uleb128 0xe
 2474 021e 3A       		.uleb128 0x3a
 2475 021f 0B       		.uleb128 0xb
 2476 0220 3B       		.uleb128 0x3b
 2477 0221 0B       		.uleb128 0xb
 2478 0222 49       		.uleb128 0x49
 2479 0223 13       		.uleb128 0x13
 2480 0224 02       		.uleb128 0x2
 2481 0225 17       		.uleb128 0x17
 2482 0226 00       		.byte	0
 2483 0227 00       		.byte	0
 2484 0228 2B       		.uleb128 0x2b
 2485 0229 898201   		.uleb128 0x4109
 2486 022c 01       		.byte	0x1
 2487 022d 11       		.uleb128 0x11
 2488 022e 01       		.uleb128 0x1
 2489 022f 9542     		.uleb128 0x2115
 2490 0231 19       		.uleb128 0x19
 2491 0232 31       		.uleb128 0x31
 2492 0233 13       		.uleb128 0x13
 2493 0234 01       		.uleb128 0x1
 2494 0235 13       		.uleb128 0x13
 2495 0236 00       		.byte	0
 2496 0237 00       		.byte	0
 2497 0238 2C       		.uleb128 0x2c
 2498 0239 8A8201   		.uleb128 0x410a
 2499 023c 00       		.byte	0
 2500 023d 02       		.uleb128 0x2
 2501 023e 18       		.uleb128 0x18
 2502 023f 9142     		.uleb128 0x2111
 2503 0241 18       		.uleb128 0x18
 2504 0242 00       		.byte	0
 2505 0243 00       		.byte	0
 2506 0244 2D       		.uleb128 0x2d
 2507 0245 898201   		.uleb128 0x4109
 2508 0248 00       		.byte	0
ARM GAS  /tmp/ccjHnIUF.s 			page 45


 2509 0249 11       		.uleb128 0x11
 2510 024a 01       		.uleb128 0x1
 2511 024b 9542     		.uleb128 0x2115
 2512 024d 19       		.uleb128 0x19
 2513 024e 31       		.uleb128 0x31
 2514 024f 13       		.uleb128 0x13
 2515 0250 00       		.byte	0
 2516 0251 00       		.byte	0
 2517 0252 2E       		.uleb128 0x2e
 2518 0253 05       		.uleb128 0x5
 2519 0254 00       		.byte	0
 2520 0255 03       		.uleb128 0x3
 2521 0256 0E       		.uleb128 0xe
 2522 0257 3A       		.uleb128 0x3a
 2523 0258 0B       		.uleb128 0xb
 2524 0259 3B       		.uleb128 0x3b
 2525 025a 0B       		.uleb128 0xb
 2526 025b 49       		.uleb128 0x49
 2527 025c 13       		.uleb128 0x13
 2528 025d 02       		.uleb128 0x2
 2529 025e 17       		.uleb128 0x17
 2530 025f 00       		.byte	0
 2531 0260 00       		.byte	0
 2532 0261 2F       		.uleb128 0x2f
 2533 0262 34       		.uleb128 0x34
 2534 0263 00       		.byte	0
 2535 0264 03       		.uleb128 0x3
 2536 0265 08       		.uleb128 0x8
 2537 0266 3A       		.uleb128 0x3a
 2538 0267 0B       		.uleb128 0xb
 2539 0268 3B       		.uleb128 0x3b
 2540 0269 0B       		.uleb128 0xb
 2541 026a 49       		.uleb128 0x49
 2542 026b 13       		.uleb128 0x13
 2543 026c 02       		.uleb128 0x2
 2544 026d 17       		.uleb128 0x17
 2545 026e 00       		.byte	0
 2546 026f 00       		.byte	0
 2547 0270 30       		.uleb128 0x30
 2548 0271 898201   		.uleb128 0x4109
 2549 0274 01       		.byte	0x1
 2550 0275 11       		.uleb128 0x11
 2551 0276 01       		.uleb128 0x1
 2552 0277 31       		.uleb128 0x31
 2553 0278 13       		.uleb128 0x13
 2554 0279 01       		.uleb128 0x1
 2555 027a 13       		.uleb128 0x13
 2556 027b 00       		.byte	0
 2557 027c 00       		.byte	0
 2558 027d 31       		.uleb128 0x31
 2559 027e 898201   		.uleb128 0x4109
 2560 0281 01       		.byte	0x1
 2561 0282 11       		.uleb128 0x11
 2562 0283 01       		.uleb128 0x1
 2563 0284 31       		.uleb128 0x31
 2564 0285 13       		.uleb128 0x13
 2565 0286 00       		.byte	0
ARM GAS  /tmp/ccjHnIUF.s 			page 46


 2566 0287 00       		.byte	0
 2567 0288 32       		.uleb128 0x32
 2568 0289 34       		.uleb128 0x34
 2569 028a 00       		.byte	0
 2570 028b 03       		.uleb128 0x3
 2571 028c 0E       		.uleb128 0xe
 2572 028d 3A       		.uleb128 0x3a
 2573 028e 0B       		.uleb128 0xb
 2574 028f 3B       		.uleb128 0x3b
 2575 0290 05       		.uleb128 0x5
 2576 0291 49       		.uleb128 0x49
 2577 0292 13       		.uleb128 0x13
 2578 0293 3F       		.uleb128 0x3f
 2579 0294 19       		.uleb128 0x19
 2580 0295 3C       		.uleb128 0x3c
 2581 0296 19       		.uleb128 0x19
 2582 0297 00       		.byte	0
 2583 0298 00       		.byte	0
 2584 0299 33       		.uleb128 0x33
 2585 029a 34       		.uleb128 0x34
 2586 029b 00       		.byte	0
 2587 029c 03       		.uleb128 0x3
 2588 029d 08       		.uleb128 0x8
 2589 029e 3A       		.uleb128 0x3a
 2590 029f 0B       		.uleb128 0xb
 2591 02a0 3B       		.uleb128 0x3b
 2592 02a1 05       		.uleb128 0x5
 2593 02a2 49       		.uleb128 0x49
 2594 02a3 13       		.uleb128 0x13
 2595 02a4 3F       		.uleb128 0x3f
 2596 02a5 19       		.uleb128 0x19
 2597 02a6 3C       		.uleb128 0x3c
 2598 02a7 19       		.uleb128 0x19
 2599 02a8 00       		.byte	0
 2600 02a9 00       		.byte	0
 2601 02aa 34       		.uleb128 0x34
 2602 02ab 2E       		.uleb128 0x2e
 2603 02ac 00       		.byte	0
 2604 02ad 3F       		.uleb128 0x3f
 2605 02ae 19       		.uleb128 0x19
 2606 02af 3C       		.uleb128 0x3c
 2607 02b0 19       		.uleb128 0x19
 2608 02b1 6E       		.uleb128 0x6e
 2609 02b2 0E       		.uleb128 0xe
 2610 02b3 03       		.uleb128 0x3
 2611 02b4 0E       		.uleb128 0xe
 2612 02b5 3A       		.uleb128 0x3a
 2613 02b6 0B       		.uleb128 0xb
 2614 02b7 3B       		.uleb128 0x3b
 2615 02b8 0B       		.uleb128 0xb
 2616 02b9 00       		.byte	0
 2617 02ba 00       		.byte	0
 2618 02bb 35       		.uleb128 0x35
 2619 02bc 2E       		.uleb128 0x2e
 2620 02bd 00       		.byte	0
 2621 02be 3F       		.uleb128 0x3f
 2622 02bf 19       		.uleb128 0x19
ARM GAS  /tmp/ccjHnIUF.s 			page 47


 2623 02c0 3C       		.uleb128 0x3c
 2624 02c1 19       		.uleb128 0x19
 2625 02c2 6E       		.uleb128 0x6e
 2626 02c3 0E       		.uleb128 0xe
 2627 02c4 03       		.uleb128 0x3
 2628 02c5 0E       		.uleb128 0xe
 2629 02c6 3A       		.uleb128 0x3a
 2630 02c7 0B       		.uleb128 0xb
 2631 02c8 3B       		.uleb128 0x3b
 2632 02c9 05       		.uleb128 0x5
 2633 02ca 00       		.byte	0
 2634 02cb 00       		.byte	0
 2635 02cc 00       		.byte	0
 2636              		.section	.debug_loc,"",%progbits
 2637              	.Ldebug_loc0:
 2638              	.LLST0:
 2639 0000 00000000 		.4byte	.LVL0
 2640 0004 06000000 		.4byte	.LVL1
 2641 0008 0300     		.2byte	0x3
 2642 000a 08       		.byte	0x8
 2643 000b 20       		.byte	0x20
 2644 000c 9F       		.byte	0x9f
 2645 000d 00000000 		.4byte	0
 2646 0011 00000000 		.4byte	0
 2647              	.LLST1:
 2648 0015 0C000000 		.4byte	.LVL2
 2649 0019 12000000 		.4byte	.LVL3
 2650 001d 0200     		.2byte	0x2
 2651 001f 30       		.byte	0x30
 2652 0020 9F       		.byte	0x9f
 2653 0021 00000000 		.4byte	0
 2654 0025 00000000 		.4byte	0
 2655              	.LLST2:
 2656 0029 00000000 		.4byte	.LVL4
 2657 002d 3D000000 		.4byte	.LVL10-1
 2658 0031 0100     		.2byte	0x1
 2659 0033 50       		.byte	0x50
 2660 0034 3D000000 		.4byte	.LVL10-1
 2661 0038 3E000000 		.4byte	.LVL10
 2662 003c 0400     		.2byte	0x4
 2663 003e F3       		.byte	0xf3
 2664 003f 01       		.uleb128 0x1
 2665 0040 50       		.byte	0x50
 2666 0041 9F       		.byte	0x9f
 2667 0042 3E000000 		.4byte	.LVL10
 2668 0046 48000000 		.4byte	.LVL12
 2669 004a 0100     		.2byte	0x1
 2670 004c 50       		.byte	0x50
 2671 004d 48000000 		.4byte	.LVL12
 2672 0051 4D000000 		.4byte	.LVL13-1
 2673 0055 0100     		.2byte	0x1
 2674 0057 51       		.byte	0x51
 2675 0058 4D000000 		.4byte	.LVL13-1
 2676 005c 4E000000 		.4byte	.LFE228
 2677 0060 0400     		.2byte	0x4
 2678 0062 F3       		.byte	0xf3
 2679 0063 01       		.uleb128 0x1
ARM GAS  /tmp/ccjHnIUF.s 			page 48


 2680 0064 50       		.byte	0x50
 2681 0065 9F       		.byte	0x9f
 2682 0066 00000000 		.4byte	0
 2683 006a 00000000 		.4byte	0
 2684              	.LLST3:
 2685 006e 10000000 		.4byte	.LVL6
 2686 0072 1A000000 		.4byte	.LVL8
 2687 0076 0100     		.2byte	0x1
 2688 0078 53       		.byte	0x53
 2689 0079 1A000000 		.4byte	.LVL8
 2690 007d 36000000 		.4byte	.LVL9
 2691 0081 0200     		.2byte	0x2
 2692 0083 70       		.byte	0x70
 2693 0084 1E       		.sleb128 30
 2694 0085 3E000000 		.4byte	.LVL10
 2695 0089 44000000 		.4byte	.LVL11
 2696 008d 0200     		.2byte	0x2
 2697 008f 70       		.byte	0x70
 2698 0090 1E       		.sleb128 30
 2699 0091 00000000 		.4byte	0
 2700 0095 00000000 		.4byte	0
 2701              	.LLST4:
 2702 0099 00000000 		.4byte	.LVL4
 2703 009d 08000000 		.4byte	.LVL5
 2704 00a1 0300     		.2byte	0x3
 2705 00a3 08       		.byte	0x8
 2706 00a4 20       		.byte	0x20
 2707 00a5 9F       		.byte	0x9f
 2708 00a6 00000000 		.4byte	0
 2709 00aa 00000000 		.4byte	0
 2710              	.LLST5:
 2711 00ae 10000000 		.4byte	.LVL6
 2712 00b2 16000000 		.4byte	.LVL7
 2713 00b6 0200     		.2byte	0x2
 2714 00b8 30       		.byte	0x30
 2715 00b9 9F       		.byte	0x9f
 2716 00ba 00000000 		.4byte	0
 2717 00be 00000000 		.4byte	0
 2718              	.LLST6:
 2719 00c2 00000000 		.4byte	.LVL14
 2720 00c6 0D000000 		.4byte	.LVL15-1
 2721 00ca 0100     		.2byte	0x1
 2722 00cc 50       		.byte	0x50
 2723 00cd 0D000000 		.4byte	.LVL15-1
 2724 00d1 3C000000 		.4byte	.LFE229
 2725 00d5 0400     		.2byte	0x4
 2726 00d7 F3       		.byte	0xf3
 2727 00d8 01       		.uleb128 0x1
 2728 00d9 50       		.byte	0x50
 2729 00da 9F       		.byte	0x9f
 2730 00db 00000000 		.4byte	0
 2731 00df 00000000 		.4byte	0
 2732              	.LLST7:
 2733 00e3 00000000 		.4byte	.LVL14
 2734 00e7 0D000000 		.4byte	.LVL15-1
 2735 00eb 0100     		.2byte	0x1
 2736 00ed 51       		.byte	0x51
ARM GAS  /tmp/ccjHnIUF.s 			page 49


 2737 00ee 0D000000 		.4byte	.LVL15-1
 2738 00f2 3C000000 		.4byte	.LFE229
 2739 00f6 0100     		.2byte	0x1
 2740 00f8 55       		.byte	0x55
 2741 00f9 00000000 		.4byte	0
 2742 00fd 00000000 		.4byte	0
 2743              	.LLST8:
 2744 0101 00000000 		.4byte	.LVL14
 2745 0105 0D000000 		.4byte	.LVL15-1
 2746 0109 0100     		.2byte	0x1
 2747 010b 52       		.byte	0x52
 2748 010c 0D000000 		.4byte	.LVL15-1
 2749 0110 3C000000 		.4byte	.LFE229
 2750 0114 0100     		.2byte	0x1
 2751 0116 56       		.byte	0x56
 2752 0117 00000000 		.4byte	0
 2753 011b 00000000 		.4byte	0
 2754              	.LLST9:
 2755 011f 00000000 		.4byte	.LVL14
 2756 0123 0D000000 		.4byte	.LVL15-1
 2757 0127 0100     		.2byte	0x1
 2758 0129 53       		.byte	0x53
 2759 012a 0D000000 		.4byte	.LVL15-1
 2760 012e 3C000000 		.4byte	.LFE229
 2761 0132 0100     		.2byte	0x1
 2762 0134 57       		.byte	0x57
 2763 0135 00000000 		.4byte	0
 2764 0139 00000000 		.4byte	0
 2765              	.LLST10:
 2766 013d 0E000000 		.4byte	.LVL15
 2767 0141 23000000 		.4byte	.LVL18-1
 2768 0145 0100     		.2byte	0x1
 2769 0147 50       		.byte	0x50
 2770 0148 00000000 		.4byte	0
 2771 014c 00000000 		.4byte	0
 2772              	.LLST11:
 2773 0150 2C000000 		.4byte	.LVL19
 2774 0154 2F000000 		.4byte	.LVL20-1
 2775 0158 0100     		.2byte	0x1
 2776 015a 50       		.byte	0x50
 2777 015b 2F000000 		.4byte	.LVL20-1
 2778 015f 38000000 		.4byte	.LVL22
 2779 0163 0100     		.2byte	0x1
 2780 0165 54       		.byte	0x54
 2781 0166 00000000 		.4byte	0
 2782 016a 00000000 		.4byte	0
 2783              	.LLST12:
 2784 016e 10000000 		.4byte	.LVL16
 2785 0172 16000000 		.4byte	.LVL17
 2786 0176 0300     		.2byte	0x3
 2787 0178 08       		.byte	0x8
 2788 0179 20       		.byte	0x20
 2789 017a 9F       		.byte	0x9f
 2790 017b 00000000 		.4byte	0
 2791 017f 00000000 		.4byte	0
 2792              	.LLST13:
 2793 0183 30000000 		.4byte	.LVL20
ARM GAS  /tmp/ccjHnIUF.s 			page 50


 2794 0187 36000000 		.4byte	.LVL21
 2795 018b 0200     		.2byte	0x2
 2796 018d 30       		.byte	0x30
 2797 018e 9F       		.byte	0x9f
 2798 018f 00000000 		.4byte	0
 2799 0193 00000000 		.4byte	0
 2800              	.LLST14:
 2801 0197 00000000 		.4byte	.LVL23
 2802 019b 11000000 		.4byte	.LVL24-1
 2803 019f 0100     		.2byte	0x1
 2804 01a1 50       		.byte	0x50
 2805 01a2 11000000 		.4byte	.LVL24-1
 2806 01a6 44000000 		.4byte	.LFE230
 2807 01aa 0100     		.2byte	0x1
 2808 01ac 55       		.byte	0x55
 2809 01ad 00000000 		.4byte	0
 2810 01b1 00000000 		.4byte	0
 2811              	.LLST15:
 2812 01b5 00000000 		.4byte	.LVL23
 2813 01b9 11000000 		.4byte	.LVL24-1
 2814 01bd 0100     		.2byte	0x1
 2815 01bf 51       		.byte	0x51
 2816 01c0 11000000 		.4byte	.LVL24-1
 2817 01c4 44000000 		.4byte	.LFE230
 2818 01c8 0100     		.2byte	0x1
 2819 01ca 56       		.byte	0x56
 2820 01cb 00000000 		.4byte	0
 2821 01cf 00000000 		.4byte	0
 2822              	.LLST16:
 2823 01d3 00000000 		.4byte	.LVL23
 2824 01d7 11000000 		.4byte	.LVL24-1
 2825 01db 0100     		.2byte	0x1
 2826 01dd 52       		.byte	0x52
 2827 01de 11000000 		.4byte	.LVL24-1
 2828 01e2 44000000 		.4byte	.LFE230
 2829 01e6 0100     		.2byte	0x1
 2830 01e8 57       		.byte	0x57
 2831 01e9 00000000 		.4byte	0
 2832 01ed 00000000 		.4byte	0
 2833              	.LLST17:
 2834 01f1 00000000 		.4byte	.LVL23
 2835 01f5 11000000 		.4byte	.LVL24-1
 2836 01f9 0100     		.2byte	0x1
 2837 01fb 53       		.byte	0x53
 2838 01fc 11000000 		.4byte	.LVL24-1
 2839 0200 44000000 		.4byte	.LFE230
 2840 0204 0100     		.2byte	0x1
 2841 0206 58       		.byte	0x58
 2842 0207 00000000 		.4byte	0
 2843 020b 00000000 		.4byte	0
 2844              	.LLST18:
 2845 020f 12000000 		.4byte	.LVL24
 2846 0213 27000000 		.4byte	.LVL27-1
 2847 0217 0100     		.2byte	0x1
 2848 0219 50       		.byte	0x50
 2849 021a 00000000 		.4byte	0
 2850 021e 00000000 		.4byte	0
ARM GAS  /tmp/ccjHnIUF.s 			page 51


 2851              	.LLST19:
 2852 0222 32000000 		.4byte	.LVL28
 2853 0226 35000000 		.4byte	.LVL29-1
 2854 022a 0100     		.2byte	0x1
 2855 022c 50       		.byte	0x50
 2856 022d 35000000 		.4byte	.LVL29-1
 2857 0231 3E000000 		.4byte	.LVL31
 2858 0235 0100     		.2byte	0x1
 2859 0237 54       		.byte	0x54
 2860 0238 00000000 		.4byte	0
 2861 023c 00000000 		.4byte	0
 2862              	.LLST20:
 2863 0240 14000000 		.4byte	.LVL25
 2864 0244 1A000000 		.4byte	.LVL26
 2865 0248 0300     		.2byte	0x3
 2866 024a 08       		.byte	0x8
 2867 024b 20       		.byte	0x20
 2868 024c 9F       		.byte	0x9f
 2869 024d 00000000 		.4byte	0
 2870 0251 00000000 		.4byte	0
 2871              	.LLST21:
 2872 0255 36000000 		.4byte	.LVL29
 2873 0259 3C000000 		.4byte	.LVL30
 2874 025d 0200     		.2byte	0x2
 2875 025f 30       		.byte	0x30
 2876 0260 9F       		.byte	0x9f
 2877 0261 00000000 		.4byte	0
 2878 0265 00000000 		.4byte	0
 2879              		.section	.debug_aranges,"",%progbits
 2880 0000 34000000 		.4byte	0x34
 2881 0004 0200     		.2byte	0x2
 2882 0006 00000000 		.4byte	.Ldebug_info0
 2883 000a 04       		.byte	0x4
 2884 000b 00       		.byte	0
 2885 000c 0000     		.2byte	0
 2886 000e 0000     		.2byte	0
 2887 0010 00000000 		.4byte	.LFB227
 2888 0014 14000000 		.4byte	.LFE227-.LFB227
 2889 0018 00000000 		.4byte	.LFB228
 2890 001c 4E000000 		.4byte	.LFE228-.LFB228
 2891 0020 00000000 		.4byte	.LFB229
 2892 0024 3C000000 		.4byte	.LFE229-.LFB229
 2893 0028 00000000 		.4byte	.LFB230
 2894 002c 44000000 		.4byte	.LFE230-.LFB230
 2895 0030 00000000 		.4byte	0
 2896 0034 00000000 		.4byte	0
 2897              		.section	.debug_ranges,"",%progbits
 2898              	.Ldebug_ranges0:
 2899 0000 00000000 		.4byte	.LFB227
 2900 0004 14000000 		.4byte	.LFE227
 2901 0008 00000000 		.4byte	.LFB228
 2902 000c 4E000000 		.4byte	.LFE228
 2903 0010 00000000 		.4byte	.LFB229
 2904 0014 3C000000 		.4byte	.LFE229
 2905 0018 00000000 		.4byte	.LFB230
 2906 001c 44000000 		.4byte	.LFE230
 2907 0020 00000000 		.4byte	0
ARM GAS  /tmp/ccjHnIUF.s 			page 52


 2908 0024 00000000 		.4byte	0
 2909              		.section	.debug_line,"",%progbits
 2910              	.Ldebug_line0:
 2911 0000 36030000 		.section	.debug_str,"MS",%progbits,1
 2911      02007002 
 2911      00000201 
 2911      FB0E0D00 
 2911      01010101 
 2912              	.LASF102:
 2913 0000 7466756E 		.ascii	"tfunc_t\000"
 2913      635F7400 
 2914              	.LASF52:
 2915 0008 72656164 		.ascii	"ready_list_t\000"
 2915      795F6C69 
 2915      73745F74 
 2915      00
 2916              	.LASF4:
 2917 0015 73697A65 		.ascii	"size_t\000"
 2917      5F7400
 2918              	.LASF110:
 2919 001c 6E657874 		.ascii	"next\000"
 2919      00
 2920              	.LASF87:
 2921 0021 7264796D 		.ascii	"rdymsg\000"
 2921      736700
 2922              	.LASF18:
 2923 0028 75696E74 		.ascii	"uint64_t\000"
 2923      36345F74 
 2923      00
 2924              	.LASF5:
 2925 0031 5F5F7569 		.ascii	"__uint8_t\000"
 2925      6E74385F 
 2925      7400
 2926              	.LASF84:
 2927 003b 706F7274 		.ascii	"port_intctx\000"
 2927      5F696E74 
 2927      63747800 
 2928              	.LASF71:
 2929 0047 73797374 		.ascii	"system_debug_t\000"
 2929      656D5F64 
 2929      65627567 
 2929      5F7400
 2930              	.LASF120:
 2931 0056 706F7274 		.ascii	"port_lock\000"
 2931      5F6C6F63 
 2931      6B00
 2932              	.LASF104:
 2933 0060 6D656D67 		.ascii	"memgetfunc_t\000"
 2933      65746675 
 2933      6E635F74 
 2933      00
 2934              	.LASF14:
 2935 006d 6C6F6E67 		.ascii	"long long unsigned int\000"
 2935      206C6F6E 
 2935      6720756E 
 2935      7369676E 
 2935      65642069 
ARM GAS  /tmp/ccjHnIUF.s 			page 53


 2936              	.LASF88:
 2937 0084 65786974 		.ascii	"exitcode\000"
 2937      636F6465 
 2937      00
 2938              	.LASF108:
 2939 008d 685F6672 		.ascii	"h_free\000"
 2939      656500
 2940              	.LASF68:
 2941 0094 76697274 		.ascii	"virtual_timers_list_t\000"
 2941      75616C5F 
 2941      74696D65 
 2941      72735F6C 
 2941      6973745F 
 2942              	.LASF132:
 2943 00aa 49544D5F 		.ascii	"ITM_RxBuffer\000"
 2943      52784275 
 2943      66666572 
 2943      00
 2944              	.LASF128:
 2945 00b7 68656170 		.ascii	"heapp\000"
 2945      7000
 2946              	.LASF140:
 2947 00bd 2F686F6D 		.ascii	"/home/selim/working/ChibiOS/os/rt/src/chdynamic.c\000"
 2947      652F7365 
 2947      6C696D2F 
 2947      776F726B 
 2947      696E672F 
 2948              	.LASF51:
 2949 00ef 63685F74 		.ascii	"ch_threads_queue\000"
 2949      68726561 
 2949      64735F71 
 2949      75657565 
 2949      00
 2950              	.LASF31:
 2951 0100 705F7072 		.ascii	"p_prio\000"
 2951      696F00
 2952              	.LASF1:
 2953 0107 6C6F6E67 		.ascii	"long long int\000"
 2953      206C6F6E 
 2953      6720696E 
 2953      7400
 2954              	.LASF3:
 2955 0115 7369676E 		.ascii	"signed char\000"
 2955      65642063 
 2955      68617200 
 2956              	.LASF109:
 2957 0121 685F6D74 		.ascii	"h_mtx\000"
 2957      7800
 2958              	.LASF45:
 2959 0127 705F6D70 		.ascii	"p_mpool\000"
 2959      6F6F6C00 
 2960              	.LASF98:
 2961 012f 6D5F7175 		.ascii	"m_queue\000"
 2961      65756500 
 2962              	.LASF133:
 2963 0137 63684865 		.ascii	"chHeapFree\000"
 2963      61704672 
ARM GAS  /tmp/ccjHnIUF.s 			page 54


 2963      656500
 2964              	.LASF77:
 2965 0142 76746C69 		.ascii	"vtlist\000"
 2965      737400
 2966              	.LASF121:
 2967 0149 706F7274 		.ascii	"port_unlock\000"
 2967      5F756E6C 
 2967      6F636B00 
 2968              	.LASF136:
 2969 0155 63685468 		.ascii	"chThdCreateI\000"
 2969      64437265 
 2969      61746549 
 2969      00
 2970              	.LASF139:
 2971 0162 474E5520 		.ascii	"GNU C11 5.3.1 20160307 (release) [ARM/embedded-5-br"
 2971      43313120 
 2971      352E332E 
 2971      31203230 
 2971      31363033 
 2972 0195 616E6368 		.ascii	"anch revision 234589] -mcpu=cortex-m4 -mno-thumb-in"
 2972      20726576 
 2972      6973696F 
 2972      6E203233 
 2972      34353839 
 2973 01c8 74657277 		.ascii	"terwork -mthumb -ggdb -O2 -fomit-frame-pointer -fal"
 2973      6F726B20 
 2973      2D6D7468 
 2973      756D6220 
 2973      2D676764 
 2974 01fb 69676E2D 		.ascii	"ign-functions=16 -ffunction-sections -fdata-section"
 2974      66756E63 
 2974      74696F6E 
 2974      733D3136 
 2974      202D6666 
 2975 022e 73202D66 		.ascii	"s -fno-common\000"
 2975      6E6F2D63 
 2975      6F6D6D6F 
 2975      6E00
 2976              	.LASF90:
 2977 023c 77747472 		.ascii	"wttrp\000"
 2977      7000
 2978              	.LASF75:
 2979 0242 63685F73 		.ascii	"ch_system\000"
 2979      79737465 
 2979      6D00
 2980              	.LASF10:
 2981 024c 6C6F6E67 		.ascii	"long int\000"
 2981      20696E74 
 2981      00
 2982              	.LASF127:
 2983 0255 63685468 		.ascii	"chThdCreateFromHeap\000"
 2983      64437265 
 2983      61746546 
 2983      726F6D48 
 2983      65617000 
 2984              	.LASF21:
 2985 0269 74737461 		.ascii	"tstate_t\000"
ARM GAS  /tmp/ccjHnIUF.s 			page 55


 2985      74655F74 
 2985      00
 2986              	.LASF105:
 2987 0272 6D656D6F 		.ascii	"memory_heap_t\000"
 2987      72795F68 
 2987      6561705F 
 2987      7400
 2988              	.LASF116:
 2989 0280 6D705F6E 		.ascii	"mp_next\000"
 2989      65787400 
 2990              	.LASF33:
 2991 0288 705F6E65 		.ascii	"p_newer\000"
 2991      77657200 
 2992              	.LASF95:
 2993 0290 735F7175 		.ascii	"s_queue\000"
 2993      65756500 
 2994              	.LASF131:
 2995 0298 63685468 		.ascii	"chThdCreateFromMemoryPool\000"
 2995      64437265 
 2995      61746546 
 2995      726F6D4D 
 2995      656D6F72 
 2996              	.LASF57:
 2997 02b2 725F6E65 		.ascii	"r_newer\000"
 2997      77657200 
 2998              	.LASF118:
 2999 02ba 6D705F70 		.ascii	"mp_provider\000"
 2999      726F7669 
 2999      64657200 
 3000              	.LASF81:
 3001 02c6 72656761 		.ascii	"regarm_t\000"
 3001      726D5F74 
 3001      00
 3002              	.LASF64:
 3003 02cf 76745F70 		.ascii	"vt_prev\000"
 3003      72657600 
 3004              	.LASF103:
 3005 02d7 6D757465 		.ascii	"mutex_t\000"
 3005      785F7400 
 3006              	.LASF142:
 3007 02df 76616C75 		.ascii	"value\000"
 3007      6500
 3008              	.LASF112:
 3009 02e5 616C6967 		.ascii	"align\000"
 3009      6E00
 3010              	.LASF79:
 3011 02eb 69646C65 		.ascii	"idle_thread_wa\000"
 3011      5F746872 
 3011      6561645F 
 3011      776100
 3012              	.LASF26:
 3013 02fa 636E745F 		.ascii	"cnt_t\000"
 3013      7400
 3014              	.LASF0:
 3015 0300 756E7369 		.ascii	"unsigned int\000"
 3015      676E6564 
 3015      20696E74 
ARM GAS  /tmp/ccjHnIUF.s 			page 56


 3015      00
 3016              	.LASF63:
 3017 030d 76745F6E 		.ascii	"vt_next\000"
 3017      65787400 
 3018              	.LASF91:
 3019 0315 77747365 		.ascii	"wtsemp\000"
 3019      6D7000
 3020              	.LASF40:
 3021 031c 705F6D73 		.ascii	"p_msgqueue\000"
 3021      67717565 
 3021      756500
 3022              	.LASF119:
 3023 0327 6D656D6F 		.ascii	"memory_pool_t\000"
 3023      72795F70 
 3023      6F6F6C5F 
 3023      7400
 3024              	.LASF96:
 3025 0335 735F636E 		.ascii	"s_cnt\000"
 3025      7400
 3026              	.LASF8:
 3027 033b 73686F72 		.ascii	"short unsigned int\000"
 3027      7420756E 
 3027      7369676E 
 3027      65642069 
 3027      6E7400
 3028              	.LASF48:
 3029 034e 63685F74 		.ascii	"ch_thread\000"
 3029      68726561 
 3029      6400
 3030              	.LASF137:
 3031 0358 63685363 		.ascii	"chSchWakeupS\000"
 3031      6857616B 
 3031      65757053 
 3031      00
 3032              	.LASF78:
 3033 0365 6D61696E 		.ascii	"mainthread\000"
 3033      74687265 
 3033      616400
 3034              	.LASF24:
 3035 0370 6D73675F 		.ascii	"msg_t\000"
 3035      7400
 3036              	.LASF74:
 3037 0376 63685F73 		.ascii	"ch_system_t\000"
 3037      79737465 
 3037      6D5F7400 
 3038              	.LASF20:
 3039 0382 746D6F64 		.ascii	"tmode_t\000"
 3039      655F7400 
 3040              	.LASF53:
 3041 038a 63685F72 		.ascii	"ch_ready_list\000"
 3041      65616479 
 3041      5F6C6973 
 3041      7400
 3042              	.LASF25:
 3043 0398 6576656E 		.ascii	"eventmask_t\000"
 3043      746D6173 
 3043      6B5F7400 
ARM GAS  /tmp/ccjHnIUF.s 			page 57


 3044              	.LASF9:
 3045 03a4 5F5F696E 		.ascii	"__int32_t\000"
 3045      7433325F 
 3045      7400
 3046              	.LASF126:
 3047 03ae 63685468 		.ascii	"chThdAddRef\000"
 3047      64416464 
 3047      52656600 
 3048              	.LASF82:
 3049 03ba 73746B61 		.ascii	"stkalign_t\000"
 3049      6C69676E 
 3049      5F7400
 3050              	.LASF39:
 3051 03c5 705F7761 		.ascii	"p_waiting\000"
 3051      6974696E 
 3051      6700
 3052              	.LASF80:
 3053 03cf 73697A65 		.ascii	"sizetype\000"
 3053      74797065 
 3053      00
 3054              	.LASF46:
 3055 03d8 74687265 		.ascii	"thread_reference_t\000"
 3055      61645F72 
 3055      65666572 
 3055      656E6365 
 3055      5F7400
 3056              	.LASF69:
 3057 03eb 63685F76 		.ascii	"ch_virtual_timers_list\000"
 3057      69727475 
 3057      616C5F74 
 3057      696D6572 
 3057      735F6C69 
 3058              	.LASF2:
 3059 0402 6C6F6E67 		.ascii	"long double\000"
 3059      20646F75 
 3059      626C6500 
 3060              	.LASF70:
 3061 040e 76745F6C 		.ascii	"vt_lasttime\000"
 3061      61737474 
 3061      696D6500 
 3062              	.LASF34:
 3063 041a 705F6F6C 		.ascii	"p_older\000"
 3063      64657200 
 3064              	.LASF56:
 3065 0422 725F6374 		.ascii	"r_ctx\000"
 3065      7800
 3066              	.LASF117:
 3067 0428 6D705F6F 		.ascii	"mp_object_size\000"
 3067      626A6563 
 3067      745F7369 
 3067      7A6500
 3068              	.LASF86:
 3069 0437 746D5F63 		.ascii	"tm_calibration_t\000"
 3069      616C6962 
 3069      72617469 
 3069      6F6E5F74 
 3069      00
ARM GAS  /tmp/ccjHnIUF.s 			page 58


 3070              	.LASF129:
 3071 0448 7072696F 		.ascii	"prio\000"
 3071      00
 3072              	.LASF58:
 3073 044d 725F6F6C 		.ascii	"r_older\000"
 3073      64657200 
 3074              	.LASF13:
 3075 0455 5F5F7569 		.ascii	"__uint64_t\000"
 3075      6E743634 
 3075      5F7400
 3076              	.LASF115:
 3077 0460 70685F6E 		.ascii	"ph_next\000"
 3077      65787400 
 3078              	.LASF22:
 3079 0468 74726566 		.ascii	"trefs_t\000"
 3079      735F7400 
 3080              	.LASF130:
 3081 0470 72656673 		.ascii	"refs\000"
 3081      00
 3082              	.LASF61:
 3083 0475 76697274 		.ascii	"virtual_timer_t\000"
 3083      75616C5F 
 3083      74696D65 
 3083      725F7400 
 3084              	.LASF30:
 3085 0485 705F7072 		.ascii	"p_prev\000"
 3085      657600
 3086              	.LASF23:
 3087 048c 74707269 		.ascii	"tprio_t\000"
 3087      6F5F7400 
 3088              	.LASF72:
 3089 0494 63685F73 		.ascii	"ch_system_debug\000"
 3089      79737465 
 3089      6D5F6465 
 3089      62756700 
 3090              	.LASF16:
 3091 04a4 696E7433 		.ascii	"int32_t\000"
 3091      325F7400 
 3092              	.LASF6:
 3093 04ac 756E7369 		.ascii	"unsigned char\000"
 3093      676E6564 
 3093      20636861 
 3093      7200
 3094              	.LASF141:
 3095 04ba 68656170 		.ascii	"heap_header\000"
 3095      5F686561 
 3095      64657200 
 3096              	.LASF43:
 3097 04c6 705F6D74 		.ascii	"p_mtxlist\000"
 3097      786C6973 
 3097      7400
 3098              	.LASF7:
 3099 04d0 73686F72 		.ascii	"short int\000"
 3099      7420696E 
 3099      7400
 3100              	.LASF36:
 3101 04da 705F7374 		.ascii	"p_state\000"
ARM GAS  /tmp/ccjHnIUF.s 			page 59


 3101      61746500 
 3102              	.LASF55:
 3103 04e2 725F7072 		.ascii	"r_prio\000"
 3103      696F00
 3104              	.LASF93:
 3105 04e9 65776D61 		.ascii	"ewmask\000"
 3105      736B00
 3106              	.LASF29:
 3107 04f0 705F6E65 		.ascii	"p_next\000"
 3107      787400
 3108              	.LASF37:
 3109 04f7 705F666C 		.ascii	"p_flags\000"
 3109      61677300 
 3110              	.LASF125:
 3111 04ff 5F5F6675 		.ascii	"__func__\000"
 3111      6E635F5F 
 3111      00
 3112              	.LASF124:
 3113 0508 63685379 		.ascii	"chSysLock\000"
 3113      734C6F63 
 3113      6B00
 3114              	.LASF143:
 3115 0512 63685468 		.ascii	"chThdRelease\000"
 3115      6452656C 
 3115      65617365 
 3115      00
 3116              	.LASF135:
 3117 051f 63684865 		.ascii	"chHeapAlloc\000"
 3117      6170416C 
 3117      6C6F6300 
 3118              	.LASF94:
 3119 052b 63685F73 		.ascii	"ch_semaphore\000"
 3119      656D6170 
 3119      686F7265 
 3119      00
 3120              	.LASF42:
 3121 0538 705F6570 		.ascii	"p_epending\000"
 3121      656E6469 
 3121      6E6700
 3122              	.LASF17:
 3123 0543 75696E74 		.ascii	"uint32_t\000"
 3123      33325F74 
 3123      00
 3124              	.LASF92:
 3125 054c 77746D74 		.ascii	"wtmtxp\000"
 3125      787000
 3126              	.LASF54:
 3127 0553 725F7175 		.ascii	"r_queue\000"
 3127      65756500 
 3128              	.LASF65:
 3129 055b 76745F64 		.ascii	"vt_delta\000"
 3129      656C7461 
 3129      00
 3130              	.LASF49:
 3131 0564 63685F74 		.ascii	"ch_threads_list\000"
 3131      68726561 
 3131      64735F6C 
ARM GAS  /tmp/ccjHnIUF.s 			page 60


 3131      69737400 
 3132              	.LASF111:
 3133 0574 68656170 		.ascii	"heap\000"
 3133      00
 3134              	.LASF12:
 3135 0579 6C6F6E67 		.ascii	"long unsigned int\000"
 3135      20756E73 
 3135      69676E65 
 3135      6420696E 
 3135      7400
 3136              	.LASF59:
 3137 058b 725F6375 		.ascii	"r_current\000"
 3137      7272656E 
 3137      7400
 3138              	.LASF101:
 3139 0595 63686172 		.ascii	"char\000"
 3139      00
 3140              	.LASF28:
 3141 059a 74687265 		.ascii	"thread_t\000"
 3141      61645F74 
 3141      00
 3142              	.LASF100:
 3143 05a3 6D5F6E65 		.ascii	"m_next\000"
 3143      787400
 3144              	.LASF27:
 3145 05aa 73797374 		.ascii	"systime_t\000"
 3145      696D655F 
 3145      7400
 3146              	.LASF44:
 3147 05b4 705F7265 		.ascii	"p_realprio\000"
 3147      616C7072 
 3147      696F00
 3148              	.LASF60:
 3149 05bf 76746675 		.ascii	"vtfunc_t\000"
 3149      6E635F74 
 3149      00
 3150              	.LASF11:
 3151 05c8 5F5F7569 		.ascii	"__uint32_t\000"
 3151      6E743332 
 3151      5F7400
 3152              	.LASF122:
 3153 05d3 5F5F7365 		.ascii	"__set_BASEPRI\000"
 3153      745F4241 
 3153      53455052 
 3153      4900
 3154              	.LASF73:
 3155 05e1 70616E69 		.ascii	"panic_msg\000"
 3155      635F6D73 
 3155      6700
 3156              	.LASF85:
 3157 05eb 6F666673 		.ascii	"offset\000"
 3157      657400
 3158              	.LASF97:
 3159 05f2 63685F6D 		.ascii	"ch_mutex\000"
 3159      75746578 
 3159      00
 3160              	.LASF83:
ARM GAS  /tmp/ccjHnIUF.s 			page 61


 3161 05fb 636F6E74 		.ascii	"context\000"
 3161      65787400 
 3162              	.LASF62:
 3163 0603 63685F76 		.ascii	"ch_virtual_timer\000"
 3163      69727475 
 3163      616C5F74 
 3163      696D6572 
 3163      00
 3164              	.LASF19:
 3165 0614 7274636E 		.ascii	"rtcnt_t\000"
 3165      745F7400 
 3166              	.LASF67:
 3167 061c 76745F70 		.ascii	"vt_par\000"
 3167      617200
 3168              	.LASF50:
 3169 0623 74687265 		.ascii	"threads_queue_t\000"
 3169      6164735F 
 3169      71756575 
 3169      655F7400 
 3170              	.LASF114:
 3171 0633 706F6F6C 		.ascii	"pool_header\000"
 3171      5F686561 
 3171      64657200 
 3172              	.LASF38:
 3173 063f 705F7265 		.ascii	"p_refs\000"
 3173      667300
 3174              	.LASF76:
 3175 0646 726C6973 		.ascii	"rlist\000"
 3175      7400
 3176              	.LASF15:
 3177 064c 75696E74 		.ascii	"uint8_t\000"
 3177      385F7400 
 3178              	.LASF138:
 3179 0654 6368506F 		.ascii	"chPoolAlloc\000"
 3179      6F6C416C 
 3179      6C6F6300 
 3180              	.LASF134:
 3181 0660 6368506F 		.ascii	"chPoolFree\000"
 3181      6F6C4672 
 3181      656500
 3182              	.LASF107:
 3183 066b 685F7072 		.ascii	"h_provider\000"
 3183      6F766964 
 3183      657200
 3184              	.LASF89:
 3185 0676 77746F62 		.ascii	"wtobjp\000"
 3185      6A7000
 3186              	.LASF35:
 3187 067d 705F6E61 		.ascii	"p_name\000"
 3187      6D6500
 3188              	.LASF113:
 3189 0684 73697A65 		.ascii	"size\000"
 3189      00
 3190              	.LASF47:
 3191 0689 74687265 		.ascii	"threads_list_t\000"
 3191      6164735F 
 3191      6C697374 
ARM GAS  /tmp/ccjHnIUF.s 			page 62


 3191      5F7400
 3192              	.LASF123:
 3193 0698 63685379 		.ascii	"chSysUnlock\000"
 3193      73556E6C 
 3193      6F636B00 
 3194              	.LASF41:
 3195 06a4 705F6D73 		.ascii	"p_msg\000"
 3195      6700
 3196              	.LASF99:
 3197 06aa 6D5F6F77 		.ascii	"m_owner\000"
 3197      6E657200 
 3198              	.LASF32:
 3199 06b2 705F6374 		.ascii	"p_ctx\000"
 3199      7800
 3200              	.LASF66:
 3201 06b8 76745F66 		.ascii	"vt_func\000"
 3201      756E6300 
 3202              	.LASF106:
 3203 06c0 6D656D6F 		.ascii	"memory_heap\000"
 3203      72795F68 
 3203      65617000 
 3204              		.ident	"GCC: (GNU Tools for ARM Embedded Processors) 5.3.1 20160307 (release) [ARM/embedded-5-bran
ARM GAS  /tmp/ccjHnIUF.s 			page 63


DEFINED SYMBOLS
                            *ABS*:0000000000000000 chdynamic.c
     /tmp/ccjHnIUF.s:20     .text.chThdAddRef:0000000000000000 $t
     /tmp/ccjHnIUF.s:26     .text.chThdAddRef:0000000000000000 chThdAddRef
     /tmp/ccjHnIUF.s:83     .text.chThdRelease:0000000000000000 $t
     /tmp/ccjHnIUF.s:89     .text.chThdRelease:0000000000000000 chThdRelease
     /tmp/ccjHnIUF.s:189    .text.chThdCreateFromHeap:0000000000000000 $t
     /tmp/ccjHnIUF.s:195    .text.chThdCreateFromHeap:0000000000000000 chThdCreateFromHeap
     /tmp/ccjHnIUF.s:289    .text.chThdCreateFromMemoryPool:0000000000000000 $t
     /tmp/ccjHnIUF.s:295    .text.chThdCreateFromMemoryPool:0000000000000000 chThdCreateFromMemoryPool
                     .debug_frame:0000000000000010 $d

UNDEFINED SYMBOLS
chHeapFree
chPoolFree
chHeapAlloc
chThdCreateI
chSchWakeupS
chPoolAlloc
