ARM GAS  /tmp/ccpOFzYT.s 			page 1


   1              		.syntax unified
   2              		.cpu cortex-m4
   3              		.fpu softvfp
   4              		.eabi_attribute 20, 1
   5              		.eabi_attribute 21, 1
   6              		.eabi_attribute 23, 3
   7              		.eabi_attribute 24, 1
   8              		.eabi_attribute 25, 1
   9              		.eabi_attribute 26, 1
  10              		.eabi_attribute 30, 2
  11              		.eabi_attribute 34, 1
  12              		.eabi_attribute 18, 4
  13              		.thumb
  14              		.syntax unified
  15              		.file	"chheap.c"
  16              		.text
  17              	.Ltext0:
  18              		.cfi_sections	.debug_frame
  19              		.section	.text._heap_init,"ax",%progbits
  20              		.align	2
  21              		.p2align 4,,15
  22              		.global	_heap_init
  23              		.thumb
  24              		.thumb_func
  25              		.type	_heap_init, %function
  26              	_heap_init:
  27              	.LFB227:
  28              		.file 1 "/home/selim/working/ChibiOS/os/rt/src/chheap.c"
  29              		.loc 1 91 0
  30              		.cfi_startproc
  31              		@ args = 0, pretend = 0, frame = 0
  32              		@ frame_needed = 0, uses_anonymous_args = 0
  33              		@ link register save eliminated.
  34              		.loc 1 93 0
  35 0000 044B     		ldr	r3, .L2
  36 0002 054A     		ldr	r2, .L2+4
  37 0004 1A60     		str	r2, [r3]
  38              		.loc 1 97 0
  39 0006 03F11000 		add	r0, r3, #16
  40              		.loc 1 94 0
  41 000a 0022     		movs	r2, #0
  42 000c 9A60     		str	r2, [r3, #8]
  43              		.loc 1 95 0
  44 000e DA60     		str	r2, [r3, #12]
  45              		.loc 1 97 0
  46 0010 FFF7FEBF 		b	chMtxObjectInit
  47              	.LVL0:
  48              	.L3:
  49              		.align	2
  50              	.L2:
  51 0014 00000000 		.word	.LANCHOR0
  52 0018 00000000 		.word	chCoreAlloc
  53              		.cfi_endproc
  54              	.LFE227:
  55              		.size	_heap_init, .-_heap_init
  56              		.section	.text.chHeapObjectInit,"ax",%progbits
  57              		.align	2
ARM GAS  /tmp/ccpOFzYT.s 			page 2


  58              		.p2align 4,,15
  59              		.global	chHeapObjectInit
  60              		.thumb
  61              		.thumb_func
  62              		.type	chHeapObjectInit, %function
  63              	chHeapObjectInit:
  64              	.LFB228:
  65              		.loc 1 114 0
  66              		.cfi_startproc
  67              		@ args = 0, pretend = 0, frame = 0
  68              		@ frame_needed = 0, uses_anonymous_args = 0
  69              		@ link register save eliminated.
  70              	.LVL1:
  71              		.loc 1 119 0
  72 0000 0023     		movs	r3, #0
  73              		.loc 1 123 0
  74 0002 083A     		subs	r2, r2, #8
  75              	.LVL2:
  76              		.loc 1 120 0
  77 0004 8160     		str	r1, [r0, #8]
  78              		.loc 1 119 0
  79 0006 0360     		str	r3, [r0]
  80              		.loc 1 121 0
  81 0008 C360     		str	r3, [r0, #12]
  82              		.loc 1 125 0
  83 000a 1030     		adds	r0, r0, #16
  84              	.LVL3:
  85              		.loc 1 123 0
  86 000c 4A60     		str	r2, [r1, #4]
  87              		.loc 1 122 0
  88 000e 0B60     		str	r3, [r1]
  89              		.loc 1 125 0
  90 0010 FFF7FEBF 		b	chMtxObjectInit
  91              	.LVL4:
  92              		.cfi_endproc
  93              	.LFE228:
  94              		.size	chHeapObjectInit, .-chHeapObjectInit
  95              		.section	.text.chHeapAlloc,"ax",%progbits
  96              		.align	2
  97              		.p2align 4,,15
  98              		.global	chHeapAlloc
  99              		.thumb
 100              		.thumb_func
 101              		.type	chHeapAlloc, %function
 102              	chHeapAlloc:
 103              	.LFB229:
 104              		.loc 1 147 0
 105              		.cfi_startproc
 106              		@ args = 0, pretend = 0, frame = 0
 107              		@ frame_needed = 0, uses_anonymous_args = 0
 108              	.LVL5:
 109 0000 F8B5     		push	{r3, r4, r5, r6, r7, lr}
 110              		.cfi_def_cfa_offset 24
 111              		.cfi_offset 3, -24
 112              		.cfi_offset 4, -20
 113              		.cfi_offset 5, -16
 114              		.cfi_offset 6, -12
ARM GAS  /tmp/ccpOFzYT.s 			page 3


 115              		.cfi_offset 7, -8
 116              		.cfi_offset 14, -4
 117              		.loc 1 151 0
 118 0002 214E     		ldr	r6, .L21
 119 0004 0028     		cmp	r0, #0
 120 0006 18BF     		it	ne
 121 0008 0646     		movne	r6, r0
 122              	.LVL6:
 123              		.loc 1 157 0
 124 000a 06F11007 		add	r7, r6, #16
 125              		.loc 1 154 0
 126 000e 0731     		adds	r1, r1, #7
 127              	.LVL7:
 128              		.loc 1 157 0
 129 0010 3846     		mov	r0, r7
 130              		.loc 1 154 0
 131 0012 21F00705 		bic	r5, r1, #7
 132              	.LVL8:
 133              		.loc 1 155 0
 134 0016 06F10804 		add	r4, r6, #8
 135              	.LVL9:
 136              		.loc 1 157 0
 137 001a FFF7FEFF 		bl	chMtxLock
 138              	.LVL10:
 139              		.loc 1 158 0
 140 001e 03E0     		b	.L7
 141              	.LVL11:
 142              	.L11:
 143              		.loc 1 160 0
 144 0020 4368     		ldr	r3, [r0, #4]
 145 0022 9D42     		cmp	r5, r3
 146 0024 12D9     		bls	.L20
 147 0026 0446     		mov	r4, r0
 148              	.LVL12:
 149              	.L7:
 150              		.loc 1 158 0
 151 0028 2068     		ldr	r0, [r4]
 152              	.LVL13:
 153 002a 0028     		cmp	r0, #0
 154 002c F8D1     		bne	.L11
 155              		.loc 1 186 0
 156 002e 3846     		mov	r0, r7
 157              	.LVL14:
 158 0030 FFF7FEFF 		bl	chMtxUnlock
 159              	.LVL15:
 160              		.loc 1 190 0
 161 0034 3368     		ldr	r3, [r6]
 162 0036 2BB3     		cbz	r3, .L13
 163              		.loc 1 191 0
 164 0038 05F10800 		add	r0, r5, #8
 165 003c 9847     		blx	r3
 166              	.LVL16:
 167              		.loc 1 192 0
 168 003e 08B3     		cbz	r0, .L13
 169              		.loc 1 193 0
 170 0040 0660     		str	r6, [r0]
 171              		.loc 1 194 0
ARM GAS  /tmp/ccpOFzYT.s 			page 4


 172 0042 4560     		str	r5, [r0, #4]
 173              		.loc 1 195 0
 174 0044 00F10804 		add	r4, r0, #8
 175              	.LVL17:
 176              	.L10:
 177              		.loc 1 204 0
 178 0048 2046     		mov	r0, r4
 179 004a F8BD     		pop	{r3, r4, r5, r6, r7, pc}
 180              	.LVL18:
 181              	.L20:
 182              		.loc 1 161 0
 183 004c 05F10802 		add	r2, r5, #8
 184 0050 9342     		cmp	r3, r2
 185 0052 09D2     		bcs	.L8
 186              		.loc 1 165 0
 187 0054 0368     		ldr	r3, [r0]
 188 0056 2360     		str	r3, [r4]
 189              	.L9:
 190              		.loc 1 177 0
 191 0058 0446     		mov	r4, r0
 192              	.LVL19:
 193              		.loc 1 178 0
 194 005a 3846     		mov	r0, r7
 195              	.LVL20:
 196              		.loc 1 177 0
 197 005c 44F8086B 		str	r6, [r4], #8
 198              	.LVL21:
 199              		.loc 1 178 0
 200 0060 FFF7FEFF 		bl	chMtxUnlock
 201              	.LVL22:
 202              		.loc 1 204 0
 203 0064 2046     		mov	r0, r4
 204 0066 F8BD     		pop	{r3, r4, r5, r6, r7, pc}
 205              	.LVL23:
 206              	.L8:
 207              		.loc 1 173 0
 208 0068 6FF00701 		mvn	r1, #7
 209 006c 491B     		subs	r1, r1, r5
 210              		.loc 1 170 0
 211 006e 00EB020E 		add	lr, r0, r2
 212              	.LVL24:
 213              		.loc 1 173 0
 214 0072 0B44     		add	r3, r3, r1
 215              		.loc 1 172 0
 216 0074 0168     		ldr	r1, [r0]
 217 0076 8150     		str	r1, [r0, r2]
 218              		.loc 1 173 0
 219 0078 CEF80430 		str	r3, [lr, #4]
 220              		.loc 1 174 0
 221 007c C4F800E0 		str	lr, [r4]
 222              		.loc 1 175 0
 223 0080 4560     		str	r5, [r0, #4]
 224 0082 E9E7     		b	.L9
 225              	.LVL25:
 226              	.L13:
 227              		.loc 1 203 0
 228 0084 0024     		movs	r4, #0
ARM GAS  /tmp/ccpOFzYT.s 			page 5


 229              	.LVL26:
 230 0086 DFE7     		b	.L10
 231              	.L22:
 232              		.align	2
 233              	.L21:
 234 0088 00000000 		.word	.LANCHOR0
 235              		.cfi_endproc
 236              	.LFE229:
 237              		.size	chHeapAlloc, .-chHeapAlloc
 238              		.section	.text.chHeapFree,"ax",%progbits
 239              		.align	2
 240              		.p2align 4,,15
 241              		.global	chHeapFree
 242              		.thumb
 243              		.thumb_func
 244              		.type	chHeapFree, %function
 245              	chHeapFree:
 246              	.LFB230:
 247              		.loc 1 213 0
 248              		.cfi_startproc
 249              		@ args = 0, pretend = 0, frame = 0
 250              		@ frame_needed = 0, uses_anonymous_args = 0
 251              	.LVL27:
 252 0000 F8B5     		push	{r3, r4, r5, r6, r7, lr}
 253              		.cfi_def_cfa_offset 24
 254              		.cfi_offset 3, -24
 255              		.cfi_offset 4, -20
 256              		.cfi_offset 5, -16
 257              		.cfi_offset 6, -12
 258              		.cfi_offset 7, -8
 259              		.cfi_offset 14, -4
 260              		.loc 1 222 0
 261 0002 50F8085C 		ldr	r5, [r0, #-8]
 262              		.loc 1 225 0
 263 0006 05F11007 		add	r7, r5, #16
 264              		.loc 1 213 0
 265 000a 0646     		mov	r6, r0
 266              		.loc 1 220 0
 267 000c A0F10804 		sub	r4, r0, #8
 268              	.LVL28:
 269              		.loc 1 223 0
 270 0010 0835     		adds	r5, r5, #8
 271              	.LVL29:
 272              		.loc 1 225 0
 273 0012 3846     		mov	r0, r7
 274              	.LVL30:
 275 0014 FFF7FEFF 		bl	chMtxLock
 276              	.LVL31:
 277              		.loc 1 223 0
 278 0018 2B46     		mov	r3, r5
 279              	.LVL32:
 280              	.L30:
 281              		.loc 1 229 0
 282 001a AB42     		cmp	r3, r5
 283 001c 04D0     		beq	.L24
 284              	.L36:
 285              		.loc 1 229 0 is_stmt 0 discriminator 2
ARM GAS  /tmp/ccpOFzYT.s 			page 6


 286 001e A342     		cmp	r3, r4
 287 0020 02D3     		bcc	.L24
 288 0022 1B68     		ldr	r3, [r3]
 289              	.LVL33:
 290              		.loc 1 229 0
 291 0024 AB42     		cmp	r3, r5
 292 0026 FAD1     		bne	.L36
 293              	.L24:
 294              		.loc 1 230 0 is_stmt 1 discriminator 3
 295 0028 1A68     		ldr	r2, [r3]
 296              		.loc 1 229 0 discriminator 3
 297 002a 1AB1     		cbz	r2, .L26
 298              		.loc 1 230 0
 299 002c 9442     		cmp	r4, r2
 300 002e 01D3     		bcc	.L26
 301 0030 1346     		mov	r3, r2
 302              	.LVL34:
 303              		.loc 1 248 0
 304 0032 F2E7     		b	.L30
 305              	.LVL35:
 306              	.L26:
 307              		.loc 1 232 0
 308 0034 46F8082C 		str	r2, [r6, #-8]
 309              		.loc 1 233 0
 310 0038 1C60     		str	r4, [r3]
 311              		.loc 1 235 0
 312 003a 56F8041C 		ldr	r1, [r6, #-4]
 313 003e 56F8085C 		ldr	r5, [r6, #-8]
 314              	.LVL36:
 315 0042 01F10802 		add	r2, r1, #8
 316 0046 A018     		adds	r0, r4, r2
 317 0048 A842     		cmp	r0, r5
 318 004a 0AD0     		beq	.L37
 319              		.loc 1 240 0
 320 004c 5968     		ldr	r1, [r3, #4]
 321 004e 01F10802 		add	r2, r1, #8
 322 0052 1A44     		add	r2, r2, r3
 323 0054 9442     		cmp	r4, r2
 324 0056 12D0     		beq	.L38
 325              	.L29:
 326              		.loc 1 249 0
 327 0058 3846     		mov	r0, r7
 328              		.loc 1 252 0
 329 005a BDE8F840 		pop	{r3, r4, r5, r6, r7, lr}
 330              		.cfi_remember_state
 331              		.cfi_restore 14
 332              		.cfi_restore 7
 333              		.cfi_restore 6
 334              		.cfi_restore 5
 335              		.cfi_restore 4
 336              		.cfi_restore 3
 337              		.cfi_def_cfa_offset 0
 338              	.LVL37:
 339              		.loc 1 249 0
 340 005e FFF7FEBF 		b	chMtxUnlock
 341              	.LVL38:
 342              	.L37:
ARM GAS  /tmp/ccpOFzYT.s 			page 7


 343              		.cfi_restore_state
 344              		.loc 1 237 0
 345 0062 4068     		ldr	r0, [r0, #4]
 346 0064 0144     		add	r1, r1, r0
 347 0066 0831     		adds	r1, r1, #8
 348 0068 46F8041C 		str	r1, [r6, #-4]
 349              		.loc 1 238 0
 350 006c A258     		ldr	r2, [r4, r2]
 351 006e 46F8082C 		str	r2, [r6, #-8]
 352              		.loc 1 240 0
 353 0072 5968     		ldr	r1, [r3, #4]
 354 0074 01F10802 		add	r2, r1, #8
 355 0078 1A44     		add	r2, r2, r3
 356 007a 9442     		cmp	r4, r2
 357 007c ECD1     		bne	.L29
 358              	.L38:
 359              		.loc 1 242 0
 360 007e 56F8042C 		ldr	r2, [r6, #-4]
 361 0082 0A44     		add	r2, r2, r1
 362 0084 0832     		adds	r2, r2, #8
 363 0086 5A60     		str	r2, [r3, #4]
 364              		.loc 1 243 0
 365 0088 56F8082C 		ldr	r2, [r6, #-8]
 366 008c 1A60     		str	r2, [r3]
 367              		.loc 1 249 0
 368 008e 3846     		mov	r0, r7
 369              		.loc 1 252 0
 370 0090 BDE8F840 		pop	{r3, r4, r5, r6, r7, lr}
 371              		.cfi_restore 3
 372              		.cfi_restore 4
 373              		.cfi_restore 5
 374              		.cfi_restore 6
 375              		.cfi_restore 7
 376              		.cfi_restore 14
 377              		.cfi_def_cfa_offset 0
 378              	.LVL39:
 379              		.loc 1 249 0
 380 0094 FFF7FEBF 		b	chMtxUnlock
 381              	.LVL40:
 382              		.cfi_endproc
 383              	.LFE230:
 384              		.size	chHeapFree, .-chHeapFree
 385              		.section	.text.chHeapStatus,"ax",%progbits
 386              		.align	2
 387              		.p2align 4,,15
 388              		.global	chHeapStatus
 389              		.thumb
 390              		.thumb_func
 391              		.type	chHeapStatus, %function
 392              	chHeapStatus:
 393              	.LFB231:
 394              		.loc 1 267 0
 395              		.cfi_startproc
 396              		@ args = 0, pretend = 0, frame = 0
 397              		@ frame_needed = 0, uses_anonymous_args = 0
 398              	.LVL41:
 399 0000 70B5     		push	{r4, r5, r6, lr}
ARM GAS  /tmp/ccpOFzYT.s 			page 8


 400              		.cfi_def_cfa_offset 16
 401              		.cfi_offset 4, -16
 402              		.cfi_offset 5, -12
 403              		.cfi_offset 6, -8
 404              		.cfi_offset 14, -4
 405              		.loc 1 272 0
 406 0002 0F4C     		ldr	r4, .L50
 407 0004 0028     		cmp	r0, #0
 408 0006 18BF     		it	ne
 409 0008 0446     		movne	r4, r0
 410              	.LVL42:
 411              		.loc 1 275 0
 412 000a 04F11005 		add	r5, r4, #16
 413 000e 2846     		mov	r0, r5
 414              		.loc 1 267 0
 415 0010 0E46     		mov	r6, r1
 416              		.loc 1 275 0
 417 0012 FFF7FEFF 		bl	chMtxLock
 418              	.LVL43:
 419              		.loc 1 279 0
 420 0016 A368     		ldr	r3, [r4, #8]
 421 0018 73B1     		cbz	r3, .L44
 422 001a 0022     		movs	r2, #0
 423 001c 1446     		mov	r4, r2
 424              	.LVL44:
 425              	.L42:
 426              		.loc 1 280 0
 427 001e 5868     		ldr	r0, [r3, #4]
 428              		.loc 1 279 0
 429 0020 1B68     		ldr	r3, [r3]
 430              		.loc 1 281 0
 431 0022 0134     		adds	r4, r4, #1
 432              	.LVL45:
 433              		.loc 1 280 0
 434 0024 0244     		add	r2, r2, r0
 435              	.LVL46:
 436              		.loc 1 279 0
 437 0026 002B     		cmp	r3, #0
 438 0028 F9D1     		bne	.L42
 439              	.LVL47:
 440              	.L41:
 441              		.loc 1 284 0
 442 002a 06B1     		cbz	r6, .L43
 443              		.loc 1 285 0
 444 002c 3260     		str	r2, [r6]
 445              	.L43:
 446              		.loc 1 287 0
 447 002e 2846     		mov	r0, r5
 448 0030 FFF7FEFF 		bl	chMtxUnlock
 449              	.LVL48:
 450              		.loc 1 290 0
 451 0034 2046     		mov	r0, r4
 452 0036 70BD     		pop	{r4, r5, r6, pc}
 453              	.LVL49:
 454              	.L44:
 455              		.loc 1 276 0
 456 0038 1A46     		mov	r2, r3
ARM GAS  /tmp/ccpOFzYT.s 			page 9


 457              		.loc 1 277 0
 458 003a 1C46     		mov	r4, r3
 459              	.LVL50:
 460 003c F5E7     		b	.L41
 461              	.L51:
 462 003e 00BF     		.align	2
 463              	.L50:
 464 0040 00000000 		.word	.LANCHOR0
 465              		.cfi_endproc
 466              	.LFE231:
 467              		.size	chHeapStatus, .-chHeapStatus
 468              		.section	.bss.default_heap,"aw",%nobits
 469              		.align	3
 470              		.set	.LANCHOR0,. + 0
 471              		.type	default_heap, %object
 472              		.size	default_heap, 32
 473              	default_heap:
 474 0000 00000000 		.space	32
 474      00000000 
 474      00000000 
 474      00000000 
 474      00000000 
 475              		.text
 476              	.Letext0:
 477              		.file 2 "/usr/lib/gcc/arm-none-eabi/5.3.1/include/stddef.h"
 478              		.file 3 "/usr/arm-none-eabi/include/machine/_default_types.h"
 479              		.file 4 "/usr/arm-none-eabi/include/sys/_stdint.h"
 480              		.file 5 "/home/selim/working/ChibiOS/os/rt/ports/ARMCMx/compilers/GCC/chtypes.h"
 481              		.file 6 "/home/selim/working/ChibiOS/os/rt/include/chsystypes.h"
 482              		.file 7 "/home/selim/working/ChibiOS/os/rt/include/chschd.h"
 483              		.file 8 "/home/selim/working/ChibiOS/os/rt/ports/ARMCMx/chcore.h"
 484              		.file 9 "/home/selim/working/ChibiOS/os/rt/ports/ARMCMx/chcore_v7m.h"
 485              		.file 10 "/home/selim/working/ChibiOS/os/rt/include/chtm.h"
 486              		.file 11 "/home/selim/working/ChibiOS/os/rt/include/chsem.h"
 487              		.file 12 "/home/selim/working/ChibiOS/os/rt/include/chmtx.h"
 488              		.file 13 "/home/selim/working/ChibiOS/os/rt/include/chmemcore.h"
 489              		.file 14 "/home/selim/working/ChibiOS/os/rt/include/chheap.h"
 490              		.file 15 "/home/selim/working/ChibiOS/os/ext/CMSIS/include/core_cm4.h"