ARM GAS  /tmp/ccdmQhor.s 			page 1


   1              		.syntax unified
   2              		.cpu cortex-m4
   3              		.fpu softvfp
   4              		.eabi_attribute 20, 1
   5              		.eabi_attribute 21, 1
   6              		.eabi_attribute 23, 3
   7              		.eabi_attribute 24, 1
   8              		.eabi_attribute 25, 1
   9              		.eabi_attribute 26, 1
  10              		.eabi_attribute 30, 2
  11              		.eabi_attribute 34, 1
  12              		.eabi_attribute 18, 4
  13              		.thumb
  14              		.syntax unified
  15              		.file	"chmboxes.c"
  16              		.text
  17              	.Ltext0:
  18              		.cfi_sections	.debug_frame
  19              		.section	.text.chMBObjectInit,"ax",%progbits
  20              		.align	2
  21              		.p2align 4,,15
  22              		.global	chMBObjectInit
  23              		.thumb
  24              		.thumb_func
  25              		.type	chMBObjectInit, %function
  26              	chMBObjectInit:
  27              	.LFB227:
  28              		.file 1 "/home/selim/working/ChibiOS/os/rt/src/chmboxes.c"
  29              		.loc 1 86 0
  30              		.cfi_startproc
  31              		@ args = 0, pretend = 0, frame = 0
  32              		@ frame_needed = 0, uses_anonymous_args = 0
  33              	.LVL0:
  34 0000 10B5     		push	{r4, lr}
  35              		.cfi_def_cfa_offset 8
  36              		.cfi_offset 4, -8
  37              		.cfi_offset 14, -4
  38              		.loc 1 86 0
  39 0002 0B46     		mov	r3, r1
  40              		.loc 1 93 0
  41 0004 01EB8201 		add	r1, r1, r2, lsl #2
  42              	.LVL1:
  43 0008 4160     		str	r1, [r0, #4]
  44              		.loc 1 86 0
  45 000a 0446     		mov	r4, r0
  46              		.loc 1 90 0
  47 000c 0360     		str	r3, [r0]
  48              		.loc 1 91 0
  49 000e C360     		str	r3, [r0, #12]
  50              		.loc 1 92 0
  51 0010 8360     		str	r3, [r0, #8]
  52              		.loc 1 94 0
  53 0012 1146     		mov	r1, r2
  54 0014 1C30     		adds	r0, r0, #28
  55              	.LVL2:
  56 0016 FFF7FEFF 		bl	chSemObjectInit
  57              	.LVL3:
ARM GAS  /tmp/ccdmQhor.s 			page 2


  58              		.loc 1 95 0
  59 001a 04F11000 		add	r0, r4, #16
  60 001e 0021     		movs	r1, #0
  61              		.loc 1 96 0
  62 0020 BDE81040 		pop	{r4, lr}
  63              		.cfi_restore 14
  64              		.cfi_restore 4
  65              		.cfi_def_cfa_offset 0
  66              	.LVL4:
  67              		.loc 1 95 0
  68 0024 FFF7FEBF 		b	chSemObjectInit
  69              	.LVL5:
  70              		.cfi_endproc
  71              	.LFE227:
  72              		.size	chMBObjectInit, .-chMBObjectInit
  73              		.section	.text.chMBResetI,"ax",%progbits
  74              		.align	2
  75              		.p2align 4,,15
  76              		.global	chMBResetI
  77              		.thumb
  78              		.thumb_func
  79              		.type	chMBResetI, %function
  80              	chMBResetI:
  81              	.LFB229:
  82              		.loc 1 124 0
  83              		.cfi_startproc
  84              		@ args = 0, pretend = 0, frame = 0
  85              		@ frame_needed = 0, uses_anonymous_args = 0
  86              	.LVL6:
  87 0000 10B5     		push	{r4, lr}
  88              		.cfi_def_cfa_offset 8
  89              		.cfi_offset 4, -8
  90              		.cfi_offset 14, -4
  91              		.loc 1 124 0
  92 0002 0446     		mov	r4, r0
  93              		.loc 1 131 0
  94 0004 1C30     		adds	r0, r0, #28
  95              	.LVL7:
  96              		.loc 1 129 0
  97 0006 2368     		ldr	r3, [r4]
  98              		.loc 1 131 0
  99 0008 6168     		ldr	r1, [r4, #4]
 100              		.loc 1 129 0
 101 000a A360     		str	r3, [r4, #8]
 102              		.loc 1 131 0
 103 000c C91A     		subs	r1, r1, r3
 104              		.loc 1 130 0
 105 000e E360     		str	r3, [r4, #12]
 106              		.loc 1 131 0
 107 0010 8910     		asrs	r1, r1, #2
 108 0012 FFF7FEFF 		bl	chSemResetI
 109              	.LVL8:
 110              		.loc 1 132 0
 111 0016 04F11000 		add	r0, r4, #16
 112 001a 0021     		movs	r1, #0
 113              		.loc 1 133 0
 114 001c BDE81040 		pop	{r4, lr}
ARM GAS  /tmp/ccdmQhor.s 			page 3


 115              		.cfi_restore 14
 116              		.cfi_restore 4
 117              		.cfi_def_cfa_offset 0
 118              	.LVL9:
 119              		.loc 1 132 0
 120 0020 FFF7FEBF 		b	chSemResetI
 121              	.LVL10:
 122              		.cfi_endproc
 123              	.LFE229:
 124              		.size	chMBResetI, .-chMBResetI
 125              		.section	.text.chMBReset,"ax",%progbits
 126              		.align	2
 127              		.p2align 4,,15
 128              		.global	chMBReset
 129              		.thumb
 130              		.thumb_func
 131              		.type	chMBReset, %function
 132              	chMBReset:
 133              	.LFB228:
 134              		.loc 1 107 0
 135              		.cfi_startproc
 136              		@ args = 0, pretend = 0, frame = 0
 137              		@ frame_needed = 0, uses_anonymous_args = 0
 138              	.LVL11:
 139 0000 08B5     		push	{r3, lr}
 140              		.cfi_def_cfa_offset 8
 141              		.cfi_offset 3, -8
 142              		.cfi_offset 14, -4
 143              	.LBB72:
 144              	.LBB73:
 145              	.LBB74:
 146              	.LBB75:
 147              		.file 2 "/home/selim/working/ChibiOS/os/ext/CMSIS/include/core_cmFunc.h"
 148              		.loc 2 546 0
 149 0002 2023     		movs	r3, #32
 150              		.syntax unified
 151              	@ 546 "/home/selim/working/ChibiOS/os/ext/CMSIS/include/core_cmFunc.h" 1
 152 0004 83F31188 		MSR basepri, r3
 153              	@ 0 "" 2
 154              	.LVL12:
 155              		.thumb
 156              		.syntax unified
 157              	.LBE75:
 158              	.LBE74:
 159              	.LBE73:
 160              	.LBE72:
 161              		.loc 1 110 0
 162 0008 FFF7FEFF 		bl	chMBResetI
 163              	.LVL13:
 164              		.loc 1 111 0
 165 000c FFF7FEFF 		bl	chSchRescheduleS
 166              	.LVL14:
 167              	.LBB76:
 168              	.LBB77:
 169              	.LBB78:
 170              	.LBB79:
 171              	.LBB80:
ARM GAS  /tmp/ccdmQhor.s 			page 4


 172              		.loc 2 546 0
 173 0010 0023     		movs	r3, #0
 174              		.syntax unified
 175              	@ 546 "/home/selim/working/ChibiOS/os/ext/CMSIS/include/core_cmFunc.h" 1
 176 0012 83F31188 		MSR basepri, r3
 177              	@ 0 "" 2
 178              	.LVL15:
 179              		.thumb
 180              		.syntax unified
 181 0016 08BD     		pop	{r3, pc}
 182              	.LBE80:
 183              	.LBE79:
 184              	.LBE78:
 185              	.LBE77:
 186              	.LBE76:
 187              		.cfi_endproc
 188              	.LFE228:
 189              		.size	chMBReset, .-chMBReset
 190              		.section	.text.chMBPost,"ax",%progbits
 191              		.align	2
 192              		.p2align 4,,15
 193              		.global	chMBPost
 194              		.thumb
 195              		.thumb_func
 196              		.type	chMBPost, %function
 197              	chMBPost:
 198              	.LFB230:
 199              		.loc 1 154 0
 200              		.cfi_startproc
 201              		@ args = 0, pretend = 0, frame = 0
 202              		@ frame_needed = 0, uses_anonymous_args = 0
 203              	.LVL16:
 204 0000 70B5     		push	{r4, r5, r6, lr}
 205              		.cfi_def_cfa_offset 16
 206              		.cfi_offset 4, -16
 207              		.cfi_offset 5, -12
 208              		.cfi_offset 6, -8
 209              		.cfi_offset 14, -4
 210              	.LBB94:
 211              	.LBB95:
 212              	.LBB96:
 213              	.LBB97:
 214              		.loc 2 546 0
 215 0002 2023     		movs	r3, #32
 216              	.LBE97:
 217              	.LBE96:
 218              	.LBE95:
 219              	.LBE94:
 220              		.loc 1 154 0
 221 0004 0446     		mov	r4, r0
 222 0006 0E46     		mov	r6, r1
 223              	.LVL17:
 224              	.LBB101:
 225              	.LBB100:
 226              	.LBB99:
 227              	.LBB98:
 228              		.loc 2 546 0
ARM GAS  /tmp/ccdmQhor.s 			page 5


 229              		.syntax unified
 230              	@ 546 "/home/selim/working/ChibiOS/os/ext/CMSIS/include/core_cmFunc.h" 1
 231 0008 83F31188 		MSR basepri, r3
 232              	@ 0 "" 2
 233              	.LVL18:
 234              		.thumb
 235              		.syntax unified
 236              	.LBE98:
 237              	.LBE99:
 238              	.LBE100:
 239              	.LBE101:
 240              	.LBB102:
 241              	.LBB103:
 242              		.loc 1 189 0
 243 000c 1146     		mov	r1, r2
 244              	.LVL19:
 245 000e 1C30     		adds	r0, r0, #28
 246              	.LVL20:
 247 0010 FFF7FEFF 		bl	chSemWaitTimeoutS
 248              	.LVL21:
 249              		.loc 1 190 0
 250 0014 0546     		mov	r5, r0
 251 0016 78B9     		cbnz	r0, .L8
 252              	.LVL22:
 253              	.LBB104:
 254              	.LBB105:
 255              		.loc 1 191 0
 256 0018 A268     		ldr	r2, [r4, #8]
 257              		.loc 1 192 0
 258 001a 6168     		ldr	r1, [r4, #4]
 259              		.loc 1 191 0
 260 001c 131D     		adds	r3, r2, #4
 261              		.loc 1 192 0
 262 001e 8B42     		cmp	r3, r1
 263              		.loc 1 191 0
 264 0020 A360     		str	r3, [r4, #8]
 265              		.loc 1 193 0
 266 0022 28BF     		it	cs
 267 0024 2368     		ldrcs	r3, [r4]
 268              		.loc 1 191 0
 269 0026 1660     		str	r6, [r2]
 270              		.loc 1 195 0
 271 0028 04F11000 		add	r0, r4, #16
 272              	.LVL23:
 273              		.loc 1 193 0
 274 002c 28BF     		it	cs
 275 002e A360     		strcs	r3, [r4, #8]
 276              		.loc 1 195 0
 277 0030 FFF7FEFF 		bl	chSemSignalI
 278              	.LVL24:
 279              		.loc 1 196 0
 280 0034 FFF7FEFF 		bl	chSchRescheduleS
 281              	.LVL25:
 282              	.L8:
 283              	.LBE105:
 284              	.LBE104:
 285              	.LBE103:
ARM GAS  /tmp/ccdmQhor.s 			page 6


 286              	.LBE102:
 287              	.LBB106:
 288              	.LBB107:
 289              	.LBB108:
 290              	.LBB109:
 291              	.LBB110:
 292              		.loc 2 546 0
 293 0038 0023     		movs	r3, #0
 294              		.syntax unified
 295              	@ 546 "/home/selim/working/ChibiOS/os/ext/CMSIS/include/core_cmFunc.h" 1
 296 003a 83F31188 		MSR basepri, r3
 297              	@ 0 "" 2
 298              	.LVL26:
 299              		.thumb
 300              		.syntax unified
 301              	.LBE110:
 302              	.LBE109:
 303              	.LBE108:
 304              	.LBE107:
 305              	.LBE106:
 306              		.loc 1 162 0
 307 003e 2846     		mov	r0, r5
 308 0040 70BD     		pop	{r4, r5, r6, pc}
 309              		.cfi_endproc
 310              	.LFE230:
 311              		.size	chMBPost, .-chMBPost
 312 0042 00BF     		.section	.text.chMBPostS,"ax",%progbits
 313              		.align	2
 314              		.p2align 4,,15
 315              		.global	chMBPostS
 316              		.thumb
 317              		.thumb_func
 318              		.type	chMBPostS, %function
 319              	chMBPostS:
 320              	.LFB231:
 321              		.loc 1 183 0
 322              		.cfi_startproc
 323              		@ args = 0, pretend = 0, frame = 0
 324              		@ frame_needed = 0, uses_anonymous_args = 0
 325              	.LVL27:
 326 0000 70B5     		push	{r4, r5, r6, lr}
 327              		.cfi_def_cfa_offset 16
 328              		.cfi_offset 4, -16
 329              		.cfi_offset 5, -12
 330              		.cfi_offset 6, -8
 331              		.cfi_offset 14, -4
 332              		.loc 1 183 0
 333 0002 0446     		mov	r4, r0
 334 0004 0E46     		mov	r6, r1
 335              		.loc 1 189 0
 336 0006 1C30     		adds	r0, r0, #28
 337              	.LVL28:
 338 0008 1146     		mov	r1, r2
 339              	.LVL29:
 340 000a FFF7FEFF 		bl	chSemWaitTimeoutS
 341              	.LVL30:
 342              		.loc 1 190 0
ARM GAS  /tmp/ccdmQhor.s 			page 7


 343 000e 0546     		mov	r5, r0
 344 0010 78B9     		cbnz	r0, .L13
 345              	.LVL31:
 346              	.LBB113:
 347              	.LBB114:
 348              		.loc 1 191 0
 349 0012 A268     		ldr	r2, [r4, #8]
 350              		.loc 1 192 0
 351 0014 6168     		ldr	r1, [r4, #4]
 352              		.loc 1 191 0
 353 0016 131D     		adds	r3, r2, #4
 354              		.loc 1 192 0
 355 0018 8B42     		cmp	r3, r1
 356              		.loc 1 191 0
 357 001a A360     		str	r3, [r4, #8]
 358              		.loc 1 193 0
 359 001c 28BF     		it	cs
 360 001e 2368     		ldrcs	r3, [r4]
 361              		.loc 1 191 0
 362 0020 1660     		str	r6, [r2]
 363              		.loc 1 195 0
 364 0022 04F11000 		add	r0, r4, #16
 365              	.LVL32:
 366              		.loc 1 193 0
 367 0026 28BF     		it	cs
 368 0028 A360     		strcs	r3, [r4, #8]
 369              		.loc 1 195 0
 370 002a FFF7FEFF 		bl	chSemSignalI
 371              	.LVL33:
 372              		.loc 1 196 0
 373 002e FFF7FEFF 		bl	chSchRescheduleS
 374              	.LVL34:
 375              	.L13:
 376              	.LBE114:
 377              	.LBE113:
 378              		.loc 1 200 0
 379 0032 2846     		mov	r0, r5
 380 0034 70BD     		pop	{r4, r5, r6, pc}
 381              		.cfi_endproc
 382              	.LFE231:
 383              		.size	chMBPostS, .-chMBPostS
 384 0036 00BF     		.section	.text.chMBPostI,"ax",%progbits
 385              		.align	2
 386              		.p2align 4,,15
 387              		.global	chMBPostI
 388              		.thumb
 389              		.thumb_func
 390              		.type	chMBPostI, %function
 391              	chMBPostI:
 392              	.LFB232:
 393              		.loc 1 216 0
 394              		.cfi_startproc
 395              		@ args = 0, pretend = 0, frame = 0
 396              		@ frame_needed = 0, uses_anonymous_args = 0
 397              	.LVL35:
 398 0000 38B5     		push	{r3, r4, r5, lr}
 399              		.cfi_def_cfa_offset 16
ARM GAS  /tmp/ccdmQhor.s 			page 8


 400              		.cfi_offset 3, -16
 401              		.cfi_offset 4, -12
 402              		.cfi_offset 5, -8
 403              		.cfi_offset 14, -4
 404 0002 436A     		ldr	r3, [r0, #36]
 405              	.LVL36:
 406              		.loc 1 221 0
 407 0004 002B     		cmp	r3, #0
 408 0006 12DD     		ble	.L19
 409              	.LVL37:
 410              		.loc 1 226 0
 411 0008 8468     		ldr	r4, [r0, #8]
 412              		.loc 1 227 0
 413 000a 4568     		ldr	r5, [r0, #4]
 414              		.loc 1 226 0
 415 000c 221D     		adds	r2, r4, #4
 416              	.LBB115:
 417              	.LBB116:
 418              		.file 3 "/home/selim/working/ChibiOS/os/rt/include/chsem.h"
 419              		.loc 3 122 0
 420 000e 013B     		subs	r3, r3, #1
 421              	.LBE116:
 422              	.LBE115:
 423              		.loc 1 227 0
 424 0010 AA42     		cmp	r2, r5
 425              	.LBB118:
 426              	.LBB117:
 427              		.loc 3 122 0
 428 0012 4362     		str	r3, [r0, #36]
 429              	.LBE117:
 430              	.LBE118:
 431              		.loc 1 228 0
 432 0014 28BF     		it	cs
 433 0016 0368     		ldrcs	r3, [r0]
 434              		.loc 1 226 0
 435 0018 8260     		str	r2, [r0, #8]
 436 001a 2160     		str	r1, [r4]
 437              		.loc 1 230 0
 438 001c 00F11000 		add	r0, r0, #16
 439              	.LVL38:
 440              		.loc 1 228 0
 441 0020 28BF     		it	cs
 442 0022 40F8083C 		strcs	r3, [r0, #-8]
 443              		.loc 1 230 0
 444 0026 FFF7FEFF 		bl	chSemSignalI
 445              	.LVL39:
 446              		.loc 1 232 0
 447 002a 0020     		movs	r0, #0
 448 002c 38BD     		pop	{r3, r4, r5, pc}
 449              	.LVL40:
 450              	.L19:
 451              		.loc 1 222 0
 452 002e 4FF0FF30 		mov	r0, #-1
 453              	.LVL41:
 454              		.loc 1 233 0
 455 0032 38BD     		pop	{r3, r4, r5, pc}
 456              		.cfi_endproc
ARM GAS  /tmp/ccdmQhor.s 			page 9


 457              	.LFE232:
 458              		.size	chMBPostI, .-chMBPostI
 459              		.section	.text.chMBPostAhead,"ax",%progbits
 460              		.align	2
 461              		.p2align 4,,15
 462              		.global	chMBPostAhead
 463              		.thumb
 464              		.thumb_func
 465              		.type	chMBPostAhead, %function
 466              	chMBPostAhead:
 467              	.LFB233:
 468              		.loc 1 254 0
 469              		.cfi_startproc
 470              		@ args = 0, pretend = 0, frame = 0
 471              		@ frame_needed = 0, uses_anonymous_args = 0
 472              	.LVL42:
 473 0000 70B5     		push	{r4, r5, r6, lr}
 474              		.cfi_def_cfa_offset 16
 475              		.cfi_offset 4, -16
 476              		.cfi_offset 5, -12
 477              		.cfi_offset 6, -8
 478              		.cfi_offset 14, -4
 479              	.LBB132:
 480              	.LBB133:
 481              	.LBB134:
 482              	.LBB135:
 483              		.loc 2 546 0
 484 0002 2023     		movs	r3, #32
 485              	.LBE135:
 486              	.LBE134:
 487              	.LBE133:
 488              	.LBE132:
 489              		.loc 1 254 0
 490 0004 0446     		mov	r4, r0
 491 0006 0E46     		mov	r6, r1
 492              	.LVL43:
 493              	.LBB139:
 494              	.LBB138:
 495              	.LBB137:
 496              	.LBB136:
 497              		.loc 2 546 0
 498              		.syntax unified
 499              	@ 546 "/home/selim/working/ChibiOS/os/ext/CMSIS/include/core_cmFunc.h" 1
 500 0008 83F31188 		MSR basepri, r3
 501              	@ 0 "" 2
 502              	.LVL44:
 503              		.thumb
 504              		.syntax unified
 505              	.LBE136:
 506              	.LBE137:
 507              	.LBE138:
 508              	.LBE139:
 509              	.LBB140:
 510              	.LBB141:
 511              		.loc 1 289 0
 512 000c 1146     		mov	r1, r2
 513              	.LVL45:
ARM GAS  /tmp/ccdmQhor.s 			page 10


 514 000e 1C30     		adds	r0, r0, #28
 515              	.LVL46:
 516 0010 FFF7FEFF 		bl	chSemWaitTimeoutS
 517              	.LVL47:
 518              		.loc 1 290 0
 519 0014 0546     		mov	r5, r0
 520 0016 20B1     		cbz	r0, .L25
 521              	.LVL48:
 522              	.LBE141:
 523              	.LBE140:
 524              	.LBB145:
 525              	.LBB146:
 526              	.LBB147:
 527              	.LBB148:
 528              	.LBB149:
 529              		.loc 2 546 0
 530 0018 0023     		movs	r3, #0
 531              		.syntax unified
 532              	@ 546 "/home/selim/working/ChibiOS/os/ext/CMSIS/include/core_cmFunc.h" 1
 533 001a 83F31188 		MSR basepri, r3
 534              	@ 0 "" 2
 535              	.LVL49:
 536              		.thumb
 537              		.syntax unified
 538              	.LBE149:
 539              	.LBE148:
 540              	.LBE147:
 541              	.LBE146:
 542              	.LBE145:
 543              		.loc 1 262 0
 544 001e 2846     		mov	r0, r5
 545 0020 70BD     		pop	{r4, r5, r6, pc}
 546              	.LVL50:
 547              	.L25:
 548              	.LBB154:
 549              	.LBB144:
 550              	.LBB142:
 551              	.LBB143:
 552              		.loc 1 291 0
 553 0022 E368     		ldr	r3, [r4, #12]
 554 0024 2268     		ldr	r2, [r4]
 555 0026 043B     		subs	r3, r3, #4
 556 0028 9342     		cmp	r3, r2
 557 002a E360     		str	r3, [r4, #12]
 558 002c 02D2     		bcs	.L23
 559              		.loc 1 292 0
 560 002e 6368     		ldr	r3, [r4, #4]
 561 0030 043B     		subs	r3, r3, #4
 562 0032 E360     		str	r3, [r4, #12]
 563              	.L23:
 564              		.loc 1 294 0
 565 0034 1E60     		str	r6, [r3]
 566              		.loc 1 295 0
 567 0036 04F11000 		add	r0, r4, #16
 568              	.LVL51:
 569 003a FFF7FEFF 		bl	chSemSignalI
 570              	.LVL52:
ARM GAS  /tmp/ccdmQhor.s 			page 11


 571              		.loc 1 296 0
 572 003e FFF7FEFF 		bl	chSchRescheduleS
 573              	.LVL53:
 574              	.LBE143:
 575              	.LBE142:
 576              	.LBE144:
 577              	.LBE154:
 578              	.LBB155:
 579              	.LBB153:
 580              	.LBB152:
 581              	.LBB151:
 582              	.LBB150:
 583              		.loc 2 546 0
 584 0042 0023     		movs	r3, #0
 585              		.syntax unified
 586              	@ 546 "/home/selim/working/ChibiOS/os/ext/CMSIS/include/core_cmFunc.h" 1
 587 0044 83F31188 		MSR basepri, r3
 588              	@ 0 "" 2
 589              	.LVL54:
 590              		.thumb
 591              		.syntax unified
 592              	.LBE150:
 593              	.LBE151:
 594              	.LBE152:
 595              	.LBE153:
 596              	.LBE155:
 597              		.loc 1 262 0
 598 0048 2846     		mov	r0, r5
 599 004a 70BD     		pop	{r4, r5, r6, pc}
 600              		.cfi_endproc
 601              	.LFE233:
 602              		.size	chMBPostAhead, .-chMBPostAhead
 603              		.section	.text.chMBPostAheadS,"ax",%progbits
 604              		.align	2
 605              		.p2align 4,,15
 606              		.global	chMBPostAheadS
 607              		.thumb
 608              		.thumb_func
 609              		.type	chMBPostAheadS, %function
 610              	chMBPostAheadS:
 611              	.LFB234:
 612              		.loc 1 283 0
 613              		.cfi_startproc
 614              		@ args = 0, pretend = 0, frame = 0
 615              		@ frame_needed = 0, uses_anonymous_args = 0
 616              	.LVL55:
 617 0000 70B5     		push	{r4, r5, r6, lr}
 618              		.cfi_def_cfa_offset 16
 619              		.cfi_offset 4, -16
 620              		.cfi_offset 5, -12
 621              		.cfi_offset 6, -8
 622              		.cfi_offset 14, -4
 623              		.loc 1 283 0
 624 0002 0446     		mov	r4, r0
 625 0004 0E46     		mov	r6, r1
 626              		.loc 1 289 0
 627 0006 1C30     		adds	r0, r0, #28
ARM GAS  /tmp/ccdmQhor.s 			page 12


 628              	.LVL56:
 629 0008 1146     		mov	r1, r2
 630              	.LVL57:
 631 000a FFF7FEFF 		bl	chSemWaitTimeoutS
 632              	.LVL58:
 633              		.loc 1 290 0
 634 000e 0546     		mov	r5, r0
 635 0010 60B9     		cbnz	r0, .L27
 636              	.LVL59:
 637              	.LBB158:
 638              	.LBB159:
 639              		.loc 1 291 0
 640 0012 E368     		ldr	r3, [r4, #12]
 641 0014 2268     		ldr	r2, [r4]
 642 0016 043B     		subs	r3, r3, #4
 643 0018 9342     		cmp	r3, r2
 644 001a E360     		str	r3, [r4, #12]
 645 001c 08D3     		bcc	.L30
 646              	.L28:
 647              		.loc 1 294 0
 648 001e 1E60     		str	r6, [r3]
 649              		.loc 1 295 0
 650 0020 04F11000 		add	r0, r4, #16
 651              	.LVL60:
 652 0024 FFF7FEFF 		bl	chSemSignalI
 653              	.LVL61:
 654              		.loc 1 296 0
 655 0028 FFF7FEFF 		bl	chSchRescheduleS
 656              	.LVL62:
 657              	.L27:
 658              	.LBE159:
 659              	.LBE158:
 660              		.loc 1 300 0
 661 002c 2846     		mov	r0, r5
 662 002e 70BD     		pop	{r4, r5, r6, pc}
 663              	.LVL63:
 664              	.L30:
 665              	.LBB161:
 666              	.LBB160:
 667              		.loc 1 292 0
 668 0030 6368     		ldr	r3, [r4, #4]
 669 0032 043B     		subs	r3, r3, #4
 670 0034 E360     		str	r3, [r4, #12]
 671 0036 F2E7     		b	.L28
 672              	.LBE160:
 673              	.LBE161:
 674              		.cfi_endproc
 675              	.LFE234:
 676              		.size	chMBPostAheadS, .-chMBPostAheadS
 677              		.section	.text.chMBPostAheadI,"ax",%progbits
 678              		.align	2
 679              		.p2align 4,,15
 680              		.global	chMBPostAheadI
 681              		.thumb
 682              		.thumb_func
 683              		.type	chMBPostAheadI, %function
 684              	chMBPostAheadI:
ARM GAS  /tmp/ccdmQhor.s 			page 13


 685              	.LFB235:
 686              		.loc 1 316 0
 687              		.cfi_startproc
 688              		@ args = 0, pretend = 0, frame = 0
 689              		@ frame_needed = 0, uses_anonymous_args = 0
 690              	.LVL64:
 691 0000 426A     		ldr	r2, [r0, #36]
 692              	.LVL65:
 693              		.loc 1 321 0
 694 0002 002A     		cmp	r2, #0
 695 0004 11DD     		ble	.L34
 696              	.LVL66:
 697              		.loc 1 325 0
 698 0006 C368     		ldr	r3, [r0, #12]
 699              		.loc 1 316 0
 700 0008 10B5     		push	{r4, lr}
 701              		.cfi_def_cfa_offset 8
 702              		.cfi_offset 4, -8
 703              		.cfi_offset 14, -4
 704              		.loc 1 325 0
 705 000a 0468     		ldr	r4, [r0]
 706 000c 043B     		subs	r3, r3, #4
 707              	.LBB162:
 708              	.LBB163:
 709              		.loc 3 122 0
 710 000e 013A     		subs	r2, r2, #1
 711              	.LBE163:
 712              	.LBE162:
 713              		.loc 1 325 0
 714 0010 A342     		cmp	r3, r4
 715              	.LBB165:
 716              	.LBB164:
 717              		.loc 3 122 0
 718 0012 4262     		str	r2, [r0, #36]
 719              	.LBE164:
 720              	.LBE165:
 721              		.loc 1 325 0
 722 0014 C360     		str	r3, [r0, #12]
 723 0016 02D2     		bcs	.L33
 724              		.loc 1 326 0
 725 0018 4368     		ldr	r3, [r0, #4]
 726 001a 043B     		subs	r3, r3, #4
 727 001c C360     		str	r3, [r0, #12]
 728              	.L33:
 729              		.loc 1 328 0
 730 001e 1960     		str	r1, [r3]
 731              		.loc 1 329 0
 732 0020 1030     		adds	r0, r0, #16
 733              	.LVL67:
 734 0022 FFF7FEFF 		bl	chSemSignalI
 735              	.LVL68:
 736              		.loc 1 331 0
 737 0026 0020     		movs	r0, #0
 738 0028 10BD     		pop	{r4, pc}
 739              	.LVL69:
 740              	.L34:
 741              		.cfi_def_cfa_offset 0
ARM GAS  /tmp/ccdmQhor.s 			page 14


 742              		.cfi_restore 4
 743              		.cfi_restore 14
 744              		.loc 1 322 0
 745 002a 4FF0FF30 		mov	r0, #-1
 746              	.LVL70:
 747 002e 7047     		bx	lr
 748              		.cfi_endproc
 749              	.LFE235:
 750              		.size	chMBPostAheadI, .-chMBPostAheadI
 751              		.section	.text.chMBFetch,"ax",%progbits
 752              		.align	2
 753              		.p2align 4,,15
 754              		.global	chMBFetch
 755              		.thumb
 756              		.thumb_func
 757              		.type	chMBFetch, %function
 758              	chMBFetch:
 759              	.LFB236:
 760              		.loc 1 353 0
 761              		.cfi_startproc
 762              		@ args = 0, pretend = 0, frame = 0
 763              		@ frame_needed = 0, uses_anonymous_args = 0
 764              	.LVL71:
 765 0000 70B5     		push	{r4, r5, r6, lr}
 766              		.cfi_def_cfa_offset 16
 767              		.cfi_offset 4, -16
 768              		.cfi_offset 5, -12
 769              		.cfi_offset 6, -8
 770              		.cfi_offset 14, -4
 771              	.LBB179:
 772              	.LBB180:
 773              	.LBB181:
 774              	.LBB182:
 775              		.loc 2 546 0
 776 0002 2023     		movs	r3, #32
 777              	.LBE182:
 778              	.LBE181:
 779              	.LBE180:
 780              	.LBE179:
 781              		.loc 1 353 0
 782 0004 0446     		mov	r4, r0
 783 0006 0E46     		mov	r6, r1
 784              	.LVL72:
 785              	.LBB186:
 786              	.LBB185:
 787              	.LBB184:
 788              	.LBB183:
 789              		.loc 2 546 0
 790              		.syntax unified
 791              	@ 546 "/home/selim/working/ChibiOS/os/ext/CMSIS/include/core_cmFunc.h" 1
 792 0008 83F31188 		MSR basepri, r3
 793              	@ 0 "" 2
 794              	.LVL73:
 795              		.thumb
 796              		.syntax unified
 797              	.LBE183:
 798              	.LBE184:
ARM GAS  /tmp/ccdmQhor.s 			page 15


 799              	.LBE185:
 800              	.LBE186:
 801              	.LBB187:
 802              	.LBB188:
 803              		.loc 1 388 0
 804 000c 1146     		mov	r1, r2
 805              	.LVL74:
 806 000e 1030     		adds	r0, r0, #16
 807              	.LVL75:
 808 0010 FFF7FEFF 		bl	chSemWaitTimeoutS
 809              	.LVL76:
 810              		.loc 1 389 0
 811 0014 0546     		mov	r5, r0
 812 0016 80B9     		cbnz	r0, .L38
 813              	.LVL77:
 814              	.LBB189:
 815              	.LBB190:
 816              		.loc 1 390 0
 817 0018 E368     		ldr	r3, [r4, #12]
 818              		.loc 1 391 0
 819 001a 6268     		ldr	r2, [r4, #4]
 820              		.loc 1 390 0
 821 001c 1968     		ldr	r1, [r3]
 822 001e 0433     		adds	r3, r3, #4
 823              		.loc 1 391 0
 824 0020 9342     		cmp	r3, r2
 825              		.loc 1 390 0
 826 0022 E360     		str	r3, [r4, #12]
 827              		.loc 1 392 0
 828 0024 28BF     		it	cs
 829 0026 2368     		ldrcs	r3, [r4]
 830              		.loc 1 390 0
 831 0028 3160     		str	r1, [r6]
 832              		.loc 1 394 0
 833 002a 04F11C00 		add	r0, r4, #28
 834              	.LVL78:
 835              		.loc 1 392 0
 836 002e 28BF     		it	cs
 837 0030 E360     		strcs	r3, [r4, #12]
 838              		.loc 1 394 0
 839 0032 FFF7FEFF 		bl	chSemSignalI
 840              	.LVL79:
 841              		.loc 1 395 0
 842 0036 FFF7FEFF 		bl	chSchRescheduleS
 843              	.LVL80:
 844              	.L38:
 845              	.LBE190:
 846              	.LBE189:
 847              	.LBE188:
 848              	.LBE187:
 849              	.LBB191:
 850              	.LBB192:
 851              	.LBB193:
 852              	.LBB194:
 853              	.LBB195:
 854              		.loc 2 546 0
 855 003a 0023     		movs	r3, #0
ARM GAS  /tmp/ccdmQhor.s 			page 16


 856              		.syntax unified
 857              	@ 546 "/home/selim/working/ChibiOS/os/ext/CMSIS/include/core_cmFunc.h" 1
 858 003c 83F31188 		MSR basepri, r3
 859              	@ 0 "" 2
 860              	.LVL81:
 861              		.thumb
 862              		.syntax unified
 863              	.LBE195:
 864              	.LBE194:
 865              	.LBE193:
 866              	.LBE192:
 867              	.LBE191:
 868              		.loc 1 361 0
 869 0040 2846     		mov	r0, r5
 870 0042 70BD     		pop	{r4, r5, r6, pc}
 871              		.cfi_endproc
 872              	.LFE236:
 873              		.size	chMBFetch, .-chMBFetch
 874              		.section	.text.chMBFetchS,"ax",%progbits
 875              		.align	2
 876              		.p2align 4,,15
 877              		.global	chMBFetchS
 878              		.thumb
 879              		.thumb_func
 880              		.type	chMBFetchS, %function
 881              	chMBFetchS:
 882              	.LFB237:
 883              		.loc 1 382 0
 884              		.cfi_startproc
 885              		@ args = 0, pretend = 0, frame = 0
 886              		@ frame_needed = 0, uses_anonymous_args = 0
 887              	.LVL82:
 888 0000 70B5     		push	{r4, r5, r6, lr}
 889              		.cfi_def_cfa_offset 16
 890              		.cfi_offset 4, -16
 891              		.cfi_offset 5, -12
 892              		.cfi_offset 6, -8
 893              		.cfi_offset 14, -4
 894              		.loc 1 382 0
 895 0002 0446     		mov	r4, r0
 896 0004 0E46     		mov	r6, r1
 897              		.loc 1 388 0
 898 0006 1030     		adds	r0, r0, #16
 899              	.LVL83:
 900 0008 1146     		mov	r1, r2
 901              	.LVL84:
 902 000a FFF7FEFF 		bl	chSemWaitTimeoutS
 903              	.LVL85:
 904              		.loc 1 389 0
 905 000e 0546     		mov	r5, r0
 906 0010 80B9     		cbnz	r0, .L42
 907              	.LVL86:
 908              	.LBB198:
 909              	.LBB199:
 910              		.loc 1 390 0
 911 0012 E368     		ldr	r3, [r4, #12]
 912              		.loc 1 391 0
ARM GAS  /tmp/ccdmQhor.s 			page 17


 913 0014 6268     		ldr	r2, [r4, #4]
 914              		.loc 1 390 0
 915 0016 1968     		ldr	r1, [r3]
 916 0018 0433     		adds	r3, r3, #4
 917              		.loc 1 391 0
 918 001a 9342     		cmp	r3, r2
 919              		.loc 1 390 0
 920 001c E360     		str	r3, [r4, #12]
 921              		.loc 1 392 0
 922 001e 28BF     		it	cs
 923 0020 2368     		ldrcs	r3, [r4]
 924              		.loc 1 390 0
 925 0022 3160     		str	r1, [r6]
 926              		.loc 1 394 0
 927 0024 04F11C00 		add	r0, r4, #28
 928              	.LVL87:
 929              		.loc 1 392 0
 930 0028 28BF     		it	cs
 931 002a E360     		strcs	r3, [r4, #12]
 932              		.loc 1 394 0
 933 002c FFF7FEFF 		bl	chSemSignalI
 934              	.LVL88:
 935              		.loc 1 395 0
 936 0030 FFF7FEFF 		bl	chSchRescheduleS
 937              	.LVL89:
 938              	.L42:
 939              	.LBE199:
 940              	.LBE198:
 941              		.loc 1 399 0
 942 0034 2846     		mov	r0, r5
 943 0036 70BD     		pop	{r4, r5, r6, pc}
 944              		.cfi_endproc
 945              	.LFE237:
 946              		.size	chMBFetchS, .-chMBFetchS
 947              		.section	.text.chMBFetchI,"ax",%progbits
 948              		.align	2
 949              		.p2align 4,,15
 950              		.global	chMBFetchI
 951              		.thumb
 952              		.thumb_func
 953              		.type	chMBFetchI, %function
 954              	chMBFetchI:
 955              	.LFB238:
 956              		.loc 1 415 0
 957              		.cfi_startproc
 958              		@ args = 0, pretend = 0, frame = 0
 959              		@ frame_needed = 0, uses_anonymous_args = 0
 960              	.LVL90:
 961 0000 8369     		ldr	r3, [r0, #24]
 962              	.LVL91:
 963              		.loc 1 420 0
 964 0002 002B     		cmp	r3, #0
 965 0004 14DD     		ble	.L48
 966              	.LVL92:
 967              	.LBB200:
 968              	.LBB201:
 969              		.loc 3 122 0
ARM GAS  /tmp/ccdmQhor.s 			page 18


 970 0006 5A1E     		subs	r2, r3, #1
 971              	.LBE201:
 972              	.LBE200:
 973              		.loc 1 424 0
 974 0008 C368     		ldr	r3, [r0, #12]
 975              		.loc 1 415 0
 976 000a 10B5     		push	{r4, lr}
 977              		.cfi_def_cfa_offset 8
 978              		.cfi_offset 4, -8
 979              		.cfi_offset 14, -4
 980              	.LBB203:
 981              	.LBB202:
 982              		.loc 3 122 0
 983 000c 8261     		str	r2, [r0, #24]
 984              	.LBE202:
 985              	.LBE203:
 986              		.loc 1 425 0
 987 000e 4268     		ldr	r2, [r0, #4]
 988              		.loc 1 424 0
 989 0010 1C68     		ldr	r4, [r3]
 990 0012 0433     		adds	r3, r3, #4
 991              		.loc 1 425 0
 992 0014 9342     		cmp	r3, r2
 993              		.loc 1 424 0
 994 0016 C360     		str	r3, [r0, #12]
 995              		.loc 1 426 0
 996 0018 28BF     		it	cs
 997 001a 0368     		ldrcs	r3, [r0]
 998              		.loc 1 424 0
 999 001c 0C60     		str	r4, [r1]
 1000              		.loc 1 428 0
 1001 001e 00F11C00 		add	r0, r0, #28
 1002              	.LVL93:
 1003              		.loc 1 426 0
 1004 0022 28BF     		it	cs
 1005 0024 40F8103C 		strcs	r3, [r0, #-16]
 1006              		.loc 1 428 0
 1007 0028 FFF7FEFF 		bl	chSemSignalI
 1008              	.LVL94:
 1009              		.loc 1 430 0
 1010 002c 0020     		movs	r0, #0
 1011 002e 10BD     		pop	{r4, pc}
 1012              	.LVL95:
 1013              	.L48:
 1014              		.cfi_def_cfa_offset 0
 1015              		.cfi_restore 4
 1016              		.cfi_restore 14
 1017              		.loc 1 421 0
 1018 0030 4FF0FF30 		mov	r0, #-1
 1019              	.LVL96:
 1020 0034 7047     		bx	lr
 1021              		.cfi_endproc
 1022              	.LFE238:
 1023              		.size	chMBFetchI, .-chMBFetchI
 1024 0036 00BF     		.text
 1025              	.Letext0:
 1026              		.file 4 "/usr/arm-none-eabi/include/machine/_default_types.h"
ARM GAS  /tmp/ccdmQhor.s 			page 19


 1027              		.file 5 "/usr/arm-none-eabi/include/sys/_stdint.h"
 1028              		.file 6 "/home/selim/working/ChibiOS/os/rt/ports/ARMCMx/compilers/GCC/chtypes.h"
 1029              		.file 7 "/home/selim/working/ChibiOS/os/rt/include/chsystypes.h"
 1030              		.file 8 "/home/selim/working/ChibiOS/os/rt/include/chschd.h"
 1031              		.file 9 "/home/selim/working/ChibiOS/os/rt/ports/ARMCMx/chcore.h"
 1032              		.file 10 "/home/selim/working/ChibiOS/os/rt/ports/ARMCMx/chcore_v7m.h"
 1033              		.file 11 "/home/selim/working/ChibiOS/os/rt/include/chtm.h"
 1034              		.file 12 "/home/selim/working/ChibiOS/os/rt/include/chmtx.h"
 1035              		.file 13 "/home/selim/working/ChibiOS/os/rt/include/chmboxes.h"
 1036              		.file 14 "/home/selim/working/ChibiOS/os/rt/include/chsys.h"
 1037              		.file 15 "/home/selim/working/ChibiOS/os/ext/CMSIS/include/core_cm4.h"