ARM GAS  /tmp/ccPVMQ2N.s 			page 1


   1              		.syntax unified
   2              		.cpu cortex-m4
   3              		.fpu softvfp
   4              		.eabi_attribute 20, 1
   5              		.eabi_attribute 21, 1
   6              		.eabi_attribute 23, 3
   7              		.eabi_attribute 24, 1
   8              		.eabi_attribute 25, 1
   9              		.eabi_attribute 26, 1
  10              		.eabi_attribute 30, 2
  11              		.eabi_attribute 34, 1
  12              		.eabi_attribute 18, 4
  13              		.thumb
  14              		.syntax unified
  15              		.file	"main.c"
  16              		.text
  17              	.Ltext0:
  18              		.cfi_sections	.debug_frame
  19              		.section	.text.chprintf,"ax",%progbits
  20              		.align	2
  21              		.p2align 4,,15
  22              		.thumb
  23              		.thumb_func
  24              		.type	chprintf, %function
  25              	chprintf:
  26              	.LFB258:
  27              		.file 1 "/home/selim/working/ChibiOS/os/hal/lib/streams/chprintf.h"
  28              		.loc 1 69 0
  29              		.cfi_startproc
  30              		@ args = 4, pretend = 12, frame = 8
  31              		@ frame_needed = 0, uses_anonymous_args = 1
  32              	.LVL0:
  33 0000 0EB4     		push	{r1, r2, r3}
  34              		.cfi_def_cfa_offset 12
  35              		.cfi_offset 1, -12
  36              		.cfi_offset 2, -8
  37              		.cfi_offset 3, -4
  38 0002 00B5     		push	{lr}
  39              		.cfi_def_cfa_offset 16
  40              		.cfi_offset 14, -16
  41 0004 82B0     		sub	sp, sp, #8
  42              		.cfi_def_cfa_offset 24
  43              		.loc 1 69 0
  44 0006 03AA     		add	r2, sp, #12
  45 0008 52F8041B 		ldr	r1, [r2], #4
  46              		.loc 1 73 0
  47 000c 0192     		str	r2, [sp, #4]
  48              		.loc 1 74 0
  49 000e FFF7FEFF 		bl	chvprintf
  50              	.LVL1:
  51              		.loc 1 78 0
  52 0012 02B0     		add	sp, sp, #8
  53              		.cfi_def_cfa_offset 16
  54              		@ sp needed
  55 0014 5DF804EB 		ldr	lr, [sp], #4
  56              		.cfi_restore 14
  57              		.cfi_def_cfa_offset 12
ARM GAS  /tmp/ccPVMQ2N.s 			page 2


  58 0018 03B0     		add	sp, sp, #12
  59              		.cfi_restore 3
  60              		.cfi_restore 2
  61              		.cfi_restore 1
  62              		.cfi_def_cfa_offset 0
  63 001a 7047     		bx	lr
  64              		.cfi_endproc
  65              	.LFE258:
  66              		.size	chprintf, .-chprintf
  67              		.section	.text.Thread1,"ax",%progbits
  68              		.align	2
  69              		.p2align 4,,15
  70              		.thumb
  71              		.thumb_func
  72              		.type	Thread1, %function
  73              	Thread1:
  74              	.LFB263:
  75              		.file 2 "main.c"
  76              		.loc 2 238 0
  77              		.cfi_startproc
  78              		@ args = 0, pretend = 0, frame = 0
  79              		@ frame_needed = 0, uses_anonymous_args = 0
  80              	.LVL2:
  81 0000 F8B5     		push	{r3, r4, r5, r6, r7, lr}
  82              		.cfi_def_cfa_offset 24
  83              		.cfi_offset 3, -24
  84              		.cfi_offset 4, -20
  85              		.cfi_offset 5, -16
  86              		.cfi_offset 6, -12
  87              		.cfi_offset 7, -8
  88              		.cfi_offset 14, -4
  89              		.loc 2 243 0
  90 0002 264B     		ldr	r3, .L9
  91 0004 264A     		ldr	r2, .L9+4
  92 0006 9B69     		ldr	r3, [r3, #24]
  93              		.loc 2 246 0
  94 0008 2648     		ldr	r0, .L9+8
  95              	.LVL3:
  96              		.loc 2 243 0
  97 000a 9A61     		str	r2, [r3, #24]
  98              		.loc 2 246 0
  99 000c 2021     		movs	r1, #32
 100 000e 4322     		movs	r2, #67
 101 0010 FFF7FEFF 		bl	lis302dlWriteRegister
 102              	.LVL4:
 103              		.loc 2 247 0
 104 0014 0022     		movs	r2, #0
 105 0016 2121     		movs	r1, #33
 106 0018 2248     		ldr	r0, .L9+8
 107 001a FFF7FEFF 		bl	lis302dlWriteRegister
 108              	.LVL5:
 109              		.loc 2 248 0
 110 001e 0022     		movs	r2, #0
 111 0020 2221     		movs	r1, #34
 112 0022 2048     		ldr	r0, .L9+8
 113 0024 FFF7FEFF 		bl	lis302dlWriteRegister
 114              	.LVL6:
ARM GAS  /tmp/ccPVMQ2N.s 			page 3


 115              	.LBB63:
 116              	.LBB64:
 117              	.LBB65:
 118              	.LBB66:
 119              	.LBB67:
 120              	.LBB68:
 121              		.file 3 "/home/selim/working/ChibiOS/os/ext/CMSIS/include/core_cmFunc.h"
 122              		.loc 3 546 0
 123 0028 2023     		movs	r3, #32
 124              		.syntax unified
 125              	@ 546 "/home/selim/working/ChibiOS/os/ext/CMSIS/include/core_cmFunc.h" 1
 126 002a 83F31188 		MSR basepri, r3
 127              	@ 0 "" 2
 128              	.LVL7:
 129              		.thumb
 130              		.syntax unified
 131              	.LBE68:
 132              	.LBE67:
 133              	.LBE66:
 134              	.LBE65:
 135              	.LBB69:
 136              	.LBB70:
 137              	.LBB71:
 138              	.LBB72:
 139              		.file 4 "/home/selim/working/ChibiOS/os/hal/ports/STM32/LLD/TIMv1/st_lld.h"
 140              		.loc 4 129 0
 141 002e 4FF08042 		mov	r2, #1073741824
 142              	.LBE72:
 143              	.LBE71:
 144              	.LBE70:
 145              	.LBE69:
 146              	.LBB76:
 147              	.LBB77:
 148              	.LBB78:
 149              	.LBB79:
 150              	.LBB80:
 151              		.loc 3 546 0
 152 0032 0023     		movs	r3, #0
 153              	.LBE80:
 154              	.LBE79:
 155              	.LBE78:
 156              	.LBE77:
 157              	.LBE76:
 158              	.LBB85:
 159              	.LBB75:
 160              	.LBB74:
 161              	.LBB73:
 162              		.loc 4 129 0
 163 0034 556A     		ldr	r5, [r2, #36]
 164              	.LVL8:
 165              	.LBE73:
 166              	.LBE74:
 167              	.LBE75:
 168              	.LBE85:
 169              	.LBB86:
 170              	.LBB84:
 171              	.LBB83:
ARM GAS  /tmp/ccPVMQ2N.s 			page 4


 172              	.LBB82:
 173              	.LBB81:
 174              		.loc 3 546 0
 175              		.syntax unified
 176              	@ 546 "/home/selim/working/ChibiOS/os/ext/CMSIS/include/core_cmFunc.h" 1
 177 0036 83F31188 		MSR basepri, r3
 178              	@ 0 "" 2
 179              	.LVL9:
 180              		.thumb
 181              		.syntax unified
 182 003a 1B4F     		ldr	r7, .L9+12
 183 003c 1B4E     		ldr	r6, .L9+16
 184              	.L5:
 185              	.LVL10:
 186 003e 1C49     		ldr	r1, .L9+20
 187 0040 1C4A     		ldr	r2, .L9+24
 188 0042 4C1C     		adds	r4, r1, #1
 189 0044 501C     		adds	r0, r2, #1
 190              	.LBE81:
 191              	.LBE82:
 192              	.LBE83:
 193              	.LBE84:
 194              	.LBE86:
 195              	.LBE64:
 196              	.LBE63:
 197              	.LBB87:
 198              		.loc 2 257 0
 199 0046 0323     		movs	r3, #3
 200              	.LVL11:
 201              	.L4:
 202              		.loc 2 258 0 discriminator 3
 203 0048 11F901CD 		ldrsb	ip, [r1, #-1]!
 204              		.loc 2 259 0 discriminator 3
 205 004c 12F901ED 		ldrsb	lr, [r2, #-1]!
 206              		.loc 2 258 0 discriminator 3
 207 0050 04F801CD 		strb	ip, [r4, #-1]!
 208              		.loc 2 257 0 discriminator 3
 209 0054 013B     		subs	r3, r3, #1
 210              	.LVL12:
 211              		.loc 2 259 0 discriminator 3
 212 0056 00F801ED 		strb	lr, [r0, #-1]!
 213              	.LVL13:
 214              		.loc 2 257 0 discriminator 3
 215 005a F5D1     		bne	.L4
 216              		.loc 2 263 0
 217 005c 2921     		movs	r1, #41
 218 005e 1148     		ldr	r0, .L9+8
 219 0060 FFF7FEFF 		bl	lis302dlReadRegister
 220              	.LVL14:
 221              		.loc 2 264 0
 222 0064 2B21     		movs	r1, #43
 223              		.loc 2 263 0
 224 0066 3870     		strb	r0, [r7]
 225              		.loc 2 264 0
 226 0068 0E48     		ldr	r0, .L9+8
 227 006a FFF7FEFF 		bl	lis302dlReadRegister
 228              	.LVL15:
ARM GAS  /tmp/ccPVMQ2N.s 			page 5


 229 006e 3070     		strb	r0, [r6]
 230              		.loc 2 267 0
 231 0070 1148     		ldr	r0, .L9+28
 232 0072 FFF7FEFF 		bl	spiSelect
 233              	.LVL16:
 234              		.loc 2 268 0
 235 0076 0C4A     		ldr	r2, .L9+12
 236 0078 0F48     		ldr	r0, .L9+28
 237 007a 0421     		movs	r1, #4
 238 007c FFF7FEFF 		bl	spiSend
 239              	.LVL17:
 240              		.loc 2 269 0
 241 0080 0A4A     		ldr	r2, .L9+16
 242 0082 0D48     		ldr	r0, .L9+28
 243 0084 0421     		movs	r1, #4
 244 0086 FFF7FEFF 		bl	spiSend
 245              	.LVL18:
 246              		.loc 2 287 0
 247 008a 05F57A75 		add	r5, r5, #1000
 248              	.LVL19:
 249              		.loc 2 270 0
 250 008e 0A48     		ldr	r0, .L9+28
 251 0090 FFF7FEFF 		bl	spiUnselect
 252              	.LVL20:
 253              		.loc 2 287 0
 254 0094 2846     		mov	r0, r5
 255 0096 FFF7FEFF 		bl	chThdSleepUntil
 256              	.LVL21:
 257              	.LBE87:
 258              		.loc 2 288 0
 259 009a D0E7     		b	.L5
 260              	.L10:
 261              		.align	2
 262              	.L9:
 263 009c 00000000 		.word	ch
 264 00a0 00000000 		.word	.LC0
 265 00a4 00000000 		.word	SPID1
 266 00a8 00000000 		.word	.LANCHOR0
 267 00ac 00000000 		.word	.LANCHOR1
 268 00b0 03000000 		.word	.LANCHOR0+3
 269 00b4 03000000 		.word	.LANCHOR1+3
 270 00b8 00000000 		.word	SPID2
 271              		.cfi_endproc
 272              	.LFE263:
 273              		.size	Thread1, .-Thread1
 274              		.section	.text.command_set_pwm,"ax",%progbits
 275              		.align	2
 276              		.p2align 4,,15
 277              		.thumb
 278              		.thumb_func
 279              		.type	command_set_pwm, %function
 280              	command_set_pwm:
 281              	.LFB262:
 282              		.loc 2 121 0
 283              		.cfi_startproc
 284              		@ args = 0, pretend = 0, frame = 0
 285              		@ frame_needed = 0, uses_anonymous_args = 0
ARM GAS  /tmp/ccPVMQ2N.s 			page 6


 286              	.LVL22:
 287              		.loc 2 123 0
 288 0000 0229     		cmp	r1, #2
 289 0002 02D0     		beq	.L12
 290              		.loc 2 125 0
 291 0004 1549     		ldr	r1, .L18
 292              	.LVL23:
 293 0006 FFF7FEBF 		b	chprintf
 294              	.LVL24:
 295              	.L12:
 296              		.loc 2 121 0
 297 000a 70B5     		push	{r4, r5, r6, lr}
 298              		.cfi_def_cfa_offset 16
 299              		.cfi_offset 4, -16
 300              		.cfi_offset 5, -12
 301              		.cfi_offset 6, -8
 302              		.cfi_offset 14, -4
 303 000c 1446     		mov	r4, r2
 304              	.LBB90:
 305              	.LBB91:
 306              		.loc 2 129 0
 307 000e 0022     		movs	r2, #0
 308              	.LVL25:
 309 0010 0546     		mov	r5, r0
 310              	.LVL26:
 311 0012 1146     		mov	r1, r2
 312              	.LVL27:
 313 0014 2068     		ldr	r0, [r4]
 314              	.LVL28:
 315 0016 FFF7FEFF 		bl	strtol
 316              	.LVL29:
 317              		.loc 2 131 0
 318 001a 0B28     		cmp	r0, #11
 319              		.loc 2 129 0
 320 001c 0646     		mov	r6, r0
 321              	.LVL30:
 322              		.loc 2 131 0
 323 001e 17D8     		bhi	.L16
 324              		.loc 2 137 0
 325 0020 0022     		movs	r2, #0
 326 0022 1146     		mov	r1, r2
 327 0024 6068     		ldr	r0, [r4, #4]
 328              	.LVL31:
 329 0026 FFF7FEFF 		bl	strtol
 330              	.LVL32:
 331              		.loc 2 138 0
 332 002a 6428     		cmp	r0, #100
 333              		.loc 2 137 0
 334 002c 0246     		mov	r2, r0
 335              	.LVL33:
 336              		.loc 2 138 0
 337 002e 09D8     		bhi	.L17
 338              		.loc 2 144 0
 339 0030 0B49     		ldr	r1, .L18+4
 340 0032 0C4B     		ldr	r3, .L18+8
 341 0034 11F82610 		ldrb	r1, [r1, r6, lsl #2]	@ zero_extendqisi2
 342 0038 53F82600 		ldr	r0, [r3, r6, lsl #2]
ARM GAS  /tmp/ccPVMQ2N.s 			page 7


 343              	.LVL34:
 344              	.LBE91:
 345              	.LBE90:
 346              		.loc 2 167 0
 347 003c BDE87040 		pop	{r4, r5, r6, lr}
 348              		.cfi_remember_state
 349              		.cfi_restore 14
 350              		.cfi_restore 6
 351              		.cfi_restore 5
 352              		.cfi_restore 4
 353              		.cfi_def_cfa_offset 0
 354              	.LVL35:
 355              	.LBB95:
 356              	.LBB92:
 357              		.loc 2 144 0
 358 0040 FFF7FEBF 		b	pwmEnableChannel
 359              	.LVL36:
 360              	.L17:
 361              		.cfi_restore_state
 362              		.loc 2 140 0
 363 0044 2846     		mov	r0, r5
 364              	.LVL37:
 365 0046 0849     		ldr	r1, .L18+12
 366              	.LBE92:
 367              	.LBE95:
 368              		.loc 2 167 0
 369 0048 BDE87040 		pop	{r4, r5, r6, lr}
 370              		.cfi_remember_state
 371              		.cfi_restore 14
 372              		.cfi_restore 6
 373              		.cfi_restore 5
 374              		.cfi_restore 4
 375              		.cfi_def_cfa_offset 0
 376              	.LVL38:
 377              	.LBB96:
 378              	.LBB93:
 379              		.loc 2 140 0
 380 004c FFF7FEBF 		b	chprintf
 381              	.LVL39:
 382              	.L16:
 383              		.cfi_restore_state
 384              		.loc 2 133 0
 385 0050 2846     		mov	r0, r5
 386              	.LVL40:
 387 0052 0649     		ldr	r1, .L18+16
 388              	.LBE93:
 389              	.LBE96:
 390              		.loc 2 167 0
 391 0054 BDE87040 		pop	{r4, r5, r6, lr}
 392              		.cfi_restore 14
 393              		.cfi_restore 6
 394              		.cfi_restore 5
 395              		.cfi_restore 4
 396              		.cfi_def_cfa_offset 0
 397              	.LVL41:
 398              	.LBB97:
 399              	.LBB94:
ARM GAS  /tmp/ccPVMQ2N.s 			page 8


 400              		.loc 2 133 0
 401 0058 FFF7FEBF 		b	chprintf
 402              	.LVL42:
 403              	.L19:
 404              		.align	2
 405              	.L18:
 406 005c 08000000 		.word	.LC1
 407 0060 00000000 		.word	.LANCHOR2
 408 0064 00000000 		.word	.LANCHOR3
 409 0068 8C000000 		.word	.LC3
 410 006c 64000000 		.word	.LC2
 411              	.LBE94:
 412              	.LBE97:
 413              		.cfi_endproc
 414              	.LFE262:
 415              		.size	command_set_pwm, .-command_set_pwm
 416              		.section	.text.cmd_test,"ax",%progbits
 417              		.align	2
 418              		.p2align 4,,15
 419              		.thumb
 420              		.thumb_func
 421              		.type	cmd_test, %function
 422              	cmd_test:
 423              	.LFB261:
 424              		.loc 2 72 0
 425              		.cfi_startproc
 426              		@ args = 0, pretend = 0, frame = 0
 427              		@ frame_needed = 0, uses_anonymous_args = 0
 428              	.LVL43:
 429              		.loc 2 76 0
 430 0000 0029     		cmp	r1, #0
 431 0002 02DD     		ble	.L21
 432              		.loc 2 77 0
 433 0004 0E49     		ldr	r1, .L25
 434              	.LVL44:
 435 0006 FFF7FEBF 		b	chprintf
 436              	.LVL45:
 437              	.L21:
 438              		.loc 2 72 0
 439 000a 10B5     		push	{r4, lr}
 440              		.cfi_def_cfa_offset 8
 441              		.cfi_offset 4, -8
 442              		.cfi_offset 14, -4
 443              	.LBB104:
 444              	.LBB105:
 445              	.LBB106:
 446              	.LBB107:
 447              	.LBB108:
 448              	.LBB109:
 449              		.file 5 "/home/selim/working/ChibiOS/os/rt/include/chthreads.h"
 450              		.loc 5 176 0
 451 000c 0D4A     		ldr	r2, .L25+4
 452              	.LVL46:
 453              	.LBE109:
 454              	.LBE108:
 455              	.LBE107:
 456              	.LBE106:
ARM GAS  /tmp/ccPVMQ2N.s 			page 9


 457              		.loc 2 80 0
 458 000e 0E4B     		ldr	r3, .L25+8
 459              	.LBB111:
 460              	.LBB110:
 461              		.loc 5 189 0
 462 0010 9269     		ldr	r2, [r2, #24]
 463              	.LBE110:
 464              	.LBE111:
 465              	.LBE105:
 466              	.LBE104:
 467              		.loc 2 72 0
 468 0012 82B0     		sub	sp, sp, #8
 469              		.cfi_def_cfa_offset 16
 470 0014 0446     		mov	r4, r0
 471              	.LBB115:
 472              	.LBB112:
 473              		.loc 2 80 0
 474 0016 9268     		ldr	r2, [r2, #8]
 475 0018 0090     		str	r0, [sp]
 476 001a 4FF4E471 		mov	r1, #456
 477              	.LVL47:
 478 001e 0020     		movs	r0, #0
 479              	.LVL48:
 480 0020 FFF7FEFF 		bl	chThdCreateFromHeap
 481              	.LVL49:
 482              		.loc 2 82 0
 483 0024 20B1     		cbz	r0, .L24
 484              	.LBE112:
 485              	.LBE115:
 486              		.loc 2 87 0
 487 0026 02B0     		add	sp, sp, #8
 488              		.cfi_remember_state
 489              		.cfi_def_cfa_offset 8
 490              		@ sp needed
 491 0028 BDE81040 		pop	{r4, lr}
 492              		.cfi_restore 14
 493              		.cfi_restore 4
 494              		.cfi_def_cfa_offset 0
 495              	.LVL50:
 496              	.LBB116:
 497              	.LBB113:
 498              		.loc 2 86 0
 499 002c FFF7FEBF 		b	chThdWait
 500              	.LVL51:
 501              	.L24:
 502              		.cfi_restore_state
 503              		.loc 2 83 0
 504 0030 0649     		ldr	r1, .L25+12
 505 0032 2046     		mov	r0, r4
 506              	.LVL52:
 507              	.LBE113:
 508              	.LBE116:
 509              		.loc 2 87 0
 510 0034 02B0     		add	sp, sp, #8
 511              		.cfi_def_cfa_offset 8
 512              		@ sp needed
 513 0036 BDE81040 		pop	{r4, lr}
ARM GAS  /tmp/ccPVMQ2N.s 			page 10


 514              		.cfi_restore 14
 515              		.cfi_restore 4
 516              		.cfi_def_cfa_offset 0
 517              	.LVL53:
 518              	.LBB117:
 519              	.LBB114:
 520              		.loc 2 83 0
 521 003a FFF7FEBF 		b	chprintf
 522              	.LVL54:
 523              	.L26:
 524 003e 00BF     		.align	2
 525              	.L25:
 526 0040 A8000000 		.word	.LC4
 527 0044 00000000 		.word	ch
 528 0048 00000000 		.word	TestThread
 529 004c B8000000 		.word	.LC5
 530              	.LBE114:
 531              	.LBE117:
 532              		.cfi_endproc
 533              	.LFE261:
 534              		.size	cmd_test, .-cmd_test
 535              		.section	.text.cmd_threads,"ax",%progbits
 536              		.align	2
 537              		.p2align 4,,15
 538              		.thumb
 539              		.thumb_func
 540              		.type	cmd_threads, %function
 541              	cmd_threads:
 542              	.LFB260:
 543              		.loc 2 52 0
 544              		.cfi_startproc
 545              		@ args = 0, pretend = 0, frame = 0
 546              		@ frame_needed = 0, uses_anonymous_args = 0
 547              	.LVL55:
 548              		.loc 2 57 0
 549 0000 0029     		cmp	r1, #0
 550 0002 02DD     		ble	.L28
 551              		.loc 2 58 0
 552 0004 1149     		ldr	r1, .L32
 553              	.LVL56:
 554 0006 FFF7FEBF 		b	chprintf
 555              	.LVL57:
 556              	.L28:
 557              		.loc 2 52 0
 558 000a 70B5     		push	{r4, r5, r6, lr}
 559              		.cfi_def_cfa_offset 16
 560              		.cfi_offset 4, -16
 561              		.cfi_offset 5, -12
 562              		.cfi_offset 6, -8
 563              		.cfi_offset 14, -4
 564              	.LBB120:
 565              	.LBB121:
 566              		.loc 2 61 0
 567 000c 1049     		ldr	r1, .L32+4
 568              	.LVL58:
 569 000e 114E     		ldr	r6, .L32+8
 570              	.LBE121:
ARM GAS  /tmp/ccPVMQ2N.s 			page 11


 571              	.LBE120:
 572              		.loc 2 52 0
 573 0010 84B0     		sub	sp, sp, #16
 574              		.cfi_def_cfa_offset 32
 575 0012 0546     		mov	r5, r0
 576              	.LVL59:
 577              	.LBB123:
 578              	.LBB122:
 579              		.loc 2 61 0
 580 0014 FFF7FEFF 		bl	chprintf
 581              	.LVL60:
 582              		.loc 2 62 0
 583 0018 FFF7FEFF 		bl	chRegFirstThread
 584              	.LVL61:
 585 001c 0446     		mov	r4, r0
 586              	.LVL62:
 587              	.L29:
 588              		.loc 2 64 0
 589 001e 227F     		ldrb	r2, [r4, #28]	@ zero_extendqisi2
 590 0020 E368     		ldr	r3, [r4, #12]
 591 0022 56F82220 		ldr	r2, [r6, r2, lsl #2]
 592 0026 0292     		str	r2, [sp, #8]
 593 0028 A27F     		ldrb	r2, [r4, #30]	@ zero_extendqisi2
 594 002a 0B49     		ldr	r1, .L32+12
 595 002c 013A     		subs	r2, r2, #1
 596 002e 0192     		str	r2, [sp, #4]
 597 0030 A268     		ldr	r2, [r4, #8]
 598 0032 0092     		str	r2, [sp]
 599 0034 2846     		mov	r0, r5
 600              	.LVL63:
 601 0036 2246     		mov	r2, r4
 602 0038 FFF7FEFF 		bl	chprintf
 603              	.LVL64:
 604              		.loc 2 68 0
 605 003c 2046     		mov	r0, r4
 606 003e FFF7FEFF 		bl	chRegNextThread
 607              	.LVL65:
 608              		.loc 2 69 0
 609 0042 0446     		mov	r4, r0
 610 0044 0028     		cmp	r0, #0
 611 0046 EAD1     		bne	.L29
 612              	.LBE122:
 613              	.LBE123:
 614              		.loc 2 70 0
 615 0048 04B0     		add	sp, sp, #16
 616              		.cfi_def_cfa_offset 16
 617              		@ sp needed
 618 004a 70BD     		pop	{r4, r5, r6, pc}
 619              	.LVL66:
 620              	.L33:
 621              		.align	2
 622              	.L32:
 623 004c C8000000 		.word	.LC6
 624 0050 DC000000 		.word	.LC7
 625 0054 00000000 		.word	.LANCHOR4
 626 0058 04010000 		.word	.LC8
 627              		.cfi_endproc
ARM GAS  /tmp/ccPVMQ2N.s 			page 12


 628              	.LFE260:
 629              		.size	cmd_threads, .-cmd_threads
 630              		.section	.text.cmd_mem,"ax",%progbits
 631              		.align	2
 632              		.p2align 4,,15
 633              		.thumb
 634              		.thumb_func
 635              		.type	cmd_mem, %function
 636              	cmd_mem:
 637              	.LFB259:
 638              		.loc 2 38 0
 639              		.cfi_startproc
 640              		@ args = 0, pretend = 0, frame = 8
 641              		@ frame_needed = 0, uses_anonymous_args = 0
 642              	.LVL67:
 643 0000 30B5     		push	{r4, r5, lr}
 644              		.cfi_def_cfa_offset 12
 645              		.cfi_offset 4, -12
 646              		.cfi_offset 5, -8
 647              		.cfi_offset 14, -4
 648              		.loc 2 42 0
 649 0002 0029     		cmp	r1, #0
 650              		.loc 2 38 0
 651 0004 83B0     		sub	sp, sp, #12
 652              		.cfi_def_cfa_offset 24
 653              		.loc 2 42 0
 654 0006 04DD     		ble	.L35
 655              		.loc 2 43 0
 656 0008 0E49     		ldr	r1, .L38
 657              	.LVL68:
 658 000a FFF7FEFF 		bl	chprintf
 659              	.LVL69:
 660              		.loc 2 50 0
 661 000e 03B0     		add	sp, sp, #12
 662              		.cfi_remember_state
 663              		.cfi_def_cfa_offset 12
 664              		@ sp needed
 665 0010 30BD     		pop	{r4, r5, pc}
 666              	.LVL70:
 667              	.L35:
 668              		.cfi_restore_state
 669 0012 0446     		mov	r4, r0
 670              	.LVL71:
 671              	.LBB126:
 672              	.LBB127:
 673              		.loc 2 46 0
 674 0014 01A9     		add	r1, sp, #4
 675              	.LVL72:
 676 0016 0020     		movs	r0, #0
 677              	.LVL73:
 678 0018 FFF7FEFF 		bl	chHeapStatus
 679              	.LVL74:
 680 001c 0546     		mov	r5, r0
 681              	.LVL75:
 682              		.loc 2 47 0
 683 001e FFF7FEFF 		bl	chCoreGetStatusX
 684              	.LVL76:
ARM GAS  /tmp/ccPVMQ2N.s 			page 13


 685 0022 0949     		ldr	r1, .L38+4
 686 0024 0246     		mov	r2, r0
 687 0026 2046     		mov	r0, r4
 688 0028 FFF7FEFF 		bl	chprintf
 689              	.LVL77:
 690              		.loc 2 48 0
 691 002c 2A46     		mov	r2, r5
 692 002e 0749     		ldr	r1, .L38+8
 693 0030 2046     		mov	r0, r4
 694 0032 FFF7FEFF 		bl	chprintf
 695              	.LVL78:
 696              		.loc 2 49 0
 697 0036 2046     		mov	r0, r4
 698 0038 019A     		ldr	r2, [sp, #4]
 699 003a 0549     		ldr	r1, .L38+12
 700 003c FFF7FEFF 		bl	chprintf
 701              	.LVL79:
 702              	.LBE127:
 703              	.LBE126:
 704              		.loc 2 50 0
 705 0040 03B0     		add	sp, sp, #12
 706              		.cfi_def_cfa_offset 12
 707              		@ sp needed
 708 0042 30BD     		pop	{r4, r5, pc}
 709              	.LVL80:
 710              	.L39:
 711              		.align	2
 712              	.L38:
 713 0044 20010000 		.word	.LC9
 714 0048 30010000 		.word	.LC10
 715 004c 50010000 		.word	.LC11
 716 0050 68010000 		.word	.LC12
 717              		.cfi_endproc
 718              	.LFE259:
 719              		.size	cmd_mem, .-cmd_mem
 720              		.section	.text.startup.main,"ax",%progbits
 721              		.align	2
 722              		.p2align 4,,15
 723              		.global	main
 724              		.thumb
 725              		.thumb_func
 726              		.type	main, %function
 727              	main:
 728              	.LFB264:
 729              		.loc 2 298 0
 730              		.cfi_startproc
 731              		@ args = 0, pretend = 0, frame = 0
 732              		@ frame_needed = 0, uses_anonymous_args = 0
 733              	.LVL81:
 734 0000 70B5     		push	{r4, r5, r6, lr}
 735              		.cfi_def_cfa_offset 16
 736              		.cfi_offset 4, -16
 737              		.cfi_offset 5, -12
 738              		.cfi_offset 6, -8
 739              		.cfi_offset 14, -4
 740 0002 8A4D     		ldr	r5, .L47
 741              		.loc 2 320 0
ARM GAS  /tmp/ccPVMQ2N.s 			page 14


 742 0004 8A4E     		ldr	r6, .L47+4
 743              		.loc 2 354 0
 744 0006 8B4C     		ldr	r4, .L47+8
 745              		.loc 2 298 0
 746 0008 82B0     		sub	sp, sp, #8
 747              		.cfi_def_cfa_offset 24
 748              		.loc 2 308 0
 749 000a FFF7FEFF 		bl	halInit
 750              	.LVL82:
 751              		.loc 2 309 0
 752 000e FFF7FEFF 		bl	chSysInit
 753              	.LVL83:
 754              		.loc 2 314 0
 755 0012 FFF7FEFF 		bl	shellInit
 756              	.LVL84:
 757              		.loc 2 319 0
 758 0016 2846     		mov	r0, r5
 759 0018 FFF7FEFF 		bl	sduObjectInit
 760              	.LVL85:
 761              		.loc 2 320 0
 762 001c 3146     		mov	r1, r6
 763 001e 2846     		mov	r0, r5
 764 0020 FFF7FEFF 		bl	sduStart
 765              	.LVL86:
 766              		.loc 2 327 0
 767 0024 3368     		ldr	r3, [r6]
 768 0026 1A6D     		ldr	r2, [r3, #80]
 769 0028 936B     		ldr	r3, [r2, #56]
 770 002a 23F40023 		bic	r3, r3, #524288
 771 002e 9363     		str	r3, [r2, #56]
 772              		.loc 2 328 0
 773 0030 42F21070 		movw	r0, #10000
 774 0034 FFF7FEFF 		bl	chThdSleep
 775              	.LVL87:
 776              		.loc 2 329 0
 777 0038 3068     		ldr	r0, [r6]
 778 003a 7F49     		ldr	r1, .L47+12
 779 003c FFF7FEFF 		bl	usbStart
 780              	.LVL88:
 781              		.loc 2 330 0
 782 0040 3368     		ldr	r3, [r6]
 783              		.loc 2 336 0
 784 0042 7E48     		ldr	r0, .L47+16
 785              		.loc 2 330 0
 786 0044 1A6D     		ldr	r2, [r3, #80]
 787 0046 936B     		ldr	r3, [r2, #56]
 788 0048 43F40023 		orr	r3, r3, #524288
 789 004c 9363     		str	r3, [r2, #56]
 790              		.loc 2 336 0
 791 004e 0021     		movs	r1, #0
 792 0050 FFF7FEFF 		bl	sdStart
 793              	.LVL89:
 794              		.loc 2 337 0
 795 0054 40F28232 		movw	r2, #898
 796 0058 0421     		movs	r1, #4
 797 005a 7948     		ldr	r0, .L47+20
 798 005c FFF7FEFF 		bl	_pal_lld_setgroupmode
ARM GAS  /tmp/ccPVMQ2N.s 			page 15


 799              	.LVL90:
 800              		.loc 2 338 0
 801 0060 40F28232 		movw	r2, #898
 802 0064 0821     		movs	r1, #8
 803 0066 7648     		ldr	r0, .L47+20
 804 0068 FFF7FEFF 		bl	_pal_lld_setgroupmode
 805              	.LVL91:
 806              		.loc 2 344 0
 807 006c 7549     		ldr	r1, .L47+24
 808 006e 7648     		ldr	r0, .L47+28
 809 0070 FFF7FEFF 		bl	spiStart
 810              	.LVL92:
 811              		.loc 2 353 0
 812 0074 7549     		ldr	r1, .L47+32
 813 0076 7648     		ldr	r0, .L47+36
 814 0078 FFF7FEFF 		bl	spiStart
 815              	.LVL93:
 816              		.loc 2 354 0
 817 007c 4FF48051 		mov	r1, #4096
 818 0080 2183     		strh	r1, [r4, #24]	@ movhi
 819              		.loc 2 355 0
 820 0082 2046     		mov	r0, r4
 821 0084 1922     		movs	r2, #25
 822 0086 FFF7FEFF 		bl	_pal_lld_setgroupmode
 823              	.LVL94:
 824              		.loc 2 357 0
 825 008a 2046     		mov	r0, r4
 826 008c 40F29A22 		movw	r2, #666
 827 0090 4FF40051 		mov	r1, #8192
 828 0094 FFF7FEFF 		bl	_pal_lld_setgroupmode
 829              	.LVL95:
 830              		.loc 2 359 0
 831 0098 2046     		mov	r0, r4
 832 009a 40F28222 		movw	r2, #642
 833 009e 4FF48041 		mov	r1, #16384
 834 00a2 FFF7FEFF 		bl	_pal_lld_setgroupmode
 835              	.LVL96:
 836              		.loc 2 360 0
 837 00a6 40F29A22 		movw	r2, #666
 838 00aa 2046     		mov	r0, r4
 839 00ac 4FF40041 		mov	r1, #32768
 840 00b0 FFF7FEFF 		bl	_pal_lld_setgroupmode
 841              	.LVL97:
 842              		.loc 2 366 0
 843 00b4 6749     		ldr	r1, .L47+40
 844 00b6 6848     		ldr	r0, .L47+44
 845 00b8 FFF7FEFF 		bl	pwmStart
 846              	.LVL98:
 847              		.loc 2 367 0
 848 00bc 6549     		ldr	r1, .L47+40
 849 00be 6748     		ldr	r0, .L47+48
 850 00c0 FFF7FEFF 		bl	pwmStart
 851              	.LVL99:
 852              		.loc 2 368 0
 853 00c4 6349     		ldr	r1, .L47+40
 854 00c6 6648     		ldr	r0, .L47+52
 855 00c8 FFF7FEFF 		bl	pwmStart
ARM GAS  /tmp/ccPVMQ2N.s 			page 16


 856              	.LVL100:
 857              		.loc 2 369 0
 858 00cc 6149     		ldr	r1, .L47+40
 859 00ce 6548     		ldr	r0, .L47+56
 860 00d0 FFF7FEFF 		bl	pwmStart
 861              	.LVL101:
 862              		.loc 2 371 0
 863 00d4 8222     		movs	r2, #130
 864 00d6 4FF40071 		mov	r1, #512
 865 00da 6348     		ldr	r0, .L47+60
 866 00dc FFF7FEFF 		bl	_pal_lld_setgroupmode
 867              	.LVL102:
 868              		.loc 2 372 0
 869 00e0 8222     		movs	r2, #130
 870 00e2 4FF40061 		mov	r1, #2048
 871 00e6 6048     		ldr	r0, .L47+60
 872 00e8 FFF7FEFF 		bl	_pal_lld_setgroupmode
 873              	.LVL103:
 874              		.loc 2 373 0
 875 00ec 8222     		movs	r2, #130
 876 00ee 4FF40051 		mov	r1, #8192
 877 00f2 5D48     		ldr	r0, .L47+60
 878 00f4 FFF7FEFF 		bl	_pal_lld_setgroupmode
 879              	.LVL104:
 880              		.loc 2 374 0
 881 00f8 8222     		movs	r2, #130
 882 00fa 4FF48041 		mov	r1, #16384
 883 00fe 5A48     		ldr	r0, .L47+60
 884 0100 FFF7FEFF 		bl	_pal_lld_setgroupmode
 885              	.LVL105:
 886              		.loc 2 376 0
 887 0104 3222     		movs	r2, #50
 888 0106 0021     		movs	r1, #0
 889 0108 5348     		ldr	r0, .L47+44
 890 010a FFF7FEFF 		bl	pwmEnableChannel
 891              	.LVL106:
 892              		.loc 2 377 0
 893 010e 3222     		movs	r2, #50
 894 0110 0121     		movs	r1, #1
 895 0112 5148     		ldr	r0, .L47+44
 896 0114 FFF7FEFF 		bl	pwmEnableChannel
 897              	.LVL107:
 898              		.loc 2 378 0
 899 0118 3222     		movs	r2, #50
 900 011a 0221     		movs	r1, #2
 901 011c 4E48     		ldr	r0, .L47+44
 902 011e FFF7FEFF 		bl	pwmEnableChannel
 903              	.LVL108:
 904              		.loc 2 379 0
 905 0122 3222     		movs	r2, #50
 906 0124 0321     		movs	r1, #3
 907 0126 4C48     		ldr	r0, .L47+44
 908 0128 FFF7FEFF 		bl	pwmEnableChannel
 909              	.LVL109:
 910              		.loc 2 381 0
 911 012c 4FF48172 		mov	r2, #258
 912 0130 4021     		movs	r1, #64
ARM GAS  /tmp/ccPVMQ2N.s 			page 17


 913 0132 4E48     		ldr	r0, .L47+64
 914 0134 FFF7FEFF 		bl	_pal_lld_setgroupmode
 915              	.LVL110:
 916              		.loc 2 382 0
 917 0138 4FF48172 		mov	r2, #258
 918 013c 4FF48071 		mov	r1, #256
 919 0140 4A48     		ldr	r0, .L47+64
 920 0142 FFF7FEFF 		bl	_pal_lld_setgroupmode
 921              	.LVL111:
 922              		.loc 2 383 0
 923 0146 4FF48172 		mov	r2, #258
 924 014a 4FF40071 		mov	r1, #512
 925 014e 4748     		ldr	r0, .L47+64
 926 0150 FFF7FEFF 		bl	_pal_lld_setgroupmode
 927              	.LVL112:
 928              		.loc 2 385 0
 929 0154 3222     		movs	r2, #50
 930 0156 0021     		movs	r1, #0
 931 0158 4048     		ldr	r0, .L47+48
 932 015a FFF7FEFF 		bl	pwmEnableChannel
 933              	.LVL113:
 934              		.loc 2 386 0
 935 015e 3222     		movs	r2, #50
 936 0160 0221     		movs	r1, #2
 937 0162 3E48     		ldr	r0, .L47+48
 938 0164 FFF7FEFF 		bl	pwmEnableChannel
 939              	.LVL114:
 940              		.loc 2 387 0
 941 0168 3222     		movs	r2, #50
 942 016a 0321     		movs	r1, #3
 943 016c 3B48     		ldr	r0, .L47+48
 944 016e FFF7FEFF 		bl	pwmEnableChannel
 945              	.LVL115:
 946              		.loc 2 389 0
 947 0172 4FF48172 		mov	r2, #258
 948 0176 0221     		movs	r1, #2
 949 0178 3148     		ldr	r0, .L47+20
 950 017a FFF7FEFF 		bl	_pal_lld_setgroupmode
 951              	.LVL116:
 952              		.loc 2 390 0
 953 017e 4FF48172 		mov	r2, #258
 954 0182 0421     		movs	r1, #4
 955 0184 2E48     		ldr	r0, .L47+20
 956 0186 FFF7FEFF 		bl	_pal_lld_setgroupmode
 957              	.LVL117:
 958              		.loc 2 391 0
 959 018a 4FF48172 		mov	r2, #258
 960 018e 0821     		movs	r1, #8
 961 0190 2B48     		ldr	r0, .L47+20
 962 0192 FFF7FEFF 		bl	_pal_lld_setgroupmode
 963              	.LVL118:
 964              		.loc 2 393 0
 965 0196 3222     		movs	r2, #50
 966 0198 0121     		movs	r1, #1
 967 019a 3148     		ldr	r0, .L47+52
 968 019c FFF7FEFF 		bl	pwmEnableChannel
 969              	.LVL119:
ARM GAS  /tmp/ccPVMQ2N.s 			page 18


 970              		.loc 2 394 0
 971 01a0 3222     		movs	r2, #50
 972 01a2 0221     		movs	r1, #2
 973 01a4 2E48     		ldr	r0, .L47+52
 974 01a6 FFF7FEFF 		bl	pwmEnableChannel
 975              	.LVL120:
 976              		.loc 2 395 0
 977 01aa 3222     		movs	r2, #50
 978 01ac 0321     		movs	r1, #3
 979 01ae 2C48     		ldr	r0, .L47+52
 980 01b0 FFF7FEFF 		bl	pwmEnableChannel
 981              	.LVL121:
 982              		.loc 2 397 0
 983 01b4 4FF4C172 		mov	r2, #386
 984 01b8 2021     		movs	r1, #32
 985 01ba 2B48     		ldr	r0, .L47+60
 986 01bc FFF7FEFF 		bl	_pal_lld_setgroupmode
 987              	.LVL122:
 988              		.loc 2 398 0
 989 01c0 4FF4C172 		mov	r2, #386
 990 01c4 4021     		movs	r1, #64
 991 01c6 2848     		ldr	r0, .L47+60
 992 01c8 FFF7FEFF 		bl	_pal_lld_setgroupmode
 993              	.LVL123:
 994              		.loc 2 400 0
 995 01cc 3222     		movs	r2, #50
 996 01ce 0021     		movs	r1, #0
 997 01d0 2448     		ldr	r0, .L47+56
 998 01d2 FFF7FEFF 		bl	pwmEnableChannel
 999              	.LVL124:
 1000              		.loc 2 409 0
 1001 01d6 0024     		movs	r4, #0
 1002              		.loc 2 401 0
 1003 01d8 3222     		movs	r2, #50
 1004 01da 0121     		movs	r1, #1
 1005 01dc 2148     		ldr	r0, .L47+56
 1006 01de FFF7FEFF 		bl	pwmEnableChannel
 1007              	.LVL125:
 1008              		.loc 2 409 0
 1009 01e2 0094     		str	r4, [sp]
 1010 01e4 224B     		ldr	r3, .L47+68
 1011 01e6 2348     		ldr	r0, .L47+72
 1012 01e8 4A22     		movs	r2, #74
 1013 01ea 4FF4A471 		mov	r1, #328
 1014 01ee FFF7FEFF 		bl	chThdCreateStatic
 1015              	.LVL126:
 1016              		.loc 2 417 0
 1017 01f2 44B1     		cbz	r4, .L45
 1018              	.L41:
 1019              		.loc 2 425 0
 1020 01f4 237F     		ldrb	r3, [r4, #28]	@ zero_extendqisi2
 1021 01f6 0F2B     		cmp	r3, #15
 1022 01f8 13D0     		beq	.L46
 1023              	.LVL127:
 1024              	.L42:
 1025              		.loc 2 431 0
 1026 01fa 41F28830 		movw	r0, #5000
ARM GAS  /tmp/ccPVMQ2N.s 			page 19


 1027 01fe FFF7FEFF 		bl	chThdSleep
 1028              	.LVL128:
 1029              		.loc 2 417 0
 1030 0202 002C     		cmp	r4, #0
 1031 0204 F6D1     		bne	.L41
 1032              	.L45:
 1033              	.LVL129:
 1034              		.loc 2 418 0
 1035 0206 D5F85432 		ldr	r3, [r5, #596]
 1036 020a 1B68     		ldr	r3, [r3]
 1037 020c 1B78     		ldrb	r3, [r3]	@ zero_extendqisi2
 1038 020e 042B     		cmp	r3, #4
 1039 0210 F3D1     		bne	.L42
 1040              		.loc 2 420 0
 1041 0212 4022     		movs	r2, #64
 1042 0214 40F6C801 		movw	r1, #2248
 1043 0218 1748     		ldr	r0, .L47+76
 1044 021a FFF7FEFF 		bl	shellCreate
 1045              	.LVL130:
 1046 021e 0446     		mov	r4, r0
 1047              	.LVL131:
 1048 0220 EBE7     		b	.L42
 1049              	.LVL132:
 1050              	.L46:
 1051              		.loc 2 427 0
 1052 0222 2046     		mov	r0, r4
 1053 0224 FFF7FEFF 		bl	chThdRelease
 1054              	.LVL133:
 1055              		.loc 2 428 0
 1056 0228 0024     		movs	r4, #0
 1057              	.LVL134:
 1058 022a E6E7     		b	.L42
 1059              	.L48:
 1060              		.align	2
 1061              	.L47:
 1062 022c 00000000 		.word	.LANCHOR5
 1063 0230 00000000 		.word	serusbcfg
 1064 0234 00040240 		.word	1073873920
 1065 0238 00000000 		.word	usbcfg
 1066 023c 00000000 		.word	SD2
 1067 0240 00000240 		.word	1073872896
 1068 0244 00000000 		.word	.LANCHOR6
 1069 0248 00000000 		.word	SPID1
 1070 024c 00000000 		.word	.LANCHOR7
 1071 0250 00000000 		.word	SPID2
 1072 0254 00000000 		.word	.LANCHOR8
 1073 0258 00000000 		.word	PWMD1
 1074 025c 00000000 		.word	PWMD3
 1075 0260 00000000 		.word	PWMD5
 1076 0264 00000000 		.word	PWMD9
 1077 0268 00100240 		.word	1073876992
 1078 026c 00080240 		.word	1073874944
 1079 0270 00000000 		.word	Thread1
 1080 0274 00000000 		.word	.LANCHOR9
 1081 0278 00000000 		.word	.LANCHOR10
 1082              		.cfi_endproc
 1083              	.LFE264:
ARM GAS  /tmp/ccPVMQ2N.s 			page 20


 1084              		.size	main, .-main
 1085              		.global	pwm_driver_mapping
 1086              		.global	pwm_timchannel_mapping
 1087              		.global	SDU1
 1088              		.section	.rodata.commands,"a",%progbits
 1089              		.align	2
 1090              		.type	commands, %object
 1091              		.size	commands, 40
 1092              	commands:
 1093 0000 14020000 		.word	.LC29
 1094 0004 00000000 		.word	cmd_mem
 1095 0008 18020000 		.word	.LC30
 1096 000c 00000000 		.word	cmd_threads
 1097 0010 20020000 		.word	.LC31
 1098 0014 00000000 		.word	cmd_test
 1099 0018 28020000 		.word	.LC32
 1100 001c 00000000 		.word	command_set_pwm
 1101 0020 00000000 		.word	0
 1102 0024 00000000 		.word	0
 1103              		.section	.bss.waThread1,"aw",%nobits
 1104              		.align	3
 1105              		.set	.LANCHOR9,. + 0
 1106              		.type	waThread1, %object
 1107              		.size	waThread1, 328
 1108              	waThread1:
 1109 0000 00000000 		.space	328
 1109      00000000 
 1109      00000000 
 1109      00000000 
 1109      00000000 
 1110              		.section	.data.pwm_timchannel_mapping,"aw",%progbits
 1111              		.align	2
 1112              		.set	.LANCHOR2,. + 0
 1113              		.type	pwm_timchannel_mapping, %object
 1114              		.size	pwm_timchannel_mapping, 48
 1115              	pwm_timchannel_mapping:
 1116 0000 00000000 		.word	0
 1117 0004 01000000 		.word	1
 1118 0008 02000000 		.word	2
 1119 000c 03000000 		.word	3
 1120 0010 00000000 		.word	0
 1121 0014 02000000 		.word	2
 1122 0018 03000000 		.word	3
 1123 001c 01000000 		.word	1
 1124 0020 02000000 		.word	2
 1125 0024 03000000 		.word	3
 1126 0028 00000000 		.word	0
 1127 002c 01000000 		.word	1
 1128              		.section	.bss.SDU1,"aw",%nobits
 1129              		.align	2
 1130              		.set	.LANCHOR5,. + 0
 1131              		.type	SDU1, %object
 1132              		.size	SDU1, 600
 1133              	SDU1:
 1134 0000 00000000 		.space	600
 1134      00000000 
 1134      00000000 
ARM GAS  /tmp/ccPVMQ2N.s 			page 21


 1134      00000000 
 1134      00000000 
 1135              		.section	.rodata.spi1cfg,"a",%progbits
 1136              		.align	2
 1137              		.set	.LANCHOR6,. + 0
 1138              		.type	spi1cfg, %object
 1139              		.size	spi1cfg, 12
 1140              	spi1cfg:
 1141 0000 00000000 		.word	0
 1142 0004 00100240 		.word	1073876992
 1143 0008 0300     		.short	3
 1144 000a 1B00     		.short	27
 1145              		.section	.rodata.spi2cfg,"a",%progbits
 1146              		.align	2
 1147              		.set	.LANCHOR7,. + 0
 1148              		.type	spi2cfg, %object
 1149              		.size	spi2cfg, 12
 1150              	spi2cfg:
 1151 0000 00000000 		.word	0
 1152 0004 00040240 		.word	1073873920
 1153 0008 0C00     		.short	12
 1154 000a 0000     		.short	0
 1155              		.section	.rodata.states.8289,"a",%progbits
 1156              		.align	2
 1157              		.set	.LANCHOR4,. + 0
 1158              		.type	states.8289, %object
 1159              		.size	states.8289, 64
 1160              	states.8289:
 1161 0000 88010000 		.word	.LC13
 1162 0004 90010000 		.word	.LC14
 1163 0008 98010000 		.word	.LC15
 1164 000c A0010000 		.word	.LC16
 1165 0010 AC010000 		.word	.LC17
 1166 0014 B4010000 		.word	.LC18
 1167 0018 BC010000 		.word	.LC19
 1168 001c C4010000 		.word	.LC20
 1169 0020 CC010000 		.word	.LC21
 1170 0024 D8010000 		.word	.LC22
 1171 0028 E0010000 		.word	.LC23
 1172 002c E8010000 		.word	.LC24
 1173 0030 F4010000 		.word	.LC25
 1174 0034 FC010000 		.word	.LC26
 1175 0038 04020000 		.word	.LC27
 1176 003c 0C020000 		.word	.LC28
 1177              		.section	.bss.ybuf.8318,"aw",%nobits
 1178              		.align	2
 1179              		.set	.LANCHOR1,. + 0
 1180              		.type	ybuf.8318, %object
 1181              		.size	ybuf.8318, 4
 1182              	ybuf.8318:
 1183 0000 00000000 		.space	4
 1184              		.section	.rodata.str1.4,"aMS",%progbits,1
 1185              		.align	2
 1186              	.LC0:
 1187 0000 72656164 		.ascii	"reader\000"
 1187      657200
 1188 0007 00       		.space	1
ARM GAS  /tmp/ccPVMQ2N.s 			page 22


 1189              	.LC1:
 1190 0008 7365745F 		.ascii	"set_pwm command needs 2 arguments; first one is cha"
 1190      70776D20 
 1190      636F6D6D 
 1190      616E6420 
 1190      6E656564 
 1191 003b 6E6E656C 		.ascii	"nnel number , second one is PWM value \015\012\000"
 1191      206E756D 
 1191      62657220 
 1191      2C207365 
 1191      636F6E64 
 1192              	.LC2:
 1193 0064 50574D20 		.ascii	"PWM channels should be between 0-11\015\012\000"
 1193      6368616E 
 1193      6E656C73 
 1193      2073686F 
 1193      756C6420 
 1194 008a 0000     		.space	2
 1195              	.LC3:
 1196 008c 50574D20 		.ascii	"PWM value is out of range\015\012\000"
 1196      76616C75 
 1196      65206973 
 1196      206F7574 
 1196      206F6620 
 1197              	.LC4:
 1198 00a8 55736167 		.ascii	"Usage: test\015\012\000"
 1198      653A2074 
 1198      6573740D 
 1198      0A00
 1199 00b6 0000     		.space	2
 1200              	.LC5:
 1201 00b8 6F757420 		.ascii	"out of memory\015\012\000"
 1201      6F66206D 
 1201      656D6F72 
 1201      790D0A00 
 1202              	.LC6:
 1203 00c8 55736167 		.ascii	"Usage: threads\015\012\000"
 1203      653A2074 
 1203      68726561 
 1203      64730D0A 
 1203      00
 1204 00d9 000000   		.space	3
 1205              	.LC7:
 1206 00dc 20202020 		.ascii	"    addr    stack prio refs     state\015\012\000"
 1206      61646472 
 1206      20202020 
 1206      73746163 
 1206      6B207072 
 1207              	.LC8:
 1208 0104 2530386C 		.ascii	"%08lx %08lx %4lu %4lu %9s\015\012\000"
 1208      78202530 
 1208      386C7820 
 1208      25346C75 
 1208      2025346C 
 1209              	.LC9:
 1210 0120 55736167 		.ascii	"Usage: mem\015\012\000"
 1210      653A206D 
ARM GAS  /tmp/ccPVMQ2N.s 			page 23


 1210      656D0D0A 
 1210      00
 1211 012d 000000   		.space	3
 1212              	.LC10:
 1213 0130 636F7265 		.ascii	"core free memory : %u bytes\015\012\000"
 1213      20667265 
 1213      65206D65 
 1213      6D6F7279 
 1213      203A2025 
 1214 014e 0000     		.space	2
 1215              	.LC11:
 1216 0150 68656170 		.ascii	"heap fragments   : %u\015\012\000"
 1216      20667261 
 1216      676D656E 
 1216      74732020 
 1216      203A2025 
 1217              	.LC12:
 1218 0168 68656170 		.ascii	"heap free total  : %u bytes\015\012\000"
 1218      20667265 
 1218      6520746F 
 1218      74616C20 
 1218      203A2025 
 1219 0186 0000     		.space	2
 1220              	.LC13:
 1221 0188 52454144 		.ascii	"READY\000"
 1221      5900
 1222 018e 0000     		.space	2
 1223              	.LC14:
 1224 0190 43555252 		.ascii	"CURRENT\000"
 1224      454E5400 
 1225              	.LC15:
 1226 0198 57545354 		.ascii	"WTSTART\000"
 1226      41525400 
 1227              	.LC16:
 1228 01a0 53555350 		.ascii	"SUSPENDED\000"
 1228      454E4445 
 1228      4400
 1229 01aa 0000     		.space	2
 1230              	.LC17:
 1231 01ac 51554555 		.ascii	"QUEUED\000"
 1231      454400
 1232 01b3 00       		.space	1
 1233              	.LC18:
 1234 01b4 57545345 		.ascii	"WTSEM\000"
 1234      4D00
 1235 01ba 0000     		.space	2
 1236              	.LC19:
 1237 01bc 57544D54 		.ascii	"WTMTX\000"
 1237      5800
 1238 01c2 0000     		.space	2
 1239              	.LC20:
 1240 01c4 5754434F 		.ascii	"WTCOND\000"
 1240      4E4400
 1241 01cb 00       		.space	1
 1242              	.LC21:
 1243 01cc 534C4545 		.ascii	"SLEEPING\000"
 1243      50494E47 
ARM GAS  /tmp/ccPVMQ2N.s 			page 24


 1243      00
 1244 01d5 000000   		.space	3
 1245              	.LC22:
 1246 01d8 57544558 		.ascii	"WTEXIT\000"
 1246      495400
 1247 01df 00       		.space	1
 1248              	.LC23:
 1249 01e0 57544F52 		.ascii	"WTOREVT\000"
 1249      45565400 
 1250              	.LC24:
 1251 01e8 5754414E 		.ascii	"WTANDEVT\000"
 1251      44455654 
 1251      00
 1252 01f1 000000   		.space	3
 1253              	.LC25:
 1254 01f4 534E444D 		.ascii	"SNDMSGQ\000"
 1254      53475100 
 1255              	.LC26:
 1256 01fc 534E444D 		.ascii	"SNDMSG\000"
 1256      534700
 1257 0203 00       		.space	1
 1258              	.LC27:
 1259 0204 57544D53 		.ascii	"WTMSG\000"
 1259      4700
 1260 020a 0000     		.space	2
 1261              	.LC28:
 1262 020c 46494E41 		.ascii	"FINAL\000"
 1262      4C00
 1263 0212 0000     		.space	2
 1264              	.LC29:
 1265 0214 6D656D00 		.ascii	"mem\000"
 1266              	.LC30:
 1267 0218 74687265 		.ascii	"threads\000"
 1267      61647300 
 1268              	.LC31:
 1269 0220 74657374 		.ascii	"test\000"
 1269      00
 1270 0225 000000   		.space	3
 1271              	.LC32:
 1272 0228 7365745F 		.ascii	"set_pwm\000"
 1272      70776D00 
 1273              		.section	.rodata.pwmcfg,"a",%progbits
 1274              		.align	2
 1275              		.set	.LANCHOR8,. + 0
 1276              		.type	pwmcfg, %object
 1277              		.size	pwmcfg, 52
 1278              	pwmcfg:
 1279 0000 A0860100 		.word	100000
 1280 0004 64000000 		.word	100
 1281 0008 00000000 		.word	0
 1282 000c 01000000 		.word	1
 1283 0010 00000000 		.word	0
 1284 0014 01000000 		.word	1
 1285 0018 00000000 		.word	0
 1286 001c 01000000 		.word	1
 1287 0020 00000000 		.word	0
 1288 0024 01000000 		.word	1
ARM GAS  /tmp/ccPVMQ2N.s 			page 25


 1289 0028 00000000 		.word	0
 1290 002c 00000000 		.word	0
 1291 0030 00000000 		.word	0
 1292              		.section	.rodata.shell_cfg1,"a",%progbits
 1293              		.align	2
 1294              		.set	.LANCHOR10,. + 0
 1295              		.type	shell_cfg1, %object
 1296              		.size	shell_cfg1, 8
 1297              	shell_cfg1:
 1298 0000 00000000 		.word	SDU1
 1299 0004 00000000 		.word	commands
 1300              		.section	.data.pwm_driver_mapping,"aw",%progbits
 1301              		.align	2
 1302              		.set	.LANCHOR3,. + 0
 1303              		.type	pwm_driver_mapping, %object
 1304              		.size	pwm_driver_mapping, 48
 1305              	pwm_driver_mapping:
 1306 0000 00000000 		.word	PWMD1
 1307 0004 00000000 		.word	PWMD1
 1308 0008 00000000 		.word	PWMD1
 1309 000c 00000000 		.word	PWMD1
 1310 0010 00000000 		.word	PWMD3
 1311 0014 00000000 		.word	PWMD3
 1312 0018 00000000 		.word	PWMD3
 1313 001c 00000000 		.word	PWMD5
 1314 0020 00000000 		.word	PWMD5
 1315 0024 00000000 		.word	PWMD5
 1316 0028 00000000 		.word	PWMD9
 1317 002c 00000000 		.word	PWMD9
 1318              		.section	.bss.xbuf.8317,"aw",%nobits
 1319              		.align	2
 1320              		.set	.LANCHOR0,. + 0
 1321              		.type	xbuf.8317, %object
 1322              		.size	xbuf.8317, 4
 1323              	xbuf.8317:
 1324 0000 00000000 		.space	4
 1325              		.text
 1326              	.Letext0:
 1327              		.file 6 "/usr/lib/gcc/arm-none-eabi/5.3.1/include/stddef.h"
 1328              		.file 7 "/usr/arm-none-eabi/include/machine/_default_types.h"
 1329              		.file 8 "/usr/arm-none-eabi/include/sys/_stdint.h"
 1330              		.file 9 "/home/selim/working/ChibiOS/os/rt/ports/ARMCMx/compilers/GCC/chtypes.h"
 1331              		.file 10 "/home/selim/working/ChibiOS/os/rt/include/chsystypes.h"
 1332              		.file 11 "/home/selim/working/ChibiOS/os/rt/include/chschd.h"
 1333              		.file 12 "/home/selim/working/ChibiOS/os/ext/CMSIS/ST/stm32f407xx.h"
 1334              		.file 13 "/home/selim/working/ChibiOS/os/rt/ports/ARMCMx/chcore.h"
 1335              		.file 14 "/home/selim/working/ChibiOS/os/rt/ports/ARMCMx/chcore_v7m.h"
 1336              		.file 15 "/home/selim/working/ChibiOS/os/hal/ports/STM32/LLD/TIMv1/stm32_tim.h"
 1337              		.file 16 "/home/selim/working/ChibiOS/os/rt/include/chtm.h"
 1338              		.file 17 "/home/selim/working/ChibiOS/os/rt/include/chsem.h"
 1339              		.file 18 "/home/selim/working/ChibiOS/os/rt/include/chmtx.h"
 1340              		.file 19 "/home/selim/working/ChibiOS/os/rt/include/chevents.h"
 1341              		.file 20 "/home/selim/working/ChibiOS/os/rt/include/chqueues.h"
 1342              		.file 21 "/home/selim/working/ChibiOS/os/rt/include/chstreams.h"
 1343              		.file 22 "/home/selim/working/ChibiOS/os/hal/ports/STM32/STM32F4xx/stm32_dma.h"
 1344              		.file 23 "/home/selim/working/ChibiOS/os/hal/ports/STM32/LLD/GPIOv2/pal_lld.h"
 1345              		.file 24 "/home/selim/working/ChibiOS/os/hal/include/pwm.h"
ARM GAS  /tmp/ccPVMQ2N.s 			page 26


 1346              		.file 25 "/home/selim/working/ChibiOS/os/hal/ports/STM32/LLD/TIMv1/pwm_lld.h"
 1347              		.file 26 "/home/selim/working/ChibiOS/os/hal/include/serial.h"
 1348              		.file 27 "/home/selim/working/ChibiOS/os/hal/include/spi.h"
 1349              		.file 28 "/home/selim/working/ChibiOS/os/hal/ports/STM32/LLD/SPIv1/spi_lld.h"
 1350              		.file 29 "/home/selim/working/ChibiOS/os/hal/include/usb.h"
 1351              		.file 30 "/home/selim/working/ChibiOS/os/hal/ports/STM32/LLD/OTGv1/usb_lld.h"
 1352              		.file 31 "/home/selim/working/ChibiOS/os/hal/ports/STM32/LLD/OTGv1/stm32_otg.h"
 1353              		.file 32 "/home/selim/working/ChibiOS/os/hal/include/serial_usb.h"
 1354              		.file 33 "/usr/lib/gcc/arm-none-eabi/5.3.1/include/stdarg.h"
 1355              		.file 34 "<built-in>"
 1356              		.file 35 "/home/selim/working/ChibiOS/os/various/shell.h"
 1357              		.file 36 "/home/selim/working/ChibiOS/os/rt/ports/ARMCMx/chcore_timer.h"
 1358              		.file 37 "/home/selim/working/ChibiOS/os/rt/include/chsys.h"
 1359              		.file 38 "/home/selim/working/ChibiOS/os/rt/include/chvt.h"
 1360              		.file 39 "/home/selim/working/ChibiOS/os/ext/CMSIS/include/core_cm4.h"
 1361              		.file 40 "/home/selim/working/ChibiOS/os/hal/ports/STM32/LLD/USARTv1/serial_lld.h"
 1362              		.file 41 "usbcfg.h"
 1363              		.file 42 "/home/selim/working/ChibiOS/os/various/devices_lib/accel/lis302dl.h"
 1364              		.file 43 "/usr/arm-none-eabi/include/stdlib.h"
 1365              		.file 44 "/home/selim/working/ChibiOS/os/rt/include/chdynamic.h"
 1366              		.file 45 "/home/selim/working/ChibiOS/os/rt/include/chregistry.h"
 1367              		.file 46 "/home/selim/working/ChibiOS/os/rt/include/chheap.h"
 1368              		.file 47 "/home/selim/working/ChibiOS/os/rt/include/chmemcore.h"
 1369              		.file 48 "/home/selim/working/ChibiOS/os/hal/include/hal.h"