ARM GAS  /tmp/ccegC01o.s 			page 1


   1              		.syntax unified
   2              		.cpu cortex-m4
   3              		.fpu softvfp
   4              		.eabi_attribute 20, 1
   5              		.eabi_attribute 21, 1
   6              		.eabi_attribute 23, 3
   7              		.eabi_attribute 24, 1
   8              		.eabi_attribute 25, 1
   9              		.eabi_attribute 26, 1
  10              		.eabi_attribute 30, 2
  11              		.eabi_attribute 34, 1
  12              		.eabi_attribute 18, 4
  13              		.thumb
  14              		.syntax unified
  15              		.file	"nvic.c"
  16              		.text
  17              	.Ltext0:
  18              		.cfi_sections	.debug_frame
  19              		.section	.text.nvicEnableVector,"ax",%progbits
  20              		.align	2
  21              		.p2align 4,,15
  22              		.global	nvicEnableVector
  23              		.thumb
  24              		.thumb_func
  25              		.type	nvicEnableVector, %function
  26              	nvicEnableVector:
  27              	.LFB258:
  28              		.file 1 "/home/selim/working/ChibiOS/os/hal/ports/common/ARMCMx/nvic.c"
  29              		.loc 1 57 0
  30              		.cfi_startproc
  31              		@ args = 0, pretend = 0, frame = 0
  32              		@ frame_needed = 0, uses_anonymous_args = 0
  33              		@ link register save eliminated.
  34              	.LVL0:
  35 0000 4309     		lsrs	r3, r0, #5
  36 0002 9B00     		lsls	r3, r3, #2
  37 0004 10B4     		push	{r4}
  38              		.cfi_def_cfa_offset 4
  39              		.cfi_offset 4, -4
  40 0006 03F16043 		add	r3, r3, #-536870912
  41              		.loc 1 59 0
  42 000a 00F16044 		add	r4, r0, #-536870912
  43 000e 04F56144 		add	r4, r4, #57600
  44 0012 03F56143 		add	r3, r3, #57600
  45 0016 0901     		lsls	r1, r1, #4
  46              	.LVL1:
  47              		.loc 1 60 0
  48 0018 00F01F00 		and	r0, r0, #31
  49              	.LVL2:
  50 001c 0122     		movs	r2, #1
  51 001e 02FA00F0 		lsl	r0, r2, r0
  52              		.loc 1 59 0
  53 0022 C9B2     		uxtb	r1, r1
  54 0024 84F80013 		strb	r1, [r4, #768]
  55              		.loc 1 60 0
  56 0028 C3F88001 		str	r0, [r3, #384]
  57              		.loc 1 61 0
ARM GAS  /tmp/ccegC01o.s 			page 2


  58 002c 1860     		str	r0, [r3]
  59              		.loc 1 62 0
  60 002e 10BC     		pop	{r4}
  61              		.cfi_restore 4
  62              		.cfi_def_cfa_offset 0
  63              	.LVL3:
  64 0030 7047     		bx	lr
  65              		.cfi_endproc
  66              	.LFE258:
  67              		.size	nvicEnableVector, .-nvicEnableVector
  68 0032 00BF     		.section	.text.nvicDisableVector,"ax",%progbits
  69              		.align	2
  70              		.p2align 4,,15
  71              		.global	nvicDisableVector
  72              		.thumb
  73              		.thumb_func
  74              		.type	nvicDisableVector, %function
  75              	nvicDisableVector:
  76              	.LFB259:
  77              		.loc 1 69 0
  78              		.cfi_startproc
  79              		@ args = 0, pretend = 0, frame = 0
  80              		@ frame_needed = 0, uses_anonymous_args = 0
  81              		@ link register save eliminated.
  82              	.LVL4:
  83              		.loc 1 71 0
  84 0000 0749     		ldr	r1, .L5
  85 0002 4309     		lsrs	r3, r0, #5
  86              		.loc 1 69 0
  87 0004 10B4     		push	{r4}
  88              		.cfi_def_cfa_offset 4
  89              		.cfi_offset 4, -4
  90              		.loc 1 71 0
  91 0006 2033     		adds	r3, r3, #32
  92 0008 00F01F04 		and	r4, r0, #31
  93 000c 0122     		movs	r2, #1
  94              		.loc 1 72 0
  95 000e 0844     		add	r0, r0, r1
  96              	.LVL5:
  97              		.loc 1 71 0
  98 0010 A240     		lsls	r2, r2, r4
  99              		.loc 1 72 0
 100 0012 0024     		movs	r4, #0
 101              		.loc 1 71 0
 102 0014 41F82320 		str	r2, [r1, r3, lsl #2]
 103              		.loc 1 72 0
 104 0018 80F80043 		strb	r4, [r0, #768]
 105              		.loc 1 73 0
 106 001c 10BC     		pop	{r4}
 107              		.cfi_restore 4
 108              		.cfi_def_cfa_offset 0
 109 001e 7047     		bx	lr
 110              	.L6:
 111              		.align	2
 112              	.L5:
 113 0020 00E100E0 		.word	-536813312
 114              		.cfi_endproc
ARM GAS  /tmp/ccegC01o.s 			page 3


 115              	.LFE259:
 116              		.size	nvicDisableVector, .-nvicDisableVector
 117              		.section	.text.nvicSetSystemHandlerPriority,"ax",%progbits
 118              		.align	2
 119              		.p2align 4,,15
 120              		.global	nvicSetSystemHandlerPriority
 121              		.thumb
 122              		.thumb_func
 123              		.type	nvicSetSystemHandlerPriority, %function
 124              	nvicSetSystemHandlerPriority:
 125              	.LFB260:
 126              		.loc 1 81 0
 127              		.cfi_startproc
 128              		@ args = 0, pretend = 0, frame = 0
 129              		@ frame_needed = 0, uses_anonymous_args = 0
 130              		@ link register save eliminated.
 131              	.LVL6:
 132              		.loc 1 85 0
 133 0000 00F16040 		add	r0, r0, #-536870912
 134              	.LVL7:
 135 0004 00F56D40 		add	r0, r0, #60672
 136              	.LVL8:
 137 0008 0901     		lsls	r1, r1, #4
 138              	.LVL9:
 139 000a C9B2     		uxtb	r1, r1
 140 000c 0176     		strb	r1, [r0, #24]
 141 000e 7047     		bx	lr
 142              		.cfi_endproc
 143              	.LFE260:
 144              		.size	nvicSetSystemHandlerPriority, .-nvicSetSystemHandlerPriority
 145              		.section	.text.nvicClearPending,"ax",%progbits
 146              		.align	2
 147              		.p2align 4,,15
 148              		.global	nvicClearPending
 149              		.thumb
 150              		.thumb_func
 151              		.type	nvicClearPending, %function
 152              	nvicClearPending:
 153              	.LFB261:
 154              		.loc 1 93 0
 155              		.cfi_startproc
 156              		@ args = 0, pretend = 0, frame = 0
 157              		@ frame_needed = 0, uses_anonymous_args = 0
 158              		@ link register save eliminated.
 159              	.LVL10:
 160              		.loc 1 95 0
 161 0000 4309     		lsrs	r3, r0, #5
 162 0002 6033     		adds	r3, r3, #96
 163 0004 00F01F00 		and	r0, r0, #31
 164              	.LVL11:
 165 0008 0122     		movs	r2, #1
 166 000a 0349     		ldr	r1, .L9
 167 000c 02FA00F0 		lsl	r0, r2, r0
 168 0010 41F82300 		str	r0, [r1, r3, lsl #2]
 169 0014 7047     		bx	lr
 170              	.L10:
 171 0016 00BF     		.align	2
ARM GAS  /tmp/ccegC01o.s 			page 4


 172              	.L9:
 173 0018 00E100E0 		.word	-536813312
 174              		.cfi_endproc
 175              	.LFE261:
 176              		.size	nvicClearPending, .-nvicClearPending
 177              		.text
 178              	.Letext0:
 179              		.file 2 "/usr/arm-none-eabi/include/machine/_default_types.h"
 180              		.file 3 "/usr/arm-none-eabi/include/sys/_stdint.h"
 181              		.file 4 "/home/selim/working/ChibiOS/os/rt/ports/ARMCMx/compilers/GCC/chtypes.h"
 182              		.file 5 "/home/selim/working/ChibiOS/os/rt/include/chsystypes.h"
 183              		.file 6 "/home/selim/working/ChibiOS/os/rt/include/chschd.h"
 184              		.file 7 "/home/selim/working/ChibiOS/os/ext/CMSIS/include/core_cm4.h"
 185              		.file 8 "/home/selim/working/ChibiOS/os/rt/ports/ARMCMx/chcore.h"
 186              		.file 9 "/home/selim/working/ChibiOS/os/rt/ports/ARMCMx/chcore_v7m.h"
 187              		.file 10 "/home/selim/working/ChibiOS/os/rt/include/chtm.h"
 188              		.file 11 "/home/selim/working/ChibiOS/os/rt/include/chsem.h"
 189              		.file 12 "/home/selim/working/ChibiOS/os/rt/include/chmtx.h"
 190              		.section	.debug_info,"",%progbits
 191              	.Ldebug_info0:
 192 0000 E3090000 		.4byte	0x9e3
 193 0004 0400     		.2byte	0x4
 194 0006 00000000 		.4byte	.Ldebug_abbrev0
 195 000a 04       		.byte	0x4
 196 000b 01       		.uleb128 0x1
 197 000c F8030000 		.4byte	.LASF138
 198 0010 0C       		.byte	0xc
 199 0011 34010000 		.4byte	.LASF139
 200 0015 00000000 		.4byte	.Ldebug_ranges0+0
 201 0019 00000000 		.4byte	0
 202 001d 00000000 		.4byte	.Ldebug_line0
 203 0021 02       		.uleb128 0x2
 204 0022 04       		.byte	0x4
 205 0023 05       		.byte	0x5
 206 0024 696E7400 		.ascii	"int\000"
 207 0028 03       		.uleb128 0x3
 208 0029 04       		.byte	0x4
 209 002a 07       		.byte	0x7
 210 002b CB010000 		.4byte	.LASF0
 211 002f 03       		.uleb128 0x3
 212 0030 08       		.byte	0x8
 213 0031 05       		.byte	0x5
 214 0032 D6000000 		.4byte	.LASF1
 215 0036 03       		.uleb128 0x3
 216 0037 08       		.byte	0x8
 217 0038 04       		.byte	0x4
 218 0039 CD020000 		.4byte	.LASF2
 219 003d 03       		.uleb128 0x3
 220 003e 01       		.byte	0x1
 221 003f 06       		.byte	0x6
 222 0040 E4000000 		.4byte	.LASF3
 223 0044 04       		.uleb128 0x4
 224 0045 37000000 		.4byte	.LASF7
 225 0049 02       		.byte	0x2
 226 004a 1D       		.byte	0x1d
 227 004b 4F000000 		.4byte	0x4f
 228 004f 03       		.uleb128 0x3
ARM GAS  /tmp/ccegC01o.s 			page 5


 229 0050 01       		.byte	0x1
 230 0051 08       		.byte	0x8
 231 0052 88030000 		.4byte	.LASF4
 232 0056 03       		.uleb128 0x3
 233 0057 02       		.byte	0x2
 234 0058 05       		.byte	0x5
 235 0059 BB030000 		.4byte	.LASF5
 236 005d 03       		.uleb128 0x3
 237 005e 02       		.byte	0x2
 238 005f 07       		.byte	0x7
 239 0060 F1040000 		.4byte	.LASF6
 240 0064 04       		.uleb128 0x4
 241 0065 63020000 		.4byte	.LASF8
 242 0069 02       		.byte	0x2
 243 006a 3F       		.byte	0x3f
 244 006b 6F000000 		.4byte	0x6f
 245 006f 03       		.uleb128 0x3
 246 0070 04       		.byte	0x4
 247 0071 05       		.byte	0x5
 248 0072 22010000 		.4byte	.LASF9
 249 0076 04       		.uleb128 0x4
 250 0077 B7050000 		.4byte	.LASF10
 251 007b 02       		.byte	0x2
 252 007c 41       		.byte	0x41
 253 007d 81000000 		.4byte	0x81
 254 0081 03       		.uleb128 0x3
 255 0082 04       		.byte	0x4
 256 0083 07       		.byte	0x7
 257 0084 68050000 		.4byte	.LASF11
 258 0088 04       		.uleb128 0x4
 259 0089 20030000 		.4byte	.LASF12
 260 008d 02       		.byte	0x2
 261 008e 5B       		.byte	0x5b
 262 008f 93000000 		.4byte	0x93
 263 0093 03       		.uleb128 0x3
 264 0094 08       		.byte	0x8
 265 0095 07       		.byte	0x7
 266 0096 5C000000 		.4byte	.LASF13
 267 009a 04       		.uleb128 0x4
 268 009b 15060000 		.4byte	.LASF14
 269 009f 03       		.byte	0x3
 270 00a0 14       		.byte	0x14
 271 00a1 44000000 		.4byte	0x44
 272 00a5 04       		.uleb128 0x4
 273 00a6 80030000 		.4byte	.LASF15
 274 00aa 03       		.byte	0x3
 275 00ab 1F       		.byte	0x1f
 276 00ac 64000000 		.4byte	0x64
 277 00b0 04       		.uleb128 0x4
 278 00b1 37050000 		.4byte	.LASF16
 279 00b5 03       		.byte	0x3
 280 00b6 20       		.byte	0x20
 281 00b7 76000000 		.4byte	0x76
 282 00bb 04       		.uleb128 0x4
 283 00bc 2E000000 		.4byte	.LASF17
 284 00c0 03       		.byte	0x3
 285 00c1 26       		.byte	0x26
ARM GAS  /tmp/ccegC01o.s 			page 6


 286 00c2 88000000 		.4byte	0x88
 287 00c6 05       		.uleb128 0x5
 288 00c7 9A000000 		.4byte	0x9a
 289 00cb 05       		.uleb128 0x5
 290 00cc A5000000 		.4byte	0xa5
 291 00d0 05       		.uleb128 0x5
 292 00d1 B0000000 		.4byte	0xb0
 293 00d5 04       		.uleb128 0x4
 294 00d6 DB050000 		.4byte	.LASF18
 295 00da 04       		.byte	0x4
 296 00db 46       		.byte	0x46
 297 00dc B0000000 		.4byte	0xb0
 298 00e0 04       		.uleb128 0x4
 299 00e1 41020000 		.4byte	.LASF19
 300 00e5 04       		.byte	0x4
 301 00e6 49       		.byte	0x49
 302 00e7 9A000000 		.4byte	0x9a
 303 00eb 04       		.uleb128 0x4
 304 00ec 2B010000 		.4byte	.LASF20
 305 00f0 04       		.byte	0x4
 306 00f1 4A       		.byte	0x4a
 307 00f2 9A000000 		.4byte	0x9a
 308 00f6 04       		.uleb128 0x4
 309 00f7 2B030000 		.4byte	.LASF21
 310 00fb 04       		.byte	0x4
 311 00fc 4B       		.byte	0x4b
 312 00fd 9A000000 		.4byte	0x9a
 313 0101 04       		.uleb128 0x4
 314 0102 62030000 		.4byte	.LASF22
 315 0106 04       		.byte	0x4
 316 0107 4D       		.byte	0x4d
 317 0108 B0000000 		.4byte	0xb0
 318 010c 04       		.uleb128 0x4
 319 010d 1E020000 		.4byte	.LASF23
 320 0111 04       		.byte	0x4
 321 0112 4E       		.byte	0x4e
 322 0113 A5000000 		.4byte	0xa5
 323 0117 04       		.uleb128 0x4
 324 0118 57020000 		.4byte	.LASF24
 325 011c 04       		.byte	0x4
 326 011d 50       		.byte	0x50
 327 011e B0000000 		.4byte	0xb0
 328 0122 04       		.uleb128 0x4
 329 0123 C5010000 		.4byte	.LASF25
 330 0127 04       		.byte	0x4
 331 0128 52       		.byte	0x52
 332 0129 A5000000 		.4byte	0xa5
 333 012d 04       		.uleb128 0x4
 334 012e 99050000 		.4byte	.LASF26
 335 0132 05       		.byte	0x5
 336 0133 33       		.byte	0x33
 337 0134 B0000000 		.4byte	0xb0
 338 0138 04       		.uleb128 0x4
 339 0139 89050000 		.4byte	.LASF27
 340 013d 05       		.byte	0x5
 341 013e 3F       		.byte	0x3f
 342 013f 43010000 		.4byte	0x143
ARM GAS  /tmp/ccegC01o.s 			page 7


 343 0143 06       		.uleb128 0x6
 344 0144 0F020000 		.4byte	.LASF47
 345 0148 44       		.byte	0x44
 346 0149 06       		.byte	0x6
 347 014a C2       		.byte	0xc2
 348 014b 30020000 		.4byte	0x230
 349 014f 07       		.uleb128 0x7
 350 0150 D9040000 		.4byte	.LASF28
 351 0154 06       		.byte	0x6
 352 0155 C3       		.byte	0xc3
 353 0156 3B020000 		.4byte	0x23b
 354 015a 00       		.byte	0
 355 015b 07       		.uleb128 0x7
 356 015c 5B030000 		.4byte	.LASF29
 357 0160 06       		.byte	0x6
 358 0161 C5       		.byte	0xc5
 359 0162 3B020000 		.4byte	0x23b
 360 0166 04       		.byte	0x4
 361 0167 07       		.uleb128 0x7
 362 0168 B9000000 		.4byte	.LASF30
 363 016c 06       		.byte	0x6
 364 016d C7       		.byte	0xc7
 365 016e 01010000 		.4byte	0x101
 366 0172 08       		.byte	0x8
 367 0173 07       		.uleb128 0x7
 368 0174 52060000 		.4byte	.LASF31
 369 0178 06       		.byte	0x6
 370 0179 C8       		.byte	0xc8
 371 017a 41070000 		.4byte	0x741
 372 017e 0C       		.byte	0xc
 373 017f 07       		.uleb128 0x7
 374 0180 72010000 		.4byte	.LASF32
 375 0184 06       		.byte	0x6
 376 0185 CA       		.byte	0xca
 377 0186 3B020000 		.4byte	0x23b
 378 018a 10       		.byte	0x10
 379 018b 07       		.uleb128 0x7
 380 018c EF020000 		.4byte	.LASF33
 381 0190 06       		.byte	0x6
 382 0191 CB       		.byte	0xcb
 383 0192 3B020000 		.4byte	0x23b
 384 0196 14       		.byte	0x14
 385 0197 07       		.uleb128 0x7
 386 0198 32060000 		.4byte	.LASF34
 387 019c 06       		.byte	0x6
 388 019d D2       		.byte	0xd2
 389 019e C0080000 		.4byte	0x8c0
 390 01a2 18       		.byte	0x18
 391 01a3 07       		.uleb128 0x7
 392 01a4 A9030000 		.4byte	.LASF35
 393 01a8 06       		.byte	0x6
 394 01a9 DD       		.byte	0xdd
 395 01aa EB000000 		.4byte	0xeb
 396 01ae 1C       		.byte	0x1c
 397 01af 07       		.uleb128 0x7
 398 01b0 E0040000 		.4byte	.LASF36
 399 01b4 06       		.byte	0x6
ARM GAS  /tmp/ccegC01o.s 			page 8


 400 01b5 E1       		.byte	0xe1
 401 01b6 E0000000 		.4byte	0xe0
 402 01ba 1D       		.byte	0x1d
 403 01bb 07       		.uleb128 0x7
 404 01bc 03060000 		.4byte	.LASF37
 405 01c0 06       		.byte	0x6
 406 01c1 E6       		.byte	0xe6
 407 01c2 F6000000 		.4byte	0xf6
 408 01c6 1E       		.byte	0x1e
 409 01c7 08       		.uleb128 0x8
 410 01c8 705F7500 		.ascii	"p_u\000"
 411 01cc 06       		.byte	0x6
 412 01cd 3101     		.2byte	0x131
 413 01cf FB070000 		.4byte	0x7fb
 414 01d3 20       		.byte	0x20
 415 01d4 09       		.uleb128 0x9
 416 01d5 90020000 		.4byte	.LASF38
 417 01d9 06       		.byte	0x6
 418 01da 3601     		.2byte	0x136
 419 01dc 41020000 		.4byte	0x241
 420 01e0 24       		.byte	0x24
 421 01e1 09       		.uleb128 0x9
 422 01e2 F9010000 		.4byte	.LASF39
 423 01e6 06       		.byte	0x6
 424 01e7 3C01     		.2byte	0x13c
 425 01e9 65020000 		.4byte	0x265
 426 01ed 28       		.byte	0x28
 427 01ee 09       		.uleb128 0x9
 428 01ef 39060000 		.4byte	.LASF40
 429 01f3 06       		.byte	0x6
 430 01f4 4001     		.2byte	0x140
 431 01f6 0C010000 		.4byte	0x10c
 432 01fa 30       		.byte	0x30
 433 01fb 09       		.uleb128 0x9
 434 01fc 22050000 		.4byte	.LASF41
 435 0200 06       		.byte	0x6
 436 0201 4601     		.2byte	0x146
 437 0203 17010000 		.4byte	0x117
 438 0207 34       		.byte	0x34
 439 0208 09       		.uleb128 0x9
 440 0209 B1030000 		.4byte	.LASF42
 441 020d 06       		.byte	0x6
 442 020e 4D01     		.2byte	0x14d
 443 0210 BA080000 		.4byte	0x8ba
 444 0214 38       		.byte	0x38
 445 0215 09       		.uleb128 0x9
 446 0216 A3050000 		.4byte	.LASF43
 447 021a 06       		.byte	0x6
 448 021b 5101     		.2byte	0x151
 449 021d 01010000 		.4byte	0x101
 450 0221 3C       		.byte	0x3c
 451 0222 09       		.uleb128 0x9
 452 0223 F0000000 		.4byte	.LASF44
 453 0227 06       		.byte	0x6
 454 0228 5801     		.2byte	0x158
 455 022a 18030000 		.4byte	0x318
 456 022e 40       		.byte	0x40
ARM GAS  /tmp/ccegC01o.s 			page 9


 457 022f 00       		.byte	0
 458 0230 04       		.uleb128 0x4
 459 0231 A3020000 		.4byte	.LASF45
 460 0235 05       		.byte	0x5
 461 0236 44       		.byte	0x44
 462 0237 3B020000 		.4byte	0x23b
 463 023b 0A       		.uleb128 0xa
 464 023c 04       		.byte	0x4
 465 023d 38010000 		.4byte	0x138
 466 0241 04       		.uleb128 0x4
 467 0242 00000000 		.4byte	.LASF46
 468 0246 05       		.byte	0x5
 469 0247 49       		.byte	0x49
 470 0248 4C020000 		.4byte	0x24c
 471 024c 06       		.uleb128 0x6
 472 024d 58050000 		.4byte	.LASF48
 473 0251 04       		.byte	0x4
 474 0252 06       		.byte	0x6
 475 0253 B0       		.byte	0xb0
 476 0254 65020000 		.4byte	0x265
 477 0258 07       		.uleb128 0x7
 478 0259 D9040000 		.4byte	.LASF28
 479 025d 06       		.byte	0x6
 480 025e B1       		.byte	0xb1
 481 025f 3B020000 		.4byte	0x23b
 482 0263 00       		.byte	0
 483 0264 00       		.byte	0
 484 0265 04       		.uleb128 0x4
 485 0266 EA050000 		.4byte	.LASF49
 486 026a 05       		.byte	0x5
 487 026b 50       		.byte	0x50
 488 026c 70020000 		.4byte	0x270
 489 0270 06       		.uleb128 0x6
 490 0271 A3000000 		.4byte	.LASF50
 491 0275 08       		.byte	0x8
 492 0276 06       		.byte	0x6
 493 0277 B7       		.byte	0xb7
 494 0278 95020000 		.4byte	0x295
 495 027c 07       		.uleb128 0x7
 496 027d D9040000 		.4byte	.LASF28
 497 0281 06       		.byte	0x6
 498 0282 B8       		.byte	0xb8
 499 0283 3B020000 		.4byte	0x23b
 500 0287 00       		.byte	0
 501 0288 07       		.uleb128 0x7
 502 0289 5B030000 		.4byte	.LASF29
 503 028d 06       		.byte	0x6
 504 028e B9       		.byte	0xb9
 505 028f 3B020000 		.4byte	0x23b
 506 0293 04       		.byte	0x4
 507 0294 00       		.byte	0
 508 0295 04       		.uleb128 0x4
 509 0296 14000000 		.4byte	.LASF51
 510 029a 05       		.byte	0x5
 511 029b 57       		.byte	0x57
 512 029c A0020000 		.4byte	0x2a0
 513 02a0 0B       		.uleb128 0xb
ARM GAS  /tmp/ccegC01o.s 			page 10


 514 02a1 49020000 		.4byte	.LASF52
 515 02a5 1C       		.byte	0x1c
 516 02a6 06       		.byte	0x6
 517 02a7 9001     		.2byte	0x190
 518 02a9 FC020000 		.4byte	0x2fc
 519 02ad 09       		.uleb128 0x9
 520 02ae 47050000 		.4byte	.LASF53
 521 02b2 06       		.byte	0x6
 522 02b3 9101     		.2byte	0x191
 523 02b5 65020000 		.4byte	0x265
 524 02b9 00       		.byte	0
 525 02ba 09       		.uleb128 0x9
 526 02bb F1030000 		.4byte	.LASF54
 527 02bf 06       		.byte	0x6
 528 02c0 9201     		.2byte	0x192
 529 02c2 01010000 		.4byte	0x101
 530 02c6 08       		.byte	0x8
 531 02c7 09       		.uleb128 0x9
 532 02c8 F7020000 		.4byte	.LASF55
 533 02cc 06       		.byte	0x6
 534 02cd 9401     		.2byte	0x194
 535 02cf 41070000 		.4byte	0x741
 536 02d3 0C       		.byte	0xc
 537 02d4 09       		.uleb128 0x9
 538 02d5 8C010000 		.4byte	.LASF56
 539 02d9 06       		.byte	0x6
 540 02da 9701     		.2byte	0x197
 541 02dc 3B020000 		.4byte	0x23b
 542 02e0 10       		.byte	0x10
 543 02e1 09       		.uleb128 0x9
 544 02e2 18030000 		.4byte	.LASF57
 545 02e6 06       		.byte	0x6
 546 02e7 9801     		.2byte	0x198
 547 02e9 3B020000 		.4byte	0x23b
 548 02ed 14       		.byte	0x14
 549 02ee 09       		.uleb128 0x9
 550 02ef 7A050000 		.4byte	.LASF58
 551 02f3 06       		.byte	0x6
 552 02f4 9B01     		.2byte	0x19b
 553 02f6 3B020000 		.4byte	0x23b
 554 02fa 18       		.byte	0x18
 555 02fb 00       		.byte	0
 556 02fc 04       		.uleb128 0x4
 557 02fd AE050000 		.4byte	.LASF59
 558 0301 05       		.byte	0x5
 559 0302 5C       		.byte	0x5c
 560 0303 07030000 		.4byte	0x307
 561 0307 0A       		.uleb128 0xa
 562 0308 04       		.byte	0x4
 563 0309 0D030000 		.4byte	0x30d
 564 030d 0C       		.uleb128 0xc
 565 030e 18030000 		.4byte	0x318
 566 0312 0D       		.uleb128 0xd
 567 0313 18030000 		.4byte	0x318
 568 0317 00       		.byte	0
 569 0318 0E       		.uleb128 0xe
 570 0319 04       		.byte	0x4
ARM GAS  /tmp/ccegC01o.s 			page 11


 571 031a 04       		.uleb128 0x4
 572 031b 80020000 		.4byte	.LASF60
 573 031f 05       		.byte	0x5
 574 0320 61       		.byte	0x61
 575 0321 25030000 		.4byte	0x325
 576 0325 0B       		.uleb128 0xb
 577 0326 04050000 		.4byte	.LASF61
 578 032a 14       		.byte	0x14
 579 032b 06       		.byte	0x6
 580 032c 6B01     		.2byte	0x16b
 581 032e 74030000 		.4byte	0x374
 582 0332 09       		.uleb128 0x9
 583 0333 D8010000 		.4byte	.LASF62
 584 0337 06       		.byte	0x6
 585 0338 6C01     		.2byte	0x16c
 586 033a D2080000 		.4byte	0x8d2
 587 033e 00       		.byte	0
 588 033f 09       		.uleb128 0x9
 589 0340 9D010000 		.4byte	.LASF63
 590 0344 06       		.byte	0x6
 591 0345 6D01     		.2byte	0x16d
 592 0347 D2080000 		.4byte	0x8d2
 593 034b 04       		.byte	0x4
 594 034c 09       		.uleb128 0x9
 595 034d 4F050000 		.4byte	.LASF64
 596 0351 06       		.byte	0x6
 597 0352 6E01     		.2byte	0x16e
 598 0354 2D010000 		.4byte	0x12d
 599 0358 08       		.byte	0x8
 600 0359 09       		.uleb128 0x9
 601 035a 58060000 		.4byte	.LASF65
 602 035e 06       		.byte	0x6
 603 035f 6F01     		.2byte	0x16f
 604 0361 FC020000 		.4byte	0x2fc
 605 0365 0C       		.byte	0xc
 606 0366 09       		.uleb128 0x9
 607 0367 E3050000 		.4byte	.LASF66
 608 036b 06       		.byte	0x6
 609 036c 7101     		.2byte	0x171
 610 036e 18030000 		.4byte	0x318
 611 0372 10       		.byte	0x10
 612 0373 00       		.byte	0
 613 0374 04       		.uleb128 0x4
 614 0375 87000000 		.4byte	.LASF67
 615 0379 05       		.byte	0x5
 616 037a 66       		.byte	0x66
 617 037b 7F030000 		.4byte	0x37f
 618 037f 0B       		.uleb128 0xb
 619 0380 B6020000 		.4byte	.LASF68
 620 0384 10       		.byte	0x10
 621 0385 06       		.byte	0x6
 622 0386 7B01     		.2byte	0x17b
 623 0388 C1030000 		.4byte	0x3c1
 624 038c 09       		.uleb128 0x9
 625 038d D8010000 		.4byte	.LASF62
 626 0391 06       		.byte	0x6
 627 0392 7C01     		.2byte	0x17c
ARM GAS  /tmp/ccegC01o.s 			page 12


 628 0394 D2080000 		.4byte	0x8d2
 629 0398 00       		.byte	0
 630 0399 09       		.uleb128 0x9
 631 039a 9D010000 		.4byte	.LASF63
 632 039e 06       		.byte	0x6
 633 039f 7E01     		.2byte	0x17e
 634 03a1 D2080000 		.4byte	0x8d2
 635 03a5 04       		.byte	0x4
 636 03a6 09       		.uleb128 0x9
 637 03a7 4F050000 		.4byte	.LASF64
 638 03ab 06       		.byte	0x6
 639 03ac 8001     		.2byte	0x180
 640 03ae 2D010000 		.4byte	0x12d
 641 03b2 08       		.byte	0x8
 642 03b3 09       		.uleb128 0x9
 643 03b4 E3020000 		.4byte	.LASF69
 644 03b8 06       		.byte	0x6
 645 03b9 8801     		.2byte	0x188
 646 03bb 2D010000 		.4byte	0x12d
 647 03bf 0C       		.byte	0xc
 648 03c0 00       		.byte	0
 649 03c1 04       		.uleb128 0x4
 650 03c2 4D000000 		.4byte	.LASF70
 651 03c6 05       		.byte	0x5
 652 03c7 6B       		.byte	0x6b
 653 03c8 CC030000 		.4byte	0x3cc
 654 03cc 0B       		.uleb128 0xb
 655 03cd 6A030000 		.4byte	.LASF71
 656 03d1 04       		.byte	0x4
 657 03d2 06       		.byte	0x6
 658 03d3 A201     		.2byte	0x1a2
 659 03d5 E7030000 		.4byte	0x3e7
 660 03d9 09       		.uleb128 0x9
 661 03da C2050000 		.4byte	.LASF72
 662 03de 06       		.byte	0x6
 663 03df AA01     		.2byte	0x1aa
 664 03e1 D8080000 		.4byte	0x8d8
 665 03e5 00       		.byte	0
 666 03e6 00       		.byte	0
 667 03e7 04       		.uleb128 0x4
 668 03e8 35020000 		.4byte	.LASF73
 669 03ec 05       		.byte	0x5
 670 03ed 70       		.byte	0x70
 671 03ee F2030000 		.4byte	0x3f2
 672 03f2 0F       		.uleb128 0xf
 673 03f3 18010000 		.4byte	.LASF74
 674 03f7 5001     		.2byte	0x150
 675 03f9 06       		.byte	0x6
 676 03fa C201     		.2byte	0x1c2
 677 03fc 4E040000 		.4byte	0x44e
 678 0400 09       		.uleb128 0x9
 679 0401 0F060000 		.4byte	.LASF75
 680 0405 06       		.byte	0x6
 681 0406 C601     		.2byte	0x1c6
 682 0408 95020000 		.4byte	0x295
 683 040c 00       		.byte	0
 684 040d 09       		.uleb128 0x9
ARM GAS  /tmp/ccegC01o.s 			page 13


 685 040e 11010000 		.4byte	.LASF76
 686 0412 06       		.byte	0x6
 687 0413 CA01     		.2byte	0x1ca
 688 0415 74030000 		.4byte	0x374
 689 0419 1C       		.byte	0x1c
 690 041a 08       		.uleb128 0x8
 691 041b 64626700 		.ascii	"dbg\000"
 692 041f 06       		.byte	0x6
 693 0420 CE01     		.2byte	0x1ce
 694 0422 C1030000 		.4byte	0x3c1
 695 0426 2C       		.byte	0x2c
 696 0427 09       		.uleb128 0x9
 697 0428 7C000000 		.4byte	.LASF77
 698 042c 06       		.byte	0x6
 699 042d D201     		.2byte	0x1d2
 700 042f 38010000 		.4byte	0x138
 701 0433 30       		.byte	0x30
 702 0434 08       		.uleb128 0x8
 703 0435 746D00   		.ascii	"tm\000"
 704 0438 06       		.byte	0x6
 705 0439 D701     		.2byte	0x1d7
 706 043b F0070000 		.4byte	0x7f0
 707 043f 74       		.byte	0x74
 708 0440 09       		.uleb128 0x9
 709 0441 B6010000 		.4byte	.LASF78
 710 0445 06       		.byte	0x6
 711 0446 E301     		.2byte	0x1e3
 712 0448 DD080000 		.4byte	0x8dd
 713 044c 78       		.byte	0x78
 714 044d 00       		.byte	0
 715 044e 10       		.uleb128 0x10
 716 044f 040E     		.2byte	0xe04
 717 0451 07       		.byte	0x7
 718 0452 5001     		.2byte	0x150
 719 0454 0A050000 		.4byte	0x50a
 720 0458 09       		.uleb128 0x9
 721 0459 C5030000 		.4byte	.LASF79
 722 045d 07       		.byte	0x7
 723 045e 5201     		.2byte	0x152
 724 0460 21050000 		.4byte	0x521
 725 0464 00       		.byte	0
 726 0465 09       		.uleb128 0x9
 727 0466 33030000 		.4byte	.LASF80
 728 046a 07       		.byte	0x7
 729 046b 5301     		.2byte	0x153
 730 046d 26050000 		.4byte	0x526
 731 0471 20       		.byte	0x20
 732 0472 09       		.uleb128 0x9
 733 0473 0E030000 		.4byte	.LASF81
 734 0477 07       		.byte	0x7
 735 0478 5401     		.2byte	0x154
 736 047a 36050000 		.4byte	0x536
 737 047e 80       		.byte	0x80
 738 047f 09       		.uleb128 0x9
 739 0480 1D060000 		.4byte	.LASF82
 740 0484 07       		.byte	0x7
 741 0485 5501     		.2byte	0x155
ARM GAS  /tmp/ccegC01o.s 			page 14


 742 0487 26050000 		.4byte	0x526
 743 048b A0       		.byte	0xa0
 744 048c 11       		.uleb128 0x11
 745 048d B4000000 		.4byte	.LASF83
 746 0491 07       		.byte	0x7
 747 0492 5601     		.2byte	0x156
 748 0494 3B050000 		.4byte	0x53b
 749 0498 0001     		.2byte	0x100
 750 049a 11       		.uleb128 0x11
 751 049b 3D030000 		.4byte	.LASF84
 752 049f 07       		.byte	0x7
 753 04a0 5701     		.2byte	0x157
 754 04a2 26050000 		.4byte	0x526
 755 04a6 2001     		.2byte	0x120
 756 04a8 11       		.uleb128 0x11
 757 04a9 0F000000 		.4byte	.LASF85
 758 04ad 07       		.byte	0x7
 759 04ae 5801     		.2byte	0x158
 760 04b0 40050000 		.4byte	0x540
 761 04b4 8001     		.2byte	0x180
 762 04b6 11       		.uleb128 0x11
 763 04b7 47030000 		.4byte	.LASF86
 764 04bb 07       		.byte	0x7
 765 04bc 5901     		.2byte	0x159
 766 04be 26050000 		.4byte	0x526
 767 04c2 A001     		.2byte	0x1a0
 768 04c4 11       		.uleb128 0x11
 769 04c5 DE020000 		.4byte	.LASF87
 770 04c9 07       		.byte	0x7
 771 04ca 5A01     		.2byte	0x15a
 772 04cc 45050000 		.4byte	0x545
 773 04d0 0002     		.2byte	0x200
 774 04d2 11       		.uleb128 0x11
 775 04d3 51030000 		.4byte	.LASF88
 776 04d7 07       		.byte	0x7
 777 04d8 5B01     		.2byte	0x15b
 778 04da 4A050000 		.4byte	0x54a
 779 04de 2002     		.2byte	0x220
 780 04e0 12       		.uleb128 0x12
 781 04e1 495000   		.ascii	"IP\000"
 782 04e4 07       		.byte	0x7
 783 04e5 5C01     		.2byte	0x15c
 784 04e7 6A050000 		.4byte	0x56a
 785 04eb 0003     		.2byte	0x300
 786 04ed 11       		.uleb128 0x11
 787 04ee 2D050000 		.4byte	.LASF89
 788 04f2 07       		.byte	0x7
 789 04f3 5D01     		.2byte	0x15d
 790 04f5 6F050000 		.4byte	0x56f
 791 04f9 F003     		.2byte	0x3f0
 792 04fb 11       		.uleb128 0x11
 793 04fc 26060000 		.4byte	.LASF90
 794 0500 07       		.byte	0x7
 795 0501 5E01     		.2byte	0x15e
 796 0503 D0000000 		.4byte	0xd0
 797 0507 000E     		.2byte	0xe00
 798 0509 00       		.byte	0
ARM GAS  /tmp/ccegC01o.s 			page 15


 799 050a 13       		.uleb128 0x13
 800 050b D0000000 		.4byte	0xd0
 801 050f 1A050000 		.4byte	0x51a
 802 0513 14       		.uleb128 0x14
 803 0514 1A050000 		.4byte	0x51a
 804 0518 07       		.byte	0x7
 805 0519 00       		.byte	0
 806 051a 03       		.uleb128 0x3
 807 051b 04       		.byte	0x4
 808 051c 07       		.byte	0x7
 809 051d 9A020000 		.4byte	.LASF91
 810 0521 05       		.uleb128 0x5
 811 0522 0A050000 		.4byte	0x50a
 812 0526 13       		.uleb128 0x13
 813 0527 B0000000 		.4byte	0xb0
 814 052b 36050000 		.4byte	0x536
 815 052f 14       		.uleb128 0x14
 816 0530 1A050000 		.4byte	0x51a
 817 0534 17       		.byte	0x17
 818 0535 00       		.byte	0
 819 0536 05       		.uleb128 0x5
 820 0537 0A050000 		.4byte	0x50a
 821 053b 05       		.uleb128 0x5
 822 053c 0A050000 		.4byte	0x50a
 823 0540 05       		.uleb128 0x5
 824 0541 0A050000 		.4byte	0x50a
 825 0545 05       		.uleb128 0x5
 826 0546 0A050000 		.4byte	0x50a
 827 054a 13       		.uleb128 0x13
 828 054b B0000000 		.4byte	0xb0
 829 054f 5A050000 		.4byte	0x55a
 830 0553 14       		.uleb128 0x14
 831 0554 1A050000 		.4byte	0x51a
 832 0558 37       		.byte	0x37
 833 0559 00       		.byte	0
 834 055a 13       		.uleb128 0x13
 835 055b C6000000 		.4byte	0xc6
 836 055f 6A050000 		.4byte	0x56a
 837 0563 14       		.uleb128 0x14
 838 0564 1A050000 		.4byte	0x51a
 839 0568 EF       		.byte	0xef
 840 0569 00       		.byte	0
 841 056a 05       		.uleb128 0x5
 842 056b 5A050000 		.4byte	0x55a
 843 056f 13       		.uleb128 0x13
 844 0570 B0000000 		.4byte	0xb0
 845 0574 80050000 		.4byte	0x580
 846 0578 15       		.uleb128 0x15
 847 0579 1A050000 		.4byte	0x51a
 848 057d 8302     		.2byte	0x283
 849 057f 00       		.byte	0
 850 0580 16       		.uleb128 0x16
 851 0581 CA030000 		.4byte	.LASF92
 852 0585 07       		.byte	0x7
 853 0586 5F01     		.2byte	0x15f
 854 0588 4E040000 		.4byte	0x44e
 855 058c 17       		.uleb128 0x17
ARM GAS  /tmp/ccegC01o.s 			page 16


 856 058d 8C       		.byte	0x8c
 857 058e 07       		.byte	0x7
 858 058f 7001     		.2byte	0x170
 859 0591 A7060000 		.4byte	0x6a7
 860 0595 09       		.uleb128 0x9
 861 0596 9D000000 		.4byte	.LASF93
 862 059a 07       		.byte	0x7
 863 059b 7201     		.2byte	0x172
 864 059d A7060000 		.4byte	0x6a7
 865 05a1 00       		.byte	0
 866 05a2 09       		.uleb128 0x9
 867 05a3 19020000 		.4byte	.LASF94
 868 05a7 07       		.byte	0x7
 869 05a8 7301     		.2byte	0x173
 870 05aa D0000000 		.4byte	0xd0
 871 05ae 04       		.byte	0x4
 872 05af 09       		.uleb128 0x9
 873 05b0 04020000 		.4byte	.LASF95
 874 05b4 07       		.byte	0x7
 875 05b5 7401     		.2byte	0x174
 876 05b7 D0000000 		.4byte	0xd0
 877 05bb 08       		.byte	0x8
 878 05bc 09       		.uleb128 0x9
 879 05bd 24020000 		.4byte	.LASF96
 880 05c1 07       		.byte	0x7
 881 05c2 7501     		.2byte	0x175
 882 05c4 D0000000 		.4byte	0xd0
 883 05c8 0C       		.byte	0xc
 884 05c9 08       		.uleb128 0x8
 885 05ca 53435200 		.ascii	"SCR\000"
 886 05ce 07       		.byte	0x7
 887 05cf 7601     		.2byte	0x176
 888 05d1 D0000000 		.4byte	0xd0
 889 05d5 10       		.byte	0x10
 890 05d6 08       		.uleb128 0x8
 891 05d7 43435200 		.ascii	"CCR\000"
 892 05db 07       		.byte	0x7
 893 05dc 7701     		.2byte	0x177
 894 05de D0000000 		.4byte	0xd0
 895 05e2 14       		.byte	0x14
 896 05e3 08       		.uleb128 0x8
 897 05e4 53485000 		.ascii	"SHP\000"
 898 05e8 07       		.byte	0x7
 899 05e9 7801     		.2byte	0x178
 900 05eb BC060000 		.4byte	0x6bc
 901 05ef 18       		.byte	0x18
 902 05f0 09       		.uleb128 0x9
 903 05f1 96030000 		.4byte	.LASF97
 904 05f5 07       		.byte	0x7
 905 05f6 7901     		.2byte	0x179
 906 05f8 D0000000 		.4byte	0xd0
 907 05fc 24       		.byte	0x24
 908 05fd 09       		.uleb128 0x9
 909 05fe D9020000 		.4byte	.LASF98
 910 0602 07       		.byte	0x7
 911 0603 7A01     		.2byte	0x17a
 912 0605 D0000000 		.4byte	0xd0
ARM GAS  /tmp/ccegC01o.s 			page 17


 913 0609 28       		.byte	0x28
 914 060a 09       		.uleb128 0x9
 915 060b 45060000 		.4byte	.LASF99
 916 060f 07       		.byte	0x7
 917 0610 7B01     		.2byte	0x17b
 918 0612 D0000000 		.4byte	0xd0
 919 0616 2C       		.byte	0x2c
 920 0617 09       		.uleb128 0x9
 921 0618 2A020000 		.4byte	.LASF100
 922 061c 07       		.byte	0x7
 923 061d 7C01     		.2byte	0x17c
 924 061f D0000000 		.4byte	0xd0
 925 0623 30       		.byte	0x30
 926 0624 09       		.uleb128 0x9
 927 0625 2F020000 		.4byte	.LASF101
 928 0629 07       		.byte	0x7
 929 062a 7D01     		.2byte	0x17d
 930 062c D0000000 		.4byte	0xd0
 931 0630 34       		.byte	0x34
 932 0631 09       		.uleb128 0x9
 933 0632 82010000 		.4byte	.LASF102
 934 0636 07       		.byte	0x7
 935 0637 7E01     		.2byte	0x17e
 936 0639 D0000000 		.4byte	0xd0
 937 063d 38       		.byte	0x38
 938 063e 09       		.uleb128 0x9
 939 063f 87010000 		.4byte	.LASF103
 940 0643 07       		.byte	0x7
 941 0644 7F01     		.2byte	0x17f
 942 0646 D0000000 		.4byte	0xd0
 943 064a 3C       		.byte	0x3c
 944 064b 08       		.uleb128 0x8
 945 064c 50465200 		.ascii	"PFR\000"
 946 0650 07       		.byte	0x7
 947 0651 8001     		.2byte	0x180
 948 0653 D6060000 		.4byte	0x6d6
 949 0657 40       		.byte	0x40
 950 0658 08       		.uleb128 0x8
 951 0659 44465200 		.ascii	"DFR\000"
 952 065d 07       		.byte	0x7
 953 065e 8101     		.2byte	0x181
 954 0660 A7060000 		.4byte	0x6a7
 955 0664 48       		.byte	0x48
 956 0665 08       		.uleb128 0x8
 957 0666 41445200 		.ascii	"ADR\000"
 958 066a 07       		.byte	0x7
 959 066b 8201     		.2byte	0x182
 960 066d A7060000 		.4byte	0x6a7
 961 0671 4C       		.byte	0x4c
 962 0672 09       		.uleb128 0x9
 963 0673 0A060000 		.4byte	.LASF104
 964 0677 07       		.byte	0x7
 965 0678 8301     		.2byte	0x183
 966 067a F0060000 		.4byte	0x6f0
 967 067e 50       		.byte	0x50
 968 067f 09       		.uleb128 0x9
 969 0680 D1000000 		.4byte	.LASF105
ARM GAS  /tmp/ccegC01o.s 			page 18


 970 0684 07       		.byte	0x7
 971 0685 8401     		.2byte	0x184
 972 0687 0A070000 		.4byte	0x70a
 973 068b 60       		.byte	0x60
 974 068c 09       		.uleb128 0x9
 975 068d 33030000 		.4byte	.LASF80
 976 0691 07       		.byte	0x7
 977 0692 8501     		.2byte	0x185
 978 0694 0F070000 		.4byte	0x70f
 979 0698 74       		.byte	0x74
 980 0699 09       		.uleb128 0x9
 981 069a 3F060000 		.4byte	.LASF106
 982 069e 07       		.byte	0x7
 983 069f 8601     		.2byte	0x186
 984 06a1 D0000000 		.4byte	0xd0
 985 06a5 88       		.byte	0x88
 986 06a6 00       		.byte	0
 987 06a7 18       		.uleb128 0x18
 988 06a8 D0000000 		.4byte	0xd0
 989 06ac 13       		.uleb128 0x13
 990 06ad C6000000 		.4byte	0xc6
 991 06b1 BC060000 		.4byte	0x6bc
 992 06b5 14       		.uleb128 0x14
 993 06b6 1A050000 		.4byte	0x51a
 994 06ba 0B       		.byte	0xb
 995 06bb 00       		.byte	0
 996 06bc 05       		.uleb128 0x5
 997 06bd AC060000 		.4byte	0x6ac
 998 06c1 13       		.uleb128 0x13
 999 06c2 A7060000 		.4byte	0x6a7
 1000 06c6 D1060000 		.4byte	0x6d1
 1001 06ca 14       		.uleb128 0x14
 1002 06cb 1A050000 		.4byte	0x51a
 1003 06cf 01       		.byte	0x1
 1004 06d0 00       		.byte	0
 1005 06d1 05       		.uleb128 0x5
 1006 06d2 C1060000 		.4byte	0x6c1
 1007 06d6 18       		.uleb128 0x18
 1008 06d7 D1060000 		.4byte	0x6d1
 1009 06db 13       		.uleb128 0x13
 1010 06dc A7060000 		.4byte	0x6a7
 1011 06e0 EB060000 		.4byte	0x6eb
 1012 06e4 14       		.uleb128 0x14
 1013 06e5 1A050000 		.4byte	0x51a
 1014 06e9 03       		.byte	0x3
 1015 06ea 00       		.byte	0
 1016 06eb 05       		.uleb128 0x5
 1017 06ec DB060000 		.4byte	0x6db
 1018 06f0 18       		.uleb128 0x18
 1019 06f1 EB060000 		.4byte	0x6eb
 1020 06f5 13       		.uleb128 0x13
 1021 06f6 A7060000 		.4byte	0x6a7
 1022 06fa 05070000 		.4byte	0x705
 1023 06fe 14       		.uleb128 0x14
 1024 06ff 1A050000 		.4byte	0x51a
 1025 0703 04       		.byte	0x4
 1026 0704 00       		.byte	0
ARM GAS  /tmp/ccegC01o.s 			page 19


 1027 0705 05       		.uleb128 0x5
 1028 0706 F5060000 		.4byte	0x6f5
 1029 070a 18       		.uleb128 0x18
 1030 070b 05070000 		.4byte	0x705
 1031 070f 13       		.uleb128 0x13
 1032 0710 B0000000 		.4byte	0xb0
 1033 0714 1F070000 		.4byte	0x71f
 1034 0718 14       		.uleb128 0x14
 1035 0719 1A050000 		.4byte	0x51a
 1036 071d 04       		.byte	0x4
 1037 071e 00       		.byte	0
 1038 071f 16       		.uleb128 0x16
 1039 0720 A5010000 		.4byte	.LASF107
 1040 0724 07       		.byte	0x7
 1041 0725 8701     		.2byte	0x187
 1042 0727 8C050000 		.4byte	0x58c
 1043 072b 04       		.uleb128 0x4
 1044 072c 94010000 		.4byte	.LASF108
 1045 0730 08       		.byte	0x8
 1046 0731 65       		.byte	0x65
 1047 0732 18030000 		.4byte	0x318
 1048 0736 04       		.uleb128 0x4
 1049 0737 6D020000 		.4byte	.LASF109
 1050 073b 08       		.byte	0x8
 1051 073c 6D       		.byte	0x6d
 1052 073d BB000000 		.4byte	0xbb
 1053 0741 06       		.uleb128 0x6
 1054 0742 D3050000 		.4byte	.LASF110
 1055 0746 04       		.byte	0x4
 1056 0747 08       		.byte	0x8
 1057 0748 89       		.byte	0x89
 1058 0749 5A070000 		.4byte	0x75a
 1059 074d 19       		.uleb128 0x19
 1060 074e 72313300 		.ascii	"r13\000"
 1061 0752 08       		.byte	0x8
 1062 0753 8A       		.byte	0x8a
 1063 0754 D5070000 		.4byte	0x7d5
 1064 0758 00       		.byte	0
 1065 0759 00       		.byte	0
 1066 075a 06       		.uleb128 0x6
 1067 075b 41000000 		.4byte	.LASF111
 1068 075f 24       		.byte	0x24
 1069 0760 09       		.byte	0x9
 1070 0761 F4       		.byte	0xf4
 1071 0762 D5070000 		.4byte	0x7d5
 1072 0766 08       		.uleb128 0x8
 1073 0767 723400   		.ascii	"r4\000"
 1074 076a 09       		.byte	0x9
 1075 076b 0701     		.2byte	0x107
 1076 076d 2B070000 		.4byte	0x72b
 1077 0771 00       		.byte	0
 1078 0772 08       		.uleb128 0x8
 1079 0773 723500   		.ascii	"r5\000"
 1080 0776 09       		.byte	0x9
 1081 0777 0801     		.2byte	0x108
 1082 0779 2B070000 		.4byte	0x72b
 1083 077d 04       		.byte	0x4
ARM GAS  /tmp/ccegC01o.s 			page 20


 1084 077e 08       		.uleb128 0x8
 1085 077f 723600   		.ascii	"r6\000"
 1086 0782 09       		.byte	0x9
 1087 0783 0901     		.2byte	0x109
 1088 0785 2B070000 		.4byte	0x72b
 1089 0789 08       		.byte	0x8
 1090 078a 08       		.uleb128 0x8
 1091 078b 723700   		.ascii	"r7\000"
 1092 078e 09       		.byte	0x9
 1093 078f 0A01     		.2byte	0x10a
 1094 0791 2B070000 		.4byte	0x72b
 1095 0795 0C       		.byte	0xc
 1096 0796 08       		.uleb128 0x8
 1097 0797 723800   		.ascii	"r8\000"
 1098 079a 09       		.byte	0x9
 1099 079b 0B01     		.2byte	0x10b
 1100 079d 2B070000 		.4byte	0x72b
 1101 07a1 10       		.byte	0x10
 1102 07a2 08       		.uleb128 0x8
 1103 07a3 723900   		.ascii	"r9\000"
 1104 07a6 09       		.byte	0x9
 1105 07a7 0C01     		.2byte	0x10c
 1106 07a9 2B070000 		.4byte	0x72b
 1107 07ad 14       		.byte	0x14
 1108 07ae 08       		.uleb128 0x8
 1109 07af 72313000 		.ascii	"r10\000"
 1110 07b3 09       		.byte	0x9
 1111 07b4 0D01     		.2byte	0x10d
 1112 07b6 2B070000 		.4byte	0x72b
 1113 07ba 18       		.byte	0x18
 1114 07bb 08       		.uleb128 0x8
 1115 07bc 72313100 		.ascii	"r11\000"
 1116 07c0 09       		.byte	0x9
 1117 07c1 0E01     		.2byte	0x10e
 1118 07c3 2B070000 		.4byte	0x72b
 1119 07c7 1C       		.byte	0x1c
 1120 07c8 08       		.uleb128 0x8
 1121 07c9 6C7200   		.ascii	"lr\000"
 1122 07cc 09       		.byte	0x9
 1123 07cd 0F01     		.2byte	0x10f
 1124 07cf 2B070000 		.4byte	0x72b
 1125 07d3 20       		.byte	0x20
 1126 07d4 00       		.byte	0
 1127 07d5 0A       		.uleb128 0xa
 1128 07d6 04       		.byte	0x4
 1129 07d7 5A070000 		.4byte	0x75a
 1130 07db 1A       		.uleb128 0x1a
 1131 07dc 04       		.byte	0x4
 1132 07dd 0A       		.byte	0xa
 1133 07de 38       		.byte	0x38
 1134 07df F0070000 		.4byte	0x7f0
 1135 07e3 07       		.uleb128 0x7
 1136 07e4 CC050000 		.4byte	.LASF112
 1137 07e8 0A       		.byte	0xa
 1138 07e9 3C       		.byte	0x3c
 1139 07ea D5000000 		.4byte	0xd5
 1140 07ee 00       		.byte	0
ARM GAS  /tmp/ccegC01o.s 			page 21


 1141 07ef 00       		.byte	0
 1142 07f0 04       		.uleb128 0x4
 1143 07f1 FD020000 		.4byte	.LASF113
 1144 07f5 0A       		.byte	0xa
 1145 07f6 3D       		.byte	0x3d
 1146 07f7 DB070000 		.4byte	0x7db
 1147 07fb 1B       		.uleb128 0x1b
 1148 07fc 04       		.byte	0x4
 1149 07fd 06       		.byte	0x6
 1150 07fe FA       		.byte	0xfa
 1151 07ff 58080000 		.4byte	0x858
 1152 0803 1C       		.uleb128 0x1c
 1153 0804 27000000 		.4byte	.LASF114
 1154 0808 06       		.byte	0x6
 1155 0809 0101     		.2byte	0x101
 1156 080b 0C010000 		.4byte	0x10c
 1157 080f 1C       		.uleb128 0x1c
 1158 0810 73000000 		.4byte	.LASF115
 1159 0814 06       		.byte	0x6
 1160 0815 0801     		.2byte	0x108
 1161 0817 0C010000 		.4byte	0x10c
 1162 081b 1C       		.uleb128 0x1c
 1163 081c 2B060000 		.4byte	.LASF116
 1164 0820 06       		.byte	0x6
 1165 0821 0F01     		.2byte	0x10f
 1166 0823 18030000 		.4byte	0x318
 1167 0827 1C       		.uleb128 0x1c
 1168 0828 21000000 		.4byte	.LASF117
 1169 082c 06       		.byte	0x6
 1170 082d 1601     		.2byte	0x116
 1171 082f 58080000 		.4byte	0x858
 1172 0833 1C       		.uleb128 0x1c
 1173 0834 F2010000 		.4byte	.LASF118
 1174 0838 06       		.byte	0x6
 1175 0839 1E01     		.2byte	0x11e
 1176 083b 83080000 		.4byte	0x883
 1177 083f 1C       		.uleb128 0x1c
 1178 0840 40050000 		.4byte	.LASF119
 1179 0844 06       		.byte	0x6
 1180 0845 2701     		.2byte	0x127
 1181 0847 BA080000 		.4byte	0x8ba
 1182 084b 1C       		.uleb128 0x1c
 1183 084c D2040000 		.4byte	.LASF120
 1184 0850 06       		.byte	0x6
 1185 0851 2F01     		.2byte	0x12f
 1186 0853 17010000 		.4byte	0x117
 1187 0857 00       		.byte	0
 1188 0858 0A       		.uleb128 0xa
 1189 0859 04       		.byte	0x4
 1190 085a 30020000 		.4byte	0x230
 1191 085e 06       		.uleb128 0x6
 1192 085f 15050000 		.4byte	.LASF121
 1193 0863 0C       		.byte	0xc
 1194 0864 0B       		.byte	0xb
 1195 0865 34       		.byte	0x34
 1196 0866 83080000 		.4byte	0x883
 1197 086a 07       		.uleb128 0x7
ARM GAS  /tmp/ccegC01o.s 			page 22


 1198 086b 7A010000 		.4byte	.LASF122
 1199 086f 0B       		.byte	0xb
 1200 0870 35       		.byte	0x35
 1201 0871 65020000 		.4byte	0x265
 1202 0875 00       		.byte	0
 1203 0876 07       		.uleb128 0x7
 1204 0877 09020000 		.4byte	.LASF123
 1205 087b 0B       		.byte	0xb
 1206 087c 37       		.byte	0x37
 1207 087d 22010000 		.4byte	0x122
 1208 0881 08       		.byte	0x8
 1209 0882 00       		.byte	0
 1210 0883 0A       		.uleb128 0xa
 1211 0884 04       		.byte	0x4
 1212 0885 5E080000 		.4byte	0x85e
 1213 0889 06       		.uleb128 0x6
 1214 088a FA050000 		.4byte	.LASF124
 1215 088e 10       		.byte	0x10
 1216 088f 0C       		.byte	0xc
 1217 0890 39       		.byte	0x39
 1218 0891 BA080000 		.4byte	0x8ba
 1219 0895 07       		.uleb128 0x7
 1220 0896 F8000000 		.4byte	.LASF125
 1221 089a 0C       		.byte	0xc
 1222 089b 3A       		.byte	0x3a
 1223 089c 65020000 		.4byte	0x265
 1224 08a0 00       		.byte	0
 1225 08a1 07       		.uleb128 0x7
 1226 08a2 4A060000 		.4byte	.LASF126
 1227 08a6 0C       		.byte	0xc
 1228 08a7 3C       		.byte	0x3c
 1229 08a8 3B020000 		.4byte	0x23b
 1230 08ac 08       		.byte	0x8
 1231 08ad 07       		.uleb128 0x7
 1232 08ae 92050000 		.4byte	.LASF127
 1233 08b2 0C       		.byte	0xc
 1234 08b3 3E       		.byte	0x3e
 1235 08b4 F8080000 		.4byte	0x8f8
 1236 08b8 0C       		.byte	0xc
 1237 08b9 00       		.byte	0
 1238 08ba 0A       		.uleb128 0xa
 1239 08bb 04       		.byte	0x4
 1240 08bc 89080000 		.4byte	0x889
 1241 08c0 0A       		.uleb128 0xa
 1242 08c1 04       		.byte	0x4
 1243 08c2 CD080000 		.4byte	0x8cd
 1244 08c6 03       		.uleb128 0x3
 1245 08c7 01       		.byte	0x1
 1246 08c8 08       		.byte	0x8
 1247 08c9 84050000 		.4byte	.LASF128
 1248 08cd 18       		.uleb128 0x18
 1249 08ce C6080000 		.4byte	0x8c6
 1250 08d2 0A       		.uleb128 0xa
 1251 08d3 04       		.byte	0x4
 1252 08d4 1A030000 		.4byte	0x31a
 1253 08d8 05       		.uleb128 0x5
 1254 08d9 C0080000 		.4byte	0x8c0
ARM GAS  /tmp/ccegC01o.s 			page 23


 1255 08dd 13       		.uleb128 0x13
 1256 08de 36070000 		.4byte	0x736
 1257 08e2 ED080000 		.4byte	0x8ed
 1258 08e6 14       		.uleb128 0x14
 1259 08e7 1A050000 		.4byte	0x51a
 1260 08eb 1A       		.byte	0x1a
 1261 08ec 00       		.byte	0
 1262 08ed 04       		.uleb128 0x4
 1263 08ee AE010000 		.4byte	.LASF129
 1264 08f2 0C       		.byte	0xc
 1265 08f3 34       		.byte	0x34
 1266 08f4 89080000 		.4byte	0x889
 1267 08f8 0A       		.uleb128 0xa
 1268 08f9 04       		.byte	0x4
 1269 08fa ED080000 		.4byte	0x8ed
 1270 08fe 03       		.uleb128 0x3
 1271 08ff 01       		.byte	0x1
 1272 0900 02       		.byte	0x2
 1273 0901 7A030000 		.4byte	.LASF130
 1274 0905 1D       		.uleb128 0x1d
 1275 0906 C0000000 		.4byte	.LASF132
 1276 090a 01       		.byte	0x1
 1277 090b 39       		.byte	0x39
 1278 090c 00000000 		.4byte	.LFB258
 1279 0910 32000000 		.4byte	.LFE258-.LFB258
 1280 0914 01       		.uleb128 0x1
 1281 0915 9C       		.byte	0x9c
 1282 0916 37090000 		.4byte	0x937
 1283 091a 1E       		.uleb128 0x1e
 1284 091b 6E00     		.ascii	"n\000"
 1285 091d 01       		.byte	0x1
 1286 091e 39       		.byte	0x39
 1287 091f B0000000 		.4byte	0xb0
 1288 0923 00000000 		.4byte	.LLST0
 1289 0927 1F       		.uleb128 0x1f
 1290 0928 13030000 		.4byte	.LASF131
 1291 092c 01       		.byte	0x1
 1292 092d 39       		.byte	0x39
 1293 092e B0000000 		.4byte	0xb0
 1294 0932 32000000 		.4byte	.LLST1
 1295 0936 00       		.byte	0
 1296 0937 1D       		.uleb128 0x1d
 1297 0938 E0010000 		.4byte	.LASF133
 1298 093c 01       		.byte	0x1
 1299 093d 45       		.byte	0x45
 1300 093e 00000000 		.4byte	.LFB259
 1301 0942 24000000 		.4byte	.LFE259-.LFB259
 1302 0946 01       		.uleb128 0x1
 1303 0947 9C       		.byte	0x9c
 1304 0948 5A090000 		.4byte	0x95a
 1305 094c 1E       		.uleb128 0x1e
 1306 094d 6E00     		.ascii	"n\000"
 1307 094f 01       		.byte	0x1
 1308 0950 45       		.byte	0x45
 1309 0951 B0000000 		.4byte	0xb0
 1310 0955 53000000 		.4byte	.LLST2
 1311 0959 00       		.byte	0
ARM GAS  /tmp/ccegC01o.s 			page 24


 1312 095a 1D       		.uleb128 0x1d
 1313 095b D4030000 		.4byte	.LASF134
 1314 095f 01       		.byte	0x1
 1315 0960 51       		.byte	0x51
 1316 0961 00000000 		.4byte	.LFB260
 1317 0965 10000000 		.4byte	.LFE260-.LFB260
 1318 0969 01       		.uleb128 0x1
 1319 096a 9C       		.byte	0x9c
 1320 096b 97090000 		.4byte	0x997
 1321 096f 1F       		.uleb128 0x1f
 1322 0970 78020000 		.4byte	.LASF135
 1323 0974 01       		.byte	0x1
 1324 0975 51       		.byte	0x51
 1325 0976 B0000000 		.4byte	0xb0
 1326 097a 77000000 		.4byte	.LLST3
 1327 097e 1F       		.uleb128 0x1f
 1328 097f 13030000 		.4byte	.LASF131
 1329 0983 01       		.byte	0x1
 1330 0984 51       		.byte	0x51
 1331 0985 B0000000 		.4byte	0xb0
 1332 0989 AC000000 		.4byte	.LLST4
 1333 098d 20       		.uleb128 0x20
 1334 098e E8040000 		.4byte	.LASF140
 1335 0992 A7090000 		.4byte	0x9a7
 1336 0996 00       		.byte	0
 1337 0997 13       		.uleb128 0x13
 1338 0998 CD080000 		.4byte	0x8cd
 1339 099c A7090000 		.4byte	0x9a7
 1340 09a0 14       		.uleb128 0x14
 1341 09a1 1A050000 		.4byte	0x51a
 1342 09a5 1C       		.byte	0x1c
 1343 09a6 00       		.byte	0
 1344 09a7 18       		.uleb128 0x18
 1345 09a8 97090000 		.4byte	0x997
 1346 09ac 1D       		.uleb128 0x1d
 1347 09ad 00010000 		.4byte	.LASF136
 1348 09b1 01       		.byte	0x1
 1349 09b2 5D       		.byte	0x5d
 1350 09b3 00000000 		.4byte	.LFB261
 1351 09b7 1C000000 		.4byte	.LFE261-.LFB261
 1352 09bb 01       		.uleb128 0x1
 1353 09bc 9C       		.byte	0x9c
 1354 09bd CF090000 		.4byte	0x9cf
 1355 09c1 1E       		.uleb128 0x1e
 1356 09c2 6E00     		.ascii	"n\000"
 1357 09c4 01       		.byte	0x1
 1358 09c5 5D       		.byte	0x5d
 1359 09c6 B0000000 		.4byte	0xb0
 1360 09ca CD000000 		.4byte	.LLST5
 1361 09ce 00       		.byte	0
 1362 09cf 21       		.uleb128 0x21
 1363 09d0 9C030000 		.4byte	.LASF137
 1364 09d4 07       		.byte	0x7
 1365 09d5 A706     		.2byte	0x6a7
 1366 09d7 CB000000 		.4byte	0xcb
 1367 09db 22       		.uleb128 0x22
 1368 09dc 636800   		.ascii	"ch\000"
ARM GAS  /tmp/ccegC01o.s 			page 25


 1369 09df 06       		.byte	0x6
 1370 09e0 0902     		.2byte	0x209
 1371 09e2 E7030000 		.4byte	0x3e7
 1372 09e6 00       		.byte	0
 1373              		.section	.debug_abbrev,"",%progbits
 1374              	.Ldebug_abbrev0:
 1375 0000 01       		.uleb128 0x1
 1376 0001 11       		.uleb128 0x11
 1377 0002 01       		.byte	0x1
 1378 0003 25       		.uleb128 0x25
 1379 0004 0E       		.uleb128 0xe
 1380 0005 13       		.uleb128 0x13
 1381 0006 0B       		.uleb128 0xb
 1382 0007 03       		.uleb128 0x3
 1383 0008 0E       		.uleb128 0xe
 1384 0009 55       		.uleb128 0x55
 1385 000a 17       		.uleb128 0x17
 1386 000b 11       		.uleb128 0x11
 1387 000c 01       		.uleb128 0x1
 1388 000d 10       		.uleb128 0x10
 1389 000e 17       		.uleb128 0x17
 1390 000f 00       		.byte	0
 1391 0010 00       		.byte	0
 1392 0011 02       		.uleb128 0x2
 1393 0012 24       		.uleb128 0x24
 1394 0013 00       		.byte	0
 1395 0014 0B       		.uleb128 0xb
 1396 0015 0B       		.uleb128 0xb
 1397 0016 3E       		.uleb128 0x3e
 1398 0017 0B       		.uleb128 0xb
 1399 0018 03       		.uleb128 0x3
 1400 0019 08       		.uleb128 0x8
 1401 001a 00       		.byte	0
 1402 001b 00       		.byte	0
 1403 001c 03       		.uleb128 0x3
 1404 001d 24       		.uleb128 0x24
 1405 001e 00       		.byte	0
 1406 001f 0B       		.uleb128 0xb
 1407 0020 0B       		.uleb128 0xb
 1408 0021 3E       		.uleb128 0x3e
 1409 0022 0B       		.uleb128 0xb
 1410 0023 03       		.uleb128 0x3
 1411 0024 0E       		.uleb128 0xe
 1412 0025 00       		.byte	0
 1413 0026 00       		.byte	0
 1414 0027 04       		.uleb128 0x4
 1415 0028 16       		.uleb128 0x16
 1416 0029 00       		.byte	0
 1417 002a 03       		.uleb128 0x3
 1418 002b 0E       		.uleb128 0xe
 1419 002c 3A       		.uleb128 0x3a
 1420 002d 0B       		.uleb128 0xb
 1421 002e 3B       		.uleb128 0x3b
 1422 002f 0B       		.uleb128 0xb
 1423 0030 49       		.uleb128 0x49
 1424 0031 13       		.uleb128 0x13
 1425 0032 00       		.byte	0
ARM GAS  /tmp/ccegC01o.s 			page 26


 1426 0033 00       		.byte	0
 1427 0034 05       		.uleb128 0x5
 1428 0035 35       		.uleb128 0x35
 1429 0036 00       		.byte	0
 1430 0037 49       		.uleb128 0x49
 1431 0038 13       		.uleb128 0x13
 1432 0039 00       		.byte	0
 1433 003a 00       		.byte	0
 1434 003b 06       		.uleb128 0x6
 1435 003c 13       		.uleb128 0x13
 1436 003d 01       		.byte	0x1
 1437 003e 03       		.uleb128 0x3
 1438 003f 0E       		.uleb128 0xe
 1439 0040 0B       		.uleb128 0xb
 1440 0041 0B       		.uleb128 0xb
 1441 0042 3A       		.uleb128 0x3a
 1442 0043 0B       		.uleb128 0xb
 1443 0044 3B       		.uleb128 0x3b
 1444 0045 0B       		.uleb128 0xb
 1445 0046 01       		.uleb128 0x1
 1446 0047 13       		.uleb128 0x13
 1447 0048 00       		.byte	0
 1448 0049 00       		.byte	0
 1449 004a 07       		.uleb128 0x7
 1450 004b 0D       		.uleb128 0xd
 1451 004c 00       		.byte	0
 1452 004d 03       		.uleb128 0x3
 1453 004e 0E       		.uleb128 0xe
 1454 004f 3A       		.uleb128 0x3a
 1455 0050 0B       		.uleb128 0xb
 1456 0051 3B       		.uleb128 0x3b
 1457 0052 0B       		.uleb128 0xb
 1458 0053 49       		.uleb128 0x49
 1459 0054 13       		.uleb128 0x13
 1460 0055 38       		.uleb128 0x38
 1461 0056 0B       		.uleb128 0xb
 1462 0057 00       		.byte	0
 1463 0058 00       		.byte	0
 1464 0059 08       		.uleb128 0x8
 1465 005a 0D       		.uleb128 0xd
 1466 005b 00       		.byte	0
 1467 005c 03       		.uleb128 0x3
 1468 005d 08       		.uleb128 0x8
 1469 005e 3A       		.uleb128 0x3a
 1470 005f 0B       		.uleb128 0xb
 1471 0060 3B       		.uleb128 0x3b
 1472 0061 05       		.uleb128 0x5
 1473 0062 49       		.uleb128 0x49
 1474 0063 13       		.uleb128 0x13
 1475 0064 38       		.uleb128 0x38
 1476 0065 0B       		.uleb128 0xb
 1477 0066 00       		.byte	0
 1478 0067 00       		.byte	0
 1479 0068 09       		.uleb128 0x9
 1480 0069 0D       		.uleb128 0xd
 1481 006a 00       		.byte	0
 1482 006b 03       		.uleb128 0x3
ARM GAS  /tmp/ccegC01o.s 			page 27


 1483 006c 0E       		.uleb128 0xe
 1484 006d 3A       		.uleb128 0x3a
 1485 006e 0B       		.uleb128 0xb
 1486 006f 3B       		.uleb128 0x3b
 1487 0070 05       		.uleb128 0x5
 1488 0071 49       		.uleb128 0x49
 1489 0072 13       		.uleb128 0x13
 1490 0073 38       		.uleb128 0x38
 1491 0074 0B       		.uleb128 0xb
 1492 0075 00       		.byte	0
 1493 0076 00       		.byte	0
 1494 0077 0A       		.uleb128 0xa
 1495 0078 0F       		.uleb128 0xf
 1496 0079 00       		.byte	0
 1497 007a 0B       		.uleb128 0xb
 1498 007b 0B       		.uleb128 0xb
 1499 007c 49       		.uleb128 0x49
 1500 007d 13       		.uleb128 0x13
 1501 007e 00       		.byte	0
 1502 007f 00       		.byte	0
 1503 0080 0B       		.uleb128 0xb
 1504 0081 13       		.uleb128 0x13
 1505 0082 01       		.byte	0x1
 1506 0083 03       		.uleb128 0x3
 1507 0084 0E       		.uleb128 0xe
 1508 0085 0B       		.uleb128 0xb
 1509 0086 0B       		.uleb128 0xb
 1510 0087 3A       		.uleb128 0x3a
 1511 0088 0B       		.uleb128 0xb
 1512 0089 3B       		.uleb128 0x3b
 1513 008a 05       		.uleb128 0x5
 1514 008b 01       		.uleb128 0x1
 1515 008c 13       		.uleb128 0x13
 1516 008d 00       		.byte	0
 1517 008e 00       		.byte	0
 1518 008f 0C       		.uleb128 0xc
 1519 0090 15       		.uleb128 0x15
 1520 0091 01       		.byte	0x1
 1521 0092 27       		.uleb128 0x27
 1522 0093 19       		.uleb128 0x19
 1523 0094 01       		.uleb128 0x1
 1524 0095 13       		.uleb128 0x13
 1525 0096 00       		.byte	0
 1526 0097 00       		.byte	0
 1527 0098 0D       		.uleb128 0xd
 1528 0099 05       		.uleb128 0x5
 1529 009a 00       		.byte	0
 1530 009b 49       		.uleb128 0x49
 1531 009c 13       		.uleb128 0x13
 1532 009d 00       		.byte	0
 1533 009e 00       		.byte	0
 1534 009f 0E       		.uleb128 0xe
 1535 00a0 0F       		.uleb128 0xf
 1536 00a1 00       		.byte	0
 1537 00a2 0B       		.uleb128 0xb
 1538 00a3 0B       		.uleb128 0xb
 1539 00a4 00       		.byte	0
ARM GAS  /tmp/ccegC01o.s 			page 28


 1540 00a5 00       		.byte	0
 1541 00a6 0F       		.uleb128 0xf
 1542 00a7 13       		.uleb128 0x13
 1543 00a8 01       		.byte	0x1
 1544 00a9 03       		.uleb128 0x3
 1545 00aa 0E       		.uleb128 0xe
 1546 00ab 0B       		.uleb128 0xb
 1547 00ac 05       		.uleb128 0x5
 1548 00ad 3A       		.uleb128 0x3a
 1549 00ae 0B       		.uleb128 0xb
 1550 00af 3B       		.uleb128 0x3b
 1551 00b0 05       		.uleb128 0x5
 1552 00b1 01       		.uleb128 0x1
 1553 00b2 13       		.uleb128 0x13
 1554 00b3 00       		.byte	0
 1555 00b4 00       		.byte	0
 1556 00b5 10       		.uleb128 0x10
 1557 00b6 13       		.uleb128 0x13
 1558 00b7 01       		.byte	0x1
 1559 00b8 0B       		.uleb128 0xb
 1560 00b9 05       		.uleb128 0x5
 1561 00ba 3A       		.uleb128 0x3a
 1562 00bb 0B       		.uleb128 0xb
 1563 00bc 3B       		.uleb128 0x3b
 1564 00bd 05       		.uleb128 0x5
 1565 00be 01       		.uleb128 0x1
 1566 00bf 13       		.uleb128 0x13
 1567 00c0 00       		.byte	0
 1568 00c1 00       		.byte	0
 1569 00c2 11       		.uleb128 0x11
 1570 00c3 0D       		.uleb128 0xd
 1571 00c4 00       		.byte	0
 1572 00c5 03       		.uleb128 0x3
 1573 00c6 0E       		.uleb128 0xe
 1574 00c7 3A       		.uleb128 0x3a
 1575 00c8 0B       		.uleb128 0xb
 1576 00c9 3B       		.uleb128 0x3b
 1577 00ca 05       		.uleb128 0x5
 1578 00cb 49       		.uleb128 0x49
 1579 00cc 13       		.uleb128 0x13
 1580 00cd 38       		.uleb128 0x38
 1581 00ce 05       		.uleb128 0x5
 1582 00cf 00       		.byte	0
 1583 00d0 00       		.byte	0
 1584 00d1 12       		.uleb128 0x12
 1585 00d2 0D       		.uleb128 0xd
 1586 00d3 00       		.byte	0
 1587 00d4 03       		.uleb128 0x3
 1588 00d5 08       		.uleb128 0x8
 1589 00d6 3A       		.uleb128 0x3a
 1590 00d7 0B       		.uleb128 0xb
 1591 00d8 3B       		.uleb128 0x3b
 1592 00d9 05       		.uleb128 0x5
 1593 00da 49       		.uleb128 0x49
 1594 00db 13       		.uleb128 0x13
 1595 00dc 38       		.uleb128 0x38
 1596 00dd 05       		.uleb128 0x5
ARM GAS  /tmp/ccegC01o.s 			page 29


 1597 00de 00       		.byte	0
 1598 00df 00       		.byte	0
 1599 00e0 13       		.uleb128 0x13
 1600 00e1 01       		.uleb128 0x1
 1601 00e2 01       		.byte	0x1
 1602 00e3 49       		.uleb128 0x49
 1603 00e4 13       		.uleb128 0x13
 1604 00e5 01       		.uleb128 0x1
 1605 00e6 13       		.uleb128 0x13
 1606 00e7 00       		.byte	0
 1607 00e8 00       		.byte	0
 1608 00e9 14       		.uleb128 0x14
 1609 00ea 21       		.uleb128 0x21
 1610 00eb 00       		.byte	0
 1611 00ec 49       		.uleb128 0x49
 1612 00ed 13       		.uleb128 0x13
 1613 00ee 2F       		.uleb128 0x2f
 1614 00ef 0B       		.uleb128 0xb
 1615 00f0 00       		.byte	0
 1616 00f1 00       		.byte	0
 1617 00f2 15       		.uleb128 0x15
 1618 00f3 21       		.uleb128 0x21
 1619 00f4 00       		.byte	0
 1620 00f5 49       		.uleb128 0x49
 1621 00f6 13       		.uleb128 0x13
 1622 00f7 2F       		.uleb128 0x2f
 1623 00f8 05       		.uleb128 0x5
 1624 00f9 00       		.byte	0
 1625 00fa 00       		.byte	0
 1626 00fb 16       		.uleb128 0x16
 1627 00fc 16       		.uleb128 0x16
 1628 00fd 00       		.byte	0
 1629 00fe 03       		.uleb128 0x3
 1630 00ff 0E       		.uleb128 0xe
 1631 0100 3A       		.uleb128 0x3a
 1632 0101 0B       		.uleb128 0xb
 1633 0102 3B       		.uleb128 0x3b
 1634 0103 05       		.uleb128 0x5
 1635 0104 49       		.uleb128 0x49
 1636 0105 13       		.uleb128 0x13
 1637 0106 00       		.byte	0
 1638 0107 00       		.byte	0
 1639 0108 17       		.uleb128 0x17
 1640 0109 13       		.uleb128 0x13
 1641 010a 01       		.byte	0x1
 1642 010b 0B       		.uleb128 0xb
 1643 010c 0B       		.uleb128 0xb
 1644 010d 3A       		.uleb128 0x3a
 1645 010e 0B       		.uleb128 0xb
 1646 010f 3B       		.uleb128 0x3b
 1647 0110 05       		.uleb128 0x5
 1648 0111 01       		.uleb128 0x1
 1649 0112 13       		.uleb128 0x13
 1650 0113 00       		.byte	0
 1651 0114 00       		.byte	0
 1652 0115 18       		.uleb128 0x18
 1653 0116 26       		.uleb128 0x26
ARM GAS  /tmp/ccegC01o.s 			page 30


 1654 0117 00       		.byte	0
 1655 0118 49       		.uleb128 0x49
 1656 0119 13       		.uleb128 0x13
 1657 011a 00       		.byte	0
 1658 011b 00       		.byte	0
 1659 011c 19       		.uleb128 0x19
 1660 011d 0D       		.uleb128 0xd
 1661 011e 00       		.byte	0
 1662 011f 03       		.uleb128 0x3
 1663 0120 08       		.uleb128 0x8
 1664 0121 3A       		.uleb128 0x3a
 1665 0122 0B       		.uleb128 0xb
 1666 0123 3B       		.uleb128 0x3b
 1667 0124 0B       		.uleb128 0xb
 1668 0125 49       		.uleb128 0x49
 1669 0126 13       		.uleb128 0x13
 1670 0127 38       		.uleb128 0x38
 1671 0128 0B       		.uleb128 0xb
 1672 0129 00       		.byte	0
 1673 012a 00       		.byte	0
 1674 012b 1A       		.uleb128 0x1a
 1675 012c 13       		.uleb128 0x13
 1676 012d 01       		.byte	0x1
 1677 012e 0B       		.uleb128 0xb
 1678 012f 0B       		.uleb128 0xb
 1679 0130 3A       		.uleb128 0x3a
 1680 0131 0B       		.uleb128 0xb
 1681 0132 3B       		.uleb128 0x3b
 1682 0133 0B       		.uleb128 0xb
 1683 0134 01       		.uleb128 0x1
 1684 0135 13       		.uleb128 0x13
 1685 0136 00       		.byte	0
 1686 0137 00       		.byte	0
 1687 0138 1B       		.uleb128 0x1b
 1688 0139 17       		.uleb128 0x17
 1689 013a 01       		.byte	0x1
 1690 013b 0B       		.uleb128 0xb
 1691 013c 0B       		.uleb128 0xb
 1692 013d 3A       		.uleb128 0x3a
 1693 013e 0B       		.uleb128 0xb
 1694 013f 3B       		.uleb128 0x3b
 1695 0140 0B       		.uleb128 0xb
 1696 0141 01       		.uleb128 0x1
 1697 0142 13       		.uleb128 0x13
 1698 0143 00       		.byte	0
 1699 0144 00       		.byte	0
 1700 0145 1C       		.uleb128 0x1c
 1701 0146 0D       		.uleb128 0xd
 1702 0147 00       		.byte	0
 1703 0148 03       		.uleb128 0x3
 1704 0149 0E       		.uleb128 0xe
 1705 014a 3A       		.uleb128 0x3a
 1706 014b 0B       		.uleb128 0xb
 1707 014c 3B       		.uleb128 0x3b
 1708 014d 05       		.uleb128 0x5
 1709 014e 49       		.uleb128 0x49
 1710 014f 13       		.uleb128 0x13
ARM GAS  /tmp/ccegC01o.s 			page 31


 1711 0150 00       		.byte	0
 1712 0151 00       		.byte	0
 1713 0152 1D       		.uleb128 0x1d
 1714 0153 2E       		.uleb128 0x2e
 1715 0154 01       		.byte	0x1
 1716 0155 3F       		.uleb128 0x3f
 1717 0156 19       		.uleb128 0x19
 1718 0157 03       		.uleb128 0x3
 1719 0158 0E       		.uleb128 0xe
 1720 0159 3A       		.uleb128 0x3a
 1721 015a 0B       		.uleb128 0xb
 1722 015b 3B       		.uleb128 0x3b
 1723 015c 0B       		.uleb128 0xb
 1724 015d 27       		.uleb128 0x27
 1725 015e 19       		.uleb128 0x19
 1726 015f 11       		.uleb128 0x11
 1727 0160 01       		.uleb128 0x1
 1728 0161 12       		.uleb128 0x12
 1729 0162 06       		.uleb128 0x6
 1730 0163 40       		.uleb128 0x40
 1731 0164 18       		.uleb128 0x18
 1732 0165 9742     		.uleb128 0x2117
 1733 0167 19       		.uleb128 0x19
 1734 0168 01       		.uleb128 0x1
 1735 0169 13       		.uleb128 0x13
 1736 016a 00       		.byte	0
 1737 016b 00       		.byte	0
 1738 016c 1E       		.uleb128 0x1e
 1739 016d 05       		.uleb128 0x5
 1740 016e 00       		.byte	0
 1741 016f 03       		.uleb128 0x3
 1742 0170 08       		.uleb128 0x8
 1743 0171 3A       		.uleb128 0x3a
 1744 0172 0B       		.uleb128 0xb
 1745 0173 3B       		.uleb128 0x3b
 1746 0174 0B       		.uleb128 0xb
 1747 0175 49       		.uleb128 0x49
 1748 0176 13       		.uleb128 0x13
 1749 0177 02       		.uleb128 0x2
 1750 0178 17       		.uleb128 0x17
 1751 0179 00       		.byte	0
 1752 017a 00       		.byte	0
 1753 017b 1F       		.uleb128 0x1f
 1754 017c 05       		.uleb128 0x5
 1755 017d 00       		.byte	0
 1756 017e 03       		.uleb128 0x3
 1757 017f 0E       		.uleb128 0xe
 1758 0180 3A       		.uleb128 0x3a
 1759 0181 0B       		.uleb128 0xb
 1760 0182 3B       		.uleb128 0x3b
 1761 0183 0B       		.uleb128 0xb
 1762 0184 49       		.uleb128 0x49
 1763 0185 13       		.uleb128 0x13
 1764 0186 02       		.uleb128 0x2
 1765 0187 17       		.uleb128 0x17
 1766 0188 00       		.byte	0
 1767 0189 00       		.byte	0
ARM GAS  /tmp/ccegC01o.s 			page 32


 1768 018a 20       		.uleb128 0x20
 1769 018b 34       		.uleb128 0x34
 1770 018c 00       		.byte	0
 1771 018d 03       		.uleb128 0x3
 1772 018e 0E       		.uleb128 0xe
 1773 018f 49       		.uleb128 0x49
 1774 0190 13       		.uleb128 0x13
 1775 0191 34       		.uleb128 0x34
 1776 0192 19       		.uleb128 0x19
 1777 0193 00       		.byte	0
 1778 0194 00       		.byte	0
 1779 0195 21       		.uleb128 0x21
 1780 0196 34       		.uleb128 0x34
 1781 0197 00       		.byte	0
 1782 0198 03       		.uleb128 0x3
 1783 0199 0E       		.uleb128 0xe
 1784 019a 3A       		.uleb128 0x3a
 1785 019b 0B       		.uleb128 0xb
 1786 019c 3B       		.uleb128 0x3b
 1787 019d 05       		.uleb128 0x5
 1788 019e 49       		.uleb128 0x49
 1789 019f 13       		.uleb128 0x13
 1790 01a0 3F       		.uleb128 0x3f
 1791 01a1 19       		.uleb128 0x19
 1792 01a2 3C       		.uleb128 0x3c
 1793 01a3 19       		.uleb128 0x19
 1794 01a4 00       		.byte	0
 1795 01a5 00       		.byte	0
 1796 01a6 22       		.uleb128 0x22
 1797 01a7 34       		.uleb128 0x34
 1798 01a8 00       		.byte	0
 1799 01a9 03       		.uleb128 0x3
 1800 01aa 08       		.uleb128 0x8
 1801 01ab 3A       		.uleb128 0x3a
 1802 01ac 0B       		.uleb128 0xb
 1803 01ad 3B       		.uleb128 0x3b
 1804 01ae 05       		.uleb128 0x5
 1805 01af 49       		.uleb128 0x49
 1806 01b0 13       		.uleb128 0x13
 1807 01b1 3F       		.uleb128 0x3f
 1808 01b2 19       		.uleb128 0x19
 1809 01b3 3C       		.uleb128 0x3c
 1810 01b4 19       		.uleb128 0x19
 1811 01b5 00       		.byte	0
 1812 01b6 00       		.byte	0
 1813 01b7 00       		.byte	0
 1814              		.section	.debug_loc,"",%progbits
 1815              	.Ldebug_loc0:
 1816              	.LLST0:
 1817 0000 00000000 		.4byte	.LVL0
 1818 0004 1C000000 		.4byte	.LVL2
 1819 0008 0100     		.2byte	0x1
 1820 000a 50       		.byte	0x50
 1821 000b 1C000000 		.4byte	.LVL2
 1822 000f 30000000 		.4byte	.LVL3
 1823 0013 0700     		.2byte	0x7
 1824 0015 74       		.byte	0x74
ARM GAS  /tmp/ccegC01o.s 			page 33


 1825 0016 80BEFCFF 		.sleb128 536813312
 1825      01
 1826 001b 9F       		.byte	0x9f
 1827 001c 30000000 		.4byte	.LVL3
 1828 0020 32000000 		.4byte	.LFE258
 1829 0024 0400     		.2byte	0x4
 1830 0026 F3       		.byte	0xf3
 1831 0027 01       		.uleb128 0x1
 1832 0028 50       		.byte	0x50
 1833 0029 9F       		.byte	0x9f
 1834 002a 00000000 		.4byte	0
 1835 002e 00000000 		.4byte	0
 1836              	.LLST1:
 1837 0032 00000000 		.4byte	.LVL0
 1838 0036 18000000 		.4byte	.LVL1
 1839 003a 0100     		.2byte	0x1
 1840 003c 51       		.byte	0x51
 1841 003d 18000000 		.4byte	.LVL1
 1842 0041 32000000 		.4byte	.LFE258
 1843 0045 0400     		.2byte	0x4
 1844 0047 F3       		.byte	0xf3
 1845 0048 01       		.uleb128 0x1
 1846 0049 51       		.byte	0x51
 1847 004a 9F       		.byte	0x9f
 1848 004b 00000000 		.4byte	0
 1849 004f 00000000 		.4byte	0
 1850              	.LLST2:
 1851 0053 00000000 		.4byte	.LVL4
 1852 0057 10000000 		.4byte	.LVL5
 1853 005b 0100     		.2byte	0x1
 1854 005d 50       		.byte	0x50
 1855 005e 10000000 		.4byte	.LVL5
 1856 0062 24000000 		.4byte	.LFE259
 1857 0066 0700     		.2byte	0x7
 1858 0068 70       		.byte	0x70
 1859 0069 80BEFCFF 		.sleb128 536813312
 1859      01
 1860 006e 9F       		.byte	0x9f
 1861 006f 00000000 		.4byte	0
 1862 0073 00000000 		.4byte	0
 1863              	.LLST3:
 1864 0077 00000000 		.4byte	.LVL6
 1865 007b 04000000 		.4byte	.LVL7
 1866 007f 0100     		.2byte	0x1
 1867 0081 50       		.byte	0x50
 1868 0082 04000000 		.4byte	.LVL7
 1869 0086 08000000 		.4byte	.LVL8
 1870 008a 0700     		.2byte	0x7
 1871 008c 70       		.byte	0x70
 1872 008d 80808080 		.sleb128 536870912
 1872      02
 1873 0092 9F       		.byte	0x9f
 1874 0093 08000000 		.4byte	.LVL8
 1875 0097 10000000 		.4byte	.LFE260
 1876 009b 0700     		.2byte	0x7
 1877 009d 70       		.byte	0x70
 1878 009e 80A6FCFF 		.sleb128 536810240
ARM GAS  /tmp/ccegC01o.s 			page 34


 1878      01
 1879 00a3 9F       		.byte	0x9f
 1880 00a4 00000000 		.4byte	0
 1881 00a8 00000000 		.4byte	0
 1882              	.LLST4:
 1883 00ac 00000000 		.4byte	.LVL6
 1884 00b0 0A000000 		.4byte	.LVL9
 1885 00b4 0100     		.2byte	0x1
 1886 00b6 51       		.byte	0x51
 1887 00b7 0A000000 		.4byte	.LVL9
 1888 00bb 10000000 		.4byte	.LFE260
 1889 00bf 0400     		.2byte	0x4
 1890 00c1 F3       		.byte	0xf3
 1891 00c2 01       		.uleb128 0x1
 1892 00c3 51       		.byte	0x51
 1893 00c4 9F       		.byte	0x9f
 1894 00c5 00000000 		.4byte	0
 1895 00c9 00000000 		.4byte	0
 1896              	.LLST5:
 1897 00cd 00000000 		.4byte	.LVL10
 1898 00d1 08000000 		.4byte	.LVL11
 1899 00d5 0100     		.2byte	0x1
 1900 00d7 50       		.byte	0x50
 1901 00d8 08000000 		.4byte	.LVL11
 1902 00dc 1C000000 		.4byte	.LFE261
 1903 00e0 0400     		.2byte	0x4
 1904 00e2 F3       		.byte	0xf3
 1905 00e3 01       		.uleb128 0x1
 1906 00e4 50       		.byte	0x50
 1907 00e5 9F       		.byte	0x9f
 1908 00e6 00000000 		.4byte	0
 1909 00ea 00000000 		.4byte	0
 1910              		.section	.debug_aranges,"",%progbits
 1911 0000 34000000 		.4byte	0x34
 1912 0004 0200     		.2byte	0x2
 1913 0006 00000000 		.4byte	.Ldebug_info0
 1914 000a 04       		.byte	0x4
 1915 000b 00       		.byte	0
 1916 000c 0000     		.2byte	0
 1917 000e 0000     		.2byte	0
 1918 0010 00000000 		.4byte	.LFB258
 1919 0014 32000000 		.4byte	.LFE258-.LFB258
 1920 0018 00000000 		.4byte	.LFB259
 1921 001c 24000000 		.4byte	.LFE259-.LFB259
 1922 0020 00000000 		.4byte	.LFB260
 1923 0024 10000000 		.4byte	.LFE260-.LFB260
 1924 0028 00000000 		.4byte	.LFB261
 1925 002c 1C000000 		.4byte	.LFE261-.LFB261
 1926 0030 00000000 		.4byte	0
 1927 0034 00000000 		.4byte	0
 1928              		.section	.debug_ranges,"",%progbits
 1929              	.Ldebug_ranges0:
 1930 0000 00000000 		.4byte	.LFB258
 1931 0004 32000000 		.4byte	.LFE258
 1932 0008 00000000 		.4byte	.LFB259
 1933 000c 24000000 		.4byte	.LFE259
 1934 0010 00000000 		.4byte	.LFB260
ARM GAS  /tmp/ccegC01o.s 			page 35


 1935 0014 10000000 		.4byte	.LFE260
 1936 0018 00000000 		.4byte	.LFB261
 1937 001c 1C000000 		.4byte	.LFE261
 1938 0020 00000000 		.4byte	0
 1939 0024 00000000 		.4byte	0
 1940              		.section	.debug_line,"",%progbits
 1941              	.Ldebug_line0:
 1942 0000 47020000 		.section	.debug_str,"MS",%progbits,1
 1942      0200F101 
 1942      00000201 
 1942      FB0E0D00 
 1942      01010101 
 1943              	.LASF46:
 1944 0000 74687265 		.ascii	"threads_list_t\000"
 1944      6164735F 
 1944      6C697374 
 1944      5F7400
 1945              	.LASF85:
 1946 000f 49435052 		.ascii	"ICPR\000"
 1946      00
 1947              	.LASF51:
 1948 0014 72656164 		.ascii	"ready_list_t\000"
 1948      795F6C69 
 1948      73745F74 
 1948      00
 1949              	.LASF117:
 1950 0021 77747472 		.ascii	"wttrp\000"
 1950      7000
 1951              	.LASF114:
 1952 0027 7264796D 		.ascii	"rdymsg\000"
 1952      736700
 1953              	.LASF17:
 1954 002e 75696E74 		.ascii	"uint64_t\000"
 1954      36345F74 
 1954      00
 1955              	.LASF7:
 1956 0037 5F5F7569 		.ascii	"__uint8_t\000"
 1956      6E74385F 
 1956      7400
 1957              	.LASF111:
 1958 0041 706F7274 		.ascii	"port_intctx\000"
 1958      5F696E74 
 1958      63747800 
 1959              	.LASF70:
 1960 004d 73797374 		.ascii	"system_debug_t\000"
 1960      656D5F64 
 1960      65627567 
 1960      5F7400
 1961              	.LASF13:
 1962 005c 6C6F6E67 		.ascii	"long long unsigned int\000"
 1962      206C6F6E 
 1962      6720756E 
 1962      7369676E 
 1962      65642069 
 1963              	.LASF115:
 1964 0073 65786974 		.ascii	"exitcode\000"
 1964      636F6465 
ARM GAS  /tmp/ccegC01o.s 			page 36


 1964      00
 1965              	.LASF77:
 1966 007c 6D61696E 		.ascii	"mainthread\000"
 1966      74687265 
 1966      616400
 1967              	.LASF67:
 1968 0087 76697274 		.ascii	"virtual_timers_list_t\000"
 1968      75616C5F 
 1968      74696D65 
 1968      72735F6C 
 1968      6973745F 
 1969              	.LASF93:
 1970 009d 43505549 		.ascii	"CPUID\000"
 1970      4400
 1971              	.LASF50:
 1972 00a3 63685F74 		.ascii	"ch_threads_queue\000"
 1972      68726561 
 1972      64735F71 
 1972      75657565 
 1972      00
 1973              	.LASF83:
 1974 00b4 49535052 		.ascii	"ISPR\000"
 1974      00
 1975              	.LASF30:
 1976 00b9 705F7072 		.ascii	"p_prio\000"
 1976      696F00
 1977              	.LASF132:
 1978 00c0 6E766963 		.ascii	"nvicEnableVector\000"
 1978      456E6162 
 1978      6C655665 
 1978      63746F72 
 1978      00
 1979              	.LASF105:
 1980 00d1 49534152 		.ascii	"ISAR\000"
 1980      00
 1981              	.LASF1:
 1982 00d6 6C6F6E67 		.ascii	"long long int\000"
 1982      206C6F6E 
 1982      6720696E 
 1982      7400
 1983              	.LASF3:
 1984 00e4 7369676E 		.ascii	"signed char\000"
 1984      65642063 
 1984      68617200 
 1985              	.LASF44:
 1986 00f0 705F6D70 		.ascii	"p_mpool\000"
 1986      6F6F6C00 
 1987              	.LASF125:
 1988 00f8 6D5F7175 		.ascii	"m_queue\000"
 1988      65756500 
 1989              	.LASF136:
 1990 0100 6E766963 		.ascii	"nvicClearPending\000"
 1990      436C6561 
 1990      7250656E 
 1990      64696E67 
 1990      00
 1991              	.LASF76:
ARM GAS  /tmp/ccegC01o.s 			page 37


 1992 0111 76746C69 		.ascii	"vtlist\000"
 1992      737400
 1993              	.LASF74:
 1994 0118 63685F73 		.ascii	"ch_system\000"
 1994      79737465 
 1994      6D00
 1995              	.LASF9:
 1996 0122 6C6F6E67 		.ascii	"long int\000"
 1996      20696E74 
 1996      00
 1997              	.LASF20:
 1998 012b 74737461 		.ascii	"tstate_t\000"
 1998      74655F74 
 1998      00
 1999              	.LASF139:
 2000 0134 2F686F6D 		.ascii	"/home/selim/working/ChibiOS/os/hal/ports/common/ARM"
 2000      652F7365 
 2000      6C696D2F 
 2000      776F726B 
 2000      696E672F 
 2001 0167 434D782F 		.ascii	"CMx/nvic.c\000"
 2001      6E766963 
 2001      2E6300
 2002              	.LASF32:
 2003 0172 705F6E65 		.ascii	"p_newer\000"
 2003      77657200 
 2004              	.LASF122:
 2005 017a 735F7175 		.ascii	"s_queue\000"
 2005      65756500 
 2006              	.LASF102:
 2007 0182 42464152 		.ascii	"BFAR\000"
 2007      00
 2008              	.LASF103:
 2009 0187 41465352 		.ascii	"AFSR\000"
 2009      00
 2010              	.LASF56:
 2011 018c 725F6E65 		.ascii	"r_newer\000"
 2011      77657200 
 2012              	.LASF108:
 2013 0194 72656761 		.ascii	"regarm_t\000"
 2013      726D5F74 
 2013      00
 2014              	.LASF63:
 2015 019d 76745F70 		.ascii	"vt_prev\000"
 2015      72657600 
 2016              	.LASF107:
 2017 01a5 5343425F 		.ascii	"SCB_Type\000"
 2017      54797065 
 2017      00
 2018              	.LASF129:
 2019 01ae 6D757465 		.ascii	"mutex_t\000"
 2019      785F7400 
 2020              	.LASF78:
 2021 01b6 69646C65 		.ascii	"idle_thread_wa\000"
 2021      5F746872 
 2021      6561645F 
 2021      776100
ARM GAS  /tmp/ccegC01o.s 			page 38


 2022              	.LASF25:
 2023 01c5 636E745F 		.ascii	"cnt_t\000"
 2023      7400
 2024              	.LASF0:
 2025 01cb 756E7369 		.ascii	"unsigned int\000"
 2025      676E6564 
 2025      20696E74 
 2025      00
 2026              	.LASF62:
 2027 01d8 76745F6E 		.ascii	"vt_next\000"
 2027      65787400 
 2028              	.LASF133:
 2029 01e0 6E766963 		.ascii	"nvicDisableVector\000"
 2029      44697361 
 2029      626C6556 
 2029      6563746F 
 2029      7200
 2030              	.LASF118:
 2031 01f2 77747365 		.ascii	"wtsemp\000"
 2031      6D7000
 2032              	.LASF39:
 2033 01f9 705F6D73 		.ascii	"p_msgqueue\000"
 2033      67717565 
 2033      756500
 2034              	.LASF95:
 2035 0204 56544F52 		.ascii	"VTOR\000"
 2035      00
 2036              	.LASF123:
 2037 0209 735F636E 		.ascii	"s_cnt\000"
 2037      7400
 2038              	.LASF47:
 2039 020f 63685F74 		.ascii	"ch_thread\000"
 2039      68726561 
 2039      6400
 2040              	.LASF94:
 2041 0219 49435352 		.ascii	"ICSR\000"
 2041      00
 2042              	.LASF23:
 2043 021e 6D73675F 		.ascii	"msg_t\000"
 2043      7400
 2044              	.LASF96:
 2045 0224 41495243 		.ascii	"AIRCR\000"
 2045      5200
 2046              	.LASF100:
 2047 022a 44465352 		.ascii	"DFSR\000"
 2047      00
 2048              	.LASF101:
 2049 022f 4D4D4641 		.ascii	"MMFAR\000"
 2049      5200
 2050              	.LASF73:
 2051 0235 63685F73 		.ascii	"ch_system_t\000"
 2051      79737465 
 2051      6D5F7400 
 2052              	.LASF19:
 2053 0241 746D6F64 		.ascii	"tmode_t\000"
 2053      655F7400 
 2054              	.LASF52:
ARM GAS  /tmp/ccegC01o.s 			page 39


 2055 0249 63685F72 		.ascii	"ch_ready_list\000"
 2055      65616479 
 2055      5F6C6973 
 2055      7400
 2056              	.LASF24:
 2057 0257 6576656E 		.ascii	"eventmask_t\000"
 2057      746D6173 
 2057      6B5F7400 
 2058              	.LASF8:
 2059 0263 5F5F696E 		.ascii	"__int32_t\000"
 2059      7433325F 
 2059      7400
 2060              	.LASF109:
 2061 026d 73746B61 		.ascii	"stkalign_t\000"
 2061      6C69676E 
 2061      5F7400
 2062              	.LASF135:
 2063 0278 68616E64 		.ascii	"handler\000"
 2063      6C657200 
 2064              	.LASF60:
 2065 0280 76697274 		.ascii	"virtual_timer_t\000"
 2065      75616C5F 
 2065      74696D65 
 2065      725F7400 
 2066              	.LASF38:
 2067 0290 705F7761 		.ascii	"p_waiting\000"
 2067      6974696E 
 2067      6700
 2068              	.LASF91:
 2069 029a 73697A65 		.ascii	"sizetype\000"
 2069      74797065 
 2069      00
 2070              	.LASF45:
 2071 02a3 74687265 		.ascii	"thread_reference_t\000"
 2071      61645F72 
 2071      65666572 
 2071      656E6365 
 2071      5F7400
 2072              	.LASF68:
 2073 02b6 63685F76 		.ascii	"ch_virtual_timers_list\000"
 2073      69727475 
 2073      616C5F74 
 2073      696D6572 
 2073      735F6C69 
 2074              	.LASF2:
 2075 02cd 6C6F6E67 		.ascii	"long double\000"
 2075      20646F75 
 2075      626C6500 
 2076              	.LASF98:
 2077 02d9 43465352 		.ascii	"CFSR\000"
 2077      00
 2078              	.LASF87:
 2079 02de 49414252 		.ascii	"IABR\000"
 2079      00
 2080              	.LASF69:
 2081 02e3 76745F6C 		.ascii	"vt_lasttime\000"
 2081      61737474 
ARM GAS  /tmp/ccegC01o.s 			page 40


 2081      696D6500 
 2082              	.LASF33:
 2083 02ef 705F6F6C 		.ascii	"p_older\000"
 2083      64657200 
 2084              	.LASF55:
 2085 02f7 725F6374 		.ascii	"r_ctx\000"
 2085      7800
 2086              	.LASF113:
 2087 02fd 746D5F63 		.ascii	"tm_calibration_t\000"
 2087      616C6962 
 2087      72617469 
 2087      6F6E5F74 
 2087      00
 2088              	.LASF81:
 2089 030e 49434552 		.ascii	"ICER\000"
 2089      00
 2090              	.LASF131:
 2091 0313 7072696F 		.ascii	"prio\000"
 2091      00
 2092              	.LASF57:
 2093 0318 725F6F6C 		.ascii	"r_older\000"
 2093      64657200 
 2094              	.LASF12:
 2095 0320 5F5F7569 		.ascii	"__uint64_t\000"
 2095      6E743634 
 2095      5F7400
 2096              	.LASF21:
 2097 032b 74726566 		.ascii	"trefs_t\000"
 2097      735F7400 
 2098              	.LASF80:
 2099 0333 52455345 		.ascii	"RESERVED0\000"
 2099      52564544 
 2099      3000
 2100              	.LASF84:
 2101 033d 52455345 		.ascii	"RESERVED2\000"
 2101      52564544 
 2101      3200
 2102              	.LASF86:
 2103 0347 52455345 		.ascii	"RESERVED3\000"
 2103      52564544 
 2103      3300
 2104              	.LASF88:
 2105 0351 52455345 		.ascii	"RESERVED4\000"
 2105      52564544 
 2105      3400
 2106              	.LASF29:
 2107 035b 705F7072 		.ascii	"p_prev\000"
 2107      657600
 2108              	.LASF22:
 2109 0362 74707269 		.ascii	"tprio_t\000"
 2109      6F5F7400 
 2110              	.LASF71:
 2111 036a 63685F73 		.ascii	"ch_system_debug\000"
 2111      79737465 
 2111      6D5F6465 
 2111      62756700 
 2112              	.LASF130:
ARM GAS  /tmp/ccegC01o.s 			page 41


 2113 037a 5F426F6F 		.ascii	"_Bool\000"
 2113      6C00
 2114              	.LASF15:
 2115 0380 696E7433 		.ascii	"int32_t\000"
 2115      325F7400 
 2116              	.LASF4:
 2117 0388 756E7369 		.ascii	"unsigned char\000"
 2117      676E6564 
 2117      20636861 
 2117      7200
 2118              	.LASF97:
 2119 0396 53484353 		.ascii	"SHCSR\000"
 2119      5200
 2120              	.LASF137:
 2121 039c 49544D5F 		.ascii	"ITM_RxBuffer\000"
 2121      52784275 
 2121      66666572 
 2121      00
 2122              	.LASF35:
 2123 03a9 705F7374 		.ascii	"p_state\000"
 2123      61746500 
 2124              	.LASF42:
 2125 03b1 705F6D74 		.ascii	"p_mtxlist\000"
 2125      786C6973 
 2125      7400
 2126              	.LASF5:
 2127 03bb 73686F72 		.ascii	"short int\000"
 2127      7420696E 
 2127      7400
 2128              	.LASF79:
 2129 03c5 49534552 		.ascii	"ISER\000"
 2129      00
 2130              	.LASF92:
 2131 03ca 4E564943 		.ascii	"NVIC_Type\000"
 2131      5F547970 
 2131      6500
 2132              	.LASF134:
 2133 03d4 6E766963 		.ascii	"nvicSetSystemHandlerPriority\000"
 2133      53657453 
 2133      79737465 
 2133      6D48616E 
 2133      646C6572 
 2134              	.LASF54:
 2135 03f1 725F7072 		.ascii	"r_prio\000"
 2135      696F00
 2136              	.LASF138:
 2137 03f8 474E5520 		.ascii	"GNU C11 5.3.1 20160307 (release) [ARM/embedded-5-br"
 2137      43313120 
 2137      352E332E 
 2137      31203230 
 2137      31363033 
 2138 042b 616E6368 		.ascii	"anch revision 234589] -mcpu=cortex-m4 -mno-thumb-in"
 2138      20726576 
 2138      6973696F 
 2138      6E203233 
 2138      34353839 
 2139 045e 74657277 		.ascii	"terwork -mthumb -ggdb -O2 -fomit-frame-pointer -fal"
ARM GAS  /tmp/ccegC01o.s 			page 42


 2139      6F726B20 
 2139      2D6D7468 
 2139      756D6220 
 2139      2D676764 
 2140 0491 69676E2D 		.ascii	"ign-functions=16 -ffunction-sections -fdata-section"
 2140      66756E63 
 2140      74696F6E 
 2140      733D3136 
 2140      202D6666 
 2141 04c4 73202D66 		.ascii	"s -fno-common\000"
 2141      6E6F2D63 
 2141      6F6D6D6F 
 2141      6E00
 2142              	.LASF120:
 2143 04d2 65776D61 		.ascii	"ewmask\000"
 2143      736B00
 2144              	.LASF28:
 2145 04d9 705F6E65 		.ascii	"p_next\000"
 2145      787400
 2146              	.LASF36:
 2147 04e0 705F666C 		.ascii	"p_flags\000"
 2147      61677300 
 2148              	.LASF140:
 2149 04e8 5F5F6675 		.ascii	"__func__\000"
 2149      6E635F5F 
 2149      00
 2150              	.LASF6:
 2151 04f1 73686F72 		.ascii	"short unsigned int\000"
 2151      7420756E 
 2151      7369676E 
 2151      65642069 
 2151      6E7400
 2152              	.LASF61:
 2153 0504 63685F76 		.ascii	"ch_virtual_timer\000"
 2153      69727475 
 2153      616C5F74 
 2153      696D6572 
 2153      00
 2154              	.LASF121:
 2155 0515 63685F73 		.ascii	"ch_semaphore\000"
 2155      656D6170 
 2155      686F7265 
 2155      00
 2156              	.LASF41:
 2157 0522 705F6570 		.ascii	"p_epending\000"
 2157      656E6469 
 2157      6E6700
 2158              	.LASF89:
 2159 052d 52455345 		.ascii	"RESERVED5\000"
 2159      52564544 
 2159      3500
 2160              	.LASF16:
 2161 0537 75696E74 		.ascii	"uint32_t\000"
 2161      33325F74 
 2161      00
 2162              	.LASF119:
 2163 0540 77746D74 		.ascii	"wtmtxp\000"
ARM GAS  /tmp/ccegC01o.s 			page 43


 2163      787000
 2164              	.LASF53:
 2165 0547 725F7175 		.ascii	"r_queue\000"
 2165      65756500 
 2166              	.LASF64:
 2167 054f 76745F64 		.ascii	"vt_delta\000"
 2167      656C7461 
 2167      00
 2168              	.LASF48:
 2169 0558 63685F74 		.ascii	"ch_threads_list\000"
 2169      68726561 
 2169      64735F6C 
 2169      69737400 
 2170              	.LASF11:
 2171 0568 6C6F6E67 		.ascii	"long unsigned int\000"
 2171      20756E73 
 2171      69676E65 
 2171      6420696E 
 2171      7400
 2172              	.LASF58:
 2173 057a 725F6375 		.ascii	"r_current\000"
 2173      7272656E 
 2173      7400
 2174              	.LASF128:
 2175 0584 63686172 		.ascii	"char\000"
 2175      00
 2176              	.LASF27:
 2177 0589 74687265 		.ascii	"thread_t\000"
 2177      61645F74 
 2177      00
 2178              	.LASF127:
 2179 0592 6D5F6E65 		.ascii	"m_next\000"
 2179      787400
 2180              	.LASF26:
 2181 0599 73797374 		.ascii	"systime_t\000"
 2181      696D655F 
 2181      7400
 2182              	.LASF43:
 2183 05a3 705F7265 		.ascii	"p_realprio\000"
 2183      616C7072 
 2183      696F00
 2184              	.LASF59:
 2185 05ae 76746675 		.ascii	"vtfunc_t\000"
 2185      6E635F74 
 2185      00
 2186              	.LASF10:
 2187 05b7 5F5F7569 		.ascii	"__uint32_t\000"
 2187      6E743332 
 2187      5F7400
 2188              	.LASF72:
 2189 05c2 70616E69 		.ascii	"panic_msg\000"
 2189      635F6D73 
 2189      6700
 2190              	.LASF112:
 2191 05cc 6F666673 		.ascii	"offset\000"
 2191      657400
 2192              	.LASF110:
ARM GAS  /tmp/ccegC01o.s 			page 44


 2193 05d3 636F6E74 		.ascii	"context\000"
 2193      65787400 
 2194              	.LASF18:
 2195 05db 7274636E 		.ascii	"rtcnt_t\000"
 2195      745F7400 
 2196              	.LASF66:
 2197 05e3 76745F70 		.ascii	"vt_par\000"
 2197      617200
 2198              	.LASF49:
 2199 05ea 74687265 		.ascii	"threads_queue_t\000"
 2199      6164735F 
 2199      71756575 
 2199      655F7400 
 2200              	.LASF124:
 2201 05fa 63685F6D 		.ascii	"ch_mutex\000"
 2201      75746578 
 2201      00
 2202              	.LASF37:
 2203 0603 705F7265 		.ascii	"p_refs\000"
 2203      667300
 2204              	.LASF104:
 2205 060a 4D4D4652 		.ascii	"MMFR\000"
 2205      00
 2206              	.LASF75:
 2207 060f 726C6973 		.ascii	"rlist\000"
 2207      7400
 2208              	.LASF14:
 2209 0615 75696E74 		.ascii	"uint8_t\000"
 2209      385F7400 
 2210              	.LASF82:
 2211 061d 52534552 		.ascii	"RSERVED1\000"
 2211      56454431 
 2211      00
 2212              	.LASF90:
 2213 0626 53544952 		.ascii	"STIR\000"
 2213      00
 2214              	.LASF116:
 2215 062b 77746F62 		.ascii	"wtobjp\000"
 2215      6A7000
 2216              	.LASF34:
 2217 0632 705F6E61 		.ascii	"p_name\000"
 2217      6D6500
 2218              	.LASF40:
 2219 0639 705F6D73 		.ascii	"p_msg\000"
 2219      6700
 2220              	.LASF106:
 2221 063f 43504143 		.ascii	"CPACR\000"
 2221      5200
 2222              	.LASF99:
 2223 0645 48465352 		.ascii	"HFSR\000"
 2223      00
 2224              	.LASF126:
 2225 064a 6D5F6F77 		.ascii	"m_owner\000"
 2225      6E657200 
 2226              	.LASF31:
 2227 0652 705F6374 		.ascii	"p_ctx\000"
 2227      7800
ARM GAS  /tmp/ccegC01o.s 			page 45


 2228              	.LASF65:
 2229 0658 76745F66 		.ascii	"vt_func\000"
 2229      756E6300 
 2230              		.ident	"GCC: (GNU Tools for ARM Embedded Processors) 5.3.1 20160307 (release) [ARM/embedded-5-bran
ARM GAS  /tmp/ccegC01o.s 			page 46


DEFINED SYMBOLS
                            *ABS*:0000000000000000 nvic.c
     /tmp/ccegC01o.s:20     .text.nvicEnableVector:0000000000000000 $t
     /tmp/ccegC01o.s:26     .text.nvicEnableVector:0000000000000000 nvicEnableVector
     /tmp/ccegC01o.s:69     .text.nvicDisableVector:0000000000000000 $t
     /tmp/ccegC01o.s:75     .text.nvicDisableVector:0000000000000000 nvicDisableVector
     /tmp/ccegC01o.s:113    .text.nvicDisableVector:0000000000000020 $d
     /tmp/ccegC01o.s:118    .text.nvicSetSystemHandlerPriority:0000000000000000 $t
     /tmp/ccegC01o.s:124    .text.nvicSetSystemHandlerPriority:0000000000000000 nvicSetSystemHandlerPriority
     /tmp/ccegC01o.s:146    .text.nvicClearPending:0000000000000000 $t
     /tmp/ccegC01o.s:152    .text.nvicClearPending:0000000000000000 nvicClearPending
     /tmp/ccegC01o.s:173    .text.nvicClearPending:0000000000000018 $d
                     .debug_frame:0000000000000010 $d

NO UNDEFINED SYMBOLS
