ARM GAS  /tmp/cc4Naq0S.s 			page 1


   1              		.syntax unified
   2              		.cpu cortex-m4
   3              		.fpu softvfp
   4              		.eabi_attribute 20, 1
   5              		.eabi_attribute 21, 1
   6              		.eabi_attribute 23, 3
   7              		.eabi_attribute 24, 1
   8              		.eabi_attribute 25, 1
   9              		.eabi_attribute 26, 1
  10              		.eabi_attribute 30, 2
  11              		.eabi_attribute 34, 1
  12              		.eabi_attribute 18, 4
  13              		.thumb
  14              		.syntax unified
  15              		.file	"testsys.c"
  16              		.text
  17              	.Ltext0:
  18              		.cfi_sections	.debug_frame
  19              		.section	.text.sys2_execute,"ax",%progbits
  20              		.align	2
  21              		.p2align 4,,15
  22              		.thumb
  23              		.thumb_func
  24              		.type	sys2_execute, %function
  25              	sys2_execute:
  26              	.LFB229:
  27              		.file 1 "/home/selim/working/ChibiOS/test/rt/testsys.c"
  28              		.loc 1 114 0
  29              		.cfi_startproc
  30              		@ args = 0, pretend = 0, frame = 0
  31              		@ frame_needed = 0, uses_anonymous_args = 0
  32              		@ link register save eliminated.
  33              	.LVL0:
  34              	.LBB324:
  35              	.LBB325:
  36              	.LBB326:
  37              	.LBB327:
  38              		.file 2 "/home/selim/working/ChibiOS/os/ext/CMSIS/include/core_cmFunc.h"
  39              		.loc 2 546 0
  40 0000 2023     		movs	r3, #32
  41              		.syntax unified
  42              	@ 546 "/home/selim/working/ChibiOS/os/ext/CMSIS/include/core_cmFunc.h" 1
  43 0002 83F31188 		MSR basepri, r3
  44              	@ 0 "" 2
  45              	.LVL1:
  46              		.thumb
  47              		.syntax unified
  48              	.LBE327:
  49              	.LBE326:
  50              	.LBB328:
  51              	.LBB329:
  52              		.loc 2 331 0
  53              		.syntax unified
  54              	@ 331 "/home/selim/working/ChibiOS/os/ext/CMSIS/include/core_cmFunc.h" 1
  55 0006 62B6     		cpsie i
  56              	@ 0 "" 2
  57              		.thumb
ARM GAS  /tmp/cc4Naq0S.s 			page 2


  58              		.syntax unified
  59              	.LBE329:
  60              	.LBE328:
  61              	.LBE325:
  62              	.LBE324:
  63              	.LBB330:
  64              	.LBB331:
  65              	.LBB332:
  66              	.LBB333:
  67              		.loc 2 342 0
  68              		.syntax unified
  69              	@ 342 "/home/selim/working/ChibiOS/os/ext/CMSIS/include/core_cmFunc.h" 1
  70 0008 72B6     		cpsid i
  71              	@ 0 "" 2
  72              	.LVL2:
  73              		.thumb
  74              		.syntax unified
  75              	.LBE333:
  76              	.LBE332:
  77              	.LBE331:
  78              	.LBE330:
  79              	.LBB334:
  80              	.LBB335:
  81              	.LBB336:
  82              	.LBB337:
  83              		.loc 2 546 0
  84              		.syntax unified
  85              	@ 546 "/home/selim/working/ChibiOS/os/ext/CMSIS/include/core_cmFunc.h" 1
  86 000a 83F31188 		MSR basepri, r3
  87              	@ 0 "" 2
  88              	.LVL3:
  89              		.thumb
  90              		.syntax unified
  91              	.LBE337:
  92              	.LBE336:
  93              	.LBB338:
  94              	.LBB339:
  95              		.loc 2 331 0
  96              		.syntax unified
  97              	@ 331 "/home/selim/working/ChibiOS/os/ext/CMSIS/include/core_cmFunc.h" 1
  98 000e 62B6     		cpsie i
  99              	@ 0 "" 2
 100              	.LVL4:
 101              		.thumb
 102              		.syntax unified
 103              	.LBE339:
 104              	.LBE338:
 105              	.LBE335:
 106              	.LBE334:
 107              	.LBB340:
 108              	.LBB341:
 109              	.LBB342:
 110              	.LBB343:
 111              		.loc 2 546 0
 112 0010 0023     		movs	r3, #0
 113              		.syntax unified
 114              	@ 546 "/home/selim/working/ChibiOS/os/ext/CMSIS/include/core_cmFunc.h" 1
ARM GAS  /tmp/cc4Naq0S.s 			page 3


 115 0012 83F31188 		MSR basepri, r3
 116              	@ 0 "" 2
 117              	.LVL5:
 118              		.thumb
 119              		.syntax unified
 120              	.LBE343:
 121              	.LBE342:
 122              	.LBB344:
 123              	.LBB345:
 124              		.loc 2 331 0
 125              		.syntax unified
 126              	@ 331 "/home/selim/working/ChibiOS/os/ext/CMSIS/include/core_cmFunc.h" 1
 127 0016 62B6     		cpsie i
 128              	@ 0 "" 2
 129              		.thumb
 130              		.syntax unified
 131 0018 7047     		bx	lr
 132              	.LBE345:
 133              	.LBE344:
 134              	.LBE341:
 135              	.LBE340:
 136              		.cfi_endproc
 137              	.LFE229:
 138              		.size	sys2_execute, .-sys2_execute
 139 001a 00BF     		.section	.text.vtcb,"ax",%progbits
 140              		.align	2
 141              		.p2align 4,,15
 142              		.thumb
 143              		.thumb_func
 144              		.type	vtcb, %function
 145              	vtcb:
 146              	.LFB227:
 147              		.loc 1 52 0
 148              		.cfi_startproc
 149              		@ args = 0, pretend = 0, frame = 0
 150              		@ frame_needed = 0, uses_anonymous_args = 0
 151              	.LVL6:
 152 0000 10B5     		push	{r4, lr}
 153              		.cfi_def_cfa_offset 8
 154              		.cfi_offset 4, -8
 155              		.cfi_offset 14, -4
 156              	.LBB346:
 157              	.LBB347:
 158              	.LBB348:
 159              	.LBB349:
 160              	.LBB350:
 161              		.loc 2 546 0
 162 0002 2023     		movs	r3, #32
 163              		.syntax unified
 164              	@ 546 "/home/selim/working/ChibiOS/os/ext/CMSIS/include/core_cmFunc.h" 1
 165 0004 83F31188 		MSR basepri, r3
 166              	@ 0 "" 2
 167              	.LVL7:
 168              		.thumb
 169              		.syntax unified
 170              	.LBE350:
 171              	.LBE349:
ARM GAS  /tmp/cc4Naq0S.s 			page 4


 172              	.LBE348:
 173              	.LBE347:
 174              	.LBE346:
 175              	.LBB351:
 176              	.LBB352:
 177              	.LBB353:
 178              	.LBB354:
 179              	.LBB355:
 180 0008 0024     		movs	r4, #0
 181              		.syntax unified
 182              	@ 546 "/home/selim/working/ChibiOS/os/ext/CMSIS/include/core_cmFunc.h" 1
 183 000a 84F31188 		MSR basepri, r4
 184              	@ 0 "" 2
 185              	.LVL8:
 186              		.thumb
 187              		.syntax unified
 188              	.LBE355:
 189              	.LBE354:
 190              	.LBE353:
 191              	.LBE352:
 192              	.LBE351:
 193              	.LBB356:
 194              	.LBB357:
 195              	.LBB358:
 196              	.LBB359:
 197              	.LBB360:
 198              		.syntax unified
 199              	@ 546 "/home/selim/working/ChibiOS/os/ext/CMSIS/include/core_cmFunc.h" 1
 200 000e 83F31188 		MSR basepri, r3
 201              	@ 0 "" 2
 202              	.LVL9:
 203              		.thumb
 204              		.syntax unified
 205              	.LBE360:
 206              	.LBE359:
 207              	.LBE358:
 208              	.LBE357:
 209              	.LBE356:
 210              		.loc 1 63 0
 211 0012 FFF7FEFF 		bl	chSysGetStatusAndLockX
 212              	.LVL10:
 213              		.loc 1 64 0
 214 0016 FFF7FEFF 		bl	chSysRestoreStatusX
 215              	.LVL11:
 216              	.LBB361:
 217              	.LBB362:
 218              	.LBB363:
 219              	.LBB364:
 220              	.LBB365:
 221              		.loc 2 546 0
 222              		.syntax unified
 223              	@ 546 "/home/selim/working/ChibiOS/os/ext/CMSIS/include/core_cmFunc.h" 1
 224 001a 84F31188 		MSR basepri, r4
 225              	@ 0 "" 2
 226              	.LVL12:
 227              		.thumb
 228              		.syntax unified
ARM GAS  /tmp/cc4Naq0S.s 			page 5


 229 001e 10BD     		pop	{r4, pc}
 230              	.LBE365:
 231              	.LBE364:
 232              	.LBE363:
 233              	.LBE362:
 234              	.LBE361:
 235              		.cfi_endproc
 236              	.LFE227:
 237              		.size	vtcb, .-vtcb
 238              		.section	.text.sys3_execute,"ax",%progbits
 239              		.align	2
 240              		.p2align 4,,15
 241              		.thumb
 242              		.thumb_func
 243              		.type	sys3_execute, %function
 244              	sys3_execute:
 245              	.LFB230:
 246              		.loc 1 137 0
 247              		.cfi_startproc
 248              		@ args = 0, pretend = 0, frame = 0
 249              		@ frame_needed = 0, uses_anonymous_args = 0
 250              	.LVL13:
 251 0000 38B5     		push	{r3, r4, r5, lr}
 252              		.cfi_def_cfa_offset 16
 253              		.cfi_offset 3, -16
 254              		.cfi_offset 4, -12
 255              		.cfi_offset 5, -8
 256              		.cfi_offset 14, -4
 257              	.LBB431:
 258              	.LBB432:
 259              	.LBB433:
 260              	.LBB434:
 261              		.loc 2 546 0
 262 0002 2024     		movs	r4, #32
 263              		.syntax unified
 264              	@ 546 "/home/selim/working/ChibiOS/os/ext/CMSIS/include/core_cmFunc.h" 1
 265 0004 84F31188 		MSR basepri, r4
 266              	@ 0 "" 2
 267              	.LVL14:
 268              		.thumb
 269              		.syntax unified
 270              	.LBE434:
 271              	.LBE433:
 272              	.LBE432:
 273              	.LBE431:
 274              		.loc 1 141 0
 275 0008 0120     		movs	r0, #1
 276 000a FFF7FEFF 		bl	chSysIntegrityCheckI
 277              	.LVL15:
 278              	.LBB435:
 279              	.LBB436:
 280              	.LBB437:
 281              	.LBB438:
 282              	.LBB439:
 283              		.loc 2 546 0
 284 000e 0023     		movs	r3, #0
 285              		.syntax unified
ARM GAS  /tmp/cc4Naq0S.s 			page 6


 286              	@ 546 "/home/selim/working/ChibiOS/os/ext/CMSIS/include/core_cmFunc.h" 1
 287 0010 83F31188 		MSR basepri, r3
 288              	@ 0 "" 2
 289              	.LVL16:
 290              		.thumb
 291              		.syntax unified
 292              	.LBE439:
 293              	.LBE438:
 294              	.LBE437:
 295              	.LBE436:
 296              	.LBE435:
 297              		.loc 1 143 0
 298 0014 80F00101 		eor	r1, r0, #1
 299 0018 C9B2     		uxtb	r1, r1
 300 001a 0120     		movs	r0, #1
 301              	.LVL17:
 302 001c FFF7FEFF 		bl	_test_assert
 303              	.LVL18:
 304 0020 00B1     		cbz	r0, .L10
 305              	.L4:
 306 0022 38BD     		pop	{r3, r4, r5, pc}
 307              	.L10:
 308              	.LVL19:
 309 0024 0546     		mov	r5, r0
 310              	.LBB440:
 311              	.LBB441:
 312              	.LBB442:
 313              	.LBB443:
 314              		.loc 2 546 0
 315              		.syntax unified
 316              	@ 546 "/home/selim/working/ChibiOS/os/ext/CMSIS/include/core_cmFunc.h" 1
 317 0026 84F31188 		MSR basepri, r4
 318              	@ 0 "" 2
 319              	.LVL20:
 320              		.thumb
 321              		.syntax unified
 322              	.LBE443:
 323              	.LBE442:
 324              	.LBE441:
 325              	.LBE440:
 326              		.loc 1 146 0
 327 002a 0220     		movs	r0, #2
 328 002c FFF7FEFF 		bl	chSysIntegrityCheckI
 329              	.LVL21:
 330              	.LBB444:
 331              	.LBB445:
 332              	.LBB446:
 333              	.LBB447:
 334              	.LBB448:
 335              		.loc 2 546 0
 336              		.syntax unified
 337              	@ 546 "/home/selim/working/ChibiOS/os/ext/CMSIS/include/core_cmFunc.h" 1
 338 0030 85F31188 		MSR basepri, r5
 339              	@ 0 "" 2
 340              	.LVL22:
 341              		.thumb
 342              		.syntax unified
ARM GAS  /tmp/cc4Naq0S.s 			page 7


 343              	.LBE448:
 344              	.LBE447:
 345              	.LBE446:
 346              	.LBE445:
 347              	.LBE444:
 348              		.loc 1 148 0
 349 0034 80F00101 		eor	r1, r0, #1
 350 0038 C9B2     		uxtb	r1, r1
 351 003a 0220     		movs	r0, #2
 352              	.LVL23:
 353 003c FFF7FEFF 		bl	_test_assert
 354              	.LVL24:
 355 0040 0546     		mov	r5, r0
 356 0042 0028     		cmp	r0, #0
 357 0044 EDD1     		bne	.L4
 358              	.LVL25:
 359              	.LBB449:
 360              	.LBB450:
 361              	.LBB451:
 362              	.LBB452:
 363              		.loc 2 546 0
 364              		.syntax unified
 365              	@ 546 "/home/selim/working/ChibiOS/os/ext/CMSIS/include/core_cmFunc.h" 1
 366 0046 84F31188 		MSR basepri, r4
 367              	@ 0 "" 2
 368              	.LVL26:
 369              		.thumb
 370              		.syntax unified
 371              	.LBE452:
 372              	.LBE451:
 373              	.LBE450:
 374              	.LBE449:
 375              		.loc 1 151 0
 376 004a 0420     		movs	r0, #4
 377 004c FFF7FEFF 		bl	chSysIntegrityCheckI
 378              	.LVL27:
 379              	.LBB453:
 380              	.LBB454:
 381              	.LBB455:
 382              	.LBB456:
 383              	.LBB457:
 384              		.loc 2 546 0
 385              		.syntax unified
 386              	@ 546 "/home/selim/working/ChibiOS/os/ext/CMSIS/include/core_cmFunc.h" 1
 387 0050 85F31188 		MSR basepri, r5
 388              	@ 0 "" 2
 389              	.LVL28:
 390              		.thumb
 391              		.syntax unified
 392              	.LBE457:
 393              	.LBE456:
 394              	.LBE455:
 395              	.LBE454:
 396              	.LBE453:
 397              		.loc 1 153 0
 398 0054 80F00101 		eor	r1, r0, #1
 399 0058 C9B2     		uxtb	r1, r1
ARM GAS  /tmp/cc4Naq0S.s 			page 8


 400 005a 0320     		movs	r0, #3
 401              	.LVL29:
 402 005c FFF7FEFF 		bl	_test_assert
 403              	.LVL30:
 404 0060 0546     		mov	r5, r0
 405 0062 0028     		cmp	r0, #0
 406 0064 DDD1     		bne	.L4
 407              	.LVL31:
 408              	.LBB458:
 409              	.LBB459:
 410              	.LBB460:
 411              	.LBB461:
 412              	.LBB462:
 413              	.LBB463:
 414              		.loc 2 546 0
 415              		.syntax unified
 416              	@ 546 "/home/selim/working/ChibiOS/os/ext/CMSIS/include/core_cmFunc.h" 1
 417 0066 84F31188 		MSR basepri, r4
 418              	@ 0 "" 2
 419              	.LVL32:
 420              		.thumb
 421              		.syntax unified
 422              	.LBE463:
 423              	.LBE462:
 424              	.LBE461:
 425              	.LBE460:
 426              		.loc 1 156 0
 427 006a 0820     		movs	r0, #8
 428 006c FFF7FEFF 		bl	chSysIntegrityCheckI
 429              	.LVL33:
 430              	.LBB464:
 431              	.LBB465:
 432              	.LBB466:
 433              	.LBB467:
 434              	.LBB468:
 435              		.loc 2 546 0
 436              		.syntax unified
 437              	@ 546 "/home/selim/working/ChibiOS/os/ext/CMSIS/include/core_cmFunc.h" 1
 438 0070 85F31188 		MSR basepri, r5
 439              	@ 0 "" 2
 440              	.LVL34:
 441              		.thumb
 442              		.syntax unified
 443              	.LBE468:
 444              	.LBE467:
 445              	.LBE466:
 446              	.LBE465:
 447              	.LBE464:
 448              		.loc 1 158 0
 449 0074 80F00101 		eor	r1, r0, #1
 450 0078 C9B2     		uxtb	r1, r1
 451 007a 0420     		movs	r0, #4
 452              	.LVL35:
 453              	.LBE459:
 454              	.LBE458:
 455              		.loc 1 159 0
 456 007c BDE83840 		pop	{r3, r4, r5, lr}
ARM GAS  /tmp/cc4Naq0S.s 			page 9


 457              		.cfi_restore 14
 458              		.cfi_restore 5
 459              		.cfi_restore 4
 460              		.cfi_restore 3
 461              		.cfi_def_cfa_offset 0
 462              	.LBB470:
 463              	.LBB469:
 464              		.loc 1 158 0
 465 0080 FFF7FEBF 		b	_test_assert
 466              	.LVL36:
 467              	.LBE469:
 468              	.LBE470:
 469              		.cfi_endproc
 470              	.LFE230:
 471              		.size	sys3_execute, .-sys3_execute
 472              		.section	.text.sys1_execute,"ax",%progbits
 473              		.align	2
 474              		.p2align 4,,15
 475              		.thumb
 476              		.thumb_func
 477              		.type	sys1_execute, %function
 478              	sys1_execute:
 479              	.LFB228:
 480              		.loc 1 68 0
 481              		.cfi_startproc
 482              		@ args = 0, pretend = 0, frame = 24
 483              		@ frame_needed = 0, uses_anonymous_args = 0
 484 0000 10B5     		push	{r4, lr}
 485              		.cfi_def_cfa_offset 8
 486              		.cfi_offset 4, -8
 487              		.cfi_offset 14, -4
 488 0002 86B0     		sub	sp, sp, #24
 489              		.cfi_def_cfa_offset 32
 490              		.loc 1 73 0
 491 0004 FFF7FEFF 		bl	chSysGetStatusAndLockX
 492              	.LVL37:
 493              		.loc 1 74 0
 494 0008 FFF7FEFF 		bl	chSysRestoreStatusX
 495              	.LVL38:
 496              	.LBB559:
 497              	.LBB560:
 498              	.LBB561:
 499              	.LBB562:
 500              		.loc 2 546 0
 501 000c 2024     		movs	r4, #32
 502              		.syntax unified
 503              	@ 546 "/home/selim/working/ChibiOS/os/ext/CMSIS/include/core_cmFunc.h" 1
 504 000e 84F31188 		MSR basepri, r4
 505              	@ 0 "" 2
 506              	.LVL39:
 507              		.thumb
 508              		.syntax unified
 509              	.LBE562:
 510              	.LBE561:
 511              	.LBE560:
 512              	.LBE559:
 513              		.loc 1 78 0
ARM GAS  /tmp/cc4Naq0S.s 			page 10


 514 0012 FFF7FEFF 		bl	chSysGetStatusAndLockX
 515              	.LVL40:
 516              		.loc 1 79 0
 517 0016 FFF7FEFF 		bl	chSysRestoreStatusX
 518              	.LVL41:
 519              	.LBB563:
 520              	.LBB564:
 521              	.LBB565:
 522              	.LBB566:
 523              	.LBB567:
 524              		.loc 2 546 0
 525 001a 0023     		movs	r3, #0
 526              		.syntax unified
 527              	@ 546 "/home/selim/working/ChibiOS/os/ext/CMSIS/include/core_cmFunc.h" 1
 528 001c 83F31188 		MSR basepri, r3
 529              	@ 0 "" 2
 530              	.LVL42:
 531              		.thumb
 532              		.syntax unified
 533              	.LBE567:
 534              	.LBE566:
 535              	.LBE565:
 536              	.LBE564:
 537              	.LBE563:
 538              	.LBB568:
 539              	.LBB569:
 540              	.LBB570:
 541              	.LBB571:
 542              	.LBB572:
 543              	.LBB573:
 544              		.loc 2 533 0
 545              		.syntax unified
 546              	@ 533 "/home/selim/working/ChibiOS/os/ext/CMSIS/include/core_cmFunc.h" 1
 547 0020 EFF31283 		MRS r3, basepri_max
 548              	@ 0 "" 2
 549              		.thumb
 550              		.syntax unified
 551              	.LBE573:
 552              	.LBE572:
 553              	.LBE571:
 554              	.LBE570:
 555              		.file 3 "/home/selim/working/ChibiOS/os/rt/include/chsys.h"
 556              		.loc 3 422 0
 557 0024 0BB9     		cbnz	r3, .L12
 558              	.LVL43:
 559              	.LBB574:
 560              	.LBB575:
 561              	.LBB576:
 562              	.LBB577:
 563              		.loc 2 546 0
 564              		.syntax unified
 565              	@ 546 "/home/selim/working/ChibiOS/os/ext/CMSIS/include/core_cmFunc.h" 1
 566 0026 84F31188 		MSR basepri, r4
 567              	@ 0 "" 2
 568              	.LVL44:
 569              		.thumb
 570              		.syntax unified
ARM GAS  /tmp/cc4Naq0S.s 			page 11


 571              	.L12:
 572              	.LBE577:
 573              	.LBE576:
 574              	.LBE575:
 575              	.LBE574:
 576              	.LBE569:
 577              	.LBE568:
 578              	.LBB578:
 579              	.LBB579:
 580              	.LBB580:
 581              	.LBB581:
 582              	.LBB582:
 583              	.LBB583:
 584              		.loc 2 533 0
 585              		.syntax unified
 586              	@ 533 "/home/selim/working/ChibiOS/os/ext/CMSIS/include/core_cmFunc.h" 1
 587 002a EFF31283 		MRS r3, basepri_max
 588              	@ 0 "" 2
 589              		.thumb
 590              		.syntax unified
 591              	.LBE583:
 592              	.LBE582:
 593              	.LBE581:
 594              	.LBE580:
 595              		.loc 3 422 0
 596 002e 13B9     		cbnz	r3, .L13
 597              	.LVL45:
 598              	.LBB584:
 599              	.LBB585:
 600              	.LBB586:
 601              	.LBB587:
 602              		.loc 2 546 0
 603 0030 2023     		movs	r3, #32
 604              		.syntax unified
 605              	@ 546 "/home/selim/working/ChibiOS/os/ext/CMSIS/include/core_cmFunc.h" 1
 606 0032 83F31188 		MSR basepri, r3
 607              	@ 0 "" 2
 608              	.LVL46:
 609              		.thumb
 610              		.syntax unified
 611              	.L13:
 612              	.LBE587:
 613              	.LBE586:
 614              	.LBE585:
 615              	.LBE584:
 616              	.LBE579:
 617              	.LBE578:
 618              	.LBB588:
 619              	.LBB589:
 620              	.LBB590:
 621              	.LBB591:
 622              	.LBB592:
 623 0036 0023     		movs	r3, #0
 624              		.syntax unified
 625              	@ 546 "/home/selim/working/ChibiOS/os/ext/CMSIS/include/core_cmFunc.h" 1
 626 0038 83F31188 		MSR basepri, r3
 627              	@ 0 "" 2
ARM GAS  /tmp/cc4Naq0S.s 			page 12


 628              	.LVL47:
 629              		.thumb
 630              		.syntax unified
 631              	.LBE592:
 632              	.LBE591:
 633              	.LBE590:
 634              	.LBE589:
 635              	.LBE588:
 636              	.LBB593:
 637              	.LBB594:
 638              	.LBB595:
 639              	.LBB596:
 640 003c 2022     		movs	r2, #32
 641              		.syntax unified
 642              	@ 546 "/home/selim/working/ChibiOS/os/ext/CMSIS/include/core_cmFunc.h" 1
 643 003e 82F31188 		MSR basepri, r2
 644              	@ 0 "" 2
 645              	.LVL48:
 646              		.thumb
 647              		.syntax unified
 648              	.LBE596:
 649              	.LBE595:
 650              	.LBE594:
 651              	.LBE593:
 652              	.LBB597:
 653              	.LBB598:
 654              	.LBB599:
 655              	.LBB600:
 656              	.LBB601:
 657              	.LBB602:
 658              		.loc 2 533 0
 659              		.syntax unified
 660              	@ 533 "/home/selim/working/ChibiOS/os/ext/CMSIS/include/core_cmFunc.h" 1
 661 0042 EFF31282 		MRS r2, basepri_max
 662              	@ 0 "" 2
 663              		.thumb
 664              		.syntax unified
 665              	.LBE602:
 666              	.LBE601:
 667              	.LBE600:
 668              	.LBE599:
 669              		.loc 3 436 0
 670 0046 0AB1     		cbz	r2, .L14
 671              	.LVL49:
 672              	.LBB603:
 673              	.LBB604:
 674              	.LBB605:
 675              	.LBB606:
 676              	.LBB607:
 677              		.loc 2 546 0
 678              		.syntax unified
 679              	@ 546 "/home/selim/working/ChibiOS/os/ext/CMSIS/include/core_cmFunc.h" 1
 680 0048 83F31188 		MSR basepri, r3
 681              	@ 0 "" 2
 682              	.LVL50:
 683              		.thumb
 684              		.syntax unified
ARM GAS  /tmp/cc4Naq0S.s 			page 13


 685              	.L14:
 686              	.LBE607:
 687              	.LBE606:
 688              	.LBE605:
 689              	.LBE604:
 690              	.LBE603:
 691              	.LBE598:
 692              	.LBE597:
 693              	.LBB608:
 694              	.LBB609:
 695              	.LBB610:
 696              	.LBB611:
 697              	.LBB612:
 698              	.LBB613:
 699              		.loc 2 533 0
 700              		.syntax unified
 701              	@ 533 "/home/selim/working/ChibiOS/os/ext/CMSIS/include/core_cmFunc.h" 1
 702 004c EFF31283 		MRS r3, basepri_max
 703              	@ 0 "" 2
 704              		.thumb
 705              		.syntax unified
 706              	.LBE613:
 707              	.LBE612:
 708              	.LBE611:
 709              	.LBE610:
 710              		.loc 3 436 0
 711 0050 13B1     		cbz	r3, .L15
 712              	.LVL51:
 713              	.LBB614:
 714              	.LBB615:
 715              	.LBB616:
 716              	.LBB617:
 717              	.LBB618:
 718              		.loc 2 546 0
 719 0052 0023     		movs	r3, #0
 720              		.syntax unified
 721              	@ 546 "/home/selim/working/ChibiOS/os/ext/CMSIS/include/core_cmFunc.h" 1
 722 0054 83F31188 		MSR basepri, r3
 723              	@ 0 "" 2
 724              	.LVL52:
 725              		.thumb
 726              		.syntax unified
 727              	.L15:
 728              	.LBE618:
 729              	.LBE617:
 730              	.LBE616:
 731              	.LBE615:
 732              	.LBE614:
 733              	.LBE609:
 734              	.LBE608:
 735              	.LBB619:
 736              	.LBB620:
 737              		.file 4 "/home/selim/working/ChibiOS/os/rt/include/chvt.h"
 738              		.loc 4 212 0
 739 0058 0023     		movs	r3, #0
 740 005a 0493     		str	r3, [sp, #16]
 741              	.LVL53:
ARM GAS  /tmp/cc4Naq0S.s 			page 14


 742              	.LBE620:
 743              	.LBE619:
 744              	.LBB621:
 745              	.LBB622:
 746              	.LBB623:
 747              	.LBB624:
 748              	.LBB625:
 749              		.loc 2 546 0
 750 005c 2023     		movs	r3, #32
 751              		.syntax unified
 752              	@ 546 "/home/selim/working/ChibiOS/os/ext/CMSIS/include/core_cmFunc.h" 1
 753 005e 83F31188 		MSR basepri, r3
 754              	@ 0 "" 2
 755              	.LVL54:
 756              		.thumb
 757              		.syntax unified
 758              	.LBE625:
 759              	.LBE624:
 760              	.LBE623:
 761              	.LBE622:
 762              	.LBB626:
 763              	.LBB627:
 764              	.LBB628:
 765              	.LBB629:
 766              		.loc 4 376 0
 767 0062 049B     		ldr	r3, [sp, #16]
 768              		.loc 4 377 0
 769 0064 01AC     		add	r4, sp, #4
 770              	.LVL55:
 771              		.loc 4 376 0
 772 0066 13B1     		cbz	r3, .L16
 773              		.loc 4 377 0
 774 0068 2046     		mov	r0, r4
 775 006a FFF7FEFF 		bl	chVTDoResetI
 776              	.LVL56:
 777              	.L16:
 778              	.LBE629:
 779              	.LBE628:
 780              		.loc 4 424 0
 781 006e 2046     		mov	r0, r4
 782 0070 0023     		movs	r3, #0
 783 0072 0C4A     		ldr	r2, .L27
 784 0074 0121     		movs	r1, #1
 785 0076 FFF7FEFF 		bl	chVTDoSetI
 786              	.LVL57:
 787              	.LBE627:
 788              	.LBE626:
 789              	.LBB630:
 790              	.LBB631:
 791              	.LBB632:
 792              	.LBB633:
 793              	.LBB634:
 794              		.loc 2 546 0
 795 007a 0024     		movs	r4, #0
 796              	.LVL58:
 797              		.syntax unified
 798              	@ 546 "/home/selim/working/ChibiOS/os/ext/CMSIS/include/core_cmFunc.h" 1
ARM GAS  /tmp/cc4Naq0S.s 			page 15


 799 007c 84F31188 		MSR basepri, r4
 800              	@ 0 "" 2
 801              	.LVL59:
 802              		.thumb
 803              		.syntax unified
 804              	.LBE634:
 805              	.LBE633:
 806              	.LBE632:
 807              	.LBE631:
 808              	.LBE630:
 809              	.LBE621:
 810              		.loc 1 95 0
 811 0080 0A20     		movs	r0, #10
 812 0082 FFF7FEFF 		bl	chThdSleep
 813              	.LVL60:
 814              	.LBB635:
 815              	.LBB636:
 816              	.LBB637:
 817              	.LBB638:
 818              	.LBB639:
 819              	.LBB640:
 820              		.loc 2 546 0
 821 0086 2023     		movs	r3, #32
 822              		.syntax unified
 823              	@ 546 "/home/selim/working/ChibiOS/os/ext/CMSIS/include/core_cmFunc.h" 1
 824 0088 83F31188 		MSR basepri, r3
 825              	@ 0 "" 2
 826              	.LVL61:
 827              		.thumb
 828              		.syntax unified
 829 008c 0499     		ldr	r1, [sp, #16]
 830              	.LVL62:
 831              	.LBE640:
 832              	.LBE639:
 833              	.LBE638:
 834              	.LBE637:
 835              	.LBB641:
 836              	.LBB642:
 837              	.LBB643:
 838              	.LBB644:
 839              	.LBB645:
 840              		.syntax unified
 841              	@ 546 "/home/selim/working/ChibiOS/os/ext/CMSIS/include/core_cmFunc.h" 1
 842 008e 84F31188 		MSR basepri, r4
 843              	@ 0 "" 2
 844              	.LVL63:
 845              		.thumb
 846              		.syntax unified
 847              	.LBE645:
 848              	.LBE644:
 849              	.LBE643:
 850              	.LBE642:
 851              	.LBE641:
 852              	.LBE636:
 853              	.LBE635:
 854              		.loc 1 97 0
 855 0092 B1FA81F1 		clz	r1, r1
ARM GAS  /tmp/cc4Naq0S.s 			page 16


 856 0096 4909     		lsrs	r1, r1, #5
 857 0098 0120     		movs	r0, #1
 858 009a FFF7FEFF 		bl	_test_assert
 859              	.LVL64:
 860              		.loc 1 98 0
 861 009e 06B0     		add	sp, sp, #24
 862              		.cfi_def_cfa_offset 8
 863              		@ sp needed
 864 00a0 10BD     		pop	{r4, pc}
 865              	.LVL65:
 866              	.L28:
 867 00a2 00BF     		.align	2
 868              	.L27:
 869 00a4 00000000 		.word	vtcb
 870              		.cfi_endproc
 871              	.LFE228:
 872              		.size	sys1_execute, .-sys1_execute
 873              		.global	patternsys
 874              		.global	testsys3
 875              		.global	testsys2
 876              		.global	testsys1
 877              		.section	.rodata.testsys1,"a",%progbits
 878              		.align	2
 879              		.type	testsys1, %object
 880              		.size	testsys1, 16
 881              	testsys1:
 882 0000 30000000 		.word	.LC2
 883 0004 00000000 		.word	0
 884 0008 00000000 		.word	0
 885 000c 00000000 		.word	sys1_execute
 886              		.section	.rodata.testsys2,"a",%progbits
 887              		.align	2
 888              		.type	testsys2, %object
 889              		.size	testsys2, 16
 890              	testsys2:
 891 0000 14000000 		.word	.LC1
 892 0004 00000000 		.word	0
 893 0008 00000000 		.word	0
 894 000c 00000000 		.word	sys2_execute
 895              		.section	.rodata.testsys3,"a",%progbits
 896              		.align	2
 897              		.type	testsys3, %object
 898              		.size	testsys3, 16
 899              	testsys3:
 900 0000 00000000 		.word	.LC0
 901 0004 00000000 		.word	0
 902 0008 00000000 		.word	0
 903 000c 00000000 		.word	sys3_execute
 904              		.section	.rodata.str1.4,"aMS",%progbits,1
 905              		.align	2
 906              	.LC0:
 907 0000 53797374 		.ascii	"System, integrity\000"
 907      656D2C20 
 907      696E7465 
 907      67726974 
 907      7900
 908 0012 0000     		.space	2
ARM GAS  /tmp/cc4Naq0S.s 			page 17


 909              	.LC1:
 910 0014 53797374 		.ascii	"System, interrupts handling\000"
 910      656D2C20 
 910      696E7465 
 910      72727570 
 910      74732068 
 911              	.LC2:
 912 0030 53797374 		.ascii	"System, critical zones\000"
 912      656D2C20 
 912      63726974 
 912      6963616C 
 912      207A6F6E 
 913              		.section	.rodata.patternsys,"a",%progbits
 914              		.align	2
 915              		.type	patternsys, %object
 916              		.size	patternsys, 16
 917              	patternsys:
 918 0000 00000000 		.word	testsys1
 919 0004 00000000 		.word	testsys2
 920 0008 00000000 		.word	testsys3
 921 000c 00000000 		.word	0
 922              		.text
 923              	.Letext0:
 924              		.file 5 "/usr/lib/gcc/arm-none-eabi/5.3.1/include/stddef.h"
 925              		.file 6 "/usr/arm-none-eabi/include/machine/_default_types.h"
 926              		.file 7 "/usr/arm-none-eabi/include/sys/_stdint.h"
 927              		.file 8 "/home/selim/working/ChibiOS/os/rt/ports/ARMCMx/compilers/GCC/chtypes.h"
 928              		.file 9 "/home/selim/working/ChibiOS/os/rt/include/chsystypes.h"
 929              		.file 10 "/home/selim/working/ChibiOS/os/rt/include/chschd.h"
 930              		.file 11 "/home/selim/working/ChibiOS/os/rt/ports/ARMCMx/chcore.h"
 931              		.file 12 "/home/selim/working/ChibiOS/os/rt/ports/ARMCMx/chcore_v7m.h"
 932              		.file 13 "/home/selim/working/ChibiOS/os/rt/include/chtm.h"
 933              		.file 14 "/home/selim/working/ChibiOS/os/rt/include/chsem.h"
 934              		.file 15 "/home/selim/working/ChibiOS/os/rt/include/chmtx.h"
 935              		.file 16 "/home/selim/working/ChibiOS/test/rt/test.h"
 936              		.file 17 "/home/selim/working/ChibiOS/os/ext/CMSIS/include/core_cm4.h"
 937              		.file 18 "/home/selim/working/ChibiOS/os/rt/include/chthreads.h"