ARM GAS  /tmp/cc1wYJoY.s 			page 1


   1              		.syntax unified
   2              		.cpu cortex-m4
   3              		.fpu softvfp
   4              		.eabi_attribute 20, 1
   5              		.eabi_attribute 21, 1
   6              		.eabi_attribute 23, 3
   7              		.eabi_attribute 24, 1
   8              		.eabi_attribute 25, 1
   9              		.eabi_attribute 26, 1
  10              		.eabi_attribute 30, 2
  11              		.eabi_attribute 34, 1
  12              		.eabi_attribute 18, 4
  13              		.thumb
  14              		.syntax unified
  15              		.file	"testmbox.c"
  16              		.text
  17              	.Ltext0:
  18              		.cfi_sections	.debug_frame
  19              		.section	.text.mbox1_execute,"ax",%progbits
  20              		.align	2
  21              		.p2align 4,,15
  22              		.thumb
  23              		.thumb_func
  24              		.type	mbox1_execute, %function
  25              	mbox1_execute:
  26              	.LFB228:
  27              		.file 1 "/home/selim/working/ChibiOS/test/rt/testmbox.c"
  28              		.loc 1 76 0
  29              		.cfi_startproc
  30              		@ args = 0, pretend = 0, frame = 8
  31              		@ frame_needed = 0, uses_anonymous_args = 0
  32              	.LVL0:
  33 0000 2DE9F041 		push	{r4, r5, r6, r7, r8, lr}
  34              		.cfi_def_cfa_offset 24
  35              		.cfi_offset 4, -24
  36              		.cfi_offset 5, -20
  37              		.cfi_offset 6, -16
  38              		.cfi_offset 7, -12
  39              		.cfi_offset 8, -8
  40              		.cfi_offset 14, -4
  41              	.LBB335:
  42              	.LBB336:
  43              	.LBB337:
  44              	.LBB338:
  45              		.file 2 "/home/selim/working/ChibiOS/os/ext/CMSIS/include/core_cmFunc.h"
  46              		.loc 2 546 0
  47 0004 2023     		movs	r3, #32
  48              	.LBE338:
  49              	.LBE337:
  50              	.LBE336:
  51              	.LBE335:
  52              		.loc 1 76 0
  53 0006 82B0     		sub	sp, sp, #8
  54              		.cfi_def_cfa_offset 32
  55              	.LBB342:
  56              	.LBB341:
  57              	.LBB340:
ARM GAS  /tmp/cc1wYJoY.s 			page 2


  58              	.LBB339:
  59              		.loc 2 546 0
  60              		.syntax unified
  61              	@ 546 "/home/selim/working/ChibiOS/os/ext/CMSIS/include/core_cmFunc.h" 1
  62 0008 83F31188 		MSR basepri, r3
  63              	@ 0 "" 2
  64              	.LVL1:
  65              		.thumb
  66              		.syntax unified
  67 000c CB4E     		ldr	r6, .L39
  68              	.LBE339:
  69              	.LBE340:
  70              	.LBE341:
  71              	.LBE342:
  72              		.loc 1 83 0
  73 000e 716A     		ldr	r1, [r6, #36]
  74 0010 A1F10501 		sub	r1, #5
  75 0014 B1FA81F1 		clz	r1, r1
  76 0018 0120     		movs	r0, #1
  77 001a 4909     		lsrs	r1, r1, #5
  78 001c FFF7FEFF 		bl	_test_assert
  79              	.LVL2:
  80 0020 0028     		cmp	r0, #0
  81 0022 40F01881 		bne	.L32
  82              	.LVL3:
  83              	.LBB343:
  84              	.LBB344:
  85              	.LBB345:
  86              	.LBB346:
  87              	.LBB347:
  88              		.loc 2 546 0
  89              		.syntax unified
  90              	@ 546 "/home/selim/working/ChibiOS/os/ext/CMSIS/include/core_cmFunc.h" 1
  91 0026 80F31188 		MSR basepri, r0
  92              	@ 0 "" 2
  93              	.LVL4:
  94              		.thumb
  95              		.syntax unified
  96 002a 4224     		movs	r4, #66
  97              	.LVL5:
  98              	.L5:
  99              	.LBE347:
 100              	.LBE346:
 101              	.LBE345:
 102              	.LBE344:
 103              	.LBE343:
 104              		.loc 1 89 0
 105 002c C34D     		ldr	r5, .L39
 106 002e 2146     		mov	r1, r4
 107 0030 4FF0FF32 		mov	r2, #-1
 108 0034 2846     		mov	r0, r5
 109 0036 FFF7FEFF 		bl	chMBPost
 110              	.LVL6:
 111              		.loc 1 90 0
 112 003a B0FA80F1 		clz	r1, r0
 113 003e 4909     		lsrs	r1, r1, #5
 114 0040 0220     		movs	r0, #2
ARM GAS  /tmp/cc1wYJoY.s 			page 3


 115              	.LVL7:
 116 0042 FFF7FEFF 		bl	_test_assert
 117              	.LVL8:
 118 0046 0134     		adds	r4, r4, #1
 119              	.LVL9:
 120 0048 80B9     		cbnz	r0, .L1
 121              		.loc 1 88 0 discriminator 2
 122 004a 462C     		cmp	r4, #70
 123 004c EED1     		bne	.L5
 124              		.loc 1 92 0
 125 004e 4121     		movs	r1, #65
 126 0050 4FF0FF32 		mov	r2, #-1
 127 0054 2846     		mov	r0, r5
 128 0056 FFF7FEFF 		bl	chMBPostAhead
 129              	.LVL10:
 130              		.loc 1 93 0
 131 005a B0FA80F1 		clz	r1, r0
 132 005e 4909     		lsrs	r1, r1, #5
 133 0060 0320     		movs	r0, #3
 134              	.LVL11:
 135 0062 FFF7FEFF 		bl	_test_assert
 136              	.LVL12:
 137 0066 0028     		cmp	r0, #0
 138 0068 00F0FB80 		beq	.L34
 139              	.LVL13:
 140              	.L1:
 141              		.loc 1 220 0
 142 006c 02B0     		add	sp, sp, #8
 143              		.cfi_remember_state
 144              		.cfi_def_cfa_offset 24
 145              		@ sp needed
 146 006e BDE8F081 		pop	{r4, r5, r6, r7, r8, pc}
 147              	.LVL14:
 148              	.L38:
 149              		.cfi_restore_state
 150              	.LBB348:
 151              	.LBB349:
 152              	.LBB350:
 153              	.LBB351:
 154              	.LBB352:
 155              		.loc 2 546 0
 156              		.syntax unified
 157              	@ 546 "/home/selim/working/ChibiOS/os/ext/CMSIS/include/core_cmFunc.h" 1
 158 0072 85F31188 		MSR basepri, r5
 159              	@ 0 "" 2
 160              	.LVL15:
 161              		.thumb
 162              		.syntax unified
 163              	.LBE352:
 164              	.LBE351:
 165              	.LBE350:
 166              	.LBE349:
 167              	.LBE348:
 168              	.LBB353:
 169              	.LBB354:
 170              	.LBB355:
 171              	.LBB356:
ARM GAS  /tmp/cc1wYJoY.s 			page 4


 172              		.syntax unified
 173              	@ 546 "/home/selim/working/ChibiOS/os/ext/CMSIS/include/core_cmFunc.h" 1
 174 0076 87F31188 		MSR basepri, r7
 175              	@ 0 "" 2
 176              	.LVL16:
 177              		.thumb
 178              		.syntax unified
 179              	.LBE356:
 180              	.LBE355:
 181              	.LBE354:
 182              	.LBE353:
 183              		.loc 1 180 0
 184 007a A169     		ldr	r1, [r4, #24]
 185 007c B1FA81F1 		clz	r1, r1
 186 0080 4909     		lsrs	r1, r1, #5
 187 0082 1F20     		movs	r0, #31
 188 0084 FFF7FEFF 		bl	_test_assert
 189              	.LVL17:
 190 0088 0028     		cmp	r0, #0
 191 008a 40F09C82 		bne	.L31
 192              	.LVL18:
 193              	.LBB357:
 194              	.LBB358:
 195              	.LBB359:
 196              	.LBB360:
 197              	.LBB361:
 198              		.loc 2 546 0
 199              		.syntax unified
 200              	@ 546 "/home/selim/working/ChibiOS/os/ext/CMSIS/include/core_cmFunc.h" 1
 201 008e 85F31188 		MSR basepri, r5
 202              	@ 0 "" 2
 203              	.LVL19:
 204              		.thumb
 205              		.syntax unified
 206              	.LBE361:
 207              	.LBE360:
 208              	.LBE359:
 209              	.LBE358:
 210              	.LBE357:
 211              		.loc 1 181 0
 212 0092 E168     		ldr	r1, [r4, #12]
 213 0094 A368     		ldr	r3, [r4, #8]
 214 0096 CB1A     		subs	r3, r1, r3
 215 0098 5942     		rsbs	r1, r3, #0
 216 009a 5941     		adcs	r1, r1, r3
 217 009c 3846     		mov	r0, r7
 218 009e FFF7FEFF 		bl	_test_assert
 219              	.LVL20:
 220 00a2 0028     		cmp	r0, #0
 221 00a4 E2D1     		bne	.L1
 222              	.LVL21:
 223              	.LBB362:
 224              	.LBB363:
 225              	.LBB364:
 226              	.LBB365:
 227              		.loc 2 546 0
 228              		.syntax unified
ARM GAS  /tmp/cc1wYJoY.s 			page 5


 229              	@ 546 "/home/selim/working/ChibiOS/os/ext/CMSIS/include/core_cmFunc.h" 1
 230 00a6 87F31188 		MSR basepri, r7
 231              	@ 0 "" 2
 232              	.LVL22:
 233              		.thumb
 234              		.syntax unified
 235              	.LBE365:
 236              	.LBE364:
 237              	.LBE363:
 238              	.LBE362:
 239              		.loc 1 184 0
 240 00aa 4521     		movs	r1, #69
 241 00ac 2046     		mov	r0, r4
 242 00ae FFF7FEFF 		bl	chMBPostAheadI
 243              	.LVL23:
 244              		.loc 1 185 0
 245 00b2 B0FA80F1 		clz	r1, r0
 246 00b6 4909     		lsrs	r1, r1, #5
 247 00b8 2120     		movs	r0, #33
 248              	.LVL24:
 249 00ba FFF7FEFF 		bl	_test_assert
 250              	.LVL25:
 251 00be 0028     		cmp	r0, #0
 252 00c0 D4D1     		bne	.L1
 253              		.loc 1 186 0
 254 00c2 4421     		movs	r1, #68
 255 00c4 2046     		mov	r0, r4
 256 00c6 FFF7FEFF 		bl	chMBPostAheadI
 257              	.LVL26:
 258              		.loc 1 187 0
 259 00ca B0FA80F1 		clz	r1, r0
 260 00ce 4909     		lsrs	r1, r1, #5
 261 00d0 2220     		movs	r0, #34
 262              	.LVL27:
 263 00d2 FFF7FEFF 		bl	_test_assert
 264              	.LVL28:
 265 00d6 0028     		cmp	r0, #0
 266 00d8 C8D1     		bne	.L1
 267              		.loc 1 188 0
 268 00da 4321     		movs	r1, #67
 269 00dc 2046     		mov	r0, r4
 270 00de FFF7FEFF 		bl	chMBPostAheadI
 271              	.LVL29:
 272              		.loc 1 189 0
 273 00e2 B0FA80F1 		clz	r1, r0
 274 00e6 4909     		lsrs	r1, r1, #5
 275 00e8 2320     		movs	r0, #35
 276              	.LVL30:
 277 00ea FFF7FEFF 		bl	_test_assert
 278              	.LVL31:
 279 00ee 0028     		cmp	r0, #0
 280 00f0 BCD1     		bne	.L1
 281              		.loc 1 190 0
 282 00f2 4221     		movs	r1, #66
 283 00f4 2046     		mov	r0, r4
 284 00f6 FFF7FEFF 		bl	chMBPostAheadI
 285              	.LVL32:
ARM GAS  /tmp/cc1wYJoY.s 			page 6


 286              		.loc 1 191 0
 287 00fa B0FA80F1 		clz	r1, r0
 288 00fe 4909     		lsrs	r1, r1, #5
 289 0100 2420     		movs	r0, #36
 290              	.LVL33:
 291 0102 FFF7FEFF 		bl	_test_assert
 292              	.LVL34:
 293 0106 0028     		cmp	r0, #0
 294 0108 B0D1     		bne	.L1
 295              		.loc 1 192 0
 296 010a 8C4C     		ldr	r4, .L39
 297 010c 4121     		movs	r1, #65
 298 010e 2046     		mov	r0, r4
 299 0110 FFF7FEFF 		bl	chMBPostAheadI
 300              	.LVL35:
 301              	.LBB366:
 302              	.LBB367:
 303              	.LBB368:
 304              	.LBB369:
 305              	.LBB370:
 306              		.loc 2 546 0
 307 0114 0023     		movs	r3, #0
 308              		.syntax unified
 309              	@ 546 "/home/selim/working/ChibiOS/os/ext/CMSIS/include/core_cmFunc.h" 1
 310 0116 83F31188 		MSR basepri, r3
 311              	@ 0 "" 2
 312              	.LVL36:
 313              		.thumb
 314              		.syntax unified
 315              	.LBE370:
 316              	.LBE369:
 317              	.LBE368:
 318              	.LBE367:
 319              	.LBE366:
 320              		.loc 1 194 0
 321 011a B0FA80F1 		clz	r1, r0
 322 011e 4909     		lsrs	r1, r1, #5
 323 0120 2520     		movs	r0, #37
 324              	.LVL37:
 325 0122 FFF7FEFF 		bl	_test_assert
 326              	.LVL38:
 327 0126 0028     		cmp	r0, #0
 328 0128 A0D1     		bne	.L1
 329              		.loc 1 195 0
 330 012a E168     		ldr	r1, [r4, #12]
 331 012c A368     		ldr	r3, [r4, #8]
 332 012e C3EB0108 		rsb	r8, r3, r1
 333 0132 D8F10001 		rsbs	r1, r8, #0
 334 0136 41EB0801 		adc	r1, r1, r8
 335 013a 2620     		movs	r0, #38
 336 013c FFF7FEFF 		bl	_test_assert
 337              	.LVL39:
 338 0140 0028     		cmp	r0, #0
 339 0142 93D1     		bne	.L1
 340              	.LBB371:
 341              	.LBB372:
 342              	.LBB373:
ARM GAS  /tmp/cc1wYJoY.s 			page 7


 343              	.LBB374:
 344              	.LBB375:
 345              		.loc 2 546 0
 346 0144 0746     		mov	r7, r0
 347              	.LBE375:
 348              	.LBE374:
 349              	.LBE373:
 350              	.LBE372:
 351              	.LBE371:
 352 0146 0524     		movs	r4, #5
 353              	.LBB380:
 354              	.LBB381:
 355              	.LBB382:
 356              	.LBB383:
 357 0148 4FF02008 		mov	r8, #32
 358              	.LVL40:
 359              	.L16:
 360 014c 2026     		movs	r6, #32
 361              		.syntax unified
 362              	@ 546 "/home/selim/working/ChibiOS/os/ext/CMSIS/include/core_cmFunc.h" 1
 363 014e 88F31188 		MSR basepri, r8
 364              	@ 0 "" 2
 365              	.LVL41:
 366              		.thumb
 367              		.syntax unified
 368              	.LBE383:
 369              	.LBE382:
 370              	.LBE381:
 371              	.LBE380:
 372              		.loc 1 198 0
 373 0152 7A4D     		ldr	r5, .L39
 374 0154 01A9     		add	r1, sp, #4
 375 0156 2846     		mov	r0, r5
 376 0158 FFF7FEFF 		bl	chMBFetchI
 377              	.LVL42:
 378              	.LBB384:
 379              	.LBB379:
 380              	.LBB378:
 381              	.LBB377:
 382              	.LBB376:
 383              		.loc 2 546 0
 384              		.syntax unified
 385              	@ 546 "/home/selim/working/ChibiOS/os/ext/CMSIS/include/core_cmFunc.h" 1
 386 015c 87F31188 		MSR basepri, r7
 387              	@ 0 "" 2
 388              	.LVL43:
 389              		.thumb
 390              		.syntax unified
 391              	.LBE376:
 392              	.LBE377:
 393              	.LBE378:
 394              	.LBE379:
 395              	.LBE384:
 396              		.loc 1 200 0
 397 0160 B0FA80F1 		clz	r1, r0
 398 0164 4909     		lsrs	r1, r1, #5
 399 0166 2720     		movs	r0, #39
ARM GAS  /tmp/cc1wYJoY.s 			page 8


 400              	.LVL44:
 401 0168 FFF7FEFF 		bl	_test_assert
 402              	.LVL45:
 403 016c 0028     		cmp	r0, #0
 404 016e 7FF47DAF 		bne	.L1
 405              		.loc 1 201 0 discriminator 2
 406 0172 9DF80400 		ldrb	r0, [sp, #4]	@ zero_extendqisi2
 407 0176 FFF7FEFF 		bl	test_emit_token
 408              	.LVL46:
 409              		.loc 1 196 0 discriminator 2
 410 017a 013C     		subs	r4, r4, #1
 411              	.LVL47:
 412 017c E6D1     		bne	.L16
 413              		.loc 1 203 0
 414 017e 7049     		ldr	r1, .L39+4
 415 0180 2820     		movs	r0, #40
 416 0182 FFF7FEFF 		bl	_test_assert_sequence
 417              	.LVL48:
 418 0186 0028     		cmp	r0, #0
 419 0188 7FF470AF 		bne	.L1
 420              	.LVL49:
 421              	.LBB385:
 422              	.LBB386:
 423              	.LBB387:
 424              	.LBB388:
 425              		.loc 2 546 0
 426              		.syntax unified
 427              	@ 546 "/home/selim/working/ChibiOS/os/ext/CMSIS/include/core_cmFunc.h" 1
 428 018c 86F31188 		MSR basepri, r6
 429              	@ 0 "" 2
 430              	.LVL50:
 431              		.thumb
 432              		.syntax unified
 433              	.LBE388:
 434              	.LBE387:
 435              	.LBE386:
 436              	.LBE385:
 437              		.loc 1 204 0
 438 0190 696A     		ldr	r1, [r5, #36]
 439 0192 A1F1050C 		sub	ip, r1, #5
 440 0196 DCF10001 		rsbs	r1, ip, #0
 441 019a 41EB0C01 		adc	r1, r1, ip
 442 019e 2920     		movs	r0, #41
 443 01a0 FFF7FEFF 		bl	_test_assert
 444              	.LVL51:
 445 01a4 0028     		cmp	r0, #0
 446 01a6 40F0C580 		bne	.L30
 447              	.LVL52:
 448              	.LBB389:
 449              	.LBB390:
 450              	.LBB391:
 451              	.LBB392:
 452              	.LBB393:
 453              		.loc 2 546 0
 454              		.syntax unified
 455              	@ 546 "/home/selim/working/ChibiOS/os/ext/CMSIS/include/core_cmFunc.h" 1
 456 01aa 84F31188 		MSR basepri, r4
ARM GAS  /tmp/cc1wYJoY.s 			page 9


 457              	@ 0 "" 2
 458              	.LVL53:
 459              		.thumb
 460              		.syntax unified
 461              	.LBE393:
 462              	.LBE392:
 463              	.LBE391:
 464              	.LBE390:
 465              	.LBE389:
 466              	.LBB394:
 467              	.LBB395:
 468              	.LBB396:
 469              	.LBB397:
 470              		.syntax unified
 471              	@ 546 "/home/selim/working/ChibiOS/os/ext/CMSIS/include/core_cmFunc.h" 1
 472 01ae 86F31188 		MSR basepri, r6
 473              	@ 0 "" 2
 474              	.LVL54:
 475              		.thumb
 476              		.syntax unified
 477              	.LBE397:
 478              	.LBE396:
 479              	.LBE395:
 480              	.LBE394:
 481              		.loc 1 205 0
 482 01b2 A969     		ldr	r1, [r5, #24]
 483 01b4 B1FA81F1 		clz	r1, r1
 484 01b8 4909     		lsrs	r1, r1, #5
 485 01ba 2A20     		movs	r0, #42
 486 01bc FFF7FEFF 		bl	_test_assert
 487              	.LVL55:
 488 01c0 0028     		cmp	r0, #0
 489 01c2 40F0B780 		bne	.L30
 490              	.LVL56:
 491              	.LBB398:
 492              	.LBB399:
 493              	.LBB400:
 494              	.LBB401:
 495              	.LBB402:
 496              		.loc 2 546 0
 497              		.syntax unified
 498              	@ 546 "/home/selim/working/ChibiOS/os/ext/CMSIS/include/core_cmFunc.h" 1
 499 01c6 84F31188 		MSR basepri, r4
 500              	@ 0 "" 2
 501              	.LVL57:
 502              		.thumb
 503              		.syntax unified
 504              	.LBE402:
 505              	.LBE401:
 506              	.LBE400:
 507              	.LBE399:
 508              	.LBE398:
 509              		.loc 1 206 0
 510 01ca E968     		ldr	r1, [r5, #12]
 511 01cc AB68     		ldr	r3, [r5, #8]
 512 01ce C3EB010E 		rsb	lr, r3, r1
 513 01d2 DEF10001 		rsbs	r1, lr, #0
ARM GAS  /tmp/cc1wYJoY.s 			page 10


 514 01d6 41EB0E01 		adc	r1, r1, lr
 515 01da 2B20     		movs	r0, #43
 516 01dc FFF7FEFF 		bl	_test_assert
 517              	.LVL58:
 518 01e0 0028     		cmp	r0, #0
 519 01e2 7FF443AF 		bne	.L1
 520              		.loc 1 211 0
 521 01e6 2846     		mov	r0, r5
 522 01e8 FFF7FEFF 		bl	chMBReset
 523              	.LVL59:
 524              	.LBB403:
 525              	.LBB404:
 526              	.LBB405:
 527              	.LBB406:
 528              		.loc 2 546 0
 529              		.syntax unified
 530              	@ 546 "/home/selim/working/ChibiOS/os/ext/CMSIS/include/core_cmFunc.h" 1
 531 01ec 86F31188 		MSR basepri, r6
 532              	@ 0 "" 2
 533              	.LVL60:
 534              		.thumb
 535              		.syntax unified
 536              	.LBE406:
 537              	.LBE405:
 538              	.LBE404:
 539              	.LBE403:
 540              		.loc 1 216 0
 541 01f0 696A     		ldr	r1, [r5, #36]
 542 01f2 4F1F     		subs	r7, r1, #5
 543 01f4 7942     		rsbs	r1, r7, #0
 544 01f6 7941     		adcs	r1, r1, r7
 545 01f8 2C20     		movs	r0, #44
 546 01fa FFF7FEFF 		bl	_test_assert
 547              	.LVL61:
 548 01fe 0028     		cmp	r0, #0
 549 0200 40F09880 		bne	.L30
 550              	.LVL62:
 551              	.LBB407:
 552              	.LBB408:
 553              	.LBB409:
 554              	.LBB410:
 555              	.LBB411:
 556              		.loc 2 546 0
 557              		.syntax unified
 558              	@ 546 "/home/selim/working/ChibiOS/os/ext/CMSIS/include/core_cmFunc.h" 1
 559 0204 84F31188 		MSR basepri, r4
 560              	@ 0 "" 2
 561              	.LVL63:
 562              		.thumb
 563              		.syntax unified
 564              	.LBE411:
 565              	.LBE410:
 566              	.LBE409:
 567              	.LBE408:
 568              	.LBE407:
 569              	.LBB412:
 570              	.LBB413:
ARM GAS  /tmp/cc1wYJoY.s 			page 11


 571              	.LBB414:
 572              	.LBB415:
 573              		.syntax unified
 574              	@ 546 "/home/selim/working/ChibiOS/os/ext/CMSIS/include/core_cmFunc.h" 1
 575 0208 86F31188 		MSR basepri, r6
 576              	@ 0 "" 2
 577              	.LVL64:
 578              		.thumb
 579              		.syntax unified
 580              	.LBE415:
 581              	.LBE414:
 582              	.LBE413:
 583              	.LBE412:
 584              		.loc 1 217 0
 585 020c A969     		ldr	r1, [r5, #24]
 586 020e B1FA81F1 		clz	r1, r1
 587 0212 4909     		lsrs	r1, r1, #5
 588 0214 2D20     		movs	r0, #45
 589 0216 FFF7FEFF 		bl	_test_assert
 590              	.LVL65:
 591 021a 0028     		cmp	r0, #0
 592 021c 40F08A80 		bne	.L30
 593              	.LVL66:
 594              	.LBB416:
 595              	.LBB417:
 596              	.LBB418:
 597              	.LBB419:
 598              	.LBB420:
 599              		.loc 2 546 0
 600              		.syntax unified
 601              	@ 546 "/home/selim/working/ChibiOS/os/ext/CMSIS/include/core_cmFunc.h" 1
 602 0220 84F31188 		MSR basepri, r4
 603              	@ 0 "" 2
 604              	.LVL67:
 605              		.thumb
 606              		.syntax unified
 607              	.LBE420:
 608              	.LBE419:
 609              	.LBE418:
 610              	.LBE417:
 611              	.LBE416:
 612              	.LBB421:
 613              	.LBB422:
 614              	.LBB423:
 615              	.LBB424:
 616              		.syntax unified
 617              	@ 546 "/home/selim/working/ChibiOS/os/ext/CMSIS/include/core_cmFunc.h" 1
 618 0224 86F31188 		MSR basepri, r6
 619              	@ 0 "" 2
 620              	.LVL68:
 621              		.thumb
 622              		.syntax unified
 623              	.LBE424:
 624              	.LBE423:
 625              	.LBE422:
 626              	.LBE421:
 627              		.loc 1 218 0
ARM GAS  /tmp/cc1wYJoY.s 			page 12


 628 0228 2968     		ldr	r1, [r5]
 629 022a AB68     		ldr	r3, [r5, #8]
 630 022c CA1A     		subs	r2, r1, r3
 631 022e 5142     		rsbs	r1, r2, #0
 632 0230 5141     		adcs	r1, r1, r2
 633 0232 2E20     		movs	r0, #46
 634 0234 FFF7FEFF 		bl	_test_assert
 635              	.LVL69:
 636 0238 0028     		cmp	r0, #0
 637 023a 7BD1     		bne	.L30
 638              	.LVL70:
 639              	.LBB425:
 640              	.LBB426:
 641              	.LBB427:
 642              	.LBB428:
 643              	.LBB429:
 644              		.loc 2 546 0
 645              		.syntax unified
 646              	@ 546 "/home/selim/working/ChibiOS/os/ext/CMSIS/include/core_cmFunc.h" 1
 647 023c 84F31188 		MSR basepri, r4
 648              	@ 0 "" 2
 649              	.LVL71:
 650              		.thumb
 651              		.syntax unified
 652              	.LBE429:
 653              	.LBE428:
 654              	.LBE427:
 655              	.LBE426:
 656              	.LBE425:
 657              	.LBB430:
 658              	.LBB431:
 659              	.LBB432:
 660              	.LBB433:
 661              		.syntax unified
 662              	@ 546 "/home/selim/working/ChibiOS/os/ext/CMSIS/include/core_cmFunc.h" 1
 663 0240 86F31188 		MSR basepri, r6
 664              	@ 0 "" 2
 665              	.LVL72:
 666              		.thumb
 667              		.syntax unified
 668              	.LBE433:
 669              	.LBE432:
 670              	.LBE431:
 671              	.LBE430:
 672              		.loc 1 219 0
 673 0244 2968     		ldr	r1, [r5]
 674 0246 EB68     		ldr	r3, [r5, #12]
 675 0248 CB1A     		subs	r3, r1, r3
 676 024a 5942     		rsbs	r1, r3, #0
 677 024c 4FF02F00 		mov	r0, #47
 678 0250 5941     		adcs	r1, r1, r3
 679 0252 FFF7FEFF 		bl	_test_assert
 680              	.LVL73:
 681              	.L32:
 682              	.LBB434:
 683              	.LBB435:
 684              	.LBB436:
ARM GAS  /tmp/cc1wYJoY.s 			page 13


 685              	.LBB437:
 686              	.LBB438:
 687              		.loc 2 546 0
 688 0256 0023     		movs	r3, #0
 689              	.L22:
 690              	.LVL74:
 691              	.LBE438:
 692              	.LBE437:
 693              	.LBE436:
 694              	.LBE435:
 695              	.LBE434:
 696              	.LBB439:
 697              	.LBB440:
 698              	.LBB441:
 699              	.LBB442:
 700              	.LBB443:
 701              		.syntax unified
 702              	@ 546 "/home/selim/working/ChibiOS/os/ext/CMSIS/include/core_cmFunc.h" 1
 703 0258 83F31188 		MSR basepri, r3
 704              	@ 0 "" 2
 705              	.LVL75:
 706              		.thumb
 707              		.syntax unified
 708              	.LBE443:
 709              	.LBE442:
 710              	.LBE441:
 711              	.LBE440:
 712              	.LBE439:
 713              		.loc 1 220 0
 714 025c 02B0     		add	sp, sp, #8
 715              		.cfi_remember_state
 716              		.cfi_def_cfa_offset 24
 717              		@ sp needed
 718 025e BDE8F081 		pop	{r4, r5, r6, r7, r8, pc}
 719              	.LVL76:
 720              	.L34:
 721              		.cfi_restore_state
 722              		.loc 1 98 0
 723 0262 0122     		movs	r2, #1
 724 0264 5821     		movs	r1, #88
 725 0266 2846     		mov	r0, r5
 726 0268 FFF7FEFF 		bl	chMBPost
 727              	.LVL77:
 728              		.loc 1 99 0
 729 026c A0F1FF31 		sub	r1, r0, #-1
 730 0270 B1FA81F1 		clz	r1, r1
 731 0274 4909     		lsrs	r1, r1, #5
 732 0276 0420     		movs	r0, #4
 733              	.LVL78:
 734 0278 FFF7FEFF 		bl	_test_assert
 735              	.LVL79:
 736 027c 0446     		mov	r4, r0
 737              	.LVL80:
 738 027e 0028     		cmp	r0, #0
 739 0280 7FF4F4AE 		bne	.L1
 740              	.LVL81:
 741              	.LBB444:
ARM GAS  /tmp/cc1wYJoY.s 			page 14


 742              	.LBB445:
 743              	.LBB446:
 744              	.LBB447:
 745              		.loc 2 546 0
 746 0284 2027     		movs	r7, #32
 747              		.syntax unified
 748              	@ 546 "/home/selim/working/ChibiOS/os/ext/CMSIS/include/core_cmFunc.h" 1
 749 0286 87F31188 		MSR basepri, r7
 750              	@ 0 "" 2
 751              	.LVL82:
 752              		.thumb
 753              		.syntax unified
 754              	.LBE447:
 755              	.LBE446:
 756              	.LBE445:
 757              	.LBE444:
 758              		.loc 1 101 0
 759 028a 5821     		movs	r1, #88
 760 028c 2846     		mov	r0, r5
 761 028e FFF7FEFF 		bl	chMBPostI
 762              	.LVL83:
 763 0292 0146     		mov	r1, r0
 764              	.LVL84:
 765              	.LBB448:
 766              	.LBB449:
 767              	.LBB450:
 768              	.LBB451:
 769              	.LBB452:
 770              		.loc 2 546 0
 771              		.syntax unified
 772              	@ 546 "/home/selim/working/ChibiOS/os/ext/CMSIS/include/core_cmFunc.h" 1
 773 0294 84F31188 		MSR basepri, r4
 774              	@ 0 "" 2
 775              	.LVL85:
 776              		.thumb
 777              		.syntax unified
 778              	.LBE452:
 779              	.LBE451:
 780              	.LBE450:
 781              	.LBE449:
 782              	.LBE448:
 783              		.loc 1 103 0
 784 0298 A1F1FF31 		sub	r1, r1, #-1
 785 029c B1FA81F1 		clz	r1, r1
 786 02a0 0520     		movs	r0, #5
 787              	.LVL86:
 788 02a2 4909     		lsrs	r1, r1, #5
 789 02a4 FFF7FEFF 		bl	_test_assert
 790              	.LVL87:
 791 02a8 0028     		cmp	r0, #0
 792 02aa 7FF4DFAE 		bne	.L1
 793              		.loc 1 104 0
 794 02ae 0122     		movs	r2, #1
 795 02b0 5821     		movs	r1, #88
 796 02b2 2846     		mov	r0, r5
 797 02b4 FFF7FEFF 		bl	chMBPostAhead
 798              	.LVL88:
ARM GAS  /tmp/cc1wYJoY.s 			page 15


 799              		.loc 1 105 0
 800 02b8 A0F1FF31 		sub	r1, r0, #-1
 801 02bc B1FA81F1 		clz	r1, r1
 802 02c0 4909     		lsrs	r1, r1, #5
 803 02c2 0620     		movs	r0, #6
 804              	.LVL89:
 805 02c4 FFF7FEFF 		bl	_test_assert
 806              	.LVL90:
 807 02c8 0446     		mov	r4, r0
 808 02ca 0028     		cmp	r0, #0
 809 02cc 7FF4CEAE 		bne	.L1
 810              	.LVL91:
 811              	.LBB453:
 812              	.LBB454:
 813              	.LBB455:
 814              	.LBB456:
 815              		.loc 2 546 0
 816              		.syntax unified
 817              	@ 546 "/home/selim/working/ChibiOS/os/ext/CMSIS/include/core_cmFunc.h" 1
 818 02d0 87F31188 		MSR basepri, r7
 819              	@ 0 "" 2
 820              	.LVL92:
 821              		.thumb
 822              		.syntax unified
 823              	.LBE456:
 824              	.LBE455:
 825              	.LBE454:
 826              	.LBE453:
 827              		.loc 1 107 0
 828 02d4 5821     		movs	r1, #88
 829 02d6 2846     		mov	r0, r5
 830 02d8 FFF7FEFF 		bl	chMBPostAheadI
 831              	.LVL93:
 832 02dc 0146     		mov	r1, r0
 833              	.LVL94:
 834              	.LBB457:
 835              	.LBB458:
 836              	.LBB459:
 837              	.LBB460:
 838              	.LBB461:
 839              		.loc 2 546 0
 840              		.syntax unified
 841              	@ 546 "/home/selim/working/ChibiOS/os/ext/CMSIS/include/core_cmFunc.h" 1
 842 02de 84F31188 		MSR basepri, r4
 843              	@ 0 "" 2
 844              	.LVL95:
 845              		.thumb
 846              		.syntax unified
 847              	.LBE461:
 848              	.LBE460:
 849              	.LBE459:
 850              	.LBE458:
 851              	.LBE457:
 852              		.loc 1 109 0
 853 02e2 A1F1FF31 		sub	r1, r1, #-1
 854 02e6 B1FA81F1 		clz	r1, r1
 855 02ea 0720     		movs	r0, #7
ARM GAS  /tmp/cc1wYJoY.s 			page 16


 856              	.LVL96:
 857 02ec 4909     		lsrs	r1, r1, #5
 858 02ee FFF7FEFF 		bl	_test_assert
 859              	.LVL97:
 860 02f2 8046     		mov	r8, r0
 861 02f4 0028     		cmp	r0, #0
 862 02f6 7FF4B9AE 		bne	.L1
 863              	.LVL98:
 864              	.LBB462:
 865              	.LBB463:
 866              	.LBB464:
 867              	.LBB465:
 868              		.loc 2 546 0
 869              		.syntax unified
 870              	@ 546 "/home/selim/working/ChibiOS/os/ext/CMSIS/include/core_cmFunc.h" 1
 871 02fa 87F31188 		MSR basepri, r7
 872              	@ 0 "" 2
 873              	.LVL99:
 874              		.thumb
 875              		.syntax unified
 876              	.LBE465:
 877              	.LBE464:
 878              	.LBE463:
 879              	.LBE462:
 880              		.loc 1 114 0
 881 02fe 696A     		ldr	r1, [r5, #36]
 882 0300 B1FA81F1 		clz	r1, r1
 883 0304 4909     		lsrs	r1, r1, #5
 884 0306 0820     		movs	r0, #8
 885 0308 FFF7FEFF 		bl	_test_assert
 886              	.LVL100:
 887 030c 0446     		mov	r4, r0
 888 030e 10B1     		cbz	r0, .L6
 889              	.LVL101:
 890              	.LBB466:
 891              	.LBB467:
 892              	.LBB468:
 893              	.LBB469:
 894              	.LBB470:
 895              		.loc 2 546 0
 896              		.syntax unified
 897              	@ 546 "/home/selim/working/ChibiOS/os/ext/CMSIS/include/core_cmFunc.h" 1
 898 0310 88F31188 		MSR basepri, r8
 899              	@ 0 "" 2
 900              	.LVL102:
 901              		.thumb
 902              		.syntax unified
 903 0314 AAE6     		b	.L1
 904              	.L6:
 905              	.LVL103:
 906              	.LBE470:
 907              	.LBE469:
 908              	.LBE468:
 909              	.LBE467:
 910              	.LBE466:
 911              	.LBB471:
 912              	.LBB472:
ARM GAS  /tmp/cc1wYJoY.s 			page 17


 913              	.LBB473:
 914              	.LBB474:
 915              	.LBB475:
 916              		.syntax unified
 917              	@ 546 "/home/selim/working/ChibiOS/os/ext/CMSIS/include/core_cmFunc.h" 1
 918 0316 80F31188 		MSR basepri, r0
 919              	@ 0 "" 2
 920              	.LVL104:
 921              		.thumb
 922              		.syntax unified
 923              	.LBE475:
 924              	.LBE474:
 925              	.LBE473:
 926              	.LBE472:
 927              	.LBE471:
 928              	.LBB476:
 929              	.LBB477:
 930              	.LBB478:
 931              	.LBB479:
 932              		.syntax unified
 933              	@ 546 "/home/selim/working/ChibiOS/os/ext/CMSIS/include/core_cmFunc.h" 1
 934 031a 87F31188 		MSR basepri, r7
 935              	@ 0 "" 2
 936              	.LVL105:
 937              		.thumb
 938              		.syntax unified
 939              	.LBE479:
 940              	.LBE478:
 941              	.LBE477:
 942              	.LBE476:
 943              		.loc 1 115 0
 944 031e A969     		ldr	r1, [r5, #24]
 945 0320 A1F1050E 		sub	lr, r1, #5
 946 0324 DEF10001 		rsbs	r1, lr, #0
 947 0328 41EB0E01 		adc	r1, r1, lr
 948 032c 0920     		movs	r0, #9
 949 032e FFF7FEFF 		bl	_test_assert
 950              	.LVL106:
 951 0332 38B1     		cbz	r0, .L35
 952              	.LVL107:
 953              	.L30:
 954              	.LBB480:
 955              	.LBB481:
 956              	.LBB482:
 957              	.LBB483:
 958              	.LBB484:
 959              		.loc 2 546 0
 960              		.syntax unified
 961              	@ 546 "/home/selim/working/ChibiOS/os/ext/CMSIS/include/core_cmFunc.h" 1
 962 0334 84F31188 		MSR basepri, r4
 963              	@ 0 "" 2
 964              	.LVL108:
 965              		.thumb
 966              		.syntax unified
 967 0338 98E6     		b	.L1
 968              	.L40:
 969 033a 00BF     		.align	2
ARM GAS  /tmp/cc1wYJoY.s 			page 18


 970              	.L39:
 971 033c 00000000 		.word	.LANCHOR0
 972 0340 00000000 		.word	.LC0
 973              	.LVL109:
 974              	.L35:
 975              	.LBE484:
 976              	.LBE483:
 977              	.LBE482:
 978              	.LBE481:
 979              	.LBE480:
 980              	.LBB485:
 981              	.LBB486:
 982              	.LBB487:
 983              	.LBB488:
 984              	.LBB489:
 985              		.syntax unified
 986              	@ 546 "/home/selim/working/ChibiOS/os/ext/CMSIS/include/core_cmFunc.h" 1
 987 0344 80F31188 		MSR basepri, r0
 988              	@ 0 "" 2
 989              	.LVL110:
 990              		.thumb
 991              		.syntax unified
 992              	.LBE489:
 993              	.LBE488:
 994              	.LBE487:
 995              	.LBE486:
 996              	.LBE485:
 997              	.LBB490:
 998              	.LBB491:
 999              	.LBB492:
 1000              	.LBB493:
 1001              		.syntax unified
 1002              	@ 546 "/home/selim/working/ChibiOS/os/ext/CMSIS/include/core_cmFunc.h" 1
 1003 0348 87F31188 		MSR basepri, r7
 1004              	@ 0 "" 2
 1005              	.LVL111:
 1006              		.thumb
 1007              		.syntax unified
 1008              	.LBE493:
 1009              	.LBE492:
 1010              	.LBE491:
 1011              	.LBE490:
 1012              		.loc 1 116 0
 1013 034c E968     		ldr	r1, [r5, #12]
 1014 034e AB68     		ldr	r3, [r5, #8]
 1015 0350 CC1A     		subs	r4, r1, r3
 1016 0352 6142     		rsbs	r1, r4, #0
 1017 0354 4FF00A00 		mov	r0, #10
 1018 0358 6141     		adcs	r1, r1, r4
 1019 035a FFF7FEFF 		bl	_test_assert
 1020              	.LVL112:
 1021              	.LBB494:
 1022              	.LBB495:
 1023              	.LBB496:
 1024              	.LBB497:
 1025              	.LBB498:
 1026              		.loc 2 546 0
ARM GAS  /tmp/cc1wYJoY.s 			page 19


 1027 035e 0023     		movs	r3, #0
 1028              	.LBE498:
 1029              	.LBE497:
 1030              	.LBE496:
 1031              	.LBE495:
 1032              	.LBE494:
 1033              		.loc 1 116 0
 1034 0360 0028     		cmp	r0, #0
 1035 0362 7FF479AF 		bne	.L22
 1036              	.LVL113:
 1037              	.LBB499:
 1038              	.LBB500:
 1039              	.LBB501:
 1040              	.LBB502:
 1041              	.LBB503:
 1042              		.loc 2 546 0
 1043              		.syntax unified
 1044              	@ 546 "/home/selim/working/ChibiOS/os/ext/CMSIS/include/core_cmFunc.h" 1
 1045 0366 83F31188 		MSR basepri, r3
 1046              	@ 0 "" 2
 1047              	.LVL114:
 1048              		.thumb
 1049              		.syntax unified
 1050 036a 0525     		movs	r5, #5
 1051 036c 05E0     		b	.L9
 1052              	.LVL115:
 1053              	.L37:
 1054              	.LBE503:
 1055              	.LBE502:
 1056              	.LBE501:
 1057              	.LBE500:
 1058              	.LBE499:
 1059              		.loc 1 124 0 discriminator 2
 1060 036e 9DF80400 		ldrb	r0, [sp, #4]	@ zero_extendqisi2
 1061 0372 FFF7FEFF 		bl	test_emit_token
 1062              	.LVL116:
 1063              		.loc 1 121 0 discriminator 2
 1064 0376 013D     		subs	r5, r5, #1
 1065              	.LVL117:
 1066 0378 0FD0     		beq	.L36
 1067              	.LVL118:
 1068              	.L9:
 1069              		.loc 1 122 0
 1070 037a 944C     		ldr	r4, .L41
 1071 037c 01A9     		add	r1, sp, #4
 1072 037e 4FF0FF32 		mov	r2, #-1
 1073 0382 2046     		mov	r0, r4
 1074 0384 FFF7FEFF 		bl	chMBFetch
 1075              	.LVL119:
 1076              		.loc 1 123 0
 1077 0388 B0FA80F1 		clz	r1, r0
 1078 038c 4909     		lsrs	r1, r1, #5
 1079 038e 0B20     		movs	r0, #11
 1080              	.LVL120:
 1081 0390 FFF7FEFF 		bl	_test_assert
 1082              	.LVL121:
 1083 0394 0028     		cmp	r0, #0
ARM GAS  /tmp/cc1wYJoY.s 			page 20


 1084 0396 EAD0     		beq	.L37
 1085 0398 68E6     		b	.L1
 1086              	.L36:
 1087              		.loc 1 126 0
 1088 039a 8D49     		ldr	r1, .L41+4
 1089 039c 0C20     		movs	r0, #12
 1090 039e FFF7FEFF 		bl	_test_assert_sequence
 1091              	.LVL122:
 1092 03a2 0028     		cmp	r0, #0
 1093 03a4 7FF462AE 		bne	.L1
 1094              		.loc 1 131 0
 1095 03a8 4721     		movs	r1, #71
 1096 03aa 4FF0FF32 		mov	r2, #-1
 1097 03ae 2046     		mov	r0, r4
 1098 03b0 FFF7FEFF 		bl	chMBPost
 1099              	.LVL123:
 1100              		.loc 1 132 0
 1101 03b4 B0FA80F1 		clz	r1, r0
 1102 03b8 4909     		lsrs	r1, r1, #5
 1103 03ba 0D20     		movs	r0, #13
 1104              	.LVL124:
 1105 03bc FFF7FEFF 		bl	_test_assert
 1106              	.LVL125:
 1107 03c0 0028     		cmp	r0, #0
 1108 03c2 7FF453AE 		bne	.L1
 1109              		.loc 1 133 0
 1110 03c6 01A9     		add	r1, sp, #4
 1111 03c8 4FF0FF32 		mov	r2, #-1
 1112 03cc 2046     		mov	r0, r4
 1113 03ce FFF7FEFF 		bl	chMBFetch
 1114              	.LVL126:
 1115              		.loc 1 134 0
 1116 03d2 B0FA80F1 		clz	r1, r0
 1117 03d6 4909     		lsrs	r1, r1, #5
 1118 03d8 0E20     		movs	r0, #14
 1119              	.LVL127:
 1120 03da FFF7FEFF 		bl	_test_assert
 1121              	.LVL128:
 1122 03de 0028     		cmp	r0, #0
 1123 03e0 7FF444AE 		bne	.L1
 1124              		.loc 1 135 0
 1125 03e4 2168     		ldr	r1, [r4]
 1126 03e6 A368     		ldr	r3, [r4, #8]
 1127 03e8 CA1A     		subs	r2, r1, r3
 1128 03ea 5142     		rsbs	r1, r2, #0
 1129 03ec 5141     		adcs	r1, r1, r2
 1130 03ee 0F20     		movs	r0, #15
 1131 03f0 FFF7FEFF 		bl	_test_assert
 1132              	.LVL129:
 1133 03f4 0028     		cmp	r0, #0
 1134 03f6 7FF439AE 		bne	.L1
 1135              		.loc 1 136 0
 1136 03fa 2168     		ldr	r1, [r4]
 1137 03fc E368     		ldr	r3, [r4, #12]
 1138 03fe CB1A     		subs	r3, r1, r3
 1139 0400 5942     		rsbs	r1, r3, #0
 1140 0402 5941     		adcs	r1, r1, r3
ARM GAS  /tmp/cc1wYJoY.s 			page 21


 1141 0404 1020     		movs	r0, #16
 1142 0406 FFF7FEFF 		bl	_test_assert
 1143              	.LVL130:
 1144 040a 0028     		cmp	r0, #0
 1145 040c 7FF42EAE 		bne	.L1
 1146              		.loc 1 141 0
 1147 0410 01A9     		add	r1, sp, #4
 1148 0412 0122     		movs	r2, #1
 1149 0414 2046     		mov	r0, r4
 1150 0416 FFF7FEFF 		bl	chMBFetch
 1151              	.LVL131:
 1152              		.loc 1 142 0
 1153 041a 00F10108 		add	r8, r0, #1
 1154 041e D8F10001 		rsbs	r1, r8, #0
 1155 0422 41EB0801 		adc	r1, r1, r8
 1156 0426 1120     		movs	r0, #17
 1157              	.LVL132:
 1158 0428 FFF7FEFF 		bl	_test_assert
 1159              	.LVL133:
 1160 042c 0028     		cmp	r0, #0
 1161 042e 7FF41DAE 		bne	.L1
 1162              	.LVL134:
 1163              	.LBB504:
 1164              	.LBB505:
 1165              	.LBB506:
 1166              	.LBB507:
 1167              		.loc 2 546 0
 1168 0432 2027     		movs	r7, #32
 1169              		.syntax unified
 1170              	@ 546 "/home/selim/working/ChibiOS/os/ext/CMSIS/include/core_cmFunc.h" 1
 1171 0434 87F31188 		MSR basepri, r7
 1172              	@ 0 "" 2
 1173              	.LVL135:
 1174              		.thumb
 1175              		.syntax unified
 1176              	.LBE507:
 1177              	.LBE506:
 1178              	.LBE505:
 1179              	.LBE504:
 1180              		.loc 1 144 0
 1181 0438 01A9     		add	r1, sp, #4
 1182 043a 2046     		mov	r0, r4
 1183 043c FFF7FEFF 		bl	chMBFetchI
 1184              	.LVL136:
 1185 0440 0146     		mov	r1, r0
 1186              	.LVL137:
 1187              	.LBB508:
 1188              	.LBB509:
 1189              	.LBB510:
 1190              	.LBB511:
 1191              	.LBB512:
 1192              		.loc 2 546 0
 1193              		.syntax unified
 1194              	@ 546 "/home/selim/working/ChibiOS/os/ext/CMSIS/include/core_cmFunc.h" 1
 1195 0442 85F31188 		MSR basepri, r5
 1196              	@ 0 "" 2
 1197              	.LVL138:
ARM GAS  /tmp/cc1wYJoY.s 			page 22


 1198              		.thumb
 1199              		.syntax unified
 1200              	.LBE512:
 1201              	.LBE511:
 1202              	.LBE510:
 1203              	.LBE509:
 1204              	.LBE508:
 1205              		.loc 1 146 0
 1206 0446 01F1010C 		add	ip, r1, #1
 1207 044a DCF10001 		rsbs	r1, ip, #0
 1208 044e 41EB0C01 		adc	r1, r1, ip
 1209 0452 1220     		movs	r0, #18
 1210              	.LVL139:
 1211 0454 FFF7FEFF 		bl	_test_assert
 1212              	.LVL140:
 1213 0458 0028     		cmp	r0, #0
 1214 045a 7FF407AE 		bne	.L1
 1215              	.LVL141:
 1216              	.LBB513:
 1217              	.LBB514:
 1218              	.LBB515:
 1219              	.LBB516:
 1220              		.loc 2 546 0
 1221              		.syntax unified
 1222              	@ 546 "/home/selim/working/ChibiOS/os/ext/CMSIS/include/core_cmFunc.h" 1
 1223 045e 87F31188 		MSR basepri, r7
 1224              	@ 0 "" 2
 1225              	.LVL142:
 1226              		.thumb
 1227              		.syntax unified
 1228              	.LBE516:
 1229              	.LBE515:
 1230              	.LBE514:
 1231              	.LBE513:
 1232              		.loc 1 151 0
 1233 0462 616A     		ldr	r1, [r4, #36]
 1234 0464 A1F1050E 		sub	lr, r1, #5
 1235 0468 DEF10001 		rsbs	r1, lr, #0
 1236 046c 41EB0E01 		adc	r1, r1, lr
 1237 0470 1320     		movs	r0, #19
 1238 0472 FFF7FEFF 		bl	_test_assert
 1239              	.LVL143:
 1240 0476 0028     		cmp	r0, #0
 1241 0478 7FF4EDAE 		bne	.L32
 1242              	.LVL144:
 1243              	.LBB517:
 1244              	.LBB518:
 1245              	.LBB519:
 1246              	.LBB520:
 1247              	.LBB521:
 1248              		.loc 2 546 0
 1249 047c 0027     		movs	r7, #0
 1250              		.syntax unified
 1251              	@ 546 "/home/selim/working/ChibiOS/os/ext/CMSIS/include/core_cmFunc.h" 1
 1252 047e 87F31188 		MSR basepri, r7
 1253              	@ 0 "" 2
 1254              	.LVL145:
ARM GAS  /tmp/cc1wYJoY.s 			page 23


 1255              		.thumb
 1256              		.syntax unified
 1257              	.LBE521:
 1258              	.LBE520:
 1259              	.LBE519:
 1260              	.LBE518:
 1261              	.LBE517:
 1262              	.LBB522:
 1263              	.LBB523:
 1264              	.LBB524:
 1265              	.LBB525:
 1266 0482 2025     		movs	r5, #32
 1267              	.LVL146:
 1268              		.syntax unified
 1269              	@ 546 "/home/selim/working/ChibiOS/os/ext/CMSIS/include/core_cmFunc.h" 1
 1270 0484 85F31188 		MSR basepri, r5
 1271              	@ 0 "" 2
 1272              	.LVL147:
 1273              		.thumb
 1274              		.syntax unified
 1275              	.LBE525:
 1276              	.LBE524:
 1277              	.LBE523:
 1278              	.LBE522:
 1279              		.loc 1 152 0
 1280 0488 B169     		ldr	r1, [r6, #24]
 1281 048a 504C     		ldr	r4, .L41
 1282 048c B1FA81F1 		clz	r1, r1
 1283 0490 4909     		lsrs	r1, r1, #5
 1284 0492 1420     		movs	r0, #20
 1285 0494 FFF7FEFF 		bl	_test_assert
 1286              	.LVL148:
 1287 0498 0646     		mov	r6, r0
 1288 049a 10B1     		cbz	r0, .L11
 1289              	.LVL149:
 1290              	.LBB526:
 1291              	.LBB527:
 1292              	.LBB528:
 1293              	.LBB529:
 1294              	.LBB530:
 1295              		.loc 2 546 0
 1296              		.syntax unified
 1297              	@ 546 "/home/selim/working/ChibiOS/os/ext/CMSIS/include/core_cmFunc.h" 1
 1298 049c 87F31188 		MSR basepri, r7
 1299              	@ 0 "" 2
 1300              	.LVL150:
 1301              		.thumb
 1302              		.syntax unified
 1303 04a0 E4E5     		b	.L1
 1304              	.L11:
 1305              	.LVL151:
 1306              	.LBE530:
 1307              	.LBE529:
 1308              	.LBE528:
 1309              	.LBE527:
 1310              	.LBE526:
 1311              	.LBB531:
ARM GAS  /tmp/cc1wYJoY.s 			page 24


 1312              	.LBB532:
 1313              	.LBB533:
 1314              	.LBB534:
 1315              	.LBB535:
 1316              		.syntax unified
 1317              	@ 546 "/home/selim/working/ChibiOS/os/ext/CMSIS/include/core_cmFunc.h" 1
 1318 04a2 80F31188 		MSR basepri, r0
 1319              	@ 0 "" 2
 1320              	.LVL152:
 1321              		.thumb
 1322              		.syntax unified
 1323              	.LBE535:
 1324              	.LBE534:
 1325              	.LBE533:
 1326              	.LBE532:
 1327              	.LBE531:
 1328              	.LBB536:
 1329              	.LBB537:
 1330              	.LBB538:
 1331              	.LBB539:
 1332              		.syntax unified
 1333              	@ 546 "/home/selim/working/ChibiOS/os/ext/CMSIS/include/core_cmFunc.h" 1
 1334 04a6 85F31188 		MSR basepri, r5
 1335              	@ 0 "" 2
 1336              	.LVL153:
 1337              		.thumb
 1338              		.syntax unified
 1339              	.LBE539:
 1340              	.LBE538:
 1341              	.LBE537:
 1342              	.LBE536:
 1343              		.loc 1 153 0
 1344 04aa E168     		ldr	r1, [r4, #12]
 1345 04ac A368     		ldr	r3, [r4, #8]
 1346 04ae CF1A     		subs	r7, r1, r3
 1347 04b0 7942     		rsbs	r1, r7, #0
 1348 04b2 7941     		adcs	r1, r1, r7
 1349 04b4 1520     		movs	r0, #21
 1350 04b6 FFF7FEFF 		bl	_test_assert
 1351              	.LVL154:
 1352 04ba 10B1     		cbz	r0, .L12
 1353              	.LVL155:
 1354              	.LBB540:
 1355              	.LBB541:
 1356              	.LBB542:
 1357              	.LBB543:
 1358              	.LBB544:
 1359              		.loc 2 546 0
 1360              		.syntax unified
 1361              	@ 546 "/home/selim/working/ChibiOS/os/ext/CMSIS/include/core_cmFunc.h" 1
 1362 04bc 86F31188 		MSR basepri, r6
 1363              	@ 0 "" 2
 1364              	.LVL156:
 1365              		.thumb
 1366              		.syntax unified
 1367 04c0 D4E5     		b	.L1
 1368              	.L12:
ARM GAS  /tmp/cc1wYJoY.s 			page 25


 1369              	.LVL157:
 1370              	.LBE544:
 1371              	.LBE543:
 1372              	.LBE542:
 1373              	.LBE541:
 1374              	.LBE540:
 1375              	.LBB545:
 1376              	.LBB546:
 1377              	.LBB547:
 1378              	.LBB548:
 1379              	.LBB549:
 1380              		.syntax unified
 1381              	@ 546 "/home/selim/working/ChibiOS/os/ext/CMSIS/include/core_cmFunc.h" 1
 1382 04c2 80F31188 		MSR basepri, r0
 1383              	@ 0 "" 2
 1384              	.LVL158:
 1385              		.thumb
 1386              		.syntax unified
 1387              	.LBE549:
 1388              	.LBE548:
 1389              	.LBE547:
 1390              	.LBE546:
 1391              	.LBE545:
 1392              	.LBB550:
 1393              	.LBB551:
 1394              	.LBB552:
 1395              	.LBB553:
 1396              		.syntax unified
 1397              	@ 546 "/home/selim/working/ChibiOS/os/ext/CMSIS/include/core_cmFunc.h" 1
 1398 04c6 85F31188 		MSR basepri, r5
 1399              	@ 0 "" 2
 1400              	.LVL159:
 1401              		.thumb
 1402              		.syntax unified
 1403              	.LBE553:
 1404              	.LBE552:
 1405              	.LBE551:
 1406              	.LBE550:
 1407              		.loc 1 159 0
 1408 04ca 4121     		movs	r1, #65
 1409 04cc 2046     		mov	r0, r4
 1410 04ce FFF7FEFF 		bl	chMBPostI
 1411              	.LVL160:
 1412              		.loc 1 160 0
 1413 04d2 B0FA80F1 		clz	r1, r0
 1414 04d6 4909     		lsrs	r1, r1, #5
 1415 04d8 1620     		movs	r0, #22
 1416              	.LVL161:
 1417 04da FFF7FEFF 		bl	_test_assert
 1418              	.LVL162:
 1419 04de 0028     		cmp	r0, #0
 1420 04e0 7FF4C4AD 		bne	.L1
 1421              		.loc 1 161 0
 1422 04e4 4221     		movs	r1, #66
 1423 04e6 2046     		mov	r0, r4
 1424 04e8 FFF7FEFF 		bl	chMBPostI
 1425              	.LVL163:
ARM GAS  /tmp/cc1wYJoY.s 			page 26


 1426              		.loc 1 162 0
 1427 04ec B0FA80F1 		clz	r1, r0
 1428 04f0 4909     		lsrs	r1, r1, #5
 1429 04f2 1720     		movs	r0, #23
 1430              	.LVL164:
 1431 04f4 FFF7FEFF 		bl	_test_assert
 1432              	.LVL165:
 1433 04f8 0028     		cmp	r0, #0
 1434 04fa 7FF4B7AD 		bne	.L1
 1435              		.loc 1 163 0
 1436 04fe 4321     		movs	r1, #67
 1437 0500 2046     		mov	r0, r4
 1438 0502 FFF7FEFF 		bl	chMBPostI
 1439              	.LVL166:
 1440              		.loc 1 164 0
 1441 0506 B0FA80F1 		clz	r1, r0
 1442 050a 4909     		lsrs	r1, r1, #5
 1443 050c 1820     		movs	r0, #24
 1444              	.LVL167:
 1445 050e FFF7FEFF 		bl	_test_assert
 1446              	.LVL168:
 1447 0512 0028     		cmp	r0, #0
 1448 0514 7FF4AAAD 		bne	.L1
 1449              		.loc 1 165 0
 1450 0518 4421     		movs	r1, #68
 1451 051a 2046     		mov	r0, r4
 1452 051c FFF7FEFF 		bl	chMBPostI
 1453              	.LVL169:
 1454              		.loc 1 166 0
 1455 0520 B0FA80F1 		clz	r1, r0
 1456 0524 4909     		lsrs	r1, r1, #5
 1457 0526 1920     		movs	r0, #25
 1458              	.LVL170:
 1459 0528 FFF7FEFF 		bl	_test_assert
 1460              	.LVL171:
 1461 052c 0646     		mov	r6, r0
 1462 052e 0028     		cmp	r0, #0
 1463 0530 7FF49CAD 		bne	.L1
 1464              		.loc 1 167 0
 1465 0534 4521     		movs	r1, #69
 1466 0536 2046     		mov	r0, r4
 1467 0538 FFF7FEFF 		bl	chMBPostI
 1468              	.LVL172:
 1469              	.LBB554:
 1470              	.LBB555:
 1471              	.LBB556:
 1472              	.LBB557:
 1473              	.LBB558:
 1474              		.loc 2 546 0
 1475              		.syntax unified
 1476              	@ 546 "/home/selim/working/ChibiOS/os/ext/CMSIS/include/core_cmFunc.h" 1
 1477 053c 86F31188 		MSR basepri, r6
 1478              	@ 0 "" 2
 1479              	.LVL173:
 1480              		.thumb
 1481              		.syntax unified
 1482              	.LBE558:
ARM GAS  /tmp/cc1wYJoY.s 			page 27


 1483              	.LBE557:
 1484              	.LBE556:
 1485              	.LBE555:
 1486              	.LBE554:
 1487              		.loc 1 169 0
 1488 0540 B0FA80F1 		clz	r1, r0
 1489 0544 4909     		lsrs	r1, r1, #5
 1490 0546 1A20     		movs	r0, #26
 1491              	.LVL174:
 1492 0548 FFF7FEFF 		bl	_test_assert
 1493              	.LVL175:
 1494 054c 0028     		cmp	r0, #0
 1495 054e 7FF48DAD 		bne	.L1
 1496              		.loc 1 170 0
 1497 0552 E168     		ldr	r1, [r4, #12]
 1498 0554 A368     		ldr	r3, [r4, #8]
 1499 0556 CC1A     		subs	r4, r1, r3
 1500 0558 6142     		rsbs	r1, r4, #0
 1501 055a 6141     		adcs	r1, r1, r4
 1502 055c 1B20     		movs	r0, #27
 1503 055e FFF7FEFF 		bl	_test_assert
 1504              	.LVL176:
 1505 0562 0028     		cmp	r0, #0
 1506 0564 7FF482AD 		bne	.L1
 1507              	.LBB559:
 1508              	.LBB560:
 1509              	.LBB561:
 1510              	.LBB562:
 1511              		.loc 2 546 0
 1512 0568 2E46     		mov	r6, r5
 1513              	.LBE562:
 1514              	.LBE561:
 1515              	.LBE560:
 1516              	.LBE559:
 1517              	.LBB566:
 1518              	.LBB567:
 1519              	.LBB568:
 1520              	.LBB569:
 1521              	.LBB570:
 1522 056a 8046     		mov	r8, r0
 1523              	.LBE570:
 1524              	.LBE569:
 1525              	.LBE568:
 1526              	.LBE567:
 1527              	.LBE566:
 1528 056c 0525     		movs	r5, #5
 1529              	.L13:
 1530              	.LVL177:
 1531              	.LBB575:
 1532              	.LBB565:
 1533              	.LBB564:
 1534              	.LBB563:
 1535 056e 2027     		movs	r7, #32
 1536              		.syntax unified
 1537              	@ 546 "/home/selim/working/ChibiOS/os/ext/CMSIS/include/core_cmFunc.h" 1
 1538 0570 86F31188 		MSR basepri, r6
 1539              	@ 0 "" 2
ARM GAS  /tmp/cc1wYJoY.s 			page 28


 1540              	.LVL178:
 1541              		.thumb
 1542              		.syntax unified
 1543              	.LBE563:
 1544              	.LBE564:
 1545              	.LBE565:
 1546              	.LBE575:
 1547              		.loc 1 173 0
 1548 0574 154C     		ldr	r4, .L41
 1549 0576 01A9     		add	r1, sp, #4
 1550 0578 2046     		mov	r0, r4
 1551 057a FFF7FEFF 		bl	chMBFetchI
 1552              	.LVL179:
 1553              	.LBB576:
 1554              	.LBB574:
 1555              	.LBB573:
 1556              	.LBB572:
 1557              	.LBB571:
 1558              		.loc 2 546 0
 1559              		.syntax unified
 1560              	@ 546 "/home/selim/working/ChibiOS/os/ext/CMSIS/include/core_cmFunc.h" 1
 1561 057e 88F31188 		MSR basepri, r8
 1562              	@ 0 "" 2
 1563              	.LVL180:
 1564              		.thumb
 1565              		.syntax unified
 1566              	.LBE571:
 1567              	.LBE572:
 1568              	.LBE573:
 1569              	.LBE574:
 1570              	.LBE576:
 1571              		.loc 1 175 0
 1572 0582 B0FA80F1 		clz	r1, r0
 1573 0586 4909     		lsrs	r1, r1, #5
 1574 0588 1C20     		movs	r0, #28
 1575              	.LVL181:
 1576 058a FFF7FEFF 		bl	_test_assert
 1577              	.LVL182:
 1578 058e 0028     		cmp	r0, #0
 1579 0590 7FF46CAD 		bne	.L1
 1580              		.loc 1 176 0 discriminator 2
 1581 0594 9DF80400 		ldrb	r0, [sp, #4]	@ zero_extendqisi2
 1582 0598 FFF7FEFF 		bl	test_emit_token
 1583              	.LVL183:
 1584              		.loc 1 171 0 discriminator 2
 1585 059c 013D     		subs	r5, r5, #1
 1586              	.LVL184:
 1587 059e E6D1     		bne	.L13
 1588              		.loc 1 178 0
 1589 05a0 0B49     		ldr	r1, .L41+4
 1590 05a2 1D20     		movs	r0, #29
 1591 05a4 FFF7FEFF 		bl	_test_assert_sequence
 1592              	.LVL185:
 1593 05a8 0028     		cmp	r0, #0
 1594 05aa 7FF45FAD 		bne	.L1
 1595              	.LVL186:
 1596              	.LBB577:
ARM GAS  /tmp/cc1wYJoY.s 			page 29


 1597              	.LBB578:
 1598              	.LBB579:
 1599              	.LBB580:
 1600              		.loc 2 546 0
 1601              		.syntax unified
 1602              	@ 546 "/home/selim/working/ChibiOS/os/ext/CMSIS/include/core_cmFunc.h" 1
 1603 05ae 87F31188 		MSR basepri, r7
 1604              	@ 0 "" 2
 1605              	.LVL187:
 1606              		.thumb
 1607              		.syntax unified
 1608              	.LBE580:
 1609              	.LBE579:
 1610              	.LBE578:
 1611              	.LBE577:
 1612              		.loc 1 179 0
 1613 05b2 616A     		ldr	r1, [r4, #36]
 1614 05b4 4A1F     		subs	r2, r1, #5
 1615 05b6 5142     		rsbs	r1, r2, #0
 1616 05b8 5141     		adcs	r1, r1, r2
 1617 05ba 1E20     		movs	r0, #30
 1618 05bc FFF7FEFF 		bl	_test_assert
 1619              	.LVL188:
 1620 05c0 0028     		cmp	r0, #0
 1621 05c2 3FF456AD 		beq	.L38
 1622              	.LVL189:
 1623              	.L31:
 1624              	.LBB581:
 1625              	.LBB582:
 1626              	.LBB583:
 1627              	.LBB584:
 1628              	.LBB585:
 1629              		.loc 2 546 0
 1630              		.syntax unified
 1631              	@ 546 "/home/selim/working/ChibiOS/os/ext/CMSIS/include/core_cmFunc.h" 1
 1632 05c6 85F31188 		MSR basepri, r5
 1633              	@ 0 "" 2
 1634              	.LVL190:
 1635              		.thumb
 1636              		.syntax unified
 1637 05ca 4FE5     		b	.L1
 1638              	.L42:
 1639              		.align	2
 1640              	.L41:
 1641 05cc 00000000 		.word	.LANCHOR0
 1642 05d0 00000000 		.word	.LC0
 1643              	.LBE585:
 1644              	.LBE584:
 1645              	.LBE583:
 1646              	.LBE582:
 1647              	.LBE581:
 1648              		.cfi_endproc
 1649              	.LFE228:
 1650              		.size	mbox1_execute, .-mbox1_execute
 1651              		.section	.text.mbox1_setup,"ax",%progbits
 1652              		.align	2
 1653              		.p2align 4,,15
ARM GAS  /tmp/cc1wYJoY.s 			page 30


 1654              		.thumb
 1655              		.thumb_func
 1656              		.type	mbox1_setup, %function
 1657              	mbox1_setup:
 1658              	.LFB227:
 1659              		.loc 1 71 0
 1660              		.cfi_startproc
 1661              		@ args = 0, pretend = 0, frame = 0
 1662              		@ frame_needed = 0, uses_anonymous_args = 0
 1663              		@ link register save eliminated.
 1664              		.loc 1 73 0
 1665 0000 0522     		movs	r2, #5
 1666 0002 0249     		ldr	r1, .L44
 1667 0004 0248     		ldr	r0, .L44+4
 1668 0006 FFF7FEBF 		b	chMBObjectInit
 1669              	.LVL191:
 1670              	.L45:
 1671 000a 00BF     		.align	2
 1672              	.L44:
 1673 000c 00000000 		.word	test
 1674 0010 00000000 		.word	.LANCHOR0
 1675              		.cfi_endproc
 1676              	.LFE227:
 1677              		.size	mbox1_setup, .-mbox1_setup
 1678              		.global	patternmbox
 1679              		.global	testmbox1
 1680              		.section	.data.mb1,"aw",%progbits
 1681              		.align	2
 1682              		.set	.LANCHOR0,. + 0
 1683              		.type	mb1, %object
 1684              		.size	mb1, 40
 1685              	mb1:
 1686 0000 00000000 		.word	test
 1687 0004 14000000 		.word	test+20
 1688 0008 00000000 		.word	test
 1689 000c 00000000 		.word	test
 1690 0010 10000000 		.word	mb1+16
 1691 0014 10000000 		.word	mb1+16
 1692 0018 00000000 		.word	0
 1693 001c 1C000000 		.word	mb1+28
 1694 0020 1C000000 		.word	mb1+28
 1695 0024 05000000 		.word	5
 1696              		.section	.rodata.patternmbox,"a",%progbits
 1697              		.align	2
 1698              		.type	patternmbox, %object
 1699              		.size	patternmbox, 8
 1700              	patternmbox:
 1701 0000 00000000 		.word	testmbox1
 1702 0004 00000000 		.word	0
 1703              		.section	.rodata.str1.4,"aMS",%progbits,1
 1704              		.align	2
 1705              	.LC0:
 1706 0000 41424344 		.ascii	"ABCDE\000"
 1706      4500
 1707 0006 0000     		.space	2
 1708              	.LC1:
 1709 0008 4D61696C 		.ascii	"Mailboxes, queuing and timeouts\000"
ARM GAS  /tmp/cc1wYJoY.s 			page 31


 1709      626F7865 
 1709      732C2071 
 1709      75657569 
 1709      6E672061 
 1710              		.section	.rodata.testmbox1,"a",%progbits
 1711              		.align	2
 1712              		.type	testmbox1, %object
 1713              		.size	testmbox1, 16
 1714              	testmbox1:
 1715 0000 08000000 		.word	.LC1
 1716 0004 00000000 		.word	mbox1_setup
 1717 0008 00000000 		.word	0
 1718 000c 00000000 		.word	mbox1_execute
 1719              		.text
 1720              	.Letext0:
 1721              		.file 3 "/usr/lib/gcc/arm-none-eabi/5.3.1/include/stddef.h"
 1722              		.file 4 "/usr/arm-none-eabi/include/machine/_default_types.h"
 1723              		.file 5 "/usr/arm-none-eabi/include/sys/_stdint.h"
 1724              		.file 6 "/home/selim/working/ChibiOS/os/rt/ports/ARMCMx/compilers/GCC/chtypes.h"
 1725              		.file 7 "/home/selim/working/ChibiOS/os/rt/include/chsystypes.h"
 1726              		.file 8 "/home/selim/working/ChibiOS/os/rt/include/chschd.h"
 1727              		.file 9 "/home/selim/working/ChibiOS/os/rt/ports/ARMCMx/chcore.h"
 1728              		.file 10 "/home/selim/working/ChibiOS/os/rt/ports/ARMCMx/chcore_v7m.h"
 1729              		.file 11 "/home/selim/working/ChibiOS/os/rt/include/chtm.h"
 1730              		.file 12 "/home/selim/working/ChibiOS/os/rt/include/chsem.h"
 1731              		.file 13 "/home/selim/working/ChibiOS/os/rt/include/chmtx.h"
 1732              		.file 14 "/home/selim/working/ChibiOS/os/rt/include/chmboxes.h"
 1733              		.file 15 "/home/selim/working/ChibiOS/test/rt/test.h"
 1734              		.file 16 "/home/selim/working/ChibiOS/os/rt/include/chsys.h"
 1735              		.file 17 "/home/selim/working/ChibiOS/os/ext/CMSIS/include/core_cm4.h"