ARM GAS  /tmp/cc4Naq0S.s 			page 1


   1              		.syntax unified
   2              		.cpu cortex-m4
   3              		.fpu softvfp
   4              		.eabi_attribute 20, 1
   5              		.eabi_attribute 21, 1
   6              		.eabi_attribute 23, 3
   7              		.eabi_attribute 24, 1
   8              		.eabi_attribute 25, 1
   9              		.eabi_attribute 26, 1
  10              		.eabi_attribute 30, 2
  11              		.eabi_attribute 34, 1
  12              		.eabi_attribute 18, 4
  13              		.thumb
  14              		.syntax unified
  15              		.file	"testsys.c"
  16              		.text
  17              	.Ltext0:
  18              		.cfi_sections	.debug_frame
  19              		.section	.text.sys2_execute,"ax",%progbits
  20              		.align	2
  21              		.p2align 4,,15
  22              		.thumb
  23              		.thumb_func
  24              		.type	sys2_execute, %function
  25              	sys2_execute:
  26              	.LFB229:
  27              		.file 1 "/home/selim/working/ChibiOS/test/rt/testsys.c"
  28              		.loc 1 114 0
  29              		.cfi_startproc
  30              		@ args = 0, pretend = 0, frame = 0
  31              		@ frame_needed = 0, uses_anonymous_args = 0
  32              		@ link register save eliminated.
  33              	.LVL0:
  34              	.LBB324:
  35              	.LBB325:
  36              	.LBB326:
  37              	.LBB327:
  38              		.file 2 "/home/selim/working/ChibiOS/os/ext/CMSIS/include/core_cmFunc.h"
  39              		.loc 2 546 0
  40 0000 2023     		movs	r3, #32
  41              		.syntax unified
  42              	@ 546 "/home/selim/working/ChibiOS/os/ext/CMSIS/include/core_cmFunc.h" 1
  43 0002 83F31188 		MSR basepri, r3
  44              	@ 0 "" 2
  45              	.LVL1:
  46              		.thumb
  47              		.syntax unified
  48              	.LBE327:
  49              	.LBE326:
  50              	.LBB328:
  51              	.LBB329:
  52              		.loc 2 331 0
  53              		.syntax unified
  54              	@ 331 "/home/selim/working/ChibiOS/os/ext/CMSIS/include/core_cmFunc.h" 1
  55 0006 62B6     		cpsie i
  56              	@ 0 "" 2
  57              		.thumb
ARM GAS  /tmp/cc4Naq0S.s 			page 2


  58              		.syntax unified
  59              	.LBE329:
  60              	.LBE328:
  61              	.LBE325:
  62              	.LBE324:
  63              	.LBB330:
  64              	.LBB331:
  65              	.LBB332:
  66              	.LBB333:
  67              		.loc 2 342 0
  68              		.syntax unified
  69              	@ 342 "/home/selim/working/ChibiOS/os/ext/CMSIS/include/core_cmFunc.h" 1
  70 0008 72B6     		cpsid i
  71              	@ 0 "" 2
  72              	.LVL2:
  73              		.thumb
  74              		.syntax unified
  75              	.LBE333:
  76              	.LBE332:
  77              	.LBE331:
  78              	.LBE330:
  79              	.LBB334:
  80              	.LBB335:
  81              	.LBB336:
  82              	.LBB337:
  83              		.loc 2 546 0
  84              		.syntax unified
  85              	@ 546 "/home/selim/working/ChibiOS/os/ext/CMSIS/include/core_cmFunc.h" 1
  86 000a 83F31188 		MSR basepri, r3
  87              	@ 0 "" 2
  88              	.LVL3:
  89              		.thumb
  90              		.syntax unified
  91              	.LBE337:
  92              	.LBE336:
  93              	.LBB338:
  94              	.LBB339:
  95              		.loc 2 331 0
  96              		.syntax unified
  97              	@ 331 "/home/selim/working/ChibiOS/os/ext/CMSIS/include/core_cmFunc.h" 1
  98 000e 62B6     		cpsie i
  99              	@ 0 "" 2
 100              	.LVL4:
 101              		.thumb
 102              		.syntax unified
 103              	.LBE339:
 104              	.LBE338:
 105              	.LBE335:
 106              	.LBE334:
 107              	.LBB340:
 108              	.LBB341:
 109              	.LBB342:
 110              	.LBB343:
 111              		.loc 2 546 0
 112 0010 0023     		movs	r3, #0
 113              		.syntax unified
 114              	@ 546 "/home/selim/working/ChibiOS/os/ext/CMSIS/include/core_cmFunc.h" 1
ARM GAS  /tmp/cc4Naq0S.s 			page 3


 115 0012 83F31188 		MSR basepri, r3
 116              	@ 0 "" 2
 117              	.LVL5:
 118              		.thumb
 119              		.syntax unified
 120              	.LBE343:
 121              	.LBE342:
 122              	.LBB344:
 123              	.LBB345:
 124              		.loc 2 331 0
 125              		.syntax unified
 126              	@ 331 "/home/selim/working/ChibiOS/os/ext/CMSIS/include/core_cmFunc.h" 1
 127 0016 62B6     		cpsie i
 128              	@ 0 "" 2
 129              		.thumb
 130              		.syntax unified
 131 0018 7047     		bx	lr
 132              	.LBE345:
 133              	.LBE344:
 134              	.LBE341:
 135              	.LBE340:
 136              		.cfi_endproc
 137              	.LFE229:
 138              		.size	sys2_execute, .-sys2_execute
 139 001a 00BF     		.section	.text.vtcb,"ax",%progbits
 140              		.align	2
 141              		.p2align 4,,15
 142              		.thumb
 143              		.thumb_func
 144              		.type	vtcb, %function
 145              	vtcb:
 146              	.LFB227:
 147              		.loc 1 52 0
 148              		.cfi_startproc
 149              		@ args = 0, pretend = 0, frame = 0
 150              		@ frame_needed = 0, uses_anonymous_args = 0
 151              	.LVL6:
 152 0000 10B5     		push	{r4, lr}
 153              		.cfi_def_cfa_offset 8
 154              		.cfi_offset 4, -8
 155              		.cfi_offset 14, -4
 156              	.LBB346:
 157              	.LBB347:
 158              	.LBB348:
 159              	.LBB349:
 160              	.LBB350:
 161              		.loc 2 546 0
 162 0002 2023     		movs	r3, #32
 163              		.syntax unified
 164              	@ 546 "/home/selim/working/ChibiOS/os/ext/CMSIS/include/core_cmFunc.h" 1
 165 0004 83F31188 		MSR basepri, r3
 166              	@ 0 "" 2
 167              	.LVL7:
 168              		.thumb
 169              		.syntax unified
 170              	.LBE350:
 171              	.LBE349:
ARM GAS  /tmp/cc4Naq0S.s 			page 4


 172              	.LBE348:
 173              	.LBE347:
 174              	.LBE346:
 175              	.LBB351:
 176              	.LBB352:
 177              	.LBB353:
 178              	.LBB354:
 179              	.LBB355:
 180 0008 0024     		movs	r4, #0
 181              		.syntax unified
 182              	@ 546 "/home/selim/working/ChibiOS/os/ext/CMSIS/include/core_cmFunc.h" 1
 183 000a 84F31188 		MSR basepri, r4
 184              	@ 0 "" 2
 185              	.LVL8:
 186              		.thumb
 187              		.syntax unified
 188              	.LBE355:
 189              	.LBE354:
 190              	.LBE353:
 191              	.LBE352:
 192              	.LBE351:
 193              	.LBB356:
 194              	.LBB357:
 195              	.LBB358:
 196              	.LBB359:
 197              	.LBB360:
 198              		.syntax unified
 199              	@ 546 "/home/selim/working/ChibiOS/os/ext/CMSIS/include/core_cmFunc.h" 1
 200 000e 83F31188 		MSR basepri, r3
 201              	@ 0 "" 2
 202              	.LVL9:
 203              		.thumb
 204              		.syntax unified
 205              	.LBE360:
 206              	.LBE359:
 207              	.LBE358:
 208              	.LBE357:
 209              	.LBE356:
 210              		.loc 1 63 0
 211 0012 FFF7FEFF 		bl	chSysGetStatusAndLockX
 212              	.LVL10:
 213              		.loc 1 64 0
 214 0016 FFF7FEFF 		bl	chSysRestoreStatusX
 215              	.LVL11:
 216              	.LBB361:
 217              	.LBB362:
 218              	.LBB363:
 219              	.LBB364:
 220              	.LBB365:
 221              		.loc 2 546 0
 222              		.syntax unified
 223              	@ 546 "/home/selim/working/ChibiOS/os/ext/CMSIS/include/core_cmFunc.h" 1
 224 001a 84F31188 		MSR basepri, r4
 225              	@ 0 "" 2
 226              	.LVL12:
 227              		.thumb
 228              		.syntax unified
ARM GAS  /tmp/cc4Naq0S.s 			page 5


 229 001e 10BD     		pop	{r4, pc}
 230              	.LBE365:
 231              	.LBE364:
 232              	.LBE363:
 233              	.LBE362:
 234              	.LBE361:
 235              		.cfi_endproc
 236              	.LFE227:
 237              		.size	vtcb, .-vtcb
 238              		.section	.text.sys3_execute,"ax",%progbits
 239              		.align	2
 240              		.p2align 4,,15
 241              		.thumb
 242              		.thumb_func
 243              		.type	sys3_execute, %function
 244              	sys3_execute:
 245              	.LFB230:
 246              		.loc 1 137 0
 247              		.cfi_startproc
 248              		@ args = 0, pretend = 0, frame = 0
 249              		@ frame_needed = 0, uses_anonymous_args = 0
 250              	.LVL13:
 251 0000 38B5     		push	{r3, r4, r5, lr}
 252              		.cfi_def_cfa_offset 16
 253              		.cfi_offset 3, -16
 254              		.cfi_offset 4, -12
 255              		.cfi_offset 5, -8
 256              		.cfi_offset 14, -4
 257              	.LBB431:
 258              	.LBB432:
 259              	.LBB433:
 260              	.LBB434:
 261              		.loc 2 546 0
 262 0002 2024     		movs	r4, #32
 263              		.syntax unified
 264              	@ 546 "/home/selim/working/ChibiOS/os/ext/CMSIS/include/core_cmFunc.h" 1
 265 0004 84F31188 		MSR basepri, r4
 266              	@ 0 "" 2
 267              	.LVL14:
 268              		.thumb
 269              		.syntax unified
 270              	.LBE434:
 271              	.LBE433:
 272              	.LBE432:
 273              	.LBE431:
 274              		.loc 1 141 0
 275 0008 0120     		movs	r0, #1
 276 000a FFF7FEFF 		bl	chSysIntegrityCheckI
 277              	.LVL15:
 278              	.LBB435:
 279              	.LBB436:
 280              	.LBB437:
 281              	.LBB438:
 282              	.LBB439:
 283              		.loc 2 546 0
 284 000e 0023     		movs	r3, #0
 285              		.syntax unified
ARM GAS  /tmp/cc4Naq0S.s 			page 6


 286              	@ 546 "/home/selim/working/ChibiOS/os/ext/CMSIS/include/core_cmFunc.h" 1
 287 0010 83F31188 		MSR basepri, r3
 288              	@ 0 "" 2
 289              	.LVL16:
 290              		.thumb
 291              		.syntax unified
 292              	.LBE439:
 293              	.LBE438:
 294              	.LBE437:
 295              	.LBE436:
 296              	.LBE435:
 297              		.loc 1 143 0
 298 0014 80F00101 		eor	r1, r0, #1
 299 0018 C9B2     		uxtb	r1, r1
 300 001a 0120     		movs	r0, #1
 301              	.LVL17:
 302 001c FFF7FEFF 		bl	_test_assert
 303              	.LVL18:
 304 0020 00B1     		cbz	r0, .L10
 305              	.L4:
 306 0022 38BD     		pop	{r3, r4, r5, pc}
 307              	.L10:
 308              	.LVL19:
 309 0024 0546     		mov	r5, r0
 310              	.LBB440:
 311              	.LBB441:
 312              	.LBB442:
 313              	.LBB443:
 314              		.loc 2 546 0
 315              		.syntax unified
 316              	@ 546 "/home/selim/working/ChibiOS/os/ext/CMSIS/include/core_cmFunc.h" 1
 317 0026 84F31188 		MSR basepri, r4
 318              	@ 0 "" 2
 319              	.LVL20:
 320              		.thumb
 321              		.syntax unified
 322              	.LBE443:
 323              	.LBE442:
 324              	.LBE441:
 325              	.LBE440:
 326              		.loc 1 146 0
 327 002a 0220     		movs	r0, #2
 328 002c FFF7FEFF 		bl	chSysIntegrityCheckI
 329              	.LVL21:
 330              	.LBB444:
 331              	.LBB445:
 332              	.LBB446:
 333              	.LBB447:
 334              	.LBB448:
 335              		.loc 2 546 0
 336              		.syntax unified
 337              	@ 546 "/home/selim/working/ChibiOS/os/ext/CMSIS/include/core_cmFunc.h" 1
 338 0030 85F31188 		MSR basepri, r5
 339              	@ 0 "" 2
 340              	.LVL22:
 341              		.thumb
 342              		.syntax unified
ARM GAS  /tmp/cc4Naq0S.s 			page 7


 343              	.LBE448:
 344              	.LBE447:
 345              	.LBE446:
 346              	.LBE445:
 347              	.LBE444:
 348              		.loc 1 148 0
 349 0034 80F00101 		eor	r1, r0, #1
 350 0038 C9B2     		uxtb	r1, r1
 351 003a 0220     		movs	r0, #2
 352              	.LVL23:
 353 003c FFF7FEFF 		bl	_test_assert
 354              	.LVL24:
 355 0040 0546     		mov	r5, r0
 356 0042 0028     		cmp	r0, #0
 357 0044 EDD1     		bne	.L4
 358              	.LVL25:
 359              	.LBB449:
 360              	.LBB450:
 361              	.LBB451:
 362              	.LBB452:
 363              		.loc 2 546 0
 364              		.syntax unified
 365              	@ 546 "/home/selim/working/ChibiOS/os/ext/CMSIS/include/core_cmFunc.h" 1
 366 0046 84F31188 		MSR basepri, r4
 367              	@ 0 "" 2
 368              	.LVL26:
 369              		.thumb
 370              		.syntax unified
 371              	.LBE452:
 372              	.LBE451:
 373              	.LBE450:
 374              	.LBE449:
 375              		.loc 1 151 0
 376 004a 0420     		movs	r0, #4
 377 004c FFF7FEFF 		bl	chSysIntegrityCheckI
 378              	.LVL27:
 379              	.LBB453:
 380              	.LBB454:
 381              	.LBB455:
 382              	.LBB456:
 383              	.LBB457:
 384              		.loc 2 546 0
 385              		.syntax unified
 386              	@ 546 "/home/selim/working/ChibiOS/os/ext/CMSIS/include/core_cmFunc.h" 1
 387 0050 85F31188 		MSR basepri, r5
 388              	@ 0 "" 2
 389              	.LVL28:
 390              		.thumb
 391              		.syntax unified
 392              	.LBE457:
 393              	.LBE456:
 394              	.LBE455:
 395              	.LBE454:
 396              	.LBE453:
 397              		.loc 1 153 0
 398 0054 80F00101 		eor	r1, r0, #1
 399 0058 C9B2     		uxtb	r1, r1
ARM GAS  /tmp/cc4Naq0S.s 			page 8


 400 005a 0320     		movs	r0, #3
 401              	.LVL29:
 402 005c FFF7FEFF 		bl	_test_assert
 403              	.LVL30:
 404 0060 0546     		mov	r5, r0
 405 0062 0028     		cmp	r0, #0
 406 0064 DDD1     		bne	.L4
 407              	.LVL31:
 408              	.LBB458:
 409              	.LBB459:
 410              	.LBB460:
 411              	.LBB461:
 412              	.LBB462:
 413              	.LBB463:
 414              		.loc 2 546 0
 415              		.syntax unified
 416              	@ 546 "/home/selim/working/ChibiOS/os/ext/CMSIS/include/core_cmFunc.h" 1
 417 0066 84F31188 		MSR basepri, r4
 418              	@ 0 "" 2
 419              	.LVL32:
 420              		.thumb
 421              		.syntax unified
 422              	.LBE463:
 423              	.LBE462:
 424              	.LBE461:
 425              	.LBE460:
 426              		.loc 1 156 0
 427 006a 0820     		movs	r0, #8
 428 006c FFF7FEFF 		bl	chSysIntegrityCheckI
 429              	.LVL33:
 430              	.LBB464:
 431              	.LBB465:
 432              	.LBB466:
 433              	.LBB467:
 434              	.LBB468:
 435              		.loc 2 546 0
 436              		.syntax unified
 437              	@ 546 "/home/selim/working/ChibiOS/os/ext/CMSIS/include/core_cmFunc.h" 1
 438 0070 85F31188 		MSR basepri, r5
 439              	@ 0 "" 2
 440              	.LVL34:
 441              		.thumb
 442              		.syntax unified
 443              	.LBE468:
 444              	.LBE467:
 445              	.LBE466:
 446              	.LBE465:
 447              	.LBE464:
 448              		.loc 1 158 0
 449 0074 80F00101 		eor	r1, r0, #1
 450 0078 C9B2     		uxtb	r1, r1
 451 007a 0420     		movs	r0, #4
 452              	.LVL35:
 453              	.LBE459:
 454              	.LBE458:
 455              		.loc 1 159 0
 456 007c BDE83840 		pop	{r3, r4, r5, lr}
ARM GAS  /tmp/cc4Naq0S.s 			page 9


 457              		.cfi_restore 14
 458              		.cfi_restore 5
 459              		.cfi_restore 4
 460              		.cfi_restore 3
 461              		.cfi_def_cfa_offset 0
 462              	.LBB470:
 463              	.LBB469:
 464              		.loc 1 158 0
 465 0080 FFF7FEBF 		b	_test_assert
 466              	.LVL36:
 467              	.LBE469:
 468              	.LBE470:
 469              		.cfi_endproc
 470              	.LFE230:
 471              		.size	sys3_execute, .-sys3_execute
 472              		.section	.text.sys1_execute,"ax",%progbits
 473              		.align	2
 474              		.p2align 4,,15
 475              		.thumb
 476              		.thumb_func
 477              		.type	sys1_execute, %function
 478              	sys1_execute:
 479              	.LFB228:
 480              		.loc 1 68 0
 481              		.cfi_startproc
 482              		@ args = 0, pretend = 0, frame = 24
 483              		@ frame_needed = 0, uses_anonymous_args = 0
 484 0000 10B5     		push	{r4, lr}
 485              		.cfi_def_cfa_offset 8
 486              		.cfi_offset 4, -8
 487              		.cfi_offset 14, -4
 488 0002 86B0     		sub	sp, sp, #24
 489              		.cfi_def_cfa_offset 32
 490              		.loc 1 73 0
 491 0004 FFF7FEFF 		bl	chSysGetStatusAndLockX
 492              	.LVL37:
 493              		.loc 1 74 0
 494 0008 FFF7FEFF 		bl	chSysRestoreStatusX
 495              	.LVL38:
 496              	.LBB559:
 497              	.LBB560:
 498              	.LBB561:
 499              	.LBB562:
 500              		.loc 2 546 0
 501 000c 2024     		movs	r4, #32
 502              		.syntax unified
 503              	@ 546 "/home/selim/working/ChibiOS/os/ext/CMSIS/include/core_cmFunc.h" 1
 504 000e 84F31188 		MSR basepri, r4
 505              	@ 0 "" 2
 506              	.LVL39:
 507              		.thumb
 508              		.syntax unified
 509              	.LBE562:
 510              	.LBE561:
 511              	.LBE560:
 512              	.LBE559:
 513              		.loc 1 78 0
ARM GAS  /tmp/cc4Naq0S.s 			page 10


 514 0012 FFF7FEFF 		bl	chSysGetStatusAndLockX
 515              	.LVL40:
 516              		.loc 1 79 0
 517 0016 FFF7FEFF 		bl	chSysRestoreStatusX
 518              	.LVL41:
 519              	.LBB563:
 520              	.LBB564:
 521              	.LBB565:
 522              	.LBB566:
 523              	.LBB567:
 524              		.loc 2 546 0
 525 001a 0023     		movs	r3, #0
 526              		.syntax unified
 527              	@ 546 "/home/selim/working/ChibiOS/os/ext/CMSIS/include/core_cmFunc.h" 1
 528 001c 83F31188 		MSR basepri, r3
 529              	@ 0 "" 2
 530              	.LVL42:
 531              		.thumb
 532              		.syntax unified
 533              	.LBE567:
 534              	.LBE566:
 535              	.LBE565:
 536              	.LBE564:
 537              	.LBE563:
 538              	.LBB568:
 539              	.LBB569:
 540              	.LBB570:
 541              	.LBB571:
 542              	.LBB572:
 543              	.LBB573:
 544              		.loc 2 533 0
 545              		.syntax unified
 546              	@ 533 "/home/selim/working/ChibiOS/os/ext/CMSIS/include/core_cmFunc.h" 1
 547 0020 EFF31283 		MRS r3, basepri_max
 548              	@ 0 "" 2
 549              		.thumb
 550              		.syntax unified
 551              	.LBE573:
 552              	.LBE572:
 553              	.LBE571:
 554              	.LBE570:
 555              		.file 3 "/home/selim/working/ChibiOS/os/rt/include/chsys.h"
 556              		.loc 3 422 0
 557 0024 0BB9     		cbnz	r3, .L12
 558              	.LVL43:
 559              	.LBB574:
 560              	.LBB575:
 561              	.LBB576:
 562              	.LBB577:
 563              		.loc 2 546 0
 564              		.syntax unified
 565              	@ 546 "/home/selim/working/ChibiOS/os/ext/CMSIS/include/core_cmFunc.h" 1
 566 0026 84F31188 		MSR basepri, r4
 567              	@ 0 "" 2
 568              	.LVL44:
 569              		.thumb
 570              		.syntax unified
ARM GAS  /tmp/cc4Naq0S.s 			page 11


 571              	.L12:
 572              	.LBE577:
 573              	.LBE576:
 574              	.LBE575:
 575              	.LBE574:
 576              	.LBE569:
 577              	.LBE568:
 578              	.LBB578:
 579              	.LBB579:
 580              	.LBB580:
 581              	.LBB581:
 582              	.LBB582:
 583              	.LBB583:
 584              		.loc 2 533 0
 585              		.syntax unified
 586              	@ 533 "/home/selim/working/ChibiOS/os/ext/CMSIS/include/core_cmFunc.h" 1
 587 002a EFF31283 		MRS r3, basepri_max
 588              	@ 0 "" 2
 589              		.thumb
 590              		.syntax unified
 591              	.LBE583:
 592              	.LBE582:
 593              	.LBE581:
 594              	.LBE580:
 595              		.loc 3 422 0
 596 002e 13B9     		cbnz	r3, .L13
 597              	.LVL45:
 598              	.LBB584:
 599              	.LBB585:
 600              	.LBB586:
 601              	.LBB587:
 602              		.loc 2 546 0
 603 0030 2023     		movs	r3, #32
 604              		.syntax unified
 605              	@ 546 "/home/selim/working/ChibiOS/os/ext/CMSIS/include/core_cmFunc.h" 1
 606 0032 83F31188 		MSR basepri, r3
 607              	@ 0 "" 2
 608              	.LVL46:
 609              		.thumb
 610              		.syntax unified
 611              	.L13:
 612              	.LBE587:
 613              	.LBE586:
 614              	.LBE585:
 615              	.LBE584:
 616              	.LBE579:
 617              	.LBE578:
 618              	.LBB588:
 619              	.LBB589:
 620              	.LBB590:
 621              	.LBB591:
 622              	.LBB592:
 623 0036 0023     		movs	r3, #0
 624              		.syntax unified
 625              	@ 546 "/home/selim/working/ChibiOS/os/ext/CMSIS/include/core_cmFunc.h" 1
 626 0038 83F31188 		MSR basepri, r3
 627              	@ 0 "" 2
ARM GAS  /tmp/cc4Naq0S.s 			page 12


 628              	.LVL47:
 629              		.thumb
 630              		.syntax unified
 631              	.LBE592:
 632              	.LBE591:
 633              	.LBE590:
 634              	.LBE589:
 635              	.LBE588:
 636              	.LBB593:
 637              	.LBB594:
 638              	.LBB595:
 639              	.LBB596:
 640 003c 2022     		movs	r2, #32
 641              		.syntax unified
 642              	@ 546 "/home/selim/working/ChibiOS/os/ext/CMSIS/include/core_cmFunc.h" 1
 643 003e 82F31188 		MSR basepri, r2
 644              	@ 0 "" 2
 645              	.LVL48:
 646              		.thumb
 647              		.syntax unified
 648              	.LBE596:
 649              	.LBE595:
 650              	.LBE594:
 651              	.LBE593:
 652              	.LBB597:
 653              	.LBB598:
 654              	.LBB599:
 655              	.LBB600:
 656              	.LBB601:
 657              	.LBB602:
 658              		.loc 2 533 0
 659              		.syntax unified
 660              	@ 533 "/home/selim/working/ChibiOS/os/ext/CMSIS/include/core_cmFunc.h" 1
 661 0042 EFF31282 		MRS r2, basepri_max
 662              	@ 0 "" 2
 663              		.thumb
 664              		.syntax unified
 665              	.LBE602:
 666              	.LBE601:
 667              	.LBE600:
 668              	.LBE599:
 669              		.loc 3 436 0
 670 0046 0AB1     		cbz	r2, .L14
 671              	.LVL49:
 672              	.LBB603:
 673              	.LBB604:
 674              	.LBB605:
 675              	.LBB606:
 676              	.LBB607:
 677              		.loc 2 546 0
 678              		.syntax unified
 679              	@ 546 "/home/selim/working/ChibiOS/os/ext/CMSIS/include/core_cmFunc.h" 1
 680 0048 83F31188 		MSR basepri, r3
 681              	@ 0 "" 2
 682              	.LVL50:
 683              		.thumb
 684              		.syntax unified
ARM GAS  /tmp/cc4Naq0S.s 			page 13


 685              	.L14:
 686              	.LBE607:
 687              	.LBE606:
 688              	.LBE605:
 689              	.LBE604:
 690              	.LBE603:
 691              	.LBE598:
 692              	.LBE597:
 693              	.LBB608:
 694              	.LBB609:
 695              	.LBB610:
 696              	.LBB611:
 697              	.LBB612:
 698              	.LBB613:
 699              		.loc 2 533 0
 700              		.syntax unified
 701              	@ 533 "/home/selim/working/ChibiOS/os/ext/CMSIS/include/core_cmFunc.h" 1
 702 004c EFF31283 		MRS r3, basepri_max
 703              	@ 0 "" 2
 704              		.thumb
 705              		.syntax unified
 706              	.LBE613:
 707              	.LBE612:
 708              	.LBE611:
 709              	.LBE610:
 710              		.loc 3 436 0
 711 0050 13B1     		cbz	r3, .L15
 712              	.LVL51:
 713              	.LBB614:
 714              	.LBB615:
 715              	.LBB616:
 716              	.LBB617:
 717              	.LBB618:
 718              		.loc 2 546 0
 719 0052 0023     		movs	r3, #0
 720              		.syntax unified
 721              	@ 546 "/home/selim/working/ChibiOS/os/ext/CMSIS/include/core_cmFunc.h" 1
 722 0054 83F31188 		MSR basepri, r3
 723              	@ 0 "" 2
 724              	.LVL52:
 725              		.thumb
 726              		.syntax unified
 727              	.L15:
 728              	.LBE618:
 729              	.LBE617:
 730              	.LBE616:
 731              	.LBE615:
 732              	.LBE614:
 733              	.LBE609:
 734              	.LBE608:
 735              	.LBB619:
 736              	.LBB620:
 737              		.file 4 "/home/selim/working/ChibiOS/os/rt/include/chvt.h"
 738              		.loc 4 212 0
 739 0058 0023     		movs	r3, #0
 740 005a 0493     		str	r3, [sp, #16]
 741              	.LVL53:
ARM GAS  /tmp/cc4Naq0S.s 			page 14


 742              	.LBE620:
 743              	.LBE619:
 744              	.LBB621:
 745              	.LBB622:
 746              	.LBB623:
 747              	.LBB624:
 748              	.LBB625:
 749              		.loc 2 546 0
 750 005c 2023     		movs	r3, #32
 751              		.syntax unified
 752              	@ 546 "/home/selim/working/ChibiOS/os/ext/CMSIS/include/core_cmFunc.h" 1
 753 005e 83F31188 		MSR basepri, r3
 754              	@ 0 "" 2
 755              	.LVL54:
 756              		.thumb
 757              		.syntax unified
 758              	.LBE625:
 759              	.LBE624:
 760              	.LBE623:
 761              	.LBE622:
 762              	.LBB626:
 763              	.LBB627:
 764              	.LBB628:
 765              	.LBB629:
 766              		.loc 4 376 0
 767 0062 049B     		ldr	r3, [sp, #16]
 768              		.loc 4 377 0
 769 0064 01AC     		add	r4, sp, #4
 770              	.LVL55:
 771              		.loc 4 376 0
 772 0066 13B1     		cbz	r3, .L16
 773              		.loc 4 377 0
 774 0068 2046     		mov	r0, r4
 775 006a FFF7FEFF 		bl	chVTDoResetI
 776              	.LVL56:
 777              	.L16:
 778              	.LBE629:
 779              	.LBE628:
 780              		.loc 4 424 0
 781 006e 2046     		mov	r0, r4
 782 0070 0023     		movs	r3, #0
 783 0072 0C4A     		ldr	r2, .L27
 784 0074 0121     		movs	r1, #1
 785 0076 FFF7FEFF 		bl	chVTDoSetI
 786              	.LVL57:
 787              	.LBE627:
 788              	.LBE626:
 789              	.LBB630:
 790              	.LBB631:
 791              	.LBB632:
 792              	.LBB633:
 793              	.LBB634:
 794              		.loc 2 546 0
 795 007a 0024     		movs	r4, #0
 796              	.LVL58:
 797              		.syntax unified
 798              	@ 546 "/home/selim/working/ChibiOS/os/ext/CMSIS/include/core_cmFunc.h" 1
ARM GAS  /tmp/cc4Naq0S.s 			page 15


 799 007c 84F31188 		MSR basepri, r4
 800              	@ 0 "" 2
 801              	.LVL59:
 802              		.thumb
 803              		.syntax unified
 804              	.LBE634:
 805              	.LBE633:
 806              	.LBE632:
 807              	.LBE631:
 808              	.LBE630:
 809              	.LBE621:
 810              		.loc 1 95 0
 811 0080 0A20     		movs	r0, #10
 812 0082 FFF7FEFF 		bl	chThdSleep
 813              	.LVL60:
 814              	.LBB635:
 815              	.LBB636:
 816              	.LBB637:
 817              	.LBB638:
 818              	.LBB639:
 819              	.LBB640:
 820              		.loc 2 546 0
 821 0086 2023     		movs	r3, #32
 822              		.syntax unified
 823              	@ 546 "/home/selim/working/ChibiOS/os/ext/CMSIS/include/core_cmFunc.h" 1
 824 0088 83F31188 		MSR basepri, r3
 825              	@ 0 "" 2
 826              	.LVL61:
 827              		.thumb
 828              		.syntax unified
 829 008c 0499     		ldr	r1, [sp, #16]
 830              	.LVL62:
 831              	.LBE640:
 832              	.LBE639:
 833              	.LBE638:
 834              	.LBE637:
 835              	.LBB641:
 836              	.LBB642:
 837              	.LBB643:
 838              	.LBB644:
 839              	.LBB645:
 840              		.syntax unified
 841              	@ 546 "/home/selim/working/ChibiOS/os/ext/CMSIS/include/core_cmFunc.h" 1
 842 008e 84F31188 		MSR basepri, r4
 843              	@ 0 "" 2
 844              	.LVL63:
 845              		.thumb
 846              		.syntax unified
 847              	.LBE645:
 848              	.LBE644:
 849              	.LBE643:
 850              	.LBE642:
 851              	.LBE641:
 852              	.LBE636:
 853              	.LBE635:
 854              		.loc 1 97 0
 855 0092 B1FA81F1 		clz	r1, r1
ARM GAS  /tmp/cc4Naq0S.s 			page 16


 856 0096 4909     		lsrs	r1, r1, #5
 857 0098 0120     		movs	r0, #1
 858 009a FFF7FEFF 		bl	_test_assert
 859              	.LVL64:
 860              		.loc 1 98 0
 861 009e 06B0     		add	sp, sp, #24
 862              		.cfi_def_cfa_offset 8
 863              		@ sp needed
 864 00a0 10BD     		pop	{r4, pc}
 865              	.LVL65:
 866              	.L28:
 867 00a2 00BF     		.align	2
 868              	.L27:
 869 00a4 00000000 		.word	vtcb
 870              		.cfi_endproc
 871              	.LFE228:
 872              		.size	sys1_execute, .-sys1_execute
 873              		.global	patternsys
 874              		.global	testsys3
 875              		.global	testsys2
 876              		.global	testsys1
 877              		.section	.rodata.testsys1,"a",%progbits
 878              		.align	2
 879              		.type	testsys1, %object
 880              		.size	testsys1, 16
 881              	testsys1:
 882 0000 30000000 		.word	.LC2
 883 0004 00000000 		.word	0
 884 0008 00000000 		.word	0
 885 000c 00000000 		.word	sys1_execute
 886              		.section	.rodata.testsys2,"a",%progbits
 887              		.align	2
 888              		.type	testsys2, %object
 889              		.size	testsys2, 16
 890              	testsys2:
 891 0000 14000000 		.word	.LC1
 892 0004 00000000 		.word	0
 893 0008 00000000 		.word	0
 894 000c 00000000 		.word	sys2_execute
 895              		.section	.rodata.testsys3,"a",%progbits
 896              		.align	2
 897              		.type	testsys3, %object
 898              		.size	testsys3, 16
 899              	testsys3:
 900 0000 00000000 		.word	.LC0
 901 0004 00000000 		.word	0
 902 0008 00000000 		.word	0
 903 000c 00000000 		.word	sys3_execute
 904              		.section	.rodata.str1.4,"aMS",%progbits,1
 905              		.align	2
 906              	.LC0:
 907 0000 53797374 		.ascii	"System, integrity\000"
 907      656D2C20 
 907      696E7465 
 907      67726974 
 907      7900
 908 0012 0000     		.space	2
ARM GAS  /tmp/cc4Naq0S.s 			page 17


 909              	.LC1:
 910 0014 53797374 		.ascii	"System, interrupts handling\000"
 910      656D2C20 
 910      696E7465 
 910      72727570 
 910      74732068 
 911              	.LC2:
 912 0030 53797374 		.ascii	"System, critical zones\000"
 912      656D2C20 
 912      63726974 
 912      6963616C 
 912      207A6F6E 
 913              		.section	.rodata.patternsys,"a",%progbits
 914              		.align	2
 915              		.type	patternsys, %object
 916              		.size	patternsys, 16
 917              	patternsys:
 918 0000 00000000 		.word	testsys1
 919 0004 00000000 		.word	testsys2
 920 0008 00000000 		.word	testsys3
 921 000c 00000000 		.word	0
 922              		.text
 923              	.Letext0:
 924              		.file 5 "/usr/lib/gcc/arm-none-eabi/5.3.1/include/stddef.h"
 925              		.file 6 "/usr/arm-none-eabi/include/machine/_default_types.h"
 926              		.file 7 "/usr/arm-none-eabi/include/sys/_stdint.h"
 927              		.file 8 "/home/selim/working/ChibiOS/os/rt/ports/ARMCMx/compilers/GCC/chtypes.h"
 928              		.file 9 "/home/selim/working/ChibiOS/os/rt/include/chsystypes.h"
 929              		.file 10 "/home/selim/working/ChibiOS/os/rt/include/chschd.h"
 930              		.file 11 "/home/selim/working/ChibiOS/os/rt/ports/ARMCMx/chcore.h"
 931              		.file 12 "/home/selim/working/ChibiOS/os/rt/ports/ARMCMx/chcore_v7m.h"
 932              		.file 13 "/home/selim/working/ChibiOS/os/rt/include/chtm.h"
 933              		.file 14 "/home/selim/working/ChibiOS/os/rt/include/chsem.h"
 934              		.file 15 "/home/selim/working/ChibiOS/os/rt/include/chmtx.h"
 935              		.file 16 "/home/selim/working/ChibiOS/test/rt/test.h"
 936              		.file 17 "/home/selim/working/ChibiOS/os/ext/CMSIS/include/core_cm4.h"
 937              		.file 18 "/home/selim/working/ChibiOS/os/rt/include/chthreads.h"
 938              		.section	.debug_info,"",%progbits
 939              	.Ldebug_info0:
 940 0000 6E150000 		.4byte	0x156e
 941 0004 0400     		.2byte	0x4
 942 0006 00000000 		.4byte	.Ldebug_abbrev0
 943 000a 04       		.byte	0x4
 944 000b 01       		.uleb128 0x1
 945 000c 54040000 		.4byte	.LASF159
 946 0010 0C       		.byte	0xc
 947 0011 25070000 		.4byte	.LASF160
 948 0015 18000000 		.4byte	.Ldebug_ranges0+0x18
 949 0019 00000000 		.4byte	0
 950 001d 00000000 		.4byte	.Ldebug_line0
 951 0021 02       		.uleb128 0x2
 952 0022 04       		.byte	0x4
 953 0023 05       		.byte	0x5
 954 0024 696E7400 		.ascii	"int\000"
 955 0028 03       		.uleb128 0x3
 956 0029 15000000 		.4byte	.LASF4
 957 002d 05       		.byte	0x5
ARM GAS  /tmp/cc4Naq0S.s 			page 18


 958 002e D8       		.byte	0xd8
 959 002f 33000000 		.4byte	0x33
 960 0033 04       		.uleb128 0x4
 961 0034 04       		.byte	0x4
 962 0035 07       		.byte	0x7
 963 0036 E4010000 		.4byte	.LASF0
 964 003a 04       		.uleb128 0x4
 965 003b 08       		.byte	0x8
 966 003c 05       		.byte	0x5
 967 003d E5000000 		.4byte	.LASF1
 968 0041 04       		.uleb128 0x4
 969 0042 08       		.byte	0x8
 970 0043 04       		.byte	0x4
 971 0044 10030000 		.4byte	.LASF2
 972 0048 04       		.uleb128 0x4
 973 0049 01       		.byte	0x1
 974 004a 06       		.byte	0x6
 975 004b F3000000 		.4byte	.LASF3
 976 004f 03       		.uleb128 0x3
 977 0050 36000000 		.4byte	.LASF5
 978 0054 06       		.byte	0x6
 979 0055 1D       		.byte	0x1d
 980 0056 5A000000 		.4byte	0x5a
 981 005a 04       		.uleb128 0x4
 982 005b 01       		.byte	0x1
 983 005c 08       		.byte	0x8
 984 005d 27040000 		.4byte	.LASF6
 985 0061 04       		.uleb128 0x4
 986 0062 02       		.byte	0x2
 987 0063 05       		.byte	0x5
 988 0064 43040000 		.4byte	.LASF7
 989 0068 04       		.uleb128 0x4
 990 0069 02       		.byte	0x2
 991 006a 07       		.byte	0x7
 992 006b 57020000 		.4byte	.LASF8
 993 006f 03       		.uleb128 0x3
 994 0070 AF020000 		.4byte	.LASF9
 995 0074 06       		.byte	0x6
 996 0075 3F       		.byte	0x3f
 997 0076 7A000000 		.4byte	0x7a
 998 007a 04       		.uleb128 0x4
 999 007b 04       		.byte	0x4
 1000 007c 05       		.byte	0x5
 1001 007d 4B010000 		.4byte	.LASF10
 1002 0081 03       		.uleb128 0x3
 1003 0082 77060000 		.4byte	.LASF11
 1004 0086 06       		.byte	0x6
 1005 0087 41       		.byte	0x41
 1006 0088 8C000000 		.4byte	0x8c
 1007 008c 04       		.uleb128 0x4
 1008 008d 04       		.byte	0x4
 1009 008e 07       		.byte	0x7
 1010 008f 1D060000 		.4byte	.LASF12
 1011 0093 03       		.uleb128 0x3
 1012 0094 B6030000 		.4byte	.LASF13
 1013 0098 06       		.byte	0x6
 1014 0099 5B       		.byte	0x5b
ARM GAS  /tmp/cc4Naq0S.s 			page 19


 1015 009a 9E000000 		.4byte	0x9e
 1016 009e 04       		.uleb128 0x4
 1017 009f 08       		.byte	0x8
 1018 00a0 07       		.byte	0x7
 1019 00a1 65000000 		.4byte	.LASF14
 1020 00a5 03       		.uleb128 0x3
 1021 00a6 1D070000 		.4byte	.LASF15
 1022 00aa 07       		.byte	0x7
 1023 00ab 14       		.byte	0x14
 1024 00ac 4F000000 		.4byte	0x4f
 1025 00b0 03       		.uleb128 0x3
 1026 00b1 1F040000 		.4byte	.LASF16
 1027 00b5 07       		.byte	0x7
 1028 00b6 1F       		.byte	0x1f
 1029 00b7 6F000000 		.4byte	0x6f
 1030 00bb 03       		.uleb128 0x3
 1031 00bc CA050000 		.4byte	.LASF17
 1032 00c0 07       		.byte	0x7
 1033 00c1 20       		.byte	0x20
 1034 00c2 81000000 		.4byte	0x81
 1035 00c6 03       		.uleb128 0x3
 1036 00c7 21000000 		.4byte	.LASF18
 1037 00cb 07       		.byte	0x7
 1038 00cc 26       		.byte	0x26
 1039 00cd 93000000 		.4byte	0x93
 1040 00d1 05       		.uleb128 0x5
 1041 00d2 B0000000 		.4byte	0xb0
 1042 00d6 03       		.uleb128 0x3
 1043 00d7 C2060000 		.4byte	.LASF19
 1044 00db 08       		.byte	0x8
 1045 00dc 46       		.byte	0x46
 1046 00dd BB000000 		.4byte	0xbb
 1047 00e1 03       		.uleb128 0x3
 1048 00e2 9F010000 		.4byte	.LASF20
 1049 00e6 08       		.byte	0x8
 1050 00e7 48       		.byte	0x48
 1051 00e8 BB000000 		.4byte	0xbb
 1052 00ec 03       		.uleb128 0x3
 1053 00ed 9C070000 		.4byte	.LASF21
 1054 00f1 08       		.byte	0x8
 1055 00f2 49       		.byte	0x49
 1056 00f3 A5000000 		.4byte	0xa5
 1057 00f7 03       		.uleb128 0x3
 1058 00f8 61010000 		.4byte	.LASF22
 1059 00fc 08       		.byte	0x8
 1060 00fd 4A       		.byte	0x4a
 1061 00fe A5000000 		.4byte	0xa5
 1062 0102 03       		.uleb128 0x3
 1063 0103 00000000 		.4byte	.LASF23
 1064 0107 08       		.byte	0x8
 1065 0108 4B       		.byte	0x4b
 1066 0109 A5000000 		.4byte	0xa5
 1067 010d 03       		.uleb128 0x3
 1068 010e EE030000 		.4byte	.LASF24
 1069 0112 08       		.byte	0x8
 1070 0113 4D       		.byte	0x4d
 1071 0114 BB000000 		.4byte	0xbb
ARM GAS  /tmp/cc4Naq0S.s 			page 20


 1072 0118 03       		.uleb128 0x3
 1073 0119 74020000 		.4byte	.LASF25
 1074 011d 08       		.byte	0x8
 1075 011e 4E       		.byte	0x4e
 1076 011f B0000000 		.4byte	0xb0
 1077 0123 03       		.uleb128 0x3
 1078 0124 2A000000 		.4byte	.LASF26
 1079 0128 08       		.byte	0x8
 1080 0129 50       		.byte	0x50
 1081 012a BB000000 		.4byte	0xbb
 1082 012e 03       		.uleb128 0x3
 1083 012f DE010000 		.4byte	.LASF27
 1084 0133 08       		.byte	0x8
 1085 0134 52       		.byte	0x52
 1086 0135 B0000000 		.4byte	0xb0
 1087 0139 03       		.uleb128 0x3
 1088 013a 59060000 		.4byte	.LASF28
 1089 013e 09       		.byte	0x9
 1090 013f 33       		.byte	0x33
 1091 0140 BB000000 		.4byte	0xbb
 1092 0144 03       		.uleb128 0x3
 1093 0145 49060000 		.4byte	.LASF29
 1094 0149 09       		.byte	0x9
 1095 014a 3F       		.byte	0x3f
 1096 014b 4F010000 		.4byte	0x14f
 1097 014f 06       		.uleb128 0x6
 1098 0150 6A020000 		.4byte	.LASF49
 1099 0154 44       		.byte	0x44
 1100 0155 0A       		.byte	0xa
 1101 0156 C2       		.byte	0xc2
 1102 0157 3C020000 		.4byte	0x23c
 1103 015b 07       		.uleb128 0x7
 1104 015c 35050000 		.4byte	.LASF30
 1105 0160 0A       		.byte	0xa
 1106 0161 C3       		.byte	0xc3
 1107 0162 47020000 		.4byte	0x247
 1108 0166 00       		.byte	0
 1109 0167 07       		.uleb128 0x7
 1110 0168 DF030000 		.4byte	.LASF31
 1111 016c 0A       		.byte	0xa
 1112 016d C5       		.byte	0xc5
 1113 016e 47020000 		.4byte	0x247
 1114 0172 04       		.byte	0x4
 1115 0173 07       		.uleb128 0x7
 1116 0174 D1000000 		.4byte	.LASF32
 1117 0178 0A       		.byte	0xa
 1118 0179 C7       		.byte	0xc7
 1119 017a 0D010000 		.4byte	0x10d
 1120 017e 08       		.byte	0x8
 1121 017f 07       		.uleb128 0x7
 1122 0180 D2070000 		.4byte	.LASF33
 1123 0184 0A       		.byte	0xa
 1124 0185 C8       		.byte	0xc8
 1125 0186 77040000 		.4byte	0x477
 1126 018a 0C       		.byte	0xc
 1127 018b 07       		.uleb128 0x7
 1128 018c 8F010000 		.4byte	.LASF34
ARM GAS  /tmp/cc4Naq0S.s 			page 21


 1129 0190 0A       		.byte	0xa
 1130 0191 CA       		.byte	0xca
 1131 0192 47020000 		.4byte	0x247
 1132 0196 10       		.byte	0x10
 1133 0197 07       		.uleb128 0x7
 1134 0198 4C030000 		.4byte	.LASF35
 1135 019c 0A       		.byte	0xa
 1136 019d CB       		.byte	0xcb
 1137 019e 47020000 		.4byte	0x247
 1138 01a2 14       		.byte	0x14
 1139 01a3 07       		.uleb128 0x7
 1140 01a4 64070000 		.4byte	.LASF36
 1141 01a8 0A       		.byte	0xa
 1142 01a9 D2       		.byte	0xd2
 1143 01aa F6050000 		.4byte	0x5f6
 1144 01ae 18       		.byte	0x18
 1145 01af 07       		.uleb128 0x7
 1146 01b0 3B040000 		.4byte	.LASF37
 1147 01b4 0A       		.byte	0xa
 1148 01b5 DD       		.byte	0xdd
 1149 01b6 F7000000 		.4byte	0xf7
 1150 01ba 1C       		.byte	0x1c
 1151 01bb 07       		.uleb128 0x7
 1152 01bc 53050000 		.4byte	.LASF38
 1153 01c0 0A       		.byte	0xa
 1154 01c1 E1       		.byte	0xe1
 1155 01c2 EC000000 		.4byte	0xec
 1156 01c6 1D       		.byte	0x1d
 1157 01c7 07       		.uleb128 0x7
 1158 01c8 04070000 		.4byte	.LASF39
 1159 01cc 0A       		.byte	0xa
 1160 01cd E6       		.byte	0xe6
 1161 01ce 02010000 		.4byte	0x102
 1162 01d2 1E       		.byte	0x1e
 1163 01d3 08       		.uleb128 0x8
 1164 01d4 705F7500 		.ascii	"p_u\000"
 1165 01d8 0A       		.byte	0xa
 1166 01d9 3101     		.2byte	0x131
 1167 01db 31050000 		.4byte	0x531
 1168 01df 20       		.byte	0x20
 1169 01e0 09       		.uleb128 0x9
 1170 01e1 D3020000 		.4byte	.LASF40
 1171 01e5 0A       		.byte	0xa
 1172 01e6 3601     		.2byte	0x136
 1173 01e8 4D020000 		.4byte	0x24d
 1174 01ec 24       		.byte	0x24
 1175 01ed 09       		.uleb128 0x9
 1176 01ee 09020000 		.4byte	.LASF41
 1177 01f2 0A       		.byte	0xa
 1178 01f3 3C01     		.2byte	0x13c
 1179 01f5 71020000 		.4byte	0x271
 1180 01f9 28       		.byte	0x28
 1181 01fa 09       		.uleb128 0x9
 1182 01fb B0070000 		.4byte	.LASF42
 1183 01ff 0A       		.byte	0xa
 1184 0200 4001     		.2byte	0x140
 1185 0202 18010000 		.4byte	0x118
ARM GAS  /tmp/cc4Naq0S.s 			page 22


 1186 0206 30       		.byte	0x30
 1187 0207 09       		.uleb128 0x9
 1188 0208 B4050000 		.4byte	.LASF43
 1189 020c 0A       		.byte	0xa
 1190 020d 4601     		.2byte	0x146
 1191 020f 23010000 		.4byte	0x123
 1192 0213 34       		.byte	0x34
 1193 0214 09       		.uleb128 0x9
 1194 0215 8E020000 		.4byte	.LASF44
 1195 0219 0A       		.byte	0xa
 1196 021a 4D01     		.2byte	0x14d
 1197 021c F0050000 		.4byte	0x5f0
 1198 0220 38       		.byte	0x38
 1199 0221 09       		.uleb128 0x9
 1200 0222 63060000 		.4byte	.LASF45
 1201 0226 0A       		.byte	0xa
 1202 0227 5101     		.2byte	0x151
 1203 0229 0D010000 		.4byte	0x10d
 1204 022d 3C       		.byte	0x3c
 1205 022e 09       		.uleb128 0x9
 1206 022f FF000000 		.4byte	.LASF46
 1207 0233 0A       		.byte	0xa
 1208 0234 5801     		.2byte	0x158
 1209 0236 24030000 		.4byte	0x324
 1210 023a 40       		.byte	0x40
 1211 023b 00       		.byte	0
 1212 023c 03       		.uleb128 0x3
 1213 023d E6020000 		.4byte	.LASF47
 1214 0241 09       		.byte	0x9
 1215 0242 44       		.byte	0x44
 1216 0243 47020000 		.4byte	0x247
 1217 0247 0A       		.uleb128 0xa
 1218 0248 04       		.byte	0x4
 1219 0249 44010000 		.4byte	0x144
 1220 024d 03       		.uleb128 0x3
 1221 024e 78070000 		.4byte	.LASF48
 1222 0252 09       		.byte	0x9
 1223 0253 49       		.byte	0x49
 1224 0254 58020000 		.4byte	0x258
 1225 0258 06       		.uleb128 0x6
 1226 0259 F6050000 		.4byte	.LASF50
 1227 025d 04       		.byte	0x4
 1228 025e 0A       		.byte	0xa
 1229 025f B0       		.byte	0xb0
 1230 0260 71020000 		.4byte	0x271
 1231 0264 07       		.uleb128 0x7
 1232 0265 35050000 		.4byte	.LASF30
 1233 0269 0A       		.byte	0xa
 1234 026a B1       		.byte	0xb1
 1235 026b 47020000 		.4byte	0x247
 1236 026f 00       		.byte	0
 1237 0270 00       		.byte	0
 1238 0271 03       		.uleb128 0x3
 1239 0272 EB060000 		.4byte	.LASF51
 1240 0276 09       		.byte	0x9
 1241 0277 50       		.byte	0x50
 1242 0278 7C020000 		.4byte	0x27c
ARM GAS  /tmp/cc4Naq0S.s 			page 23


 1243 027c 06       		.uleb128 0x6
 1244 027d C0000000 		.4byte	.LASF52
 1245 0281 08       		.byte	0x8
 1246 0282 0A       		.byte	0xa
 1247 0283 B7       		.byte	0xb7
 1248 0284 A1020000 		.4byte	0x2a1
 1249 0288 07       		.uleb128 0x7
 1250 0289 35050000 		.4byte	.LASF30
 1251 028d 0A       		.byte	0xa
 1252 028e B8       		.byte	0xb8
 1253 028f 47020000 		.4byte	0x247
 1254 0293 00       		.byte	0
 1255 0294 07       		.uleb128 0x7
 1256 0295 DF030000 		.4byte	.LASF31
 1257 0299 0A       		.byte	0xa
 1258 029a B9       		.byte	0xb9
 1259 029b 47020000 		.4byte	0x247
 1260 029f 04       		.byte	0x4
 1261 02a0 00       		.byte	0
 1262 02a1 03       		.uleb128 0x3
 1263 02a2 08000000 		.4byte	.LASF53
 1264 02a6 09       		.byte	0x9
 1265 02a7 57       		.byte	0x57
 1266 02a8 AC020000 		.4byte	0x2ac
 1267 02ac 0B       		.uleb128 0xb
 1268 02ad 31020000 		.4byte	.LASF54
 1269 02b1 1C       		.byte	0x1c
 1270 02b2 0A       		.byte	0xa
 1271 02b3 9001     		.2byte	0x190
 1272 02b5 08030000 		.4byte	0x308
 1273 02b9 09       		.uleb128 0x9
 1274 02ba DA050000 		.4byte	.LASF55
 1275 02be 0A       		.byte	0xa
 1276 02bf 9101     		.2byte	0x191
 1277 02c1 71020000 		.4byte	0x271
 1278 02c5 00       		.byte	0
 1279 02c6 09       		.uleb128 0x9
 1280 02c7 4D040000 		.4byte	.LASF56
 1281 02cb 0A       		.byte	0xa
 1282 02cc 9201     		.2byte	0x192
 1283 02ce 0D010000 		.4byte	0x10d
 1284 02d2 08       		.byte	0x8
 1285 02d3 09       		.uleb128 0x9
 1286 02d4 54030000 		.4byte	.LASF57
 1287 02d8 0A       		.byte	0xa
 1288 02d9 9401     		.2byte	0x194
 1289 02db 77040000 		.4byte	0x477
 1290 02df 0C       		.byte	0xc
 1291 02e0 09       		.uleb128 0x9
 1292 02e1 A8010000 		.4byte	.LASF58
 1293 02e5 0A       		.byte	0xa
 1294 02e6 9701     		.2byte	0x197
 1295 02e8 47020000 		.4byte	0x247
 1296 02ec 10       		.byte	0x10
 1297 02ed 09       		.uleb128 0x9
 1298 02ee A1030000 		.4byte	.LASF59
 1299 02f2 0A       		.byte	0xa
ARM GAS  /tmp/cc4Naq0S.s 			page 24


 1300 02f3 9801     		.2byte	0x198
 1301 02f5 47020000 		.4byte	0x247
 1302 02f9 14       		.byte	0x14
 1303 02fa 09       		.uleb128 0x9
 1304 02fb 97030000 		.4byte	.LASF60
 1305 02ff 0A       		.byte	0xa
 1306 0300 9B01     		.2byte	0x19b
 1307 0302 47020000 		.4byte	0x247
 1308 0306 18       		.byte	0x18
 1309 0307 00       		.byte	0
 1310 0308 03       		.uleb128 0x3
 1311 0309 6E060000 		.4byte	.LASF61
 1312 030d 09       		.byte	0x9
 1313 030e 5C       		.byte	0x5c
 1314 030f 13030000 		.4byte	0x313
 1315 0313 0A       		.uleb128 0xa
 1316 0314 04       		.byte	0x4
 1317 0315 19030000 		.4byte	0x319
 1318 0319 0C       		.uleb128 0xc
 1319 031a 24030000 		.4byte	0x324
 1320 031e 0D       		.uleb128 0xd
 1321 031f 24030000 		.4byte	0x324
 1322 0323 00       		.byte	0
 1323 0324 0E       		.uleb128 0xe
 1324 0325 04       		.byte	0x4
 1325 0326 03       		.uleb128 0x3
 1326 0327 CF030000 		.4byte	.LASF62
 1327 032b 09       		.byte	0x9
 1328 032c 61       		.byte	0x61
 1329 032d 31030000 		.4byte	0x331
 1330 0331 0B       		.uleb128 0xb
 1331 0332 82050000 		.4byte	.LASF63
 1332 0336 14       		.byte	0x14
 1333 0337 0A       		.byte	0xa
 1334 0338 6B01     		.2byte	0x16b
 1335 033a 80030000 		.4byte	0x380
 1336 033e 09       		.uleb128 0x9
 1337 033f F1010000 		.4byte	.LASF64
 1338 0343 0A       		.byte	0xa
 1339 0344 6C01     		.2byte	0x16c
 1340 0346 08060000 		.4byte	0x608
 1341 034a 00       		.byte	0
 1342 034b 09       		.uleb128 0x9
 1343 034c B9010000 		.4byte	.LASF65
 1344 0350 0A       		.byte	0xa
 1345 0351 6D01     		.2byte	0x16d
 1346 0353 08060000 		.4byte	0x608
 1347 0357 04       		.byte	0x4
 1348 0358 09       		.uleb128 0x9
 1349 0359 00020000 		.4byte	.LASF66
 1350 035d 0A       		.byte	0xa
 1351 035e 6E01     		.2byte	0x16e
 1352 0360 39010000 		.4byte	0x139
 1353 0364 08       		.byte	0x8
 1354 0365 09       		.uleb128 0x9
 1355 0366 D8070000 		.4byte	.LASF67
 1356 036a 0A       		.byte	0xa
ARM GAS  /tmp/cc4Naq0S.s 			page 25


 1357 036b 6F01     		.2byte	0x16f
 1358 036d 08030000 		.4byte	0x308
 1359 0371 0C       		.byte	0xc
 1360 0372 09       		.uleb128 0x9
 1361 0373 DD060000 		.4byte	.LASF68
 1362 0377 0A       		.byte	0xa
 1363 0378 7101     		.2byte	0x171
 1364 037a 24030000 		.4byte	0x324
 1365 037e 10       		.byte	0x10
 1366 037f 00       		.byte	0
 1367 0380 03       		.uleb128 0x3
 1368 0381 9D000000 		.4byte	.LASF69
 1369 0385 09       		.byte	0x9
 1370 0386 66       		.byte	0x66
 1371 0387 8B030000 		.4byte	0x38b
 1372 038b 0B       		.uleb128 0xb
 1373 038c F9020000 		.4byte	.LASF70
 1374 0390 10       		.byte	0x10
 1375 0391 0A       		.byte	0xa
 1376 0392 7B01     		.2byte	0x17b
 1377 0394 CD030000 		.4byte	0x3cd
 1378 0398 09       		.uleb128 0x9
 1379 0399 F1010000 		.4byte	.LASF64
 1380 039d 0A       		.byte	0xa
 1381 039e 7C01     		.2byte	0x17c
 1382 03a0 08060000 		.4byte	0x608
 1383 03a4 00       		.byte	0
 1384 03a5 09       		.uleb128 0x9
 1385 03a6 B9010000 		.4byte	.LASF65
 1386 03aa 0A       		.byte	0xa
 1387 03ab 7E01     		.2byte	0x17e
 1388 03ad 08060000 		.4byte	0x608
 1389 03b1 04       		.byte	0x4
 1390 03b2 09       		.uleb128 0x9
 1391 03b3 00020000 		.4byte	.LASF66
 1392 03b7 0A       		.byte	0xa
 1393 03b8 8001     		.2byte	0x180
 1394 03ba 39010000 		.4byte	0x139
 1395 03be 08       		.byte	0x8
 1396 03bf 09       		.uleb128 0x9
 1397 03c0 37030000 		.4byte	.LASF71
 1398 03c4 0A       		.byte	0xa
 1399 03c5 8801     		.2byte	0x188
 1400 03c7 39010000 		.4byte	0x139
 1401 03cb 0C       		.byte	0xc
 1402 03cc 00       		.byte	0
 1403 03cd 03       		.uleb128 0x3
 1404 03ce 4C000000 		.4byte	.LASF72
 1405 03d2 09       		.byte	0x9
 1406 03d3 6B       		.byte	0x6b
 1407 03d4 D8030000 		.4byte	0x3d8
 1408 03d8 0B       		.uleb128 0xb
 1409 03d9 09040000 		.4byte	.LASF73
 1410 03dd 04       		.byte	0x4
 1411 03de 0A       		.byte	0xa
 1412 03df A201     		.2byte	0x1a2
 1413 03e1 F3030000 		.4byte	0x3f3
ARM GAS  /tmp/cc4Naq0S.s 			page 26


 1414 03e5 09       		.uleb128 0x9
 1415 03e6 90060000 		.4byte	.LASF74
 1416 03ea 0A       		.byte	0xa
 1417 03eb AA01     		.2byte	0x1aa
 1418 03ed 0E060000 		.4byte	0x60e
 1419 03f1 00       		.byte	0
 1420 03f2 00       		.byte	0
 1421 03f3 03       		.uleb128 0x3
 1422 03f4 A9060000 		.4byte	.LASF75
 1423 03f8 09       		.byte	0x9
 1424 03f9 70       		.byte	0x70
 1425 03fa FE030000 		.4byte	0x3fe
 1426 03fe 0F       		.uleb128 0xf
 1427 03ff 41010000 		.4byte	.LASF76
 1428 0403 5001     		.2byte	0x150
 1429 0405 0A       		.byte	0xa
 1430 0406 C201     		.2byte	0x1c2
 1431 0408 5A040000 		.4byte	0x45a
 1432 040c 09       		.uleb128 0x9
 1433 040d 0B070000 		.4byte	.LASF77
 1434 0411 0A       		.byte	0xa
 1435 0412 C601     		.2byte	0x1c6
 1436 0414 A1020000 		.4byte	0x2a1
 1437 0418 00       		.byte	0
 1438 0419 09       		.uleb128 0x9
 1439 041a 28010000 		.4byte	.LASF78
 1440 041e 0A       		.byte	0xa
 1441 041f CA01     		.2byte	0x1ca
 1442 0421 80030000 		.4byte	0x380
 1443 0425 1C       		.byte	0x1c
 1444 0426 08       		.uleb128 0x8
 1445 0427 64626700 		.ascii	"dbg\000"
 1446 042b 0A       		.byte	0xa
 1447 042c CE01     		.2byte	0x1ce
 1448 042e CD030000 		.4byte	0x3cd
 1449 0432 2C       		.byte	0x2c
 1450 0433 09       		.uleb128 0x9
 1451 0434 92000000 		.4byte	.LASF79
 1452 0438 0A       		.byte	0xa
 1453 0439 D201     		.2byte	0x1d2
 1454 043b 44010000 		.4byte	0x144
 1455 043f 30       		.byte	0x30
 1456 0440 08       		.uleb128 0x8
 1457 0441 746D00   		.ascii	"tm\000"
 1458 0444 0A       		.byte	0xa
 1459 0445 D701     		.2byte	0x1d7
 1460 0447 26050000 		.4byte	0x526
 1461 044b 74       		.byte	0x74
 1462 044c 09       		.uleb128 0x9
 1463 044d CF010000 		.4byte	.LASF80
 1464 0451 0A       		.byte	0xa
 1465 0452 E301     		.2byte	0x1e3
 1466 0454 13060000 		.4byte	0x613
 1467 0458 78       		.byte	0x78
 1468 0459 00       		.byte	0
 1469 045a 04       		.uleb128 0x4
 1470 045b 04       		.byte	0x4
ARM GAS  /tmp/cc4Naq0S.s 			page 27


 1471 045c 07       		.byte	0x7
 1472 045d DD020000 		.4byte	.LASF81
 1473 0461 03       		.uleb128 0x3
 1474 0462 B0010000 		.4byte	.LASF82
 1475 0466 0B       		.byte	0xb
 1476 0467 65       		.byte	0x65
 1477 0468 24030000 		.4byte	0x324
 1478 046c 03       		.uleb128 0x3
 1479 046d C8020000 		.4byte	.LASF83
 1480 0471 0B       		.byte	0xb
 1481 0472 6D       		.byte	0x6d
 1482 0473 C6000000 		.4byte	0xc6
 1483 0477 06       		.uleb128 0x6
 1484 0478 A1060000 		.4byte	.LASF84
 1485 047c 04       		.byte	0x4
 1486 047d 0B       		.byte	0xb
 1487 047e 89       		.byte	0x89
 1488 047f 90040000 		.4byte	0x490
 1489 0483 10       		.uleb128 0x10
 1490 0484 72313300 		.ascii	"r13\000"
 1491 0488 0B       		.byte	0xb
 1492 0489 8A       		.byte	0x8a
 1493 048a 0B050000 		.4byte	0x50b
 1494 048e 00       		.byte	0
 1495 048f 00       		.byte	0
 1496 0490 06       		.uleb128 0x6
 1497 0491 40000000 		.4byte	.LASF85
 1498 0495 24       		.byte	0x24
 1499 0496 0C       		.byte	0xc
 1500 0497 F4       		.byte	0xf4
 1501 0498 0B050000 		.4byte	0x50b
 1502 049c 08       		.uleb128 0x8
 1503 049d 723400   		.ascii	"r4\000"
 1504 04a0 0C       		.byte	0xc
 1505 04a1 0701     		.2byte	0x107
 1506 04a3 61040000 		.4byte	0x461
 1507 04a7 00       		.byte	0
 1508 04a8 08       		.uleb128 0x8
 1509 04a9 723500   		.ascii	"r5\000"
 1510 04ac 0C       		.byte	0xc
 1511 04ad 0801     		.2byte	0x108
 1512 04af 61040000 		.4byte	0x461
 1513 04b3 04       		.byte	0x4
 1514 04b4 08       		.uleb128 0x8
 1515 04b5 723600   		.ascii	"r6\000"
 1516 04b8 0C       		.byte	0xc
 1517 04b9 0901     		.2byte	0x109
 1518 04bb 61040000 		.4byte	0x461
 1519 04bf 08       		.byte	0x8
 1520 04c0 08       		.uleb128 0x8
 1521 04c1 723700   		.ascii	"r7\000"
 1522 04c4 0C       		.byte	0xc
 1523 04c5 0A01     		.2byte	0x10a
 1524 04c7 61040000 		.4byte	0x461
 1525 04cb 0C       		.byte	0xc
 1526 04cc 08       		.uleb128 0x8
 1527 04cd 723800   		.ascii	"r8\000"
ARM GAS  /tmp/cc4Naq0S.s 			page 28


 1528 04d0 0C       		.byte	0xc
 1529 04d1 0B01     		.2byte	0x10b
 1530 04d3 61040000 		.4byte	0x461
 1531 04d7 10       		.byte	0x10
 1532 04d8 08       		.uleb128 0x8
 1533 04d9 723900   		.ascii	"r9\000"
 1534 04dc 0C       		.byte	0xc
 1535 04dd 0C01     		.2byte	0x10c
 1536 04df 61040000 		.4byte	0x461
 1537 04e3 14       		.byte	0x14
 1538 04e4 08       		.uleb128 0x8
 1539 04e5 72313000 		.ascii	"r10\000"
 1540 04e9 0C       		.byte	0xc
 1541 04ea 0D01     		.2byte	0x10d
 1542 04ec 61040000 		.4byte	0x461
 1543 04f0 18       		.byte	0x18
 1544 04f1 08       		.uleb128 0x8
 1545 04f2 72313100 		.ascii	"r11\000"
 1546 04f6 0C       		.byte	0xc
 1547 04f7 0E01     		.2byte	0x10e
 1548 04f9 61040000 		.4byte	0x461
 1549 04fd 1C       		.byte	0x1c
 1550 04fe 08       		.uleb128 0x8
 1551 04ff 6C7200   		.ascii	"lr\000"
 1552 0502 0C       		.byte	0xc
 1553 0503 0F01     		.2byte	0x10f
 1554 0505 61040000 		.4byte	0x461
 1555 0509 20       		.byte	0x20
 1556 050a 00       		.byte	0
 1557 050b 0A       		.uleb128 0xa
 1558 050c 04       		.byte	0x4
 1559 050d 90040000 		.4byte	0x490
 1560 0511 11       		.uleb128 0x11
 1561 0512 04       		.byte	0x4
 1562 0513 0D       		.byte	0xd
 1563 0514 38       		.byte	0x38
 1564 0515 26050000 		.4byte	0x526
 1565 0519 07       		.uleb128 0x7
 1566 051a 9A060000 		.4byte	.LASF86
 1567 051e 0D       		.byte	0xd
 1568 051f 3C       		.byte	0x3c
 1569 0520 D6000000 		.4byte	0xd6
 1570 0524 00       		.byte	0
 1571 0525 00       		.byte	0
 1572 0526 03       		.uleb128 0x3
 1573 0527 80030000 		.4byte	.LASF87
 1574 052b 0D       		.byte	0xd
 1575 052c 3D       		.byte	0x3d
 1576 052d 11050000 		.4byte	0x511
 1577 0531 12       		.uleb128 0x12
 1578 0532 04       		.byte	0x4
 1579 0533 0A       		.byte	0xa
 1580 0534 FA       		.byte	0xfa
 1581 0535 8E050000 		.4byte	0x58e
 1582 0539 13       		.uleb128 0x13
 1583 053a 7B050000 		.4byte	.LASF88
 1584 053e 0A       		.byte	0xa
ARM GAS  /tmp/cc4Naq0S.s 			page 29


 1585 053f 0101     		.2byte	0x101
 1586 0541 18010000 		.4byte	0x118
 1587 0545 13       		.uleb128 0x13
 1588 0546 89000000 		.4byte	.LASF89
 1589 054a 0A       		.byte	0xa
 1590 054b 0801     		.2byte	0x108
 1591 054d 18010000 		.4byte	0x118
 1592 0551 13       		.uleb128 0x13
 1593 0552 87020000 		.4byte	.LASF90
 1594 0556 0A       		.byte	0xa
 1595 0557 0F01     		.2byte	0x10f
 1596 0559 24030000 		.4byte	0x324
 1597 055d 13       		.uleb128 0x13
 1598 055e 3B010000 		.4byte	.LASF91
 1599 0562 0A       		.byte	0xa
 1600 0563 1601     		.2byte	0x116
 1601 0565 8E050000 		.4byte	0x58e
 1602 0569 13       		.uleb128 0x13
 1603 056a F9010000 		.4byte	.LASF92
 1604 056e 0A       		.byte	0xa
 1605 056f 1E01     		.2byte	0x11e
 1606 0571 B9050000 		.4byte	0x5b9
 1607 0575 13       		.uleb128 0x13
 1608 0576 D3050000 		.4byte	.LASF93
 1609 057a 0A       		.byte	0xa
 1610 057b 2701     		.2byte	0x127
 1611 057d F0050000 		.4byte	0x5f0
 1612 0581 13       		.uleb128 0x13
 1613 0582 2E050000 		.4byte	.LASF94
 1614 0586 0A       		.byte	0xa
 1615 0587 2F01     		.2byte	0x12f
 1616 0589 23010000 		.4byte	0x123
 1617 058d 00       		.byte	0
 1618 058e 0A       		.uleb128 0xa
 1619 058f 04       		.byte	0x4
 1620 0590 3C020000 		.4byte	0x23c
 1621 0594 06       		.uleb128 0x6
 1622 0595 A7050000 		.4byte	.LASF95
 1623 0599 0C       		.byte	0xc
 1624 059a 0E       		.byte	0xe
 1625 059b 34       		.byte	0x34
 1626 059c B9050000 		.4byte	0x5b9
 1627 05a0 07       		.uleb128 0x7
 1628 05a1 97010000 		.4byte	.LASF96
 1629 05a5 0E       		.byte	0xe
 1630 05a6 35       		.byte	0x35
 1631 05a7 71020000 		.4byte	0x271
 1632 05ab 00       		.byte	0
 1633 05ac 07       		.uleb128 0x7
 1634 05ad 51020000 		.4byte	.LASF97
 1635 05b1 0E       		.byte	0xe
 1636 05b2 37       		.byte	0x37
 1637 05b3 2E010000 		.4byte	0x12e
 1638 05b7 08       		.byte	0x8
 1639 05b8 00       		.byte	0
 1640 05b9 0A       		.uleb128 0xa
 1641 05ba 04       		.byte	0x4
ARM GAS  /tmp/cc4Naq0S.s 			page 30


 1642 05bb 94050000 		.4byte	0x594
 1643 05bf 06       		.uleb128 0x6
 1644 05c0 FB060000 		.4byte	.LASF98
 1645 05c4 10       		.byte	0x10
 1646 05c5 0F       		.byte	0xf
 1647 05c6 39       		.byte	0x39
 1648 05c7 F0050000 		.4byte	0x5f0
 1649 05cb 07       		.uleb128 0x7
 1650 05cc 07010000 		.4byte	.LASF99
 1651 05d0 0F       		.byte	0xf
 1652 05d1 3A       		.byte	0x3a
 1653 05d2 71020000 		.4byte	0x271
 1654 05d6 00       		.byte	0
 1655 05d7 07       		.uleb128 0x7
 1656 05d8 B6070000 		.4byte	.LASF100
 1657 05dc 0F       		.byte	0xf
 1658 05dd 3C       		.byte	0x3c
 1659 05de 47020000 		.4byte	0x247
 1660 05e2 08       		.byte	0x8
 1661 05e3 07       		.uleb128 0x7
 1662 05e4 52060000 		.4byte	.LASF101
 1663 05e8 0F       		.byte	0xf
 1664 05e9 3E       		.byte	0x3e
 1665 05ea 2E060000 		.4byte	0x62e
 1666 05ee 0C       		.byte	0xc
 1667 05ef 00       		.byte	0
 1668 05f0 0A       		.uleb128 0xa
 1669 05f1 04       		.byte	0x4
 1670 05f2 BF050000 		.4byte	0x5bf
 1671 05f6 0A       		.uleb128 0xa
 1672 05f7 04       		.byte	0x4
 1673 05f8 03060000 		.4byte	0x603
 1674 05fc 04       		.uleb128 0x4
 1675 05fd 01       		.byte	0x1
 1676 05fe 08       		.byte	0x8
 1677 05ff 2F060000 		.4byte	.LASF102
 1678 0603 14       		.uleb128 0x14
 1679 0604 FC050000 		.4byte	0x5fc
 1680 0608 0A       		.uleb128 0xa
 1681 0609 04       		.byte	0x4
 1682 060a 26030000 		.4byte	0x326
 1683 060e 05       		.uleb128 0x5
 1684 060f F6050000 		.4byte	0x5f6
 1685 0613 15       		.uleb128 0x15
 1686 0614 6C040000 		.4byte	0x46c
 1687 0618 23060000 		.4byte	0x623
 1688 061c 16       		.uleb128 0x16
 1689 061d 5A040000 		.4byte	0x45a
 1690 0621 1A       		.byte	0x1a
 1691 0622 00       		.byte	0
 1692 0623 03       		.uleb128 0x3
 1693 0624 C1010000 		.4byte	.LASF103
 1694 0628 0F       		.byte	0xf
 1695 0629 34       		.byte	0x34
 1696 062a BF050000 		.4byte	0x5bf
 1697 062e 0A       		.uleb128 0xa
 1698 062f 04       		.byte	0x4
ARM GAS  /tmp/cc4Naq0S.s 			page 31


 1699 0630 23060000 		.4byte	0x623
 1700 0634 06       		.uleb128 0x6
 1701 0635 9E050000 		.4byte	.LASF104
 1702 0639 10       		.byte	0x10
 1703 063a 10       		.byte	0x10
 1704 063b 3B       		.byte	0x3b
 1705 063c 71060000 		.4byte	0x671
 1706 0640 07       		.uleb128 0x7
 1707 0641 3F020000 		.4byte	.LASF105
 1708 0645 10       		.byte	0x10
 1709 0646 3C       		.byte	0x3c
 1710 0647 F6050000 		.4byte	0x5f6
 1711 064b 00       		.byte	0
 1712 064c 07       		.uleb128 0x7
 1713 064d 91030000 		.4byte	.LASF106
 1714 0651 10       		.byte	0x10
 1715 0652 3D       		.byte	0x3d
 1716 0653 72060000 		.4byte	0x672
 1717 0657 04       		.byte	0x4
 1718 0658 07       		.uleb128 0x7
 1719 0659 28020000 		.4byte	.LASF107
 1720 065d 10       		.byte	0x10
 1721 065e 3E       		.byte	0x3e
 1722 065f 72060000 		.4byte	0x672
 1723 0663 08       		.byte	0x8
 1724 0664 07       		.uleb128 0x7
 1725 0665 E6030000 		.4byte	.LASF108
 1726 0669 10       		.byte	0x10
 1727 066a 3F       		.byte	0x3f
 1728 066b 72060000 		.4byte	0x672
 1729 066f 0C       		.byte	0xc
 1730 0670 00       		.byte	0
 1731 0671 17       		.uleb128 0x17
 1732 0672 0A       		.uleb128 0xa
 1733 0673 04       		.byte	0x4
 1734 0674 71060000 		.4byte	0x671
 1735 0678 18       		.uleb128 0x18
 1736 0679 6A010000 		.4byte	.LASF118
 1737 067d 02       		.byte	0x2
 1738 067e 1102     		.2byte	0x211
 1739 0680 BB000000 		.4byte	0xbb
 1740 0684 03       		.byte	0x3
 1741 0685 96060000 		.4byte	0x696
 1742 0689 19       		.uleb128 0x19
 1743 068a BE070000 		.4byte	.LASF123
 1744 068e 02       		.byte	0x2
 1745 068f 1302     		.2byte	0x213
 1746 0691 BB000000 		.4byte	0xbb
 1747 0695 00       		.byte	0
 1748 0696 1A       		.uleb128 0x1a
 1749 0697 82060000 		.4byte	.LASF125
 1750 069b 02       		.byte	0x2
 1751 069c 2002     		.2byte	0x220
 1752 069e 03       		.byte	0x3
 1753 069f B0060000 		.4byte	0x6b0
 1754 06a3 1B       		.uleb128 0x1b
 1755 06a4 C9010000 		.4byte	.LASF120
ARM GAS  /tmp/cc4Naq0S.s 			page 32


 1756 06a8 02       		.byte	0x2
 1757 06a9 2002     		.2byte	0x220
 1758 06ab BB000000 		.4byte	0xbb
 1759 06af 00       		.byte	0
 1760 06b0 1C       		.uleb128 0x1c
 1761 06b1 5B000000 		.4byte	.LASF109
 1762 06b5 0C       		.byte	0xc
 1763 06b6 BC01     		.2byte	0x1bc
 1764 06b8 03       		.byte	0x3
 1765 06b9 1C       		.uleb128 0x1c
 1766 06ba 2F010000 		.4byte	.LASF110
 1767 06be 0C       		.byte	0xc
 1768 06bf CA01     		.2byte	0x1ca
 1769 06c1 03       		.byte	0x3
 1770 06c2 1C       		.uleb128 0x1c
 1771 06c3 C1030000 		.4byte	.LASF111
 1772 06c7 02       		.byte	0x2
 1773 06c8 5401     		.2byte	0x154
 1774 06ca 03       		.byte	0x3
 1775 06cb 1C       		.uleb128 0x1c
 1776 06cc A9030000 		.4byte	.LASF112
 1777 06d0 02       		.byte	0x2
 1778 06d1 4901     		.2byte	0x149
 1779 06d3 03       		.byte	0x3
 1780 06d4 1C       		.uleb128 0x1c
 1781 06d5 54010000 		.4byte	.LASF113
 1782 06d9 0C       		.byte	0xc
 1783 06da EE01     		.2byte	0x1ee
 1784 06dc 03       		.byte	0x3
 1785 06dd 1C       		.uleb128 0x1c
 1786 06de 7A020000 		.4byte	.LASF114
 1787 06e2 0C       		.byte	0xc
 1788 06e3 F801     		.2byte	0x1f8
 1789 06e5 03       		.byte	0x3
 1790 06e6 1C       		.uleb128 0x1c
 1791 06e7 A3020000 		.4byte	.LASF115
 1792 06eb 0C       		.byte	0xc
 1793 06ec 0602     		.2byte	0x206
 1794 06ee 03       		.byte	0x3
 1795 06ef 1C       		.uleb128 0x1c
 1796 06f0 CA060000 		.4byte	.LASF116
 1797 06f4 0C       		.byte	0xc
 1798 06f5 D901     		.2byte	0x1d9
 1799 06f7 03       		.byte	0x3
 1800 06f8 1C       		.uleb128 0x1c
 1801 06f9 34060000 		.4byte	.LASF117
 1802 06fd 0C       		.byte	0xc
 1803 06fe E401     		.2byte	0x1e4
 1804 0700 03       		.byte	0x3
 1805 0701 18       		.uleb128 0x18
 1806 0702 5A030000 		.4byte	.LASF119
 1807 0706 0C       		.byte	0xc
 1808 0707 A201     		.2byte	0x1a2
 1809 0709 1F070000 		.4byte	0x71f
 1810 070d 03       		.byte	0x3
 1811 070e 1F070000 		.4byte	0x71f
 1812 0712 1D       		.uleb128 0x1d
ARM GAS  /tmp/cc4Naq0S.s 			page 33


 1813 0713 73747300 		.ascii	"sts\000"
 1814 0717 0C       		.byte	0xc
 1815 0718 A201     		.2byte	0x1a2
 1816 071a E1000000 		.4byte	0xe1
 1817 071e 00       		.byte	0
 1818 071f 04       		.uleb128 0x4
 1819 0720 01       		.byte	0x1
 1820 0721 02       		.byte	0x2
 1821 0722 19040000 		.4byte	.LASF121
 1822 0726 18       		.uleb128 0x18
 1823 0727 14020000 		.4byte	.LASF122
 1824 072b 0C       		.byte	0xc
 1825 072c 8E01     		.2byte	0x18e
 1826 072e E1000000 		.4byte	0xe1
 1827 0732 03       		.byte	0x3
 1828 0733 44070000 		.4byte	0x744
 1829 0737 1E       		.uleb128 0x1e
 1830 0738 73747300 		.ascii	"sts\000"
 1831 073c 0C       		.byte	0xc
 1832 073d 8F01     		.2byte	0x18f
 1833 073f E1000000 		.4byte	0xe1
 1834 0743 00       		.byte	0
 1835 0744 1C       		.uleb128 0x1c
 1836 0745 64050000 		.4byte	.LASF124
 1837 0749 03       		.byte	0x3
 1838 074a 5A01     		.2byte	0x15a
 1839 074c 03       		.byte	0x3
 1840 074d 1A       		.uleb128 0x1a
 1841 074e A4070000 		.4byte	.LASF126
 1842 0752 03       		.byte	0x3
 1843 0753 6601     		.2byte	0x166
 1844 0755 03       		.byte	0x3
 1845 0756 68070000 		.4byte	0x768
 1846 075a 1F       		.uleb128 0x1f
 1847 075b 5B050000 		.4byte	.LASF127
 1848 075f 78070000 		.4byte	0x778
 1849 0763 A4070000 		.4byte	.LASF126
 1850 0767 00       		.byte	0
 1851 0768 15       		.uleb128 0x15
 1852 0769 03060000 		.4byte	0x603
 1853 076d 78070000 		.4byte	0x778
 1854 0771 16       		.uleb128 0x16
 1855 0772 5A040000 		.4byte	0x45a
 1856 0776 0B       		.byte	0xb
 1857 0777 00       		.byte	0
 1858 0778 14       		.uleb128 0x14
 1859 0779 68070000 		.4byte	0x768
 1860 077d 20       		.uleb128 0x20
 1861 077e B9020000 		.4byte	.LASF128
 1862 0782 04       		.byte	0x4
 1863 0783 D2       		.byte	0xd2
 1864 0784 03       		.byte	0x3
 1865 0785 95070000 		.4byte	0x795
 1866 0789 21       		.uleb128 0x21
 1867 078a 76747000 		.ascii	"vtp\000"
 1868 078e 04       		.byte	0x4
 1869 078f D2       		.byte	0xd2
ARM GAS  /tmp/cc4Naq0S.s 			page 34


 1870 0790 08060000 		.4byte	0x608
 1871 0794 00       		.byte	0
 1872 0795 18       		.uleb128 0x18
 1873 0796 6E050000 		.4byte	.LASF129
 1874 079a 04       		.byte	0x4
 1875 079b 5101     		.2byte	0x151
 1876 079d 1F070000 		.4byte	0x71f
 1877 07a1 03       		.byte	0x3
 1878 07a2 B3070000 		.4byte	0x7b3
 1879 07a6 1D       		.uleb128 0x1d
 1880 07a7 76747000 		.ascii	"vtp\000"
 1881 07ab 04       		.byte	0x4
 1882 07ac 5101     		.2byte	0x151
 1883 07ae 08060000 		.4byte	0x608
 1884 07b2 00       		.byte	0
 1885 07b3 1C       		.uleb128 0x1c
 1886 07b4 78010000 		.4byte	.LASF130
 1887 07b8 03       		.byte	0x3
 1888 07b9 4F01     		.2byte	0x14f
 1889 07bb 03       		.byte	0x3
 1890 07bc 1C       		.uleb128 0x1c
 1891 07bd 73030000 		.4byte	.LASF131
 1892 07c1 03       		.byte	0x3
 1893 07c2 4001     		.2byte	0x140
 1894 07c4 03       		.byte	0x3
 1895 07c5 1C       		.uleb128 0x1c
 1896 07c6 44020000 		.4byte	.LASF132
 1897 07ca 03       		.byte	0x3
 1898 07cb 2F01     		.2byte	0x12f
 1899 07cd 03       		.byte	0x3
 1900 07ce 1C       		.uleb128 0x1c
 1901 07cf F6030000 		.4byte	.LASF133
 1902 07d3 03       		.byte	0x3
 1903 07d4 9601     		.2byte	0x196
 1904 07d6 03       		.byte	0x3
 1905 07d7 1C       		.uleb128 0x1c
 1906 07d8 53070000 		.4byte	.LASF134
 1907 07dc 03       		.byte	0x3
 1908 07dd 8201     		.2byte	0x182
 1909 07df 03       		.byte	0x3
 1910 07e0 1A       		.uleb128 0x1a
 1911 07e1 93050000 		.4byte	.LASF135
 1912 07e5 04       		.byte	0x4
 1913 07e6 7601     		.2byte	0x176
 1914 07e8 03       		.byte	0x3
 1915 07e9 FA070000 		.4byte	0x7fa
 1916 07ed 1D       		.uleb128 0x1d
 1917 07ee 76747000 		.ascii	"vtp\000"
 1918 07f2 04       		.byte	0x4
 1919 07f3 7601     		.2byte	0x176
 1920 07f5 08060000 		.4byte	0x608
 1921 07f9 00       		.byte	0
 1922 07fa 18       		.uleb128 0x18
 1923 07fb 11070000 		.4byte	.LASF136
 1924 07ff 04       		.byte	0x4
 1925 0800 6201     		.2byte	0x162
 1926 0802 1F070000 		.4byte	0x71f
ARM GAS  /tmp/cc4Naq0S.s 			page 35


 1927 0806 03       		.byte	0x3
 1928 0807 22080000 		.4byte	0x822
 1929 080b 1D       		.uleb128 0x1d
 1930 080c 76747000 		.ascii	"vtp\000"
 1931 0810 04       		.byte	0x4
 1932 0811 6201     		.2byte	0x162
 1933 0813 08060000 		.4byte	0x608
 1934 0817 1E       		.uleb128 0x1e
 1935 0818 6200     		.ascii	"b\000"
 1936 081a 04       		.byte	0x4
 1937 081b 6301     		.2byte	0x163
 1938 081d 1F070000 		.4byte	0x71f
 1939 0821 00       		.byte	0
 1940 0822 1A       		.uleb128 0x1a
 1941 0823 6B030000 		.4byte	.LASF137
 1942 0827 04       		.byte	0x4
 1943 0828 C101     		.2byte	0x1c1
 1944 082a 03       		.byte	0x3
 1945 082b 60080000 		.4byte	0x860
 1946 082f 1D       		.uleb128 0x1d
 1947 0830 76747000 		.ascii	"vtp\000"
 1948 0834 04       		.byte	0x4
 1949 0835 C101     		.2byte	0x1c1
 1950 0837 08060000 		.4byte	0x608
 1951 083b 1B       		.uleb128 0x1b
 1952 083c 35040000 		.4byte	.LASF138
 1953 0840 04       		.byte	0x4
 1954 0841 C101     		.2byte	0x1c1
 1955 0843 39010000 		.4byte	0x139
 1956 0847 1B       		.uleb128 0x1b
 1957 0848 E4060000 		.4byte	.LASF139
 1958 084c 04       		.byte	0x4
 1959 084d C201     		.2byte	0x1c2
 1960 084f 08030000 		.4byte	0x308
 1961 0853 1D       		.uleb128 0x1d
 1962 0854 70617200 		.ascii	"par\000"
 1963 0858 04       		.byte	0x4
 1964 0859 C201     		.2byte	0x1c2
 1965 085b 24030000 		.4byte	0x324
 1966 085f 00       		.byte	0
 1967 0860 1C       		.uleb128 0x1c
 1968 0861 0F010000 		.4byte	.LASF140
 1969 0865 03       		.byte	0x3
 1970 0866 B201     		.2byte	0x1b2
 1971 0868 03       		.byte	0x3
 1972 0869 1C       		.uleb128 0x1c
 1973 086a 3C050000 		.4byte	.LASF141
 1974 086e 03       		.byte	0x3
 1975 086f A401     		.2byte	0x1a4
 1976 0871 03       		.byte	0x3
 1977 0872 20       		.uleb128 0x20
 1978 0873 D8000000 		.4byte	.LASF142
 1979 0877 01       		.byte	0x1
 1980 0878 89       		.byte	0x89
 1981 0879 01       		.byte	0x1
 1982 087a 8A080000 		.4byte	0x88a
 1983 087e 22       		.uleb128 0x22
ARM GAS  /tmp/cc4Naq0S.s 			page 36


 1984 087f BE070000 		.4byte	.LASF123
 1985 0883 01       		.byte	0x1
 1986 0884 8A       		.byte	0x8a
 1987 0885 1F070000 		.4byte	0x71f
 1988 0889 00       		.byte	0
 1989 088a 1A       		.uleb128 0x1a
 1990 088b 43030000 		.4byte	.LASF143
 1991 088f 04       		.byte	0x4
 1992 0890 A401     		.2byte	0x1a4
 1993 0892 03       		.byte	0x3
 1994 0893 C8080000 		.4byte	0x8c8
 1995 0897 1D       		.uleb128 0x1d
 1996 0898 76747000 		.ascii	"vtp\000"
 1997 089c 04       		.byte	0x4
 1998 089d A401     		.2byte	0x1a4
 1999 089f 08060000 		.4byte	0x608
 2000 08a3 1B       		.uleb128 0x1b
 2001 08a4 35040000 		.4byte	.LASF138
 2002 08a8 04       		.byte	0x4
 2003 08a9 A401     		.2byte	0x1a4
 2004 08ab 39010000 		.4byte	0x139
 2005 08af 1B       		.uleb128 0x1b
 2006 08b0 E4060000 		.4byte	.LASF139
 2007 08b4 04       		.byte	0x4
 2008 08b5 A501     		.2byte	0x1a5
 2009 08b7 08030000 		.4byte	0x308
 2010 08bb 1D       		.uleb128 0x1d
 2011 08bc 70617200 		.ascii	"par\000"
 2012 08c0 04       		.byte	0x4
 2013 08c1 A501     		.2byte	0x1a5
 2014 08c3 24030000 		.4byte	0x324
 2015 08c7 00       		.byte	0
 2016 08c8 23       		.uleb128 0x23
 2017 08c9 C5070000 		.4byte	.LASF144
 2018 08cd 01       		.byte	0x1
 2019 08ce 72       		.byte	0x72
 2020 08cf 00000000 		.4byte	.LFB229
 2021 08d3 1A000000 		.4byte	.LFE229-.LFB229
 2022 08d7 01       		.uleb128 0x1
 2023 08d8 9C       		.byte	0x9c
 2024 08d9 080A0000 		.4byte	0xa08
 2025 08dd 24       		.uleb128 0x24
 2026 08de BC070000 		.4byte	0x7bc
 2027 08e2 00000000 		.4byte	.LBB324
 2028 08e6 08000000 		.4byte	.LBE324-.LBB324
 2029 08ea 01       		.byte	0x1
 2030 08eb 74       		.byte	0x74
 2031 08ec 30090000 		.4byte	0x930
 2032 08f0 25       		.uleb128 0x25
 2033 08f1 DD060000 		.4byte	0x6dd
 2034 08f5 00000000 		.4byte	.LBB325
 2035 08f9 08000000 		.4byte	.LBE325-.LBB325
 2036 08fd 03       		.byte	0x3
 2037 08fe 4201     		.2byte	0x142
 2038 0900 26       		.uleb128 0x26
 2039 0901 96060000 		.4byte	0x696
 2040 0905 00000000 		.4byte	.LBB326
ARM GAS  /tmp/cc4Naq0S.s 			page 37


 2041 0909 06000000 		.4byte	.LBE326-.LBB326
 2042 090d 0C       		.byte	0xc
 2043 090e FB01     		.2byte	0x1fb
 2044 0910 1E090000 		.4byte	0x91e
 2045 0914 27       		.uleb128 0x27
 2046 0915 A3060000 		.4byte	0x6a3
 2047 0919 00000000 		.4byte	.LLST0
 2048 091d 00       		.byte	0
 2049 091e 28       		.uleb128 0x28
 2050 091f CB060000 		.4byte	0x6cb
 2051 0923 06000000 		.4byte	.LBB328
 2052 0927 02000000 		.4byte	.LBE328-.LBB328
 2053 092b 0C       		.byte	0xc
 2054 092c FC01     		.2byte	0x1fc
 2055 092e 00       		.byte	0
 2056 092f 00       		.byte	0
 2057 0930 24       		.uleb128 0x24
 2058 0931 C5070000 		.4byte	0x7c5
 2059 0935 08000000 		.4byte	.LBB330
 2060 0939 02000000 		.4byte	.LBE330-.LBB330
 2061 093d 01       		.byte	0x1
 2062 093e 75       		.byte	0x75
 2063 093f 65090000 		.4byte	0x965
 2064 0943 25       		.uleb128 0x25
 2065 0944 D4060000 		.4byte	0x6d4
 2066 0948 08000000 		.4byte	.LBB331
 2067 094c 02000000 		.4byte	.LBE331-.LBB331
 2068 0950 03       		.byte	0x3
 2069 0951 3101     		.2byte	0x131
 2070 0953 28       		.uleb128 0x28
 2071 0954 C2060000 		.4byte	0x6c2
 2072 0958 08000000 		.4byte	.LBB332
 2073 095c 02000000 		.4byte	.LBE332-.LBB332
 2074 0960 0C       		.byte	0xc
 2075 0961 F001     		.2byte	0x1f0
 2076 0963 00       		.byte	0
 2077 0964 00       		.byte	0
 2078 0965 24       		.uleb128 0x24
 2079 0966 BC070000 		.4byte	0x7bc
 2080 096a 0A000000 		.4byte	.LBB334
 2081 096e 06000000 		.4byte	.LBE334-.LBB334
 2082 0972 01       		.byte	0x1
 2083 0973 76       		.byte	0x76
 2084 0974 B8090000 		.4byte	0x9b8
 2085 0978 25       		.uleb128 0x25
 2086 0979 DD060000 		.4byte	0x6dd
 2087 097d 0A000000 		.4byte	.LBB335
 2088 0981 06000000 		.4byte	.LBE335-.LBB335
 2089 0985 03       		.byte	0x3
 2090 0986 4201     		.2byte	0x142
 2091 0988 26       		.uleb128 0x26
 2092 0989 96060000 		.4byte	0x696
 2093 098d 0A000000 		.4byte	.LBB336
 2094 0991 04000000 		.4byte	.LBE336-.LBB336
 2095 0995 0C       		.byte	0xc
 2096 0996 FB01     		.2byte	0x1fb
 2097 0998 A6090000 		.4byte	0x9a6
ARM GAS  /tmp/cc4Naq0S.s 			page 38


 2098 099c 27       		.uleb128 0x27
 2099 099d A3060000 		.4byte	0x6a3
 2100 09a1 15000000 		.4byte	.LLST1
 2101 09a5 00       		.byte	0
 2102 09a6 28       		.uleb128 0x28
 2103 09a7 CB060000 		.4byte	0x6cb
 2104 09ab 0E000000 		.4byte	.LBB338
 2105 09af 02000000 		.4byte	.LBE338-.LBB338
 2106 09b3 0C       		.byte	0xc
 2107 09b4 FC01     		.2byte	0x1fc
 2108 09b6 00       		.byte	0
 2109 09b7 00       		.byte	0
 2110 09b8 29       		.uleb128 0x29
 2111 09b9 B3070000 		.4byte	0x7b3
 2112 09bd 10000000 		.4byte	.LBB340
 2113 09c1 0A000000 		.4byte	.LBE340-.LBB340
 2114 09c5 01       		.byte	0x1
 2115 09c6 77       		.byte	0x77
 2116 09c7 25       		.uleb128 0x25
 2117 09c8 E6060000 		.4byte	0x6e6
 2118 09cc 10000000 		.4byte	.LBB341
 2119 09d0 0A000000 		.4byte	.LBE341-.LBB341
 2120 09d4 03       		.byte	0x3
 2121 09d5 5201     		.2byte	0x152
 2122 09d7 26       		.uleb128 0x26
 2123 09d8 96060000 		.4byte	0x696
 2124 09dc 10000000 		.4byte	.LBB342
 2125 09e0 06000000 		.4byte	.LBE342-.LBB342
 2126 09e4 0C       		.byte	0xc
 2127 09e5 0902     		.2byte	0x209
 2128 09e7 F5090000 		.4byte	0x9f5
 2129 09eb 27       		.uleb128 0x27
 2130 09ec A3060000 		.4byte	0x6a3
 2131 09f0 2A000000 		.4byte	.LLST2
 2132 09f4 00       		.byte	0
 2133 09f5 28       		.uleb128 0x28
 2134 09f6 CB060000 		.4byte	0x6cb
 2135 09fa 16000000 		.4byte	.LBB344
 2136 09fe 04000000 		.4byte	.LBE344-.LBB344
 2137 0a02 0C       		.byte	0xc
 2138 0a03 0B02     		.2byte	0x20b
 2139 0a05 00       		.byte	0
 2140 0a06 00       		.byte	0
 2141 0a07 00       		.byte	0
 2142 0a08 23       		.uleb128 0x23
 2143 0a09 1C000000 		.4byte	.LASF145
 2144 0a0d 01       		.byte	0x1
 2145 0a0e 34       		.byte	0x34
 2146 0a0f 00000000 		.4byte	.LFB227
 2147 0a13 20000000 		.4byte	.LFE227-.LFB227
 2148 0a17 01       		.uleb128 0x1
 2149 0a18 9C       		.byte	0x9c
 2150 0a19 8C0B0000 		.4byte	0xb8c
 2151 0a1d 2A       		.uleb128 0x2a
 2152 0a1e 7000     		.ascii	"p\000"
 2153 0a20 01       		.byte	0x1
 2154 0a21 34       		.byte	0x34
ARM GAS  /tmp/cc4Naq0S.s 			page 39


 2155 0a22 24030000 		.4byte	0x324
 2156 0a26 3E000000 		.4byte	.LLST3
 2157 0a2a 2B       		.uleb128 0x2b
 2158 0a2b 73747300 		.ascii	"sts\000"
 2159 0a2f 01       		.byte	0x1
 2160 0a30 35       		.byte	0x35
 2161 0a31 E1000000 		.4byte	0xe1
 2162 0a35 5F000000 		.4byte	.LLST4
 2163 0a39 24       		.uleb128 0x24
 2164 0a3a D7070000 		.4byte	0x7d7
 2165 0a3e 02000000 		.4byte	.LBB346
 2166 0a42 06000000 		.4byte	.LBE346-.LBB346
 2167 0a46 01       		.byte	0x1
 2168 0a47 3A       		.byte	0x3a
 2169 0a48 890A0000 		.4byte	0xa89
 2170 0a4c 25       		.uleb128 0x25
 2171 0a4d EF060000 		.4byte	0x6ef
 2172 0a51 02000000 		.4byte	.LBB347
 2173 0a55 06000000 		.4byte	.LBE347-.LBB347
 2174 0a59 03       		.byte	0x3
 2175 0a5a 8401     		.2byte	0x184
 2176 0a5c 25       		.uleb128 0x25
 2177 0a5d B0060000 		.4byte	0x6b0
 2178 0a61 02000000 		.4byte	.LBB348
 2179 0a65 06000000 		.4byte	.LBE348-.LBB348
 2180 0a69 0C       		.byte	0xc
 2181 0a6a DB01     		.2byte	0x1db
 2182 0a6c 25       		.uleb128 0x25
 2183 0a6d 96060000 		.4byte	0x696
 2184 0a71 02000000 		.4byte	.LBB349
 2185 0a75 06000000 		.4byte	.LBE349-.LBB349
 2186 0a79 0C       		.byte	0xc
 2187 0a7a BF01     		.2byte	0x1bf
 2188 0a7c 27       		.uleb128 0x27
 2189 0a7d A3060000 		.4byte	0x6a3
 2190 0a81 72000000 		.4byte	.LLST5
 2191 0a85 00       		.byte	0
 2192 0a86 00       		.byte	0
 2193 0a87 00       		.byte	0
 2194 0a88 00       		.byte	0
 2195 0a89 24       		.uleb128 0x24
 2196 0a8a CE070000 		.4byte	0x7ce
 2197 0a8e 08000000 		.4byte	.LBB351
 2198 0a92 06000000 		.4byte	.LBE351-.LBB351
 2199 0a96 01       		.byte	0x1
 2200 0a97 3B       		.byte	0x3b
 2201 0a98 D90A0000 		.4byte	0xad9
 2202 0a9c 25       		.uleb128 0x25
 2203 0a9d F8060000 		.4byte	0x6f8
 2204 0aa1 08000000 		.4byte	.LBB352
 2205 0aa5 06000000 		.4byte	.LBE352-.LBB352
 2206 0aa9 03       		.byte	0x3
 2207 0aaa 9A01     		.2byte	0x19a
 2208 0aac 25       		.uleb128 0x25
 2209 0aad B9060000 		.4byte	0x6b9
 2210 0ab1 08000000 		.4byte	.LBB353
 2211 0ab5 06000000 		.4byte	.LBE353-.LBB353
ARM GAS  /tmp/cc4Naq0S.s 			page 40


 2212 0ab9 0C       		.byte	0xc
 2213 0aba E601     		.2byte	0x1e6
 2214 0abc 25       		.uleb128 0x25
 2215 0abd 96060000 		.4byte	0x696
 2216 0ac1 08000000 		.4byte	.LBB354
 2217 0ac5 06000000 		.4byte	.LBE354-.LBB354
 2218 0ac9 0C       		.byte	0xc
 2219 0aca CD01     		.2byte	0x1cd
 2220 0acc 27       		.uleb128 0x27
 2221 0acd A3060000 		.4byte	0x6a3
 2222 0ad1 87000000 		.4byte	.LLST6
 2223 0ad5 00       		.byte	0
 2224 0ad6 00       		.byte	0
 2225 0ad7 00       		.byte	0
 2226 0ad8 00       		.byte	0
 2227 0ad9 24       		.uleb128 0x24
 2228 0ada D7070000 		.4byte	0x7d7
 2229 0ade 0E000000 		.4byte	.LBB356
 2230 0ae2 04000000 		.4byte	.LBE356-.LBB356
 2231 0ae6 01       		.byte	0x1
 2232 0ae7 3E       		.byte	0x3e
 2233 0ae8 290B0000 		.4byte	0xb29
 2234 0aec 25       		.uleb128 0x25
 2235 0aed EF060000 		.4byte	0x6ef
 2236 0af1 0E000000 		.4byte	.LBB357
 2237 0af5 04000000 		.4byte	.LBE357-.LBB357
 2238 0af9 03       		.byte	0x3
 2239 0afa 8401     		.2byte	0x184
 2240 0afc 25       		.uleb128 0x25
 2241 0afd B0060000 		.4byte	0x6b0
 2242 0b01 0E000000 		.4byte	.LBB358
 2243 0b05 04000000 		.4byte	.LBE358-.LBB358
 2244 0b09 0C       		.byte	0xc
 2245 0b0a DB01     		.2byte	0x1db
 2246 0b0c 25       		.uleb128 0x25
 2247 0b0d 96060000 		.4byte	0x696
 2248 0b11 0E000000 		.4byte	.LBB359
 2249 0b15 04000000 		.4byte	.LBE359-.LBB359
 2250 0b19 0C       		.byte	0xc
 2251 0b1a BF01     		.2byte	0x1bf
 2252 0b1c 27       		.uleb128 0x27
 2253 0b1d A3060000 		.4byte	0x6a3
 2254 0b21 9B000000 		.4byte	.LLST7
 2255 0b25 00       		.byte	0
 2256 0b26 00       		.byte	0
 2257 0b27 00       		.byte	0
 2258 0b28 00       		.byte	0
 2259 0b29 24       		.uleb128 0x24
 2260 0b2a CE070000 		.4byte	0x7ce
 2261 0b2e 1A000000 		.4byte	.LBB361
 2262 0b32 06000000 		.4byte	.LBE361-.LBB361
 2263 0b36 01       		.byte	0x1
 2264 0b37 41       		.byte	0x41
 2265 0b38 790B0000 		.4byte	0xb79
 2266 0b3c 25       		.uleb128 0x25
 2267 0b3d F8060000 		.4byte	0x6f8
 2268 0b41 1A000000 		.4byte	.LBB362
ARM GAS  /tmp/cc4Naq0S.s 			page 41


 2269 0b45 06000000 		.4byte	.LBE362-.LBB362
 2270 0b49 03       		.byte	0x3
 2271 0b4a 9A01     		.2byte	0x19a
 2272 0b4c 25       		.uleb128 0x25
 2273 0b4d B9060000 		.4byte	0x6b9
 2274 0b51 1A000000 		.4byte	.LBB363
 2275 0b55 06000000 		.4byte	.LBE363-.LBB363
 2276 0b59 0C       		.byte	0xc
 2277 0b5a E601     		.2byte	0x1e6
 2278 0b5c 25       		.uleb128 0x25
 2279 0b5d 96060000 		.4byte	0x696
 2280 0b61 1A000000 		.4byte	.LBB364
 2281 0b65 06000000 		.4byte	.LBE364-.LBB364
 2282 0b69 0C       		.byte	0xc
 2283 0b6a CD01     		.2byte	0x1cd
 2284 0b6c 27       		.uleb128 0x27
 2285 0b6d A3060000 		.4byte	0x6a3
 2286 0b71 B0000000 		.4byte	.LLST8
 2287 0b75 00       		.byte	0
 2288 0b76 00       		.byte	0
 2289 0b77 00       		.byte	0
 2290 0b78 00       		.byte	0
 2291 0b79 2C       		.uleb128 0x2c
 2292 0b7a 16000000 		.4byte	.LVL10
 2293 0b7e 21150000 		.4byte	0x1521
 2294 0b82 2C       		.uleb128 0x2c
 2295 0b83 1A000000 		.4byte	.LVL11
 2296 0b87 2D150000 		.4byte	0x152d
 2297 0b8b 00       		.byte	0
 2298 0b8c 2D       		.uleb128 0x2d
 2299 0b8d 72080000 		.4byte	0x872
 2300 0b91 00000000 		.4byte	.LFB230
 2301 0b95 84000000 		.4byte	.LFE230-.LFB230
 2302 0b99 01       		.uleb128 0x1
 2303 0b9a 9C       		.byte	0x9c
 2304 0b9b 800E0000 		.4byte	0xe80
 2305 0b9f 2E       		.uleb128 0x2e
 2306 0ba0 7E080000 		.4byte	0x87e
 2307 0ba4 C4000000 		.4byte	.LLST9
 2308 0ba8 24       		.uleb128 0x24
 2309 0ba9 44070000 		.4byte	0x744
 2310 0bad 02000000 		.4byte	.LBB431
 2311 0bb1 06000000 		.4byte	.LBE431-.LBB431
 2312 0bb5 01       		.byte	0x1
 2313 0bb6 8C       		.byte	0x8c
 2314 0bb7 E70B0000 		.4byte	0xbe7
 2315 0bbb 25       		.uleb128 0x25
 2316 0bbc B0060000 		.4byte	0x6b0
 2317 0bc0 02000000 		.4byte	.LBB432
 2318 0bc4 06000000 		.4byte	.LBE432-.LBB432
 2319 0bc8 03       		.byte	0x3
 2320 0bc9 5C01     		.2byte	0x15c
 2321 0bcb 25       		.uleb128 0x25
 2322 0bcc 96060000 		.4byte	0x696
 2323 0bd0 02000000 		.4byte	.LBB433
 2324 0bd4 06000000 		.4byte	.LBE433-.LBB433
 2325 0bd8 0C       		.byte	0xc
ARM GAS  /tmp/cc4Naq0S.s 			page 42


 2326 0bd9 BF01     		.2byte	0x1bf
 2327 0bdb 27       		.uleb128 0x27
 2328 0bdc A3060000 		.4byte	0x6a3
 2329 0be0 ED000000 		.4byte	.LLST10
 2330 0be4 00       		.byte	0
 2331 0be5 00       		.byte	0
 2332 0be6 00       		.byte	0
 2333 0be7 24       		.uleb128 0x24
 2334 0be8 4D070000 		.4byte	0x74d
 2335 0bec 0E000000 		.4byte	.LBB435
 2336 0bf0 06000000 		.4byte	.LBE435-.LBB435
 2337 0bf4 01       		.byte	0x1
 2338 0bf5 8E       		.byte	0x8e
 2339 0bf6 350C0000 		.4byte	0xc35
 2340 0bfa 2F       		.uleb128 0x2f
 2341 0bfb 0E000000 		.4byte	.LBB436
 2342 0bff 06000000 		.4byte	.LBE436-.LBB436
 2343 0c03 30       		.uleb128 0x30
 2344 0c04 5A070000 		.4byte	0x75a
 2345 0c08 25       		.uleb128 0x25
 2346 0c09 B9060000 		.4byte	0x6b9
 2347 0c0d 0E000000 		.4byte	.LBB437
 2348 0c11 06000000 		.4byte	.LBE437-.LBB437
 2349 0c15 03       		.byte	0x3
 2350 0c16 7301     		.2byte	0x173
 2351 0c18 25       		.uleb128 0x25
 2352 0c19 96060000 		.4byte	0x696
 2353 0c1d 0E000000 		.4byte	.LBB438
 2354 0c21 06000000 		.4byte	.LBE438-.LBB438
 2355 0c25 0C       		.byte	0xc
 2356 0c26 CD01     		.2byte	0x1cd
 2357 0c28 27       		.uleb128 0x27
 2358 0c29 A3060000 		.4byte	0x6a3
 2359 0c2d 02010000 		.4byte	.LLST11
 2360 0c31 00       		.byte	0
 2361 0c32 00       		.byte	0
 2362 0c33 00       		.byte	0
 2363 0c34 00       		.byte	0
 2364 0c35 24       		.uleb128 0x24
 2365 0c36 44070000 		.4byte	0x744
 2366 0c3a 26000000 		.4byte	.LBB440
 2367 0c3e 04000000 		.4byte	.LBE440-.LBB440
 2368 0c42 01       		.byte	0x1
 2369 0c43 91       		.byte	0x91
 2370 0c44 740C0000 		.4byte	0xc74
 2371 0c48 25       		.uleb128 0x25
 2372 0c49 B0060000 		.4byte	0x6b0
 2373 0c4d 26000000 		.4byte	.LBB441
 2374 0c51 04000000 		.4byte	.LBE441-.LBB441
 2375 0c55 03       		.byte	0x3
 2376 0c56 5C01     		.2byte	0x15c
 2377 0c58 25       		.uleb128 0x25
 2378 0c59 96060000 		.4byte	0x696
 2379 0c5d 26000000 		.4byte	.LBB442
 2380 0c61 04000000 		.4byte	.LBE442-.LBB442
 2381 0c65 0C       		.byte	0xc
 2382 0c66 BF01     		.2byte	0x1bf
ARM GAS  /tmp/cc4Naq0S.s 			page 43


 2383 0c68 27       		.uleb128 0x27
 2384 0c69 A3060000 		.4byte	0x6a3
 2385 0c6d 16010000 		.4byte	.LLST12
 2386 0c71 00       		.byte	0
 2387 0c72 00       		.byte	0
 2388 0c73 00       		.byte	0
 2389 0c74 24       		.uleb128 0x24
 2390 0c75 4D070000 		.4byte	0x74d
 2391 0c79 30000000 		.4byte	.LBB444
 2392 0c7d 04000000 		.4byte	.LBE444-.LBB444
 2393 0c81 01       		.byte	0x1
 2394 0c82 93       		.byte	0x93
 2395 0c83 C20C0000 		.4byte	0xcc2
 2396 0c87 2F       		.uleb128 0x2f
 2397 0c88 30000000 		.4byte	.LBB445
 2398 0c8c 04000000 		.4byte	.LBE445-.LBB445
 2399 0c90 30       		.uleb128 0x30
 2400 0c91 5A070000 		.4byte	0x75a
 2401 0c95 25       		.uleb128 0x25
 2402 0c96 B9060000 		.4byte	0x6b9
 2403 0c9a 30000000 		.4byte	.LBB446
 2404 0c9e 04000000 		.4byte	.LBE446-.LBB446
 2405 0ca2 03       		.byte	0x3
 2406 0ca3 7301     		.2byte	0x173
 2407 0ca5 25       		.uleb128 0x25
 2408 0ca6 96060000 		.4byte	0x696
 2409 0caa 30000000 		.4byte	.LBB447
 2410 0cae 04000000 		.4byte	.LBE447-.LBB447
 2411 0cb2 0C       		.byte	0xc
 2412 0cb3 CD01     		.2byte	0x1cd
 2413 0cb5 27       		.uleb128 0x27
 2414 0cb6 A3060000 		.4byte	0x6a3
 2415 0cba 2B010000 		.4byte	.LLST13
 2416 0cbe 00       		.byte	0
 2417 0cbf 00       		.byte	0
 2418 0cc0 00       		.byte	0
 2419 0cc1 00       		.byte	0
 2420 0cc2 24       		.uleb128 0x24
 2421 0cc3 44070000 		.4byte	0x744
 2422 0cc7 46000000 		.4byte	.LBB449
 2423 0ccb 04000000 		.4byte	.LBE449-.LBB449
 2424 0ccf 01       		.byte	0x1
 2425 0cd0 96       		.byte	0x96
 2426 0cd1 010D0000 		.4byte	0xd01
 2427 0cd5 25       		.uleb128 0x25
 2428 0cd6 B0060000 		.4byte	0x6b0
 2429 0cda 46000000 		.4byte	.LBB450
 2430 0cde 04000000 		.4byte	.LBE450-.LBB450
 2431 0ce2 03       		.byte	0x3
 2432 0ce3 5C01     		.2byte	0x15c
 2433 0ce5 25       		.uleb128 0x25
 2434 0ce6 96060000 		.4byte	0x696
 2435 0cea 46000000 		.4byte	.LBB451
 2436 0cee 04000000 		.4byte	.LBE451-.LBB451
 2437 0cf2 0C       		.byte	0xc
 2438 0cf3 BF01     		.2byte	0x1bf
 2439 0cf5 27       		.uleb128 0x27
ARM GAS  /tmp/cc4Naq0S.s 			page 44


 2440 0cf6 A3060000 		.4byte	0x6a3
 2441 0cfa 3F010000 		.4byte	.LLST14
 2442 0cfe 00       		.byte	0
 2443 0cff 00       		.byte	0
 2444 0d00 00       		.byte	0
 2445 0d01 24       		.uleb128 0x24
 2446 0d02 4D070000 		.4byte	0x74d
 2447 0d06 50000000 		.4byte	.LBB453
 2448 0d0a 04000000 		.4byte	.LBE453-.LBB453
 2449 0d0e 01       		.byte	0x1
 2450 0d0f 98       		.byte	0x98
 2451 0d10 4F0D0000 		.4byte	0xd4f
 2452 0d14 2F       		.uleb128 0x2f
 2453 0d15 50000000 		.4byte	.LBB454
 2454 0d19 04000000 		.4byte	.LBE454-.LBB454
 2455 0d1d 30       		.uleb128 0x30
 2456 0d1e 5A070000 		.4byte	0x75a
 2457 0d22 25       		.uleb128 0x25
 2458 0d23 B9060000 		.4byte	0x6b9
 2459 0d27 50000000 		.4byte	.LBB455
 2460 0d2b 04000000 		.4byte	.LBE455-.LBB455
 2461 0d2f 03       		.byte	0x3
 2462 0d30 7301     		.2byte	0x173
 2463 0d32 25       		.uleb128 0x25
 2464 0d33 96060000 		.4byte	0x696
 2465 0d37 50000000 		.4byte	.LBB456
 2466 0d3b 04000000 		.4byte	.LBE456-.LBB456
 2467 0d3f 0C       		.byte	0xc
 2468 0d40 CD01     		.2byte	0x1cd
 2469 0d42 27       		.uleb128 0x27
 2470 0d43 A3060000 		.4byte	0x6a3
 2471 0d47 54010000 		.4byte	.LLST15
 2472 0d4b 00       		.byte	0
 2473 0d4c 00       		.byte	0
 2474 0d4d 00       		.byte	0
 2475 0d4e 00       		.byte	0
 2476 0d4f 31       		.uleb128 0x31
 2477 0d50 00000000 		.4byte	.Ldebug_ranges0+0
 2478 0d54 110E0000 		.4byte	0xe11
 2479 0d58 2E       		.uleb128 0x2e
 2480 0d59 7E080000 		.4byte	0x87e
 2481 0d5d 68010000 		.4byte	.LLST16
 2482 0d61 24       		.uleb128 0x24
 2483 0d62 44070000 		.4byte	0x744
 2484 0d66 66000000 		.4byte	.LBB460
 2485 0d6a 04000000 		.4byte	.LBE460-.LBB460
 2486 0d6e 01       		.byte	0x1
 2487 0d6f 9B       		.byte	0x9b
 2488 0d70 A00D0000 		.4byte	0xda0
 2489 0d74 25       		.uleb128 0x25
 2490 0d75 B0060000 		.4byte	0x6b0
 2491 0d79 66000000 		.4byte	.LBB461
 2492 0d7d 04000000 		.4byte	.LBE461-.LBB461
 2493 0d81 03       		.byte	0x3
 2494 0d82 5C01     		.2byte	0x15c
 2495 0d84 25       		.uleb128 0x25
 2496 0d85 96060000 		.4byte	0x696
ARM GAS  /tmp/cc4Naq0S.s 			page 45


 2497 0d89 66000000 		.4byte	.LBB462
 2498 0d8d 04000000 		.4byte	.LBE462-.LBB462
 2499 0d91 0C       		.byte	0xc
 2500 0d92 BF01     		.2byte	0x1bf
 2501 0d94 27       		.uleb128 0x27
 2502 0d95 A3060000 		.4byte	0x6a3
 2503 0d99 7B010000 		.4byte	.LLST17
 2504 0d9d 00       		.byte	0
 2505 0d9e 00       		.byte	0
 2506 0d9f 00       		.byte	0
 2507 0da0 24       		.uleb128 0x24
 2508 0da1 4D070000 		.4byte	0x74d
 2509 0da5 70000000 		.4byte	.LBB464
 2510 0da9 04000000 		.4byte	.LBE464-.LBB464
 2511 0dad 01       		.byte	0x1
 2512 0dae 9D       		.byte	0x9d
 2513 0daf EE0D0000 		.4byte	0xdee
 2514 0db3 2F       		.uleb128 0x2f
 2515 0db4 70000000 		.4byte	.LBB465
 2516 0db8 04000000 		.4byte	.LBE465-.LBB465
 2517 0dbc 30       		.uleb128 0x30
 2518 0dbd 5A070000 		.4byte	0x75a
 2519 0dc1 25       		.uleb128 0x25
 2520 0dc2 B9060000 		.4byte	0x6b9
 2521 0dc6 70000000 		.4byte	.LBB466
 2522 0dca 04000000 		.4byte	.LBE466-.LBB466
 2523 0dce 03       		.byte	0x3
 2524 0dcf 7301     		.2byte	0x173
 2525 0dd1 25       		.uleb128 0x25
 2526 0dd2 96060000 		.4byte	0x696
 2527 0dd6 70000000 		.4byte	.LBB467
 2528 0dda 04000000 		.4byte	.LBE467-.LBB467
 2529 0dde 0C       		.byte	0xc
 2530 0ddf CD01     		.2byte	0x1cd
 2531 0de1 27       		.uleb128 0x27
 2532 0de2 A3060000 		.4byte	0x6a3
 2533 0de6 90010000 		.4byte	.LLST18
 2534 0dea 00       		.byte	0
 2535 0deb 00       		.byte	0
 2536 0dec 00       		.byte	0
 2537 0ded 00       		.byte	0
 2538 0dee 32       		.uleb128 0x32
 2539 0def 70000000 		.4byte	.LVL33
 2540 0df3 39150000 		.4byte	0x1539
 2541 0df7 010E0000 		.4byte	0xe01
 2542 0dfb 33       		.uleb128 0x33
 2543 0dfc 01       		.uleb128 0x1
 2544 0dfd 50       		.byte	0x50
 2545 0dfe 01       		.uleb128 0x1
 2546 0dff 38       		.byte	0x38
 2547 0e00 00       		.byte	0
 2548 0e01 34       		.uleb128 0x34
 2549 0e02 84000000 		.4byte	.LVL36
 2550 0e06 45150000 		.4byte	0x1545
 2551 0e0a 33       		.uleb128 0x33
 2552 0e0b 01       		.uleb128 0x1
 2553 0e0c 50       		.byte	0x50
ARM GAS  /tmp/cc4Naq0S.s 			page 46


 2554 0e0d 01       		.uleb128 0x1
 2555 0e0e 34       		.byte	0x34
 2556 0e0f 00       		.byte	0
 2557 0e10 00       		.byte	0
 2558 0e11 32       		.uleb128 0x32
 2559 0e12 0E000000 		.4byte	.LVL15
 2560 0e16 39150000 		.4byte	0x1539
 2561 0e1a 240E0000 		.4byte	0xe24
 2562 0e1e 33       		.uleb128 0x33
 2563 0e1f 01       		.uleb128 0x1
 2564 0e20 50       		.byte	0x50
 2565 0e21 01       		.uleb128 0x1
 2566 0e22 31       		.byte	0x31
 2567 0e23 00       		.byte	0
 2568 0e24 32       		.uleb128 0x32
 2569 0e25 20000000 		.4byte	.LVL18
 2570 0e29 45150000 		.4byte	0x1545
 2571 0e2d 370E0000 		.4byte	0xe37
 2572 0e31 33       		.uleb128 0x33
 2573 0e32 01       		.uleb128 0x1
 2574 0e33 50       		.byte	0x50
 2575 0e34 01       		.uleb128 0x1
 2576 0e35 31       		.byte	0x31
 2577 0e36 00       		.byte	0
 2578 0e37 32       		.uleb128 0x32
 2579 0e38 30000000 		.4byte	.LVL21
 2580 0e3c 39150000 		.4byte	0x1539
 2581 0e40 4A0E0000 		.4byte	0xe4a
 2582 0e44 33       		.uleb128 0x33
 2583 0e45 01       		.uleb128 0x1
 2584 0e46 50       		.byte	0x50
 2585 0e47 01       		.uleb128 0x1
 2586 0e48 32       		.byte	0x32
 2587 0e49 00       		.byte	0
 2588 0e4a 32       		.uleb128 0x32
 2589 0e4b 40000000 		.4byte	.LVL24
 2590 0e4f 45150000 		.4byte	0x1545
 2591 0e53 5D0E0000 		.4byte	0xe5d
 2592 0e57 33       		.uleb128 0x33
 2593 0e58 01       		.uleb128 0x1
 2594 0e59 50       		.byte	0x50
 2595 0e5a 01       		.uleb128 0x1
 2596 0e5b 32       		.byte	0x32
 2597 0e5c 00       		.byte	0
 2598 0e5d 32       		.uleb128 0x32
 2599 0e5e 50000000 		.4byte	.LVL27
 2600 0e62 39150000 		.4byte	0x1539
 2601 0e66 700E0000 		.4byte	0xe70
 2602 0e6a 33       		.uleb128 0x33
 2603 0e6b 01       		.uleb128 0x1
 2604 0e6c 50       		.byte	0x50
 2605 0e6d 01       		.uleb128 0x1
 2606 0e6e 34       		.byte	0x34
 2607 0e6f 00       		.byte	0
 2608 0e70 35       		.uleb128 0x35
 2609 0e71 60000000 		.4byte	.LVL30
 2610 0e75 45150000 		.4byte	0x1545
ARM GAS  /tmp/cc4Naq0S.s 			page 47


 2611 0e79 33       		.uleb128 0x33
 2612 0e7a 01       		.uleb128 0x1
 2613 0e7b 50       		.byte	0x50
 2614 0e7c 01       		.uleb128 0x1
 2615 0e7d 33       		.byte	0x33
 2616 0e7e 00       		.byte	0
 2617 0e7f 00       		.byte	0
 2618 0e80 23       		.uleb128 0x23
 2619 0e81 B5060000 		.4byte	.LASF146
 2620 0e85 01       		.byte	0x1
 2621 0e86 44       		.byte	0x44
 2622 0e87 00000000 		.4byte	.LFB228
 2623 0e8b A8000000 		.4byte	.LFE228-.LFB228
 2624 0e8f 01       		.uleb128 0x1
 2625 0e90 9C       		.byte	0x9c
 2626 0e91 A1140000 		.4byte	0x14a1
 2627 0e95 2B       		.uleb128 0x2b
 2628 0e96 73747300 		.ascii	"sts\000"
 2629 0e9a 01       		.byte	0x1
 2630 0e9b 45       		.byte	0x45
 2631 0e9c E1000000 		.4byte	0xe1
 2632 0ea0 A4010000 		.4byte	.LLST19
 2633 0ea4 36       		.uleb128 0x36
 2634 0ea5 767400   		.ascii	"vt\000"
 2635 0ea8 01       		.byte	0x1
 2636 0ea9 46       		.byte	0x46
 2637 0eaa 26030000 		.4byte	0x326
 2638 0eae 02       		.uleb128 0x2
 2639 0eaf 91       		.byte	0x91
 2640 0eb0 64       		.sleb128 -28
 2641 0eb1 24       		.uleb128 0x24
 2642 0eb2 44070000 		.4byte	0x744
 2643 0eb6 0C000000 		.4byte	.LBB559
 2644 0eba 06000000 		.4byte	.LBE559-.LBB559
 2645 0ebe 01       		.byte	0x1
 2646 0ebf 4D       		.byte	0x4d
 2647 0ec0 F00E0000 		.4byte	0xef0
 2648 0ec4 25       		.uleb128 0x25
 2649 0ec5 B0060000 		.4byte	0x6b0
 2650 0ec9 0C000000 		.4byte	.LBB560
 2651 0ecd 06000000 		.4byte	.LBE560-.LBB560
 2652 0ed1 03       		.byte	0x3
 2653 0ed2 5C01     		.2byte	0x15c
 2654 0ed4 25       		.uleb128 0x25
 2655 0ed5 96060000 		.4byte	0x696
 2656 0ed9 0C000000 		.4byte	.LBB561
 2657 0edd 06000000 		.4byte	.LBE561-.LBB561
 2658 0ee1 0C       		.byte	0xc
 2659 0ee2 BF01     		.2byte	0x1bf
 2660 0ee4 27       		.uleb128 0x27
 2661 0ee5 A3060000 		.4byte	0x6a3
 2662 0ee9 C2010000 		.4byte	.LLST20
 2663 0eed 00       		.byte	0
 2664 0eee 00       		.byte	0
 2665 0eef 00       		.byte	0
 2666 0ef0 24       		.uleb128 0x24
 2667 0ef1 4D070000 		.4byte	0x74d
ARM GAS  /tmp/cc4Naq0S.s 			page 48


 2668 0ef5 1A000000 		.4byte	.LBB563
 2669 0ef9 06000000 		.4byte	.LBE563-.LBB563
 2670 0efd 01       		.byte	0x1
 2671 0efe 50       		.byte	0x50
 2672 0eff 3E0F0000 		.4byte	0xf3e
 2673 0f03 2F       		.uleb128 0x2f
 2674 0f04 1A000000 		.4byte	.LBB564
 2675 0f08 06000000 		.4byte	.LBE564-.LBB564
 2676 0f0c 30       		.uleb128 0x30
 2677 0f0d 5A070000 		.4byte	0x75a
 2678 0f11 25       		.uleb128 0x25
 2679 0f12 B9060000 		.4byte	0x6b9
 2680 0f16 1A000000 		.4byte	.LBB565
 2681 0f1a 06000000 		.4byte	.LBE565-.LBB565
 2682 0f1e 03       		.byte	0x3
 2683 0f1f 7301     		.2byte	0x173
 2684 0f21 25       		.uleb128 0x25
 2685 0f22 96060000 		.4byte	0x696
 2686 0f26 1A000000 		.4byte	.LBB566
 2687 0f2a 06000000 		.4byte	.LBE566-.LBB566
 2688 0f2e 0C       		.byte	0xc
 2689 0f2f CD01     		.2byte	0x1cd
 2690 0f31 27       		.uleb128 0x27
 2691 0f32 A3060000 		.4byte	0x6a3
 2692 0f36 D7010000 		.4byte	.LLST21
 2693 0f3a 00       		.byte	0
 2694 0f3b 00       		.byte	0
 2695 0f3c 00       		.byte	0
 2696 0f3d 00       		.byte	0
 2697 0f3e 24       		.uleb128 0x24
 2698 0f3f 69080000 		.4byte	0x869
 2699 0f43 20000000 		.4byte	.LBB568
 2700 0f47 0A000000 		.4byte	.LBE568-.LBB568
 2701 0f4b 01       		.byte	0x1
 2702 0f4c 53       		.byte	0x53
 2703 0f4d D20F0000 		.4byte	0xfd2
 2704 0f51 26       		.uleb128 0x26
 2705 0f52 26070000 		.4byte	0x726
 2706 0f56 20000000 		.4byte	.LBB570
 2707 0f5a 04000000 		.4byte	.LBE570-.LBB570
 2708 0f5e 03       		.byte	0x3
 2709 0f5f A601     		.2byte	0x1a6
 2710 0f61 950F0000 		.4byte	0xf95
 2711 0f65 2F       		.uleb128 0x2f
 2712 0f66 20000000 		.4byte	.LBB571
 2713 0f6a 04000000 		.4byte	.LBE571-.LBB571
 2714 0f6e 30       		.uleb128 0x30
 2715 0f6f 37070000 		.4byte	0x737
 2716 0f73 25       		.uleb128 0x25
 2717 0f74 78060000 		.4byte	0x678
 2718 0f78 20000000 		.4byte	.LBB572
 2719 0f7c 04000000 		.4byte	.LBE572-.LBB572
 2720 0f80 0C       		.byte	0xc
 2721 0f81 9201     		.2byte	0x192
 2722 0f83 2F       		.uleb128 0x2f
 2723 0f84 20000000 		.4byte	.LBB573
 2724 0f88 04000000 		.4byte	.LBE573-.LBB573
ARM GAS  /tmp/cc4Naq0S.s 			page 49


 2725 0f8c 30       		.uleb128 0x30
 2726 0f8d 89060000 		.4byte	0x689
 2727 0f91 00       		.byte	0
 2728 0f92 00       		.byte	0
 2729 0f93 00       		.byte	0
 2730 0f94 00       		.byte	0
 2731 0f95 25       		.uleb128 0x25
 2732 0f96 44070000 		.4byte	0x744
 2733 0f9a 26000000 		.4byte	.LBB574
 2734 0f9e 04000000 		.4byte	.LBE574-.LBB574
 2735 0fa2 03       		.byte	0x3
 2736 0fa3 A701     		.2byte	0x1a7
 2737 0fa5 25       		.uleb128 0x25
 2738 0fa6 B0060000 		.4byte	0x6b0
 2739 0faa 26000000 		.4byte	.LBB575
 2740 0fae 04000000 		.4byte	.LBE575-.LBB575
 2741 0fb2 03       		.byte	0x3
 2742 0fb3 5C01     		.2byte	0x15c
 2743 0fb5 25       		.uleb128 0x25
 2744 0fb6 96060000 		.4byte	0x696
 2745 0fba 26000000 		.4byte	.LBB576
 2746 0fbe 04000000 		.4byte	.LBE576-.LBB576
 2747 0fc2 0C       		.byte	0xc
 2748 0fc3 BF01     		.2byte	0x1bf
 2749 0fc5 27       		.uleb128 0x27
 2750 0fc6 A3060000 		.4byte	0x6a3
 2751 0fca EB010000 		.4byte	.LLST22
 2752 0fce 00       		.byte	0
 2753 0fcf 00       		.byte	0
 2754 0fd0 00       		.byte	0
 2755 0fd1 00       		.byte	0
 2756 0fd2 24       		.uleb128 0x24
 2757 0fd3 69080000 		.4byte	0x869
 2758 0fd7 2A000000 		.4byte	.LBB578
 2759 0fdb 0C000000 		.4byte	.LBE578-.LBB578
 2760 0fdf 01       		.byte	0x1
 2761 0fe0 54       		.byte	0x54
 2762 0fe1 66100000 		.4byte	0x1066
 2763 0fe5 26       		.uleb128 0x26
 2764 0fe6 26070000 		.4byte	0x726
 2765 0fea 2A000000 		.4byte	.LBB580
 2766 0fee 04000000 		.4byte	.LBE580-.LBB580
 2767 0ff2 03       		.byte	0x3
 2768 0ff3 A601     		.2byte	0x1a6
 2769 0ff5 29100000 		.4byte	0x1029
 2770 0ff9 2F       		.uleb128 0x2f
 2771 0ffa 2A000000 		.4byte	.LBB581
 2772 0ffe 04000000 		.4byte	.LBE581-.LBB581
 2773 1002 30       		.uleb128 0x30
 2774 1003 37070000 		.4byte	0x737
 2775 1007 25       		.uleb128 0x25
 2776 1008 78060000 		.4byte	0x678
 2777 100c 2A000000 		.4byte	.LBB582
 2778 1010 04000000 		.4byte	.LBE582-.LBB582
 2779 1014 0C       		.byte	0xc
 2780 1015 9201     		.2byte	0x192
 2781 1017 2F       		.uleb128 0x2f
ARM GAS  /tmp/cc4Naq0S.s 			page 50


 2782 1018 2A000000 		.4byte	.LBB583
 2783 101c 04000000 		.4byte	.LBE583-.LBB583
 2784 1020 30       		.uleb128 0x30
 2785 1021 89060000 		.4byte	0x689
 2786 1025 00       		.byte	0
 2787 1026 00       		.byte	0
 2788 1027 00       		.byte	0
 2789 1028 00       		.byte	0
 2790 1029 25       		.uleb128 0x25
 2791 102a 44070000 		.4byte	0x744
 2792 102e 30000000 		.4byte	.LBB584
 2793 1032 06000000 		.4byte	.LBE584-.LBB584
 2794 1036 03       		.byte	0x3
 2795 1037 A701     		.2byte	0x1a7
 2796 1039 25       		.uleb128 0x25
 2797 103a B0060000 		.4byte	0x6b0
 2798 103e 30000000 		.4byte	.LBB585
 2799 1042 06000000 		.4byte	.LBE585-.LBB585
 2800 1046 03       		.byte	0x3
 2801 1047 5C01     		.2byte	0x15c
 2802 1049 25       		.uleb128 0x25
 2803 104a 96060000 		.4byte	0x696
 2804 104e 30000000 		.4byte	.LBB586
 2805 1052 06000000 		.4byte	.LBE586-.LBB586
 2806 1056 0C       		.byte	0xc
 2807 1057 BF01     		.2byte	0x1bf
 2808 1059 27       		.uleb128 0x27
 2809 105a A3060000 		.4byte	0x6a3
 2810 105e 00020000 		.4byte	.LLST23
 2811 1062 00       		.byte	0
 2812 1063 00       		.byte	0
 2813 1064 00       		.byte	0
 2814 1065 00       		.byte	0
 2815 1066 24       		.uleb128 0x24
 2816 1067 4D070000 		.4byte	0x74d
 2817 106b 36000000 		.4byte	.LBB588
 2818 106f 06000000 		.4byte	.LBE588-.LBB588
 2819 1073 01       		.byte	0x1
 2820 1074 55       		.byte	0x55
 2821 1075 B4100000 		.4byte	0x10b4
 2822 1079 2F       		.uleb128 0x2f
 2823 107a 36000000 		.4byte	.LBB589
 2824 107e 06000000 		.4byte	.LBE589-.LBB589
 2825 1082 30       		.uleb128 0x30
 2826 1083 5A070000 		.4byte	0x75a
 2827 1087 25       		.uleb128 0x25
 2828 1088 B9060000 		.4byte	0x6b9
 2829 108c 36000000 		.4byte	.LBB590
 2830 1090 06000000 		.4byte	.LBE590-.LBB590
 2831 1094 03       		.byte	0x3
 2832 1095 7301     		.2byte	0x173
 2833 1097 25       		.uleb128 0x25
 2834 1098 96060000 		.4byte	0x696
 2835 109c 36000000 		.4byte	.LBB591
 2836 10a0 06000000 		.4byte	.LBE591-.LBB591
 2837 10a4 0C       		.byte	0xc
 2838 10a5 CD01     		.2byte	0x1cd
ARM GAS  /tmp/cc4Naq0S.s 			page 51


 2839 10a7 27       		.uleb128 0x27
 2840 10a8 A3060000 		.4byte	0x6a3
 2841 10ac 15020000 		.4byte	.LLST24
 2842 10b0 00       		.byte	0
 2843 10b1 00       		.byte	0
 2844 10b2 00       		.byte	0
 2845 10b3 00       		.byte	0
 2846 10b4 24       		.uleb128 0x24
 2847 10b5 44070000 		.4byte	0x744
 2848 10b9 3C000000 		.4byte	.LBB593
 2849 10bd 06000000 		.4byte	.LBE593-.LBB593
 2850 10c1 01       		.byte	0x1
 2851 10c2 58       		.byte	0x58
 2852 10c3 F3100000 		.4byte	0x10f3
 2853 10c7 25       		.uleb128 0x25
 2854 10c8 B0060000 		.4byte	0x6b0
 2855 10cc 3C000000 		.4byte	.LBB594
 2856 10d0 06000000 		.4byte	.LBE594-.LBB594
 2857 10d4 03       		.byte	0x3
 2858 10d5 5C01     		.2byte	0x15c
 2859 10d7 25       		.uleb128 0x25
 2860 10d8 96060000 		.4byte	0x696
 2861 10dc 3C000000 		.4byte	.LBB595
 2862 10e0 06000000 		.4byte	.LBE595-.LBB595
 2863 10e4 0C       		.byte	0xc
 2864 10e5 BF01     		.2byte	0x1bf
 2865 10e7 27       		.uleb128 0x27
 2866 10e8 A3060000 		.4byte	0x6a3
 2867 10ec 29020000 		.4byte	.LLST25
 2868 10f0 00       		.byte	0
 2869 10f1 00       		.byte	0
 2870 10f2 00       		.byte	0
 2871 10f3 24       		.uleb128 0x24
 2872 10f4 60080000 		.4byte	0x860
 2873 10f8 42000000 		.4byte	.LBB597
 2874 10fc 0A000000 		.4byte	.LBE597-.LBB597
 2875 1100 01       		.byte	0x1
 2876 1101 59       		.byte	0x59
 2877 1102 96110000 		.4byte	0x1196
 2878 1106 26       		.uleb128 0x26
 2879 1107 26070000 		.4byte	0x726
 2880 110b 42000000 		.4byte	.LBB599
 2881 110f 04000000 		.4byte	.LBE599-.LBB599
 2882 1113 03       		.byte	0x3
 2883 1114 B401     		.2byte	0x1b4
 2884 1116 4A110000 		.4byte	0x114a
 2885 111a 2F       		.uleb128 0x2f
 2886 111b 42000000 		.4byte	.LBB600
 2887 111f 04000000 		.4byte	.LBE600-.LBB600
 2888 1123 30       		.uleb128 0x30
 2889 1124 37070000 		.4byte	0x737
 2890 1128 25       		.uleb128 0x25
 2891 1129 78060000 		.4byte	0x678
 2892 112d 42000000 		.4byte	.LBB601
 2893 1131 04000000 		.4byte	.LBE601-.LBB601
 2894 1135 0C       		.byte	0xc
 2895 1136 9201     		.2byte	0x192
ARM GAS  /tmp/cc4Naq0S.s 			page 52


 2896 1138 2F       		.uleb128 0x2f
 2897 1139 42000000 		.4byte	.LBB602
 2898 113d 04000000 		.4byte	.LBE602-.LBB602
 2899 1141 30       		.uleb128 0x30
 2900 1142 89060000 		.4byte	0x689
 2901 1146 00       		.byte	0
 2902 1147 00       		.byte	0
 2903 1148 00       		.byte	0
 2904 1149 00       		.byte	0
 2905 114a 25       		.uleb128 0x25
 2906 114b 4D070000 		.4byte	0x74d
 2907 114f 48000000 		.4byte	.LBB603
 2908 1153 04000000 		.4byte	.LBE603-.LBB603
 2909 1157 03       		.byte	0x3
 2910 1158 B501     		.2byte	0x1b5
 2911 115a 2F       		.uleb128 0x2f
 2912 115b 48000000 		.4byte	.LBB604
 2913 115f 04000000 		.4byte	.LBE604-.LBB604
 2914 1163 30       		.uleb128 0x30
 2915 1164 5A070000 		.4byte	0x75a
 2916 1168 25       		.uleb128 0x25
 2917 1169 B9060000 		.4byte	0x6b9
 2918 116d 48000000 		.4byte	.LBB605
 2919 1171 04000000 		.4byte	.LBE605-.LBB605
 2920 1175 03       		.byte	0x3
 2921 1176 7301     		.2byte	0x173
 2922 1178 25       		.uleb128 0x25
 2923 1179 96060000 		.4byte	0x696
 2924 117d 48000000 		.4byte	.LBB606
 2925 1181 04000000 		.4byte	.LBE606-.LBB606
 2926 1185 0C       		.byte	0xc
 2927 1186 CD01     		.2byte	0x1cd
 2928 1188 27       		.uleb128 0x27
 2929 1189 A3060000 		.4byte	0x6a3
 2930 118d 3E020000 		.4byte	.LLST26
 2931 1191 00       		.byte	0
 2932 1192 00       		.byte	0
 2933 1193 00       		.byte	0
 2934 1194 00       		.byte	0
 2935 1195 00       		.byte	0
 2936 1196 24       		.uleb128 0x24
 2937 1197 60080000 		.4byte	0x860
 2938 119b 4C000000 		.4byte	.LBB608
 2939 119f 0C000000 		.4byte	.LBE608-.LBB608
 2940 11a3 01       		.byte	0x1
 2941 11a4 5A       		.byte	0x5a
 2942 11a5 39120000 		.4byte	0x1239
 2943 11a9 26       		.uleb128 0x26
 2944 11aa 26070000 		.4byte	0x726
 2945 11ae 4C000000 		.4byte	.LBB610
 2946 11b2 04000000 		.4byte	.LBE610-.LBB610
 2947 11b6 03       		.byte	0x3
 2948 11b7 B401     		.2byte	0x1b4
 2949 11b9 ED110000 		.4byte	0x11ed
 2950 11bd 2F       		.uleb128 0x2f
 2951 11be 4C000000 		.4byte	.LBB611
 2952 11c2 04000000 		.4byte	.LBE611-.LBB611
ARM GAS  /tmp/cc4Naq0S.s 			page 53


 2953 11c6 30       		.uleb128 0x30
 2954 11c7 37070000 		.4byte	0x737
 2955 11cb 25       		.uleb128 0x25
 2956 11cc 78060000 		.4byte	0x678
 2957 11d0 4C000000 		.4byte	.LBB612
 2958 11d4 04000000 		.4byte	.LBE612-.LBB612
 2959 11d8 0C       		.byte	0xc
 2960 11d9 9201     		.2byte	0x192
 2961 11db 2F       		.uleb128 0x2f
 2962 11dc 4C000000 		.4byte	.LBB613
 2963 11e0 04000000 		.4byte	.LBE613-.LBB613
 2964 11e4 30       		.uleb128 0x30
 2965 11e5 89060000 		.4byte	0x689
 2966 11e9 00       		.byte	0
 2967 11ea 00       		.byte	0
 2968 11eb 00       		.byte	0
 2969 11ec 00       		.byte	0
 2970 11ed 25       		.uleb128 0x25
 2971 11ee 4D070000 		.4byte	0x74d
 2972 11f2 52000000 		.4byte	.LBB614
 2973 11f6 06000000 		.4byte	.LBE614-.LBB614
 2974 11fa 03       		.byte	0x3
 2975 11fb B501     		.2byte	0x1b5
 2976 11fd 2F       		.uleb128 0x2f
 2977 11fe 52000000 		.4byte	.LBB615
 2978 1202 06000000 		.4byte	.LBE615-.LBB615
 2979 1206 30       		.uleb128 0x30
 2980 1207 5A070000 		.4byte	0x75a
 2981 120b 25       		.uleb128 0x25
 2982 120c B9060000 		.4byte	0x6b9
 2983 1210 52000000 		.4byte	.LBB616
 2984 1214 06000000 		.4byte	.LBE616-.LBB616
 2985 1218 03       		.byte	0x3
 2986 1219 7301     		.2byte	0x173
 2987 121b 25       		.uleb128 0x25
 2988 121c 96060000 		.4byte	0x696
 2989 1220 52000000 		.4byte	.LBB617
 2990 1224 06000000 		.4byte	.LBE617-.LBB617
 2991 1228 0C       		.byte	0xc
 2992 1229 CD01     		.2byte	0x1cd
 2993 122b 27       		.uleb128 0x27
 2994 122c A3060000 		.4byte	0x6a3
 2995 1230 52020000 		.4byte	.LLST27
 2996 1234 00       		.byte	0
 2997 1235 00       		.byte	0
 2998 1236 00       		.byte	0
 2999 1237 00       		.byte	0
 3000 1238 00       		.byte	0
 3001 1239 24       		.uleb128 0x24
 3002 123a 7D070000 		.4byte	0x77d
 3003 123e 58000000 		.4byte	.LBB619
 3004 1242 04000000 		.4byte	.LBE619-.LBB619
 3005 1246 01       		.byte	0x1
 3006 1247 5D       		.byte	0x5d
 3007 1248 56120000 		.4byte	0x1256
 3008 124c 27       		.uleb128 0x27
 3009 124d 89070000 		.4byte	0x789
ARM GAS  /tmp/cc4Naq0S.s 			page 54


 3010 1251 66020000 		.4byte	.LLST28
 3011 1255 00       		.byte	0
 3012 1256 24       		.uleb128 0x24
 3013 1257 22080000 		.4byte	0x822
 3014 125b 5C000000 		.4byte	.LBB621
 3015 125f 24000000 		.4byte	.LBE621-.LBB621
 3016 1263 01       		.byte	0x1
 3017 1264 5E       		.byte	0x5e
 3018 1265 A3130000 		.4byte	0x13a3
 3019 1269 27       		.uleb128 0x27
 3020 126a 53080000 		.4byte	0x853
 3021 126e A0020000 		.4byte	.LLST29
 3022 1272 27       		.uleb128 0x27
 3023 1273 47080000 		.4byte	0x847
 3024 1277 B4020000 		.4byte	.LLST30
 3025 127b 27       		.uleb128 0x27
 3026 127c 3B080000 		.4byte	0x83b
 3027 1280 CC020000 		.4byte	.LLST31
 3028 1284 27       		.uleb128 0x27
 3029 1285 2F080000 		.4byte	0x82f
 3030 1289 E0020000 		.4byte	.LLST32
 3031 128d 26       		.uleb128 0x26
 3032 128e 44070000 		.4byte	0x744
 3033 1292 5C000000 		.4byte	.LBB622
 3034 1296 06000000 		.4byte	.LBE622-.LBB622
 3035 129a 04       		.byte	0x4
 3036 129b C401     		.2byte	0x1c4
 3037 129d CD120000 		.4byte	0x12cd
 3038 12a1 25       		.uleb128 0x25
 3039 12a2 B0060000 		.4byte	0x6b0
 3040 12a6 5C000000 		.4byte	.LBB623
 3041 12aa 06000000 		.4byte	.LBE623-.LBB623
 3042 12ae 03       		.byte	0x3
 3043 12af 5C01     		.2byte	0x15c
 3044 12b1 25       		.uleb128 0x25
 3045 12b2 96060000 		.4byte	0x696
 3046 12b6 5C000000 		.4byte	.LBB624
 3047 12ba 06000000 		.4byte	.LBE624-.LBB624
 3048 12be 0C       		.byte	0xc
 3049 12bf BF01     		.2byte	0x1bf
 3050 12c1 27       		.uleb128 0x27
 3051 12c2 A3060000 		.4byte	0x6a3
 3052 12c6 0D030000 		.4byte	.LLST33
 3053 12ca 00       		.byte	0
 3054 12cb 00       		.byte	0
 3055 12cc 00       		.byte	0
 3056 12cd 26       		.uleb128 0x26
 3057 12ce 8A080000 		.4byte	0x88a
 3058 12d2 62000000 		.4byte	.LBB626
 3059 12d6 18000000 		.4byte	.LBE626-.LBB626
 3060 12da 04       		.byte	0x4
 3061 12db C501     		.2byte	0x1c5
 3062 12dd 57130000 		.4byte	0x1357
 3063 12e1 27       		.uleb128 0x27
 3064 12e2 A3080000 		.4byte	0x8a3
 3065 12e6 22030000 		.4byte	.LLST34
 3066 12ea 27       		.uleb128 0x27
ARM GAS  /tmp/cc4Naq0S.s 			page 55


 3067 12eb AF080000 		.4byte	0x8af
 3068 12ef 36030000 		.4byte	.LLST35
 3069 12f3 27       		.uleb128 0x27
 3070 12f4 BB080000 		.4byte	0x8bb
 3071 12f8 4E030000 		.4byte	.LLST36
 3072 12fc 27       		.uleb128 0x27
 3073 12fd 97080000 		.4byte	0x897
 3074 1301 62030000 		.4byte	.LLST37
 3075 1305 26       		.uleb128 0x26
 3076 1306 E0070000 		.4byte	0x7e0
 3077 130a 62000000 		.4byte	.LBB628
 3078 130e 0C000000 		.4byte	.LBE628-.LBB628
 3079 1312 04       		.byte	0x4
 3080 1313 A701     		.2byte	0x1a7
 3081 1315 33130000 		.4byte	0x1333
 3082 1319 27       		.uleb128 0x27
 3083 131a ED070000 		.4byte	0x7ed
 3084 131e 82030000 		.4byte	.LLST38
 3085 1322 35       		.uleb128 0x35
 3086 1323 6E000000 		.4byte	.LVL56
 3087 1327 50150000 		.4byte	0x1550
 3088 132b 33       		.uleb128 0x33
 3089 132c 01       		.uleb128 0x1
 3090 132d 50       		.byte	0x50
 3091 132e 02       		.uleb128 0x2
 3092 132f 74       		.byte	0x74
 3093 1330 00       		.sleb128 0
 3094 1331 00       		.byte	0
 3095 1332 00       		.byte	0
 3096 1333 35       		.uleb128 0x35
 3097 1334 7A000000 		.4byte	.LVL57
 3098 1338 5B150000 		.4byte	0x155b
 3099 133c 33       		.uleb128 0x33
 3100 133d 01       		.uleb128 0x1
 3101 133e 50       		.byte	0x50
 3102 133f 02       		.uleb128 0x2
 3103 1340 74       		.byte	0x74
 3104 1341 00       		.sleb128 0
 3105 1342 33       		.uleb128 0x33
 3106 1343 01       		.uleb128 0x1
 3107 1344 51       		.byte	0x51
 3108 1345 01       		.uleb128 0x1
 3109 1346 31       		.byte	0x31
 3110 1347 33       		.uleb128 0x33
 3111 1348 01       		.uleb128 0x1
 3112 1349 52       		.byte	0x52
 3113 134a 05       		.uleb128 0x5
 3114 134b 03       		.byte	0x3
 3115 134c 00000000 		.4byte	vtcb
 3116 1350 33       		.uleb128 0x33
 3117 1351 01       		.uleb128 0x1
 3118 1352 53       		.byte	0x53
 3119 1353 01       		.uleb128 0x1
 3120 1354 30       		.byte	0x30
 3121 1355 00       		.byte	0
 3122 1356 00       		.byte	0
 3123 1357 25       		.uleb128 0x25
ARM GAS  /tmp/cc4Naq0S.s 			page 56


 3124 1358 4D070000 		.4byte	0x74d
 3125 135c 7A000000 		.4byte	.LBB630
 3126 1360 06000000 		.4byte	.LBE630-.LBB630
 3127 1364 04       		.byte	0x4
 3128 1365 C601     		.2byte	0x1c6
 3129 1367 2F       		.uleb128 0x2f
 3130 1368 7A000000 		.4byte	.LBB631
 3131 136c 06000000 		.4byte	.LBE631-.LBB631
 3132 1370 30       		.uleb128 0x30
 3133 1371 5A070000 		.4byte	0x75a
 3134 1375 25       		.uleb128 0x25
 3135 1376 B9060000 		.4byte	0x6b9
 3136 137a 7A000000 		.4byte	.LBB632
 3137 137e 06000000 		.4byte	.LBE632-.LBB632
 3138 1382 03       		.byte	0x3
 3139 1383 7301     		.2byte	0x173
 3140 1385 25       		.uleb128 0x25
 3141 1386 96060000 		.4byte	0x696
 3142 138a 7A000000 		.4byte	.LBB633
 3143 138e 06000000 		.4byte	.LBE633-.LBB633
 3144 1392 0C       		.byte	0xc
 3145 1393 CD01     		.2byte	0x1cd
 3146 1395 27       		.uleb128 0x27
 3147 1396 A3060000 		.4byte	0x6a3
 3148 139a A2030000 		.4byte	.LLST39
 3149 139e 00       		.byte	0
 3150 139f 00       		.byte	0
 3151 13a0 00       		.byte	0
 3152 13a1 00       		.byte	0
 3153 13a2 00       		.byte	0
 3154 13a3 24       		.uleb128 0x24
 3155 13a4 FA070000 		.4byte	0x7fa
 3156 13a8 86000000 		.4byte	.LBB635
 3157 13ac 0C000000 		.4byte	.LBE635-.LBB635
 3158 13b0 01       		.byte	0x1
 3159 13b1 61       		.byte	0x61
 3160 13b2 5A140000 		.4byte	0x145a
 3161 13b6 27       		.uleb128 0x27
 3162 13b7 0B080000 		.4byte	0x80b
 3163 13bb B6030000 		.4byte	.LLST40
 3164 13bf 2F       		.uleb128 0x2f
 3165 13c0 86000000 		.4byte	.LBB636
 3166 13c4 0C000000 		.4byte	.LBE636-.LBB636
 3167 13c8 30       		.uleb128 0x30
 3168 13c9 17080000 		.4byte	0x817
 3169 13cd 26       		.uleb128 0x26
 3170 13ce 44070000 		.4byte	0x744
 3171 13d2 86000000 		.4byte	.LBB637
 3172 13d6 08000000 		.4byte	.LBE637-.LBB637
 3173 13da 04       		.byte	0x4
 3174 13db 6501     		.2byte	0x165
 3175 13dd 0D140000 		.4byte	0x140d
 3176 13e1 25       		.uleb128 0x25
 3177 13e2 B0060000 		.4byte	0x6b0
 3178 13e6 86000000 		.4byte	.LBB638
 3179 13ea 08000000 		.4byte	.LBE638-.LBB638
 3180 13ee 03       		.byte	0x3
ARM GAS  /tmp/cc4Naq0S.s 			page 57


 3181 13ef 5C01     		.2byte	0x15c
 3182 13f1 25       		.uleb128 0x25
 3183 13f2 96060000 		.4byte	0x696
 3184 13f6 86000000 		.4byte	.LBB639
 3185 13fa 08000000 		.4byte	.LBE639-.LBB639
 3186 13fe 0C       		.byte	0xc
 3187 13ff BF01     		.2byte	0x1bf
 3188 1401 27       		.uleb128 0x27
 3189 1402 A3060000 		.4byte	0x6a3
 3190 1406 CB030000 		.4byte	.LLST41
 3191 140a 00       		.byte	0
 3192 140b 00       		.byte	0
 3193 140c 00       		.byte	0
 3194 140d 25       		.uleb128 0x25
 3195 140e 4D070000 		.4byte	0x74d
 3196 1412 8E000000 		.4byte	.LBB641
 3197 1416 04000000 		.4byte	.LBE641-.LBB641
 3198 141a 04       		.byte	0x4
 3199 141b 6701     		.2byte	0x167
 3200 141d 2F       		.uleb128 0x2f
 3201 141e 8E000000 		.4byte	.LBB642
 3202 1422 04000000 		.4byte	.LBE642-.LBB642
 3203 1426 30       		.uleb128 0x30
 3204 1427 5A070000 		.4byte	0x75a
 3205 142b 25       		.uleb128 0x25
 3206 142c B9060000 		.4byte	0x6b9
 3207 1430 8E000000 		.4byte	.LBB643
 3208 1434 04000000 		.4byte	.LBE643-.LBB643
 3209 1438 03       		.byte	0x3
 3210 1439 7301     		.2byte	0x173
 3211 143b 25       		.uleb128 0x25
 3212 143c 96060000 		.4byte	0x696
 3213 1440 8E000000 		.4byte	.LBB644
 3214 1444 04000000 		.4byte	.LBE644-.LBB644
 3215 1448 0C       		.byte	0xc
 3216 1449 CD01     		.2byte	0x1cd
 3217 144b 27       		.uleb128 0x27
 3218 144c A3060000 		.4byte	0x6a3
 3219 1450 E0030000 		.4byte	.LLST42
 3220 1454 00       		.byte	0
 3221 1455 00       		.byte	0
 3222 1456 00       		.byte	0
 3223 1457 00       		.byte	0
 3224 1458 00       		.byte	0
 3225 1459 00       		.byte	0
 3226 145a 2C       		.uleb128 0x2c
 3227 145b 08000000 		.4byte	.LVL37
 3228 145f 21150000 		.4byte	0x1521
 3229 1463 2C       		.uleb128 0x2c
 3230 1464 0C000000 		.4byte	.LVL38
 3231 1468 2D150000 		.4byte	0x152d
 3232 146c 2C       		.uleb128 0x2c
 3233 146d 16000000 		.4byte	.LVL40
 3234 1471 21150000 		.4byte	0x1521
 3235 1475 2C       		.uleb128 0x2c
 3236 1476 1A000000 		.4byte	.LVL41
 3237 147a 2D150000 		.4byte	0x152d
ARM GAS  /tmp/cc4Naq0S.s 			page 58


 3238 147e 32       		.uleb128 0x32
 3239 147f 86000000 		.4byte	.LVL60
 3240 1483 66150000 		.4byte	0x1566
 3241 1487 91140000 		.4byte	0x1491
 3242 148b 33       		.uleb128 0x33
 3243 148c 01       		.uleb128 0x1
 3244 148d 50       		.byte	0x50
 3245 148e 01       		.uleb128 0x1
 3246 148f 3A       		.byte	0x3a
 3247 1490 00       		.byte	0
 3248 1491 35       		.uleb128 0x35
 3249 1492 9E000000 		.4byte	.LVL64
 3250 1496 45150000 		.4byte	0x1545
 3251 149a 33       		.uleb128 0x33
 3252 149b 01       		.uleb128 0x1
 3253 149c 50       		.byte	0x50
 3254 149d 01       		.uleb128 0x1
 3255 149e 31       		.byte	0x31
 3256 149f 00       		.byte	0
 3257 14a0 00       		.byte	0
 3258 14a1 37       		.uleb128 0x37
 3259 14a2 B3000000 		.4byte	.LASF147
 3260 14a6 11       		.byte	0x11
 3261 14a7 A706     		.2byte	0x6a7
 3262 14a9 D1000000 		.4byte	0xd1
 3263 14ad 38       		.uleb128 0x38
 3264 14ae 636800   		.ascii	"ch\000"
 3265 14b1 0A       		.byte	0xa
 3266 14b2 0902     		.2byte	0x209
 3267 14b4 F3030000 		.4byte	0x3f3
 3268 14b8 39       		.uleb128 0x39
 3269 14b9 1C030000 		.4byte	.LASF148
 3270 14bd 01       		.byte	0x1
 3271 14be 64       		.byte	0x64
 3272 14bf C9140000 		.4byte	0x14c9
 3273 14c3 05       		.uleb128 0x5
 3274 14c4 03       		.byte	0x3
 3275 14c5 00000000 		.4byte	testsys1
 3276 14c9 14       		.uleb128 0x14
 3277 14ca 34060000 		.4byte	0x634
 3278 14ce 39       		.uleb128 0x39
 3279 14cf 25030000 		.4byte	.LASF149
 3280 14d3 01       		.byte	0x1
 3281 14d4 7A       		.byte	0x7a
 3282 14d5 C9140000 		.4byte	0x14c9
 3283 14d9 05       		.uleb128 0x5
 3284 14da 03       		.byte	0x3
 3285 14db 00000000 		.4byte	testsys2
 3286 14df 39       		.uleb128 0x39
 3287 14e0 2E030000 		.4byte	.LASF150
 3288 14e4 01       		.byte	0x1
 3289 14e5 A1       		.byte	0xa1
 3290 14e6 C9140000 		.4byte	0x14c9
 3291 14ea 05       		.uleb128 0x5
 3292 14eb 03       		.byte	0x3
 3293 14ec 00000000 		.4byte	testsys3
 3294 14f0 15       		.uleb128 0x15
ARM GAS  /tmp/cc4Naq0S.s 			page 59


 3295 14f1 06150000 		.4byte	0x1506
 3296 14f5 00150000 		.4byte	0x1500
 3297 14f9 16       		.uleb128 0x16
 3298 14fa 5A040000 		.4byte	0x45a
 3299 14fe 03       		.byte	0x3
 3300 14ff 00       		.byte	0
 3301 1500 0A       		.uleb128 0xa
 3302 1501 04       		.byte	0x4
 3303 1502 C9140000 		.4byte	0x14c9
 3304 1506 14       		.uleb128 0x14
 3305 1507 00150000 		.4byte	0x1500
 3306 150b 39       		.uleb128 0x39
 3307 150c 84010000 		.4byte	.LASF151
 3308 1510 01       		.byte	0x1
 3309 1511 AB       		.byte	0xab
 3310 1512 1C150000 		.4byte	0x151c
 3311 1516 05       		.uleb128 0x5
 3312 1517 03       		.byte	0x3
 3313 1518 00000000 		.4byte	patternsys
 3314 151c 14       		.uleb128 0x14
 3315 151d F0140000 		.4byte	0x14f0
 3316 1521 3A       		.uleb128 0x3a
 3317 1522 06060000 		.4byte	.LASF152
 3318 1526 06060000 		.4byte	.LASF152
 3319 152a 03       		.byte	0x3
 3320 152b 1901     		.2byte	0x119
 3321 152d 3A       		.uleb128 0x3a
 3322 152e E2050000 		.4byte	.LASF153
 3323 1532 E2050000 		.4byte	.LASF153
 3324 1536 03       		.byte	0x3
 3325 1537 1A01     		.2byte	0x11a
 3326 1539 3A       		.uleb128 0x3a
 3327 153a 87070000 		.4byte	.LASF154
 3328 153e 87070000 		.4byte	.LASF154
 3329 1542 03       		.byte	0x3
 3330 1543 1701     		.2byte	0x117
 3331 1545 3B       		.uleb128 0x3b
 3332 1546 6B070000 		.4byte	.LASF155
 3333 154a 6B070000 		.4byte	.LASF155
 3334 154e 10       		.byte	0x10
 3335 154f 5A       		.byte	0x5a
 3336 1550 3B       		.uleb128 0x3b
 3337 1551 7C000000 		.4byte	.LASF156
 3338 1555 7C000000 		.4byte	.LASF156
 3339 1559 04       		.byte	0x4
 3340 155a BE       		.byte	0xbe
 3341 155b 3B       		.uleb128 0x3b
 3342 155c 98020000 		.4byte	.LASF157
 3343 1560 98020000 		.4byte	.LASF157
 3344 1564 04       		.byte	0x4
 3345 1565 BC       		.byte	0xbc
 3346 1566 3B       		.uleb128 0x3b
 3347 1567 BF050000 		.4byte	.LASF158
 3348 156b BF050000 		.4byte	.LASF158
 3349 156f 12       		.byte	0x12
 3350 1570 96       		.byte	0x96
 3351 1571 00       		.byte	0
ARM GAS  /tmp/cc4Naq0S.s 			page 60


 3352              		.section	.debug_abbrev,"",%progbits
 3353              	.Ldebug_abbrev0:
 3354 0000 01       		.uleb128 0x1
 3355 0001 11       		.uleb128 0x11
 3356 0002 01       		.byte	0x1
 3357 0003 25       		.uleb128 0x25
 3358 0004 0E       		.uleb128 0xe
 3359 0005 13       		.uleb128 0x13
 3360 0006 0B       		.uleb128 0xb
 3361 0007 03       		.uleb128 0x3
 3362 0008 0E       		.uleb128 0xe
 3363 0009 55       		.uleb128 0x55
 3364 000a 17       		.uleb128 0x17
 3365 000b 11       		.uleb128 0x11
 3366 000c 01       		.uleb128 0x1
 3367 000d 10       		.uleb128 0x10
 3368 000e 17       		.uleb128 0x17
 3369 000f 00       		.byte	0
 3370 0010 00       		.byte	0
 3371 0011 02       		.uleb128 0x2
 3372 0012 24       		.uleb128 0x24
 3373 0013 00       		.byte	0
 3374 0014 0B       		.uleb128 0xb
 3375 0015 0B       		.uleb128 0xb
 3376 0016 3E       		.uleb128 0x3e
 3377 0017 0B       		.uleb128 0xb
 3378 0018 03       		.uleb128 0x3
 3379 0019 08       		.uleb128 0x8
 3380 001a 00       		.byte	0
 3381 001b 00       		.byte	0
 3382 001c 03       		.uleb128 0x3
 3383 001d 16       		.uleb128 0x16
 3384 001e 00       		.byte	0
 3385 001f 03       		.uleb128 0x3
 3386 0020 0E       		.uleb128 0xe
 3387 0021 3A       		.uleb128 0x3a
 3388 0022 0B       		.uleb128 0xb
 3389 0023 3B       		.uleb128 0x3b
 3390 0024 0B       		.uleb128 0xb
 3391 0025 49       		.uleb128 0x49
 3392 0026 13       		.uleb128 0x13
 3393 0027 00       		.byte	0
 3394 0028 00       		.byte	0
 3395 0029 04       		.uleb128 0x4
 3396 002a 24       		.uleb128 0x24
 3397 002b 00       		.byte	0
 3398 002c 0B       		.uleb128 0xb
 3399 002d 0B       		.uleb128 0xb
 3400 002e 3E       		.uleb128 0x3e
 3401 002f 0B       		.uleb128 0xb
 3402 0030 03       		.uleb128 0x3
 3403 0031 0E       		.uleb128 0xe
 3404 0032 00       		.byte	0
 3405 0033 00       		.byte	0
 3406 0034 05       		.uleb128 0x5
 3407 0035 35       		.uleb128 0x35
 3408 0036 00       		.byte	0
ARM GAS  /tmp/cc4Naq0S.s 			page 61


 3409 0037 49       		.uleb128 0x49
 3410 0038 13       		.uleb128 0x13
 3411 0039 00       		.byte	0
 3412 003a 00       		.byte	0
 3413 003b 06       		.uleb128 0x6
 3414 003c 13       		.uleb128 0x13
 3415 003d 01       		.byte	0x1
 3416 003e 03       		.uleb128 0x3
 3417 003f 0E       		.uleb128 0xe
 3418 0040 0B       		.uleb128 0xb
 3419 0041 0B       		.uleb128 0xb
 3420 0042 3A       		.uleb128 0x3a
 3421 0043 0B       		.uleb128 0xb
 3422 0044 3B       		.uleb128 0x3b
 3423 0045 0B       		.uleb128 0xb
 3424 0046 01       		.uleb128 0x1
 3425 0047 13       		.uleb128 0x13
 3426 0048 00       		.byte	0
 3427 0049 00       		.byte	0
 3428 004a 07       		.uleb128 0x7
 3429 004b 0D       		.uleb128 0xd
 3430 004c 00       		.byte	0
 3431 004d 03       		.uleb128 0x3
 3432 004e 0E       		.uleb128 0xe
 3433 004f 3A       		.uleb128 0x3a
 3434 0050 0B       		.uleb128 0xb
 3435 0051 3B       		.uleb128 0x3b
 3436 0052 0B       		.uleb128 0xb
 3437 0053 49       		.uleb128 0x49
 3438 0054 13       		.uleb128 0x13
 3439 0055 38       		.uleb128 0x38
 3440 0056 0B       		.uleb128 0xb
 3441 0057 00       		.byte	0
 3442 0058 00       		.byte	0
 3443 0059 08       		.uleb128 0x8
 3444 005a 0D       		.uleb128 0xd
 3445 005b 00       		.byte	0
 3446 005c 03       		.uleb128 0x3
 3447 005d 08       		.uleb128 0x8
 3448 005e 3A       		.uleb128 0x3a
 3449 005f 0B       		.uleb128 0xb
 3450 0060 3B       		.uleb128 0x3b
 3451 0061 05       		.uleb128 0x5
 3452 0062 49       		.uleb128 0x49
 3453 0063 13       		.uleb128 0x13
 3454 0064 38       		.uleb128 0x38
 3455 0065 0B       		.uleb128 0xb
 3456 0066 00       		.byte	0
 3457 0067 00       		.byte	0
 3458 0068 09       		.uleb128 0x9
 3459 0069 0D       		.uleb128 0xd
 3460 006a 00       		.byte	0
 3461 006b 03       		.uleb128 0x3
 3462 006c 0E       		.uleb128 0xe
 3463 006d 3A       		.uleb128 0x3a
 3464 006e 0B       		.uleb128 0xb
 3465 006f 3B       		.uleb128 0x3b
ARM GAS  /tmp/cc4Naq0S.s 			page 62


 3466 0070 05       		.uleb128 0x5
 3467 0071 49       		.uleb128 0x49
 3468 0072 13       		.uleb128 0x13
 3469 0073 38       		.uleb128 0x38
 3470 0074 0B       		.uleb128 0xb
 3471 0075 00       		.byte	0
 3472 0076 00       		.byte	0
 3473 0077 0A       		.uleb128 0xa
 3474 0078 0F       		.uleb128 0xf
 3475 0079 00       		.byte	0
 3476 007a 0B       		.uleb128 0xb
 3477 007b 0B       		.uleb128 0xb
 3478 007c 49       		.uleb128 0x49
 3479 007d 13       		.uleb128 0x13
 3480 007e 00       		.byte	0
 3481 007f 00       		.byte	0
 3482 0080 0B       		.uleb128 0xb
 3483 0081 13       		.uleb128 0x13
 3484 0082 01       		.byte	0x1
 3485 0083 03       		.uleb128 0x3
 3486 0084 0E       		.uleb128 0xe
 3487 0085 0B       		.uleb128 0xb
 3488 0086 0B       		.uleb128 0xb
 3489 0087 3A       		.uleb128 0x3a
 3490 0088 0B       		.uleb128 0xb
 3491 0089 3B       		.uleb128 0x3b
 3492 008a 05       		.uleb128 0x5
 3493 008b 01       		.uleb128 0x1
 3494 008c 13       		.uleb128 0x13
 3495 008d 00       		.byte	0
 3496 008e 00       		.byte	0
 3497 008f 0C       		.uleb128 0xc
 3498 0090 15       		.uleb128 0x15
 3499 0091 01       		.byte	0x1
 3500 0092 27       		.uleb128 0x27
 3501 0093 19       		.uleb128 0x19
 3502 0094 01       		.uleb128 0x1
 3503 0095 13       		.uleb128 0x13
 3504 0096 00       		.byte	0
 3505 0097 00       		.byte	0
 3506 0098 0D       		.uleb128 0xd
 3507 0099 05       		.uleb128 0x5
 3508 009a 00       		.byte	0
 3509 009b 49       		.uleb128 0x49
 3510 009c 13       		.uleb128 0x13
 3511 009d 00       		.byte	0
 3512 009e 00       		.byte	0
 3513 009f 0E       		.uleb128 0xe
 3514 00a0 0F       		.uleb128 0xf
 3515 00a1 00       		.byte	0
 3516 00a2 0B       		.uleb128 0xb
 3517 00a3 0B       		.uleb128 0xb
 3518 00a4 00       		.byte	0
 3519 00a5 00       		.byte	0
 3520 00a6 0F       		.uleb128 0xf
 3521 00a7 13       		.uleb128 0x13
 3522 00a8 01       		.byte	0x1
ARM GAS  /tmp/cc4Naq0S.s 			page 63


 3523 00a9 03       		.uleb128 0x3
 3524 00aa 0E       		.uleb128 0xe
 3525 00ab 0B       		.uleb128 0xb
 3526 00ac 05       		.uleb128 0x5
 3527 00ad 3A       		.uleb128 0x3a
 3528 00ae 0B       		.uleb128 0xb
 3529 00af 3B       		.uleb128 0x3b
 3530 00b0 05       		.uleb128 0x5
 3531 00b1 01       		.uleb128 0x1
 3532 00b2 13       		.uleb128 0x13
 3533 00b3 00       		.byte	0
 3534 00b4 00       		.byte	0
 3535 00b5 10       		.uleb128 0x10
 3536 00b6 0D       		.uleb128 0xd
 3537 00b7 00       		.byte	0
 3538 00b8 03       		.uleb128 0x3
 3539 00b9 08       		.uleb128 0x8
 3540 00ba 3A       		.uleb128 0x3a
 3541 00bb 0B       		.uleb128 0xb
 3542 00bc 3B       		.uleb128 0x3b
 3543 00bd 0B       		.uleb128 0xb
 3544 00be 49       		.uleb128 0x49
 3545 00bf 13       		.uleb128 0x13
 3546 00c0 38       		.uleb128 0x38
 3547 00c1 0B       		.uleb128 0xb
 3548 00c2 00       		.byte	0
 3549 00c3 00       		.byte	0
 3550 00c4 11       		.uleb128 0x11
 3551 00c5 13       		.uleb128 0x13
 3552 00c6 01       		.byte	0x1
 3553 00c7 0B       		.uleb128 0xb
 3554 00c8 0B       		.uleb128 0xb
 3555 00c9 3A       		.uleb128 0x3a
 3556 00ca 0B       		.uleb128 0xb
 3557 00cb 3B       		.uleb128 0x3b
 3558 00cc 0B       		.uleb128 0xb
 3559 00cd 01       		.uleb128 0x1
 3560 00ce 13       		.uleb128 0x13
 3561 00cf 00       		.byte	0
 3562 00d0 00       		.byte	0
 3563 00d1 12       		.uleb128 0x12
 3564 00d2 17       		.uleb128 0x17
 3565 00d3 01       		.byte	0x1
 3566 00d4 0B       		.uleb128 0xb
 3567 00d5 0B       		.uleb128 0xb
 3568 00d6 3A       		.uleb128 0x3a
 3569 00d7 0B       		.uleb128 0xb
 3570 00d8 3B       		.uleb128 0x3b
 3571 00d9 0B       		.uleb128 0xb
 3572 00da 01       		.uleb128 0x1
 3573 00db 13       		.uleb128 0x13
 3574 00dc 00       		.byte	0
 3575 00dd 00       		.byte	0
 3576 00de 13       		.uleb128 0x13
 3577 00df 0D       		.uleb128 0xd
 3578 00e0 00       		.byte	0
 3579 00e1 03       		.uleb128 0x3
ARM GAS  /tmp/cc4Naq0S.s 			page 64


 3580 00e2 0E       		.uleb128 0xe
 3581 00e3 3A       		.uleb128 0x3a
 3582 00e4 0B       		.uleb128 0xb
 3583 00e5 3B       		.uleb128 0x3b
 3584 00e6 05       		.uleb128 0x5
 3585 00e7 49       		.uleb128 0x49
 3586 00e8 13       		.uleb128 0x13
 3587 00e9 00       		.byte	0
 3588 00ea 00       		.byte	0
 3589 00eb 14       		.uleb128 0x14
 3590 00ec 26       		.uleb128 0x26
 3591 00ed 00       		.byte	0
 3592 00ee 49       		.uleb128 0x49
 3593 00ef 13       		.uleb128 0x13
 3594 00f0 00       		.byte	0
 3595 00f1 00       		.byte	0
 3596 00f2 15       		.uleb128 0x15
 3597 00f3 01       		.uleb128 0x1
 3598 00f4 01       		.byte	0x1
 3599 00f5 49       		.uleb128 0x49
 3600 00f6 13       		.uleb128 0x13
 3601 00f7 01       		.uleb128 0x1
 3602 00f8 13       		.uleb128 0x13
 3603 00f9 00       		.byte	0
 3604 00fa 00       		.byte	0
 3605 00fb 16       		.uleb128 0x16
 3606 00fc 21       		.uleb128 0x21
 3607 00fd 00       		.byte	0
 3608 00fe 49       		.uleb128 0x49
 3609 00ff 13       		.uleb128 0x13
 3610 0100 2F       		.uleb128 0x2f
 3611 0101 0B       		.uleb128 0xb
 3612 0102 00       		.byte	0
 3613 0103 00       		.byte	0
 3614 0104 17       		.uleb128 0x17
 3615 0105 15       		.uleb128 0x15
 3616 0106 00       		.byte	0
 3617 0107 27       		.uleb128 0x27
 3618 0108 19       		.uleb128 0x19
 3619 0109 00       		.byte	0
 3620 010a 00       		.byte	0
 3621 010b 18       		.uleb128 0x18
 3622 010c 2E       		.uleb128 0x2e
 3623 010d 01       		.byte	0x1
 3624 010e 03       		.uleb128 0x3
 3625 010f 0E       		.uleb128 0xe
 3626 0110 3A       		.uleb128 0x3a
 3627 0111 0B       		.uleb128 0xb
 3628 0112 3B       		.uleb128 0x3b
 3629 0113 05       		.uleb128 0x5
 3630 0114 27       		.uleb128 0x27
 3631 0115 19       		.uleb128 0x19
 3632 0116 49       		.uleb128 0x49
 3633 0117 13       		.uleb128 0x13
 3634 0118 20       		.uleb128 0x20
 3635 0119 0B       		.uleb128 0xb
 3636 011a 01       		.uleb128 0x1
ARM GAS  /tmp/cc4Naq0S.s 			page 65


 3637 011b 13       		.uleb128 0x13
 3638 011c 00       		.byte	0
 3639 011d 00       		.byte	0
 3640 011e 19       		.uleb128 0x19
 3641 011f 34       		.uleb128 0x34
 3642 0120 00       		.byte	0
 3643 0121 03       		.uleb128 0x3
 3644 0122 0E       		.uleb128 0xe
 3645 0123 3A       		.uleb128 0x3a
 3646 0124 0B       		.uleb128 0xb
 3647 0125 3B       		.uleb128 0x3b
 3648 0126 05       		.uleb128 0x5
 3649 0127 49       		.uleb128 0x49
 3650 0128 13       		.uleb128 0x13
 3651 0129 00       		.byte	0
 3652 012a 00       		.byte	0
 3653 012b 1A       		.uleb128 0x1a
 3654 012c 2E       		.uleb128 0x2e
 3655 012d 01       		.byte	0x1
 3656 012e 03       		.uleb128 0x3
 3657 012f 0E       		.uleb128 0xe
 3658 0130 3A       		.uleb128 0x3a
 3659 0131 0B       		.uleb128 0xb
 3660 0132 3B       		.uleb128 0x3b
 3661 0133 05       		.uleb128 0x5
 3662 0134 27       		.uleb128 0x27
 3663 0135 19       		.uleb128 0x19
 3664 0136 20       		.uleb128 0x20
 3665 0137 0B       		.uleb128 0xb
 3666 0138 01       		.uleb128 0x1
 3667 0139 13       		.uleb128 0x13
 3668 013a 00       		.byte	0
 3669 013b 00       		.byte	0
 3670 013c 1B       		.uleb128 0x1b
 3671 013d 05       		.uleb128 0x5
 3672 013e 00       		.byte	0
 3673 013f 03       		.uleb128 0x3
 3674 0140 0E       		.uleb128 0xe
 3675 0141 3A       		.uleb128 0x3a
 3676 0142 0B       		.uleb128 0xb
 3677 0143 3B       		.uleb128 0x3b
 3678 0144 05       		.uleb128 0x5
 3679 0145 49       		.uleb128 0x49
 3680 0146 13       		.uleb128 0x13
 3681 0147 00       		.byte	0
 3682 0148 00       		.byte	0
 3683 0149 1C       		.uleb128 0x1c
 3684 014a 2E       		.uleb128 0x2e
 3685 014b 00       		.byte	0
 3686 014c 03       		.uleb128 0x3
 3687 014d 0E       		.uleb128 0xe
 3688 014e 3A       		.uleb128 0x3a
 3689 014f 0B       		.uleb128 0xb
 3690 0150 3B       		.uleb128 0x3b
 3691 0151 05       		.uleb128 0x5
 3692 0152 27       		.uleb128 0x27
 3693 0153 19       		.uleb128 0x19
ARM GAS  /tmp/cc4Naq0S.s 			page 66


 3694 0154 20       		.uleb128 0x20
 3695 0155 0B       		.uleb128 0xb
 3696 0156 00       		.byte	0
 3697 0157 00       		.byte	0
 3698 0158 1D       		.uleb128 0x1d
 3699 0159 05       		.uleb128 0x5
 3700 015a 00       		.byte	0
 3701 015b 03       		.uleb128 0x3
 3702 015c 08       		.uleb128 0x8
 3703 015d 3A       		.uleb128 0x3a
 3704 015e 0B       		.uleb128 0xb
 3705 015f 3B       		.uleb128 0x3b
 3706 0160 05       		.uleb128 0x5
 3707 0161 49       		.uleb128 0x49
 3708 0162 13       		.uleb128 0x13
 3709 0163 00       		.byte	0
 3710 0164 00       		.byte	0
 3711 0165 1E       		.uleb128 0x1e
 3712 0166 34       		.uleb128 0x34
 3713 0167 00       		.byte	0
 3714 0168 03       		.uleb128 0x3
 3715 0169 08       		.uleb128 0x8
 3716 016a 3A       		.uleb128 0x3a
 3717 016b 0B       		.uleb128 0xb
 3718 016c 3B       		.uleb128 0x3b
 3719 016d 05       		.uleb128 0x5
 3720 016e 49       		.uleb128 0x49
 3721 016f 13       		.uleb128 0x13
 3722 0170 00       		.byte	0
 3723 0171 00       		.byte	0
 3724 0172 1F       		.uleb128 0x1f
 3725 0173 34       		.uleb128 0x34
 3726 0174 00       		.byte	0
 3727 0175 03       		.uleb128 0x3
 3728 0176 0E       		.uleb128 0xe
 3729 0177 49       		.uleb128 0x49
 3730 0178 13       		.uleb128 0x13
 3731 0179 34       		.uleb128 0x34
 3732 017a 19       		.uleb128 0x19
 3733 017b 1C       		.uleb128 0x1c
 3734 017c 0E       		.uleb128 0xe
 3735 017d 00       		.byte	0
 3736 017e 00       		.byte	0
 3737 017f 20       		.uleb128 0x20
 3738 0180 2E       		.uleb128 0x2e
 3739 0181 01       		.byte	0x1
 3740 0182 03       		.uleb128 0x3
 3741 0183 0E       		.uleb128 0xe
 3742 0184 3A       		.uleb128 0x3a
 3743 0185 0B       		.uleb128 0xb
 3744 0186 3B       		.uleb128 0x3b
 3745 0187 0B       		.uleb128 0xb
 3746 0188 27       		.uleb128 0x27
 3747 0189 19       		.uleb128 0x19
 3748 018a 20       		.uleb128 0x20
 3749 018b 0B       		.uleb128 0xb
 3750 018c 01       		.uleb128 0x1
ARM GAS  /tmp/cc4Naq0S.s 			page 67


 3751 018d 13       		.uleb128 0x13
 3752 018e 00       		.byte	0
 3753 018f 00       		.byte	0
 3754 0190 21       		.uleb128 0x21
 3755 0191 05       		.uleb128 0x5
 3756 0192 00       		.byte	0
 3757 0193 03       		.uleb128 0x3
 3758 0194 08       		.uleb128 0x8
 3759 0195 3A       		.uleb128 0x3a
 3760 0196 0B       		.uleb128 0xb
 3761 0197 3B       		.uleb128 0x3b
 3762 0198 0B       		.uleb128 0xb
 3763 0199 49       		.uleb128 0x49
 3764 019a 13       		.uleb128 0x13
 3765 019b 00       		.byte	0
 3766 019c 00       		.byte	0
 3767 019d 22       		.uleb128 0x22
 3768 019e 34       		.uleb128 0x34
 3769 019f 00       		.byte	0
 3770 01a0 03       		.uleb128 0x3
 3771 01a1 0E       		.uleb128 0xe
 3772 01a2 3A       		.uleb128 0x3a
 3773 01a3 0B       		.uleb128 0xb
 3774 01a4 3B       		.uleb128 0x3b
 3775 01a5 0B       		.uleb128 0xb
 3776 01a6 49       		.uleb128 0x49
 3777 01a7 13       		.uleb128 0x13
 3778 01a8 00       		.byte	0
 3779 01a9 00       		.byte	0
 3780 01aa 23       		.uleb128 0x23
 3781 01ab 2E       		.uleb128 0x2e
 3782 01ac 01       		.byte	0x1
 3783 01ad 03       		.uleb128 0x3
 3784 01ae 0E       		.uleb128 0xe
 3785 01af 3A       		.uleb128 0x3a
 3786 01b0 0B       		.uleb128 0xb
 3787 01b1 3B       		.uleb128 0x3b
 3788 01b2 0B       		.uleb128 0xb
 3789 01b3 27       		.uleb128 0x27
 3790 01b4 19       		.uleb128 0x19
 3791 01b5 11       		.uleb128 0x11
 3792 01b6 01       		.uleb128 0x1
 3793 01b7 12       		.uleb128 0x12
 3794 01b8 06       		.uleb128 0x6
 3795 01b9 40       		.uleb128 0x40
 3796 01ba 18       		.uleb128 0x18
 3797 01bb 9742     		.uleb128 0x2117
 3798 01bd 19       		.uleb128 0x19
 3799 01be 01       		.uleb128 0x1
 3800 01bf 13       		.uleb128 0x13
 3801 01c0 00       		.byte	0
 3802 01c1 00       		.byte	0
 3803 01c2 24       		.uleb128 0x24
 3804 01c3 1D       		.uleb128 0x1d
 3805 01c4 01       		.byte	0x1
 3806 01c5 31       		.uleb128 0x31
 3807 01c6 13       		.uleb128 0x13
ARM GAS  /tmp/cc4Naq0S.s 			page 68


 3808 01c7 11       		.uleb128 0x11
 3809 01c8 01       		.uleb128 0x1
 3810 01c9 12       		.uleb128 0x12
 3811 01ca 06       		.uleb128 0x6
 3812 01cb 58       		.uleb128 0x58
 3813 01cc 0B       		.uleb128 0xb
 3814 01cd 59       		.uleb128 0x59
 3815 01ce 0B       		.uleb128 0xb
 3816 01cf 01       		.uleb128 0x1
 3817 01d0 13       		.uleb128 0x13
 3818 01d1 00       		.byte	0
 3819 01d2 00       		.byte	0
 3820 01d3 25       		.uleb128 0x25
 3821 01d4 1D       		.uleb128 0x1d
 3822 01d5 01       		.byte	0x1
 3823 01d6 31       		.uleb128 0x31
 3824 01d7 13       		.uleb128 0x13
 3825 01d8 11       		.uleb128 0x11
 3826 01d9 01       		.uleb128 0x1
 3827 01da 12       		.uleb128 0x12
 3828 01db 06       		.uleb128 0x6
 3829 01dc 58       		.uleb128 0x58
 3830 01dd 0B       		.uleb128 0xb
 3831 01de 59       		.uleb128 0x59
 3832 01df 05       		.uleb128 0x5
 3833 01e0 00       		.byte	0
 3834 01e1 00       		.byte	0
 3835 01e2 26       		.uleb128 0x26
 3836 01e3 1D       		.uleb128 0x1d
 3837 01e4 01       		.byte	0x1
 3838 01e5 31       		.uleb128 0x31
 3839 01e6 13       		.uleb128 0x13
 3840 01e7 11       		.uleb128 0x11
 3841 01e8 01       		.uleb128 0x1
 3842 01e9 12       		.uleb128 0x12
 3843 01ea 06       		.uleb128 0x6
 3844 01eb 58       		.uleb128 0x58
 3845 01ec 0B       		.uleb128 0xb
 3846 01ed 59       		.uleb128 0x59
 3847 01ee 05       		.uleb128 0x5
 3848 01ef 01       		.uleb128 0x1
 3849 01f0 13       		.uleb128 0x13
 3850 01f1 00       		.byte	0
 3851 01f2 00       		.byte	0
 3852 01f3 27       		.uleb128 0x27
 3853 01f4 05       		.uleb128 0x5
 3854 01f5 00       		.byte	0
 3855 01f6 31       		.uleb128 0x31
 3856 01f7 13       		.uleb128 0x13
 3857 01f8 02       		.uleb128 0x2
 3858 01f9 17       		.uleb128 0x17
 3859 01fa 00       		.byte	0
 3860 01fb 00       		.byte	0
 3861 01fc 28       		.uleb128 0x28
 3862 01fd 1D       		.uleb128 0x1d
 3863 01fe 00       		.byte	0
 3864 01ff 31       		.uleb128 0x31
ARM GAS  /tmp/cc4Naq0S.s 			page 69


 3865 0200 13       		.uleb128 0x13
 3866 0201 11       		.uleb128 0x11
 3867 0202 01       		.uleb128 0x1
 3868 0203 12       		.uleb128 0x12
 3869 0204 06       		.uleb128 0x6
 3870 0205 58       		.uleb128 0x58
 3871 0206 0B       		.uleb128 0xb
 3872 0207 59       		.uleb128 0x59
 3873 0208 05       		.uleb128 0x5
 3874 0209 00       		.byte	0
 3875 020a 00       		.byte	0
 3876 020b 29       		.uleb128 0x29
 3877 020c 1D       		.uleb128 0x1d
 3878 020d 01       		.byte	0x1
 3879 020e 31       		.uleb128 0x31
 3880 020f 13       		.uleb128 0x13
 3881 0210 11       		.uleb128 0x11
 3882 0211 01       		.uleb128 0x1
 3883 0212 12       		.uleb128 0x12
 3884 0213 06       		.uleb128 0x6
 3885 0214 58       		.uleb128 0x58
 3886 0215 0B       		.uleb128 0xb
 3887 0216 59       		.uleb128 0x59
 3888 0217 0B       		.uleb128 0xb
 3889 0218 00       		.byte	0
 3890 0219 00       		.byte	0
 3891 021a 2A       		.uleb128 0x2a
 3892 021b 05       		.uleb128 0x5
 3893 021c 00       		.byte	0
 3894 021d 03       		.uleb128 0x3
 3895 021e 08       		.uleb128 0x8
 3896 021f 3A       		.uleb128 0x3a
 3897 0220 0B       		.uleb128 0xb
 3898 0221 3B       		.uleb128 0x3b
 3899 0222 0B       		.uleb128 0xb
 3900 0223 49       		.uleb128 0x49
 3901 0224 13       		.uleb128 0x13
 3902 0225 02       		.uleb128 0x2
 3903 0226 17       		.uleb128 0x17
 3904 0227 00       		.byte	0
 3905 0228 00       		.byte	0
 3906 0229 2B       		.uleb128 0x2b
 3907 022a 34       		.uleb128 0x34
 3908 022b 00       		.byte	0
 3909 022c 03       		.uleb128 0x3
 3910 022d 08       		.uleb128 0x8
 3911 022e 3A       		.uleb128 0x3a
 3912 022f 0B       		.uleb128 0xb
 3913 0230 3B       		.uleb128 0x3b
 3914 0231 0B       		.uleb128 0xb
 3915 0232 49       		.uleb128 0x49
 3916 0233 13       		.uleb128 0x13
 3917 0234 02       		.uleb128 0x2
 3918 0235 17       		.uleb128 0x17
 3919 0236 00       		.byte	0
 3920 0237 00       		.byte	0
 3921 0238 2C       		.uleb128 0x2c
ARM GAS  /tmp/cc4Naq0S.s 			page 70


 3922 0239 898201   		.uleb128 0x4109
 3923 023c 00       		.byte	0
 3924 023d 11       		.uleb128 0x11
 3925 023e 01       		.uleb128 0x1
 3926 023f 31       		.uleb128 0x31
 3927 0240 13       		.uleb128 0x13
 3928 0241 00       		.byte	0
 3929 0242 00       		.byte	0
 3930 0243 2D       		.uleb128 0x2d
 3931 0244 2E       		.uleb128 0x2e
 3932 0245 01       		.byte	0x1
 3933 0246 31       		.uleb128 0x31
 3934 0247 13       		.uleb128 0x13
 3935 0248 11       		.uleb128 0x11
 3936 0249 01       		.uleb128 0x1
 3937 024a 12       		.uleb128 0x12
 3938 024b 06       		.uleb128 0x6
 3939 024c 40       		.uleb128 0x40
 3940 024d 18       		.uleb128 0x18
 3941 024e 9742     		.uleb128 0x2117
 3942 0250 19       		.uleb128 0x19
 3943 0251 01       		.uleb128 0x1
 3944 0252 13       		.uleb128 0x13
 3945 0253 00       		.byte	0
 3946 0254 00       		.byte	0
 3947 0255 2E       		.uleb128 0x2e
 3948 0256 34       		.uleb128 0x34
 3949 0257 00       		.byte	0
 3950 0258 31       		.uleb128 0x31
 3951 0259 13       		.uleb128 0x13
 3952 025a 02       		.uleb128 0x2
 3953 025b 17       		.uleb128 0x17
 3954 025c 00       		.byte	0
 3955 025d 00       		.byte	0
 3956 025e 2F       		.uleb128 0x2f
 3957 025f 0B       		.uleb128 0xb
 3958 0260 01       		.byte	0x1
 3959 0261 11       		.uleb128 0x11
 3960 0262 01       		.uleb128 0x1
 3961 0263 12       		.uleb128 0x12
 3962 0264 06       		.uleb128 0x6
 3963 0265 00       		.byte	0
 3964 0266 00       		.byte	0
 3965 0267 30       		.uleb128 0x30
 3966 0268 34       		.uleb128 0x34
 3967 0269 00       		.byte	0
 3968 026a 31       		.uleb128 0x31
 3969 026b 13       		.uleb128 0x13
 3970 026c 00       		.byte	0
 3971 026d 00       		.byte	0
 3972 026e 31       		.uleb128 0x31
 3973 026f 0B       		.uleb128 0xb
 3974 0270 01       		.byte	0x1
 3975 0271 55       		.uleb128 0x55
 3976 0272 17       		.uleb128 0x17
 3977 0273 01       		.uleb128 0x1
 3978 0274 13       		.uleb128 0x13
ARM GAS  /tmp/cc4Naq0S.s 			page 71


 3979 0275 00       		.byte	0
 3980 0276 00       		.byte	0
 3981 0277 32       		.uleb128 0x32
 3982 0278 898201   		.uleb128 0x4109
 3983 027b 01       		.byte	0x1
 3984 027c 11       		.uleb128 0x11
 3985 027d 01       		.uleb128 0x1
 3986 027e 31       		.uleb128 0x31
 3987 027f 13       		.uleb128 0x13
 3988 0280 01       		.uleb128 0x1
 3989 0281 13       		.uleb128 0x13
 3990 0282 00       		.byte	0
 3991 0283 00       		.byte	0
 3992 0284 33       		.uleb128 0x33
 3993 0285 8A8201   		.uleb128 0x410a
 3994 0288 00       		.byte	0
 3995 0289 02       		.uleb128 0x2
 3996 028a 18       		.uleb128 0x18
 3997 028b 9142     		.uleb128 0x2111
 3998 028d 18       		.uleb128 0x18
 3999 028e 00       		.byte	0
 4000 028f 00       		.byte	0
 4001 0290 34       		.uleb128 0x34
 4002 0291 898201   		.uleb128 0x4109
 4003 0294 01       		.byte	0x1
 4004 0295 11       		.uleb128 0x11
 4005 0296 01       		.uleb128 0x1
 4006 0297 9542     		.uleb128 0x2115
 4007 0299 19       		.uleb128 0x19
 4008 029a 31       		.uleb128 0x31
 4009 029b 13       		.uleb128 0x13
 4010 029c 00       		.byte	0
 4011 029d 00       		.byte	0
 4012 029e 35       		.uleb128 0x35
 4013 029f 898201   		.uleb128 0x4109
 4014 02a2 01       		.byte	0x1
 4015 02a3 11       		.uleb128 0x11
 4016 02a4 01       		.uleb128 0x1
 4017 02a5 31       		.uleb128 0x31
 4018 02a6 13       		.uleb128 0x13
 4019 02a7 00       		.byte	0
 4020 02a8 00       		.byte	0
 4021 02a9 36       		.uleb128 0x36
 4022 02aa 34       		.uleb128 0x34
 4023 02ab 00       		.byte	0
 4024 02ac 03       		.uleb128 0x3
 4025 02ad 08       		.uleb128 0x8
 4026 02ae 3A       		.uleb128 0x3a
 4027 02af 0B       		.uleb128 0xb
 4028 02b0 3B       		.uleb128 0x3b
 4029 02b1 0B       		.uleb128 0xb
 4030 02b2 49       		.uleb128 0x49
 4031 02b3 13       		.uleb128 0x13
 4032 02b4 02       		.uleb128 0x2
 4033 02b5 18       		.uleb128 0x18
 4034 02b6 00       		.byte	0
 4035 02b7 00       		.byte	0
ARM GAS  /tmp/cc4Naq0S.s 			page 72


 4036 02b8 37       		.uleb128 0x37
 4037 02b9 34       		.uleb128 0x34
 4038 02ba 00       		.byte	0
 4039 02bb 03       		.uleb128 0x3
 4040 02bc 0E       		.uleb128 0xe
 4041 02bd 3A       		.uleb128 0x3a
 4042 02be 0B       		.uleb128 0xb
 4043 02bf 3B       		.uleb128 0x3b
 4044 02c0 05       		.uleb128 0x5
 4045 02c1 49       		.uleb128 0x49
 4046 02c2 13       		.uleb128 0x13
 4047 02c3 3F       		.uleb128 0x3f
 4048 02c4 19       		.uleb128 0x19
 4049 02c5 3C       		.uleb128 0x3c
 4050 02c6 19       		.uleb128 0x19
 4051 02c7 00       		.byte	0
 4052 02c8 00       		.byte	0
 4053 02c9 38       		.uleb128 0x38
 4054 02ca 34       		.uleb128 0x34
 4055 02cb 00       		.byte	0
 4056 02cc 03       		.uleb128 0x3
 4057 02cd 08       		.uleb128 0x8
 4058 02ce 3A       		.uleb128 0x3a
 4059 02cf 0B       		.uleb128 0xb
 4060 02d0 3B       		.uleb128 0x3b
 4061 02d1 05       		.uleb128 0x5
 4062 02d2 49       		.uleb128 0x49
 4063 02d3 13       		.uleb128 0x13
 4064 02d4 3F       		.uleb128 0x3f
 4065 02d5 19       		.uleb128 0x19
 4066 02d6 3C       		.uleb128 0x3c
 4067 02d7 19       		.uleb128 0x19
 4068 02d8 00       		.byte	0
 4069 02d9 00       		.byte	0
 4070 02da 39       		.uleb128 0x39
 4071 02db 34       		.uleb128 0x34
 4072 02dc 00       		.byte	0
 4073 02dd 03       		.uleb128 0x3
 4074 02de 0E       		.uleb128 0xe
 4075 02df 3A       		.uleb128 0x3a
 4076 02e0 0B       		.uleb128 0xb
 4077 02e1 3B       		.uleb128 0x3b
 4078 02e2 0B       		.uleb128 0xb
 4079 02e3 49       		.uleb128 0x49
 4080 02e4 13       		.uleb128 0x13
 4081 02e5 3F       		.uleb128 0x3f
 4082 02e6 19       		.uleb128 0x19
 4083 02e7 02       		.uleb128 0x2
 4084 02e8 18       		.uleb128 0x18
 4085 02e9 00       		.byte	0
 4086 02ea 00       		.byte	0
 4087 02eb 3A       		.uleb128 0x3a
 4088 02ec 2E       		.uleb128 0x2e
 4089 02ed 00       		.byte	0
 4090 02ee 3F       		.uleb128 0x3f
 4091 02ef 19       		.uleb128 0x19
 4092 02f0 3C       		.uleb128 0x3c
ARM GAS  /tmp/cc4Naq0S.s 			page 73


 4093 02f1 19       		.uleb128 0x19
 4094 02f2 6E       		.uleb128 0x6e
 4095 02f3 0E       		.uleb128 0xe
 4096 02f4 03       		.uleb128 0x3
 4097 02f5 0E       		.uleb128 0xe
 4098 02f6 3A       		.uleb128 0x3a
 4099 02f7 0B       		.uleb128 0xb
 4100 02f8 3B       		.uleb128 0x3b
 4101 02f9 05       		.uleb128 0x5
 4102 02fa 00       		.byte	0
 4103 02fb 00       		.byte	0
 4104 02fc 3B       		.uleb128 0x3b
 4105 02fd 2E       		.uleb128 0x2e
 4106 02fe 00       		.byte	0
 4107 02ff 3F       		.uleb128 0x3f
 4108 0300 19       		.uleb128 0x19
 4109 0301 3C       		.uleb128 0x3c
 4110 0302 19       		.uleb128 0x19
 4111 0303 6E       		.uleb128 0x6e
 4112 0304 0E       		.uleb128 0xe
 4113 0305 03       		.uleb128 0x3
 4114 0306 0E       		.uleb128 0xe
 4115 0307 3A       		.uleb128 0x3a
 4116 0308 0B       		.uleb128 0xb
 4117 0309 3B       		.uleb128 0x3b
 4118 030a 0B       		.uleb128 0xb
 4119 030b 00       		.byte	0
 4120 030c 00       		.byte	0
 4121 030d 00       		.byte	0
 4122              		.section	.debug_loc,"",%progbits
 4123              	.Ldebug_loc0:
 4124              	.LLST0:
 4125 0000 00000000 		.4byte	.LVL0
 4126 0004 06000000 		.4byte	.LVL1
 4127 0008 0300     		.2byte	0x3
 4128 000a 08       		.byte	0x8
 4129 000b 20       		.byte	0x20
 4130 000c 9F       		.byte	0x9f
 4131 000d 00000000 		.4byte	0
 4132 0011 00000000 		.4byte	0
 4133              	.LLST1:
 4134 0015 0A000000 		.4byte	.LVL2
 4135 0019 0E000000 		.4byte	.LVL3
 4136 001d 0300     		.2byte	0x3
 4137 001f 08       		.byte	0x8
 4138 0020 20       		.byte	0x20
 4139 0021 9F       		.byte	0x9f
 4140 0022 00000000 		.4byte	0
 4141 0026 00000000 		.4byte	0
 4142              	.LLST2:
 4143 002a 10000000 		.4byte	.LVL4
 4144 002e 16000000 		.4byte	.LVL5
 4145 0032 0200     		.2byte	0x2
 4146 0034 30       		.byte	0x30
 4147 0035 9F       		.byte	0x9f
 4148 0036 00000000 		.4byte	0
 4149 003a 00000000 		.4byte	0
ARM GAS  /tmp/cc4Naq0S.s 			page 74


 4150              	.LLST3:
 4151 003e 00000000 		.4byte	.LVL6
 4152 0042 15000000 		.4byte	.LVL10-1
 4153 0046 0100     		.2byte	0x1
 4154 0048 50       		.byte	0x50
 4155 0049 15000000 		.4byte	.LVL10-1
 4156 004d 20000000 		.4byte	.LFE227
 4157 0051 0400     		.2byte	0x4
 4158 0053 F3       		.byte	0xf3
 4159 0054 01       		.uleb128 0x1
 4160 0055 50       		.byte	0x50
 4161 0056 9F       		.byte	0x9f
 4162 0057 00000000 		.4byte	0
 4163 005b 00000000 		.4byte	0
 4164              	.LLST4:
 4165 005f 16000000 		.4byte	.LVL10
 4166 0063 19000000 		.4byte	.LVL11-1
 4167 0067 0100     		.2byte	0x1
 4168 0069 50       		.byte	0x50
 4169 006a 00000000 		.4byte	0
 4170 006e 00000000 		.4byte	0
 4171              	.LLST5:
 4172 0072 00000000 		.4byte	.LVL6
 4173 0076 08000000 		.4byte	.LVL7
 4174 007a 0300     		.2byte	0x3
 4175 007c 08       		.byte	0x8
 4176 007d 20       		.byte	0x20
 4177 007e 9F       		.byte	0x9f
 4178 007f 00000000 		.4byte	0
 4179 0083 00000000 		.4byte	0
 4180              	.LLST6:
 4181 0087 08000000 		.4byte	.LVL7
 4182 008b 0E000000 		.4byte	.LVL8
 4183 008f 0200     		.2byte	0x2
 4184 0091 30       		.byte	0x30
 4185 0092 9F       		.byte	0x9f
 4186 0093 00000000 		.4byte	0
 4187 0097 00000000 		.4byte	0
 4188              	.LLST7:
 4189 009b 0E000000 		.4byte	.LVL8
 4190 009f 12000000 		.4byte	.LVL9
 4191 00a3 0300     		.2byte	0x3
 4192 00a5 08       		.byte	0x8
 4193 00a6 20       		.byte	0x20
 4194 00a7 9F       		.byte	0x9f
 4195 00a8 00000000 		.4byte	0
 4196 00ac 00000000 		.4byte	0
 4197              	.LLST8:
 4198 00b0 1A000000 		.4byte	.LVL11
 4199 00b4 1E000000 		.4byte	.LVL12
 4200 00b8 0200     		.2byte	0x2
 4201 00ba 30       		.byte	0x30
 4202 00bb 9F       		.byte	0x9f
 4203 00bc 00000000 		.4byte	0
 4204 00c0 00000000 		.4byte	0
 4205              	.LLST9:
 4206 00c4 0E000000 		.4byte	.LVL15
ARM GAS  /tmp/cc4Naq0S.s 			page 75


 4207 00c8 1C000000 		.4byte	.LVL17
 4208 00cc 0100     		.2byte	0x1
 4209 00ce 50       		.byte	0x50
 4210 00cf 30000000 		.4byte	.LVL21
 4211 00d3 3C000000 		.4byte	.LVL23
 4212 00d7 0100     		.2byte	0x1
 4213 00d9 50       		.byte	0x50
 4214 00da 50000000 		.4byte	.LVL27
 4215 00de 5C000000 		.4byte	.LVL29
 4216 00e2 0100     		.2byte	0x1
 4217 00e4 50       		.byte	0x50
 4218 00e5 00000000 		.4byte	0
 4219 00e9 00000000 		.4byte	0
 4220              	.LLST10:
 4221 00ed 00000000 		.4byte	.LVL13
 4222 00f1 08000000 		.4byte	.LVL14
 4223 00f5 0300     		.2byte	0x3
 4224 00f7 08       		.byte	0x8
 4225 00f8 20       		.byte	0x20
 4226 00f9 9F       		.byte	0x9f
 4227 00fa 00000000 		.4byte	0
 4228 00fe 00000000 		.4byte	0
 4229              	.LLST11:
 4230 0102 0E000000 		.4byte	.LVL15
 4231 0106 14000000 		.4byte	.LVL16
 4232 010a 0200     		.2byte	0x2
 4233 010c 30       		.byte	0x30
 4234 010d 9F       		.byte	0x9f
 4235 010e 00000000 		.4byte	0
 4236 0112 00000000 		.4byte	0
 4237              	.LLST12:
 4238 0116 24000000 		.4byte	.LVL19
 4239 011a 2A000000 		.4byte	.LVL20
 4240 011e 0300     		.2byte	0x3
 4241 0120 08       		.byte	0x8
 4242 0121 20       		.byte	0x20
 4243 0122 9F       		.byte	0x9f
 4244 0123 00000000 		.4byte	0
 4245 0127 00000000 		.4byte	0
 4246              	.LLST13:
 4247 012b 30000000 		.4byte	.LVL21
 4248 012f 34000000 		.4byte	.LVL22
 4249 0133 0200     		.2byte	0x2
 4250 0135 30       		.byte	0x30
 4251 0136 9F       		.byte	0x9f
 4252 0137 00000000 		.4byte	0
 4253 013b 00000000 		.4byte	0
 4254              	.LLST14:
 4255 013f 46000000 		.4byte	.LVL25
 4256 0143 4A000000 		.4byte	.LVL26
 4257 0147 0300     		.2byte	0x3
 4258 0149 08       		.byte	0x8
 4259 014a 20       		.byte	0x20
 4260 014b 9F       		.byte	0x9f
 4261 014c 00000000 		.4byte	0
 4262 0150 00000000 		.4byte	0
 4263              	.LLST15:
ARM GAS  /tmp/cc4Naq0S.s 			page 76


 4264 0154 50000000 		.4byte	.LVL27
 4265 0158 54000000 		.4byte	.LVL28
 4266 015c 0200     		.2byte	0x2
 4267 015e 30       		.byte	0x30
 4268 015f 9F       		.byte	0x9f
 4269 0160 00000000 		.4byte	0
 4270 0164 00000000 		.4byte	0
 4271              	.LLST16:
 4272 0168 70000000 		.4byte	.LVL33
 4273 016c 7C000000 		.4byte	.LVL35
 4274 0170 0100     		.2byte	0x1
 4275 0172 50       		.byte	0x50
 4276 0173 00000000 		.4byte	0
 4277 0177 00000000 		.4byte	0
 4278              	.LLST17:
 4279 017b 66000000 		.4byte	.LVL31
 4280 017f 6A000000 		.4byte	.LVL32
 4281 0183 0300     		.2byte	0x3
 4282 0185 08       		.byte	0x8
 4283 0186 20       		.byte	0x20
 4284 0187 9F       		.byte	0x9f
 4285 0188 00000000 		.4byte	0
 4286 018c 00000000 		.4byte	0
 4287              	.LLST18:
 4288 0190 70000000 		.4byte	.LVL33
 4289 0194 74000000 		.4byte	.LVL34
 4290 0198 0200     		.2byte	0x2
 4291 019a 30       		.byte	0x30
 4292 019b 9F       		.byte	0x9f
 4293 019c 00000000 		.4byte	0
 4294 01a0 00000000 		.4byte	0
 4295              	.LLST19:
 4296 01a4 08000000 		.4byte	.LVL37
 4297 01a8 0B000000 		.4byte	.LVL38-1
 4298 01ac 0100     		.2byte	0x1
 4299 01ae 50       		.byte	0x50
 4300 01af 16000000 		.4byte	.LVL40
 4301 01b3 19000000 		.4byte	.LVL41-1
 4302 01b7 0100     		.2byte	0x1
 4303 01b9 50       		.byte	0x50
 4304 01ba 00000000 		.4byte	0
 4305 01be 00000000 		.4byte	0
 4306              	.LLST20:
 4307 01c2 0C000000 		.4byte	.LVL38
 4308 01c6 12000000 		.4byte	.LVL39
 4309 01ca 0300     		.2byte	0x3
 4310 01cc 08       		.byte	0x8
 4311 01cd 20       		.byte	0x20
 4312 01ce 9F       		.byte	0x9f
 4313 01cf 00000000 		.4byte	0
 4314 01d3 00000000 		.4byte	0
 4315              	.LLST21:
 4316 01d7 1A000000 		.4byte	.LVL41
 4317 01db 20000000 		.4byte	.LVL42
 4318 01df 0200     		.2byte	0x2
 4319 01e1 30       		.byte	0x30
 4320 01e2 9F       		.byte	0x9f
ARM GAS  /tmp/cc4Naq0S.s 			page 77


 4321 01e3 00000000 		.4byte	0
 4322 01e7 00000000 		.4byte	0
 4323              	.LLST22:
 4324 01eb 26000000 		.4byte	.LVL43
 4325 01ef 2A000000 		.4byte	.LVL44
 4326 01f3 0300     		.2byte	0x3
 4327 01f5 08       		.byte	0x8
 4328 01f6 20       		.byte	0x20
 4329 01f7 9F       		.byte	0x9f
 4330 01f8 00000000 		.4byte	0
 4331 01fc 00000000 		.4byte	0
 4332              	.LLST23:
 4333 0200 30000000 		.4byte	.LVL45
 4334 0204 36000000 		.4byte	.LVL46
 4335 0208 0300     		.2byte	0x3
 4336 020a 08       		.byte	0x8
 4337 020b 20       		.byte	0x20
 4338 020c 9F       		.byte	0x9f
 4339 020d 00000000 		.4byte	0
 4340 0211 00000000 		.4byte	0
 4341              	.LLST24:
 4342 0215 36000000 		.4byte	.LVL46
 4343 0219 3C000000 		.4byte	.LVL47
 4344 021d 0200     		.2byte	0x2
 4345 021f 30       		.byte	0x30
 4346 0220 9F       		.byte	0x9f
 4347 0221 00000000 		.4byte	0
 4348 0225 00000000 		.4byte	0
 4349              	.LLST25:
 4350 0229 3C000000 		.4byte	.LVL47
 4351 022d 42000000 		.4byte	.LVL48
 4352 0231 0300     		.2byte	0x3
 4353 0233 08       		.byte	0x8
 4354 0234 20       		.byte	0x20
 4355 0235 9F       		.byte	0x9f
 4356 0236 00000000 		.4byte	0
 4357 023a 00000000 		.4byte	0
 4358              	.LLST26:
 4359 023e 48000000 		.4byte	.LVL49
 4360 0242 4C000000 		.4byte	.LVL50
 4361 0246 0200     		.2byte	0x2
 4362 0248 30       		.byte	0x30
 4363 0249 9F       		.byte	0x9f
 4364 024a 00000000 		.4byte	0
 4365 024e 00000000 		.4byte	0
 4366              	.LLST27:
 4367 0252 52000000 		.4byte	.LVL51
 4368 0256 58000000 		.4byte	.LVL52
 4369 025a 0200     		.2byte	0x2
 4370 025c 30       		.byte	0x30
 4371 025d 9F       		.byte	0x9f
 4372 025e 00000000 		.4byte	0
 4373 0262 00000000 		.4byte	0
 4374              	.LLST28:
 4375 0266 58000000 		.4byte	.LVL52
 4376 026a 66000000 		.4byte	.LVL55
 4377 026e 0300     		.2byte	0x3
ARM GAS  /tmp/cc4Naq0S.s 			page 78


 4378 0270 91       		.byte	0x91
 4379 0271 64       		.sleb128 -28
 4380 0272 9F       		.byte	0x9f
 4381 0273 66000000 		.4byte	.LVL55
 4382 0277 7C000000 		.4byte	.LVL58
 4383 027b 0100     		.2byte	0x1
 4384 027d 54       		.byte	0x54
 4385 027e 7C000000 		.4byte	.LVL58
 4386 0282 A2000000 		.4byte	.LVL65
 4387 0286 0300     		.2byte	0x3
 4388 0288 91       		.byte	0x91
 4389 0289 64       		.sleb128 -28
 4390 028a 9F       		.byte	0x9f
 4391 028b A2000000 		.4byte	.LVL65
 4392 028f A8000000 		.4byte	.LFE228
 4393 0293 0300     		.2byte	0x3
 4394 0295 7D       		.byte	0x7d
 4395 0296 64       		.sleb128 -28
 4396 0297 9F       		.byte	0x9f
 4397 0298 00000000 		.4byte	0
 4398 029c 00000000 		.4byte	0
 4399              	.LLST29:
 4400 02a0 5C000000 		.4byte	.LVL53
 4401 02a4 80000000 		.4byte	.LVL59
 4402 02a8 0200     		.2byte	0x2
 4403 02aa 30       		.byte	0x30
 4404 02ab 9F       		.byte	0x9f
 4405 02ac 00000000 		.4byte	0
 4406 02b0 00000000 		.4byte	0
 4407              	.LLST30:
 4408 02b4 5C000000 		.4byte	.LVL53
 4409 02b8 80000000 		.4byte	.LVL59
 4410 02bc 0600     		.2byte	0x6
 4411 02be 03       		.byte	0x3
 4412 02bf 00000000 		.4byte	vtcb
 4413 02c3 9F       		.byte	0x9f
 4414 02c4 00000000 		.4byte	0
 4415 02c8 00000000 		.4byte	0
 4416              	.LLST31:
 4417 02cc 5C000000 		.4byte	.LVL53
 4418 02d0 80000000 		.4byte	.LVL59
 4419 02d4 0200     		.2byte	0x2
 4420 02d6 31       		.byte	0x31
 4421 02d7 9F       		.byte	0x9f
 4422 02d8 00000000 		.4byte	0
 4423 02dc 00000000 		.4byte	0
 4424              	.LLST32:
 4425 02e0 5C000000 		.4byte	.LVL53
 4426 02e4 66000000 		.4byte	.LVL55
 4427 02e8 0300     		.2byte	0x3
 4428 02ea 91       		.byte	0x91
 4429 02eb 64       		.sleb128 -28
 4430 02ec 9F       		.byte	0x9f
 4431 02ed 66000000 		.4byte	.LVL55
 4432 02f1 7C000000 		.4byte	.LVL58
 4433 02f5 0100     		.2byte	0x1
 4434 02f7 54       		.byte	0x54
ARM GAS  /tmp/cc4Naq0S.s 			page 79


 4435 02f8 7C000000 		.4byte	.LVL58
 4436 02fc 80000000 		.4byte	.LVL59
 4437 0300 0300     		.2byte	0x3
 4438 0302 91       		.byte	0x91
 4439 0303 64       		.sleb128 -28
 4440 0304 9F       		.byte	0x9f
 4441 0305 00000000 		.4byte	0
 4442 0309 00000000 		.4byte	0
 4443              	.LLST33:
 4444 030d 5C000000 		.4byte	.LVL53
 4445 0311 62000000 		.4byte	.LVL54
 4446 0315 0300     		.2byte	0x3
 4447 0317 08       		.byte	0x8
 4448 0318 20       		.byte	0x20
 4449 0319 9F       		.byte	0x9f
 4450 031a 00000000 		.4byte	0
 4451 031e 00000000 		.4byte	0
 4452              	.LLST34:
 4453 0322 62000000 		.4byte	.LVL54
 4454 0326 7A000000 		.4byte	.LVL57
 4455 032a 0200     		.2byte	0x2
 4456 032c 31       		.byte	0x31
 4457 032d 9F       		.byte	0x9f
 4458 032e 00000000 		.4byte	0
 4459 0332 00000000 		.4byte	0
 4460              	.LLST35:
 4461 0336 62000000 		.4byte	.LVL54
 4462 033a 7A000000 		.4byte	.LVL57
 4463 033e 0600     		.2byte	0x6
 4464 0340 03       		.byte	0x3
 4465 0341 00000000 		.4byte	vtcb
 4466 0345 9F       		.byte	0x9f
 4467 0346 00000000 		.4byte	0
 4468 034a 00000000 		.4byte	0
 4469              	.LLST36:
 4470 034e 62000000 		.4byte	.LVL54
 4471 0352 7A000000 		.4byte	.LVL57
 4472 0356 0200     		.2byte	0x2
 4473 0358 30       		.byte	0x30
 4474 0359 9F       		.byte	0x9f
 4475 035a 00000000 		.4byte	0
 4476 035e 00000000 		.4byte	0
 4477              	.LLST37:
 4478 0362 62000000 		.4byte	.LVL54
 4479 0366 66000000 		.4byte	.LVL55
 4480 036a 0300     		.2byte	0x3
 4481 036c 91       		.byte	0x91
 4482 036d 64       		.sleb128 -28
 4483 036e 9F       		.byte	0x9f
 4484 036f 66000000 		.4byte	.LVL55
 4485 0373 7A000000 		.4byte	.LVL57
 4486 0377 0100     		.2byte	0x1
 4487 0379 54       		.byte	0x54
 4488 037a 00000000 		.4byte	0
 4489 037e 00000000 		.4byte	0
 4490              	.LLST38:
 4491 0382 62000000 		.4byte	.LVL54
ARM GAS  /tmp/cc4Naq0S.s 			page 80


 4492 0386 66000000 		.4byte	.LVL55
 4493 038a 0300     		.2byte	0x3
 4494 038c 91       		.byte	0x91
 4495 038d 64       		.sleb128 -28
 4496 038e 9F       		.byte	0x9f
 4497 038f 66000000 		.4byte	.LVL55
 4498 0393 6E000000 		.4byte	.LVL56
 4499 0397 0100     		.2byte	0x1
 4500 0399 54       		.byte	0x54
 4501 039a 00000000 		.4byte	0
 4502 039e 00000000 		.4byte	0
 4503              	.LLST39:
 4504 03a2 7A000000 		.4byte	.LVL57
 4505 03a6 80000000 		.4byte	.LVL59
 4506 03aa 0200     		.2byte	0x2
 4507 03ac 30       		.byte	0x30
 4508 03ad 9F       		.byte	0x9f
 4509 03ae 00000000 		.4byte	0
 4510 03b2 00000000 		.4byte	0
 4511              	.LLST40:
 4512 03b6 86000000 		.4byte	.LVL60
 4513 03ba 92000000 		.4byte	.LVL63
 4514 03be 0300     		.2byte	0x3
 4515 03c0 91       		.byte	0x91
 4516 03c1 64       		.sleb128 -28
 4517 03c2 9F       		.byte	0x9f
 4518 03c3 00000000 		.4byte	0
 4519 03c7 00000000 		.4byte	0
 4520              	.LLST41:
 4521 03cb 86000000 		.4byte	.LVL60
 4522 03cf 8C000000 		.4byte	.LVL61
 4523 03d3 0300     		.2byte	0x3
 4524 03d5 08       		.byte	0x8
 4525 03d6 20       		.byte	0x20
 4526 03d7 9F       		.byte	0x9f
 4527 03d8 00000000 		.4byte	0
 4528 03dc 00000000 		.4byte	0
 4529              	.LLST42:
 4530 03e0 8E000000 		.4byte	.LVL62
 4531 03e4 92000000 		.4byte	.LVL63
 4532 03e8 0200     		.2byte	0x2
 4533 03ea 30       		.byte	0x30
 4534 03eb 9F       		.byte	0x9f
 4535 03ec 00000000 		.4byte	0
 4536 03f0 00000000 		.4byte	0
 4537              		.section	.debug_aranges,"",%progbits
 4538 0000 34000000 		.4byte	0x34
 4539 0004 0200     		.2byte	0x2
 4540 0006 00000000 		.4byte	.Ldebug_info0
 4541 000a 04       		.byte	0x4
 4542 000b 00       		.byte	0
 4543 000c 0000     		.2byte	0
 4544 000e 0000     		.2byte	0
 4545 0010 00000000 		.4byte	.LFB229
 4546 0014 1A000000 		.4byte	.LFE229-.LFB229
 4547 0018 00000000 		.4byte	.LFB227
 4548 001c 20000000 		.4byte	.LFE227-.LFB227
ARM GAS  /tmp/cc4Naq0S.s 			page 81


 4549 0020 00000000 		.4byte	.LFB230
 4550 0024 84000000 		.4byte	.LFE230-.LFB230
 4551 0028 00000000 		.4byte	.LFB228
 4552 002c A8000000 		.4byte	.LFE228-.LFB228
 4553 0030 00000000 		.4byte	0
 4554 0034 00000000 		.4byte	0
 4555              		.section	.debug_ranges,"",%progbits
 4556              	.Ldebug_ranges0:
 4557 0000 66000000 		.4byte	.LBB459
 4558 0004 7C000000 		.4byte	.LBE459
 4559 0008 80000000 		.4byte	.LBB469
 4560 000c 84000000 		.4byte	.LBE469
 4561 0010 00000000 		.4byte	0
 4562 0014 00000000 		.4byte	0
 4563 0018 00000000 		.4byte	.LFB229
 4564 001c 1A000000 		.4byte	.LFE229
 4565 0020 00000000 		.4byte	.LFB227
 4566 0024 20000000 		.4byte	.LFE227
 4567 0028 00000000 		.4byte	.LFB230
 4568 002c 84000000 		.4byte	.LFE230
 4569 0030 00000000 		.4byte	.LFB228
 4570 0034 A8000000 		.4byte	.LFE228
 4571 0038 00000000 		.4byte	0
 4572 003c 00000000 		.4byte	0
 4573              		.section	.debug_line,"",%progbits
 4574              	.Ldebug_line0:
 4575 0000 AE030000 		.section	.debug_str,"MS",%progbits,1
 4575      02005502 
 4575      00000201 
 4575      FB0E0D00 
 4575      01010101 
 4576              	.LASF23:
 4577 0000 74726566 		.ascii	"trefs_t\000"
 4577      735F7400 
 4578              	.LASF53:
 4579 0008 72656164 		.ascii	"ready_list_t\000"
 4579      795F6C69 
 4579      73745F74 
 4579      00
 4580              	.LASF4:
 4581 0015 73697A65 		.ascii	"size_t\000"
 4581      5F7400
 4582              	.LASF145:
 4583 001c 76746362 		.ascii	"vtcb\000"
 4583      00
 4584              	.LASF18:
 4585 0021 75696E74 		.ascii	"uint64_t\000"
 4585      36345F74 
 4585      00
 4586              	.LASF26:
 4587 002a 6576656E 		.ascii	"eventmask_t\000"
 4587      746D6173 
 4587      6B5F7400 
 4588              	.LASF5:
 4589 0036 5F5F7569 		.ascii	"__uint8_t\000"
 4589      6E74385F 
 4589      7400
ARM GAS  /tmp/cc4Naq0S.s 			page 82


 4590              	.LASF85:
 4591 0040 706F7274 		.ascii	"port_intctx\000"
 4591      5F696E74 
 4591      63747800 
 4592              	.LASF72:
 4593 004c 73797374 		.ascii	"system_debug_t\000"
 4593      656D5F64 
 4593      65627567 
 4593      5F7400
 4594              	.LASF109:
 4595 005b 706F7274 		.ascii	"port_lock\000"
 4595      5F6C6F63 
 4595      6B00
 4596              	.LASF14:
 4597 0065 6C6F6E67 		.ascii	"long long unsigned int\000"
 4597      206C6F6E 
 4597      6720756E 
 4597      7369676E 
 4597      65642069 
 4598              	.LASF156:
 4599 007c 63685654 		.ascii	"chVTDoResetI\000"
 4599      446F5265 
 4599      73657449 
 4599      00
 4600              	.LASF89:
 4601 0089 65786974 		.ascii	"exitcode\000"
 4601      636F6465 
 4601      00
 4602              	.LASF79:
 4603 0092 6D61696E 		.ascii	"mainthread\000"
 4603      74687265 
 4603      616400
 4604              	.LASF69:
 4605 009d 76697274 		.ascii	"virtual_timers_list_t\000"
 4605      75616C5F 
 4605      74696D65 
 4605      72735F6C 
 4605      6973745F 
 4606              	.LASF147:
 4607 00b3 49544D5F 		.ascii	"ITM_RxBuffer\000"
 4607      52784275 
 4607      66666572 
 4607      00
 4608              	.LASF52:
 4609 00c0 63685F74 		.ascii	"ch_threads_queue\000"
 4609      68726561 
 4609      64735F71 
 4609      75657565 
 4609      00
 4610              	.LASF32:
 4611 00d1 705F7072 		.ascii	"p_prio\000"
 4611      696F00
 4612              	.LASF142:
 4613 00d8 73797333 		.ascii	"sys3_execute\000"
 4613      5F657865 
 4613      63757465 
 4613      00
ARM GAS  /tmp/cc4Naq0S.s 			page 83


 4614              	.LASF1:
 4615 00e5 6C6F6E67 		.ascii	"long long int\000"
 4615      206C6F6E 
 4615      6720696E 
 4615      7400
 4616              	.LASF3:
 4617 00f3 7369676E 		.ascii	"signed char\000"
 4617      65642063 
 4617      68617200 
 4618              	.LASF46:
 4619 00ff 705F6D70 		.ascii	"p_mpool\000"
 4619      6F6F6C00 
 4620              	.LASF99:
 4621 0107 6D5F7175 		.ascii	"m_queue\000"
 4621      65756500 
 4622              	.LASF140:
 4623 010f 63685379 		.ascii	"chSysUnconditionalUnlock\000"
 4623      73556E63 
 4623      6F6E6469 
 4623      74696F6E 
 4623      616C556E 
 4624              	.LASF78:
 4625 0128 76746C69 		.ascii	"vtlist\000"
 4625      737400
 4626              	.LASF110:
 4627 012f 706F7274 		.ascii	"port_unlock\000"
 4627      5F756E6C 
 4627      6F636B00 
 4628              	.LASF91:
 4629 013b 77747472 		.ascii	"wttrp\000"
 4629      7000
 4630              	.LASF76:
 4631 0141 63685F73 		.ascii	"ch_system\000"
 4631      79737465 
 4631      6D00
 4632              	.LASF10:
 4633 014b 6C6F6E67 		.ascii	"long int\000"
 4633      20696E74 
 4633      00
 4634              	.LASF113:
 4635 0154 706F7274 		.ascii	"port_disable\000"
 4635      5F646973 
 4635      61626C65 
 4635      00
 4636              	.LASF22:
 4637 0161 74737461 		.ascii	"tstate_t\000"
 4637      74655F74 
 4637      00
 4638              	.LASF118:
 4639 016a 5F5F6765 		.ascii	"__get_BASEPRI\000"
 4639      745F4241 
 4639      53455052 
 4639      4900
 4640              	.LASF130:
 4641 0178 63685379 		.ascii	"chSysEnable\000"
 4641      73456E61 
 4641      626C6500 
ARM GAS  /tmp/cc4Naq0S.s 			page 84


 4642              	.LASF151:
 4643 0184 70617474 		.ascii	"patternsys\000"
 4643      65726E73 
 4643      797300
 4644              	.LASF34:
 4645 018f 705F6E65 		.ascii	"p_newer\000"
 4645      77657200 
 4646              	.LASF96:
 4647 0197 735F7175 		.ascii	"s_queue\000"
 4647      65756500 
 4648              	.LASF20:
 4649 019f 73797373 		.ascii	"syssts_t\000"
 4649      74735F74 
 4649      00
 4650              	.LASF58:
 4651 01a8 725F6E65 		.ascii	"r_newer\000"
 4651      77657200 
 4652              	.LASF82:
 4653 01b0 72656761 		.ascii	"regarm_t\000"
 4653      726D5F74 
 4653      00
 4654              	.LASF65:
 4655 01b9 76745F70 		.ascii	"vt_prev\000"
 4655      72657600 
 4656              	.LASF103:
 4657 01c1 6D757465 		.ascii	"mutex_t\000"
 4657      785F7400 
 4658              	.LASF120:
 4659 01c9 76616C75 		.ascii	"value\000"
 4659      6500
 4660              	.LASF80:
 4661 01cf 69646C65 		.ascii	"idle_thread_wa\000"
 4661      5F746872 
 4661      6561645F 
 4661      776100
 4662              	.LASF27:
 4663 01de 636E745F 		.ascii	"cnt_t\000"
 4663      7400
 4664              	.LASF0:
 4665 01e4 756E7369 		.ascii	"unsigned int\000"
 4665      676E6564 
 4665      20696E74 
 4665      00
 4666              	.LASF64:
 4667 01f1 76745F6E 		.ascii	"vt_next\000"
 4667      65787400 
 4668              	.LASF92:
 4669 01f9 77747365 		.ascii	"wtsemp\000"
 4669      6D7000
 4670              	.LASF66:
 4671 0200 76745F64 		.ascii	"vt_delta\000"
 4671      656C7461 
 4671      00
 4672              	.LASF41:
 4673 0209 705F6D73 		.ascii	"p_msgqueue\000"
 4673      67717565 
 4673      756500
ARM GAS  /tmp/cc4Naq0S.s 			page 85


 4674              	.LASF122:
 4675 0214 706F7274 		.ascii	"port_get_irq_status\000"
 4675      5F676574 
 4675      5F697271 
 4675      5F737461 
 4675      74757300 
 4676              	.LASF107:
 4677 0228 74656172 		.ascii	"teardown\000"
 4677      646F776E 
 4677      00
 4678              	.LASF54:
 4679 0231 63685F72 		.ascii	"ch_ready_list\000"
 4679      65616479 
 4679      5F6C6973 
 4679      7400
 4680              	.LASF105:
 4681 023f 6E616D65 		.ascii	"name\000"
 4681      00
 4682              	.LASF132:
 4683 0244 63685379 		.ascii	"chSysDisable\000"
 4683      73446973 
 4683      61626C65 
 4683      00
 4684              	.LASF97:
 4685 0251 735F636E 		.ascii	"s_cnt\000"
 4685      7400
 4686              	.LASF8:
 4687 0257 73686F72 		.ascii	"short unsigned int\000"
 4687      7420756E 
 4687      7369676E 
 4687      65642069 
 4687      6E7400
 4688              	.LASF49:
 4689 026a 63685F74 		.ascii	"ch_thread\000"
 4689      68726561 
 4689      6400
 4690              	.LASF25:
 4691 0274 6D73675F 		.ascii	"msg_t\000"
 4691      7400
 4692              	.LASF114:
 4693 027a 706F7274 		.ascii	"port_suspend\000"
 4693      5F737573 
 4693      70656E64 
 4693      00
 4694              	.LASF90:
 4695 0287 77746F62 		.ascii	"wtobjp\000"
 4695      6A7000
 4696              	.LASF44:
 4697 028e 705F6D74 		.ascii	"p_mtxlist\000"
 4697      786C6973 
 4697      7400
 4698              	.LASF157:
 4699 0298 63685654 		.ascii	"chVTDoSetI\000"
 4699      446F5365 
 4699      744900
 4700              	.LASF115:
 4701 02a3 706F7274 		.ascii	"port_enable\000"
ARM GAS  /tmp/cc4Naq0S.s 			page 86


 4701      5F656E61 
 4701      626C6500 
 4702              	.LASF9:
 4703 02af 5F5F696E 		.ascii	"__int32_t\000"
 4703      7433325F 
 4703      7400
 4704              	.LASF128:
 4705 02b9 63685654 		.ascii	"chVTObjectInit\000"
 4705      4F626A65 
 4705      6374496E 
 4705      697400
 4706              	.LASF83:
 4707 02c8 73746B61 		.ascii	"stkalign_t\000"
 4707      6C69676E 
 4707      5F7400
 4708              	.LASF40:
 4709 02d3 705F7761 		.ascii	"p_waiting\000"
 4709      6974696E 
 4709      6700
 4710              	.LASF81:
 4711 02dd 73697A65 		.ascii	"sizetype\000"
 4711      74797065 
 4711      00
 4712              	.LASF47:
 4713 02e6 74687265 		.ascii	"thread_reference_t\000"
 4713      61645F72 
 4713      65666572 
 4713      656E6365 
 4713      5F7400
 4714              	.LASF70:
 4715 02f9 63685F76 		.ascii	"ch_virtual_timers_list\000"
 4715      69727475 
 4715      616C5F74 
 4715      696D6572 
 4715      735F6C69 
 4716              	.LASF2:
 4717 0310 6C6F6E67 		.ascii	"long double\000"
 4717      20646F75 
 4717      626C6500 
 4718              	.LASF148:
 4719 031c 74657374 		.ascii	"testsys1\000"
 4719      73797331 
 4719      00
 4720              	.LASF149:
 4721 0325 74657374 		.ascii	"testsys2\000"
 4721      73797332 
 4721      00
 4722              	.LASF150:
 4723 032e 74657374 		.ascii	"testsys3\000"
 4723      73797333 
 4723      00
 4724              	.LASF71:
 4725 0337 76745F6C 		.ascii	"vt_lasttime\000"
 4725      61737474 
 4725      696D6500 
 4726              	.LASF143:
 4727 0343 63685654 		.ascii	"chVTSetI\000"
ARM GAS  /tmp/cc4Naq0S.s 			page 87


 4727      53657449 
 4727      00
 4728              	.LASF35:
 4729 034c 705F6F6C 		.ascii	"p_older\000"
 4729      64657200 
 4730              	.LASF57:
 4731 0354 725F6374 		.ascii	"r_ctx\000"
 4731      7800
 4732              	.LASF119:
 4733 035a 706F7274 		.ascii	"port_irq_enabled\000"
 4733      5F697271 
 4733      5F656E61 
 4733      626C6564 
 4733      00
 4734              	.LASF137:
 4735 036b 63685654 		.ascii	"chVTSet\000"
 4735      53657400 
 4736              	.LASF131:
 4737 0373 63685379 		.ascii	"chSysSuspend\000"
 4737      73537573 
 4737      70656E64 
 4737      00
 4738              	.LASF87:
 4739 0380 746D5F63 		.ascii	"tm_calibration_t\000"
 4739      616C6962 
 4739      72617469 
 4739      6F6E5F74 
 4739      00
 4740              	.LASF106:
 4741 0391 73657475 		.ascii	"setup\000"
 4741      7000
 4742              	.LASF60:
 4743 0397 725F6375 		.ascii	"r_current\000"
 4743      7272656E 
 4743      7400
 4744              	.LASF59:
 4745 03a1 725F6F6C 		.ascii	"r_older\000"
 4745      64657200 
 4746              	.LASF112:
 4747 03a9 5F5F656E 		.ascii	"__enable_irq\000"
 4747      61626C65 
 4747      5F697271 
 4747      00
 4748              	.LASF13:
 4749 03b6 5F5F7569 		.ascii	"__uint64_t\000"
 4749      6E743634 
 4749      5F7400
 4750              	.LASF111:
 4751 03c1 5F5F6469 		.ascii	"__disable_irq\000"
 4751      7361626C 
 4751      655F6972 
 4751      7100
 4752              	.LASF62:
 4753 03cf 76697274 		.ascii	"virtual_timer_t\000"
 4753      75616C5F 
 4753      74696D65 
 4753      725F7400 
ARM GAS  /tmp/cc4Naq0S.s 			page 88


 4754              	.LASF31:
 4755 03df 705F7072 		.ascii	"p_prev\000"
 4755      657600
 4756              	.LASF108:
 4757 03e6 65786563 		.ascii	"execute\000"
 4757      75746500 
 4758              	.LASF24:
 4759 03ee 74707269 		.ascii	"tprio_t\000"
 4759      6F5F7400 
 4760              	.LASF133:
 4761 03f6 63685379 		.ascii	"chSysUnlockFromISR\000"
 4761      73556E6C 
 4761      6F636B46 
 4761      726F6D49 
 4761      535200
 4762              	.LASF73:
 4763 0409 63685F73 		.ascii	"ch_system_debug\000"
 4763      79737465 
 4763      6D5F6465 
 4763      62756700 
 4764              	.LASF121:
 4765 0419 5F426F6F 		.ascii	"_Bool\000"
 4765      6C00
 4766              	.LASF16:
 4767 041f 696E7433 		.ascii	"int32_t\000"
 4767      325F7400 
 4768              	.LASF6:
 4769 0427 756E7369 		.ascii	"unsigned char\000"
 4769      676E6564 
 4769      20636861 
 4769      7200
 4770              	.LASF138:
 4771 0435 64656C61 		.ascii	"delay\000"
 4771      7900
 4772              	.LASF37:
 4773 043b 705F7374 		.ascii	"p_state\000"
 4773      61746500 
 4774              	.LASF7:
 4775 0443 73686F72 		.ascii	"short int\000"
 4775      7420696E 
 4775      7400
 4776              	.LASF56:
 4777 044d 725F7072 		.ascii	"r_prio\000"
 4777      696F00
 4778              	.LASF159:
 4779 0454 474E5520 		.ascii	"GNU C11 5.3.1 20160307 (release) [ARM/embedded-5-br"
 4779      43313120 
 4779      352E332E 
 4779      31203230 
 4779      31363033 
 4780 0487 616E6368 		.ascii	"anch revision 234589] -mcpu=cortex-m4 -mno-thumb-in"
 4780      20726576 
 4780      6973696F 
 4780      6E203233 
 4780      34353839 
 4781 04ba 74657277 		.ascii	"terwork -mthumb -ggdb -O2 -fomit-frame-pointer -fal"
 4781      6F726B20 
ARM GAS  /tmp/cc4Naq0S.s 			page 89


 4781      2D6D7468 
 4781      756D6220 
 4781      2D676764 
 4782 04ed 69676E2D 		.ascii	"ign-functions=16 -ffunction-sections -fdata-section"
 4782      66756E63 
 4782      74696F6E 
 4782      733D3136 
 4782      202D6666 
 4783 0520 73202D66 		.ascii	"s -fno-common\000"
 4783      6E6F2D63 
 4783      6F6D6D6F 
 4783      6E00
 4784              	.LASF94:
 4785 052e 65776D61 		.ascii	"ewmask\000"
 4785      736B00
 4786              	.LASF30:
 4787 0535 705F6E65 		.ascii	"p_next\000"
 4787      787400
 4788              	.LASF141:
 4789 053c 63685379 		.ascii	"chSysUnconditionalLock\000"
 4789      73556E63 
 4789      6F6E6469 
 4789      74696F6E 
 4789      616C4C6F 
 4790              	.LASF38:
 4791 0553 705F666C 		.ascii	"p_flags\000"
 4791      61677300 
 4792              	.LASF127:
 4793 055b 5F5F6675 		.ascii	"__func__\000"
 4793      6E635F5F 
 4793      00
 4794              	.LASF124:
 4795 0564 63685379 		.ascii	"chSysLock\000"
 4795      734C6F63 
 4795      6B00
 4796              	.LASF129:
 4797 056e 63685654 		.ascii	"chVTIsArmedI\000"
 4797      49734172 
 4797      6D656449 
 4797      00
 4798              	.LASF88:
 4799 057b 7264796D 		.ascii	"rdymsg\000"
 4799      736700
 4800              	.LASF63:
 4801 0582 63685F76 		.ascii	"ch_virtual_timer\000"
 4801      69727475 
 4801      616C5F74 
 4801      696D6572 
 4801      00
 4802              	.LASF135:
 4803 0593 63685654 		.ascii	"chVTResetI\000"
 4803      52657365 
 4803      744900
 4804              	.LASF104:
 4805 059e 74657374 		.ascii	"testcase\000"
 4805      63617365 
 4805      00
ARM GAS  /tmp/cc4Naq0S.s 			page 90


 4806              	.LASF95:
 4807 05a7 63685F73 		.ascii	"ch_semaphore\000"
 4807      656D6170 
 4807      686F7265 
 4807      00
 4808              	.LASF43:
 4809 05b4 705F6570 		.ascii	"p_epending\000"
 4809      656E6469 
 4809      6E6700
 4810              	.LASF158:
 4811 05bf 63685468 		.ascii	"chThdSleep\000"
 4811      64536C65 
 4811      657000
 4812              	.LASF17:
 4813 05ca 75696E74 		.ascii	"uint32_t\000"
 4813      33325F74 
 4813      00
 4814              	.LASF93:
 4815 05d3 77746D74 		.ascii	"wtmtxp\000"
 4815      787000
 4816              	.LASF55:
 4817 05da 725F7175 		.ascii	"r_queue\000"
 4817      65756500 
 4818              	.LASF153:
 4819 05e2 63685379 		.ascii	"chSysRestoreStatusX\000"
 4819      73526573 
 4819      746F7265 
 4819      53746174 
 4819      75735800 
 4820              	.LASF50:
 4821 05f6 63685F74 		.ascii	"ch_threads_list\000"
 4821      68726561 
 4821      64735F6C 
 4821      69737400 
 4822              	.LASF152:
 4823 0606 63685379 		.ascii	"chSysGetStatusAndLockX\000"
 4823      73476574 
 4823      53746174 
 4823      7573416E 
 4823      644C6F63 
 4824              	.LASF12:
 4825 061d 6C6F6E67 		.ascii	"long unsigned int\000"
 4825      20756E73 
 4825      69676E65 
 4825      6420696E 
 4825      7400
 4826              	.LASF102:
 4827 062f 63686172 		.ascii	"char\000"
 4827      00
 4828              	.LASF117:
 4829 0634 706F7274 		.ascii	"port_unlock_from_isr\000"
 4829      5F756E6C 
 4829      6F636B5F 
 4829      66726F6D 
 4829      5F697372 
 4830              	.LASF29:
 4831 0649 74687265 		.ascii	"thread_t\000"
ARM GAS  /tmp/cc4Naq0S.s 			page 91


 4831      61645F74 
 4831      00
 4832              	.LASF101:
 4833 0652 6D5F6E65 		.ascii	"m_next\000"
 4833      787400
 4834              	.LASF28:
 4835 0659 73797374 		.ascii	"systime_t\000"
 4835      696D655F 
 4835      7400
 4836              	.LASF45:
 4837 0663 705F7265 		.ascii	"p_realprio\000"
 4837      616C7072 
 4837      696F00
 4838              	.LASF61:
 4839 066e 76746675 		.ascii	"vtfunc_t\000"
 4839      6E635F74 
 4839      00
 4840              	.LASF11:
 4841 0677 5F5F7569 		.ascii	"__uint32_t\000"
 4841      6E743332 
 4841      5F7400
 4842              	.LASF125:
 4843 0682 5F5F7365 		.ascii	"__set_BASEPRI\000"
 4843      745F4241 
 4843      53455052 
 4843      4900
 4844              	.LASF74:
 4845 0690 70616E69 		.ascii	"panic_msg\000"
 4845      635F6D73 
 4845      6700
 4846              	.LASF86:
 4847 069a 6F666673 		.ascii	"offset\000"
 4847      657400
 4848              	.LASF84:
 4849 06a1 636F6E74 		.ascii	"context\000"
 4849      65787400 
 4850              	.LASF75:
 4851 06a9 63685F73 		.ascii	"ch_system_t\000"
 4851      79737465 
 4851      6D5F7400 
 4852              	.LASF146:
 4853 06b5 73797331 		.ascii	"sys1_execute\000"
 4853      5F657865 
 4853      63757465 
 4853      00
 4854              	.LASF19:
 4855 06c2 7274636E 		.ascii	"rtcnt_t\000"
 4855      745F7400 
 4856              	.LASF116:
 4857 06ca 706F7274 		.ascii	"port_lock_from_isr\000"
 4857      5F6C6F63 
 4857      6B5F6672 
 4857      6F6D5F69 
 4857      737200
 4858              	.LASF68:
 4859 06dd 76745F70 		.ascii	"vt_par\000"
 4859      617200
ARM GAS  /tmp/cc4Naq0S.s 			page 92


 4860              	.LASF139:
 4861 06e4 76746675 		.ascii	"vtfunc\000"
 4861      6E6300
 4862              	.LASF51:
 4863 06eb 74687265 		.ascii	"threads_queue_t\000"
 4863      6164735F 
 4863      71756575 
 4863      655F7400 
 4864              	.LASF98:
 4865 06fb 63685F6D 		.ascii	"ch_mutex\000"
 4865      75746578 
 4865      00
 4866              	.LASF39:
 4867 0704 705F7265 		.ascii	"p_refs\000"
 4867      667300
 4868              	.LASF77:
 4869 070b 726C6973 		.ascii	"rlist\000"
 4869      7400
 4870              	.LASF136:
 4871 0711 63685654 		.ascii	"chVTIsArmed\000"
 4871      49734172 
 4871      6D656400 
 4872              	.LASF15:
 4873 071d 75696E74 		.ascii	"uint8_t\000"
 4873      385F7400 
 4874              	.LASF160:
 4875 0725 2F686F6D 		.ascii	"/home/selim/working/ChibiOS/test/rt/testsys.c\000"
 4875      652F7365 
 4875      6C696D2F 
 4875      776F726B 
 4875      696E672F 
 4876              	.LASF134:
 4877 0753 63685379 		.ascii	"chSysLockFromISR\000"
 4877      734C6F63 
 4877      6B46726F 
 4877      6D495352 
 4877      00
 4878              	.LASF36:
 4879 0764 705F6E61 		.ascii	"p_name\000"
 4879      6D6500
 4880              	.LASF155:
 4881 076b 5F746573 		.ascii	"_test_assert\000"
 4881      745F6173 
 4881      73657274 
 4881      00
 4882              	.LASF48:
 4883 0778 74687265 		.ascii	"threads_list_t\000"
 4883      6164735F 
 4883      6C697374 
 4883      5F7400
 4884              	.LASF154:
 4885 0787 63685379 		.ascii	"chSysIntegrityCheckI\000"
 4885      73496E74 
 4885      65677269 
 4885      74794368 
 4885      65636B49 
 4886              	.LASF21:
ARM GAS  /tmp/cc4Naq0S.s 			page 93


 4887 079c 746D6F64 		.ascii	"tmode_t\000"
 4887      655F7400 
 4888              	.LASF126:
 4889 07a4 63685379 		.ascii	"chSysUnlock\000"
 4889      73556E6C 
 4889      6F636B00 
 4890              	.LASF42:
 4891 07b0 705F6D73 		.ascii	"p_msg\000"
 4891      6700
 4892              	.LASF100:
 4893 07b6 6D5F6F77 		.ascii	"m_owner\000"
 4893      6E657200 
 4894              	.LASF123:
 4895 07be 72657375 		.ascii	"result\000"
 4895      6C7400
 4896              	.LASF144:
 4897 07c5 73797332 		.ascii	"sys2_execute\000"
 4897      5F657865 
 4897      63757465 
 4897      00
 4898              	.LASF33:
 4899 07d2 705F6374 		.ascii	"p_ctx\000"
 4899      7800
 4900              	.LASF67:
 4901 07d8 76745F66 		.ascii	"vt_func\000"
 4901      756E6300 
 4902              		.ident	"GCC: (GNU Tools for ARM Embedded Processors) 5.3.1 20160307 (release) [ARM/embedded-5-bran
ARM GAS  /tmp/cc4Naq0S.s 			page 94


DEFINED SYMBOLS
                            *ABS*:0000000000000000 testsys.c
     /tmp/cc4Naq0S.s:20     .text.sys2_execute:0000000000000000 $t
     /tmp/cc4Naq0S.s:25     .text.sys2_execute:0000000000000000 sys2_execute
     /tmp/cc4Naq0S.s:140    .text.vtcb:0000000000000000 $t
     /tmp/cc4Naq0S.s:145    .text.vtcb:0000000000000000 vtcb
     /tmp/cc4Naq0S.s:239    .text.sys3_execute:0000000000000000 $t
     /tmp/cc4Naq0S.s:244    .text.sys3_execute:0000000000000000 sys3_execute
     /tmp/cc4Naq0S.s:473    .text.sys1_execute:0000000000000000 $t
     /tmp/cc4Naq0S.s:478    .text.sys1_execute:0000000000000000 sys1_execute
     /tmp/cc4Naq0S.s:869    .text.sys1_execute:00000000000000a4 $d
     /tmp/cc4Naq0S.s:917    .rodata.patternsys:0000000000000000 patternsys
     /tmp/cc4Naq0S.s:899    .rodata.testsys3:0000000000000000 testsys3
     /tmp/cc4Naq0S.s:890    .rodata.testsys2:0000000000000000 testsys2
     /tmp/cc4Naq0S.s:881    .rodata.testsys1:0000000000000000 testsys1
     /tmp/cc4Naq0S.s:878    .rodata.testsys1:0000000000000000 $d
     /tmp/cc4Naq0S.s:887    .rodata.testsys2:0000000000000000 $d
     /tmp/cc4Naq0S.s:896    .rodata.testsys3:0000000000000000 $d
     /tmp/cc4Naq0S.s:905    .rodata.str1.4:0000000000000000 $d
     /tmp/cc4Naq0S.s:914    .rodata.patternsys:0000000000000000 $d
                     .debug_frame:0000000000000010 $d

UNDEFINED SYMBOLS
chSysGetStatusAndLockX
chSysRestoreStatusX
chSysIntegrityCheckI
_test_assert
chVTDoResetI
chVTDoSetI
chThdSleep
