ARM GAS  /tmp/ccke2v8u.s 			page 1


   1              		.syntax unified
   2              		.cpu cortex-m4
   3              		.fpu softvfp
   4              		.eabi_attribute 20, 1
   5              		.eabi_attribute 21, 1
   6              		.eabi_attribute 23, 3
   7              		.eabi_attribute 24, 1
   8              		.eabi_attribute 25, 1
   9              		.eabi_attribute 26, 1
  10              		.eabi_attribute 30, 2
  11              		.eabi_attribute 34, 1
  12              		.eabi_attribute 18, 4
  13              		.thumb
  14              		.syntax unified
  15              		.file	"testdyn.c"
  16              		.text
  17              	.Ltext0:
  18              		.cfi_sections	.debug_frame
  19              		.section	.text.dyn1_execute,"ax",%progbits
  20              		.align	2
  21              		.p2align 4,,15
  22              		.thumb
  23              		.thumb_func
  24              		.type	dyn1_execute, %function
  25              	dyn1_execute:
  26              	.LFB229:
  27              		.file 1 "/home/selim/working/ChibiOS/test/rt/testdyn.c"
  28              		.loc 1 82 0
  29              		.cfi_startproc
  30              		@ args = 0, pretend = 0, frame = 8
  31              		@ frame_needed = 0, uses_anonymous_args = 0
  32 0000 70B5     		push	{r4, r5, r6, lr}
  33              		.cfi_def_cfa_offset 16
  34              		.cfi_offset 4, -16
  35              		.cfi_offset 5, -12
  36              		.cfi_offset 6, -8
  37              		.cfi_offset 14, -4
  38              	.LBB16:
  39              	.LBB17:
  40              	.LBB18:
  41              	.LBB19:
  42              		.file 2 "/home/selim/working/ChibiOS/os/rt/include/chthreads.h"
  43              		.loc 2 176 0
  44 0002 344B     		ldr	r3, .L13
  45              	.LBE19:
  46              	.LBE18:
  47              	.LBE17:
  48              	.LBE16:
  49              		.loc 1 87 0
  50 0004 3448     		ldr	r0, .L13+4
  51              	.LBB22:
  52              	.LBB20:
  53              		.loc 2 189 0
  54 0006 9B69     		ldr	r3, [r3, #24]
  55              	.LBE20:
  56              	.LBE22:
  57              		.loc 1 89 0
ARM GAS  /tmp/ccke2v8u.s 			page 2


  58 0008 344C     		ldr	r4, .L13+8
  59              	.LBB23:
  60              	.LBB21:
  61              		.loc 2 189 0
  62 000a 9D68     		ldr	r5, [r3, #8]
  63              	.LBE21:
  64              	.LBE23:
  65              		.loc 1 82 0
  66 000c 84B0     		sub	sp, sp, #16
  67              		.cfi_def_cfa_offset 32
  68              		.loc 1 87 0
  69 000e 03A9     		add	r1, sp, #12
  70 0010 FFF7FEFF 		bl	chHeapStatus
  71              	.LVL0:
  72              		.loc 1 89 0
  73 0014 324B     		ldr	r3, .L13+12
  74 0016 0093     		str	r3, [sp]
  75 0018 6A1E     		subs	r2, r5, #1
  76 001a 324B     		ldr	r3, .L13+16
  77 001c 2E48     		ldr	r0, .L13+4
  78 001e 4FF4A471 		mov	r1, #328
  79 0022 FFF7FEFF 		bl	chThdCreateFromHeap
  80              	.LVL1:
  81              		.loc 1 92 0
  82 0026 304B     		ldr	r3, .L13+20
  83              		.loc 1 89 0
  84 0028 2060     		str	r0, [r4]
  85              		.loc 1 92 0
  86 002a AA1E     		subs	r2, r5, #2
  87 002c 0093     		str	r3, [sp]
  88 002e 4FF4A471 		mov	r1, #328
  89 0032 2C4B     		ldr	r3, .L13+16
  90 0034 2848     		ldr	r0, .L13+4
  91 0036 FFF7FEFF 		bl	chThdCreateFromHeap
  92              	.LVL2:
  93              		.loc 1 96 0
  94 003a 02A9     		add	r1, sp, #8
  95              		.loc 1 92 0
  96 003c 6060     		str	r0, [r4, #4]
  97              		.loc 1 96 0
  98 003e 2648     		ldr	r0, .L13+4
  99 0040 FFF7FEFF 		bl	chHeapStatus
 100              	.LVL3:
 101              		.loc 1 97 0
 102 0044 0299     		ldr	r1, [sp, #8]
 103 0046 2448     		ldr	r0, .L13+4
 104 0048 FFF7FEFF 		bl	chHeapAlloc
 105              	.LVL4:
 106              		.loc 1 98 0
 107 004c 274B     		ldr	r3, .L13+24
 108 004e 0093     		str	r3, [sp]
 109 0050 4FF4A471 		mov	r1, #328
 110              		.loc 1 97 0
 111 0054 0646     		mov	r6, r0
 112              	.LVL5:
 113              		.loc 1 98 0
 114 0056 EA1E     		subs	r2, r5, #3
ARM GAS  /tmp/ccke2v8u.s 			page 3


 115 0058 224B     		ldr	r3, .L13+16
 116 005a 1F48     		ldr	r0, .L13+4
 117              	.LVL6:
 118 005c FFF7FEFF 		bl	chThdCreateFromHeap
 119              	.LVL7:
 120 0060 A060     		str	r0, [r4, #8]
 121              		.loc 1 101 0
 122 0062 3046     		mov	r0, r6
 123 0064 FFF7FEFF 		bl	chHeapFree
 124              	.LVL8:
 125              		.loc 1 103 0
 126 0068 2168     		ldr	r1, [r4]
 127 006a 21B1     		cbz	r1, .L2
 128              		.loc 1 103 0 is_stmt 0 discriminator 1
 129 006c 6168     		ldr	r1, [r4, #4]
 130 006e 11B1     		cbz	r1, .L2
 131              		.loc 1 103 0 discriminator 3
 132 0070 A168     		ldr	r1, [r4, #8]
 133 0072 31B3     		cbz	r1, .L11
 134 0074 0021     		movs	r1, #0
 135              	.L2:
 136              		.loc 1 103 0 discriminator 12
 137 0076 0120     		movs	r0, #1
 138 0078 FFF7FEFF 		bl	_test_assert
 139              	.LVL9:
 140 007c 08B1     		cbz	r0, .L12
 141              	.L1:
 142              		.loc 1 117 0 is_stmt 1
 143 007e 04B0     		add	sp, sp, #16
 144              		.cfi_remember_state
 145              		.cfi_def_cfa_offset 16
 146              		@ sp needed
 147 0080 70BD     		pop	{r4, r5, r6, pc}
 148              	.LVL10:
 149              	.L12:
 150              		.cfi_restore_state
 151              		.loc 1 111 0
 152 0082 FFF7FEFF 		bl	test_wait_threads
 153              	.LVL11:
 154              		.loc 1 112 0
 155 0086 1A49     		ldr	r1, .L13+28
 156 0088 0220     		movs	r0, #2
 157 008a FFF7FEFF 		bl	_test_assert_sequence
 158              	.LVL12:
 159 008e 0028     		cmp	r0, #0
 160 0090 F5D1     		bne	.L1
 161              		.loc 1 115 0
 162 0092 02A9     		add	r1, sp, #8
 163 0094 1048     		ldr	r0, .L13+4
 164 0096 FFF7FEFF 		bl	chHeapStatus
 165              	.LVL13:
 166 009a A0F10101 		sub	r1, r0, #1
 167 009e B1FA81F1 		clz	r1, r1
 168 00a2 4909     		lsrs	r1, r1, #5
 169 00a4 0320     		movs	r0, #3
 170 00a6 FFF7FEFF 		bl	_test_assert
 171              	.LVL14:
ARM GAS  /tmp/ccke2v8u.s 			page 4


 172 00aa 0028     		cmp	r0, #0
 173 00ac E7D1     		bne	.L1
 174              		.loc 1 116 0
 175 00ae 0299     		ldr	r1, [sp, #8]
 176 00b0 039B     		ldr	r3, [sp, #12]
 177 00b2 C91A     		subs	r1, r1, r3
 178 00b4 B1FA81F1 		clz	r1, r1
 179 00b8 4909     		lsrs	r1, r1, #5
 180 00ba 0420     		movs	r0, #4
 181 00bc FFF7FEFF 		bl	_test_assert
 182              	.LVL15:
 183 00c0 DDE7     		b	.L1
 184              	.L11:
 185              		.loc 1 103 0 discriminator 5
 186 00c2 E368     		ldr	r3, [r4, #12]
 187 00c4 002B     		cmp	r3, #0
 188 00c6 D6D1     		bne	.L2
 189              		.loc 1 103 0 is_stmt 0 discriminator 7
 190 00c8 2169     		ldr	r1, [r4, #16]
 191 00ca B1FA81F1 		clz	r1, r1
 192 00ce 4909     		lsrs	r1, r1, #5
 193 00d0 D1E7     		b	.L2
 194              	.L14:
 195 00d2 00BF     		.align	2
 196              	.L13:
 197 00d4 00000000 		.word	ch
 198 00d8 00000000 		.word	.LANCHOR0
 199 00dc 00000000 		.word	threads
 200 00e0 00000000 		.word	.LC0
 201 00e4 00000000 		.word	thread
 202 00e8 04000000 		.word	.LC1
 203 00ec 08000000 		.word	.LC2
 204 00f0 0C000000 		.word	.LC3
 205              		.cfi_endproc
 206              	.LFE229:
 207              		.size	dyn1_execute, .-dyn1_execute
 208              		.section	.text.thread,"ax",%progbits
 209              		.align	2
 210              		.p2align 4,,15
 211              		.thumb
 212              		.thumb_func
 213              		.type	thread, %function
 214              	thread:
 215              	.LFB227:
 216              		.loc 1 71 0 is_stmt 1
 217              		.cfi_startproc
 218              		@ args = 0, pretend = 0, frame = 0
 219              		@ frame_needed = 0, uses_anonymous_args = 0
 220              		@ link register save eliminated.
 221              	.LVL16:
 222              		.loc 1 73 0
 223 0000 0078     		ldrb	r0, [r0]	@ zero_extendqisi2
 224              	.LVL17:
 225 0002 FFF7FEBF 		b	test_emit_token
 226              	.LVL18:
 227              		.cfi_endproc
 228              	.LFE227:
ARM GAS  /tmp/ccke2v8u.s 			page 5


 229              		.size	thread, .-thread
 230 0006 00BF     		.section	.text.dyn3_setup,"ax",%progbits
 231              		.align	2
 232              		.p2align 4,,15
 233              		.thumb
 234              		.thumb_func
 235              		.type	dyn3_setup, %function
 236              	dyn3_setup:
 237              	.LFB233:
 238              		.loc 1 205 0
 239              		.cfi_startproc
 240              		@ args = 0, pretend = 0, frame = 0
 241              		@ frame_needed = 0, uses_anonymous_args = 0
 242              		@ link register save eliminated.
 243              		.loc 1 207 0
 244 0000 4FF4CD62 		mov	r2, #1640
 245 0004 0149     		ldr	r1, .L17
 246 0006 0248     		ldr	r0, .L17+4
 247 0008 FFF7FEBF 		b	chHeapObjectInit
 248              	.LVL19:
 249              	.L18:
 250              		.align	2
 251              	.L17:
 252 000c 00000000 		.word	test
 253 0010 00000000 		.word	.LANCHOR0
 254              		.cfi_endproc
 255              	.LFE233:
 256              		.size	dyn3_setup, .-dyn3_setup
 257              		.section	.text.dyn1_setup,"ax",%progbits
 258              		.align	2
 259              		.p2align 4,,15
 260              		.thumb
 261              		.thumb_func
 262              		.type	dyn1_setup, %function
 263              	dyn1_setup:
 264              	.LFB236:
 265              		.cfi_startproc
 266              		@ args = 0, pretend = 0, frame = 0
 267              		@ frame_needed = 0, uses_anonymous_args = 0
 268              		@ link register save eliminated.
 269 0000 FFF7FEBF 		b	dyn3_setup
 270              		.cfi_endproc
 271              	.LFE236:
 272              		.size	dyn1_setup, .-dyn1_setup
 273              		.section	.text.dyn2_execute,"ax",%progbits
 274              		.align	2
 275              		.p2align 4,,15
 276              		.thumb
 277              		.thumb_func
 278              		.type	dyn2_execute, %function
 279              	dyn2_execute:
 280              	.LFB231:
 281              		.loc 1 143 0
 282              		.cfi_startproc
 283              		@ args = 0, pretend = 0, frame = 0
 284              		@ frame_needed = 0, uses_anonymous_args = 0
 285              	.LBB24:
ARM GAS  /tmp/ccke2v8u.s 			page 6


 286              	.LBB25:
 287              	.LBB26:
 288              	.LBB27:
 289              		.loc 2 176 0
 290 0000 314B     		ldr	r3, .L35
 291              	.LBE27:
 292              	.LBE26:
 293              		.loc 2 189 0
 294 0002 9B69     		ldr	r3, [r3, #24]
 295              	.LBE25:
 296              	.LBE24:
 297              		.loc 1 143 0
 298 0004 70B5     		push	{r4, r5, r6, lr}
 299              		.cfi_def_cfa_offset 16
 300              		.cfi_offset 4, -16
 301              		.cfi_offset 5, -12
 302              		.cfi_offset 6, -8
 303              		.cfi_offset 14, -4
 304 0006 314C     		ldr	r4, .L35+4
 305              	.LBB29:
 306              	.LBB28:
 307              		.loc 2 189 0
 308 0008 9D68     		ldr	r5, [r3, #8]
 309              	.LVL20:
 310 000a 04F11006 		add	r6, r4, #16
 311              	.LVL21:
 312              	.L21:
 313              	.LBE28:
 314              	.LBE29:
 315              		.loc 1 149 0 discriminator 3
 316 000e 54F8041B 		ldr	r1, [r4], #4
 317 0012 2F48     		ldr	r0, .L35+8
 318 0014 FFF7FEFF 		bl	chPoolFree
 319              	.LVL22:
 320              		.loc 1 148 0 discriminator 3
 321 0018 A642     		cmp	r6, r4
 322 001a F8D1     		bne	.L21
 323              		.loc 1 152 0
 324 001c 2D4B     		ldr	r3, .L35+12
 325 001e 2E4A     		ldr	r2, .L35+16
 326 0020 2B48     		ldr	r0, .L35+8
 327 0022 2E4C     		ldr	r4, .L35+20
 328 0024 691E     		subs	r1, r5, #1
 329 0026 FFF7FEFF 		bl	chThdCreateFromMemoryPool
 330              	.LVL23:
 331              		.loc 1 153 0
 332 002a 2D4B     		ldr	r3, .L35+24
 333              		.loc 1 152 0
 334 002c 2060     		str	r0, [r4]
 335              		.loc 1 153 0
 336 002e 2A4A     		ldr	r2, .L35+16
 337 0030 2748     		ldr	r0, .L35+8
 338 0032 A91E     		subs	r1, r5, #2
 339 0034 FFF7FEFF 		bl	chThdCreateFromMemoryPool
 340              	.LVL24:
 341              		.loc 1 154 0
 342 0038 2A4B     		ldr	r3, .L35+28
ARM GAS  /tmp/ccke2v8u.s 			page 7


 343              		.loc 1 153 0
 344 003a 6060     		str	r0, [r4, #4]
 345              		.loc 1 154 0
 346 003c 264A     		ldr	r2, .L35+16
 347 003e 2448     		ldr	r0, .L35+8
 348 0040 E91E     		subs	r1, r5, #3
 349 0042 FFF7FEFF 		bl	chThdCreateFromMemoryPool
 350              	.LVL25:
 351              		.loc 1 155 0
 352 0046 284B     		ldr	r3, .L35+32
 353              		.loc 1 154 0
 354 0048 A060     		str	r0, [r4, #8]
 355              		.loc 1 155 0
 356 004a 234A     		ldr	r2, .L35+16
 357 004c 2048     		ldr	r0, .L35+8
 358 004e 291F     		subs	r1, r5, #4
 359 0050 FFF7FEFF 		bl	chThdCreateFromMemoryPool
 360              	.LVL26:
 361              		.loc 1 156 0
 362 0054 691F     		subs	r1, r5, #5
 363              		.loc 1 155 0
 364 0056 E060     		str	r0, [r4, #12]
 365              		.loc 1 156 0
 366 0058 244B     		ldr	r3, .L35+36
 367 005a 1F4A     		ldr	r2, .L35+16
 368 005c 1C48     		ldr	r0, .L35+8
 369 005e FFF7FEFF 		bl	chThdCreateFromMemoryPool
 370              	.LVL27:
 371              		.loc 1 158 0
 372 0062 2168     		ldr	r1, [r4]
 373              		.loc 1 156 0
 374 0064 2061     		str	r0, [r4, #16]
 375              		.loc 1 158 0
 376 0066 41B1     		cbz	r1, .L22
 377              		.loc 1 158 0 is_stmt 0 discriminator 1
 378 0068 6168     		ldr	r1, [r4, #4]
 379 006a 31B1     		cbz	r1, .L22
 380              		.loc 1 158 0 discriminator 3
 381 006c A168     		ldr	r1, [r4, #8]
 382 006e 21B1     		cbz	r1, .L22
 383              		.loc 1 158 0 discriminator 5
 384 0070 E168     		ldr	r1, [r4, #12]
 385 0072 11B1     		cbz	r1, .L22
 386              		.loc 1 158 0 discriminator 7
 387 0074 B0FA80F1 		clz	r1, r0
 388 0078 4909     		lsrs	r1, r1, #5
 389              	.L22:
 390              		.loc 1 158 0 discriminator 12
 391 007a 0120     		movs	r0, #1
 392 007c FFF7FEFF 		bl	_test_assert
 393              	.LVL28:
 394 0080 00B1     		cbz	r0, .L34
 395              	.L20:
 396 0082 70BD     		pop	{r4, r5, r6, pc}
 397              	.L34:
 398              		.loc 1 166 0 is_stmt 1
 399 0084 FFF7FEFF 		bl	test_wait_threads
ARM GAS  /tmp/ccke2v8u.s 			page 8


 400              	.LVL29:
 401              		.loc 1 167 0
 402 0088 1949     		ldr	r1, .L35+40
 403 008a 0220     		movs	r0, #2
 404 008c FFF7FEFF 		bl	_test_assert_sequence
 405              	.LVL30:
 406 0090 0028     		cmp	r0, #0
 407 0092 F6D1     		bne	.L20
 408 0094 0424     		movs	r4, #4
 409              	.L26:
 410              	.LVL31:
 411              		.loc 1 171 0
 412 0096 0E48     		ldr	r0, .L35+8
 413 0098 FFF7FEFF 		bl	chPoolAlloc
 414              	.LVL32:
 415 009c 011C     		adds	r1, r0, #0
 416 009e 18BF     		it	ne
 417 00a0 0121     		movne	r1, #1
 418 00a2 0320     		movs	r0, #3
 419 00a4 FFF7FEFF 		bl	_test_assert
 420              	.LVL33:
 421 00a8 0028     		cmp	r0, #0
 422 00aa EAD1     		bne	.L20
 423              		.loc 1 170 0 discriminator 2
 424 00ac 013C     		subs	r4, r4, #1
 425              	.LVL34:
 426 00ae F2D1     		bne	.L26
 427              		.loc 1 172 0
 428 00b0 0748     		ldr	r0, .L35+8
 429 00b2 FFF7FEFF 		bl	chPoolAlloc
 430              	.LVL35:
 431 00b6 B0FA80F1 		clz	r1, r0
 432 00ba 4909     		lsrs	r1, r1, #5
 433 00bc 0420     		movs	r0, #4
 434              		.loc 1 173 0
 435 00be BDE87040 		pop	{r4, r5, r6, lr}
 436              		.cfi_restore 14
 437              		.cfi_restore 6
 438              		.cfi_restore 5
 439              		.cfi_restore 4
 440              		.cfi_def_cfa_offset 0
 441              	.LVL36:
 442              		.loc 1 172 0
 443 00c2 FFF7FEBF 		b	_test_assert
 444              	.LVL37:
 445              	.L36:
 446 00c6 00BF     		.align	2
 447              	.L35:
 448 00c8 00000000 		.word	ch
 449 00cc 00000000 		.word	wa
 450 00d0 00000000 		.word	.LANCHOR1
 451 00d4 00000000 		.word	.LC0
 452 00d8 00000000 		.word	thread
 453 00dc 00000000 		.word	threads
 454 00e0 04000000 		.word	.LC1
 455 00e4 08000000 		.word	.LC2
 456 00e8 10000000 		.word	.LC4
ARM GAS  /tmp/ccke2v8u.s 			page 9


 457 00ec 14000000 		.word	.LC5
 458 00f0 18000000 		.word	.LC6
 459              		.cfi_endproc
 460              	.LFE231:
 461              		.size	dyn2_execute, .-dyn2_execute
 462              		.section	.text.dyn2_setup,"ax",%progbits
 463              		.align	2
 464              		.p2align 4,,15
 465              		.thumb
 466              		.thumb_func
 467              		.type	dyn2_setup, %function
 468              	dyn2_setup:
 469              	.LFB230:
 470              		.loc 1 138 0
 471              		.cfi_startproc
 472              		@ args = 0, pretend = 0, frame = 0
 473              		@ frame_needed = 0, uses_anonymous_args = 0
 474              		@ link register save eliminated.
 475              		.loc 1 140 0
 476 0000 0022     		movs	r2, #0
 477 0002 4FF4A471 		mov	r1, #328
 478 0006 0148     		ldr	r0, .L38
 479 0008 FFF7FEBF 		b	chPoolObjectInit
 480              	.LVL38:
 481              	.L39:
 482              		.align	2
 483              	.L38:
 484 000c 00000000 		.word	.LANCHOR1
 485              		.cfi_endproc
 486              	.LFE230:
 487              		.size	dyn2_setup, .-dyn2_setup
 488              		.section	.text.regfind,"ax",%progbits
 489              		.align	2
 490              		.p2align 4,,15
 491              		.thumb
 492              		.thumb_func
 493              		.type	regfind, %function
 494              	regfind:
 495              	.LFB232:
 496              		.loc 1 193 0
 497              		.cfi_startproc
 498              		@ args = 0, pretend = 0, frame = 0
 499              		@ frame_needed = 0, uses_anonymous_args = 0
 500              	.LVL39:
 501 0000 38B5     		push	{r3, r4, r5, lr}
 502              		.cfi_def_cfa_offset 16
 503              		.cfi_offset 3, -16
 504              		.cfi_offset 4, -12
 505              		.cfi_offset 5, -8
 506              		.cfi_offset 14, -4
 507              		.loc 1 193 0
 508 0002 0546     		mov	r5, r0
 509              		.loc 1 197 0
 510 0004 FFF7FEFF 		bl	chRegFirstThread
 511              	.LVL40:
 512              		.loc 1 195 0
 513 0008 0024     		movs	r4, #0
ARM GAS  /tmp/ccke2v8u.s 			page 10


 514              		.loc 1 197 0
 515 000a 0346     		mov	r3, r0
 516              	.LVL41:
 517              	.L41:
 518              		.loc 1 200 0 discriminator 1
 519 000c 1846     		mov	r0, r3
 520 000e AB42     		cmp	r3, r5
 521 0010 08BF     		it	eq
 522 0012 44F00104 		orreq	r4, r4, #1
 523              	.LVL42:
 524 0016 FFF7FEFF 		bl	chRegNextThread
 525              	.LVL43:
 526              		.loc 1 201 0 discriminator 1
 527 001a 0346     		mov	r3, r0
 528 001c 0028     		cmp	r0, #0
 529 001e F5D1     		bne	.L41
 530              		.loc 1 203 0
 531 0020 2046     		mov	r0, r4
 532              	.LVL44:
 533 0022 38BD     		pop	{r3, r4, r5, pc}
 534              		.cfi_endproc
 535              	.LFE232:
 536              		.size	regfind, .-regfind
 537              		.section	.text.dyn3_execute,"ax",%progbits
 538              		.align	2
 539              		.p2align 4,,15
 540              		.thumb
 541              		.thumb_func
 542              		.type	dyn3_execute, %function
 543              	dyn3_execute:
 544              	.LFB234:
 545              		.loc 1 210 0
 546              		.cfi_startproc
 547              		@ args = 0, pretend = 0, frame = 0
 548              		@ frame_needed = 0, uses_anonymous_args = 0
 549 0000 10B5     		push	{r4, lr}
 550              		.cfi_def_cfa_offset 8
 551              		.cfi_offset 4, -8
 552              		.cfi_offset 14, -4
 553              	.LBB30:
 554              	.LBB31:
 555              	.LBB32:
 556              	.LBB33:
 557              		.loc 2 176 0
 558 0002 484B     		ldr	r3, .L50
 559              	.LBE33:
 560              	.LBE32:
 561              	.LBE31:
 562              	.LBE30:
 563              		.loc 1 215 0
 564 0004 4849     		ldr	r1, .L50+4
 565              	.LBB35:
 566              	.LBB34:
 567              		.loc 2 189 0
 568 0006 9A69     		ldr	r2, [r3, #24]
 569              	.LBE34:
 570              	.LBE35:
ARM GAS  /tmp/ccke2v8u.s 			page 11


 571              		.loc 1 215 0
 572 0008 4848     		ldr	r0, .L50+8
 573 000a 9268     		ldr	r2, [r2, #8]
 574 000c 484B     		ldr	r3, .L50+12
 575              		.loc 1 210 0
 576 000e 82B0     		sub	sp, sp, #8
 577              		.cfi_def_cfa_offset 16
 578              		.loc 1 215 0
 579 0010 013A     		subs	r2, r2, #1
 580 0012 0091     		str	r1, [sp]
 581 0014 4FF4A471 		mov	r1, #328
 582 0018 FFF7FEFF 		bl	chThdCreateFromHeap
 583              	.LVL45:
 584 001c 0446     		mov	r4, r0
 585              	.LVL46:
 586              		.loc 1 216 0
 587 001e 0120     		movs	r0, #1
 588              	.LVL47:
 589 0020 A17F     		ldrb	r1, [r4, #30]	@ zero_extendqisi2
 590 0022 091A     		subs	r1, r1, r0
 591 0024 B1FA81F1 		clz	r1, r1
 592 0028 4909     		lsrs	r1, r1, #5
 593 002a FFF7FEFF 		bl	_test_assert
 594              	.LVL48:
 595 002e 08B1     		cbz	r0, .L49
 596              	.L44:
 597              		.loc 1 238 0
 598 0030 02B0     		add	sp, sp, #8
 599              		.cfi_remember_state
 600              		.cfi_def_cfa_offset 8
 601              		@ sp needed
 602 0032 10BD     		pop	{r4, pc}
 603              	.LVL49:
 604              	.L49:
 605              		.cfi_restore_state
 606              		.loc 1 217 0
 607 0034 2046     		mov	r0, r4
 608 0036 FFF7FEFF 		bl	chThdAddRef
 609              	.LVL50:
 610              		.loc 1 218 0
 611 003a A17F     		ldrb	r1, [r4, #30]	@ zero_extendqisi2
 612 003c 0220     		movs	r0, #2
 613 003e 091A     		subs	r1, r1, r0
 614 0040 B1FA81F1 		clz	r1, r1
 615 0044 4909     		lsrs	r1, r1, #5
 616 0046 FFF7FEFF 		bl	_test_assert
 617              	.LVL51:
 618 004a 0028     		cmp	r0, #0
 619 004c F0D1     		bne	.L44
 620              		.loc 1 219 0
 621 004e 2046     		mov	r0, r4
 622 0050 FFF7FEFF 		bl	chThdRelease
 623              	.LVL52:
 624              		.loc 1 220 0
 625 0054 A17F     		ldrb	r1, [r4, #30]	@ zero_extendqisi2
 626 0056 A1F10101 		sub	r1, #1
 627 005a B1FA81F1 		clz	r1, r1
ARM GAS  /tmp/ccke2v8u.s 			page 12


 628 005e 0320     		movs	r0, #3
 629 0060 4909     		lsrs	r1, r1, #5
 630 0062 FFF7FEFF 		bl	_test_assert
 631              	.LVL53:
 632 0066 0028     		cmp	r0, #0
 633 0068 E2D1     		bne	.L44
 634              		.loc 1 223 0
 635 006a 2046     		mov	r0, r4
 636 006c FFF7FEFF 		bl	regfind
 637              	.LVL54:
 638 0070 0146     		mov	r1, r0
 639 0072 0420     		movs	r0, #4
 640 0074 FFF7FEFF 		bl	_test_assert
 641              	.LVL55:
 642 0078 0028     		cmp	r0, #0
 643 007a D9D1     		bne	.L44
 644              		.loc 1 224 0
 645 007c 2046     		mov	r0, r4
 646 007e FFF7FEFF 		bl	regfind
 647              	.LVL56:
 648 0082 0146     		mov	r1, r0
 649 0084 0520     		movs	r0, #5
 650 0086 FFF7FEFF 		bl	_test_assert
 651              	.LVL57:
 652 008a 0028     		cmp	r0, #0
 653 008c D0D1     		bne	.L44
 654              		.loc 1 227 0
 655 008e 2046     		mov	r0, r4
 656 0090 FFF7FEFF 		bl	chThdRelease
 657              	.LVL58:
 658              		.loc 1 228 0
 659 0094 A17F     		ldrb	r1, [r4, #30]	@ zero_extendqisi2
 660 0096 B1FA81F1 		clz	r1, r1
 661 009a 4909     		lsrs	r1, r1, #5
 662 009c 0620     		movs	r0, #6
 663 009e FFF7FEFF 		bl	_test_assert
 664              	.LVL59:
 665 00a2 0028     		cmp	r0, #0
 666 00a4 C4D1     		bne	.L44
 667              		.loc 1 229 0
 668 00a6 217F     		ldrb	r1, [r4, #28]	@ zero_extendqisi2
 669 00a8 B1FA81F1 		clz	r1, r1
 670 00ac 4909     		lsrs	r1, r1, #5
 671 00ae 0720     		movs	r0, #7
 672 00b0 FFF7FEFF 		bl	_test_assert
 673              	.LVL60:
 674 00b4 0028     		cmp	r0, #0
 675 00b6 BBD1     		bne	.L44
 676              		.loc 1 230 0
 677 00b8 2046     		mov	r0, r4
 678 00ba FFF7FEFF 		bl	regfind
 679              	.LVL61:
 680 00be 0146     		mov	r1, r0
 681 00c0 0820     		movs	r0, #8
 682 00c2 FFF7FEFF 		bl	_test_assert
 683              	.LVL62:
 684 00c6 0028     		cmp	r0, #0
ARM GAS  /tmp/ccke2v8u.s 			page 13


 685 00c8 B2D1     		bne	.L44
 686              		.loc 1 231 0
 687 00ca 2046     		mov	r0, r4
 688 00cc FFF7FEFF 		bl	regfind
 689              	.LVL63:
 690 00d0 0146     		mov	r1, r0
 691 00d2 0920     		movs	r0, #9
 692 00d4 FFF7FEFF 		bl	_test_assert
 693              	.LVL64:
 694 00d8 0028     		cmp	r0, #0
 695 00da A9D1     		bne	.L44
 696              		.loc 1 232 0
 697 00dc 4FF4FA70 		mov	r0, #500
 698 00e0 FFF7FEFF 		bl	chThdSleep
 699              	.LVL65:
 700              		.loc 1 233 0
 701 00e4 217F     		ldrb	r1, [r4, #28]	@ zero_extendqisi2
 702 00e6 A1F10F03 		sub	r3, r1, #15
 703 00ea 5942     		rsbs	r1, r3, #0
 704 00ec 5941     		adcs	r1, r1, r3
 705 00ee 0A20     		movs	r0, #10
 706 00f0 FFF7FEFF 		bl	_test_assert
 707              	.LVL66:
 708 00f4 0028     		cmp	r0, #0
 709 00f6 9BD1     		bne	.L44
 710              		.loc 1 236 0
 711 00f8 2046     		mov	r0, r4
 712 00fa FFF7FEFF 		bl	regfind
 713              	.LVL67:
 714 00fe 0146     		mov	r1, r0
 715 0100 0B20     		movs	r0, #11
 716 0102 FFF7FEFF 		bl	_test_assert
 717              	.LVL68:
 718 0106 0028     		cmp	r0, #0
 719 0108 92D1     		bne	.L44
 720              		.loc 1 237 0
 721 010a 2046     		mov	r0, r4
 722 010c FFF7FEFF 		bl	regfind
 723              	.LVL69:
 724 0110 80F00101 		eor	r1, r0, #1
 725 0114 C9B2     		uxtb	r1, r1
 726 0116 0C20     		movs	r0, #12
 727              		.loc 1 238 0
 728 0118 02B0     		add	sp, sp, #8
 729              		.cfi_def_cfa_offset 8
 730              		@ sp needed
 731 011a BDE81040 		pop	{r4, lr}
 732              		.cfi_restore 14
 733              		.cfi_restore 4
 734              		.cfi_def_cfa_offset 0
 735              	.LVL70:
 736              		.loc 1 237 0
 737 011e FFF7FEBF 		b	_test_assert
 738              	.LVL71:
 739              	.L51:
 740 0122 00BF     		.align	2
 741              	.L50:
ARM GAS  /tmp/ccke2v8u.s 			page 14


 742 0124 00000000 		.word	ch
 743 0128 00000000 		.word	.LC0
 744 012c 00000000 		.word	.LANCHOR0
 745 0130 00000000 		.word	thread
 746              		.cfi_endproc
 747              	.LFE234:
 748              		.size	dyn3_execute, .-dyn3_execute
 749              		.global	patterndyn
 750              		.global	testdyn3
 751              		.global	testdyn2
 752              		.global	testdyn1
 753              		.section	.rodata.testdyn1,"a",%progbits
 754              		.align	2
 755              		.type	testdyn1, %object
 756              		.size	testdyn1, 16
 757              	testdyn1:
 758 0000 78000000 		.word	.LC9
 759 0004 00000000 		.word	dyn1_setup
 760 0008 00000000 		.word	0
 761 000c 00000000 		.word	dyn1_execute
 762              		.section	.rodata.testdyn2,"a",%progbits
 763              		.align	2
 764              		.type	testdyn2, %object
 765              		.size	testdyn2, 16
 766              	testdyn2:
 767 0000 48000000 		.word	.LC8
 768 0004 00000000 		.word	dyn2_setup
 769 0008 00000000 		.word	0
 770 000c 00000000 		.word	dyn2_execute
 771              		.section	.rodata.testdyn3,"a",%progbits
 772              		.align	2
 773              		.type	testdyn3, %object
 774              		.size	testdyn3, 16
 775              	testdyn3:
 776 0000 20000000 		.word	.LC7
 777 0004 00000000 		.word	dyn3_setup
 778 0008 00000000 		.word	0
 779 000c 00000000 		.word	dyn3_execute
 780              		.section	.bss.mp1,"aw",%nobits
 781              		.align	2
 782              		.set	.LANCHOR1,. + 0
 783              		.type	mp1, %object
 784              		.size	mp1, 12
 785              	mp1:
 786 0000 00000000 		.space	12
 786      00000000 
 786      00000000 
 787              		.section	.rodata.str1.4,"aMS",%progbits,1
 788              		.align	2
 789              	.LC0:
 790 0000 4100     		.ascii	"A\000"
 791 0002 0000     		.space	2
 792              	.LC1:
 793 0004 4200     		.ascii	"B\000"
 794 0006 0000     		.space	2
 795              	.LC2:
 796 0008 4300     		.ascii	"C\000"
ARM GAS  /tmp/ccke2v8u.s 			page 15


 797 000a 0000     		.space	2
 798              	.LC3:
 799 000c 414200   		.ascii	"AB\000"
 800 000f 00       		.space	1
 801              	.LC4:
 802 0010 4400     		.ascii	"D\000"
 803 0012 0000     		.space	2
 804              	.LC5:
 805 0014 4500     		.ascii	"E\000"
 806 0016 0000     		.space	2
 807              	.LC6:
 808 0018 41424344 		.ascii	"ABCD\000"
 808      00
 809 001d 000000   		.space	3
 810              	.LC7:
 811 0020 44796E61 		.ascii	"Dynamic APIs, registry and references\000"
 811      6D696320 
 811      41504973 
 811      2C207265 
 811      67697374 
 812 0046 0000     		.space	2
 813              	.LC8:
 814 0048 44796E61 		.ascii	"Dynamic APIs, threads creation from memory pool\000"
 814      6D696320 
 814      41504973 
 814      2C207468 
 814      72656164 
 815              	.LC9:
 816 0078 44796E61 		.ascii	"Dynamic APIs, threads creation from heap\000"
 816      6D696320 
 816      41504973 
 816      2C207468 
 816      72656164 
 817              		.section	.rodata.patterndyn,"a",%progbits
 818              		.align	2
 819              		.type	patterndyn, %object
 820              		.size	patterndyn, 16
 821              	patterndyn:
 822 0000 00000000 		.word	testdyn1
 823 0004 00000000 		.word	testdyn2
 824 0008 00000000 		.word	testdyn3
 825 000c 00000000 		.word	0
 826              		.section	.bss.heap1,"aw",%nobits
 827              		.align	3
 828              		.set	.LANCHOR0,. + 0
 829              		.type	heap1, %object
 830              		.size	heap1, 32
 831              	heap1:
 832 0000 00000000 		.space	32
 832      00000000 
 832      00000000 
 832      00000000 
 832      00000000 
 833              		.text
 834              	.Letext0:
 835              		.file 3 "/usr/lib/gcc/arm-none-eabi/5.3.1/include/stddef.h"
 836              		.file 4 "/usr/arm-none-eabi/include/machine/_default_types.h"
ARM GAS  /tmp/ccke2v8u.s 			page 16


 837              		.file 5 "/usr/arm-none-eabi/include/sys/_stdint.h"
 838              		.file 6 "/home/selim/working/ChibiOS/os/rt/ports/ARMCMx/compilers/GCC/chtypes.h"
 839              		.file 7 "/home/selim/working/ChibiOS/os/rt/include/chsystypes.h"
 840              		.file 8 "/home/selim/working/ChibiOS/os/rt/include/chschd.h"
 841              		.file 9 "/home/selim/working/ChibiOS/os/rt/ports/ARMCMx/chcore.h"
 842              		.file 10 "/home/selim/working/ChibiOS/os/rt/ports/ARMCMx/chcore_v7m.h"
 843              		.file 11 "/home/selim/working/ChibiOS/os/rt/include/chtm.h"
 844              		.file 12 "/home/selim/working/ChibiOS/os/rt/include/chsem.h"
 845              		.file 13 "/home/selim/working/ChibiOS/os/rt/include/chmtx.h"
 846              		.file 14 "/home/selim/working/ChibiOS/os/rt/include/chmemcore.h"
 847              		.file 15 "/home/selim/working/ChibiOS/os/rt/include/chheap.h"
 848              		.file 16 "/home/selim/working/ChibiOS/os/rt/include/chmempools.h"
 849              		.file 17 "/home/selim/working/ChibiOS/test/rt/test.h"
 850              		.file 18 "/home/selim/working/ChibiOS/os/ext/CMSIS/include/core_cm4.h"
 851              		.file 19 "/home/selim/working/ChibiOS/os/rt/include/chdynamic.h"
 852              		.file 20 "/home/selim/working/ChibiOS/os/rt/include/chregistry.h"