ARM GAS  /tmp/ccE9Uswy.s 			page 1


   1              		.syntax unified
   2              		.cpu cortex-m4
   3              		.fpu softvfp
   4              		.eabi_attribute 20, 1
   5              		.eabi_attribute 21, 1
   6              		.eabi_attribute 23, 3
   7              		.eabi_attribute 24, 1
   8              		.eabi_attribute 25, 1
   9              		.eabi_attribute 26, 1
  10              		.eabi_attribute 30, 2
  11              		.eabi_attribute 34, 1
  12              		.eabi_attribute 18, 4
  13              		.thumb
  14              		.syntax unified
  15              		.file	"adc.c"
  16              		.text
  17              	.Ltext0:
  18              		.cfi_sections	.debug_frame
  19              		.section	.text.adcInit,"ax",%progbits
  20              		.align	2
  21              		.p2align 4,,15
  22              		.global	adcInit
  23              		.thumb
  24              		.thumb_func
  25              		.type	adcInit, %function
  26              	adcInit:
  27              	.LFB258:
  28              		.file 1 "/home/selim/working/ChibiOS/os/hal/src/adc.c"
  29              		.loc 1 56 0
  30              		.cfi_startproc
  31              		@ args = 0, pretend = 0, frame = 0
  32              		@ frame_needed = 0, uses_anonymous_args = 0
  33              		@ link register save eliminated.
  34              		.loc 1 58 0
  35 0000 FFF7FEBF 		b	adc_lld_init
  36              	.LVL0:
  37              		.cfi_endproc
  38              	.LFE258:
  39              		.size	adcInit, .-adcInit
  40              		.section	.text.adcObjectInit,"ax",%progbits
  41              		.align	2
  42              		.p2align 4,,15
  43              		.global	adcObjectInit
  44              		.thumb
  45              		.thumb_func
  46              		.type	adcObjectInit, %function
  47              	adcObjectInit:
  48              	.LFB259:
  49              		.loc 1 68 0
  50              		.cfi_startproc
  51              		@ args = 0, pretend = 0, frame = 0
  52              		@ frame_needed = 0, uses_anonymous_args = 0
  53              		@ link register save eliminated.
  54              	.LVL1:
  55              		.loc 1 71 0
  56 0000 0023     		movs	r3, #0
  57              		.loc 1 70 0
ARM GAS  /tmp/ccE9Uswy.s 			page 2


  58 0002 0122     		movs	r2, #1
  59 0004 0270     		strb	r2, [r0]
  60              		.loc 1 71 0
  61 0006 4360     		str	r3, [r0, #4]
  62              		.loc 1 72 0
  63 0008 8360     		str	r3, [r0, #8]
  64              		.loc 1 73 0
  65 000a C360     		str	r3, [r0, #12]
  66              		.loc 1 74 0
  67 000c 0361     		str	r3, [r0, #16]
  68              		.loc 1 76 0
  69 000e 4361     		str	r3, [r0, #20]
  70              	.LVL2:
  71              	.LBB105:
  72              	.LBB106:
  73              		.file 2 "/home/selim/working/ChibiOS/os/hal/osal/rt/osal.h"
  74              		.loc 2 841 0
  75 0010 1830     		adds	r0, r0, #24
  76              	.LVL3:
  77 0012 FFF7FEBF 		b	chMtxObjectInit
  78              	.LVL4:
  79              	.LBE106:
  80              	.LBE105:
  81              		.cfi_endproc
  82              	.LFE259:
  83              		.size	adcObjectInit, .-adcObjectInit
  84 0016 00BF     		.section	.text.adcStart,"ax",%progbits
  85              		.align	2
  86              		.p2align 4,,15
  87              		.global	adcStart
  88              		.thumb
  89              		.thumb_func
  90              		.type	adcStart, %function
  91              	adcStart:
  92              	.LFB260:
  93              		.loc 1 95 0
  94              		.cfi_startproc
  95              		@ args = 0, pretend = 0, frame = 0
  96              		@ frame_needed = 0, uses_anonymous_args = 0
  97              	.LVL5:
  98 0000 10B5     		push	{r4, lr}
  99              		.cfi_def_cfa_offset 8
 100              		.cfi_offset 4, -8
 101              		.cfi_offset 14, -4
 102              	.LBB107:
 103              	.LBB108:
 104              	.LBB109:
 105              	.LBB110:
 106              	.LBB111:
 107              		.file 3 "/home/selim/working/ChibiOS/os/ext/CMSIS/include/core_cmFunc.h"
 108              		.loc 3 546 0
 109 0002 2023     		movs	r3, #32
 110              	.LBE111:
 111              	.LBE110:
 112              	.LBE109:
 113              	.LBE108:
 114              	.LBE107:
ARM GAS  /tmp/ccE9Uswy.s 			page 3


 115              		.loc 1 95 0
 116 0004 0446     		mov	r4, r0
 117              	.LBB116:
 118              	.LBB115:
 119              	.LBB114:
 120              	.LBB113:
 121              	.LBB112:
 122              		.loc 3 546 0
 123              		.syntax unified
 124              	@ 546 "/home/selim/working/ChibiOS/os/ext/CMSIS/include/core_cmFunc.h" 1
 125 0006 83F31188 		MSR basepri, r3
 126              	@ 0 "" 2
 127              	.LVL6:
 128              		.thumb
 129              		.syntax unified
 130              	.LBE112:
 131              	.LBE113:
 132              	.LBE114:
 133              	.LBE115:
 134              	.LBE116:
 135              		.loc 1 102 0
 136 000a 4160     		str	r1, [r0, #4]
 137              		.loc 1 103 0
 138 000c FFF7FEFF 		bl	adc_lld_start
 139              	.LVL7:
 140              		.loc 1 104 0
 141 0010 0223     		movs	r3, #2
 142 0012 2370     		strb	r3, [r4]
 143              	.LVL8:
 144              	.LBB117:
 145              	.LBB118:
 146              	.LBB119:
 147              	.LBB120:
 148              	.LBB121:
 149              	.LBB122:
 150              		.loc 3 546 0
 151 0014 0023     		movs	r3, #0
 152              		.syntax unified
 153              	@ 546 "/home/selim/working/ChibiOS/os/ext/CMSIS/include/core_cmFunc.h" 1
 154 0016 83F31188 		MSR basepri, r3
 155              	@ 0 "" 2
 156              	.LVL9:
 157              		.thumb
 158              		.syntax unified
 159 001a 10BD     		pop	{r4, pc}
 160              	.LBE122:
 161              	.LBE121:
 162              	.LBE120:
 163              	.LBE119:
 164              	.LBE118:
 165              	.LBE117:
 166              		.cfi_endproc
 167              	.LFE260:
 168              		.size	adcStart, .-adcStart
 169              		.section	.text.adcStop,"ax",%progbits
 170              		.align	2
 171              		.p2align 4,,15
ARM GAS  /tmp/ccE9Uswy.s 			page 4


 172              		.global	adcStop
 173              		.thumb
 174              		.thumb_func
 175              		.type	adcStop, %function
 176              	adcStop:
 177              	.LFB261:
 178              		.loc 1 115 0
 179              		.cfi_startproc
 180              		@ args = 0, pretend = 0, frame = 0
 181              		@ frame_needed = 0, uses_anonymous_args = 0
 182              	.LVL10:
 183 0000 10B5     		push	{r4, lr}
 184              		.cfi_def_cfa_offset 8
 185              		.cfi_offset 4, -8
 186              		.cfi_offset 14, -4
 187              	.LBB123:
 188              	.LBB124:
 189              	.LBB125:
 190              	.LBB126:
 191              	.LBB127:
 192              		.loc 3 546 0
 193 0002 2023     		movs	r3, #32
 194              	.LBE127:
 195              	.LBE126:
 196              	.LBE125:
 197              	.LBE124:
 198              	.LBE123:
 199              		.loc 1 115 0
 200 0004 0446     		mov	r4, r0
 201              	.LBB132:
 202              	.LBB131:
 203              	.LBB130:
 204              	.LBB129:
 205              	.LBB128:
 206              		.loc 3 546 0
 207              		.syntax unified
 208              	@ 546 "/home/selim/working/ChibiOS/os/ext/CMSIS/include/core_cmFunc.h" 1
 209 0006 83F31188 		MSR basepri, r3
 210              	@ 0 "" 2
 211              	.LVL11:
 212              		.thumb
 213              		.syntax unified
 214              	.LBE128:
 215              	.LBE129:
 216              	.LBE130:
 217              	.LBE131:
 218              	.LBE132:
 219              		.loc 1 122 0
 220 000a FFF7FEFF 		bl	adc_lld_stop
 221              	.LVL12:
 222              		.loc 1 123 0
 223 000e 0123     		movs	r3, #1
 224 0010 2370     		strb	r3, [r4]
 225              	.LVL13:
 226              	.LBB133:
 227              	.LBB134:
 228              	.LBB135:
ARM GAS  /tmp/ccE9Uswy.s 			page 5


 229              	.LBB136:
 230              	.LBB137:
 231              	.LBB138:
 232              		.loc 3 546 0
 233 0012 0023     		movs	r3, #0
 234              		.syntax unified
 235              	@ 546 "/home/selim/working/ChibiOS/os/ext/CMSIS/include/core_cmFunc.h" 1
 236 0014 83F31188 		MSR basepri, r3
 237              	@ 0 "" 2
 238              	.LVL14:
 239              		.thumb
 240              		.syntax unified
 241 0018 10BD     		pop	{r4, pc}
 242              	.LBE138:
 243              	.LBE137:
 244              	.LBE136:
 245              	.LBE135:
 246              	.LBE134:
 247              	.LBE133:
 248              		.cfi_endproc
 249              	.LFE261:
 250              		.size	adcStop, .-adcStop
 251 001a 00BF     		.section	.text.adcStartConversion,"ax",%progbits
 252              		.align	2
 253              		.p2align 4,,15
 254              		.global	adcStartConversion
 255              		.thumb
 256              		.thumb_func
 257              		.type	adcStartConversion, %function
 258              	adcStartConversion:
 259              	.LFB262:
 260              		.loc 1 146 0
 261              		.cfi_startproc
 262              		@ args = 0, pretend = 0, frame = 0
 263              		@ frame_needed = 0, uses_anonymous_args = 0
 264              	.LVL15:
 265 0000 38B5     		push	{r3, r4, r5, lr}
 266              		.cfi_def_cfa_offset 16
 267              		.cfi_offset 3, -16
 268              		.cfi_offset 4, -12
 269              		.cfi_offset 5, -8
 270              		.cfi_offset 14, -4
 271              	.LBB139:
 272              	.LBB140:
 273              	.LBB141:
 274              	.LBB142:
 275              	.LBB143:
 276              		.loc 3 546 0
 277 0002 2025     		movs	r5, #32
 278              		.syntax unified
 279              	@ 546 "/home/selim/working/ChibiOS/os/ext/CMSIS/include/core_cmFunc.h" 1
 280 0004 85F31188 		MSR basepri, r5
 281              	@ 0 "" 2
 282              	.LVL16:
 283              		.thumb
 284              		.syntax unified
 285              	.LBE143:
ARM GAS  /tmp/ccE9Uswy.s 			page 6


 286              	.LBE142:
 287              	.LBE141:
 288              	.LBE140:
 289              	.LBE139:
 290              	.LBB144:
 291              	.LBB145:
 292              		.loc 1 187 0
 293 0008 0325     		movs	r5, #3
 294              		.loc 1 185 0
 295 000a C360     		str	r3, [r0, #12]
 296              		.loc 1 184 0
 297 000c 8260     		str	r2, [r0, #8]
 298              		.loc 1 186 0
 299 000e 0161     		str	r1, [r0, #16]
 300              		.loc 1 187 0
 301 0010 0570     		strb	r5, [r0]
 302              		.loc 1 188 0
 303 0012 FFF7FEFF 		bl	adc_lld_start_conversion
 304              	.LVL17:
 305              	.LBE145:
 306              	.LBE144:
 307              	.LBB146:
 308              	.LBB147:
 309              	.LBB148:
 310              	.LBB149:
 311              	.LBB150:
 312              	.LBB151:
 313              		.loc 3 546 0
 314 0016 0023     		movs	r3, #0
 315              		.syntax unified
 316              	@ 546 "/home/selim/working/ChibiOS/os/ext/CMSIS/include/core_cmFunc.h" 1
 317 0018 83F31188 		MSR basepri, r3
 318              	@ 0 "" 2
 319              	.LVL18:
 320              		.thumb
 321              		.syntax unified
 322 001c 38BD     		pop	{r3, r4, r5, pc}
 323              	.LBE151:
 324              	.LBE150:
 325              	.LBE149:
 326              	.LBE148:
 327              	.LBE147:
 328              	.LBE146:
 329              		.cfi_endproc
 330              	.LFE262:
 331              		.size	adcStartConversion, .-adcStartConversion
 332 001e 00BF     		.section	.text.adcStartConversionI,"ax",%progbits
 333              		.align	2
 334              		.p2align 4,,15
 335              		.global	adcStartConversionI
 336              		.thumb
 337              		.thumb_func
 338              		.type	adcStartConversionI, %function
 339              	adcStartConversionI:
 340              	.LFB263:
 341              		.loc 1 174 0
 342              		.cfi_startproc
ARM GAS  /tmp/ccE9Uswy.s 			page 7


 343              		@ args = 0, pretend = 0, frame = 0
 344              		@ frame_needed = 0, uses_anonymous_args = 0
 345              		@ link register save eliminated.
 346              	.LVL19:
 347 0000 30B4     		push	{r4, r5}
 348              		.cfi_def_cfa_offset 8
 349              		.cfi_offset 4, -8
 350              		.cfi_offset 5, -4
 351              		.loc 1 187 0
 352 0002 0325     		movs	r5, #3
 353 0004 0570     		strb	r5, [r0]
 354              		.loc 1 184 0
 355 0006 8260     		str	r2, [r0, #8]
 356              		.loc 1 185 0
 357 0008 C360     		str	r3, [r0, #12]
 358              		.loc 1 186 0
 359 000a 0161     		str	r1, [r0, #16]
 360              		.loc 1 189 0
 361 000c 30BC     		pop	{r4, r5}
 362              		.cfi_restore 5
 363              		.cfi_restore 4
 364              		.cfi_def_cfa_offset 0
 365              		.loc 1 188 0
 366 000e FFF7FEBF 		b	adc_lld_start_conversion
 367              	.LVL20:
 368              		.cfi_endproc
 369              	.LFE263:
 370              		.size	adcStartConversionI, .-adcStartConversionI
 371 0012 00BF     		.section	.text.adcStopConversion,"ax",%progbits
 372              		.align	2
 373              		.p2align 4,,15
 374              		.global	adcStopConversion
 375              		.thumb
 376              		.thumb_func
 377              		.type	adcStopConversion, %function
 378              	adcStopConversion:
 379              	.LFB264:
 380              		.loc 1 201 0
 381              		.cfi_startproc
 382              		@ args = 0, pretend = 0, frame = 0
 383              		@ frame_needed = 0, uses_anonymous_args = 0
 384              	.LVL21:
 385              	.LBB152:
 386              	.LBB153:
 387              	.LBB154:
 388              	.LBB155:
 389              	.LBB156:
 390              		.loc 3 546 0
 391 0000 2022     		movs	r2, #32
 392              		.syntax unified
 393              	@ 546 "/home/selim/working/ChibiOS/os/ext/CMSIS/include/core_cmFunc.h" 1
 394 0002 82F31188 		MSR basepri, r2
 395              	@ 0 "" 2
 396              	.LVL22:
 397              		.thumb
 398              		.syntax unified
 399              	.LBE156:
ARM GAS  /tmp/ccE9Uswy.s 			page 8


 400              	.LBE155:
 401              	.LBE154:
 402              	.LBE153:
 403              	.LBE152:
 404              		.loc 1 208 0
 405 0006 0278     		ldrb	r2, [r0]	@ zero_extendqisi2
 406 0008 022A     		cmp	r2, #2
 407 000a 11D0     		beq	.L17
 408              		.loc 1 201 0
 409 000c 10B5     		push	{r4, lr}
 410              		.cfi_def_cfa_offset 8
 411              		.cfi_offset 4, -8
 412              		.cfi_offset 14, -4
 413 000e 0446     		mov	r4, r0
 414              		.loc 1 209 0
 415 0010 FFF7FEFF 		bl	adc_lld_stop_conversion
 416              	.LVL23:
 417              		.loc 1 211 0
 418 0014 2046     		mov	r0, r4
 419              		.loc 1 210 0
 420 0016 0022     		movs	r2, #0
 421              		.loc 1 211 0
 422 0018 0223     		movs	r3, #2
 423              		.loc 1 210 0
 424 001a 2261     		str	r2, [r4, #16]
 425              	.LBB157:
 426              	.LBB158:
 427              		.loc 2 697 0
 428 001c 6FF00101 		mvn	r1, #1
 429              	.LBE158:
 430              	.LBE157:
 431              		.loc 1 211 0
 432 0020 00F8143B 		strb	r3, [r0], #20
 433              	.LVL24:
 434              	.LBB160:
 435              	.LBB159:
 436              		.loc 2 697 0
 437 0024 FFF7FEFF 		bl	chThdResumeS
 438              	.LVL25:
 439              	.LBE159:
 440              	.LBE160:
 441              	.LBB161:
 442              	.LBB162:
 443              	.LBB163:
 444              	.LBB164:
 445              	.LBB165:
 446              	.LBB166:
 447              		.loc 3 546 0
 448 0028 0023     		movs	r3, #0
 449              		.syntax unified
 450              	@ 546 "/home/selim/working/ChibiOS/os/ext/CMSIS/include/core_cmFunc.h" 1
 451 002a 83F31188 		MSR basepri, r3
 452              	@ 0 "" 2
 453              	.LVL26:
 454              		.thumb
 455              		.syntax unified
 456 002e 10BD     		pop	{r4, pc}
ARM GAS  /tmp/ccE9Uswy.s 			page 9


 457              	.LVL27:
 458              	.L17:
 459              		.cfi_def_cfa_offset 0
 460              		.cfi_restore 4
 461              		.cfi_restore 14
 462 0030 0023     		movs	r3, #0
 463              		.syntax unified
 464              	@ 546 "/home/selim/working/ChibiOS/os/ext/CMSIS/include/core_cmFunc.h" 1
 465 0032 83F31188 		MSR basepri, r3
 466              	@ 0 "" 2
 467              	.LVL28:
 468              		.thumb
 469              		.syntax unified
 470 0036 7047     		bx	lr
 471              	.LBE166:
 472              	.LBE165:
 473              	.LBE164:
 474              	.LBE163:
 475              	.LBE162:
 476              	.LBE161:
 477              		.cfi_endproc
 478              	.LFE264:
 479              		.size	adcStopConversion, .-adcStopConversion
 480              		.section	.text.adcStopConversionI,"ax",%progbits
 481              		.align	2
 482              		.p2align 4,,15
 483              		.global	adcStopConversionI
 484              		.thumb
 485              		.thumb_func
 486              		.type	adcStopConversionI, %function
 487              	adcStopConversionI:
 488              	.LFB265:
 489              		.loc 1 227 0
 490              		.cfi_startproc
 491              		@ args = 0, pretend = 0, frame = 0
 492              		@ frame_needed = 0, uses_anonymous_args = 0
 493              	.LVL29:
 494              		.loc 1 236 0
 495 0000 0278     		ldrb	r2, [r0]	@ zero_extendqisi2
 496 0002 022A     		cmp	r2, #2
 497 0004 0FD0     		beq	.L22
 498              		.loc 1 227 0
 499 0006 10B5     		push	{r4, lr}
 500              		.cfi_def_cfa_offset 8
 501              		.cfi_offset 4, -8
 502              		.cfi_offset 14, -4
 503 0008 0446     		mov	r4, r0
 504              		.loc 1 237 0
 505 000a FFF7FEFF 		bl	adc_lld_stop_conversion
 506              	.LVL30:
 507              		.loc 1 239 0
 508 000e 2046     		mov	r0, r4
 509              		.loc 1 238 0
 510 0010 0022     		movs	r2, #0
 511              		.loc 1 239 0
 512 0012 0223     		movs	r3, #2
 513              		.loc 1 238 0
ARM GAS  /tmp/ccE9Uswy.s 			page 10


 514 0014 2261     		str	r2, [r4, #16]
 515              	.LBB167:
 516              	.LBB168:
 517              		.loc 2 682 0
 518 0016 6FF00101 		mvn	r1, #1
 519              	.LBE168:
 520              	.LBE167:
 521              		.loc 1 239 0
 522 001a 00F8143B 		strb	r3, [r0], #20
 523              	.LVL31:
 524              		.loc 1 242 0
 525 001e BDE81040 		pop	{r4, lr}
 526              		.cfi_restore 14
 527              		.cfi_restore 4
 528              		.cfi_def_cfa_offset 0
 529              	.LVL32:
 530              	.LBB170:
 531              	.LBB169:
 532              		.loc 2 682 0
 533 0022 FFF7FEBF 		b	chThdResumeI
 534              	.LVL33:
 535              	.L22:
 536 0026 7047     		bx	lr
 537              	.LBE169:
 538              	.LBE170:
 539              		.cfi_endproc
 540              	.LFE265:
 541              		.size	adcStopConversionI, .-adcStopConversionI
 542              		.section	.text.adcConvert,"ax",%progbits
 543              		.align	2
 544              		.p2align 4,,15
 545              		.global	adcConvert
 546              		.thumb
 547              		.thumb_func
 548              		.type	adcConvert, %function
 549              	adcConvert:
 550              	.LFB266:
 551              		.loc 1 271 0
 552              		.cfi_startproc
 553              		@ args = 0, pretend = 0, frame = 0
 554              		@ frame_needed = 0, uses_anonymous_args = 0
 555              	.LVL34:
 556 0000 70B5     		push	{r4, r5, r6, lr}
 557              		.cfi_def_cfa_offset 16
 558              		.cfi_offset 4, -16
 559              		.cfi_offset 5, -12
 560              		.cfi_offset 6, -8
 561              		.cfi_offset 14, -4
 562              	.LBB171:
 563              	.LBB172:
 564              	.LBB173:
 565              	.LBB174:
 566              	.LBB175:
 567              		.loc 3 546 0
 568 0002 2025     		movs	r5, #32
 569              		.syntax unified
 570              	@ 546 "/home/selim/working/ChibiOS/os/ext/CMSIS/include/core_cmFunc.h" 1
ARM GAS  /tmp/ccE9Uswy.s 			page 11


 571 0004 85F31188 		MSR basepri, r5
 572              	@ 0 "" 2
 573              	.LVL35:
 574              		.thumb
 575              		.syntax unified
 576              	.LBE175:
 577              	.LBE174:
 578              	.LBE173:
 579              	.LBE172:
 580              	.LBE171:
 581              	.LBB176:
 582              	.LBB177:
 583              		.loc 1 187 0
 584 0008 0546     		mov	r5, r0
 585 000a 0326     		movs	r6, #3
 586              		.loc 1 184 0
 587 000c 8260     		str	r2, [r0, #8]
 588              		.loc 1 185 0
 589 000e C360     		str	r3, [r0, #12]
 590              		.loc 1 186 0
 591 0010 0161     		str	r1, [r0, #16]
 592              		.loc 1 187 0
 593 0012 05F8146B 		strb	r6, [r5], #20
 594              		.loc 1 188 0
 595 0016 FFF7FEFF 		bl	adc_lld_start_conversion
 596              	.LVL36:
 597              	.LBE177:
 598              	.LBE176:
 599              	.LBB178:
 600              	.LBB179:
 601              		.loc 2 642 0
 602 001a 2846     		mov	r0, r5
 603 001c FFF7FEFF 		bl	chThdSuspendS
 604              	.LVL37:
 605              	.LBE179:
 606              	.LBE178:
 607              	.LBB180:
 608              	.LBB181:
 609              	.LBB182:
 610              	.LBB183:
 611              	.LBB184:
 612              	.LBB185:
 613              		.loc 3 546 0
 614 0020 0023     		movs	r3, #0
 615              		.syntax unified
 616              	@ 546 "/home/selim/working/ChibiOS/os/ext/CMSIS/include/core_cmFunc.h" 1
 617 0022 83F31188 		MSR basepri, r3
 618              	@ 0 "" 2
 619              	.LVL38:
 620              		.thumb
 621              		.syntax unified
 622              	.LBE185:
 623              	.LBE184:
 624              	.LBE183:
 625              	.LBE182:
 626              	.LBE181:
 627              	.LBE180:
ARM GAS  /tmp/ccE9Uswy.s 			page 12


 628              		.loc 1 280 0
 629 0026 70BD     		pop	{r4, r5, r6, pc}
 630              		.cfi_endproc
 631              	.LFE266:
 632              		.size	adcConvert, .-adcConvert
 633              		.section	.text.adcAcquireBus,"ax",%progbits
 634              		.align	2
 635              		.p2align 4,,15
 636              		.global	adcAcquireBus
 637              		.thumb
 638              		.thumb_func
 639              		.type	adcAcquireBus, %function
 640              	adcAcquireBus:
 641              	.LFB267:
 642              		.loc 1 295 0
 643              		.cfi_startproc
 644              		@ args = 0, pretend = 0, frame = 0
 645              		@ frame_needed = 0, uses_anonymous_args = 0
 646              		@ link register save eliminated.
 647              	.LVL39:
 648              	.LBB186:
 649              	.LBB187:
 650              		.loc 2 861 0
 651 0000 1830     		adds	r0, r0, #24
 652              	.LVL40:
 653 0002 FFF7FEBF 		b	chMtxLock
 654              	.LVL41:
 655              	.LBE187:
 656              	.LBE186:
 657              		.cfi_endproc
 658              	.LFE267:
 659              		.size	adcAcquireBus, .-adcAcquireBus
 660 0006 00BF     		.section	.text.adcReleaseBus,"ax",%progbits
 661              		.align	2
 662              		.p2align 4,,15
 663              		.global	adcReleaseBus
 664              		.thumb
 665              		.thumb_func
 666              		.type	adcReleaseBus, %function
 667              	adcReleaseBus:
 668              	.LFB268:
 669              		.loc 1 311 0
 670              		.cfi_startproc
 671              		@ args = 0, pretend = 0, frame = 0
 672              		@ frame_needed = 0, uses_anonymous_args = 0
 673              		@ link register save eliminated.
 674              	.LVL42:
 675              	.LBB188:
 676              	.LBB189:
 677              		.loc 2 885 0
 678 0000 1830     		adds	r0, r0, #24
 679              	.LVL43:
 680 0002 FFF7FEBF 		b	chMtxUnlock
 681              	.LVL44:
 682              	.LBE189:
 683              	.LBE188:
 684              		.cfi_endproc
ARM GAS  /tmp/ccE9Uswy.s 			page 13


 685              	.LFE268:
 686              		.size	adcReleaseBus, .-adcReleaseBus
 687 0006 00BF     		.text
 688              	.Letext0:
 689              		.file 4 "/usr/lib/gcc/arm-none-eabi/5.3.1/include/stddef.h"
 690              		.file 5 "/usr/arm-none-eabi/include/machine/_default_types.h"
 691              		.file 6 "/usr/arm-none-eabi/include/sys/_stdint.h"
 692              		.file 7 "/home/selim/working/ChibiOS/os/rt/ports/ARMCMx/compilers/GCC/chtypes.h"
 693              		.file 8 "/home/selim/working/ChibiOS/os/rt/include/chsystypes.h"
 694              		.file 9 "/home/selim/working/ChibiOS/os/rt/include/chschd.h"
 695              		.file 10 "/home/selim/working/ChibiOS/os/ext/CMSIS/ST/stm32f407xx.h"
 696              		.file 11 "/home/selim/working/ChibiOS/os/rt/ports/ARMCMx/chcore.h"
 697              		.file 12 "/home/selim/working/ChibiOS/os/rt/ports/ARMCMx/chcore_v7m.h"
 698              		.file 13 "/home/selim/working/ChibiOS/os/rt/include/chtm.h"
 699              		.file 14 "/home/selim/working/ChibiOS/os/rt/include/chsem.h"
 700              		.file 15 "/home/selim/working/ChibiOS/os/rt/include/chmtx.h"
 701              		.file 16 "/home/selim/working/ChibiOS/os/hal/ports/STM32/STM32F4xx/stm32_dma.h"
 702              		.file 17 "/home/selim/working/ChibiOS/os/hal/include/adc.h"
 703              		.file 18 "/home/selim/working/ChibiOS/os/hal/ports/STM32/STM32F4xx/adc_lld.h"
 704              		.file 19 "/home/selim/working/ChibiOS/os/rt/include/chsys.h"
 705              		.file 20 "/home/selim/working/ChibiOS/os/rt/include/chthreads.h"
 706              		.file 21 "/home/selim/working/ChibiOS/os/ext/CMSIS/include/core_cm4.h"
 707              		.section	.debug_info,"",%progbits
 708              	.Ldebug_info0:
 709 0000 01150000 		.4byte	0x1501
 710 0004 0400     		.2byte	0x4
 711 0006 00000000 		.4byte	.Ldebug_abbrev0
 712 000a 04       		.byte	0x4
 713 000b 01       		.uleb128 0x1
 714 000c BE050000 		.4byte	.LASF204
 715 0010 0C       		.byte	0xc
 716 0011 10090000 		.4byte	.LASF205
 717 0015 60000000 		.4byte	.Ldebug_ranges0+0x60
 718 0019 00000000 		.4byte	0
 719 001d 00000000 		.4byte	.Ldebug_line0
 720 0021 02       		.uleb128 0x2
 721 0022 04       		.byte	0x4
 722 0023 05       		.byte	0x5
 723 0024 696E7400 		.ascii	"int\000"
 724 0028 03       		.uleb128 0x3
 725 0029 31000000 		.4byte	.LASF4
 726 002d 04       		.byte	0x4
 727 002e D8       		.byte	0xd8
 728 002f 33000000 		.4byte	0x33
 729 0033 04       		.uleb128 0x4
 730 0034 04       		.byte	0x4
 731 0035 07       		.byte	0x7
 732 0036 ED020000 		.4byte	.LASF0
 733 003a 04       		.uleb128 0x4
 734 003b 08       		.byte	0x8
 735 003c 05       		.byte	0x5
 736 003d 0C020000 		.4byte	.LASF1
 737 0041 04       		.uleb128 0x4
 738 0042 08       		.byte	0x8
 739 0043 04       		.byte	0x4
 740 0044 57020000 		.4byte	.LASF2
 741 0048 04       		.uleb128 0x4
ARM GAS  /tmp/ccE9Uswy.s 			page 14


 742 0049 01       		.byte	0x1
 743 004a 06       		.byte	0x6
 744 004b 50010000 		.4byte	.LASF3
 745 004f 03       		.uleb128 0x3
 746 0050 58000000 		.4byte	.LASF5
 747 0054 05       		.byte	0x5
 748 0055 1D       		.byte	0x1d
 749 0056 5A000000 		.4byte	0x5a
 750 005a 04       		.uleb128 0x4
 751 005b 01       		.byte	0x1
 752 005c 08       		.byte	0x8
 753 005d 76050000 		.4byte	.LASF6
 754 0061 04       		.uleb128 0x4
 755 0062 02       		.byte	0x2
 756 0063 05       		.byte	0x5
 757 0064 C6030000 		.4byte	.LASF7
 758 0068 03       		.uleb128 0x3
 759 0069 5D070000 		.4byte	.LASF8
 760 006d 05       		.byte	0x5
 761 006e 2B       		.byte	0x2b
 762 006f 73000000 		.4byte	0x73
 763 0073 04       		.uleb128 0x4
 764 0074 02       		.byte	0x2
 765 0075 07       		.byte	0x7
 766 0076 39030000 		.4byte	.LASF9
 767 007a 03       		.uleb128 0x3
 768 007b D0030000 		.4byte	.LASF10
 769 007f 05       		.byte	0x5
 770 0080 3F       		.byte	0x3f
 771 0081 85000000 		.4byte	0x85
 772 0085 04       		.uleb128 0x4
 773 0086 04       		.byte	0x4
 774 0087 05       		.byte	0x5
 775 0088 AA010000 		.4byte	.LASF11
 776 008c 03       		.uleb128 0x3
 777 008d 9E070000 		.4byte	.LASF12
 778 0091 05       		.byte	0x5
 779 0092 41       		.byte	0x41
 780 0093 97000000 		.4byte	0x97
 781 0097 04       		.uleb128 0x4
 782 0098 04       		.byte	0x4
 783 0099 07       		.byte	0x7
 784 009a 29070000 		.4byte	.LASF13
 785 009e 03       		.uleb128 0x3
 786 009f E9040000 		.4byte	.LASF14
 787 00a3 05       		.byte	0x5
 788 00a4 5B       		.byte	0x5b
 789 00a5 A9000000 		.4byte	0xa9
 790 00a9 04       		.uleb128 0x4
 791 00aa 08       		.byte	0x8
 792 00ab 07       		.byte	0x7
 793 00ac AE000000 		.4byte	.LASF15
 794 00b0 03       		.uleb128 0x3
 795 00b1 77080000 		.4byte	.LASF16
 796 00b5 06       		.byte	0x6
 797 00b6 14       		.byte	0x14
 798 00b7 4F000000 		.4byte	0x4f
ARM GAS  /tmp/ccE9Uswy.s 			page 15


 799 00bb 03       		.uleb128 0x3
 800 00bc 1A020000 		.4byte	.LASF17
 801 00c0 06       		.byte	0x6
 802 00c1 1A       		.byte	0x1a
 803 00c2 68000000 		.4byte	0x68
 804 00c6 03       		.uleb128 0x3
 805 00c7 6E050000 		.4byte	.LASF18
 806 00cb 06       		.byte	0x6
 807 00cc 1F       		.byte	0x1f
 808 00cd 7A000000 		.4byte	0x7a
 809 00d1 03       		.uleb128 0x3
 810 00d2 F8060000 		.4byte	.LASF19
 811 00d6 06       		.byte	0x6
 812 00d7 20       		.byte	0x20
 813 00d8 8C000000 		.4byte	0x8c
 814 00dc 03       		.uleb128 0x3
 815 00dd 38000000 		.4byte	.LASF20
 816 00e1 06       		.byte	0x6
 817 00e2 26       		.byte	0x26
 818 00e3 9E000000 		.4byte	0x9e
 819 00e7 05       		.uleb128 0x5
 820 00e8 C6000000 		.4byte	0xc6
 821 00ec 05       		.uleb128 0x5
 822 00ed D1000000 		.4byte	0xd1
 823 00f1 03       		.uleb128 0x3
 824 00f2 1A080000 		.4byte	.LASF21
 825 00f6 07       		.byte	0x7
 826 00f7 46       		.byte	0x46
 827 00f8 D1000000 		.4byte	0xd1
 828 00fc 03       		.uleb128 0x3
 829 00fd 97030000 		.4byte	.LASF22
 830 0101 07       		.byte	0x7
 831 0102 49       		.byte	0x49
 832 0103 B0000000 		.4byte	0xb0
 833 0107 03       		.uleb128 0x3
 834 0108 F2010000 		.4byte	.LASF23
 835 010c 07       		.byte	0x7
 836 010d 4A       		.byte	0x4a
 837 010e B0000000 		.4byte	0xb0
 838 0112 03       		.uleb128 0x3
 839 0113 08050000 		.4byte	.LASF24
 840 0117 07       		.byte	0x7
 841 0118 4B       		.byte	0x4b
 842 0119 B0000000 		.4byte	0xb0
 843 011d 03       		.uleb128 0x3
 844 011e 3A050000 		.4byte	.LASF25
 845 0122 07       		.byte	0x7
 846 0123 4D       		.byte	0x4d
 847 0124 D1000000 		.4byte	0xd1
 848 0128 03       		.uleb128 0x3
 849 0129 73030000 		.4byte	.LASF26
 850 012d 07       		.byte	0x7
 851 012e 4E       		.byte	0x4e
 852 012f C6000000 		.4byte	0xc6
 853 0133 03       		.uleb128 0x3
 854 0134 BA030000 		.4byte	.LASF27
 855 0138 07       		.byte	0x7
ARM GAS  /tmp/ccE9Uswy.s 			page 16


 856 0139 50       		.byte	0x50
 857 013a D1000000 		.4byte	0xd1
 858 013e 03       		.uleb128 0x3
 859 013f E7020000 		.4byte	.LASF28
 860 0143 07       		.byte	0x7
 861 0144 52       		.byte	0x52
 862 0145 C6000000 		.4byte	0xc6
 863 0149 03       		.uleb128 0x3
 864 014a 80070000 		.4byte	.LASF29
 865 014e 08       		.byte	0x8
 866 014f 33       		.byte	0x33
 867 0150 D1000000 		.4byte	0xd1
 868 0154 03       		.uleb128 0x3
 869 0155 68070000 		.4byte	.LASF30
 870 0159 08       		.byte	0x8
 871 015a 3F       		.byte	0x3f
 872 015b 5F010000 		.4byte	0x15f
 873 015f 06       		.uleb128 0x6
 874 0160 4C030000 		.4byte	.LASF50
 875 0164 44       		.byte	0x44
 876 0165 09       		.byte	0x9
 877 0166 C2       		.byte	0xc2
 878 0167 4C020000 		.4byte	0x24c
 879 016b 07       		.uleb128 0x7
 880 016c 9F060000 		.4byte	.LASF31
 881 0170 09       		.byte	0x9
 882 0171 C3       		.byte	0xc3
 883 0172 57020000 		.4byte	0x257
 884 0176 00       		.byte	0
 885 0177 07       		.uleb128 0x7
 886 0178 20050000 		.4byte	.LASF32
 887 017c 09       		.byte	0x9
 888 017d C5       		.byte	0xc5
 889 017e 57020000 		.4byte	0x257
 890 0182 04       		.byte	0x4
 891 0183 07       		.uleb128 0x7
 892 0184 1C010000 		.4byte	.LASF33
 893 0188 09       		.byte	0x9
 894 0189 C7       		.byte	0xc7
 895 018a 1D010000 		.4byte	0x11d
 896 018e 08       		.byte	0x8
 897 018f 07       		.uleb128 0x7
 898 0190 65090000 		.4byte	.LASF34
 899 0194 09       		.byte	0x9
 900 0195 C8       		.byte	0xc8
 901 0196 EC050000 		.4byte	0x5ec
 902 019a 0C       		.byte	0xc
 903 019b 07       		.uleb128 0x7
 904 019c 2F020000 		.4byte	.LASF35
 905 01a0 09       		.byte	0x9
 906 01a1 CA       		.byte	0xca
 907 01a2 57020000 		.4byte	0x257
 908 01a6 10       		.byte	0x10
 909 01a7 07       		.uleb128 0x7
 910 01a8 94040000 		.4byte	.LASF36
 911 01ac 09       		.byte	0x9
 912 01ad CB       		.byte	0xcb
ARM GAS  /tmp/ccE9Uswy.s 			page 17


 913 01ae 57020000 		.4byte	0x257
 914 01b2 14       		.byte	0x14
 915 01b3 07       		.uleb128 0x7
 916 01b4 D0080000 		.4byte	.LASF37
 917 01b8 09       		.byte	0x9
 918 01b9 D2       		.byte	0xd2
 919 01ba 6B070000 		.4byte	0x76b
 920 01be 18       		.byte	0x18
 921 01bf 07       		.uleb128 0x7
 922 01c0 A6050000 		.4byte	.LASF38
 923 01c4 09       		.byte	0x9
 924 01c5 DD       		.byte	0xdd
 925 01c6 07010000 		.4byte	0x107
 926 01ca 1C       		.byte	0x1c
 927 01cb 07       		.uleb128 0x7
 928 01cc A6060000 		.4byte	.LASF39
 929 01d0 09       		.byte	0x9
 930 01d1 E1       		.byte	0xe1
 931 01d2 FC000000 		.4byte	0xfc
 932 01d6 1D       		.byte	0x1d
 933 01d7 07       		.uleb128 0x7
 934 01d8 5E080000 		.4byte	.LASF40
 935 01dc 09       		.byte	0x9
 936 01dd E6       		.byte	0xe6
 937 01de 12010000 		.4byte	0x112
 938 01e2 1E       		.byte	0x1e
 939 01e3 08       		.uleb128 0x8
 940 01e4 705F7500 		.ascii	"p_u\000"
 941 01e8 09       		.byte	0x9
 942 01e9 3101     		.2byte	0x131
 943 01eb A6060000 		.4byte	0x6a6
 944 01ef 20       		.byte	0x20
 945 01f0 09       		.uleb128 0x9
 946 01f1 21040000 		.4byte	.LASF41
 947 01f5 09       		.byte	0x9
 948 01f6 3601     		.2byte	0x136
 949 01f8 5D020000 		.4byte	0x25d
 950 01fc 24       		.byte	0x24
 951 01fd 09       		.uleb128 0x9
 952 01fe 17030000 		.4byte	.LASF42
 953 0202 09       		.byte	0x9
 954 0203 3C01     		.2byte	0x13c
 955 0205 81020000 		.4byte	0x281
 956 0209 28       		.byte	0x28
 957 020a 09       		.uleb128 0x9
 958 020b 05090000 		.4byte	.LASF43
 959 020f 09       		.byte	0x9
 960 0210 4001     		.2byte	0x140
 961 0212 28010000 		.4byte	0x128
 962 0216 30       		.byte	0x30
 963 0217 09       		.uleb128 0x9
 964 0218 E8060000 		.4byte	.LASF44
 965 021c 09       		.byte	0x9
 966 021d 4601     		.2byte	0x146
 967 021f 33010000 		.4byte	0x133
 968 0223 34       		.byte	0x34
 969 0224 09       		.uleb128 0x9
ARM GAS  /tmp/ccE9Uswy.s 			page 18


 970 0225 84050000 		.4byte	.LASF45
 971 0229 09       		.byte	0x9
 972 022a 4D01     		.2byte	0x14d
 973 022c 65070000 		.4byte	0x765
 974 0230 38       		.byte	0x38
 975 0231 09       		.uleb128 0x9
 976 0232 8A070000 		.4byte	.LASF46
 977 0236 09       		.byte	0x9
 978 0237 5101     		.2byte	0x151
 979 0239 1D010000 		.4byte	0x11d
 980 023d 3C       		.byte	0x3c
 981 023e 09       		.uleb128 0x9
 982 023f 5C010000 		.4byte	.LASF47
 983 0243 09       		.byte	0x9
 984 0244 5801     		.2byte	0x158
 985 0246 34030000 		.4byte	0x334
 986 024a 40       		.byte	0x40
 987 024b 00       		.byte	0
 988 024c 03       		.uleb128 0x3
 989 024d 34040000 		.4byte	.LASF48
 990 0251 08       		.byte	0x8
 991 0252 44       		.byte	0x44
 992 0253 57020000 		.4byte	0x257
 993 0257 0A       		.uleb128 0xa
 994 0258 04       		.byte	0x4
 995 0259 54010000 		.4byte	0x154
 996 025d 03       		.uleb128 0x3
 997 025e EA080000 		.4byte	.LASF49
 998 0262 08       		.byte	0x8
 999 0263 49       		.byte	0x49
 1000 0264 68020000 		.4byte	0x268
 1001 0268 06       		.uleb128 0x6
 1002 0269 19070000 		.4byte	.LASF51
 1003 026d 04       		.byte	0x4
 1004 026e 09       		.byte	0x9
 1005 026f B0       		.byte	0xb0
 1006 0270 81020000 		.4byte	0x281
 1007 0274 07       		.uleb128 0x7
 1008 0275 9F060000 		.4byte	.LASF31
 1009 0279 09       		.byte	0x9
 1010 027a B1       		.byte	0xb1
 1011 027b 57020000 		.4byte	0x257
 1012 027f 00       		.byte	0
 1013 0280 00       		.byte	0
 1014 0281 03       		.uleb128 0x3
 1015 0282 45080000 		.4byte	.LASF52
 1016 0286 08       		.byte	0x8
 1017 0287 50       		.byte	0x50
 1018 0288 8C020000 		.4byte	0x28c
 1019 028c 06       		.uleb128 0x6
 1020 028d 0B010000 		.4byte	.LASF53
 1021 0291 08       		.byte	0x8
 1022 0292 09       		.byte	0x9
 1023 0293 B7       		.byte	0xb7
 1024 0294 B1020000 		.4byte	0x2b1
 1025 0298 07       		.uleb128 0x7
 1026 0299 9F060000 		.4byte	.LASF31
ARM GAS  /tmp/ccE9Uswy.s 			page 19


 1027 029d 09       		.byte	0x9
 1028 029e B8       		.byte	0xb8
 1029 029f 57020000 		.4byte	0x257
 1030 02a3 00       		.byte	0
 1031 02a4 07       		.uleb128 0x7
 1032 02a5 20050000 		.4byte	.LASF32
 1033 02a9 09       		.byte	0x9
 1034 02aa B9       		.byte	0xb9
 1035 02ab 57020000 		.4byte	0x257
 1036 02af 04       		.byte	0x4
 1037 02b0 00       		.byte	0
 1038 02b1 03       		.uleb128 0x3
 1039 02b2 12000000 		.4byte	.LASF54
 1040 02b6 08       		.byte	0x8
 1041 02b7 57       		.byte	0x57
 1042 02b8 BC020000 		.4byte	0x2bc
 1043 02bc 0B       		.uleb128 0xb
 1044 02bd AC030000 		.4byte	.LASF55
 1045 02c1 1C       		.byte	0x1c
 1046 02c2 09       		.byte	0x9
 1047 02c3 9001     		.2byte	0x190
 1048 02c5 18030000 		.4byte	0x318
 1049 02c9 09       		.uleb128 0x9
 1050 02ca 08070000 		.4byte	.LASF56
 1051 02ce 09       		.byte	0x9
 1052 02cf 9101     		.2byte	0x191
 1053 02d1 81020000 		.4byte	0x281
 1054 02d5 00       		.byte	0
 1055 02d6 09       		.uleb128 0x9
 1056 02d7 B7050000 		.4byte	.LASF57
 1057 02db 09       		.byte	0x9
 1058 02dc 9201     		.2byte	0x192
 1059 02de 1D010000 		.4byte	0x11d
 1060 02e2 08       		.byte	0x8
 1061 02e3 09       		.uleb128 0x9
 1062 02e4 A1040000 		.4byte	.LASF58
 1063 02e8 09       		.byte	0x9
 1064 02e9 9401     		.2byte	0x194
 1065 02eb EC050000 		.4byte	0x5ec
 1066 02ef 0C       		.byte	0xc
 1067 02f0 09       		.uleb128 0x9
 1068 02f1 79030000 		.4byte	.LASF59
 1069 02f5 09       		.byte	0x9
 1070 02f6 9701     		.2byte	0x197
 1071 02f8 57020000 		.4byte	0x257
 1072 02fc 10       		.byte	0x10
 1073 02fd 09       		.uleb128 0x9
 1074 02fe C4040000 		.4byte	.LASF60
 1075 0302 09       		.byte	0x9
 1076 0303 9801     		.2byte	0x198
 1077 0305 57020000 		.4byte	0x257
 1078 0309 14       		.byte	0x14
 1079 030a 09       		.uleb128 0x9
 1080 030b BA040000 		.4byte	.LASF61
 1081 030f 09       		.byte	0x9
 1082 0310 9B01     		.2byte	0x19b
 1083 0312 57020000 		.4byte	0x257
ARM GAS  /tmp/ccE9Uswy.s 			page 20


 1084 0316 18       		.byte	0x18
 1085 0317 00       		.byte	0
 1086 0318 03       		.uleb128 0x3
 1087 0319 95070000 		.4byte	.LASF62
 1088 031d 08       		.byte	0x8
 1089 031e 5C       		.byte	0x5c
 1090 031f 23030000 		.4byte	0x323
 1091 0323 0A       		.uleb128 0xa
 1092 0324 04       		.byte	0x4
 1093 0325 29030000 		.4byte	0x329
 1094 0329 0C       		.uleb128 0xc
 1095 032a 34030000 		.4byte	0x334
 1096 032e 0D       		.uleb128 0xd
 1097 032f 34030000 		.4byte	0x334
 1098 0333 00       		.byte	0
 1099 0334 0E       		.uleb128 0xe
 1100 0335 04       		.byte	0x4
 1101 0336 03       		.uleb128 0x3
 1102 0337 10050000 		.4byte	.LASF63
 1103 033b 08       		.byte	0x8
 1104 033c 61       		.byte	0x61
 1105 033d 41030000 		.4byte	0x341
 1106 0341 0B       		.uleb128 0xb
 1107 0342 F6070000 		.4byte	.LASF64
 1108 0346 14       		.byte	0x14
 1109 0347 09       		.byte	0x9
 1110 0348 6B01     		.2byte	0x16b
 1111 034a 90030000 		.4byte	0x390
 1112 034e 09       		.uleb128 0x9
 1113 034f FA020000 		.4byte	.LASF65
 1114 0353 09       		.byte	0x9
 1115 0354 6C01     		.2byte	0x16c
 1116 0356 7D070000 		.4byte	0x77d
 1117 035a 00       		.byte	0
 1118 035b 09       		.uleb128 0x9
 1119 035c 8F020000 		.4byte	.LASF66
 1120 0360 09       		.byte	0x9
 1121 0361 6D01     		.2byte	0x16d
 1122 0363 7D070000 		.4byte	0x77d
 1123 0367 04       		.byte	0x4
 1124 0368 09       		.uleb128 0x9
 1125 0369 10070000 		.4byte	.LASF67
 1126 036d 09       		.byte	0x9
 1127 036e 6E01     		.2byte	0x16e
 1128 0370 49010000 		.4byte	0x149
 1129 0374 08       		.byte	0x8
 1130 0375 09       		.uleb128 0x9
 1131 0376 6B090000 		.4byte	.LASF68
 1132 037a 09       		.byte	0x9
 1133 037b 6F01     		.2byte	0x16f
 1134 037d 18030000 		.4byte	0x318
 1135 0381 0C       		.byte	0xc
 1136 0382 09       		.uleb128 0x9
 1137 0383 35080000 		.4byte	.LASF69
 1138 0387 09       		.byte	0x9
 1139 0388 7101     		.2byte	0x171
 1140 038a 34030000 		.4byte	0x334
ARM GAS  /tmp/ccE9Uswy.s 			page 21


 1141 038e 10       		.byte	0x10
 1142 038f 00       		.byte	0
 1143 0390 03       		.uleb128 0x3
 1144 0391 E8000000 		.4byte	.LASF70
 1145 0395 08       		.byte	0x8
 1146 0396 66       		.byte	0x66
 1147 0397 9B030000 		.4byte	0x39b
 1148 039b 0B       		.uleb128 0xb
 1149 039c 47040000 		.4byte	.LASF71
 1150 03a0 10       		.byte	0x10
 1151 03a1 09       		.byte	0x9
 1152 03a2 7B01     		.2byte	0x17b
 1153 03a4 DD030000 		.4byte	0x3dd
 1154 03a8 09       		.uleb128 0x9
 1155 03a9 FA020000 		.4byte	.LASF65
 1156 03ad 09       		.byte	0x9
 1157 03ae 7C01     		.2byte	0x17c
 1158 03b0 7D070000 		.4byte	0x77d
 1159 03b4 00       		.byte	0
 1160 03b5 09       		.uleb128 0x9
 1161 03b6 8F020000 		.4byte	.LASF66
 1162 03ba 09       		.byte	0x9
 1163 03bb 7E01     		.2byte	0x17e
 1164 03bd 7D070000 		.4byte	0x77d
 1165 03c1 04       		.byte	0x4
 1166 03c2 09       		.uleb128 0x9
 1167 03c3 10070000 		.4byte	.LASF67
 1168 03c7 09       		.byte	0x9
 1169 03c8 8001     		.2byte	0x180
 1170 03ca 49010000 		.4byte	0x149
 1171 03ce 08       		.byte	0x8
 1172 03cf 09       		.uleb128 0x9
 1173 03d0 7E040000 		.4byte	.LASF72
 1174 03d4 09       		.byte	0x9
 1175 03d5 8801     		.2byte	0x188
 1176 03d7 49010000 		.4byte	0x149
 1177 03db 0C       		.byte	0xc
 1178 03dc 00       		.byte	0
 1179 03dd 03       		.uleb128 0x3
 1180 03de 76000000 		.4byte	.LASF73
 1181 03e2 08       		.byte	0x8
 1182 03e3 6B       		.byte	0x6b
 1183 03e4 E8030000 		.4byte	0x3e8
 1184 03e8 0B       		.uleb128 0xb
 1185 03e9 58050000 		.4byte	.LASF74
 1186 03ed 04       		.byte	0x4
 1187 03ee 09       		.byte	0x9
 1188 03ef A201     		.2byte	0x1a2
 1189 03f1 03040000 		.4byte	0x403
 1190 03f5 09       		.uleb128 0x9
 1191 03f6 CA070000 		.4byte	.LASF75
 1192 03fa 09       		.byte	0x9
 1193 03fb AA01     		.2byte	0x1aa
 1194 03fd 83070000 		.4byte	0x783
 1195 0401 00       		.byte	0
 1196 0402 00       		.byte	0
 1197 0403 03       		.uleb128 0x3
ARM GAS  /tmp/ccE9Uswy.s 			page 22


 1198 0404 8B030000 		.4byte	.LASF76
 1199 0408 08       		.byte	0x8
 1200 0409 70       		.byte	0x70
 1201 040a 0E040000 		.4byte	0x40e
 1202 040e 0F       		.uleb128 0xf
 1203 040f 02020000 		.4byte	.LASF77
 1204 0413 5001     		.2byte	0x150
 1205 0415 09       		.byte	0x9
 1206 0416 C201     		.2byte	0x1c2
 1207 0418 6A040000 		.4byte	0x46a
 1208 041c 09       		.uleb128 0x9
 1209 041d 71080000 		.4byte	.LASF78
 1210 0421 09       		.byte	0x9
 1211 0422 C601     		.2byte	0x1c6
 1212 0424 B1020000 		.4byte	0x2b1
 1213 0428 00       		.byte	0
 1214 0429 09       		.uleb128 0x9
 1215 042a 77010000 		.4byte	.LASF79
 1216 042e 09       		.byte	0x9
 1217 042f CA01     		.2byte	0x1ca
 1218 0431 90030000 		.4byte	0x390
 1219 0435 1C       		.byte	0x1c
 1220 0436 08       		.uleb128 0x8
 1221 0437 64626700 		.ascii	"dbg\000"
 1222 043b 09       		.byte	0x9
 1223 043c CE01     		.2byte	0x1ce
 1224 043e DD030000 		.4byte	0x3dd
 1225 0442 2C       		.byte	0x2c
 1226 0443 09       		.uleb128 0x9
 1227 0444 DD000000 		.4byte	.LASF80
 1228 0448 09       		.byte	0x9
 1229 0449 D201     		.2byte	0x1d2
 1230 044b 54010000 		.4byte	0x154
 1231 044f 30       		.byte	0x30
 1232 0450 08       		.uleb128 0x8
 1233 0451 746D00   		.ascii	"tm\000"
 1234 0454 09       		.byte	0x9
 1235 0455 D701     		.2byte	0x1d7
 1236 0457 9B060000 		.4byte	0x69b
 1237 045b 74       		.byte	0x74
 1238 045c 09       		.uleb128 0x9
 1239 045d D8020000 		.4byte	.LASF81
 1240 0461 09       		.byte	0x9
 1241 0462 E301     		.2byte	0x1e3
 1242 0464 88070000 		.4byte	0x788
 1243 0468 78       		.byte	0x78
 1244 0469 00       		.byte	0
 1245 046a 04       		.uleb128 0x4
 1246 046b 04       		.byte	0x4
 1247 046c 07       		.byte	0x7
 1248 046d 2B040000 		.4byte	.LASF82
 1249 0471 10       		.uleb128 0x10
 1250 0472 50       		.byte	0x50
 1251 0473 0A       		.byte	0xa
 1252 0474 C4       		.byte	0xc4
 1253 0475 68050000 		.4byte	0x568
 1254 0479 11       		.uleb128 0x11
ARM GAS  /tmp/ccE9Uswy.s 			page 23


 1255 047a 535200   		.ascii	"SR\000"
 1256 047d 0A       		.byte	0xa
 1257 047e C6       		.byte	0xc6
 1258 047f EC000000 		.4byte	0xec
 1259 0483 00       		.byte	0
 1260 0484 11       		.uleb128 0x11
 1261 0485 43523100 		.ascii	"CR1\000"
 1262 0489 0A       		.byte	0xa
 1263 048a C7       		.byte	0xc7
 1264 048b EC000000 		.4byte	0xec
 1265 048f 04       		.byte	0x4
 1266 0490 11       		.uleb128 0x11
 1267 0491 43523200 		.ascii	"CR2\000"
 1268 0495 0A       		.byte	0xa
 1269 0496 C8       		.byte	0xc8
 1270 0497 EC000000 		.4byte	0xec
 1271 049b 08       		.byte	0x8
 1272 049c 07       		.uleb128 0x7
 1273 049d A7040000 		.4byte	.LASF83
 1274 04a1 0A       		.byte	0xa
 1275 04a2 C9       		.byte	0xc9
 1276 04a3 EC000000 		.4byte	0xec
 1277 04a7 0C       		.byte	0xc
 1278 04a8 07       		.uleb128 0x7
 1279 04a9 AD040000 		.4byte	.LASF84
 1280 04ad 0A       		.byte	0xa
 1281 04ae CA       		.byte	0xca
 1282 04af EC000000 		.4byte	0xec
 1283 04b3 10       		.byte	0x10
 1284 04b4 07       		.uleb128 0x7
 1285 04b5 00040000 		.4byte	.LASF85
 1286 04b9 0A       		.byte	0xa
 1287 04ba CB       		.byte	0xcb
 1288 04bb EC000000 		.4byte	0xec
 1289 04bf 14       		.byte	0x14
 1290 04c0 07       		.uleb128 0x7
 1291 04c1 06040000 		.4byte	.LASF86
 1292 04c5 0A       		.byte	0xa
 1293 04c6 CC       		.byte	0xcc
 1294 04c7 EC000000 		.4byte	0xec
 1295 04cb 18       		.byte	0x18
 1296 04cc 07       		.uleb128 0x7
 1297 04cd B7060000 		.4byte	.LASF87
 1298 04d1 0A       		.byte	0xa
 1299 04d2 CD       		.byte	0xcd
 1300 04d3 EC000000 		.4byte	0xec
 1301 04d7 1C       		.byte	0x1c
 1302 04d8 07       		.uleb128 0x7
 1303 04d9 C7060000 		.4byte	.LASF88
 1304 04dd 0A       		.byte	0xa
 1305 04de CE       		.byte	0xce
 1306 04df EC000000 		.4byte	0xec
 1307 04e3 20       		.byte	0x20
 1308 04e4 11       		.uleb128 0x11
 1309 04e5 48545200 		.ascii	"HTR\000"
 1310 04e9 0A       		.byte	0xa
 1311 04ea CF       		.byte	0xcf
ARM GAS  /tmp/ccE9Uswy.s 			page 24


 1312 04eb EC000000 		.4byte	0xec
 1313 04ef 24       		.byte	0x24
 1314 04f0 11       		.uleb128 0x11
 1315 04f1 4C545200 		.ascii	"LTR\000"
 1316 04f5 0A       		.byte	0xa
 1317 04f6 D0       		.byte	0xd0
 1318 04f7 EC000000 		.4byte	0xec
 1319 04fb 28       		.byte	0x28
 1320 04fc 07       		.uleb128 0x7
 1321 04fd CC040000 		.4byte	.LASF89
 1322 0501 0A       		.byte	0xa
 1323 0502 D1       		.byte	0xd1
 1324 0503 EC000000 		.4byte	0xec
 1325 0507 2C       		.byte	0x2c
 1326 0508 07       		.uleb128 0x7
 1327 0509 D1040000 		.4byte	.LASF90
 1328 050d 0A       		.byte	0xa
 1329 050e D2       		.byte	0xd2
 1330 050f EC000000 		.4byte	0xec
 1331 0513 30       		.byte	0x30
 1332 0514 07       		.uleb128 0x7
 1333 0515 D6040000 		.4byte	.LASF91
 1334 0519 0A       		.byte	0xa
 1335 051a D3       		.byte	0xd3
 1336 051b EC000000 		.4byte	0xec
 1337 051f 34       		.byte	0x34
 1338 0520 07       		.uleb128 0x7
 1339 0521 23010000 		.4byte	.LASF92
 1340 0525 0A       		.byte	0xa
 1341 0526 D4       		.byte	0xd4
 1342 0527 EC000000 		.4byte	0xec
 1343 052b 38       		.byte	0x38
 1344 052c 07       		.uleb128 0x7
 1345 052d A5080000 		.4byte	.LASF93
 1346 0531 0A       		.byte	0xa
 1347 0532 D5       		.byte	0xd5
 1348 0533 EC000000 		.4byte	0xec
 1349 0537 3C       		.byte	0x3c
 1350 0538 07       		.uleb128 0x7
 1351 0539 AA080000 		.4byte	.LASF94
 1352 053d 0A       		.byte	0xa
 1353 053e D6       		.byte	0xd6
 1354 053f EC000000 		.4byte	0xec
 1355 0543 40       		.byte	0x40
 1356 0544 07       		.uleb128 0x7
 1357 0545 AF080000 		.4byte	.LASF95
 1358 0549 0A       		.byte	0xa
 1359 054a D7       		.byte	0xd7
 1360 054b EC000000 		.4byte	0xec
 1361 054f 44       		.byte	0x44
 1362 0550 07       		.uleb128 0x7
 1363 0551 9C040000 		.4byte	.LASF96
 1364 0555 0A       		.byte	0xa
 1365 0556 D8       		.byte	0xd8
 1366 0557 EC000000 		.4byte	0xec
 1367 055b 48       		.byte	0x48
 1368 055c 11       		.uleb128 0x11
ARM GAS  /tmp/ccE9Uswy.s 			page 25


 1369 055d 445200   		.ascii	"DR\000"
 1370 0560 0A       		.byte	0xa
 1371 0561 D9       		.byte	0xd9
 1372 0562 EC000000 		.4byte	0xec
 1373 0566 4C       		.byte	0x4c
 1374 0567 00       		.byte	0
 1375 0568 03       		.uleb128 0x3
 1376 0569 23020000 		.4byte	.LASF97
 1377 056d 0A       		.byte	0xa
 1378 056e DA       		.byte	0xda
 1379 056f 71040000 		.4byte	0x471
 1380 0573 12       		.uleb128 0x12
 1381 0574 18       		.byte	0x18
 1382 0575 0A       		.byte	0xa
 1383 0576 6B01     		.2byte	0x16b
 1384 0578 CA050000 		.4byte	0x5ca
 1385 057c 08       		.uleb128 0x8
 1386 057d 435200   		.ascii	"CR\000"
 1387 0580 0A       		.byte	0xa
 1388 0581 6D01     		.2byte	0x16d
 1389 0583 EC000000 		.4byte	0xec
 1390 0587 00       		.byte	0
 1391 0588 09       		.uleb128 0x9
 1392 0589 C5070000 		.4byte	.LASF98
 1393 058d 0A       		.byte	0xa
 1394 058e 6E01     		.2byte	0x16e
 1395 0590 EC000000 		.4byte	0xec
 1396 0594 04       		.byte	0x4
 1397 0595 08       		.uleb128 0x8
 1398 0596 50415200 		.ascii	"PAR\000"
 1399 059a 0A       		.byte	0xa
 1400 059b 6F01     		.2byte	0x16f
 1401 059d EC000000 		.4byte	0xec
 1402 05a1 08       		.byte	0x8
 1403 05a2 09       		.uleb128 0x9
 1404 05a3 53000000 		.4byte	.LASF99
 1405 05a7 0A       		.byte	0xa
 1406 05a8 7001     		.2byte	0x170
 1407 05aa EC000000 		.4byte	0xec
 1408 05ae 0C       		.byte	0xc
 1409 05af 09       		.uleb128 0x9
 1410 05b0 22080000 		.4byte	.LASF100
 1411 05b4 0A       		.byte	0xa
 1412 05b5 7101     		.2byte	0x171
 1413 05b7 EC000000 		.4byte	0xec
 1414 05bb 10       		.byte	0x10
 1415 05bc 08       		.uleb128 0x8
 1416 05bd 46435200 		.ascii	"FCR\000"
 1417 05c1 0A       		.byte	0xa
 1418 05c2 7201     		.2byte	0x172
 1419 05c4 EC000000 		.4byte	0xec
 1420 05c8 14       		.byte	0x14
 1421 05c9 00       		.byte	0
 1422 05ca 13       		.uleb128 0x13
 1423 05cb DB070000 		.4byte	.LASF101
 1424 05cf 0A       		.byte	0xa
 1425 05d0 7301     		.2byte	0x173
ARM GAS  /tmp/ccE9Uswy.s 			page 26


 1426 05d2 73050000 		.4byte	0x573
 1427 05d6 03       		.uleb128 0x3
 1428 05d7 86020000 		.4byte	.LASF102
 1429 05db 0B       		.byte	0xb
 1430 05dc 65       		.byte	0x65
 1431 05dd 34030000 		.4byte	0x334
 1432 05e1 03       		.uleb128 0x3
 1433 05e2 F0030000 		.4byte	.LASF103
 1434 05e6 0B       		.byte	0xb
 1435 05e7 6D       		.byte	0x6d
 1436 05e8 DC000000 		.4byte	0xdc
 1437 05ec 06       		.uleb128 0x6
 1438 05ed EE070000 		.4byte	.LASF104
 1439 05f1 04       		.byte	0x4
 1440 05f2 0B       		.byte	0xb
 1441 05f3 89       		.byte	0x89
 1442 05f4 05060000 		.4byte	0x605
 1443 05f8 11       		.uleb128 0x11
 1444 05f9 72313300 		.ascii	"r13\000"
 1445 05fd 0B       		.byte	0xb
 1446 05fe 8A       		.byte	0x8a
 1447 05ff 80060000 		.4byte	0x680
 1448 0603 00       		.byte	0
 1449 0604 00       		.byte	0
 1450 0605 06       		.uleb128 0x6
 1451 0606 6A000000 		.4byte	.LASF105
 1452 060a 24       		.byte	0x24
 1453 060b 0C       		.byte	0xc
 1454 060c F4       		.byte	0xf4
 1455 060d 80060000 		.4byte	0x680
 1456 0611 08       		.uleb128 0x8
 1457 0612 723400   		.ascii	"r4\000"
 1458 0615 0C       		.byte	0xc
 1459 0616 0701     		.2byte	0x107
 1460 0618 D6050000 		.4byte	0x5d6
 1461 061c 00       		.byte	0
 1462 061d 08       		.uleb128 0x8
 1463 061e 723500   		.ascii	"r5\000"
 1464 0621 0C       		.byte	0xc
 1465 0622 0801     		.2byte	0x108
 1466 0624 D6050000 		.4byte	0x5d6
 1467 0628 04       		.byte	0x4
 1468 0629 08       		.uleb128 0x8
 1469 062a 723600   		.ascii	"r6\000"
 1470 062d 0C       		.byte	0xc
 1471 062e 0901     		.2byte	0x109
 1472 0630 D6050000 		.4byte	0x5d6
 1473 0634 08       		.byte	0x8
 1474 0635 08       		.uleb128 0x8
 1475 0636 723700   		.ascii	"r7\000"
 1476 0639 0C       		.byte	0xc
 1477 063a 0A01     		.2byte	0x10a
 1478 063c D6050000 		.4byte	0x5d6
 1479 0640 0C       		.byte	0xc
 1480 0641 08       		.uleb128 0x8
 1481 0642 723800   		.ascii	"r8\000"
 1482 0645 0C       		.byte	0xc
ARM GAS  /tmp/ccE9Uswy.s 			page 27


 1483 0646 0B01     		.2byte	0x10b
 1484 0648 D6050000 		.4byte	0x5d6
 1485 064c 10       		.byte	0x10
 1486 064d 08       		.uleb128 0x8
 1487 064e 723900   		.ascii	"r9\000"
 1488 0651 0C       		.byte	0xc
 1489 0652 0C01     		.2byte	0x10c
 1490 0654 D6050000 		.4byte	0x5d6
 1491 0658 14       		.byte	0x14
 1492 0659 08       		.uleb128 0x8
 1493 065a 72313000 		.ascii	"r10\000"
 1494 065e 0C       		.byte	0xc
 1495 065f 0D01     		.2byte	0x10d
 1496 0661 D6050000 		.4byte	0x5d6
 1497 0665 18       		.byte	0x18
 1498 0666 08       		.uleb128 0x8
 1499 0667 72313100 		.ascii	"r11\000"
 1500 066b 0C       		.byte	0xc
 1501 066c 0E01     		.2byte	0x10e
 1502 066e D6050000 		.4byte	0x5d6
 1503 0672 1C       		.byte	0x1c
 1504 0673 08       		.uleb128 0x8
 1505 0674 6C7200   		.ascii	"lr\000"
 1506 0677 0C       		.byte	0xc
 1507 0678 0F01     		.2byte	0x10f
 1508 067a D6050000 		.4byte	0x5d6
 1509 067e 20       		.byte	0x20
 1510 067f 00       		.byte	0
 1511 0680 0A       		.uleb128 0xa
 1512 0681 04       		.byte	0x4
 1513 0682 05060000 		.4byte	0x605
 1514 0686 10       		.uleb128 0x10
 1515 0687 04       		.byte	0x4
 1516 0688 0D       		.byte	0xd
 1517 0689 38       		.byte	0x38
 1518 068a 9B060000 		.4byte	0x69b
 1519 068e 07       		.uleb128 0x7
 1520 068f D4070000 		.4byte	.LASF106
 1521 0693 0D       		.byte	0xd
 1522 0694 3C       		.byte	0x3c
 1523 0695 F1000000 		.4byte	0xf1
 1524 0699 00       		.byte	0
 1525 069a 00       		.byte	0
 1526 069b 03       		.uleb128 0x3
 1527 069c 64040000 		.4byte	.LASF107
 1528 06a0 0D       		.byte	0xd
 1529 06a1 3D       		.byte	0x3d
 1530 06a2 86060000 		.4byte	0x686
 1531 06a6 14       		.uleb128 0x14
 1532 06a7 04       		.byte	0x4
 1533 06a8 09       		.byte	0x9
 1534 06a9 FA       		.byte	0xfa
 1535 06aa 03070000 		.4byte	0x703
 1536 06ae 15       		.uleb128 0x15
 1537 06af 41000000 		.4byte	.LASF108
 1538 06b3 09       		.byte	0x9
 1539 06b4 0101     		.2byte	0x101
ARM GAS  /tmp/ccE9Uswy.s 			page 28


 1540 06b6 28010000 		.4byte	0x128
 1541 06ba 15       		.uleb128 0x15
 1542 06bb CD000000 		.4byte	.LASF109
 1543 06bf 09       		.byte	0x9
 1544 06c0 0801     		.2byte	0x108
 1545 06c2 28010000 		.4byte	0x128
 1546 06c6 15       		.uleb128 0x15
 1547 06c7 BC080000 		.4byte	.LASF110
 1548 06cb 09       		.byte	0x9
 1549 06cc 0F01     		.2byte	0x10f
 1550 06ce 34030000 		.4byte	0x334
 1551 06d2 15       		.uleb128 0x15
 1552 06d3 5E040000 		.4byte	.LASF111
 1553 06d7 09       		.byte	0x9
 1554 06d8 1601     		.2byte	0x116
 1555 06da 03070000 		.4byte	0x703
 1556 06de 15       		.uleb128 0x15
 1557 06df 10030000 		.4byte	.LASF112
 1558 06e3 09       		.byte	0x9
 1559 06e4 1E01     		.2byte	0x11e
 1560 06e6 2E070000 		.4byte	0x72e
 1561 06ea 15       		.uleb128 0x15
 1562 06eb 01070000 		.4byte	.LASF113
 1563 06ef 09       		.byte	0x9
 1564 06f0 2701     		.2byte	0x127
 1565 06f2 65070000 		.4byte	0x765
 1566 06f6 15       		.uleb128 0x15
 1567 06f7 98060000 		.4byte	.LASF114
 1568 06fb 09       		.byte	0x9
 1569 06fc 2F01     		.2byte	0x12f
 1570 06fe 33010000 		.4byte	0x133
 1571 0702 00       		.byte	0
 1572 0703 0A       		.uleb128 0xa
 1573 0704 04       		.byte	0x4
 1574 0705 4C020000 		.4byte	0x24c
 1575 0709 06       		.uleb128 0x6
 1576 070a DB060000 		.4byte	.LASF115
 1577 070e 0C       		.byte	0xc
 1578 070f 0E       		.byte	0xe
 1579 0710 34       		.byte	0x34
 1580 0711 2E070000 		.4byte	0x72e
 1581 0715 07       		.uleb128 0x7
 1582 0716 C5000000 		.4byte	.LASF116
 1583 071a 0E       		.byte	0xe
 1584 071b 35       		.byte	0x35
 1585 071c 81020000 		.4byte	0x281
 1586 0720 00       		.byte	0
 1587 0721 07       		.uleb128 0x7
 1588 0722 33030000 		.4byte	.LASF117
 1589 0726 0E       		.byte	0xe
 1590 0727 37       		.byte	0x37
 1591 0728 3E010000 		.4byte	0x13e
 1592 072c 08       		.byte	0x8
 1593 072d 00       		.byte	0
 1594 072e 0A       		.uleb128 0xa
 1595 072f 04       		.byte	0x4
 1596 0730 09070000 		.4byte	0x709
ARM GAS  /tmp/ccE9Uswy.s 			page 29


 1597 0734 06       		.uleb128 0x6
 1598 0735 55080000 		.4byte	.LASF118
 1599 0739 10       		.byte	0x10
 1600 073a 0F       		.byte	0xf
 1601 073b 39       		.byte	0x39
 1602 073c 65070000 		.4byte	0x765
 1603 0740 07       		.uleb128 0x7
 1604 0741 64010000 		.4byte	.LASF119
 1605 0745 0F       		.byte	0xf
 1606 0746 3A       		.byte	0x3a
 1607 0747 81020000 		.4byte	0x281
 1608 074b 00       		.byte	0
 1609 074c 07       		.uleb128 0x7
 1610 074d 4F090000 		.4byte	.LASF120
 1611 0751 0F       		.byte	0xf
 1612 0752 3C       		.byte	0x3c
 1613 0753 57020000 		.4byte	0x257
 1614 0757 08       		.byte	0x8
 1615 0758 07       		.uleb128 0x7
 1616 0759 B3040000 		.4byte	.LASF121
 1617 075d 0F       		.byte	0xf
 1618 075e 3E       		.byte	0x3e
 1619 075f A3070000 		.4byte	0x7a3
 1620 0763 0C       		.byte	0xc
 1621 0764 00       		.byte	0
 1622 0765 0A       		.uleb128 0xa
 1623 0766 04       		.byte	0x4
 1624 0767 34070000 		.4byte	0x734
 1625 076b 0A       		.uleb128 0xa
 1626 076c 04       		.byte	0x4
 1627 076d 78070000 		.4byte	0x778
 1628 0771 04       		.uleb128 0x4
 1629 0772 01       		.byte	0x1
 1630 0773 08       		.byte	0x8
 1631 0774 41070000 		.4byte	.LASF122
 1632 0778 16       		.uleb128 0x16
 1633 0779 71070000 		.4byte	0x771
 1634 077d 0A       		.uleb128 0xa
 1635 077e 04       		.byte	0x4
 1636 077f 36030000 		.4byte	0x336
 1637 0783 05       		.uleb128 0x5
 1638 0784 6B070000 		.4byte	0x76b
 1639 0788 17       		.uleb128 0x17
 1640 0789 E1050000 		.4byte	0x5e1
 1641 078d 98070000 		.4byte	0x798
 1642 0791 18       		.uleb128 0x18
 1643 0792 6A040000 		.4byte	0x46a
 1644 0796 1A       		.byte	0x1a
 1645 0797 00       		.byte	0
 1646 0798 03       		.uleb128 0x3
 1647 0799 3C010000 		.4byte	.LASF123
 1648 079d 0F       		.byte	0xf
 1649 079e 34       		.byte	0x34
 1650 079f 34070000 		.4byte	0x734
 1651 07a3 0A       		.uleb128 0xa
 1652 07a4 04       		.byte	0x4
 1653 07a5 98070000 		.4byte	0x798
ARM GAS  /tmp/ccE9Uswy.s 			page 30


 1654 07a9 10       		.uleb128 0x10
 1655 07aa 0C       		.byte	0xc
 1656 07ab 10       		.byte	0x10
 1657 07ac DA       		.byte	0xda
 1658 07ad EE070000 		.4byte	0x7ee
 1659 07b1 07       		.uleb128 0x7
 1660 07b2 85000000 		.4byte	.LASF124
 1661 07b6 10       		.byte	0x10
 1662 07b7 DB       		.byte	0xdb
 1663 07b8 EE070000 		.4byte	0x7ee
 1664 07bc 00       		.byte	0
 1665 07bd 07       		.uleb128 0x7
 1666 07be F3060000 		.4byte	.LASF125
 1667 07c2 10       		.byte	0x10
 1668 07c3 DC       		.byte	0xdc
 1669 07c4 F4070000 		.4byte	0x7f4
 1670 07c8 04       		.byte	0x4
 1671 07c9 07       		.uleb128 0x7
 1672 07ca 2C030000 		.4byte	.LASF126
 1673 07ce 10       		.byte	0x10
 1674 07cf DD       		.byte	0xdd
 1675 07d0 B0000000 		.4byte	0xb0
 1676 07d4 08       		.byte	0x8
 1677 07d5 07       		.uleb128 0x7
 1678 07d6 81030000 		.4byte	.LASF127
 1679 07da 10       		.byte	0x10
 1680 07db DF       		.byte	0xdf
 1681 07dc B0000000 		.4byte	0xb0
 1682 07e0 09       		.byte	0x9
 1683 07e1 07       		.uleb128 0x7
 1684 07e2 D6000000 		.4byte	.LASF128
 1685 07e6 10       		.byte	0x10
 1686 07e7 E0       		.byte	0xe0
 1687 07e8 B0000000 		.4byte	0xb0
 1688 07ec 0A       		.byte	0xa
 1689 07ed 00       		.byte	0
 1690 07ee 0A       		.uleb128 0xa
 1691 07ef 04       		.byte	0x4
 1692 07f0 CA050000 		.4byte	0x5ca
 1693 07f4 0A       		.uleb128 0xa
 1694 07f5 04       		.byte	0x4
 1695 07f6 EC000000 		.4byte	0xec
 1696 07fa 03       		.uleb128 0x3
 1697 07fb 27050000 		.4byte	.LASF129
 1698 07ff 10       		.byte	0x10
 1699 0800 E1       		.byte	0xe1
 1700 0801 A9070000 		.4byte	0x7a9
 1701 0805 04       		.uleb128 0x4
 1702 0806 01       		.byte	0x1
 1703 0807 02       		.byte	0x2
 1704 0808 68050000 		.4byte	.LASF130
 1705 080c 19       		.uleb128 0x19
 1706 080d 01       		.byte	0x1
 1707 080e 5A000000 		.4byte	0x5a
 1708 0812 11       		.byte	0x11
 1709 0813 46       		.byte	0x46
 1710 0814 3D080000 		.4byte	0x83d
ARM GAS  /tmp/ccE9Uswy.s 			page 31


 1711 0818 1A       		.uleb128 0x1a
 1712 0819 6C010000 		.4byte	.LASF131
 1713 081d 00       		.byte	0
 1714 081e 1A       		.uleb128 0x1a
 1715 081f 75040000 		.4byte	.LASF132
 1716 0823 01       		.byte	0x1
 1717 0824 1A       		.uleb128 0x1a
 1718 0825 56030000 		.4byte	.LASF133
 1719 0829 02       		.byte	0x2
 1720 082a 1A       		.uleb128 0x1a
 1721 082b CD020000 		.4byte	.LASF134
 1722 082f 03       		.byte	0x3
 1723 0830 1A       		.uleb128 0x1a
 1724 0831 C3080000 		.4byte	.LASF135
 1725 0835 04       		.byte	0x4
 1726 0836 1A       		.uleb128 0x1a
 1727 0837 91010000 		.4byte	.LASF136
 1728 083b 05       		.byte	0x5
 1729 083c 00       		.byte	0
 1730 083d 03       		.uleb128 0x3
 1731 083e 48000000 		.4byte	.LASF137
 1732 0842 11       		.byte	0x11
 1733 0843 4D       		.byte	0x4d
 1734 0844 0C080000 		.4byte	0x80c
 1735 0848 13       		.uleb128 0x13
 1736 0849 63020000 		.4byte	.LASF138
 1737 084d 12       		.byte	0x12
 1738 084e 2701     		.2byte	0x127
 1739 0850 BB000000 		.4byte	0xbb
 1740 0854 13       		.uleb128 0x13
 1741 0855 D7080000 		.4byte	.LASF139
 1742 0859 12       		.byte	0x12
 1743 085a 2C01     		.2byte	0x12c
 1744 085c BB000000 		.4byte	0xbb
 1745 0860 1B       		.uleb128 0x1b
 1746 0861 01       		.byte	0x1
 1747 0862 5A000000 		.4byte	0x5a
 1748 0866 12       		.byte	0x12
 1749 0867 3301     		.2byte	0x133
 1750 0869 7A080000 		.4byte	0x87a
 1751 086d 1A       		.uleb128 0x1a
 1752 086e B3010000 		.4byte	.LASF140
 1753 0872 00       		.byte	0
 1754 0873 1A       		.uleb128 0x1a
 1755 0874 B6020000 		.4byte	.LASF141
 1756 0878 01       		.byte	0x1
 1757 0879 00       		.byte	0
 1758 087a 13       		.uleb128 0x13
 1759 087b A3000000 		.4byte	.LASF142
 1760 087f 12       		.byte	0x12
 1761 0880 3601     		.2byte	0x136
 1762 0882 60080000 		.4byte	0x860
 1763 0886 13       		.uleb128 0x13
 1764 0887 22030000 		.4byte	.LASF143
 1765 088b 12       		.byte	0x12
 1766 088c 3B01     		.2byte	0x13b
 1767 088e 92080000 		.4byte	0x892
ARM GAS  /tmp/ccE9Uswy.s 			page 32


 1768 0892 0B       		.uleb128 0xb
 1769 0893 22030000 		.4byte	.LASF143
 1770 0897 34       		.byte	0x34
 1771 0898 12       		.byte	0x12
 1772 0899 9F01     		.2byte	0x19f
 1773 089b 22090000 		.4byte	0x922
 1774 089f 09       		.uleb128 0x9
 1775 08a0 9B010000 		.4byte	.LASF144
 1776 08a4 12       		.byte	0x12
 1777 08a5 A301     		.2byte	0x1a3
 1778 08a7 3D080000 		.4byte	0x83d
 1779 08ab 00       		.byte	0
 1780 08ac 09       		.uleb128 0x9
 1781 08ad 46070000 		.4byte	.LASF145
 1782 08b1 12       		.byte	0x12
 1783 08b2 A701     		.2byte	0x1a7
 1784 08b4 3F0A0000 		.4byte	0xa3f
 1785 08b8 04       		.byte	0x4
 1786 08b9 09       		.uleb128 0x9
 1787 08ba 19040000 		.4byte	.LASF146
 1788 08be 12       		.byte	0x12
 1789 08bf AB01     		.2byte	0x1ab
 1790 08c1 4F090000 		.4byte	0x94f
 1791 08c5 08       		.byte	0x8
 1792 08c6 09       		.uleb128 0x9
 1793 08c7 3B070000 		.4byte	.LASF147
 1794 08cb 12       		.byte	0x12
 1795 08cc AF01     		.2byte	0x1af
 1796 08ce 28000000 		.4byte	0x28
 1797 08d2 0C       		.byte	0xc
 1798 08d3 09       		.uleb128 0x9
 1799 08d4 FB030000 		.4byte	.LASF148
 1800 08d8 12       		.byte	0x12
 1801 08d9 B301     		.2byte	0x1b3
 1802 08db 4A0A0000 		.4byte	0xa4a
 1803 08df 10       		.byte	0x10
 1804 08e0 09       		.uleb128 0x9
 1805 08e1 FB010000 		.4byte	.LASF149
 1806 08e5 12       		.byte	0x12
 1807 08e6 B801     		.2byte	0x1b8
 1808 08e8 4C020000 		.4byte	0x24c
 1809 08ec 14       		.byte	0x14
 1810 08ed 09       		.uleb128 0x9
 1811 08ee 42050000 		.4byte	.LASF150
 1812 08f2 12       		.byte	0x12
 1813 08f3 BE01     		.2byte	0x1be
 1814 08f5 98070000 		.4byte	0x798
 1815 08f9 18       		.byte	0x18
 1816 08fa 08       		.uleb128 0x8
 1817 08fb 61646300 		.ascii	"adc\000"
 1818 08ff 12       		.byte	0x12
 1819 0900 C701     		.2byte	0x1c7
 1820 0902 550A0000 		.4byte	0xa55
 1821 0906 28       		.byte	0x28
 1822 0907 09       		.uleb128 0x9
 1823 0908 8A010000 		.4byte	.LASF151
 1824 090c 12       		.byte	0x12
ARM GAS  /tmp/ccE9Uswy.s 			page 33


 1825 090d CB01     		.2byte	0x1cb
 1826 090f 5B0A0000 		.4byte	0xa5b
 1827 0913 2C       		.byte	0x2c
 1828 0914 09       		.uleb128 0x9
 1829 0915 B4080000 		.4byte	.LASF152
 1830 0919 12       		.byte	0x12
 1831 091a CF01     		.2byte	0x1cf
 1832 091c D1000000 		.4byte	0xd1
 1833 0920 30       		.byte	0x30
 1834 0921 00       		.byte	0
 1835 0922 13       		.uleb128 0x13
 1836 0923 3E020000 		.4byte	.LASF153
 1837 0927 12       		.byte	0x12
 1838 0928 4501     		.2byte	0x145
 1839 092a 2E090000 		.4byte	0x92e
 1840 092e 0A       		.uleb128 0xa
 1841 092f 04       		.byte	0x4
 1842 0930 34090000 		.4byte	0x934
 1843 0934 0C       		.uleb128 0xc
 1844 0935 49090000 		.4byte	0x949
 1845 0939 0D       		.uleb128 0xd
 1846 093a 49090000 		.4byte	0x949
 1847 093e 0D       		.uleb128 0xd
 1848 093f 4F090000 		.4byte	0x94f
 1849 0943 0D       		.uleb128 0xd
 1850 0944 28000000 		.4byte	0x28
 1851 0948 00       		.byte	0
 1852 0949 0A       		.uleb128 0xa
 1853 094a 04       		.byte	0x4
 1854 094b 86080000 		.4byte	0x886
 1855 094f 0A       		.uleb128 0xa
 1856 0950 04       		.byte	0x4
 1857 0951 48080000 		.4byte	0x848
 1858 0955 13       		.uleb128 0x13
 1859 0956 DF010000 		.4byte	.LASF154
 1860 095a 12       		.byte	0x12
 1861 095b 4E01     		.2byte	0x14e
 1862 095d 61090000 		.4byte	0x961
 1863 0961 0A       		.uleb128 0xa
 1864 0962 04       		.byte	0x4
 1865 0963 67090000 		.4byte	0x967
 1866 0967 0C       		.uleb128 0xc
 1867 0968 77090000 		.4byte	0x977
 1868 096c 0D       		.uleb128 0xd
 1869 096d 49090000 		.4byte	0x949
 1870 0971 0D       		.uleb128 0xd
 1871 0972 7A080000 		.4byte	0x87a
 1872 0976 00       		.byte	0
 1873 0977 12       		.uleb128 0x12
 1874 0978 28       		.byte	0x28
 1875 0979 12       		.byte	0x12
 1876 097a 5801     		.2byte	0x158
 1877 097c 100A0000 		.4byte	0xa10
 1878 0980 09       		.uleb128 0x9
 1879 0981 A1010000 		.4byte	.LASF155
 1880 0985 12       		.byte	0x12
 1881 0986 5C01     		.2byte	0x15c
ARM GAS  /tmp/ccE9Uswy.s 			page 34


 1882 0988 05080000 		.4byte	0x805
 1883 098c 00       		.byte	0
 1884 098d 09       		.uleb128 0x9
 1885 098e 9F030000 		.4byte	.LASF156
 1886 0992 12       		.byte	0x12
 1887 0993 6001     		.2byte	0x160
 1888 0995 54080000 		.4byte	0x854
 1889 0999 02       		.byte	0x2
 1890 099a 09       		.uleb128 0x9
 1891 099b 37020000 		.4byte	.LASF157
 1892 099f 12       		.byte	0x12
 1893 09a0 6401     		.2byte	0x164
 1894 09a2 22090000 		.4byte	0x922
 1895 09a6 04       		.byte	0x4
 1896 09a7 09       		.uleb128 0x9
 1897 09a8 AE050000 		.4byte	.LASF158
 1898 09ac 12       		.byte	0x12
 1899 09ad 6801     		.2byte	0x168
 1900 09af 55090000 		.4byte	0x955
 1901 09b3 08       		.byte	0x8
 1902 09b4 08       		.uleb128 0x8
 1903 09b5 63723100 		.ascii	"cr1\000"
 1904 09b9 12       		.byte	0x12
 1905 09ba 6F01     		.2byte	0x16f
 1906 09bc D1000000 		.4byte	0xd1
 1907 09c0 0C       		.byte	0xc
 1908 09c1 08       		.uleb128 0x8
 1909 09c2 63723200 		.ascii	"cr2\000"
 1910 09c6 12       		.byte	0x12
 1911 09c7 7601     		.2byte	0x176
 1912 09c9 D1000000 		.4byte	0xd1
 1913 09cd 10       		.byte	0x10
 1914 09ce 09       		.uleb128 0x9
 1915 09cf 65080000 		.4byte	.LASF159
 1916 09d3 12       		.byte	0x12
 1917 09d4 7C01     		.2byte	0x17c
 1918 09d6 D1000000 		.4byte	0xd1
 1919 09da 14       		.byte	0x14
 1920 09db 09       		.uleb128 0x9
 1921 09dc 6B080000 		.4byte	.LASF160
 1922 09e0 12       		.byte	0x12
 1923 09e1 8201     		.2byte	0x182
 1924 09e3 D1000000 		.4byte	0xd1
 1925 09e7 18       		.byte	0x18
 1926 09e8 09       		.uleb128 0x9
 1927 09e9 71070000 		.4byte	.LASF161
 1928 09ed 12       		.byte	0x12
 1929 09ee 8701     		.2byte	0x187
 1930 09f0 D1000000 		.4byte	0xd1
 1931 09f4 1C       		.byte	0x1c
 1932 09f5 09       		.uleb128 0x9
 1933 09f6 76070000 		.4byte	.LASF162
 1934 09fa 12       		.byte	0x12
 1935 09fb 8C01     		.2byte	0x18c
 1936 09fd D1000000 		.4byte	0xd1
 1937 0a01 20       		.byte	0x20
 1938 0a02 09       		.uleb128 0x9
ARM GAS  /tmp/ccE9Uswy.s 			page 35


 1939 0a03 7B070000 		.4byte	.LASF163
 1940 0a07 12       		.byte	0x12
 1941 0a08 9101     		.2byte	0x191
 1942 0a0a D1000000 		.4byte	0xd1
 1943 0a0e 24       		.byte	0x24
 1944 0a0f 00       		.byte	0
 1945 0a10 13       		.uleb128 0x13
 1946 0a11 92080000 		.4byte	.LASF164
 1947 0a15 12       		.byte	0x12
 1948 0a16 9201     		.2byte	0x192
 1949 0a18 77090000 		.4byte	0x977
 1950 0a1c 12       		.uleb128 0x12
 1951 0a1d 04       		.byte	0x4
 1952 0a1e 12       		.byte	0x12
 1953 0a1f 9801     		.2byte	0x198
 1954 0a21 330A0000 		.4byte	0xa33
 1955 0a25 09       		.uleb128 0x9
 1956 0a26 97020000 		.4byte	.LASF165
 1957 0a2a 12       		.byte	0x12
 1958 0a2b 9901     		.2byte	0x199
 1959 0a2d D1000000 		.4byte	0xd1
 1960 0a31 00       		.byte	0
 1961 0a32 00       		.byte	0
 1962 0a33 13       		.uleb128 0x13
 1963 0a34 7C020000 		.4byte	.LASF166
 1964 0a38 12       		.byte	0x12
 1965 0a39 9A01     		.2byte	0x19a
 1966 0a3b 1C0A0000 		.4byte	0xa1c
 1967 0a3f 0A       		.uleb128 0xa
 1968 0a40 04       		.byte	0x4
 1969 0a41 450A0000 		.4byte	0xa45
 1970 0a45 16       		.uleb128 0x16
 1971 0a46 330A0000 		.4byte	0xa33
 1972 0a4a 0A       		.uleb128 0xa
 1973 0a4b 04       		.byte	0x4
 1974 0a4c 500A0000 		.4byte	0xa50
 1975 0a50 16       		.uleb128 0x16
 1976 0a51 100A0000 		.4byte	0xa10
 1977 0a55 0A       		.uleb128 0xa
 1978 0a56 04       		.byte	0x4
 1979 0a57 68050000 		.4byte	0x568
 1980 0a5b 0A       		.uleb128 0xa
 1981 0a5c 04       		.byte	0x4
 1982 0a5d 610A0000 		.4byte	0xa61
 1983 0a61 16       		.uleb128 0x16
 1984 0a62 FA070000 		.4byte	0x7fa
 1985 0a66 1C       		.uleb128 0x1c
 1986 0a67 A9070000 		.4byte	.LASF170
 1987 0a6b 03       		.byte	0x3
 1988 0a6c 2002     		.2byte	0x220
 1989 0a6e 03       		.byte	0x3
 1990 0a6f 800A0000 		.4byte	0xa80
 1991 0a73 1D       		.uleb128 0x1d
 1992 0a74 C7020000 		.4byte	.LASF173
 1993 0a78 03       		.byte	0x3
 1994 0a79 2002     		.2byte	0x220
 1995 0a7b D1000000 		.4byte	0xd1
ARM GAS  /tmp/ccE9Uswy.s 			page 36


 1996 0a7f 00       		.byte	0
 1997 0a80 1E       		.uleb128 0x1e
 1998 0a81 8C000000 		.4byte	.LASF167
 1999 0a85 0C       		.byte	0xc
 2000 0a86 BC01     		.2byte	0x1bc
 2001 0a88 03       		.byte	0x3
 2002 0a89 1E       		.uleb128 0x1e
 2003 0a8a 7E010000 		.4byte	.LASF168
 2004 0a8e 0C       		.byte	0xc
 2005 0a8f CA01     		.2byte	0x1ca
 2006 0a91 03       		.byte	0x3
 2007 0a92 1E       		.uleb128 0x1e
 2008 0a93 BD060000 		.4byte	.LASF169
 2009 0a97 13       		.byte	0x13
 2010 0a98 5A01     		.2byte	0x15a
 2011 0a9a 03       		.byte	0x3
 2012 0a9b 1C       		.uleb128 0x1c
 2013 0a9c F9080000 		.4byte	.LASF171
 2014 0aa0 13       		.byte	0x13
 2015 0aa1 6601     		.2byte	0x166
 2016 0aa3 03       		.byte	0x3
 2017 0aa4 B60A0000 		.4byte	0xab6
 2018 0aa8 1F       		.uleb128 0x1f
 2019 0aa9 AE060000 		.4byte	.LASF177
 2020 0aad C60A0000 		.4byte	0xac6
 2021 0ab1 F9080000 		.4byte	.LASF171
 2022 0ab5 00       		.byte	0
 2023 0ab6 17       		.uleb128 0x17
 2024 0ab7 78070000 		.4byte	0x778
 2025 0abb C60A0000 		.4byte	0xac6
 2026 0abf 18       		.uleb128 0x18
 2027 0ac0 6A040000 		.4byte	0x46a
 2028 0ac4 0B       		.byte	0xb
 2029 0ac5 00       		.byte	0
 2030 0ac6 16       		.uleb128 0x16
 2031 0ac7 B60A0000 		.4byte	0xab6
 2032 0acb 1C       		.uleb128 0x1c
 2033 0acc 28010000 		.4byte	.LASF172
 2034 0ad0 02       		.byte	0x2
 2035 0ad1 4603     		.2byte	0x346
 2036 0ad3 03       		.byte	0x3
 2037 0ad4 E40A0000 		.4byte	0xae4
 2038 0ad8 20       		.uleb128 0x20
 2039 0ad9 6D7000   		.ascii	"mp\000"
 2040 0adc 02       		.byte	0x2
 2041 0add 4603     		.2byte	0x346
 2042 0adf A3070000 		.4byte	0x7a3
 2043 0ae3 00       		.byte	0
 2044 0ae4 1E       		.uleb128 0x1e
 2045 0ae5 CD060000 		.4byte	.LASF174
 2046 0ae9 02       		.byte	0x2
 2047 0aea C801     		.2byte	0x1c8
 2048 0aec 03       		.byte	0x3
 2049 0aed 1E       		.uleb128 0x1e
 2050 0aee AA020000 		.4byte	.LASF175
 2051 0af2 02       		.byte	0x2
 2052 0af3 BD01     		.2byte	0x1bd
ARM GAS  /tmp/ccE9Uswy.s 			page 37


 2053 0af5 03       		.byte	0x3
 2054 0af6 21       		.uleb128 0x21
 2055 0af7 F4040000 		.4byte	.LASF178
 2056 0afb 01       		.byte	0x1
 2057 0afc AB       		.byte	0xab
 2058 0afd 01       		.byte	0x1
 2059 0afe 3C0B0000 		.4byte	0xb3c
 2060 0b02 22       		.uleb128 0x22
 2061 0b03 0B090000 		.4byte	.LASF176
 2062 0b07 01       		.byte	0x1
 2063 0b08 AB       		.byte	0xab
 2064 0b09 49090000 		.4byte	0x949
 2065 0b0d 22       		.uleb128 0x22
 2066 0b0e FB030000 		.4byte	.LASF148
 2067 0b12 01       		.byte	0x1
 2068 0b13 AC       		.byte	0xac
 2069 0b14 4A0A0000 		.4byte	0xa4a
 2070 0b18 22       		.uleb128 0x22
 2071 0b19 19040000 		.4byte	.LASF146
 2072 0b1d 01       		.byte	0x1
 2073 0b1e AD       		.byte	0xad
 2074 0b1f 4F090000 		.4byte	0x94f
 2075 0b23 22       		.uleb128 0x22
 2076 0b24 3B070000 		.4byte	.LASF147
 2077 0b28 01       		.byte	0x1
 2078 0b29 AE       		.byte	0xae
 2079 0b2a 28000000 		.4byte	0x28
 2080 0b2e 1F       		.uleb128 0x1f
 2081 0b2f AE060000 		.4byte	.LASF177
 2082 0b33 4C0B0000 		.4byte	0xb4c
 2083 0b37 F4040000 		.4byte	.LASF178
 2084 0b3b 00       		.byte	0
 2085 0b3c 17       		.uleb128 0x17
 2086 0b3d 78070000 		.4byte	0x778
 2087 0b41 4C0B0000 		.4byte	0xb4c
 2088 0b45 18       		.uleb128 0x18
 2089 0b46 6A040000 		.4byte	0x46a
 2090 0b4a 13       		.byte	0x13
 2091 0b4b 00       		.byte	0
 2092 0b4c 16       		.uleb128 0x16
 2093 0b4d 3C0B0000 		.4byte	0xb3c
 2094 0b51 1C       		.uleb128 0x1c
 2095 0b52 1F000000 		.4byte	.LASF179
 2096 0b56 02       		.byte	0x2
 2097 0b57 B702     		.2byte	0x2b7
 2098 0b59 03       		.byte	0x3
 2099 0b5a 770B0000 		.4byte	0xb77
 2100 0b5e 20       		.uleb128 0x20
 2101 0b5f 74727000 		.ascii	"trp\000"
 2102 0b63 02       		.byte	0x2
 2103 0b64 B702     		.2byte	0x2b7
 2104 0b66 03070000 		.4byte	0x703
 2105 0b6a 20       		.uleb128 0x20
 2106 0b6b 6D736700 		.ascii	"msg\000"
 2107 0b6f 02       		.byte	0x2
 2108 0b70 B702     		.2byte	0x2b7
 2109 0b72 28010000 		.4byte	0x128
ARM GAS  /tmp/ccE9Uswy.s 			page 38


 2110 0b76 00       		.byte	0
 2111 0b77 1C       		.uleb128 0x1c
 2112 0b78 00000000 		.4byte	.LASF180
 2113 0b7c 02       		.byte	0x2
 2114 0b7d A802     		.2byte	0x2a8
 2115 0b7f 03       		.byte	0x3
 2116 0b80 9D0B0000 		.4byte	0xb9d
 2117 0b84 20       		.uleb128 0x20
 2118 0b85 74727000 		.ascii	"trp\000"
 2119 0b89 02       		.byte	0x2
 2120 0b8a A802     		.2byte	0x2a8
 2121 0b8c 03070000 		.4byte	0x703
 2122 0b90 20       		.uleb128 0x20
 2123 0b91 6D736700 		.ascii	"msg\000"
 2124 0b95 02       		.byte	0x2
 2125 0b96 A802     		.2byte	0x2a8
 2126 0b98 28010000 		.4byte	0x128
 2127 0b9c 00       		.byte	0
 2128 0b9d 23       		.uleb128 0x23
 2129 0b9e 60030000 		.4byte	.LASF206
 2130 0ba2 02       		.byte	0x2
 2131 0ba3 8002     		.2byte	0x280
 2132 0ba5 28010000 		.4byte	0x128
 2133 0ba9 03       		.byte	0x3
 2134 0baa BB0B0000 		.4byte	0xbbb
 2135 0bae 20       		.uleb128 0x20
 2136 0baf 74727000 		.ascii	"trp\000"
 2137 0bb3 02       		.byte	0x2
 2138 0bb4 8002     		.2byte	0x280
 2139 0bb6 03070000 		.4byte	0x703
 2140 0bba 00       		.byte	0
 2141 0bbb 1C       		.uleb128 0x1c
 2142 0bbc B7070000 		.4byte	.LASF181
 2143 0bc0 02       		.byte	0x2
 2144 0bc1 5A03     		.2byte	0x35a
 2145 0bc3 03       		.byte	0x3
 2146 0bc4 D40B0000 		.4byte	0xbd4
 2147 0bc8 20       		.uleb128 0x20
 2148 0bc9 6D7000   		.ascii	"mp\000"
 2149 0bcc 02       		.byte	0x2
 2150 0bcd 5A03     		.2byte	0x35a
 2151 0bcf A3070000 		.4byte	0x7a3
 2152 0bd3 00       		.byte	0
 2153 0bd4 1C       		.uleb128 0x1c
 2154 0bd5 4D070000 		.4byte	.LASF182
 2155 0bd9 02       		.byte	0x2
 2156 0bda 7203     		.2byte	0x372
 2157 0bdc 03       		.byte	0x3
 2158 0bdd ED0B0000 		.4byte	0xbed
 2159 0be1 20       		.uleb128 0x20
 2160 0be2 6D7000   		.ascii	"mp\000"
 2161 0be5 02       		.byte	0x2
 2162 0be6 7203     		.2byte	0x372
 2163 0be8 A3070000 		.4byte	0x7a3
 2164 0bec 00       		.byte	0
 2165 0bed 24       		.uleb128 0x24
 2166 0bee DA030000 		.4byte	.LASF183
ARM GAS  /tmp/ccE9Uswy.s 			page 39


 2167 0bf2 01       		.byte	0x1
 2168 0bf3 38       		.byte	0x38
 2169 0bf4 00000000 		.4byte	.LFB258
 2170 0bf8 04000000 		.4byte	.LFE258-.LFB258
 2171 0bfc 01       		.uleb128 0x1
 2172 0bfd 9C       		.byte	0x9c
 2173 0bfe 0C0C0000 		.4byte	0xc0c
 2174 0c02 25       		.uleb128 0x25
 2175 0c03 04000000 		.4byte	.LVL0
 2176 0c07 86140000 		.4byte	0x1486
 2177 0c0b 00       		.byte	0
 2178 0c0c 24       		.uleb128 0x24
 2179 0c0d 02030000 		.4byte	.LASF184
 2180 0c11 01       		.byte	0x1
 2181 0c12 44       		.byte	0x44
 2182 0c13 00000000 		.4byte	.LFB259
 2183 0c17 16000000 		.4byte	.LFE259-.LFB259
 2184 0c1b 01       		.uleb128 0x1
 2185 0c1c 9C       		.byte	0x9c
 2186 0c1d 5D0C0000 		.4byte	0xc5d
 2187 0c21 26       		.uleb128 0x26
 2188 0c22 0B090000 		.4byte	.LASF176
 2189 0c26 01       		.byte	0x1
 2190 0c27 44       		.byte	0x44
 2191 0c28 49090000 		.4byte	0x949
 2192 0c2c 00000000 		.4byte	.LLST0
 2193 0c30 27       		.uleb128 0x27
 2194 0c31 CB0A0000 		.4byte	0xacb
 2195 0c35 10000000 		.4byte	.LBB105
 2196 0c39 06000000 		.4byte	.LBE105-.LBB105
 2197 0c3d 01       		.byte	0x1
 2198 0c3e 4F       		.byte	0x4f
 2199 0c3f 28       		.uleb128 0x28
 2200 0c40 D80A0000 		.4byte	0xad8
 2201 0c44 2E000000 		.4byte	.LLST1
 2202 0c48 29       		.uleb128 0x29
 2203 0c49 16000000 		.4byte	.LVL4
 2204 0c4d 92140000 		.4byte	0x1492
 2205 0c51 2A       		.uleb128 0x2a
 2206 0c52 01       		.uleb128 0x1
 2207 0c53 50       		.byte	0x50
 2208 0c54 05       		.uleb128 0x5
 2209 0c55 F3       		.byte	0xf3
 2210 0c56 01       		.uleb128 0x1
 2211 0c57 50       		.byte	0x50
 2212 0c58 23       		.byte	0x23
 2213 0c59 18       		.uleb128 0x18
 2214 0c5a 00       		.byte	0
 2215 0c5b 00       		.byte	0
 2216 0c5c 00       		.byte	0
 2217 0c5d 24       		.uleb128 0x24
 2218 0c5e 3C080000 		.4byte	.LASF185
 2219 0c62 01       		.byte	0x1
 2220 0c63 5F       		.byte	0x5f
 2221 0c64 00000000 		.4byte	.LFB260
 2222 0c68 1C000000 		.4byte	.LFE260-.LFB260
 2223 0c6c 01       		.uleb128 0x1
ARM GAS  /tmp/ccE9Uswy.s 			page 40


 2224 0c6d 9C       		.byte	0x9c
 2225 0c6e 590D0000 		.4byte	0xd59
 2226 0c72 26       		.uleb128 0x26
 2227 0c73 0B090000 		.4byte	.LASF176
 2228 0c77 01       		.byte	0x1
 2229 0c78 5F       		.byte	0x5f
 2230 0c79 49090000 		.4byte	0x949
 2231 0c7d 5E000000 		.4byte	.LLST2
 2232 0c81 26       		.uleb128 0x26
 2233 0c82 46070000 		.4byte	.LASF145
 2234 0c86 01       		.byte	0x1
 2235 0c87 5F       		.byte	0x5f
 2236 0c88 3F0A0000 		.4byte	0xa3f
 2237 0c8c 7C000000 		.4byte	.LLST3
 2238 0c90 2B       		.uleb128 0x2b
 2239 0c91 AE060000 		.4byte	.LASF177
 2240 0c95 690D0000 		.4byte	0xd69
 2241 0c99 2C       		.uleb128 0x2c
 2242 0c9a ED0A0000 		.4byte	0xaed
 2243 0c9e 02000000 		.4byte	.LBB107
 2244 0ca2 00000000 		.4byte	.Ldebug_ranges0+0
 2245 0ca6 01       		.byte	0x1
 2246 0ca7 63       		.byte	0x63
 2247 0ca8 E90C0000 		.4byte	0xce9
 2248 0cac 2D       		.uleb128 0x2d
 2249 0cad 920A0000 		.4byte	0xa92
 2250 0cb1 02000000 		.4byte	.LBB108
 2251 0cb5 00000000 		.4byte	.Ldebug_ranges0+0
 2252 0cb9 02       		.byte	0x2
 2253 0cba BF01     		.2byte	0x1bf
 2254 0cbc 2D       		.uleb128 0x2d
 2255 0cbd 800A0000 		.4byte	0xa80
 2256 0cc1 02000000 		.4byte	.LBB109
 2257 0cc5 00000000 		.4byte	.Ldebug_ranges0+0
 2258 0cc9 13       		.byte	0x13
 2259 0cca 5C01     		.2byte	0x15c
 2260 0ccc 2D       		.uleb128 0x2d
 2261 0ccd 660A0000 		.4byte	0xa66
 2262 0cd1 02000000 		.4byte	.LBB110
 2263 0cd5 00000000 		.4byte	.Ldebug_ranges0+0
 2264 0cd9 0C       		.byte	0xc
 2265 0cda BF01     		.2byte	0x1bf
 2266 0cdc 28       		.uleb128 0x28
 2267 0cdd 730A0000 		.4byte	0xa73
 2268 0ce1 9D000000 		.4byte	.LLST4
 2269 0ce5 00       		.byte	0
 2270 0ce6 00       		.byte	0
 2271 0ce7 00       		.byte	0
 2272 0ce8 00       		.byte	0
 2273 0ce9 2E       		.uleb128 0x2e
 2274 0cea E40A0000 		.4byte	0xae4
 2275 0cee 14000000 		.4byte	.LBB117
 2276 0cf2 08000000 		.4byte	.LBE117-.LBB117
 2277 0cf6 01       		.byte	0x1
 2278 0cf7 69       		.byte	0x69
 2279 0cf8 480D0000 		.4byte	0xd48
 2280 0cfc 2F       		.uleb128 0x2f
ARM GAS  /tmp/ccE9Uswy.s 			page 41


 2281 0cfd 9B0A0000 		.4byte	0xa9b
 2282 0d01 14000000 		.4byte	.LBB118
 2283 0d05 08000000 		.4byte	.LBE118-.LBB118
 2284 0d09 02       		.byte	0x2
 2285 0d0a CA01     		.2byte	0x1ca
 2286 0d0c 30       		.uleb128 0x30
 2287 0d0d 14000000 		.4byte	.LBB119
 2288 0d11 08000000 		.4byte	.LBE119-.LBB119
 2289 0d15 31       		.uleb128 0x31
 2290 0d16 A80A0000 		.4byte	0xaa8
 2291 0d1a 2F       		.uleb128 0x2f
 2292 0d1b 890A0000 		.4byte	0xa89
 2293 0d1f 14000000 		.4byte	.LBB120
 2294 0d23 08000000 		.4byte	.LBE120-.LBB120
 2295 0d27 13       		.byte	0x13
 2296 0d28 7301     		.2byte	0x173
 2297 0d2a 2F       		.uleb128 0x2f
 2298 0d2b 660A0000 		.4byte	0xa66
 2299 0d2f 14000000 		.4byte	.LBB121
 2300 0d33 08000000 		.4byte	.LBE121-.LBB121
 2301 0d37 0C       		.byte	0xc
 2302 0d38 CD01     		.2byte	0x1cd
 2303 0d3a 28       		.uleb128 0x28
 2304 0d3b 730A0000 		.4byte	0xa73
 2305 0d3f B2000000 		.4byte	.LLST5
 2306 0d43 00       		.byte	0
 2307 0d44 00       		.byte	0
 2308 0d45 00       		.byte	0
 2309 0d46 00       		.byte	0
 2310 0d47 00       		.byte	0
 2311 0d48 32       		.uleb128 0x32
 2312 0d49 10000000 		.4byte	.LVL7
 2313 0d4d 9D140000 		.4byte	0x149d
 2314 0d51 2A       		.uleb128 0x2a
 2315 0d52 01       		.uleb128 0x1
 2316 0d53 50       		.byte	0x50
 2317 0d54 02       		.uleb128 0x2
 2318 0d55 74       		.byte	0x74
 2319 0d56 00       		.sleb128 0
 2320 0d57 00       		.byte	0
 2321 0d58 00       		.byte	0
 2322 0d59 17       		.uleb128 0x17
 2323 0d5a 78070000 		.4byte	0x778
 2324 0d5e 690D0000 		.4byte	0xd69
 2325 0d62 18       		.uleb128 0x18
 2326 0d63 6A040000 		.4byte	0x46a
 2327 0d67 08       		.byte	0x8
 2328 0d68 00       		.byte	0
 2329 0d69 16       		.uleb128 0x16
 2330 0d6a 590D0000 		.4byte	0xd59
 2331 0d6e 24       		.uleb128 0x24
 2332 0d6f 62000000 		.4byte	.LASF186
 2333 0d73 01       		.byte	0x1
 2334 0d74 73       		.byte	0x73
 2335 0d75 00000000 		.4byte	.LFB261
 2336 0d79 1A000000 		.4byte	.LFE261-.LFB261
 2337 0d7d 01       		.uleb128 0x1
ARM GAS  /tmp/ccE9Uswy.s 			page 42


 2338 0d7e 9C       		.byte	0x9c
 2339 0d7f 5B0E0000 		.4byte	0xe5b
 2340 0d83 26       		.uleb128 0x26
 2341 0d84 0B090000 		.4byte	.LASF176
 2342 0d88 01       		.byte	0x1
 2343 0d89 73       		.byte	0x73
 2344 0d8a 49090000 		.4byte	0x949
 2345 0d8e C6000000 		.4byte	.LLST6
 2346 0d92 2B       		.uleb128 0x2b
 2347 0d93 AE060000 		.4byte	.LASF177
 2348 0d97 6B0E0000 		.4byte	0xe6b
 2349 0d9b 2C       		.uleb128 0x2c
 2350 0d9c ED0A0000 		.4byte	0xaed
 2351 0da0 02000000 		.4byte	.LBB123
 2352 0da4 18000000 		.4byte	.Ldebug_ranges0+0x18
 2353 0da8 01       		.byte	0x1
 2354 0da9 77       		.byte	0x77
 2355 0daa EB0D0000 		.4byte	0xdeb
 2356 0dae 2D       		.uleb128 0x2d
 2357 0daf 920A0000 		.4byte	0xa92
 2358 0db3 02000000 		.4byte	.LBB124
 2359 0db7 18000000 		.4byte	.Ldebug_ranges0+0x18
 2360 0dbb 02       		.byte	0x2
 2361 0dbc BF01     		.2byte	0x1bf
 2362 0dbe 2D       		.uleb128 0x2d
 2363 0dbf 800A0000 		.4byte	0xa80
 2364 0dc3 02000000 		.4byte	.LBB125
 2365 0dc7 18000000 		.4byte	.Ldebug_ranges0+0x18
 2366 0dcb 13       		.byte	0x13
 2367 0dcc 5C01     		.2byte	0x15c
 2368 0dce 2D       		.uleb128 0x2d
 2369 0dcf 660A0000 		.4byte	0xa66
 2370 0dd3 02000000 		.4byte	.LBB126
 2371 0dd7 18000000 		.4byte	.Ldebug_ranges0+0x18
 2372 0ddb 0C       		.byte	0xc
 2373 0ddc BF01     		.2byte	0x1bf
 2374 0dde 28       		.uleb128 0x28
 2375 0ddf 730A0000 		.4byte	0xa73
 2376 0de3 E4000000 		.4byte	.LLST7
 2377 0de7 00       		.byte	0
 2378 0de8 00       		.byte	0
 2379 0de9 00       		.byte	0
 2380 0dea 00       		.byte	0
 2381 0deb 2E       		.uleb128 0x2e
 2382 0dec E40A0000 		.4byte	0xae4
 2383 0df0 12000000 		.4byte	.LBB133
 2384 0df4 08000000 		.4byte	.LBE133-.LBB133
 2385 0df8 01       		.byte	0x1
 2386 0df9 7C       		.byte	0x7c
 2387 0dfa 4A0E0000 		.4byte	0xe4a
 2388 0dfe 2F       		.uleb128 0x2f
 2389 0dff 9B0A0000 		.4byte	0xa9b
 2390 0e03 12000000 		.4byte	.LBB134
 2391 0e07 08000000 		.4byte	.LBE134-.LBB134
 2392 0e0b 02       		.byte	0x2
 2393 0e0c CA01     		.2byte	0x1ca
 2394 0e0e 30       		.uleb128 0x30
ARM GAS  /tmp/ccE9Uswy.s 			page 43


 2395 0e0f 12000000 		.4byte	.LBB135
 2396 0e13 08000000 		.4byte	.LBE135-.LBB135
 2397 0e17 31       		.uleb128 0x31
 2398 0e18 A80A0000 		.4byte	0xaa8
 2399 0e1c 2F       		.uleb128 0x2f
 2400 0e1d 890A0000 		.4byte	0xa89
 2401 0e21 12000000 		.4byte	.LBB136
 2402 0e25 08000000 		.4byte	.LBE136-.LBB136
 2403 0e29 13       		.byte	0x13
 2404 0e2a 7301     		.2byte	0x173
 2405 0e2c 2F       		.uleb128 0x2f
 2406 0e2d 660A0000 		.4byte	0xa66
 2407 0e31 12000000 		.4byte	.LBB137
 2408 0e35 08000000 		.4byte	.LBE137-.LBB137
 2409 0e39 0C       		.byte	0xc
 2410 0e3a CD01     		.2byte	0x1cd
 2411 0e3c 28       		.uleb128 0x28
 2412 0e3d 730A0000 		.4byte	0xa73
 2413 0e41 F9000000 		.4byte	.LLST8
 2414 0e45 00       		.byte	0
 2415 0e46 00       		.byte	0
 2416 0e47 00       		.byte	0
 2417 0e48 00       		.byte	0
 2418 0e49 00       		.byte	0
 2419 0e4a 32       		.uleb128 0x32
 2420 0e4b 0E000000 		.4byte	.LVL12
 2421 0e4f A9140000 		.4byte	0x14a9
 2422 0e53 2A       		.uleb128 0x2a
 2423 0e54 01       		.uleb128 0x1
 2424 0e55 50       		.byte	0x50
 2425 0e56 02       		.uleb128 0x2
 2426 0e57 74       		.byte	0x74
 2427 0e58 00       		.sleb128 0
 2428 0e59 00       		.byte	0
 2429 0e5a 00       		.byte	0
 2430 0e5b 17       		.uleb128 0x17
 2431 0e5c 78070000 		.4byte	0x778
 2432 0e60 6B0E0000 		.4byte	0xe6b
 2433 0e64 18       		.uleb128 0x18
 2434 0e65 6A040000 		.4byte	0x46a
 2435 0e69 07       		.byte	0x7
 2436 0e6a 00       		.byte	0
 2437 0e6b 16       		.uleb128 0x16
 2438 0e6c 5B0E0000 		.4byte	0xe5b
 2439 0e70 24       		.uleb128 0x24
 2440 0e71 07080000 		.4byte	.LASF187
 2441 0e75 01       		.byte	0x1
 2442 0e76 8F       		.byte	0x8f
 2443 0e77 00000000 		.4byte	.LFB262
 2444 0e7b 1E000000 		.4byte	.LFE262-.LFB262
 2445 0e7f 01       		.uleb128 0x1
 2446 0e80 9C       		.byte	0x9c
 2447 0e81 C50F0000 		.4byte	0xfc5
 2448 0e85 26       		.uleb128 0x26
 2449 0e86 0B090000 		.4byte	.LASF176
 2450 0e8a 01       		.byte	0x1
 2451 0e8b 8F       		.byte	0x8f
ARM GAS  /tmp/ccE9Uswy.s 			page 44


 2452 0e8c 49090000 		.4byte	0x949
 2453 0e90 0D010000 		.4byte	.LLST9
 2454 0e94 26       		.uleb128 0x26
 2455 0e95 FB030000 		.4byte	.LASF148
 2456 0e99 01       		.byte	0x1
 2457 0e9a 90       		.byte	0x90
 2458 0e9b 4A0A0000 		.4byte	0xa4a
 2459 0e9f 2E010000 		.4byte	.LLST10
 2460 0ea3 26       		.uleb128 0x26
 2461 0ea4 19040000 		.4byte	.LASF146
 2462 0ea8 01       		.byte	0x1
 2463 0ea9 91       		.byte	0x91
 2464 0eaa 4F090000 		.4byte	0x94f
 2465 0eae 4F010000 		.4byte	.LLST11
 2466 0eb2 26       		.uleb128 0x26
 2467 0eb3 3B070000 		.4byte	.LASF147
 2468 0eb7 01       		.byte	0x1
 2469 0eb8 92       		.byte	0x92
 2470 0eb9 28000000 		.4byte	0x28
 2471 0ebd 70010000 		.4byte	.LLST12
 2472 0ec1 2E       		.uleb128 0x2e
 2473 0ec2 ED0A0000 		.4byte	0xaed
 2474 0ec6 02000000 		.4byte	.LBB139
 2475 0eca 06000000 		.4byte	.LBE139-.LBB139
 2476 0ece 01       		.byte	0x1
 2477 0ecf 94       		.byte	0x94
 2478 0ed0 110F0000 		.4byte	0xf11
 2479 0ed4 2F       		.uleb128 0x2f
 2480 0ed5 920A0000 		.4byte	0xa92
 2481 0ed9 02000000 		.4byte	.LBB140
 2482 0edd 06000000 		.4byte	.LBE140-.LBB140
 2483 0ee1 02       		.byte	0x2
 2484 0ee2 BF01     		.2byte	0x1bf
 2485 0ee4 2F       		.uleb128 0x2f
 2486 0ee5 800A0000 		.4byte	0xa80
 2487 0ee9 02000000 		.4byte	.LBB141
 2488 0eed 06000000 		.4byte	.LBE141-.LBB141
 2489 0ef1 13       		.byte	0x13
 2490 0ef2 5C01     		.2byte	0x15c
 2491 0ef4 2F       		.uleb128 0x2f
 2492 0ef5 660A0000 		.4byte	0xa66
 2493 0ef9 02000000 		.4byte	.LBB142
 2494 0efd 06000000 		.4byte	.LBE142-.LBB142
 2495 0f01 0C       		.byte	0xc
 2496 0f02 BF01     		.2byte	0x1bf
 2497 0f04 28       		.uleb128 0x28
 2498 0f05 730A0000 		.4byte	0xa73
 2499 0f09 91010000 		.4byte	.LLST13
 2500 0f0d 00       		.byte	0
 2501 0f0e 00       		.byte	0
 2502 0f0f 00       		.byte	0
 2503 0f10 00       		.byte	0
 2504 0f11 2E       		.uleb128 0x2e
 2505 0f12 F60A0000 		.4byte	0xaf6
 2506 0f16 08000000 		.4byte	.LBB144
 2507 0f1a 0E000000 		.4byte	.LBE144-.LBB144
 2508 0f1e 01       		.byte	0x1
ARM GAS  /tmp/ccE9Uswy.s 			page 45


 2509 0f1f 95       		.byte	0x95
 2510 0f20 690F0000 		.4byte	0xf69
 2511 0f24 28       		.uleb128 0x28
 2512 0f25 230B0000 		.4byte	0xb23
 2513 0f29 A6010000 		.4byte	.LLST14
 2514 0f2d 28       		.uleb128 0x28
 2515 0f2e 180B0000 		.4byte	0xb18
 2516 0f32 C7010000 		.4byte	.LLST15
 2517 0f36 28       		.uleb128 0x28
 2518 0f37 0D0B0000 		.4byte	0xb0d
 2519 0f3b E8010000 		.4byte	.LLST16
 2520 0f3f 28       		.uleb128 0x28
 2521 0f40 020B0000 		.4byte	0xb02
 2522 0f44 09020000 		.4byte	.LLST17
 2523 0f48 30       		.uleb128 0x30
 2524 0f49 08000000 		.4byte	.LBB145
 2525 0f4d 0E000000 		.4byte	.LBE145-.LBB145
 2526 0f51 31       		.uleb128 0x31
 2527 0f52 2E0B0000 		.4byte	0xb2e
 2528 0f56 32       		.uleb128 0x32
 2529 0f57 16000000 		.4byte	.LVL17
 2530 0f5b B5140000 		.4byte	0x14b5
 2531 0f5f 2A       		.uleb128 0x2a
 2532 0f60 01       		.uleb128 0x1
 2533 0f61 50       		.byte	0x50
 2534 0f62 03       		.uleb128 0x3
 2535 0f63 F3       		.byte	0xf3
 2536 0f64 01       		.uleb128 0x1
 2537 0f65 50       		.byte	0x50
 2538 0f66 00       		.byte	0
 2539 0f67 00       		.byte	0
 2540 0f68 00       		.byte	0
 2541 0f69 27       		.uleb128 0x27
 2542 0f6a E40A0000 		.4byte	0xae4
 2543 0f6e 16000000 		.4byte	.LBB146
 2544 0f72 08000000 		.4byte	.LBE146-.LBB146
 2545 0f76 01       		.byte	0x1
 2546 0f77 96       		.byte	0x96
 2547 0f78 2F       		.uleb128 0x2f
 2548 0f79 9B0A0000 		.4byte	0xa9b
 2549 0f7d 16000000 		.4byte	.LBB147
 2550 0f81 08000000 		.4byte	.LBE147-.LBB147
 2551 0f85 02       		.byte	0x2
 2552 0f86 CA01     		.2byte	0x1ca
 2553 0f88 30       		.uleb128 0x30
 2554 0f89 16000000 		.4byte	.LBB148
 2555 0f8d 08000000 		.4byte	.LBE148-.LBB148
 2556 0f91 31       		.uleb128 0x31
 2557 0f92 A80A0000 		.4byte	0xaa8
 2558 0f96 2F       		.uleb128 0x2f
 2559 0f97 890A0000 		.4byte	0xa89
 2560 0f9b 16000000 		.4byte	.LBB149
 2561 0f9f 08000000 		.4byte	.LBE149-.LBB149
 2562 0fa3 13       		.byte	0x13
 2563 0fa4 7301     		.2byte	0x173
 2564 0fa6 2F       		.uleb128 0x2f
 2565 0fa7 660A0000 		.4byte	0xa66
ARM GAS  /tmp/ccE9Uswy.s 			page 46


 2566 0fab 16000000 		.4byte	.LBB150
 2567 0faf 08000000 		.4byte	.LBE150-.LBB150
 2568 0fb3 0C       		.byte	0xc
 2569 0fb4 CD01     		.2byte	0x1cd
 2570 0fb6 28       		.uleb128 0x28
 2571 0fb7 730A0000 		.4byte	0xa73
 2572 0fbb 2A020000 		.4byte	.LLST18
 2573 0fbf 00       		.byte	0
 2574 0fc0 00       		.byte	0
 2575 0fc1 00       		.byte	0
 2576 0fc2 00       		.byte	0
 2577 0fc3 00       		.byte	0
 2578 0fc4 00       		.byte	0
 2579 0fc5 33       		.uleb128 0x33
 2580 0fc6 F60A0000 		.4byte	0xaf6
 2581 0fca 00000000 		.4byte	.LFB263
 2582 0fce 12000000 		.4byte	.LFE263-.LFB263
 2583 0fd2 01       		.uleb128 0x1
 2584 0fd3 9C       		.byte	0x9c
 2585 0fd4 13100000 		.4byte	0x1013
 2586 0fd8 28       		.uleb128 0x28
 2587 0fd9 020B0000 		.4byte	0xb02
 2588 0fdd 3E020000 		.4byte	.LLST19
 2589 0fe1 28       		.uleb128 0x28
 2590 0fe2 0D0B0000 		.4byte	0xb0d
 2591 0fe6 5F020000 		.4byte	.LLST20
 2592 0fea 28       		.uleb128 0x28
 2593 0feb 180B0000 		.4byte	0xb18
 2594 0fef 80020000 		.4byte	.LLST21
 2595 0ff3 28       		.uleb128 0x28
 2596 0ff4 230B0000 		.4byte	0xb23
 2597 0ff8 A1020000 		.4byte	.LLST22
 2598 0ffc 31       		.uleb128 0x31
 2599 0ffd 2E0B0000 		.4byte	0xb2e
 2600 1001 29       		.uleb128 0x29
 2601 1002 12000000 		.4byte	.LVL20
 2602 1006 B5140000 		.4byte	0x14b5
 2603 100a 2A       		.uleb128 0x2a
 2604 100b 01       		.uleb128 0x1
 2605 100c 50       		.byte	0x50
 2606 100d 03       		.uleb128 0x3
 2607 100e F3       		.byte	0xf3
 2608 100f 01       		.uleb128 0x1
 2609 1010 50       		.byte	0x50
 2610 1011 00       		.byte	0
 2611 1012 00       		.byte	0
 2612 1013 24       		.uleb128 0x24
 2613 1014 3D090000 		.4byte	.LASF188
 2614 1018 01       		.byte	0x1
 2615 1019 C9       		.byte	0xc9
 2616 101a 00000000 		.4byte	.LFB264
 2617 101e 38000000 		.4byte	.LFE264-.LFB264
 2618 1022 01       		.uleb128 0x1
 2619 1023 9C       		.byte	0x9c
 2620 1024 3C110000 		.4byte	0x113c
 2621 1028 26       		.uleb128 0x26
 2622 1029 0B090000 		.4byte	.LASF176
ARM GAS  /tmp/ccE9Uswy.s 			page 47


 2623 102d 01       		.byte	0x1
 2624 102e C9       		.byte	0xc9
 2625 102f 49090000 		.4byte	0x949
 2626 1033 C2020000 		.4byte	.LLST23
 2627 1037 2B       		.uleb128 0x2b
 2628 1038 AE060000 		.4byte	.LASF177
 2629 103c 4C110000 		.4byte	0x114c
 2630 1040 2E       		.uleb128 0x2e
 2631 1041 ED0A0000 		.4byte	0xaed
 2632 1045 00000000 		.4byte	.LBB152
 2633 1049 06000000 		.4byte	.LBE152-.LBB152
 2634 104d 01       		.byte	0x1
 2635 104e CD       		.byte	0xcd
 2636 104f 90100000 		.4byte	0x1090
 2637 1053 2F       		.uleb128 0x2f
 2638 1054 920A0000 		.4byte	0xa92
 2639 1058 00000000 		.4byte	.LBB153
 2640 105c 06000000 		.4byte	.LBE153-.LBB153
 2641 1060 02       		.byte	0x2
 2642 1061 BF01     		.2byte	0x1bf
 2643 1063 2F       		.uleb128 0x2f
 2644 1064 800A0000 		.4byte	0xa80
 2645 1068 00000000 		.4byte	.LBB154
 2646 106c 06000000 		.4byte	.LBE154-.LBB154
 2647 1070 13       		.byte	0x13
 2648 1071 5C01     		.2byte	0x15c
 2649 1073 2F       		.uleb128 0x2f
 2650 1074 660A0000 		.4byte	0xa66
 2651 1078 00000000 		.4byte	.LBB155
 2652 107c 06000000 		.4byte	.LBE155-.LBB155
 2653 1080 0C       		.byte	0xc
 2654 1081 BF01     		.2byte	0x1bf
 2655 1083 28       		.uleb128 0x28
 2656 1084 730A0000 		.4byte	0xa73
 2657 1088 EB020000 		.4byte	.LLST24
 2658 108c 00       		.byte	0
 2659 108d 00       		.byte	0
 2660 108e 00       		.byte	0
 2661 108f 00       		.byte	0
 2662 1090 2C       		.uleb128 0x2c
 2663 1091 510B0000 		.4byte	0xb51
 2664 1095 1C000000 		.4byte	.LBB157
 2665 1099 30000000 		.4byte	.Ldebug_ranges0+0x30
 2666 109d 01       		.byte	0x1
 2667 109e D4       		.byte	0xd4
 2668 109f CC100000 		.4byte	0x10cc
 2669 10a3 28       		.uleb128 0x28
 2670 10a4 6A0B0000 		.4byte	0xb6a
 2671 10a8 00030000 		.4byte	.LLST25
 2672 10ac 28       		.uleb128 0x28
 2673 10ad 5E0B0000 		.4byte	0xb5e
 2674 10b1 15030000 		.4byte	.LLST26
 2675 10b5 32       		.uleb128 0x32
 2676 10b6 28000000 		.4byte	.LVL25
 2677 10ba C1140000 		.4byte	0x14c1
 2678 10be 2A       		.uleb128 0x2a
 2679 10bf 01       		.uleb128 0x1
ARM GAS  /tmp/ccE9Uswy.s 			page 48


 2680 10c0 50       		.byte	0x50
 2681 10c1 02       		.uleb128 0x2
 2682 10c2 74       		.byte	0x74
 2683 10c3 14       		.sleb128 20
 2684 10c4 2A       		.uleb128 0x2a
 2685 10c5 01       		.uleb128 0x1
 2686 10c6 51       		.byte	0x51
 2687 10c7 02       		.uleb128 0x2
 2688 10c8 09       		.byte	0x9
 2689 10c9 FE       		.byte	0xfe
 2690 10ca 00       		.byte	0
 2691 10cb 00       		.byte	0
 2692 10cc 2E       		.uleb128 0x2e
 2693 10cd E40A0000 		.4byte	0xae4
 2694 10d1 28000000 		.4byte	.LBB161
 2695 10d5 10000000 		.4byte	.LBE161-.LBB161
 2696 10d9 01       		.byte	0x1
 2697 10da D6       		.byte	0xd6
 2698 10db 2B110000 		.4byte	0x112b
 2699 10df 2F       		.uleb128 0x2f
 2700 10e0 9B0A0000 		.4byte	0xa9b
 2701 10e4 28000000 		.4byte	.LBB162
 2702 10e8 10000000 		.4byte	.LBE162-.LBB162
 2703 10ec 02       		.byte	0x2
 2704 10ed CA01     		.2byte	0x1ca
 2705 10ef 30       		.uleb128 0x30
 2706 10f0 28000000 		.4byte	.LBB163
 2707 10f4 10000000 		.4byte	.LBE163-.LBB163
 2708 10f8 31       		.uleb128 0x31
 2709 10f9 A80A0000 		.4byte	0xaa8
 2710 10fd 2F       		.uleb128 0x2f
 2711 10fe 890A0000 		.4byte	0xa89
 2712 1102 28000000 		.4byte	.LBB164
 2713 1106 10000000 		.4byte	.LBE164-.LBB164
 2714 110a 13       		.byte	0x13
 2715 110b 7301     		.2byte	0x173
 2716 110d 2F       		.uleb128 0x2f
 2717 110e 660A0000 		.4byte	0xa66
 2718 1112 28000000 		.4byte	.LBB165
 2719 1116 10000000 		.4byte	.LBE165-.LBB165
 2720 111a 0C       		.byte	0xc
 2721 111b CD01     		.2byte	0x1cd
 2722 111d 28       		.uleb128 0x28
 2723 111e 730A0000 		.4byte	0xa73
 2724 1122 2A030000 		.4byte	.LLST27
 2725 1126 00       		.byte	0
 2726 1127 00       		.byte	0
 2727 1128 00       		.byte	0
 2728 1129 00       		.byte	0
 2729 112a 00       		.byte	0
 2730 112b 32       		.uleb128 0x32
 2731 112c 14000000 		.4byte	.LVL23
 2732 1130 CC140000 		.4byte	0x14cc
 2733 1134 2A       		.uleb128 0x2a
 2734 1135 01       		.uleb128 0x1
 2735 1136 50       		.byte	0x50
 2736 1137 02       		.uleb128 0x2
ARM GAS  /tmp/ccE9Uswy.s 			page 49


 2737 1138 74       		.byte	0x74
 2738 1139 00       		.sleb128 0
 2739 113a 00       		.byte	0
 2740 113b 00       		.byte	0
 2741 113c 17       		.uleb128 0x17
 2742 113d 78070000 		.4byte	0x778
 2743 1141 4C110000 		.4byte	0x114c
 2744 1145 18       		.uleb128 0x18
 2745 1146 6A040000 		.4byte	0x46a
 2746 114a 11       		.byte	0x11
 2747 114b 00       		.byte	0
 2748 114c 16       		.uleb128 0x16
 2749 114d 3C110000 		.4byte	0x113c
 2750 1151 24       		.uleb128 0x24
 2751 1152 7F080000 		.4byte	.LASF189
 2752 1156 01       		.byte	0x1
 2753 1157 E3       		.byte	0xe3
 2754 1158 00000000 		.4byte	.LFB265
 2755 115c 28000000 		.4byte	.LFE265-.LFB265
 2756 1160 01       		.uleb128 0x1
 2757 1161 9C       		.byte	0x9c
 2758 1162 CE110000 		.4byte	0x11ce
 2759 1166 26       		.uleb128 0x26
 2760 1167 0B090000 		.4byte	.LASF176
 2761 116b 01       		.byte	0x1
 2762 116c E3       		.byte	0xe3
 2763 116d 49090000 		.4byte	0x949
 2764 1171 4A030000 		.4byte	.LLST28
 2765 1175 2B       		.uleb128 0x2b
 2766 1176 AE060000 		.4byte	.LASF177
 2767 117a DE110000 		.4byte	0x11de
 2768 117e 2C       		.uleb128 0x2c
 2769 117f 770B0000 		.4byte	0xb77
 2770 1183 16000000 		.4byte	.LBB167
 2771 1187 48000000 		.4byte	.Ldebug_ranges0+0x48
 2772 118b 01       		.byte	0x1
 2773 118c F0       		.byte	0xf0
 2774 118d BD110000 		.4byte	0x11bd
 2775 1191 28       		.uleb128 0x28
 2776 1192 900B0000 		.4byte	0xb90
 2777 1196 8E030000 		.4byte	.LLST29
 2778 119a 28       		.uleb128 0x28
 2779 119b 840B0000 		.4byte	0xb84
 2780 119f A3030000 		.4byte	.LLST30
 2781 11a3 29       		.uleb128 0x29
 2782 11a4 26000000 		.4byte	.LVL33
 2783 11a8 D8140000 		.4byte	0x14d8
 2784 11ac 2A       		.uleb128 0x2a
 2785 11ad 01       		.uleb128 0x1
 2786 11ae 50       		.byte	0x50
 2787 11af 05       		.uleb128 0x5
 2788 11b0 F3       		.byte	0xf3
 2789 11b1 01       		.uleb128 0x1
 2790 11b2 50       		.byte	0x50
 2791 11b3 23       		.byte	0x23
 2792 11b4 14       		.uleb128 0x14
 2793 11b5 2A       		.uleb128 0x2a
ARM GAS  /tmp/ccE9Uswy.s 			page 50


 2794 11b6 01       		.uleb128 0x1
 2795 11b7 51       		.byte	0x51
 2796 11b8 02       		.uleb128 0x2
 2797 11b9 09       		.byte	0x9
 2798 11ba FE       		.byte	0xfe
 2799 11bb 00       		.byte	0
 2800 11bc 00       		.byte	0
 2801 11bd 32       		.uleb128 0x32
 2802 11be 0E000000 		.4byte	.LVL30
 2803 11c2 CC140000 		.4byte	0x14cc
 2804 11c6 2A       		.uleb128 0x2a
 2805 11c7 01       		.uleb128 0x1
 2806 11c8 50       		.byte	0x50
 2807 11c9 02       		.uleb128 0x2
 2808 11ca 74       		.byte	0x74
 2809 11cb 00       		.sleb128 0
 2810 11cc 00       		.byte	0
 2811 11cd 00       		.byte	0
 2812 11ce 17       		.uleb128 0x17
 2813 11cf 78070000 		.4byte	0x778
 2814 11d3 DE110000 		.4byte	0x11de
 2815 11d7 18       		.uleb128 0x18
 2816 11d8 6A040000 		.4byte	0x46a
 2817 11dc 12       		.byte	0x12
 2818 11dd 00       		.byte	0
 2819 11de 16       		.uleb128 0x16
 2820 11df CE110000 		.4byte	0x11ce
 2821 11e3 34       		.uleb128 0x34
 2822 11e4 4C020000 		.4byte	.LASF207
 2823 11e8 01       		.byte	0x1
 2824 11e9 0C01     		.2byte	0x10c
 2825 11eb 28010000 		.4byte	0x128
 2826 11ef 00000000 		.4byte	.LFB266
 2827 11f3 28000000 		.4byte	.LFE266-.LFB266
 2828 11f7 01       		.uleb128 0x1
 2829 11f8 9C       		.byte	0x9c
 2830 11f9 86130000 		.4byte	0x1386
 2831 11fd 35       		.uleb128 0x35
 2832 11fe 0B090000 		.4byte	.LASF176
 2833 1202 01       		.byte	0x1
 2834 1203 0C01     		.2byte	0x10c
 2835 1205 49090000 		.4byte	0x949
 2836 1209 D3030000 		.4byte	.LLST31
 2837 120d 35       		.uleb128 0x35
 2838 120e FB030000 		.4byte	.LASF148
 2839 1212 01       		.byte	0x1
 2840 1213 0D01     		.2byte	0x10d
 2841 1215 4A0A0000 		.4byte	0xa4a
 2842 1219 F3030000 		.4byte	.LLST32
 2843 121d 35       		.uleb128 0x35
 2844 121e 19040000 		.4byte	.LASF146
 2845 1222 01       		.byte	0x1
 2846 1223 0E01     		.2byte	0x10e
 2847 1225 4F090000 		.4byte	0x94f
 2848 1229 14040000 		.4byte	.LLST33
 2849 122d 35       		.uleb128 0x35
 2850 122e 3B070000 		.4byte	.LASF147
ARM GAS  /tmp/ccE9Uswy.s 			page 51


 2851 1232 01       		.byte	0x1
 2852 1233 0F01     		.2byte	0x10f
 2853 1235 28000000 		.4byte	0x28
 2854 1239 35040000 		.4byte	.LLST34
 2855 123d 36       		.uleb128 0x36
 2856 123e 6D736700 		.ascii	"msg\000"
 2857 1242 01       		.byte	0x1
 2858 1243 1001     		.2byte	0x110
 2859 1245 28010000 		.4byte	0x128
 2860 1249 2B       		.uleb128 0x2b
 2861 124a AE060000 		.4byte	.LASF177
 2862 124e 96130000 		.4byte	0x1396
 2863 1252 37       		.uleb128 0x37
 2864 1253 ED0A0000 		.4byte	0xaed
 2865 1257 02000000 		.4byte	.LBB171
 2866 125b 06000000 		.4byte	.LBE171-.LBB171
 2867 125f 01       		.byte	0x1
 2868 1260 1201     		.2byte	0x112
 2869 1262 A3120000 		.4byte	0x12a3
 2870 1266 2F       		.uleb128 0x2f
 2871 1267 920A0000 		.4byte	0xa92
 2872 126b 02000000 		.4byte	.LBB172
 2873 126f 06000000 		.4byte	.LBE172-.LBB172
 2874 1273 02       		.byte	0x2
 2875 1274 BF01     		.2byte	0x1bf
 2876 1276 2F       		.uleb128 0x2f
 2877 1277 800A0000 		.4byte	0xa80
 2878 127b 02000000 		.4byte	.LBB173
 2879 127f 06000000 		.4byte	.LBE173-.LBB173
 2880 1283 13       		.byte	0x13
 2881 1284 5C01     		.2byte	0x15c
 2882 1286 2F       		.uleb128 0x2f
 2883 1287 660A0000 		.4byte	0xa66
 2884 128b 02000000 		.4byte	.LBB174
 2885 128f 06000000 		.4byte	.LBE174-.LBB174
 2886 1293 0C       		.byte	0xc
 2887 1294 BF01     		.2byte	0x1bf
 2888 1296 28       		.uleb128 0x28
 2889 1297 730A0000 		.4byte	0xa73
 2890 129b 56040000 		.4byte	.LLST35
 2891 129f 00       		.byte	0
 2892 12a0 00       		.byte	0
 2893 12a1 00       		.byte	0
 2894 12a2 00       		.byte	0
 2895 12a3 37       		.uleb128 0x37
 2896 12a4 F60A0000 		.4byte	0xaf6
 2897 12a8 08000000 		.4byte	.LBB176
 2898 12ac 12000000 		.4byte	.LBE176-.LBB176
 2899 12b0 01       		.byte	0x1
 2900 12b1 1401     		.2byte	0x114
 2901 12b3 FB120000 		.4byte	0x12fb
 2902 12b7 28       		.uleb128 0x28
 2903 12b8 230B0000 		.4byte	0xb23
 2904 12bc 6B040000 		.4byte	.LLST36
 2905 12c0 28       		.uleb128 0x28
 2906 12c1 180B0000 		.4byte	0xb18
 2907 12c5 8C040000 		.4byte	.LLST37
ARM GAS  /tmp/ccE9Uswy.s 			page 52


 2908 12c9 28       		.uleb128 0x28
 2909 12ca 0D0B0000 		.4byte	0xb0d
 2910 12ce AD040000 		.4byte	.LLST38
 2911 12d2 28       		.uleb128 0x28
 2912 12d3 020B0000 		.4byte	0xb02
 2913 12d7 CE040000 		.4byte	.LLST39
 2914 12db 30       		.uleb128 0x30
 2915 12dc 08000000 		.4byte	.LBB177
 2916 12e0 12000000 		.4byte	.LBE177-.LBB177
 2917 12e4 31       		.uleb128 0x31
 2918 12e5 2E0B0000 		.4byte	0xb2e
 2919 12e9 32       		.uleb128 0x32
 2920 12ea 1A000000 		.4byte	.LVL36
 2921 12ee B5140000 		.4byte	0x14b5
 2922 12f2 2A       		.uleb128 0x2a
 2923 12f3 01       		.uleb128 0x1
 2924 12f4 50       		.byte	0x50
 2925 12f5 02       		.uleb128 0x2
 2926 12f6 75       		.byte	0x75
 2927 12f7 6C       		.sleb128 -20
 2928 12f8 00       		.byte	0
 2929 12f9 00       		.byte	0
 2930 12fa 00       		.byte	0
 2931 12fb 37       		.uleb128 0x37
 2932 12fc 9D0B0000 		.4byte	0xb9d
 2933 1300 1A000000 		.4byte	.LBB178
 2934 1304 06000000 		.4byte	.LBE178-.LBB178
 2935 1308 01       		.byte	0x1
 2936 1309 1501     		.2byte	0x115
 2937 130b 29130000 		.4byte	0x1329
 2938 130f 28       		.uleb128 0x28
 2939 1310 AE0B0000 		.4byte	0xbae
 2940 1314 EE040000 		.4byte	.LLST40
 2941 1318 32       		.uleb128 0x32
 2942 1319 20000000 		.4byte	.LVL37
 2943 131d E3140000 		.4byte	0x14e3
 2944 1321 2A       		.uleb128 0x2a
 2945 1322 01       		.uleb128 0x1
 2946 1323 50       		.byte	0x50
 2947 1324 02       		.uleb128 0x2
 2948 1325 75       		.byte	0x75
 2949 1326 00       		.sleb128 0
 2950 1327 00       		.byte	0
 2951 1328 00       		.byte	0
 2952 1329 2F       		.uleb128 0x2f
 2953 132a E40A0000 		.4byte	0xae4
 2954 132e 20000000 		.4byte	.LBB180
 2955 1332 06000000 		.4byte	.LBE180-.LBB180
 2956 1336 01       		.byte	0x1
 2957 1337 1601     		.2byte	0x116
 2958 1339 2F       		.uleb128 0x2f
 2959 133a 9B0A0000 		.4byte	0xa9b
 2960 133e 20000000 		.4byte	.LBB181
 2961 1342 06000000 		.4byte	.LBE181-.LBB181
 2962 1346 02       		.byte	0x2
 2963 1347 CA01     		.2byte	0x1ca
 2964 1349 30       		.uleb128 0x30
ARM GAS  /tmp/ccE9Uswy.s 			page 53


 2965 134a 20000000 		.4byte	.LBB182
 2966 134e 06000000 		.4byte	.LBE182-.LBB182
 2967 1352 31       		.uleb128 0x31
 2968 1353 A80A0000 		.4byte	0xaa8
 2969 1357 2F       		.uleb128 0x2f
 2970 1358 890A0000 		.4byte	0xa89
 2971 135c 20000000 		.4byte	.LBB183
 2972 1360 06000000 		.4byte	.LBE183-.LBB183
 2973 1364 13       		.byte	0x13
 2974 1365 7301     		.2byte	0x173
 2975 1367 2F       		.uleb128 0x2f
 2976 1368 660A0000 		.4byte	0xa66
 2977 136c 20000000 		.4byte	.LBB184
 2978 1370 06000000 		.4byte	.LBE184-.LBB184
 2979 1374 0C       		.byte	0xc
 2980 1375 CD01     		.2byte	0x1cd
 2981 1377 28       		.uleb128 0x28
 2982 1378 730A0000 		.4byte	0xa73
 2983 137c 01050000 		.4byte	.LLST41
 2984 1380 00       		.byte	0
 2985 1381 00       		.byte	0
 2986 1382 00       		.byte	0
 2987 1383 00       		.byte	0
 2988 1384 00       		.byte	0
 2989 1385 00       		.byte	0
 2990 1386 17       		.uleb128 0x17
 2991 1387 78070000 		.4byte	0x778
 2992 138b 96130000 		.4byte	0x1396
 2993 138f 18       		.uleb128 0x18
 2994 1390 6A040000 		.4byte	0x46a
 2995 1394 0A       		.byte	0xa
 2996 1395 00       		.byte	0
 2997 1396 16       		.uleb128 0x16
 2998 1397 86130000 		.4byte	0x1386
 2999 139b 38       		.uleb128 0x38
 3000 139c 57090000 		.4byte	.LASF190
 3001 13a0 01       		.byte	0x1
 3002 13a1 2701     		.2byte	0x127
 3003 13a3 00000000 		.4byte	.LFB267
 3004 13a7 06000000 		.4byte	.LFE267-.LFB267
 3005 13ab 01       		.uleb128 0x1
 3006 13ac 9C       		.byte	0x9c
 3007 13ad F8130000 		.4byte	0x13f8
 3008 13b1 35       		.uleb128 0x35
 3009 13b2 0B090000 		.4byte	.LASF176
 3010 13b6 01       		.byte	0x1
 3011 13b7 2701     		.2byte	0x127
 3012 13b9 49090000 		.4byte	0x949
 3013 13bd 15050000 		.4byte	.LLST42
 3014 13c1 2B       		.uleb128 0x2b
 3015 13c2 AE060000 		.4byte	.LASF177
 3016 13c6 08140000 		.4byte	0x1408
 3017 13ca 2F       		.uleb128 0x2f
 3018 13cb BB0B0000 		.4byte	0xbbb
 3019 13cf 00000000 		.4byte	.LBB186
 3020 13d3 06000000 		.4byte	.LBE186-.LBB186
 3021 13d7 01       		.byte	0x1
ARM GAS  /tmp/ccE9Uswy.s 			page 54


 3022 13d8 2B01     		.2byte	0x12b
 3023 13da 28       		.uleb128 0x28
 3024 13db C80B0000 		.4byte	0xbc8
 3025 13df 43050000 		.4byte	.LLST43
 3026 13e3 29       		.uleb128 0x29
 3027 13e4 06000000 		.4byte	.LVL41
 3028 13e8 EE140000 		.4byte	0x14ee
 3029 13ec 2A       		.uleb128 0x2a
 3030 13ed 01       		.uleb128 0x1
 3031 13ee 50       		.byte	0x50
 3032 13ef 05       		.uleb128 0x5
 3033 13f0 F3       		.byte	0xf3
 3034 13f1 01       		.uleb128 0x1
 3035 13f2 50       		.byte	0x50
 3036 13f3 23       		.byte	0x23
 3037 13f4 18       		.uleb128 0x18
 3038 13f5 00       		.byte	0
 3039 13f6 00       		.byte	0
 3040 13f7 00       		.byte	0
 3041 13f8 17       		.uleb128 0x17
 3042 13f9 78070000 		.4byte	0x778
 3043 13fd 08140000 		.4byte	0x1408
 3044 1401 18       		.uleb128 0x18
 3045 1402 6A040000 		.4byte	0x46a
 3046 1406 0D       		.byte	0xd
 3047 1407 00       		.byte	0
 3048 1408 16       		.uleb128 0x16
 3049 1409 F8130000 		.4byte	0x13f8
 3050 140d 38       		.uleb128 0x38
 3051 140e E2030000 		.4byte	.LASF191
 3052 1412 01       		.byte	0x1
 3053 1413 3701     		.2byte	0x137
 3054 1415 00000000 		.4byte	.LFB268
 3055 1419 06000000 		.4byte	.LFE268-.LFB268
 3056 141d 01       		.uleb128 0x1
 3057 141e 9C       		.byte	0x9c
 3058 141f 6A140000 		.4byte	0x146a
 3059 1423 35       		.uleb128 0x35
 3060 1424 0B090000 		.4byte	.LASF176
 3061 1428 01       		.byte	0x1
 3062 1429 3701     		.2byte	0x137
 3063 142b 49090000 		.4byte	0x949
 3064 142f 73050000 		.4byte	.LLST44
 3065 1433 2B       		.uleb128 0x2b
 3066 1434 AE060000 		.4byte	.LASF177
 3067 1438 6A140000 		.4byte	0x146a
 3068 143c 2F       		.uleb128 0x2f
 3069 143d D40B0000 		.4byte	0xbd4
 3070 1441 00000000 		.4byte	.LBB188
 3071 1445 06000000 		.4byte	.LBE188-.LBB188
 3072 1449 01       		.byte	0x1
 3073 144a 3B01     		.2byte	0x13b
 3074 144c 28       		.uleb128 0x28
 3075 144d E10B0000 		.4byte	0xbe1
 3076 1451 A1050000 		.4byte	.LLST45
 3077 1455 29       		.uleb128 0x29
 3078 1456 06000000 		.4byte	.LVL44
ARM GAS  /tmp/ccE9Uswy.s 			page 55


 3079 145a F9140000 		.4byte	0x14f9
 3080 145e 2A       		.uleb128 0x2a
 3081 145f 01       		.uleb128 0x1
 3082 1460 50       		.byte	0x50
 3083 1461 05       		.uleb128 0x5
 3084 1462 F3       		.byte	0xf3
 3085 1463 01       		.uleb128 0x1
 3086 1464 50       		.byte	0x50
 3087 1465 23       		.byte	0x23
 3088 1466 18       		.uleb128 0x18
 3089 1467 00       		.byte	0
 3090 1468 00       		.byte	0
 3091 1469 00       		.byte	0
 3092 146a 16       		.uleb128 0x16
 3093 146b F8130000 		.4byte	0x13f8
 3094 146f 39       		.uleb128 0x39
 3095 1470 FE000000 		.4byte	.LASF192
 3096 1474 15       		.byte	0x15
 3097 1475 A706     		.2byte	0x6a7
 3098 1477 E7000000 		.4byte	0xe7
 3099 147b 3A       		.uleb128 0x3a
 3100 147c 636800   		.ascii	"ch\000"
 3101 147f 09       		.byte	0x9
 3102 1480 0902     		.2byte	0x209
 3103 1482 03040000 		.4byte	0x403
 3104 1486 3B       		.uleb128 0x3b
 3105 1487 0C040000 		.4byte	.LASF193
 3106 148b 0C040000 		.4byte	.LASF193
 3107 148f 12       		.byte	0x12
 3108 1490 2202     		.2byte	0x222
 3109 1492 3C       		.uleb128 0x3c
 3110 1493 48050000 		.4byte	.LASF194
 3111 1497 48050000 		.4byte	.LASF194
 3112 149b 0F       		.byte	0xf
 3113 149c 67       		.byte	0x67
 3114 149d 3B       		.uleb128 0x3b
 3115 149e 27080000 		.4byte	.LASF195
 3116 14a2 27080000 		.4byte	.LASF195
 3117 14a6 12       		.byte	0x12
 3118 14a7 2302     		.2byte	0x223
 3119 14a9 3B       		.uleb128 0x3b
 3120 14aa 96000000 		.4byte	.LASF196
 3121 14ae 96000000 		.4byte	.LASF196
 3122 14b2 12       		.byte	0x12
 3123 14b3 2402     		.2byte	0x224
 3124 14b5 3B       		.uleb128 0x3b
 3125 14b6 C6010000 		.4byte	.LASF197
 3126 14ba C6010000 		.4byte	.LASF197
 3127 14be 12       		.byte	0x12
 3128 14bf 2502     		.2byte	0x225
 3129 14c1 3C       		.uleb128 0x3c
 3130 14c2 9D020000 		.4byte	.LASF198
 3131 14c6 9D020000 		.4byte	.LASF198
 3132 14ca 14       		.byte	0x14
 3133 14cb 90       		.byte	0x90
 3134 14cc 3B       		.uleb128 0x3b
 3135 14cd 8E050000 		.4byte	.LASF199
ARM GAS  /tmp/ccE9Uswy.s 			page 56


 3136 14d1 8E050000 		.4byte	.LASF199
 3137 14d5 12       		.byte	0x12
 3138 14d6 2602     		.2byte	0x226
 3139 14d8 3C       		.uleb128 0x3c
 3140 14d9 6F020000 		.4byte	.LASF200
 3141 14dd 6F020000 		.4byte	.LASF200
 3142 14e1 14       		.byte	0x14
 3143 14e2 8F       		.byte	0x8f
 3144 14e3 3C       		.uleb128 0x3c
 3145 14e4 DB040000 		.4byte	.LASF201
 3146 14e8 DB040000 		.4byte	.LASF201
 3147 14ec 14       		.byte	0x14
 3148 14ed 8D       		.byte	0x8d
 3149 14ee 3C       		.uleb128 0x3c
 3150 14ef 8A040000 		.4byte	.LASF202
 3151 14f3 8A040000 		.4byte	.LASF202
 3152 14f7 0F       		.byte	0xf
 3153 14f8 68       		.byte	0x68
 3154 14f9 3C       		.uleb128 0x3c
 3155 14fa 44010000 		.4byte	.LASF203
 3156 14fe 44010000 		.4byte	.LASF203
 3157 1502 0F       		.byte	0xf
 3158 1503 6C       		.byte	0x6c
 3159 1504 00       		.byte	0
 3160              		.section	.debug_abbrev,"",%progbits
 3161              	.Ldebug_abbrev0:
 3162 0000 01       		.uleb128 0x1
 3163 0001 11       		.uleb128 0x11
 3164 0002 01       		.byte	0x1
 3165 0003 25       		.uleb128 0x25
 3166 0004 0E       		.uleb128 0xe
 3167 0005 13       		.uleb128 0x13
 3168 0006 0B       		.uleb128 0xb
 3169 0007 03       		.uleb128 0x3
 3170 0008 0E       		.uleb128 0xe
 3171 0009 55       		.uleb128 0x55
 3172 000a 17       		.uleb128 0x17
 3173 000b 11       		.uleb128 0x11
 3174 000c 01       		.uleb128 0x1
 3175 000d 10       		.uleb128 0x10
 3176 000e 17       		.uleb128 0x17
 3177 000f 00       		.byte	0
 3178 0010 00       		.byte	0
 3179 0011 02       		.uleb128 0x2
 3180 0012 24       		.uleb128 0x24
 3181 0013 00       		.byte	0
 3182 0014 0B       		.uleb128 0xb
 3183 0015 0B       		.uleb128 0xb
 3184 0016 3E       		.uleb128 0x3e
 3185 0017 0B       		.uleb128 0xb
 3186 0018 03       		.uleb128 0x3
 3187 0019 08       		.uleb128 0x8
 3188 001a 00       		.byte	0
 3189 001b 00       		.byte	0
 3190 001c 03       		.uleb128 0x3
 3191 001d 16       		.uleb128 0x16
 3192 001e 00       		.byte	0
ARM GAS  /tmp/ccE9Uswy.s 			page 57


 3193 001f 03       		.uleb128 0x3
 3194 0020 0E       		.uleb128 0xe
 3195 0021 3A       		.uleb128 0x3a
 3196 0022 0B       		.uleb128 0xb
 3197 0023 3B       		.uleb128 0x3b
 3198 0024 0B       		.uleb128 0xb
 3199 0025 49       		.uleb128 0x49
 3200 0026 13       		.uleb128 0x13
 3201 0027 00       		.byte	0
 3202 0028 00       		.byte	0
 3203 0029 04       		.uleb128 0x4
 3204 002a 24       		.uleb128 0x24
 3205 002b 00       		.byte	0
 3206 002c 0B       		.uleb128 0xb
 3207 002d 0B       		.uleb128 0xb
 3208 002e 3E       		.uleb128 0x3e
 3209 002f 0B       		.uleb128 0xb
 3210 0030 03       		.uleb128 0x3
 3211 0031 0E       		.uleb128 0xe
 3212 0032 00       		.byte	0
 3213 0033 00       		.byte	0
 3214 0034 05       		.uleb128 0x5
 3215 0035 35       		.uleb128 0x35
 3216 0036 00       		.byte	0
 3217 0037 49       		.uleb128 0x49
 3218 0038 13       		.uleb128 0x13
 3219 0039 00       		.byte	0
 3220 003a 00       		.byte	0
 3221 003b 06       		.uleb128 0x6
 3222 003c 13       		.uleb128 0x13
 3223 003d 01       		.byte	0x1
 3224 003e 03       		.uleb128 0x3
 3225 003f 0E       		.uleb128 0xe
 3226 0040 0B       		.uleb128 0xb
 3227 0041 0B       		.uleb128 0xb
 3228 0042 3A       		.uleb128 0x3a
 3229 0043 0B       		.uleb128 0xb
 3230 0044 3B       		.uleb128 0x3b
 3231 0045 0B       		.uleb128 0xb
 3232 0046 01       		.uleb128 0x1
 3233 0047 13       		.uleb128 0x13
 3234 0048 00       		.byte	0
 3235 0049 00       		.byte	0
 3236 004a 07       		.uleb128 0x7
 3237 004b 0D       		.uleb128 0xd
 3238 004c 00       		.byte	0
 3239 004d 03       		.uleb128 0x3
 3240 004e 0E       		.uleb128 0xe
 3241 004f 3A       		.uleb128 0x3a
 3242 0050 0B       		.uleb128 0xb
 3243 0051 3B       		.uleb128 0x3b
 3244 0052 0B       		.uleb128 0xb
 3245 0053 49       		.uleb128 0x49
 3246 0054 13       		.uleb128 0x13
 3247 0055 38       		.uleb128 0x38
 3248 0056 0B       		.uleb128 0xb
 3249 0057 00       		.byte	0
ARM GAS  /tmp/ccE9Uswy.s 			page 58


 3250 0058 00       		.byte	0
 3251 0059 08       		.uleb128 0x8
 3252 005a 0D       		.uleb128 0xd
 3253 005b 00       		.byte	0
 3254 005c 03       		.uleb128 0x3
 3255 005d 08       		.uleb128 0x8
 3256 005e 3A       		.uleb128 0x3a
 3257 005f 0B       		.uleb128 0xb
 3258 0060 3B       		.uleb128 0x3b
 3259 0061 05       		.uleb128 0x5
 3260 0062 49       		.uleb128 0x49
 3261 0063 13       		.uleb128 0x13
 3262 0064 38       		.uleb128 0x38
 3263 0065 0B       		.uleb128 0xb
 3264 0066 00       		.byte	0
 3265 0067 00       		.byte	0
 3266 0068 09       		.uleb128 0x9
 3267 0069 0D       		.uleb128 0xd
 3268 006a 00       		.byte	0
 3269 006b 03       		.uleb128 0x3
 3270 006c 0E       		.uleb128 0xe
 3271 006d 3A       		.uleb128 0x3a
 3272 006e 0B       		.uleb128 0xb
 3273 006f 3B       		.uleb128 0x3b
 3274 0070 05       		.uleb128 0x5
 3275 0071 49       		.uleb128 0x49
 3276 0072 13       		.uleb128 0x13
 3277 0073 38       		.uleb128 0x38
 3278 0074 0B       		.uleb128 0xb
 3279 0075 00       		.byte	0
 3280 0076 00       		.byte	0
 3281 0077 0A       		.uleb128 0xa
 3282 0078 0F       		.uleb128 0xf
 3283 0079 00       		.byte	0
 3284 007a 0B       		.uleb128 0xb
 3285 007b 0B       		.uleb128 0xb
 3286 007c 49       		.uleb128 0x49
 3287 007d 13       		.uleb128 0x13
 3288 007e 00       		.byte	0
 3289 007f 00       		.byte	0
 3290 0080 0B       		.uleb128 0xb
 3291 0081 13       		.uleb128 0x13
 3292 0082 01       		.byte	0x1
 3293 0083 03       		.uleb128 0x3
 3294 0084 0E       		.uleb128 0xe
 3295 0085 0B       		.uleb128 0xb
 3296 0086 0B       		.uleb128 0xb
 3297 0087 3A       		.uleb128 0x3a
 3298 0088 0B       		.uleb128 0xb
 3299 0089 3B       		.uleb128 0x3b
 3300 008a 05       		.uleb128 0x5
 3301 008b 01       		.uleb128 0x1
 3302 008c 13       		.uleb128 0x13
 3303 008d 00       		.byte	0
 3304 008e 00       		.byte	0
 3305 008f 0C       		.uleb128 0xc
 3306 0090 15       		.uleb128 0x15
ARM GAS  /tmp/ccE9Uswy.s 			page 59


 3307 0091 01       		.byte	0x1
 3308 0092 27       		.uleb128 0x27
 3309 0093 19       		.uleb128 0x19
 3310 0094 01       		.uleb128 0x1
 3311 0095 13       		.uleb128 0x13
 3312 0096 00       		.byte	0
 3313 0097 00       		.byte	0
 3314 0098 0D       		.uleb128 0xd
 3315 0099 05       		.uleb128 0x5
 3316 009a 00       		.byte	0
 3317 009b 49       		.uleb128 0x49
 3318 009c 13       		.uleb128 0x13
 3319 009d 00       		.byte	0
 3320 009e 00       		.byte	0
 3321 009f 0E       		.uleb128 0xe
 3322 00a0 0F       		.uleb128 0xf
 3323 00a1 00       		.byte	0
 3324 00a2 0B       		.uleb128 0xb
 3325 00a3 0B       		.uleb128 0xb
 3326 00a4 00       		.byte	0
 3327 00a5 00       		.byte	0
 3328 00a6 0F       		.uleb128 0xf
 3329 00a7 13       		.uleb128 0x13
 3330 00a8 01       		.byte	0x1
 3331 00a9 03       		.uleb128 0x3
 3332 00aa 0E       		.uleb128 0xe
 3333 00ab 0B       		.uleb128 0xb
 3334 00ac 05       		.uleb128 0x5
 3335 00ad 3A       		.uleb128 0x3a
 3336 00ae 0B       		.uleb128 0xb
 3337 00af 3B       		.uleb128 0x3b
 3338 00b0 05       		.uleb128 0x5
 3339 00b1 01       		.uleb128 0x1
 3340 00b2 13       		.uleb128 0x13
 3341 00b3 00       		.byte	0
 3342 00b4 00       		.byte	0
 3343 00b5 10       		.uleb128 0x10
 3344 00b6 13       		.uleb128 0x13
 3345 00b7 01       		.byte	0x1
 3346 00b8 0B       		.uleb128 0xb
 3347 00b9 0B       		.uleb128 0xb
 3348 00ba 3A       		.uleb128 0x3a
 3349 00bb 0B       		.uleb128 0xb
 3350 00bc 3B       		.uleb128 0x3b
 3351 00bd 0B       		.uleb128 0xb
 3352 00be 01       		.uleb128 0x1
 3353 00bf 13       		.uleb128 0x13
 3354 00c0 00       		.byte	0
 3355 00c1 00       		.byte	0
 3356 00c2 11       		.uleb128 0x11
 3357 00c3 0D       		.uleb128 0xd
 3358 00c4 00       		.byte	0
 3359 00c5 03       		.uleb128 0x3
 3360 00c6 08       		.uleb128 0x8
 3361 00c7 3A       		.uleb128 0x3a
 3362 00c8 0B       		.uleb128 0xb
 3363 00c9 3B       		.uleb128 0x3b
ARM GAS  /tmp/ccE9Uswy.s 			page 60


 3364 00ca 0B       		.uleb128 0xb
 3365 00cb 49       		.uleb128 0x49
 3366 00cc 13       		.uleb128 0x13
 3367 00cd 38       		.uleb128 0x38
 3368 00ce 0B       		.uleb128 0xb
 3369 00cf 00       		.byte	0
 3370 00d0 00       		.byte	0
 3371 00d1 12       		.uleb128 0x12
 3372 00d2 13       		.uleb128 0x13
 3373 00d3 01       		.byte	0x1
 3374 00d4 0B       		.uleb128 0xb
 3375 00d5 0B       		.uleb128 0xb
 3376 00d6 3A       		.uleb128 0x3a
 3377 00d7 0B       		.uleb128 0xb
 3378 00d8 3B       		.uleb128 0x3b
 3379 00d9 05       		.uleb128 0x5
 3380 00da 01       		.uleb128 0x1
 3381 00db 13       		.uleb128 0x13
 3382 00dc 00       		.byte	0
 3383 00dd 00       		.byte	0
 3384 00de 13       		.uleb128 0x13
 3385 00df 16       		.uleb128 0x16
 3386 00e0 00       		.byte	0
 3387 00e1 03       		.uleb128 0x3
 3388 00e2 0E       		.uleb128 0xe
 3389 00e3 3A       		.uleb128 0x3a
 3390 00e4 0B       		.uleb128 0xb
 3391 00e5 3B       		.uleb128 0x3b
 3392 00e6 05       		.uleb128 0x5
 3393 00e7 49       		.uleb128 0x49
 3394 00e8 13       		.uleb128 0x13
 3395 00e9 00       		.byte	0
 3396 00ea 00       		.byte	0
 3397 00eb 14       		.uleb128 0x14
 3398 00ec 17       		.uleb128 0x17
 3399 00ed 01       		.byte	0x1
 3400 00ee 0B       		.uleb128 0xb
 3401 00ef 0B       		.uleb128 0xb
 3402 00f0 3A       		.uleb128 0x3a
 3403 00f1 0B       		.uleb128 0xb
 3404 00f2 3B       		.uleb128 0x3b
 3405 00f3 0B       		.uleb128 0xb
 3406 00f4 01       		.uleb128 0x1
 3407 00f5 13       		.uleb128 0x13
 3408 00f6 00       		.byte	0
 3409 00f7 00       		.byte	0
 3410 00f8 15       		.uleb128 0x15
 3411 00f9 0D       		.uleb128 0xd
 3412 00fa 00       		.byte	0
 3413 00fb 03       		.uleb128 0x3
 3414 00fc 0E       		.uleb128 0xe
 3415 00fd 3A       		.uleb128 0x3a
 3416 00fe 0B       		.uleb128 0xb
 3417 00ff 3B       		.uleb128 0x3b
 3418 0100 05       		.uleb128 0x5
 3419 0101 49       		.uleb128 0x49
 3420 0102 13       		.uleb128 0x13
ARM GAS  /tmp/ccE9Uswy.s 			page 61


 3421 0103 00       		.byte	0
 3422 0104 00       		.byte	0
 3423 0105 16       		.uleb128 0x16
 3424 0106 26       		.uleb128 0x26
 3425 0107 00       		.byte	0
 3426 0108 49       		.uleb128 0x49
 3427 0109 13       		.uleb128 0x13
 3428 010a 00       		.byte	0
 3429 010b 00       		.byte	0
 3430 010c 17       		.uleb128 0x17
 3431 010d 01       		.uleb128 0x1
 3432 010e 01       		.byte	0x1
 3433 010f 49       		.uleb128 0x49
 3434 0110 13       		.uleb128 0x13
 3435 0111 01       		.uleb128 0x1
 3436 0112 13       		.uleb128 0x13
 3437 0113 00       		.byte	0
 3438 0114 00       		.byte	0
 3439 0115 18       		.uleb128 0x18
 3440 0116 21       		.uleb128 0x21
 3441 0117 00       		.byte	0
 3442 0118 49       		.uleb128 0x49
 3443 0119 13       		.uleb128 0x13
 3444 011a 2F       		.uleb128 0x2f
 3445 011b 0B       		.uleb128 0xb
 3446 011c 00       		.byte	0
 3447 011d 00       		.byte	0
 3448 011e 19       		.uleb128 0x19
 3449 011f 04       		.uleb128 0x4
 3450 0120 01       		.byte	0x1
 3451 0121 0B       		.uleb128 0xb
 3452 0122 0B       		.uleb128 0xb
 3453 0123 49       		.uleb128 0x49
 3454 0124 13       		.uleb128 0x13
 3455 0125 3A       		.uleb128 0x3a
 3456 0126 0B       		.uleb128 0xb
 3457 0127 3B       		.uleb128 0x3b
 3458 0128 0B       		.uleb128 0xb
 3459 0129 01       		.uleb128 0x1
 3460 012a 13       		.uleb128 0x13
 3461 012b 00       		.byte	0
 3462 012c 00       		.byte	0
 3463 012d 1A       		.uleb128 0x1a
 3464 012e 28       		.uleb128 0x28
 3465 012f 00       		.byte	0
 3466 0130 03       		.uleb128 0x3
 3467 0131 0E       		.uleb128 0xe
 3468 0132 1C       		.uleb128 0x1c
 3469 0133 0B       		.uleb128 0xb
 3470 0134 00       		.byte	0
 3471 0135 00       		.byte	0
 3472 0136 1B       		.uleb128 0x1b
 3473 0137 04       		.uleb128 0x4
 3474 0138 01       		.byte	0x1
 3475 0139 0B       		.uleb128 0xb
 3476 013a 0B       		.uleb128 0xb
 3477 013b 49       		.uleb128 0x49
ARM GAS  /tmp/ccE9Uswy.s 			page 62


 3478 013c 13       		.uleb128 0x13
 3479 013d 3A       		.uleb128 0x3a
 3480 013e 0B       		.uleb128 0xb
 3481 013f 3B       		.uleb128 0x3b
 3482 0140 05       		.uleb128 0x5
 3483 0141 01       		.uleb128 0x1
 3484 0142 13       		.uleb128 0x13
 3485 0143 00       		.byte	0
 3486 0144 00       		.byte	0
 3487 0145 1C       		.uleb128 0x1c
 3488 0146 2E       		.uleb128 0x2e
 3489 0147 01       		.byte	0x1
 3490 0148 03       		.uleb128 0x3
 3491 0149 0E       		.uleb128 0xe
 3492 014a 3A       		.uleb128 0x3a
 3493 014b 0B       		.uleb128 0xb
 3494 014c 3B       		.uleb128 0x3b
 3495 014d 05       		.uleb128 0x5
 3496 014e 27       		.uleb128 0x27
 3497 014f 19       		.uleb128 0x19
 3498 0150 20       		.uleb128 0x20
 3499 0151 0B       		.uleb128 0xb
 3500 0152 01       		.uleb128 0x1
 3501 0153 13       		.uleb128 0x13
 3502 0154 00       		.byte	0
 3503 0155 00       		.byte	0
 3504 0156 1D       		.uleb128 0x1d
 3505 0157 05       		.uleb128 0x5
 3506 0158 00       		.byte	0
 3507 0159 03       		.uleb128 0x3
 3508 015a 0E       		.uleb128 0xe
 3509 015b 3A       		.uleb128 0x3a
 3510 015c 0B       		.uleb128 0xb
 3511 015d 3B       		.uleb128 0x3b
 3512 015e 05       		.uleb128 0x5
 3513 015f 49       		.uleb128 0x49
 3514 0160 13       		.uleb128 0x13
 3515 0161 00       		.byte	0
 3516 0162 00       		.byte	0
 3517 0163 1E       		.uleb128 0x1e
 3518 0164 2E       		.uleb128 0x2e
 3519 0165 00       		.byte	0
 3520 0166 03       		.uleb128 0x3
 3521 0167 0E       		.uleb128 0xe
 3522 0168 3A       		.uleb128 0x3a
 3523 0169 0B       		.uleb128 0xb
 3524 016a 3B       		.uleb128 0x3b
 3525 016b 05       		.uleb128 0x5
 3526 016c 27       		.uleb128 0x27
 3527 016d 19       		.uleb128 0x19
 3528 016e 20       		.uleb128 0x20
 3529 016f 0B       		.uleb128 0xb
 3530 0170 00       		.byte	0
 3531 0171 00       		.byte	0
 3532 0172 1F       		.uleb128 0x1f
 3533 0173 34       		.uleb128 0x34
 3534 0174 00       		.byte	0
ARM GAS  /tmp/ccE9Uswy.s 			page 63


 3535 0175 03       		.uleb128 0x3
 3536 0176 0E       		.uleb128 0xe
 3537 0177 49       		.uleb128 0x49
 3538 0178 13       		.uleb128 0x13
 3539 0179 34       		.uleb128 0x34
 3540 017a 19       		.uleb128 0x19
 3541 017b 1C       		.uleb128 0x1c
 3542 017c 0E       		.uleb128 0xe
 3543 017d 00       		.byte	0
 3544 017e 00       		.byte	0
 3545 017f 20       		.uleb128 0x20
 3546 0180 05       		.uleb128 0x5
 3547 0181 00       		.byte	0
 3548 0182 03       		.uleb128 0x3
 3549 0183 08       		.uleb128 0x8
 3550 0184 3A       		.uleb128 0x3a
 3551 0185 0B       		.uleb128 0xb
 3552 0186 3B       		.uleb128 0x3b
 3553 0187 05       		.uleb128 0x5
 3554 0188 49       		.uleb128 0x49
 3555 0189 13       		.uleb128 0x13
 3556 018a 00       		.byte	0
 3557 018b 00       		.byte	0
 3558 018c 21       		.uleb128 0x21
 3559 018d 2E       		.uleb128 0x2e
 3560 018e 01       		.byte	0x1
 3561 018f 3F       		.uleb128 0x3f
 3562 0190 19       		.uleb128 0x19
 3563 0191 03       		.uleb128 0x3
 3564 0192 0E       		.uleb128 0xe
 3565 0193 3A       		.uleb128 0x3a
 3566 0194 0B       		.uleb128 0xb
 3567 0195 3B       		.uleb128 0x3b
 3568 0196 0B       		.uleb128 0xb
 3569 0197 27       		.uleb128 0x27
 3570 0198 19       		.uleb128 0x19
 3571 0199 20       		.uleb128 0x20
 3572 019a 0B       		.uleb128 0xb
 3573 019b 01       		.uleb128 0x1
 3574 019c 13       		.uleb128 0x13
 3575 019d 00       		.byte	0
 3576 019e 00       		.byte	0
 3577 019f 22       		.uleb128 0x22
 3578 01a0 05       		.uleb128 0x5
 3579 01a1 00       		.byte	0
 3580 01a2 03       		.uleb128 0x3
 3581 01a3 0E       		.uleb128 0xe
 3582 01a4 3A       		.uleb128 0x3a
 3583 01a5 0B       		.uleb128 0xb
 3584 01a6 3B       		.uleb128 0x3b
 3585 01a7 0B       		.uleb128 0xb
 3586 01a8 49       		.uleb128 0x49
 3587 01a9 13       		.uleb128 0x13
 3588 01aa 00       		.byte	0
 3589 01ab 00       		.byte	0
 3590 01ac 23       		.uleb128 0x23
 3591 01ad 2E       		.uleb128 0x2e
ARM GAS  /tmp/ccE9Uswy.s 			page 64


 3592 01ae 01       		.byte	0x1
 3593 01af 03       		.uleb128 0x3
 3594 01b0 0E       		.uleb128 0xe
 3595 01b1 3A       		.uleb128 0x3a
 3596 01b2 0B       		.uleb128 0xb
 3597 01b3 3B       		.uleb128 0x3b
 3598 01b4 05       		.uleb128 0x5
 3599 01b5 27       		.uleb128 0x27
 3600 01b6 19       		.uleb128 0x19
 3601 01b7 49       		.uleb128 0x49
 3602 01b8 13       		.uleb128 0x13
 3603 01b9 20       		.uleb128 0x20
 3604 01ba 0B       		.uleb128 0xb
 3605 01bb 01       		.uleb128 0x1
 3606 01bc 13       		.uleb128 0x13
 3607 01bd 00       		.byte	0
 3608 01be 00       		.byte	0
 3609 01bf 24       		.uleb128 0x24
 3610 01c0 2E       		.uleb128 0x2e
 3611 01c1 01       		.byte	0x1
 3612 01c2 3F       		.uleb128 0x3f
 3613 01c3 19       		.uleb128 0x19
 3614 01c4 03       		.uleb128 0x3
 3615 01c5 0E       		.uleb128 0xe
 3616 01c6 3A       		.uleb128 0x3a
 3617 01c7 0B       		.uleb128 0xb
 3618 01c8 3B       		.uleb128 0x3b
 3619 01c9 0B       		.uleb128 0xb
 3620 01ca 27       		.uleb128 0x27
 3621 01cb 19       		.uleb128 0x19
 3622 01cc 11       		.uleb128 0x11
 3623 01cd 01       		.uleb128 0x1
 3624 01ce 12       		.uleb128 0x12
 3625 01cf 06       		.uleb128 0x6
 3626 01d0 40       		.uleb128 0x40
 3627 01d1 18       		.uleb128 0x18
 3628 01d2 9742     		.uleb128 0x2117
 3629 01d4 19       		.uleb128 0x19
 3630 01d5 01       		.uleb128 0x1
 3631 01d6 13       		.uleb128 0x13
 3632 01d7 00       		.byte	0
 3633 01d8 00       		.byte	0
 3634 01d9 25       		.uleb128 0x25
 3635 01da 898201   		.uleb128 0x4109
 3636 01dd 00       		.byte	0
 3637 01de 11       		.uleb128 0x11
 3638 01df 01       		.uleb128 0x1
 3639 01e0 9542     		.uleb128 0x2115
 3640 01e2 19       		.uleb128 0x19
 3641 01e3 31       		.uleb128 0x31
 3642 01e4 13       		.uleb128 0x13
 3643 01e5 00       		.byte	0
 3644 01e6 00       		.byte	0
 3645 01e7 26       		.uleb128 0x26
 3646 01e8 05       		.uleb128 0x5
 3647 01e9 00       		.byte	0
 3648 01ea 03       		.uleb128 0x3
ARM GAS  /tmp/ccE9Uswy.s 			page 65


 3649 01eb 0E       		.uleb128 0xe
 3650 01ec 3A       		.uleb128 0x3a
 3651 01ed 0B       		.uleb128 0xb
 3652 01ee 3B       		.uleb128 0x3b
 3653 01ef 0B       		.uleb128 0xb
 3654 01f0 49       		.uleb128 0x49
 3655 01f1 13       		.uleb128 0x13
 3656 01f2 02       		.uleb128 0x2
 3657 01f3 17       		.uleb128 0x17
 3658 01f4 00       		.byte	0
 3659 01f5 00       		.byte	0
 3660 01f6 27       		.uleb128 0x27
 3661 01f7 1D       		.uleb128 0x1d
 3662 01f8 01       		.byte	0x1
 3663 01f9 31       		.uleb128 0x31
 3664 01fa 13       		.uleb128 0x13
 3665 01fb 11       		.uleb128 0x11
 3666 01fc 01       		.uleb128 0x1
 3667 01fd 12       		.uleb128 0x12
 3668 01fe 06       		.uleb128 0x6
 3669 01ff 58       		.uleb128 0x58
 3670 0200 0B       		.uleb128 0xb
 3671 0201 59       		.uleb128 0x59
 3672 0202 0B       		.uleb128 0xb
 3673 0203 00       		.byte	0
 3674 0204 00       		.byte	0
 3675 0205 28       		.uleb128 0x28
 3676 0206 05       		.uleb128 0x5
 3677 0207 00       		.byte	0
 3678 0208 31       		.uleb128 0x31
 3679 0209 13       		.uleb128 0x13
 3680 020a 02       		.uleb128 0x2
 3681 020b 17       		.uleb128 0x17
 3682 020c 00       		.byte	0
 3683 020d 00       		.byte	0
 3684 020e 29       		.uleb128 0x29
 3685 020f 898201   		.uleb128 0x4109
 3686 0212 01       		.byte	0x1
 3687 0213 11       		.uleb128 0x11
 3688 0214 01       		.uleb128 0x1
 3689 0215 9542     		.uleb128 0x2115
 3690 0217 19       		.uleb128 0x19
 3691 0218 31       		.uleb128 0x31
 3692 0219 13       		.uleb128 0x13
 3693 021a 00       		.byte	0
 3694 021b 00       		.byte	0
 3695 021c 2A       		.uleb128 0x2a
 3696 021d 8A8201   		.uleb128 0x410a
 3697 0220 00       		.byte	0
 3698 0221 02       		.uleb128 0x2
 3699 0222 18       		.uleb128 0x18
 3700 0223 9142     		.uleb128 0x2111
 3701 0225 18       		.uleb128 0x18
 3702 0226 00       		.byte	0
 3703 0227 00       		.byte	0
 3704 0228 2B       		.uleb128 0x2b
 3705 0229 34       		.uleb128 0x34
ARM GAS  /tmp/ccE9Uswy.s 			page 66


 3706 022a 00       		.byte	0
 3707 022b 03       		.uleb128 0x3
 3708 022c 0E       		.uleb128 0xe
 3709 022d 49       		.uleb128 0x49
 3710 022e 13       		.uleb128 0x13
 3711 022f 34       		.uleb128 0x34
 3712 0230 19       		.uleb128 0x19
 3713 0231 00       		.byte	0
 3714 0232 00       		.byte	0
 3715 0233 2C       		.uleb128 0x2c
 3716 0234 1D       		.uleb128 0x1d
 3717 0235 01       		.byte	0x1
 3718 0236 31       		.uleb128 0x31
 3719 0237 13       		.uleb128 0x13
 3720 0238 52       		.uleb128 0x52
 3721 0239 01       		.uleb128 0x1
 3722 023a 55       		.uleb128 0x55
 3723 023b 17       		.uleb128 0x17
 3724 023c 58       		.uleb128 0x58
 3725 023d 0B       		.uleb128 0xb
 3726 023e 59       		.uleb128 0x59
 3727 023f 0B       		.uleb128 0xb
 3728 0240 01       		.uleb128 0x1
 3729 0241 13       		.uleb128 0x13
 3730 0242 00       		.byte	0
 3731 0243 00       		.byte	0
 3732 0244 2D       		.uleb128 0x2d
 3733 0245 1D       		.uleb128 0x1d
 3734 0246 01       		.byte	0x1
 3735 0247 31       		.uleb128 0x31
 3736 0248 13       		.uleb128 0x13
 3737 0249 52       		.uleb128 0x52
 3738 024a 01       		.uleb128 0x1
 3739 024b 55       		.uleb128 0x55
 3740 024c 17       		.uleb128 0x17
 3741 024d 58       		.uleb128 0x58
 3742 024e 0B       		.uleb128 0xb
 3743 024f 59       		.uleb128 0x59
 3744 0250 05       		.uleb128 0x5
 3745 0251 00       		.byte	0
 3746 0252 00       		.byte	0
 3747 0253 2E       		.uleb128 0x2e
 3748 0254 1D       		.uleb128 0x1d
 3749 0255 01       		.byte	0x1
 3750 0256 31       		.uleb128 0x31
 3751 0257 13       		.uleb128 0x13
 3752 0258 11       		.uleb128 0x11
 3753 0259 01       		.uleb128 0x1
 3754 025a 12       		.uleb128 0x12
 3755 025b 06       		.uleb128 0x6
 3756 025c 58       		.uleb128 0x58
 3757 025d 0B       		.uleb128 0xb
 3758 025e 59       		.uleb128 0x59
 3759 025f 0B       		.uleb128 0xb
 3760 0260 01       		.uleb128 0x1
 3761 0261 13       		.uleb128 0x13
 3762 0262 00       		.byte	0
ARM GAS  /tmp/ccE9Uswy.s 			page 67


 3763 0263 00       		.byte	0
 3764 0264 2F       		.uleb128 0x2f
 3765 0265 1D       		.uleb128 0x1d
 3766 0266 01       		.byte	0x1
 3767 0267 31       		.uleb128 0x31
 3768 0268 13       		.uleb128 0x13
 3769 0269 11       		.uleb128 0x11
 3770 026a 01       		.uleb128 0x1
 3771 026b 12       		.uleb128 0x12
 3772 026c 06       		.uleb128 0x6
 3773 026d 58       		.uleb128 0x58
 3774 026e 0B       		.uleb128 0xb
 3775 026f 59       		.uleb128 0x59
 3776 0270 05       		.uleb128 0x5
 3777 0271 00       		.byte	0
 3778 0272 00       		.byte	0
 3779 0273 30       		.uleb128 0x30
 3780 0274 0B       		.uleb128 0xb
 3781 0275 01       		.byte	0x1
 3782 0276 11       		.uleb128 0x11
 3783 0277 01       		.uleb128 0x1
 3784 0278 12       		.uleb128 0x12
 3785 0279 06       		.uleb128 0x6
 3786 027a 00       		.byte	0
 3787 027b 00       		.byte	0
 3788 027c 31       		.uleb128 0x31
 3789 027d 34       		.uleb128 0x34
 3790 027e 00       		.byte	0
 3791 027f 31       		.uleb128 0x31
 3792 0280 13       		.uleb128 0x13
 3793 0281 00       		.byte	0
 3794 0282 00       		.byte	0
 3795 0283 32       		.uleb128 0x32
 3796 0284 898201   		.uleb128 0x4109
 3797 0287 01       		.byte	0x1
 3798 0288 11       		.uleb128 0x11
 3799 0289 01       		.uleb128 0x1
 3800 028a 31       		.uleb128 0x31
 3801 028b 13       		.uleb128 0x13
 3802 028c 00       		.byte	0
 3803 028d 00       		.byte	0
 3804 028e 33       		.uleb128 0x33
 3805 028f 2E       		.uleb128 0x2e
 3806 0290 01       		.byte	0x1
 3807 0291 31       		.uleb128 0x31
 3808 0292 13       		.uleb128 0x13
 3809 0293 11       		.uleb128 0x11
 3810 0294 01       		.uleb128 0x1
 3811 0295 12       		.uleb128 0x12
 3812 0296 06       		.uleb128 0x6
 3813 0297 40       		.uleb128 0x40
 3814 0298 18       		.uleb128 0x18
 3815 0299 9742     		.uleb128 0x2117
 3816 029b 19       		.uleb128 0x19
 3817 029c 01       		.uleb128 0x1
 3818 029d 13       		.uleb128 0x13
 3819 029e 00       		.byte	0
ARM GAS  /tmp/ccE9Uswy.s 			page 68


 3820 029f 00       		.byte	0
 3821 02a0 34       		.uleb128 0x34
 3822 02a1 2E       		.uleb128 0x2e
 3823 02a2 01       		.byte	0x1
 3824 02a3 3F       		.uleb128 0x3f
 3825 02a4 19       		.uleb128 0x19
 3826 02a5 03       		.uleb128 0x3
 3827 02a6 0E       		.uleb128 0xe
 3828 02a7 3A       		.uleb128 0x3a
 3829 02a8 0B       		.uleb128 0xb
 3830 02a9 3B       		.uleb128 0x3b
 3831 02aa 05       		.uleb128 0x5
 3832 02ab 27       		.uleb128 0x27
 3833 02ac 19       		.uleb128 0x19
 3834 02ad 49       		.uleb128 0x49
 3835 02ae 13       		.uleb128 0x13
 3836 02af 11       		.uleb128 0x11
 3837 02b0 01       		.uleb128 0x1
 3838 02b1 12       		.uleb128 0x12
 3839 02b2 06       		.uleb128 0x6
 3840 02b3 40       		.uleb128 0x40
 3841 02b4 18       		.uleb128 0x18
 3842 02b5 9742     		.uleb128 0x2117
 3843 02b7 19       		.uleb128 0x19
 3844 02b8 01       		.uleb128 0x1
 3845 02b9 13       		.uleb128 0x13
 3846 02ba 00       		.byte	0
 3847 02bb 00       		.byte	0
 3848 02bc 35       		.uleb128 0x35
 3849 02bd 05       		.uleb128 0x5
 3850 02be 00       		.byte	0
 3851 02bf 03       		.uleb128 0x3
 3852 02c0 0E       		.uleb128 0xe
 3853 02c1 3A       		.uleb128 0x3a
 3854 02c2 0B       		.uleb128 0xb
 3855 02c3 3B       		.uleb128 0x3b
 3856 02c4 05       		.uleb128 0x5
 3857 02c5 49       		.uleb128 0x49
 3858 02c6 13       		.uleb128 0x13
 3859 02c7 02       		.uleb128 0x2
 3860 02c8 17       		.uleb128 0x17
 3861 02c9 00       		.byte	0
 3862 02ca 00       		.byte	0
 3863 02cb 36       		.uleb128 0x36
 3864 02cc 34       		.uleb128 0x34
 3865 02cd 00       		.byte	0
 3866 02ce 03       		.uleb128 0x3
 3867 02cf 08       		.uleb128 0x8
 3868 02d0 3A       		.uleb128 0x3a
 3869 02d1 0B       		.uleb128 0xb
 3870 02d2 3B       		.uleb128 0x3b
 3871 02d3 05       		.uleb128 0x5
 3872 02d4 49       		.uleb128 0x49
 3873 02d5 13       		.uleb128 0x13
 3874 02d6 00       		.byte	0
 3875 02d7 00       		.byte	0
 3876 02d8 37       		.uleb128 0x37
ARM GAS  /tmp/ccE9Uswy.s 			page 69


 3877 02d9 1D       		.uleb128 0x1d
 3878 02da 01       		.byte	0x1
 3879 02db 31       		.uleb128 0x31
 3880 02dc 13       		.uleb128 0x13
 3881 02dd 11       		.uleb128 0x11
 3882 02de 01       		.uleb128 0x1
 3883 02df 12       		.uleb128 0x12
 3884 02e0 06       		.uleb128 0x6
 3885 02e1 58       		.uleb128 0x58
 3886 02e2 0B       		.uleb128 0xb
 3887 02e3 59       		.uleb128 0x59
 3888 02e4 05       		.uleb128 0x5
 3889 02e5 01       		.uleb128 0x1
 3890 02e6 13       		.uleb128 0x13
 3891 02e7 00       		.byte	0
 3892 02e8 00       		.byte	0
 3893 02e9 38       		.uleb128 0x38
 3894 02ea 2E       		.uleb128 0x2e
 3895 02eb 01       		.byte	0x1
 3896 02ec 3F       		.uleb128 0x3f
 3897 02ed 19       		.uleb128 0x19
 3898 02ee 03       		.uleb128 0x3
 3899 02ef 0E       		.uleb128 0xe
 3900 02f0 3A       		.uleb128 0x3a
 3901 02f1 0B       		.uleb128 0xb
 3902 02f2 3B       		.uleb128 0x3b
 3903 02f3 05       		.uleb128 0x5
 3904 02f4 27       		.uleb128 0x27
 3905 02f5 19       		.uleb128 0x19
 3906 02f6 11       		.uleb128 0x11
 3907 02f7 01       		.uleb128 0x1
 3908 02f8 12       		.uleb128 0x12
 3909 02f9 06       		.uleb128 0x6
 3910 02fa 40       		.uleb128 0x40
 3911 02fb 18       		.uleb128 0x18
 3912 02fc 9742     		.uleb128 0x2117
 3913 02fe 19       		.uleb128 0x19
 3914 02ff 01       		.uleb128 0x1
 3915 0300 13       		.uleb128 0x13
 3916 0301 00       		.byte	0
 3917 0302 00       		.byte	0
 3918 0303 39       		.uleb128 0x39
 3919 0304 34       		.uleb128 0x34
 3920 0305 00       		.byte	0
 3921 0306 03       		.uleb128 0x3
 3922 0307 0E       		.uleb128 0xe
 3923 0308 3A       		.uleb128 0x3a
 3924 0309 0B       		.uleb128 0xb
 3925 030a 3B       		.uleb128 0x3b
 3926 030b 05       		.uleb128 0x5
 3927 030c 49       		.uleb128 0x49
 3928 030d 13       		.uleb128 0x13
 3929 030e 3F       		.uleb128 0x3f
 3930 030f 19       		.uleb128 0x19
 3931 0310 3C       		.uleb128 0x3c
 3932 0311 19       		.uleb128 0x19
 3933 0312 00       		.byte	0
ARM GAS  /tmp/ccE9Uswy.s 			page 70


 3934 0313 00       		.byte	0
 3935 0314 3A       		.uleb128 0x3a
 3936 0315 34       		.uleb128 0x34
 3937 0316 00       		.byte	0
 3938 0317 03       		.uleb128 0x3
 3939 0318 08       		.uleb128 0x8
 3940 0319 3A       		.uleb128 0x3a
 3941 031a 0B       		.uleb128 0xb
 3942 031b 3B       		.uleb128 0x3b
 3943 031c 05       		.uleb128 0x5
 3944 031d 49       		.uleb128 0x49
 3945 031e 13       		.uleb128 0x13
 3946 031f 3F       		.uleb128 0x3f
 3947 0320 19       		.uleb128 0x19
 3948 0321 3C       		.uleb128 0x3c
 3949 0322 19       		.uleb128 0x19
 3950 0323 00       		.byte	0
 3951 0324 00       		.byte	0
 3952 0325 3B       		.uleb128 0x3b
 3953 0326 2E       		.uleb128 0x2e
 3954 0327 00       		.byte	0
 3955 0328 3F       		.uleb128 0x3f
 3956 0329 19       		.uleb128 0x19
 3957 032a 3C       		.uleb128 0x3c
 3958 032b 19       		.uleb128 0x19
 3959 032c 6E       		.uleb128 0x6e
 3960 032d 0E       		.uleb128 0xe
 3961 032e 03       		.uleb128 0x3
 3962 032f 0E       		.uleb128 0xe
 3963 0330 3A       		.uleb128 0x3a
 3964 0331 0B       		.uleb128 0xb
 3965 0332 3B       		.uleb128 0x3b
 3966 0333 05       		.uleb128 0x5
 3967 0334 00       		.byte	0
 3968 0335 00       		.byte	0
 3969 0336 3C       		.uleb128 0x3c
 3970 0337 2E       		.uleb128 0x2e
 3971 0338 00       		.byte	0
 3972 0339 3F       		.uleb128 0x3f
 3973 033a 19       		.uleb128 0x19
 3974 033b 3C       		.uleb128 0x3c
 3975 033c 19       		.uleb128 0x19
 3976 033d 6E       		.uleb128 0x6e
 3977 033e 0E       		.uleb128 0xe
 3978 033f 03       		.uleb128 0x3
 3979 0340 0E       		.uleb128 0xe
 3980 0341 3A       		.uleb128 0x3a
 3981 0342 0B       		.uleb128 0xb
 3982 0343 3B       		.uleb128 0x3b
 3983 0344 0B       		.uleb128 0xb
 3984 0345 00       		.byte	0
 3985 0346 00       		.byte	0
 3986 0347 00       		.byte	0
 3987              		.section	.debug_loc,"",%progbits
 3988              	.Ldebug_loc0:
 3989              	.LLST0:
 3990 0000 00000000 		.4byte	.LVL1
ARM GAS  /tmp/ccE9Uswy.s 			page 71


 3991 0004 12000000 		.4byte	.LVL3
 3992 0008 0100     		.2byte	0x1
 3993 000a 50       		.byte	0x50
 3994 000b 12000000 		.4byte	.LVL3
 3995 000f 15000000 		.4byte	.LVL4-1
 3996 0013 0300     		.2byte	0x3
 3997 0015 70       		.byte	0x70
 3998 0016 68       		.sleb128 -24
 3999 0017 9F       		.byte	0x9f
 4000 0018 15000000 		.4byte	.LVL4-1
 4001 001c 16000000 		.4byte	.LFE259
 4002 0020 0400     		.2byte	0x4
 4003 0022 F3       		.byte	0xf3
 4004 0023 01       		.uleb128 0x1
 4005 0024 50       		.byte	0x50
 4006 0025 9F       		.byte	0x9f
 4007 0026 00000000 		.4byte	0
 4008 002a 00000000 		.4byte	0
 4009              	.LLST1:
 4010 002e 10000000 		.4byte	.LVL2
 4011 0032 12000000 		.4byte	.LVL3
 4012 0036 0300     		.2byte	0x3
 4013 0038 70       		.byte	0x70
 4014 0039 18       		.sleb128 24
 4015 003a 9F       		.byte	0x9f
 4016 003b 12000000 		.4byte	.LVL3
 4017 003f 15000000 		.4byte	.LVL4-1
 4018 0043 0100     		.2byte	0x1
 4019 0045 50       		.byte	0x50
 4020 0046 15000000 		.4byte	.LVL4-1
 4021 004a 16000000 		.4byte	.LFE259
 4022 004e 0600     		.2byte	0x6
 4023 0050 F3       		.byte	0xf3
 4024 0051 01       		.uleb128 0x1
 4025 0052 50       		.byte	0x50
 4026 0053 23       		.byte	0x23
 4027 0054 18       		.uleb128 0x18
 4028 0055 9F       		.byte	0x9f
 4029 0056 00000000 		.4byte	0
 4030 005a 00000000 		.4byte	0
 4031              	.LLST2:
 4032 005e 00000000 		.4byte	.LVL5
 4033 0062 0F000000 		.4byte	.LVL7-1
 4034 0066 0100     		.2byte	0x1
 4035 0068 50       		.byte	0x50
 4036 0069 0F000000 		.4byte	.LVL7-1
 4037 006d 1C000000 		.4byte	.LFE260
 4038 0071 0100     		.2byte	0x1
 4039 0073 54       		.byte	0x54
 4040 0074 00000000 		.4byte	0
 4041 0078 00000000 		.4byte	0
 4042              	.LLST3:
 4043 007c 00000000 		.4byte	.LVL5
 4044 0080 0F000000 		.4byte	.LVL7-1
 4045 0084 0100     		.2byte	0x1
 4046 0086 51       		.byte	0x51
 4047 0087 0F000000 		.4byte	.LVL7-1
ARM GAS  /tmp/ccE9Uswy.s 			page 72


 4048 008b 1C000000 		.4byte	.LFE260
 4049 008f 0400     		.2byte	0x4
 4050 0091 F3       		.byte	0xf3
 4051 0092 01       		.uleb128 0x1
 4052 0093 51       		.byte	0x51
 4053 0094 9F       		.byte	0x9f
 4054 0095 00000000 		.4byte	0
 4055 0099 00000000 		.4byte	0
 4056              	.LLST4:
 4057 009d 00000000 		.4byte	.LVL5
 4058 00a1 0A000000 		.4byte	.LVL6
 4059 00a5 0300     		.2byte	0x3
 4060 00a7 08       		.byte	0x8
 4061 00a8 20       		.byte	0x20
 4062 00a9 9F       		.byte	0x9f
 4063 00aa 00000000 		.4byte	0
 4064 00ae 00000000 		.4byte	0
 4065              	.LLST5:
 4066 00b2 14000000 		.4byte	.LVL8
 4067 00b6 1A000000 		.4byte	.LVL9
 4068 00ba 0200     		.2byte	0x2
 4069 00bc 30       		.byte	0x30
 4070 00bd 9F       		.byte	0x9f
 4071 00be 00000000 		.4byte	0
 4072 00c2 00000000 		.4byte	0
 4073              	.LLST6:
 4074 00c6 00000000 		.4byte	.LVL10
 4075 00ca 0D000000 		.4byte	.LVL12-1
 4076 00ce 0100     		.2byte	0x1
 4077 00d0 50       		.byte	0x50
 4078 00d1 0D000000 		.4byte	.LVL12-1
 4079 00d5 1A000000 		.4byte	.LFE261
 4080 00d9 0100     		.2byte	0x1
 4081 00db 54       		.byte	0x54
 4082 00dc 00000000 		.4byte	0
 4083 00e0 00000000 		.4byte	0
 4084              	.LLST7:
 4085 00e4 00000000 		.4byte	.LVL10
 4086 00e8 0A000000 		.4byte	.LVL11
 4087 00ec 0300     		.2byte	0x3
 4088 00ee 08       		.byte	0x8
 4089 00ef 20       		.byte	0x20
 4090 00f0 9F       		.byte	0x9f
 4091 00f1 00000000 		.4byte	0
 4092 00f5 00000000 		.4byte	0
 4093              	.LLST8:
 4094 00f9 12000000 		.4byte	.LVL13
 4095 00fd 18000000 		.4byte	.LVL14
 4096 0101 0200     		.2byte	0x2
 4097 0103 30       		.byte	0x30
 4098 0104 9F       		.byte	0x9f
 4099 0105 00000000 		.4byte	0
 4100 0109 00000000 		.4byte	0
 4101              	.LLST9:
 4102 010d 00000000 		.4byte	.LVL15
 4103 0111 15000000 		.4byte	.LVL17-1
 4104 0115 0100     		.2byte	0x1
ARM GAS  /tmp/ccE9Uswy.s 			page 73


 4105 0117 50       		.byte	0x50
 4106 0118 15000000 		.4byte	.LVL17-1
 4107 011c 1E000000 		.4byte	.LFE262
 4108 0120 0400     		.2byte	0x4
 4109 0122 F3       		.byte	0xf3
 4110 0123 01       		.uleb128 0x1
 4111 0124 50       		.byte	0x50
 4112 0125 9F       		.byte	0x9f
 4113 0126 00000000 		.4byte	0
 4114 012a 00000000 		.4byte	0
 4115              	.LLST10:
 4116 012e 00000000 		.4byte	.LVL15
 4117 0132 15000000 		.4byte	.LVL17-1
 4118 0136 0100     		.2byte	0x1
 4119 0138 51       		.byte	0x51
 4120 0139 15000000 		.4byte	.LVL17-1
 4121 013d 1E000000 		.4byte	.LFE262
 4122 0141 0400     		.2byte	0x4
 4123 0143 F3       		.byte	0xf3
 4124 0144 01       		.uleb128 0x1
 4125 0145 51       		.byte	0x51
 4126 0146 9F       		.byte	0x9f
 4127 0147 00000000 		.4byte	0
 4128 014b 00000000 		.4byte	0
 4129              	.LLST11:
 4130 014f 00000000 		.4byte	.LVL15
 4131 0153 15000000 		.4byte	.LVL17-1
 4132 0157 0100     		.2byte	0x1
 4133 0159 52       		.byte	0x52
 4134 015a 15000000 		.4byte	.LVL17-1
 4135 015e 1E000000 		.4byte	.LFE262
 4136 0162 0400     		.2byte	0x4
 4137 0164 F3       		.byte	0xf3
 4138 0165 01       		.uleb128 0x1
 4139 0166 52       		.byte	0x52
 4140 0167 9F       		.byte	0x9f
 4141 0168 00000000 		.4byte	0
 4142 016c 00000000 		.4byte	0
 4143              	.LLST12:
 4144 0170 00000000 		.4byte	.LVL15
 4145 0174 15000000 		.4byte	.LVL17-1
 4146 0178 0100     		.2byte	0x1
 4147 017a 53       		.byte	0x53
 4148 017b 15000000 		.4byte	.LVL17-1
 4149 017f 1E000000 		.4byte	.LFE262
 4150 0183 0400     		.2byte	0x4
 4151 0185 F3       		.byte	0xf3
 4152 0186 01       		.uleb128 0x1
 4153 0187 53       		.byte	0x53
 4154 0188 9F       		.byte	0x9f
 4155 0189 00000000 		.4byte	0
 4156 018d 00000000 		.4byte	0
 4157              	.LLST13:
 4158 0191 00000000 		.4byte	.LVL15
 4159 0195 08000000 		.4byte	.LVL16
 4160 0199 0300     		.2byte	0x3
 4161 019b 08       		.byte	0x8
ARM GAS  /tmp/ccE9Uswy.s 			page 74


 4162 019c 20       		.byte	0x20
 4163 019d 9F       		.byte	0x9f
 4164 019e 00000000 		.4byte	0
 4165 01a2 00000000 		.4byte	0
 4166              	.LLST14:
 4167 01a6 08000000 		.4byte	.LVL16
 4168 01aa 15000000 		.4byte	.LVL17-1
 4169 01ae 0100     		.2byte	0x1
 4170 01b0 53       		.byte	0x53
 4171 01b1 15000000 		.4byte	.LVL17-1
 4172 01b5 16000000 		.4byte	.LVL17
 4173 01b9 0400     		.2byte	0x4
 4174 01bb F3       		.byte	0xf3
 4175 01bc 01       		.uleb128 0x1
 4176 01bd 53       		.byte	0x53
 4177 01be 9F       		.byte	0x9f
 4178 01bf 00000000 		.4byte	0
 4179 01c3 00000000 		.4byte	0
 4180              	.LLST15:
 4181 01c7 08000000 		.4byte	.LVL16
 4182 01cb 15000000 		.4byte	.LVL17-1
 4183 01cf 0100     		.2byte	0x1
 4184 01d1 52       		.byte	0x52
 4185 01d2 15000000 		.4byte	.LVL17-1
 4186 01d6 16000000 		.4byte	.LVL17
 4187 01da 0400     		.2byte	0x4
 4188 01dc F3       		.byte	0xf3
 4189 01dd 01       		.uleb128 0x1
 4190 01de 52       		.byte	0x52
 4191 01df 9F       		.byte	0x9f
 4192 01e0 00000000 		.4byte	0
 4193 01e4 00000000 		.4byte	0
 4194              	.LLST16:
 4195 01e8 08000000 		.4byte	.LVL16
 4196 01ec 15000000 		.4byte	.LVL17-1
 4197 01f0 0100     		.2byte	0x1
 4198 01f2 51       		.byte	0x51
 4199 01f3 15000000 		.4byte	.LVL17-1
 4200 01f7 16000000 		.4byte	.LVL17
 4201 01fb 0400     		.2byte	0x4
 4202 01fd F3       		.byte	0xf3
 4203 01fe 01       		.uleb128 0x1
 4204 01ff 51       		.byte	0x51
 4205 0200 9F       		.byte	0x9f
 4206 0201 00000000 		.4byte	0
 4207 0205 00000000 		.4byte	0
 4208              	.LLST17:
 4209 0209 08000000 		.4byte	.LVL16
 4210 020d 15000000 		.4byte	.LVL17-1
 4211 0211 0100     		.2byte	0x1
 4212 0213 50       		.byte	0x50
 4213 0214 15000000 		.4byte	.LVL17-1
 4214 0218 16000000 		.4byte	.LVL17
 4215 021c 0400     		.2byte	0x4
 4216 021e F3       		.byte	0xf3
 4217 021f 01       		.uleb128 0x1
 4218 0220 50       		.byte	0x50
ARM GAS  /tmp/ccE9Uswy.s 			page 75


 4219 0221 9F       		.byte	0x9f
 4220 0222 00000000 		.4byte	0
 4221 0226 00000000 		.4byte	0
 4222              	.LLST18:
 4223 022a 16000000 		.4byte	.LVL17
 4224 022e 1C000000 		.4byte	.LVL18
 4225 0232 0200     		.2byte	0x2
 4226 0234 30       		.byte	0x30
 4227 0235 9F       		.byte	0x9f
 4228 0236 00000000 		.4byte	0
 4229 023a 00000000 		.4byte	0
 4230              	.LLST19:
 4231 023e 00000000 		.4byte	.LVL19
 4232 0242 11000000 		.4byte	.LVL20-1
 4233 0246 0100     		.2byte	0x1
 4234 0248 50       		.byte	0x50
 4235 0249 11000000 		.4byte	.LVL20-1
 4236 024d 12000000 		.4byte	.LFE263
 4237 0251 0400     		.2byte	0x4
 4238 0253 F3       		.byte	0xf3
 4239 0254 01       		.uleb128 0x1
 4240 0255 50       		.byte	0x50
 4241 0256 9F       		.byte	0x9f
 4242 0257 00000000 		.4byte	0
 4243 025b 00000000 		.4byte	0
 4244              	.LLST20:
 4245 025f 00000000 		.4byte	.LVL19
 4246 0263 11000000 		.4byte	.LVL20-1
 4247 0267 0100     		.2byte	0x1
 4248 0269 51       		.byte	0x51
 4249 026a 11000000 		.4byte	.LVL20-1
 4250 026e 12000000 		.4byte	.LFE263
 4251 0272 0400     		.2byte	0x4
 4252 0274 F3       		.byte	0xf3
 4253 0275 01       		.uleb128 0x1
 4254 0276 51       		.byte	0x51
 4255 0277 9F       		.byte	0x9f
 4256 0278 00000000 		.4byte	0
 4257 027c 00000000 		.4byte	0
 4258              	.LLST21:
 4259 0280 00000000 		.4byte	.LVL19
 4260 0284 11000000 		.4byte	.LVL20-1
 4261 0288 0100     		.2byte	0x1
 4262 028a 52       		.byte	0x52
 4263 028b 11000000 		.4byte	.LVL20-1
 4264 028f 12000000 		.4byte	.LFE263
 4265 0293 0400     		.2byte	0x4
 4266 0295 F3       		.byte	0xf3
 4267 0296 01       		.uleb128 0x1
 4268 0297 52       		.byte	0x52
 4269 0298 9F       		.byte	0x9f
 4270 0299 00000000 		.4byte	0
 4271 029d 00000000 		.4byte	0
 4272              	.LLST22:
 4273 02a1 00000000 		.4byte	.LVL19
 4274 02a5 11000000 		.4byte	.LVL20-1
 4275 02a9 0100     		.2byte	0x1
ARM GAS  /tmp/ccE9Uswy.s 			page 76


 4276 02ab 53       		.byte	0x53
 4277 02ac 11000000 		.4byte	.LVL20-1
 4278 02b0 12000000 		.4byte	.LFE263
 4279 02b4 0400     		.2byte	0x4
 4280 02b6 F3       		.byte	0xf3
 4281 02b7 01       		.uleb128 0x1
 4282 02b8 53       		.byte	0x53
 4283 02b9 9F       		.byte	0x9f
 4284 02ba 00000000 		.4byte	0
 4285 02be 00000000 		.4byte	0
 4286              	.LLST23:
 4287 02c2 00000000 		.4byte	.LVL21
 4288 02c6 13000000 		.4byte	.LVL23-1
 4289 02ca 0100     		.2byte	0x1
 4290 02cc 50       		.byte	0x50
 4291 02cd 13000000 		.4byte	.LVL23-1
 4292 02d1 30000000 		.4byte	.LVL27
 4293 02d5 0100     		.2byte	0x1
 4294 02d7 54       		.byte	0x54
 4295 02d8 30000000 		.4byte	.LVL27
 4296 02dc 38000000 		.4byte	.LFE264
 4297 02e0 0100     		.2byte	0x1
 4298 02e2 50       		.byte	0x50
 4299 02e3 00000000 		.4byte	0
 4300 02e7 00000000 		.4byte	0
 4301              	.LLST24:
 4302 02eb 00000000 		.4byte	.LVL21
 4303 02ef 06000000 		.4byte	.LVL22
 4304 02f3 0300     		.2byte	0x3
 4305 02f5 08       		.byte	0x8
 4306 02f6 20       		.byte	0x20
 4307 02f7 9F       		.byte	0x9f
 4308 02f8 00000000 		.4byte	0
 4309 02fc 00000000 		.4byte	0
 4310              	.LLST25:
 4311 0300 24000000 		.4byte	.LVL24
 4312 0304 30000000 		.4byte	.LVL27
 4313 0308 0300     		.2byte	0x3
 4314 030a 09       		.byte	0x9
 4315 030b FE       		.byte	0xfe
 4316 030c 9F       		.byte	0x9f
 4317 030d 00000000 		.4byte	0
 4318 0311 00000000 		.4byte	0
 4319              	.LLST26:
 4320 0315 24000000 		.4byte	.LVL24
 4321 0319 30000000 		.4byte	.LVL27
 4322 031d 0300     		.2byte	0x3
 4323 031f 74       		.byte	0x74
 4324 0320 14       		.sleb128 20
 4325 0321 9F       		.byte	0x9f
 4326 0322 00000000 		.4byte	0
 4327 0326 00000000 		.4byte	0
 4328              	.LLST27:
 4329 032a 28000000 		.4byte	.LVL25
 4330 032e 2E000000 		.4byte	.LVL26
 4331 0332 0200     		.2byte	0x2
 4332 0334 30       		.byte	0x30
ARM GAS  /tmp/ccE9Uswy.s 			page 77


 4333 0335 9F       		.byte	0x9f
 4334 0336 30000000 		.4byte	.LVL27
 4335 033a 36000000 		.4byte	.LVL28
 4336 033e 0200     		.2byte	0x2
 4337 0340 30       		.byte	0x30
 4338 0341 9F       		.byte	0x9f
 4339 0342 00000000 		.4byte	0
 4340 0346 00000000 		.4byte	0
 4341              	.LLST28:
 4342 034a 00000000 		.4byte	.LVL29
 4343 034e 0D000000 		.4byte	.LVL30-1
 4344 0352 0100     		.2byte	0x1
 4345 0354 50       		.byte	0x50
 4346 0355 0D000000 		.4byte	.LVL30-1
 4347 0359 22000000 		.4byte	.LVL32
 4348 035d 0100     		.2byte	0x1
 4349 035f 54       		.byte	0x54
 4350 0360 22000000 		.4byte	.LVL32
 4351 0364 25000000 		.4byte	.LVL33-1
 4352 0368 0300     		.2byte	0x3
 4353 036a 70       		.byte	0x70
 4354 036b 6C       		.sleb128 -20
 4355 036c 9F       		.byte	0x9f
 4356 036d 25000000 		.4byte	.LVL33-1
 4357 0371 26000000 		.4byte	.LVL33
 4358 0375 0400     		.2byte	0x4
 4359 0377 F3       		.byte	0xf3
 4360 0378 01       		.uleb128 0x1
 4361 0379 50       		.byte	0x50
 4362 037a 9F       		.byte	0x9f
 4363 037b 26000000 		.4byte	.LVL33
 4364 037f 28000000 		.4byte	.LFE265
 4365 0383 0100     		.2byte	0x1
 4366 0385 50       		.byte	0x50
 4367 0386 00000000 		.4byte	0
 4368 038a 00000000 		.4byte	0
 4369              	.LLST29:
 4370 038e 1E000000 		.4byte	.LVL31
 4371 0392 26000000 		.4byte	.LVL33
 4372 0396 0300     		.2byte	0x3
 4373 0398 09       		.byte	0x9
 4374 0399 FE       		.byte	0xfe
 4375 039a 9F       		.byte	0x9f
 4376 039b 00000000 		.4byte	0
 4377 039f 00000000 		.4byte	0
 4378              	.LLST30:
 4379 03a3 1E000000 		.4byte	.LVL31
 4380 03a7 22000000 		.4byte	.LVL32
 4381 03ab 0300     		.2byte	0x3
 4382 03ad 74       		.byte	0x74
 4383 03ae 14       		.sleb128 20
 4384 03af 9F       		.byte	0x9f
 4385 03b0 22000000 		.4byte	.LVL32
 4386 03b4 25000000 		.4byte	.LVL33-1
 4387 03b8 0100     		.2byte	0x1
 4388 03ba 50       		.byte	0x50
 4389 03bb 25000000 		.4byte	.LVL33-1
ARM GAS  /tmp/ccE9Uswy.s 			page 78


 4390 03bf 26000000 		.4byte	.LVL33
 4391 03c3 0600     		.2byte	0x6
 4392 03c5 F3       		.byte	0xf3
 4393 03c6 01       		.uleb128 0x1
 4394 03c7 50       		.byte	0x50
 4395 03c8 23       		.byte	0x23
 4396 03c9 14       		.uleb128 0x14
 4397 03ca 9F       		.byte	0x9f
 4398 03cb 00000000 		.4byte	0
 4399 03cf 00000000 		.4byte	0
 4400              	.LLST31:
 4401 03d3 00000000 		.4byte	.LVL34
 4402 03d7 19000000 		.4byte	.LVL36-1
 4403 03db 0100     		.2byte	0x1
 4404 03dd 50       		.byte	0x50
 4405 03de 19000000 		.4byte	.LVL36-1
 4406 03e2 28000000 		.4byte	.LFE266
 4407 03e6 0300     		.2byte	0x3
 4408 03e8 75       		.byte	0x75
 4409 03e9 6C       		.sleb128 -20
 4410 03ea 9F       		.byte	0x9f
 4411 03eb 00000000 		.4byte	0
 4412 03ef 00000000 		.4byte	0
 4413              	.LLST32:
 4414 03f3 00000000 		.4byte	.LVL34
 4415 03f7 19000000 		.4byte	.LVL36-1
 4416 03fb 0100     		.2byte	0x1
 4417 03fd 51       		.byte	0x51
 4418 03fe 19000000 		.4byte	.LVL36-1
 4419 0402 28000000 		.4byte	.LFE266
 4420 0406 0400     		.2byte	0x4
 4421 0408 F3       		.byte	0xf3
 4422 0409 01       		.uleb128 0x1
 4423 040a 51       		.byte	0x51
 4424 040b 9F       		.byte	0x9f
 4425 040c 00000000 		.4byte	0
 4426 0410 00000000 		.4byte	0
 4427              	.LLST33:
 4428 0414 00000000 		.4byte	.LVL34
 4429 0418 19000000 		.4byte	.LVL36-1
 4430 041c 0100     		.2byte	0x1
 4431 041e 52       		.byte	0x52
 4432 041f 19000000 		.4byte	.LVL36-1
 4433 0423 28000000 		.4byte	.LFE266
 4434 0427 0400     		.2byte	0x4
 4435 0429 F3       		.byte	0xf3
 4436 042a 01       		.uleb128 0x1
 4437 042b 52       		.byte	0x52
 4438 042c 9F       		.byte	0x9f
 4439 042d 00000000 		.4byte	0
 4440 0431 00000000 		.4byte	0
 4441              	.LLST34:
 4442 0435 00000000 		.4byte	.LVL34
 4443 0439 19000000 		.4byte	.LVL36-1
 4444 043d 0100     		.2byte	0x1
 4445 043f 53       		.byte	0x53
 4446 0440 19000000 		.4byte	.LVL36-1
ARM GAS  /tmp/ccE9Uswy.s 			page 79


 4447 0444 28000000 		.4byte	.LFE266
 4448 0448 0400     		.2byte	0x4
 4449 044a F3       		.byte	0xf3
 4450 044b 01       		.uleb128 0x1
 4451 044c 53       		.byte	0x53
 4452 044d 9F       		.byte	0x9f
 4453 044e 00000000 		.4byte	0
 4454 0452 00000000 		.4byte	0
 4455              	.LLST35:
 4456 0456 00000000 		.4byte	.LVL34
 4457 045a 08000000 		.4byte	.LVL35
 4458 045e 0300     		.2byte	0x3
 4459 0460 08       		.byte	0x8
 4460 0461 20       		.byte	0x20
 4461 0462 9F       		.byte	0x9f
 4462 0463 00000000 		.4byte	0
 4463 0467 00000000 		.4byte	0
 4464              	.LLST36:
 4465 046b 08000000 		.4byte	.LVL35
 4466 046f 19000000 		.4byte	.LVL36-1
 4467 0473 0100     		.2byte	0x1
 4468 0475 53       		.byte	0x53
 4469 0476 19000000 		.4byte	.LVL36-1
 4470 047a 1A000000 		.4byte	.LVL36
 4471 047e 0400     		.2byte	0x4
 4472 0480 F3       		.byte	0xf3
 4473 0481 01       		.uleb128 0x1
 4474 0482 53       		.byte	0x53
 4475 0483 9F       		.byte	0x9f
 4476 0484 00000000 		.4byte	0
 4477 0488 00000000 		.4byte	0
 4478              	.LLST37:
 4479 048c 08000000 		.4byte	.LVL35
 4480 0490 19000000 		.4byte	.LVL36-1
 4481 0494 0100     		.2byte	0x1
 4482 0496 52       		.byte	0x52
 4483 0497 19000000 		.4byte	.LVL36-1
 4484 049b 1A000000 		.4byte	.LVL36
 4485 049f 0400     		.2byte	0x4
 4486 04a1 F3       		.byte	0xf3
 4487 04a2 01       		.uleb128 0x1
 4488 04a3 52       		.byte	0x52
 4489 04a4 9F       		.byte	0x9f
 4490 04a5 00000000 		.4byte	0
 4491 04a9 00000000 		.4byte	0
 4492              	.LLST38:
 4493 04ad 08000000 		.4byte	.LVL35
 4494 04b1 19000000 		.4byte	.LVL36-1
 4495 04b5 0100     		.2byte	0x1
 4496 04b7 51       		.byte	0x51
 4497 04b8 19000000 		.4byte	.LVL36-1
 4498 04bc 1A000000 		.4byte	.LVL36
 4499 04c0 0400     		.2byte	0x4
 4500 04c2 F3       		.byte	0xf3
 4501 04c3 01       		.uleb128 0x1
 4502 04c4 51       		.byte	0x51
 4503 04c5 9F       		.byte	0x9f
ARM GAS  /tmp/ccE9Uswy.s 			page 80


 4504 04c6 00000000 		.4byte	0
 4505 04ca 00000000 		.4byte	0
 4506              	.LLST39:
 4507 04ce 08000000 		.4byte	.LVL35
 4508 04d2 19000000 		.4byte	.LVL36-1
 4509 04d6 0100     		.2byte	0x1
 4510 04d8 50       		.byte	0x50
 4511 04d9 19000000 		.4byte	.LVL36-1
 4512 04dd 1A000000 		.4byte	.LVL36
 4513 04e1 0300     		.2byte	0x3
 4514 04e3 75       		.byte	0x75
 4515 04e4 6C       		.sleb128 -20
 4516 04e5 9F       		.byte	0x9f
 4517 04e6 00000000 		.4byte	0
 4518 04ea 00000000 		.4byte	0
 4519              	.LLST40:
 4520 04ee 1A000000 		.4byte	.LVL36
 4521 04f2 20000000 		.4byte	.LVL37
 4522 04f6 0100     		.2byte	0x1
 4523 04f8 55       		.byte	0x55
 4524 04f9 00000000 		.4byte	0
 4525 04fd 00000000 		.4byte	0
 4526              	.LLST41:
 4527 0501 20000000 		.4byte	.LVL37
 4528 0505 26000000 		.4byte	.LVL38
 4529 0509 0200     		.2byte	0x2
 4530 050b 30       		.byte	0x30
 4531 050c 9F       		.byte	0x9f
 4532 050d 00000000 		.4byte	0
 4533 0511 00000000 		.4byte	0
 4534              	.LLST42:
 4535 0515 00000000 		.4byte	.LVL39
 4536 0519 02000000 		.4byte	.LVL40
 4537 051d 0100     		.2byte	0x1
 4538 051f 50       		.byte	0x50
 4539 0520 02000000 		.4byte	.LVL40
 4540 0524 05000000 		.4byte	.LVL41-1
 4541 0528 0300     		.2byte	0x3
 4542 052a 70       		.byte	0x70
 4543 052b 68       		.sleb128 -24
 4544 052c 9F       		.byte	0x9f
 4545 052d 05000000 		.4byte	.LVL41-1
 4546 0531 06000000 		.4byte	.LFE267
 4547 0535 0400     		.2byte	0x4
 4548 0537 F3       		.byte	0xf3
 4549 0538 01       		.uleb128 0x1
 4550 0539 50       		.byte	0x50
 4551 053a 9F       		.byte	0x9f
 4552 053b 00000000 		.4byte	0
 4553 053f 00000000 		.4byte	0
 4554              	.LLST43:
 4555 0543 00000000 		.4byte	.LVL39
 4556 0547 02000000 		.4byte	.LVL40
 4557 054b 0300     		.2byte	0x3
 4558 054d 70       		.byte	0x70
 4559 054e 18       		.sleb128 24
 4560 054f 9F       		.byte	0x9f
ARM GAS  /tmp/ccE9Uswy.s 			page 81


 4561 0550 02000000 		.4byte	.LVL40
 4562 0554 05000000 		.4byte	.LVL41-1
 4563 0558 0100     		.2byte	0x1
 4564 055a 50       		.byte	0x50
 4565 055b 05000000 		.4byte	.LVL41-1
 4566 055f 06000000 		.4byte	.LFE267
 4567 0563 0600     		.2byte	0x6
 4568 0565 F3       		.byte	0xf3
 4569 0566 01       		.uleb128 0x1
 4570 0567 50       		.byte	0x50
 4571 0568 23       		.byte	0x23
 4572 0569 18       		.uleb128 0x18
 4573 056a 9F       		.byte	0x9f
 4574 056b 00000000 		.4byte	0
 4575 056f 00000000 		.4byte	0
 4576              	.LLST44:
 4577 0573 00000000 		.4byte	.LVL42
 4578 0577 02000000 		.4byte	.LVL43
 4579 057b 0100     		.2byte	0x1
 4580 057d 50       		.byte	0x50
 4581 057e 02000000 		.4byte	.LVL43
 4582 0582 05000000 		.4byte	.LVL44-1
 4583 0586 0300     		.2byte	0x3
 4584 0588 70       		.byte	0x70
 4585 0589 68       		.sleb128 -24
 4586 058a 9F       		.byte	0x9f
 4587 058b 05000000 		.4byte	.LVL44-1
 4588 058f 06000000 		.4byte	.LFE268
 4589 0593 0400     		.2byte	0x4
 4590 0595 F3       		.byte	0xf3
 4591 0596 01       		.uleb128 0x1
 4592 0597 50       		.byte	0x50
 4593 0598 9F       		.byte	0x9f
 4594 0599 00000000 		.4byte	0
 4595 059d 00000000 		.4byte	0
 4596              	.LLST45:
 4597 05a1 00000000 		.4byte	.LVL42
 4598 05a5 02000000 		.4byte	.LVL43
 4599 05a9 0300     		.2byte	0x3
 4600 05ab 70       		.byte	0x70
 4601 05ac 18       		.sleb128 24
 4602 05ad 9F       		.byte	0x9f
 4603 05ae 02000000 		.4byte	.LVL43
 4604 05b2 05000000 		.4byte	.LVL44-1
 4605 05b6 0100     		.2byte	0x1
 4606 05b8 50       		.byte	0x50
 4607 05b9 05000000 		.4byte	.LVL44-1
 4608 05bd 06000000 		.4byte	.LFE268
 4609 05c1 0600     		.2byte	0x6
 4610 05c3 F3       		.byte	0xf3
 4611 05c4 01       		.uleb128 0x1
 4612 05c5 50       		.byte	0x50
 4613 05c6 23       		.byte	0x23
 4614 05c7 18       		.uleb128 0x18
 4615 05c8 9F       		.byte	0x9f
 4616 05c9 00000000 		.4byte	0
 4617 05cd 00000000 		.4byte	0
ARM GAS  /tmp/ccE9Uswy.s 			page 82


 4618              		.section	.debug_aranges,"",%progbits
 4619 0000 6C000000 		.4byte	0x6c
 4620 0004 0200     		.2byte	0x2
 4621 0006 00000000 		.4byte	.Ldebug_info0
 4622 000a 04       		.byte	0x4
 4623 000b 00       		.byte	0
 4624 000c 0000     		.2byte	0
 4625 000e 0000     		.2byte	0
 4626 0010 00000000 		.4byte	.LFB258
 4627 0014 04000000 		.4byte	.LFE258-.LFB258
 4628 0018 00000000 		.4byte	.LFB259
 4629 001c 16000000 		.4byte	.LFE259-.LFB259
 4630 0020 00000000 		.4byte	.LFB260
 4631 0024 1C000000 		.4byte	.LFE260-.LFB260
 4632 0028 00000000 		.4byte	.LFB261
 4633 002c 1A000000 		.4byte	.LFE261-.LFB261
 4634 0030 00000000 		.4byte	.LFB262
 4635 0034 1E000000 		.4byte	.LFE262-.LFB262
 4636 0038 00000000 		.4byte	.LFB263
 4637 003c 12000000 		.4byte	.LFE263-.LFB263
 4638 0040 00000000 		.4byte	.LFB264
 4639 0044 38000000 		.4byte	.LFE264-.LFB264
 4640 0048 00000000 		.4byte	.LFB265
 4641 004c 28000000 		.4byte	.LFE265-.LFB265
 4642 0050 00000000 		.4byte	.LFB266
 4643 0054 28000000 		.4byte	.LFE266-.LFB266
 4644 0058 00000000 		.4byte	.LFB267
 4645 005c 06000000 		.4byte	.LFE267-.LFB267
 4646 0060 00000000 		.4byte	.LFB268
 4647 0064 06000000 		.4byte	.LFE268-.LFB268
 4648 0068 00000000 		.4byte	0
 4649 006c 00000000 		.4byte	0
 4650              		.section	.debug_ranges,"",%progbits
 4651              	.Ldebug_ranges0:
 4652 0000 02000000 		.4byte	.LBB107
 4653 0004 04000000 		.4byte	.LBE107
 4654 0008 06000000 		.4byte	.LBB116
 4655 000c 0A000000 		.4byte	.LBE116
 4656 0010 00000000 		.4byte	0
 4657 0014 00000000 		.4byte	0
 4658 0018 02000000 		.4byte	.LBB123
 4659 001c 04000000 		.4byte	.LBE123
 4660 0020 06000000 		.4byte	.LBB132
 4661 0024 0A000000 		.4byte	.LBE132
 4662 0028 00000000 		.4byte	0
 4663 002c 00000000 		.4byte	0
 4664 0030 1C000000 		.4byte	.LBB157
 4665 0034 20000000 		.4byte	.LBE157
 4666 0038 24000000 		.4byte	.LBB160
 4667 003c 28000000 		.4byte	.LBE160
 4668 0040 00000000 		.4byte	0
 4669 0044 00000000 		.4byte	0
 4670 0048 16000000 		.4byte	.LBB167
 4671 004c 1A000000 		.4byte	.LBE167
 4672 0050 22000000 		.4byte	.LBB170
 4673 0054 28000000 		.4byte	.LBE170
 4674 0058 00000000 		.4byte	0
ARM GAS  /tmp/ccE9Uswy.s 			page 83


 4675 005c 00000000 		.4byte	0
 4676 0060 00000000 		.4byte	.LFB258
 4677 0064 04000000 		.4byte	.LFE258
 4678 0068 00000000 		.4byte	.LFB259
 4679 006c 16000000 		.4byte	.LFE259
 4680 0070 00000000 		.4byte	.LFB260
 4681 0074 1C000000 		.4byte	.LFE260
 4682 0078 00000000 		.4byte	.LFB261
 4683 007c 1A000000 		.4byte	.LFE261
 4684 0080 00000000 		.4byte	.LFB262
 4685 0084 1E000000 		.4byte	.LFE262
 4686 0088 00000000 		.4byte	.LFB263
 4687 008c 12000000 		.4byte	.LFE263
 4688 0090 00000000 		.4byte	.LFB264
 4689 0094 38000000 		.4byte	.LFE264
 4690 0098 00000000 		.4byte	.LFB265
 4691 009c 28000000 		.4byte	.LFE265
 4692 00a0 00000000 		.4byte	.LFB266
 4693 00a4 28000000 		.4byte	.LFE266
 4694 00a8 00000000 		.4byte	.LFB267
 4695 00ac 06000000 		.4byte	.LFE267
 4696 00b0 00000000 		.4byte	.LFB268
 4697 00b4 06000000 		.4byte	.LFE268
 4698 00b8 00000000 		.4byte	0
 4699 00bc 00000000 		.4byte	0
 4700              		.section	.debug_line,"",%progbits
 4701              	.Ldebug_line0:
 4702 0000 D7040000 		.section	.debug_str,"MS",%progbits,1
 4702      02003B03 
 4702      00000201 
 4702      FB0E0D00 
 4702      01010101 
 4703              	.LASF180:
 4704 0000 6F73616C 		.ascii	"osalThreadResumeI\000"
 4704      54687265 
 4704      61645265 
 4704      73756D65 
 4704      4900
 4705              	.LASF54:
 4706 0012 72656164 		.ascii	"ready_list_t\000"
 4706      795F6C69 
 4706      73745F74 
 4706      00
 4707              	.LASF179:
 4708 001f 6F73616C 		.ascii	"osalThreadResumeS\000"
 4708      54687265 
 4708      61645265 
 4708      73756D65 
 4708      5300
 4709              	.LASF4:
 4710 0031 73697A65 		.ascii	"size_t\000"
 4710      5F7400
 4711              	.LASF20:
 4712 0038 75696E74 		.ascii	"uint64_t\000"
 4712      36345F74 
 4712      00
 4713              	.LASF108:
ARM GAS  /tmp/ccE9Uswy.s 			page 84


 4714 0041 7264796D 		.ascii	"rdymsg\000"
 4714      736700
 4715              	.LASF137:
 4716 0048 61646373 		.ascii	"adcstate_t\000"
 4716      74617465 
 4716      5F7400
 4717              	.LASF99:
 4718 0053 4D304152 		.ascii	"M0AR\000"
 4718      00
 4719              	.LASF5:
 4720 0058 5F5F7569 		.ascii	"__uint8_t\000"
 4720      6E74385F 
 4720      7400
 4721              	.LASF186:
 4722 0062 61646353 		.ascii	"adcStop\000"
 4722      746F7000 
 4723              	.LASF105:
 4724 006a 706F7274 		.ascii	"port_intctx\000"
 4724      5F696E74 
 4724      63747800 
 4725              	.LASF73:
 4726 0076 73797374 		.ascii	"system_debug_t\000"
 4726      656D5F64 
 4726      65627567 
 4726      5F7400
 4727              	.LASF124:
 4728 0085 73747265 		.ascii	"stream\000"
 4728      616D00
 4729              	.LASF167:
 4730 008c 706F7274 		.ascii	"port_lock\000"
 4730      5F6C6F63 
 4730      6B00
 4731              	.LASF196:
 4732 0096 6164635F 		.ascii	"adc_lld_stop\000"
 4732      6C6C645F 
 4732      73746F70 
 4732      00
 4733              	.LASF142:
 4734 00a3 61646365 		.ascii	"adcerror_t\000"
 4734      72726F72 
 4734      5F7400
 4735              	.LASF15:
 4736 00ae 6C6F6E67 		.ascii	"long long unsigned int\000"
 4736      206C6F6E 
 4736      6720756E 
 4736      7369676E 
 4736      65642069 
 4737              	.LASF116:
 4738 00c5 735F7175 		.ascii	"s_queue\000"
 4738      65756500 
 4739              	.LASF109:
 4740 00cd 65786974 		.ascii	"exitcode\000"
 4740      636F6465 
 4740      00
 4741              	.LASF128:
 4742 00d6 76656374 		.ascii	"vector\000"
 4742      6F7200
ARM GAS  /tmp/ccE9Uswy.s 			page 85


 4743              	.LASF80:
 4744 00dd 6D61696E 		.ascii	"mainthread\000"
 4744      74687265 
 4744      616400
 4745              	.LASF70:
 4746 00e8 76697274 		.ascii	"virtual_timers_list_t\000"
 4746      75616C5F 
 4746      74696D65 
 4746      72735F6C 
 4746      6973745F 
 4747              	.LASF192:
 4748 00fe 49544D5F 		.ascii	"ITM_RxBuffer\000"
 4748      52784275 
 4748      66666572 
 4748      00
 4749              	.LASF53:
 4750 010b 63685F74 		.ascii	"ch_threads_queue\000"
 4750      68726561 
 4750      64735F71 
 4750      75657565 
 4750      00
 4751              	.LASF33:
 4752 011c 705F7072 		.ascii	"p_prio\000"
 4752      696F00
 4753              	.LASF92:
 4754 0123 4A535152 		.ascii	"JSQR\000"
 4754      00
 4755              	.LASF172:
 4756 0128 6F73616C 		.ascii	"osalMutexObjectInit\000"
 4756      4D757465 
 4756      784F626A 
 4756      65637449 
 4756      6E697400 
 4757              	.LASF123:
 4758 013c 6D757465 		.ascii	"mutex_t\000"
 4758      785F7400 
 4759              	.LASF203:
 4760 0144 63684D74 		.ascii	"chMtxUnlock\000"
 4760      78556E6C 
 4760      6F636B00 
 4761              	.LASF3:
 4762 0150 7369676E 		.ascii	"signed char\000"
 4762      65642063 
 4762      68617200 
 4763              	.LASF47:
 4764 015c 705F6D70 		.ascii	"p_mpool\000"
 4764      6F6F6C00 
 4765              	.LASF119:
 4766 0164 6D5F7175 		.ascii	"m_queue\000"
 4766      65756500 
 4767              	.LASF131:
 4768 016c 4144435F 		.ascii	"ADC_UNINIT\000"
 4768      554E494E 
 4768      495400
 4769              	.LASF79:
 4770 0177 76746C69 		.ascii	"vtlist\000"
 4770      737400
ARM GAS  /tmp/ccE9Uswy.s 			page 86


 4771              	.LASF168:
 4772 017e 706F7274 		.ascii	"port_unlock\000"
 4772      5F756E6C 
 4772      6F636B00 
 4773              	.LASF151:
 4774 018a 646D6173 		.ascii	"dmastp\000"
 4774      747000
 4775              	.LASF136:
 4776 0191 4144435F 		.ascii	"ADC_ERROR\000"
 4776      4552524F 
 4776      5200
 4777              	.LASF144:
 4778 019b 73746174 		.ascii	"state\000"
 4778      6500
 4779              	.LASF155:
 4780 01a1 63697263 		.ascii	"circular\000"
 4780      756C6172 
 4780      00
 4781              	.LASF11:
 4782 01aa 6C6F6E67 		.ascii	"long int\000"
 4782      20696E74 
 4782      00
 4783              	.LASF140:
 4784 01b3 4144435F 		.ascii	"ADC_ERR_DMAFAILURE\000"
 4784      4552525F 
 4784      444D4146 
 4784      41494C55 
 4784      524500
 4785              	.LASF197:
 4786 01c6 6164635F 		.ascii	"adc_lld_start_conversion\000"
 4786      6C6C645F 
 4786      73746172 
 4786      745F636F 
 4786      6E766572 
 4787              	.LASF154:
 4788 01df 61646365 		.ascii	"adcerrorcallback_t\000"
 4788      72726F72 
 4788      63616C6C 
 4788      6261636B 
 4788      5F7400
 4789              	.LASF23:
 4790 01f2 74737461 		.ascii	"tstate_t\000"
 4790      74655F74 
 4790      00
 4791              	.LASF149:
 4792 01fb 74687265 		.ascii	"thread\000"
 4792      616400
 4793              	.LASF77:
 4794 0202 63685F73 		.ascii	"ch_system\000"
 4794      79737465 
 4794      6D00
 4795              	.LASF1:
 4796 020c 6C6F6E67 		.ascii	"long long int\000"
 4796      206C6F6E 
 4796      6720696E 
 4796      7400
 4797              	.LASF17:
ARM GAS  /tmp/ccE9Uswy.s 			page 87


 4798 021a 75696E74 		.ascii	"uint16_t\000"
 4798      31365F74 
 4798      00
 4799              	.LASF97:
 4800 0223 4144435F 		.ascii	"ADC_TypeDef\000"
 4800      54797065 
 4800      44656600 
 4801              	.LASF35:
 4802 022f 705F6E65 		.ascii	"p_newer\000"
 4802      77657200 
 4803              	.LASF157:
 4804 0237 656E645F 		.ascii	"end_cb\000"
 4804      636200
 4805              	.LASF153:
 4806 023e 61646363 		.ascii	"adccallback_t\000"
 4806      616C6C62 
 4806      61636B5F 
 4806      7400
 4807              	.LASF207:
 4808 024c 61646343 		.ascii	"adcConvert\000"
 4808      6F6E7665 
 4808      727400
 4809              	.LASF2:
 4810 0257 6C6F6E67 		.ascii	"long double\000"
 4810      20646F75 
 4810      626C6500 
 4811              	.LASF138:
 4812 0263 61646373 		.ascii	"adcsample_t\000"
 4812      616D706C 
 4812      655F7400 
 4813              	.LASF200:
 4814 026f 63685468 		.ascii	"chThdResumeI\000"
 4814      64526573 
 4814      756D6549 
 4814      00
 4815              	.LASF166:
 4816 027c 41444343 		.ascii	"ADCConfig\000"
 4816      6F6E6669 
 4816      6700
 4817              	.LASF102:
 4818 0286 72656761 		.ascii	"regarm_t\000"
 4818      726D5F74 
 4818      00
 4819              	.LASF66:
 4820 028f 76745F70 		.ascii	"vt_prev\000"
 4820      72657600 
 4821              	.LASF165:
 4822 0297 64756D6D 		.ascii	"dummy\000"
 4822      7900
 4823              	.LASF198:
 4824 029d 63685468 		.ascii	"chThdResumeS\000"
 4824      64526573 
 4824      756D6553 
 4824      00
 4825              	.LASF175:
 4826 02aa 6F73616C 		.ascii	"osalSysLock\000"
 4826      5379734C 
ARM GAS  /tmp/ccE9Uswy.s 			page 88


 4826      6F636B00 
 4827              	.LASF141:
 4828 02b6 4144435F 		.ascii	"ADC_ERR_OVERFLOW\000"
 4828      4552525F 
 4828      4F564552 
 4828      464C4F57 
 4828      00
 4829              	.LASF173:
 4830 02c7 76616C75 		.ascii	"value\000"
 4830      6500
 4831              	.LASF134:
 4832 02cd 4144435F 		.ascii	"ADC_ACTIVE\000"
 4832      41435449 
 4832      564500
 4833              	.LASF81:
 4834 02d8 69646C65 		.ascii	"idle_thread_wa\000"
 4834      5F746872 
 4834      6561645F 
 4834      776100
 4835              	.LASF28:
 4836 02e7 636E745F 		.ascii	"cnt_t\000"
 4836      7400
 4837              	.LASF0:
 4838 02ed 756E7369 		.ascii	"unsigned int\000"
 4838      676E6564 
 4838      20696E74 
 4838      00
 4839              	.LASF65:
 4840 02fa 76745F6E 		.ascii	"vt_next\000"
 4840      65787400 
 4841              	.LASF184:
 4842 0302 6164634F 		.ascii	"adcObjectInit\000"
 4842      626A6563 
 4842      74496E69 
 4842      7400
 4843              	.LASF112:
 4844 0310 77747365 		.ascii	"wtsemp\000"
 4844      6D7000
 4845              	.LASF42:
 4846 0317 705F6D73 		.ascii	"p_msgqueue\000"
 4846      67717565 
 4846      756500
 4847              	.LASF143:
 4848 0322 41444344 		.ascii	"ADCDriver\000"
 4848      72697665 
 4848      7200
 4849              	.LASF126:
 4850 032c 69736869 		.ascii	"ishift\000"
 4850      667400
 4851              	.LASF117:
 4852 0333 735F636E 		.ascii	"s_cnt\000"
 4852      7400
 4853              	.LASF9:
 4854 0339 73686F72 		.ascii	"short unsigned int\000"
 4854      7420756E 
 4854      7369676E 
 4854      65642069 
ARM GAS  /tmp/ccE9Uswy.s 			page 89


 4854      6E7400
 4855              	.LASF50:
 4856 034c 63685F74 		.ascii	"ch_thread\000"
 4856      68726561 
 4856      6400
 4857              	.LASF133:
 4858 0356 4144435F 		.ascii	"ADC_READY\000"
 4858      52454144 
 4858      5900
 4859              	.LASF206:
 4860 0360 6F73616C 		.ascii	"osalThreadSuspendS\000"
 4860      54687265 
 4860      61645375 
 4860      7370656E 
 4860      645300
 4861              	.LASF26:
 4862 0373 6D73675F 		.ascii	"msg_t\000"
 4862      7400
 4863              	.LASF59:
 4864 0379 725F6E65 		.ascii	"r_newer\000"
 4864      77657200 
 4865              	.LASF127:
 4866 0381 73656C66 		.ascii	"selfindex\000"
 4866      696E6465 
 4866      7800
 4867              	.LASF76:
 4868 038b 63685F73 		.ascii	"ch_system_t\000"
 4868      79737465 
 4868      6D5F7400 
 4869              	.LASF22:
 4870 0397 746D6F64 		.ascii	"tmode_t\000"
 4870      655F7400 
 4871              	.LASF156:
 4872 039f 6E756D5F 		.ascii	"num_channels\000"
 4872      6368616E 
 4872      6E656C73 
 4872      00
 4873              	.LASF55:
 4874 03ac 63685F72 		.ascii	"ch_ready_list\000"
 4874      65616479 
 4874      5F6C6973 
 4874      7400
 4875              	.LASF27:
 4876 03ba 6576656E 		.ascii	"eventmask_t\000"
 4876      746D6173 
 4876      6B5F7400 
 4877              	.LASF7:
 4878 03c6 73686F72 		.ascii	"short int\000"
 4878      7420696E 
 4878      7400
 4879              	.LASF10:
 4880 03d0 5F5F696E 		.ascii	"__int32_t\000"
 4880      7433325F 
 4880      7400
 4881              	.LASF183:
 4882 03da 61646349 		.ascii	"adcInit\000"
 4882      6E697400 
ARM GAS  /tmp/ccE9Uswy.s 			page 90


 4883              	.LASF191:
 4884 03e2 61646352 		.ascii	"adcReleaseBus\000"
 4884      656C6561 
 4884      73654275 
 4884      7300
 4885              	.LASF103:
 4886 03f0 73746B61 		.ascii	"stkalign_t\000"
 4886      6C69676E 
 4886      5F7400
 4887              	.LASF148:
 4888 03fb 67727070 		.ascii	"grpp\000"
 4888      00
 4889              	.LASF85:
 4890 0400 4A4F4652 		.ascii	"JOFR1\000"
 4890      3100
 4891              	.LASF86:
 4892 0406 4A4F4652 		.ascii	"JOFR2\000"
 4892      3200
 4893              	.LASF193:
 4894 040c 6164635F 		.ascii	"adc_lld_init\000"
 4894      6C6C645F 
 4894      696E6974 
 4894      00
 4895              	.LASF146:
 4896 0419 73616D70 		.ascii	"samples\000"
 4896      6C657300 
 4897              	.LASF41:
 4898 0421 705F7761 		.ascii	"p_waiting\000"
 4898      6974696E 
 4898      6700
 4899              	.LASF82:
 4900 042b 73697A65 		.ascii	"sizetype\000"
 4900      74797065 
 4900      00
 4901              	.LASF48:
 4902 0434 74687265 		.ascii	"thread_reference_t\000"
 4902      61645F72 
 4902      65666572 
 4902      656E6365 
 4902      5F7400
 4903              	.LASF71:
 4904 0447 63685F76 		.ascii	"ch_virtual_timers_list\000"
 4904      69727475 
 4904      616C5F74 
 4904      696D6572 
 4904      735F6C69 
 4905              	.LASF111:
 4906 045e 77747472 		.ascii	"wttrp\000"
 4906      7000
 4907              	.LASF107:
 4908 0464 746D5F63 		.ascii	"tm_calibration_t\000"
 4908      616C6962 
 4908      72617469 
 4908      6F6E5F74 
 4908      00
 4909              	.LASF132:
 4910 0475 4144435F 		.ascii	"ADC_STOP\000"
ARM GAS  /tmp/ccE9Uswy.s 			page 91


 4910      53544F50 
 4910      00
 4911              	.LASF72:
 4912 047e 76745F6C 		.ascii	"vt_lasttime\000"
 4912      61737474 
 4912      696D6500 
 4913              	.LASF202:
 4914 048a 63684D74 		.ascii	"chMtxLock\000"
 4914      784C6F63 
 4914      6B00
 4915              	.LASF36:
 4916 0494 705F6F6C 		.ascii	"p_older\000"
 4916      64657200 
 4917              	.LASF96:
 4918 049c 4A445234 		.ascii	"JDR4\000"
 4918      00
 4919              	.LASF58:
 4920 04a1 725F6374 		.ascii	"r_ctx\000"
 4920      7800
 4921              	.LASF83:
 4922 04a7 534D5052 		.ascii	"SMPR1\000"
 4922      3100
 4923              	.LASF84:
 4924 04ad 534D5052 		.ascii	"SMPR2\000"
 4924      3200
 4925              	.LASF121:
 4926 04b3 6D5F6E65 		.ascii	"m_next\000"
 4926      787400
 4927              	.LASF61:
 4928 04ba 725F6375 		.ascii	"r_current\000"
 4928      7272656E 
 4928      7400
 4929              	.LASF60:
 4930 04c4 725F6F6C 		.ascii	"r_older\000"
 4930      64657200 
 4931              	.LASF89:
 4932 04cc 53515231 		.ascii	"SQR1\000"
 4932      00
 4933              	.LASF90:
 4934 04d1 53515232 		.ascii	"SQR2\000"
 4934      00
 4935              	.LASF91:
 4936 04d6 53515233 		.ascii	"SQR3\000"
 4936      00
 4937              	.LASF201:
 4938 04db 63685468 		.ascii	"chThdSuspendS\000"
 4938      64537573 
 4938      70656E64 
 4938      5300
 4939              	.LASF14:
 4940 04e9 5F5F7569 		.ascii	"__uint64_t\000"
 4940      6E743634 
 4940      5F7400
 4941              	.LASF178:
 4942 04f4 61646353 		.ascii	"adcStartConversionI\000"
 4942      74617274 
 4942      436F6E76 
ARM GAS  /tmp/ccE9Uswy.s 			page 92


 4942      65727369 
 4942      6F6E4900 
 4943              	.LASF24:
 4944 0508 74726566 		.ascii	"trefs_t\000"
 4944      735F7400 
 4945              	.LASF63:
 4946 0510 76697274 		.ascii	"virtual_timer_t\000"
 4946      75616C5F 
 4946      74696D65 
 4946      725F7400 
 4947              	.LASF32:
 4948 0520 705F7072 		.ascii	"p_prev\000"
 4948      657600
 4949              	.LASF129:
 4950 0527 73746D33 		.ascii	"stm32_dma_stream_t\000"
 4950      325F646D 
 4950      615F7374 
 4950      7265616D 
 4950      5F7400
 4951              	.LASF25:
 4952 053a 74707269 		.ascii	"tprio_t\000"
 4952      6F5F7400 
 4953              	.LASF150:
 4954 0542 6D757465 		.ascii	"mutex\000"
 4954      7800
 4955              	.LASF194:
 4956 0548 63684D74 		.ascii	"chMtxObjectInit\000"
 4956      784F626A 
 4956      65637449 
 4956      6E697400 
 4957              	.LASF74:
 4958 0558 63685F73 		.ascii	"ch_system_debug\000"
 4958      79737465 
 4958      6D5F6465 
 4958      62756700 
 4959              	.LASF130:
 4960 0568 5F426F6F 		.ascii	"_Bool\000"
 4960      6C00
 4961              	.LASF18:
 4962 056e 696E7433 		.ascii	"int32_t\000"
 4962      325F7400 
 4963              	.LASF6:
 4964 0576 756E7369 		.ascii	"unsigned char\000"
 4964      676E6564 
 4964      20636861 
 4964      7200
 4965              	.LASF45:
 4966 0584 705F6D74 		.ascii	"p_mtxlist\000"
 4966      786C6973 
 4966      7400
 4967              	.LASF199:
 4968 058e 6164635F 		.ascii	"adc_lld_stop_conversion\000"
 4968      6C6C645F 
 4968      73746F70 
 4968      5F636F6E 
 4968      76657273 
 4969              	.LASF38:
ARM GAS  /tmp/ccE9Uswy.s 			page 93


 4970 05a6 705F7374 		.ascii	"p_state\000"
 4970      61746500 
 4971              	.LASF158:
 4972 05ae 6572726F 		.ascii	"error_cb\000"
 4972      725F6362 
 4972      00
 4973              	.LASF57:
 4974 05b7 725F7072 		.ascii	"r_prio\000"
 4974      696F00
 4975              	.LASF204:
 4976 05be 474E5520 		.ascii	"GNU C11 5.3.1 20160307 (release) [ARM/embedded-5-br"
 4976      43313120 
 4976      352E332E 
 4976      31203230 
 4976      31363033 
 4977 05f1 616E6368 		.ascii	"anch revision 234589] -mcpu=cortex-m4 -mno-thumb-in"
 4977      20726576 
 4977      6973696F 
 4977      6E203233 
 4977      34353839 
 4978 0624 74657277 		.ascii	"terwork -mthumb -ggdb -O2 -fomit-frame-pointer -fal"
 4978      6F726B20 
 4978      2D6D7468 
 4978      756D6220 
 4978      2D676764 
 4979 0657 69676E2D 		.ascii	"ign-functions=16 -ffunction-sections -fdata-section"
 4979      66756E63 
 4979      74696F6E 
 4979      733D3136 
 4979      202D6666 
 4980 068a 73202D66 		.ascii	"s -fno-common\000"
 4980      6E6F2D63 
 4980      6F6D6D6F 
 4980      6E00
 4981              	.LASF114:
 4982 0698 65776D61 		.ascii	"ewmask\000"
 4982      736B00
 4983              	.LASF31:
 4984 069f 705F6E65 		.ascii	"p_next\000"
 4984      787400
 4985              	.LASF39:
 4986 06a6 705F666C 		.ascii	"p_flags\000"
 4986      61677300 
 4987              	.LASF177:
 4988 06ae 5F5F6675 		.ascii	"__func__\000"
 4988      6E635F5F 
 4988      00
 4989              	.LASF87:
 4990 06b7 4A4F4652 		.ascii	"JOFR3\000"
 4990      3300
 4991              	.LASF169:
 4992 06bd 63685379 		.ascii	"chSysLock\000"
 4992      734C6F63 
 4992      6B00
 4993              	.LASF88:
 4994 06c7 4A4F4652 		.ascii	"JOFR4\000"
 4994      3400
ARM GAS  /tmp/ccE9Uswy.s 			page 94


 4995              	.LASF174:
 4996 06cd 6F73616C 		.ascii	"osalSysUnlock\000"
 4996      53797355 
 4996      6E6C6F63 
 4996      6B00
 4997              	.LASF115:
 4998 06db 63685F73 		.ascii	"ch_semaphore\000"
 4998      656D6170 
 4998      686F7265 
 4998      00
 4999              	.LASF44:
 5000 06e8 705F6570 		.ascii	"p_epending\000"
 5000      656E6469 
 5000      6E6700
 5001              	.LASF125:
 5002 06f3 69666372 		.ascii	"ifcr\000"
 5002      00
 5003              	.LASF19:
 5004 06f8 75696E74 		.ascii	"uint32_t\000"
 5004      33325F74 
 5004      00
 5005              	.LASF113:
 5006 0701 77746D74 		.ascii	"wtmtxp\000"
 5006      787000
 5007              	.LASF56:
 5008 0708 725F7175 		.ascii	"r_queue\000"
 5008      65756500 
 5009              	.LASF67:
 5010 0710 76745F64 		.ascii	"vt_delta\000"
 5010      656C7461 
 5010      00
 5011              	.LASF51:
 5012 0719 63685F74 		.ascii	"ch_threads_list\000"
 5012      68726561 
 5012      64735F6C 
 5012      69737400 
 5013              	.LASF13:
 5014 0729 6C6F6E67 		.ascii	"long unsigned int\000"
 5014      20756E73 
 5014      69676E65 
 5014      6420696E 
 5014      7400
 5015              	.LASF147:
 5016 073b 64657074 		.ascii	"depth\000"
 5016      6800
 5017              	.LASF122:
 5018 0741 63686172 		.ascii	"char\000"
 5018      00
 5019              	.LASF145:
 5020 0746 636F6E66 		.ascii	"config\000"
 5020      696700
 5021              	.LASF182:
 5022 074d 6F73616C 		.ascii	"osalMutexUnlock\000"
 5022      4D757465 
 5022      78556E6C 
 5022      6F636B00 
 5023              	.LASF8:
ARM GAS  /tmp/ccE9Uswy.s 			page 95


 5024 075d 5F5F7569 		.ascii	"__uint16_t\000"
 5024      6E743136 
 5024      5F7400
 5025              	.LASF30:
 5026 0768 74687265 		.ascii	"thread_t\000"
 5026      61645F74 
 5026      00
 5027              	.LASF161:
 5028 0771 73717231 		.ascii	"sqr1\000"
 5028      00
 5029              	.LASF162:
 5030 0776 73717232 		.ascii	"sqr2\000"
 5030      00
 5031              	.LASF163:
 5032 077b 73717233 		.ascii	"sqr3\000"
 5032      00
 5033              	.LASF29:
 5034 0780 73797374 		.ascii	"systime_t\000"
 5034      696D655F 
 5034      7400
 5035              	.LASF46:
 5036 078a 705F7265 		.ascii	"p_realprio\000"
 5036      616C7072 
 5036      696F00
 5037              	.LASF62:
 5038 0795 76746675 		.ascii	"vtfunc_t\000"
 5038      6E635F74 
 5038      00
 5039              	.LASF12:
 5040 079e 5F5F7569 		.ascii	"__uint32_t\000"
 5040      6E743332 
 5040      5F7400
 5041              	.LASF170:
 5042 07a9 5F5F7365 		.ascii	"__set_BASEPRI\000"
 5042      745F4241 
 5042      53455052 
 5042      4900
 5043              	.LASF181:
 5044 07b7 6F73616C 		.ascii	"osalMutexLock\000"
 5044      4D757465 
 5044      784C6F63 
 5044      6B00
 5045              	.LASF98:
 5046 07c5 4E445452 		.ascii	"NDTR\000"
 5046      00
 5047              	.LASF75:
 5048 07ca 70616E69 		.ascii	"panic_msg\000"
 5048      635F6D73 
 5048      6700
 5049              	.LASF106:
 5050 07d4 6F666673 		.ascii	"offset\000"
 5050      657400
 5051              	.LASF101:
 5052 07db 444D415F 		.ascii	"DMA_Stream_TypeDef\000"
 5052      53747265 
 5052      616D5F54 
 5052      79706544 
ARM GAS  /tmp/ccE9Uswy.s 			page 96


 5052      656600
 5053              	.LASF104:
 5054 07ee 636F6E74 		.ascii	"context\000"
 5054      65787400 
 5055              	.LASF64:
 5056 07f6 63685F76 		.ascii	"ch_virtual_timer\000"
 5056      69727475 
 5056      616C5F74 
 5056      696D6572 
 5056      00
 5057              	.LASF187:
 5058 0807 61646353 		.ascii	"adcStartConversion\000"
 5058      74617274 
 5058      436F6E76 
 5058      65727369 
 5058      6F6E00
 5059              	.LASF21:
 5060 081a 7274636E 		.ascii	"rtcnt_t\000"
 5060      745F7400 
 5061              	.LASF100:
 5062 0822 4D314152 		.ascii	"M1AR\000"
 5062      00
 5063              	.LASF195:
 5064 0827 6164635F 		.ascii	"adc_lld_start\000"
 5064      6C6C645F 
 5064      73746172 
 5064      7400
 5065              	.LASF69:
 5066 0835 76745F70 		.ascii	"vt_par\000"
 5066      617200
 5067              	.LASF185:
 5068 083c 61646353 		.ascii	"adcStart\000"
 5068      74617274 
 5068      00
 5069              	.LASF52:
 5070 0845 74687265 		.ascii	"threads_queue_t\000"
 5070      6164735F 
 5070      71756575 
 5070      655F7400 
 5071              	.LASF118:
 5072 0855 63685F6D 		.ascii	"ch_mutex\000"
 5072      75746578 
 5072      00
 5073              	.LASF40:
 5074 085e 705F7265 		.ascii	"p_refs\000"
 5074      667300
 5075              	.LASF159:
 5076 0865 736D7072 		.ascii	"smpr1\000"
 5076      3100
 5077              	.LASF160:
 5078 086b 736D7072 		.ascii	"smpr2\000"
 5078      3200
 5079              	.LASF78:
 5080 0871 726C6973 		.ascii	"rlist\000"
 5080      7400
 5081              	.LASF16:
 5082 0877 75696E74 		.ascii	"uint8_t\000"
ARM GAS  /tmp/ccE9Uswy.s 			page 97


 5082      385F7400 
 5083              	.LASF189:
 5084 087f 61646353 		.ascii	"adcStopConversionI\000"
 5084      746F7043 
 5084      6F6E7665 
 5084      7273696F 
 5084      6E4900
 5085              	.LASF164:
 5086 0892 41444343 		.ascii	"ADCConversionGroup\000"
 5086      6F6E7665 
 5086      7273696F 
 5086      6E47726F 
 5086      757000
 5087              	.LASF93:
 5088 08a5 4A445231 		.ascii	"JDR1\000"
 5088      00
 5089              	.LASF94:
 5090 08aa 4A445232 		.ascii	"JDR2\000"
 5090      00
 5091              	.LASF95:
 5092 08af 4A445233 		.ascii	"JDR3\000"
 5092      00
 5093              	.LASF152:
 5094 08b4 646D616D 		.ascii	"dmamode\000"
 5094      6F646500 
 5095              	.LASF110:
 5096 08bc 77746F62 		.ascii	"wtobjp\000"
 5096      6A7000
 5097              	.LASF135:
 5098 08c3 4144435F 		.ascii	"ADC_COMPLETE\000"
 5098      434F4D50 
 5098      4C455445 
 5098      00
 5099              	.LASF37:
 5100 08d0 705F6E61 		.ascii	"p_name\000"
 5100      6D6500
 5101              	.LASF139:
 5102 08d7 6164635F 		.ascii	"adc_channels_num_t\000"
 5102      6368616E 
 5102      6E656C73 
 5102      5F6E756D 
 5102      5F7400
 5103              	.LASF49:
 5104 08ea 74687265 		.ascii	"threads_list_t\000"
 5104      6164735F 
 5104      6C697374 
 5104      5F7400
 5105              	.LASF171:
 5106 08f9 63685379 		.ascii	"chSysUnlock\000"
 5106      73556E6C 
 5106      6F636B00 
 5107              	.LASF43:
 5108 0905 705F6D73 		.ascii	"p_msg\000"
 5108      6700
 5109              	.LASF176:
 5110 090b 61646370 		.ascii	"adcp\000"
 5110      00
ARM GAS  /tmp/ccE9Uswy.s 			page 98


 5111              	.LASF205:
 5112 0910 2F686F6D 		.ascii	"/home/selim/working/ChibiOS/os/hal/src/adc.c\000"
 5112      652F7365 
 5112      6C696D2F 
 5112      776F726B 
 5112      696E672F 
 5113              	.LASF188:
 5114 093d 61646353 		.ascii	"adcStopConversion\000"
 5114      746F7043 
 5114      6F6E7665 
 5114      7273696F 
 5114      6E00
 5115              	.LASF120:
 5116 094f 6D5F6F77 		.ascii	"m_owner\000"
 5116      6E657200 
 5117              	.LASF190:
 5118 0957 61646341 		.ascii	"adcAcquireBus\000"
 5118      63717569 
 5118      72654275 
 5118      7300
 5119              	.LASF34:
 5120 0965 705F6374 		.ascii	"p_ctx\000"
 5120      7800
 5121              	.LASF68:
 5122 096b 76745F66 		.ascii	"vt_func\000"
 5122      756E6300 
 5123              		.ident	"GCC: (GNU Tools for ARM Embedded Processors) 5.3.1 20160307 (release) [ARM/embedded-5-bran
ARM GAS  /tmp/ccE9Uswy.s 			page 99


DEFINED SYMBOLS
                            *ABS*:0000000000000000 adc.c
     /tmp/ccE9Uswy.s:20     .text.adcInit:0000000000000000 $t
     /tmp/ccE9Uswy.s:26     .text.adcInit:0000000000000000 adcInit
     /tmp/ccE9Uswy.s:41     .text.adcObjectInit:0000000000000000 $t
     /tmp/ccE9Uswy.s:47     .text.adcObjectInit:0000000000000000 adcObjectInit
     /tmp/ccE9Uswy.s:85     .text.adcStart:0000000000000000 $t
     /tmp/ccE9Uswy.s:91     .text.adcStart:0000000000000000 adcStart
     /tmp/ccE9Uswy.s:170    .text.adcStop:0000000000000000 $t
     /tmp/ccE9Uswy.s:176    .text.adcStop:0000000000000000 adcStop
     /tmp/ccE9Uswy.s:252    .text.adcStartConversion:0000000000000000 $t
     /tmp/ccE9Uswy.s:258    .text.adcStartConversion:0000000000000000 adcStartConversion
     /tmp/ccE9Uswy.s:333    .text.adcStartConversionI:0000000000000000 $t
     /tmp/ccE9Uswy.s:339    .text.adcStartConversionI:0000000000000000 adcStartConversionI
     /tmp/ccE9Uswy.s:372    .text.adcStopConversion:0000000000000000 $t
     /tmp/ccE9Uswy.s:378    .text.adcStopConversion:0000000000000000 adcStopConversion
     /tmp/ccE9Uswy.s:481    .text.adcStopConversionI:0000000000000000 $t
     /tmp/ccE9Uswy.s:487    .text.adcStopConversionI:0000000000000000 adcStopConversionI
     /tmp/ccE9Uswy.s:543    .text.adcConvert:0000000000000000 $t
     /tmp/ccE9Uswy.s:549    .text.adcConvert:0000000000000000 adcConvert
     /tmp/ccE9Uswy.s:634    .text.adcAcquireBus:0000000000000000 $t
     /tmp/ccE9Uswy.s:640    .text.adcAcquireBus:0000000000000000 adcAcquireBus
     /tmp/ccE9Uswy.s:661    .text.adcReleaseBus:0000000000000000 $t
     /tmp/ccE9Uswy.s:667    .text.adcReleaseBus:0000000000000000 adcReleaseBus
                     .debug_frame:0000000000000010 $d

UNDEFINED SYMBOLS
adc_lld_init
chMtxObjectInit
adc_lld_start
adc_lld_stop
adc_lld_start_conversion
adc_lld_stop_conversion
chThdResumeS
chThdResumeI
chThdSuspendS
chMtxLock
chMtxUnlock
