ARM GAS  /tmp/ccib2p1S.s 			page 1


   1              		.cpu cortex-m4
   2              		.eabi_attribute 20, 1
   3              		.eabi_attribute 21, 1
   4              		.eabi_attribute 23, 3
   5              		.eabi_attribute 24, 1
   6              		.eabi_attribute 25, 1
   7              		.eabi_attribute 26, 1
   8              		.eabi_attribute 30, 2
   9              		.eabi_attribute 34, 1
  10              		.eabi_attribute 18, 4
  11              		.file	"adc.c"
  12              		.text
  13              	.Ltext0:
  14              		.cfi_sections	.debug_frame
  15              		.section	.text.adcInit,"ax",%progbits
  16              		.align	1
  17              		.p2align 4,,15
  18              		.global	adcInit
  19              		.syntax unified
  20              		.thumb
  21              		.thumb_func
  22              		.fpu softvfp
  23              		.type	adcInit, %function
  24              	adcInit:
  25              	.LFB258:
  26              		.file 1 "/home/selim/working/ChibiOS/os/hal/src/adc.c"
  27              		.loc 1 56 0
  28              		.cfi_startproc
  29              		@ args = 0, pretend = 0, frame = 0
  30              		@ frame_needed = 0, uses_anonymous_args = 0
  31              		@ link register save eliminated.
  32              		.loc 1 58 0
  33 0000 FFF7FEBF 		b	adc_lld_init
  34              	.LVL0:
  35              		.cfi_endproc
  36              	.LFE258:
  37              		.size	adcInit, .-adcInit
  38              		.section	.text.adcObjectInit,"ax",%progbits
  39              		.align	1
  40              		.p2align 4,,15
  41              		.global	adcObjectInit
  42              		.syntax unified
  43              		.thumb
  44              		.thumb_func
  45              		.fpu softvfp
  46              		.type	adcObjectInit, %function
  47              	adcObjectInit:
  48              	.LFB259:
  49              		.loc 1 68 0
  50              		.cfi_startproc
  51              		@ args = 0, pretend = 0, frame = 0
  52              		@ frame_needed = 0, uses_anonymous_args = 0
  53              		@ link register save eliminated.
  54              	.LVL1:
  55              		.loc 1 71 0
  56 0000 0023     		movs	r3, #0
  57              		.loc 1 70 0
ARM GAS  /tmp/ccib2p1S.s 			page 2


  58 0002 0122     		movs	r2, #1
  59 0004 0270     		strb	r2, [r0]
  60              		.loc 1 71 0
  61 0006 4360     		str	r3, [r0, #4]
  62              		.loc 1 72 0
  63 0008 8360     		str	r3, [r0, #8]
  64              		.loc 1 73 0
  65 000a C360     		str	r3, [r0, #12]
  66              		.loc 1 74 0
  67 000c 0361     		str	r3, [r0, #16]
  68              		.loc 1 76 0
  69 000e 4361     		str	r3, [r0, #20]
  70              	.LVL2:
  71              	.LBB105:
  72              	.LBB106:
  73              		.file 2 "/home/selim/working/ChibiOS/os/hal/osal/rt/osal.h"
  74              		.loc 2 841 0
  75 0010 1830     		adds	r0, r0, #24
  76              	.LVL3:
  77 0012 FFF7FEBF 		b	chMtxObjectInit
  78              	.LVL4:
  79              	.LBE106:
  80              	.LBE105:
  81              		.cfi_endproc
  82              	.LFE259:
  83              		.size	adcObjectInit, .-adcObjectInit
  84 0016 00BF     		.section	.text.adcStart,"ax",%progbits
  85              		.align	1
  86              		.p2align 4,,15
  87              		.global	adcStart
  88              		.syntax unified
  89              		.thumb
  90              		.thumb_func
  91              		.fpu softvfp
  92              		.type	adcStart, %function
  93              	adcStart:
  94              	.LFB260:
  95              		.loc 1 95 0
  96              		.cfi_startproc
  97              		@ args = 0, pretend = 0, frame = 0
  98              		@ frame_needed = 0, uses_anonymous_args = 0
  99              	.LVL5:
 100 0000 10B5     		push	{r4, lr}
 101              		.cfi_def_cfa_offset 8
 102              		.cfi_offset 4, -8
 103              		.cfi_offset 14, -4
 104              	.LBB107:
 105              	.LBB108:
 106              	.LBB109:
 107              	.LBB110:
 108              	.LBB111:
 109              		.file 3 "/home/selim/working/ChibiOS/os/ext/CMSIS/include/core_cmFunc.h"
 110              		.loc 3 546 0
 111 0002 2023     		movs	r3, #32
 112              	.LBE111:
 113              	.LBE110:
 114              	.LBE109:
ARM GAS  /tmp/ccib2p1S.s 			page 3


 115              	.LBE108:
 116              	.LBE107:
 117              		.loc 1 95 0
 118 0004 0446     		mov	r4, r0
 119              	.LBB116:
 120              	.LBB115:
 121              	.LBB114:
 122              	.LBB113:
 123              	.LBB112:
 124              		.loc 3 546 0
 125              		.syntax unified
 126              	@ 546 "/home/selim/working/ChibiOS/os/ext/CMSIS/include/core_cmFunc.h" 1
 127 0006 83F31188 		MSR basepri, r3
 128              	@ 0 "" 2
 129              	.LVL6:
 130              		.thumb
 131              		.syntax unified
 132              	.LBE112:
 133              	.LBE113:
 134              	.LBE114:
 135              	.LBE115:
 136              	.LBE116:
 137              		.loc 1 102 0
 138 000a 4160     		str	r1, [r0, #4]
 139              		.loc 1 103 0
 140 000c FFF7FEFF 		bl	adc_lld_start
 141              	.LVL7:
 142              		.loc 1 104 0
 143 0010 0223     		movs	r3, #2
 144 0012 2370     		strb	r3, [r4]
 145              	.LVL8:
 146              	.LBB117:
 147              	.LBB118:
 148              	.LBB119:
 149              	.LBB120:
 150              	.LBB121:
 151              	.LBB122:
 152              		.loc 3 546 0
 153 0014 0023     		movs	r3, #0
 154              		.syntax unified
 155              	@ 546 "/home/selim/working/ChibiOS/os/ext/CMSIS/include/core_cmFunc.h" 1
 156 0016 83F31188 		MSR basepri, r3
 157              	@ 0 "" 2
 158              	.LVL9:
 159              		.thumb
 160              		.syntax unified
 161 001a 10BD     		pop	{r4, pc}
 162              	.LBE122:
 163              	.LBE121:
 164              	.LBE120:
 165              	.LBE119:
 166              	.LBE118:
 167              	.LBE117:
 168              		.cfi_endproc
 169              	.LFE260:
 170              		.size	adcStart, .-adcStart
 171              		.section	.text.adcStop,"ax",%progbits
ARM GAS  /tmp/ccib2p1S.s 			page 4


 172              		.align	1
 173              		.p2align 4,,15
 174              		.global	adcStop
 175              		.syntax unified
 176              		.thumb
 177              		.thumb_func
 178              		.fpu softvfp
 179              		.type	adcStop, %function
 180              	adcStop:
 181              	.LFB261:
 182              		.loc 1 115 0
 183              		.cfi_startproc
 184              		@ args = 0, pretend = 0, frame = 0
 185              		@ frame_needed = 0, uses_anonymous_args = 0
 186              	.LVL10:
 187 0000 10B5     		push	{r4, lr}
 188              		.cfi_def_cfa_offset 8
 189              		.cfi_offset 4, -8
 190              		.cfi_offset 14, -4
 191              	.LBB123:
 192              	.LBB124:
 193              	.LBB125:
 194              	.LBB126:
 195              	.LBB127:
 196              		.loc 3 546 0
 197 0002 2023     		movs	r3, #32
 198              	.LBE127:
 199              	.LBE126:
 200              	.LBE125:
 201              	.LBE124:
 202              	.LBE123:
 203              		.loc 1 115 0
 204 0004 0446     		mov	r4, r0
 205              	.LBB132:
 206              	.LBB131:
 207              	.LBB130:
 208              	.LBB129:
 209              	.LBB128:
 210              		.loc 3 546 0
 211              		.syntax unified
 212              	@ 546 "/home/selim/working/ChibiOS/os/ext/CMSIS/include/core_cmFunc.h" 1
 213 0006 83F31188 		MSR basepri, r3
 214              	@ 0 "" 2
 215              	.LVL11:
 216              		.thumb
 217              		.syntax unified
 218              	.LBE128:
 219              	.LBE129:
 220              	.LBE130:
 221              	.LBE131:
 222              	.LBE132:
 223              		.loc 1 122 0
 224 000a FFF7FEFF 		bl	adc_lld_stop
 225              	.LVL12:
 226              		.loc 1 123 0
 227 000e 0123     		movs	r3, #1
 228 0010 2370     		strb	r3, [r4]
ARM GAS  /tmp/ccib2p1S.s 			page 5


 229              	.LVL13:
 230              	.LBB133:
 231              	.LBB134:
 232              	.LBB135:
 233              	.LBB136:
 234              	.LBB137:
 235              	.LBB138:
 236              		.loc 3 546 0
 237 0012 0023     		movs	r3, #0
 238              		.syntax unified
 239              	@ 546 "/home/selim/working/ChibiOS/os/ext/CMSIS/include/core_cmFunc.h" 1
 240 0014 83F31188 		MSR basepri, r3
 241              	@ 0 "" 2
 242              	.LVL14:
 243              		.thumb
 244              		.syntax unified
 245 0018 10BD     		pop	{r4, pc}
 246              	.LBE138:
 247              	.LBE137:
 248              	.LBE136:
 249              	.LBE135:
 250              	.LBE134:
 251              	.LBE133:
 252              		.cfi_endproc
 253              	.LFE261:
 254              		.size	adcStop, .-adcStop
 255 001a 00BF     		.section	.text.adcStartConversion,"ax",%progbits
 256              		.align	1
 257              		.p2align 4,,15
 258              		.global	adcStartConversion
 259              		.syntax unified
 260              		.thumb
 261              		.thumb_func
 262              		.fpu softvfp
 263              		.type	adcStartConversion, %function
 264              	adcStartConversion:
 265              	.LFB262:
 266              		.loc 1 146 0
 267              		.cfi_startproc
 268              		@ args = 0, pretend = 0, frame = 0
 269              		@ frame_needed = 0, uses_anonymous_args = 0
 270              	.LVL15:
 271 0000 38B5     		push	{r3, r4, r5, lr}
 272              		.cfi_def_cfa_offset 16
 273              		.cfi_offset 3, -16
 274              		.cfi_offset 4, -12
 275              		.cfi_offset 5, -8
 276              		.cfi_offset 14, -4
 277              	.LBB139:
 278              	.LBB140:
 279              	.LBB141:
 280              	.LBB142:
 281              	.LBB143:
 282              		.loc 3 546 0
 283 0002 2025     		movs	r5, #32
 284              		.syntax unified
 285              	@ 546 "/home/selim/working/ChibiOS/os/ext/CMSIS/include/core_cmFunc.h" 1
ARM GAS  /tmp/ccib2p1S.s 			page 6


 286 0004 85F31188 		MSR basepri, r5
 287              	@ 0 "" 2
 288              	.LVL16:
 289              		.thumb
 290              		.syntax unified
 291              	.LBE143:
 292              	.LBE142:
 293              	.LBE141:
 294              	.LBE140:
 295              	.LBE139:
 296              	.LBB144:
 297              	.LBB145:
 298              		.loc 1 187 0
 299 0008 0325     		movs	r5, #3
 300              		.loc 1 185 0
 301 000a C360     		str	r3, [r0, #12]
 302              		.loc 1 184 0
 303 000c 8260     		str	r2, [r0, #8]
 304              		.loc 1 186 0
 305 000e 0161     		str	r1, [r0, #16]
 306              		.loc 1 187 0
 307 0010 0570     		strb	r5, [r0]
 308              		.loc 1 188 0
 309 0012 FFF7FEFF 		bl	adc_lld_start_conversion
 310              	.LVL17:
 311              	.LBE145:
 312              	.LBE144:
 313              	.LBB146:
 314              	.LBB147:
 315              	.LBB148:
 316              	.LBB149:
 317              	.LBB150:
 318              	.LBB151:
 319              		.loc 3 546 0
 320 0016 0023     		movs	r3, #0
 321              		.syntax unified
 322              	@ 546 "/home/selim/working/ChibiOS/os/ext/CMSIS/include/core_cmFunc.h" 1
 323 0018 83F31188 		MSR basepri, r3
 324              	@ 0 "" 2
 325              	.LVL18:
 326              		.thumb
 327              		.syntax unified
 328 001c 38BD     		pop	{r3, r4, r5, pc}
 329              	.LBE151:
 330              	.LBE150:
 331              	.LBE149:
 332              	.LBE148:
 333              	.LBE147:
 334              	.LBE146:
 335              		.cfi_endproc
 336              	.LFE262:
 337              		.size	adcStartConversion, .-adcStartConversion
 338 001e 00BF     		.section	.text.adcStartConversionI,"ax",%progbits
 339              		.align	1
 340              		.p2align 4,,15
 341              		.global	adcStartConversionI
 342              		.syntax unified
ARM GAS  /tmp/ccib2p1S.s 			page 7


 343              		.thumb
 344              		.thumb_func
 345              		.fpu softvfp
 346              		.type	adcStartConversionI, %function
 347              	adcStartConversionI:
 348              	.LFB263:
 349              		.loc 1 174 0
 350              		.cfi_startproc
 351              		@ args = 0, pretend = 0, frame = 0
 352              		@ frame_needed = 0, uses_anonymous_args = 0
 353              		@ link register save eliminated.
 354              	.LVL19:
 355 0000 30B4     		push	{r4, r5}
 356              		.cfi_def_cfa_offset 8
 357              		.cfi_offset 4, -8
 358              		.cfi_offset 5, -4
 359              		.loc 1 187 0
 360 0002 0325     		movs	r5, #3
 361 0004 0570     		strb	r5, [r0]
 362              		.loc 1 184 0
 363 0006 8260     		str	r2, [r0, #8]
 364              		.loc 1 185 0
 365 0008 C360     		str	r3, [r0, #12]
 366              		.loc 1 186 0
 367 000a 0161     		str	r1, [r0, #16]
 368              		.loc 1 189 0
 369 000c 30BC     		pop	{r4, r5}
 370              		.cfi_restore 5
 371              		.cfi_restore 4
 372              		.cfi_def_cfa_offset 0
 373              		.loc 1 188 0
 374 000e FFF7FEBF 		b	adc_lld_start_conversion
 375              	.LVL20:
 376              		.cfi_endproc
 377              	.LFE263:
 378              		.size	adcStartConversionI, .-adcStartConversionI
 379 0012 00BF     		.section	.text.adcStopConversion,"ax",%progbits
 380              		.align	1
 381              		.p2align 4,,15
 382              		.global	adcStopConversion
 383              		.syntax unified
 384              		.thumb
 385              		.thumb_func
 386              		.fpu softvfp
 387              		.type	adcStopConversion, %function
 388              	adcStopConversion:
 389              	.LFB264:
 390              		.loc 1 201 0
 391              		.cfi_startproc
 392              		@ args = 0, pretend = 0, frame = 0
 393              		@ frame_needed = 0, uses_anonymous_args = 0
 394              	.LVL21:
 395              	.LBB152:
 396              	.LBB153:
 397              	.LBB154:
 398              	.LBB155:
 399              	.LBB156:
ARM GAS  /tmp/ccib2p1S.s 			page 8


 400              		.loc 3 546 0
 401 0000 2022     		movs	r2, #32
 402              		.syntax unified
 403              	@ 546 "/home/selim/working/ChibiOS/os/ext/CMSIS/include/core_cmFunc.h" 1
 404 0002 82F31188 		MSR basepri, r2
 405              	@ 0 "" 2
 406              	.LVL22:
 407              		.thumb
 408              		.syntax unified
 409              	.LBE156:
 410              	.LBE155:
 411              	.LBE154:
 412              	.LBE153:
 413              	.LBE152:
 414              		.loc 1 208 0
 415 0006 0278     		ldrb	r2, [r0]	@ zero_extendqisi2
 416 0008 022A     		cmp	r2, #2
 417 000a 11D0     		beq	.L17
 418              		.loc 1 201 0
 419 000c 10B5     		push	{r4, lr}
 420              		.cfi_def_cfa_offset 8
 421              		.cfi_offset 4, -8
 422              		.cfi_offset 14, -4
 423 000e 0446     		mov	r4, r0
 424              		.loc 1 209 0
 425 0010 FFF7FEFF 		bl	adc_lld_stop_conversion
 426              	.LVL23:
 427              		.loc 1 211 0
 428 0014 2046     		mov	r0, r4
 429              		.loc 1 210 0
 430 0016 0022     		movs	r2, #0
 431              		.loc 1 211 0
 432 0018 0223     		movs	r3, #2
 433              		.loc 1 210 0
 434 001a 2261     		str	r2, [r4, #16]
 435              	.LBB157:
 436              	.LBB158:
 437              		.loc 2 697 0
 438 001c 6FF00101 		mvn	r1, #1
 439              	.LBE158:
 440              	.LBE157:
 441              		.loc 1 211 0
 442 0020 00F8143B 		strb	r3, [r0], #20
 443              	.LVL24:
 444              	.LBB160:
 445              	.LBB159:
 446              		.loc 2 697 0
 447 0024 FFF7FEFF 		bl	chThdResumeS
 448              	.LVL25:
 449              	.LBE159:
 450              	.LBE160:
 451              	.LBB161:
 452              	.LBB162:
 453              	.LBB163:
 454              	.LBB164:
 455              	.LBB165:
 456              	.LBB166:
ARM GAS  /tmp/ccib2p1S.s 			page 9


 457              		.loc 3 546 0
 458 0028 0023     		movs	r3, #0
 459              		.syntax unified
 460              	@ 546 "/home/selim/working/ChibiOS/os/ext/CMSIS/include/core_cmFunc.h" 1
 461 002a 83F31188 		MSR basepri, r3
 462              	@ 0 "" 2
 463              	.LVL26:
 464              		.thumb
 465              		.syntax unified
 466 002e 10BD     		pop	{r4, pc}
 467              	.LVL27:
 468              	.L17:
 469              		.cfi_def_cfa_offset 0
 470              		.cfi_restore 4
 471              		.cfi_restore 14
 472 0030 0023     		movs	r3, #0
 473              		.syntax unified
 474              	@ 546 "/home/selim/working/ChibiOS/os/ext/CMSIS/include/core_cmFunc.h" 1
 475 0032 83F31188 		MSR basepri, r3
 476              	@ 0 "" 2
 477              	.LVL28:
 478              		.thumb
 479              		.syntax unified
 480 0036 7047     		bx	lr
 481              	.LBE166:
 482              	.LBE165:
 483              	.LBE164:
 484              	.LBE163:
 485              	.LBE162:
 486              	.LBE161:
 487              		.cfi_endproc
 488              	.LFE264:
 489              		.size	adcStopConversion, .-adcStopConversion
 490              		.section	.text.adcStopConversionI,"ax",%progbits
 491              		.align	1
 492              		.p2align 4,,15
 493              		.global	adcStopConversionI
 494              		.syntax unified
 495              		.thumb
 496              		.thumb_func
 497              		.fpu softvfp
 498              		.type	adcStopConversionI, %function
 499              	adcStopConversionI:
 500              	.LFB265:
 501              		.loc 1 227 0
 502              		.cfi_startproc
 503              		@ args = 0, pretend = 0, frame = 0
 504              		@ frame_needed = 0, uses_anonymous_args = 0
 505              	.LVL29:
 506              		.loc 1 236 0
 507 0000 0278     		ldrb	r2, [r0]	@ zero_extendqisi2
 508 0002 022A     		cmp	r2, #2
 509 0004 0FD0     		beq	.L21
 510              		.loc 1 227 0
 511 0006 10B5     		push	{r4, lr}
 512              		.cfi_def_cfa_offset 8
 513              		.cfi_offset 4, -8
ARM GAS  /tmp/ccib2p1S.s 			page 10


 514              		.cfi_offset 14, -4
 515 0008 0446     		mov	r4, r0
 516              		.loc 1 237 0
 517 000a FFF7FEFF 		bl	adc_lld_stop_conversion
 518              	.LVL30:
 519              		.loc 1 239 0
 520 000e 2046     		mov	r0, r4
 521              		.loc 1 238 0
 522 0010 0022     		movs	r2, #0
 523              		.loc 1 239 0
 524 0012 0223     		movs	r3, #2
 525              		.loc 1 238 0
 526 0014 2261     		str	r2, [r4, #16]
 527              	.LBB167:
 528              	.LBB168:
 529              		.loc 2 682 0
 530 0016 6FF00101 		mvn	r1, #1
 531              	.LBE168:
 532              	.LBE167:
 533              		.loc 1 239 0
 534 001a 00F8143B 		strb	r3, [r0], #20
 535              	.LVL31:
 536              		.loc 1 242 0
 537 001e BDE81040 		pop	{r4, lr}
 538              		.cfi_restore 14
 539              		.cfi_restore 4
 540              		.cfi_def_cfa_offset 0
 541              	.LVL32:
 542              	.LBB170:
 543              	.LBB169:
 544              		.loc 2 682 0
 545 0022 FFF7FEBF 		b	chThdResumeI
 546              	.LVL33:
 547              	.L21:
 548 0026 7047     		bx	lr
 549              	.LBE169:
 550              	.LBE170:
 551              		.cfi_endproc
 552              	.LFE265:
 553              		.size	adcStopConversionI, .-adcStopConversionI
 554              		.section	.text.adcConvert,"ax",%progbits
 555              		.align	1
 556              		.p2align 4,,15
 557              		.global	adcConvert
 558              		.syntax unified
 559              		.thumb
 560              		.thumb_func
 561              		.fpu softvfp
 562              		.type	adcConvert, %function
 563              	adcConvert:
 564              	.LFB266:
 565              		.loc 1 271 0
 566              		.cfi_startproc
 567              		@ args = 0, pretend = 0, frame = 0
 568              		@ frame_needed = 0, uses_anonymous_args = 0
 569              	.LVL34:
 570 0000 70B5     		push	{r4, r5, r6, lr}
ARM GAS  /tmp/ccib2p1S.s 			page 11


 571              		.cfi_def_cfa_offset 16
 572              		.cfi_offset 4, -16
 573              		.cfi_offset 5, -12
 574              		.cfi_offset 6, -8
 575              		.cfi_offset 14, -4
 576              	.LBB171:
 577              	.LBB172:
 578              	.LBB173:
 579              	.LBB174:
 580              	.LBB175:
 581              		.loc 3 546 0
 582 0002 2025     		movs	r5, #32
 583              		.syntax unified
 584              	@ 546 "/home/selim/working/ChibiOS/os/ext/CMSIS/include/core_cmFunc.h" 1
 585 0004 85F31188 		MSR basepri, r5
 586              	@ 0 "" 2
 587              	.LVL35:
 588              		.thumb
 589              		.syntax unified
 590              	.LBE175:
 591              	.LBE174:
 592              	.LBE173:
 593              	.LBE172:
 594              	.LBE171:
 595              	.LBB176:
 596              	.LBB177:
 597              		.loc 1 187 0
 598 0008 0546     		mov	r5, r0
 599 000a 0326     		movs	r6, #3
 600              		.loc 1 184 0
 601 000c 8260     		str	r2, [r0, #8]
 602              		.loc 1 185 0
 603 000e C360     		str	r3, [r0, #12]
 604              		.loc 1 186 0
 605 0010 0161     		str	r1, [r0, #16]
 606              		.loc 1 187 0
 607 0012 05F8146B 		strb	r6, [r5], #20
 608              		.loc 1 188 0
 609 0016 FFF7FEFF 		bl	adc_lld_start_conversion
 610              	.LVL36:
 611              	.LBE177:
 612              	.LBE176:
 613              	.LBB178:
 614              	.LBB179:
 615              		.loc 2 642 0
 616 001a 2846     		mov	r0, r5
 617 001c FFF7FEFF 		bl	chThdSuspendS
 618              	.LVL37:
 619              	.LBE179:
 620              	.LBE178:
 621              	.LBB180:
 622              	.LBB181:
 623              	.LBB182:
 624              	.LBB183:
 625              	.LBB184:
 626              	.LBB185:
 627              		.loc 3 546 0
ARM GAS  /tmp/ccib2p1S.s 			page 12


 628 0020 0023     		movs	r3, #0
 629              		.syntax unified
 630              	@ 546 "/home/selim/working/ChibiOS/os/ext/CMSIS/include/core_cmFunc.h" 1
 631 0022 83F31188 		MSR basepri, r3
 632              	@ 0 "" 2
 633              	.LVL38:
 634              		.thumb
 635              		.syntax unified
 636              	.LBE185:
 637              	.LBE184:
 638              	.LBE183:
 639              	.LBE182:
 640              	.LBE181:
 641              	.LBE180:
 642              		.loc 1 280 0
 643 0026 70BD     		pop	{r4, r5, r6, pc}
 644              		.cfi_endproc
 645              	.LFE266:
 646              		.size	adcConvert, .-adcConvert
 647              		.section	.text.adcAcquireBus,"ax",%progbits
 648              		.align	1
 649              		.p2align 4,,15
 650              		.global	adcAcquireBus
 651              		.syntax unified
 652              		.thumb
 653              		.thumb_func
 654              		.fpu softvfp
 655              		.type	adcAcquireBus, %function
 656              	adcAcquireBus:
 657              	.LFB267:
 658              		.loc 1 295 0
 659              		.cfi_startproc
 660              		@ args = 0, pretend = 0, frame = 0
 661              		@ frame_needed = 0, uses_anonymous_args = 0
 662              		@ link register save eliminated.
 663              	.LVL39:
 664              	.LBB186:
 665              	.LBB187:
 666              		.loc 2 861 0
 667 0000 1830     		adds	r0, r0, #24
 668              	.LVL40:
 669 0002 FFF7FEBF 		b	chMtxLock
 670              	.LVL41:
 671              	.LBE187:
 672              	.LBE186:
 673              		.cfi_endproc
 674              	.LFE267:
 675              		.size	adcAcquireBus, .-adcAcquireBus
 676 0006 00BF     		.section	.text.adcReleaseBus,"ax",%progbits
 677              		.align	1
 678              		.p2align 4,,15
 679              		.global	adcReleaseBus
 680              		.syntax unified
 681              		.thumb
 682              		.thumb_func
 683              		.fpu softvfp
 684              		.type	adcReleaseBus, %function
ARM GAS  /tmp/ccib2p1S.s 			page 13


 685              	adcReleaseBus:
 686              	.LFB268:
 687              		.loc 1 311 0
 688              		.cfi_startproc
 689              		@ args = 0, pretend = 0, frame = 0
 690              		@ frame_needed = 0, uses_anonymous_args = 0
 691              		@ link register save eliminated.
 692              	.LVL42:
 693              	.LBB188:
 694              	.LBB189:
 695              		.loc 2 885 0
 696 0000 1830     		adds	r0, r0, #24
 697              	.LVL43:
 698 0002 FFF7FEBF 		b	chMtxUnlock
 699              	.LVL44:
 700              	.LBE189:
 701              	.LBE188:
 702              		.cfi_endproc
 703              	.LFE268:
 704              		.size	adcReleaseBus, .-adcReleaseBus
 705 0006 00BF     		.text
 706              	.Letext0:
 707              		.file 4 "/usr/lib/gcc/arm-none-eabi/6.2.1/include/stddef.h"
 708              		.file 5 "/usr/arm-none-eabi/include/machine/_default_types.h"
 709              		.file 6 "/usr/arm-none-eabi/include/sys/_stdint.h"
 710              		.file 7 "/home/selim/working/ChibiOS/os/rt/ports/ARMCMx/compilers/GCC/chtypes.h"
 711              		.file 8 "/home/selim/working/ChibiOS/os/rt/include/chsystypes.h"
 712              		.file 9 "/home/selim/working/ChibiOS/os/rt/include/chschd.h"
 713              		.file 10 "/home/selim/working/ChibiOS/os/ext/CMSIS/include/core_cm4.h"
 714              		.file 11 "/home/selim/working/ChibiOS/os/ext/CMSIS/ST/system_stm32f4xx.h"
 715              		.file 12 "/home/selim/working/ChibiOS/os/ext/CMSIS/ST/stm32f407xx.h"
 716              		.file 13 "/home/selim/working/ChibiOS/os/rt/ports/ARMCMx/chcore.h"
 717              		.file 14 "/home/selim/working/ChibiOS/os/rt/ports/ARMCMx/chcore_v7m.h"
 718              		.file 15 "/home/selim/working/ChibiOS/os/hal/ports/STM32/LLD/TIMv1/stm32_tim.h"
 719              		.file 16 "/home/selim/working/ChibiOS/os/rt/include/chtm.h"
 720              		.file 17 "/home/selim/working/ChibiOS/os/rt/include/chsem.h"
 721              		.file 18 "/home/selim/working/ChibiOS/os/rt/include/chmtx.h"
 722              		.file 19 "/home/selim/working/ChibiOS/os/rt/include/chregistry.h"
 723              		.file 20 "/home/selim/working/ChibiOS/os/rt/include/chevents.h"
 724              		.file 21 "/home/selim/working/ChibiOS/os/rt/include/chqueues.h"
 725              		.file 22 "/home/selim/working/ChibiOS/os/hal/ports/STM32/STM32F4xx/stm32_dma.h"
 726              		.file 23 "/home/selim/working/ChibiOS/os/hal/ports/STM32/LLD/GPIOv2/pal_lld.h"
 727              		.file 24 "/home/selim/working/ChibiOS/os/hal/include/adc.h"
 728              		.file 25 "/home/selim/working/ChibiOS/os/hal/ports/STM32/STM32F4xx/adc_lld.h"
 729              		.file 26 "/home/selim/working/ChibiOS/os/hal/include/gpt.h"
 730              		.file 27 "/home/selim/working/ChibiOS/os/hal/ports/STM32/LLD/TIMv1/gpt_lld.h"
 731              		.file 28 "/home/selim/working/ChibiOS/os/hal/include/pwm.h"
 732              		.file 29 "/home/selim/working/ChibiOS/os/hal/ports/STM32/LLD/TIMv1/pwm_lld.h"
 733              		.file 30 "/home/selim/working/ChibiOS/os/hal/include/serial.h"
 734              		.file 31 "/home/selim/working/ChibiOS/os/hal/ports/STM32/LLD/USARTv1/serial_lld.h"
 735              		.file 32 "/home/selim/working/ChibiOS/os/hal/include/spi.h"
 736              		.file 33 "/home/selim/working/ChibiOS/os/hal/ports/STM32/LLD/SPIv1/spi_lld.h"
 737              		.file 34 "/home/selim/working/ChibiOS/os/hal/include/usb.h"
 738              		.file 35 "/home/selim/working/ChibiOS/os/hal/ports/STM32/LLD/OTGv1/usb_lld.h"
 739              		.file 36 "/home/selim/working/ChibiOS/os/hal/ports/STM32/LLD/OTGv1/stm32_otg.h"
 740              		.file 37 "/home/selim/working/ChibiOS/os/rt/include/chsys.h"
 741              		.file 38 "/home/selim/working/ChibiOS/os/rt/include/chthreads.h"
ARM GAS  /tmp/ccib2p1S.s 			page 14

