ARM GAS  /tmp/ccrbn9dS.s 			page 1


   1              		.cpu cortex-m4
   2              		.eabi_attribute 20, 1
   3              		.eabi_attribute 21, 1
   4              		.eabi_attribute 23, 3
   5              		.eabi_attribute 24, 1
   6              		.eabi_attribute 25, 1
   7              		.eabi_attribute 26, 1
   8              		.eabi_attribute 30, 2
   9              		.eabi_attribute 34, 1
  10              		.eabi_attribute 18, 4
  11              		.file	"adc_lld.c"
  12              		.text
  13              	.Ltext0:
  14              		.cfi_sections	.debug_frame
  15              		.section	.text.adc_lld_serve_rx_interrupt,"ax",%progbits
  16              		.align	1
  17              		.p2align 4,,15
  18              		.syntax unified
  19              		.thumb
  20              		.thumb_func
  21              		.fpu softvfp
  22              		.type	adc_lld_serve_rx_interrupt, %function
  23              	adc_lld_serve_rx_interrupt:
  24              	.LFB258:
  25              		.file 1 "/home/selim/working/ChibiOS/os/hal/ports/STM32/STM32F4xx/adc_lld.c"
  26              		.loc 1 75 0
  27              		.cfi_startproc
  28              		@ args = 0, pretend = 0, frame = 0
  29              		@ frame_needed = 0, uses_anonymous_args = 0
  30              	.LVL0:
  31              		.loc 1 78 0
  32 0000 11F00C0F 		tst	r1, #12
  33              		.loc 1 75 0
  34 0004 2DE9F041 		push	{r4, r5, r6, r7, r8, lr}
  35              		.cfi_def_cfa_offset 24
  36              		.cfi_offset 4, -24
  37              		.cfi_offset 5, -20
  38              		.cfi_offset 6, -16
  39              		.cfi_offset 7, -12
  40              		.cfi_offset 8, -8
  41              		.cfi_offset 14, -4
  42              		.loc 1 75 0
  43 0008 0446     		mov	r4, r0
  44              		.loc 1 78 0
  45 000a 2ED0     		beq	.L2
  46              	.LVL1:
  47              	.LBB91:
  48              	.LBB92:
  49              		.loc 1 375 0
  50 000c C06A     		ldr	r0, [r0, #44]
  51              	.LVL2:
  52 000e 0368     		ldr	r3, [r0]
  53 0010 1A68     		ldr	r2, [r3]
  54 0012 22F01F02 		bic	r2, r2, #31
  55 0016 1A60     		str	r2, [r3]
  56              	.LVL3:
  57              	.L3:
ARM GAS  /tmp/ccrbn9dS.s 			page 2


  58 0018 1968     		ldr	r1, [r3]
  59 001a 11F00101 		ands	r1, r1, #1
  60 001e FBD1     		bne	.L3
  61              	.LBE92:
  62              	.LBE91:
  63              		.loc 1 81 0
  64 0020 2269     		ldr	r2, [r4, #16]
  65              	.LBB95:
  66              	.LBB93:
  67              		.loc 1 375 0
  68 0022 077A     		ldrb	r7, [r0, #8]	@ zero_extendqisi2
  69 0024 4668     		ldr	r6, [r0, #4]
  70              	.LBE93:
  71              	.LBE95:
  72              		.loc 1 81 0
  73 0026 9568     		ldr	r5, [r2, #8]
  74              	.LBB96:
  75              	.LBB94:
  76              		.loc 1 376 0
  77 0028 A36A     		ldr	r3, [r4, #40]
  78              		.loc 1 375 0
  79 002a 3D22     		movs	r2, #61
  80 002c BA40     		lsls	r2, r2, r7
  81              		.loc 1 378 0
  82 002e 0120     		movs	r0, #1
  83              		.loc 1 375 0
  84 0030 3260     		str	r2, [r6]
  85              		.loc 1 376 0
  86 0032 5960     		str	r1, [r3, #4]
  87              		.loc 1 377 0
  88 0034 9960     		str	r1, [r3, #8]
  89              		.loc 1 378 0
  90 0036 9860     		str	r0, [r3, #8]
  91              	.LVL4:
  92              	.LBE94:
  93              	.LBE96:
  94              		.loc 1 81 0
  95 0038 45B1     		cbz	r5, .L5
  96              		.loc 1 81 0 is_stmt 0 discriminator 1
  97 003a 0523     		movs	r3, #5
  98 003c 2370     		strb	r3, [r4]
  99 003e 2046     		mov	r0, r4
 100 0040 A847     		blx	r5
 101              	.LVL5:
 102 0042 2378     		ldrb	r3, [r4]	@ zero_extendqisi2
 103 0044 052B     		cmp	r3, #5
 104 0046 04BF     		itt	eq
 105 0048 0223     		moveq	r3, #2
 106 004a 2370     		strbeq	r3, [r4]
 107              	.L5:
 108              		.loc 1 81 0 discriminator 5
 109 004c 0025     		movs	r5, #0
 110 004e 2561     		str	r5, [r4, #16]
 111              	.LVL6:
 112              	.LBB97:
 113              	.LBB98:
 114              	.LBB99:
ARM GAS  /tmp/ccrbn9dS.s 			page 3


 115              	.LBB100:
 116              	.LBB101:
 117              	.LBB102:
 118              		.file 2 "/home/selim/working/ChibiOS/os/ext/CMSIS/include/core_cmFunc.h"
 119              		.loc 2 546 0 is_stmt 1 discriminator 5
 120 0050 2023     		movs	r3, #32
 121              		.syntax unified
 122              	@ 546 "/home/selim/working/ChibiOS/os/ext/CMSIS/include/core_cmFunc.h" 1
 123 0052 83F31188 		MSR basepri, r3
 124              	@ 0 "" 2
 125              	.LVL7:
 126              		.thumb
 127              		.syntax unified
 128              	.LBE102:
 129              	.LBE101:
 130              	.LBE100:
 131              	.LBE99:
 132              	.LBE98:
 133              	.LBE97:
 134              	.LBB103:
 135              	.LBB104:
 136              		.file 3 "/home/selim/working/ChibiOS/os/hal/osal/rt/osal.h"
 137              		.loc 3 682 0 discriminator 5
 138 0056 4FF0FF31 		mov	r1, #-1
 139 005a 04F11400 		add	r0, r4, #20
 140              	.LVL8:
 141 005e FFF7FEFF 		bl	chThdResumeI
 142              	.LVL9:
 143              	.LBE104:
 144              	.LBE103:
 145              	.LBB105:
 146              	.LBB106:
 147              	.LBB107:
 148              	.LBB108:
 149              	.LBB109:
 150              	.LBB110:
 151              		.loc 2 546 0 discriminator 5
 152              		.syntax unified
 153              	@ 546 "/home/selim/working/ChibiOS/os/ext/CMSIS/include/core_cmFunc.h" 1
 154 0062 85F31188 		MSR basepri, r5
 155              	@ 0 "" 2
 156              	.LVL10:
 157              		.thumb
 158              		.syntax unified
 159 0066 BDE8F081 		pop	{r4, r5, r6, r7, r8, pc}
 160              	.LVL11:
 161              	.L2:
 162              	.LBE110:
 163              	.LBE109:
 164              	.LBE108:
 165              	.LBE107:
 166              	.LBE106:
 167              	.LBE105:
 168              		.loc 1 86 0
 169 006a 0569     		ldr	r5, [r0, #16]
 170 006c 9DB1     		cbz	r5, .L1
 171              		.loc 1 87 0
ARM GAS  /tmp/ccrbn9dS.s 			page 4


 172 006e 8A06     		lsls	r2, r1, #26
 173 0070 0FD5     		bpl	.L8
 174              		.loc 1 89 0
 175 0072 2B78     		ldrb	r3, [r5]	@ zero_extendqisi2
 176 0074 D3B1     		cbz	r3, .L9
 177              		.loc 1 89 0 is_stmt 0 discriminator 1
 178 0076 6B68     		ldr	r3, [r5, #4]
 179 0078 6BB1     		cbz	r3, .L1
 180              		.loc 1 89 0 discriminator 3
 181 007a C268     		ldr	r2, [r0, #12]
 182 007c 012A     		cmp	r2, #1
 183 007e 46D9     		bls	.L10
 184              	.LBB111:
 185              		.loc 1 89 0 discriminator 4
 186 0080 6988     		ldrh	r1, [r5, #2]
 187              	.LVL12:
 188 0082 8468     		ldr	r4, [r0, #8]
 189 0084 5208     		lsrs	r2, r2, #1
 190              	.LVL13:
 191 0086 5500     		lsls	r5, r2, #1
 192              	.LVL14:
 193 0088 05FB0141 		mla	r1, r5, r1, r4
 194              	.LBE111:
 195              		.loc 1 97 0 is_stmt 1 discriminator 4
 196 008c BDE8F041 		pop	{r4, r5, r6, r7, r8, lr}
 197              		.cfi_remember_state
 198              		.cfi_restore 14
 199              		.cfi_restore 8
 200              		.cfi_restore 7
 201              		.cfi_restore 6
 202              		.cfi_restore 5
 203              		.cfi_restore 4
 204              		.cfi_def_cfa_offset 0
 205              	.LBB112:
 206              		.loc 1 89 0 discriminator 4
 207 0090 1847     		bx	r3	@ indirect register sibling call
 208              	.LVL15:
 209              	.L8:
 210              		.cfi_restore_state
 211              	.LBE112:
 212              		.loc 1 91 0
 213 0092 CB06     		lsls	r3, r1, #27
 214 0094 01D4     		bmi	.L33
 215              	.L1:
 216 0096 BDE8F081 		pop	{r4, r5, r6, r7, r8, pc}
 217              	.L33:
 218              		.loc 1 93 0
 219 009a 6B68     		ldr	r3, [r5, #4]
 220 009c 002B     		cmp	r3, #0
 221 009e FAD0     		beq	.L1
 222              		.loc 1 93 0 is_stmt 0 discriminator 1
 223 00a0 C268     		ldr	r2, [r0, #12]
 224 00a2 8168     		ldr	r1, [r0, #8]
 225              	.LVL16:
 226 00a4 5208     		lsrs	r2, r2, #1
 227              		.loc 1 97 0 is_stmt 1 discriminator 1
 228 00a6 BDE8F041 		pop	{r4, r5, r6, r7, r8, lr}
ARM GAS  /tmp/ccrbn9dS.s 			page 5


 229              		.cfi_remember_state
 230              		.cfi_restore 14
 231              		.cfi_restore 8
 232              		.cfi_restore 7
 233              		.cfi_restore 6
 234              		.cfi_restore 5
 235              		.cfi_restore 4
 236              		.cfi_def_cfa_offset 0
 237              		.loc 1 93 0 discriminator 1
 238 00aa 1847     		bx	r3	@ indirect register sibling call
 239              	.LVL17:
 240              	.L9:
 241              		.cfi_restore_state
 242              	.LBB113:
 243              	.LBB114:
 244              		.loc 1 375 0
 245 00ac C06A     		ldr	r0, [r0, #44]
 246              	.LVL18:
 247 00ae 0268     		ldr	r2, [r0]
 248 00b0 1368     		ldr	r3, [r2]
 249 00b2 23F01F03 		bic	r3, r3, #31
 250 00b6 1360     		str	r3, [r2]
 251              	.L11:
 252 00b8 1368     		ldr	r3, [r2]
 253 00ba 13F00103 		ands	r3, r3, #1
 254 00be FBD1     		bne	.L11
 255 00c0 077A     		ldrb	r7, [r0, #8]	@ zero_extendqisi2
 256 00c2 4668     		ldr	r6, [r0, #4]
 257              	.LBE114:
 258              	.LBE113:
 259              		.loc 1 89 0
 260 00c4 6D68     		ldr	r5, [r5, #4]
 261              	.LBB116:
 262              	.LBB115:
 263              		.loc 1 376 0
 264 00c6 A26A     		ldr	r2, [r4, #40]
 265              		.loc 1 375 0
 266 00c8 3D21     		movs	r1, #61
 267              	.LVL19:
 268 00ca B940     		lsls	r1, r1, r7
 269              		.loc 1 378 0
 270 00cc 0120     		movs	r0, #1
 271              		.loc 1 375 0
 272 00ce 3160     		str	r1, [r6]
 273              		.loc 1 376 0
 274 00d0 5360     		str	r3, [r2, #4]
 275              		.loc 1 377 0
 276 00d2 9360     		str	r3, [r2, #8]
 277              		.loc 1 378 0
 278 00d4 9060     		str	r0, [r2, #8]
 279              	.LVL20:
 280              	.LBE115:
 281              	.LBE116:
 282              		.loc 1 89 0
 283 00d6 ADB1     		cbz	r5, .L12
 284              		.loc 1 89 0 is_stmt 0 discriminator 6
 285 00d8 0423     		movs	r3, #4
ARM GAS  /tmp/ccrbn9dS.s 			page 6


 286 00da 2370     		strb	r3, [r4]
 287 00dc E268     		ldr	r2, [r4, #12]
 288 00de A168     		ldr	r1, [r4, #8]
 289 00e0 2046     		mov	r0, r4
 290 00e2 A847     		blx	r5
 291              	.LVL21:
 292 00e4 2378     		ldrb	r3, [r4]	@ zero_extendqisi2
 293 00e6 042B     		cmp	r3, #4
 294 00e8 0CD0     		beq	.L12
 295              	.L13:
 296              	.LVL22:
 297              	.LBB117:
 298              	.LBB118:
 299              	.LBB119:
 300              	.LBB120:
 301              	.LBB121:
 302              	.LBB122:
 303              		.loc 2 546 0 is_stmt 1 discriminator 9
 304 00ea 2023     		movs	r3, #32
 305              		.syntax unified
 306              	@ 546 "/home/selim/working/ChibiOS/os/ext/CMSIS/include/core_cmFunc.h" 1
 307 00ec 83F31188 		MSR basepri, r3
 308              	@ 0 "" 2
 309              	.LVL23:
 310              		.thumb
 311              		.syntax unified
 312              	.LBE122:
 313              	.LBE121:
 314              	.LBE120:
 315              	.LBE119:
 316              	.LBE118:
 317              	.LBE117:
 318              	.LBB123:
 319              	.LBB124:
 320              		.loc 3 682 0 discriminator 9
 321 00f0 0021     		movs	r1, #0
 322 00f2 04F11400 		add	r0, r4, #20
 323              	.LVL24:
 324 00f6 FFF7FEFF 		bl	chThdResumeI
 325              	.LVL25:
 326              	.LBE124:
 327              	.LBE123:
 328              	.LBB125:
 329              	.LBB126:
 330              	.LBB127:
 331              	.LBB128:
 332              	.LBB129:
 333              	.LBB130:
 334              		.loc 2 546 0 discriminator 9
 335 00fa 0023     		movs	r3, #0
 336              		.syntax unified
 337              	@ 546 "/home/selim/working/ChibiOS/os/ext/CMSIS/include/core_cmFunc.h" 1
 338 00fc 83F31188 		MSR basepri, r3
 339              	@ 0 "" 2
 340              	.LVL26:
 341              		.thumb
 342              		.syntax unified
ARM GAS  /tmp/ccrbn9dS.s 			page 7


 343 0100 BDE8F081 		pop	{r4, r5, r6, r7, r8, pc}
 344              	.LVL27:
 345              	.L12:
 346              	.LBE130:
 347              	.LBE129:
 348              	.LBE128:
 349              	.LBE127:
 350              	.LBE126:
 351              	.LBE125:
 352              		.loc 1 89 0 discriminator 8
 353 0104 0222     		movs	r2, #2
 354 0106 0023     		movs	r3, #0
 355 0108 2270     		strb	r2, [r4]
 356 010a 2361     		str	r3, [r4, #16]
 357 010c EDE7     		b	.L13
 358              	.LVL28:
 359              	.L10:
 360              		.loc 1 89 0 is_stmt 0 discriminator 5
 361 010e 8168     		ldr	r1, [r0, #8]
 362              	.LVL29:
 363              		.loc 1 97 0 is_stmt 1 discriminator 5
 364 0110 BDE8F041 		pop	{r4, r5, r6, r7, r8, lr}
 365              		.cfi_restore 14
 366              		.cfi_restore 8
 367              		.cfi_restore 7
 368              		.cfi_restore 6
 369              		.cfi_restore 5
 370              		.cfi_restore 4
 371              		.cfi_def_cfa_offset 0
 372              		.loc 1 89 0 discriminator 5
 373 0114 1847     		bx	r3	@ indirect register sibling call
 374              	.LVL30:
 375              		.cfi_endproc
 376              	.LFE258:
 377              		.size	adc_lld_serve_rx_interrupt, .-adc_lld_serve_rx_interrupt
 378 0116 00BF     		.section	.text.Vector88,"ax",%progbits
 379              		.align	1
 380              		.p2align 4,,15
 381              		.global	Vector88
 382              		.syntax unified
 383              		.thumb
 384              		.thumb_func
 385              		.fpu softvfp
 386              		.type	Vector88, %function
 387              	Vector88:
 388              	.LFB259:
 389              		.loc 1 110 0
 390              		.cfi_startproc
 391              		@ args = 0, pretend = 0, frame = 0
 392              		@ frame_needed = 0, uses_anonymous_args = 0
 393 0000 F8B5     		push	{r3, r4, r5, r6, r7, lr}
 394              		.cfi_def_cfa_offset 24
 395              		.cfi_offset 3, -24
 396              		.cfi_offset 4, -20
 397              		.cfi_offset 5, -16
 398              		.cfi_offset 6, -12
 399              		.cfi_offset 7, -8
ARM GAS  /tmp/ccrbn9dS.s 			page 8


 400              		.cfi_offset 14, -4
 401              		.loc 1 116 0
 402 0002 1D4B     		ldr	r3, .L51
 403 0004 1A68     		ldr	r2, [r3]
 404              	.LVL31:
 405              		.loc 1 117 0
 406 0006 0021     		movs	r1, #0
 407 0008 1960     		str	r1, [r3]
 408              		.loc 1 120 0
 409 000a 9306     		lsls	r3, r2, #26
 410 000c 2FD5     		bpl	.L35
 411              		.loc 1 120 0 is_stmt 0 discriminator 1
 412 000e 1B4C     		ldr	r4, .L51+4
 413 0010 E16A     		ldr	r1, [r4, #44]
 414 0012 0A68     		ldr	r2, [r1]
 415              	.LVL32:
 416 0014 5368     		ldr	r3, [r2, #4]
 417 0016 53B3     		cbz	r3, .L35
 418              		.loc 1 123 0 is_stmt 1
 419 0018 2569     		ldr	r5, [r4, #16]
 420 001a 45B3     		cbz	r5, .L35
 421              	.LVL33:
 422              	.LBB131:
 423              	.LBB132:
 424              		.loc 1 375 0
 425 001c 1368     		ldr	r3, [r2]
 426 001e 23F01F03 		bic	r3, r3, #31
 427 0022 1360     		str	r3, [r2]
 428              	.L36:
 429 0024 1368     		ldr	r3, [r2]
 430 0026 13F00103 		ands	r3, r3, #1
 431 002a FBD1     		bne	.L36
 432 002c 0F7A     		ldrb	r7, [r1, #8]	@ zero_extendqisi2
 433 002e 4E68     		ldr	r6, [r1, #4]
 434              	.LBE132:
 435              	.LBE131:
 436              		.loc 1 124 0
 437 0030 AD68     		ldr	r5, [r5, #8]
 438              	.LBB134:
 439              	.LBB133:
 440              		.loc 1 376 0
 441 0032 A26A     		ldr	r2, [r4, #40]
 442              		.loc 1 375 0
 443 0034 3D20     		movs	r0, #61
 444 0036 B840     		lsls	r0, r0, r7
 445              		.loc 1 378 0
 446 0038 0121     		movs	r1, #1
 447              		.loc 1 375 0
 448 003a 3060     		str	r0, [r6]
 449              		.loc 1 376 0
 450 003c 5360     		str	r3, [r2, #4]
 451              		.loc 1 377 0
 452 003e 9360     		str	r3, [r2, #8]
 453              		.loc 1 378 0
 454 0040 9160     		str	r1, [r2, #8]
 455              	.LVL34:
 456              	.LBE133:
ARM GAS  /tmp/ccrbn9dS.s 			page 9


 457              	.LBE134:
 458              		.loc 1 124 0
 459 0042 45B1     		cbz	r5, .L38
 460              		.loc 1 124 0 is_stmt 0 discriminator 1
 461 0044 0523     		movs	r3, #5
 462 0046 2370     		strb	r3, [r4]
 463 0048 0C48     		ldr	r0, .L51+4
 464 004a A847     		blx	r5
 465              	.LVL35:
 466 004c 2378     		ldrb	r3, [r4]	@ zero_extendqisi2
 467 004e 052B     		cmp	r3, #5
 468 0050 04BF     		itt	eq
 469 0052 0223     		moveq	r3, #2
 470 0054 2370     		strbeq	r3, [r4]
 471              	.L38:
 472              		.loc 1 124 0 discriminator 5
 473 0056 0025     		movs	r5, #0
 474 0058 2561     		str	r5, [r4, #16]
 475              	.LVL36:
 476              	.LBB135:
 477              	.LBB136:
 478              	.LBB137:
 479              	.LBB138:
 480              	.LBB139:
 481              	.LBB140:
 482              		.loc 2 546 0 is_stmt 1 discriminator 5
 483 005a 2023     		movs	r3, #32
 484              		.syntax unified
 485              	@ 546 "/home/selim/working/ChibiOS/os/ext/CMSIS/include/core_cmFunc.h" 1
 486 005c 83F31188 		MSR basepri, r3
 487              	@ 0 "" 2
 488              	.LVL37:
 489              		.thumb
 490              		.syntax unified
 491              	.LBE140:
 492              	.LBE139:
 493              	.LBE138:
 494              	.LBE137:
 495              	.LBE136:
 496              	.LBE135:
 497              	.LBB141:
 498              	.LBB142:
 499              		.loc 3 682 0 discriminator 5
 500 0060 4FF0FF31 		mov	r1, #-1
 501 0064 0648     		ldr	r0, .L51+8
 502 0066 FFF7FEFF 		bl	chThdResumeI
 503              	.LVL38:
 504              	.LBE142:
 505              	.LBE141:
 506              	.LBB143:
 507              	.LBB144:
 508              	.LBB145:
 509              	.LBB146:
 510              	.LBB147:
 511              	.LBB148:
 512              		.loc 2 546 0 discriminator 5
 513              		.syntax unified
ARM GAS  /tmp/ccrbn9dS.s 			page 10


 514              	@ 546 "/home/selim/working/ChibiOS/os/ext/CMSIS/include/core_cmFunc.h" 1
 515 006a 85F31188 		MSR basepri, r5
 516              	@ 0 "" 2
 517              	.LVL39:
 518              		.thumb
 519              		.syntax unified
 520              	.L35:
 521              	.LBE148:
 522              	.LBE147:
 523              	.LBE146:
 524              	.LBE145:
 525              	.LBE144:
 526              	.LBE143:
 527              		.loc 1 158 0
 528 006e BDE8F840 		pop	{r3, r4, r5, r6, r7, lr}
 529              		.cfi_restore 14
 530              		.cfi_restore 7
 531              		.cfi_restore 6
 532              		.cfi_restore 5
 533              		.cfi_restore 4
 534              		.cfi_restore 3
 535              		.cfi_def_cfa_offset 0
 536              		.loc 1 157 0
 537 0072 FFF7FEBF 		b	_port_irq_epilogue
 538              	.LVL40:
 539              	.L52:
 540 0076 00BF     		.align	2
 541              	.L51:
 542 0078 00200140 		.word	1073815552
 543 007c 00000000 		.word	.LANCHOR0
 544 0080 14000000 		.word	.LANCHOR0+20
 545              		.cfi_endproc
 546              	.LFE259:
 547              		.size	Vector88, .-Vector88
 548              		.section	.text.adc_lld_init,"ax",%progbits
 549              		.align	1
 550              		.p2align 4,,15
 551              		.global	adc_lld_init
 552              		.syntax unified
 553              		.thumb
 554              		.thumb_func
 555              		.fpu softvfp
 556              		.type	adc_lld_init, %function
 557              	adc_lld_init:
 558              	.LFB260:
 559              		.loc 1 170 0
 560              		.cfi_startproc
 561              		@ args = 0, pretend = 0, frame = 0
 562              		@ frame_needed = 0, uses_anonymous_args = 0
 563 0000 10B5     		push	{r4, lr}
 564              		.cfi_def_cfa_offset 8
 565              		.cfi_offset 4, -8
 566              		.cfi_offset 14, -4
 567              		.loc 1 174 0
 568 0002 084C     		ldr	r4, .L55
 569 0004 2046     		mov	r0, r4
 570 0006 FFF7FEFF 		bl	adcObjectInit
ARM GAS  /tmp/ccrbn9dS.s 			page 11


 571              	.LVL41:
 572              		.loc 1 175 0
 573 000a 0749     		ldr	r1, .L55+4
 574              		.loc 1 176 0
 575 000c 074A     		ldr	r2, .L55+8
 576              		.loc 1 177 0
 577 000e 084B     		ldr	r3, .L55+12
 578              		.loc 1 175 0
 579 0010 A162     		str	r1, [r4, #40]
 580              		.loc 1 176 0
 581 0012 E262     		str	r2, [r4, #44]
 582              		.loc 1 177 0
 583 0014 2363     		str	r3, [r4, #48]
 584              		.loc 1 213 0
 585 0016 0621     		movs	r1, #6
 586 0018 1220     		movs	r0, #18
 587              		.loc 1 214 0
 588 001a BDE81040 		pop	{r4, lr}
 589              		.cfi_restore 14
 590              		.cfi_restore 4
 591              		.cfi_def_cfa_offset 0
 592              		.loc 1 213 0
 593 001e FFF7FEBF 		b	nvicEnableVector
 594              	.LVL42:
 595              	.L56:
 596 0022 00BF     		.align	2
 597              	.L55:
 598 0024 00000000 		.word	.LANCHOR0
 599 0028 00200140 		.word	1073815552
 600 002c 90000000 		.word	_stm32_dma_streams+144
 601 0030 162C0200 		.word	142358
 602              		.cfi_endproc
 603              	.LFE260:
 604              		.size	adc_lld_init, .-adc_lld_init
 605              		.section	.text.adc_lld_start,"ax",%progbits
 606              		.align	1
 607              		.p2align 4,,15
 608              		.global	adc_lld_start
 609              		.syntax unified
 610              		.thumb
 611              		.thumb_func
 612              		.fpu softvfp
 613              		.type	adc_lld_start, %function
 614              	adc_lld_start:
 615              	.LFB261:
 616              		.loc 1 223 0
 617              		.cfi_startproc
 618              		@ args = 0, pretend = 0, frame = 0
 619              		@ frame_needed = 0, uses_anonymous_args = 0
 620              	.LVL43:
 621              		.loc 1 226 0
 622 0000 0378     		ldrb	r3, [r0]	@ zero_extendqisi2
 623 0002 012B     		cmp	r3, #1
 624 0004 00D0     		beq	.L64
 625 0006 7047     		bx	lr
 626              	.L64:
 627              		.loc 1 228 0
ARM GAS  /tmp/ccrbn9dS.s 			page 12


 628 0008 114B     		ldr	r3, .L66
 629 000a 9842     		cmp	r0, r3
 630              		.loc 1 223 0
 631 000c 10B5     		push	{r4, lr}
 632              		.cfi_def_cfa_offset 8
 633              		.cfi_offset 4, -8
 634              		.cfi_offset 14, -4
 635 000e 0446     		mov	r4, r0
 636              		.loc 1 228 0
 637 0010 0DD0     		beq	.L65
 638              	.LVL44:
 639              	.L59:
 640              		.loc 1 268 0
 641 0012 1048     		ldr	r0, .L66+4
 642              		.loc 1 273 0
 643 0014 A26A     		ldr	r2, [r4, #40]
 644              		.loc 1 268 0
 645 0016 4368     		ldr	r3, [r0, #4]
 646 0018 03F44003 		and	r3, r3, #12582912
 647              		.loc 1 273 0
 648 001c 0021     		movs	r1, #0
 649              		.loc 1 268 0
 650 001e 43F48033 		orr	r3, r3, #65536
 651              		.loc 1 275 0
 652 0022 0124     		movs	r4, #1
 653              	.LVL45:
 654              		.loc 1 268 0
 655 0024 4360     		str	r3, [r0, #4]
 656              		.loc 1 273 0
 657 0026 5160     		str	r1, [r2, #4]
 658              		.loc 1 274 0
 659 0028 9160     		str	r1, [r2, #8]
 660              		.loc 1 275 0
 661 002a 9460     		str	r4, [r2, #8]
 662 002c 10BD     		pop	{r4, pc}
 663              	.LVL46:
 664              	.L65:
 665              	.LBB149:
 666              		.loc 1 230 0
 667 002e 0346     		mov	r3, r0
 668 0030 094A     		ldr	r2, .L66+8
 669 0032 C06A     		ldr	r0, [r0, #44]
 670              	.LVL47:
 671 0034 0621     		movs	r1, #6
 672 0036 FFF7FEFF 		bl	dmaStreamAllocate
 673              	.LVL48:
 674              		.loc 1 235 0
 675 003a E36A     		ldr	r3, [r4, #44]
 676              		.loc 1 236 0
 677 003c 074A     		ldr	r2, .L66+12
 678              		.loc 1 235 0
 679 003e 1B68     		ldr	r3, [r3]
 680 0040 0749     		ldr	r1, .L66+16
 681 0042 9960     		str	r1, [r3, #8]
 682              		.loc 1 236 0
 683 0044 536C     		ldr	r3, [r2, #68]
 684 0046 43F48073 		orr	r3, r3, #256
ARM GAS  /tmp/ccrbn9dS.s 			page 13


 685 004a 5364     		str	r3, [r2, #68]
 686 004c E1E7     		b	.L59
 687              	.L67:
 688 004e 00BF     		.align	2
 689              	.L66:
 690 0050 00000000 		.word	.LANCHOR0
 691 0054 00230140 		.word	1073816320
 692 0058 00000000 		.word	adc_lld_serve_rx_interrupt
 693 005c 00380240 		.word	1073887232
 694 0060 4C200140 		.word	1073815628
 695              	.LBE149:
 696              		.cfi_endproc
 697              	.LFE261:
 698              		.size	adc_lld_start, .-adc_lld_start
 699              		.section	.text.adc_lld_stop,"ax",%progbits
 700              		.align	1
 701              		.p2align 4,,15
 702              		.global	adc_lld_stop
 703              		.syntax unified
 704              		.thumb
 705              		.thumb_func
 706              		.fpu softvfp
 707              		.type	adc_lld_stop, %function
 708              	adc_lld_stop:
 709              	.LFB262:
 710              		.loc 1 286 0
 711              		.cfi_startproc
 712              		@ args = 0, pretend = 0, frame = 0
 713              		@ frame_needed = 0, uses_anonymous_args = 0
 714              	.LVL49:
 715              		.loc 1 289 0
 716 0000 0378     		ldrb	r3, [r0]	@ zero_extendqisi2
 717 0002 022B     		cmp	r3, #2
 718 0004 00D0     		beq	.L76
 719 0006 7047     		bx	lr
 720              	.L76:
 721              		.loc 1 286 0
 722 0008 10B5     		push	{r4, lr}
 723              		.cfi_def_cfa_offset 8
 724              		.cfi_offset 4, -8
 725              		.cfi_offset 14, -4
 726 000a 0446     		mov	r4, r0
 727              		.loc 1 290 0
 728 000c C06A     		ldr	r0, [r0, #44]
 729              	.LVL50:
 730 000e FFF7FEFF 		bl	dmaStreamRelease
 731              	.LVL51:
 732              		.loc 1 295 0
 733 0012 0749     		ldr	r1, .L78
 734              		.loc 1 291 0
 735 0014 A36A     		ldr	r3, [r4, #40]
 736 0016 0022     		movs	r2, #0
 737              		.loc 1 295 0
 738 0018 8C42     		cmp	r4, r1
 739              		.loc 1 291 0
 740 001a 5A60     		str	r2, [r3, #4]
 741              		.loc 1 292 0
ARM GAS  /tmp/ccrbn9dS.s 			page 14


 742 001c 9A60     		str	r2, [r3, #8]
 743              		.loc 1 295 0
 744 001e 00D0     		beq	.L77
 745              	.L68:
 746 0020 10BD     		pop	{r4, pc}
 747              	.LVL52:
 748              	.L77:
 749              		.loc 1 296 0
 750 0022 044A     		ldr	r2, .L78+4
 751 0024 536C     		ldr	r3, [r2, #68]
 752 0026 23F48073 		bic	r3, r3, #256
 753 002a 5364     		str	r3, [r2, #68]
 754              		.loc 1 309 0
 755 002c F8E7     		b	.L68
 756              	.L79:
 757 002e 00BF     		.align	2
 758              	.L78:
 759 0030 00000000 		.word	.LANCHOR0
 760 0034 00380240 		.word	1073887232
 761              		.cfi_endproc
 762              	.LFE262:
 763              		.size	adc_lld_stop, .-adc_lld_stop
 764              		.section	.text.adc_lld_start_conversion,"ax",%progbits
 765              		.align	1
 766              		.p2align 4,,15
 767              		.global	adc_lld_start_conversion
 768              		.syntax unified
 769              		.thumb
 770              		.thumb_func
 771              		.fpu softvfp
 772              		.type	adc_lld_start_conversion, %function
 773              	adc_lld_start_conversion:
 774              	.LFB263:
 775              		.loc 1 318 0
 776              		.cfi_startproc
 777              		@ args = 0, pretend = 0, frame = 0
 778              		@ frame_needed = 0, uses_anonymous_args = 0
 779              		@ link register save eliminated.
 780              	.LVL53:
 781              		.loc 1 321 0
 782 0000 0369     		ldr	r3, [r0, #16]
 783              	.LVL54:
 784              		.loc 1 325 0
 785 0002 1A78     		ldrb	r2, [r3]	@ zero_extendqisi2
 786              		.loc 1 318 0
 787 0004 F0B4     		push	{r4, r5, r6, r7}
 788              		.cfi_def_cfa_offset 16
 789              		.cfi_offset 4, -16
 790              		.cfi_offset 5, -12
 791              		.cfi_offset 6, -8
 792              		.cfi_offset 7, -4
 793              		.loc 1 324 0
 794 0006 056B     		ldr	r5, [r0, #48]
 795              	.LVL55:
 796              		.loc 1 325 0
 797 0008 002A     		cmp	r2, #0
 798 000a 2AD1     		bne	.L81
ARM GAS  /tmp/ccrbn9dS.s 			page 15


 799 000c C268     		ldr	r2, [r0, #12]
 800              	.L82:
 801              		.loc 1 333 0
 802 000e C46A     		ldr	r4, [r0, #44]
 803              		.loc 1 334 0
 804 0010 5988     		ldrh	r1, [r3, #2]
 805              		.loc 1 333 0
 806 0012 2468     		ldr	r4, [r4]
 807 0014 8668     		ldr	r6, [r0, #8]
 808 0016 E660     		str	r6, [r4, #12]
 809              		.loc 1 334 0
 810 0018 02FB01F2 		mul	r2, r2, r1
 811 001c 6260     		str	r2, [r4, #4]
 812              		.loc 1 348 0
 813 001e D968     		ldr	r1, [r3, #12]
 814              		.loc 1 336 0
 815 0020 2560     		str	r5, [r4]
 816              		.loc 1 337 0
 817 0022 2568     		ldr	r5, [r4]
 818              	.LVL56:
 819              		.loc 1 340 0
 820 0024 826A     		ldr	r2, [r0, #40]
 821              		.loc 1 341 0
 822 0026 5F69     		ldr	r7, [r3, #20]
 823              		.loc 1 351 0
 824 0028 1869     		ldr	r0, [r3, #16]
 825              	.LVL57:
 826              		.loc 1 342 0
 827 002a 9E69     		ldr	r6, [r3, #24]
 828              		.loc 1 337 0
 829 002c 45F00105 		orr	r5, r5, #1
 830 0030 2560     		str	r5, [r4]
 831              	.LVL58:
 832              		.loc 1 340 0
 833 0032 0024     		movs	r4, #0
 834              		.loc 1 343 0
 835 0034 DD69     		ldr	r5, [r3, #28]
 836              		.loc 1 340 0
 837 0036 1460     		str	r4, [r2]
 838              		.loc 1 348 0
 839 0038 41F08061 		orr	r1, r1, #67108864
 840              		.loc 1 344 0
 841 003c 1C6A     		ldr	r4, [r3, #32]
 842              		.loc 1 345 0
 843 003e 5B6A     		ldr	r3, [r3, #36]
 844              	.LVL59:
 845              		.loc 1 341 0
 846 0040 D760     		str	r7, [r2, #12]
 847              		.loc 1 348 0
 848 0042 41F48071 		orr	r1, r1, #256
 849              		.loc 1 342 0
 850 0046 1661     		str	r6, [r2, #16]
 851              		.loc 1 343 0
 852 0048 D562     		str	r5, [r2, #44]
 853              		.loc 1 344 0
 854 004a 1463     		str	r4, [r2, #48]
 855              		.loc 1 345 0
ARM GAS  /tmp/ccrbn9dS.s 			page 16


 856 004c 5363     		str	r3, [r2, #52]
 857              		.loc 1 355 0
 858 004e 4300     		lsls	r3, r0, #1
 859              		.loc 1 348 0
 860 0050 5160     		str	r1, [r2, #4]
 861              		.loc 1 355 0
 862 0052 0ED4     		bmi	.L87
 863              		.loc 1 351 0
 864 0054 40F44070 		orr	r0, r0, #768
 865              	.LVL60:
 866 0058 40F00100 		orr	r0, r0, #1
 867              		.loc 1 363 0
 868 005c 9060     		str	r0, [r2, #8]
 869              	.LVL61:
 870              		.loc 1 364 0
 871 005e F0BC     		pop	{r4, r5, r6, r7}
 872              		.cfi_remember_state
 873              		.cfi_restore 7
 874              		.cfi_restore 6
 875              		.cfi_restore 5
 876              		.cfi_restore 4
 877              		.cfi_def_cfa_offset 0
 878 0060 7047     		bx	lr
 879              	.LVL62:
 880              	.L81:
 881              		.cfi_restore_state
 882              		.loc 1 327 0
 883 0062 C268     		ldr	r2, [r0, #12]
 884 0064 012A     		cmp	r2, #1
 885              		.loc 1 326 0
 886 0066 94BF     		ite	ls
 887 0068 45F48075 		orrls	r5, r5, #256
 888              	.LVL63:
 889              		.loc 1 330 0
 890 006c 45F48475 		orrhi	r5, r5, #264
 891              	.LVL64:
 892 0070 CDE7     		b	.L82
 893              	.LVL65:
 894              	.L87:
 895              		.loc 1 357 0
 896 0072 20F08043 		bic	r3, r0, #1073741824
 897 0076 40F20331 		movw	r1, #771
 898 007a 23F00203 		bic	r3, r3, #2
 899 007e 0B43     		orrs	r3, r3, r1
 900              		.loc 1 360 0
 901 0080 0843     		orrs	r0, r0, r1
 902              	.LVL66:
 903              		.loc 1 357 0
 904 0082 9360     		str	r3, [r2, #8]
 905              		.loc 1 364 0
 906 0084 F0BC     		pop	{r4, r5, r6, r7}
 907              		.cfi_restore 4
 908              		.cfi_restore 5
 909              		.cfi_restore 6
 910              		.cfi_restore 7
 911              		.cfi_def_cfa_offset 0
 912              		.loc 1 360 0
ARM GAS  /tmp/ccrbn9dS.s 			page 17


 913 0086 9060     		str	r0, [r2, #8]
 914              	.LVL67:
 915              		.loc 1 364 0
 916 0088 7047     		bx	lr
 917              		.cfi_endproc
 918              	.LFE263:
 919              		.size	adc_lld_start_conversion, .-adc_lld_start_conversion
 920 008a 00BF     		.section	.text.adc_lld_stop_conversion,"ax",%progbits
 921              		.align	1
 922              		.p2align 4,,15
 923              		.global	adc_lld_stop_conversion
 924              		.syntax unified
 925              		.thumb
 926              		.thumb_func
 927              		.fpu softvfp
 928              		.type	adc_lld_stop_conversion, %function
 929              	adc_lld_stop_conversion:
 930              	.LFB264:
 931              		.loc 1 373 0
 932              		.cfi_startproc
 933              		@ args = 0, pretend = 0, frame = 0
 934              		@ frame_needed = 0, uses_anonymous_args = 0
 935              		@ link register save eliminated.
 936              	.LVL68:
 937 0000 30B4     		push	{r4, r5}
 938              		.cfi_def_cfa_offset 8
 939              		.cfi_offset 4, -8
 940              		.cfi_offset 5, -4
 941              		.loc 1 375 0
 942 0002 C46A     		ldr	r4, [r0, #44]
 943 0004 2268     		ldr	r2, [r4]
 944 0006 1368     		ldr	r3, [r2]
 945 0008 23F01F03 		bic	r3, r3, #31
 946 000c 1360     		str	r3, [r2]
 947              	.L89:
 948              		.loc 1 375 0 is_stmt 0 discriminator 2
 949 000e 1368     		ldr	r3, [r2]
 950 0010 13F00103 		ands	r3, r3, #1
 951 0014 FBD1     		bne	.L89
 952              		.loc 1 375 0 discriminator 3
 953 0016 257A     		ldrb	r5, [r4, #8]	@ zero_extendqisi2
 954              		.loc 1 376 0 is_stmt 1 discriminator 3
 955 0018 826A     		ldr	r2, [r0, #40]
 956              		.loc 1 375 0 discriminator 3
 957 001a 6468     		ldr	r4, [r4, #4]
 958 001c 3D21     		movs	r1, #61
 959 001e A940     		lsls	r1, r1, r5
 960              		.loc 1 378 0 discriminator 3
 961 0020 0120     		movs	r0, #1
 962              	.LVL69:
 963              		.loc 1 375 0 discriminator 3
 964 0022 2160     		str	r1, [r4]
 965              		.loc 1 376 0 discriminator 3
 966 0024 5360     		str	r3, [r2, #4]
 967              		.loc 1 379 0 discriminator 3
 968 0026 30BC     		pop	{r4, r5}
 969              		.cfi_restore 5
ARM GAS  /tmp/ccrbn9dS.s 			page 18


 970              		.cfi_restore 4
 971              		.cfi_def_cfa_offset 0
 972              		.loc 1 377 0 discriminator 3
 973 0028 9360     		str	r3, [r2, #8]
 974              		.loc 1 378 0 discriminator 3
 975 002a 9060     		str	r0, [r2, #8]
 976              		.loc 1 379 0 discriminator 3
 977 002c 7047     		bx	lr
 978              		.cfi_endproc
 979              	.LFE264:
 980              		.size	adc_lld_stop_conversion, .-adc_lld_stop_conversion
 981 002e 00BF     		.section	.text.adcSTM32EnableTSVREFE,"ax",%progbits
 982              		.align	1
 983              		.p2align 4,,15
 984              		.global	adcSTM32EnableTSVREFE
 985              		.syntax unified
 986              		.thumb
 987              		.thumb_func
 988              		.fpu softvfp
 989              		.type	adcSTM32EnableTSVREFE, %function
 990              	adcSTM32EnableTSVREFE:
 991              	.LFB265:
 992              		.loc 1 387 0
 993              		.cfi_startproc
 994              		@ args = 0, pretend = 0, frame = 0
 995              		@ frame_needed = 0, uses_anonymous_args = 0
 996              		@ link register save eliminated.
 997              		.loc 1 389 0
 998 0000 024A     		ldr	r2, .L93
 999 0002 5368     		ldr	r3, [r2, #4]
 1000 0004 43F40003 		orr	r3, r3, #8388608
 1001 0008 5360     		str	r3, [r2, #4]
 1002 000a 7047     		bx	lr
 1003              	.L94:
 1004              		.align	2
 1005              	.L93:
 1006 000c 00230140 		.word	1073816320
 1007              		.cfi_endproc
 1008              	.LFE265:
 1009              		.size	adcSTM32EnableTSVREFE, .-adcSTM32EnableTSVREFE
 1010              		.section	.text.adcSTM32DisableTSVREFE,"ax",%progbits
 1011              		.align	1
 1012              		.p2align 4,,15
 1013              		.global	adcSTM32DisableTSVREFE
 1014              		.syntax unified
 1015              		.thumb
 1016              		.thumb_func
 1017              		.fpu softvfp
 1018              		.type	adcSTM32DisableTSVREFE, %function
 1019              	adcSTM32DisableTSVREFE:
 1020              	.LFB266:
 1021              		.loc 1 398 0
 1022              		.cfi_startproc
 1023              		@ args = 0, pretend = 0, frame = 0
 1024              		@ frame_needed = 0, uses_anonymous_args = 0
 1025              		@ link register save eliminated.
 1026              		.loc 1 400 0
ARM GAS  /tmp/ccrbn9dS.s 			page 19


 1027 0000 024A     		ldr	r2, .L96
 1028 0002 5368     		ldr	r3, [r2, #4]
 1029 0004 23F40003 		bic	r3, r3, #8388608
 1030 0008 5360     		str	r3, [r2, #4]
 1031 000a 7047     		bx	lr
 1032              	.L97:
 1033              		.align	2
 1034              	.L96:
 1035 000c 00230140 		.word	1073816320
 1036              		.cfi_endproc
 1037              	.LFE266:
 1038              		.size	adcSTM32DisableTSVREFE, .-adcSTM32DisableTSVREFE
 1039              		.section	.text.adcSTM32EnableVBATE,"ax",%progbits
 1040              		.align	1
 1041              		.p2align 4,,15
 1042              		.global	adcSTM32EnableVBATE
 1043              		.syntax unified
 1044              		.thumb
 1045              		.thumb_func
 1046              		.fpu softvfp
 1047              		.type	adcSTM32EnableVBATE, %function
 1048              	adcSTM32EnableVBATE:
 1049              	.LFB267:
 1050              		.loc 1 409 0
 1051              		.cfi_startproc
 1052              		@ args = 0, pretend = 0, frame = 0
 1053              		@ frame_needed = 0, uses_anonymous_args = 0
 1054              		@ link register save eliminated.
 1055              		.loc 1 411 0
 1056 0000 024A     		ldr	r2, .L99
 1057 0002 5368     		ldr	r3, [r2, #4]
 1058 0004 43F48003 		orr	r3, r3, #4194304
 1059 0008 5360     		str	r3, [r2, #4]
 1060 000a 7047     		bx	lr
 1061              	.L100:
 1062              		.align	2
 1063              	.L99:
 1064 000c 00230140 		.word	1073816320
 1065              		.cfi_endproc
 1066              	.LFE267:
 1067              		.size	adcSTM32EnableVBATE, .-adcSTM32EnableVBATE
 1068              		.section	.text.adcSTM32DisableVBATE,"ax",%progbits
 1069              		.align	1
 1070              		.p2align 4,,15
 1071              		.global	adcSTM32DisableVBATE
 1072              		.syntax unified
 1073              		.thumb
 1074              		.thumb_func
 1075              		.fpu softvfp
 1076              		.type	adcSTM32DisableVBATE, %function
 1077              	adcSTM32DisableVBATE:
 1078              	.LFB268:
 1079              		.loc 1 420 0
 1080              		.cfi_startproc
 1081              		@ args = 0, pretend = 0, frame = 0
 1082              		@ frame_needed = 0, uses_anonymous_args = 0
 1083              		@ link register save eliminated.
ARM GAS  /tmp/ccrbn9dS.s 			page 20


 1084              		.loc 1 422 0
 1085 0000 024A     		ldr	r2, .L102
 1086 0002 5368     		ldr	r3, [r2, #4]
 1087 0004 23F48003 		bic	r3, r3, #4194304
 1088 0008 5360     		str	r3, [r2, #4]
 1089 000a 7047     		bx	lr
 1090              	.L103:
 1091              		.align	2
 1092              	.L102:
 1093 000c 00230140 		.word	1073816320
 1094              		.cfi_endproc
 1095              	.LFE268:
 1096              		.size	adcSTM32DisableVBATE, .-adcSTM32DisableVBATE
 1097              		.global	ADCD1
 1098              		.section	.bss.ADCD1,"aw",%nobits
 1099              		.align	2
 1100              		.set	.LANCHOR0,. + 0
 1101              		.type	ADCD1, %object
 1102              		.size	ADCD1, 52
 1103              	ADCD1:
 1104 0000 00000000 		.space	52
 1104      00000000 
 1104      00000000 
 1104      00000000 
 1104      00000000 
 1105              		.text
 1106              	.Letext0:
 1107              		.file 4 "/usr/lib/gcc/arm-none-eabi/6.2.1/include/stddef.h"
 1108              		.file 5 "/usr/arm-none-eabi/include/machine/_default_types.h"
 1109              		.file 6 "/usr/arm-none-eabi/include/sys/_stdint.h"
 1110              		.file 7 "/home/selim/working/ChibiOS/os/rt/ports/ARMCMx/compilers/GCC/chtypes.h"
 1111              		.file 8 "/home/selim/working/ChibiOS/os/rt/include/chsystypes.h"
 1112              		.file 9 "/home/selim/working/ChibiOS/os/rt/include/chschd.h"
 1113              		.file 10 "/home/selim/working/ChibiOS/os/ext/CMSIS/include/core_cm4.h"
 1114              		.file 11 "/home/selim/working/ChibiOS/os/ext/CMSIS/ST/system_stm32f4xx.h"
 1115              		.file 12 "/home/selim/working/ChibiOS/os/ext/CMSIS/ST/stm32f407xx.h"
 1116              		.file 13 "/home/selim/working/ChibiOS/os/rt/ports/ARMCMx/chcore.h"
 1117              		.file 14 "/home/selim/working/ChibiOS/os/rt/ports/ARMCMx/chcore_v7m.h"
 1118              		.file 15 "/home/selim/working/ChibiOS/os/hal/ports/STM32/LLD/TIMv1/stm32_tim.h"
 1119              		.file 16 "/home/selim/working/ChibiOS/os/rt/include/chtm.h"
 1120              		.file 17 "/home/selim/working/ChibiOS/os/rt/include/chsem.h"
 1121              		.file 18 "/home/selim/working/ChibiOS/os/rt/include/chmtx.h"
 1122              		.file 19 "/home/selim/working/ChibiOS/os/rt/include/chregistry.h"
 1123              		.file 20 "/home/selim/working/ChibiOS/os/rt/include/chevents.h"
 1124              		.file 21 "/home/selim/working/ChibiOS/os/rt/include/chqueues.h"
 1125              		.file 22 "/home/selim/working/ChibiOS/os/hal/ports/STM32/STM32F4xx/stm32_dma.h"
 1126              		.file 23 "/home/selim/working/ChibiOS/os/hal/ports/STM32/LLD/GPIOv2/pal_lld.h"
 1127              		.file 24 "/home/selim/working/ChibiOS/os/hal/include/adc.h"
 1128              		.file 25 "/home/selim/working/ChibiOS/os/hal/ports/STM32/STM32F4xx/adc_lld.h"
 1129              		.file 26 "/home/selim/working/ChibiOS/os/hal/include/gpt.h"
 1130              		.file 27 "/home/selim/working/ChibiOS/os/hal/ports/STM32/LLD/TIMv1/gpt_lld.h"
 1131              		.file 28 "/home/selim/working/ChibiOS/os/hal/include/pwm.h"
 1132              		.file 29 "/home/selim/working/ChibiOS/os/hal/ports/STM32/LLD/TIMv1/pwm_lld.h"
 1133              		.file 30 "/home/selim/working/ChibiOS/os/hal/include/serial.h"
 1134              		.file 31 "/home/selim/working/ChibiOS/os/hal/ports/STM32/LLD/USARTv1/serial_lld.h"
 1135              		.file 32 "/home/selim/working/ChibiOS/os/hal/include/spi.h"
 1136              		.file 33 "/home/selim/working/ChibiOS/os/hal/ports/STM32/LLD/SPIv1/spi_lld.h"
ARM GAS  /tmp/ccrbn9dS.s 			page 21


 1137              		.file 34 "/home/selim/working/ChibiOS/os/hal/include/usb.h"
 1138              		.file 35 "/home/selim/working/ChibiOS/os/hal/ports/STM32/LLD/OTGv1/usb_lld.h"
 1139              		.file 36 "/home/selim/working/ChibiOS/os/hal/ports/STM32/LLD/OTGv1/stm32_otg.h"
 1140              		.file 37 "/home/selim/working/ChibiOS/os/rt/include/chsys.h"
 1141              		.file 38 "/home/selim/working/ChibiOS/os/hal/ports/common/ARMCMx/nvic.h"
 1142              		.file 39 "/home/selim/working/ChibiOS/os/rt/include/chthreads.h"