ARM GAS  /tmp/cckVA5ra.s 			page 1


   1              		.cpu cortex-m4
   2              		.eabi_attribute 20, 1
   3              		.eabi_attribute 21, 1
   4              		.eabi_attribute 23, 3
   5              		.eabi_attribute 24, 1
   6              		.eabi_attribute 25, 1
   7              		.eabi_attribute 26, 1
   8              		.eabi_attribute 30, 2
   9              		.eabi_attribute 34, 1
  10              		.eabi_attribute 18, 4
  11              		.file	"chcore_v7m.c"
  12              		.text
  13              	.Ltext0:
  14              		.cfi_sections	.debug_frame
  15              		.section	.text.SVC_Handler,"ax",%progbits
  16              		.align	1
  17              		.p2align 4,,15
  18              		.global	SVC_Handler
  19              		.syntax unified
  20              		.thumb
  21              		.thumb_func
  22              		.fpu softvfp
  23              		.type	SVC_Handler, %function
  24              	SVC_Handler:
  25              	.LFB227:
  26              		.file 1 "/home/selim/working/ChibiOS/os/rt/ports/ARMCMx/chcore_v7m.c"
  27              		.loc 1 62 0
  28              		.cfi_startproc
  29              		@ args = 0, pretend = 0, frame = 0
  30              		@ frame_needed = 1, uses_anonymous_args = 0
  31              		@ link register save eliminated.
  32 0000 80B4     		push	{r7}
  33              		.cfi_def_cfa_offset 4
  34              		.cfi_offset 7, -4
  35 0002 00AF     		add	r7, sp, #0
  36              		.cfi_def_cfa_register 7
  37              	.LBB47:
  38              	.LBB48:
  39              		.file 2 "/home/selim/working/ChibiOS/os/ext/CMSIS/include/core_cmFunc.h"
  40              		.loc 2 428 0
  41              		.syntax unified
  42              	@ 428 "/home/selim/working/ChibiOS/os/ext/CMSIS/include/core_cmFunc.h" 1
  43 0004 EFF30983 		MRS r3, psp
  44              	
  45              	@ 0 "" 2
  46              	.LVL0:
  47              		.thumb
  48              		.syntax unified
  49              	.LBE48:
  50              	.LBE47:
  51              		.loc 1 76 0
  52 0008 2033     		adds	r3, r3, #32
  53              	.LVL1:
  54              	.LBB49:
  55              	.LBB50:
  56              		.loc 2 441 0
  57              		.syntax unified
ARM GAS  /tmp/cckVA5ra.s 			page 2


  58              	@ 441 "/home/selim/working/ChibiOS/os/ext/CMSIS/include/core_cmFunc.h" 1
  59 000a 83F30988 		MSR psp, r3
  60              	
  61              	@ 0 "" 2
  62              	.LVL2:
  63              		.thumb
  64              		.syntax unified
  65              	.LBE50:
  66              	.LBE49:
  67              	.LBB51:
  68              	.LBB52:
  69              	.LBB53:
  70              	.LBB54:
  71              		.loc 2 546 0
  72 000e 0023     		movs	r3, #0
  73              	.LVL3:
  74              		.syntax unified
  75              	@ 546 "/home/selim/working/ChibiOS/os/ext/CMSIS/include/core_cmFunc.h" 1
  76 0010 83F31188 		MSR basepri, r3
  77              	@ 0 "" 2
  78              	.LVL4:
  79              		.thumb
  80              		.syntax unified
  81              	.LBE54:
  82              	.LBE53:
  83              	.LBE52:
  84              	.LBE51:
  85              		.loc 1 83 0
  86 0014 BD46     		mov	sp, r7
  87              		.cfi_def_cfa_register 13
  88              		@ sp needed
  89 0016 80BC     		pop	{r7}
  90              		.cfi_restore 7
  91              		.cfi_def_cfa_offset 0
  92 0018 7047     		bx	lr
  93              		.cfi_endproc
  94              	.LFE227:
  95              		.size	SVC_Handler, .-SVC_Handler
  96 001a 00BF     		.section	.text._port_irq_epilogue,"ax",%progbits
  97              		.align	1
  98              		.p2align 4,,15
  99              		.global	_port_irq_epilogue
 100              		.syntax unified
 101              		.thumb
 102              		.thumb_func
 103              		.fpu softvfp
 104              		.type	_port_irq_epilogue, %function
 105              	_port_irq_epilogue:
 106              	.LFB228:
 107              		.loc 1 122 0
 108              		.cfi_startproc
 109              		@ args = 0, pretend = 0, frame = 0
 110              		@ frame_needed = 1, uses_anonymous_args = 0
 111              	.LVL5:
 112 0000 98B5     		push	{r3, r4, r7, lr}
 113              		.cfi_def_cfa_offset 16
 114              		.cfi_offset 3, -16
ARM GAS  /tmp/cckVA5ra.s 			page 3


 115              		.cfi_offset 4, -12
 116              		.cfi_offset 7, -8
 117              		.cfi_offset 14, -4
 118              	.LBB55:
 119              	.LBB56:
 120              	.LBB57:
 121              	.LBB58:
 122              		.loc 2 546 0
 123 0002 2023     		movs	r3, #32
 124              	.LBE58:
 125              	.LBE57:
 126              	.LBE56:
 127              	.LBE55:
 128              		.loc 1 122 0
 129 0004 00AF     		add	r7, sp, #0
 130              		.cfi_def_cfa_register 7
 131              	.LBB62:
 132              	.LBB61:
 133              	.LBB60:
 134              	.LBB59:
 135              		.loc 2 546 0
 136              		.syntax unified
 137              	@ 546 "/home/selim/working/ChibiOS/os/ext/CMSIS/include/core_cmFunc.h" 1
 138 0006 83F31188 		MSR basepri, r3
 139              	@ 0 "" 2
 140              	.LVL6:
 141              		.thumb
 142              		.syntax unified
 143              	.LBE59:
 144              	.LBE60:
 145              	.LBE61:
 146              	.LBE62:
 147              		.loc 1 125 0
 148 000a 0E4B     		ldr	r3, .L10
 149 000c 5B68     		ldr	r3, [r3, #4]
 150 000e 13F40063 		ands	r3, r3, #2048
 151 0012 02D1     		bne	.L9
 152              	.LVL7:
 153              	.LBB63:
 154              	.LBB64:
 155              	.LBB65:
 156              	.LBB66:
 157              		.loc 2 546 0
 158              		.syntax unified
 159              	@ 546 "/home/selim/working/ChibiOS/os/ext/CMSIS/include/core_cmFunc.h" 1
 160 0014 83F31188 		MSR basepri, r3
 161              	@ 0 "" 2
 162              	.LVL8:
 163              		.thumb
 164              		.syntax unified
 165 0018 98BD     		pop	{r3, r4, r7, pc}
 166              	.L9:
 167              	.LBE66:
 168              	.LBE65:
 169              	.LBE64:
 170              	.LBE63:
 171              	.LBB67:
ARM GAS  /tmp/cckVA5ra.s 			page 4


 172              	.LBB68:
 173              	.LBB69:
 174              		.loc 2 428 0
 175              		.syntax unified
 176              	@ 428 "/home/selim/working/ChibiOS/os/ext/CMSIS/include/core_cmFunc.h" 1
 177 001a EFF30984 		MRS r4, psp
 178              	
 179              	@ 0 "" 2
 180              	.LVL9:
 181              		.thumb
 182              		.syntax unified
 183              	.LBE69:
 184              	.LBE68:
 185              		.loc 1 141 0
 186 001e 4FF08073 		mov	r3, #16777216
 187 0022 44F8043C 		str	r3, [r4, #-4]
 188              	.LVL10:
 189              		.loc 1 138 0
 190 0026 A4F12003 		sub	r3, r4, #32
 191              	.LVL11:
 192              	.LBB70:
 193              	.LBB71:
 194              		.loc 2 441 0
 195              		.syntax unified
 196              	@ 441 "/home/selim/working/ChibiOS/os/ext/CMSIS/include/core_cmFunc.h" 1
 197 002a 83F30988 		MSR psp, r3
 198              	
 199              	@ 0 "" 2
 200              	.LVL12:
 201              		.thumb
 202              		.syntax unified
 203              	.LBE71:
 204              	.LBE70:
 205              		.loc 1 151 0
 206 002e FFF7FEFF 		bl	chSchIsPreemptionRequired
 207              	.LVL13:
 208 0032 18B1     		cbz	r0, .L5
 209              		.loc 1 153 0
 210 0034 044B     		ldr	r3, .L10+4
 211 0036 44F8083C 		str	r3, [r4, #-8]
 212 003a 98BD     		pop	{r3, r4, r7, pc}
 213              	.LVL14:
 214              	.L5:
 215              		.loc 1 158 0
 216 003c 034B     		ldr	r3, .L10+8
 217 003e 44F8083C 		str	r3, [r4, #-8]
 218 0042 98BD     		pop	{r3, r4, r7, pc}
 219              	.LVL15:
 220              	.L11:
 221              		.align	2
 222              	.L10:
 223 0044 00ED00E0 		.word	-536810240
 224 0048 00000000 		.word	_port_switch_from_isr
 225 004c 00000000 		.word	_port_exit_from_isr
 226              	.LBE67:
 227              		.cfi_endproc
 228              	.LFE228:
ARM GAS  /tmp/cckVA5ra.s 			page 5


 229              		.size	_port_irq_epilogue, .-_port_irq_epilogue
 230              		.text
 231              	.Letext0:
 232              		.file 3 "/usr/arm-none-eabi/include/machine/_default_types.h"
 233              		.file 4 "/usr/arm-none-eabi/include/sys/_stdint.h"
 234              		.file 5 "/home/selim/working/ChibiOS/os/rt/ports/ARMCMx/compilers/GCC/chtypes.h"
 235              		.file 6 "/home/selim/working/ChibiOS/os/rt/include/chsystypes.h"
 236              		.file 7 "/home/selim/working/ChibiOS/os/rt/include/chschd.h"
 237              		.file 8 "/home/selim/working/ChibiOS/os/ext/CMSIS/include/core_cm4.h"
 238              		.file 9 "/home/selim/working/ChibiOS/os/ext/CMSIS/ST/system_stm32f4xx.h"
 239              		.file 10 "/home/selim/working/ChibiOS/os/rt/ports/ARMCMx/chcore.h"
 240              		.file 11 "/home/selim/working/ChibiOS/os/rt/ports/ARMCMx/chcore_v7m.h"
 241              		.file 12 "/home/selim/working/ChibiOS/os/rt/include/chtm.h"
 242              		.file 13 "/home/selim/working/ChibiOS/os/rt/include/chsem.h"
 243              		.file 14 "/home/selim/working/ChibiOS/os/rt/include/chmtx.h"
 244              		.file 15 "/home/selim/working/ChibiOS/os/rt/include/chregistry.h"
 245              		.section	.debug_info,"",%progbits
 246              	.Ldebug_info0:
 247 0000 8E0B0000 		.4byte	0xb8e
 248 0004 0400     		.2byte	0x4
 249 0006 00000000 		.4byte	.Ldebug_abbrev0
 250 000a 04       		.byte	0x4
 251 000b 01       		.uleb128 0x1
 252 000c 6F030000 		.4byte	.LASF156
 253 0010 0C       		.byte	0xc
 254 0011 85010000 		.4byte	.LASF157
 255 0015 18000000 		.4byte	.Ldebug_ranges0+0x18
 256 0019 00000000 		.4byte	0
 257 001d 00000000 		.4byte	.Ldebug_line0
 258 0021 02       		.uleb128 0x2
 259 0022 04       		.byte	0x4
 260 0023 05       		.byte	0x5
 261 0024 696E7400 		.ascii	"int\000"
 262 0028 03       		.uleb128 0x3
 263 0029 04       		.byte	0x4
 264 002a 07       		.byte	0x7
 265 002b 10020000 		.4byte	.LASF0
 266 002f 03       		.uleb128 0x3
 267 0030 08       		.byte	0x8
 268 0031 05       		.byte	0x5
 269 0032 C4000000 		.4byte	.LASF1
 270 0036 03       		.uleb128 0x3
 271 0037 08       		.byte	0x8
 272 0038 04       		.byte	0x4
 273 0039 63030000 		.4byte	.LASF2
 274 003d 03       		.uleb128 0x3
 275 003e 01       		.byte	0x1
 276 003f 06       		.byte	0x6
 277 0040 D2000000 		.4byte	.LASF3
 278 0044 04       		.uleb128 0x4
 279 0045 23000000 		.4byte	.LASF6
 280 0049 03       		.byte	0x3
 281 004a 2B       		.byte	0x2b
 282 004b 4F000000 		.4byte	0x4f
 283 004f 03       		.uleb128 0x3
 284 0050 01       		.byte	0x1
 285 0051 08       		.byte	0x8
ARM GAS  /tmp/cckVA5ra.s 			page 6


 286 0052 08050000 		.4byte	.LASF4
 287 0056 03       		.uleb128 0x3
 288 0057 02       		.byte	0x2
 289 0058 05       		.byte	0x5
 290 0059 33050000 		.4byte	.LASF5
 291 005d 04       		.uleb128 0x4
 292 005e 46060000 		.4byte	.LASF7
 293 0062 03       		.byte	0x3
 294 0063 39       		.byte	0x39
 295 0064 68000000 		.4byte	0x68
 296 0068 03       		.uleb128 0x3
 297 0069 02       		.byte	0x2
 298 006a 07       		.byte	0x7
 299 006b 7E050000 		.4byte	.LASF8
 300 006f 04       		.uleb128 0x4
 301 0070 E9020000 		.4byte	.LASF9
 302 0074 03       		.byte	0x3
 303 0075 4D       		.byte	0x4d
 304 0076 7A000000 		.4byte	0x7a
 305 007a 03       		.uleb128 0x3
 306 007b 04       		.byte	0x4
 307 007c 05       		.byte	0x5
 308 007d 28010000 		.4byte	.LASF10
 309 0081 04       		.uleb128 0x4
 310 0082 94060000 		.4byte	.LASF11
 311 0086 03       		.byte	0x3
 312 0087 4F       		.byte	0x4f
 313 0088 8C000000 		.4byte	0x8c
 314 008c 03       		.uleb128 0x3
 315 008d 04       		.byte	0x4
 316 008e 07       		.byte	0x7
 317 008f 28060000 		.4byte	.LASF12
 318 0093 04       		.uleb128 0x4
 319 0094 A4040000 		.4byte	.LASF13
 320 0098 03       		.byte	0x3
 321 0099 69       		.byte	0x69
 322 009a 9E000000 		.4byte	0x9e
 323 009e 03       		.uleb128 0x3
 324 009f 08       		.byte	0x8
 325 00a0 07       		.byte	0x7
 326 00a1 52000000 		.4byte	.LASF14
 327 00a5 04       		.uleb128 0x4
 328 00a6 25070000 		.4byte	.LASF15
 329 00aa 04       		.byte	0x4
 330 00ab 18       		.byte	0x18
 331 00ac 44000000 		.4byte	0x44
 332 00b0 05       		.uleb128 0x5
 333 00b1 A5000000 		.4byte	0xa5
 334 00b5 04       		.uleb128 0x4
 335 00b6 2F020000 		.4byte	.LASF16
 336 00ba 04       		.byte	0x4
 337 00bb 24       		.byte	0x24
 338 00bc 5D000000 		.4byte	0x5d
 339 00c0 04       		.uleb128 0x4
 340 00c1 00050000 		.4byte	.LASF17
 341 00c5 04       		.byte	0x4
 342 00c6 2C       		.byte	0x2c
ARM GAS  /tmp/cckVA5ra.s 			page 7


 343 00c7 6F000000 		.4byte	0x6f
 344 00cb 05       		.uleb128 0x5
 345 00cc C0000000 		.4byte	0xc0
 346 00d0 04       		.uleb128 0x4
 347 00d1 EA050000 		.4byte	.LASF18
 348 00d5 04       		.byte	0x4
 349 00d6 30       		.byte	0x30
 350 00d7 81000000 		.4byte	0x81
 351 00db 05       		.uleb128 0x5
 352 00dc D0000000 		.4byte	0xd0
 353 00e0 06       		.uleb128 0x6
 354 00e1 DB000000 		.4byte	0xdb
 355 00e5 04       		.uleb128 0x4
 356 00e6 1A000000 		.4byte	.LASF19
 357 00ea 04       		.byte	0x4
 358 00eb 3C       		.byte	0x3c
 359 00ec 93000000 		.4byte	0x93
 360 00f0 04       		.uleb128 0x4
 361 00f1 D3060000 		.4byte	.LASF20
 362 00f5 05       		.byte	0x5
 363 00f6 46       		.byte	0x46
 364 00f7 D0000000 		.4byte	0xd0
 365 00fb 04       		.uleb128 0x4
 366 00fc 5F050000 		.4byte	.LASF21
 367 0100 05       		.byte	0x5
 368 0101 49       		.byte	0x49
 369 0102 A5000000 		.4byte	0xa5
 370 0106 04       		.uleb128 0x4
 371 0107 31010000 		.4byte	.LASF22
 372 010b 05       		.byte	0x5
 373 010c 4A       		.byte	0x4a
 374 010d A5000000 		.4byte	0xa5
 375 0111 04       		.uleb128 0x4
 376 0112 AF040000 		.4byte	.LASF23
 377 0116 05       		.byte	0x5
 378 0117 4B       		.byte	0x4b
 379 0118 A5000000 		.4byte	0xa5
 380 011c 04       		.uleb128 0x4
 381 011d E8040000 		.4byte	.LASF24
 382 0121 05       		.byte	0x5
 383 0122 4D       		.byte	0x4d
 384 0123 D0000000 		.4byte	0xd0
 385 0127 04       		.uleb128 0x4
 386 0128 8A020000 		.4byte	.LASF25
 387 012c 05       		.byte	0x5
 388 012d 4E       		.byte	0x4e
 389 012e C0000000 		.4byte	0xc0
 390 0132 04       		.uleb128 0x4
 391 0133 CE020000 		.4byte	.LASF26
 392 0137 05       		.byte	0x5
 393 0138 50       		.byte	0x50
 394 0139 D0000000 		.4byte	0xd0
 395 013d 04       		.uleb128 0x4
 396 013e 0A020000 		.4byte	.LASF27
 397 0142 05       		.byte	0x5
 398 0143 52       		.byte	0x52
 399 0144 C0000000 		.4byte	0xc0
ARM GAS  /tmp/cckVA5ra.s 			page 8


 400 0148 04       		.uleb128 0x4
 401 0149 76060000 		.4byte	.LASF28
 402 014d 06       		.byte	0x6
 403 014e 33       		.byte	0x33
 404 014f D0000000 		.4byte	0xd0
 405 0153 04       		.uleb128 0x4
 406 0154 66060000 		.4byte	.LASF29
 407 0158 06       		.byte	0x6
 408 0159 3F       		.byte	0x3f
 409 015a 5E010000 		.4byte	0x15e
 410 015e 07       		.uleb128 0x7
 411 015f 7B020000 		.4byte	.LASF49
 412 0163 44       		.byte	0x44
 413 0164 07       		.byte	0x7
 414 0165 C2       		.byte	0xc2
 415 0166 4B020000 		.4byte	0x24b
 416 016a 08       		.uleb128 0x8
 417 016b 58050000 		.4byte	.LASF30
 418 016f 07       		.byte	0x7
 419 0170 C3       		.byte	0xc3
 420 0171 56020000 		.4byte	0x256
 421 0175 00       		.byte	0
 422 0176 08       		.uleb128 0x8
 423 0177 E1040000 		.4byte	.LASF31
 424 017b 07       		.byte	0x7
 425 017c C5       		.byte	0xc5
 426 017d 56020000 		.4byte	0x256
 427 0181 04       		.byte	0x4
 428 0182 08       		.uleb128 0x8
 429 0183 B8000000 		.4byte	.LASF32
 430 0187 07       		.byte	0x7
 431 0188 C7       		.byte	0xc7
 432 0189 1C010000 		.4byte	0x11c
 433 018d 08       		.byte	0x8
 434 018e 08       		.uleb128 0x8
 435 018f 6F040000 		.4byte	.LASF33
 436 0193 07       		.byte	0x7
 437 0194 C8       		.byte	0xc8
 438 0195 37060000 		.4byte	0x637
 439 0199 0C       		.byte	0xc
 440 019a 08       		.uleb128 0x8
 441 019b 75010000 		.4byte	.LASF34
 442 019f 07       		.byte	0x7
 443 01a0 CA       		.byte	0xca
 444 01a1 56020000 		.4byte	0x256
 445 01a5 10       		.byte	0x10
 446 01a6 08       		.uleb128 0x8
 447 01a7 61040000 		.4byte	.LASF35
 448 01ab 07       		.byte	0x7
 449 01ac CB       		.byte	0xcb
 450 01ad 56020000 		.4byte	0x256
 451 01b1 14       		.byte	0x14
 452 01b2 08       		.uleb128 0x8
 453 01b3 40070000 		.4byte	.LASF36
 454 01b7 07       		.byte	0x7
 455 01b8 D2       		.byte	0xd2
 456 01b9 1E080000 		.4byte	0x81e
ARM GAS  /tmp/cckVA5ra.s 			page 9


 457 01bd 18       		.byte	0x18
 458 01be 08       		.uleb128 0x8
 459 01bf 3D050000 		.4byte	.LASF37
 460 01c3 07       		.byte	0x7
 461 01c4 DD       		.byte	0xdd
 462 01c5 06010000 		.4byte	0x106
 463 01c9 1C       		.byte	0x1c
 464 01ca 08       		.uleb128 0x8
 465 01cb 76050000 		.4byte	.LASF38
 466 01cf 07       		.byte	0x7
 467 01d0 E1       		.byte	0xe1
 468 01d1 FB000000 		.4byte	0xfb
 469 01d5 1D       		.byte	0x1d
 470 01d6 08       		.uleb128 0x8
 471 01d7 13070000 		.4byte	.LASF39
 472 01db 07       		.byte	0x7
 473 01dc E6       		.byte	0xe6
 474 01dd 11010000 		.4byte	0x111
 475 01e1 1E       		.byte	0x1e
 476 01e2 09       		.uleb128 0x9
 477 01e3 705F7500 		.ascii	"p_u\000"
 478 01e7 07       		.byte	0x7
 479 01e8 3101     		.2byte	0x131
 480 01ea 59070000 		.4byte	0x759
 481 01ee 20       		.byte	0x20
 482 01ef 0A       		.uleb128 0xa
 483 01f0 21030000 		.4byte	.LASF40
 484 01f4 07       		.byte	0x7
 485 01f5 3601     		.2byte	0x136
 486 01f7 5C020000 		.4byte	0x25c
 487 01fb 24       		.byte	0x24
 488 01fc 0A       		.uleb128 0xa
 489 01fd 5C020000 		.4byte	.LASF41
 490 0201 07       		.byte	0x7
 491 0202 3C01     		.2byte	0x13c
 492 0204 80020000 		.4byte	0x280
 493 0208 28       		.byte	0x28
 494 0209 0A       		.uleb128 0xa
 495 020a 47070000 		.4byte	.LASF42
 496 020e 07       		.byte	0x7
 497 020f 4001     		.2byte	0x140
 498 0211 27010000 		.4byte	0x127
 499 0215 30       		.byte	0x30
 500 0216 0A       		.uleb128 0xa
 501 0217 DF050000 		.4byte	.LASF43
 502 021b 07       		.byte	0x7
 503 021c 4601     		.2byte	0x146
 504 021e 32010000 		.4byte	0x132
 505 0222 34       		.byte	0x34
 506 0223 0A       		.uleb128 0xa
 507 0224 29050000 		.4byte	.LASF44
 508 0228 07       		.byte	0x7
 509 0229 4D01     		.2byte	0x14d
 510 022b 18080000 		.4byte	0x818
 511 022f 38       		.byte	0x38
 512 0230 0A       		.uleb128 0xa
 513 0231 80060000 		.4byte	.LASF45
ARM GAS  /tmp/cckVA5ra.s 			page 10


 514 0235 07       		.byte	0x7
 515 0236 5101     		.2byte	0x151
 516 0238 1C010000 		.4byte	0x11c
 517 023c 3C       		.byte	0x3c
 518 023d 0A       		.uleb128 0xa
 519 023e FB000000 		.4byte	.LASF46
 520 0242 07       		.byte	0x7
 521 0243 5801     		.2byte	0x158
 522 0245 33030000 		.4byte	0x333
 523 0249 40       		.byte	0x40
 524 024a 00       		.byte	0
 525 024b 04       		.uleb128 0x4
 526 024c 39030000 		.4byte	.LASF47
 527 0250 06       		.byte	0x6
 528 0251 44       		.byte	0x44
 529 0252 56020000 		.4byte	0x256
 530 0256 0B       		.uleb128 0xb
 531 0257 04       		.byte	0x4
 532 0258 53010000 		.4byte	0x153
 533 025c 04       		.uleb128 0x4
 534 025d FE020000 		.4byte	.LASF48
 535 0261 06       		.byte	0x6
 536 0262 49       		.byte	0x49
 537 0263 67020000 		.4byte	0x267
 538 0267 07       		.uleb128 0x7
 539 0268 10060000 		.4byte	.LASF50
 540 026c 04       		.byte	0x4
 541 026d 07       		.byte	0x7
 542 026e B0       		.byte	0xb0
 543 026f 80020000 		.4byte	0x280
 544 0273 08       		.uleb128 0x8
 545 0274 58050000 		.4byte	.LASF30
 546 0278 07       		.byte	0x7
 547 0279 B1       		.byte	0xb1
 548 027a 56020000 		.4byte	0x256
 549 027e 00       		.byte	0
 550 027f 00       		.byte	0
 551 0280 04       		.uleb128 0x4
 552 0281 A4050000 		.4byte	.LASF51
 553 0285 06       		.byte	0x6
 554 0286 50       		.byte	0x50
 555 0287 8B020000 		.4byte	0x28b
 556 028b 07       		.uleb128 0x7
 557 028c A7000000 		.4byte	.LASF52
 558 0290 08       		.byte	0x8
 559 0291 07       		.byte	0x7
 560 0292 B7       		.byte	0xb7
 561 0293 B0020000 		.4byte	0x2b0
 562 0297 08       		.uleb128 0x8
 563 0298 58050000 		.4byte	.LASF30
 564 029c 07       		.byte	0x7
 565 029d B8       		.byte	0xb8
 566 029e 56020000 		.4byte	0x256
 567 02a2 00       		.byte	0
 568 02a3 08       		.uleb128 0x8
 569 02a4 E1040000 		.4byte	.LASF31
 570 02a8 07       		.byte	0x7
ARM GAS  /tmp/cckVA5ra.s 			page 11


 571 02a9 B9       		.byte	0xb9
 572 02aa 56020000 		.4byte	0x256
 573 02ae 04       		.byte	0x4
 574 02af 00       		.byte	0
 575 02b0 04       		.uleb128 0x4
 576 02b1 00000000 		.4byte	.LASF53
 577 02b5 06       		.byte	0x6
 578 02b6 57       		.byte	0x57
 579 02b7 BB020000 		.4byte	0x2bb
 580 02bb 0C       		.uleb128 0xc
 581 02bc C0020000 		.4byte	.LASF54
 582 02c0 1C       		.byte	0x1c
 583 02c1 07       		.byte	0x7
 584 02c2 9001     		.2byte	0x190
 585 02c4 17030000 		.4byte	0x317
 586 02c8 0A       		.uleb128 0xa
 587 02c9 FF050000 		.4byte	.LASF55
 588 02cd 07       		.byte	0x7
 589 02ce 9101     		.2byte	0x191
 590 02d0 80020000 		.4byte	0x280
 591 02d4 00       		.byte	0
 592 02d5 0A       		.uleb128 0xa
 593 02d6 4A050000 		.4byte	.LASF56
 594 02da 07       		.byte	0x7
 595 02db 9201     		.2byte	0x192
 596 02dd 1C010000 		.4byte	0x11c
 597 02e1 08       		.byte	0x8
 598 02e2 0A       		.uleb128 0xa
 599 02e3 69040000 		.4byte	.LASF57
 600 02e7 07       		.byte	0x7
 601 02e8 9401     		.2byte	0x194
 602 02ea 37060000 		.4byte	0x637
 603 02ee 0C       		.byte	0xc
 604 02ef 0A       		.uleb128 0xa
 605 02f0 CB010000 		.4byte	.LASF58
 606 02f4 07       		.byte	0x7
 607 02f5 9701     		.2byte	0x197
 608 02f7 56020000 		.4byte	0x256
 609 02fb 10       		.byte	0x10
 610 02fc 0A       		.uleb128 0xa
 611 02fd 9C040000 		.4byte	.LASF59
 612 0301 07       		.byte	0x7
 613 0302 9801     		.2byte	0x198
 614 0304 56020000 		.4byte	0x256
 615 0308 14       		.byte	0x14
 616 0309 0A       		.uleb128 0xa
 617 030a 92040000 		.4byte	.LASF60
 618 030e 07       		.byte	0x7
 619 030f 9B01     		.2byte	0x19b
 620 0311 56020000 		.4byte	0x256
 621 0315 18       		.byte	0x18
 622 0316 00       		.byte	0
 623 0317 04       		.uleb128 0x4
 624 0318 8B060000 		.4byte	.LASF61
 625 031c 06       		.byte	0x6
 626 031d 5C       		.byte	0x5c
 627 031e 22030000 		.4byte	0x322
ARM GAS  /tmp/cckVA5ra.s 			page 12


 628 0322 0B       		.uleb128 0xb
 629 0323 04       		.byte	0x4
 630 0324 28030000 		.4byte	0x328
 631 0328 0D       		.uleb128 0xd
 632 0329 33030000 		.4byte	0x333
 633 032d 0E       		.uleb128 0xe
 634 032e 33030000 		.4byte	0x333
 635 0332 00       		.byte	0
 636 0333 0F       		.uleb128 0xf
 637 0334 04       		.byte	0x4
 638 0335 04       		.uleb128 0x4
 639 0336 D1040000 		.4byte	.LASF62
 640 033a 06       		.byte	0x6
 641 033b 61       		.byte	0x61
 642 033c 40030000 		.4byte	0x340
 643 0340 0C       		.uleb128 0xc
 644 0341 B4050000 		.4byte	.LASF63
 645 0345 14       		.byte	0x14
 646 0346 07       		.byte	0x7
 647 0347 6B01     		.2byte	0x16b
 648 0349 8F030000 		.4byte	0x38f
 649 034d 0A       		.uleb128 0xa
 650 034e 27020000 		.4byte	.LASF64
 651 0352 07       		.byte	0x7
 652 0353 6C01     		.2byte	0x16c
 653 0355 35080000 		.4byte	0x835
 654 0359 00       		.byte	0
 655 035a 0A       		.uleb128 0xa
 656 035b DC010000 		.4byte	.LASF65
 657 035f 07       		.byte	0x7
 658 0360 6D01     		.2byte	0x16d
 659 0362 35080000 		.4byte	0x835
 660 0366 04       		.byte	0x4
 661 0367 0A       		.uleb128 0xa
 662 0368 07060000 		.4byte	.LASF66
 663 036c 07       		.byte	0x7
 664 036d 6E01     		.2byte	0x16e
 665 036f 48010000 		.4byte	0x148
 666 0373 08       		.byte	0x8
 667 0374 0A       		.uleb128 0xa
 668 0375 75070000 		.4byte	.LASF67
 669 0379 07       		.byte	0x7
 670 037a 6F01     		.2byte	0x16f
 671 037c 17030000 		.4byte	0x317
 672 0380 0C       		.byte	0xc
 673 0381 0A       		.uleb128 0xa
 674 0382 F8060000 		.4byte	.LASF68
 675 0386 07       		.byte	0x7
 676 0387 7101     		.2byte	0x171
 677 0389 33030000 		.4byte	0x333
 678 038d 10       		.byte	0x10
 679 038e 00       		.byte	0
 680 038f 04       		.uleb128 0x4
 681 0390 8B000000 		.4byte	.LASF69
 682 0394 06       		.byte	0x6
 683 0395 66       		.byte	0x66
 684 0396 9A030000 		.4byte	0x39a
ARM GAS  /tmp/cckVA5ra.s 			page 13


 685 039a 0C       		.uleb128 0xc
 686 039b 4C030000 		.4byte	.LASF70
 687 039f 10       		.byte	0x10
 688 03a0 07       		.byte	0x7
 689 03a1 7B01     		.2byte	0x17b
 690 03a3 DC030000 		.4byte	0x3dc
 691 03a7 0A       		.uleb128 0xa
 692 03a8 27020000 		.4byte	.LASF64
 693 03ac 07       		.byte	0x7
 694 03ad 7C01     		.2byte	0x17c
 695 03af 35080000 		.4byte	0x835
 696 03b3 00       		.byte	0
 697 03b4 0A       		.uleb128 0xa
 698 03b5 DC010000 		.4byte	.LASF65
 699 03b9 07       		.byte	0x7
 700 03ba 7E01     		.2byte	0x17e
 701 03bc 35080000 		.4byte	0x835
 702 03c0 04       		.byte	0x4
 703 03c1 0A       		.uleb128 0xa
 704 03c2 07060000 		.4byte	.LASF66
 705 03c6 07       		.byte	0x7
 706 03c7 8001     		.2byte	0x180
 707 03c9 48010000 		.4byte	0x148
 708 03cd 08       		.byte	0x8
 709 03ce 0A       		.uleb128 0xa
 710 03cf 2D070000 		.4byte	.LASF71
 711 03d3 07       		.byte	0x7
 712 03d4 8801     		.2byte	0x188
 713 03d6 48010000 		.4byte	0x148
 714 03da 0C       		.byte	0xc
 715 03db 00       		.byte	0
 716 03dc 04       		.uleb128 0x4
 717 03dd 39000000 		.4byte	.LASF72
 718 03e1 06       		.byte	0x6
 719 03e2 6B       		.byte	0x6b
 720 03e3 E7030000 		.4byte	0x3e7
 721 03e7 0C       		.uleb128 0xc
 722 03e8 F0040000 		.4byte	.LASF73
 723 03ec 04       		.byte	0x4
 724 03ed 07       		.byte	0x7
 725 03ee A201     		.2byte	0x1a2
 726 03f0 02040000 		.4byte	0x402
 727 03f4 0A       		.uleb128 0xa
 728 03f5 AD060000 		.4byte	.LASF74
 729 03f9 07       		.byte	0x7
 730 03fa AA01     		.2byte	0x1aa
 731 03fc 24080000 		.4byte	0x824
 732 0400 00       		.byte	0
 733 0401 00       		.byte	0
 734 0402 04       		.uleb128 0x4
 735 0403 4F010000 		.4byte	.LASF75
 736 0407 06       		.byte	0x6
 737 0408 70       		.byte	0x70
 738 0409 0D040000 		.4byte	0x40d
 739 040d 10       		.uleb128 0x10
 740 040e 1E010000 		.4byte	.LASF76
 741 0412 5001     		.2byte	0x150
ARM GAS  /tmp/cckVA5ra.s 			page 14


 742 0414 07       		.byte	0x7
 743 0415 C201     		.2byte	0x1c2
 744 0417 69040000 		.4byte	0x469
 745 041b 0A       		.uleb128 0xa
 746 041c 1F070000 		.4byte	.LASF77
 747 0420 07       		.byte	0x7
 748 0421 C601     		.2byte	0x1c6
 749 0423 B0020000 		.4byte	0x2b0
 750 0427 00       		.byte	0
 751 0428 0A       		.uleb128 0xa
 752 0429 0B010000 		.4byte	.LASF78
 753 042d 07       		.byte	0x7
 754 042e CA01     		.2byte	0x1ca
 755 0430 8F030000 		.4byte	0x38f
 756 0434 1C       		.byte	0x1c
 757 0435 09       		.uleb128 0x9
 758 0436 64626700 		.ascii	"dbg\000"
 759 043a 07       		.byte	0x7
 760 043b CE01     		.2byte	0x1ce
 761 043d DC030000 		.4byte	0x3dc
 762 0441 2C       		.byte	0x2c
 763 0442 0A       		.uleb128 0xa
 764 0443 80000000 		.4byte	.LASF79
 765 0447 07       		.byte	0x7
 766 0448 D201     		.2byte	0x1d2
 767 044a 53010000 		.4byte	0x153
 768 044e 30       		.byte	0x30
 769 044f 09       		.uleb128 0x9
 770 0450 746D00   		.ascii	"tm\000"
 771 0453 07       		.byte	0x7
 772 0454 D701     		.2byte	0x1d7
 773 0456 4E070000 		.4byte	0x74e
 774 045a 74       		.byte	0x74
 775 045b 0A       		.uleb128 0xa
 776 045c FB010000 		.4byte	.LASF80
 777 0460 07       		.byte	0x7
 778 0461 E301     		.2byte	0x1e3
 779 0463 3B080000 		.4byte	0x83b
 780 0467 78       		.byte	0x78
 781 0468 00       		.byte	0
 782 0469 03       		.uleb128 0x3
 783 046a 04       		.byte	0x4
 784 046b 07       		.byte	0x7
 785 046c 30030000 		.4byte	.LASF81
 786 0470 11       		.uleb128 0x11
 787 0471 8C       		.byte	0x8c
 788 0472 08       		.byte	0x8
 789 0473 7001     		.2byte	0x170
 790 0475 8B050000 		.4byte	0x58b
 791 0479 0A       		.uleb128 0xa
 792 047a A1000000 		.4byte	.LASF82
 793 047e 08       		.byte	0x8
 794 047f 7201     		.2byte	0x172
 795 0481 E0000000 		.4byte	0xe0
 796 0485 00       		.byte	0
 797 0486 0A       		.uleb128 0xa
 798 0487 85020000 		.4byte	.LASF83
ARM GAS  /tmp/cckVA5ra.s 			page 15


 799 048b 08       		.byte	0x8
 800 048c 7301     		.2byte	0x173
 801 048e DB000000 		.4byte	0xdb
 802 0492 04       		.byte	0x4
 803 0493 0A       		.uleb128 0xa
 804 0494 70020000 		.4byte	.LASF84
 805 0498 08       		.byte	0x8
 806 0499 7401     		.2byte	0x174
 807 049b DB000000 		.4byte	0xdb
 808 049f 08       		.byte	0x8
 809 04a0 0A       		.uleb128 0xa
 810 04a1 90020000 		.4byte	.LASF85
 811 04a5 08       		.byte	0x8
 812 04a6 7501     		.2byte	0x175
 813 04a8 DB000000 		.4byte	0xdb
 814 04ac 0C       		.byte	0xc
 815 04ad 09       		.uleb128 0x9
 816 04ae 53435200 		.ascii	"SCR\000"
 817 04b2 08       		.byte	0x8
 818 04b3 7601     		.2byte	0x176
 819 04b5 DB000000 		.4byte	0xdb
 820 04b9 10       		.byte	0x10
 821 04ba 09       		.uleb128 0x9
 822 04bb 43435200 		.ascii	"CCR\000"
 823 04bf 08       		.byte	0x8
 824 04c0 7701     		.2byte	0x177
 825 04c2 DB000000 		.4byte	0xdb
 826 04c6 14       		.byte	0x14
 827 04c7 09       		.uleb128 0x9
 828 04c8 53485000 		.ascii	"SHP\000"
 829 04cc 08       		.byte	0x8
 830 04cd 7801     		.2byte	0x178
 831 04cf 9B050000 		.4byte	0x59b
 832 04d3 18       		.byte	0x18
 833 04d4 0A       		.uleb128 0xa
 834 04d5 16050000 		.4byte	.LASF86
 835 04d9 08       		.byte	0x8
 836 04da 7901     		.2byte	0x179
 837 04dc DB000000 		.4byte	0xdb
 838 04e0 24       		.byte	0x24
 839 04e1 0A       		.uleb128 0xa
 840 04e2 2B030000 		.4byte	.LASF87
 841 04e6 08       		.byte	0x8
 842 04e7 7A01     		.2byte	0x17a
 843 04e9 DB000000 		.4byte	0xdb
 844 04ed 28       		.byte	0x28
 845 04ee 0A       		.uleb128 0xa
 846 04ef 53070000 		.4byte	.LASF88
 847 04f3 08       		.byte	0x8
 848 04f4 7B01     		.2byte	0x17b
 849 04f6 DB000000 		.4byte	0xdb
 850 04fa 2C       		.byte	0x2c
 851 04fb 0A       		.uleb128 0xa
 852 04fc 96020000 		.4byte	.LASF89
 853 0500 08       		.byte	0x8
 854 0501 7C01     		.2byte	0x17c
 855 0503 DB000000 		.4byte	0xdb
ARM GAS  /tmp/cckVA5ra.s 			page 16


 856 0507 30       		.byte	0x30
 857 0508 0A       		.uleb128 0xa
 858 0509 9B020000 		.4byte	.LASF90
 859 050d 08       		.byte	0x8
 860 050e 7D01     		.2byte	0x17d
 861 0510 DB000000 		.4byte	0xdb
 862 0514 34       		.byte	0x34
 863 0515 0A       		.uleb128 0xa
 864 0516 C1010000 		.4byte	.LASF91
 865 051a 08       		.byte	0x8
 866 051b 7E01     		.2byte	0x17e
 867 051d DB000000 		.4byte	0xdb
 868 0521 38       		.byte	0x38
 869 0522 0A       		.uleb128 0xa
 870 0523 C6010000 		.4byte	.LASF92
 871 0527 08       		.byte	0x8
 872 0528 7F01     		.2byte	0x17f
 873 052a DB000000 		.4byte	0xdb
 874 052e 3C       		.byte	0x3c
 875 052f 09       		.uleb128 0x9
 876 0530 50465200 		.ascii	"PFR\000"
 877 0534 08       		.byte	0x8
 878 0535 8001     		.2byte	0x180
 879 0537 B5050000 		.4byte	0x5b5
 880 053b 40       		.byte	0x40
 881 053c 09       		.uleb128 0x9
 882 053d 44465200 		.ascii	"DFR\000"
 883 0541 08       		.byte	0x8
 884 0542 8101     		.2byte	0x181
 885 0544 E0000000 		.4byte	0xe0
 886 0548 48       		.byte	0x48
 887 0549 09       		.uleb128 0x9
 888 054a 41445200 		.ascii	"ADR\000"
 889 054e 08       		.byte	0x8
 890 054f 8201     		.2byte	0x182
 891 0551 E0000000 		.4byte	0xe0
 892 0555 4C       		.byte	0x4c
 893 0556 0A       		.uleb128 0xa
 894 0557 1A070000 		.4byte	.LASF93
 895 055b 08       		.byte	0x8
 896 055c 8301     		.2byte	0x183
 897 055e CF050000 		.4byte	0x5cf
 898 0562 50       		.byte	0x50
 899 0563 0A       		.uleb128 0xa
 900 0564 BF000000 		.4byte	.LASF94
 901 0568 08       		.byte	0x8
 902 0569 8401     		.2byte	0x184
 903 056b E9050000 		.4byte	0x5e9
 904 056f 60       		.byte	0x60
 905 0570 0A       		.uleb128 0xa
 906 0571 B7040000 		.4byte	.LASF95
 907 0575 08       		.byte	0x8
 908 0576 8501     		.2byte	0x185
 909 0578 EE050000 		.4byte	0x5ee
 910 057c 74       		.byte	0x74
 911 057d 0A       		.uleb128 0xa
 912 057e 4D070000 		.4byte	.LASF96
ARM GAS  /tmp/cckVA5ra.s 			page 17


 913 0582 08       		.byte	0x8
 914 0583 8601     		.2byte	0x186
 915 0585 DB000000 		.4byte	0xdb
 916 0589 88       		.byte	0x88
 917 058a 00       		.byte	0
 918 058b 12       		.uleb128 0x12
 919 058c B0000000 		.4byte	0xb0
 920 0590 9B050000 		.4byte	0x59b
 921 0594 13       		.uleb128 0x13
 922 0595 69040000 		.4byte	0x469
 923 0599 0B       		.byte	0xb
 924 059a 00       		.byte	0
 925 059b 05       		.uleb128 0x5
 926 059c 8B050000 		.4byte	0x58b
 927 05a0 12       		.uleb128 0x12
 928 05a1 E0000000 		.4byte	0xe0
 929 05a5 B0050000 		.4byte	0x5b0
 930 05a9 13       		.uleb128 0x13
 931 05aa 69040000 		.4byte	0x469
 932 05ae 01       		.byte	0x1
 933 05af 00       		.byte	0
 934 05b0 06       		.uleb128 0x6
 935 05b1 A0050000 		.4byte	0x5a0
 936 05b5 05       		.uleb128 0x5
 937 05b6 B0050000 		.4byte	0x5b0
 938 05ba 12       		.uleb128 0x12
 939 05bb E0000000 		.4byte	0xe0
 940 05bf CA050000 		.4byte	0x5ca
 941 05c3 13       		.uleb128 0x13
 942 05c4 69040000 		.4byte	0x469
 943 05c8 03       		.byte	0x3
 944 05c9 00       		.byte	0
 945 05ca 06       		.uleb128 0x6
 946 05cb BA050000 		.4byte	0x5ba
 947 05cf 05       		.uleb128 0x5
 948 05d0 CA050000 		.4byte	0x5ca
 949 05d4 12       		.uleb128 0x12
 950 05d5 E0000000 		.4byte	0xe0
 951 05d9 E4050000 		.4byte	0x5e4
 952 05dd 13       		.uleb128 0x13
 953 05de 69040000 		.4byte	0x469
 954 05e2 04       		.byte	0x4
 955 05e3 00       		.byte	0
 956 05e4 06       		.uleb128 0x6
 957 05e5 D4050000 		.4byte	0x5d4
 958 05e9 05       		.uleb128 0x5
 959 05ea E4050000 		.4byte	0x5e4
 960 05ee 12       		.uleb128 0x12
 961 05ef D0000000 		.4byte	0xd0
 962 05f3 FE050000 		.4byte	0x5fe
 963 05f7 13       		.uleb128 0x13
 964 05f8 69040000 		.4byte	0x469
 965 05fc 04       		.byte	0x4
 966 05fd 00       		.byte	0
 967 05fe 14       		.uleb128 0x14
 968 05ff E4010000 		.4byte	.LASF97
 969 0603 08       		.byte	0x8
ARM GAS  /tmp/cckVA5ra.s 			page 18


 970 0604 8701     		.2byte	0x187
 971 0606 70040000 		.4byte	0x470
 972 060a 15       		.uleb128 0x15
 973 060b 1C050000 		.4byte	.LASF98
 974 060f 08       		.byte	0x8
 975 0610 A706     		.2byte	0x6a7
 976 0612 CB000000 		.4byte	0xcb
 977 0616 16       		.uleb128 0x16
 978 0617 38020000 		.4byte	.LASF99
 979 061b 09       		.byte	0x9
 980 061c 4C       		.byte	0x4c
 981 061d D0000000 		.4byte	0xd0
 982 0621 04       		.uleb128 0x4
 983 0622 D3010000 		.4byte	.LASF100
 984 0626 0A       		.byte	0xa
 985 0627 65       		.byte	0x65
 986 0628 33030000 		.4byte	0x333
 987 062c 04       		.uleb128 0x4
 988 062d F3020000 		.4byte	.LASF101
 989 0631 0A       		.byte	0xa
 990 0632 6D       		.byte	0x6d
 991 0633 E5000000 		.4byte	0xe5
 992 0637 07       		.uleb128 0x7
 993 0638 BE060000 		.4byte	.LASF102
 994 063c 04       		.byte	0x4
 995 063d 0A       		.byte	0xa
 996 063e 89       		.byte	0x89
 997 063f 50060000 		.4byte	0x650
 998 0643 17       		.uleb128 0x17
 999 0644 72313300 		.ascii	"r13\000"
 1000 0648 0A       		.byte	0xa
 1001 0649 8A       		.byte	0x8a
 1002 064a CB060000 		.4byte	0x6cb
 1003 064e 00       		.byte	0
 1004 064f 00       		.byte	0
 1005 0650 07       		.uleb128 0x7
 1006 0651 2D000000 		.4byte	.LASF103
 1007 0655 24       		.byte	0x24
 1008 0656 0B       		.byte	0xb
 1009 0657 F4       		.byte	0xf4
 1010 0658 CB060000 		.4byte	0x6cb
 1011 065c 09       		.uleb128 0x9
 1012 065d 723400   		.ascii	"r4\000"
 1013 0660 0B       		.byte	0xb
 1014 0661 0701     		.2byte	0x107
 1015 0663 21060000 		.4byte	0x621
 1016 0667 00       		.byte	0
 1017 0668 09       		.uleb128 0x9
 1018 0669 723500   		.ascii	"r5\000"
 1019 066c 0B       		.byte	0xb
 1020 066d 0801     		.2byte	0x108
 1021 066f 21060000 		.4byte	0x621
 1022 0673 04       		.byte	0x4
 1023 0674 09       		.uleb128 0x9
 1024 0675 723600   		.ascii	"r6\000"
 1025 0678 0B       		.byte	0xb
 1026 0679 0901     		.2byte	0x109
ARM GAS  /tmp/cckVA5ra.s 			page 19


 1027 067b 21060000 		.4byte	0x621
 1028 067f 08       		.byte	0x8
 1029 0680 09       		.uleb128 0x9
 1030 0681 723700   		.ascii	"r7\000"
 1031 0684 0B       		.byte	0xb
 1032 0685 0A01     		.2byte	0x10a
 1033 0687 21060000 		.4byte	0x621
 1034 068b 0C       		.byte	0xc
 1035 068c 09       		.uleb128 0x9
 1036 068d 723800   		.ascii	"r8\000"
 1037 0690 0B       		.byte	0xb
 1038 0691 0B01     		.2byte	0x10b
 1039 0693 21060000 		.4byte	0x621
 1040 0697 10       		.byte	0x10
 1041 0698 09       		.uleb128 0x9
 1042 0699 723900   		.ascii	"r9\000"
 1043 069c 0B       		.byte	0xb
 1044 069d 0C01     		.2byte	0x10c
 1045 069f 21060000 		.4byte	0x621
 1046 06a3 14       		.byte	0x14
 1047 06a4 09       		.uleb128 0x9
 1048 06a5 72313000 		.ascii	"r10\000"
 1049 06a9 0B       		.byte	0xb
 1050 06aa 0D01     		.2byte	0x10d
 1051 06ac 21060000 		.4byte	0x621
 1052 06b0 18       		.byte	0x18
 1053 06b1 09       		.uleb128 0x9
 1054 06b2 72313100 		.ascii	"r11\000"
 1055 06b6 0B       		.byte	0xb
 1056 06b7 0E01     		.2byte	0x10e
 1057 06b9 21060000 		.4byte	0x621
 1058 06bd 1C       		.byte	0x1c
 1059 06be 09       		.uleb128 0x9
 1060 06bf 6C7200   		.ascii	"lr\000"
 1061 06c2 0B       		.byte	0xb
 1062 06c3 0F01     		.2byte	0x10f
 1063 06c5 21060000 		.4byte	0x621
 1064 06c9 20       		.byte	0x20
 1065 06ca 00       		.byte	0
 1066 06cb 0B       		.uleb128 0xb
 1067 06cc 04       		.byte	0x4
 1068 06cd 50060000 		.4byte	0x650
 1069 06d1 07       		.uleb128 0x7
 1070 06d2 75040000 		.4byte	.LASF104
 1071 06d6 20       		.byte	0x20
 1072 06d7 0B       		.byte	0xb
 1073 06d8 D5       		.byte	0xd5
 1074 06d9 39070000 		.4byte	0x739
 1075 06dd 17       		.uleb128 0x17
 1076 06de 723000   		.ascii	"r0\000"
 1077 06e1 0B       		.byte	0xb
 1078 06e2 D6       		.byte	0xd6
 1079 06e3 21060000 		.4byte	0x621
 1080 06e7 00       		.byte	0
 1081 06e8 17       		.uleb128 0x17
 1082 06e9 723100   		.ascii	"r1\000"
 1083 06ec 0B       		.byte	0xb
ARM GAS  /tmp/cckVA5ra.s 			page 20


 1084 06ed D7       		.byte	0xd7
 1085 06ee 21060000 		.4byte	0x621
 1086 06f2 04       		.byte	0x4
 1087 06f3 17       		.uleb128 0x17
 1088 06f4 723200   		.ascii	"r2\000"
 1089 06f7 0B       		.byte	0xb
 1090 06f8 D8       		.byte	0xd8
 1091 06f9 21060000 		.4byte	0x621
 1092 06fd 08       		.byte	0x8
 1093 06fe 17       		.uleb128 0x17
 1094 06ff 723300   		.ascii	"r3\000"
 1095 0702 0B       		.byte	0xb
 1096 0703 D9       		.byte	0xd9
 1097 0704 21060000 		.4byte	0x621
 1098 0708 0C       		.byte	0xc
 1099 0709 17       		.uleb128 0x17
 1100 070a 72313200 		.ascii	"r12\000"
 1101 070e 0B       		.byte	0xb
 1102 070f DA       		.byte	0xda
 1103 0710 21060000 		.4byte	0x621
 1104 0714 10       		.byte	0x10
 1105 0715 08       		.uleb128 0x8
 1106 0716 91050000 		.4byte	.LASF105
 1107 071a 0B       		.byte	0xb
 1108 071b DB       		.byte	0xdb
 1109 071c 21060000 		.4byte	0x621
 1110 0720 14       		.byte	0x14
 1111 0721 17       		.uleb128 0x17
 1112 0722 706300   		.ascii	"pc\000"
 1113 0725 0B       		.byte	0xb
 1114 0726 DC       		.byte	0xdc
 1115 0727 21060000 		.4byte	0x621
 1116 072b 18       		.byte	0x18
 1117 072c 08       		.uleb128 0x8
 1118 072d 45050000 		.4byte	.LASF106
 1119 0731 0B       		.byte	0xb
 1120 0732 DD       		.byte	0xdd
 1121 0733 21060000 		.4byte	0x621
 1122 0737 1C       		.byte	0x1c
 1123 0738 00       		.byte	0
 1124 0739 18       		.uleb128 0x18
 1125 073a 04       		.byte	0x4
 1126 073b 0C       		.byte	0xc
 1127 073c 38       		.byte	0x38
 1128 073d 4E070000 		.4byte	0x74e
 1129 0741 08       		.uleb128 0x8
 1130 0742 B7060000 		.4byte	.LASF107
 1131 0746 0C       		.byte	0xc
 1132 0747 3C       		.byte	0x3c
 1133 0748 F0000000 		.4byte	0xf0
 1134 074c 00       		.byte	0
 1135 074d 00       		.byte	0
 1136 074e 04       		.uleb128 0x4
 1137 074f 81040000 		.4byte	.LASF108
 1138 0753 0C       		.byte	0xc
 1139 0754 3D       		.byte	0x3d
 1140 0755 39070000 		.4byte	0x739
ARM GAS  /tmp/cckVA5ra.s 			page 21


 1141 0759 19       		.uleb128 0x19
 1142 075a 04       		.byte	0x4
 1143 075b 07       		.byte	0x7
 1144 075c FA       		.byte	0xfa
 1145 075d B6070000 		.4byte	0x7b6
 1146 0761 1A       		.uleb128 0x1a
 1147 0762 13000000 		.4byte	.LASF109
 1148 0766 07       		.byte	0x7
 1149 0767 0101     		.2byte	0x101
 1150 0769 27010000 		.4byte	0x127
 1151 076d 1A       		.uleb128 0x1a
 1152 076e 77000000 		.4byte	.LASF110
 1153 0772 07       		.byte	0x7
 1154 0773 0801     		.2byte	0x108
 1155 0775 27010000 		.4byte	0x127
 1156 0779 1A       		.uleb128 0x1a
 1157 077a 39070000 		.4byte	.LASF111
 1158 077e 07       		.byte	0x7
 1159 077f 0F01     		.2byte	0x10f
 1160 0781 33030000 		.4byte	0x333
 1161 0785 1A       		.uleb128 0x1a
 1162 0786 0D000000 		.4byte	.LASF112
 1163 078a 07       		.byte	0x7
 1164 078b 1601     		.2byte	0x116
 1165 078d B6070000 		.4byte	0x7b6
 1166 0791 1A       		.uleb128 0x1a
 1167 0792 48020000 		.4byte	.LASF113
 1168 0796 07       		.byte	0x7
 1169 0797 1E01     		.2byte	0x11e
 1170 0799 E1070000 		.4byte	0x7e1
 1171 079d 1A       		.uleb128 0x1a
 1172 079e 3F060000 		.4byte	.LASF114
 1173 07a2 07       		.byte	0x7
 1174 07a3 2701     		.2byte	0x127
 1175 07a5 18080000 		.4byte	0x818
 1176 07a9 1A       		.uleb128 0x1a
 1177 07aa 51050000 		.4byte	.LASF115
 1178 07ae 07       		.byte	0x7
 1179 07af 2F01     		.2byte	0x12f
 1180 07b1 32010000 		.4byte	0x132
 1181 07b5 00       		.byte	0
 1182 07b6 0B       		.uleb128 0xb
 1183 07b7 04       		.byte	0x4
 1184 07b8 4B020000 		.4byte	0x24b
 1185 07bc 07       		.uleb128 0x7
 1186 07bd D2050000 		.4byte	.LASF116
 1187 07c1 0C       		.byte	0xc
 1188 07c2 0D       		.byte	0xd
 1189 07c3 34       		.byte	0x34
 1190 07c4 E1070000 		.4byte	0x7e1
 1191 07c8 08       		.uleb128 0x8
 1192 07c9 7D010000 		.4byte	.LASF117
 1193 07cd 0D       		.byte	0xd
 1194 07ce 35       		.byte	0x35
 1195 07cf 80020000 		.4byte	0x280
 1196 07d3 00       		.byte	0
 1197 07d4 08       		.uleb128 0x8
ARM GAS  /tmp/cckVA5ra.s 			page 22


 1198 07d5 75020000 		.4byte	.LASF118
 1199 07d9 0D       		.byte	0xd
 1200 07da 37       		.byte	0x37
 1201 07db 3D010000 		.4byte	0x13d
 1202 07df 08       		.byte	0x8
 1203 07e0 00       		.byte	0
 1204 07e1 0B       		.uleb128 0xb
 1205 07e2 04       		.byte	0x4
 1206 07e3 BC070000 		.4byte	0x7bc
 1207 07e7 07       		.uleb128 0x7
 1208 07e8 0A070000 		.4byte	.LASF119
 1209 07ec 10       		.byte	0x10
 1210 07ed 0E       		.byte	0xe
 1211 07ee 39       		.byte	0x39
 1212 07ef 18080000 		.4byte	0x818
 1213 07f3 08       		.uleb128 0x8
 1214 07f4 03010000 		.4byte	.LASF120
 1215 07f8 0E       		.byte	0xe
 1216 07f9 3A       		.byte	0x3a
 1217 07fa 80020000 		.4byte	0x280
 1218 07fe 00       		.byte	0
 1219 07ff 08       		.uleb128 0x8
 1220 0800 58070000 		.4byte	.LASF121
 1221 0804 0E       		.byte	0xe
 1222 0805 3C       		.byte	0x3c
 1223 0806 56020000 		.4byte	0x256
 1224 080a 08       		.byte	0x8
 1225 080b 08       		.uleb128 0x8
 1226 080c 6F060000 		.4byte	.LASF122
 1227 0810 0E       		.byte	0xe
 1228 0811 3E       		.byte	0x3e
 1229 0812 6D090000 		.4byte	0x96d
 1230 0816 0C       		.byte	0xc
 1231 0817 00       		.byte	0
 1232 0818 0B       		.uleb128 0xb
 1233 0819 04       		.byte	0x4
 1234 081a E7070000 		.4byte	0x7e7
 1235 081e 0B       		.uleb128 0xb
 1236 081f 04       		.byte	0x4
 1237 0820 30080000 		.4byte	0x830
 1238 0824 05       		.uleb128 0x5
 1239 0825 1E080000 		.4byte	0x81e
 1240 0829 03       		.uleb128 0x3
 1241 082a 01       		.byte	0x1
 1242 082b 08       		.byte	0x8
 1243 082c 3A060000 		.4byte	.LASF123
 1244 0830 06       		.uleb128 0x6
 1245 0831 29080000 		.4byte	0x829
 1246 0835 0B       		.uleb128 0xb
 1247 0836 04       		.byte	0x4
 1248 0837 35030000 		.4byte	0x335
 1249 083b 12       		.uleb128 0x12
 1250 083c 2C060000 		.4byte	0x62c
 1251 0840 4B080000 		.4byte	0x84b
 1252 0844 13       		.uleb128 0x13
 1253 0845 69040000 		.4byte	0x469
 1254 0849 1A       		.byte	0x1a
ARM GAS  /tmp/cckVA5ra.s 			page 23


 1255 084a 00       		.byte	0
 1256 084b 1B       		.uleb128 0x1b
 1257 084c 636800   		.ascii	"ch\000"
 1258 084f 07       		.byte	0x7
 1259 0850 0902     		.2byte	0x209
 1260 0852 02040000 		.4byte	0x402
 1261 0856 18       		.uleb128 0x18
 1262 0857 16       		.byte	0x16
 1263 0858 0F       		.byte	0xf
 1264 0859 34       		.byte	0x34
 1265 085a 37090000 		.4byte	0x937
 1266 085e 08       		.uleb128 0x8
 1267 085f 67070000 		.4byte	.LASF124
 1268 0863 0F       		.byte	0xf
 1269 0864 35       		.byte	0x35
 1270 0865 37090000 		.4byte	0x937
 1271 0869 00       		.byte	0
 1272 086a 08       		.uleb128 0x8
 1273 086b 0D030000 		.4byte	.LASF125
 1274 086f 0F       		.byte	0xf
 1275 0870 36       		.byte	0x36
 1276 0871 A5000000 		.4byte	0xa5
 1277 0875 04       		.byte	0x4
 1278 0876 08       		.uleb128 0x8
 1279 0877 20060000 		.4byte	.LASF126
 1280 087b 0F       		.byte	0xf
 1281 087c 37       		.byte	0x37
 1282 087d A5000000 		.4byte	0xa5
 1283 0881 05       		.byte	0x5
 1284 0882 08       		.uleb128 0x8
 1285 0883 3A010000 		.4byte	.LASF127
 1286 0887 0F       		.byte	0xf
 1287 0888 38       		.byte	0x38
 1288 0889 B5000000 		.4byte	0xb5
 1289 088d 06       		.byte	0x6
 1290 088e 08       		.uleb128 0x8
 1291 088f C1040000 		.4byte	.LASF128
 1292 0893 0F       		.byte	0xf
 1293 0894 39       		.byte	0x39
 1294 0895 A5000000 		.4byte	0xa5
 1295 0899 08       		.byte	0x8
 1296 089a 08       		.uleb128 0x8
 1297 089b 49040000 		.4byte	.LASF129
 1298 089f 0F       		.byte	0xf
 1299 08a0 3A       		.byte	0x3a
 1300 08a1 A5000000 		.4byte	0xa5
 1301 08a5 09       		.byte	0x9
 1302 08a6 08       		.uleb128 0x8
 1303 08a7 69000000 		.4byte	.LASF130
 1304 08ab 0F       		.byte	0xf
 1305 08ac 3B       		.byte	0x3b
 1306 08ad A5000000 		.4byte	0xa5
 1307 08b1 0A       		.byte	0xa
 1308 08b2 08       		.uleb128 0x8
 1309 08b3 F3050000 		.4byte	.LASF131
 1310 08b7 0F       		.byte	0xf
 1311 08b8 3C       		.byte	0x3c
ARM GAS  /tmp/cckVA5ra.s 			page 24


 1312 08b9 A5000000 		.4byte	0xa5
 1313 08bd 0B       		.byte	0xb
 1314 08be 08       		.uleb128 0x8
 1315 08bf FF060000 		.4byte	.LASF132
 1316 08c3 0F       		.byte	0xf
 1317 08c4 3D       		.byte	0x3d
 1318 08c5 A5000000 		.4byte	0xa5
 1319 08c9 0C       		.byte	0xc
 1320 08ca 08       		.uleb128 0x8
 1321 08cb C5050000 		.4byte	.LASF133
 1322 08cf 0F       		.byte	0xf
 1323 08d0 3E       		.byte	0x3e
 1324 08d1 A5000000 		.4byte	0xa5
 1325 08d5 0D       		.byte	0xd
 1326 08d6 08       		.uleb128 0x8
 1327 08d7 4F020000 		.4byte	.LASF134
 1328 08db 0F       		.byte	0xf
 1329 08dc 3F       		.byte	0x3f
 1330 08dd A5000000 		.4byte	0xa5
 1331 08e1 0E       		.byte	0xe
 1332 08e2 08       		.uleb128 0x8
 1333 08e3 55040000 		.4byte	.LASF135
 1334 08e7 0F       		.byte	0xf
 1335 08e8 40       		.byte	0x40
 1336 08e9 A5000000 		.4byte	0xa5
 1337 08ed 0F       		.byte	0xf
 1338 08ee 08       		.uleb128 0x8
 1339 08ef DE000000 		.4byte	.LASF136
 1340 08f3 0F       		.byte	0xf
 1341 08f4 41       		.byte	0x41
 1342 08f5 A5000000 		.4byte	0xa5
 1343 08f9 10       		.byte	0x10
 1344 08fa 08       		.uleb128 0x8
 1345 08fb C6060000 		.4byte	.LASF137
 1346 08ff 0F       		.byte	0xf
 1347 0900 43       		.byte	0x43
 1348 0901 A5000000 		.4byte	0xa5
 1349 0905 11       		.byte	0x11
 1350 0906 08       		.uleb128 0x8
 1351 0907 EE000000 		.4byte	.LASF138
 1352 090b 0F       		.byte	0xf
 1353 090c 44       		.byte	0x44
 1354 090d A5000000 		.4byte	0xa5
 1355 0911 12       		.byte	0x12
 1356 0912 08       		.uleb128 0x8
 1357 0913 15030000 		.4byte	.LASF139
 1358 0917 0F       		.byte	0xf
 1359 0918 45       		.byte	0x45
 1360 0919 A5000000 		.4byte	0xa5
 1361 091d 13       		.byte	0x13
 1362 091e 08       		.uleb128 0x8
 1363 091f 67050000 		.4byte	.LASF140
 1364 0923 0F       		.byte	0xf
 1365 0924 46       		.byte	0x46
 1366 0925 A5000000 		.4byte	0xa5
 1367 0929 14       		.byte	0x14
 1368 092a 08       		.uleb128 0x8
ARM GAS  /tmp/cckVA5ra.s 			page 25


 1369 092b B4020000 		.4byte	.LASF141
 1370 092f 0F       		.byte	0xf
 1371 0930 48       		.byte	0x48
 1372 0931 A5000000 		.4byte	0xa5
 1373 0935 15       		.byte	0x15
 1374 0936 00       		.byte	0
 1375 0937 12       		.uleb128 0x12
 1376 0938 29080000 		.4byte	0x829
 1377 093c 47090000 		.4byte	0x947
 1378 0940 13       		.uleb128 0x13
 1379 0941 69040000 		.4byte	0x469
 1380 0945 03       		.byte	0x3
 1381 0946 00       		.byte	0
 1382 0947 04       		.uleb128 0x4
 1383 0948 45010000 		.4byte	.LASF142
 1384 094c 0F       		.byte	0xf
 1385 094d 49       		.byte	0x49
 1386 094e 56080000 		.4byte	0x856
 1387 0952 06       		.uleb128 0x6
 1388 0953 47090000 		.4byte	0x947
 1389 0957 16       		.uleb128 0x16
 1390 0958 67020000 		.4byte	.LASF143
 1391 095c 0F       		.byte	0xf
 1392 095d 82       		.byte	0x82
 1393 095e 52090000 		.4byte	0x952
 1394 0962 04       		.uleb128 0x4
 1395 0963 ED010000 		.4byte	.LASF144
 1396 0967 0E       		.byte	0xe
 1397 0968 34       		.byte	0x34
 1398 0969 E7070000 		.4byte	0x7e7
 1399 096d 0B       		.uleb128 0xb
 1400 096e 04       		.byte	0x4
 1401 096f 62090000 		.4byte	0x962
 1402 0973 1C       		.uleb128 0x1c
 1403 0974 A1020000 		.4byte	.LASF145
 1404 0978 01       		.byte	0x1
 1405 0979 7A       		.byte	0x7a
 1406 097a 00000000 		.4byte	.LFB228
 1407 097e 50000000 		.4byte	.LFE228-.LFB228
 1408 0982 01       		.uleb128 0x1
 1409 0983 9C       		.byte	0x9c
 1410 0984 690A0000 		.4byte	0xa69
 1411 0988 1D       		.uleb128 0x1d
 1412 0989 1A000000 		.4byte	.LBB67
 1413 098d 36000000 		.4byte	.LBE67-.LBB67
 1414 0991 EE090000 		.4byte	0x9ee
 1415 0995 1E       		.uleb128 0x1e
 1416 0996 CC040000 		.4byte	.LASF147
 1417 099a 01       		.byte	0x1
 1418 099b 7E       		.byte	0x7e
 1419 099c 690A0000 		.4byte	0xa69
 1420 09a0 00000000 		.4byte	.LLST5
 1421 09a4 1F       		.uleb128 0x1f
 1422 09a5 670B0000 		.4byte	0xb67
 1423 09a9 1A000000 		.4byte	.LBB68
 1424 09ad 04000000 		.4byte	.LBE68-.LBB68
 1425 09b1 01       		.byte	0x1
ARM GAS  /tmp/cckVA5ra.s 			page 26


 1426 09b2 86       		.byte	0x86
 1427 09b3 C7090000 		.4byte	0x9c7
 1428 09b7 20       		.uleb128 0x20
 1429 09b8 1A000000 		.4byte	.LBB69
 1430 09bc 04000000 		.4byte	.LBE69-.LBB69
 1431 09c0 21       		.uleb128 0x21
 1432 09c1 780B0000 		.4byte	0xb78
 1433 09c5 00       		.byte	0
 1434 09c6 00       		.byte	0
 1435 09c7 1F       		.uleb128 0x1f
 1436 09c8 4D0B0000 		.4byte	0xb4d
 1437 09cc 2A000000 		.4byte	.LBB70
 1438 09d0 04000000 		.4byte	.LBE70-.LBB70
 1439 09d4 01       		.byte	0x1
 1440 09d5 93       		.byte	0x93
 1441 09d6 E4090000 		.4byte	0x9e4
 1442 09da 22       		.uleb128 0x22
 1443 09db 5A0B0000 		.4byte	0xb5a
 1444 09df 2D000000 		.4byte	.LLST6
 1445 09e3 00       		.byte	0
 1446 09e4 23       		.uleb128 0x23
 1447 09e5 32000000 		.4byte	.LVL13
 1448 09e9 850B0000 		.4byte	0xb85
 1449 09ed 00       		.byte	0
 1450 09ee 24       		.uleb128 0x24
 1451 09ef 180B0000 		.4byte	0xb18
 1452 09f3 02000000 		.4byte	.LBB55
 1453 09f7 00000000 		.4byte	.Ldebug_ranges0+0
 1454 09fb 01       		.byte	0x1
 1455 09fc 7C       		.byte	0x7c
 1456 09fd 2D0A0000 		.4byte	0xa2d
 1457 0a01 25       		.uleb128 0x25
 1458 0a02 2A0B0000 		.4byte	0xb2a
 1459 0a06 02000000 		.4byte	.LBB56
 1460 0a0a 00000000 		.4byte	.Ldebug_ranges0+0
 1461 0a0e 0B       		.byte	0xb
 1462 0a0f DB01     		.2byte	0x1db
 1463 0a11 25       		.uleb128 0x25
 1464 0a12 330B0000 		.4byte	0xb33
 1465 0a16 02000000 		.4byte	.LBB57
 1466 0a1a 00000000 		.4byte	.Ldebug_ranges0+0
 1467 0a1e 0B       		.byte	0xb
 1468 0a1f BF01     		.2byte	0x1bf
 1469 0a21 22       		.uleb128 0x22
 1470 0a22 400B0000 		.4byte	0xb40
 1471 0a26 4D000000 		.4byte	.LLST3
 1472 0a2a 00       		.byte	0
 1473 0a2b 00       		.byte	0
 1474 0a2c 00       		.byte	0
 1475 0a2d 26       		.uleb128 0x26
 1476 0a2e 0F0B0000 		.4byte	0xb0f
 1477 0a32 14000000 		.4byte	.LBB63
 1478 0a36 06000000 		.4byte	.LBE63-.LBB63
 1479 0a3a 01       		.byte	0x1
 1480 0a3b A5       		.byte	0xa5
 1481 0a3c 27       		.uleb128 0x27
 1482 0a3d 210B0000 		.4byte	0xb21
ARM GAS  /tmp/cckVA5ra.s 			page 27


 1483 0a41 14000000 		.4byte	.LBB64
 1484 0a45 06000000 		.4byte	.LBE64-.LBB64
 1485 0a49 0B       		.byte	0xb
 1486 0a4a E601     		.2byte	0x1e6
 1487 0a4c 27       		.uleb128 0x27
 1488 0a4d 330B0000 		.4byte	0xb33
 1489 0a51 14000000 		.4byte	.LBB65
 1490 0a55 06000000 		.4byte	.LBE65-.LBB65
 1491 0a59 0B       		.byte	0xb
 1492 0a5a CD01     		.2byte	0x1cd
 1493 0a5c 22       		.uleb128 0x22
 1494 0a5d 400B0000 		.4byte	0xb40
 1495 0a61 62000000 		.4byte	.LLST4
 1496 0a65 00       		.byte	0
 1497 0a66 00       		.byte	0
 1498 0a67 00       		.byte	0
 1499 0a68 00       		.byte	0
 1500 0a69 0B       		.uleb128 0xb
 1501 0a6a 04       		.byte	0x4
 1502 0a6b D1060000 		.4byte	0x6d1
 1503 0a6f 1C       		.uleb128 0x1c
 1504 0a70 98050000 		.4byte	.LASF146
 1505 0a74 01       		.byte	0x1
 1506 0a75 3E       		.byte	0x3e
 1507 0a76 00000000 		.4byte	.LFB227
 1508 0a7a 1A000000 		.4byte	.LFE227-.LFB227
 1509 0a7e 01       		.uleb128 0x1
 1510 0a7f 9C       		.byte	0x9c
 1511 0a80 0F0B0000 		.4byte	0xb0f
 1512 0a84 1E       		.uleb128 0x1e
 1513 0a85 CC040000 		.4byte	.LASF147
 1514 0a89 01       		.byte	0x1
 1515 0a8a 40       		.byte	0x40
 1516 0a8b 690A0000 		.4byte	0xa69
 1517 0a8f 76000000 		.4byte	.LLST0
 1518 0a93 1F       		.uleb128 0x1f
 1519 0a94 670B0000 		.4byte	0xb67
 1520 0a98 04000000 		.4byte	.LBB47
 1521 0a9c 04000000 		.4byte	.LBE47-.LBB47
 1522 0aa0 01       		.byte	0x1
 1523 0aa1 48       		.byte	0x48
 1524 0aa2 B60A0000 		.4byte	0xab6
 1525 0aa6 20       		.uleb128 0x20
 1526 0aa7 04000000 		.4byte	.LBB48
 1527 0aab 04000000 		.4byte	.LBE48-.LBB48
 1528 0aaf 21       		.uleb128 0x21
 1529 0ab0 780B0000 		.4byte	0xb78
 1530 0ab4 00       		.byte	0
 1531 0ab5 00       		.byte	0
 1532 0ab6 1F       		.uleb128 0x1f
 1533 0ab7 4D0B0000 		.4byte	0xb4d
 1534 0abb 0A000000 		.4byte	.LBB49
 1535 0abf 04000000 		.4byte	.LBE49-.LBB49
 1536 0ac3 01       		.byte	0x1
 1537 0ac4 4F       		.byte	0x4f
 1538 0ac5 D30A0000 		.4byte	0xad3
 1539 0ac9 22       		.uleb128 0x22
ARM GAS  /tmp/cckVA5ra.s 			page 28


 1540 0aca 5A0B0000 		.4byte	0xb5a
 1541 0ace 96000000 		.4byte	.LLST1
 1542 0ad2 00       		.byte	0
 1543 0ad3 26       		.uleb128 0x26
 1544 0ad4 0F0B0000 		.4byte	0xb0f
 1545 0ad8 0E000000 		.4byte	.LBB51
 1546 0adc 06000000 		.4byte	.LBE51-.LBB51
 1547 0ae0 01       		.byte	0x1
 1548 0ae1 52       		.byte	0x52
 1549 0ae2 27       		.uleb128 0x27
 1550 0ae3 210B0000 		.4byte	0xb21
 1551 0ae7 0E000000 		.4byte	.LBB52
 1552 0aeb 06000000 		.4byte	.LBE52-.LBB52
 1553 0aef 0B       		.byte	0xb
 1554 0af0 E601     		.2byte	0x1e6
 1555 0af2 27       		.uleb128 0x27
 1556 0af3 330B0000 		.4byte	0xb33
 1557 0af7 0E000000 		.4byte	.LBB53
 1558 0afb 06000000 		.4byte	.LBE53-.LBB53
 1559 0aff 0B       		.byte	0xb
 1560 0b00 CD01     		.2byte	0x1cd
 1561 0b02 22       		.uleb128 0x22
 1562 0b03 400B0000 		.4byte	0xb40
 1563 0b07 B6000000 		.4byte	.LLST2
 1564 0b0b 00       		.byte	0
 1565 0b0c 00       		.byte	0
 1566 0b0d 00       		.byte	0
 1567 0b0e 00       		.byte	0
 1568 0b0f 28       		.uleb128 0x28
 1569 0b10 51060000 		.4byte	.LASF148
 1570 0b14 0B       		.byte	0xb
 1571 0b15 E401     		.2byte	0x1e4
 1572 0b17 03       		.byte	0x3
 1573 0b18 28       		.uleb128 0x28
 1574 0b19 DB060000 		.4byte	.LASF149
 1575 0b1d 0B       		.byte	0xb
 1576 0b1e D901     		.2byte	0x1d9
 1577 0b20 03       		.byte	0x3
 1578 0b21 28       		.uleb128 0x28
 1579 0b22 12010000 		.4byte	.LASF150
 1580 0b26 0B       		.byte	0xb
 1581 0b27 CA01     		.2byte	0x1ca
 1582 0b29 03       		.byte	0x3
 1583 0b2a 28       		.uleb128 0x28
 1584 0b2b 48000000 		.4byte	.LASF151
 1585 0b2f 0B       		.byte	0xb
 1586 0b30 BC01     		.2byte	0x1bc
 1587 0b32 03       		.byte	0x3
 1588 0b33 29       		.uleb128 0x29
 1589 0b34 9F060000 		.4byte	.LASF152
 1590 0b38 02       		.byte	0x2
 1591 0b39 2002     		.2byte	0x220
 1592 0b3b 03       		.byte	0x3
 1593 0b3c 4D0B0000 		.4byte	0xb4d
 1594 0b40 2A       		.uleb128 0x2a
 1595 0b41 F5010000 		.4byte	.LASF154
 1596 0b45 02       		.byte	0x2
ARM GAS  /tmp/cckVA5ra.s 			page 29


 1597 0b46 2002     		.2byte	0x220
 1598 0b48 D0000000 		.4byte	0xd0
 1599 0b4c 00       		.byte	0
 1600 0b4d 29       		.uleb128 0x29
 1601 0b4e 1D020000 		.4byte	.LASF153
 1602 0b52 02       		.byte	0x2
 1603 0b53 B701     		.2byte	0x1b7
 1604 0b55 03       		.byte	0x3
 1605 0b56 670B0000 		.4byte	0xb67
 1606 0b5a 2A       		.uleb128 0x2a
 1607 0b5b DA020000 		.4byte	.LASF155
 1608 0b5f 02       		.byte	0x2
 1609 0b60 B701     		.2byte	0x1b7
 1610 0b62 D0000000 		.4byte	0xd0
 1611 0b66 00       		.byte	0
 1612 0b67 2B       		.uleb128 0x2b
 1613 0b68 EE060000 		.4byte	.LASF158
 1614 0b6c 02       		.byte	0x2
 1615 0b6d A801     		.2byte	0x1a8
 1616 0b6f D0000000 		.4byte	0xd0
 1617 0b73 03       		.byte	0x3
 1618 0b74 850B0000 		.4byte	0xb85
 1619 0b78 2C       		.uleb128 0x2c
 1620 0b79 60070000 		.4byte	.LASF159
 1621 0b7d 02       		.byte	0x2
 1622 0b7e AA01     		.2byte	0x1aa
 1623 0b80 D0000000 		.4byte	0xd0
 1624 0b84 00       		.byte	0
 1625 0b85 2D       		.uleb128 0x2d
 1626 0b86 5B010000 		.4byte	.LASF160
 1627 0b8a 5B010000 		.4byte	.LASF160
 1628 0b8e 07       		.byte	0x7
 1629 0b8f 1802     		.2byte	0x218
 1630 0b91 00       		.byte	0
 1631              		.section	.debug_abbrev,"",%progbits
 1632              	.Ldebug_abbrev0:
 1633 0000 01       		.uleb128 0x1
 1634 0001 11       		.uleb128 0x11
 1635 0002 01       		.byte	0x1
 1636 0003 25       		.uleb128 0x25
 1637 0004 0E       		.uleb128 0xe
 1638 0005 13       		.uleb128 0x13
 1639 0006 0B       		.uleb128 0xb
 1640 0007 03       		.uleb128 0x3
 1641 0008 0E       		.uleb128 0xe
 1642 0009 55       		.uleb128 0x55
 1643 000a 17       		.uleb128 0x17
 1644 000b 11       		.uleb128 0x11
 1645 000c 01       		.uleb128 0x1
 1646 000d 10       		.uleb128 0x10
 1647 000e 17       		.uleb128 0x17
 1648 000f 00       		.byte	0
 1649 0010 00       		.byte	0
 1650 0011 02       		.uleb128 0x2
 1651 0012 24       		.uleb128 0x24
 1652 0013 00       		.byte	0
 1653 0014 0B       		.uleb128 0xb
ARM GAS  /tmp/cckVA5ra.s 			page 30


 1654 0015 0B       		.uleb128 0xb
 1655 0016 3E       		.uleb128 0x3e
 1656 0017 0B       		.uleb128 0xb
 1657 0018 03       		.uleb128 0x3
 1658 0019 08       		.uleb128 0x8
 1659 001a 00       		.byte	0
 1660 001b 00       		.byte	0
 1661 001c 03       		.uleb128 0x3
 1662 001d 24       		.uleb128 0x24
 1663 001e 00       		.byte	0
 1664 001f 0B       		.uleb128 0xb
 1665 0020 0B       		.uleb128 0xb
 1666 0021 3E       		.uleb128 0x3e
 1667 0022 0B       		.uleb128 0xb
 1668 0023 03       		.uleb128 0x3
 1669 0024 0E       		.uleb128 0xe
 1670 0025 00       		.byte	0
 1671 0026 00       		.byte	0
 1672 0027 04       		.uleb128 0x4
 1673 0028 16       		.uleb128 0x16
 1674 0029 00       		.byte	0
 1675 002a 03       		.uleb128 0x3
 1676 002b 0E       		.uleb128 0xe
 1677 002c 3A       		.uleb128 0x3a
 1678 002d 0B       		.uleb128 0xb
 1679 002e 3B       		.uleb128 0x3b
 1680 002f 0B       		.uleb128 0xb
 1681 0030 49       		.uleb128 0x49
 1682 0031 13       		.uleb128 0x13
 1683 0032 00       		.byte	0
 1684 0033 00       		.byte	0
 1685 0034 05       		.uleb128 0x5
 1686 0035 35       		.uleb128 0x35
 1687 0036 00       		.byte	0
 1688 0037 49       		.uleb128 0x49
 1689 0038 13       		.uleb128 0x13
 1690 0039 00       		.byte	0
 1691 003a 00       		.byte	0
 1692 003b 06       		.uleb128 0x6
 1693 003c 26       		.uleb128 0x26
 1694 003d 00       		.byte	0
 1695 003e 49       		.uleb128 0x49
 1696 003f 13       		.uleb128 0x13
 1697 0040 00       		.byte	0
 1698 0041 00       		.byte	0
 1699 0042 07       		.uleb128 0x7
 1700 0043 13       		.uleb128 0x13
 1701 0044 01       		.byte	0x1
 1702 0045 03       		.uleb128 0x3
 1703 0046 0E       		.uleb128 0xe
 1704 0047 0B       		.uleb128 0xb
 1705 0048 0B       		.uleb128 0xb
 1706 0049 3A       		.uleb128 0x3a
 1707 004a 0B       		.uleb128 0xb
 1708 004b 3B       		.uleb128 0x3b
 1709 004c 0B       		.uleb128 0xb
 1710 004d 01       		.uleb128 0x1
ARM GAS  /tmp/cckVA5ra.s 			page 31


 1711 004e 13       		.uleb128 0x13
 1712 004f 00       		.byte	0
 1713 0050 00       		.byte	0
 1714 0051 08       		.uleb128 0x8
 1715 0052 0D       		.uleb128 0xd
 1716 0053 00       		.byte	0
 1717 0054 03       		.uleb128 0x3
 1718 0055 0E       		.uleb128 0xe
 1719 0056 3A       		.uleb128 0x3a
 1720 0057 0B       		.uleb128 0xb
 1721 0058 3B       		.uleb128 0x3b
 1722 0059 0B       		.uleb128 0xb
 1723 005a 49       		.uleb128 0x49
 1724 005b 13       		.uleb128 0x13
 1725 005c 38       		.uleb128 0x38
 1726 005d 0B       		.uleb128 0xb
 1727 005e 00       		.byte	0
 1728 005f 00       		.byte	0
 1729 0060 09       		.uleb128 0x9
 1730 0061 0D       		.uleb128 0xd
 1731 0062 00       		.byte	0
 1732 0063 03       		.uleb128 0x3
 1733 0064 08       		.uleb128 0x8
 1734 0065 3A       		.uleb128 0x3a
 1735 0066 0B       		.uleb128 0xb
 1736 0067 3B       		.uleb128 0x3b
 1737 0068 05       		.uleb128 0x5
 1738 0069 49       		.uleb128 0x49
 1739 006a 13       		.uleb128 0x13
 1740 006b 38       		.uleb128 0x38
 1741 006c 0B       		.uleb128 0xb
 1742 006d 00       		.byte	0
 1743 006e 00       		.byte	0
 1744 006f 0A       		.uleb128 0xa
 1745 0070 0D       		.uleb128 0xd
 1746 0071 00       		.byte	0
 1747 0072 03       		.uleb128 0x3
 1748 0073 0E       		.uleb128 0xe
 1749 0074 3A       		.uleb128 0x3a
 1750 0075 0B       		.uleb128 0xb
 1751 0076 3B       		.uleb128 0x3b
 1752 0077 05       		.uleb128 0x5
 1753 0078 49       		.uleb128 0x49
 1754 0079 13       		.uleb128 0x13
 1755 007a 38       		.uleb128 0x38
 1756 007b 0B       		.uleb128 0xb
 1757 007c 00       		.byte	0
 1758 007d 00       		.byte	0
 1759 007e 0B       		.uleb128 0xb
 1760 007f 0F       		.uleb128 0xf
 1761 0080 00       		.byte	0
 1762 0081 0B       		.uleb128 0xb
 1763 0082 0B       		.uleb128 0xb
 1764 0083 49       		.uleb128 0x49
 1765 0084 13       		.uleb128 0x13
 1766 0085 00       		.byte	0
 1767 0086 00       		.byte	0
ARM GAS  /tmp/cckVA5ra.s 			page 32


 1768 0087 0C       		.uleb128 0xc
 1769 0088 13       		.uleb128 0x13
 1770 0089 01       		.byte	0x1
 1771 008a 03       		.uleb128 0x3
 1772 008b 0E       		.uleb128 0xe
 1773 008c 0B       		.uleb128 0xb
 1774 008d 0B       		.uleb128 0xb
 1775 008e 3A       		.uleb128 0x3a
 1776 008f 0B       		.uleb128 0xb
 1777 0090 3B       		.uleb128 0x3b
 1778 0091 05       		.uleb128 0x5
 1779 0092 01       		.uleb128 0x1
 1780 0093 13       		.uleb128 0x13
 1781 0094 00       		.byte	0
 1782 0095 00       		.byte	0
 1783 0096 0D       		.uleb128 0xd
 1784 0097 15       		.uleb128 0x15
 1785 0098 01       		.byte	0x1
 1786 0099 27       		.uleb128 0x27
 1787 009a 19       		.uleb128 0x19
 1788 009b 01       		.uleb128 0x1
 1789 009c 13       		.uleb128 0x13
 1790 009d 00       		.byte	0
 1791 009e 00       		.byte	0
 1792 009f 0E       		.uleb128 0xe
 1793 00a0 05       		.uleb128 0x5
 1794 00a1 00       		.byte	0
 1795 00a2 49       		.uleb128 0x49
 1796 00a3 13       		.uleb128 0x13
 1797 00a4 00       		.byte	0
 1798 00a5 00       		.byte	0
 1799 00a6 0F       		.uleb128 0xf
 1800 00a7 0F       		.uleb128 0xf
 1801 00a8 00       		.byte	0
 1802 00a9 0B       		.uleb128 0xb
 1803 00aa 0B       		.uleb128 0xb
 1804 00ab 00       		.byte	0
 1805 00ac 00       		.byte	0
 1806 00ad 10       		.uleb128 0x10
 1807 00ae 13       		.uleb128 0x13
 1808 00af 01       		.byte	0x1
 1809 00b0 03       		.uleb128 0x3
 1810 00b1 0E       		.uleb128 0xe
 1811 00b2 0B       		.uleb128 0xb
 1812 00b3 05       		.uleb128 0x5
 1813 00b4 3A       		.uleb128 0x3a
 1814 00b5 0B       		.uleb128 0xb
 1815 00b6 3B       		.uleb128 0x3b
 1816 00b7 05       		.uleb128 0x5
 1817 00b8 01       		.uleb128 0x1
 1818 00b9 13       		.uleb128 0x13
 1819 00ba 00       		.byte	0
 1820 00bb 00       		.byte	0
 1821 00bc 11       		.uleb128 0x11
 1822 00bd 13       		.uleb128 0x13
 1823 00be 01       		.byte	0x1
 1824 00bf 0B       		.uleb128 0xb
ARM GAS  /tmp/cckVA5ra.s 			page 33


 1825 00c0 0B       		.uleb128 0xb
 1826 00c1 3A       		.uleb128 0x3a
 1827 00c2 0B       		.uleb128 0xb
 1828 00c3 3B       		.uleb128 0x3b
 1829 00c4 05       		.uleb128 0x5
 1830 00c5 01       		.uleb128 0x1
 1831 00c6 13       		.uleb128 0x13
 1832 00c7 00       		.byte	0
 1833 00c8 00       		.byte	0
 1834 00c9 12       		.uleb128 0x12
 1835 00ca 01       		.uleb128 0x1
 1836 00cb 01       		.byte	0x1
 1837 00cc 49       		.uleb128 0x49
 1838 00cd 13       		.uleb128 0x13
 1839 00ce 01       		.uleb128 0x1
 1840 00cf 13       		.uleb128 0x13
 1841 00d0 00       		.byte	0
 1842 00d1 00       		.byte	0
 1843 00d2 13       		.uleb128 0x13
 1844 00d3 21       		.uleb128 0x21
 1845 00d4 00       		.byte	0
 1846 00d5 49       		.uleb128 0x49
 1847 00d6 13       		.uleb128 0x13
 1848 00d7 2F       		.uleb128 0x2f
 1849 00d8 0B       		.uleb128 0xb
 1850 00d9 00       		.byte	0
 1851 00da 00       		.byte	0
 1852 00db 14       		.uleb128 0x14
 1853 00dc 16       		.uleb128 0x16
 1854 00dd 00       		.byte	0
 1855 00de 03       		.uleb128 0x3
 1856 00df 0E       		.uleb128 0xe
 1857 00e0 3A       		.uleb128 0x3a
 1858 00e1 0B       		.uleb128 0xb
 1859 00e2 3B       		.uleb128 0x3b
 1860 00e3 05       		.uleb128 0x5
 1861 00e4 49       		.uleb128 0x49
 1862 00e5 13       		.uleb128 0x13
 1863 00e6 00       		.byte	0
 1864 00e7 00       		.byte	0
 1865 00e8 15       		.uleb128 0x15
 1866 00e9 34       		.uleb128 0x34
 1867 00ea 00       		.byte	0
 1868 00eb 03       		.uleb128 0x3
 1869 00ec 0E       		.uleb128 0xe
 1870 00ed 3A       		.uleb128 0x3a
 1871 00ee 0B       		.uleb128 0xb
 1872 00ef 3B       		.uleb128 0x3b
 1873 00f0 05       		.uleb128 0x5
 1874 00f1 49       		.uleb128 0x49
 1875 00f2 13       		.uleb128 0x13
 1876 00f3 3F       		.uleb128 0x3f
 1877 00f4 19       		.uleb128 0x19
 1878 00f5 3C       		.uleb128 0x3c
 1879 00f6 19       		.uleb128 0x19
 1880 00f7 00       		.byte	0
 1881 00f8 00       		.byte	0
ARM GAS  /tmp/cckVA5ra.s 			page 34


 1882 00f9 16       		.uleb128 0x16
 1883 00fa 34       		.uleb128 0x34
 1884 00fb 00       		.byte	0
 1885 00fc 03       		.uleb128 0x3
 1886 00fd 0E       		.uleb128 0xe
 1887 00fe 3A       		.uleb128 0x3a
 1888 00ff 0B       		.uleb128 0xb
 1889 0100 3B       		.uleb128 0x3b
 1890 0101 0B       		.uleb128 0xb
 1891 0102 49       		.uleb128 0x49
 1892 0103 13       		.uleb128 0x13
 1893 0104 3F       		.uleb128 0x3f
 1894 0105 19       		.uleb128 0x19
 1895 0106 3C       		.uleb128 0x3c
 1896 0107 19       		.uleb128 0x19
 1897 0108 00       		.byte	0
 1898 0109 00       		.byte	0
 1899 010a 17       		.uleb128 0x17
 1900 010b 0D       		.uleb128 0xd
 1901 010c 00       		.byte	0
 1902 010d 03       		.uleb128 0x3
 1903 010e 08       		.uleb128 0x8
 1904 010f 3A       		.uleb128 0x3a
 1905 0110 0B       		.uleb128 0xb
 1906 0111 3B       		.uleb128 0x3b
 1907 0112 0B       		.uleb128 0xb
 1908 0113 49       		.uleb128 0x49
 1909 0114 13       		.uleb128 0x13
 1910 0115 38       		.uleb128 0x38
 1911 0116 0B       		.uleb128 0xb
 1912 0117 00       		.byte	0
 1913 0118 00       		.byte	0
 1914 0119 18       		.uleb128 0x18
 1915 011a 13       		.uleb128 0x13
 1916 011b 01       		.byte	0x1
 1917 011c 0B       		.uleb128 0xb
 1918 011d 0B       		.uleb128 0xb
 1919 011e 3A       		.uleb128 0x3a
 1920 011f 0B       		.uleb128 0xb
 1921 0120 3B       		.uleb128 0x3b
 1922 0121 0B       		.uleb128 0xb
 1923 0122 01       		.uleb128 0x1
 1924 0123 13       		.uleb128 0x13
 1925 0124 00       		.byte	0
 1926 0125 00       		.byte	0
 1927 0126 19       		.uleb128 0x19
 1928 0127 17       		.uleb128 0x17
 1929 0128 01       		.byte	0x1
 1930 0129 0B       		.uleb128 0xb
 1931 012a 0B       		.uleb128 0xb
 1932 012b 3A       		.uleb128 0x3a
 1933 012c 0B       		.uleb128 0xb
 1934 012d 3B       		.uleb128 0x3b
 1935 012e 0B       		.uleb128 0xb
 1936 012f 01       		.uleb128 0x1
 1937 0130 13       		.uleb128 0x13
 1938 0131 00       		.byte	0
ARM GAS  /tmp/cckVA5ra.s 			page 35


 1939 0132 00       		.byte	0
 1940 0133 1A       		.uleb128 0x1a
 1941 0134 0D       		.uleb128 0xd
 1942 0135 00       		.byte	0
 1943 0136 03       		.uleb128 0x3
 1944 0137 0E       		.uleb128 0xe
 1945 0138 3A       		.uleb128 0x3a
 1946 0139 0B       		.uleb128 0xb
 1947 013a 3B       		.uleb128 0x3b
 1948 013b 05       		.uleb128 0x5
 1949 013c 49       		.uleb128 0x49
 1950 013d 13       		.uleb128 0x13
 1951 013e 00       		.byte	0
 1952 013f 00       		.byte	0
 1953 0140 1B       		.uleb128 0x1b
 1954 0141 34       		.uleb128 0x34
 1955 0142 00       		.byte	0
 1956 0143 03       		.uleb128 0x3
 1957 0144 08       		.uleb128 0x8
 1958 0145 3A       		.uleb128 0x3a
 1959 0146 0B       		.uleb128 0xb
 1960 0147 3B       		.uleb128 0x3b
 1961 0148 05       		.uleb128 0x5
 1962 0149 49       		.uleb128 0x49
 1963 014a 13       		.uleb128 0x13
 1964 014b 3F       		.uleb128 0x3f
 1965 014c 19       		.uleb128 0x19
 1966 014d 3C       		.uleb128 0x3c
 1967 014e 19       		.uleb128 0x19
 1968 014f 00       		.byte	0
 1969 0150 00       		.byte	0
 1970 0151 1C       		.uleb128 0x1c
 1971 0152 2E       		.uleb128 0x2e
 1972 0153 01       		.byte	0x1
 1973 0154 3F       		.uleb128 0x3f
 1974 0155 19       		.uleb128 0x19
 1975 0156 03       		.uleb128 0x3
 1976 0157 0E       		.uleb128 0xe
 1977 0158 3A       		.uleb128 0x3a
 1978 0159 0B       		.uleb128 0xb
 1979 015a 3B       		.uleb128 0x3b
 1980 015b 0B       		.uleb128 0xb
 1981 015c 27       		.uleb128 0x27
 1982 015d 19       		.uleb128 0x19
 1983 015e 11       		.uleb128 0x11
 1984 015f 01       		.uleb128 0x1
 1985 0160 12       		.uleb128 0x12
 1986 0161 06       		.uleb128 0x6
 1987 0162 40       		.uleb128 0x40
 1988 0163 18       		.uleb128 0x18
 1989 0164 9742     		.uleb128 0x2117
 1990 0166 19       		.uleb128 0x19
 1991 0167 01       		.uleb128 0x1
 1992 0168 13       		.uleb128 0x13
 1993 0169 00       		.byte	0
 1994 016a 00       		.byte	0
 1995 016b 1D       		.uleb128 0x1d
ARM GAS  /tmp/cckVA5ra.s 			page 36


 1996 016c 0B       		.uleb128 0xb
 1997 016d 01       		.byte	0x1
 1998 016e 11       		.uleb128 0x11
 1999 016f 01       		.uleb128 0x1
 2000 0170 12       		.uleb128 0x12
 2001 0171 06       		.uleb128 0x6
 2002 0172 01       		.uleb128 0x1
 2003 0173 13       		.uleb128 0x13
 2004 0174 00       		.byte	0
 2005 0175 00       		.byte	0
 2006 0176 1E       		.uleb128 0x1e
 2007 0177 34       		.uleb128 0x34
 2008 0178 00       		.byte	0
 2009 0179 03       		.uleb128 0x3
 2010 017a 0E       		.uleb128 0xe
 2011 017b 3A       		.uleb128 0x3a
 2012 017c 0B       		.uleb128 0xb
 2013 017d 3B       		.uleb128 0x3b
 2014 017e 0B       		.uleb128 0xb
 2015 017f 49       		.uleb128 0x49
 2016 0180 13       		.uleb128 0x13
 2017 0181 02       		.uleb128 0x2
 2018 0182 17       		.uleb128 0x17
 2019 0183 00       		.byte	0
 2020 0184 00       		.byte	0
 2021 0185 1F       		.uleb128 0x1f
 2022 0186 1D       		.uleb128 0x1d
 2023 0187 01       		.byte	0x1
 2024 0188 31       		.uleb128 0x31
 2025 0189 13       		.uleb128 0x13
 2026 018a 11       		.uleb128 0x11
 2027 018b 01       		.uleb128 0x1
 2028 018c 12       		.uleb128 0x12
 2029 018d 06       		.uleb128 0x6
 2030 018e 58       		.uleb128 0x58
 2031 018f 0B       		.uleb128 0xb
 2032 0190 59       		.uleb128 0x59
 2033 0191 0B       		.uleb128 0xb
 2034 0192 01       		.uleb128 0x1
 2035 0193 13       		.uleb128 0x13
 2036 0194 00       		.byte	0
 2037 0195 00       		.byte	0
 2038 0196 20       		.uleb128 0x20
 2039 0197 0B       		.uleb128 0xb
 2040 0198 01       		.byte	0x1
 2041 0199 11       		.uleb128 0x11
 2042 019a 01       		.uleb128 0x1
 2043 019b 12       		.uleb128 0x12
 2044 019c 06       		.uleb128 0x6
 2045 019d 00       		.byte	0
 2046 019e 00       		.byte	0
 2047 019f 21       		.uleb128 0x21
 2048 01a0 34       		.uleb128 0x34
 2049 01a1 00       		.byte	0
 2050 01a2 31       		.uleb128 0x31
 2051 01a3 13       		.uleb128 0x13
 2052 01a4 00       		.byte	0
ARM GAS  /tmp/cckVA5ra.s 			page 37


 2053 01a5 00       		.byte	0
 2054 01a6 22       		.uleb128 0x22
 2055 01a7 05       		.uleb128 0x5
 2056 01a8 00       		.byte	0
 2057 01a9 31       		.uleb128 0x31
 2058 01aa 13       		.uleb128 0x13
 2059 01ab 02       		.uleb128 0x2
 2060 01ac 17       		.uleb128 0x17
 2061 01ad 00       		.byte	0
 2062 01ae 00       		.byte	0
 2063 01af 23       		.uleb128 0x23
 2064 01b0 898201   		.uleb128 0x4109
 2065 01b3 00       		.byte	0
 2066 01b4 11       		.uleb128 0x11
 2067 01b5 01       		.uleb128 0x1
 2068 01b6 31       		.uleb128 0x31
 2069 01b7 13       		.uleb128 0x13
 2070 01b8 00       		.byte	0
 2071 01b9 00       		.byte	0
 2072 01ba 24       		.uleb128 0x24
 2073 01bb 1D       		.uleb128 0x1d
 2074 01bc 01       		.byte	0x1
 2075 01bd 31       		.uleb128 0x31
 2076 01be 13       		.uleb128 0x13
 2077 01bf 52       		.uleb128 0x52
 2078 01c0 01       		.uleb128 0x1
 2079 01c1 55       		.uleb128 0x55
 2080 01c2 17       		.uleb128 0x17
 2081 01c3 58       		.uleb128 0x58
 2082 01c4 0B       		.uleb128 0xb
 2083 01c5 59       		.uleb128 0x59
 2084 01c6 0B       		.uleb128 0xb
 2085 01c7 01       		.uleb128 0x1
 2086 01c8 13       		.uleb128 0x13
 2087 01c9 00       		.byte	0
 2088 01ca 00       		.byte	0
 2089 01cb 25       		.uleb128 0x25
 2090 01cc 1D       		.uleb128 0x1d
 2091 01cd 01       		.byte	0x1
 2092 01ce 31       		.uleb128 0x31
 2093 01cf 13       		.uleb128 0x13
 2094 01d0 52       		.uleb128 0x52
 2095 01d1 01       		.uleb128 0x1
 2096 01d2 55       		.uleb128 0x55
 2097 01d3 17       		.uleb128 0x17
 2098 01d4 58       		.uleb128 0x58
 2099 01d5 0B       		.uleb128 0xb
 2100 01d6 59       		.uleb128 0x59
 2101 01d7 05       		.uleb128 0x5
 2102 01d8 00       		.byte	0
 2103 01d9 00       		.byte	0
 2104 01da 26       		.uleb128 0x26
 2105 01db 1D       		.uleb128 0x1d
 2106 01dc 01       		.byte	0x1
 2107 01dd 31       		.uleb128 0x31
 2108 01de 13       		.uleb128 0x13
 2109 01df 11       		.uleb128 0x11
ARM GAS  /tmp/cckVA5ra.s 			page 38


 2110 01e0 01       		.uleb128 0x1
 2111 01e1 12       		.uleb128 0x12
 2112 01e2 06       		.uleb128 0x6
 2113 01e3 58       		.uleb128 0x58
 2114 01e4 0B       		.uleb128 0xb
 2115 01e5 59       		.uleb128 0x59
 2116 01e6 0B       		.uleb128 0xb
 2117 01e7 00       		.byte	0
 2118 01e8 00       		.byte	0
 2119 01e9 27       		.uleb128 0x27
 2120 01ea 1D       		.uleb128 0x1d
 2121 01eb 01       		.byte	0x1
 2122 01ec 31       		.uleb128 0x31
 2123 01ed 13       		.uleb128 0x13
 2124 01ee 11       		.uleb128 0x11
 2125 01ef 01       		.uleb128 0x1
 2126 01f0 12       		.uleb128 0x12
 2127 01f1 06       		.uleb128 0x6
 2128 01f2 58       		.uleb128 0x58
 2129 01f3 0B       		.uleb128 0xb
 2130 01f4 59       		.uleb128 0x59
 2131 01f5 05       		.uleb128 0x5
 2132 01f6 00       		.byte	0
 2133 01f7 00       		.byte	0
 2134 01f8 28       		.uleb128 0x28
 2135 01f9 2E       		.uleb128 0x2e
 2136 01fa 00       		.byte	0
 2137 01fb 03       		.uleb128 0x3
 2138 01fc 0E       		.uleb128 0xe
 2139 01fd 3A       		.uleb128 0x3a
 2140 01fe 0B       		.uleb128 0xb
 2141 01ff 3B       		.uleb128 0x3b
 2142 0200 05       		.uleb128 0x5
 2143 0201 27       		.uleb128 0x27
 2144 0202 19       		.uleb128 0x19
 2145 0203 20       		.uleb128 0x20
 2146 0204 0B       		.uleb128 0xb
 2147 0205 00       		.byte	0
 2148 0206 00       		.byte	0
 2149 0207 29       		.uleb128 0x29
 2150 0208 2E       		.uleb128 0x2e
 2151 0209 01       		.byte	0x1
 2152 020a 03       		.uleb128 0x3
 2153 020b 0E       		.uleb128 0xe
 2154 020c 3A       		.uleb128 0x3a
 2155 020d 0B       		.uleb128 0xb
 2156 020e 3B       		.uleb128 0x3b
 2157 020f 05       		.uleb128 0x5
 2158 0210 27       		.uleb128 0x27
 2159 0211 19       		.uleb128 0x19
 2160 0212 20       		.uleb128 0x20
 2161 0213 0B       		.uleb128 0xb
 2162 0214 01       		.uleb128 0x1
 2163 0215 13       		.uleb128 0x13
 2164 0216 00       		.byte	0
 2165 0217 00       		.byte	0
 2166 0218 2A       		.uleb128 0x2a
ARM GAS  /tmp/cckVA5ra.s 			page 39


 2167 0219 05       		.uleb128 0x5
 2168 021a 00       		.byte	0
 2169 021b 03       		.uleb128 0x3
 2170 021c 0E       		.uleb128 0xe
 2171 021d 3A       		.uleb128 0x3a
 2172 021e 0B       		.uleb128 0xb
 2173 021f 3B       		.uleb128 0x3b
 2174 0220 05       		.uleb128 0x5
 2175 0221 49       		.uleb128 0x49
 2176 0222 13       		.uleb128 0x13
 2177 0223 00       		.byte	0
 2178 0224 00       		.byte	0
 2179 0225 2B       		.uleb128 0x2b
 2180 0226 2E       		.uleb128 0x2e
 2181 0227 01       		.byte	0x1
 2182 0228 03       		.uleb128 0x3
 2183 0229 0E       		.uleb128 0xe
 2184 022a 3A       		.uleb128 0x3a
 2185 022b 0B       		.uleb128 0xb
 2186 022c 3B       		.uleb128 0x3b
 2187 022d 05       		.uleb128 0x5
 2188 022e 27       		.uleb128 0x27
 2189 022f 19       		.uleb128 0x19
 2190 0230 49       		.uleb128 0x49
 2191 0231 13       		.uleb128 0x13
 2192 0232 20       		.uleb128 0x20
 2193 0233 0B       		.uleb128 0xb
 2194 0234 01       		.uleb128 0x1
 2195 0235 13       		.uleb128 0x13
 2196 0236 00       		.byte	0
 2197 0237 00       		.byte	0
 2198 0238 2C       		.uleb128 0x2c
 2199 0239 34       		.uleb128 0x34
 2200 023a 00       		.byte	0
 2201 023b 03       		.uleb128 0x3
 2202 023c 0E       		.uleb128 0xe
 2203 023d 3A       		.uleb128 0x3a
 2204 023e 0B       		.uleb128 0xb
 2205 023f 3B       		.uleb128 0x3b
 2206 0240 05       		.uleb128 0x5
 2207 0241 49       		.uleb128 0x49
 2208 0242 13       		.uleb128 0x13
 2209 0243 00       		.byte	0
 2210 0244 00       		.byte	0
 2211 0245 2D       		.uleb128 0x2d
 2212 0246 2E       		.uleb128 0x2e
 2213 0247 00       		.byte	0
 2214 0248 3F       		.uleb128 0x3f
 2215 0249 19       		.uleb128 0x19
 2216 024a 3C       		.uleb128 0x3c
 2217 024b 19       		.uleb128 0x19
 2218 024c 6E       		.uleb128 0x6e
 2219 024d 0E       		.uleb128 0xe
 2220 024e 03       		.uleb128 0x3
 2221 024f 0E       		.uleb128 0xe
 2222 0250 3A       		.uleb128 0x3a
 2223 0251 0B       		.uleb128 0xb
ARM GAS  /tmp/cckVA5ra.s 			page 40


 2224 0252 3B       		.uleb128 0x3b
 2225 0253 05       		.uleb128 0x5
 2226 0254 00       		.byte	0
 2227 0255 00       		.byte	0
 2228 0256 00       		.byte	0
 2229              		.section	.debug_loc,"",%progbits
 2230              	.Ldebug_loc0:
 2231              	.LLST5:
 2232 0000 1E000000 		.4byte	.LVL9
 2233 0004 2A000000 		.4byte	.LVL11
 2234 0008 0300     		.2byte	0x3
 2235 000a 74       		.byte	0x74
 2236 000b 60       		.sleb128 -32
 2237 000c 9F       		.byte	0x9f
 2238 000d 2A000000 		.4byte	.LVL11
 2239 0011 31000000 		.4byte	.LVL13-1
 2240 0015 0100     		.2byte	0x1
 2241 0017 53       		.byte	0x53
 2242 0018 31000000 		.4byte	.LVL13-1
 2243 001c 44000000 		.4byte	.LVL15
 2244 0020 0300     		.2byte	0x3
 2245 0022 74       		.byte	0x74
 2246 0023 60       		.sleb128 -32
 2247 0024 9F       		.byte	0x9f
 2248 0025 00000000 		.4byte	0
 2249 0029 00000000 		.4byte	0
 2250              	.LLST6:
 2251 002d 26000000 		.4byte	.LVL10
 2252 0031 2A000000 		.4byte	.LVL11
 2253 0035 0300     		.2byte	0x3
 2254 0037 74       		.byte	0x74
 2255 0038 60       		.sleb128 -32
 2256 0039 9F       		.byte	0x9f
 2257 003a 2A000000 		.4byte	.LVL11
 2258 003e 2E000000 		.4byte	.LVL12
 2259 0042 0100     		.2byte	0x1
 2260 0044 53       		.byte	0x53
 2261 0045 00000000 		.4byte	0
 2262 0049 00000000 		.4byte	0
 2263              	.LLST3:
 2264 004d 00000000 		.4byte	.LVL5
 2265 0051 0A000000 		.4byte	.LVL6
 2266 0055 0300     		.2byte	0x3
 2267 0057 08       		.byte	0x8
 2268 0058 20       		.byte	0x20
 2269 0059 9F       		.byte	0x9f
 2270 005a 00000000 		.4byte	0
 2271 005e 00000000 		.4byte	0
 2272              	.LLST4:
 2273 0062 14000000 		.4byte	.LVL7
 2274 0066 18000000 		.4byte	.LVL8
 2275 006a 0200     		.2byte	0x2
 2276 006c 30       		.byte	0x30
 2277 006d 9F       		.byte	0x9f
 2278 006e 00000000 		.4byte	0
 2279 0072 00000000 		.4byte	0
 2280              	.LLST0:
ARM GAS  /tmp/cckVA5ra.s 			page 41


 2281 0076 08000000 		.4byte	.LVL0
 2282 007a 0A000000 		.4byte	.LVL1
 2283 007e 0300     		.2byte	0x3
 2284 0080 73       		.byte	0x73
 2285 0081 20       		.sleb128 32
 2286 0082 9F       		.byte	0x9f
 2287 0083 0A000000 		.4byte	.LVL1
 2288 0087 10000000 		.4byte	.LVL3
 2289 008b 0100     		.2byte	0x1
 2290 008d 53       		.byte	0x53
 2291 008e 00000000 		.4byte	0
 2292 0092 00000000 		.4byte	0
 2293              	.LLST1:
 2294 0096 08000000 		.4byte	.LVL0
 2295 009a 0A000000 		.4byte	.LVL1
 2296 009e 0300     		.2byte	0x3
 2297 00a0 73       		.byte	0x73
 2298 00a1 20       		.sleb128 32
 2299 00a2 9F       		.byte	0x9f
 2300 00a3 0A000000 		.4byte	.LVL1
 2301 00a7 0E000000 		.4byte	.LVL2
 2302 00ab 0100     		.2byte	0x1
 2303 00ad 53       		.byte	0x53
 2304 00ae 00000000 		.4byte	0
 2305 00b2 00000000 		.4byte	0
 2306              	.LLST2:
 2307 00b6 0E000000 		.4byte	.LVL2
 2308 00ba 14000000 		.4byte	.LVL4
 2309 00be 0200     		.2byte	0x2
 2310 00c0 30       		.byte	0x30
 2311 00c1 9F       		.byte	0x9f
 2312 00c2 00000000 		.4byte	0
 2313 00c6 00000000 		.4byte	0
 2314              		.section	.debug_aranges,"",%progbits
 2315 0000 24000000 		.4byte	0x24
 2316 0004 0200     		.2byte	0x2
 2317 0006 00000000 		.4byte	.Ldebug_info0
 2318 000a 04       		.byte	0x4
 2319 000b 00       		.byte	0
 2320 000c 0000     		.2byte	0
 2321 000e 0000     		.2byte	0
 2322 0010 00000000 		.4byte	.LFB227
 2323 0014 1A000000 		.4byte	.LFE227-.LFB227
 2324 0018 00000000 		.4byte	.LFB228
 2325 001c 50000000 		.4byte	.LFE228-.LFB228
 2326 0020 00000000 		.4byte	0
 2327 0024 00000000 		.4byte	0
 2328              		.section	.debug_ranges,"",%progbits
 2329              	.Ldebug_ranges0:
 2330 0000 02000000 		.4byte	.LBB55
 2331 0004 04000000 		.4byte	.LBE55
 2332 0008 06000000 		.4byte	.LBB62
 2333 000c 0A000000 		.4byte	.LBE62
 2334 0010 00000000 		.4byte	0
 2335 0014 00000000 		.4byte	0
 2336 0018 00000000 		.4byte	.LFB227
 2337 001c 1A000000 		.4byte	.LFE227
ARM GAS  /tmp/cckVA5ra.s 			page 42


 2338 0020 00000000 		.4byte	.LFB228
 2339 0024 50000000 		.4byte	.LFE228
 2340 0028 00000000 		.4byte	0
 2341 002c 00000000 		.4byte	0
 2342              		.section	.debug_line,"",%progbits
 2343              	.Ldebug_line0:
 2344 0000 9B020000 		.section	.debug_str,"MS",%progbits,1
 2344      02002302 
 2344      00000201 
 2344      FB0E0D00 
 2344      01010101 
 2345              	.LASF53:
 2346 0000 72656164 		.ascii	"ready_list_t\000"
 2346      795F6C69 
 2346      73745F74 
 2346      00
 2347              	.LASF112:
 2348 000d 77747472 		.ascii	"wttrp\000"
 2348      7000
 2349              	.LASF109:
 2350 0013 7264796D 		.ascii	"rdymsg\000"
 2350      736700
 2351              	.LASF19:
 2352 001a 75696E74 		.ascii	"uint64_t\000"
 2352      36345F74 
 2352      00
 2353              	.LASF6:
 2354 0023 5F5F7569 		.ascii	"__uint8_t\000"
 2354      6E74385F 
 2354      7400
 2355              	.LASF103:
 2356 002d 706F7274 		.ascii	"port_intctx\000"
 2356      5F696E74 
 2356      63747800 
 2357              	.LASF72:
 2358 0039 73797374 		.ascii	"system_debug_t\000"
 2358      656D5F64 
 2358      65627567 
 2358      5F7400
 2359              	.LASF151:
 2360 0048 706F7274 		.ascii	"port_lock\000"
 2360      5F6C6F63 
 2360      6B00
 2361              	.LASF14:
 2362 0052 6C6F6E67 		.ascii	"long long unsigned int\000"
 2362      206C6F6E 
 2362      6720756E 
 2362      7369676E 
 2362      65642069 
 2363              	.LASF130:
 2364 0069 63685F74 		.ascii	"ch_threadsize\000"
 2364      68726561 
 2364      6473697A 
 2364      6500
 2365              	.LASF110:
 2366 0077 65786974 		.ascii	"exitcode\000"
 2366      636F6465 
ARM GAS  /tmp/cckVA5ra.s 			page 43


 2366      00
 2367              	.LASF79:
 2368 0080 6D61696E 		.ascii	"mainthread\000"
 2368      74687265 
 2368      616400
 2369              	.LASF69:
 2370 008b 76697274 		.ascii	"virtual_timers_list_t\000"
 2370      75616C5F 
 2370      74696D65 
 2370      72735F6C 
 2370      6973745F 
 2371              	.LASF82:
 2372 00a1 43505549 		.ascii	"CPUID\000"
 2372      4400
 2373              	.LASF52:
 2374 00a7 63685F74 		.ascii	"ch_threads_queue\000"
 2374      68726561 
 2374      64735F71 
 2374      75657565 
 2374      00
 2375              	.LASF32:
 2376 00b8 705F7072 		.ascii	"p_prio\000"
 2376      696F00
 2377              	.LASF94:
 2378 00bf 49534152 		.ascii	"ISAR\000"
 2378      00
 2379              	.LASF1:
 2380 00c4 6C6F6E67 		.ascii	"long long int\000"
 2380      206C6F6E 
 2380      6720696E 
 2380      7400
 2381              	.LASF3:
 2382 00d2 7369676E 		.ascii	"signed char\000"
 2382      65642063 
 2382      68617200 
 2383              	.LASF136:
 2384 00de 63665F6F 		.ascii	"cf_off_stklimit\000"
 2384      66665F73 
 2384      746B6C69 
 2384      6D697400 
 2385              	.LASF138:
 2386 00ee 63665F6F 		.ascii	"cf_off_flags\000"
 2386      66665F66 
 2386      6C616773 
 2386      00
 2387              	.LASF46:
 2388 00fb 705F6D70 		.ascii	"p_mpool\000"
 2388      6F6F6C00 
 2389              	.LASF120:
 2390 0103 6D5F7175 		.ascii	"m_queue\000"
 2390      65756500 
 2391              	.LASF78:
 2392 010b 76746C69 		.ascii	"vtlist\000"
 2392      737400
 2393              	.LASF150:
 2394 0112 706F7274 		.ascii	"port_unlock\000"
 2394      5F756E6C 
ARM GAS  /tmp/cckVA5ra.s 			page 44


 2394      6F636B00 
 2395              	.LASF76:
 2396 011e 63685F73 		.ascii	"ch_system\000"
 2396      79737465 
 2396      6D00
 2397              	.LASF10:
 2398 0128 6C6F6E67 		.ascii	"long int\000"
 2398      20696E74 
 2398      00
 2399              	.LASF22:
 2400 0131 74737461 		.ascii	"tstate_t\000"
 2400      74655F74 
 2400      00
 2401              	.LASF127:
 2402 013a 63685F76 		.ascii	"ch_version\000"
 2402      65727369 
 2402      6F6E00
 2403              	.LASF142:
 2404 0145 63686465 		.ascii	"chdebug_t\000"
 2404      6275675F 
 2404      7400
 2405              	.LASF75:
 2406 014f 63685F73 		.ascii	"ch_system_t\000"
 2406      79737465 
 2406      6D5F7400 
 2407              	.LASF160:
 2408 015b 63685363 		.ascii	"chSchIsPreemptionRequired\000"
 2408      68497350 
 2408      7265656D 
 2408      7074696F 
 2408      6E526571 
 2409              	.LASF34:
 2410 0175 705F6E65 		.ascii	"p_newer\000"
 2410      77657200 
 2411              	.LASF117:
 2412 017d 735F7175 		.ascii	"s_queue\000"
 2412      65756500 
 2413              	.LASF157:
 2414 0185 2F686F6D 		.ascii	"/home/selim/working/ChibiOS/os/rt/ports/ARMCMx/chco"
 2414      652F7365 
 2414      6C696D2F 
 2414      776F726B 
 2414      696E672F 
 2415 01b8 72655F76 		.ascii	"re_v7m.c\000"
 2415      376D2E63 
 2415      00
 2416              	.LASF91:
 2417 01c1 42464152 		.ascii	"BFAR\000"
 2417      00
 2418              	.LASF92:
 2419 01c6 41465352 		.ascii	"AFSR\000"
 2419      00
 2420              	.LASF58:
 2421 01cb 725F6E65 		.ascii	"r_newer\000"
 2421      77657200 
 2422              	.LASF100:
 2423 01d3 72656761 		.ascii	"regarm_t\000"
ARM GAS  /tmp/cckVA5ra.s 			page 45


 2423      726D5F74 
 2423      00
 2424              	.LASF65:
 2425 01dc 76745F70 		.ascii	"vt_prev\000"
 2425      72657600 
 2426              	.LASF97:
 2427 01e4 5343425F 		.ascii	"SCB_Type\000"
 2427      54797065 
 2427      00
 2428              	.LASF144:
 2429 01ed 6D757465 		.ascii	"mutex_t\000"
 2429      785F7400 
 2430              	.LASF154:
 2431 01f5 76616C75 		.ascii	"value\000"
 2431      6500
 2432              	.LASF80:
 2433 01fb 69646C65 		.ascii	"idle_thread_wa\000"
 2433      5F746872 
 2433      6561645F 
 2433      776100
 2434              	.LASF27:
 2435 020a 636E745F 		.ascii	"cnt_t\000"
 2435      7400
 2436              	.LASF0:
 2437 0210 756E7369 		.ascii	"unsigned int\000"
 2437      676E6564 
 2437      20696E74 
 2437      00
 2438              	.LASF153:
 2439 021d 5F5F7365 		.ascii	"__set_PSP\000"
 2439      745F5053 
 2439      5000
 2440              	.LASF64:
 2441 0227 76745F6E 		.ascii	"vt_next\000"
 2441      65787400 
 2442              	.LASF16:
 2443 022f 75696E74 		.ascii	"uint16_t\000"
 2443      31365F74 
 2443      00
 2444              	.LASF99:
 2445 0238 53797374 		.ascii	"SystemCoreClock\000"
 2445      656D436F 
 2445      7265436C 
 2445      6F636B00 
 2446              	.LASF113:
 2447 0248 77747365 		.ascii	"wtsemp\000"
 2447      6D7000
 2448              	.LASF134:
 2449 024f 63665F6F 		.ascii	"cf_off_older\000"
 2449      66665F6F 
 2449      6C646572 
 2449      00
 2450              	.LASF41:
 2451 025c 705F6D73 		.ascii	"p_msgqueue\000"
 2451      67717565 
 2451      756500
 2452              	.LASF143:
ARM GAS  /tmp/cckVA5ra.s 			page 46


 2453 0267 63685F64 		.ascii	"ch_debug\000"
 2453      65627567 
 2453      00
 2454              	.LASF84:
 2455 0270 56544F52 		.ascii	"VTOR\000"
 2455      00
 2456              	.LASF118:
 2457 0275 735F636E 		.ascii	"s_cnt\000"
 2457      7400
 2458              	.LASF49:
 2459 027b 63685F74 		.ascii	"ch_thread\000"
 2459      68726561 
 2459      6400
 2460              	.LASF83:
 2461 0285 49435352 		.ascii	"ICSR\000"
 2461      00
 2462              	.LASF25:
 2463 028a 6D73675F 		.ascii	"msg_t\000"
 2463      7400
 2464              	.LASF85:
 2465 0290 41495243 		.ascii	"AIRCR\000"
 2465      5200
 2466              	.LASF89:
 2467 0296 44465352 		.ascii	"DFSR\000"
 2467      00
 2468              	.LASF90:
 2469 029b 4D4D4641 		.ascii	"MMFAR\000"
 2469      5200
 2470              	.LASF145:
 2471 02a1 5F706F72 		.ascii	"_port_irq_epilogue\000"
 2471      745F6972 
 2471      715F6570 
 2471      696C6F67 
 2471      756500
 2472              	.LASF141:
 2473 02b4 63665F6F 		.ascii	"cf_off_time\000"
 2473      66665F74 
 2473      696D6500 
 2474              	.LASF54:
 2475 02c0 63685F72 		.ascii	"ch_ready_list\000"
 2475      65616479 
 2475      5F6C6973 
 2475      7400
 2476              	.LASF26:
 2477 02ce 6576656E 		.ascii	"eventmask_t\000"
 2477      746D6173 
 2477      6B5F7400 
 2478              	.LASF155:
 2479 02da 746F704F 		.ascii	"topOfProcStack\000"
 2479      6650726F 
 2479      63537461 
 2479      636B00
 2480              	.LASF9:
 2481 02e9 5F5F696E 		.ascii	"__int32_t\000"
 2481      7433325F 
 2481      7400
 2482              	.LASF101:
ARM GAS  /tmp/cckVA5ra.s 			page 47


 2483 02f3 73746B61 		.ascii	"stkalign_t\000"
 2483      6C69676E 
 2483      5F7400
 2484              	.LASF48:
 2485 02fe 74687265 		.ascii	"threads_list_t\000"
 2485      6164735F 
 2485      6C697374 
 2485      5F7400
 2486              	.LASF125:
 2487 030d 63685F7A 		.ascii	"ch_zero\000"
 2487      65726F00 
 2488              	.LASF139:
 2489 0315 63665F6F 		.ascii	"cf_off_refs\000"
 2489      66665F72 
 2489      65667300 
 2490              	.LASF40:
 2491 0321 705F7761 		.ascii	"p_waiting\000"
 2491      6974696E 
 2491      6700
 2492              	.LASF87:
 2493 032b 43465352 		.ascii	"CFSR\000"
 2493      00
 2494              	.LASF81:
 2495 0330 73697A65 		.ascii	"sizetype\000"
 2495      74797065 
 2495      00
 2496              	.LASF47:
 2497 0339 74687265 		.ascii	"thread_reference_t\000"
 2497      61645F72 
 2497      65666572 
 2497      656E6365 
 2497      5F7400
 2498              	.LASF70:
 2499 034c 63685F76 		.ascii	"ch_virtual_timers_list\000"
 2499      69727475 
 2499      616C5F74 
 2499      696D6572 
 2499      735F6C69 
 2500              	.LASF2:
 2501 0363 6C6F6E67 		.ascii	"long double\000"
 2501      20646F75 
 2501      626C6500 
 2502              	.LASF156:
 2503 036f 474E5520 		.ascii	"GNU C11 6.2.1 20161205 (release) [ARM/embedded-6-br"
 2503      43313120 
 2503      362E322E 
 2503      31203230 
 2503      31363132 
 2504 03a2 616E6368 		.ascii	"anch revision 243739] -mcpu=cortex-m4 -mno-thumb-in"
 2504      20726576 
 2504      6973696F 
 2504      6E203234 
 2504      33373339 
 2505 03d5 74657277 		.ascii	"terwork -mthumb -ggdb -O2 -fomit-frame-pointer -fal"
 2505      6F726B20 
 2505      2D6D7468 
 2505      756D6220 
ARM GAS  /tmp/cckVA5ra.s 			page 48


 2505      2D676764 
 2506 0408 69676E2D 		.ascii	"ign-functions=16 -ffunction-sections -fdata-section"
 2506      66756E63 
 2506      74696F6E 
 2506      733D3136 
 2506      202D6666 
 2507 043b 73202D66 		.ascii	"s -fno-common\000"
 2507      6E6F2D63 
 2507      6F6D6D6F 
 2507      6E00
 2508              	.LASF129:
 2509 0449 63685F74 		.ascii	"ch_timesize\000"
 2509      696D6573 
 2509      697A6500 
 2510              	.LASF135:
 2511 0455 63665F6F 		.ascii	"cf_off_name\000"
 2511      66665F6E 
 2511      616D6500 
 2512              	.LASF35:
 2513 0461 705F6F6C 		.ascii	"p_older\000"
 2513      64657200 
 2514              	.LASF57:
 2515 0469 725F6374 		.ascii	"r_ctx\000"
 2515      7800
 2516              	.LASF33:
 2517 046f 705F6374 		.ascii	"p_ctx\000"
 2517      7800
 2518              	.LASF104:
 2519 0475 706F7274 		.ascii	"port_extctx\000"
 2519      5F657874 
 2519      63747800 
 2520              	.LASF108:
 2521 0481 746D5F63 		.ascii	"tm_calibration_t\000"
 2521      616C6962 
 2521      72617469 
 2521      6F6E5F74 
 2521      00
 2522              	.LASF60:
 2523 0492 725F6375 		.ascii	"r_current\000"
 2523      7272656E 
 2523      7400
 2524              	.LASF59:
 2525 049c 725F6F6C 		.ascii	"r_older\000"
 2525      64657200 
 2526              	.LASF13:
 2527 04a4 5F5F7569 		.ascii	"__uint64_t\000"
 2527      6E743634 
 2527      5F7400
 2528              	.LASF23:
 2529 04af 74726566 		.ascii	"trefs_t\000"
 2529      735F7400 
 2530              	.LASF95:
 2531 04b7 52455345 		.ascii	"RESERVED0\000"
 2531      52564544 
 2531      3000
 2532              	.LASF128:
 2533 04c1 63685F70 		.ascii	"ch_ptrsize\000"
ARM GAS  /tmp/cckVA5ra.s 			page 49


 2533      74727369 
 2533      7A6500
 2534              	.LASF147:
 2535 04cc 63747870 		.ascii	"ctxp\000"
 2535      00
 2536              	.LASF62:
 2537 04d1 76697274 		.ascii	"virtual_timer_t\000"
 2537      75616C5F 
 2537      74696D65 
 2537      725F7400 
 2538              	.LASF31:
 2539 04e1 705F7072 		.ascii	"p_prev\000"
 2539      657600
 2540              	.LASF24:
 2541 04e8 74707269 		.ascii	"tprio_t\000"
 2541      6F5F7400 
 2542              	.LASF73:
 2543 04f0 63685F73 		.ascii	"ch_system_debug\000"
 2543      79737465 
 2543      6D5F6465 
 2543      62756700 
 2544              	.LASF17:
 2545 0500 696E7433 		.ascii	"int32_t\000"
 2545      325F7400 
 2546              	.LASF4:
 2547 0508 756E7369 		.ascii	"unsigned char\000"
 2547      676E6564 
 2547      20636861 
 2547      7200
 2548              	.LASF86:
 2549 0516 53484353 		.ascii	"SHCSR\000"
 2549      5200
 2550              	.LASF98:
 2551 051c 49544D5F 		.ascii	"ITM_RxBuffer\000"
 2551      52784275 
 2551      66666572 
 2551      00
 2552              	.LASF44:
 2553 0529 705F6D74 		.ascii	"p_mtxlist\000"
 2553      786C6973 
 2553      7400
 2554              	.LASF5:
 2555 0533 73686F72 		.ascii	"short int\000"
 2555      7420696E 
 2555      7400
 2556              	.LASF37:
 2557 053d 705F7374 		.ascii	"p_state\000"
 2557      61746500 
 2558              	.LASF106:
 2559 0545 78707372 		.ascii	"xpsr\000"
 2559      00
 2560              	.LASF56:
 2561 054a 725F7072 		.ascii	"r_prio\000"
 2561      696F00
 2562              	.LASF115:
 2563 0551 65776D61 		.ascii	"ewmask\000"
 2563      736B00
ARM GAS  /tmp/cckVA5ra.s 			page 50


 2564              	.LASF30:
 2565 0558 705F6E65 		.ascii	"p_next\000"
 2565      787400
 2566              	.LASF21:
 2567 055f 746D6F64 		.ascii	"tmode_t\000"
 2567      655F7400 
 2568              	.LASF140:
 2569 0567 63665F6F 		.ascii	"cf_off_preempt\000"
 2569      66665F70 
 2569      7265656D 
 2569      707400
 2570              	.LASF38:
 2571 0576 705F666C 		.ascii	"p_flags\000"
 2571      61677300 
 2572              	.LASF8:
 2573 057e 73686F72 		.ascii	"short unsigned int\000"
 2573      7420756E 
 2573      7369676E 
 2573      65642069 
 2573      6E7400
 2574              	.LASF105:
 2575 0591 6C725F74 		.ascii	"lr_thd\000"
 2575      686400
 2576              	.LASF146:
 2577 0598 5356435F 		.ascii	"SVC_Handler\000"
 2577      48616E64 
 2577      6C657200 
 2578              	.LASF51:
 2579 05a4 74687265 		.ascii	"threads_queue_t\000"
 2579      6164735F 
 2579      71756575 
 2579      655F7400 
 2580              	.LASF63:
 2581 05b4 63685F76 		.ascii	"ch_virtual_timer\000"
 2581      69727475 
 2581      616C5F74 
 2581      696D6572 
 2581      00
 2582              	.LASF133:
 2583 05c5 63665F6F 		.ascii	"cf_off_newer\000"
 2583      66665F6E 
 2583      65776572 
 2583      00
 2584              	.LASF116:
 2585 05d2 63685F73 		.ascii	"ch_semaphore\000"
 2585      656D6170 
 2585      686F7265 
 2585      00
 2586              	.LASF43:
 2587 05df 705F6570 		.ascii	"p_epending\000"
 2587      656E6469 
 2587      6E6700
 2588              	.LASF18:
 2589 05ea 75696E74 		.ascii	"uint32_t\000"
 2589      33325F74 
 2589      00
 2590              	.LASF131:
ARM GAS  /tmp/cckVA5ra.s 			page 51


 2591 05f3 63665F6F 		.ascii	"cf_off_prio\000"
 2591      66665F70 
 2591      72696F00 
 2592              	.LASF55:
 2593 05ff 725F7175 		.ascii	"r_queue\000"
 2593      65756500 
 2594              	.LASF66:
 2595 0607 76745F64 		.ascii	"vt_delta\000"
 2595      656C7461 
 2595      00
 2596              	.LASF50:
 2597 0610 63685F74 		.ascii	"ch_threads_list\000"
 2597      68726561 
 2597      64735F6C 
 2597      69737400 
 2598              	.LASF126:
 2599 0620 63685F73 		.ascii	"ch_size\000"
 2599      697A6500 
 2600              	.LASF12:
 2601 0628 6C6F6E67 		.ascii	"long unsigned int\000"
 2601      20756E73 
 2601      69676E65 
 2601      6420696E 
 2601      7400
 2602              	.LASF123:
 2603 063a 63686172 		.ascii	"char\000"
 2603      00
 2604              	.LASF114:
 2605 063f 77746D74 		.ascii	"wtmtxp\000"
 2605      787000
 2606              	.LASF7:
 2607 0646 5F5F7569 		.ascii	"__uint16_t\000"
 2607      6E743136 
 2607      5F7400
 2608              	.LASF148:
 2609 0651 706F7274 		.ascii	"port_unlock_from_isr\000"
 2609      5F756E6C 
 2609      6F636B5F 
 2609      66726F6D 
 2609      5F697372 
 2610              	.LASF29:
 2611 0666 74687265 		.ascii	"thread_t\000"
 2611      61645F74 
 2611      00
 2612              	.LASF122:
 2613 066f 6D5F6E65 		.ascii	"m_next\000"
 2613      787400
 2614              	.LASF28:
 2615 0676 73797374 		.ascii	"systime_t\000"
 2615      696D655F 
 2615      7400
 2616              	.LASF45:
 2617 0680 705F7265 		.ascii	"p_realprio\000"
 2617      616C7072 
 2617      696F00
 2618              	.LASF61:
 2619 068b 76746675 		.ascii	"vtfunc_t\000"
ARM GAS  /tmp/cckVA5ra.s 			page 52


 2619      6E635F74 
 2619      00
 2620              	.LASF11:
 2621 0694 5F5F7569 		.ascii	"__uint32_t\000"
 2621      6E743332 
 2621      5F7400
 2622              	.LASF152:
 2623 069f 5F5F7365 		.ascii	"__set_BASEPRI\000"
 2623      745F4241 
 2623      53455052 
 2623      4900
 2624              	.LASF74:
 2625 06ad 70616E69 		.ascii	"panic_msg\000"
 2625      635F6D73 
 2625      6700
 2626              	.LASF107:
 2627 06b7 6F666673 		.ascii	"offset\000"
 2627      657400
 2628              	.LASF102:
 2629 06be 636F6E74 		.ascii	"context\000"
 2629      65787400 
 2630              	.LASF137:
 2631 06c6 63665F6F 		.ascii	"cf_off_state\000"
 2631      66665F73 
 2631      74617465 
 2631      00
 2632              	.LASF20:
 2633 06d3 7274636E 		.ascii	"rtcnt_t\000"
 2633      745F7400 
 2634              	.LASF149:
 2635 06db 706F7274 		.ascii	"port_lock_from_isr\000"
 2635      5F6C6F63 
 2635      6B5F6672 
 2635      6F6D5F69 
 2635      737200
 2636              	.LASF158:
 2637 06ee 5F5F6765 		.ascii	"__get_PSP\000"
 2637      745F5053 
 2637      5000
 2638              	.LASF68:
 2639 06f8 76745F70 		.ascii	"vt_par\000"
 2639      617200
 2640              	.LASF132:
 2641 06ff 63665F6F 		.ascii	"cf_off_ctx\000"
 2641      66665F63 
 2641      747800
 2642              	.LASF119:
 2643 070a 63685F6D 		.ascii	"ch_mutex\000"
 2643      75746578 
 2643      00
 2644              	.LASF39:
 2645 0713 705F7265 		.ascii	"p_refs\000"
 2645      667300
 2646              	.LASF93:
 2647 071a 4D4D4652 		.ascii	"MMFR\000"
 2647      00
 2648              	.LASF77:
ARM GAS  /tmp/cckVA5ra.s 			page 53


 2649 071f 726C6973 		.ascii	"rlist\000"
 2649      7400
 2650              	.LASF15:
 2651 0725 75696E74 		.ascii	"uint8_t\000"
 2651      385F7400 
 2652              	.LASF71:
 2653 072d 76745F6C 		.ascii	"vt_lasttime\000"
 2653      61737474 
 2653      696D6500 
 2654              	.LASF111:
 2655 0739 77746F62 		.ascii	"wtobjp\000"
 2655      6A7000
 2656              	.LASF36:
 2657 0740 705F6E61 		.ascii	"p_name\000"
 2657      6D6500
 2658              	.LASF42:
 2659 0747 705F6D73 		.ascii	"p_msg\000"
 2659      6700
 2660              	.LASF96:
 2661 074d 43504143 		.ascii	"CPACR\000"
 2661      5200
 2662              	.LASF88:
 2663 0753 48465352 		.ascii	"HFSR\000"
 2663      00
 2664              	.LASF121:
 2665 0758 6D5F6F77 		.ascii	"m_owner\000"
 2665      6E657200 
 2666              	.LASF159:
 2667 0760 72657375 		.ascii	"result\000"
 2667      6C7400
 2668              	.LASF124:
 2669 0767 63685F69 		.ascii	"ch_identifier\000"
 2669      64656E74 
 2669      69666965 
 2669      7200
 2670              	.LASF67:
 2671 0775 76745F66 		.ascii	"vt_func\000"
 2671      756E6300 
 2672              		.ident	"GCC: (GNU Tools for ARM Embedded Processors) 6.2.1 20161205 (release) [ARM/embedded-6-bran
ARM GAS  /tmp/cckVA5ra.s 			page 54


DEFINED SYMBOLS
                            *ABS*:0000000000000000 chcore_v7m.c
     /tmp/cckVA5ra.s:16     .text.SVC_Handler:0000000000000000 $t
     /tmp/cckVA5ra.s:24     .text.SVC_Handler:0000000000000000 SVC_Handler
     /tmp/cckVA5ra.s:97     .text._port_irq_epilogue:0000000000000000 $t
     /tmp/cckVA5ra.s:105    .text._port_irq_epilogue:0000000000000000 _port_irq_epilogue
     /tmp/cckVA5ra.s:223    .text._port_irq_epilogue:0000000000000044 $d
                     .debug_frame:0000000000000010 $d

UNDEFINED SYMBOLS
chSchIsPreemptionRequired
_port_switch_from_isr
_port_exit_from_isr
