ARM GAS  /tmp/cckVA5ra.s 			page 1


   1              		.cpu cortex-m4
   2              		.eabi_attribute 20, 1
   3              		.eabi_attribute 21, 1
   4              		.eabi_attribute 23, 3
   5              		.eabi_attribute 24, 1
   6              		.eabi_attribute 25, 1
   7              		.eabi_attribute 26, 1
   8              		.eabi_attribute 30, 2
   9              		.eabi_attribute 34, 1
  10              		.eabi_attribute 18, 4
  11              		.file	"chcore_v7m.c"
  12              		.text
  13              	.Ltext0:
  14              		.cfi_sections	.debug_frame
  15              		.section	.text.SVC_Handler,"ax",%progbits
  16              		.align	1
  17              		.p2align 4,,15
  18              		.global	SVC_Handler
  19              		.syntax unified
  20              		.thumb
  21              		.thumb_func
  22              		.fpu softvfp
  23              		.type	SVC_Handler, %function
  24              	SVC_Handler:
  25              	.LFB227:
  26              		.file 1 "/home/selim/working/ChibiOS/os/rt/ports/ARMCMx/chcore_v7m.c"
  27              		.loc 1 62 0
  28              		.cfi_startproc
  29              		@ args = 0, pretend = 0, frame = 0
  30              		@ frame_needed = 1, uses_anonymous_args = 0
  31              		@ link register save eliminated.
  32 0000 80B4     		push	{r7}
  33              		.cfi_def_cfa_offset 4
  34              		.cfi_offset 7, -4
  35 0002 00AF     		add	r7, sp, #0
  36              		.cfi_def_cfa_register 7
  37              	.LBB47:
  38              	.LBB48:
  39              		.file 2 "/home/selim/working/ChibiOS/os/ext/CMSIS/include/core_cmFunc.h"
  40              		.loc 2 428 0
  41              		.syntax unified
  42              	@ 428 "/home/selim/working/ChibiOS/os/ext/CMSIS/include/core_cmFunc.h" 1
  43 0004 EFF30983 		MRS r3, psp
  44              	
  45              	@ 0 "" 2
  46              	.LVL0:
  47              		.thumb
  48              		.syntax unified
  49              	.LBE48:
  50              	.LBE47:
  51              		.loc 1 76 0
  52 0008 2033     		adds	r3, r3, #32
  53              	.LVL1:
  54              	.LBB49:
  55              	.LBB50:
  56              		.loc 2 441 0
  57              		.syntax unified
ARM GAS  /tmp/cckVA5ra.s 			page 2


  58              	@ 441 "/home/selim/working/ChibiOS/os/ext/CMSIS/include/core_cmFunc.h" 1
  59 000a 83F30988 		MSR psp, r3
  60              	
  61              	@ 0 "" 2
  62              	.LVL2:
  63              		.thumb
  64              		.syntax unified
  65              	.LBE50:
  66              	.LBE49:
  67              	.LBB51:
  68              	.LBB52:
  69              	.LBB53:
  70              	.LBB54:
  71              		.loc 2 546 0
  72 000e 0023     		movs	r3, #0
  73              	.LVL3:
  74              		.syntax unified
  75              	@ 546 "/home/selim/working/ChibiOS/os/ext/CMSIS/include/core_cmFunc.h" 1
  76 0010 83F31188 		MSR basepri, r3
  77              	@ 0 "" 2
  78              	.LVL4:
  79              		.thumb
  80              		.syntax unified
  81              	.LBE54:
  82              	.LBE53:
  83              	.LBE52:
  84              	.LBE51:
  85              		.loc 1 83 0
  86 0014 BD46     		mov	sp, r7
  87              		.cfi_def_cfa_register 13
  88              		@ sp needed
  89 0016 80BC     		pop	{r7}
  90              		.cfi_restore 7
  91              		.cfi_def_cfa_offset 0
  92 0018 7047     		bx	lr
  93              		.cfi_endproc
  94              	.LFE227:
  95              		.size	SVC_Handler, .-SVC_Handler
  96 001a 00BF     		.section	.text._port_irq_epilogue,"ax",%progbits
  97              		.align	1
  98              		.p2align 4,,15
  99              		.global	_port_irq_epilogue
 100              		.syntax unified
 101              		.thumb
 102              		.thumb_func
 103              		.fpu softvfp
 104              		.type	_port_irq_epilogue, %function
 105              	_port_irq_epilogue:
 106              	.LFB228:
 107              		.loc 1 122 0
 108              		.cfi_startproc
 109              		@ args = 0, pretend = 0, frame = 0
 110              		@ frame_needed = 1, uses_anonymous_args = 0
 111              	.LVL5:
 112 0000 98B5     		push	{r3, r4, r7, lr}
 113              		.cfi_def_cfa_offset 16
 114              		.cfi_offset 3, -16
ARM GAS  /tmp/cckVA5ra.s 			page 3


 115              		.cfi_offset 4, -12
 116              		.cfi_offset 7, -8
 117              		.cfi_offset 14, -4
 118              	.LBB55:
 119              	.LBB56:
 120              	.LBB57:
 121              	.LBB58:
 122              		.loc 2 546 0
 123 0002 2023     		movs	r3, #32
 124              	.LBE58:
 125              	.LBE57:
 126              	.LBE56:
 127              	.LBE55:
 128              		.loc 1 122 0
 129 0004 00AF     		add	r7, sp, #0
 130              		.cfi_def_cfa_register 7
 131              	.LBB62:
 132              	.LBB61:
 133              	.LBB60:
 134              	.LBB59:
 135              		.loc 2 546 0
 136              		.syntax unified
 137              	@ 546 "/home/selim/working/ChibiOS/os/ext/CMSIS/include/core_cmFunc.h" 1
 138 0006 83F31188 		MSR basepri, r3
 139              	@ 0 "" 2
 140              	.LVL6:
 141              		.thumb
 142              		.syntax unified
 143              	.LBE59:
 144              	.LBE60:
 145              	.LBE61:
 146              	.LBE62:
 147              		.loc 1 125 0
 148 000a 0E4B     		ldr	r3, .L10
 149 000c 5B68     		ldr	r3, [r3, #4]
 150 000e 13F40063 		ands	r3, r3, #2048
 151 0012 02D1     		bne	.L9
 152              	.LVL7:
 153              	.LBB63:
 154              	.LBB64:
 155              	.LBB65:
 156              	.LBB66:
 157              		.loc 2 546 0
 158              		.syntax unified
 159              	@ 546 "/home/selim/working/ChibiOS/os/ext/CMSIS/include/core_cmFunc.h" 1
 160 0014 83F31188 		MSR basepri, r3
 161              	@ 0 "" 2
 162              	.LVL8:
 163              		.thumb
 164              		.syntax unified
 165 0018 98BD     		pop	{r3, r4, r7, pc}
 166              	.L9:
 167              	.LBE66:
 168              	.LBE65:
 169              	.LBE64:
 170              	.LBE63:
 171              	.LBB67:
ARM GAS  /tmp/cckVA5ra.s 			page 4


 172              	.LBB68:
 173              	.LBB69:
 174              		.loc 2 428 0
 175              		.syntax unified
 176              	@ 428 "/home/selim/working/ChibiOS/os/ext/CMSIS/include/core_cmFunc.h" 1
 177 001a EFF30984 		MRS r4, psp
 178              	
 179              	@ 0 "" 2
 180              	.LVL9:
 181              		.thumb
 182              		.syntax unified
 183              	.LBE69:
 184              	.LBE68:
 185              		.loc 1 141 0
 186 001e 4FF08073 		mov	r3, #16777216
 187 0022 44F8043C 		str	r3, [r4, #-4]
 188              	.LVL10:
 189              		.loc 1 138 0
 190 0026 A4F12003 		sub	r3, r4, #32
 191              	.LVL11:
 192              	.LBB70:
 193              	.LBB71:
 194              		.loc 2 441 0
 195              		.syntax unified
 196              	@ 441 "/home/selim/working/ChibiOS/os/ext/CMSIS/include/core_cmFunc.h" 1
 197 002a 83F30988 		MSR psp, r3
 198              	
 199              	@ 0 "" 2
 200              	.LVL12:
 201              		.thumb
 202              		.syntax unified
 203              	.LBE71:
 204              	.LBE70:
 205              		.loc 1 151 0
 206 002e FFF7FEFF 		bl	chSchIsPreemptionRequired
 207              	.LVL13:
 208 0032 18B1     		cbz	r0, .L5
 209              		.loc 1 153 0
 210 0034 044B     		ldr	r3, .L10+4
 211 0036 44F8083C 		str	r3, [r4, #-8]
 212 003a 98BD     		pop	{r3, r4, r7, pc}
 213              	.LVL14:
 214              	.L5:
 215              		.loc 1 158 0
 216 003c 034B     		ldr	r3, .L10+8
 217 003e 44F8083C 		str	r3, [r4, #-8]
 218 0042 98BD     		pop	{r3, r4, r7, pc}
 219              	.LVL15:
 220              	.L11:
 221              		.align	2
 222              	.L10:
 223 0044 00ED00E0 		.word	-536810240
 224 0048 00000000 		.word	_port_switch_from_isr
 225 004c 00000000 		.word	_port_exit_from_isr
 226              	.LBE67:
 227              		.cfi_endproc
 228              	.LFE228:
ARM GAS  /tmp/cckVA5ra.s 			page 5


 229              		.size	_port_irq_epilogue, .-_port_irq_epilogue
 230              		.text
 231              	.Letext0:
 232              		.file 3 "/usr/arm-none-eabi/include/machine/_default_types.h"
 233              		.file 4 "/usr/arm-none-eabi/include/sys/_stdint.h"
 234              		.file 5 "/home/selim/working/ChibiOS/os/rt/ports/ARMCMx/compilers/GCC/chtypes.h"
 235              		.file 6 "/home/selim/working/ChibiOS/os/rt/include/chsystypes.h"
 236              		.file 7 "/home/selim/working/ChibiOS/os/rt/include/chschd.h"
 237              		.file 8 "/home/selim/working/ChibiOS/os/ext/CMSIS/include/core_cm4.h"
 238              		.file 9 "/home/selim/working/ChibiOS/os/ext/CMSIS/ST/system_stm32f4xx.h"
 239              		.file 10 "/home/selim/working/ChibiOS/os/rt/ports/ARMCMx/chcore.h"
 240              		.file 11 "/home/selim/working/ChibiOS/os/rt/ports/ARMCMx/chcore_v7m.h"
 241              		.file 12 "/home/selim/working/ChibiOS/os/rt/include/chtm.h"
 242              		.file 13 "/home/selim/working/ChibiOS/os/rt/include/chsem.h"
 243              		.file 14 "/home/selim/working/ChibiOS/os/rt/include/chmtx.h"
 244              		.file 15 "/home/selim/working/ChibiOS/os/rt/include/chregistry.h"