ARM GAS  /tmp/ccpv6s5E.s 			page 1


   1              		.cpu cortex-m4
   2              		.eabi_attribute 20, 1
   3              		.eabi_attribute 21, 1
   4              		.eabi_attribute 23, 3
   5              		.eabi_attribute 24, 1
   6              		.eabi_attribute 25, 1
   7              		.eabi_attribute 26, 1
   8              		.eabi_attribute 30, 2
   9              		.eabi_attribute 34, 1
  10              		.eabi_attribute 18, 4
  11              		.file	"chdynamic.c"
  12              		.text
  13              	.Ltext0:
  14              		.cfi_sections	.debug_frame
  15              		.section	.text.chThdAddRef,"ax",%progbits
  16              		.align	1
  17              		.p2align 4,,15
  18              		.global	chThdAddRef
  19              		.syntax unified
  20              		.thumb
  21              		.thumb_func
  22              		.fpu softvfp
  23              		.type	chThdAddRef, %function
  24              	chThdAddRef:
  25              	.LFB227:
  26              		.file 1 "/home/selim/working/ChibiOS/os/rt/src/chdynamic.c"
  27              		.loc 1 68 0
  28              		.cfi_startproc
  29              		@ args = 0, pretend = 0, frame = 0
  30              		@ frame_needed = 0, uses_anonymous_args = 0
  31              		@ link register save eliminated.
  32              	.LVL0:
  33              	.LBB54:
  34              	.LBB55:
  35              	.LBB56:
  36              	.LBB57:
  37              		.file 2 "/home/selim/working/ChibiOS/os/ext/CMSIS/include/core_cmFunc.h"
  38              		.loc 2 546 0
  39 0000 2023     		movs	r3, #32
  40              		.syntax unified
  41              	@ 546 "/home/selim/working/ChibiOS/os/ext/CMSIS/include/core_cmFunc.h" 1
  42 0002 83F31188 		MSR basepri, r3
  43              	@ 0 "" 2
  44              	.LVL1:
  45              		.thumb
  46              		.syntax unified
  47              	.LBE57:
  48              	.LBE56:
  49              	.LBE55:
  50              	.LBE54:
  51              		.loc 1 72 0
  52 0006 837F     		ldrb	r3, [r0, #30]	@ zero_extendqisi2
  53 0008 0133     		adds	r3, r3, #1
  54 000a 8377     		strb	r3, [r0, #30]
  55              	.LVL2:
  56              	.LBB58:
  57              	.LBB59:
ARM GAS  /tmp/ccpv6s5E.s 			page 2


  58              	.LBB60:
  59              	.LBB61:
  60              	.LBB62:
  61              		.loc 2 546 0
  62 000c 0023     		movs	r3, #0
  63              		.syntax unified
  64              	@ 546 "/home/selim/working/ChibiOS/os/ext/CMSIS/include/core_cmFunc.h" 1
  65 000e 83F31188 		MSR basepri, r3
  66              	@ 0 "" 2
  67              	.LVL3:
  68              		.thumb
  69              		.syntax unified
  70              	.LBE62:
  71              	.LBE61:
  72              	.LBE60:
  73              	.LBE59:
  74              	.LBE58:
  75              		.loc 1 76 0
  76 0012 7047     		bx	lr
  77              		.cfi_endproc
  78              	.LFE227:
  79              		.size	chThdAddRef, .-chThdAddRef
  80              		.section	.text.chThdRelease,"ax",%progbits
  81              		.align	1
  82              		.p2align 4,,15
  83              		.global	chThdRelease
  84              		.syntax unified
  85              		.thumb
  86              		.thumb_func
  87              		.fpu softvfp
  88              		.type	chThdRelease, %function
  89              	chThdRelease:
  90              	.LFB228:
  91              		.loc 1 91 0
  92              		.cfi_startproc
  93              		@ args = 0, pretend = 0, frame = 0
  94              		@ frame_needed = 0, uses_anonymous_args = 0
  95              		@ link register save eliminated.
  96              	.LVL4:
  97              		.loc 1 91 0
  98 0000 0146     		mov	r1, r0
  99              	.LBB63:
 100              	.LBB64:
 101              	.LBB65:
 102              	.LBB66:
 103              		.loc 2 546 0
 104 0002 2023     		movs	r3, #32
 105              		.syntax unified
 106              	@ 546 "/home/selim/working/ChibiOS/os/ext/CMSIS/include/core_cmFunc.h" 1
 107 0004 83F31188 		MSR basepri, r3
 108              	@ 0 "" 2
 109              	.LVL5:
 110              		.thumb
 111              		.syntax unified
 112              	.LBE66:
 113              	.LBE65:
 114              	.LBE64:
ARM GAS  /tmp/ccpv6s5E.s 			page 3


 115              	.LBE63:
 116              		.loc 1 96 0
 117 0008 837F     		ldrb	r3, [r0, #30]	@ zero_extendqisi2
 118 000a 013B     		subs	r3, r3, #1
 119 000c DBB2     		uxtb	r3, r3
 120 000e 8377     		strb	r3, [r0, #30]
 121              	.LVL6:
 122              	.LBB67:
 123              	.LBB68:
 124              	.LBB69:
 125              	.LBB70:
 126              	.LBB71:
 127              		.loc 2 546 0
 128 0010 0022     		movs	r2, #0
 129              		.syntax unified
 130              	@ 546 "/home/selim/working/ChibiOS/os/ext/CMSIS/include/core_cmFunc.h" 1
 131 0012 82F31188 		MSR basepri, r2
 132              	@ 0 "" 2
 133              	.LVL7:
 134              		.thumb
 135              		.syntax unified
 136              	.LBE71:
 137              	.LBE70:
 138              	.LBE69:
 139              	.LBE68:
 140              	.LBE67:
 141              		.loc 1 103 0
 142 0016 13B9     		cbnz	r3, .L2
 143              		.loc 1 103 0 is_stmt 0 discriminator 1
 144 0018 037F     		ldrb	r3, [r0, #28]	@ zero_extendqisi2
 145              	.LVL8:
 146 001a 0F2B     		cmp	r3, #15
 147 001c 00D0     		beq	.L7
 148              	.L2:
 149 001e 7047     		bx	lr
 150              	.L7:
 151              		.loc 1 104 0 is_stmt 1
 152 0020 437F     		ldrb	r3, [r0, #29]	@ zero_extendqisi2
 153 0022 03F00303 		and	r3, r3, #3
 154 0026 012B     		cmp	r3, #1
 155 0028 02D0     		beq	.L4
 156 002a 022B     		cmp	r3, #2
 157 002c 07D0     		beq	.L5
 158 002e 7047     		bx	lr
 159              	.L4:
 160              		.loc 1 108 0
 161 0030 4369     		ldr	r3, [r0, #20]
 162 0032 0269     		ldr	r2, [r0, #16]
 163 0034 1A61     		str	r2, [r3, #16]
 164              	.LVL9:
 165 0036 0269     		ldr	r2, [r0, #16]
 166 0038 5361     		str	r3, [r2, #20]
 167              		.loc 1 110 0
 168 003a FFF7FEBF 		b	chHeapFree
 169              	.LVL10:
 170              	.L5:
 171              		.loc 1 116 0
ARM GAS  /tmp/ccpv6s5E.s 			page 4


 172 003e 4369     		ldr	r3, [r0, #20]
 173 0040 0269     		ldr	r2, [r0, #16]
 174 0042 1A61     		str	r2, [r3, #16]
 175              	.LVL11:
 176 0044 0269     		ldr	r2, [r0, #16]
 177              		.loc 1 118 0
 178 0046 006C     		ldr	r0, [r0, #64]
 179              	.LVL12:
 180              		.loc 1 116 0
 181 0048 5361     		str	r3, [r2, #20]
 182              		.loc 1 118 0
 183 004a FFF7FEBF 		b	chPoolFree
 184              	.LVL13:
 185              		.cfi_endproc
 186              	.LFE228:
 187              		.size	chThdRelease, .-chThdRelease
 188 004e 00BF     		.section	.text.chThdCreateFromHeap,"ax",%progbits
 189              		.align	1
 190              		.p2align 4,,15
 191              		.global	chThdCreateFromHeap
 192              		.syntax unified
 193              		.thumb
 194              		.thumb_func
 195              		.fpu softvfp
 196              		.type	chThdCreateFromHeap, %function
 197              	chThdCreateFromHeap:
 198              	.LFB229:
 199              		.loc 1 153 0
 200              		.cfi_startproc
 201              		@ args = 4, pretend = 0, frame = 0
 202              		@ frame_needed = 0, uses_anonymous_args = 0
 203              	.LVL14:
 204 0000 F0B5     		push	{r4, r5, r6, r7, lr}
 205              		.cfi_def_cfa_offset 20
 206              		.cfi_offset 4, -20
 207              		.cfi_offset 5, -16
 208              		.cfi_offset 6, -12
 209              		.cfi_offset 7, -8
 210              		.cfi_offset 14, -4
 211 0002 83B0     		sub	sp, sp, #12
 212              		.cfi_def_cfa_offset 32
 213              		.loc 1 153 0
 214 0004 1646     		mov	r6, r2
 215 0006 1F46     		mov	r7, r3
 216 0008 0D46     		mov	r5, r1
 217              		.loc 1 157 0
 218 000a FFF7FEFF 		bl	chHeapAlloc
 219              	.LVL15:
 220              		.loc 1 158 0
 221 000e A8B1     		cbz	r0, .L11
 222              	.LVL16:
 223              	.LBB72:
 224              	.LBB73:
 225              	.LBB74:
 226              	.LBB75:
 227              		.loc 2 546 0
 228 0010 2023     		movs	r3, #32
ARM GAS  /tmp/ccpv6s5E.s 			page 5


 229              		.syntax unified
 230              	@ 546 "/home/selim/working/ChibiOS/os/ext/CMSIS/include/core_cmFunc.h" 1
 231 0012 83F31188 		MSR basepri, r3
 232              	@ 0 "" 2
 233              	.LVL17:
 234              		.thumb
 235              		.syntax unified
 236              	.LBE75:
 237              	.LBE74:
 238              	.LBE73:
 239              	.LBE72:
 240              		.loc 1 172 0
 241 0016 089B     		ldr	r3, [sp, #32]
 242 0018 0093     		str	r3, [sp]
 243 001a 3246     		mov	r2, r6
 244 001c 3B46     		mov	r3, r7
 245 001e 2946     		mov	r1, r5
 246 0020 FFF7FEFF 		bl	chThdCreateI
 247              	.LVL18:
 248              		.loc 1 173 0
 249 0024 0123     		movs	r3, #1
 250 0026 4377     		strb	r3, [r0, #29]
 251              		.loc 1 174 0
 252 0028 0021     		movs	r1, #0
 253              		.loc 1 172 0
 254 002a 0446     		mov	r4, r0
 255              	.LVL19:
 256              		.loc 1 174 0
 257 002c FFF7FEFF 		bl	chSchWakeupS
 258              	.LVL20:
 259              	.LBB76:
 260              	.LBB77:
 261              	.LBB78:
 262              	.LBB79:
 263              	.LBB80:
 264              		.loc 2 546 0
 265 0030 0023     		movs	r3, #0
 266              		.syntax unified
 267              	@ 546 "/home/selim/working/ChibiOS/os/ext/CMSIS/include/core_cmFunc.h" 1
 268 0032 83F31188 		MSR basepri, r3
 269              	@ 0 "" 2
 270              	.LVL21:
 271              		.thumb
 272              		.syntax unified
 273              	.L8:
 274              	.LBE80:
 275              	.LBE79:
 276              	.LBE78:
 277              	.LBE77:
 278              	.LBE76:
 279              		.loc 1 178 0
 280 0036 2046     		mov	r0, r4
 281 0038 03B0     		add	sp, sp, #12
 282              		.cfi_remember_state
 283              		.cfi_def_cfa_offset 20
 284              		@ sp needed
 285 003a F0BD     		pop	{r4, r5, r6, r7, pc}
ARM GAS  /tmp/ccpv6s5E.s 			page 6


 286              	.LVL22:
 287              	.L11:
 288              		.cfi_restore_state
 289 003c 0446     		mov	r4, r0
 290 003e FAE7     		b	.L8
 291              		.cfi_endproc
 292              	.LFE229:
 293              		.size	chThdCreateFromHeap, .-chThdCreateFromHeap
 294              		.section	.text.chThdCreateFromMemoryPool,"ax",%progbits
 295              		.align	1
 296              		.p2align 4,,15
 297              		.global	chThdCreateFromMemoryPool
 298              		.syntax unified
 299              		.thumb
 300              		.thumb_func
 301              		.fpu softvfp
 302              		.type	chThdCreateFromMemoryPool, %function
 303              	chThdCreateFromMemoryPool:
 304              	.LFB230:
 305              		.loc 1 205 0
 306              		.cfi_startproc
 307              		@ args = 0, pretend = 0, frame = 0
 308              		@ frame_needed = 0, uses_anonymous_args = 0
 309              	.LVL23:
 310 0000 2DE9F041 		push	{r4, r5, r6, r7, r8, lr}
 311              		.cfi_def_cfa_offset 24
 312              		.cfi_offset 4, -24
 313              		.cfi_offset 5, -20
 314              		.cfi_offset 6, -16
 315              		.cfi_offset 7, -12
 316              		.cfi_offset 8, -8
 317              		.cfi_offset 14, -4
 318 0004 82B0     		sub	sp, sp, #8
 319              		.cfi_def_cfa_offset 32
 320              		.loc 1 205 0
 321 0006 0E46     		mov	r6, r1
 322 0008 1746     		mov	r7, r2
 323 000a 9846     		mov	r8, r3
 324 000c 0546     		mov	r5, r0
 325              		.loc 1 211 0
 326 000e FFF7FEFF 		bl	chPoolAlloc
 327              	.LVL24:
 328              		.loc 1 212 0
 329 0012 B8B1     		cbz	r0, .L16
 330              	.LVL25:
 331              	.LBB81:
 332              	.LBB82:
 333              	.LBB83:
 334              	.LBB84:
 335              		.loc 2 546 0
 336 0014 2023     		movs	r3, #32
 337              		.syntax unified
 338              	@ 546 "/home/selim/working/ChibiOS/os/ext/CMSIS/include/core_cmFunc.h" 1
 339 0016 83F31188 		MSR basepri, r3
 340              	@ 0 "" 2
 341              	.LVL26:
 342              		.thumb
ARM GAS  /tmp/ccpv6s5E.s 			page 7


 343              		.syntax unified
 344              	.LBE84:
 345              	.LBE83:
 346              	.LBE82:
 347              	.LBE81:
 348              		.loc 1 226 0
 349 001a 6968     		ldr	r1, [r5, #4]
 350 001c CDF80080 		str	r8, [sp]
 351 0020 3B46     		mov	r3, r7
 352 0022 3246     		mov	r2, r6
 353 0024 FFF7FEFF 		bl	chThdCreateI
 354              	.LVL27:
 355              		.loc 1 227 0
 356 0028 0223     		movs	r3, #2
 357 002a 4377     		strb	r3, [r0, #29]
 358              		.loc 1 228 0
 359 002c 0564     		str	r5, [r0, #64]
 360              		.loc 1 229 0
 361 002e 0021     		movs	r1, #0
 362              		.loc 1 226 0
 363 0030 0446     		mov	r4, r0
 364              	.LVL28:
 365              		.loc 1 229 0
 366 0032 FFF7FEFF 		bl	chSchWakeupS
 367              	.LVL29:
 368              	.LBB85:
 369              	.LBB86:
 370              	.LBB87:
 371              	.LBB88:
 372              	.LBB89:
 373              		.loc 2 546 0
 374 0036 0023     		movs	r3, #0
 375              		.syntax unified
 376              	@ 546 "/home/selim/working/ChibiOS/os/ext/CMSIS/include/core_cmFunc.h" 1
 377 0038 83F31188 		MSR basepri, r3
 378              	@ 0 "" 2
 379              	.LVL30:
 380              		.thumb
 381              		.syntax unified
 382              	.L13:
 383              	.LBE89:
 384              	.LBE88:
 385              	.LBE87:
 386              	.LBE86:
 387              	.LBE85:
 388              		.loc 1 233 0
 389 003c 2046     		mov	r0, r4
 390 003e 02B0     		add	sp, sp, #8
 391              		.cfi_remember_state
 392              		.cfi_def_cfa_offset 24
 393              		@ sp needed
 394 0040 BDE8F081 		pop	{r4, r5, r6, r7, r8, pc}
 395              	.LVL31:
 396              	.L16:
 397              		.cfi_restore_state
 398 0044 0446     		mov	r4, r0
 399 0046 F9E7     		b	.L13
ARM GAS  /tmp/ccpv6s5E.s 			page 8


 400              		.cfi_endproc
 401              	.LFE230:
 402              		.size	chThdCreateFromMemoryPool, .-chThdCreateFromMemoryPool
 403              		.text
 404              	.Letext0:
 405              		.file 3 "/usr/lib/gcc/arm-none-eabi/6.2.1/include/stddef.h"
 406              		.file 4 "/usr/arm-none-eabi/include/machine/_default_types.h"
 407              		.file 5 "/usr/arm-none-eabi/include/sys/_stdint.h"
 408              		.file 6 "/home/selim/working/ChibiOS/os/rt/ports/ARMCMx/compilers/GCC/chtypes.h"
 409              		.file 7 "/home/selim/working/ChibiOS/os/rt/include/chsystypes.h"
 410              		.file 8 "/home/selim/working/ChibiOS/os/rt/include/chschd.h"
 411              		.file 9 "/home/selim/working/ChibiOS/os/ext/CMSIS/include/core_cm4.h"
 412              		.file 10 "/home/selim/working/ChibiOS/os/ext/CMSIS/ST/system_stm32f4xx.h"
 413              		.file 11 "/home/selim/working/ChibiOS/os/rt/ports/ARMCMx/chcore.h"
 414              		.file 12 "/home/selim/working/ChibiOS/os/rt/ports/ARMCMx/chcore_v7m.h"
 415              		.file 13 "/home/selim/working/ChibiOS/os/rt/include/chtm.h"
 416              		.file 14 "/home/selim/working/ChibiOS/os/rt/include/chsem.h"
 417              		.file 15 "/home/selim/working/ChibiOS/os/rt/include/chmtx.h"
 418              		.file 16 "/home/selim/working/ChibiOS/os/rt/include/chthreads.h"
 419              		.file 17 "/home/selim/working/ChibiOS/os/rt/include/chregistry.h"
 420              		.file 18 "/home/selim/working/ChibiOS/os/rt/include/chmemcore.h"
 421              		.file 19 "/home/selim/working/ChibiOS/os/rt/include/chheap.h"
 422              		.file 20 "/home/selim/working/ChibiOS/os/rt/include/chmempools.h"
 423              		.file 21 "/home/selim/working/ChibiOS/os/rt/include/chsys.h"