ARM GAS  /tmp/cc5nEZeK.s 			page 1


   1              		.cpu cortex-m4
   2              		.eabi_attribute 20, 1
   3              		.eabi_attribute 21, 1
   4              		.eabi_attribute 23, 3
   5              		.eabi_attribute 24, 1
   6              		.eabi_attribute 25, 1
   7              		.eabi_attribute 26, 1
   8              		.eabi_attribute 30, 2
   9              		.eabi_attribute 34, 1
  10              		.eabi_attribute 18, 4
  11              		.file	"chmemcore.c"
  12              		.text
  13              	.Ltext0:
  14              		.cfi_sections	.debug_frame
  15              		.section	.text._core_init,"ax",%progbits
  16              		.align	1
  17              		.p2align 4,,15
  18              		.global	_core_init
  19              		.syntax unified
  20              		.thumb
  21              		.thumb_func
  22              		.fpu softvfp
  23              		.type	_core_init, %function
  24              	_core_init:
  25              	.LFB227:
  26              		.file 1 "/home/selim/working/ChibiOS/os/rt/src/chmemcore.c"
  27              		.loc 1 78 0
  28              		.cfi_startproc
  29              		@ args = 0, pretend = 0, frame = 0
  30              		@ frame_needed = 0, uses_anonymous_args = 0
  31              		@ link register save eliminated.
  32              		.loc 1 84 0
  33 0000 054A     		ldr	r2, .L2
  34              		.loc 1 85 0
  35 0002 064B     		ldr	r3, .L2+4
  36              		.loc 1 84 0
  37 0004 0648     		ldr	r0, .L2+8
  38              		.loc 1 85 0
  39 0006 0749     		ldr	r1, .L2+12
  40              		.loc 1 84 0
  41 0008 22F00702 		bic	r2, r2, #7
  42              		.loc 1 85 0
  43 000c 23F00703 		bic	r3, r3, #7
  44              		.loc 1 84 0
  45 0010 0260     		str	r2, [r0]
  46              		.loc 1 85 0
  47 0012 0B60     		str	r3, [r1]
  48 0014 7047     		bx	lr
  49              	.L3:
  50 0016 00BF     		.align	2
  51              	.L2:
  52 0018 07000000 		.word	__heap_base__+7
  53 001c 00000000 		.word	__heap_end__
  54 0020 00000000 		.word	.LANCHOR0
  55 0024 00000000 		.word	.LANCHOR1
  56              		.cfi_endproc
  57              	.LFE227:
ARM GAS  /tmp/cc5nEZeK.s 			page 2


  58              		.size	_core_init, .-_core_init
  59              		.section	.text.chCoreAlloc,"ax",%progbits
  60              		.align	1
  61              		.p2align 4,,15
  62              		.global	chCoreAlloc
  63              		.syntax unified
  64              		.thumb
  65              		.thumb_func
  66              		.fpu softvfp
  67              		.type	chCoreAlloc, %function
  68              	chCoreAlloc:
  69              	.LFB228:
  70              		.loc 1 109 0
  71              		.cfi_startproc
  72              		@ args = 0, pretend = 0, frame = 0
  73              		@ frame_needed = 0, uses_anonymous_args = 0
  74              		@ link register save eliminated.
  75              	.LVL0:
  76 0000 10B4     		push	{r4}
  77              		.cfi_def_cfa_offset 4
  78              		.cfi_offset 4, -4
  79              	.LBB26:
  80              	.LBB27:
  81              	.LBB28:
  82              	.LBB29:
  83              		.file 2 "/home/selim/working/ChibiOS/os/ext/CMSIS/include/core_cmFunc.h"
  84              		.loc 2 546 0
  85 0002 2023     		movs	r3, #32
  86              		.syntax unified
  87              	@ 546 "/home/selim/working/ChibiOS/os/ext/CMSIS/include/core_cmFunc.h" 1
  88 0004 83F31188 		MSR basepri, r3
  89              	@ 0 "" 2
  90              	.LVL1:
  91              		.thumb
  92              		.syntax unified
  93              	.LBE29:
  94              	.LBE28:
  95              	.LBE27:
  96              	.LBE26:
  97              	.LBB30:
  98              	.LBB31:
  99              		.loc 1 138 0
 100 0008 094C     		ldr	r4, .L9
 101 000a 0A4B     		ldr	r3, .L9+4
 102 000c 2268     		ldr	r2, [r4]
 103 000e 1968     		ldr	r1, [r3]
 104              		.loc 1 136 0
 105 0010 C31D     		adds	r3, r0, #7
 106 0012 23F00703 		bic	r3, r3, #7
 107              	.LVL2:
 108              		.loc 1 138 0
 109 0016 891A     		subs	r1, r1, r2
 110 0018 8B42     		cmp	r3, r1
 111              	.LVL3:
 112              		.loc 1 143 0
 113 001a 9DBF     		ittte	ls
 114 001c 9B18     		addls	r3, r3, r2
ARM GAS  /tmp/cc5nEZeK.s 			page 3


 115              	.LVL4:
 116 001e 2360     		strls	r3, [r4]
 117              		.loc 1 145 0
 118 0020 1046     		movls	r0, r2
 119              	.LVL5:
 120              		.loc 1 140 0
 121 0022 0020     		movhi	r0, #0
 122              	.LVL6:
 123              	.LBE31:
 124              	.LBE30:
 125              	.LBB32:
 126              	.LBB33:
 127              	.LBB34:
 128              	.LBB35:
 129              	.LBB36:
 130              		.loc 2 546 0
 131 0024 0023     		movs	r3, #0
 132              		.syntax unified
 133              	@ 546 "/home/selim/working/ChibiOS/os/ext/CMSIS/include/core_cmFunc.h" 1
 134 0026 83F31188 		MSR basepri, r3
 135              	@ 0 "" 2
 136              	.LVL7:
 137              		.thumb
 138              		.syntax unified
 139              	.LBE36:
 140              	.LBE35:
 141              	.LBE34:
 142              	.LBE33:
 143              	.LBE32:
 144              		.loc 1 117 0
 145 002a 10BC     		pop	{r4}
 146              		.cfi_restore 4
 147              		.cfi_def_cfa_offset 0
 148 002c 7047     		bx	lr
 149              	.L10:
 150 002e 00BF     		.align	2
 151              	.L9:
 152 0030 00000000 		.word	.LANCHOR0
 153 0034 00000000 		.word	.LANCHOR1
 154              		.cfi_endproc
 155              	.LFE228:
 156              		.size	chCoreAlloc, .-chCoreAlloc
 157              		.section	.text.chCoreAllocI,"ax",%progbits
 158              		.align	1
 159              		.p2align 4,,15
 160              		.global	chCoreAllocI
 161              		.syntax unified
 162              		.thumb
 163              		.thumb_func
 164              		.fpu softvfp
 165              		.type	chCoreAllocI, %function
 166              	chCoreAllocI:
 167              	.LFB229:
 168              		.loc 1 131 0
 169              		.cfi_startproc
 170              		@ args = 0, pretend = 0, frame = 0
 171              		@ frame_needed = 0, uses_anonymous_args = 0
ARM GAS  /tmp/cc5nEZeK.s 			page 4


 172              		@ link register save eliminated.
 173              	.LVL8:
 174 0000 10B4     		push	{r4}
 175              		.cfi_def_cfa_offset 4
 176              		.cfi_offset 4, -4
 177              		.loc 1 138 0
 178 0002 084B     		ldr	r3, .L15
 179 0004 084C     		ldr	r4, .L15+4
 180 0006 1968     		ldr	r1, [r3]
 181 0008 2268     		ldr	r2, [r4]
 182              		.loc 1 136 0
 183 000a C31D     		adds	r3, r0, #7
 184 000c 23F00703 		bic	r3, r3, #7
 185              	.LVL9:
 186              		.loc 1 138 0
 187 0010 891A     		subs	r1, r1, r2
 188 0012 8B42     		cmp	r3, r1
 189              	.LVL10:
 190              		.loc 1 143 0
 191 0014 9DBF     		ittte	ls
 192 0016 9B18     		addls	r3, r3, r2
 193              	.LVL11:
 194 0018 2360     		strls	r3, [r4]
 195              		.loc 1 145 0
 196 001a 1046     		movls	r0, r2
 197              	.LVL12:
 198              		.loc 1 140 0
 199 001c 0020     		movhi	r0, #0
 200              		.loc 1 146 0
 201 001e 10BC     		pop	{r4}
 202              		.cfi_restore 4
 203              		.cfi_def_cfa_offset 0
 204 0020 7047     		bx	lr
 205              	.L16:
 206 0022 00BF     		.align	2
 207              	.L15:
 208 0024 00000000 		.word	.LANCHOR1
 209 0028 00000000 		.word	.LANCHOR0
 210              		.cfi_endproc
 211              	.LFE229:
 212              		.size	chCoreAllocI, .-chCoreAllocI
 213              		.section	.text.chCoreGetStatusX,"ax",%progbits
 214              		.align	1
 215              		.p2align 4,,15
 216              		.global	chCoreGetStatusX
 217              		.syntax unified
 218              		.thumb
 219              		.thumb_func
 220              		.fpu softvfp
 221              		.type	chCoreGetStatusX, %function
 222              	chCoreGetStatusX:
 223              	.LFB230:
 224              		.loc 1 155 0
 225              		.cfi_startproc
 226              		@ args = 0, pretend = 0, frame = 0
 227              		@ frame_needed = 0, uses_anonymous_args = 0
 228              		@ link register save eliminated.
ARM GAS  /tmp/cc5nEZeK.s 			page 5


 229              		.loc 1 158 0
 230 0000 024A     		ldr	r2, .L18
 231 0002 034B     		ldr	r3, .L18+4
 232 0004 1068     		ldr	r0, [r2]
 233 0006 1B68     		ldr	r3, [r3]
 234              		.loc 1 160 0
 235 0008 C01A     		subs	r0, r0, r3
 236 000a 7047     		bx	lr
 237              	.L19:
 238              		.align	2
 239              	.L18:
 240 000c 00000000 		.word	.LANCHOR1
 241 0010 00000000 		.word	.LANCHOR0
 242              		.cfi_endproc
 243              	.LFE230:
 244              		.size	chCoreGetStatusX, .-chCoreGetStatusX
 245              		.section	.bss.endmem,"aw",%nobits
 246              		.align	2
 247              		.set	.LANCHOR1,. + 0
 248              		.type	endmem, %object
 249              		.size	endmem, 4
 250              	endmem:
 251 0000 00000000 		.space	4
 252              		.section	.bss.nextmem,"aw",%nobits
 253              		.align	2
 254              		.set	.LANCHOR0,. + 0
 255              		.type	nextmem, %object
 256              		.size	nextmem, 4
 257              	nextmem:
 258 0000 00000000 		.space	4
 259              		.text
 260              	.Letext0:
 261              		.file 3 "/usr/lib/gcc/arm-none-eabi/6.2.1/include/stddef.h"
 262              		.file 4 "/usr/arm-none-eabi/include/machine/_default_types.h"
 263              		.file 5 "/usr/arm-none-eabi/include/sys/_stdint.h"
 264              		.file 6 "/home/selim/working/ChibiOS/os/rt/ports/ARMCMx/compilers/GCC/chtypes.h"
 265              		.file 7 "/home/selim/working/ChibiOS/os/rt/include/chsystypes.h"
 266              		.file 8 "/home/selim/working/ChibiOS/os/rt/include/chschd.h"
 267              		.file 9 "/home/selim/working/ChibiOS/os/ext/CMSIS/include/core_cm4.h"
 268              		.file 10 "/home/selim/working/ChibiOS/os/ext/CMSIS/ST/system_stm32f4xx.h"
 269              		.file 11 "/home/selim/working/ChibiOS/os/rt/ports/ARMCMx/chcore.h"
 270              		.file 12 "/home/selim/working/ChibiOS/os/rt/ports/ARMCMx/chcore_v7m.h"
 271              		.file 13 "/home/selim/working/ChibiOS/os/rt/include/chtm.h"
 272              		.file 14 "/home/selim/working/ChibiOS/os/rt/include/chsem.h"
 273              		.file 15 "/home/selim/working/ChibiOS/os/rt/include/chmtx.h"
 274              		.file 16 "/home/selim/working/ChibiOS/os/rt/include/chregistry.h"
 275              		.file 17 "/home/selim/working/ChibiOS/os/rt/include/chsys.h"