ARM GAS  /tmp/cc5nEZeK.s 			page 1


   1              		.cpu cortex-m4
   2              		.eabi_attribute 20, 1
   3              		.eabi_attribute 21, 1
   4              		.eabi_attribute 23, 3
   5              		.eabi_attribute 24, 1
   6              		.eabi_attribute 25, 1
   7              		.eabi_attribute 26, 1
   8              		.eabi_attribute 30, 2
   9              		.eabi_attribute 34, 1
  10              		.eabi_attribute 18, 4
  11              		.file	"chmemcore.c"
  12              		.text
  13              	.Ltext0:
  14              		.cfi_sections	.debug_frame
  15              		.section	.text._core_init,"ax",%progbits
  16              		.align	1
  17              		.p2align 4,,15
  18              		.global	_core_init
  19              		.syntax unified
  20              		.thumb
  21              		.thumb_func
  22              		.fpu softvfp
  23              		.type	_core_init, %function
  24              	_core_init:
  25              	.LFB227:
  26              		.file 1 "/home/selim/working/ChibiOS/os/rt/src/chmemcore.c"
  27              		.loc 1 78 0
  28              		.cfi_startproc
  29              		@ args = 0, pretend = 0, frame = 0
  30              		@ frame_needed = 0, uses_anonymous_args = 0
  31              		@ link register save eliminated.
  32              		.loc 1 84 0
  33 0000 054A     		ldr	r2, .L2
  34              		.loc 1 85 0
  35 0002 064B     		ldr	r3, .L2+4
  36              		.loc 1 84 0
  37 0004 0648     		ldr	r0, .L2+8
  38              		.loc 1 85 0
  39 0006 0749     		ldr	r1, .L2+12
  40              		.loc 1 84 0
  41 0008 22F00702 		bic	r2, r2, #7
  42              		.loc 1 85 0
  43 000c 23F00703 		bic	r3, r3, #7
  44              		.loc 1 84 0
  45 0010 0260     		str	r2, [r0]
  46              		.loc 1 85 0
  47 0012 0B60     		str	r3, [r1]
  48 0014 7047     		bx	lr
  49              	.L3:
  50 0016 00BF     		.align	2
  51              	.L2:
  52 0018 07000000 		.word	__heap_base__+7
  53 001c 00000000 		.word	__heap_end__
  54 0020 00000000 		.word	.LANCHOR0
  55 0024 00000000 		.word	.LANCHOR1
  56              		.cfi_endproc
  57              	.LFE227:
ARM GAS  /tmp/cc5nEZeK.s 			page 2


  58              		.size	_core_init, .-_core_init
  59              		.section	.text.chCoreAlloc,"ax",%progbits
  60              		.align	1
  61              		.p2align 4,,15
  62              		.global	chCoreAlloc
  63              		.syntax unified
  64              		.thumb
  65              		.thumb_func
  66              		.fpu softvfp
  67              		.type	chCoreAlloc, %function
  68              	chCoreAlloc:
  69              	.LFB228:
  70              		.loc 1 109 0
  71              		.cfi_startproc
  72              		@ args = 0, pretend = 0, frame = 0
  73              		@ frame_needed = 0, uses_anonymous_args = 0
  74              		@ link register save eliminated.
  75              	.LVL0:
  76 0000 10B4     		push	{r4}
  77              		.cfi_def_cfa_offset 4
  78              		.cfi_offset 4, -4
  79              	.LBB26:
  80              	.LBB27:
  81              	.LBB28:
  82              	.LBB29:
  83              		.file 2 "/home/selim/working/ChibiOS/os/ext/CMSIS/include/core_cmFunc.h"
  84              		.loc 2 546 0
  85 0002 2023     		movs	r3, #32
  86              		.syntax unified
  87              	@ 546 "/home/selim/working/ChibiOS/os/ext/CMSIS/include/core_cmFunc.h" 1
  88 0004 83F31188 		MSR basepri, r3
  89              	@ 0 "" 2
  90              	.LVL1:
  91              		.thumb
  92              		.syntax unified
  93              	.LBE29:
  94              	.LBE28:
  95              	.LBE27:
  96              	.LBE26:
  97              	.LBB30:
  98              	.LBB31:
  99              		.loc 1 138 0
 100 0008 094C     		ldr	r4, .L9
 101 000a 0A4B     		ldr	r3, .L9+4
 102 000c 2268     		ldr	r2, [r4]
 103 000e 1968     		ldr	r1, [r3]
 104              		.loc 1 136 0
 105 0010 C31D     		adds	r3, r0, #7
 106 0012 23F00703 		bic	r3, r3, #7
 107              	.LVL2:
 108              		.loc 1 138 0
 109 0016 891A     		subs	r1, r1, r2
 110 0018 8B42     		cmp	r3, r1
 111              	.LVL3:
 112              		.loc 1 143 0
 113 001a 9DBF     		ittte	ls
 114 001c 9B18     		addls	r3, r3, r2
ARM GAS  /tmp/cc5nEZeK.s 			page 3


 115              	.LVL4:
 116 001e 2360     		strls	r3, [r4]
 117              		.loc 1 145 0
 118 0020 1046     		movls	r0, r2
 119              	.LVL5:
 120              		.loc 1 140 0
 121 0022 0020     		movhi	r0, #0
 122              	.LVL6:
 123              	.LBE31:
 124              	.LBE30:
 125              	.LBB32:
 126              	.LBB33:
 127              	.LBB34:
 128              	.LBB35:
 129              	.LBB36:
 130              		.loc 2 546 0
 131 0024 0023     		movs	r3, #0
 132              		.syntax unified
 133              	@ 546 "/home/selim/working/ChibiOS/os/ext/CMSIS/include/core_cmFunc.h" 1
 134 0026 83F31188 		MSR basepri, r3
 135              	@ 0 "" 2
 136              	.LVL7:
 137              		.thumb
 138              		.syntax unified
 139              	.LBE36:
 140              	.LBE35:
 141              	.LBE34:
 142              	.LBE33:
 143              	.LBE32:
 144              		.loc 1 117 0
 145 002a 10BC     		pop	{r4}
 146              		.cfi_restore 4
 147              		.cfi_def_cfa_offset 0
 148 002c 7047     		bx	lr
 149              	.L10:
 150 002e 00BF     		.align	2
 151              	.L9:
 152 0030 00000000 		.word	.LANCHOR0
 153 0034 00000000 		.word	.LANCHOR1
 154              		.cfi_endproc
 155              	.LFE228:
 156              		.size	chCoreAlloc, .-chCoreAlloc
 157              		.section	.text.chCoreAllocI,"ax",%progbits
 158              		.align	1
 159              		.p2align 4,,15
 160              		.global	chCoreAllocI
 161              		.syntax unified
 162              		.thumb
 163              		.thumb_func
 164              		.fpu softvfp
 165              		.type	chCoreAllocI, %function
 166              	chCoreAllocI:
 167              	.LFB229:
 168              		.loc 1 131 0
 169              		.cfi_startproc
 170              		@ args = 0, pretend = 0, frame = 0
 171              		@ frame_needed = 0, uses_anonymous_args = 0
ARM GAS  /tmp/cc5nEZeK.s 			page 4


 172              		@ link register save eliminated.
 173              	.LVL8:
 174 0000 10B4     		push	{r4}
 175              		.cfi_def_cfa_offset 4
 176              		.cfi_offset 4, -4
 177              		.loc 1 138 0
 178 0002 084B     		ldr	r3, .L15
 179 0004 084C     		ldr	r4, .L15+4
 180 0006 1968     		ldr	r1, [r3]
 181 0008 2268     		ldr	r2, [r4]
 182              		.loc 1 136 0
 183 000a C31D     		adds	r3, r0, #7
 184 000c 23F00703 		bic	r3, r3, #7
 185              	.LVL9:
 186              		.loc 1 138 0
 187 0010 891A     		subs	r1, r1, r2
 188 0012 8B42     		cmp	r3, r1
 189              	.LVL10:
 190              		.loc 1 143 0
 191 0014 9DBF     		ittte	ls
 192 0016 9B18     		addls	r3, r3, r2
 193              	.LVL11:
 194 0018 2360     		strls	r3, [r4]
 195              		.loc 1 145 0
 196 001a 1046     		movls	r0, r2
 197              	.LVL12:
 198              		.loc 1 140 0
 199 001c 0020     		movhi	r0, #0
 200              		.loc 1 146 0
 201 001e 10BC     		pop	{r4}
 202              		.cfi_restore 4
 203              		.cfi_def_cfa_offset 0
 204 0020 7047     		bx	lr
 205              	.L16:
 206 0022 00BF     		.align	2
 207              	.L15:
 208 0024 00000000 		.word	.LANCHOR1
 209 0028 00000000 		.word	.LANCHOR0
 210              		.cfi_endproc
 211              	.LFE229:
 212              		.size	chCoreAllocI, .-chCoreAllocI
 213              		.section	.text.chCoreGetStatusX,"ax",%progbits
 214              		.align	1
 215              		.p2align 4,,15
 216              		.global	chCoreGetStatusX
 217              		.syntax unified
 218              		.thumb
 219              		.thumb_func
 220              		.fpu softvfp
 221              		.type	chCoreGetStatusX, %function
 222              	chCoreGetStatusX:
 223              	.LFB230:
 224              		.loc 1 155 0
 225              		.cfi_startproc
 226              		@ args = 0, pretend = 0, frame = 0
 227              		@ frame_needed = 0, uses_anonymous_args = 0
 228              		@ link register save eliminated.
ARM GAS  /tmp/cc5nEZeK.s 			page 5


 229              		.loc 1 158 0
 230 0000 024A     		ldr	r2, .L18
 231 0002 034B     		ldr	r3, .L18+4
 232 0004 1068     		ldr	r0, [r2]
 233 0006 1B68     		ldr	r3, [r3]
 234              		.loc 1 160 0
 235 0008 C01A     		subs	r0, r0, r3
 236 000a 7047     		bx	lr
 237              	.L19:
 238              		.align	2
 239              	.L18:
 240 000c 00000000 		.word	.LANCHOR1
 241 0010 00000000 		.word	.LANCHOR0
 242              		.cfi_endproc
 243              	.LFE230:
 244              		.size	chCoreGetStatusX, .-chCoreGetStatusX
 245              		.section	.bss.endmem,"aw",%nobits
 246              		.align	2
 247              		.set	.LANCHOR1,. + 0
 248              		.type	endmem, %object
 249              		.size	endmem, 4
 250              	endmem:
 251 0000 00000000 		.space	4
 252              		.section	.bss.nextmem,"aw",%nobits
 253              		.align	2
 254              		.set	.LANCHOR0,. + 0
 255              		.type	nextmem, %object
 256              		.size	nextmem, 4
 257              	nextmem:
 258 0000 00000000 		.space	4
 259              		.text
 260              	.Letext0:
 261              		.file 3 "/usr/lib/gcc/arm-none-eabi/6.2.1/include/stddef.h"
 262              		.file 4 "/usr/arm-none-eabi/include/machine/_default_types.h"
 263              		.file 5 "/usr/arm-none-eabi/include/sys/_stdint.h"
 264              		.file 6 "/home/selim/working/ChibiOS/os/rt/ports/ARMCMx/compilers/GCC/chtypes.h"
 265              		.file 7 "/home/selim/working/ChibiOS/os/rt/include/chsystypes.h"
 266              		.file 8 "/home/selim/working/ChibiOS/os/rt/include/chschd.h"
 267              		.file 9 "/home/selim/working/ChibiOS/os/ext/CMSIS/include/core_cm4.h"
 268              		.file 10 "/home/selim/working/ChibiOS/os/ext/CMSIS/ST/system_stm32f4xx.h"
 269              		.file 11 "/home/selim/working/ChibiOS/os/rt/ports/ARMCMx/chcore.h"
 270              		.file 12 "/home/selim/working/ChibiOS/os/rt/ports/ARMCMx/chcore_v7m.h"
 271              		.file 13 "/home/selim/working/ChibiOS/os/rt/include/chtm.h"
 272              		.file 14 "/home/selim/working/ChibiOS/os/rt/include/chsem.h"
 273              		.file 15 "/home/selim/working/ChibiOS/os/rt/include/chmtx.h"
 274              		.file 16 "/home/selim/working/ChibiOS/os/rt/include/chregistry.h"
 275              		.file 17 "/home/selim/working/ChibiOS/os/rt/include/chsys.h"
 276              		.section	.debug_info,"",%progbits
 277              	.Ldebug_info0:
 278 0000 71090000 		.4byte	0x971
 279 0004 0400     		.2byte	0x4
 280 0006 00000000 		.4byte	.Ldebug_abbrev0
 281 000a 04       		.byte	0x4
 282 000b 01       		.uleb128 0x1
 283 000c 37030000 		.4byte	.LASF139
 284 0010 0C       		.byte	0xc
 285 0011 C2000000 		.4byte	.LASF140
ARM GAS  /tmp/cc5nEZeK.s 			page 6


 286 0015 00000000 		.4byte	.Ldebug_ranges0+0
 287 0019 00000000 		.4byte	0
 288 001d 00000000 		.4byte	.Ldebug_line0
 289 0021 02       		.uleb128 0x2
 290 0022 04       		.byte	0x4
 291 0023 05       		.byte	0x5
 292 0024 696E7400 		.ascii	"int\000"
 293 0028 03       		.uleb128 0x3
 294 0029 14000000 		.4byte	.LASF4
 295 002d 03       		.byte	0x3
 296 002e D8       		.byte	0xd8
 297 002f 33000000 		.4byte	0x33
 298 0033 04       		.uleb128 0x4
 299 0034 04       		.byte	0x4
 300 0035 07       		.byte	0x7
 301 0036 14020000 		.4byte	.LASF0
 302 003a 04       		.uleb128 0x4
 303 003b 08       		.byte	0x8
 304 003c 05       		.byte	0x5
 305 003d 19010000 		.4byte	.LASF1
 306 0041 04       		.uleb128 0x4
 307 0042 08       		.byte	0x8
 308 0043 04       		.byte	0x4
 309 0044 2B030000 		.4byte	.LASF2
 310 0048 04       		.uleb128 0x4
 311 0049 01       		.byte	0x1
 312 004a 06       		.byte	0x6
 313 004b 27010000 		.4byte	.LASF3
 314 004f 03       		.uleb128 0x3
 315 0050 37000000 		.4byte	.LASF5
 316 0054 04       		.byte	0x4
 317 0055 2B       		.byte	0x2b
 318 0056 5A000000 		.4byte	0x5a
 319 005a 04       		.uleb128 0x4
 320 005b 01       		.byte	0x1
 321 005c 08       		.byte	0x8
 322 005d B5040000 		.4byte	.LASF6
 323 0061 04       		.uleb128 0x4
 324 0062 02       		.byte	0x2
 325 0063 05       		.byte	0x5
 326 0064 D8040000 		.4byte	.LASF7
 327 0068 03       		.uleb128 0x3
 328 0069 E0050000 		.4byte	.LASF8
 329 006d 04       		.byte	0x4
 330 006e 39       		.byte	0x39
 331 006f 73000000 		.4byte	0x73
 332 0073 04       		.uleb128 0x4
 333 0074 02       		.byte	0x2
 334 0075 07       		.byte	0x7
 335 0076 70020000 		.4byte	.LASF9
 336 007a 03       		.uleb128 0x3
 337 007b C5020000 		.4byte	.LASF10
 338 007f 04       		.byte	0x4
 339 0080 4D       		.byte	0x4d
 340 0081 85000000 		.4byte	0x85
 341 0085 04       		.uleb128 0x4
 342 0086 04       		.byte	0x4
ARM GAS  /tmp/cc5nEZeK.s 			page 7


 343 0087 05       		.byte	0x5
 344 0088 94010000 		.4byte	.LASF11
 345 008c 03       		.uleb128 0x3
 346 008d 21060000 		.4byte	.LASF12
 347 0091 04       		.byte	0x4
 348 0092 4F       		.byte	0x4f
 349 0093 97000000 		.4byte	0x97
 350 0097 04       		.uleb128 0x4
 351 0098 04       		.byte	0x4
 352 0099 07       		.byte	0x7
 353 009a C2050000 		.4byte	.LASF13
 354 009e 03       		.uleb128 0x3
 355 009f 60040000 		.4byte	.LASF14
 356 00a3 04       		.byte	0x4
 357 00a4 69       		.byte	0x69
 358 00a5 A9000000 		.4byte	0xa9
 359 00a9 04       		.uleb128 0x4
 360 00aa 08       		.byte	0x8
 361 00ab 07       		.byte	0x7
 362 00ac 66000000 		.4byte	.LASF15
 363 00b0 03       		.uleb128 0x3
 364 00b1 91060000 		.4byte	.LASF16
 365 00b5 05       		.byte	0x5
 366 00b6 18       		.byte	0x18
 367 00b7 4F000000 		.4byte	0x4f
 368 00bb 03       		.uleb128 0x3
 369 00bc 29020000 		.4byte	.LASF17
 370 00c0 05       		.byte	0x5
 371 00c1 24       		.byte	0x24
 372 00c2 68000000 		.4byte	0x68
 373 00c6 03       		.uleb128 0x3
 374 00c7 AD040000 		.4byte	.LASF18
 375 00cb 05       		.byte	0x5
 376 00cc 2C       		.byte	0x2c
 377 00cd 7A000000 		.4byte	0x7a
 378 00d1 05       		.uleb128 0x5
 379 00d2 C6000000 		.4byte	0xc6
 380 00d6 03       		.uleb128 0x3
 381 00d7 84050000 		.4byte	.LASF19
 382 00db 05       		.byte	0x5
 383 00dc 30       		.byte	0x30
 384 00dd 8C000000 		.4byte	0x8c
 385 00e1 03       		.uleb128 0x3
 386 00e2 22000000 		.4byte	.LASF20
 387 00e6 05       		.byte	0x5
 388 00e7 3C       		.byte	0x3c
 389 00e8 9E000000 		.4byte	0x9e
 390 00ec 03       		.uleb128 0x3
 391 00ed 53060000 		.4byte	.LASF21
 392 00f1 06       		.byte	0x6
 393 00f2 46       		.byte	0x46
 394 00f3 D6000000 		.4byte	0xd6
 395 00f7 03       		.uleb128 0x3
 396 00f8 0C050000 		.4byte	.LASF22
 397 00fc 06       		.byte	0x6
 398 00fd 49       		.byte	0x49
 399 00fe B0000000 		.4byte	0xb0
ARM GAS  /tmp/cc5nEZeK.s 			page 8


 400 0102 03       		.uleb128 0x3
 401 0103 9D010000 		.4byte	.LASF23
 402 0107 06       		.byte	0x6
 403 0108 4A       		.byte	0x4a
 404 0109 B0000000 		.4byte	0xb0
 405 010d 03       		.uleb128 0x3
 406 010e 6B040000 		.4byte	.LASF24
 407 0112 06       		.byte	0x6
 408 0113 4B       		.byte	0x4b
 409 0114 B0000000 		.4byte	0xb0
 410 0118 03       		.uleb128 0x3
 411 0119 95040000 		.4byte	.LASF25
 412 011d 06       		.byte	0x6
 413 011e 4D       		.byte	0x4d
 414 011f D6000000 		.4byte	0xd6
 415 0123 03       		.uleb128 0x3
 416 0124 8D020000 		.4byte	.LASF26
 417 0128 06       		.byte	0x6
 418 0129 4E       		.byte	0x4e
 419 012a C6000000 		.4byte	0xc6
 420 012e 03       		.uleb128 0x3
 421 012f B9020000 		.4byte	.LASF27
 422 0133 06       		.byte	0x6
 423 0134 50       		.byte	0x50
 424 0135 D6000000 		.4byte	0xd6
 425 0139 03       		.uleb128 0x3
 426 013a 0E020000 		.4byte	.LASF28
 427 013e 06       		.byte	0x6
 428 013f 52       		.byte	0x52
 429 0140 C6000000 		.4byte	0xc6
 430 0144 03       		.uleb128 0x3
 431 0145 03060000 		.4byte	.LASF29
 432 0149 07       		.byte	0x7
 433 014a 33       		.byte	0x33
 434 014b D6000000 		.4byte	0xd6
 435 014f 03       		.uleb128 0x3
 436 0150 EB050000 		.4byte	.LASF30
 437 0154 07       		.byte	0x7
 438 0155 3F       		.byte	0x3f
 439 0156 5A010000 		.4byte	0x15a
 440 015a 06       		.uleb128 0x6
 441 015b 83020000 		.4byte	.LASF50
 442 015f 44       		.byte	0x44
 443 0160 08       		.byte	0x8
 444 0161 C2       		.byte	0xc2
 445 0162 47020000 		.4byte	0x247
 446 0166 07       		.uleb128 0x7
 447 0167 05050000 		.4byte	.LASF31
 448 016b 08       		.byte	0x8
 449 016c C3       		.byte	0xc3
 450 016d 52020000 		.4byte	0x252
 451 0171 00       		.byte	0
 452 0172 07       		.uleb128 0x7
 453 0173 8E040000 		.4byte	.LASF32
 454 0177 08       		.byte	0x8
 455 0178 C5       		.byte	0xc5
 456 0179 52020000 		.4byte	0x252
ARM GAS  /tmp/cc5nEZeK.s 			page 9


 457 017d 04       		.byte	0x4
 458 017e 07       		.uleb128 0x7
 459 017f 05010000 		.4byte	.LASF33
 460 0183 08       		.byte	0x8
 461 0184 C7       		.byte	0xc7
 462 0185 18010000 		.4byte	0x118
 463 0189 08       		.byte	0x8
 464 018a 07       		.uleb128 0x7
 465 018b 37040000 		.4byte	.LASF34
 466 018f 08       		.byte	0x8
 467 0190 C8       		.byte	0xc8
 468 0191 99040000 		.4byte	0x499
 469 0195 0C       		.byte	0xc
 470 0196 07       		.uleb128 0x7
 471 0197 BB010000 		.4byte	.LASF35
 472 019b 08       		.byte	0x8
 473 019c CA       		.byte	0xca
 474 019d 52020000 		.4byte	0x252
 475 01a1 10       		.byte	0x10
 476 01a2 07       		.uleb128 0x7
 477 01a3 29040000 		.4byte	.LASF36
 478 01a7 08       		.byte	0x8
 479 01a8 CB       		.byte	0xcb
 480 01a9 52020000 		.4byte	0x252
 481 01ad 14       		.byte	0x14
 482 01ae 07       		.uleb128 0x7
 483 01af AC060000 		.4byte	.LASF37
 484 01b3 08       		.byte	0x8
 485 01b4 D2       		.byte	0xd2
 486 01b5 18060000 		.4byte	0x618
 487 01b9 18       		.byte	0x18
 488 01ba 07       		.uleb128 0x7
 489 01bb E2040000 		.4byte	.LASF38
 490 01bf 08       		.byte	0x8
 491 01c0 DD       		.byte	0xdd
 492 01c1 02010000 		.4byte	0x102
 493 01c5 1C       		.byte	0x1c
 494 01c6 07       		.uleb128 0x7
 495 01c7 23050000 		.4byte	.LASF39
 496 01cb 08       		.byte	0x8
 497 01cc E1       		.byte	0xe1
 498 01cd F7000000 		.4byte	0xf7
 499 01d1 1D       		.byte	0x1d
 500 01d2 07       		.uleb128 0x7
 501 01d3 84060000 		.4byte	.LASF40
 502 01d7 08       		.byte	0x8
 503 01d8 E6       		.byte	0xe6
 504 01d9 0D010000 		.4byte	0x10d
 505 01dd 1E       		.byte	0x1e
 506 01de 08       		.uleb128 0x8
 507 01df 705F7500 		.ascii	"p_u\000"
 508 01e3 08       		.byte	0x8
 509 01e4 3101     		.2byte	0x131
 510 01e6 53050000 		.4byte	0x553
 511 01ea 20       		.byte	0x20
 512 01eb 09       		.uleb128 0x9
 513 01ec EE020000 		.4byte	.LASF41
ARM GAS  /tmp/cc5nEZeK.s 			page 10


 514 01f0 08       		.byte	0x8
 515 01f1 3601     		.2byte	0x136
 516 01f3 58020000 		.4byte	0x258
 517 01f7 24       		.byte	0x24
 518 01f8 09       		.uleb128 0x9
 519 01f9 56020000 		.4byte	.LASF42
 520 01fd 08       		.byte	0x8
 521 01fe 3C01     		.2byte	0x13c
 522 0200 7C020000 		.4byte	0x27c
 523 0204 28       		.byte	0x28
 524 0205 09       		.uleb128 0x9
 525 0206 D3060000 		.4byte	.LASF43
 526 020a 08       		.byte	0x8
 527 020b 4001     		.2byte	0x140
 528 020d 23010000 		.4byte	0x123
 529 0211 30       		.byte	0x30
 530 0212 09       		.uleb128 0x9
 531 0213 79050000 		.4byte	.LASF44
 532 0217 08       		.byte	0x8
 533 0218 4601     		.2byte	0x146
 534 021a 2E010000 		.4byte	0x12e
 535 021e 34       		.byte	0x34
 536 021f 09       		.uleb128 0x9
 537 0220 CE040000 		.4byte	.LASF45
 538 0224 08       		.byte	0x8
 539 0225 4D01     		.2byte	0x14d
 540 0227 12060000 		.4byte	0x612
 541 022b 38       		.byte	0x38
 542 022c 09       		.uleb128 0x9
 543 022d 0D060000 		.4byte	.LASF46
 544 0231 08       		.byte	0x8
 545 0232 5101     		.2byte	0x151
 546 0234 18010000 		.4byte	0x118
 547 0238 3C       		.byte	0x3c
 548 0239 09       		.uleb128 0x9
 549 023a 50010000 		.4byte	.LASF47
 550 023e 08       		.byte	0x8
 551 023f 5801     		.2byte	0x158
 552 0241 2F030000 		.4byte	0x32f
 553 0245 40       		.byte	0x40
 554 0246 00       		.byte	0
 555 0247 03       		.uleb128 0x3
 556 0248 01030000 		.4byte	.LASF48
 557 024c 07       		.byte	0x7
 558 024d 44       		.byte	0x44
 559 024e 52020000 		.4byte	0x252
 560 0252 0A       		.uleb128 0xa
 561 0253 04       		.byte	0x4
 562 0254 4F010000 		.4byte	0x14f
 563 0258 03       		.uleb128 0x3
 564 0259 B8060000 		.4byte	.LASF49
 565 025d 07       		.byte	0x7
 566 025e 49       		.byte	0x49
 567 025f 63020000 		.4byte	0x263
 568 0263 06       		.uleb128 0x6
 569 0264 AA050000 		.4byte	.LASF51
 570 0268 04       		.byte	0x4
ARM GAS  /tmp/cc5nEZeK.s 			page 11


 571 0269 08       		.byte	0x8
 572 026a B0       		.byte	0xb0
 573 026b 7C020000 		.4byte	0x27c
 574 026f 07       		.uleb128 0x7
 575 0270 05050000 		.4byte	.LASF31
 576 0274 08       		.byte	0x8
 577 0275 B1       		.byte	0xb1
 578 0276 52020000 		.4byte	0x252
 579 027a 00       		.byte	0
 580 027b 00       		.byte	0
 581 027c 03       		.uleb128 0x3
 582 027d 3E050000 		.4byte	.LASF52
 583 0281 07       		.byte	0x7
 584 0282 50       		.byte	0x50
 585 0283 87020000 		.4byte	0x287
 586 0287 06       		.uleb128 0x6
 587 0288 F4000000 		.4byte	.LASF53
 588 028c 08       		.byte	0x8
 589 028d 08       		.byte	0x8
 590 028e B7       		.byte	0xb7
 591 028f AC020000 		.4byte	0x2ac
 592 0293 07       		.uleb128 0x7
 593 0294 05050000 		.4byte	.LASF31
 594 0298 08       		.byte	0x8
 595 0299 B8       		.byte	0xb8
 596 029a 52020000 		.4byte	0x252
 597 029e 00       		.byte	0
 598 029f 07       		.uleb128 0x7
 599 02a0 8E040000 		.4byte	.LASF32
 600 02a4 08       		.byte	0x8
 601 02a5 B9       		.byte	0xb9
 602 02a6 52020000 		.4byte	0x252
 603 02aa 04       		.byte	0x4
 604 02ab 00       		.byte	0
 605 02ac 03       		.uleb128 0x3
 606 02ad 07000000 		.4byte	.LASF54
 607 02b1 07       		.byte	0x7
 608 02b2 57       		.byte	0x57
 609 02b3 B7020000 		.4byte	0x2b7
 610 02b7 0B       		.uleb128 0xb
 611 02b8 AB020000 		.4byte	.LASF55
 612 02bc 1C       		.byte	0x1c
 613 02bd 08       		.byte	0x8
 614 02be 9001     		.2byte	0x190
 615 02c0 13030000 		.4byte	0x313
 616 02c4 09       		.uleb128 0x9
 617 02c5 99050000 		.4byte	.LASF56
 618 02c9 08       		.byte	0x8
 619 02ca 9101     		.2byte	0x191
 620 02cc 7C020000 		.4byte	0x27c
 621 02d0 00       		.byte	0
 622 02d1 09       		.uleb128 0x9
 623 02d2 F7040000 		.4byte	.LASF57
 624 02d6 08       		.byte	0x8
 625 02d7 9201     		.2byte	0x192
 626 02d9 18010000 		.4byte	0x118
 627 02dd 08       		.byte	0x8
ARM GAS  /tmp/cc5nEZeK.s 			page 12


 628 02de 09       		.uleb128 0x9
 629 02df 31040000 		.4byte	.LASF58
 630 02e3 08       		.byte	0x8
 631 02e4 9401     		.2byte	0x194
 632 02e6 99040000 		.4byte	0x499
 633 02ea 0C       		.byte	0xc
 634 02eb 09       		.uleb128 0x9
 635 02ec D8010000 		.4byte	.LASF59
 636 02f0 08       		.byte	0x8
 637 02f1 9701     		.2byte	0x197
 638 02f3 52020000 		.4byte	0x252
 639 02f7 10       		.byte	0x10
 640 02f8 09       		.uleb128 0x9
 641 02f9 58040000 		.4byte	.LASF60
 642 02fd 08       		.byte	0x8
 643 02fe 9801     		.2byte	0x198
 644 0300 52020000 		.4byte	0x252
 645 0304 14       		.byte	0x14
 646 0305 09       		.uleb128 0x9
 647 0306 4E040000 		.4byte	.LASF61
 648 030a 08       		.byte	0x8
 649 030b 9B01     		.2byte	0x19b
 650 030d 52020000 		.4byte	0x252
 651 0311 18       		.byte	0x18
 652 0312 00       		.byte	0
 653 0313 03       		.uleb128 0x3
 654 0314 18060000 		.4byte	.LASF62
 655 0318 07       		.byte	0x7
 656 0319 5C       		.byte	0x5c
 657 031a 1E030000 		.4byte	0x31e
 658 031e 0A       		.uleb128 0xa
 659 031f 04       		.byte	0x4
 660 0320 24030000 		.4byte	0x324
 661 0324 0C       		.uleb128 0xc
 662 0325 2F030000 		.4byte	0x32f
 663 0329 0D       		.uleb128 0xd
 664 032a 2F030000 		.4byte	0x32f
 665 032e 00       		.byte	0
 666 032f 0E       		.uleb128 0xe
 667 0330 04       		.byte	0x4
 668 0331 03       		.uleb128 0x3
 669 0332 7E040000 		.4byte	.LASF63
 670 0336 07       		.byte	0x7
 671 0337 61       		.byte	0x61
 672 0338 3C030000 		.4byte	0x33c
 673 033c 0B       		.uleb128 0xb
 674 033d 4E050000 		.4byte	.LASF64
 675 0341 14       		.byte	0x14
 676 0342 08       		.byte	0x8
 677 0343 6B01     		.2byte	0x16b
 678 0345 8B030000 		.4byte	0x38b
 679 0349 09       		.uleb128 0x9
 680 034a 21020000 		.4byte	.LASF65
 681 034e 08       		.byte	0x8
 682 034f 6C01     		.2byte	0x16c
 683 0351 2F060000 		.4byte	0x62f
 684 0355 00       		.byte	0
ARM GAS  /tmp/cc5nEZeK.s 			page 13


 685 0356 09       		.uleb128 0x9
 686 0357 E9010000 		.4byte	.LASF66
 687 035b 08       		.byte	0x8
 688 035c 6D01     		.2byte	0x16d
 689 035e 2F060000 		.4byte	0x62f
 690 0362 04       		.byte	0x4
 691 0363 09       		.uleb128 0x9
 692 0364 A1050000 		.4byte	.LASF67
 693 0368 08       		.byte	0x8
 694 0369 6E01     		.2byte	0x16e
 695 036b 44010000 		.4byte	0x144
 696 036f 08       		.byte	0x8
 697 0370 09       		.uleb128 0x9
 698 0371 EF060000 		.4byte	.LASF68
 699 0375 08       		.byte	0x8
 700 0376 6F01     		.2byte	0x16f
 701 0378 13030000 		.4byte	0x313
 702 037c 0C       		.byte	0xc
 703 037d 09       		.uleb128 0x9
 704 037e 5B060000 		.4byte	.LASF69
 705 0382 08       		.byte	0x8
 706 0383 7101     		.2byte	0x171
 707 0385 2F030000 		.4byte	0x32f
 708 0389 10       		.byte	0x10
 709 038a 00       		.byte	0
 710 038b 03       		.uleb128 0x3
 711 038c 9F000000 		.4byte	.LASF70
 712 0390 07       		.byte	0x7
 713 0391 66       		.byte	0x66
 714 0392 96030000 		.4byte	0x396
 715 0396 0B       		.uleb128 0xb
 716 0397 14030000 		.4byte	.LASF71
 717 039b 10       		.byte	0x10
 718 039c 08       		.byte	0x8
 719 039d 7B01     		.2byte	0x17b
 720 039f D8030000 		.4byte	0x3d8
 721 03a3 09       		.uleb128 0x9
 722 03a4 21020000 		.4byte	.LASF65
 723 03a8 08       		.byte	0x8
 724 03a9 7C01     		.2byte	0x17c
 725 03ab 2F060000 		.4byte	0x62f
 726 03af 00       		.byte	0
 727 03b0 09       		.uleb128 0x9
 728 03b1 E9010000 		.4byte	.LASF66
 729 03b5 08       		.byte	0x8
 730 03b6 7E01     		.2byte	0x17e
 731 03b8 2F060000 		.4byte	0x62f
 732 03bc 04       		.byte	0x4
 733 03bd 09       		.uleb128 0x9
 734 03be A1050000 		.4byte	.LASF67
 735 03c2 08       		.byte	0x8
 736 03c3 8001     		.2byte	0x180
 737 03c5 44010000 		.4byte	0x144
 738 03c9 08       		.byte	0x8
 739 03ca 09       		.uleb128 0x9
 740 03cb 99060000 		.4byte	.LASF72
 741 03cf 08       		.byte	0x8
ARM GAS  /tmp/cc5nEZeK.s 			page 14


 742 03d0 8801     		.2byte	0x188
 743 03d2 44010000 		.4byte	0x144
 744 03d6 0C       		.byte	0xc
 745 03d7 00       		.byte	0
 746 03d8 03       		.uleb128 0x3
 747 03d9 4D000000 		.4byte	.LASF73
 748 03dd 07       		.byte	0x7
 749 03de 6B       		.byte	0x6b
 750 03df E3030000 		.4byte	0x3e3
 751 03e3 0B       		.uleb128 0xb
 752 03e4 9D040000 		.4byte	.LASF74
 753 03e8 04       		.byte	0x4
 754 03e9 08       		.byte	0x8
 755 03ea A201     		.2byte	0x1a2
 756 03ec FE030000 		.4byte	0x3fe
 757 03f0 09       		.uleb128 0x9
 758 03f1 3A060000 		.4byte	.LASF75
 759 03f5 08       		.byte	0x8
 760 03f6 AA01     		.2byte	0x1aa
 761 03f8 1E060000 		.4byte	0x61e
 762 03fc 00       		.byte	0
 763 03fd 00       		.byte	0
 764 03fe 03       		.uleb128 0x3
 765 03ff 93020000 		.4byte	.LASF76
 766 0403 07       		.byte	0x7
 767 0404 70       		.byte	0x70
 768 0405 09040000 		.4byte	0x409
 769 0409 0F       		.uleb128 0xf
 770 040a 8A010000 		.4byte	.LASF77
 771 040e 5001     		.2byte	0x150
 772 0410 08       		.byte	0x8
 773 0411 C201     		.2byte	0x1c2
 774 0413 65040000 		.4byte	0x465
 775 0417 09       		.uleb128 0x9
 776 0418 8B060000 		.4byte	.LASF78
 777 041c 08       		.byte	0x8
 778 041d C601     		.2byte	0x1c6
 779 041f AC020000 		.4byte	0x2ac
 780 0423 00       		.byte	0
 781 0424 09       		.uleb128 0x9
 782 0425 60010000 		.4byte	.LASF79
 783 0429 08       		.byte	0x8
 784 042a CA01     		.2byte	0x1ca
 785 042c 8B030000 		.4byte	0x38b
 786 0430 1C       		.byte	0x1c
 787 0431 08       		.uleb128 0x8
 788 0432 64626700 		.ascii	"dbg\000"
 789 0436 08       		.byte	0x8
 790 0437 CE01     		.2byte	0x1ce
 791 0439 D8030000 		.4byte	0x3d8
 792 043d 2C       		.byte	0x2c
 793 043e 09       		.uleb128 0x9
 794 043f 94000000 		.4byte	.LASF80
 795 0443 08       		.byte	0x8
 796 0444 D201     		.2byte	0x1d2
 797 0446 4F010000 		.4byte	0x14f
 798 044a 30       		.byte	0x30
ARM GAS  /tmp/cc5nEZeK.s 			page 15


 799 044b 08       		.uleb128 0x8
 800 044c 746D00   		.ascii	"tm\000"
 801 044f 08       		.byte	0x8
 802 0450 D701     		.2byte	0x1d7
 803 0452 48050000 		.4byte	0x548
 804 0456 74       		.byte	0x74
 805 0457 09       		.uleb128 0x9
 806 0458 FF010000 		.4byte	.LASF81
 807 045c 08       		.byte	0x8
 808 045d E301     		.2byte	0x1e3
 809 045f 35060000 		.4byte	0x635
 810 0463 78       		.byte	0x78
 811 0464 00       		.byte	0
 812 0465 04       		.uleb128 0x4
 813 0466 04       		.byte	0x4
 814 0467 07       		.byte	0x7
 815 0468 F8020000 		.4byte	.LASF82
 816 046c 10       		.uleb128 0x10
 817 046d B5000000 		.4byte	.LASF83
 818 0471 09       		.byte	0x9
 819 0472 A706     		.2byte	0x6a7
 820 0474 D1000000 		.4byte	0xd1
 821 0478 11       		.uleb128 0x11
 822 0479 32020000 		.4byte	.LASF84
 823 047d 0A       		.byte	0xa
 824 047e 4C       		.byte	0x4c
 825 047f D6000000 		.4byte	0xd6
 826 0483 03       		.uleb128 0x3
 827 0484 E0010000 		.4byte	.LASF85
 828 0488 0B       		.byte	0xb
 829 0489 65       		.byte	0x65
 830 048a 2F030000 		.4byte	0x32f
 831 048e 03       		.uleb128 0x3
 832 048f CF020000 		.4byte	.LASF86
 833 0493 0B       		.byte	0xb
 834 0494 6D       		.byte	0x6d
 835 0495 E1000000 		.4byte	0xe1
 836 0499 06       		.uleb128 0x6
 837 049a 4B060000 		.4byte	.LASF87
 838 049e 04       		.byte	0x4
 839 049f 0B       		.byte	0xb
 840 04a0 89       		.byte	0x89
 841 04a1 B2040000 		.4byte	0x4b2
 842 04a5 12       		.uleb128 0x12
 843 04a6 72313300 		.ascii	"r13\000"
 844 04aa 0B       		.byte	0xb
 845 04ab 8A       		.byte	0x8a
 846 04ac 2D050000 		.4byte	0x52d
 847 04b0 00       		.byte	0
 848 04b1 00       		.byte	0
 849 04b2 06       		.uleb128 0x6
 850 04b3 41000000 		.4byte	.LASF88
 851 04b7 24       		.byte	0x24
 852 04b8 0C       		.byte	0xc
 853 04b9 F4       		.byte	0xf4
 854 04ba 2D050000 		.4byte	0x52d
 855 04be 08       		.uleb128 0x8
ARM GAS  /tmp/cc5nEZeK.s 			page 16


 856 04bf 723400   		.ascii	"r4\000"
 857 04c2 0C       		.byte	0xc
 858 04c3 0701     		.2byte	0x107
 859 04c5 83040000 		.4byte	0x483
 860 04c9 00       		.byte	0
 861 04ca 08       		.uleb128 0x8
 862 04cb 723500   		.ascii	"r5\000"
 863 04ce 0C       		.byte	0xc
 864 04cf 0801     		.2byte	0x108
 865 04d1 83040000 		.4byte	0x483
 866 04d5 04       		.byte	0x4
 867 04d6 08       		.uleb128 0x8
 868 04d7 723600   		.ascii	"r6\000"
 869 04da 0C       		.byte	0xc
 870 04db 0901     		.2byte	0x109
 871 04dd 83040000 		.4byte	0x483
 872 04e1 08       		.byte	0x8
 873 04e2 08       		.uleb128 0x8
 874 04e3 723700   		.ascii	"r7\000"
 875 04e6 0C       		.byte	0xc
 876 04e7 0A01     		.2byte	0x10a
 877 04e9 83040000 		.4byte	0x483
 878 04ed 0C       		.byte	0xc
 879 04ee 08       		.uleb128 0x8
 880 04ef 723800   		.ascii	"r8\000"
 881 04f2 0C       		.byte	0xc
 882 04f3 0B01     		.2byte	0x10b
 883 04f5 83040000 		.4byte	0x483
 884 04f9 10       		.byte	0x10
 885 04fa 08       		.uleb128 0x8
 886 04fb 723900   		.ascii	"r9\000"
 887 04fe 0C       		.byte	0xc
 888 04ff 0C01     		.2byte	0x10c
 889 0501 83040000 		.4byte	0x483
 890 0505 14       		.byte	0x14
 891 0506 08       		.uleb128 0x8
 892 0507 72313000 		.ascii	"r10\000"
 893 050b 0C       		.byte	0xc
 894 050c 0D01     		.2byte	0x10d
 895 050e 83040000 		.4byte	0x483
 896 0512 18       		.byte	0x18
 897 0513 08       		.uleb128 0x8
 898 0514 72313100 		.ascii	"r11\000"
 899 0518 0C       		.byte	0xc
 900 0519 0E01     		.2byte	0x10e
 901 051b 83040000 		.4byte	0x483
 902 051f 1C       		.byte	0x1c
 903 0520 08       		.uleb128 0x8
 904 0521 6C7200   		.ascii	"lr\000"
 905 0524 0C       		.byte	0xc
 906 0525 0F01     		.2byte	0x10f
 907 0527 83040000 		.4byte	0x483
 908 052b 20       		.byte	0x20
 909 052c 00       		.byte	0
 910 052d 0A       		.uleb128 0xa
 911 052e 04       		.byte	0x4
 912 052f B2040000 		.4byte	0x4b2
ARM GAS  /tmp/cc5nEZeK.s 			page 17


 913 0533 13       		.uleb128 0x13
 914 0534 04       		.byte	0x4
 915 0535 0D       		.byte	0xd
 916 0536 38       		.byte	0x38
 917 0537 48050000 		.4byte	0x548
 918 053b 07       		.uleb128 0x7
 919 053c 44060000 		.4byte	.LASF89
 920 0540 0D       		.byte	0xd
 921 0541 3C       		.byte	0x3c
 922 0542 EC000000 		.4byte	0xec
 923 0546 00       		.byte	0
 924 0547 00       		.byte	0
 925 0548 03       		.uleb128 0x3
 926 0549 3D040000 		.4byte	.LASF90
 927 054d 0D       		.byte	0xd
 928 054e 3D       		.byte	0x3d
 929 054f 33050000 		.4byte	0x533
 930 0553 14       		.uleb128 0x14
 931 0554 04       		.byte	0x4
 932 0555 08       		.byte	0x8
 933 0556 FA       		.byte	0xfa
 934 0557 B0050000 		.4byte	0x5b0
 935 055b 15       		.uleb128 0x15
 936 055c 1B000000 		.4byte	.LASF91
 937 0560 08       		.byte	0x8
 938 0561 0101     		.2byte	0x101
 939 0563 23010000 		.4byte	0x123
 940 0567 15       		.uleb128 0x15
 941 0568 8B000000 		.4byte	.LASF92
 942 056c 08       		.byte	0x8
 943 056d 0801     		.2byte	0x108
 944 056f 23010000 		.4byte	0x123
 945 0573 15       		.uleb128 0x15
 946 0574 A5060000 		.4byte	.LASF93
 947 0578 08       		.byte	0x8
 948 0579 0F01     		.2byte	0x10f
 949 057b 2F030000 		.4byte	0x32f
 950 057f 15       		.uleb128 0x15
 951 0580 84010000 		.4byte	.LASF94
 952 0584 08       		.byte	0x8
 953 0585 1601     		.2byte	0x116
 954 0587 B0050000 		.4byte	0x5b0
 955 058b 15       		.uleb128 0x15
 956 058c 42020000 		.4byte	.LASF95
 957 0590 08       		.byte	0x8
 958 0591 1E01     		.2byte	0x11e
 959 0593 DB050000 		.4byte	0x5db
 960 0597 15       		.uleb128 0x15
 961 0598 D9050000 		.4byte	.LASF96
 962 059c 08       		.byte	0x8
 963 059d 2701     		.2byte	0x127
 964 059f 12060000 		.4byte	0x612
 965 05a3 15       		.uleb128 0x15
 966 05a4 FE040000 		.4byte	.LASF97
 967 05a8 08       		.byte	0x8
 968 05a9 2F01     		.2byte	0x12f
 969 05ab 2E010000 		.4byte	0x12e
ARM GAS  /tmp/cc5nEZeK.s 			page 18


 970 05af 00       		.byte	0
 971 05b0 0A       		.uleb128 0xa
 972 05b1 04       		.byte	0x4
 973 05b2 47020000 		.4byte	0x247
 974 05b6 06       		.uleb128 0x6
 975 05b7 6C050000 		.4byte	.LASF98
 976 05bb 0C       		.byte	0xc
 977 05bc 0E       		.byte	0xe
 978 05bd 34       		.byte	0x34
 979 05be DB050000 		.4byte	0x5db
 980 05c2 07       		.uleb128 0x7
 981 05c3 C3010000 		.4byte	.LASF99
 982 05c7 0E       		.byte	0xe
 983 05c8 35       		.byte	0x35
 984 05c9 7C020000 		.4byte	0x27c
 985 05cd 00       		.byte	0
 986 05ce 07       		.uleb128 0x7
 987 05cf 6A020000 		.4byte	.LASF100
 988 05d3 0E       		.byte	0xe
 989 05d4 37       		.byte	0x37
 990 05d5 39010000 		.4byte	0x139
 991 05d9 08       		.byte	0x8
 992 05da 00       		.byte	0
 993 05db 0A       		.uleb128 0xa
 994 05dc 04       		.byte	0x4
 995 05dd B6050000 		.4byte	0x5b6
 996 05e1 06       		.uleb128 0x6
 997 05e2 7B060000 		.4byte	.LASF101
 998 05e6 10       		.byte	0x10
 999 05e7 0F       		.byte	0xf
 1000 05e8 39       		.byte	0x39
 1001 05e9 12060000 		.4byte	0x612
 1002 05ed 07       		.uleb128 0x7
 1003 05ee 58010000 		.4byte	.LASF102
 1004 05f2 0F       		.byte	0xf
 1005 05f3 3A       		.byte	0x3a
 1006 05f4 7C020000 		.4byte	0x27c
 1007 05f8 00       		.byte	0
 1008 05f9 07       		.uleb128 0x7
 1009 05fa D9060000 		.4byte	.LASF103
 1010 05fe 0F       		.byte	0xf
 1011 05ff 3C       		.byte	0x3c
 1012 0600 52020000 		.4byte	0x252
 1013 0604 08       		.byte	0x8
 1014 0605 07       		.uleb128 0x7
 1015 0606 FC050000 		.4byte	.LASF104
 1016 060a 0F       		.byte	0xf
 1017 060b 3E       		.byte	0x3e
 1018 060c 67070000 		.4byte	0x767
 1019 0610 0C       		.byte	0xc
 1020 0611 00       		.byte	0
 1021 0612 0A       		.uleb128 0xa
 1022 0613 04       		.byte	0x4
 1023 0614 E1050000 		.4byte	0x5e1
 1024 0618 0A       		.uleb128 0xa
 1025 0619 04       		.byte	0x4
 1026 061a 2A060000 		.4byte	0x62a
ARM GAS  /tmp/cc5nEZeK.s 			page 19


 1027 061e 05       		.uleb128 0x5
 1028 061f 18060000 		.4byte	0x618
 1029 0623 04       		.uleb128 0x4
 1030 0624 01       		.byte	0x1
 1031 0625 08       		.byte	0x8
 1032 0626 D4050000 		.4byte	.LASF105
 1033 062a 16       		.uleb128 0x16
 1034 062b 23060000 		.4byte	0x623
 1035 062f 0A       		.uleb128 0xa
 1036 0630 04       		.byte	0x4
 1037 0631 31030000 		.4byte	0x331
 1038 0635 17       		.uleb128 0x17
 1039 0636 8E040000 		.4byte	0x48e
 1040 063a 45060000 		.4byte	0x645
 1041 063e 18       		.uleb128 0x18
 1042 063f 65040000 		.4byte	0x465
 1043 0643 1A       		.byte	0x1a
 1044 0644 00       		.byte	0
 1045 0645 19       		.uleb128 0x19
 1046 0646 636800   		.ascii	"ch\000"
 1047 0649 08       		.byte	0x8
 1048 064a 0902     		.2byte	0x209
 1049 064c FE030000 		.4byte	0x3fe
 1050 0650 13       		.uleb128 0x13
 1051 0651 16       		.byte	0x16
 1052 0652 10       		.byte	0x10
 1053 0653 34       		.byte	0x34
 1054 0654 31070000 		.4byte	0x731
 1055 0658 07       		.uleb128 0x7
 1056 0659 E1060000 		.4byte	.LASF106
 1057 065d 10       		.byte	0x10
 1058 065e 35       		.byte	0x35
 1059 065f 31070000 		.4byte	0x731
 1060 0663 00       		.byte	0
 1061 0664 07       		.uleb128 0x7
 1062 0665 DA020000 		.4byte	.LASF107
 1063 0669 10       		.byte	0x10
 1064 066a 36       		.byte	0x36
 1065 066b B0000000 		.4byte	0xb0
 1066 066f 04       		.byte	0x4
 1067 0670 07       		.uleb128 0x7
 1068 0671 BA050000 		.4byte	.LASF108
 1069 0675 10       		.byte	0x10
 1070 0676 37       		.byte	0x37
 1071 0677 B0000000 		.4byte	0xb0
 1072 067b 05       		.byte	0x5
 1073 067c 07       		.uleb128 0x7
 1074 067d A6010000 		.4byte	.LASF109
 1075 0681 10       		.byte	0x10
 1076 0682 38       		.byte	0x38
 1077 0683 BB000000 		.4byte	0xbb
 1078 0687 06       		.byte	0x6
 1079 0688 07       		.uleb128 0x7
 1080 0689 73040000 		.4byte	.LASF110
 1081 068d 10       		.byte	0x10
 1082 068e 39       		.byte	0x39
 1083 068f B0000000 		.4byte	0xb0
ARM GAS  /tmp/cc5nEZeK.s 			page 20


 1084 0693 08       		.byte	0x8
 1085 0694 07       		.uleb128 0x7
 1086 0695 11040000 		.4byte	.LASF111
 1087 0699 10       		.byte	0x10
 1088 069a 3A       		.byte	0x3a
 1089 069b B0000000 		.4byte	0xb0
 1090 069f 09       		.byte	0x9
 1091 06a0 07       		.uleb128 0x7
 1092 06a1 7D000000 		.4byte	.LASF112
 1093 06a5 10       		.byte	0x10
 1094 06a6 3B       		.byte	0x3b
 1095 06a7 B0000000 		.4byte	0xb0
 1096 06ab 0A       		.byte	0xa
 1097 06ac 07       		.uleb128 0x7
 1098 06ad 8D050000 		.4byte	.LASF113
 1099 06b1 10       		.byte	0x10
 1100 06b2 3C       		.byte	0x3c
 1101 06b3 B0000000 		.4byte	0xb0
 1102 06b7 0B       		.byte	0xb
 1103 06b8 07       		.uleb128 0x7
 1104 06b9 70060000 		.4byte	.LASF114
 1105 06bd 10       		.byte	0x10
 1106 06be 3D       		.byte	0x3d
 1107 06bf B0000000 		.4byte	0xb0
 1108 06c3 0C       		.byte	0xc
 1109 06c4 07       		.uleb128 0x7
 1110 06c5 5F050000 		.4byte	.LASF115
 1111 06c9 10       		.byte	0x10
 1112 06ca 3E       		.byte	0x3e
 1113 06cb B0000000 		.4byte	0xb0
 1114 06cf 0D       		.byte	0xd
 1115 06d0 07       		.uleb128 0x7
 1116 06d1 49020000 		.4byte	.LASF116
 1117 06d5 10       		.byte	0x10
 1118 06d6 3F       		.byte	0x3f
 1119 06d7 B0000000 		.4byte	0xb0
 1120 06db 0E       		.byte	0xe
 1121 06dc 07       		.uleb128 0x7
 1122 06dd 1D040000 		.4byte	.LASF117
 1123 06e1 10       		.byte	0x10
 1124 06e2 40       		.byte	0x40
 1125 06e3 B0000000 		.4byte	0xb0
 1126 06e7 0F       		.byte	0xf
 1127 06e8 07       		.uleb128 0x7
 1128 06e9 33010000 		.4byte	.LASF118
 1129 06ed 10       		.byte	0x10
 1130 06ee 41       		.byte	0x41
 1131 06ef B0000000 		.4byte	0xb0
 1132 06f3 10       		.byte	0x10
 1133 06f4 07       		.uleb128 0x7
 1134 06f5 0C010000 		.4byte	.LASF119
 1135 06f9 10       		.byte	0x10
 1136 06fa 43       		.byte	0x43
 1137 06fb B0000000 		.4byte	0xb0
 1138 06ff 11       		.byte	0x11
 1139 0700 07       		.uleb128 0x7
 1140 0701 43010000 		.4byte	.LASF120
ARM GAS  /tmp/cc5nEZeK.s 			page 21


 1141 0705 10       		.byte	0x10
 1142 0706 44       		.byte	0x44
 1143 0707 B0000000 		.4byte	0xb0
 1144 070b 12       		.byte	0x12
 1145 070c 07       		.uleb128 0x7
 1146 070d E2020000 		.4byte	.LASF121
 1147 0711 10       		.byte	0x10
 1148 0712 45       		.byte	0x45
 1149 0713 B0000000 		.4byte	0xb0
 1150 0717 13       		.byte	0x13
 1151 0718 07       		.uleb128 0x7
 1152 0719 14050000 		.4byte	.LASF122
 1153 071d 10       		.byte	0x10
 1154 071e 46       		.byte	0x46
 1155 071f B0000000 		.4byte	0xb0
 1156 0723 14       		.byte	0x14
 1157 0724 07       		.uleb128 0x7
 1158 0725 9F020000 		.4byte	.LASF123
 1159 0729 10       		.byte	0x10
 1160 072a 48       		.byte	0x48
 1161 072b B0000000 		.4byte	0xb0
 1162 072f 15       		.byte	0x15
 1163 0730 00       		.byte	0
 1164 0731 17       		.uleb128 0x17
 1165 0732 23060000 		.4byte	0x623
 1166 0736 41070000 		.4byte	0x741
 1167 073a 18       		.uleb128 0x18
 1168 073b 65040000 		.4byte	0x465
 1169 073f 03       		.byte	0x3
 1170 0740 00       		.byte	0
 1171 0741 03       		.uleb128 0x3
 1172 0742 B1010000 		.4byte	.LASF124
 1173 0746 10       		.byte	0x10
 1174 0747 49       		.byte	0x49
 1175 0748 50060000 		.4byte	0x650
 1176 074c 16       		.uleb128 0x16
 1177 074d 41070000 		.4byte	0x741
 1178 0751 11       		.uleb128 0x11
 1179 0752 61020000 		.4byte	.LASF125
 1180 0756 10       		.byte	0x10
 1181 0757 82       		.byte	0x82
 1182 0758 4C070000 		.4byte	0x74c
 1183 075c 03       		.uleb128 0x3
 1184 075d F1010000 		.4byte	.LASF126
 1185 0761 0F       		.byte	0xf
 1186 0762 34       		.byte	0x34
 1187 0763 E1050000 		.4byte	0x5e1
 1188 0767 0A       		.uleb128 0xa
 1189 0768 04       		.byte	0x4
 1190 0769 5C070000 		.4byte	0x75c
 1191 076d 0A       		.uleb128 0xa
 1192 076e 04       		.byte	0x4
 1193 076f B0000000 		.4byte	0xb0
 1194 0773 1A       		.uleb128 0x1a
 1195 0774 F4050000 		.4byte	.LASF127
 1196 0778 01       		.byte	0x1
 1197 0779 3E       		.byte	0x3e
ARM GAS  /tmp/cc5nEZeK.s 			page 22


 1198 077a 6D070000 		.4byte	0x76d
 1199 077e 05       		.uleb128 0x5
 1200 077f 03       		.byte	0x3
 1201 0780 00000000 		.4byte	nextmem
 1202 0784 1A       		.uleb128 0x1a
 1203 0785 00000000 		.4byte	.LASF128
 1204 0789 01       		.byte	0x1
 1205 078a 3F       		.byte	0x3f
 1206 078b 6D070000 		.4byte	0x76d
 1207 078f 05       		.uleb128 0x5
 1208 0790 03       		.byte	0x3
 1209 0791 00000000 		.4byte	endmem
 1210 0795 1B       		.uleb128 0x1b
 1211 0796 73010000 		.4byte	.LASF141
 1212 079a 01       		.byte	0x1
 1213 079b 9B       		.byte	0x9b
 1214 079c 28000000 		.4byte	0x28
 1215 07a0 00000000 		.4byte	.LFB230
 1216 07a4 14000000 		.4byte	.LFE230-.LFB230
 1217 07a8 01       		.uleb128 0x1
 1218 07a9 9C       		.byte	0x9c
 1219 07aa 1C       		.uleb128 0x1c
 1220 07ab CB010000 		.4byte	.LASF142
 1221 07af 01       		.byte	0x1
 1222 07b0 83       		.byte	0x83
 1223 07b1 2F030000 		.4byte	0x32f
 1224 07b5 01       		.byte	0x1
 1225 07b6 CF070000 		.4byte	0x7cf
 1226 07ba 1D       		.uleb128 0x1d
 1227 07bb B3060000 		.4byte	.LASF137
 1228 07bf 01       		.byte	0x1
 1229 07c0 83       		.byte	0x83
 1230 07c1 28000000 		.4byte	0x28
 1231 07c5 1E       		.uleb128 0x1e
 1232 07c6 7000     		.ascii	"p\000"
 1233 07c8 01       		.byte	0x1
 1234 07c9 84       		.byte	0x84
 1235 07ca 2F030000 		.4byte	0x32f
 1236 07ce 00       		.byte	0
 1237 07cf 1F       		.uleb128 0x1f
 1238 07d0 2B000000 		.4byte	.LASF143
 1239 07d4 01       		.byte	0x1
 1240 07d5 6D       		.byte	0x6d
 1241 07d6 2F030000 		.4byte	0x32f
 1242 07da 00000000 		.4byte	.LFB228
 1243 07de 38000000 		.4byte	.LFE228-.LFB228
 1244 07e2 01       		.uleb128 0x1
 1245 07e3 9C       		.byte	0x9c
 1246 07e4 B8080000 		.4byte	0x8b8
 1247 07e8 20       		.uleb128 0x20
 1248 07e9 B3060000 		.4byte	.LASF137
 1249 07ed 01       		.byte	0x1
 1250 07ee 6D       		.byte	0x6d
 1251 07ef 28000000 		.4byte	0x28
 1252 07f3 00000000 		.4byte	.LLST0
 1253 07f7 1E       		.uleb128 0x1e
 1254 07f8 7000     		.ascii	"p\000"
ARM GAS  /tmp/cc5nEZeK.s 			page 23


 1255 07fa 01       		.byte	0x1
 1256 07fb 6E       		.byte	0x6e
 1257 07fc 2F030000 		.4byte	0x32f
 1258 0800 21       		.uleb128 0x21
 1259 0801 1F090000 		.4byte	0x91f
 1260 0805 02000000 		.4byte	.LBB26
 1261 0809 06000000 		.4byte	.LBE26-.LBB26
 1262 080d 01       		.byte	0x1
 1263 080e 70       		.byte	0x70
 1264 080f 3F080000 		.4byte	0x83f
 1265 0813 22       		.uleb128 0x22
 1266 0814 31090000 		.4byte	0x931
 1267 0818 02000000 		.4byte	.LBB27
 1268 081c 06000000 		.4byte	.LBE27-.LBB27
 1269 0820 11       		.byte	0x11
 1270 0821 5C01     		.2byte	0x15c
 1271 0823 22       		.uleb128 0x22
 1272 0824 3A090000 		.4byte	0x93a
 1273 0828 02000000 		.4byte	.LBB28
 1274 082c 06000000 		.4byte	.LBE28-.LBB28
 1275 0830 0C       		.byte	0xc
 1276 0831 BF01     		.2byte	0x1bf
 1277 0833 23       		.uleb128 0x23
 1278 0834 47090000 		.4byte	0x947
 1279 0838 21000000 		.4byte	.LLST1
 1280 083c 00       		.byte	0
 1281 083d 00       		.byte	0
 1282 083e 00       		.byte	0
 1283 083f 21       		.uleb128 0x21
 1284 0840 AA070000 		.4byte	0x7aa
 1285 0844 08000000 		.4byte	.LBB30
 1286 0848 1C000000 		.4byte	.LBE30-.LBB30
 1287 084c 01       		.byte	0x1
 1288 084d 71       		.byte	0x71
 1289 084e 6D080000 		.4byte	0x86d
 1290 0852 23       		.uleb128 0x23
 1291 0853 BA070000 		.4byte	0x7ba
 1292 0857 36000000 		.4byte	.LLST2
 1293 085b 24       		.uleb128 0x24
 1294 085c 08000000 		.4byte	.LBB31
 1295 0860 1C000000 		.4byte	.LBE31-.LBB31
 1296 0864 25       		.uleb128 0x25
 1297 0865 C5070000 		.4byte	0x7c5
 1298 0869 01       		.uleb128 0x1
 1299 086a 52       		.byte	0x52
 1300 086b 00       		.byte	0
 1301 086c 00       		.byte	0
 1302 086d 26       		.uleb128 0x26
 1303 086e EF080000 		.4byte	0x8ef
 1304 0872 24000000 		.4byte	.LBB32
 1305 0876 06000000 		.4byte	.LBE32-.LBB32
 1306 087a 01       		.byte	0x1
 1307 087b 72       		.byte	0x72
 1308 087c 24       		.uleb128 0x24
 1309 087d 24000000 		.4byte	.LBB33
 1310 0881 06000000 		.4byte	.LBE33-.LBB33
 1311 0885 27       		.uleb128 0x27
ARM GAS  /tmp/cc5nEZeK.s 			page 24


 1312 0886 FC080000 		.4byte	0x8fc
 1313 088a 22       		.uleb128 0x22
 1314 088b 28090000 		.4byte	0x928
 1315 088f 24000000 		.4byte	.LBB34
 1316 0893 06000000 		.4byte	.LBE34-.LBB34
 1317 0897 11       		.byte	0x11
 1318 0898 7301     		.2byte	0x173
 1319 089a 22       		.uleb128 0x22
 1320 089b 3A090000 		.4byte	0x93a
 1321 089f 24000000 		.4byte	.LBB35
 1322 08a3 06000000 		.4byte	.LBE35-.LBB35
 1323 08a7 0C       		.byte	0xc
 1324 08a8 CD01     		.2byte	0x1cd
 1325 08aa 23       		.uleb128 0x23
 1326 08ab 47090000 		.4byte	0x947
 1327 08af 77000000 		.4byte	.LLST3
 1328 08b3 00       		.byte	0
 1329 08b4 00       		.byte	0
 1330 08b5 00       		.byte	0
 1331 08b6 00       		.byte	0
 1332 08b7 00       		.byte	0
 1333 08b8 28       		.uleb128 0x28
 1334 08b9 C3040000 		.4byte	.LASF144
 1335 08bd 01       		.byte	0x1
 1336 08be 4E       		.byte	0x4e
 1337 08bf 00000000 		.4byte	.LFB227
 1338 08c3 28000000 		.4byte	.LFE227-.LFB227
 1339 08c7 01       		.uleb128 0x1
 1340 08c8 9C       		.byte	0x9c
 1341 08c9 E4080000 		.4byte	0x8e4
 1342 08cd 11       		.uleb128 0x11
 1343 08ce 62060000 		.4byte	.LASF129
 1344 08d2 01       		.byte	0x1
 1345 08d3 50       		.byte	0x50
 1346 08d4 E4080000 		.4byte	0x8e4
 1347 08d8 11       		.uleb128 0x11
 1348 08d9 EA040000 		.4byte	.LASF130
 1349 08dd 01       		.byte	0x1
 1350 08de 51       		.byte	0x51
 1351 08df E4080000 		.4byte	0x8e4
 1352 08e3 00       		.byte	0
 1353 08e4 17       		.uleb128 0x17
 1354 08e5 B0000000 		.4byte	0xb0
 1355 08e9 EF080000 		.4byte	0x8ef
 1356 08ed 29       		.uleb128 0x29
 1357 08ee 00       		.byte	0
 1358 08ef 2A       		.uleb128 0x2a
 1359 08f0 C7060000 		.4byte	.LASF135
 1360 08f4 11       		.byte	0x11
 1361 08f5 6601     		.2byte	0x166
 1362 08f7 03       		.byte	0x3
 1363 08f8 0A090000 		.4byte	0x90a
 1364 08fc 2B       		.uleb128 0x2b
 1365 08fd 2B050000 		.4byte	.LASF131
 1366 0901 1A090000 		.4byte	0x91a
 1367 0905 C7060000 		.4byte	.LASF135
 1368 0909 00       		.byte	0
ARM GAS  /tmp/cc5nEZeK.s 			page 25


 1369 090a 17       		.uleb128 0x17
 1370 090b 2A060000 		.4byte	0x62a
 1371 090f 1A090000 		.4byte	0x91a
 1372 0913 18       		.uleb128 0x18
 1373 0914 65040000 		.4byte	0x465
 1374 0918 0B       		.byte	0xb
 1375 0919 00       		.byte	0
 1376 091a 16       		.uleb128 0x16
 1377 091b 0A090000 		.4byte	0x90a
 1378 091f 2C       		.uleb128 0x2c
 1379 0920 34050000 		.4byte	.LASF132
 1380 0924 11       		.byte	0x11
 1381 0925 5A01     		.2byte	0x15a
 1382 0927 03       		.byte	0x3
 1383 0928 2C       		.uleb128 0x2c
 1384 0929 67010000 		.4byte	.LASF133
 1385 092d 0C       		.byte	0xc
 1386 092e CA01     		.2byte	0x1ca
 1387 0930 03       		.byte	0x3
 1388 0931 2C       		.uleb128 0x2c
 1389 0932 5C000000 		.4byte	.LASF134
 1390 0936 0C       		.byte	0xc
 1391 0937 BC01     		.2byte	0x1bc
 1392 0939 03       		.byte	0x3
 1393 093a 2A       		.uleb128 0x2a
 1394 093b 2C060000 		.4byte	.LASF136
 1395 093f 02       		.byte	0x2
 1396 0940 2002     		.2byte	0x220
 1397 0942 03       		.byte	0x3
 1398 0943 54090000 		.4byte	0x954
 1399 0947 2D       		.uleb128 0x2d
 1400 0948 F9010000 		.4byte	.LASF138
 1401 094c 02       		.byte	0x2
 1402 094d 2002     		.2byte	0x220
 1403 094f D6000000 		.4byte	0xd6
 1404 0953 00       		.byte	0
 1405 0954 2E       		.uleb128 0x2e
 1406 0955 AA070000 		.4byte	0x7aa
 1407 0959 00000000 		.4byte	.LFB229
 1408 095d 2C000000 		.4byte	.LFE229-.LFB229
 1409 0961 01       		.uleb128 0x1
 1410 0962 9C       		.byte	0x9c
 1411 0963 23       		.uleb128 0x23
 1412 0964 BA070000 		.4byte	0x7ba
 1413 0968 8B000000 		.4byte	.LLST4
 1414 096c 25       		.uleb128 0x25
 1415 096d C5070000 		.4byte	0x7c5
 1416 0971 01       		.uleb128 0x1
 1417 0972 52       		.byte	0x52
 1418 0973 00       		.byte	0
 1419 0974 00       		.byte	0
 1420              		.section	.debug_abbrev,"",%progbits
 1421              	.Ldebug_abbrev0:
 1422 0000 01       		.uleb128 0x1
 1423 0001 11       		.uleb128 0x11
 1424 0002 01       		.byte	0x1
 1425 0003 25       		.uleb128 0x25
ARM GAS  /tmp/cc5nEZeK.s 			page 26


 1426 0004 0E       		.uleb128 0xe
 1427 0005 13       		.uleb128 0x13
 1428 0006 0B       		.uleb128 0xb
 1429 0007 03       		.uleb128 0x3
 1430 0008 0E       		.uleb128 0xe
 1431 0009 55       		.uleb128 0x55
 1432 000a 17       		.uleb128 0x17
 1433 000b 11       		.uleb128 0x11
 1434 000c 01       		.uleb128 0x1
 1435 000d 10       		.uleb128 0x10
 1436 000e 17       		.uleb128 0x17
 1437 000f 00       		.byte	0
 1438 0010 00       		.byte	0
 1439 0011 02       		.uleb128 0x2
 1440 0012 24       		.uleb128 0x24
 1441 0013 00       		.byte	0
 1442 0014 0B       		.uleb128 0xb
 1443 0015 0B       		.uleb128 0xb
 1444 0016 3E       		.uleb128 0x3e
 1445 0017 0B       		.uleb128 0xb
 1446 0018 03       		.uleb128 0x3
 1447 0019 08       		.uleb128 0x8
 1448 001a 00       		.byte	0
 1449 001b 00       		.byte	0
 1450 001c 03       		.uleb128 0x3
 1451 001d 16       		.uleb128 0x16
 1452 001e 00       		.byte	0
 1453 001f 03       		.uleb128 0x3
 1454 0020 0E       		.uleb128 0xe
 1455 0021 3A       		.uleb128 0x3a
 1456 0022 0B       		.uleb128 0xb
 1457 0023 3B       		.uleb128 0x3b
 1458 0024 0B       		.uleb128 0xb
 1459 0025 49       		.uleb128 0x49
 1460 0026 13       		.uleb128 0x13
 1461 0027 00       		.byte	0
 1462 0028 00       		.byte	0
 1463 0029 04       		.uleb128 0x4
 1464 002a 24       		.uleb128 0x24
 1465 002b 00       		.byte	0
 1466 002c 0B       		.uleb128 0xb
 1467 002d 0B       		.uleb128 0xb
 1468 002e 3E       		.uleb128 0x3e
 1469 002f 0B       		.uleb128 0xb
 1470 0030 03       		.uleb128 0x3
 1471 0031 0E       		.uleb128 0xe
 1472 0032 00       		.byte	0
 1473 0033 00       		.byte	0
 1474 0034 05       		.uleb128 0x5
 1475 0035 35       		.uleb128 0x35
 1476 0036 00       		.byte	0
 1477 0037 49       		.uleb128 0x49
 1478 0038 13       		.uleb128 0x13
 1479 0039 00       		.byte	0
 1480 003a 00       		.byte	0
 1481 003b 06       		.uleb128 0x6
 1482 003c 13       		.uleb128 0x13
ARM GAS  /tmp/cc5nEZeK.s 			page 27


 1483 003d 01       		.byte	0x1
 1484 003e 03       		.uleb128 0x3
 1485 003f 0E       		.uleb128 0xe
 1486 0040 0B       		.uleb128 0xb
 1487 0041 0B       		.uleb128 0xb
 1488 0042 3A       		.uleb128 0x3a
 1489 0043 0B       		.uleb128 0xb
 1490 0044 3B       		.uleb128 0x3b
 1491 0045 0B       		.uleb128 0xb
 1492 0046 01       		.uleb128 0x1
 1493 0047 13       		.uleb128 0x13
 1494 0048 00       		.byte	0
 1495 0049 00       		.byte	0
 1496 004a 07       		.uleb128 0x7
 1497 004b 0D       		.uleb128 0xd
 1498 004c 00       		.byte	0
 1499 004d 03       		.uleb128 0x3
 1500 004e 0E       		.uleb128 0xe
 1501 004f 3A       		.uleb128 0x3a
 1502 0050 0B       		.uleb128 0xb
 1503 0051 3B       		.uleb128 0x3b
 1504 0052 0B       		.uleb128 0xb
 1505 0053 49       		.uleb128 0x49
 1506 0054 13       		.uleb128 0x13
 1507 0055 38       		.uleb128 0x38
 1508 0056 0B       		.uleb128 0xb
 1509 0057 00       		.byte	0
 1510 0058 00       		.byte	0
 1511 0059 08       		.uleb128 0x8
 1512 005a 0D       		.uleb128 0xd
 1513 005b 00       		.byte	0
 1514 005c 03       		.uleb128 0x3
 1515 005d 08       		.uleb128 0x8
 1516 005e 3A       		.uleb128 0x3a
 1517 005f 0B       		.uleb128 0xb
 1518 0060 3B       		.uleb128 0x3b
 1519 0061 05       		.uleb128 0x5
 1520 0062 49       		.uleb128 0x49
 1521 0063 13       		.uleb128 0x13
 1522 0064 38       		.uleb128 0x38
 1523 0065 0B       		.uleb128 0xb
 1524 0066 00       		.byte	0
 1525 0067 00       		.byte	0
 1526 0068 09       		.uleb128 0x9
 1527 0069 0D       		.uleb128 0xd
 1528 006a 00       		.byte	0
 1529 006b 03       		.uleb128 0x3
 1530 006c 0E       		.uleb128 0xe
 1531 006d 3A       		.uleb128 0x3a
 1532 006e 0B       		.uleb128 0xb
 1533 006f 3B       		.uleb128 0x3b
 1534 0070 05       		.uleb128 0x5
 1535 0071 49       		.uleb128 0x49
 1536 0072 13       		.uleb128 0x13
 1537 0073 38       		.uleb128 0x38
 1538 0074 0B       		.uleb128 0xb
 1539 0075 00       		.byte	0
ARM GAS  /tmp/cc5nEZeK.s 			page 28


 1540 0076 00       		.byte	0
 1541 0077 0A       		.uleb128 0xa
 1542 0078 0F       		.uleb128 0xf
 1543 0079 00       		.byte	0
 1544 007a 0B       		.uleb128 0xb
 1545 007b 0B       		.uleb128 0xb
 1546 007c 49       		.uleb128 0x49
 1547 007d 13       		.uleb128 0x13
 1548 007e 00       		.byte	0
 1549 007f 00       		.byte	0
 1550 0080 0B       		.uleb128 0xb
 1551 0081 13       		.uleb128 0x13
 1552 0082 01       		.byte	0x1
 1553 0083 03       		.uleb128 0x3
 1554 0084 0E       		.uleb128 0xe
 1555 0085 0B       		.uleb128 0xb
 1556 0086 0B       		.uleb128 0xb
 1557 0087 3A       		.uleb128 0x3a
 1558 0088 0B       		.uleb128 0xb
 1559 0089 3B       		.uleb128 0x3b
 1560 008a 05       		.uleb128 0x5
 1561 008b 01       		.uleb128 0x1
 1562 008c 13       		.uleb128 0x13
 1563 008d 00       		.byte	0
 1564 008e 00       		.byte	0
 1565 008f 0C       		.uleb128 0xc
 1566 0090 15       		.uleb128 0x15
 1567 0091 01       		.byte	0x1
 1568 0092 27       		.uleb128 0x27
 1569 0093 19       		.uleb128 0x19
 1570 0094 01       		.uleb128 0x1
 1571 0095 13       		.uleb128 0x13
 1572 0096 00       		.byte	0
 1573 0097 00       		.byte	0
 1574 0098 0D       		.uleb128 0xd
 1575 0099 05       		.uleb128 0x5
 1576 009a 00       		.byte	0
 1577 009b 49       		.uleb128 0x49
 1578 009c 13       		.uleb128 0x13
 1579 009d 00       		.byte	0
 1580 009e 00       		.byte	0
 1581 009f 0E       		.uleb128 0xe
 1582 00a0 0F       		.uleb128 0xf
 1583 00a1 00       		.byte	0
 1584 00a2 0B       		.uleb128 0xb
 1585 00a3 0B       		.uleb128 0xb
 1586 00a4 00       		.byte	0
 1587 00a5 00       		.byte	0
 1588 00a6 0F       		.uleb128 0xf
 1589 00a7 13       		.uleb128 0x13
 1590 00a8 01       		.byte	0x1
 1591 00a9 03       		.uleb128 0x3
 1592 00aa 0E       		.uleb128 0xe
 1593 00ab 0B       		.uleb128 0xb
 1594 00ac 05       		.uleb128 0x5
 1595 00ad 3A       		.uleb128 0x3a
 1596 00ae 0B       		.uleb128 0xb
ARM GAS  /tmp/cc5nEZeK.s 			page 29


 1597 00af 3B       		.uleb128 0x3b
 1598 00b0 05       		.uleb128 0x5
 1599 00b1 01       		.uleb128 0x1
 1600 00b2 13       		.uleb128 0x13
 1601 00b3 00       		.byte	0
 1602 00b4 00       		.byte	0
 1603 00b5 10       		.uleb128 0x10
 1604 00b6 34       		.uleb128 0x34
 1605 00b7 00       		.byte	0
 1606 00b8 03       		.uleb128 0x3
 1607 00b9 0E       		.uleb128 0xe
 1608 00ba 3A       		.uleb128 0x3a
 1609 00bb 0B       		.uleb128 0xb
 1610 00bc 3B       		.uleb128 0x3b
 1611 00bd 05       		.uleb128 0x5
 1612 00be 49       		.uleb128 0x49
 1613 00bf 13       		.uleb128 0x13
 1614 00c0 3F       		.uleb128 0x3f
 1615 00c1 19       		.uleb128 0x19
 1616 00c2 3C       		.uleb128 0x3c
 1617 00c3 19       		.uleb128 0x19
 1618 00c4 00       		.byte	0
 1619 00c5 00       		.byte	0
 1620 00c6 11       		.uleb128 0x11
 1621 00c7 34       		.uleb128 0x34
 1622 00c8 00       		.byte	0
 1623 00c9 03       		.uleb128 0x3
 1624 00ca 0E       		.uleb128 0xe
 1625 00cb 3A       		.uleb128 0x3a
 1626 00cc 0B       		.uleb128 0xb
 1627 00cd 3B       		.uleb128 0x3b
 1628 00ce 0B       		.uleb128 0xb
 1629 00cf 49       		.uleb128 0x49
 1630 00d0 13       		.uleb128 0x13
 1631 00d1 3F       		.uleb128 0x3f
 1632 00d2 19       		.uleb128 0x19
 1633 00d3 3C       		.uleb128 0x3c
 1634 00d4 19       		.uleb128 0x19
 1635 00d5 00       		.byte	0
 1636 00d6 00       		.byte	0
 1637 00d7 12       		.uleb128 0x12
 1638 00d8 0D       		.uleb128 0xd
 1639 00d9 00       		.byte	0
 1640 00da 03       		.uleb128 0x3
 1641 00db 08       		.uleb128 0x8
 1642 00dc 3A       		.uleb128 0x3a
 1643 00dd 0B       		.uleb128 0xb
 1644 00de 3B       		.uleb128 0x3b
 1645 00df 0B       		.uleb128 0xb
 1646 00e0 49       		.uleb128 0x49
 1647 00e1 13       		.uleb128 0x13
 1648 00e2 38       		.uleb128 0x38
 1649 00e3 0B       		.uleb128 0xb
 1650 00e4 00       		.byte	0
 1651 00e5 00       		.byte	0
 1652 00e6 13       		.uleb128 0x13
 1653 00e7 13       		.uleb128 0x13
ARM GAS  /tmp/cc5nEZeK.s 			page 30


 1654 00e8 01       		.byte	0x1
 1655 00e9 0B       		.uleb128 0xb
 1656 00ea 0B       		.uleb128 0xb
 1657 00eb 3A       		.uleb128 0x3a
 1658 00ec 0B       		.uleb128 0xb
 1659 00ed 3B       		.uleb128 0x3b
 1660 00ee 0B       		.uleb128 0xb
 1661 00ef 01       		.uleb128 0x1
 1662 00f0 13       		.uleb128 0x13
 1663 00f1 00       		.byte	0
 1664 00f2 00       		.byte	0
 1665 00f3 14       		.uleb128 0x14
 1666 00f4 17       		.uleb128 0x17
 1667 00f5 01       		.byte	0x1
 1668 00f6 0B       		.uleb128 0xb
 1669 00f7 0B       		.uleb128 0xb
 1670 00f8 3A       		.uleb128 0x3a
 1671 00f9 0B       		.uleb128 0xb
 1672 00fa 3B       		.uleb128 0x3b
 1673 00fb 0B       		.uleb128 0xb
 1674 00fc 01       		.uleb128 0x1
 1675 00fd 13       		.uleb128 0x13
 1676 00fe 00       		.byte	0
 1677 00ff 00       		.byte	0
 1678 0100 15       		.uleb128 0x15
 1679 0101 0D       		.uleb128 0xd
 1680 0102 00       		.byte	0
 1681 0103 03       		.uleb128 0x3
 1682 0104 0E       		.uleb128 0xe
 1683 0105 3A       		.uleb128 0x3a
 1684 0106 0B       		.uleb128 0xb
 1685 0107 3B       		.uleb128 0x3b
 1686 0108 05       		.uleb128 0x5
 1687 0109 49       		.uleb128 0x49
 1688 010a 13       		.uleb128 0x13
 1689 010b 00       		.byte	0
 1690 010c 00       		.byte	0
 1691 010d 16       		.uleb128 0x16
 1692 010e 26       		.uleb128 0x26
 1693 010f 00       		.byte	0
 1694 0110 49       		.uleb128 0x49
 1695 0111 13       		.uleb128 0x13
 1696 0112 00       		.byte	0
 1697 0113 00       		.byte	0
 1698 0114 17       		.uleb128 0x17
 1699 0115 01       		.uleb128 0x1
 1700 0116 01       		.byte	0x1
 1701 0117 49       		.uleb128 0x49
 1702 0118 13       		.uleb128 0x13
 1703 0119 01       		.uleb128 0x1
 1704 011a 13       		.uleb128 0x13
 1705 011b 00       		.byte	0
 1706 011c 00       		.byte	0
 1707 011d 18       		.uleb128 0x18
 1708 011e 21       		.uleb128 0x21
 1709 011f 00       		.byte	0
 1710 0120 49       		.uleb128 0x49
ARM GAS  /tmp/cc5nEZeK.s 			page 31


 1711 0121 13       		.uleb128 0x13
 1712 0122 2F       		.uleb128 0x2f
 1713 0123 0B       		.uleb128 0xb
 1714 0124 00       		.byte	0
 1715 0125 00       		.byte	0
 1716 0126 19       		.uleb128 0x19
 1717 0127 34       		.uleb128 0x34
 1718 0128 00       		.byte	0
 1719 0129 03       		.uleb128 0x3
 1720 012a 08       		.uleb128 0x8
 1721 012b 3A       		.uleb128 0x3a
 1722 012c 0B       		.uleb128 0xb
 1723 012d 3B       		.uleb128 0x3b
 1724 012e 05       		.uleb128 0x5
 1725 012f 49       		.uleb128 0x49
 1726 0130 13       		.uleb128 0x13
 1727 0131 3F       		.uleb128 0x3f
 1728 0132 19       		.uleb128 0x19
 1729 0133 3C       		.uleb128 0x3c
 1730 0134 19       		.uleb128 0x19
 1731 0135 00       		.byte	0
 1732 0136 00       		.byte	0
 1733 0137 1A       		.uleb128 0x1a
 1734 0138 34       		.uleb128 0x34
 1735 0139 00       		.byte	0
 1736 013a 03       		.uleb128 0x3
 1737 013b 0E       		.uleb128 0xe
 1738 013c 3A       		.uleb128 0x3a
 1739 013d 0B       		.uleb128 0xb
 1740 013e 3B       		.uleb128 0x3b
 1741 013f 0B       		.uleb128 0xb
 1742 0140 49       		.uleb128 0x49
 1743 0141 13       		.uleb128 0x13
 1744 0142 02       		.uleb128 0x2
 1745 0143 18       		.uleb128 0x18
 1746 0144 00       		.byte	0
 1747 0145 00       		.byte	0
 1748 0146 1B       		.uleb128 0x1b
 1749 0147 2E       		.uleb128 0x2e
 1750 0148 00       		.byte	0
 1751 0149 3F       		.uleb128 0x3f
 1752 014a 19       		.uleb128 0x19
 1753 014b 03       		.uleb128 0x3
 1754 014c 0E       		.uleb128 0xe
 1755 014d 3A       		.uleb128 0x3a
 1756 014e 0B       		.uleb128 0xb
 1757 014f 3B       		.uleb128 0x3b
 1758 0150 0B       		.uleb128 0xb
 1759 0151 27       		.uleb128 0x27
 1760 0152 19       		.uleb128 0x19
 1761 0153 49       		.uleb128 0x49
 1762 0154 13       		.uleb128 0x13
 1763 0155 11       		.uleb128 0x11
 1764 0156 01       		.uleb128 0x1
 1765 0157 12       		.uleb128 0x12
 1766 0158 06       		.uleb128 0x6
 1767 0159 40       		.uleb128 0x40
ARM GAS  /tmp/cc5nEZeK.s 			page 32


 1768 015a 18       		.uleb128 0x18
 1769 015b 9742     		.uleb128 0x2117
 1770 015d 19       		.uleb128 0x19
 1771 015e 00       		.byte	0
 1772 015f 00       		.byte	0
 1773 0160 1C       		.uleb128 0x1c
 1774 0161 2E       		.uleb128 0x2e
 1775 0162 01       		.byte	0x1
 1776 0163 3F       		.uleb128 0x3f
 1777 0164 19       		.uleb128 0x19
 1778 0165 03       		.uleb128 0x3
 1779 0166 0E       		.uleb128 0xe
 1780 0167 3A       		.uleb128 0x3a
 1781 0168 0B       		.uleb128 0xb
 1782 0169 3B       		.uleb128 0x3b
 1783 016a 0B       		.uleb128 0xb
 1784 016b 27       		.uleb128 0x27
 1785 016c 19       		.uleb128 0x19
 1786 016d 49       		.uleb128 0x49
 1787 016e 13       		.uleb128 0x13
 1788 016f 20       		.uleb128 0x20
 1789 0170 0B       		.uleb128 0xb
 1790 0171 01       		.uleb128 0x1
 1791 0172 13       		.uleb128 0x13
 1792 0173 00       		.byte	0
 1793 0174 00       		.byte	0
 1794 0175 1D       		.uleb128 0x1d
 1795 0176 05       		.uleb128 0x5
 1796 0177 00       		.byte	0
 1797 0178 03       		.uleb128 0x3
 1798 0179 0E       		.uleb128 0xe
 1799 017a 3A       		.uleb128 0x3a
 1800 017b 0B       		.uleb128 0xb
 1801 017c 3B       		.uleb128 0x3b
 1802 017d 0B       		.uleb128 0xb
 1803 017e 49       		.uleb128 0x49
 1804 017f 13       		.uleb128 0x13
 1805 0180 00       		.byte	0
 1806 0181 00       		.byte	0
 1807 0182 1E       		.uleb128 0x1e
 1808 0183 34       		.uleb128 0x34
 1809 0184 00       		.byte	0
 1810 0185 03       		.uleb128 0x3
 1811 0186 08       		.uleb128 0x8
 1812 0187 3A       		.uleb128 0x3a
 1813 0188 0B       		.uleb128 0xb
 1814 0189 3B       		.uleb128 0x3b
 1815 018a 0B       		.uleb128 0xb
 1816 018b 49       		.uleb128 0x49
 1817 018c 13       		.uleb128 0x13
 1818 018d 00       		.byte	0
 1819 018e 00       		.byte	0
 1820 018f 1F       		.uleb128 0x1f
 1821 0190 2E       		.uleb128 0x2e
 1822 0191 01       		.byte	0x1
 1823 0192 3F       		.uleb128 0x3f
 1824 0193 19       		.uleb128 0x19
ARM GAS  /tmp/cc5nEZeK.s 			page 33


 1825 0194 03       		.uleb128 0x3
 1826 0195 0E       		.uleb128 0xe
 1827 0196 3A       		.uleb128 0x3a
 1828 0197 0B       		.uleb128 0xb
 1829 0198 3B       		.uleb128 0x3b
 1830 0199 0B       		.uleb128 0xb
 1831 019a 27       		.uleb128 0x27
 1832 019b 19       		.uleb128 0x19
 1833 019c 49       		.uleb128 0x49
 1834 019d 13       		.uleb128 0x13
 1835 019e 11       		.uleb128 0x11
 1836 019f 01       		.uleb128 0x1
 1837 01a0 12       		.uleb128 0x12
 1838 01a1 06       		.uleb128 0x6
 1839 01a2 40       		.uleb128 0x40
 1840 01a3 18       		.uleb128 0x18
 1841 01a4 9742     		.uleb128 0x2117
 1842 01a6 19       		.uleb128 0x19
 1843 01a7 01       		.uleb128 0x1
 1844 01a8 13       		.uleb128 0x13
 1845 01a9 00       		.byte	0
 1846 01aa 00       		.byte	0
 1847 01ab 20       		.uleb128 0x20
 1848 01ac 05       		.uleb128 0x5
 1849 01ad 00       		.byte	0
 1850 01ae 03       		.uleb128 0x3
 1851 01af 0E       		.uleb128 0xe
 1852 01b0 3A       		.uleb128 0x3a
 1853 01b1 0B       		.uleb128 0xb
 1854 01b2 3B       		.uleb128 0x3b
 1855 01b3 0B       		.uleb128 0xb
 1856 01b4 49       		.uleb128 0x49
 1857 01b5 13       		.uleb128 0x13
 1858 01b6 02       		.uleb128 0x2
 1859 01b7 17       		.uleb128 0x17
 1860 01b8 00       		.byte	0
 1861 01b9 00       		.byte	0
 1862 01ba 21       		.uleb128 0x21
 1863 01bb 1D       		.uleb128 0x1d
 1864 01bc 01       		.byte	0x1
 1865 01bd 31       		.uleb128 0x31
 1866 01be 13       		.uleb128 0x13
 1867 01bf 11       		.uleb128 0x11
 1868 01c0 01       		.uleb128 0x1
 1869 01c1 12       		.uleb128 0x12
 1870 01c2 06       		.uleb128 0x6
 1871 01c3 58       		.uleb128 0x58
 1872 01c4 0B       		.uleb128 0xb
 1873 01c5 59       		.uleb128 0x59
 1874 01c6 0B       		.uleb128 0xb
 1875 01c7 01       		.uleb128 0x1
 1876 01c8 13       		.uleb128 0x13
 1877 01c9 00       		.byte	0
 1878 01ca 00       		.byte	0
 1879 01cb 22       		.uleb128 0x22
 1880 01cc 1D       		.uleb128 0x1d
 1881 01cd 01       		.byte	0x1
ARM GAS  /tmp/cc5nEZeK.s 			page 34


 1882 01ce 31       		.uleb128 0x31
 1883 01cf 13       		.uleb128 0x13
 1884 01d0 11       		.uleb128 0x11
 1885 01d1 01       		.uleb128 0x1
 1886 01d2 12       		.uleb128 0x12
 1887 01d3 06       		.uleb128 0x6
 1888 01d4 58       		.uleb128 0x58
 1889 01d5 0B       		.uleb128 0xb
 1890 01d6 59       		.uleb128 0x59
 1891 01d7 05       		.uleb128 0x5
 1892 01d8 00       		.byte	0
 1893 01d9 00       		.byte	0
 1894 01da 23       		.uleb128 0x23
 1895 01db 05       		.uleb128 0x5
 1896 01dc 00       		.byte	0
 1897 01dd 31       		.uleb128 0x31
 1898 01de 13       		.uleb128 0x13
 1899 01df 02       		.uleb128 0x2
 1900 01e0 17       		.uleb128 0x17
 1901 01e1 00       		.byte	0
 1902 01e2 00       		.byte	0
 1903 01e3 24       		.uleb128 0x24
 1904 01e4 0B       		.uleb128 0xb
 1905 01e5 01       		.byte	0x1
 1906 01e6 11       		.uleb128 0x11
 1907 01e7 01       		.uleb128 0x1
 1908 01e8 12       		.uleb128 0x12
 1909 01e9 06       		.uleb128 0x6
 1910 01ea 00       		.byte	0
 1911 01eb 00       		.byte	0
 1912 01ec 25       		.uleb128 0x25
 1913 01ed 34       		.uleb128 0x34
 1914 01ee 00       		.byte	0
 1915 01ef 31       		.uleb128 0x31
 1916 01f0 13       		.uleb128 0x13
 1917 01f1 02       		.uleb128 0x2
 1918 01f2 18       		.uleb128 0x18
 1919 01f3 00       		.byte	0
 1920 01f4 00       		.byte	0
 1921 01f5 26       		.uleb128 0x26
 1922 01f6 1D       		.uleb128 0x1d
 1923 01f7 01       		.byte	0x1
 1924 01f8 31       		.uleb128 0x31
 1925 01f9 13       		.uleb128 0x13
 1926 01fa 11       		.uleb128 0x11
 1927 01fb 01       		.uleb128 0x1
 1928 01fc 12       		.uleb128 0x12
 1929 01fd 06       		.uleb128 0x6
 1930 01fe 58       		.uleb128 0x58
 1931 01ff 0B       		.uleb128 0xb
 1932 0200 59       		.uleb128 0x59
 1933 0201 0B       		.uleb128 0xb
 1934 0202 00       		.byte	0
 1935 0203 00       		.byte	0
 1936 0204 27       		.uleb128 0x27
 1937 0205 34       		.uleb128 0x34
 1938 0206 00       		.byte	0
ARM GAS  /tmp/cc5nEZeK.s 			page 35


 1939 0207 31       		.uleb128 0x31
 1940 0208 13       		.uleb128 0x13
 1941 0209 00       		.byte	0
 1942 020a 00       		.byte	0
 1943 020b 28       		.uleb128 0x28
 1944 020c 2E       		.uleb128 0x2e
 1945 020d 01       		.byte	0x1
 1946 020e 3F       		.uleb128 0x3f
 1947 020f 19       		.uleb128 0x19
 1948 0210 03       		.uleb128 0x3
 1949 0211 0E       		.uleb128 0xe
 1950 0212 3A       		.uleb128 0x3a
 1951 0213 0B       		.uleb128 0xb
 1952 0214 3B       		.uleb128 0x3b
 1953 0215 0B       		.uleb128 0xb
 1954 0216 27       		.uleb128 0x27
 1955 0217 19       		.uleb128 0x19
 1956 0218 11       		.uleb128 0x11
 1957 0219 01       		.uleb128 0x1
 1958 021a 12       		.uleb128 0x12
 1959 021b 06       		.uleb128 0x6
 1960 021c 40       		.uleb128 0x40
 1961 021d 18       		.uleb128 0x18
 1962 021e 9742     		.uleb128 0x2117
 1963 0220 19       		.uleb128 0x19
 1964 0221 01       		.uleb128 0x1
 1965 0222 13       		.uleb128 0x13
 1966 0223 00       		.byte	0
 1967 0224 00       		.byte	0
 1968 0225 29       		.uleb128 0x29
 1969 0226 21       		.uleb128 0x21
 1970 0227 00       		.byte	0
 1971 0228 00       		.byte	0
 1972 0229 00       		.byte	0
 1973 022a 2A       		.uleb128 0x2a
 1974 022b 2E       		.uleb128 0x2e
 1975 022c 01       		.byte	0x1
 1976 022d 03       		.uleb128 0x3
 1977 022e 0E       		.uleb128 0xe
 1978 022f 3A       		.uleb128 0x3a
 1979 0230 0B       		.uleb128 0xb
 1980 0231 3B       		.uleb128 0x3b
 1981 0232 05       		.uleb128 0x5
 1982 0233 27       		.uleb128 0x27
 1983 0234 19       		.uleb128 0x19
 1984 0235 20       		.uleb128 0x20
 1985 0236 0B       		.uleb128 0xb
 1986 0237 01       		.uleb128 0x1
 1987 0238 13       		.uleb128 0x13
 1988 0239 00       		.byte	0
 1989 023a 00       		.byte	0
 1990 023b 2B       		.uleb128 0x2b
 1991 023c 34       		.uleb128 0x34
 1992 023d 00       		.byte	0
 1993 023e 03       		.uleb128 0x3
 1994 023f 0E       		.uleb128 0xe
 1995 0240 49       		.uleb128 0x49
ARM GAS  /tmp/cc5nEZeK.s 			page 36


 1996 0241 13       		.uleb128 0x13
 1997 0242 34       		.uleb128 0x34
 1998 0243 19       		.uleb128 0x19
 1999 0244 1C       		.uleb128 0x1c
 2000 0245 0E       		.uleb128 0xe
 2001 0246 00       		.byte	0
 2002 0247 00       		.byte	0
 2003 0248 2C       		.uleb128 0x2c
 2004 0249 2E       		.uleb128 0x2e
 2005 024a 00       		.byte	0
 2006 024b 03       		.uleb128 0x3
 2007 024c 0E       		.uleb128 0xe
 2008 024d 3A       		.uleb128 0x3a
 2009 024e 0B       		.uleb128 0xb
 2010 024f 3B       		.uleb128 0x3b
 2011 0250 05       		.uleb128 0x5
 2012 0251 27       		.uleb128 0x27
 2013 0252 19       		.uleb128 0x19
 2014 0253 20       		.uleb128 0x20
 2015 0254 0B       		.uleb128 0xb
 2016 0255 00       		.byte	0
 2017 0256 00       		.byte	0
 2018 0257 2D       		.uleb128 0x2d
 2019 0258 05       		.uleb128 0x5
 2020 0259 00       		.byte	0
 2021 025a 03       		.uleb128 0x3
 2022 025b 0E       		.uleb128 0xe
 2023 025c 3A       		.uleb128 0x3a
 2024 025d 0B       		.uleb128 0xb
 2025 025e 3B       		.uleb128 0x3b
 2026 025f 05       		.uleb128 0x5
 2027 0260 49       		.uleb128 0x49
 2028 0261 13       		.uleb128 0x13
 2029 0262 00       		.byte	0
 2030 0263 00       		.byte	0
 2031 0264 2E       		.uleb128 0x2e
 2032 0265 2E       		.uleb128 0x2e
 2033 0266 01       		.byte	0x1
 2034 0267 31       		.uleb128 0x31
 2035 0268 13       		.uleb128 0x13
 2036 0269 11       		.uleb128 0x11
 2037 026a 01       		.uleb128 0x1
 2038 026b 12       		.uleb128 0x12
 2039 026c 06       		.uleb128 0x6
 2040 026d 40       		.uleb128 0x40
 2041 026e 18       		.uleb128 0x18
 2042 026f 9742     		.uleb128 0x2117
 2043 0271 19       		.uleb128 0x19
 2044 0272 00       		.byte	0
 2045 0273 00       		.byte	0
 2046 0274 00       		.byte	0
 2047              		.section	.debug_loc,"",%progbits
 2048              	.Ldebug_loc0:
 2049              	.LLST0:
 2050 0000 00000000 		.4byte	.LVL0
 2051 0004 22000000 		.4byte	.LVL5
 2052 0008 0100     		.2byte	0x1
ARM GAS  /tmp/cc5nEZeK.s 			page 37


 2053 000a 50       		.byte	0x50
 2054 000b 22000000 		.4byte	.LVL5
 2055 000f 38000000 		.4byte	.LFE228
 2056 0013 0400     		.2byte	0x4
 2057 0015 F3       		.byte	0xf3
 2058 0016 01       		.uleb128 0x1
 2059 0017 50       		.byte	0x50
 2060 0018 9F       		.byte	0x9f
 2061 0019 00000000 		.4byte	0
 2062 001d 00000000 		.4byte	0
 2063              	.LLST1:
 2064 0021 00000000 		.4byte	.LVL0
 2065 0025 08000000 		.4byte	.LVL1
 2066 0029 0300     		.2byte	0x3
 2067 002b 08       		.byte	0x8
 2068 002c 20       		.byte	0x20
 2069 002d 9F       		.byte	0x9f
 2070 002e 00000000 		.4byte	0
 2071 0032 00000000 		.4byte	0
 2072              	.LLST2:
 2073 0036 08000000 		.4byte	.LVL1
 2074 003a 16000000 		.4byte	.LVL2
 2075 003e 0100     		.2byte	0x1
 2076 0040 50       		.byte	0x50
 2077 0041 16000000 		.4byte	.LVL2
 2078 0045 1E000000 		.4byte	.LVL4
 2079 0049 0100     		.2byte	0x1
 2080 004b 53       		.byte	0x53
 2081 004c 1E000000 		.4byte	.LVL4
 2082 0050 22000000 		.4byte	.LVL5
 2083 0054 0600     		.2byte	0x6
 2084 0056 70       		.byte	0x70
 2085 0057 07       		.sleb128 7
 2086 0058 09       		.byte	0x9
 2087 0059 F8       		.byte	0xf8
 2088 005a 1A       		.byte	0x1a
 2089 005b 9F       		.byte	0x9f
 2090 005c 22000000 		.4byte	.LVL5
 2091 0060 24000000 		.4byte	.LVL6
 2092 0064 0900     		.2byte	0x9
 2093 0066 F3       		.byte	0xf3
 2094 0067 01       		.uleb128 0x1
 2095 0068 50       		.byte	0x50
 2096 0069 23       		.byte	0x23
 2097 006a 07       		.uleb128 0x7
 2098 006b 09       		.byte	0x9
 2099 006c F8       		.byte	0xf8
 2100 006d 1A       		.byte	0x1a
 2101 006e 9F       		.byte	0x9f
 2102 006f 00000000 		.4byte	0
 2103 0073 00000000 		.4byte	0
 2104              	.LLST3:
 2105 0077 24000000 		.4byte	.LVL6
 2106 007b 2A000000 		.4byte	.LVL7
 2107 007f 0200     		.2byte	0x2
 2108 0081 30       		.byte	0x30
 2109 0082 9F       		.byte	0x9f
ARM GAS  /tmp/cc5nEZeK.s 			page 38


 2110 0083 00000000 		.4byte	0
 2111 0087 00000000 		.4byte	0
 2112              	.LLST4:
 2113 008b 00000000 		.4byte	.LVL8
 2114 008f 10000000 		.4byte	.LVL9
 2115 0093 0100     		.2byte	0x1
 2116 0095 50       		.byte	0x50
 2117 0096 10000000 		.4byte	.LVL9
 2118 009a 18000000 		.4byte	.LVL11
 2119 009e 0100     		.2byte	0x1
 2120 00a0 53       		.byte	0x53
 2121 00a1 18000000 		.4byte	.LVL11
 2122 00a5 1C000000 		.4byte	.LVL12
 2123 00a9 0600     		.2byte	0x6
 2124 00ab 70       		.byte	0x70
 2125 00ac 07       		.sleb128 7
 2126 00ad 09       		.byte	0x9
 2127 00ae F8       		.byte	0xf8
 2128 00af 1A       		.byte	0x1a
 2129 00b0 9F       		.byte	0x9f
 2130 00b1 1C000000 		.4byte	.LVL12
 2131 00b5 2C000000 		.4byte	.LFE229
 2132 00b9 0900     		.2byte	0x9
 2133 00bb F3       		.byte	0xf3
 2134 00bc 01       		.uleb128 0x1
 2135 00bd 50       		.byte	0x50
 2136 00be 23       		.byte	0x23
 2137 00bf 07       		.uleb128 0x7
 2138 00c0 09       		.byte	0x9
 2139 00c1 F8       		.byte	0xf8
 2140 00c2 1A       		.byte	0x1a
 2141 00c3 9F       		.byte	0x9f
 2142 00c4 00000000 		.4byte	0
 2143 00c8 00000000 		.4byte	0
 2144              		.section	.debug_aranges,"",%progbits
 2145 0000 34000000 		.4byte	0x34
 2146 0004 0200     		.2byte	0x2
 2147 0006 00000000 		.4byte	.Ldebug_info0
 2148 000a 04       		.byte	0x4
 2149 000b 00       		.byte	0
 2150 000c 0000     		.2byte	0
 2151 000e 0000     		.2byte	0
 2152 0010 00000000 		.4byte	.LFB227
 2153 0014 28000000 		.4byte	.LFE227-.LFB227
 2154 0018 00000000 		.4byte	.LFB228
 2155 001c 38000000 		.4byte	.LFE228-.LFB228
 2156 0020 00000000 		.4byte	.LFB229
 2157 0024 2C000000 		.4byte	.LFE229-.LFB229
 2158 0028 00000000 		.4byte	.LFB230
 2159 002c 14000000 		.4byte	.LFE230-.LFB230
 2160 0030 00000000 		.4byte	0
 2161 0034 00000000 		.4byte	0
 2162              		.section	.debug_ranges,"",%progbits
 2163              	.Ldebug_ranges0:
 2164 0000 00000000 		.4byte	.LFB227
 2165 0004 28000000 		.4byte	.LFE227
 2166 0008 00000000 		.4byte	.LFB228
ARM GAS  /tmp/cc5nEZeK.s 			page 39


 2167 000c 38000000 		.4byte	.LFE228
 2168 0010 00000000 		.4byte	.LFB229
 2169 0014 2C000000 		.4byte	.LFE229
 2170 0018 00000000 		.4byte	.LFB230
 2171 001c 14000000 		.4byte	.LFE230
 2172 0020 00000000 		.4byte	0
 2173 0024 00000000 		.4byte	0
 2174              		.section	.debug_line,"",%progbits
 2175              	.Ldebug_line0:
 2176 0000 FC020000 		.section	.debug_str,"MS",%progbits,1
 2176      02008802 
 2176      00000201 
 2176      FB0E0D00 
 2176      01010101 
 2177              	.LASF128:
 2178 0000 656E646D 		.ascii	"endmem\000"
 2178      656D00
 2179              	.LASF54:
 2180 0007 72656164 		.ascii	"ready_list_t\000"
 2180      795F6C69 
 2180      73745F74 
 2180      00
 2181              	.LASF4:
 2182 0014 73697A65 		.ascii	"size_t\000"
 2182      5F7400
 2183              	.LASF91:
 2184 001b 7264796D 		.ascii	"rdymsg\000"
 2184      736700
 2185              	.LASF20:
 2186 0022 75696E74 		.ascii	"uint64_t\000"
 2186      36345F74 
 2186      00
 2187              	.LASF143:
 2188 002b 6368436F 		.ascii	"chCoreAlloc\000"
 2188      7265416C 
 2188      6C6F6300 
 2189              	.LASF5:
 2190 0037 5F5F7569 		.ascii	"__uint8_t\000"
 2190      6E74385F 
 2190      7400
 2191              	.LASF88:
 2192 0041 706F7274 		.ascii	"port_intctx\000"
 2192      5F696E74 
 2192      63747800 
 2193              	.LASF73:
 2194 004d 73797374 		.ascii	"system_debug_t\000"
 2194      656D5F64 
 2194      65627567 
 2194      5F7400
 2195              	.LASF134:
 2196 005c 706F7274 		.ascii	"port_lock\000"
 2196      5F6C6F63 
 2196      6B00
 2197              	.LASF15:
 2198 0066 6C6F6E67 		.ascii	"long long unsigned int\000"
 2198      206C6F6E 
 2198      6720756E 
ARM GAS  /tmp/cc5nEZeK.s 			page 40


 2198      7369676E 
 2198      65642069 
 2199              	.LASF112:
 2200 007d 63685F74 		.ascii	"ch_threadsize\000"
 2200      68726561 
 2200      6473697A 
 2200      6500
 2201              	.LASF92:
 2202 008b 65786974 		.ascii	"exitcode\000"
 2202      636F6465 
 2202      00
 2203              	.LASF80:
 2204 0094 6D61696E 		.ascii	"mainthread\000"
 2204      74687265 
 2204      616400
 2205              	.LASF70:
 2206 009f 76697274 		.ascii	"virtual_timers_list_t\000"
 2206      75616C5F 
 2206      74696D65 
 2206      72735F6C 
 2206      6973745F 
 2207              	.LASF83:
 2208 00b5 49544D5F 		.ascii	"ITM_RxBuffer\000"
 2208      52784275 
 2208      66666572 
 2208      00
 2209              	.LASF140:
 2210 00c2 2F686F6D 		.ascii	"/home/selim/working/ChibiOS/os/rt/src/chmemcore.c\000"
 2210      652F7365 
 2210      6C696D2F 
 2210      776F726B 
 2210      696E672F 
 2211              	.LASF53:
 2212 00f4 63685F74 		.ascii	"ch_threads_queue\000"
 2212      68726561 
 2212      64735F71 
 2212      75657565 
 2212      00
 2213              	.LASF33:
 2214 0105 705F7072 		.ascii	"p_prio\000"
 2214      696F00
 2215              	.LASF119:
 2216 010c 63665F6F 		.ascii	"cf_off_state\000"
 2216      66665F73 
 2216      74617465 
 2216      00
 2217              	.LASF1:
 2218 0119 6C6F6E67 		.ascii	"long long int\000"
 2218      206C6F6E 
 2218      6720696E 
 2218      7400
 2219              	.LASF3:
 2220 0127 7369676E 		.ascii	"signed char\000"
 2220      65642063 
 2220      68617200 
 2221              	.LASF118:
 2222 0133 63665F6F 		.ascii	"cf_off_stklimit\000"
ARM GAS  /tmp/cc5nEZeK.s 			page 41


 2222      66665F73 
 2222      746B6C69 
 2222      6D697400 
 2223              	.LASF120:
 2224 0143 63665F6F 		.ascii	"cf_off_flags\000"
 2224      66665F66 
 2224      6C616773 
 2224      00
 2225              	.LASF47:
 2226 0150 705F6D70 		.ascii	"p_mpool\000"
 2226      6F6F6C00 
 2227              	.LASF102:
 2228 0158 6D5F7175 		.ascii	"m_queue\000"
 2228      65756500 
 2229              	.LASF79:
 2230 0160 76746C69 		.ascii	"vtlist\000"
 2230      737400
 2231              	.LASF133:
 2232 0167 706F7274 		.ascii	"port_unlock\000"
 2232      5F756E6C 
 2232      6F636B00 
 2233              	.LASF141:
 2234 0173 6368436F 		.ascii	"chCoreGetStatusX\000"
 2234      72654765 
 2234      74537461 
 2234      74757358 
 2234      00
 2235              	.LASF94:
 2236 0184 77747472 		.ascii	"wttrp\000"
 2236      7000
 2237              	.LASF77:
 2238 018a 63685F73 		.ascii	"ch_system\000"
 2238      79737465 
 2238      6D00
 2239              	.LASF11:
 2240 0194 6C6F6E67 		.ascii	"long int\000"
 2240      20696E74 
 2240      00
 2241              	.LASF23:
 2242 019d 74737461 		.ascii	"tstate_t\000"
 2242      74655F74 
 2242      00
 2243              	.LASF109:
 2244 01a6 63685F76 		.ascii	"ch_version\000"
 2244      65727369 
 2244      6F6E00
 2245              	.LASF124:
 2246 01b1 63686465 		.ascii	"chdebug_t\000"
 2246      6275675F 
 2246      7400
 2247              	.LASF35:
 2248 01bb 705F6E65 		.ascii	"p_newer\000"
 2248      77657200 
 2249              	.LASF99:
 2250 01c3 735F7175 		.ascii	"s_queue\000"
 2250      65756500 
 2251              	.LASF142:
ARM GAS  /tmp/cc5nEZeK.s 			page 42


 2252 01cb 6368436F 		.ascii	"chCoreAllocI\000"
 2252      7265416C 
 2252      6C6F6349 
 2252      00
 2253              	.LASF59:
 2254 01d8 725F6E65 		.ascii	"r_newer\000"
 2254      77657200 
 2255              	.LASF85:
 2256 01e0 72656761 		.ascii	"regarm_t\000"
 2256      726D5F74 
 2256      00
 2257              	.LASF66:
 2258 01e9 76745F70 		.ascii	"vt_prev\000"
 2258      72657600 
 2259              	.LASF126:
 2260 01f1 6D757465 		.ascii	"mutex_t\000"
 2260      785F7400 
 2261              	.LASF138:
 2262 01f9 76616C75 		.ascii	"value\000"
 2262      6500
 2263              	.LASF81:
 2264 01ff 69646C65 		.ascii	"idle_thread_wa\000"
 2264      5F746872 
 2264      6561645F 
 2264      776100
 2265              	.LASF28:
 2266 020e 636E745F 		.ascii	"cnt_t\000"
 2266      7400
 2267              	.LASF0:
 2268 0214 756E7369 		.ascii	"unsigned int\000"
 2268      676E6564 
 2268      20696E74 
 2268      00
 2269              	.LASF65:
 2270 0221 76745F6E 		.ascii	"vt_next\000"
 2270      65787400 
 2271              	.LASF17:
 2272 0229 75696E74 		.ascii	"uint16_t\000"
 2272      31365F74 
 2272      00
 2273              	.LASF84:
 2274 0232 53797374 		.ascii	"SystemCoreClock\000"
 2274      656D436F 
 2274      7265436C 
 2274      6F636B00 
 2275              	.LASF95:
 2276 0242 77747365 		.ascii	"wtsemp\000"
 2276      6D7000
 2277              	.LASF116:
 2278 0249 63665F6F 		.ascii	"cf_off_older\000"
 2278      66665F6F 
 2278      6C646572 
 2278      00
 2279              	.LASF42:
 2280 0256 705F6D73 		.ascii	"p_msgqueue\000"
 2280      67717565 
 2280      756500
ARM GAS  /tmp/cc5nEZeK.s 			page 43


 2281              	.LASF125:
 2282 0261 63685F64 		.ascii	"ch_debug\000"
 2282      65627567 
 2282      00
 2283              	.LASF100:
 2284 026a 735F636E 		.ascii	"s_cnt\000"
 2284      7400
 2285              	.LASF9:
 2286 0270 73686F72 		.ascii	"short unsigned int\000"
 2286      7420756E 
 2286      7369676E 
 2286      65642069 
 2286      6E7400
 2287              	.LASF50:
 2288 0283 63685F74 		.ascii	"ch_thread\000"
 2288      68726561 
 2288      6400
 2289              	.LASF26:
 2290 028d 6D73675F 		.ascii	"msg_t\000"
 2290      7400
 2291              	.LASF76:
 2292 0293 63685F73 		.ascii	"ch_system_t\000"
 2292      79737465 
 2292      6D5F7400 
 2293              	.LASF123:
 2294 029f 63665F6F 		.ascii	"cf_off_time\000"
 2294      66665F74 
 2294      696D6500 
 2295              	.LASF55:
 2296 02ab 63685F72 		.ascii	"ch_ready_list\000"
 2296      65616479 
 2296      5F6C6973 
 2296      7400
 2297              	.LASF27:
 2298 02b9 6576656E 		.ascii	"eventmask_t\000"
 2298      746D6173 
 2298      6B5F7400 
 2299              	.LASF10:
 2300 02c5 5F5F696E 		.ascii	"__int32_t\000"
 2300      7433325F 
 2300      7400
 2301              	.LASF86:
 2302 02cf 73746B61 		.ascii	"stkalign_t\000"
 2302      6C69676E 
 2302      5F7400
 2303              	.LASF107:
 2304 02da 63685F7A 		.ascii	"ch_zero\000"
 2304      65726F00 
 2305              	.LASF121:
 2306 02e2 63665F6F 		.ascii	"cf_off_refs\000"
 2306      66665F72 
 2306      65667300 
 2307              	.LASF41:
 2308 02ee 705F7761 		.ascii	"p_waiting\000"
 2308      6974696E 
 2308      6700
 2309              	.LASF82:
ARM GAS  /tmp/cc5nEZeK.s 			page 44


 2310 02f8 73697A65 		.ascii	"sizetype\000"
 2310      74797065 
 2310      00
 2311              	.LASF48:
 2312 0301 74687265 		.ascii	"thread_reference_t\000"
 2312      61645F72 
 2312      65666572 
 2312      656E6365 
 2312      5F7400
 2313              	.LASF71:
 2314 0314 63685F76 		.ascii	"ch_virtual_timers_list\000"
 2314      69727475 
 2314      616C5F74 
 2314      696D6572 
 2314      735F6C69 
 2315              	.LASF2:
 2316 032b 6C6F6E67 		.ascii	"long double\000"
 2316      20646F75 
 2316      626C6500 
 2317              	.LASF139:
 2318 0337 474E5520 		.ascii	"GNU C11 6.2.1 20161205 (release) [ARM/embedded-6-br"
 2318      43313120 
 2318      362E322E 
 2318      31203230 
 2318      31363132 
 2319 036a 616E6368 		.ascii	"anch revision 243739] -mcpu=cortex-m4 -mno-thumb-in"
 2319      20726576 
 2319      6973696F 
 2319      6E203234 
 2319      33373339 
 2320 039d 74657277 		.ascii	"terwork -mthumb -ggdb -O2 -fomit-frame-pointer -fal"
 2320      6F726B20 
 2320      2D6D7468 
 2320      756D6220 
 2320      2D676764 
 2321 03d0 69676E2D 		.ascii	"ign-functions=16 -ffunction-sections -fdata-section"
 2321      66756E63 
 2321      74696F6E 
 2321      733D3136 
 2321      202D6666 
 2322 0403 73202D66 		.ascii	"s -fno-common\000"
 2322      6E6F2D63 
 2322      6F6D6D6F 
 2322      6E00
 2323              	.LASF111:
 2324 0411 63685F74 		.ascii	"ch_timesize\000"
 2324      696D6573 
 2324      697A6500 
 2325              	.LASF117:
 2326 041d 63665F6F 		.ascii	"cf_off_name\000"
 2326      66665F6E 
 2326      616D6500 
 2327              	.LASF36:
 2328 0429 705F6F6C 		.ascii	"p_older\000"
 2328      64657200 
 2329              	.LASF58:
 2330 0431 725F6374 		.ascii	"r_ctx\000"
ARM GAS  /tmp/cc5nEZeK.s 			page 45


 2330      7800
 2331              	.LASF34:
 2332 0437 705F6374 		.ascii	"p_ctx\000"
 2332      7800
 2333              	.LASF90:
 2334 043d 746D5F63 		.ascii	"tm_calibration_t\000"
 2334      616C6962 
 2334      72617469 
 2334      6F6E5F74 
 2334      00
 2335              	.LASF61:
 2336 044e 725F6375 		.ascii	"r_current\000"
 2336      7272656E 
 2336      7400
 2337              	.LASF60:
 2338 0458 725F6F6C 		.ascii	"r_older\000"
 2338      64657200 
 2339              	.LASF14:
 2340 0460 5F5F7569 		.ascii	"__uint64_t\000"
 2340      6E743634 
 2340      5F7400
 2341              	.LASF24:
 2342 046b 74726566 		.ascii	"trefs_t\000"
 2342      735F7400 
 2343              	.LASF110:
 2344 0473 63685F70 		.ascii	"ch_ptrsize\000"
 2344      74727369 
 2344      7A6500
 2345              	.LASF63:
 2346 047e 76697274 		.ascii	"virtual_timer_t\000"
 2346      75616C5F 
 2346      74696D65 
 2346      725F7400 
 2347              	.LASF32:
 2348 048e 705F7072 		.ascii	"p_prev\000"
 2348      657600
 2349              	.LASF25:
 2350 0495 74707269 		.ascii	"tprio_t\000"
 2350      6F5F7400 
 2351              	.LASF74:
 2352 049d 63685F73 		.ascii	"ch_system_debug\000"
 2352      79737465 
 2352      6D5F6465 
 2352      62756700 
 2353              	.LASF18:
 2354 04ad 696E7433 		.ascii	"int32_t\000"
 2354      325F7400 
 2355              	.LASF6:
 2356 04b5 756E7369 		.ascii	"unsigned char\000"
 2356      676E6564 
 2356      20636861 
 2356      7200
 2357              	.LASF144:
 2358 04c3 5F636F72 		.ascii	"_core_init\000"
 2358      655F696E 
 2358      697400
 2359              	.LASF45:
ARM GAS  /tmp/cc5nEZeK.s 			page 46


 2360 04ce 705F6D74 		.ascii	"p_mtxlist\000"
 2360      786C6973 
 2360      7400
 2361              	.LASF7:
 2362 04d8 73686F72 		.ascii	"short int\000"
 2362      7420696E 
 2362      7400
 2363              	.LASF38:
 2364 04e2 705F7374 		.ascii	"p_state\000"
 2364      61746500 
 2365              	.LASF130:
 2366 04ea 5F5F6865 		.ascii	"__heap_end__\000"
 2366      61705F65 
 2366      6E645F5F 
 2366      00
 2367              	.LASF57:
 2368 04f7 725F7072 		.ascii	"r_prio\000"
 2368      696F00
 2369              	.LASF97:
 2370 04fe 65776D61 		.ascii	"ewmask\000"
 2370      736B00
 2371              	.LASF31:
 2372 0505 705F6E65 		.ascii	"p_next\000"
 2372      787400
 2373              	.LASF22:
 2374 050c 746D6F64 		.ascii	"tmode_t\000"
 2374      655F7400 
 2375              	.LASF122:
 2376 0514 63665F6F 		.ascii	"cf_off_preempt\000"
 2376      66665F70 
 2376      7265656D 
 2376      707400
 2377              	.LASF39:
 2378 0523 705F666C 		.ascii	"p_flags\000"
 2378      61677300 
 2379              	.LASF131:
 2380 052b 5F5F6675 		.ascii	"__func__\000"
 2380      6E635F5F 
 2380      00
 2381              	.LASF132:
 2382 0534 63685379 		.ascii	"chSysLock\000"
 2382      734C6F63 
 2382      6B00
 2383              	.LASF52:
 2384 053e 74687265 		.ascii	"threads_queue_t\000"
 2384      6164735F 
 2384      71756575 
 2384      655F7400 
 2385              	.LASF64:
 2386 054e 63685F76 		.ascii	"ch_virtual_timer\000"
 2386      69727475 
 2386      616C5F74 
 2386      696D6572 
 2386      00
 2387              	.LASF115:
 2388 055f 63665F6F 		.ascii	"cf_off_newer\000"
 2388      66665F6E 
ARM GAS  /tmp/cc5nEZeK.s 			page 47


 2388      65776572 
 2388      00
 2389              	.LASF98:
 2390 056c 63685F73 		.ascii	"ch_semaphore\000"
 2390      656D6170 
 2390      686F7265 
 2390      00
 2391              	.LASF44:
 2392 0579 705F6570 		.ascii	"p_epending\000"
 2392      656E6469 
 2392      6E6700
 2393              	.LASF19:
 2394 0584 75696E74 		.ascii	"uint32_t\000"
 2394      33325F74 
 2394      00
 2395              	.LASF113:
 2396 058d 63665F6F 		.ascii	"cf_off_prio\000"
 2396      66665F70 
 2396      72696F00 
 2397              	.LASF56:
 2398 0599 725F7175 		.ascii	"r_queue\000"
 2398      65756500 
 2399              	.LASF67:
 2400 05a1 76745F64 		.ascii	"vt_delta\000"
 2400      656C7461 
 2400      00
 2401              	.LASF51:
 2402 05aa 63685F74 		.ascii	"ch_threads_list\000"
 2402      68726561 
 2402      64735F6C 
 2402      69737400 
 2403              	.LASF108:
 2404 05ba 63685F73 		.ascii	"ch_size\000"
 2404      697A6500 
 2405              	.LASF13:
 2406 05c2 6C6F6E67 		.ascii	"long unsigned int\000"
 2406      20756E73 
 2406      69676E65 
 2406      6420696E 
 2406      7400
 2407              	.LASF105:
 2408 05d4 63686172 		.ascii	"char\000"
 2408      00
 2409              	.LASF96:
 2410 05d9 77746D74 		.ascii	"wtmtxp\000"
 2410      787000
 2411              	.LASF8:
 2412 05e0 5F5F7569 		.ascii	"__uint16_t\000"
 2412      6E743136 
 2412      5F7400
 2413              	.LASF30:
 2414 05eb 74687265 		.ascii	"thread_t\000"
 2414      61645F74 
 2414      00
 2415              	.LASF127:
 2416 05f4 6E657874 		.ascii	"nextmem\000"
 2416      6D656D00 
ARM GAS  /tmp/cc5nEZeK.s 			page 48


 2417              	.LASF104:
 2418 05fc 6D5F6E65 		.ascii	"m_next\000"
 2418      787400
 2419              	.LASF29:
 2420 0603 73797374 		.ascii	"systime_t\000"
 2420      696D655F 
 2420      7400
 2421              	.LASF46:
 2422 060d 705F7265 		.ascii	"p_realprio\000"
 2422      616C7072 
 2422      696F00
 2423              	.LASF62:
 2424 0618 76746675 		.ascii	"vtfunc_t\000"
 2424      6E635F74 
 2424      00
 2425              	.LASF12:
 2426 0621 5F5F7569 		.ascii	"__uint32_t\000"
 2426      6E743332 
 2426      5F7400
 2427              	.LASF136:
 2428 062c 5F5F7365 		.ascii	"__set_BASEPRI\000"
 2428      745F4241 
 2428      53455052 
 2428      4900
 2429              	.LASF75:
 2430 063a 70616E69 		.ascii	"panic_msg\000"
 2430      635F6D73 
 2430      6700
 2431              	.LASF89:
 2432 0644 6F666673 		.ascii	"offset\000"
 2432      657400
 2433              	.LASF87:
 2434 064b 636F6E74 		.ascii	"context\000"
 2434      65787400 
 2435              	.LASF21:
 2436 0653 7274636E 		.ascii	"rtcnt_t\000"
 2436      745F7400 
 2437              	.LASF69:
 2438 065b 76745F70 		.ascii	"vt_par\000"
 2438      617200
 2439              	.LASF129:
 2440 0662 5F5F6865 		.ascii	"__heap_base__\000"
 2440      61705F62 
 2440      6173655F 
 2440      5F00
 2441              	.LASF114:
 2442 0670 63665F6F 		.ascii	"cf_off_ctx\000"
 2442      66665F63 
 2442      747800
 2443              	.LASF101:
 2444 067b 63685F6D 		.ascii	"ch_mutex\000"
 2444      75746578 
 2444      00
 2445              	.LASF40:
 2446 0684 705F7265 		.ascii	"p_refs\000"
 2446      667300
 2447              	.LASF78:
ARM GAS  /tmp/cc5nEZeK.s 			page 49


 2448 068b 726C6973 		.ascii	"rlist\000"
 2448      7400
 2449              	.LASF16:
 2450 0691 75696E74 		.ascii	"uint8_t\000"
 2450      385F7400 
 2451              	.LASF72:
 2452 0699 76745F6C 		.ascii	"vt_lasttime\000"
 2452      61737474 
 2452      696D6500 
 2453              	.LASF93:
 2454 06a5 77746F62 		.ascii	"wtobjp\000"
 2454      6A7000
 2455              	.LASF37:
 2456 06ac 705F6E61 		.ascii	"p_name\000"
 2456      6D6500
 2457              	.LASF137:
 2458 06b3 73697A65 		.ascii	"size\000"
 2458      00
 2459              	.LASF49:
 2460 06b8 74687265 		.ascii	"threads_list_t\000"
 2460      6164735F 
 2460      6C697374 
 2460      5F7400
 2461              	.LASF135:
 2462 06c7 63685379 		.ascii	"chSysUnlock\000"
 2462      73556E6C 
 2462      6F636B00 
 2463              	.LASF43:
 2464 06d3 705F6D73 		.ascii	"p_msg\000"
 2464      6700
 2465              	.LASF103:
 2466 06d9 6D5F6F77 		.ascii	"m_owner\000"
 2466      6E657200 
 2467              	.LASF106:
 2468 06e1 63685F69 		.ascii	"ch_identifier\000"
 2468      64656E74 
 2468      69666965 
 2468      7200
 2469              	.LASF68:
 2470 06ef 76745F66 		.ascii	"vt_func\000"
 2470      756E6300 
 2471              		.ident	"GCC: (GNU Tools for ARM Embedded Processors) 6.2.1 20161205 (release) [ARM/embedded-6-bran
ARM GAS  /tmp/cc5nEZeK.s 			page 50


DEFINED SYMBOLS
                            *ABS*:0000000000000000 chmemcore.c
     /tmp/cc5nEZeK.s:16     .text._core_init:0000000000000000 $t
     /tmp/cc5nEZeK.s:24     .text._core_init:0000000000000000 _core_init
     /tmp/cc5nEZeK.s:52     .text._core_init:0000000000000018 $d
     /tmp/cc5nEZeK.s:60     .text.chCoreAlloc:0000000000000000 $t
     /tmp/cc5nEZeK.s:68     .text.chCoreAlloc:0000000000000000 chCoreAlloc
     /tmp/cc5nEZeK.s:152    .text.chCoreAlloc:0000000000000030 $d
     /tmp/cc5nEZeK.s:158    .text.chCoreAllocI:0000000000000000 $t
     /tmp/cc5nEZeK.s:166    .text.chCoreAllocI:0000000000000000 chCoreAllocI
     /tmp/cc5nEZeK.s:208    .text.chCoreAllocI:0000000000000024 $d
     /tmp/cc5nEZeK.s:214    .text.chCoreGetStatusX:0000000000000000 $t
     /tmp/cc5nEZeK.s:222    .text.chCoreGetStatusX:0000000000000000 chCoreGetStatusX
     /tmp/cc5nEZeK.s:240    .text.chCoreGetStatusX:000000000000000c $d
     /tmp/cc5nEZeK.s:246    .bss.endmem:0000000000000000 $d
     /tmp/cc5nEZeK.s:250    .bss.endmem:0000000000000000 endmem
     /tmp/cc5nEZeK.s:253    .bss.nextmem:0000000000000000 $d
     /tmp/cc5nEZeK.s:257    .bss.nextmem:0000000000000000 nextmem
                     .debug_frame:0000000000000010 $d

UNDEFINED SYMBOLS
__heap_base__
__heap_end__
