ARM GAS  /tmp/ccTpecc0.s 			page 1


   1              		.cpu cortex-m4
   2              		.eabi_attribute 20, 1
   3              		.eabi_attribute 21, 1
   4              		.eabi_attribute 23, 3
   5              		.eabi_attribute 24, 1
   6              		.eabi_attribute 25, 1
   7              		.eabi_attribute 26, 1
   8              		.eabi_attribute 30, 2
   9              		.eabi_attribute 34, 1
  10              		.eabi_attribute 18, 4
  11              		.file	"chmempools.c"
  12              		.text
  13              	.Ltext0:
  14              		.cfi_sections	.debug_frame
  15              		.section	.text.chPoolObjectInit,"ax",%progbits
  16              		.align	1
  17              		.p2align 4,,15
  18              		.global	chPoolObjectInit
  19              		.syntax unified
  20              		.thumb
  21              		.thumb_func
  22              		.fpu softvfp
  23              		.type	chPoolObjectInit, %function
  24              	chPoolObjectInit:
  25              	.LFB227:
  26              		.file 1 "/home/selim/working/ChibiOS/os/rt/src/chmempools.c"
  27              		.loc 1 75 0
  28              		.cfi_startproc
  29              		@ args = 0, pretend = 0, frame = 0
  30              		@ frame_needed = 0, uses_anonymous_args = 0
  31              		@ link register save eliminated.
  32              	.LVL0:
  33              		.loc 1 79 0
  34 0000 0023     		movs	r3, #0
  35              		.loc 1 80 0
  36 0002 4160     		str	r1, [r0, #4]
  37              		.loc 1 81 0
  38 0004 8260     		str	r2, [r0, #8]
  39              		.loc 1 79 0
  40 0006 0360     		str	r3, [r0]
  41 0008 7047     		bx	lr
  42              		.cfi_endproc
  43              	.LFE227:
  44              		.size	chPoolObjectInit, .-chPoolObjectInit
  45 000a 00BF     		.section	.text.chPoolLoadArray,"ax",%progbits
  46              		.align	1
  47              		.p2align 4,,15
  48              		.global	chPoolLoadArray
  49              		.syntax unified
  50              		.thumb
  51              		.thumb_func
  52              		.fpu softvfp
  53              		.type	chPoolLoadArray, %function
  54              	chPoolLoadArray:
  55              	.LFB228:
  56              		.loc 1 97 0
  57              		.cfi_startproc
ARM GAS  /tmp/ccTpecc0.s 			page 2


  58              		@ args = 0, pretend = 0, frame = 0
  59              		@ frame_needed = 0, uses_anonymous_args = 0
  60              		@ link register save eliminated.
  61              	.LVL1:
  62              		.loc 1 101 0
  63 0000 72B1     		cbz	r2, .L11
  64              		.loc 1 97 0
  65 0002 30B4     		push	{r4, r5}
  66              		.cfi_def_cfa_offset 8
  67              		.cfi_offset 4, -8
  68              		.cfi_offset 5, -4
  69              	.LBB77:
  70              	.LBB78:
  71              	.LBB79:
  72              	.LBB80:
  73              	.LBB81:
  74              	.LBB82:
  75              		.file 2 "/home/selim/working/ChibiOS/os/ext/CMSIS/include/core_cmFunc.h"
  76              		.loc 2 546 0
  77 0004 2025     		movs	r5, #32
  78              	.LBE82:
  79              	.LBE81:
  80              	.LBE80:
  81              	.LBE79:
  82              	.LBB86:
  83              	.LBB87:
  84              	.LBB88:
  85              	.LBB89:
  86              	.LBB90:
  87 0006 0024     		movs	r4, #0
  88              	.LVL2:
  89              	.L4:
  90              	.LBE90:
  91              	.LBE89:
  92              	.LBE88:
  93              	.LBE87:
  94              	.LBE86:
  95              	.LBB95:
  96              	.LBB85:
  97              	.LBB84:
  98              	.LBB83:
  99              		.syntax unified
 100              	@ 546 "/home/selim/working/ChibiOS/os/ext/CMSIS/include/core_cmFunc.h" 1
 101 0008 85F31188 		MSR basepri, r5
 102              	@ 0 "" 2
 103              	.LVL3:
 104              		.thumb
 105              		.syntax unified
 106              	.LBE83:
 107              	.LBE84:
 108              	.LBE85:
 109              	.LBE95:
 110              	.LBB96:
 111              	.LBB97:
 112              		.loc 1 177 0
 113 000c 0368     		ldr	r3, [r0]
 114 000e 0B60     		str	r3, [r1]
ARM GAS  /tmp/ccTpecc0.s 			page 3


 115              		.loc 1 178 0
 116 0010 0160     		str	r1, [r0]
 117              	.LVL4:
 118              	.LBE97:
 119              	.LBE96:
 120              	.LBB98:
 121              	.LBB94:
 122              	.LBB93:
 123              	.LBB92:
 124              	.LBB91:
 125              		.loc 2 546 0
 126              		.syntax unified
 127              	@ 546 "/home/selim/working/ChibiOS/os/ext/CMSIS/include/core_cmFunc.h" 1
 128 0012 84F31188 		MSR basepri, r4
 129              	@ 0 "" 2
 130              	.LVL5:
 131              		.thumb
 132              		.syntax unified
 133              	.LBE91:
 134              	.LBE92:
 135              	.LBE93:
 136              	.LBE94:
 137              	.LBE98:
 138              	.LBE78:
 139              	.LBE77:
 140              		.loc 1 104 0
 141 0016 4368     		ldr	r3, [r0, #4]
 142              		.loc 1 101 0
 143 0018 013A     		subs	r2, r2, #1
 144              	.LVL6:
 145              		.loc 1 104 0
 146 001a 1944     		add	r1, r1, r3
 147              	.LVL7:
 148              		.loc 1 101 0
 149 001c F4D1     		bne	.L4
 150              		.loc 1 108 0
 151 001e 30BC     		pop	{r4, r5}
 152              		.cfi_restore 5
 153              		.cfi_restore 4
 154              		.cfi_def_cfa_offset 0
 155              	.LVL8:
 156              	.L11:
 157 0020 7047     		bx	lr
 158              		.cfi_endproc
 159              	.LFE228:
 160              		.size	chPoolLoadArray, .-chPoolLoadArray
 161 0022 00BF     		.section	.text.chPoolAllocI,"ax",%progbits
 162              		.align	1
 163              		.p2align 4,,15
 164              		.global	chPoolAllocI
 165              		.syntax unified
 166              		.thumb
 167              		.thumb_func
 168              		.fpu softvfp
 169              		.type	chPoolAllocI, %function
 170              	chPoolAllocI:
 171              	.LFB229:
ARM GAS  /tmp/ccTpecc0.s 			page 4


 172              		.loc 1 120 0
 173              		.cfi_startproc
 174              		@ args = 0, pretend = 0, frame = 0
 175              		@ frame_needed = 0, uses_anonymous_args = 0
 176              		@ link register save eliminated.
 177              	.LVL9:
 178              		.loc 1 126 0
 179 0000 0368     		ldr	r3, [r0]
 180              	.LVL10:
 181              		.loc 1 128 0
 182 0002 1BB1     		cbz	r3, .L14
 183              		.loc 1 129 0
 184 0004 1A68     		ldr	r2, [r3]
 185 0006 0260     		str	r2, [r0]
 186              	.L13:
 187              		.loc 1 137 0
 188 0008 1846     		mov	r0, r3
 189              	.LVL11:
 190 000a 7047     		bx	lr
 191              	.LVL12:
 192              	.L14:
 193              		.loc 1 131 0
 194 000c 8268     		ldr	r2, [r0, #8]
 195 000e 002A     		cmp	r2, #0
 196 0010 FAD0     		beq	.L13
 197              		.loc 1 132 0
 198 0012 4068     		ldr	r0, [r0, #4]
 199              	.LVL13:
 200 0014 1047     		bx	r2
 201              	.LVL14:
 202              		.cfi_endproc
 203              	.LFE229:
 204              		.size	chPoolAllocI, .-chPoolAllocI
 205 0016 00BF     		.section	.text.chPoolAlloc,"ax",%progbits
 206              		.align	1
 207              		.p2align 4,,15
 208              		.global	chPoolAlloc
 209              		.syntax unified
 210              		.thumb
 211              		.thumb_func
 212              		.fpu softvfp
 213              		.type	chPoolAlloc, %function
 214              	chPoolAlloc:
 215              	.LFB230:
 216              		.loc 1 149 0
 217              		.cfi_startproc
 218              		@ args = 0, pretend = 0, frame = 0
 219              		@ frame_needed = 0, uses_anonymous_args = 0
 220              	.LVL15:
 221 0000 08B5     		push	{r3, lr}
 222              		.cfi_def_cfa_offset 8
 223              		.cfi_offset 3, -8
 224              		.cfi_offset 14, -4
 225              	.LBB99:
 226              	.LBB100:
 227              	.LBB101:
 228              	.LBB102:
ARM GAS  /tmp/ccTpecc0.s 			page 5


 229              		.loc 2 546 0
 230 0002 2022     		movs	r2, #32
 231              	.LBE102:
 232              	.LBE101:
 233              	.LBE100:
 234              	.LBE99:
 235              		.loc 1 149 0
 236 0004 0346     		mov	r3, r0
 237              	.LBB106:
 238              	.LBB105:
 239              	.LBB104:
 240              	.LBB103:
 241              		.loc 2 546 0
 242              		.syntax unified
 243              	@ 546 "/home/selim/working/ChibiOS/os/ext/CMSIS/include/core_cmFunc.h" 1
 244 0006 82F31188 		MSR basepri, r2
 245              	@ 0 "" 2
 246              	.LVL16:
 247              		.thumb
 248              		.syntax unified
 249              	.LBE103:
 250              	.LBE104:
 251              	.LBE105:
 252              	.LBE106:
 253              	.LBB107:
 254              	.LBB108:
 255              		.loc 1 126 0
 256 000a 0068     		ldr	r0, [r0]
 257              	.LVL17:
 258              		.loc 1 128 0
 259 000c 28B1     		cbz	r0, .L20
 260              		.loc 1 129 0
 261 000e 0268     		ldr	r2, [r0]
 262 0010 1A60     		str	r2, [r3]
 263              	.L21:
 264              	.LVL18:
 265              	.LBE108:
 266              	.LBE107:
 267              	.LBB110:
 268              	.LBB111:
 269              	.LBB112:
 270              	.LBB113:
 271              	.LBB114:
 272              		.loc 2 546 0
 273 0012 0023     		movs	r3, #0
 274              	.LVL19:
 275              		.syntax unified
 276              	@ 546 "/home/selim/working/ChibiOS/os/ext/CMSIS/include/core_cmFunc.h" 1
 277 0014 83F31188 		MSR basepri, r3
 278              	@ 0 "" 2
 279              	.LVL20:
 280              		.thumb
 281              		.syntax unified
 282              	.LBE114:
 283              	.LBE113:
 284              	.LBE112:
 285              	.LBE111:
ARM GAS  /tmp/ccTpecc0.s 			page 6


 286              	.LBE110:
 287              		.loc 1 157 0
 288 0018 08BD     		pop	{r3, pc}
 289              	.LVL21:
 290              	.L20:
 291              	.LBB119:
 292              	.LBB109:
 293              		.loc 1 131 0
 294 001a 9A68     		ldr	r2, [r3, #8]
 295 001c 002A     		cmp	r2, #0
 296 001e F8D0     		beq	.L21
 297              		.loc 1 132 0
 298 0020 5868     		ldr	r0, [r3, #4]
 299              	.LVL22:
 300 0022 9047     		blx	r2
 301              	.LVL23:
 302              	.LBE109:
 303              	.LBE119:
 304              	.LBB120:
 305              	.LBB118:
 306              	.LBB117:
 307              	.LBB116:
 308              	.LBB115:
 309              		.loc 2 546 0
 310 0024 0023     		movs	r3, #0
 311              		.syntax unified
 312              	@ 546 "/home/selim/working/ChibiOS/os/ext/CMSIS/include/core_cmFunc.h" 1
 313 0026 83F31188 		MSR basepri, r3
 314              	@ 0 "" 2
 315              	.LVL24:
 316              		.thumb
 317              		.syntax unified
 318              	.LBE115:
 319              	.LBE116:
 320              	.LBE117:
 321              	.LBE118:
 322              	.LBE120:
 323              		.loc 1 157 0
 324 002a 08BD     		pop	{r3, pc}
 325              		.cfi_endproc
 326              	.LFE230:
 327              		.size	chPoolAlloc, .-chPoolAlloc
 328              		.section	.text.chPoolFreeI,"ax",%progbits
 329              		.align	1
 330              		.p2align 4,,15
 331              		.global	chPoolFreeI
 332              		.syntax unified
 333              		.thumb
 334              		.thumb_func
 335              		.fpu softvfp
 336              		.type	chPoolFreeI, %function
 337              	chPoolFreeI:
 338              	.LFB231:
 339              		.loc 1 171 0
 340              		.cfi_startproc
 341              		@ args = 0, pretend = 0, frame = 0
 342              		@ frame_needed = 0, uses_anonymous_args = 0
ARM GAS  /tmp/ccTpecc0.s 			page 7


 343              		@ link register save eliminated.
 344              	.LVL25:
 345              		.loc 1 177 0
 346 0000 0368     		ldr	r3, [r0]
 347 0002 0B60     		str	r3, [r1]
 348              		.loc 1 178 0
 349 0004 0160     		str	r1, [r0]
 350 0006 7047     		bx	lr
 351              		.cfi_endproc
 352              	.LFE231:
 353              		.size	chPoolFreeI, .-chPoolFreeI
 354              		.section	.text.chPoolFree,"ax",%progbits
 355              		.align	1
 356              		.p2align 4,,15
 357              		.global	chPoolFree
 358              		.syntax unified
 359              		.thumb
 360              		.thumb_func
 361              		.fpu softvfp
 362              		.type	chPoolFree, %function
 363              	chPoolFree:
 364              	.LFB232:
 365              		.loc 1 193 0
 366              		.cfi_startproc
 367              		@ args = 0, pretend = 0, frame = 0
 368              		@ frame_needed = 0, uses_anonymous_args = 0
 369              		@ link register save eliminated.
 370              	.LVL26:
 371              	.LBB121:
 372              	.LBB122:
 373              	.LBB123:
 374              	.LBB124:
 375              		.loc 2 546 0
 376 0000 2023     		movs	r3, #32
 377              		.syntax unified
 378              	@ 546 "/home/selim/working/ChibiOS/os/ext/CMSIS/include/core_cmFunc.h" 1
 379 0002 83F31188 		MSR basepri, r3
 380              	@ 0 "" 2
 381              	.LVL27:
 382              		.thumb
 383              		.syntax unified
 384              	.LBE124:
 385              	.LBE123:
 386              	.LBE122:
 387              	.LBE121:
 388              	.LBB125:
 389              	.LBB126:
 390              		.loc 1 177 0
 391 0006 0368     		ldr	r3, [r0]
 392 0008 0B60     		str	r3, [r1]
 393              	.LBE126:
 394              	.LBE125:
 395              	.LBB128:
 396              	.LBB129:
 397              	.LBB130:
 398              	.LBB131:
 399              	.LBB132:
ARM GAS  /tmp/ccTpecc0.s 			page 8


 400              		.loc 2 546 0
 401 000a 0023     		movs	r3, #0
 402              	.LBE132:
 403              	.LBE131:
 404              	.LBE130:
 405              	.LBE129:
 406              	.LBE128:
 407              	.LBB137:
 408              	.LBB127:
 409              		.loc 1 178 0
 410 000c 0160     		str	r1, [r0]
 411              	.LVL28:
 412              	.LBE127:
 413              	.LBE137:
 414              	.LBB138:
 415              	.LBB136:
 416              	.LBB135:
 417              	.LBB134:
 418              	.LBB133:
 419              		.loc 2 546 0
 420              		.syntax unified
 421              	@ 546 "/home/selim/working/ChibiOS/os/ext/CMSIS/include/core_cmFunc.h" 1
 422 000e 83F31188 		MSR basepri, r3
 423              	@ 0 "" 2
 424              	.LVL29:
 425              		.thumb
 426              		.syntax unified
 427 0012 7047     		bx	lr
 428              	.LBE133:
 429              	.LBE134:
 430              	.LBE135:
 431              	.LBE136:
 432              	.LBE138:
 433              		.cfi_endproc
 434              	.LFE232:
 435              		.size	chPoolFree, .-chPoolFree
 436              		.text
 437              	.Letext0:
 438              		.file 3 "/usr/lib/gcc/arm-none-eabi/6.2.1/include/stddef.h"
 439              		.file 4 "/usr/arm-none-eabi/include/machine/_default_types.h"
 440              		.file 5 "/usr/arm-none-eabi/include/sys/_stdint.h"
 441              		.file 6 "/home/selim/working/ChibiOS/os/rt/ports/ARMCMx/compilers/GCC/chtypes.h"
 442              		.file 7 "/home/selim/working/ChibiOS/os/rt/include/chsystypes.h"
 443              		.file 8 "/home/selim/working/ChibiOS/os/rt/include/chschd.h"
 444              		.file 9 "/home/selim/working/ChibiOS/os/ext/CMSIS/include/core_cm4.h"
 445              		.file 10 "/home/selim/working/ChibiOS/os/ext/CMSIS/ST/system_stm32f4xx.h"
 446              		.file 11 "/home/selim/working/ChibiOS/os/rt/ports/ARMCMx/chcore.h"
 447              		.file 12 "/home/selim/working/ChibiOS/os/rt/ports/ARMCMx/chcore_v7m.h"
 448              		.file 13 "/home/selim/working/ChibiOS/os/rt/include/chtm.h"
 449              		.file 14 "/home/selim/working/ChibiOS/os/rt/include/chsem.h"
 450              		.file 15 "/home/selim/working/ChibiOS/os/rt/include/chmtx.h"
 451              		.file 16 "/home/selim/working/ChibiOS/os/rt/include/chregistry.h"
 452              		.file 17 "/home/selim/working/ChibiOS/os/rt/include/chmemcore.h"
 453              		.file 18 "/home/selim/working/ChibiOS/os/rt/include/chmempools.h"
 454              		.file 19 "/home/selim/working/ChibiOS/os/rt/include/chsys.h"