ARM GAS  /tmp/cc92tcVj.s 			page 1


   1              		.cpu cortex-m4
   2              		.eabi_attribute 20, 1
   3              		.eabi_attribute 21, 1
   4              		.eabi_attribute 23, 3
   5              		.eabi_attribute 24, 1
   6              		.eabi_attribute 25, 1
   7              		.eabi_attribute 26, 1
   8              		.eabi_attribute 30, 2
   9              		.eabi_attribute 34, 1
  10              		.eabi_attribute 18, 4
  11              		.file	"chmsg.c"
  12              		.text
  13              	.Ltext0:
  14              		.cfi_sections	.debug_frame
  15              		.section	.text.chMsgSend,"ax",%progbits
  16              		.align	1
  17              		.p2align 4,,15
  18              		.global	chMsgSend
  19              		.syntax unified
  20              		.thumb
  21              		.thumb_func
  22              		.fpu softvfp
  23              		.type	chMsgSend, %function
  24              	chMsgSend:
  25              	.LFB227:
  26              		.file 1 "/home/selim/working/ChibiOS/os/rt/src/chmsg.c"
  27              		.loc 1 87 0
  28              		.cfi_startproc
  29              		@ args = 0, pretend = 0, frame = 0
  30              		@ frame_needed = 0, uses_anonymous_args = 0
  31              	.LVL0:
  32 0000 38B5     		push	{r3, r4, r5, lr}
  33              		.cfi_def_cfa_offset 16
  34              		.cfi_offset 3, -16
  35              		.cfi_offset 4, -12
  36              		.cfi_offset 5, -8
  37              		.cfi_offset 14, -4
  38              		.loc 1 88 0
  39 0002 0E4B     		ldr	r3, .L6
  40              	.LBB52:
  41              	.LBB53:
  42              	.LBB54:
  43              	.LBB55:
  44              		.file 2 "/home/selim/working/ChibiOS/os/ext/CMSIS/include/core_cmFunc.h"
  45              		.loc 2 546 0
  46 0004 2022     		movs	r2, #32
  47              	.LBE55:
  48              	.LBE54:
  49              	.LBE53:
  50              	.LBE52:
  51              		.loc 1 88 0
  52 0006 9C69     		ldr	r4, [r3, #24]
  53              	.LVL1:
  54              	.LBB59:
  55              	.LBB58:
  56              	.LBB57:
  57              	.LBB56:
ARM GAS  /tmp/cc92tcVj.s 			page 2


  58              		.loc 2 546 0
  59              		.syntax unified
  60              	@ 546 "/home/selim/working/ChibiOS/os/ext/CMSIS/include/core_cmFunc.h" 1
  61 0008 82F31188 		MSR basepri, r2
  62              	@ 0 "" 2
  63              	.LVL2:
  64              		.thumb
  65              		.syntax unified
  66              	.LBE56:
  67              	.LBE57:
  68              	.LBE58:
  69              	.LBE59:
  70              		.loc 1 94 0
  71 000c 00F12805 		add	r5, r0, #40
  72 0010 2562     		str	r5, [r4, #32]
  73              	.LVL3:
  74              	.LBB60:
  75              	.LBB61:
  76              		.file 3 "/home/selim/working/ChibiOS/os/rt/include/chschd.h"
  77              		.loc 3 666 0
  78 0012 C26A     		ldr	r2, [r0, #44]
  79 0014 6260     		str	r2, [r4, #4]
  80              	.LBE61:
  81              	.LBE60:
  82              		.loc 1 93 0
  83 0016 2163     		str	r1, [r4, #48]
  84              	.LBB64:
  85              	.LBB62:
  86              		.loc 3 665 0
  87 0018 2560     		str	r5, [r4]
  88              		.loc 3 667 0
  89 001a 1460     		str	r4, [r2]
  90              	.LBE62:
  91              	.LBE64:
  92              		.loc 1 96 0
  93 001c 027F     		ldrb	r2, [r0, #28]	@ zero_extendqisi2
  94              	.LBB65:
  95              	.LBB63:
  96              		.loc 3 668 0
  97 001e C462     		str	r4, [r0, #44]
  98              	.LVL4:
  99              	.LBE63:
 100              	.LBE65:
 101              		.loc 1 96 0
 102 0020 0E2A     		cmp	r2, #14
 103 0022 07D0     		beq	.L5
 104              	.LVL5:
 105              	.L2:
 106              		.loc 1 99 0
 107 0024 0C20     		movs	r0, #12
 108 0026 FFF7FEFF 		bl	chSchGoSleepS
 109              	.LVL6:
 110              		.loc 1 100 0
 111 002a 206A     		ldr	r0, [r4, #32]
 112              	.LVL7:
 113              	.LBB66:
 114              	.LBB67:
ARM GAS  /tmp/cc92tcVj.s 			page 3


 115              	.LBB68:
 116              	.LBB69:
 117              	.LBB70:
 118              		.loc 2 546 0
 119 002c 0023     		movs	r3, #0
 120              		.syntax unified
 121              	@ 546 "/home/selim/working/ChibiOS/os/ext/CMSIS/include/core_cmFunc.h" 1
 122 002e 83F31188 		MSR basepri, r3
 123              	@ 0 "" 2
 124              	.LVL8:
 125              		.thumb
 126              		.syntax unified
 127              	.LBE70:
 128              	.LBE69:
 129              	.LBE68:
 130              	.LBE67:
 131              	.LBE66:
 132              		.loc 1 104 0
 133 0032 38BD     		pop	{r3, r4, r5, pc}
 134              	.LVL9:
 135              	.L5:
 136              		.loc 1 97 0
 137 0034 FFF7FEFF 		bl	chSchReadyI
 138              	.LVL10:
 139 0038 F4E7     		b	.L2
 140              	.L7:
 141 003a 00BF     		.align	2
 142              	.L6:
 143 003c 00000000 		.word	ch
 144              		.cfi_endproc
 145              	.LFE227:
 146              		.size	chMsgSend, .-chMsgSend
 147              		.section	.text.chMsgWait,"ax",%progbits
 148              		.align	1
 149              		.p2align 4,,15
 150              		.global	chMsgWait
 151              		.syntax unified
 152              		.thumb
 153              		.thumb_func
 154              		.fpu softvfp
 155              		.type	chMsgWait, %function
 156              	chMsgWait:
 157              	.LFB228:
 158              		.loc 1 120 0
 159              		.cfi_startproc
 160              		@ args = 0, pretend = 0, frame = 0
 161              		@ frame_needed = 0, uses_anonymous_args = 0
 162              	.LVL11:
 163 0000 10B5     		push	{r4, lr}
 164              		.cfi_def_cfa_offset 8
 165              		.cfi_offset 4, -8
 166              		.cfi_offset 14, -4
 167              	.LBB71:
 168              	.LBB72:
 169              	.LBB73:
 170              	.LBB74:
 171              		.loc 2 546 0
ARM GAS  /tmp/cc92tcVj.s 			page 4


 172 0002 2023     		movs	r3, #32
 173              		.syntax unified
 174              	@ 546 "/home/selim/working/ChibiOS/os/ext/CMSIS/include/core_cmFunc.h" 1
 175 0004 83F31188 		MSR basepri, r3
 176              	@ 0 "" 2
 177              	.LVL12:
 178              		.thumb
 179              		.syntax unified
 180              	.LBE74:
 181              	.LBE73:
 182              	.LBE72:
 183              	.LBE71:
 184              		.loc 1 124 0
 185 0008 0B4C     		ldr	r4, .L12
 186 000a A269     		ldr	r2, [r4, #24]
 187              	.LVL13:
 188              	.LBB75:
 189              	.LBB76:
 190              		.file 4 "/home/selim/working/ChibiOS/os/rt/include/chmsg.h"
 191              		.loc 4 83 0
 192 000c 1346     		mov	r3, r2
 193 000e 53F8280F 		ldr	r0, [r3, #40]!
 194              	.LVL14:
 195              	.LBE76:
 196              	.LBE75:
 197              		.loc 1 124 0
 198 0012 9842     		cmp	r0, r3
 199 0014 08D0     		beq	.L11
 200              	.L9:
 201              	.LVL15:
 202              	.LBB77:
 203              	.LBB78:
 204              		.loc 3 674 0
 205 0016 0168     		ldr	r1, [r0]
 206 0018 9162     		str	r1, [r2, #40]
 207              	.LVL16:
 208              	.LBE78:
 209              	.LBE77:
 210              		.loc 1 128 0
 211 001a 0D22     		movs	r2, #13
 212              	.LBB80:
 213              	.LBB79:
 214              		.loc 3 675 0
 215 001c 4B60     		str	r3, [r1, #4]
 216              	.LVL17:
 217              	.LBE79:
 218              	.LBE80:
 219              	.LBB81:
 220              	.LBB82:
 221              	.LBB83:
 222              	.LBB84:
 223              	.LBB85:
 224              		.loc 2 546 0
 225 001e 0023     		movs	r3, #0
 226              	.LBE85:
 227              	.LBE84:
 228              	.LBE83:
ARM GAS  /tmp/cc92tcVj.s 			page 5


 229              	.LBE82:
 230              	.LBE81:
 231              		.loc 1 128 0
 232 0020 0277     		strb	r2, [r0, #28]
 233              	.LVL18:
 234              	.LBB90:
 235              	.LBB89:
 236              	.LBB88:
 237              	.LBB87:
 238              	.LBB86:
 239              		.loc 2 546 0
 240              		.syntax unified
 241              	@ 546 "/home/selim/working/ChibiOS/os/ext/CMSIS/include/core_cmFunc.h" 1
 242 0022 83F31188 		MSR basepri, r3
 243              	@ 0 "" 2
 244              	.LVL19:
 245              		.thumb
 246              		.syntax unified
 247              	.LBE86:
 248              	.LBE87:
 249              	.LBE88:
 250              	.LBE89:
 251              	.LBE90:
 252              		.loc 1 132 0
 253 0026 10BD     		pop	{r4, pc}
 254              	.L11:
 255              		.loc 1 125 0
 256 0028 0E20     		movs	r0, #14
 257 002a FFF7FEFF 		bl	chSchGoSleepS
 258              	.LVL20:
 259 002e A269     		ldr	r2, [r4, #24]
 260 0030 906A     		ldr	r0, [r2, #40]
 261 0032 02F12803 		add	r3, r2, #40
 262 0036 EEE7     		b	.L9
 263              	.L13:
 264              		.align	2
 265              	.L12:
 266 0038 00000000 		.word	ch
 267              		.cfi_endproc
 268              	.LFE228:
 269              		.size	chMsgWait, .-chMsgWait
 270              		.section	.text.chMsgRelease,"ax",%progbits
 271              		.align	1
 272              		.p2align 4,,15
 273              		.global	chMsgRelease
 274              		.syntax unified
 275              		.thumb
 276              		.thumb_func
 277              		.fpu softvfp
 278              		.type	chMsgRelease, %function
 279              	chMsgRelease:
 280              	.LFB229:
 281              		.loc 1 144 0
 282              		.cfi_startproc
 283              		@ args = 0, pretend = 0, frame = 0
 284              		@ frame_needed = 0, uses_anonymous_args = 0
 285              	.LVL21:
ARM GAS  /tmp/cc92tcVj.s 			page 6


 286 0000 08B5     		push	{r3, lr}
 287              		.cfi_def_cfa_offset 8
 288              		.cfi_offset 3, -8
 289              		.cfi_offset 14, -4
 290              	.LBB91:
 291              	.LBB92:
 292              	.LBB93:
 293              	.LBB94:
 294              		.loc 2 546 0
 295 0002 2023     		movs	r3, #32
 296              		.syntax unified
 297              	@ 546 "/home/selim/working/ChibiOS/os/ext/CMSIS/include/core_cmFunc.h" 1
 298 0004 83F31188 		MSR basepri, r3
 299              	@ 0 "" 2
 300              	.LVL22:
 301              		.thumb
 302              		.syntax unified
 303              	.LBE94:
 304              	.LBE93:
 305              	.LBE92:
 306              	.LBE91:
 307              	.LBB95:
 308              	.LBB96:
 309              		.loc 4 115 0
 310 0008 FFF7FEFF 		bl	chSchWakeupS
 311              	.LVL23:
 312              	.LBE96:
 313              	.LBE95:
 314              	.LBB97:
 315              	.LBB98:
 316              	.LBB99:
 317              	.LBB100:
 318              	.LBB101:
 319              		.loc 2 546 0
 320 000c 0023     		movs	r3, #0
 321              		.syntax unified
 322              	@ 546 "/home/selim/working/ChibiOS/os/ext/CMSIS/include/core_cmFunc.h" 1
 323 000e 83F31188 		MSR basepri, r3
 324              	@ 0 "" 2
 325              	.LVL24:
 326              		.thumb
 327              		.syntax unified
 328 0012 08BD     		pop	{r3, pc}
 329              	.LBE101:
 330              	.LBE100:
 331              	.LBE99:
 332              	.LBE98:
 333              	.LBE97:
 334              		.cfi_endproc
 335              	.LFE229:
 336              		.size	chMsgRelease, .-chMsgRelease
 337              		.text
 338              	.Letext0:
 339              		.file 5 "/usr/arm-none-eabi/include/machine/_default_types.h"
 340              		.file 6 "/usr/arm-none-eabi/include/sys/_stdint.h"
 341              		.file 7 "/home/selim/working/ChibiOS/os/rt/ports/ARMCMx/compilers/GCC/chtypes.h"
 342              		.file 8 "/home/selim/working/ChibiOS/os/rt/include/chsystypes.h"
ARM GAS  /tmp/cc92tcVj.s 			page 7


 343              		.file 9 "/home/selim/working/ChibiOS/os/ext/CMSIS/include/core_cm4.h"
 344              		.file 10 "/home/selim/working/ChibiOS/os/ext/CMSIS/ST/system_stm32f4xx.h"
 345              		.file 11 "/home/selim/working/ChibiOS/os/rt/ports/ARMCMx/chcore.h"
 346              		.file 12 "/home/selim/working/ChibiOS/os/rt/ports/ARMCMx/chcore_v7m.h"
 347              		.file 13 "/home/selim/working/ChibiOS/os/rt/include/chtm.h"
 348              		.file 14 "/home/selim/working/ChibiOS/os/rt/include/chsem.h"
 349              		.file 15 "/home/selim/working/ChibiOS/os/rt/include/chmtx.h"
 350              		.file 16 "/home/selim/working/ChibiOS/os/rt/include/chregistry.h"
 351              		.file 17 "/home/selim/working/ChibiOS/os/rt/include/chsys.h"