ARM GAS  /tmp/cc0xe9oP.s 			page 1


   1              		.cpu cortex-m4
   2              		.eabi_attribute 20, 1
   3              		.eabi_attribute 21, 1
   4              		.eabi_attribute 23, 3
   5              		.eabi_attribute 24, 1
   6              		.eabi_attribute 25, 1
   7              		.eabi_attribute 26, 1
   8              		.eabi_attribute 30, 2
   9              		.eabi_attribute 34, 1
  10              		.eabi_attribute 18, 4
  11              		.file	"chprintf.c"
  12              		.text
  13              	.Ltext0:
  14              		.cfi_sections	.debug_frame
  15              		.global	__aeabi_d2f
  16              		.global	__aeabi_fcmplt
  17              		.global	__aeabi_f2d
  18              		.global	__aeabi_ui2d
  19              		.global	__aeabi_f2iz
  20              		.global	__aeabi_i2d
  21              		.global	__aeabi_dsub
  22              		.global	__aeabi_dmul
  23              		.global	__aeabi_d2iz
  24              		.section	.text.chvprintf,"ax",%progbits
  25              		.align	1
  26              		.p2align 4,,15
  27              		.global	chvprintf
  28              		.syntax unified
  29              		.thumb
  30              		.thumb_func
  31              		.fpu softvfp
  32              		.type	chvprintf, %function
  33              	chvprintf:
  34              	.LFB262:
  35              		.file 1 "/home/selim/working/ChibiOS/os/hal/lib/streams/chprintf.c"
  36              		.loc 1 121 0
  37              		.cfi_startproc
  38              		@ args = 0, pretend = 0, frame = 56
  39              		@ frame_needed = 0, uses_anonymous_args = 0
  40              	.LVL0:
  41 0000 2DE9F04F 		push	{r4, r5, r6, r7, r8, r9, r10, fp, lr}
  42              		.cfi_def_cfa_offset 36
  43              		.cfi_offset 4, -36
  44              		.cfi_offset 5, -32
  45              		.cfi_offset 6, -28
  46              		.cfi_offset 7, -24
  47              		.cfi_offset 8, -20
  48              		.cfi_offset 9, -16
  49              		.cfi_offset 10, -12
  50              		.cfi_offset 11, -8
  51              		.cfi_offset 14, -4
  52 0004 8FB0     		sub	sp, sp, #60
  53              		.cfi_def_cfa_offset 96
  54              		.loc 1 124 0
  55 0006 0023     		movs	r3, #0
  56              		.loc 1 121 0
  57 0008 8346     		mov	fp, r0
ARM GAS  /tmp/cc0xe9oP.s 			page 2


  58 000a 8A46     		mov	r10, r1
  59 000c 9146     		mov	r9, r2
  60              	.LVL1:
  61              		.loc 1 124 0
  62 000e 0093     		str	r3, [sp]
  63              	.LVL2:
  64              	.L2:
  65              		.loc 1 135 0
  66 0010 9AF80010 		ldrb	r1, [r10]	@ zero_extendqisi2
  67 0014 0AF10103 		add	r3, r10, #1
  68              	.LVL3:
  69              		.loc 1 136 0
  70 0018 81B1     		cbz	r1, .L102
  71              	.L117:
  72              		.loc 1 138 0
  73 001a 2529     		cmp	r1, #37
  74 001c 12D0     		beq	.L4
  75              		.loc 1 140 0
  76 001e 009C     		ldr	r4, [sp]
  77              		.loc 1 139 0
  78 0020 DBF80020 		ldr	r2, [fp]
  79              	.LVL4:
  80              		.loc 1 135 0
  81 0024 9A46     		mov	r10, r3
  82              		.loc 1 139 0
  83 0026 9268     		ldr	r2, [r2, #8]
  84 0028 5846     		mov	r0, fp
  85              		.loc 1 140 0
  86 002a 0134     		adds	r4, r4, #1
  87 002c 0094     		str	r4, [sp]
  88              	.LVL5:
  89              		.loc 1 139 0
  90 002e 9047     		blx	r2
  91              	.LVL6:
  92              		.loc 1 135 0
  93 0030 9AF80010 		ldrb	r1, [r10]	@ zero_extendqisi2
  94 0034 0AF10103 		add	r3, r10, #1
  95              	.LVL7:
  96              		.loc 1 136 0
  97 0038 0029     		cmp	r1, #0
  98 003a EED1     		bne	.L117
  99              	.LVL8:
 100              	.L102:
 101              		.loc 1 277 0
 102 003c 0098     		ldr	r0, [sp]
 103 003e 0FB0     		add	sp, sp, #60
 104              		.cfi_remember_state
 105              		.cfi_def_cfa_offset 36
 106              	.LVL9:
 107              		@ sp needed
 108 0040 BDE8F08F 		pop	{r4, r5, r6, r7, r8, r9, r10, fp, pc}
 109              	.LVL10:
 110              	.L4:
 111              		.cfi_restore_state
 112              		.loc 1 146 0
 113 0044 9AF80120 		ldrb	r2, [r10, #1]	@ zero_extendqisi2
 114              	.LVL11:
ARM GAS  /tmp/cc0xe9oP.s 			page 3


 115 0048 2D2A     		cmp	r2, #45
 116 004a 03BF     		ittte	eq
 117 004c 9AF80220 		ldrbeq	r2, [r10, #2]	@ zero_extendqisi2
 118              		.loc 1 147 0
 119 0050 0AF10203 		addeq	r3, r10, #2
 120              	.LVL12:
 121              		.loc 1 148 0
 122 0054 0121     		moveq	r1, #1
 123              	.LVL13:
 124              		.loc 1 145 0
 125 0056 0021     		movne	r1, #0
 126              		.loc 1 151 0
 127 0058 302A     		cmp	r2, #48
 128 005a 08BF     		it	eq
 129 005c 5A78     		ldrbeq	r2, [r3, #1]	@ zero_extendqisi2
 130              		.loc 1 145 0
 131 005e 0191     		str	r1, [sp, #4]
 132              	.LVL14:
 133              		.loc 1 152 0
 134 0060 06BF     		itte	eq
 135 0062 0133     		addeq	r3, r3, #1
 136              	.LVL15:
 137              		.loc 1 153 0
 138 0064 3026     		moveq	r6, #48
 139              		.loc 1 150 0
 140 0066 2026     		movne	r6, #32
 141              	.LVL16:
 142 0068 591C     		adds	r1, r3, #1
 143              		.loc 1 155 0
 144 006a 0024     		movs	r4, #0
 145 006c 07E0     		b	.L10
 146              	.LVL17:
 147              	.L118:
 148              		.loc 1 161 0
 149 006e 99F80030 		ldrb	r3, [r9]	@ zero_extendqisi2
 150              	.LVL18:
 151 0072 09F10409 		add	r9, r9, #4
 152              	.LVL19:
 153              	.L8:
 154 0076 11F8012B 		ldrb	r2, [r1], #1	@ zero_extendqisi2
 155              	.LVL20:
 156              		.loc 1 164 0
 157 007a 03EB4004 		add	r4, r3, r0, lsl #1
 158              	.LVL21:
 159              	.L10:
 160              		.loc 1 158 0
 161 007e A2F13003 		sub	r3, r2, #48
 162 0082 DBB2     		uxtb	r3, r3
 163 0084 092B     		cmp	r3, #9
 164              		.loc 1 157 0
 165 0086 8A46     		mov	r10, r1
 166              	.LVL22:
 167              		.loc 1 164 0
 168 0088 04EB8400 		add	r0, r4, r4, lsl #2
 169              		.loc 1 158 0
 170 008c F3D9     		bls	.L8
 171              		.loc 1 160 0
ARM GAS  /tmp/cc0xe9oP.s 			page 4


 172 008e 2A2A     		cmp	r2, #42
 173 0090 EDD0     		beq	.L118
 174              	.LVL23:
 175              		.loc 1 167 0
 176 0092 2E2A     		cmp	r2, #46
 177 0094 4FF00007 		mov	r7, #0
 178 0098 45D0     		beq	.L13
 179              	.LVL24:
 180              		.loc 1 181 0
 181 009a 02F0DF03 		and	r3, r2, #223
 182 009e 4C2B     		cmp	r3, #76
 183 00a0 50D0     		beq	.L119
 184              	.LVL25:
 185              	.L14:
 186              		.loc 1 190 0
 187 00a2 A2F14401 		sub	r1, r2, #68
 188              	.LVL26:
 189 00a6 3429     		cmp	r1, #52
 190 00a8 00F2E681 		bhi	.L16
 191 00ac DFE811F0 		tbh	[pc, r1, lsl #1]
 192              	.L18:
 193 00b0 F900     		.2byte	(.L31-.L18)/2
 194 00b2 E401     		.2byte	(.L16-.L18)/2
 195 00b4 E401     		.2byte	(.L16-.L18)/2
 196 00b6 E401     		.2byte	(.L16-.L18)/2
 197 00b8 E401     		.2byte	(.L16-.L18)/2
 198 00ba F900     		.2byte	(.L31-.L18)/2
 199 00bc E401     		.2byte	(.L16-.L18)/2
 200 00be E401     		.2byte	(.L16-.L18)/2
 201 00c0 E401     		.2byte	(.L16-.L18)/2
 202 00c2 E401     		.2byte	(.L16-.L18)/2
 203 00c4 E401     		.2byte	(.L16-.L18)/2
 204 00c6 F600     		.2byte	(.L87-.L18)/2
 205 00c8 E401     		.2byte	(.L16-.L18)/2
 206 00ca E401     		.2byte	(.L16-.L18)/2
 207 00cc E401     		.2byte	(.L16-.L18)/2
 208 00ce E401     		.2byte	(.L16-.L18)/2
 209 00d0 E401     		.2byte	(.L16-.L18)/2
 210 00d2 8C00     		.2byte	(.L68-.L18)/2
 211 00d4 E401     		.2byte	(.L16-.L18)/2
 212 00d6 E401     		.2byte	(.L16-.L18)/2
 213 00d8 4401     		.2byte	(.L69-.L18)/2
 214 00da E401     		.2byte	(.L16-.L18)/2
 215 00dc E401     		.2byte	(.L16-.L18)/2
 216 00de E401     		.2byte	(.L16-.L18)/2
 217 00e0 E401     		.2byte	(.L16-.L18)/2
 218 00e2 E401     		.2byte	(.L16-.L18)/2
 219 00e4 E401     		.2byte	(.L16-.L18)/2
 220 00e6 E401     		.2byte	(.L16-.L18)/2
 221 00e8 E401     		.2byte	(.L16-.L18)/2
 222 00ea E401     		.2byte	(.L16-.L18)/2
 223 00ec E401     		.2byte	(.L16-.L18)/2
 224 00ee D901     		.2byte	(.L22-.L18)/2
 225 00f0 F900     		.2byte	(.L31-.L18)/2
 226 00f2 E401     		.2byte	(.L16-.L18)/2
 227 00f4 4701     		.2byte	(.L23-.L18)/2
 228 00f6 E401     		.2byte	(.L16-.L18)/2
ARM GAS  /tmp/cc0xe9oP.s 			page 5


 229 00f8 E401     		.2byte	(.L16-.L18)/2
 230 00fa F900     		.2byte	(.L31-.L18)/2
 231 00fc E401     		.2byte	(.L16-.L18)/2
 232 00fe E401     		.2byte	(.L16-.L18)/2
 233 0100 E401     		.2byte	(.L16-.L18)/2
 234 0102 E401     		.2byte	(.L16-.L18)/2
 235 0104 E401     		.2byte	(.L16-.L18)/2
 236 0106 F600     		.2byte	(.L87-.L18)/2
 237 0108 E401     		.2byte	(.L16-.L18)/2
 238 010a E401     		.2byte	(.L16-.L18)/2
 239 010c E401     		.2byte	(.L16-.L18)/2
 240 010e 2001     		.2byte	(.L24-.L18)/2
 241 0110 E401     		.2byte	(.L16-.L18)/2
 242 0112 8C00     		.2byte	(.L68-.L18)/2
 243 0114 E401     		.2byte	(.L16-.L18)/2
 244 0116 E401     		.2byte	(.L16-.L18)/2
 245 0118 4401     		.2byte	(.L69-.L18)/2
 246              	.LVL27:
 247              		.p2align 1
 248              	.L120:
 249              		.loc 1 173 0
 250 011a 99F80030 		ldrb	r3, [r9]	@ zero_extendqisi2
 251              	.LVL28:
 252 011e 09F10409 		add	r9, r9, #4
 253              	.LVL29:
 254              	.L12:
 255              		.loc 1 177 0
 256 0122 03EB4107 		add	r7, r3, r1, lsl #1
 257              	.LVL30:
 258              	.L13:
 259              		.loc 1 169 0
 260 0126 1AF8012B 		ldrb	r2, [r10], #1	@ zero_extendqisi2
 261              	.LVL31:
 262              		.loc 1 170 0
 263 012a A2F13003 		sub	r3, r2, #48
 264 012e DBB2     		uxtb	r3, r3
 265 0130 092B     		cmp	r3, #9
 266              		.loc 1 176 0
 267 0132 07EB8701 		add	r1, r7, r7, lsl #2
 268              		.loc 1 170 0
 269 0136 F4D9     		bls	.L12
 270              		.loc 1 172 0
 271 0138 2A2A     		cmp	r2, #42
 272 013a EED0     		beq	.L120
 273              	.LVL32:
 274              		.loc 1 181 0
 275 013c 02F0DF03 		and	r3, r2, #223
 276 0140 4C2B     		cmp	r3, #76
 277 0142 AED1     		bne	.L14
 278              	.L119:
 279              	.LVL33:
 280              		.loc 1 183 0
 281 0144 9AF80030 		ldrb	r3, [r10]	@ zero_extendqisi2
 282 0148 13B1     		cbz	r3, .L15
 283              		.loc 1 184 0
 284 014a 0AF1010A 		add	r10, r10, #1
 285              	.LVL34:
ARM GAS  /tmp/cc0xe9oP.s 			page 6


 286 014e 1A46     		mov	r2, r3
 287              	.LVL35:
 288              	.L15:
 289              		.loc 1 190 0
 290 0150 A2F14403 		sub	r3, r2, #68
 291 0154 342B     		cmp	r3, #52
 292 0156 00F28F81 		bhi	.L16
 293 015a DFE813F0 		tbh	[pc, r3, lsl #1]
 294              	.L67:
 295 015e A200     		.2byte	(.L31-.L67)/2
 296 0160 8D01     		.2byte	(.L16-.L67)/2
 297 0162 8D01     		.2byte	(.L16-.L67)/2
 298 0164 8D01     		.2byte	(.L16-.L67)/2
 299 0166 8D01     		.2byte	(.L16-.L67)/2
 300 0168 A200     		.2byte	(.L31-.L67)/2
 301 016a 8D01     		.2byte	(.L16-.L67)/2
 302 016c 8D01     		.2byte	(.L16-.L67)/2
 303 016e 8D01     		.2byte	(.L16-.L67)/2
 304 0170 8D01     		.2byte	(.L16-.L67)/2
 305 0172 8D01     		.2byte	(.L16-.L67)/2
 306 0174 9F00     		.2byte	(.L87-.L67)/2
 307 0176 8D01     		.2byte	(.L16-.L67)/2
 308 0178 8D01     		.2byte	(.L16-.L67)/2
 309 017a 8D01     		.2byte	(.L16-.L67)/2
 310 017c 8D01     		.2byte	(.L16-.L67)/2
 311 017e 8D01     		.2byte	(.L16-.L67)/2
 312 0180 3500     		.2byte	(.L68-.L67)/2
 313 0182 8D01     		.2byte	(.L16-.L67)/2
 314 0184 8D01     		.2byte	(.L16-.L67)/2
 315 0186 ED00     		.2byte	(.L69-.L67)/2
 316 0188 8D01     		.2byte	(.L16-.L67)/2
 317 018a 8D01     		.2byte	(.L16-.L67)/2
 318 018c 8D01     		.2byte	(.L16-.L67)/2
 319 018e 8D01     		.2byte	(.L16-.L67)/2
 320 0190 8D01     		.2byte	(.L16-.L67)/2
 321 0192 8D01     		.2byte	(.L16-.L67)/2
 322 0194 8D01     		.2byte	(.L16-.L67)/2
 323 0196 8D01     		.2byte	(.L16-.L67)/2
 324 0198 8D01     		.2byte	(.L16-.L67)/2
 325 019a 8D01     		.2byte	(.L16-.L67)/2
 326 019c 8201     		.2byte	(.L22-.L67)/2
 327 019e A200     		.2byte	(.L31-.L67)/2
 328 01a0 8D01     		.2byte	(.L16-.L67)/2
 329 01a2 F000     		.2byte	(.L23-.L67)/2
 330 01a4 8D01     		.2byte	(.L16-.L67)/2
 331 01a6 8D01     		.2byte	(.L16-.L67)/2
 332 01a8 A200     		.2byte	(.L31-.L67)/2
 333 01aa 8D01     		.2byte	(.L16-.L67)/2
 334 01ac 8D01     		.2byte	(.L16-.L67)/2
 335 01ae 8D01     		.2byte	(.L16-.L67)/2
 336 01b0 8D01     		.2byte	(.L16-.L67)/2
 337 01b2 8D01     		.2byte	(.L16-.L67)/2
 338 01b4 9F00     		.2byte	(.L87-.L67)/2
 339 01b6 8D01     		.2byte	(.L16-.L67)/2
 340 01b8 8D01     		.2byte	(.L16-.L67)/2
 341 01ba 8D01     		.2byte	(.L16-.L67)/2
 342 01bc C900     		.2byte	(.L24-.L67)/2
ARM GAS  /tmp/cc0xe9oP.s 			page 7


 343 01be 8D01     		.2byte	(.L16-.L67)/2
 344 01c0 3500     		.2byte	(.L68-.L67)/2
 345 01c2 8D01     		.2byte	(.L16-.L67)/2
 346 01c4 8D01     		.2byte	(.L16-.L67)/2
 347 01c6 ED00     		.2byte	(.L69-.L67)/2
 348              	.LVL36:
 349              		.p2align 1
 350              	.L68:
 351 01c8 4FF00A0E 		mov	lr, #10
 352              	.L48:
 353              	.LVL37:
 354              	.LBB26:
 355              	.LBB27:
 356              	.LBB28:
 357              		.loc 1 52 0
 358 01cc 0DF12B02 		add	r2, sp, #43
 359              	.LVL38:
 360              	.LBE28:
 361              	.LBE27:
 362              	.LBE26:
 363              		.loc 1 243 0
 364 01d0 D9F80010 		ldr	r1, [r9]
 365              	.LVL39:
 366              	.LBB33:
 367              	.LBB31:
 368              	.LBB29:
 369              		.loc 1 52 0
 370 01d4 1046     		mov	r0, r2
 371              	.LBE29:
 372              	.LBE31:
 373              	.LBE33:
 374              		.loc 1 243 0
 375 01d6 09F10409 		add	r9, r9, #4
 376              	.LVL40:
 377 01da 00E0     		b	.L52
 378              	.LVL41:
 379              	.L80:
 380              	.LBB34:
 381              	.LBB32:
 382              	.LBB30:
 383              		.loc 1 60 0
 384 01dc 3846     		mov	r0, r7
 385              	.LVL42:
 386              	.L52:
 387              		.loc 1 54 0
 388 01de B1FBFEF5 		udiv	r5, r1, lr
 389 01e2 0EFB1511 		mls	r1, lr, r5, r1
 390              	.LVL43:
 391              		.loc 1 55 0
 392 01e6 01F13003 		add	r3, r1, #48
 393              	.LVL44:
 394              		.loc 1 56 0
 395 01ea 392B     		cmp	r3, #57
 396              		.loc 1 57 0
 397 01ec C8BF     		it	gt
 398 01ee 01F13703 		addgt	r3, r1, #55
 399              	.LVL45:
ARM GAS  /tmp/cc0xe9oP.s 			page 8


 400              		.loc 1 58 0
 401 01f2 DBB2     		uxtb	r3, r3
 402              	.LVL46:
 403 01f4 00F8013C 		strb	r3, [r0, #-1]
 404 01f8 471E     		subs	r7, r0, #1
 405              	.LVL47:
 406              		.loc 1 59 0
 407 01fa 2946     		mov	r1, r5
 408              	.LVL48:
 409              		.loc 1 60 0
 410 01fc 002D     		cmp	r5, #0
 411 01fe EDD1     		bne	.L80
 412              		.loc 1 62 0
 413 0200 D21B     		subs	r2, r2, r7
 414              	.LVL49:
 415 0202 08AD     		add	r5, sp, #32
 416              	.LVL50:
 417 0204 1744     		add	r7, r7, r2
 418              	.LVL51:
 419 0206 2946     		mov	r1, r5
 420              	.LVL52:
 421 0208 01E0     		b	.L54
 422              	.LVL53:
 423              	.L121:
 424 020a 10F8013B 		ldrb	r3, [r0], #1	@ zero_extendqisi2
 425              	.LVL54:
 426              	.L54:
 427              		.loc 1 64 0
 428 020e 01F8013B 		strb	r3, [r1], #1
 429              	.LVL55:
 430              		.loc 1 65 0
 431 0212 8742     		cmp	r7, r0
 432 0214 F9D1     		bne	.L121
 433              	.LVL56:
 434              	.L112:
 435 0216 571E     		subs	r7, r2, #1
 436              	.LVL57:
 437              	.L25:
 438              	.LBE30:
 439              	.LBE32:
 440              	.LBE34:
 441              		.loc 1 251 0
 442 0218 A41A     		subs	r4, r4, r2
 443              	.LVL58:
 444 021a 00F18880 		bmi	.L122
 445              	.LVL59:
 446              	.L28:
 447              		.loc 1 253 0
 448 021e 019B     		ldr	r3, [sp, #4]
 449 0220 002B     		cmp	r3, #0
 450 0222 40F03081 		bne	.L57
 451 0226 C4F10008 		rsb	r8, r4, #0
 452              	.LVL60:
 453              		.loc 1 255 0
 454 022a 002C     		cmp	r4, #0
 455 022c 00F02A81 		beq	.L81
 456              		.loc 1 256 0
ARM GAS  /tmp/cc0xe9oP.s 			page 9


 457 0230 2978     		ldrb	r1, [r5]	@ zero_extendqisi2
 458 0232 2D29     		cmp	r1, #45
 459 0234 00F03481 		beq	.L123
 460              	.LVL61:
 461              	.L59:
 462              		.loc 1 262 0 discriminator 1
 463 0238 DBF80030 		ldr	r3, [fp]
 464 023c 3146     		mov	r1, r6
 465 023e 9B68     		ldr	r3, [r3, #8]
 466 0240 5846     		mov	r0, fp
 467 0242 9847     		blx	r3
 468              	.LVL62:
 469              		.loc 1 264 0 discriminator 1
 470 0244 18F10108 		adds	r8, r8, #1
 471              	.LVL63:
 472 0248 F6D1     		bne	.L59
 473 024a 009B     		ldr	r3, [sp]
 474              		.loc 1 266 0
 475 024c 002F     		cmp	r7, #0
 476 024e 2344     		add	r3, r3, r4
 477 0250 0093     		str	r3, [sp]
 478              	.LVL64:
 479 0252 A8BF     		it	ge
 480 0254 4446     		movge	r4, r8
 481 0256 FFF6DBAE 		blt	.L2
 482              	.LVL65:
 483              	.L61:
 484 025a B846     		mov	r8, r7
 485              	.LVL66:
 486              	.L63:
 487              		.loc 1 267 0
 488 025c DBF80030 		ldr	r3, [fp]
 489 0260 15F8011B 		ldrb	r1, [r5], #1	@ zero_extendqisi2
 490              	.LVL67:
 491 0264 9B68     		ldr	r3, [r3, #8]
 492              		.loc 1 266 0
 493 0266 08F1FF38 		add	r8, r8, #-1
 494              	.LVL68:
 495              		.loc 1 267 0
 496 026a 5846     		mov	r0, fp
 497 026c 9847     		blx	r3
 498              	.LVL69:
 499              		.loc 1 266 0
 500 026e B8F1FF3F 		cmp	r8, #-1
 501 0272 F3D1     		bne	.L63
 502 0274 009B     		ldr	r3, [sp]
 503 0276 0133     		adds	r3, r3, #1
 504 0278 3B44     		add	r3, r3, r7
 505 027a 0093     		str	r3, [sp]
 506              	.LVL70:
 507              	.L62:
 508              		.loc 1 271 0
 509 027c 002C     		cmp	r4, #0
 510 027e 3FF4C7AE 		beq	.L2
 511 0282 2546     		mov	r5, r4
 512              	.LVL71:
 513              	.L64:
ARM GAS  /tmp/cc0xe9oP.s 			page 10


 514              		.loc 1 272 0
 515 0284 DBF80030 		ldr	r3, [fp]
 516 0288 3146     		mov	r1, r6
 517 028a 9B68     		ldr	r3, [r3, #8]
 518 028c 5846     		mov	r0, fp
 519 028e 9847     		blx	r3
 520              	.LVL72:
 521              		.loc 1 271 0
 522 0290 013D     		subs	r5, r5, #1
 523              	.LVL73:
 524 0292 F7D1     		bne	.L64
 525 0294 009B     		ldr	r3, [sp]
 526 0296 2344     		add	r3, r3, r4
 527 0298 0093     		str	r3, [sp]
 528 029a B9E6     		b	.L2
 529              	.L20:
 530              	.LVL74:
 531              	.L87:
 532              		.loc 1 190 0
 533 029c 4FF0080E 		mov	lr, #8
 534 02a0 94E7     		b	.L48
 535              	.L31:
 536              	.LVL75:
 537              		.loc 1 211 0
 538 02a2 D9F80010 		ldr	r1, [r9]
 539              		.loc 1 212 0
 540 02a6 0029     		cmp	r1, #0
 541              		.loc 1 211 0
 542 02a8 09F10409 		add	r9, r9, #4
 543              	.LVL76:
 544              		.loc 1 212 0
 545 02ac C0F20E81 		blt	.L124
 546              		.loc 1 143 0
 547 02b0 08AD     		add	r5, sp, #32
 548              	.LVL77:
 549 02b2 2A46     		mov	r2, r5
 550              	.LVL78:
 551              	.L34:
 552              	.LBB35:
 553              	.LBB36:
 554              	.LBB37:
 555              		.loc 1 52 0
 556 02b4 02F10B0C 		add	ip, r2, #11
 557              	.LVL79:
 558 02b8 6046     		mov	r0, ip
 559              	.LVL80:
 560              	.L35:
 561              		.loc 1 54 0
 562 02ba 934B     		ldr	r3, .L129+8
 563 02bc A3FB0173 		umull	r7, r3, r3, r1
 564 02c0 DB08     		lsrs	r3, r3, #3
 565 02c2 03EB830E 		add	lr, r3, r3, lsl #2
 566 02c6 1F46     		mov	r7, r3
 567 02c8 A1EB4E03 		sub	r3, r1, lr, lsl #1
 568              	.LVL81:
 569              		.loc 1 55 0
 570 02cc 3033     		adds	r3, r3, #48
ARM GAS  /tmp/cc0xe9oP.s 			page 11


 571              	.LVL82:
 572              		.loc 1 58 0
 573 02ce DBB2     		uxtb	r3, r3
 574              	.LVL83:
 575 02d0 00F8013D 		strb	r3, [r0, #-1]!
 576              	.LVL84:
 577              		.loc 1 60 0
 578 02d4 3946     		mov	r1, r7
 579              	.LVL85:
 580 02d6 002F     		cmp	r7, #0
 581 02d8 EFD1     		bne	.L35
 582              	.LVL86:
 583              		.loc 1 62 0
 584 02da ACEB0001 		sub	r1, ip, r0
 585 02de 1144     		add	r1, r1, r2
 586 02e0 01E0     		b	.L37
 587              	.LVL87:
 588              	.L125:
 589 02e2 10F8013F 		ldrb	r3, [r0, #1]!	@ zero_extendqisi2
 590              	.LVL88:
 591              	.L37:
 592              		.loc 1 64 0
 593 02e6 02F8013B 		strb	r3, [r2], #1
 594              	.LVL89:
 595              		.loc 1 65 0
 596 02ea 8A42     		cmp	r2, r1
 597 02ec F9D1     		bne	.L125
 598 02ee B6E0     		b	.L111
 599              	.LVL90:
 600              	.L24:
 601              	.LBE37:
 602              	.LBE36:
 603              	.LBE35:
 604              		.loc 1 197 0
 605 02f0 D9F80050 		ldr	r5, [r9]
 606 02f4 09F10409 		add	r9, r9, #4
 607              	.LVL91:
 608 02f8 002D     		cmp	r5, #0
 609 02fa 00F0F980 		beq	.L26
 610              	.LVL92:
 611              		.loc 1 201 0
 612 02fe 2B78     		ldrb	r3, [r5]	@ zero_extendqisi2
 613              		.loc 1 199 0
 614 0300 002F     		cmp	r7, #0
 615 0302 00F0C480 		beq	.L27
 616              	.LVL93:
 617              		.loc 1 201 0 discriminator 1
 618 0306 002B     		cmp	r3, #0
 619 0308 00F0C680 		beq	.L74
 620              	.LVL94:
 621              	.L65:
 622              		.loc 1 201 0 is_stmt 0
 623 030c 013F     		subs	r7, r7, #1
 624              	.LVL95:
 625              	.L66:
 626              		.loc 1 201 0 discriminator 4
 627 030e 2A46     		mov	r2, r5
ARM GAS  /tmp/cc0xe9oP.s 			page 12


 628              	.LVL96:
 629 0310 01E0     		b	.L30
 630              	.LVL97:
 631              	.L126:
 632              		.loc 1 201 0 discriminator 3
 633 0312 013F     		subs	r7, r7, #1
 634              	.LVL98:
 635 0314 03D4     		bmi	.L110
 636              	.LVL99:
 637              	.L30:
 638              		.loc 1 201 0 discriminator 4
 639 0316 12F8013F 		ldrb	r3, [r2, #1]!	@ zero_extendqisi2
 640              	.LVL100:
 641 031a 002B     		cmp	r3, #0
 642 031c F9D1     		bne	.L126
 643              	.LVL101:
 644              	.L110:
 645 031e 521B     		subs	r2, r2, r5
 646              	.LVL102:
 647              		.loc 1 251 0 is_stmt 1
 648 0320 A41A     		subs	r4, r4, r2
 649              	.LVL103:
 650 0322 02F1FF37 		add	r7, r2, #-1
 651              		.loc 1 196 0
 652 0326 4FF02006 		mov	r6, #32
 653              	.LVL104:
 654              		.loc 1 251 0
 655 032a 7FF578AF 		bpl	.L28
 656              	.L122:
 657              	.LVL105:
 658              		.loc 1 266 0
 659 032e 002F     		cmp	r7, #0
 660              		.loc 1 252 0
 661 0330 A8BF     		it	ge
 662 0332 0024     		movge	r4, #0
 663              		.loc 1 266 0
 664 0334 91DA     		bge	.L61
 665 0336 6BE6     		b	.L2
 666              	.LVL106:
 667              	.L69:
 668              		.loc 1 190 0
 669 0338 4FF0100E 		mov	lr, #16
 670 033c 46E7     		b	.L48
 671              	.L23:
 672              		.loc 1 220 0
 673 033e 09F10709 		add	r9, r9, #7
 674              	.LVL107:
 675 0342 29F00709 		bic	r9, r9, #7
 676              	.LVL108:
 677 0346 D9E90001 		ldrd	r0, [r9]
 678 034a FFF7FEFF 		bl	__aeabi_d2f
 679              	.LVL109:
 680              		.loc 1 221 0
 681 034e 0021     		movs	r1, #0
 682              		.loc 1 220 0
 683 0350 09F10809 		add	r9, r9, #8
 684              	.LVL110:
ARM GAS  /tmp/cc0xe9oP.s 			page 13


 685 0354 8046     		mov	r8, r0
 686              	.LVL111:
 687              		.loc 1 221 0
 688 0356 FFF7FEFF 		bl	__aeabi_fcmplt
 689              	.LVL112:
 690 035a 0028     		cmp	r0, #0
 691 035c 40F0BE80 		bne	.L127
 692              		.loc 1 143 0
 693 0360 08AD     		add	r5, sp, #32
 694              	.LVL113:
 695 0362 0695     		str	r5, [sp, #24]
 696              	.LVL114:
 697              	.L38:
 698              		.loc 1 225 0
 699 0364 4046     		mov	r0, r8
 700 0366 FFF7FEFF 		bl	__aeabi_f2d
 701              	.LVL115:
 702              	.LBB38:
 703              	.LBB39:
 704              		.loc 1 83 0
 705 036a 013F     		subs	r7, r7, #1
 706              	.LVL116:
 707 036c 082F     		cmp	r7, #8
 708              	.LBE39:
 709              	.LBE38:
 710              		.loc 1 225 0
 711 036e CDE90201 		strd	r0, [sp, #8]
 712              	.LVL117:
 713              	.LBB48:
 714              	.LBB46:
 715              		.loc 1 83 0
 716 0372 00F2A380 		bhi	.L77
 717 0376 654B     		ldr	r3, .L129+12
 718 0378 53F82770 		ldr	r7, [r3, r7, lsl #2]
 719              	.LVL118:
 720 037c 3846     		mov	r0, r7
 721              	.LVL119:
 722 037e FFF7FEFF 		bl	__aeabi_ui2d
 723              	.LVL120:
 724 0382 614B     		ldr	r3, .L129+8
 725 0384 CDE90401 		strd	r0, [sp, #16]
 726 0388 A3FB0737 		umull	r3, r7, r3, r7
 727 038c FB08     		lsrs	r3, r7, #3
 728 038e 0793     		str	r3, [sp, #28]
 729 0390 1F46     		mov	r7, r3
 730              	.L40:
 731              	.LVL121:
 732              		.loc 1 87 0
 733 0392 4046     		mov	r0, r8
 734 0394 FFF7FEFF 		bl	__aeabi_f2iz
 735              	.LVL122:
 736              	.LBB40:
 737              	.LBB41:
 738              		.loc 1 52 0
 739 0398 069B     		ldr	r3, [sp, #24]
 740 039a 03F10B08 		add	r8, r3, #11
 741              	.LVL123:
ARM GAS  /tmp/cc0xe9oP.s 			page 14


 742              		.loc 1 45 0
 743 039e 0146     		mov	r1, r0
 744              		.loc 1 52 0
 745 03a0 4246     		mov	r2, r8
 746              	.LVL124:
 747              	.L41:
 748              		.loc 1 54 0
 749 03a2 594B     		ldr	r3, .L129+8
 750 03a4 A3FB01E3 		umull	lr, r3, r3, r1
 751 03a8 DB08     		lsrs	r3, r3, #3
 752 03aa 03EB830C 		add	ip, r3, r3, lsl #2
 753 03ae 9E46     		mov	lr, r3
 754 03b0 A1EB4C03 		sub	r3, r1, ip, lsl #1
 755              	.LVL125:
 756              		.loc 1 55 0
 757 03b4 3033     		adds	r3, r3, #48
 758              	.LVL126:
 759              		.loc 1 58 0
 760 03b6 DBB2     		uxtb	r3, r3
 761              	.LVL127:
 762              		.loc 1 60 0
 763 03b8 7146     		mov	r1, lr
 764              	.LVL128:
 765              		.loc 1 58 0
 766 03ba 02F8013D 		strb	r3, [r2, #-1]!
 767              	.LVL129:
 768              		.loc 1 60 0
 769 03be 0029     		cmp	r1, #0
 770 03c0 EFD1     		bne	.L41
 771 03c2 0699     		ldr	r1, [sp, #24]
 772              		.loc 1 62 0
 773 03c4 A8EB0208 		sub	r8, r8, r2
 774              	.LVL130:
 775 03c8 01EB080E 		add	lr, r1, r8
 776              	.LVL131:
 777 03cc 01E0     		b	.L43
 778              	.LVL132:
 779              	.L128:
 780 03ce 12F8013F 		ldrb	r3, [r2, #1]!	@ zero_extendqisi2
 781              	.LVL133:
 782              	.L43:
 783              		.loc 1 64 0
 784 03d2 01F8013B 		strb	r3, [r1], #1
 785              	.LVL134:
 786              		.loc 1 65 0
 787 03d6 7145     		cmp	r1, lr
 788 03d8 F9D1     		bne	.L128
 789 03da 069A     		ldr	r2, [sp, #24]
 790              	.LBE41:
 791              	.LBE40:
 792              		.loc 1 89 0
 793 03dc 2E23     		movs	r3, #46
 794 03de 08F1FF38 		add	r8, r8, #-1
 795 03e2 4244     		add	r2, r2, r8
 796 03e4 0B70     		strb	r3, [r1]
 797 03e6 9046     		mov	r8, r2
 798              	.LVL135:
ARM GAS  /tmp/cc0xe9oP.s 			page 15


 799              		.loc 1 90 0
 800 03e8 FFF7FEFF 		bl	__aeabi_i2d
 801              	.LVL136:
 802 03ec 0246     		mov	r2, r0
 803 03ee 0B46     		mov	r3, r1
 804 03f0 DDE90201 		ldrd	r0, [sp, #8]
 805 03f4 FFF7FEFF 		bl	__aeabi_dsub
 806              	.LVL137:
 807 03f8 DDE90423 		ldrd	r2, [sp, #16]
 808 03fc FFF7FEFF 		bl	__aeabi_dmul
 809              	.LVL138:
 810 0400 FFF7FEFF 		bl	__aeabi_d2iz
 811              	.LVL139:
 812              	.LBB42:
 813              	.LBB43:
 814              		.loc 1 47 0
 815 0404 079B     		ldr	r3, [sp, #28]
 816              		.loc 1 52 0
 817 0406 08F10D0E 		add	lr, r8, #13
 818              		.loc 1 47 0
 819 040a 002B     		cmp	r3, #0
 820 040c 08BF     		it	eq
 821 040e 0746     		moveq	r7, r0
 822              	.LBE43:
 823              	.LBE42:
 824              		.loc 1 89 0
 825 0410 08F10208 		add	r8, r8, #2
 826              	.LVL140:
 827              	.LBB45:
 828              	.LBB44:
 829              		.loc 1 52 0
 830 0414 7246     		mov	r2, lr
 831 0416 00E0     		b	.L45
 832              	.LVL141:
 833              	.L79:
 834              		.loc 1 60 0
 835 0418 0A46     		mov	r2, r1
 836              	.LVL142:
 837              	.L45:
 838              		.loc 1 54 0
 839 041a 3B4B     		ldr	r3, .L129+8
 840 041c A3FB0013 		umull	r1, r3, r3, r0
 841 0420 DB08     		lsrs	r3, r3, #3
 842 0422 03EB830C 		add	ip, r3, r3, lsl #2
 843 0426 1946     		mov	r1, r3
 844 0428 A0EB4C03 		sub	r3, r0, ip, lsl #1
 845              	.LVL143:
 846              		.loc 1 60 0
 847 042c 3648     		ldr	r0, .L129+8
 848              	.LVL144:
 849              		.loc 1 55 0
 850 042e 3033     		adds	r3, r3, #48
 851              	.LVL145:
 852              		.loc 1 60 0
 853 0430 A0FB0707 		umull	r0, r7, r0, r7
 854              	.LVL146:
 855              		.loc 1 58 0
ARM GAS  /tmp/cc0xe9oP.s 			page 16


 856 0434 DBB2     		uxtb	r3, r3
 857              	.LVL147:
 858              		.loc 1 60 0
 859 0436 FF08     		lsrs	r7, r7, #3
 860              		.loc 1 59 0
 861 0438 0846     		mov	r0, r1
 862              		.loc 1 58 0
 863 043a 02F8013C 		strb	r3, [r2, #-1]
 864 043e 02F1FF31 		add	r1, r2, #-1
 865              	.LVL148:
 866              		.loc 1 60 0
 867 0442 E9D1     		bne	.L79
 868              	.LVL149:
 869              		.loc 1 62 0
 870 0444 AEEB010E 		sub	lr, lr, r1
 871              	.LVL150:
 872 0448 7144     		add	r1, r1, lr
 873              	.LVL151:
 874 044a 4046     		mov	r0, r8
 875              	.LVL152:
 876 044c 01E0     		b	.L47
 877              	.LVL153:
 878              	.L46:
 879 044e 12F8013B 		ldrb	r3, [r2], #1	@ zero_extendqisi2
 880              	.LVL154:
 881              	.L47:
 882              		.loc 1 64 0
 883 0452 00F8013B 		strb	r3, [r0], #1
 884              	.LVL155:
 885              		.loc 1 65 0
 886 0456 9142     		cmp	r1, r2
 887 0458 F9D1     		bne	.L46
 888 045a 08EB0E02 		add	r2, r8, lr
 889              	.LVL156:
 890              	.L111:
 891 045e 521B     		subs	r2, r2, r5
 892 0460 D9E6     		b	.L112
 893              	.LVL157:
 894              	.L22:
 895              	.LBE44:
 896              	.LBE45:
 897              	.LBE46:
 898              	.LBE48:
 899              		.loc 1 193 0
 900 0462 0EAD     		add	r5, sp, #56
 901 0464 D9F80030 		ldr	r3, [r9]
 902 0468 05F8183D 		strb	r3, [r5, #-24]!
 903 046c 09F10409 		add	r9, r9, #4
 904              	.LVL158:
 905              		.loc 1 194 0
 906 0470 0027     		movs	r7, #0
 907              	.LVL159:
 908 0472 0122     		movs	r2, #1
 909              	.LVL160:
 910              		.loc 1 192 0
 911 0474 2026     		movs	r6, #32
 912              		.loc 1 194 0
ARM GAS  /tmp/cc0xe9oP.s 			page 17


 913 0476 CFE6     		b	.L25
 914              	.LVL161:
 915              	.L16:
 916              		.loc 1 247 0
 917 0478 0EAD     		add	r5, sp, #56
 918              		.loc 1 248 0
 919 047a 0027     		movs	r7, #0
 920              	.LVL162:
 921              		.loc 1 247 0
 922 047c 05F8182D 		strb	r2, [r5, #-24]!
 923              		.loc 1 248 0
 924 0480 0122     		movs	r2, #1
 925              	.LVL163:
 926 0482 C9E6     		b	.L25
 927              	.LVL164:
 928              	.L81:
 929 0484 4446     		mov	r4, r8
 930              	.LVL165:
 931              	.L57:
 932              		.loc 1 266 0
 933 0486 002F     		cmp	r7, #0
 934 0488 BFF6E7AE 		bge	.L61
 935 048c F6E6     		b	.L62
 936              	.LVL166:
 937              	.L27:
 938              		.loc 1 201 0
 939 048e 47F6FE77 		movw	r7, #32766
 940 0492 002B     		cmp	r3, #0
 941 0494 7FF43BAF 		bne	.L66
 942              	.LVL167:
 943              	.L74:
 944 0498 4FF0FF37 		mov	r7, #-1
 945 049c 2026     		movs	r6, #32
 946 049e BEE6     		b	.L28
 947              	.LVL168:
 948              	.L123:
 949              		.loc 1 256 0 discriminator 1
 950 04a0 302E     		cmp	r6, #48
 951 04a2 7FF4C9AE 		bne	.L59
 952              		.loc 1 257 0
 953 04a6 DBF80030 		ldr	r3, [fp]
 954 04aa 5846     		mov	r0, fp
 955 04ac 9B68     		ldr	r3, [r3, #8]
 956 04ae 9847     		blx	r3
 957              	.LVL169:
 958              		.loc 1 258 0
 959 04b0 009B     		ldr	r3, [sp]
 960 04b2 0133     		adds	r3, r3, #1
 961              		.loc 1 257 0
 962 04b4 0135     		adds	r5, r5, #1
 963              	.LVL170:
 964              		.loc 1 258 0
 965 04b6 0093     		str	r3, [sp]
 966              	.LVL171:
 967 04b8 013F     		subs	r7, r7, #1
 968 04ba BDE6     		b	.L59
 969              	.LVL172:
ARM GAS  /tmp/cc0xe9oP.s 			page 18


 970              	.L77:
 971              	.LBB49:
 972              	.LBB47:
 973              		.loc 1 83 0
 974 04bc 10A3     		adr	r3, .L129
 975 04be D3E90023 		ldrd	r2, [r3]
 976 04c2 134F     		ldr	r7, .L129+16
 977              	.LVL173:
 978 04c4 0797     		str	r7, [sp, #28]
 979 04c6 CDE90423 		strd	r2, [sp, #16]
 980 04ca 62E7     		b	.L40
 981              	.LVL174:
 982              	.L124:
 983              	.LBE47:
 984              	.LBE49:
 985              		.loc 1 213 0
 986 04cc 2D23     		movs	r3, #45
 987              		.loc 1 214 0
 988 04ce 4942     		negs	r1, r1
 989              	.LVL175:
 990              		.loc 1 213 0
 991 04d0 8DF82030 		strb	r3, [sp, #32]
 992 04d4 0DF12102 		add	r2, sp, #33
 993              	.LVL176:
 994 04d8 08AD     		add	r5, sp, #32
 995              	.LVL177:
 996 04da EBE6     		b	.L34
 997              	.LVL178:
 998              	.L127:
 999              		.loc 1 222 0
 1000 04dc 2D23     		movs	r3, #45
 1001 04de 8DF82030 		strb	r3, [sp, #32]
 1002 04e2 0DF12103 		add	r3, sp, #33
 1003              	.LVL179:
 1004              		.loc 1 223 0
 1005 04e6 08F10048 		add	r8, r8, #-2147483648
 1006              	.LVL180:
 1007              		.loc 1 222 0
 1008 04ea 0693     		str	r3, [sp, #24]
 1009 04ec 08AD     		add	r5, sp, #32
 1010              	.LVL181:
 1011 04ee 39E7     		b	.L38
 1012              	.LVL182:
 1013              	.L26:
 1014              		.loc 1 198 0
 1015 04f0 084D     		ldr	r5, .L129+20
 1016              		.loc 1 199 0
 1017 04f2 002F     		cmp	r7, #0
 1018 04f4 7FF40AAF 		bne	.L65
 1019              		.loc 1 200 0
 1020 04f8 47F6FF77 		movw	r7, #32767
 1021              	.LVL183:
 1022 04fc 06E7     		b	.L65
 1023              	.L130:
 1024 04fe 00BF     		.align	3
 1025              	.L129:
 1026 0500 00000000 		.word	0
ARM GAS  /tmp/cc0xe9oP.s 			page 19


 1027 0504 65CDCD41 		.word	1104006501
 1028 0508 CDCCCCCC 		.word	-858993459
 1029 050c 00000000 		.word	.LANCHOR0
 1030 0510 00E1F505 		.word	100000000
 1031 0514 00000000 		.word	.LC0
 1032              		.cfi_endproc
 1033              	.LFE262:
 1034              		.size	chvprintf, .-chvprintf
 1035              		.section	.text.chsnprintf,"ax",%progbits
 1036              		.align	1
 1037              		.p2align 4,,15
 1038              		.global	chsnprintf
 1039              		.syntax unified
 1040              		.thumb
 1041              		.thumb_func
 1042              		.fpu softvfp
 1043              		.type	chsnprintf, %function
 1044              	chsnprintf:
 1045              	.LFB263:
 1046              		.loc 1 307 0
 1047              		.cfi_startproc
 1048              		@ args = 4, pretend = 8, frame = 24
 1049              		@ frame_needed = 0, uses_anonymous_args = 1
 1050              	.LVL184:
 1051 0000 0CB4     		push	{r2, r3}
 1052              		.cfi_def_cfa_offset 8
 1053              		.cfi_offset 2, -8
 1054              		.cfi_offset 3, -4
 1055 0002 30B5     		push	{r4, r5, lr}
 1056              		.cfi_def_cfa_offset 20
 1057              		.cfi_offset 4, -20
 1058              		.cfi_offset 5, -16
 1059              		.cfi_offset 14, -12
 1060 0004 0546     		mov	r5, r0
 1061 0006 87B0     		sub	sp, sp, #28
 1062              		.cfi_def_cfa_offset 48
 1063              		.loc 1 314 0
 1064 0008 0C46     		mov	r4, r1
 1065 000a B1B1     		cbz	r1, .L132
 1066              	.LVL185:
 1067              		.loc 1 321 0
 1068 000c 4A1E     		subs	r2, r1, #1
 1069              	.LVL186:
 1070 000e 01A8     		add	r0, sp, #4
 1071              	.LVL187:
 1072 0010 0023     		movs	r3, #0
 1073 0012 2946     		mov	r1, r5
 1074              	.LVL188:
 1075 0014 FFF7FEFF 		bl	msObjectInit
 1076              	.LVL189:
 1077              		.loc 1 325 0
 1078 0018 0BAB     		add	r3, sp, #44
 1079              		.loc 1 326 0
 1080 001a 1A46     		mov	r2, r3
 1081 001c 01A8     		add	r0, sp, #4
 1082              	.LVL190:
 1083 001e 0A99     		ldr	r1, [sp, #40]
ARM GAS  /tmp/cc0xe9oP.s 			page 20


 1084              		.loc 1 325 0
 1085 0020 0093     		str	r3, [sp]
 1086              		.loc 1 326 0
 1087 0022 FFF7FEFF 		bl	chvprintf
 1088              	.LVL191:
 1089              		.loc 1 330 0
 1090 0026 049B     		ldr	r3, [sp, #16]
 1091 0028 9C42     		cmp	r4, r3
 1092 002a 01D9     		bls	.L131
 1093              		.loc 1 331 0
 1094 002c 0022     		movs	r2, #0
 1095 002e EA54     		strb	r2, [r5, r3]
 1096              	.L131:
 1097              		.loc 1 335 0
 1098 0030 07B0     		add	sp, sp, #28
 1099              		.cfi_remember_state
 1100              		.cfi_def_cfa_offset 20
 1101              		@ sp needed
 1102 0032 BDE83040 		pop	{r4, r5, lr}
 1103              		.cfi_restore 14
 1104              		.cfi_restore 5
 1105              		.cfi_restore 4
 1106              		.cfi_def_cfa_offset 8
 1107              	.LVL192:
 1108 0036 02B0     		add	sp, sp, #8
 1109              		.cfi_restore 3
 1110              		.cfi_restore 2
 1111              		.cfi_def_cfa_offset 0
 1112 0038 7047     		bx	lr
 1113              	.LVL193:
 1114              	.L132:
 1115              		.cfi_restore_state
 1116              		.loc 1 321 0
 1117 003a 0146     		mov	r1, r0
 1118              	.LVL194:
 1119 003c 2346     		mov	r3, r4
 1120 003e 01A8     		add	r0, sp, #4
 1121              	.LVL195:
 1122 0040 2246     		mov	r2, r4
 1123 0042 FFF7FEFF 		bl	msObjectInit
 1124              	.LVL196:
 1125              		.loc 1 325 0
 1126 0046 0BAB     		add	r3, sp, #44
 1127              		.loc 1 326 0
 1128 0048 01A8     		add	r0, sp, #4
 1129              	.LVL197:
 1130 004a 1A46     		mov	r2, r3
 1131 004c 0A99     		ldr	r1, [sp, #40]
 1132              		.loc 1 325 0
 1133 004e 0093     		str	r3, [sp]
 1134              		.loc 1 326 0
 1135 0050 FFF7FEFF 		bl	chvprintf
 1136              	.LVL198:
 1137              		.loc 1 335 0
 1138 0054 07B0     		add	sp, sp, #28
 1139              		.cfi_def_cfa_offset 20
 1140              		@ sp needed
ARM GAS  /tmp/cc0xe9oP.s 			page 21


 1141 0056 BDE83040 		pop	{r4, r5, lr}
 1142              		.cfi_restore 4
 1143              		.cfi_restore 5
 1144              		.cfi_restore 14
 1145              		.cfi_def_cfa_offset 8
 1146              	.LVL199:
 1147 005a 02B0     		add	sp, sp, #8
 1148              		.cfi_restore 2
 1149              		.cfi_restore 3
 1150              		.cfi_def_cfa_offset 0
 1151 005c 7047     		bx	lr
 1152              		.cfi_endproc
 1153              	.LFE263:
 1154              		.size	chsnprintf, .-chsnprintf
 1155 005e 00BF     		.section	.rodata.chvprintf.str1.4,"aMS",%progbits,1
 1156              		.align	2
 1157              	.LC0:
 1158 0000 286E756C 		.ascii	"(null)\000"
 1158      6C2900
 1159              		.section	.rodata.pow10,"a",%progbits
 1160              		.align	2
 1161              		.set	.LANCHOR0,. + 0
 1162              		.type	pow10, %object
 1163              		.size	pow10, 36
 1164              	pow10:
 1165 0000 0A000000 		.word	10
 1166 0004 64000000 		.word	100
 1167 0008 E8030000 		.word	1000
 1168 000c 10270000 		.word	10000
 1169 0010 A0860100 		.word	100000
 1170 0014 40420F00 		.word	1000000
 1171 0018 80969800 		.word	10000000
 1172 001c 00E1F505 		.word	100000000
 1173 0020 00CA9A3B 		.word	1000000000
 1174              		.text
 1175              	.Letext0:
 1176              		.file 2 "/usr/lib/gcc/arm-none-eabi/6.2.1/include/stddef.h"
 1177              		.file 3 "/usr/arm-none-eabi/include/machine/_default_types.h"
 1178              		.file 4 "/usr/arm-none-eabi/include/sys/_stdint.h"
 1179              		.file 5 "/home/selim/working/ChibiOS/os/rt/ports/ARMCMx/compilers/GCC/chtypes.h"
 1180              		.file 6 "/home/selim/working/ChibiOS/os/rt/include/chsystypes.h"
 1181              		.file 7 "/home/selim/working/ChibiOS/os/rt/include/chschd.h"
 1182              		.file 8 "/home/selim/working/ChibiOS/os/ext/CMSIS/include/core_cm4.h"
 1183              		.file 9 "/home/selim/working/ChibiOS/os/ext/CMSIS/ST/system_stm32f4xx.h"
 1184              		.file 10 "/home/selim/working/ChibiOS/os/ext/CMSIS/ST/stm32f407xx.h"
 1185              		.file 11 "/home/selim/working/ChibiOS/os/rt/ports/ARMCMx/chcore.h"
 1186              		.file 12 "/home/selim/working/ChibiOS/os/rt/ports/ARMCMx/chcore_v7m.h"
 1187              		.file 13 "/home/selim/working/ChibiOS/os/hal/ports/STM32/LLD/TIMv1/stm32_tim.h"
 1188              		.file 14 "/home/selim/working/ChibiOS/os/rt/include/chtm.h"
 1189              		.file 15 "/home/selim/working/ChibiOS/os/rt/include/chsem.h"
 1190              		.file 16 "/home/selim/working/ChibiOS/os/rt/include/chmtx.h"
 1191              		.file 17 "/home/selim/working/ChibiOS/os/rt/include/chregistry.h"
 1192              		.file 18 "/home/selim/working/ChibiOS/os/rt/include/chevents.h"
 1193              		.file 19 "/home/selim/working/ChibiOS/os/rt/include/chqueues.h"
 1194              		.file 20 "/home/selim/working/ChibiOS/os/rt/include/chstreams.h"
 1195              		.file 21 "/home/selim/working/ChibiOS/os/hal/ports/STM32/STM32F4xx/stm32_dma.h"
 1196              		.file 22 "/home/selim/working/ChibiOS/os/hal/ports/STM32/LLD/GPIOv2/pal_lld.h"
ARM GAS  /tmp/cc0xe9oP.s 			page 22


 1197              		.file 23 "/home/selim/working/ChibiOS/os/hal/include/adc.h"
 1198              		.file 24 "/home/selim/working/ChibiOS/os/hal/ports/STM32/STM32F4xx/adc_lld.h"
 1199              		.file 25 "/home/selim/working/ChibiOS/os/hal/include/gpt.h"
 1200              		.file 26 "/home/selim/working/ChibiOS/os/hal/ports/STM32/LLD/TIMv1/gpt_lld.h"
 1201              		.file 27 "/home/selim/working/ChibiOS/os/hal/include/pwm.h"
 1202              		.file 28 "/home/selim/working/ChibiOS/os/hal/ports/STM32/LLD/TIMv1/pwm_lld.h"
 1203              		.file 29 "/home/selim/working/ChibiOS/os/hal/include/serial.h"
 1204              		.file 30 "/home/selim/working/ChibiOS/os/hal/ports/STM32/LLD/USARTv1/serial_lld.h"
 1205              		.file 31 "/home/selim/working/ChibiOS/os/hal/include/spi.h"
 1206              		.file 32 "/home/selim/working/ChibiOS/os/hal/ports/STM32/LLD/SPIv1/spi_lld.h"
 1207              		.file 33 "/home/selim/working/ChibiOS/os/hal/include/usb.h"
 1208              		.file 34 "/home/selim/working/ChibiOS/os/hal/ports/STM32/LLD/OTGv1/usb_lld.h"
 1209              		.file 35 "/home/selim/working/ChibiOS/os/hal/ports/STM32/LLD/OTGv1/stm32_otg.h"
 1210              		.file 36 "/usr/lib/gcc/arm-none-eabi/6.2.1/include/stdarg.h"
 1211              		.file 37 "<built-in>"
 1212              		.file 38 "/home/selim/working/ChibiOS/os/hal/lib/streams/memstreams.h"