ARM GAS  /tmp/ccwwxqPB.s 			page 1


   1              		.cpu cortex-m4
   2              		.eabi_attribute 20, 1
   3              		.eabi_attribute 21, 1
   4              		.eabi_attribute 23, 3
   5              		.eabi_attribute 24, 1
   6              		.eabi_attribute 25, 1
   7              		.eabi_attribute 26, 1
   8              		.eabi_attribute 30, 2
   9              		.eabi_attribute 34, 1
  10              		.eabi_attribute 18, 4
  11              		.file	"chqueues.c"
  12              		.text
  13              	.Ltext0:
  14              		.cfi_sections	.debug_frame
  15              		.section	.text.chIQObjectInit,"ax",%progbits
  16              		.align	1
  17              		.p2align 4,,15
  18              		.global	chIQObjectInit
  19              		.syntax unified
  20              		.thumb
  21              		.thumb_func
  22              		.fpu softvfp
  23              		.type	chIQObjectInit, %function
  24              	chIQObjectInit:
  25              	.LFB227:
  26              		.file 1 "/home/selim/working/ChibiOS/os/rt/src/chqueues.c"
  27              		.loc 1 88 0
  28              		.cfi_startproc
  29              		@ args = 4, pretend = 0, frame = 0
  30              		@ frame_needed = 0, uses_anonymous_args = 0
  31              		@ link register save eliminated.
  32              	.LVL0:
  33 0000 30B4     		push	{r4, r5}
  34              		.cfi_def_cfa_offset 8
  35              		.cfi_offset 4, -8
  36              		.cfi_offset 5, -4
  37              		.loc 1 88 0
  38 0002 029C     		ldr	r4, [sp, #8]
  39              		.loc 1 97 0
  40 0004 0462     		str	r4, [r0, #32]
  41              		.loc 1 91 0
  42 0006 0025     		movs	r5, #0
  43              		.loc 1 95 0
  44 0008 0A44     		add	r2, r2, r1
  45              	.LVL1:
  46              		.loc 1 91 0
  47 000a 8560     		str	r5, [r0, #8]
  48              		.loc 1 95 0
  49 000c 0261     		str	r2, [r0, #16]
  50              	.LBB108:
  51              	.LBB109:
  52              	.LBB110:
  53              		.file 2 "/home/selim/working/ChibiOS/os/rt/include/chschd.h"
  54              		.loc 2 604 0
  55 000e 0060     		str	r0, [r0]
  56              		.loc 2 605 0
  57 0010 4060     		str	r0, [r0, #4]
ARM GAS  /tmp/ccwwxqPB.s 			page 2


  58              	.LVL2:
  59              	.LBE110:
  60              	.LBE109:
  61              	.LBE108:
  62              		.loc 1 92 0
  63 0012 C160     		str	r1, [r0, #12]
  64              		.loc 1 93 0
  65 0014 8161     		str	r1, [r0, #24]
  66              		.loc 1 94 0
  67 0016 4161     		str	r1, [r0, #20]
  68              		.loc 1 96 0
  69 0018 C361     		str	r3, [r0, #28]
  70              		.loc 1 98 0
  71 001a 30BC     		pop	{r4, r5}
  72              		.cfi_restore 5
  73              		.cfi_restore 4
  74              		.cfi_def_cfa_offset 0
  75              	.LVL3:
  76 001c 7047     		bx	lr
  77              		.cfi_endproc
  78              	.LFE227:
  79              		.size	chIQObjectInit, .-chIQObjectInit
  80 001e 00BF     		.section	.text.chIQResetI,"ax",%progbits
  81              		.align	1
  82              		.p2align 4,,15
  83              		.global	chIQResetI
  84              		.syntax unified
  85              		.thumb
  86              		.thumb_func
  87              		.fpu softvfp
  88              		.type	chIQResetI, %function
  89              	chIQResetI:
  90              	.LFB228:
  91              		.loc 1 111 0
  92              		.cfi_startproc
  93              		@ args = 0, pretend = 0, frame = 0
  94              		@ frame_needed = 0, uses_anonymous_args = 0
  95              		@ link register save eliminated.
  96              	.LVL4:
  97              		.loc 1 117 0
  98 0000 0021     		movs	r1, #0
  99              		.loc 1 115 0
 100 0002 C268     		ldr	r2, [r0, #12]
 101              		.loc 1 117 0
 102 0004 8160     		str	r1, [r0, #8]
 103              		.loc 1 115 0
 104 0006 8261     		str	r2, [r0, #24]
 105              		.loc 1 116 0
 106 0008 4261     		str	r2, [r0, #20]
 107              		.loc 1 118 0
 108 000a 6FF00101 		mvn	r1, #1
 109 000e FFF7FEBF 		b	chThdDequeueAllI
 110              	.LVL5:
 111              		.cfi_endproc
 112              	.LFE228:
 113              		.size	chIQResetI, .-chIQResetI
 114 0012 00BF     		.section	.text.chIQPutI,"ax",%progbits
ARM GAS  /tmp/ccwwxqPB.s 			page 3


 115              		.align	1
 116              		.p2align 4,,15
 117              		.global	chIQPutI
 118              		.syntax unified
 119              		.thumb
 120              		.thumb_func
 121              		.fpu softvfp
 122              		.type	chIQPutI, %function
 123              	chIQPutI:
 124              	.LFB229:
 125              		.loc 1 134 0
 126              		.cfi_startproc
 127              		@ args = 0, pretend = 0, frame = 0
 128              		@ frame_needed = 0, uses_anonymous_args = 0
 129              	.LVL6:
 130              	.LBB111:
 131              	.LBB112:
 132              		.file 3 "/home/selim/working/ChibiOS/os/rt/include/chqueues.h"
 133              		.loc 3 324 0
 134 0000 8369     		ldr	r3, [r0, #24]
 135 0002 4269     		ldr	r2, [r0, #20]
 136 0004 9A42     		cmp	r2, r3
 137 0006 8368     		ldr	r3, [r0, #8]
 138 0008 10D0     		beq	.L15
 139              	.L7:
 140              	.LVL7:
 141              	.LBE112:
 142              	.LBE111:
 143              		.loc 1 134 0
 144 000a 10B5     		push	{r4, lr}
 145              		.cfi_def_cfa_offset 8
 146              		.cfi_offset 4, -8
 147              		.cfi_offset 14, -4
 148              		.loc 1 142 0
 149 000c 0133     		adds	r3, r3, #1
 150              		.loc 1 143 0
 151 000e 541C     		adds	r4, r2, #1
 152              		.loc 1 142 0
 153 0010 8360     		str	r3, [r0, #8]
 154              		.loc 1 143 0
 155 0012 4461     		str	r4, [r0, #20]
 156 0014 1170     		strb	r1, [r2]
 157              		.loc 1 144 0
 158 0016 4269     		ldr	r2, [r0, #20]
 159 0018 0369     		ldr	r3, [r0, #16]
 160 001a 9A42     		cmp	r2, r3
 161 001c 01D3     		bcc	.L9
 162              		.loc 1 145 0
 163 001e C368     		ldr	r3, [r0, #12]
 164 0020 4361     		str	r3, [r0, #20]
 165              	.L9:
 166              		.loc 1 148 0
 167 0022 0021     		movs	r1, #0
 168              	.LVL8:
 169 0024 FFF7FEFF 		bl	chThdDequeueNextI
 170              	.LVL9:
 171              		.loc 1 150 0
ARM GAS  /tmp/ccwwxqPB.s 			page 4


 172 0028 0020     		movs	r0, #0
 173 002a 10BD     		pop	{r4, pc}
 174              	.LVL10:
 175              	.L15:
 176              		.cfi_def_cfa_offset 0
 177              		.cfi_restore 4
 178              		.cfi_restore 14
 179              	.LBB114:
 180              	.LBB113:
 181              		.loc 3 324 0
 182 002c 002B     		cmp	r3, #0
 183 002e ECD0     		beq	.L7
 184              	.LBE113:
 185              	.LBE114:
 186              		.loc 1 139 0
 187 0030 6FF00300 		mvn	r0, #3
 188              	.LVL11:
 189 0034 7047     		bx	lr
 190              		.cfi_endproc
 191              	.LFE229:
 192              		.size	chIQPutI, .-chIQPutI
 193 0036 00BF     		.section	.text.chIQGetTimeout,"ax",%progbits
 194              		.align	1
 195              		.p2align 4,,15
 196              		.global	chIQGetTimeout
 197              		.syntax unified
 198              		.thumb
 199              		.thumb_func
 200              		.fpu softvfp
 201              		.type	chIQGetTimeout, %function
 202              	chIQGetTimeout:
 203              	.LFB230:
 204              		.loc 1 173 0
 205              		.cfi_startproc
 206              		@ args = 0, pretend = 0, frame = 0
 207              		@ frame_needed = 0, uses_anonymous_args = 0
 208              	.LVL12:
 209 0000 70B5     		push	{r4, r5, r6, lr}
 210              		.cfi_def_cfa_offset 16
 211              		.cfi_offset 4, -16
 212              		.cfi_offset 5, -12
 213              		.cfi_offset 6, -8
 214              		.cfi_offset 14, -4
 215              	.LBB115:
 216              	.LBB116:
 217              	.LBB117:
 218              	.LBB118:
 219              		.file 4 "/home/selim/working/ChibiOS/os/ext/CMSIS/include/core_cmFunc.h"
 220              		.loc 4 546 0
 221 0002 2023     		movs	r3, #32
 222              	.LBE118:
 223              	.LBE117:
 224              	.LBE116:
 225              	.LBE115:
 226              		.loc 1 173 0
 227 0004 0E46     		mov	r6, r1
 228 0006 0446     		mov	r4, r0
ARM GAS  /tmp/ccwwxqPB.s 			page 5


 229              	.LBB122:
 230              	.LBB121:
 231              	.LBB120:
 232              	.LBB119:
 233              		.loc 4 546 0
 234              		.syntax unified
 235              	@ 546 "/home/selim/working/ChibiOS/os/ext/CMSIS/include/core_cmFunc.h" 1
 236 0008 83F31188 		MSR basepri, r3
 237              	@ 0 "" 2
 238              	.LVL13:
 239              		.thumb
 240              		.syntax unified
 241              	.LBE119:
 242              	.LBE120:
 243              	.LBE121:
 244              	.LBE122:
 245              		.loc 1 177 0
 246 000c C369     		ldr	r3, [r0, #28]
 247 000e 2BB1     		cbz	r3, .L18
 248              		.loc 1 178 0
 249 0010 9847     		blx	r3
 250              	.LVL14:
 251 0012 03E0     		b	.L18
 252              	.LVL15:
 253              	.L20:
 254              	.LBB123:
 255              		.loc 1 182 0
 256 0014 FFF7FEFF 		bl	chThdEnqueueTimeoutS
 257              	.LVL16:
 258              		.loc 1 183 0
 259 0018 0028     		cmp	r0, #0
 260 001a 15DB     		blt	.L27
 261              	.LVL17:
 262              	.L18:
 263 001c A568     		ldr	r5, [r4, #8]
 264              	.LVL18:
 265              		.loc 1 182 0
 266 001e 3146     		mov	r1, r6
 267 0020 2046     		mov	r0, r4
 268              	.LBE123:
 269              		.loc 1 181 0
 270 0022 002D     		cmp	r5, #0
 271 0024 F6D0     		beq	.L20
 272              	.LVL19:
 273              		.loc 1 190 0
 274 0026 A269     		ldr	r2, [r4, #24]
 275              		.loc 1 191 0
 276 0028 2169     		ldr	r1, [r4, #16]
 277              	.LVL20:
 278              		.loc 1 190 0
 279 002a 531C     		adds	r3, r2, #1
 280              		.loc 1 191 0
 281 002c 8B42     		cmp	r3, r1
 282              		.loc 1 189 0
 283 002e 05F1FF35 		add	r5, r5, #-1
 284              		.loc 1 190 0
 285 0032 A361     		str	r3, [r4, #24]
ARM GAS  /tmp/ccwwxqPB.s 			page 6


 286              		.loc 1 189 0
 287 0034 A560     		str	r5, [r4, #8]
 288              		.loc 1 192 0
 289 0036 28BF     		it	cs
 290 0038 E368     		ldrcs	r3, [r4, #12]
 291              		.loc 1 190 0
 292 003a 1078     		ldrb	r0, [r2]	@ zero_extendqisi2
 293              	.LVL21:
 294              		.loc 1 192 0
 295 003c 28BF     		it	cs
 296 003e A361     		strcs	r3, [r4, #24]
 297              	.LVL22:
 298              	.LBB129:
 299              	.LBB130:
 300              	.LBB131:
 301              	.LBB132:
 302              	.LBB133:
 303              		.loc 4 546 0
 304 0040 0023     		movs	r3, #0
 305              		.syntax unified
 306              	@ 546 "/home/selim/working/ChibiOS/os/ext/CMSIS/include/core_cmFunc.h" 1
 307 0042 83F31188 		MSR basepri, r3
 308              	@ 0 "" 2
 309              	.LVL23:
 310              		.thumb
 311              		.syntax unified
 312              	.LBE133:
 313              	.LBE132:
 314              	.LBE131:
 315              	.LBE130:
 316              	.LBE129:
 317              		.loc 1 197 0
 318 0046 70BD     		pop	{r4, r5, r6, pc}
 319              	.LVL24:
 320              	.L27:
 321              	.LBB134:
 322              	.LBB124:
 323              	.LBB125:
 324              	.LBB126:
 325              	.LBB127:
 326              	.LBB128:
 327              		.loc 4 546 0
 328              		.syntax unified
 329              	@ 546 "/home/selim/working/ChibiOS/os/ext/CMSIS/include/core_cmFunc.h" 1
 330 0048 85F31188 		MSR basepri, r5
 331              	@ 0 "" 2
 332              	.LVL25:
 333              		.thumb
 334              		.syntax unified
 335              	.LBE128:
 336              	.LBE127:
 337              	.LBE126:
 338              	.LBE125:
 339              	.LBE124:
 340              		.loc 1 185 0
 341 004c 70BD     		pop	{r4, r5, r6, pc}
 342              	.LBE134:
ARM GAS  /tmp/ccwwxqPB.s 			page 7


 343              		.cfi_endproc
 344              	.LFE230:
 345              		.size	chIQGetTimeout, .-chIQGetTimeout
 346 004e 00BF     		.section	.text.chIQReadTimeout,"ax",%progbits
 347              		.align	1
 348              		.p2align 4,,15
 349              		.global	chIQReadTimeout
 350              		.syntax unified
 351              		.thumb
 352              		.thumb_func
 353              		.fpu softvfp
 354              		.type	chIQReadTimeout, %function
 355              	chIQReadTimeout:
 356              	.LFB231:
 357              		.loc 1 224 0
 358              		.cfi_startproc
 359              		@ args = 0, pretend = 0, frame = 8
 360              		@ frame_needed = 0, uses_anonymous_args = 0
 361              	.LVL26:
 362 0000 2DE9F04F 		push	{r4, r5, r6, r7, r8, r9, r10, fp, lr}
 363              		.cfi_def_cfa_offset 36
 364              		.cfi_offset 4, -36
 365              		.cfi_offset 5, -32
 366              		.cfi_offset 6, -28
 367              		.cfi_offset 7, -24
 368              		.cfi_offset 8, -20
 369              		.cfi_offset 9, -16
 370              		.cfi_offset 10, -12
 371              		.cfi_offset 11, -8
 372              		.cfi_offset 14, -4
 373 0004 0446     		mov	r4, r0
 374 0006 83B0     		sub	sp, sp, #12
 375              		.cfi_def_cfa_offset 48
 376              		.loc 1 224 0
 377 0008 8946     		mov	r9, r1
 378 000a 9346     		mov	fp, r2
 379 000c 1D46     		mov	r5, r3
 380              		.loc 1 225 0
 381 000e D0F81C80 		ldr	r8, [r0, #28]
 382              	.LVL27:
 383              	.LBB135:
 384              	.LBB136:
 385              	.LBB137:
 386              	.LBB138:
 387              		.loc 4 546 0
 388 0012 2027     		movs	r7, #32
 389              		.syntax unified
 390              	@ 546 "/home/selim/working/ChibiOS/os/ext/CMSIS/include/core_cmFunc.h" 1
 391 0014 87F31188 		MSR basepri, r7
 392              	@ 0 "" 2
 393              	.LVL28:
 394              		.thumb
 395              		.syntax unified
 396              	.LBE138:
 397              	.LBE137:
 398              	.LBE136:
 399              	.LBE135:
ARM GAS  /tmp/ccwwxqPB.s 			page 8


 400              		.loc 1 226 0
 401 0018 0026     		movs	r6, #0
 402              	.LBB139:
 403              	.LBB140:
 404              	.LBB141:
 405              	.LBB142:
 406              		.loc 4 546 0
 407 001a 0197     		str	r7, [sp, #4]
 408              	.LBE142:
 409              	.LBE141:
 410              	.LBE140:
 411              	.LBE139:
 412              	.LBB146:
 413              	.LBB147:
 414              	.LBB148:
 415              	.LBB149:
 416              	.LBB150:
 417 001c B246     		mov	r10, r6
 418              	.LVL29:
 419              	.L34:
 420              	.LBE150:
 421              	.LBE149:
 422              	.LBE148:
 423              	.LBE147:
 424              	.LBE146:
 425              		.loc 1 232 0
 426 001e B8F1000F 		cmp	r8, #0
 427 0022 05D0     		beq	.L30
 428              		.loc 1 233 0
 429 0024 2046     		mov	r0, r4
 430              	.LVL30:
 431 0026 C047     		blx	r8
 432              	.LVL31:
 433 0028 02E0     		b	.L30
 434              	.LVL32:
 435              	.L32:
 436              		.loc 1 237 0
 437 002a FFF7FEFF 		bl	chThdEnqueueTimeoutS
 438              	.LVL33:
 439 002e D8B9     		cbnz	r0, .L41
 440              	.LVL34:
 441              	.L30:
 442 0030 A768     		ldr	r7, [r4, #8]
 443              	.LVL35:
 444 0032 2946     		mov	r1, r5
 445 0034 2046     		mov	r0, r4
 446              		.loc 1 236 0
 447 0036 002F     		cmp	r7, #0
 448 0038 F7D0     		beq	.L32
 449              	.LVL36:
 450              		.loc 1 244 0
 451 003a A269     		ldr	r2, [r4, #24]
 452              		.loc 1 243 0
 453 003c 013F     		subs	r7, r7, #1
 454              		.loc 1 244 0
 455 003e 511C     		adds	r1, r2, #1
 456              	.LVL37:
ARM GAS  /tmp/ccwwxqPB.s 			page 9


 457 0040 A161     		str	r1, [r4, #24]
 458              		.loc 1 243 0
 459 0042 A760     		str	r7, [r4, #8]
 460              		.loc 1 244 0
 461 0044 1378     		ldrb	r3, [r2]	@ zero_extendqisi2
 462 0046 09F8013B 		strb	r3, [r9], #1
 463              	.LVL38:
 464              		.loc 1 245 0
 465 004a 2369     		ldr	r3, [r4, #16]
 466 004c A269     		ldr	r2, [r4, #24]
 467 004e 9A42     		cmp	r2, r3
 468              		.loc 1 246 0
 469 0050 24BF     		itt	cs
 470 0052 E368     		ldrcs	r3, [r4, #12]
 471 0054 A361     		strcs	r3, [r4, #24]
 472              	.LVL39:
 473              	.LBB155:
 474              	.LBB154:
 475              	.LBB153:
 476              	.LBB152:
 477              	.LBB151:
 478              		.loc 4 546 0
 479              		.syntax unified
 480              	@ 546 "/home/selim/working/ChibiOS/os/ext/CMSIS/include/core_cmFunc.h" 1
 481 0056 8AF31188 		MSR basepri, r10
 482              	@ 0 "" 2
 483              	.LVL40:
 484              		.thumb
 485              		.syntax unified
 486              	.LBE151:
 487              	.LBE152:
 488              	.LBE153:
 489              	.LBE154:
 490              	.LBE155:
 491              		.loc 1 250 0
 492 005a 0136     		adds	r6, r6, #1
 493              	.LVL41:
 494              		.loc 1 251 0
 495 005c B345     		cmp	fp, r6
 496 005e 05D0     		beq	.L28
 497              	.LVL42:
 498              	.LBB156:
 499              	.LBB145:
 500              	.LBB144:
 501              	.LBB143:
 502              		.loc 4 546 0
 503 0060 019B     		ldr	r3, [sp, #4]
 504              		.syntax unified
 505              	@ 546 "/home/selim/working/ChibiOS/os/ext/CMSIS/include/core_cmFunc.h" 1
 506 0062 83F31188 		MSR basepri, r3
 507              	@ 0 "" 2
 508              	.LVL43:
 509              		.thumb
 510              		.syntax unified
 511 0066 DAE7     		b	.L34
 512              	.LVL44:
 513              	.L41:
ARM GAS  /tmp/ccwwxqPB.s 			page 10


 514              	.LBE143:
 515              	.LBE144:
 516              	.LBE145:
 517              	.LBE156:
 518              	.LBB157:
 519              	.LBB158:
 520              	.LBB159:
 521              	.LBB160:
 522              	.LBB161:
 523              		.syntax unified
 524              	@ 546 "/home/selim/working/ChibiOS/os/ext/CMSIS/include/core_cmFunc.h" 1
 525 0068 87F31188 		MSR basepri, r7
 526              	@ 0 "" 2
 527              	.LVL45:
 528              		.thumb
 529              		.syntax unified
 530              	.L28:
 531              	.LBE161:
 532              	.LBE160:
 533              	.LBE159:
 534              	.LBE158:
 535              	.LBE157:
 536              		.loc 1 257 0
 537 006c 3046     		mov	r0, r6
 538 006e 03B0     		add	sp, sp, #12
 539              		.cfi_def_cfa_offset 36
 540              		@ sp needed
 541 0070 BDE8F08F 		pop	{r4, r5, r6, r7, r8, r9, r10, fp, pc}
 542              		.cfi_endproc
 543              	.LFE231:
 544              		.size	chIQReadTimeout, .-chIQReadTimeout
 545              		.section	.text.chOQObjectInit,"ax",%progbits
 546              		.align	1
 547              		.p2align 4,,15
 548              		.global	chOQObjectInit
 549              		.syntax unified
 550              		.thumb
 551              		.thumb_func
 552              		.fpu softvfp
 553              		.type	chOQObjectInit, %function
 554              	chOQObjectInit:
 555              	.LFB232:
 556              		.loc 1 276 0
 557              		.cfi_startproc
 558              		@ args = 4, pretend = 0, frame = 0
 559              		@ frame_needed = 0, uses_anonymous_args = 0
 560              		@ link register save eliminated.
 561              	.LVL46:
 562 0000 30B4     		push	{r4, r5}
 563              		.cfi_def_cfa_offset 8
 564              		.cfi_offset 4, -8
 565              		.cfi_offset 5, -4
 566              		.loc 1 276 0
 567 0002 029C     		ldr	r4, [sp, #8]
 568              		.loc 1 285 0
 569 0004 0462     		str	r4, [r0, #32]
 570              		.loc 1 283 0
ARM GAS  /tmp/ccwwxqPB.s 			page 11


 571 0006 8D18     		adds	r5, r1, r2
 572 0008 0561     		str	r5, [r0, #16]
 573              	.LBB162:
 574              	.LBB163:
 575              	.LBB164:
 576              		.loc 2 604 0
 577 000a 0060     		str	r0, [r0]
 578              		.loc 2 605 0
 579 000c 4060     		str	r0, [r0, #4]
 580              	.LVL47:
 581              	.LBE164:
 582              	.LBE163:
 583              	.LBE162:
 584              		.loc 1 279 0
 585 000e 8260     		str	r2, [r0, #8]
 586              		.loc 1 280 0
 587 0010 C160     		str	r1, [r0, #12]
 588              		.loc 1 281 0
 589 0012 8161     		str	r1, [r0, #24]
 590              		.loc 1 282 0
 591 0014 4161     		str	r1, [r0, #20]
 592              		.loc 1 284 0
 593 0016 C361     		str	r3, [r0, #28]
 594              		.loc 1 286 0
 595 0018 30BC     		pop	{r4, r5}
 596              		.cfi_restore 5
 597              		.cfi_restore 4
 598              		.cfi_def_cfa_offset 0
 599              	.LVL48:
 600 001a 7047     		bx	lr
 601              		.cfi_endproc
 602              	.LFE232:
 603              		.size	chOQObjectInit, .-chOQObjectInit
 604              		.section	.text.chOQResetI,"ax",%progbits
 605              		.align	1
 606              		.p2align 4,,15
 607              		.global	chOQResetI
 608              		.syntax unified
 609              		.thumb
 610              		.thumb_func
 611              		.fpu softvfp
 612              		.type	chOQResetI, %function
 613              	chOQResetI:
 614              	.LFB233:
 615              		.loc 1 299 0
 616              		.cfi_startproc
 617              		@ args = 0, pretend = 0, frame = 0
 618              		@ frame_needed = 0, uses_anonymous_args = 0
 619              		@ link register save eliminated.
 620              	.LVL49:
 621 0000 10B4     		push	{r4}
 622              		.cfi_def_cfa_offset 4
 623              		.cfi_offset 4, -4
 624              		.loc 1 305 0
 625 0002 0269     		ldr	r2, [r0, #16]
 626              		.loc 1 303 0
 627 0004 C468     		ldr	r4, [r0, #12]
ARM GAS  /tmp/ccwwxqPB.s 			page 12


 628 0006 8461     		str	r4, [r0, #24]
 629              		.loc 1 305 0
 630 0008 121B     		subs	r2, r2, r4
 631              		.loc 1 304 0
 632 000a 4461     		str	r4, [r0, #20]
 633              		.loc 1 306 0
 634 000c 6FF00101 		mvn	r1, #1
 635              		.loc 1 305 0
 636 0010 8260     		str	r2, [r0, #8]
 637              		.loc 1 307 0
 638 0012 10BC     		pop	{r4}
 639              		.cfi_restore 4
 640              		.cfi_def_cfa_offset 0
 641              		.loc 1 306 0
 642 0014 FFF7FEBF 		b	chThdDequeueAllI
 643              	.LVL50:
 644              		.cfi_endproc
 645              	.LFE233:
 646              		.size	chOQResetI, .-chOQResetI
 647              		.section	.text.chOQPutTimeout,"ax",%progbits
 648              		.align	1
 649              		.p2align 4,,15
 650              		.global	chOQPutTimeout
 651              		.syntax unified
 652              		.thumb
 653              		.thumb_func
 654              		.fpu softvfp
 655              		.type	chOQPutTimeout, %function
 656              	chOQPutTimeout:
 657              	.LFB234:
 658              		.loc 1 331 0
 659              		.cfi_startproc
 660              		@ args = 0, pretend = 0, frame = 0
 661              		@ frame_needed = 0, uses_anonymous_args = 0
 662              	.LVL51:
 663 0000 F8B5     		push	{r3, r4, r5, r6, r7, lr}
 664              		.cfi_def_cfa_offset 24
 665              		.cfi_offset 3, -24
 666              		.cfi_offset 4, -20
 667              		.cfi_offset 5, -16
 668              		.cfi_offset 6, -12
 669              		.cfi_offset 7, -8
 670              		.cfi_offset 14, -4
 671              		.loc 1 331 0
 672 0002 0446     		mov	r4, r0
 673 0004 0F46     		mov	r7, r1
 674 0006 1646     		mov	r6, r2
 675              	.LBB165:
 676              	.LBB166:
 677              	.LBB167:
 678              	.LBB168:
 679              		.loc 4 546 0
 680 0008 2023     		movs	r3, #32
 681              		.syntax unified
 682              	@ 546 "/home/selim/working/ChibiOS/os/ext/CMSIS/include/core_cmFunc.h" 1
 683 000a 83F31188 		MSR basepri, r3
 684              	@ 0 "" 2
ARM GAS  /tmp/ccwwxqPB.s 			page 13


 685              	.LVL52:
 686              		.thumb
 687              		.syntax unified
 688 000e 03E0     		b	.L47
 689              	.LVL53:
 690              	.L49:
 691              	.LBE168:
 692              	.LBE167:
 693              	.LBE166:
 694              	.LBE165:
 695              	.LBB169:
 696              		.loc 1 335 0
 697 0010 FFF7FEFF 		bl	chThdEnqueueTimeoutS
 698              	.LVL54:
 699              		.loc 1 336 0
 700 0014 0028     		cmp	r0, #0
 701 0016 18DB     		blt	.L57
 702              	.LVL55:
 703              	.L47:
 704 0018 A568     		ldr	r5, [r4, #8]
 705              	.LVL56:
 706              		.loc 1 335 0
 707 001a 3146     		mov	r1, r6
 708 001c 2046     		mov	r0, r4
 709              	.LBE169:
 710              		.loc 1 334 0
 711 001e 002D     		cmp	r5, #0
 712 0020 F6D0     		beq	.L49
 713              	.LVL57:
 714              		.loc 1 343 0
 715 0022 6369     		ldr	r3, [r4, #20]
 716              		.loc 1 342 0
 717 0024 013D     		subs	r5, r5, #1
 718              		.loc 1 343 0
 719 0026 5A1C     		adds	r2, r3, #1
 720 0028 6261     		str	r2, [r4, #20]
 721              		.loc 1 342 0
 722 002a A560     		str	r5, [r4, #8]
 723              		.loc 1 343 0
 724 002c 1F70     		strb	r7, [r3]
 725              		.loc 1 344 0
 726 002e 2369     		ldr	r3, [r4, #16]
 727 0030 6269     		ldr	r2, [r4, #20]
 728 0032 9A42     		cmp	r2, r3
 729              		.loc 1 345 0
 730 0034 24BF     		itt	cs
 731 0036 E368     		ldrcs	r3, [r4, #12]
 732 0038 6361     		strcs	r3, [r4, #20]
 733              		.loc 1 348 0
 734 003a E369     		ldr	r3, [r4, #28]
 735 003c 0BB1     		cbz	r3, .L51
 736              		.loc 1 349 0
 737 003e 2046     		mov	r0, r4
 738              	.LVL58:
 739 0040 9847     		blx	r3
 740              	.LVL59:
 741              	.L51:
ARM GAS  /tmp/ccwwxqPB.s 			page 14


 742              	.LBB175:
 743              	.LBB176:
 744              	.LBB177:
 745              	.LBB178:
 746              	.LBB179:
 747              		.loc 4 546 0
 748 0042 0020     		movs	r0, #0
 749              		.syntax unified
 750              	@ 546 "/home/selim/working/ChibiOS/os/ext/CMSIS/include/core_cmFunc.h" 1
 751 0044 80F31188 		MSR basepri, r0
 752              	@ 0 "" 2
 753              	.LVL60:
 754              		.thumb
 755              		.syntax unified
 756              	.LBE179:
 757              	.LBE178:
 758              	.LBE177:
 759              	.LBE176:
 760              	.LBE175:
 761              		.loc 1 354 0
 762 0048 F8BD     		pop	{r3, r4, r5, r6, r7, pc}
 763              	.LVL61:
 764              	.L57:
 765              	.LBB180:
 766              	.LBB170:
 767              	.LBB171:
 768              	.LBB172:
 769              	.LBB173:
 770              	.LBB174:
 771              		.loc 4 546 0
 772              		.syntax unified
 773              	@ 546 "/home/selim/working/ChibiOS/os/ext/CMSIS/include/core_cmFunc.h" 1
 774 004a 85F31188 		MSR basepri, r5
 775              	@ 0 "" 2
 776              	.LVL62:
 777              		.thumb
 778              		.syntax unified
 779              	.LBE174:
 780              	.LBE173:
 781              	.LBE172:
 782              	.LBE171:
 783              	.LBE170:
 784              		.loc 1 338 0
 785 004e F8BD     		pop	{r3, r4, r5, r6, r7, pc}
 786              	.LBE180:
 787              		.cfi_endproc
 788              	.LFE234:
 789              		.size	chOQPutTimeout, .-chOQPutTimeout
 790              		.section	.text.chOQGetI,"ax",%progbits
 791              		.align	1
 792              		.p2align 4,,15
 793              		.global	chOQGetI
 794              		.syntax unified
 795              		.thumb
 796              		.thumb_func
 797              		.fpu softvfp
 798              		.type	chOQGetI, %function
ARM GAS  /tmp/ccwwxqPB.s 			page 15


 799              	chOQGetI:
 800              	.LFB235:
 801              		.loc 1 366 0
 802              		.cfi_startproc
 803              		@ args = 0, pretend = 0, frame = 0
 804              		@ frame_needed = 0, uses_anonymous_args = 0
 805              	.LVL63:
 806 0000 38B5     		push	{r3, r4, r5, lr}
 807              		.cfi_def_cfa_offset 16
 808              		.cfi_offset 3, -16
 809              		.cfi_offset 4, -12
 810              		.cfi_offset 5, -8
 811              		.cfi_offset 14, -4
 812              	.LBB181:
 813              	.LBB182:
 814              		.loc 3 390 0
 815 0002 8269     		ldr	r2, [r0, #24]
 816 0004 4369     		ldr	r3, [r0, #20]
 817 0006 9342     		cmp	r3, r2
 818 0008 8368     		ldr	r3, [r0, #8]
 819 000a 0ED0     		beq	.L66
 820              	.L61:
 821              	.LVL64:
 822              	.LBE182:
 823              	.LBE181:
 824              		.loc 1 377 0
 825 000c 0569     		ldr	r5, [r0, #16]
 826              		.loc 1 376 0
 827 000e 511C     		adds	r1, r2, #1
 828              		.loc 1 375 0
 829 0010 0133     		adds	r3, r3, #1
 830 0012 8360     		str	r3, [r0, #8]
 831              		.loc 1 376 0
 832 0014 8161     		str	r1, [r0, #24]
 833              		.loc 1 377 0
 834 0016 A942     		cmp	r1, r5
 835              		.loc 1 376 0
 836 0018 1478     		ldrb	r4, [r2]	@ zero_extendqisi2
 837              	.LVL65:
 838              		.loc 1 377 0
 839 001a 01D3     		bcc	.L63
 840              		.loc 1 378 0
 841 001c C368     		ldr	r3, [r0, #12]
 842 001e 8361     		str	r3, [r0, #24]
 843              	.L63:
 844              		.loc 1 381 0
 845 0020 0021     		movs	r1, #0
 846 0022 FFF7FEFF 		bl	chThdDequeueNextI
 847              	.LVL66:
 848              		.loc 1 383 0
 849 0026 2046     		mov	r0, r4
 850 0028 38BD     		pop	{r3, r4, r5, pc}
 851              	.LVL67:
 852              	.L66:
 853              	.LBB184:
 854              	.LBB183:
 855              		.loc 3 390 0
ARM GAS  /tmp/ccwwxqPB.s 			page 16


 856 002a 002B     		cmp	r3, #0
 857 002c EED0     		beq	.L61
 858              	.LBE183:
 859              	.LBE184:
 860              		.loc 1 372 0
 861 002e 6FF00200 		mvn	r0, #2
 862              	.LVL68:
 863 0032 38BD     		pop	{r3, r4, r5, pc}
 864              		.cfi_endproc
 865              	.LFE235:
 866              		.size	chOQGetI, .-chOQGetI
 867              		.section	.text.chOQWriteTimeout,"ax",%progbits
 868              		.align	1
 869              		.p2align 4,,15
 870              		.global	chOQWriteTimeout
 871              		.syntax unified
 872              		.thumb
 873              		.thumb_func
 874              		.fpu softvfp
 875              		.type	chOQWriteTimeout, %function
 876              	chOQWriteTimeout:
 877              	.LFB236:
 878              		.loc 1 411 0
 879              		.cfi_startproc
 880              		@ args = 0, pretend = 0, frame = 8
 881              		@ frame_needed = 0, uses_anonymous_args = 0
 882              	.LVL69:
 883 0000 2DE9F04F 		push	{r4, r5, r6, r7, r8, r9, r10, fp, lr}
 884              		.cfi_def_cfa_offset 36
 885              		.cfi_offset 4, -36
 886              		.cfi_offset 5, -32
 887              		.cfi_offset 6, -28
 888              		.cfi_offset 7, -24
 889              		.cfi_offset 8, -20
 890              		.cfi_offset 9, -16
 891              		.cfi_offset 10, -12
 892              		.cfi_offset 11, -8
 893              		.cfi_offset 14, -4
 894 0004 83B0     		sub	sp, sp, #12
 895              		.cfi_def_cfa_offset 48
 896              		.loc 1 411 0
 897 0006 0446     		mov	r4, r0
 898 0008 0D46     		mov	r5, r1
 899 000a 1646     		mov	r6, r2
 900 000c 0193     		str	r3, [sp, #4]
 901              		.loc 1 412 0
 902 000e D0F81C80 		ldr	r8, [r0, #28]
 903              	.LVL70:
 904              	.LBB185:
 905              	.LBB186:
 906              	.LBB187:
 907              	.LBB188:
 908              		.loc 4 546 0
 909 0012 4FF02009 		mov	r9, #32
 910              		.syntax unified
 911              	@ 546 "/home/selim/working/ChibiOS/os/ext/CMSIS/include/core_cmFunc.h" 1
 912 0016 89F31188 		MSR basepri, r9
ARM GAS  /tmp/ccwwxqPB.s 			page 17


 913              	@ 0 "" 2
 914              	.LVL71:
 915              		.thumb
 916              		.syntax unified
 917              	.LBE188:
 918              	.LBE187:
 919              	.LBE186:
 920              	.LBE185:
 921              		.loc 1 413 0
 922 001a 0027     		movs	r7, #0
 923              	.LBB189:
 924              	.LBB190:
 925              	.LBB191:
 926              	.LBB192:
 927              	.LBB193:
 928              		.loc 4 546 0
 929 001c BA46     		mov	r10, r7
 930              	.LVL72:
 931              	.L68:
 932 001e A368     		ldr	r3, [r4, #8]
 933              	.LVL73:
 934              	.LBE193:
 935              	.LBE192:
 936              	.LBE191:
 937              	.LBE190:
 938              	.LBE189:
 939              		.loc 1 427 0
 940 0020 05F1010B 		add	fp, r5, #1
 941              	.LVL74:
 942              		.loc 1 426 0
 943 0024 591E     		subs	r1, r3, #1
 944              		.loc 1 433 0
 945 0026 2046     		mov	r0, r4
 946              		.loc 1 419 0
 947 0028 FBB1     		cbz	r3, .L71
 948              	.LVL75:
 949              	.L84:
 950              		.loc 1 427 0
 951 002a 6369     		ldr	r3, [r4, #20]
 952              		.loc 1 426 0
 953 002c A160     		str	r1, [r4, #8]
 954              		.loc 1 427 0
 955 002e 591C     		adds	r1, r3, #1
 956 0030 6161     		str	r1, [r4, #20]
 957 0032 2978     		ldrb	r1, [r5]	@ zero_extendqisi2
 958 0034 1970     		strb	r1, [r3]
 959              		.loc 1 428 0
 960 0036 2369     		ldr	r3, [r4, #16]
 961 0038 6169     		ldr	r1, [r4, #20]
 962 003a 9942     		cmp	r1, r3
 963              		.loc 1 429 0
 964 003c 24BF     		itt	cs
 965 003e E368     		ldrcs	r3, [r4, #12]
 966 0040 6361     		strcs	r3, [r4, #20]
 967              		.loc 1 432 0
 968 0042 B8F1000F 		cmp	r8, #0
 969 0046 00D0     		beq	.L73
ARM GAS  /tmp/ccwwxqPB.s 			page 18


 970              		.loc 1 433 0
 971 0048 C047     		blx	r8
 972              	.LVL76:
 973              	.L73:
 974              	.LBB198:
 975              	.LBB197:
 976              	.LBB196:
 977              	.LBB195:
 978              	.LBB194:
 979              		.loc 4 546 0
 980              		.syntax unified
 981              	@ 546 "/home/selim/working/ChibiOS/os/ext/CMSIS/include/core_cmFunc.h" 1
 982 004a 8AF31188 		MSR basepri, r10
 983              	@ 0 "" 2
 984              	.LVL77:
 985              		.thumb
 986              		.syntax unified
 987              	.LBE194:
 988              	.LBE195:
 989              	.LBE196:
 990              	.LBE197:
 991              	.LBE198:
 992              		.loc 1 438 0
 993 004e 013E     		subs	r6, r6, #1
 994              	.LVL78:
 995              		.loc 1 437 0
 996 0050 07F10107 		add	r7, r7, #1
 997              	.LVL79:
 998              		.loc 1 438 0
 999 0054 13D0     		beq	.L67
 1000              	.LBB199:
 1001              	.LBB200:
 1002              	.LBB201:
 1003              	.LBB202:
 1004              		.loc 4 546 0
 1005              		.syntax unified
 1006              	@ 546 "/home/selim/working/ChibiOS/os/ext/CMSIS/include/core_cmFunc.h" 1
 1007 0056 89F31188 		MSR basepri, r9
 1008              	@ 0 "" 2
 1009              	.LVL80:
 1010              		.thumb
 1011              		.syntax unified
 1012 005a A368     		ldr	r3, [r4, #8]
 1013              	.LBE202:
 1014              	.LBE201:
 1015              	.LBE200:
 1016              	.LBE199:
 1017              		.loc 1 427 0
 1018 005c 5D46     		mov	r5, fp
 1019              	.LVL81:
 1020              		.loc 1 426 0
 1021 005e 591E     		subs	r1, r3, #1
 1022              		.loc 1 427 0
 1023 0060 05F1010B 		add	fp, r5, #1
 1024              	.LVL82:
 1025              		.loc 1 433 0
 1026 0064 2046     		mov	r0, r4
ARM GAS  /tmp/ccwwxqPB.s 			page 19


 1027              		.loc 1 419 0
 1028 0066 002B     		cmp	r3, #0
 1029 0068 DFD1     		bne	.L84
 1030              	.LVL83:
 1031              	.L71:
 1032              		.loc 1 420 0
 1033 006a 0199     		ldr	r1, [sp, #4]
 1034 006c 0093     		str	r3, [sp]
 1035 006e 2046     		mov	r0, r4
 1036              	.LVL84:
 1037 0070 FFF7FEFF 		bl	chThdEnqueueTimeoutS
 1038              	.LVL85:
 1039 0074 009B     		ldr	r3, [sp]
 1040 0076 0028     		cmp	r0, #0
 1041 0078 D1D0     		beq	.L68
 1042              	.LVL86:
 1043              	.LBB203:
 1044              	.LBB204:
 1045              	.LBB205:
 1046              	.LBB206:
 1047              	.LBB207:
 1048              		.loc 4 546 0
 1049              		.syntax unified
 1050              	@ 546 "/home/selim/working/ChibiOS/os/ext/CMSIS/include/core_cmFunc.h" 1
 1051 007a 83F31188 		MSR basepri, r3
 1052              	@ 0 "" 2
 1053              	.LVL87:
 1054              		.thumb
 1055              		.syntax unified
 1056              	.L67:
 1057              	.LBE207:
 1058              	.LBE206:
 1059              	.LBE205:
 1060              	.LBE204:
 1061              	.LBE203:
 1062              		.loc 1 443 0
 1063 007e 3846     		mov	r0, r7
 1064 0080 03B0     		add	sp, sp, #12
 1065              		.cfi_def_cfa_offset 36
 1066              		@ sp needed
 1067 0082 BDE8F08F 		pop	{r4, r5, r6, r7, r8, r9, r10, fp, pc}
 1068              		.cfi_endproc
 1069              	.LFE236:
 1070              		.size	chOQWriteTimeout, .-chOQWriteTimeout
 1071 0086 00BF     		.text
 1072              	.Letext0:
 1073              		.file 5 "/usr/lib/gcc/arm-none-eabi/6.2.1/include/stddef.h"
 1074              		.file 6 "/usr/arm-none-eabi/include/machine/_default_types.h"
 1075              		.file 7 "/usr/arm-none-eabi/include/sys/_stdint.h"
 1076              		.file 8 "/home/selim/working/ChibiOS/os/rt/ports/ARMCMx/compilers/GCC/chtypes.h"
 1077              		.file 9 "/home/selim/working/ChibiOS/os/rt/include/chsystypes.h"
 1078              		.file 10 "/home/selim/working/ChibiOS/os/ext/CMSIS/include/core_cm4.h"
 1079              		.file 11 "/home/selim/working/ChibiOS/os/ext/CMSIS/ST/system_stm32f4xx.h"
 1080              		.file 12 "/home/selim/working/ChibiOS/os/rt/ports/ARMCMx/chcore.h"
 1081              		.file 13 "/home/selim/working/ChibiOS/os/rt/ports/ARMCMx/chcore_v7m.h"
 1082              		.file 14 "/home/selim/working/ChibiOS/os/rt/include/chtm.h"
 1083              		.file 15 "/home/selim/working/ChibiOS/os/rt/include/chsem.h"
ARM GAS  /tmp/ccwwxqPB.s 			page 20


 1084              		.file 16 "/home/selim/working/ChibiOS/os/rt/include/chmtx.h"
 1085              		.file 17 "/home/selim/working/ChibiOS/os/rt/include/chregistry.h"
 1086              		.file 18 "/home/selim/working/ChibiOS/os/rt/include/chsys.h"
 1087              		.file 19 "/home/selim/working/ChibiOS/os/rt/include/chthreads.h"
 1088              		.section	.debug_info,"",%progbits
 1089              	.Ldebug_info0:
 1090 0000 F8110000 		.4byte	0x11f8
 1091 0004 0400     		.2byte	0x4
 1092 0006 00000000 		.4byte	.Ldebug_abbrev0
 1093 000a 04       		.byte	0x4
 1094 000b 01       		.uleb128 0x1
 1095 000c F9030000 		.4byte	.LASF172
 1096 0010 0C       		.byte	0xc
 1097 0011 EE020000 		.4byte	.LASF173
 1098 0015 C0000000 		.4byte	.Ldebug_ranges0+0xc0
 1099 0019 00000000 		.4byte	0
 1100 001d 00000000 		.4byte	.Ldebug_line0
 1101 0021 02       		.uleb128 0x2
 1102 0022 04       		.byte	0x4
 1103 0023 05       		.byte	0x5
 1104 0024 696E7400 		.ascii	"int\000"
 1105 0028 03       		.uleb128 0x3
 1106 0029 2E000000 		.4byte	.LASF4
 1107 002d 05       		.byte	0x5
 1108 002e D8       		.byte	0xd8
 1109 002f 33000000 		.4byte	0x33
 1110 0033 04       		.uleb128 0x4
 1111 0034 04       		.byte	0x4
 1112 0035 07       		.byte	0x7
 1113 0036 6F020000 		.4byte	.LASF0
 1114 003a 04       		.uleb128 0x4
 1115 003b 08       		.byte	0x8
 1116 003c 05       		.byte	0x5
 1117 003d 4B010000 		.4byte	.LASF1
 1118 0041 04       		.uleb128 0x4
 1119 0042 08       		.byte	0x8
 1120 0043 04       		.byte	0x4
 1121 0044 ED030000 		.4byte	.LASF2
 1122 0048 04       		.uleb128 0x4
 1123 0049 01       		.byte	0x1
 1124 004a 06       		.byte	0x6
 1125 004b 59010000 		.4byte	.LASF3
 1126 004f 03       		.uleb128 0x3
 1127 0050 56000000 		.4byte	.LASF5
 1128 0054 06       		.byte	0x6
 1129 0055 2B       		.byte	0x2b
 1130 0056 5A000000 		.4byte	0x5a
 1131 005a 04       		.uleb128 0x4
 1132 005b 01       		.byte	0x1
 1133 005c 08       		.byte	0x8
 1134 005d 9B050000 		.4byte	.LASF6
 1135 0061 04       		.uleb128 0x4
 1136 0062 02       		.byte	0x2
 1137 0063 05       		.byte	0x5
 1138 0064 C9050000 		.4byte	.LASF7
 1139 0068 03       		.uleb128 0x3
 1140 0069 C5060000 		.4byte	.LASF8
ARM GAS  /tmp/ccwwxqPB.s 			page 21


 1141 006d 06       		.byte	0x6
 1142 006e 39       		.byte	0x39
 1143 006f 73000000 		.4byte	0x73
 1144 0073 04       		.uleb128 0x4
 1145 0074 02       		.byte	0x2
 1146 0075 07       		.byte	0x7
 1147 0076 DB020000 		.4byte	.LASF9
 1148 007a 03       		.uleb128 0x3
 1149 007b 57030000 		.4byte	.LASF10
 1150 007f 06       		.byte	0x6
 1151 0080 4D       		.byte	0x4d
 1152 0081 85000000 		.4byte	0x85
 1153 0085 04       		.uleb128 0x4
 1154 0086 04       		.byte	0x4
 1155 0087 05       		.byte	0x5
 1156 0088 C4010000 		.4byte	.LASF11
 1157 008c 03       		.uleb128 0x3
 1158 008d FE060000 		.4byte	.LASF12
 1159 0091 06       		.byte	0x6
 1160 0092 4F       		.byte	0x4f
 1161 0093 97000000 		.4byte	0x97
 1162 0097 04       		.uleb128 0x4
 1163 0098 04       		.byte	0x4
 1164 0099 07       		.byte	0x7
 1165 009a A7060000 		.4byte	.LASF13
 1166 009e 03       		.uleb128 0x3
 1167 009f 22050000 		.4byte	.LASF14
 1168 00a3 06       		.byte	0x6
 1169 00a4 69       		.byte	0x69
 1170 00a5 A9000000 		.4byte	0xa9
 1171 00a9 04       		.uleb128 0x4
 1172 00aa 08       		.byte	0x8
 1173 00ab 07       		.byte	0x7
 1174 00ac B5000000 		.4byte	.LASF15
 1175 00b0 03       		.uleb128 0x3
 1176 00b1 96070000 		.4byte	.LASF16
 1177 00b5 07       		.byte	0x7
 1178 00b6 18       		.byte	0x18
 1179 00b7 4F000000 		.4byte	0x4f
 1180 00bb 05       		.uleb128 0x5
 1181 00bc B0000000 		.4byte	0xb0
 1182 00c0 03       		.uleb128 0x3
 1183 00c1 84020000 		.4byte	.LASF17
 1184 00c5 07       		.byte	0x7
 1185 00c6 24       		.byte	0x24
 1186 00c7 68000000 		.4byte	0x68
 1187 00cb 03       		.uleb128 0x3
 1188 00cc 93050000 		.4byte	.LASF18
 1189 00d0 07       		.byte	0x7
 1190 00d1 2C       		.byte	0x2c
 1191 00d2 7A000000 		.4byte	0x7a
 1192 00d6 06       		.uleb128 0x6
 1193 00d7 CB000000 		.4byte	0xcb
 1194 00db 03       		.uleb128 0x3
 1195 00dc 69060000 		.4byte	.LASF19
 1196 00e0 07       		.byte	0x7
 1197 00e1 30       		.byte	0x30
ARM GAS  /tmp/ccwwxqPB.s 			page 22


 1198 00e2 8C000000 		.4byte	0x8c
 1199 00e6 03       		.uleb128 0x3
 1200 00e7 3C000000 		.4byte	.LASF20
 1201 00eb 07       		.byte	0x7
 1202 00ec 3C       		.byte	0x3c
 1203 00ed 9E000000 		.4byte	0x9e
 1204 00f1 03       		.uleb128 0x3
 1205 00f2 41070000 		.4byte	.LASF21
 1206 00f6 08       		.byte	0x8
 1207 00f7 46       		.byte	0x46
 1208 00f8 DB000000 		.4byte	0xdb
 1209 00fc 03       		.uleb128 0x3
 1210 00fd D9070000 		.4byte	.LASF22
 1211 0101 08       		.byte	0x8
 1212 0102 49       		.byte	0x49
 1213 0103 B0000000 		.4byte	0xb0
 1214 0107 03       		.uleb128 0x3
 1215 0108 CD010000 		.4byte	.LASF23
 1216 010c 08       		.byte	0x8
 1217 010d 4A       		.byte	0x4a
 1218 010e B0000000 		.4byte	0xb0
 1219 0112 03       		.uleb128 0x3
 1220 0113 2D050000 		.4byte	.LASF24
 1221 0117 08       		.byte	0x8
 1222 0118 4B       		.byte	0x4b
 1223 0119 B0000000 		.4byte	0xb0
 1224 011d 03       		.uleb128 0x3
 1225 011e 6D050000 		.4byte	.LASF25
 1226 0122 08       		.byte	0x8
 1227 0123 4D       		.byte	0x4d
 1228 0124 DB000000 		.4byte	0xdb
 1229 0128 03       		.uleb128 0x3
 1230 0129 1F030000 		.4byte	.LASF26
 1231 012d 08       		.byte	0x8
 1232 012e 4E       		.byte	0x4e
 1233 012f CB000000 		.4byte	0xcb
 1234 0133 03       		.uleb128 0x3
 1235 0134 4B030000 		.4byte	.LASF27
 1236 0138 08       		.byte	0x8
 1237 0139 50       		.byte	0x50
 1238 013a DB000000 		.4byte	0xdb
 1239 013e 03       		.uleb128 0x3
 1240 013f 69020000 		.4byte	.LASF28
 1241 0143 08       		.byte	0x8
 1242 0144 52       		.byte	0x52
 1243 0145 CB000000 		.4byte	0xcb
 1244 0149 03       		.uleb128 0x3
 1245 014a E0060000 		.4byte	.LASF29
 1246 014e 09       		.byte	0x9
 1247 014f 33       		.byte	0x33
 1248 0150 DB000000 		.4byte	0xdb
 1249 0154 03       		.uleb128 0x3
 1250 0155 D0060000 		.4byte	.LASF30
 1251 0159 09       		.byte	0x9
 1252 015a 3F       		.byte	0x3f
 1253 015b 5F010000 		.4byte	0x15f
 1254 015f 07       		.uleb128 0x7
ARM GAS  /tmp/ccwwxqPB.s 			page 23


 1255 0160 CB020000 		.4byte	.LASF50
 1256 0164 44       		.byte	0x44
 1257 0165 02       		.byte	0x2
 1258 0166 C2       		.byte	0xc2
 1259 0167 4C020000 		.4byte	0x24c
 1260 016b 08       		.uleb128 0x8
 1261 016c E1050000 		.4byte	.LASF31
 1262 0170 02       		.byte	0x2
 1263 0171 C3       		.byte	0xc3
 1264 0172 57020000 		.4byte	0x257
 1265 0176 00       		.byte	0
 1266 0177 08       		.uleb128 0x8
 1267 0178 5A050000 		.4byte	.LASF32
 1268 017c 02       		.byte	0x2
 1269 017d C5       		.byte	0xc5
 1270 017e 57020000 		.4byte	0x257
 1271 0182 04       		.byte	0x4
 1272 0183 08       		.uleb128 0x8
 1273 0184 2D010000 		.4byte	.LASF33
 1274 0188 02       		.byte	0x2
 1275 0189 C7       		.byte	0xc7
 1276 018a 1D010000 		.4byte	0x11d
 1277 018e 08       		.byte	0x8
 1278 018f 08       		.uleb128 0x8
 1279 0190 F9040000 		.4byte	.LASF34
 1280 0194 02       		.byte	0x2
 1281 0195 C8       		.byte	0xc8
 1282 0196 9E040000 		.4byte	0x49e
 1283 019a 0C       		.byte	0xc
 1284 019b 08       		.uleb128 0x8
 1285 019c 0C020000 		.4byte	.LASF35
 1286 01a0 02       		.byte	0x2
 1287 01a1 CA       		.byte	0xca
 1288 01a2 57020000 		.4byte	0x257
 1289 01a6 10       		.byte	0x10
 1290 01a7 08       		.uleb128 0x8
 1291 01a8 EB040000 		.4byte	.LASF36
 1292 01ac 02       		.byte	0x2
 1293 01ad CB       		.byte	0xcb
 1294 01ae 57020000 		.4byte	0x257
 1295 01b2 14       		.byte	0x14
 1296 01b3 08       		.uleb128 0x8
 1297 01b4 B1070000 		.4byte	.LASF37
 1298 01b8 02       		.byte	0x2
 1299 01b9 D2       		.byte	0xd2
 1300 01ba 1D060000 		.4byte	0x61d
 1301 01be 18       		.byte	0x18
 1302 01bf 08       		.uleb128 0x8
 1303 01c0 B7050000 		.4byte	.LASF38
 1304 01c4 02       		.byte	0x2
 1305 01c5 DD       		.byte	0xdd
 1306 01c6 07010000 		.4byte	0x107
 1307 01ca 1C       		.byte	0x1c
 1308 01cb 08       		.uleb128 0x8
 1309 01cc FC050000 		.4byte	.LASF39
 1310 01d0 02       		.byte	0x2
 1311 01d1 E1       		.byte	0xe1
ARM GAS  /tmp/ccwwxqPB.s 			page 24


 1312 01d2 FC000000 		.4byte	0xfc
 1313 01d6 1D       		.byte	0x1d
 1314 01d7 08       		.uleb128 0x8
 1315 01d8 73070000 		.4byte	.LASF40
 1316 01dc 02       		.byte	0x2
 1317 01dd E6       		.byte	0xe6
 1318 01de 12010000 		.4byte	0x112
 1319 01e2 1E       		.byte	0x1e
 1320 01e3 09       		.uleb128 0x9
 1321 01e4 705F7500 		.ascii	"p_u\000"
 1322 01e8 02       		.byte	0x2
 1323 01e9 3101     		.2byte	0x131
 1324 01eb 58050000 		.4byte	0x558
 1325 01ef 20       		.byte	0x20
 1326 01f0 0A       		.uleb128 0xa
 1327 01f1 A6030000 		.4byte	.LASF41
 1328 01f5 02       		.byte	0x2
 1329 01f6 3601     		.2byte	0x136
 1330 01f8 5D020000 		.4byte	0x25d
 1331 01fc 24       		.byte	0x24
 1332 01fd 0A       		.uleb128 0xa
 1333 01fe AF020000 		.4byte	.LASF42
 1334 0202 02       		.byte	0x2
 1335 0203 3C01     		.2byte	0x13c
 1336 0205 81020000 		.4byte	0x281
 1337 0209 28       		.byte	0x28
 1338 020a 0A       		.uleb128 0xa
 1339 020b 3B070000 		.4byte	.LASF43
 1340 020f 02       		.byte	0x2
 1341 0210 4001     		.2byte	0x140
 1342 0212 28010000 		.4byte	0x128
 1343 0216 30       		.byte	0x30
 1344 0217 0A       		.uleb128 0xa
 1345 0218 52060000 		.4byte	.LASF44
 1346 021c 02       		.byte	0x2
 1347 021d 4601     		.2byte	0x146
 1348 021f 33010000 		.4byte	0x133
 1349 0223 34       		.byte	0x34
 1350 0224 0A       		.uleb128 0xa
 1351 0225 BF050000 		.4byte	.LASF45
 1352 0229 02       		.byte	0x2
 1353 022a 4D01     		.2byte	0x14d
 1354 022c 17060000 		.4byte	0x617
 1355 0230 38       		.byte	0x38
 1356 0231 0A       		.uleb128 0xa
 1357 0232 EA060000 		.4byte	.LASF46
 1358 0236 02       		.byte	0x2
 1359 0237 5101     		.2byte	0x151
 1360 0239 1D010000 		.4byte	0x11d
 1361 023d 3C       		.byte	0x3c
 1362 023e 0A       		.uleb128 0xa
 1363 023f 82010000 		.4byte	.LASF47
 1364 0243 02       		.byte	0x2
 1365 0244 5801     		.2byte	0x158
 1366 0246 34030000 		.4byte	0x334
 1367 024a 40       		.byte	0x40
 1368 024b 00       		.byte	0
ARM GAS  /tmp/ccwwxqPB.s 			page 25


 1369 024c 03       		.uleb128 0x3
 1370 024d B9030000 		.4byte	.LASF48
 1371 0251 09       		.byte	0x9
 1372 0252 44       		.byte	0x44
 1373 0253 57020000 		.4byte	0x257
 1374 0257 0B       		.uleb128 0xb
 1375 0258 04       		.byte	0x4
 1376 0259 54010000 		.4byte	0x154
 1377 025d 03       		.uleb128 0x3
 1378 025e CA070000 		.4byte	.LASF49
 1379 0262 09       		.byte	0x9
 1380 0263 49       		.byte	0x49
 1381 0264 68020000 		.4byte	0x268
 1382 0268 07       		.uleb128 0x7
 1383 0269 8F060000 		.4byte	.LASF51
 1384 026d 04       		.byte	0x4
 1385 026e 02       		.byte	0x2
 1386 026f B0       		.byte	0xb0
 1387 0270 81020000 		.4byte	0x281
 1388 0274 08       		.uleb128 0x8
 1389 0275 E1050000 		.4byte	.LASF31
 1390 0279 02       		.byte	0x2
 1391 027a B1       		.byte	0xb1
 1392 027b 57020000 		.4byte	0x257
 1393 027f 00       		.byte	0
 1394 0280 00       		.byte	0
 1395 0281 03       		.uleb128 0x3
 1396 0282 17060000 		.4byte	.LASF52
 1397 0286 09       		.byte	0x9
 1398 0287 50       		.byte	0x50
 1399 0288 8C020000 		.4byte	0x28c
 1400 028c 07       		.uleb128 0x7
 1401 028d 1C010000 		.4byte	.LASF53
 1402 0291 08       		.byte	0x8
 1403 0292 02       		.byte	0x2
 1404 0293 B7       		.byte	0xb7
 1405 0294 B1020000 		.4byte	0x2b1
 1406 0298 08       		.uleb128 0x8
 1407 0299 E1050000 		.4byte	.LASF31
 1408 029d 02       		.byte	0x2
 1409 029e B8       		.byte	0xb8
 1410 029f 57020000 		.4byte	0x257
 1411 02a3 00       		.byte	0
 1412 02a4 08       		.uleb128 0x8
 1413 02a5 5A050000 		.4byte	.LASF32
 1414 02a9 02       		.byte	0x2
 1415 02aa B9       		.byte	0xb9
 1416 02ab 57020000 		.4byte	0x257
 1417 02af 04       		.byte	0x4
 1418 02b0 00       		.byte	0
 1419 02b1 03       		.uleb128 0x3
 1420 02b2 1C000000 		.4byte	.LASF54
 1421 02b6 09       		.byte	0x9
 1422 02b7 57       		.byte	0x57
 1423 02b8 BC020000 		.4byte	0x2bc
 1424 02bc 0C       		.uleb128 0xc
 1425 02bd 3D030000 		.4byte	.LASF55
ARM GAS  /tmp/ccwwxqPB.s 			page 26


 1426 02c1 1C       		.byte	0x1c
 1427 02c2 02       		.byte	0x2
 1428 02c3 9001     		.2byte	0x190
 1429 02c5 18030000 		.4byte	0x318
 1430 02c9 0A       		.uleb128 0xa
 1431 02ca 7E060000 		.4byte	.LASF56
 1432 02ce 02       		.byte	0x2
 1433 02cf 9101     		.2byte	0x191
 1434 02d1 81020000 		.4byte	0x281
 1435 02d5 00       		.byte	0
 1436 02d6 0A       		.uleb128 0xa
 1437 02d7 D3050000 		.4byte	.LASF57
 1438 02db 02       		.byte	0x2
 1439 02dc 9201     		.2byte	0x192
 1440 02de 1D010000 		.4byte	0x11d
 1441 02e2 08       		.byte	0x8
 1442 02e3 0A       		.uleb128 0xa
 1443 02e4 F3040000 		.4byte	.LASF58
 1444 02e8 02       		.byte	0x2
 1445 02e9 9401     		.2byte	0x194
 1446 02eb 9E040000 		.4byte	0x49e
 1447 02ef 0C       		.byte	0xc
 1448 02f0 0A       		.uleb128 0xa
 1449 02f1 1C020000 		.4byte	.LASF59
 1450 02f5 02       		.byte	0x2
 1451 02f6 9701     		.2byte	0x197
 1452 02f8 57020000 		.4byte	0x257
 1453 02fc 10       		.byte	0x10
 1454 02fd 0A       		.uleb128 0xa
 1455 02fe 1A050000 		.4byte	.LASF60
 1456 0302 02       		.byte	0x2
 1457 0303 9801     		.2byte	0x198
 1458 0305 57020000 		.4byte	0x257
 1459 0309 14       		.byte	0x14
 1460 030a 0A       		.uleb128 0xa
 1461 030b 10050000 		.4byte	.LASF61
 1462 030f 02       		.byte	0x2
 1463 0310 9B01     		.2byte	0x19b
 1464 0312 57020000 		.4byte	0x257
 1465 0316 18       		.byte	0x18
 1466 0317 00       		.byte	0
 1467 0318 03       		.uleb128 0x3
 1468 0319 F5060000 		.4byte	.LASF62
 1469 031d 09       		.byte	0x9
 1470 031e 5C       		.byte	0x5c
 1471 031f 23030000 		.4byte	0x323
 1472 0323 0B       		.uleb128 0xb
 1473 0324 04       		.byte	0x4
 1474 0325 29030000 		.4byte	0x329
 1475 0329 0D       		.uleb128 0xd
 1476 032a 34030000 		.4byte	0x334
 1477 032e 0E       		.uleb128 0xe
 1478 032f 34030000 		.4byte	0x334
 1479 0333 00       		.byte	0
 1480 0334 0F       		.uleb128 0xf
 1481 0335 04       		.byte	0x4
 1482 0336 03       		.uleb128 0x3
ARM GAS  /tmp/ccwwxqPB.s 			page 27


 1483 0337 4A050000 		.4byte	.LASF63
 1484 033b 09       		.byte	0x9
 1485 033c 61       		.byte	0x61
 1486 033d 41030000 		.4byte	0x341
 1487 0341 0C       		.uleb128 0xc
 1488 0342 27060000 		.4byte	.LASF64
 1489 0346 14       		.byte	0x14
 1490 0347 02       		.byte	0x2
 1491 0348 6B01     		.2byte	0x16b
 1492 034a 90030000 		.4byte	0x390
 1493 034e 0A       		.uleb128 0xa
 1494 034f 7C020000 		.4byte	.LASF65
 1495 0353 02       		.byte	0x2
 1496 0354 6C01     		.2byte	0x16c
 1497 0356 34060000 		.4byte	0x634
 1498 035a 00       		.byte	0
 1499 035b 0A       		.uleb128 0xa
 1500 035c 2D020000 		.4byte	.LASF66
 1501 0360 02       		.byte	0x2
 1502 0361 6D01     		.2byte	0x16d
 1503 0363 34060000 		.4byte	0x634
 1504 0367 04       		.byte	0x4
 1505 0368 0A       		.uleb128 0xa
 1506 0369 86060000 		.4byte	.LASF67
 1507 036d 02       		.byte	0x2
 1508 036e 6E01     		.2byte	0x16e
 1509 0370 49010000 		.4byte	0x149
 1510 0374 08       		.byte	0x8
 1511 0375 0A       		.uleb128 0xa
 1512 0376 15080000 		.4byte	.LASF68
 1513 037a 02       		.byte	0x2
 1514 037b 6F01     		.2byte	0x16f
 1515 037d 18030000 		.4byte	0x318
 1516 0381 0C       		.byte	0xc
 1517 0382 0A       		.uleb128 0xa
 1518 0383 49070000 		.4byte	.LASF69
 1519 0387 02       		.byte	0x2
 1520 0388 7101     		.2byte	0x171
 1521 038a 34030000 		.4byte	0x334
 1522 038e 10       		.byte	0x10
 1523 038f 00       		.byte	0
 1524 0390 03       		.uleb128 0x3
 1525 0391 EE000000 		.4byte	.LASF70
 1526 0395 09       		.byte	0x9
 1527 0396 66       		.byte	0x66
 1528 0397 9B030000 		.4byte	0x39b
 1529 039b 0C       		.uleb128 0xc
 1530 039c CC030000 		.4byte	.LASF71
 1531 03a0 10       		.byte	0x10
 1532 03a1 02       		.byte	0x2
 1533 03a2 7B01     		.2byte	0x17b
 1534 03a4 DD030000 		.4byte	0x3dd
 1535 03a8 0A       		.uleb128 0xa
 1536 03a9 7C020000 		.4byte	.LASF65
 1537 03ad 02       		.byte	0x2
 1538 03ae 7C01     		.2byte	0x17c
 1539 03b0 34060000 		.4byte	0x634
ARM GAS  /tmp/ccwwxqPB.s 			page 28


 1540 03b4 00       		.byte	0
 1541 03b5 0A       		.uleb128 0xa
 1542 03b6 2D020000 		.4byte	.LASF66
 1543 03ba 02       		.byte	0x2
 1544 03bb 7E01     		.2byte	0x17e
 1545 03bd 34060000 		.4byte	0x634
 1546 03c1 04       		.byte	0x4
 1547 03c2 0A       		.uleb128 0xa
 1548 03c3 86060000 		.4byte	.LASF67
 1549 03c7 02       		.byte	0x2
 1550 03c8 8001     		.2byte	0x180
 1551 03ca 49010000 		.4byte	0x149
 1552 03ce 08       		.byte	0x8
 1553 03cf 0A       		.uleb128 0xa
 1554 03d0 9E070000 		.4byte	.LASF72
 1555 03d4 02       		.byte	0x2
 1556 03d5 8801     		.2byte	0x188
 1557 03d7 49010000 		.4byte	0x149
 1558 03db 0C       		.byte	0xc
 1559 03dc 00       		.byte	0
 1560 03dd 03       		.uleb128 0x3
 1561 03de 6C000000 		.4byte	.LASF73
 1562 03e2 09       		.byte	0x9
 1563 03e3 6B       		.byte	0x6b
 1564 03e4 E8030000 		.4byte	0x3e8
 1565 03e8 0C       		.uleb128 0xc
 1566 03e9 7D050000 		.4byte	.LASF74
 1567 03ed 04       		.byte	0x4
 1568 03ee 02       		.byte	0x2
 1569 03ef A201     		.2byte	0x1a2
 1570 03f1 03040000 		.4byte	0x403
 1571 03f5 0A       		.uleb128 0xa
 1572 03f6 17070000 		.4byte	.LASF75
 1573 03fa 02       		.byte	0x2
 1574 03fb AA01     		.2byte	0x1aa
 1575 03fd 23060000 		.4byte	0x623
 1576 0401 00       		.byte	0
 1577 0402 00       		.byte	0
 1578 0403 03       		.uleb128 0x3
 1579 0404 25030000 		.4byte	.LASF76
 1580 0408 09       		.byte	0x9
 1581 0409 70       		.byte	0x70
 1582 040a 0E040000 		.4byte	0x40e
 1583 040e 10       		.uleb128 0x10
 1584 040f BA010000 		.4byte	.LASF77
 1585 0413 5001     		.2byte	0x150
 1586 0415 02       		.byte	0x2
 1587 0416 C201     		.2byte	0x1c2
 1588 0418 6A040000 		.4byte	0x46a
 1589 041c 0A       		.uleb128 0xa
 1590 041d 90070000 		.4byte	.LASF78
 1591 0421 02       		.byte	0x2
 1592 0422 C601     		.2byte	0x1c6
 1593 0424 B1020000 		.4byte	0x2b1
 1594 0428 00       		.byte	0
 1595 0429 0A       		.uleb128 0xa
 1596 042a 92010000 		.4byte	.LASF79
ARM GAS  /tmp/ccwwxqPB.s 			page 29


 1597 042e 02       		.byte	0x2
 1598 042f CA01     		.2byte	0x1ca
 1599 0431 90030000 		.4byte	0x390
 1600 0435 1C       		.byte	0x1c
 1601 0436 09       		.uleb128 0x9
 1602 0437 64626700 		.ascii	"dbg\000"
 1603 043b 02       		.byte	0x2
 1604 043c CE01     		.2byte	0x1ce
 1605 043e DD030000 		.4byte	0x3dd
 1606 0442 2C       		.byte	0x2c
 1607 0443 0A       		.uleb128 0xa
 1608 0444 E3000000 		.4byte	.LASF80
 1609 0448 02       		.byte	0x2
 1610 0449 D201     		.2byte	0x1d2
 1611 044b 54010000 		.4byte	0x154
 1612 044f 30       		.byte	0x30
 1613 0450 09       		.uleb128 0x9
 1614 0451 746D00   		.ascii	"tm\000"
 1615 0454 02       		.byte	0x2
 1616 0455 D701     		.2byte	0x1d7
 1617 0457 4D050000 		.4byte	0x54d
 1618 045b 74       		.byte	0x74
 1619 045c 0A       		.uleb128 0xa
 1620 045d 5A020000 		.4byte	.LASF81
 1621 0461 02       		.byte	0x2
 1622 0462 E301     		.2byte	0x1e3
 1623 0464 3A060000 		.4byte	0x63a
 1624 0468 78       		.byte	0x78
 1625 0469 00       		.byte	0
 1626 046a 04       		.uleb128 0x4
 1627 046b 04       		.byte	0x4
 1628 046c 07       		.byte	0x7
 1629 046d B0030000 		.4byte	.LASF82
 1630 0471 11       		.uleb128 0x11
 1631 0472 04010000 		.4byte	.LASF83
 1632 0476 0A       		.byte	0xa
 1633 0477 A706     		.2byte	0x6a7
 1634 0479 D6000000 		.4byte	0xd6
 1635 047d 12       		.uleb128 0x12
 1636 047e 8D020000 		.4byte	.LASF84
 1637 0482 0B       		.byte	0xb
 1638 0483 4C       		.byte	0x4c
 1639 0484 DB000000 		.4byte	0xdb
 1640 0488 03       		.uleb128 0x3
 1641 0489 24020000 		.4byte	.LASF85
 1642 048d 0C       		.byte	0xc
 1643 048e 65       		.byte	0x65
 1644 048f 34030000 		.4byte	0x334
 1645 0493 03       		.uleb128 0x3
 1646 0494 61030000 		.4byte	.LASF86
 1647 0498 0C       		.byte	0xc
 1648 0499 6D       		.byte	0x6d
 1649 049a E6000000 		.4byte	0xe6
 1650 049e 07       		.uleb128 0x7
 1651 049f 33070000 		.4byte	.LASF87
 1652 04a3 04       		.byte	0x4
 1653 04a4 0C       		.byte	0xc
ARM GAS  /tmp/ccwwxqPB.s 			page 30


 1654 04a5 89       		.byte	0x89
 1655 04a6 B7040000 		.4byte	0x4b7
 1656 04aa 13       		.uleb128 0x13
 1657 04ab 72313300 		.ascii	"r13\000"
 1658 04af 0C       		.byte	0xc
 1659 04b0 8A       		.byte	0x8a
 1660 04b1 32050000 		.4byte	0x532
 1661 04b5 00       		.byte	0
 1662 04b6 00       		.byte	0
 1663 04b7 07       		.uleb128 0x7
 1664 04b8 60000000 		.4byte	.LASF88
 1665 04bc 24       		.byte	0x24
 1666 04bd 0D       		.byte	0xd
 1667 04be F4       		.byte	0xf4
 1668 04bf 32050000 		.4byte	0x532
 1669 04c3 09       		.uleb128 0x9
 1670 04c4 723400   		.ascii	"r4\000"
 1671 04c7 0D       		.byte	0xd
 1672 04c8 0701     		.2byte	0x107
 1673 04ca 88040000 		.4byte	0x488
 1674 04ce 00       		.byte	0
 1675 04cf 09       		.uleb128 0x9
 1676 04d0 723500   		.ascii	"r5\000"
 1677 04d3 0D       		.byte	0xd
 1678 04d4 0801     		.2byte	0x108
 1679 04d6 88040000 		.4byte	0x488
 1680 04da 04       		.byte	0x4
 1681 04db 09       		.uleb128 0x9
 1682 04dc 723600   		.ascii	"r6\000"
 1683 04df 0D       		.byte	0xd
 1684 04e0 0901     		.2byte	0x109
 1685 04e2 88040000 		.4byte	0x488
 1686 04e6 08       		.byte	0x8
 1687 04e7 09       		.uleb128 0x9
 1688 04e8 723700   		.ascii	"r7\000"
 1689 04eb 0D       		.byte	0xd
 1690 04ec 0A01     		.2byte	0x10a
 1691 04ee 88040000 		.4byte	0x488
 1692 04f2 0C       		.byte	0xc
 1693 04f3 09       		.uleb128 0x9
 1694 04f4 723800   		.ascii	"r8\000"
 1695 04f7 0D       		.byte	0xd
 1696 04f8 0B01     		.2byte	0x10b
 1697 04fa 88040000 		.4byte	0x488
 1698 04fe 10       		.byte	0x10
 1699 04ff 09       		.uleb128 0x9
 1700 0500 723900   		.ascii	"r9\000"
 1701 0503 0D       		.byte	0xd
 1702 0504 0C01     		.2byte	0x10c
 1703 0506 88040000 		.4byte	0x488
 1704 050a 14       		.byte	0x14
 1705 050b 09       		.uleb128 0x9
 1706 050c 72313000 		.ascii	"r10\000"
 1707 0510 0D       		.byte	0xd
 1708 0511 0D01     		.2byte	0x10d
 1709 0513 88040000 		.4byte	0x488
 1710 0517 18       		.byte	0x18
ARM GAS  /tmp/ccwwxqPB.s 			page 31


 1711 0518 09       		.uleb128 0x9
 1712 0519 72313100 		.ascii	"r11\000"
 1713 051d 0D       		.byte	0xd
 1714 051e 0E01     		.2byte	0x10e
 1715 0520 88040000 		.4byte	0x488
 1716 0524 1C       		.byte	0x1c
 1717 0525 09       		.uleb128 0x9
 1718 0526 6C7200   		.ascii	"lr\000"
 1719 0529 0D       		.byte	0xd
 1720 052a 0F01     		.2byte	0x10f
 1721 052c 88040000 		.4byte	0x488
 1722 0530 20       		.byte	0x20
 1723 0531 00       		.byte	0
 1724 0532 0B       		.uleb128 0xb
 1725 0533 04       		.byte	0x4
 1726 0534 B7040000 		.4byte	0x4b7
 1727 0538 14       		.uleb128 0x14
 1728 0539 04       		.byte	0x4
 1729 053a 0E       		.byte	0xe
 1730 053b 38       		.byte	0x38
 1731 053c 4D050000 		.4byte	0x54d
 1732 0540 08       		.uleb128 0x8
 1733 0541 21070000 		.4byte	.LASF89
 1734 0545 0E       		.byte	0xe
 1735 0546 3C       		.byte	0x3c
 1736 0547 F1000000 		.4byte	0xf1
 1737 054b 00       		.byte	0
 1738 054c 00       		.byte	0
 1739 054d 03       		.uleb128 0x3
 1740 054e FF040000 		.4byte	.LASF90
 1741 0552 0E       		.byte	0xe
 1742 0553 3D       		.byte	0x3d
 1743 0554 38050000 		.4byte	0x538
 1744 0558 15       		.uleb128 0x15
 1745 0559 04       		.byte	0x4
 1746 055a 02       		.byte	0x2
 1747 055b FA       		.byte	0xfa
 1748 055c B5050000 		.4byte	0x5b5
 1749 0560 16       		.uleb128 0x16
 1750 0561 35000000 		.4byte	.LASF91
 1751 0565 02       		.byte	0x2
 1752 0566 0101     		.2byte	0x101
 1753 0568 28010000 		.4byte	0x128
 1754 056c 16       		.uleb128 0x16
 1755 056d DA000000 		.4byte	.LASF92
 1756 0571 02       		.byte	0x2
 1757 0572 0801     		.2byte	0x108
 1758 0574 28010000 		.4byte	0x128
 1759 0578 16       		.uleb128 0x16
 1760 0579 AA070000 		.4byte	.LASF93
 1761 057d 02       		.byte	0x2
 1762 057e 0F01     		.2byte	0x10f
 1763 0580 34030000 		.4byte	0x334
 1764 0584 16       		.uleb128 0x16
 1765 0585 B4010000 		.4byte	.LASF94
 1766 0589 02       		.byte	0x2
 1767 058a 1601     		.2byte	0x116
ARM GAS  /tmp/ccwwxqPB.s 			page 32


 1768 058c B5050000 		.4byte	0x5b5
 1769 0590 16       		.uleb128 0x16
 1770 0591 A8020000 		.4byte	.LASF95
 1771 0595 02       		.byte	0x2
 1772 0596 1E01     		.2byte	0x11e
 1773 0598 E0050000 		.4byte	0x5e0
 1774 059c 16       		.uleb128 0x16
 1775 059d BE060000 		.4byte	.LASF96
 1776 05a1 02       		.byte	0x2
 1777 05a2 2701     		.2byte	0x127
 1778 05a4 17060000 		.4byte	0x617
 1779 05a8 16       		.uleb128 0x16
 1780 05a9 DA050000 		.4byte	.LASF97
 1781 05ad 02       		.byte	0x2
 1782 05ae 2F01     		.2byte	0x12f
 1783 05b0 33010000 		.4byte	0x133
 1784 05b4 00       		.byte	0
 1785 05b5 0B       		.uleb128 0xb
 1786 05b6 04       		.byte	0x4
 1787 05b7 4C020000 		.4byte	0x24c
 1788 05bb 07       		.uleb128 0x7
 1789 05bc 45060000 		.4byte	.LASF98
 1790 05c0 0C       		.byte	0xc
 1791 05c1 0F       		.byte	0xf
 1792 05c2 34       		.byte	0x34
 1793 05c3 E0050000 		.4byte	0x5e0
 1794 05c7 08       		.uleb128 0x8
 1795 05c8 14020000 		.4byte	.LASF99
 1796 05cc 0F       		.byte	0xf
 1797 05cd 35       		.byte	0x35
 1798 05ce 81020000 		.4byte	0x281
 1799 05d2 00       		.byte	0
 1800 05d3 08       		.uleb128 0x8
 1801 05d4 D5020000 		.4byte	.LASF100
 1802 05d8 0F       		.byte	0xf
 1803 05d9 37       		.byte	0x37
 1804 05da 3E010000 		.4byte	0x13e
 1805 05de 08       		.byte	0x8
 1806 05df 00       		.byte	0
 1807 05e0 0B       		.uleb128 0xb
 1808 05e1 04       		.byte	0x4
 1809 05e2 BB050000 		.4byte	0x5bb
 1810 05e6 07       		.uleb128 0x7
 1811 05e7 6A070000 		.4byte	.LASF101
 1812 05eb 10       		.byte	0x10
 1813 05ec 10       		.byte	0x10
 1814 05ed 39       		.byte	0x39
 1815 05ee 17060000 		.4byte	0x617
 1816 05f2 08       		.uleb128 0x8
 1817 05f3 8A010000 		.4byte	.LASF102
 1818 05f7 10       		.byte	0x10
 1819 05f8 3A       		.byte	0x3a
 1820 05f9 81020000 		.4byte	0x281
 1821 05fd 00       		.byte	0
 1822 05fe 08       		.uleb128 0x8
 1823 05ff FF070000 		.4byte	.LASF103
 1824 0603 10       		.byte	0x10
ARM GAS  /tmp/ccwwxqPB.s 			page 33


 1825 0604 3C       		.byte	0x3c
 1826 0605 57020000 		.4byte	0x257
 1827 0609 08       		.byte	0x8
 1828 060a 08       		.uleb128 0x8
 1829 060b D9060000 		.4byte	.LASF104
 1830 060f 10       		.byte	0x10
 1831 0610 3E       		.byte	0x3e
 1832 0611 6C070000 		.4byte	0x76c
 1833 0615 0C       		.byte	0xc
 1834 0616 00       		.byte	0
 1835 0617 0B       		.uleb128 0xb
 1836 0618 04       		.byte	0x4
 1837 0619 E6050000 		.4byte	0x5e6
 1838 061d 0B       		.uleb128 0xb
 1839 061e 04       		.byte	0x4
 1840 061f 2F060000 		.4byte	0x62f
 1841 0623 06       		.uleb128 0x6
 1842 0624 1D060000 		.4byte	0x61d
 1843 0628 04       		.uleb128 0x4
 1844 0629 01       		.byte	0x1
 1845 062a 08       		.byte	0x8
 1846 062b B9060000 		.4byte	.LASF105
 1847 062f 05       		.uleb128 0x5
 1848 0630 28060000 		.4byte	0x628
 1849 0634 0B       		.uleb128 0xb
 1850 0635 04       		.byte	0x4
 1851 0636 36030000 		.4byte	0x336
 1852 063a 17       		.uleb128 0x17
 1853 063b 93040000 		.4byte	0x493
 1854 063f 4A060000 		.4byte	0x64a
 1855 0643 18       		.uleb128 0x18
 1856 0644 6A040000 		.4byte	0x46a
 1857 0648 1A       		.byte	0x1a
 1858 0649 00       		.byte	0
 1859 064a 19       		.uleb128 0x19
 1860 064b 636800   		.ascii	"ch\000"
 1861 064e 02       		.byte	0x2
 1862 064f 0902     		.2byte	0x209
 1863 0651 03040000 		.4byte	0x403
 1864 0655 14       		.uleb128 0x14
 1865 0656 16       		.byte	0x16
 1866 0657 11       		.byte	0x11
 1867 0658 34       		.byte	0x34
 1868 0659 36070000 		.4byte	0x736
 1869 065d 08       		.uleb128 0x8
 1870 065e 07080000 		.4byte	.LASF106
 1871 0662 11       		.byte	0x11
 1872 0663 35       		.byte	0x35
 1873 0664 36070000 		.4byte	0x736
 1874 0668 00       		.byte	0
 1875 0669 08       		.uleb128 0x8
 1876 066a 7D030000 		.4byte	.LASF107
 1877 066e 11       		.byte	0x11
 1878 066f 36       		.byte	0x36
 1879 0670 B0000000 		.4byte	0xb0
 1880 0674 04       		.byte	0x4
 1881 0675 08       		.uleb128 0x8
ARM GAS  /tmp/ccwwxqPB.s 			page 34


 1882 0676 9F060000 		.4byte	.LASF108
 1883 067a 11       		.byte	0x11
 1884 067b 37       		.byte	0x37
 1885 067c B0000000 		.4byte	0xb0
 1886 0680 05       		.byte	0x5
 1887 0681 08       		.uleb128 0x8
 1888 0682 ED070000 		.4byte	.LASF109
 1889 0686 11       		.byte	0x11
 1890 0687 38       		.byte	0x38
 1891 0688 C0000000 		.4byte	0xc0
 1892 068c 06       		.byte	0x6
 1893 068d 08       		.uleb128 0x8
 1894 068e 35050000 		.4byte	.LASF110
 1895 0692 11       		.byte	0x11
 1896 0693 39       		.byte	0x39
 1897 0694 B0000000 		.4byte	0xb0
 1898 0698 08       		.byte	0x8
 1899 0699 08       		.uleb128 0x8
 1900 069a D3040000 		.4byte	.LASF111
 1901 069e 11       		.byte	0x11
 1902 069f 3A       		.byte	0x3a
 1903 06a0 B0000000 		.4byte	0xb0
 1904 06a4 09       		.byte	0x9
 1905 06a5 08       		.uleb128 0x8
 1906 06a6 CC000000 		.4byte	.LASF112
 1907 06aa 11       		.byte	0x11
 1908 06ab 3B       		.byte	0x3b
 1909 06ac B0000000 		.4byte	0xb0
 1910 06b0 0A       		.byte	0xa
 1911 06b1 08       		.uleb128 0x8
 1912 06b2 72060000 		.4byte	.LASF113
 1913 06b6 11       		.byte	0x11
 1914 06b7 3C       		.byte	0x3c
 1915 06b8 B0000000 		.4byte	0xb0
 1916 06bc 0B       		.byte	0xb
 1917 06bd 08       		.uleb128 0x8
 1918 06be 5F070000 		.4byte	.LASF114
 1919 06c2 11       		.byte	0x11
 1920 06c3 3D       		.byte	0x3d
 1921 06c4 B0000000 		.4byte	0xb0
 1922 06c8 0C       		.byte	0xc
 1923 06c9 08       		.uleb128 0x8
 1924 06ca 38060000 		.4byte	.LASF115
 1925 06ce 11       		.byte	0x11
 1926 06cf 3E       		.byte	0x3e
 1927 06d0 B0000000 		.4byte	0xb0
 1928 06d4 0D       		.byte	0xd
 1929 06d5 08       		.uleb128 0x8
 1930 06d6 0F000000 		.4byte	.LASF116
 1931 06da 11       		.byte	0x11
 1932 06db 3F       		.byte	0x3f
 1933 06dc B0000000 		.4byte	0xb0
 1934 06e0 0E       		.byte	0xe
 1935 06e1 08       		.uleb128 0x8
 1936 06e2 DF040000 		.4byte	.LASF117
 1937 06e6 11       		.byte	0x11
 1938 06e7 40       		.byte	0x40
ARM GAS  /tmp/ccwwxqPB.s 			page 35


 1939 06e8 B0000000 		.4byte	0xb0
 1940 06ec 0F       		.byte	0xf
 1941 06ed 08       		.uleb128 0x8
 1942 06ee 65010000 		.4byte	.LASF118
 1943 06f2 11       		.byte	0x11
 1944 06f3 41       		.byte	0x41
 1945 06f4 B0000000 		.4byte	0xb0
 1946 06f8 10       		.byte	0x10
 1947 06f9 08       		.uleb128 0x8
 1948 06fa 34010000 		.4byte	.LASF119
 1949 06fe 11       		.byte	0x11
 1950 06ff 43       		.byte	0x43
 1951 0700 B0000000 		.4byte	0xb0
 1952 0704 11       		.byte	0x11
 1953 0705 08       		.uleb128 0x8
 1954 0706 75010000 		.4byte	.LASF120
 1955 070a 11       		.byte	0x11
 1956 070b 44       		.byte	0x44
 1957 070c B0000000 		.4byte	0xb0
 1958 0710 12       		.byte	0x12
 1959 0711 08       		.uleb128 0x8
 1960 0712 85030000 		.4byte	.LASF121
 1961 0716 11       		.byte	0x11
 1962 0717 45       		.byte	0x45
 1963 0718 B0000000 		.4byte	0xb0
 1964 071c 13       		.byte	0x13
 1965 071d 08       		.uleb128 0x8
 1966 071e ED050000 		.4byte	.LASF122
 1967 0722 11       		.byte	0x11
 1968 0723 46       		.byte	0x46
 1969 0724 B0000000 		.4byte	0xb0
 1970 0728 14       		.byte	0x14
 1971 0729 08       		.uleb128 0x8
 1972 072a 31030000 		.4byte	.LASF123
 1973 072e 11       		.byte	0x11
 1974 072f 48       		.byte	0x48
 1975 0730 B0000000 		.4byte	0xb0
 1976 0734 15       		.byte	0x15
 1977 0735 00       		.byte	0
 1978 0736 17       		.uleb128 0x17
 1979 0737 28060000 		.4byte	0x628
 1980 073b 46070000 		.4byte	0x746
 1981 073f 18       		.uleb128 0x18
 1982 0740 6A040000 		.4byte	0x46a
 1983 0744 03       		.byte	0x3
 1984 0745 00       		.byte	0
 1985 0746 03       		.uleb128 0x3
 1986 0747 F0010000 		.4byte	.LASF124
 1987 074b 11       		.byte	0x11
 1988 074c 49       		.byte	0x49
 1989 074d 55060000 		.4byte	0x655
 1990 0751 05       		.uleb128 0x5
 1991 0752 46070000 		.4byte	0x746
 1992 0756 12       		.uleb128 0x12
 1993 0757 BA020000 		.4byte	.LASF125
 1994 075b 11       		.byte	0x11
 1995 075c 82       		.byte	0x82
ARM GAS  /tmp/ccwwxqPB.s 			page 36


 1996 075d 51070000 		.4byte	0x751
 1997 0761 03       		.uleb128 0x3
 1998 0762 43020000 		.4byte	.LASF126
 1999 0766 10       		.byte	0x10
 2000 0767 34       		.byte	0x34
 2001 0768 E6050000 		.4byte	0x5e6
 2002 076c 0B       		.uleb128 0xb
 2003 076d 04       		.byte	0x4
 2004 076e 61070000 		.4byte	0x761
 2005 0772 03       		.uleb128 0x3
 2006 0773 11010000 		.4byte	.LASF127
 2007 0777 03       		.byte	0x3
 2008 0778 3F       		.byte	0x3f
 2009 0779 7D070000 		.4byte	0x77d
 2010 077d 07       		.uleb128 0x7
 2011 077e 51020000 		.4byte	.LASF128
 2012 0782 24       		.byte	0x24
 2013 0783 03       		.byte	0x3
 2014 0784 4D       		.byte	0x4d
 2015 0785 EA070000 		.4byte	0x7ea
 2016 0789 08       		.uleb128 0x8
 2017 078a 41010000 		.4byte	.LASF129
 2018 078e 03       		.byte	0x3
 2019 078f 4E       		.byte	0x4e
 2020 0790 81020000 		.4byte	0x281
 2021 0794 00       		.byte	0
 2022 0795 08       		.uleb128 0x8
 2023 0796 E3030000 		.4byte	.LASF130
 2024 079a 03       		.byte	0x3
 2025 079b 4F       		.byte	0x4f
 2026 079c 28000000 		.4byte	0x28
 2027 07a0 08       		.byte	0x8
 2028 07a1 08       		.uleb128 0x8
 2029 07a2 DF010000 		.4byte	.LASF131
 2030 07a6 03       		.byte	0x3
 2031 07a7 50       		.byte	0x50
 2032 07a8 0C080000 		.4byte	0x80c
 2033 07ac 0C       		.byte	0xc
 2034 07ad 08       		.uleb128 0x8
 2035 07ae A0000000 		.4byte	.LASF132
 2036 07b2 03       		.byte	0x3
 2037 07b3 51       		.byte	0x51
 2038 07b4 0C080000 		.4byte	0x80c
 2039 07b8 10       		.byte	0x10
 2040 07b9 08       		.uleb128 0x8
 2041 07ba E8010000 		.4byte	.LASF133
 2042 07be 03       		.byte	0x3
 2043 07bf 53       		.byte	0x53
 2044 07c0 0C080000 		.4byte	0x80c
 2045 07c4 14       		.byte	0x14
 2046 07c5 08       		.uleb128 0x8
 2047 07c6 75050000 		.4byte	.LASF134
 2048 07ca 03       		.byte	0x3
 2049 07cb 54       		.byte	0x54
 2050 07cc 0C080000 		.4byte	0x80c
 2051 07d0 18       		.byte	0x18
 2052 07d1 08       		.uleb128 0x8
ARM GAS  /tmp/ccwwxqPB.s 			page 37


 2053 07d2 87070000 		.4byte	.LASF135
 2054 07d6 03       		.byte	0x3
 2055 07d7 55       		.byte	0x55
 2056 07d8 EA070000 		.4byte	0x7ea
 2057 07dc 1C       		.byte	0x1c
 2058 07dd 08       		.uleb128 0x8
 2059 07de F8070000 		.4byte	.LASF136
 2060 07e2 03       		.byte	0x3
 2061 07e3 56       		.byte	0x56
 2062 07e4 34030000 		.4byte	0x334
 2063 07e8 20       		.byte	0x20
 2064 07e9 00       		.byte	0
 2065 07ea 03       		.uleb128 0x3
 2066 07eb 40050000 		.4byte	.LASF137
 2067 07ef 03       		.byte	0x3
 2068 07f0 42       		.byte	0x42
 2069 07f1 F5070000 		.4byte	0x7f5
 2070 07f5 0B       		.uleb128 0xb
 2071 07f6 04       		.byte	0x4
 2072 07f7 FB070000 		.4byte	0x7fb
 2073 07fb 0D       		.uleb128 0xd
 2074 07fc 06080000 		.4byte	0x806
 2075 0800 0E       		.uleb128 0xe
 2076 0801 06080000 		.4byte	0x806
 2077 0805 00       		.byte	0
 2078 0806 0B       		.uleb128 0xb
 2079 0807 04       		.byte	0x4
 2080 0808 72070000 		.4byte	0x772
 2081 080c 0B       		.uleb128 0xb
 2082 080d 04       		.byte	0x4
 2083 080e B0000000 		.4byte	0xb0
 2084 0812 03       		.uleb128 0x3
 2085 0813 A9050000 		.4byte	.LASF138
 2086 0817 03       		.byte	0x3
 2087 0818 64       		.byte	0x64
 2088 0819 72070000 		.4byte	0x772
 2089 081d 03       		.uleb128 0x3
 2090 081e A5010000 		.4byte	.LASF139
 2091 0822 03       		.byte	0x3
 2092 0823 71       		.byte	0x71
 2093 0824 72070000 		.4byte	0x772
 2094 0828 0B       		.uleb128 0xb
 2095 0829 04       		.byte	0x4
 2096 082a BB000000 		.4byte	0xbb
 2097 082e 1A       		.uleb128 0x1a
 2098 082f 6C030000 		.4byte	.LASF141
 2099 0833 01       		.byte	0x1
 2100 0834 9A01     		.2byte	0x19a
 2101 0836 28000000 		.4byte	0x28
 2102 083a 00000000 		.4byte	.LFB236
 2103 083e 86000000 		.4byte	.LFE236-.LFB236
 2104 0842 01       		.uleb128 0x1
 2105 0843 9C       		.byte	0x9c
 2106 0844 DC090000 		.4byte	0x9dc
 2107 0848 1B       		.uleb128 0x1b
 2108 0849 6F717000 		.ascii	"oqp\000"
 2109 084d 01       		.byte	0x1
ARM GAS  /tmp/ccwwxqPB.s 			page 38


 2110 084e 9A01     		.2byte	0x19a
 2111 0850 DC090000 		.4byte	0x9dc
 2112 0854 00000000 		.4byte	.LLST38
 2113 0858 1B       		.uleb128 0x1b
 2114 0859 627000   		.ascii	"bp\000"
 2115 085c 01       		.byte	0x1
 2116 085d 9A01     		.2byte	0x19a
 2117 085f 28080000 		.4byte	0x828
 2118 0863 4A000000 		.4byte	.LLST39
 2119 0867 1B       		.uleb128 0x1b
 2120 0868 6E00     		.ascii	"n\000"
 2121 086a 01       		.byte	0x1
 2122 086b 9B01     		.2byte	0x19b
 2123 086d 28000000 		.4byte	0x28
 2124 0871 89000000 		.4byte	.LLST40
 2125 0875 1C       		.uleb128 0x1c
 2126 0876 C3020000 		.4byte	.LASF140
 2127 087a 01       		.byte	0x1
 2128 087b 9B01     		.2byte	0x19b
 2129 087d 49010000 		.4byte	0x149
 2130 0881 BF000000 		.4byte	.LLST41
 2131 0885 1D       		.uleb128 0x1d
 2132 0886 6E667900 		.ascii	"nfy\000"
 2133 088a 01       		.byte	0x1
 2134 088b 9C01     		.2byte	0x19c
 2135 088d EA070000 		.4byte	0x7ea
 2136 0891 01       		.uleb128 0x1
 2137 0892 58       		.byte	0x58
 2138 0893 1E       		.uleb128 0x1e
 2139 0894 7700     		.ascii	"w\000"
 2140 0896 01       		.byte	0x1
 2141 0897 9D01     		.2byte	0x19d
 2142 0899 28000000 		.4byte	0x28
 2143 089d DE000000 		.4byte	.LLST42
 2144 08a1 1F       		.uleb128 0x1f
 2145 08a2 04060000 		.4byte	.LASF150
 2146 08a6 F2090000 		.4byte	0x9f2
 2147 08aa 20       		.uleb128 0x20
 2148 08ab 8B110000 		.4byte	0x118b
 2149 08af 12000000 		.4byte	.LBB185
 2150 08b3 08000000 		.4byte	.LBE185-.LBB185
 2151 08b7 01       		.byte	0x1
 2152 08b8 A101     		.2byte	0x1a1
 2153 08ba EA080000 		.4byte	0x8ea
 2154 08be 21       		.uleb128 0x21
 2155 08bf B7110000 		.4byte	0x11b7
 2156 08c3 12000000 		.4byte	.LBB186
 2157 08c7 08000000 		.4byte	.LBE186-.LBB186
 2158 08cb 12       		.byte	0x12
 2159 08cc 5C01     		.2byte	0x15c
 2160 08ce 21       		.uleb128 0x21
 2161 08cf C0110000 		.4byte	0x11c0
 2162 08d3 12000000 		.4byte	.LBB187
 2163 08d7 08000000 		.4byte	.LBE187-.LBB187
 2164 08db 0D       		.byte	0xd
 2165 08dc BF01     		.2byte	0x1bf
 2166 08de 22       		.uleb128 0x22
ARM GAS  /tmp/ccwwxqPB.s 			page 39


 2167 08df CD110000 		.4byte	0x11cd
 2168 08e3 FD000000 		.4byte	.LLST43
 2169 08e7 00       		.byte	0
 2170 08e8 00       		.byte	0
 2171 08e9 00       		.byte	0
 2172 08ea 23       		.uleb128 0x23
 2173 08eb 5B110000 		.4byte	0x115b
 2174 08ef 1C000000 		.4byte	.LBB189
 2175 08f3 A8000000 		.4byte	.Ldebug_ranges0+0xa8
 2176 08f7 01       		.byte	0x1
 2177 08f8 B301     		.2byte	0x1b3
 2178 08fa 35090000 		.4byte	0x935
 2179 08fe 24       		.uleb128 0x24
 2180 08ff A8000000 		.4byte	.Ldebug_ranges0+0xa8
 2181 0903 25       		.uleb128 0x25
 2182 0904 68110000 		.4byte	0x1168
 2183 0908 26       		.uleb128 0x26
 2184 0909 AE110000 		.4byte	0x11ae
 2185 090d 1C000000 		.4byte	.LBB191
 2186 0911 A8000000 		.4byte	.Ldebug_ranges0+0xa8
 2187 0915 12       		.byte	0x12
 2188 0916 7301     		.2byte	0x173
 2189 0918 26       		.uleb128 0x26
 2190 0919 C0110000 		.4byte	0x11c0
 2191 091d 1C000000 		.4byte	.LBB192
 2192 0921 A8000000 		.4byte	.Ldebug_ranges0+0xa8
 2193 0925 0D       		.byte	0xd
 2194 0926 CD01     		.2byte	0x1cd
 2195 0928 22       		.uleb128 0x22
 2196 0929 CD110000 		.4byte	0x11cd
 2197 092d 12010000 		.4byte	.LLST44
 2198 0931 00       		.byte	0
 2199 0932 00       		.byte	0
 2200 0933 00       		.byte	0
 2201 0934 00       		.byte	0
 2202 0935 20       		.uleb128 0x20
 2203 0936 8B110000 		.4byte	0x118b
 2204 093a 56000000 		.4byte	.LBB199
 2205 093e 06000000 		.4byte	.LBE199-.LBB199
 2206 0942 01       		.byte	0x1
 2207 0943 B901     		.2byte	0x1b9
 2208 0945 75090000 		.4byte	0x975
 2209 0949 21       		.uleb128 0x21
 2210 094a B7110000 		.4byte	0x11b7
 2211 094e 56000000 		.4byte	.LBB200
 2212 0952 06000000 		.4byte	.LBE200-.LBB200
 2213 0956 12       		.byte	0x12
 2214 0957 5C01     		.2byte	0x15c
 2215 0959 21       		.uleb128 0x21
 2216 095a C0110000 		.4byte	0x11c0
 2217 095e 56000000 		.4byte	.LBB201
 2218 0962 06000000 		.4byte	.LBE201-.LBB201
 2219 0966 0D       		.byte	0xd
 2220 0967 BF01     		.2byte	0x1bf
 2221 0969 22       		.uleb128 0x22
 2222 096a CD110000 		.4byte	0x11cd
 2223 096e 26010000 		.4byte	.LLST45
ARM GAS  /tmp/ccwwxqPB.s 			page 40


 2224 0972 00       		.byte	0
 2225 0973 00       		.byte	0
 2226 0974 00       		.byte	0
 2227 0975 20       		.uleb128 0x20
 2228 0976 5B110000 		.4byte	0x115b
 2229 097a 7A000000 		.4byte	.LBB203
 2230 097e 04000000 		.4byte	.LBE203-.LBB203
 2231 0982 01       		.byte	0x1
 2232 0983 A501     		.2byte	0x1a5
 2233 0985 C4090000 		.4byte	0x9c4
 2234 0989 27       		.uleb128 0x27
 2235 098a 7A000000 		.4byte	.LBB204
 2236 098e 04000000 		.4byte	.LBE204-.LBB204
 2237 0992 25       		.uleb128 0x25
 2238 0993 68110000 		.4byte	0x1168
 2239 0997 21       		.uleb128 0x21
 2240 0998 AE110000 		.4byte	0x11ae
 2241 099c 7A000000 		.4byte	.LBB205
 2242 09a0 04000000 		.4byte	.LBE205-.LBB205
 2243 09a4 12       		.byte	0x12
 2244 09a5 7301     		.2byte	0x173
 2245 09a7 21       		.uleb128 0x21
 2246 09a8 C0110000 		.4byte	0x11c0
 2247 09ac 7A000000 		.4byte	.LBB206
 2248 09b0 04000000 		.4byte	.LBE206-.LBB206
 2249 09b4 0D       		.byte	0xd
 2250 09b5 CD01     		.2byte	0x1cd
 2251 09b7 22       		.uleb128 0x22
 2252 09b8 CD110000 		.4byte	0x11cd
 2253 09bc 3B010000 		.4byte	.LLST46
 2254 09c0 00       		.byte	0
 2255 09c1 00       		.byte	0
 2256 09c2 00       		.byte	0
 2257 09c3 00       		.byte	0
 2258 09c4 28       		.uleb128 0x28
 2259 09c5 74000000 		.4byte	.LVL85
 2260 09c9 DA110000 		.4byte	0x11da
 2261 09cd 29       		.uleb128 0x29
 2262 09ce 01       		.uleb128 0x1
 2263 09cf 50       		.byte	0x50
 2264 09d0 02       		.uleb128 0x2
 2265 09d1 74       		.byte	0x74
 2266 09d2 00       		.sleb128 0
 2267 09d3 29       		.uleb128 0x29
 2268 09d4 01       		.uleb128 0x1
 2269 09d5 51       		.byte	0x51
 2270 09d6 03       		.uleb128 0x3
 2271 09d7 91       		.byte	0x91
 2272 09d8 54       		.sleb128 -44
 2273 09d9 06       		.byte	0x6
 2274 09da 00       		.byte	0
 2275 09db 00       		.byte	0
 2276 09dc 0B       		.uleb128 0xb
 2277 09dd 04       		.byte	0x4
 2278 09de 1D080000 		.4byte	0x81d
 2279 09e2 17       		.uleb128 0x17
 2280 09e3 2F060000 		.4byte	0x62f
ARM GAS  /tmp/ccwwxqPB.s 			page 41


 2281 09e7 F2090000 		.4byte	0x9f2
 2282 09eb 18       		.uleb128 0x18
 2283 09ec 6A040000 		.4byte	0x46a
 2284 09f0 10       		.byte	0x10
 2285 09f1 00       		.byte	0
 2286 09f2 05       		.uleb128 0x5
 2287 09f3 E2090000 		.4byte	0x9e2
 2288 09f7 2A       		.uleb128 0x2a
 2289 09f8 D6010000 		.4byte	.LASF142
 2290 09fc 01       		.byte	0x1
 2291 09fd 6E01     		.2byte	0x16e
 2292 09ff 28010000 		.4byte	0x128
 2293 0a03 00000000 		.4byte	.LFB235
 2294 0a07 34000000 		.4byte	.LFE235-.LFB235
 2295 0a0b 01       		.uleb128 0x1
 2296 0a0c 9C       		.byte	0x9c
 2297 0a0d 5D0A0000 		.4byte	0xa5d
 2298 0a11 1B       		.uleb128 0x1b
 2299 0a12 6F717000 		.ascii	"oqp\000"
 2300 0a16 01       		.byte	0x1
 2301 0a17 6E01     		.2byte	0x16e
 2302 0a19 DC090000 		.4byte	0x9dc
 2303 0a1d 4F010000 		.4byte	.LLST35
 2304 0a21 1E       		.uleb128 0x1e
 2305 0a22 6200     		.ascii	"b\000"
 2306 0a24 01       		.byte	0x1
 2307 0a25 6F01     		.2byte	0x16f
 2308 0a27 B0000000 		.4byte	0xb0
 2309 0a2b 89010000 		.4byte	.LLST36
 2310 0a2f 23       		.uleb128 0x23
 2311 0a30 E1100000 		.4byte	0x10e1
 2312 0a34 02000000 		.4byte	.LBB181
 2313 0a38 90000000 		.4byte	.Ldebug_ranges0+0x90
 2314 0a3c 01       		.byte	0x1
 2315 0a3d 7301     		.2byte	0x173
 2316 0a3f 4D0A0000 		.4byte	0xa4d
 2317 0a43 22       		.uleb128 0x22
 2318 0a44 F2100000 		.4byte	0x10f2
 2319 0a48 9C010000 		.4byte	.LLST37
 2320 0a4c 00       		.byte	0
 2321 0a4d 28       		.uleb128 0x28
 2322 0a4e 26000000 		.4byte	.LVL66
 2323 0a52 E5110000 		.4byte	0x11e5
 2324 0a56 29       		.uleb128 0x29
 2325 0a57 01       		.uleb128 0x1
 2326 0a58 51       		.byte	0x51
 2327 0a59 01       		.uleb128 0x1
 2328 0a5a 30       		.byte	0x30
 2329 0a5b 00       		.byte	0
 2330 0a5c 00       		.byte	0
 2331 0a5d 2A       		.uleb128 0x2a
 2332 0a5e 00000000 		.4byte	.LASF143
 2333 0a62 01       		.byte	0x1
 2334 0a63 4B01     		.2byte	0x14b
 2335 0a65 28010000 		.4byte	0x128
 2336 0a69 00000000 		.4byte	.LFB234
 2337 0a6d 50000000 		.4byte	.LFE234-.LFB234
ARM GAS  /tmp/ccwwxqPB.s 			page 42


 2338 0a71 01       		.uleb128 0x1
 2339 0a72 9C       		.byte	0x9c
 2340 0a73 B30B0000 		.4byte	0xbb3
 2341 0a77 1B       		.uleb128 0x1b
 2342 0a78 6F717000 		.ascii	"oqp\000"
 2343 0a7c 01       		.byte	0x1
 2344 0a7d 4B01     		.2byte	0x14b
 2345 0a7f DC090000 		.4byte	0x9dc
 2346 0a83 C8010000 		.4byte	.LLST28
 2347 0a87 1B       		.uleb128 0x1b
 2348 0a88 6200     		.ascii	"b\000"
 2349 0a8a 01       		.byte	0x1
 2350 0a8b 4B01     		.2byte	0x14b
 2351 0a8d B0000000 		.4byte	0xb0
 2352 0a91 FC010000 		.4byte	.LLST29
 2353 0a95 1C       		.uleb128 0x1c
 2354 0a96 C3020000 		.4byte	.LASF140
 2355 0a9a 01       		.byte	0x1
 2356 0a9b 4B01     		.2byte	0x14b
 2357 0a9d 49010000 		.4byte	0x149
 2358 0aa1 1D020000 		.4byte	.LLST30
 2359 0aa5 2B       		.uleb128 0x2b
 2360 0aa6 78000000 		.4byte	.Ldebug_ranges0+0x78
 2361 0aaa 170B0000 		.4byte	0xb17
 2362 0aae 1E       		.uleb128 0x1e
 2363 0aaf 6D736700 		.ascii	"msg\000"
 2364 0ab3 01       		.byte	0x1
 2365 0ab4 4F01     		.2byte	0x14f
 2366 0ab6 28010000 		.4byte	0x128
 2367 0aba 5C020000 		.4byte	.LLST32
 2368 0abe 20       		.uleb128 0x20
 2369 0abf 5B110000 		.4byte	0x115b
 2370 0ac3 4A000000 		.4byte	.LBB170
 2371 0ac7 04000000 		.4byte	.LBE170-.LBB170
 2372 0acb 01       		.byte	0x1
 2373 0acc 5101     		.2byte	0x151
 2374 0ace 0D0B0000 		.4byte	0xb0d
 2375 0ad2 27       		.uleb128 0x27
 2376 0ad3 4A000000 		.4byte	.LBB171
 2377 0ad7 04000000 		.4byte	.LBE171-.LBB171
 2378 0adb 25       		.uleb128 0x25
 2379 0adc 68110000 		.4byte	0x1168
 2380 0ae0 21       		.uleb128 0x21
 2381 0ae1 AE110000 		.4byte	0x11ae
 2382 0ae5 4A000000 		.4byte	.LBB172
 2383 0ae9 04000000 		.4byte	.LBE172-.LBB172
 2384 0aed 12       		.byte	0x12
 2385 0aee 7301     		.2byte	0x173
 2386 0af0 21       		.uleb128 0x21
 2387 0af1 C0110000 		.4byte	0x11c0
 2388 0af5 4A000000 		.4byte	.LBB173
 2389 0af9 04000000 		.4byte	.LBE173-.LBB173
 2390 0afd 0D       		.byte	0xd
 2391 0afe CD01     		.2byte	0x1cd
 2392 0b00 22       		.uleb128 0x22
 2393 0b01 CD110000 		.4byte	0x11cd
 2394 0b05 7A020000 		.4byte	.LLST33
ARM GAS  /tmp/ccwwxqPB.s 			page 43


 2395 0b09 00       		.byte	0
 2396 0b0a 00       		.byte	0
 2397 0b0b 00       		.byte	0
 2398 0b0c 00       		.byte	0
 2399 0b0d 2C       		.uleb128 0x2c
 2400 0b0e 14000000 		.4byte	.LVL54
 2401 0b12 DA110000 		.4byte	0x11da
 2402 0b16 00       		.byte	0
 2403 0b17 20       		.uleb128 0x20
 2404 0b18 8B110000 		.4byte	0x118b
 2405 0b1c 08000000 		.4byte	.LBB165
 2406 0b20 08000000 		.4byte	.LBE165-.LBB165
 2407 0b24 01       		.byte	0x1
 2408 0b25 4D01     		.2byte	0x14d
 2409 0b27 570B0000 		.4byte	0xb57
 2410 0b2b 21       		.uleb128 0x21
 2411 0b2c B7110000 		.4byte	0x11b7
 2412 0b30 08000000 		.4byte	.LBB166
 2413 0b34 08000000 		.4byte	.LBE166-.LBB166
 2414 0b38 12       		.byte	0x12
 2415 0b39 5C01     		.2byte	0x15c
 2416 0b3b 21       		.uleb128 0x21
 2417 0b3c C0110000 		.4byte	0x11c0
 2418 0b40 08000000 		.4byte	.LBB167
 2419 0b44 08000000 		.4byte	.LBE167-.LBB167
 2420 0b48 0D       		.byte	0xd
 2421 0b49 BF01     		.2byte	0x1bf
 2422 0b4b 22       		.uleb128 0x22
 2423 0b4c CD110000 		.4byte	0x11cd
 2424 0b50 8E020000 		.4byte	.LLST31
 2425 0b54 00       		.byte	0
 2426 0b55 00       		.byte	0
 2427 0b56 00       		.byte	0
 2428 0b57 20       		.uleb128 0x20
 2429 0b58 5B110000 		.4byte	0x115b
 2430 0b5c 42000000 		.4byte	.LBB175
 2431 0b60 06000000 		.4byte	.LBE175-.LBB175
 2432 0b64 01       		.byte	0x1
 2433 0b65 5F01     		.2byte	0x15f
 2434 0b67 A60B0000 		.4byte	0xba6
 2435 0b6b 27       		.uleb128 0x27
 2436 0b6c 42000000 		.4byte	.LBB176
 2437 0b70 06000000 		.4byte	.LBE176-.LBB176
 2438 0b74 25       		.uleb128 0x25
 2439 0b75 68110000 		.4byte	0x1168
 2440 0b79 21       		.uleb128 0x21
 2441 0b7a AE110000 		.4byte	0x11ae
 2442 0b7e 42000000 		.4byte	.LBB177
 2443 0b82 06000000 		.4byte	.LBE177-.LBB177
 2444 0b86 12       		.byte	0x12
 2445 0b87 7301     		.2byte	0x173
 2446 0b89 21       		.uleb128 0x21
 2447 0b8a C0110000 		.4byte	0x11c0
 2448 0b8e 42000000 		.4byte	.LBB178
 2449 0b92 06000000 		.4byte	.LBE178-.LBB178
 2450 0b96 0D       		.byte	0xd
 2451 0b97 CD01     		.2byte	0x1cd
ARM GAS  /tmp/ccwwxqPB.s 			page 44


 2452 0b99 22       		.uleb128 0x22
 2453 0b9a CD110000 		.4byte	0x11cd
 2454 0b9e A3020000 		.4byte	.LLST34
 2455 0ba2 00       		.byte	0
 2456 0ba3 00       		.byte	0
 2457 0ba4 00       		.byte	0
 2458 0ba5 00       		.byte	0
 2459 0ba6 2D       		.uleb128 0x2d
 2460 0ba7 42000000 		.4byte	.LVL59
 2461 0bab 29       		.uleb128 0x29
 2462 0bac 01       		.uleb128 0x1
 2463 0bad 50       		.byte	0x50
 2464 0bae 02       		.uleb128 0x2
 2465 0baf 74       		.byte	0x74
 2466 0bb0 00       		.sleb128 0
 2467 0bb1 00       		.byte	0
 2468 0bb2 00       		.byte	0
 2469 0bb3 2E       		.uleb128 0x2e
 2470 0bb4 28070000 		.4byte	.LASF144
 2471 0bb8 01       		.byte	0x1
 2472 0bb9 2B01     		.2byte	0x12b
 2473 0bbb 00000000 		.4byte	.LFB233
 2474 0bbf 18000000 		.4byte	.LFE233-.LFB233
 2475 0bc3 01       		.uleb128 0x1
 2476 0bc4 9C       		.byte	0x9c
 2477 0bc5 F10B0000 		.4byte	0xbf1
 2478 0bc9 1B       		.uleb128 0x1b
 2479 0bca 6F717000 		.ascii	"oqp\000"
 2480 0bce 01       		.byte	0x1
 2481 0bcf 2B01     		.2byte	0x12b
 2482 0bd1 DC090000 		.4byte	0x9dc
 2483 0bd5 B7020000 		.4byte	.LLST27
 2484 0bd9 2F       		.uleb128 0x2f
 2485 0bda 18000000 		.4byte	.LVL50
 2486 0bde F0110000 		.4byte	0x11f0
 2487 0be2 29       		.uleb128 0x29
 2488 0be3 01       		.uleb128 0x1
 2489 0be4 50       		.byte	0x50
 2490 0be5 03       		.uleb128 0x3
 2491 0be6 F3       		.byte	0xf3
 2492 0be7 01       		.uleb128 0x1
 2493 0be8 50       		.byte	0x50
 2494 0be9 29       		.uleb128 0x29
 2495 0bea 01       		.uleb128 0x1
 2496 0beb 51       		.byte	0x51
 2497 0bec 02       		.uleb128 0x2
 2498 0bed 09       		.byte	0x9
 2499 0bee FE       		.byte	0xfe
 2500 0bef 00       		.byte	0
 2501 0bf0 00       		.byte	0
 2502 0bf1 2E       		.uleb128 0x2e
 2503 0bf2 50070000 		.4byte	.LASF145
 2504 0bf6 01       		.byte	0x1
 2505 0bf7 1301     		.2byte	0x113
 2506 0bf9 00000000 		.4byte	.LFB232
 2507 0bfd 1C000000 		.4byte	.LFE232-.LFB232
 2508 0c01 01       		.uleb128 0x1
ARM GAS  /tmp/ccwwxqPB.s 			page 45


 2509 0c02 9C       		.byte	0x9c
 2510 0c03 830C0000 		.4byte	0xc83
 2511 0c07 30       		.uleb128 0x30
 2512 0c08 6F717000 		.ascii	"oqp\000"
 2513 0c0c 01       		.byte	0x1
 2514 0c0d 1301     		.2byte	0x113
 2515 0c0f DC090000 		.4byte	0x9dc
 2516 0c13 01       		.uleb128 0x1
 2517 0c14 50       		.byte	0x50
 2518 0c15 30       		.uleb128 0x30
 2519 0c16 627000   		.ascii	"bp\000"
 2520 0c19 01       		.byte	0x1
 2521 0c1a 1301     		.2byte	0x113
 2522 0c1c 0C080000 		.4byte	0x80c
 2523 0c20 01       		.uleb128 0x1
 2524 0c21 51       		.byte	0x51
 2525 0c22 31       		.uleb128 0x31
 2526 0c23 B8070000 		.4byte	.LASF146
 2527 0c27 01       		.byte	0x1
 2528 0c28 1301     		.2byte	0x113
 2529 0c2a 28000000 		.4byte	0x28
 2530 0c2e 01       		.uleb128 0x1
 2531 0c2f 52       		.byte	0x52
 2532 0c30 31       		.uleb128 0x31
 2533 0c31 29000000 		.4byte	.LASF147
 2534 0c35 01       		.byte	0x1
 2535 0c36 1401     		.2byte	0x114
 2536 0c38 EA070000 		.4byte	0x7ea
 2537 0c3c 01       		.uleb128 0x1
 2538 0c3d 53       		.byte	0x53
 2539 0c3e 1C       		.uleb128 0x1c
 2540 0c3f 35020000 		.4byte	.LASF148
 2541 0c43 01       		.byte	0x1
 2542 0c44 1401     		.2byte	0x114
 2543 0c46 34030000 		.4byte	0x334
 2544 0c4a D8020000 		.4byte	.LLST24
 2545 0c4e 21       		.uleb128 0x21
 2546 0c4f 3B110000 		.4byte	0x113b
 2547 0c53 0A000000 		.4byte	.LBB162
 2548 0c57 04000000 		.4byte	.LBE162-.LBB162
 2549 0c5b 01       		.byte	0x1
 2550 0c5c 1601     		.2byte	0x116
 2551 0c5e 22       		.uleb128 0x22
 2552 0c5f 48110000 		.4byte	0x1148
 2553 0c63 F8020000 		.4byte	.LLST25
 2554 0c67 21       		.uleb128 0x21
 2555 0c68 94110000 		.4byte	0x1194
 2556 0c6c 0A000000 		.4byte	.LBB163
 2557 0c70 04000000 		.4byte	.LBE163-.LBB163
 2558 0c74 13       		.byte	0x13
 2559 0c75 1801     		.2byte	0x118
 2560 0c77 22       		.uleb128 0x22
 2561 0c78 A1110000 		.4byte	0x11a1
 2562 0c7c F8020000 		.4byte	.LLST25
 2563 0c80 00       		.byte	0
 2564 0c81 00       		.byte	0
 2565 0c82 00       		.byte	0
ARM GAS  /tmp/ccwwxqPB.s 			page 46


 2566 0c83 32       		.uleb128 0x32
 2567 0c84 7B000000 		.4byte	.LASF149
 2568 0c88 01       		.byte	0x1
 2569 0c89 DF       		.byte	0xdf
 2570 0c8a 28000000 		.4byte	0x28
 2571 0c8e 00000000 		.4byte	.LFB231
 2572 0c92 74000000 		.4byte	.LFE231-.LFB231
 2573 0c96 01       		.uleb128 0x1
 2574 0c97 9C       		.byte	0x9c
 2575 0c98 280E0000 		.4byte	0xe28
 2576 0c9c 33       		.uleb128 0x33
 2577 0c9d 69717000 		.ascii	"iqp\000"
 2578 0ca1 01       		.byte	0x1
 2579 0ca2 DF       		.byte	0xdf
 2580 0ca3 280E0000 		.4byte	0xe28
 2581 0ca7 0B030000 		.4byte	.LLST15
 2582 0cab 33       		.uleb128 0x33
 2583 0cac 627000   		.ascii	"bp\000"
 2584 0caf 01       		.byte	0x1
 2585 0cb0 DF       		.byte	0xdf
 2586 0cb1 0C080000 		.4byte	0x80c
 2587 0cb5 55030000 		.4byte	.LLST16
 2588 0cb9 33       		.uleb128 0x33
 2589 0cba 6E00     		.ascii	"n\000"
 2590 0cbc 01       		.byte	0x1
 2591 0cbd E0       		.byte	0xe0
 2592 0cbe 28000000 		.4byte	0x28
 2593 0cc2 8B030000 		.4byte	.LLST17
 2594 0cc6 34       		.uleb128 0x34
 2595 0cc7 C3020000 		.4byte	.LASF140
 2596 0ccb 01       		.byte	0x1
 2597 0ccc E0       		.byte	0xe0
 2598 0ccd 49010000 		.4byte	0x149
 2599 0cd1 AE030000 		.4byte	.LLST18
 2600 0cd5 35       		.uleb128 0x35
 2601 0cd6 6E667900 		.ascii	"nfy\000"
 2602 0cda 01       		.byte	0x1
 2603 0cdb E1       		.byte	0xe1
 2604 0cdc EA070000 		.4byte	0x7ea
 2605 0ce0 01       		.uleb128 0x1
 2606 0ce1 58       		.byte	0x58
 2607 0ce2 36       		.uleb128 0x36
 2608 0ce3 7200     		.ascii	"r\000"
 2609 0ce5 01       		.byte	0x1
 2610 0ce6 E2       		.byte	0xe2
 2611 0ce7 28000000 		.4byte	0x28
 2612 0ceb F8030000 		.4byte	.LLST19
 2613 0cef 1F       		.uleb128 0x1f
 2614 0cf0 04060000 		.4byte	.LASF150
 2615 0cf4 3E0E0000 		.4byte	0xe3e
 2616 0cf8 37       		.uleb128 0x37
 2617 0cf9 8B110000 		.4byte	0x118b
 2618 0cfd 12000000 		.4byte	.LBB135
 2619 0d01 06000000 		.4byte	.LBE135-.LBB135
 2620 0d05 01       		.byte	0x1
 2621 0d06 E6       		.byte	0xe6
 2622 0d07 370D0000 		.4byte	0xd37
ARM GAS  /tmp/ccwwxqPB.s 			page 47


 2623 0d0b 21       		.uleb128 0x21
 2624 0d0c B7110000 		.4byte	0x11b7
 2625 0d10 12000000 		.4byte	.LBB136
 2626 0d14 06000000 		.4byte	.LBE136-.LBB136
 2627 0d18 12       		.byte	0x12
 2628 0d19 5C01     		.2byte	0x15c
 2629 0d1b 21       		.uleb128 0x21
 2630 0d1c C0110000 		.4byte	0x11c0
 2631 0d20 12000000 		.4byte	.LBB137
 2632 0d24 06000000 		.4byte	.LBE137-.LBB137
 2633 0d28 0D       		.byte	0xd
 2634 0d29 BF01     		.2byte	0x1bf
 2635 0d2b 22       		.uleb128 0x22
 2636 0d2c CD110000 		.4byte	0x11cd
 2637 0d30 17040000 		.4byte	.LLST20
 2638 0d34 00       		.byte	0
 2639 0d35 00       		.byte	0
 2640 0d36 00       		.byte	0
 2641 0d37 38       		.uleb128 0x38
 2642 0d38 8B110000 		.4byte	0x118b
 2643 0d3c 1A000000 		.4byte	.LBB139
 2644 0d40 48000000 		.4byte	.Ldebug_ranges0+0x48
 2645 0d44 01       		.byte	0x1
 2646 0d45 FF       		.byte	0xff
 2647 0d46 760D0000 		.4byte	0xd76
 2648 0d4a 26       		.uleb128 0x26
 2649 0d4b B7110000 		.4byte	0x11b7
 2650 0d4f 1A000000 		.4byte	.LBB140
 2651 0d53 48000000 		.4byte	.Ldebug_ranges0+0x48
 2652 0d57 12       		.byte	0x12
 2653 0d58 5C01     		.2byte	0x15c
 2654 0d5a 26       		.uleb128 0x26
 2655 0d5b C0110000 		.4byte	0x11c0
 2656 0d5f 1A000000 		.4byte	.LBB141
 2657 0d63 48000000 		.4byte	.Ldebug_ranges0+0x48
 2658 0d67 0D       		.byte	0xd
 2659 0d68 BF01     		.2byte	0x1bf
 2660 0d6a 22       		.uleb128 0x22
 2661 0d6b CD110000 		.4byte	0x11cd
 2662 0d6f 2C040000 		.4byte	.LLST21
 2663 0d73 00       		.byte	0
 2664 0d74 00       		.byte	0
 2665 0d75 00       		.byte	0
 2666 0d76 38       		.uleb128 0x38
 2667 0d77 5B110000 		.4byte	0x115b
 2668 0d7b 1C000000 		.4byte	.LBB146
 2669 0d7f 60000000 		.4byte	.Ldebug_ranges0+0x60
 2670 0d83 01       		.byte	0x1
 2671 0d84 F8       		.byte	0xf8
 2672 0d85 C00D0000 		.4byte	0xdc0
 2673 0d89 24       		.uleb128 0x24
 2674 0d8a 60000000 		.4byte	.Ldebug_ranges0+0x60
 2675 0d8e 25       		.uleb128 0x25
 2676 0d8f 68110000 		.4byte	0x1168
 2677 0d93 26       		.uleb128 0x26
 2678 0d94 AE110000 		.4byte	0x11ae
 2679 0d98 1C000000 		.4byte	.LBB148
ARM GAS  /tmp/ccwwxqPB.s 			page 48


 2680 0d9c 60000000 		.4byte	.Ldebug_ranges0+0x60
 2681 0da0 12       		.byte	0x12
 2682 0da1 7301     		.2byte	0x173
 2683 0da3 26       		.uleb128 0x26
 2684 0da4 C0110000 		.4byte	0x11c0
 2685 0da8 1C000000 		.4byte	.LBB149
 2686 0dac 60000000 		.4byte	.Ldebug_ranges0+0x60
 2687 0db0 0D       		.byte	0xd
 2688 0db1 CD01     		.2byte	0x1cd
 2689 0db3 22       		.uleb128 0x22
 2690 0db4 CD110000 		.4byte	0x11cd
 2691 0db8 41040000 		.4byte	.LLST22
 2692 0dbc 00       		.byte	0
 2693 0dbd 00       		.byte	0
 2694 0dbe 00       		.byte	0
 2695 0dbf 00       		.byte	0
 2696 0dc0 37       		.uleb128 0x37
 2697 0dc1 5B110000 		.4byte	0x115b
 2698 0dc5 68000000 		.4byte	.LBB157
 2699 0dc9 04000000 		.4byte	.LBE157-.LBB157
 2700 0dcd 01       		.byte	0x1
 2701 0dce EE       		.byte	0xee
 2702 0dcf 0E0E0000 		.4byte	0xe0e
 2703 0dd3 27       		.uleb128 0x27
 2704 0dd4 68000000 		.4byte	.LBB158
 2705 0dd8 04000000 		.4byte	.LBE158-.LBB158
 2706 0ddc 25       		.uleb128 0x25
 2707 0ddd 68110000 		.4byte	0x1168
 2708 0de1 21       		.uleb128 0x21
 2709 0de2 AE110000 		.4byte	0x11ae
 2710 0de6 68000000 		.4byte	.LBB159
 2711 0dea 04000000 		.4byte	.LBE159-.LBB159
 2712 0dee 12       		.byte	0x12
 2713 0def 7301     		.2byte	0x173
 2714 0df1 21       		.uleb128 0x21
 2715 0df2 C0110000 		.4byte	0x11c0
 2716 0df6 68000000 		.4byte	.LBB160
 2717 0dfa 04000000 		.4byte	.LBE160-.LBB160
 2718 0dfe 0D       		.byte	0xd
 2719 0dff CD01     		.2byte	0x1cd
 2720 0e01 22       		.uleb128 0x22
 2721 0e02 CD110000 		.4byte	0x11cd
 2722 0e06 55040000 		.4byte	.LLST23
 2723 0e0a 00       		.byte	0
 2724 0e0b 00       		.byte	0
 2725 0e0c 00       		.byte	0
 2726 0e0d 00       		.byte	0
 2727 0e0e 39       		.uleb128 0x39
 2728 0e0f 28000000 		.4byte	.LVL31
 2729 0e13 1E0E0000 		.4byte	0xe1e
 2730 0e17 29       		.uleb128 0x29
 2731 0e18 01       		.uleb128 0x1
 2732 0e19 50       		.byte	0x50
 2733 0e1a 02       		.uleb128 0x2
 2734 0e1b 74       		.byte	0x74
 2735 0e1c 00       		.sleb128 0
 2736 0e1d 00       		.byte	0
ARM GAS  /tmp/ccwwxqPB.s 			page 49


 2737 0e1e 2C       		.uleb128 0x2c
 2738 0e1f 2E000000 		.4byte	.LVL33
 2739 0e23 DA110000 		.4byte	0x11da
 2740 0e27 00       		.byte	0
 2741 0e28 0B       		.uleb128 0xb
 2742 0e29 04       		.byte	0x4
 2743 0e2a 12080000 		.4byte	0x812
 2744 0e2e 17       		.uleb128 0x17
 2745 0e2f 2F060000 		.4byte	0x62f
 2746 0e33 3E0E0000 		.4byte	0xe3e
 2747 0e37 18       		.uleb128 0x18
 2748 0e38 6A040000 		.4byte	0x46a
 2749 0e3c 0F       		.byte	0xf
 2750 0e3d 00       		.byte	0
 2751 0e3e 05       		.uleb128 0x5
 2752 0e3f 2E0E0000 		.4byte	0xe2e
 2753 0e43 32       		.uleb128 0x32
 2754 0e44 1D080000 		.4byte	.LASF151
 2755 0e48 01       		.byte	0x1
 2756 0e49 AD       		.byte	0xad
 2757 0e4a 28010000 		.4byte	0x128
 2758 0e4e 00000000 		.4byte	.LFB230
 2759 0e52 4E000000 		.4byte	.LFE230-.LFB230
 2760 0e56 01       		.uleb128 0x1
 2761 0e57 9C       		.byte	0x9c
 2762 0e58 910F0000 		.4byte	0xf91
 2763 0e5c 33       		.uleb128 0x33
 2764 0e5d 69717000 		.ascii	"iqp\000"
 2765 0e61 01       		.byte	0x1
 2766 0e62 AD       		.byte	0xad
 2767 0e63 280E0000 		.4byte	0xe28
 2768 0e67 69040000 		.4byte	.LLST8
 2769 0e6b 34       		.uleb128 0x34
 2770 0e6c C3020000 		.4byte	.LASF140
 2771 0e70 01       		.byte	0x1
 2772 0e71 AD       		.byte	0xad
 2773 0e72 49010000 		.4byte	0x149
 2774 0e76 B3040000 		.4byte	.LLST9
 2775 0e7a 36       		.uleb128 0x36
 2776 0e7b 6200     		.ascii	"b\000"
 2777 0e7d 01       		.byte	0x1
 2778 0e7e AE       		.byte	0xae
 2779 0e7f B0000000 		.4byte	0xb0
 2780 0e83 FD040000 		.4byte	.LLST10
 2781 0e87 2B       		.uleb128 0x2b
 2782 0e88 30000000 		.4byte	.Ldebug_ranges0+0x30
 2783 0e8c F70E0000 		.4byte	0xef7
 2784 0e90 36       		.uleb128 0x36
 2785 0e91 6D736700 		.ascii	"msg\000"
 2786 0e95 01       		.byte	0x1
 2787 0e96 B6       		.byte	0xb6
 2788 0e97 28010000 		.4byte	0x128
 2789 0e9b 10050000 		.4byte	.LLST12
 2790 0e9f 37       		.uleb128 0x37
 2791 0ea0 5B110000 		.4byte	0x115b
 2792 0ea4 48000000 		.4byte	.LBB124
 2793 0ea8 04000000 		.4byte	.LBE124-.LBB124
ARM GAS  /tmp/ccwwxqPB.s 			page 50


 2794 0eac 01       		.byte	0x1
 2795 0ead B8       		.byte	0xb8
 2796 0eae ED0E0000 		.4byte	0xeed
 2797 0eb2 27       		.uleb128 0x27
 2798 0eb3 48000000 		.4byte	.LBB125
 2799 0eb7 04000000 		.4byte	.LBE125-.LBB125
 2800 0ebb 25       		.uleb128 0x25
 2801 0ebc 68110000 		.4byte	0x1168
 2802 0ec0 21       		.uleb128 0x21
 2803 0ec1 AE110000 		.4byte	0x11ae
 2804 0ec5 48000000 		.4byte	.LBB126
 2805 0ec9 04000000 		.4byte	.LBE126-.LBB126
 2806 0ecd 12       		.byte	0x12
 2807 0ece 7301     		.2byte	0x173
 2808 0ed0 21       		.uleb128 0x21
 2809 0ed1 C0110000 		.4byte	0x11c0
 2810 0ed5 48000000 		.4byte	.LBB127
 2811 0ed9 04000000 		.4byte	.LBE127-.LBB127
 2812 0edd 0D       		.byte	0xd
 2813 0ede CD01     		.2byte	0x1cd
 2814 0ee0 22       		.uleb128 0x22
 2815 0ee1 CD110000 		.4byte	0x11cd
 2816 0ee5 2E050000 		.4byte	.LLST13
 2817 0ee9 00       		.byte	0
 2818 0eea 00       		.byte	0
 2819 0eeb 00       		.byte	0
 2820 0eec 00       		.byte	0
 2821 0eed 2C       		.uleb128 0x2c
 2822 0eee 18000000 		.4byte	.LVL16
 2823 0ef2 DA110000 		.4byte	0x11da
 2824 0ef6 00       		.byte	0
 2825 0ef7 38       		.uleb128 0x38
 2826 0ef8 8B110000 		.4byte	0x118b
 2827 0efc 02000000 		.4byte	.LBB115
 2828 0f00 18000000 		.4byte	.Ldebug_ranges0+0x18
 2829 0f04 01       		.byte	0x1
 2830 0f05 B0       		.byte	0xb0
 2831 0f06 360F0000 		.4byte	0xf36
 2832 0f0a 26       		.uleb128 0x26
 2833 0f0b B7110000 		.4byte	0x11b7
 2834 0f0f 02000000 		.4byte	.LBB116
 2835 0f13 18000000 		.4byte	.Ldebug_ranges0+0x18
 2836 0f17 12       		.byte	0x12
 2837 0f18 5C01     		.2byte	0x15c
 2838 0f1a 26       		.uleb128 0x26
 2839 0f1b C0110000 		.4byte	0x11c0
 2840 0f1f 02000000 		.4byte	.LBB117
 2841 0f23 18000000 		.4byte	.Ldebug_ranges0+0x18
 2842 0f27 0D       		.byte	0xd
 2843 0f28 BF01     		.2byte	0x1bf
 2844 0f2a 22       		.uleb128 0x22
 2845 0f2b CD110000 		.4byte	0x11cd
 2846 0f2f 42050000 		.4byte	.LLST11
 2847 0f33 00       		.byte	0
 2848 0f34 00       		.byte	0
 2849 0f35 00       		.byte	0
 2850 0f36 37       		.uleb128 0x37
ARM GAS  /tmp/ccwwxqPB.s 			page 51


 2851 0f37 5B110000 		.4byte	0x115b
 2852 0f3b 40000000 		.4byte	.LBB129
 2853 0f3f 06000000 		.4byte	.LBE129-.LBB129
 2854 0f43 01       		.byte	0x1
 2855 0f44 C2       		.byte	0xc2
 2856 0f45 840F0000 		.4byte	0xf84
 2857 0f49 27       		.uleb128 0x27
 2858 0f4a 40000000 		.4byte	.LBB130
 2859 0f4e 06000000 		.4byte	.LBE130-.LBB130
 2860 0f52 25       		.uleb128 0x25
 2861 0f53 68110000 		.4byte	0x1168
 2862 0f57 21       		.uleb128 0x21
 2863 0f58 AE110000 		.4byte	0x11ae
 2864 0f5c 40000000 		.4byte	.LBB131
 2865 0f60 06000000 		.4byte	.LBE131-.LBB131
 2866 0f64 12       		.byte	0x12
 2867 0f65 7301     		.2byte	0x173
 2868 0f67 21       		.uleb128 0x21
 2869 0f68 C0110000 		.4byte	0x11c0
 2870 0f6c 40000000 		.4byte	.LBB132
 2871 0f70 06000000 		.4byte	.LBE132-.LBB132
 2872 0f74 0D       		.byte	0xd
 2873 0f75 CD01     		.2byte	0x1cd
 2874 0f77 22       		.uleb128 0x22
 2875 0f78 CD110000 		.4byte	0x11cd
 2876 0f7c 57050000 		.4byte	.LLST14
 2877 0f80 00       		.byte	0
 2878 0f81 00       		.byte	0
 2879 0f82 00       		.byte	0
 2880 0f83 00       		.byte	0
 2881 0f84 2D       		.uleb128 0x2d
 2882 0f85 12000000 		.4byte	.LVL14
 2883 0f89 29       		.uleb128 0x29
 2884 0f8a 01       		.uleb128 0x1
 2885 0f8b 50       		.byte	0x50
 2886 0f8c 02       		.uleb128 0x2
 2887 0f8d 74       		.byte	0x74
 2888 0f8e 00       		.sleb128 0
 2889 0f8f 00       		.byte	0
 2890 0f90 00       		.byte	0
 2891 0f91 32       		.uleb128 0x32
 2892 0f92 3A020000 		.4byte	.LASF152
 2893 0f96 01       		.byte	0x1
 2894 0f97 86       		.byte	0x86
 2895 0f98 28010000 		.4byte	0x128
 2896 0f9c 00000000 		.4byte	.LFB229
 2897 0fa0 36000000 		.4byte	.LFE229-.LFB229
 2898 0fa4 01       		.uleb128 0x1
 2899 0fa5 9C       		.byte	0x9c
 2900 0fa6 F30F0000 		.4byte	0xff3
 2901 0faa 33       		.uleb128 0x33
 2902 0fab 69717000 		.ascii	"iqp\000"
 2903 0faf 01       		.byte	0x1
 2904 0fb0 86       		.byte	0x86
 2905 0fb1 280E0000 		.4byte	0xe28
 2906 0fb5 6B050000 		.4byte	.LLST5
 2907 0fb9 33       		.uleb128 0x33
ARM GAS  /tmp/ccwwxqPB.s 			page 52


 2908 0fba 6200     		.ascii	"b\000"
 2909 0fbc 01       		.byte	0x1
 2910 0fbd 86       		.byte	0x86
 2911 0fbe B0000000 		.4byte	0xb0
 2912 0fc2 A5050000 		.4byte	.LLST6
 2913 0fc6 38       		.uleb128 0x38
 2914 0fc7 FF100000 		.4byte	0x10ff
 2915 0fcb 00000000 		.4byte	.LBB111
 2916 0fcf 00000000 		.4byte	.Ldebug_ranges0+0
 2917 0fd3 01       		.byte	0x1
 2918 0fd4 8A       		.byte	0x8a
 2919 0fd5 E30F0000 		.4byte	0xfe3
 2920 0fd9 22       		.uleb128 0x22
 2921 0fda 10110000 		.4byte	0x1110
 2922 0fde D1050000 		.4byte	.LLST7
 2923 0fe2 00       		.byte	0
 2924 0fe3 28       		.uleb128 0x28
 2925 0fe4 28000000 		.4byte	.LVL9
 2926 0fe8 E5110000 		.4byte	0x11e5
 2927 0fec 29       		.uleb128 0x29
 2928 0fed 01       		.uleb128 0x1
 2929 0fee 51       		.byte	0x51
 2930 0fef 01       		.uleb128 0x1
 2931 0ff0 30       		.byte	0x30
 2932 0ff1 00       		.byte	0
 2933 0ff2 00       		.byte	0
 2934 0ff3 3A       		.uleb128 0x3a
 2935 0ff4 9D020000 		.4byte	.LASF153
 2936 0ff8 01       		.byte	0x1
 2937 0ff9 6F       		.byte	0x6f
 2938 0ffa 00000000 		.4byte	.LFB228
 2939 0ffe 12000000 		.4byte	.LFE228-.LFB228
 2940 1002 01       		.uleb128 0x1
 2941 1003 9C       		.byte	0x9c
 2942 1004 2F100000 		.4byte	0x102f
 2943 1008 33       		.uleb128 0x33
 2944 1009 69717000 		.ascii	"iqp\000"
 2945 100d 01       		.byte	0x1
 2946 100e 6F       		.byte	0x6f
 2947 100f 280E0000 		.4byte	0xe28
 2948 1013 FD050000 		.4byte	.LLST4
 2949 1017 2F       		.uleb128 0x2f
 2950 1018 12000000 		.4byte	.LVL5
 2951 101c F0110000 		.4byte	0x11f0
 2952 1020 29       		.uleb128 0x29
 2953 1021 01       		.uleb128 0x1
 2954 1022 50       		.byte	0x50
 2955 1023 03       		.uleb128 0x3
 2956 1024 F3       		.byte	0xf3
 2957 1025 01       		.uleb128 0x1
 2958 1026 50       		.byte	0x50
 2959 1027 29       		.uleb128 0x29
 2960 1028 01       		.uleb128 0x1
 2961 1029 51       		.byte	0x51
 2962 102a 02       		.uleb128 0x2
 2963 102b 09       		.byte	0x9
 2964 102c FE       		.byte	0xfe
ARM GAS  /tmp/ccwwxqPB.s 			page 53


 2965 102d 00       		.byte	0
 2966 102e 00       		.byte	0
 2967 102f 3A       		.uleb128 0x3a
 2968 1030 A6000000 		.4byte	.LASF154
 2969 1034 01       		.byte	0x1
 2970 1035 57       		.byte	0x57
 2971 1036 00000000 		.4byte	.LFB227
 2972 103a 1E000000 		.4byte	.LFE227-.LFB227
 2973 103e 01       		.uleb128 0x1
 2974 103f 9C       		.byte	0x9c
 2975 1040 BC100000 		.4byte	0x10bc
 2976 1044 3B       		.uleb128 0x3b
 2977 1045 69717000 		.ascii	"iqp\000"
 2978 1049 01       		.byte	0x1
 2979 104a 57       		.byte	0x57
 2980 104b 280E0000 		.4byte	0xe28
 2981 104f 01       		.uleb128 0x1
 2982 1050 50       		.byte	0x50
 2983 1051 3B       		.uleb128 0x3b
 2984 1052 627000   		.ascii	"bp\000"
 2985 1055 01       		.byte	0x1
 2986 1056 57       		.byte	0x57
 2987 1057 0C080000 		.4byte	0x80c
 2988 105b 01       		.uleb128 0x1
 2989 105c 51       		.byte	0x51
 2990 105d 34       		.uleb128 0x34
 2991 105e B8070000 		.4byte	.LASF146
 2992 1062 01       		.byte	0x1
 2993 1063 57       		.byte	0x57
 2994 1064 28000000 		.4byte	0x28
 2995 1068 1E060000 		.4byte	.LLST0
 2996 106c 3C       		.uleb128 0x3c
 2997 106d E8050000 		.4byte	.LASF155
 2998 1071 01       		.byte	0x1
 2999 1072 58       		.byte	0x58
 3000 1073 EA070000 		.4byte	0x7ea
 3001 1077 01       		.uleb128 0x1
 3002 1078 53       		.byte	0x53
 3003 1079 34       		.uleb128 0x34
 3004 107a 35020000 		.4byte	.LASF148
 3005 107e 01       		.byte	0x1
 3006 107f 58       		.byte	0x58
 3007 1080 34030000 		.4byte	0x334
 3008 1084 3F060000 		.4byte	.LLST1
 3009 1088 3D       		.uleb128 0x3d
 3010 1089 3B110000 		.4byte	0x113b
 3011 108d 0E000000 		.4byte	.LBB108
 3012 1091 04000000 		.4byte	.LBE108-.LBB108
 3013 1095 01       		.byte	0x1
 3014 1096 5A       		.byte	0x5a
 3015 1097 22       		.uleb128 0x22
 3016 1098 48110000 		.4byte	0x1148
 3017 109c 5F060000 		.4byte	.LLST2
 3018 10a0 21       		.uleb128 0x21
 3019 10a1 94110000 		.4byte	0x1194
 3020 10a5 0E000000 		.4byte	.LBB109
 3021 10a9 04000000 		.4byte	.LBE109-.LBB109
ARM GAS  /tmp/ccwwxqPB.s 			page 54


 3022 10ad 13       		.byte	0x13
 3023 10ae 1801     		.2byte	0x118
 3024 10b0 22       		.uleb128 0x22
 3025 10b1 A1110000 		.4byte	0x11a1
 3026 10b5 5F060000 		.4byte	.LLST2
 3027 10b9 00       		.byte	0
 3028 10ba 00       		.byte	0
 3029 10bb 00       		.byte	0
 3030 10bc 3E       		.uleb128 0x3e
 3031 10bd 61050000 		.4byte	.LASF157
 3032 10c1 03       		.byte	0x3
 3033 10c2 9301     		.2byte	0x193
 3034 10c4 DA100000 		.4byte	0x10da
 3035 10c8 03       		.byte	0x3
 3036 10c9 DA100000 		.4byte	0x10da
 3037 10cd 3F       		.uleb128 0x3f
 3038 10ce 6F717000 		.ascii	"oqp\000"
 3039 10d2 03       		.byte	0x3
 3040 10d3 9301     		.2byte	0x193
 3041 10d5 DC090000 		.4byte	0x9dc
 3042 10d9 00       		.byte	0
 3043 10da 04       		.uleb128 0x4
 3044 10db 01       		.byte	0x1
 3045 10dc 02       		.byte	0x2
 3046 10dd 8D050000 		.4byte	.LASF156
 3047 10e1 3E       		.uleb128 0x3e
 3048 10e2 BD070000 		.4byte	.LASF158
 3049 10e6 03       		.byte	0x3
 3050 10e7 8201     		.2byte	0x182
 3051 10e9 DA100000 		.4byte	0x10da
 3052 10ed 03       		.byte	0x3
 3053 10ee FF100000 		.4byte	0x10ff
 3054 10f2 3F       		.uleb128 0x3f
 3055 10f3 6F717000 		.ascii	"oqp\000"
 3056 10f7 03       		.byte	0x3
 3057 10f8 8201     		.2byte	0x182
 3058 10fa DC090000 		.4byte	0x9dc
 3059 10fe 00       		.byte	0
 3060 10ff 3E       		.uleb128 0x3e
 3061 1100 5D060000 		.4byte	.LASF159
 3062 1104 03       		.byte	0x3
 3063 1105 4001     		.2byte	0x140
 3064 1107 DA100000 		.4byte	0x10da
 3065 110b 03       		.byte	0x3
 3066 110c 1D110000 		.4byte	0x111d
 3067 1110 3F       		.uleb128 0x3f
 3068 1111 69717000 		.ascii	"iqp\000"
 3069 1115 03       		.byte	0x3
 3070 1116 4001     		.2byte	0x140
 3071 1118 280E0000 		.4byte	0xe28
 3072 111c 00       		.byte	0
 3073 111d 3E       		.uleb128 0x3e
 3074 111e 7A070000 		.4byte	.LASF160
 3075 1122 03       		.byte	0x3
 3076 1123 2F01     		.2byte	0x12f
 3077 1125 DA100000 		.4byte	0x10da
 3078 1129 03       		.byte	0x3
ARM GAS  /tmp/ccwwxqPB.s 			page 55


 3079 112a 3B110000 		.4byte	0x113b
 3080 112e 3F       		.uleb128 0x3f
 3081 112f 69717000 		.ascii	"iqp\000"
 3082 1133 03       		.byte	0x3
 3083 1134 2F01     		.2byte	0x12f
 3084 1136 280E0000 		.4byte	0xe28
 3085 113a 00       		.byte	0
 3086 113b 40       		.uleb128 0x40
 3087 113c 91030000 		.4byte	.LASF161
 3088 1140 13       		.byte	0x13
 3089 1141 1601     		.2byte	0x116
 3090 1143 03       		.byte	0x3
 3091 1144 55110000 		.4byte	0x1155
 3092 1148 3F       		.uleb128 0x3f
 3093 1149 74717000 		.ascii	"tqp\000"
 3094 114d 13       		.byte	0x13
 3095 114e 1601     		.2byte	0x116
 3096 1150 55110000 		.4byte	0x1155
 3097 1154 00       		.byte	0
 3098 1155 0B       		.uleb128 0xb
 3099 1156 04       		.byte	0x4
 3100 1157 81020000 		.4byte	0x281
 3101 115b 40       		.uleb128 0x40
 3102 115c E1070000 		.4byte	.LASF162
 3103 1160 12       		.byte	0x12
 3104 1161 6601     		.2byte	0x166
 3105 1163 03       		.byte	0x3
 3106 1164 76110000 		.4byte	0x1176
 3107 1168 41       		.uleb128 0x41
 3108 1169 04060000 		.4byte	.LASF150
 3109 116d 86110000 		.4byte	0x1186
 3110 1171 E1070000 		.4byte	.LASF162
 3111 1175 00       		.byte	0
 3112 1176 17       		.uleb128 0x17
 3113 1177 2F060000 		.4byte	0x62f
 3114 117b 86110000 		.4byte	0x1186
 3115 117f 18       		.uleb128 0x18
 3116 1180 6A040000 		.4byte	0x46a
 3117 1184 0B       		.byte	0xb
 3118 1185 00       		.byte	0
 3119 1186 05       		.uleb128 0x5
 3120 1187 76110000 		.4byte	0x1176
 3121 118b 42       		.uleb128 0x42
 3122 118c 0D060000 		.4byte	.LASF164
 3123 1190 12       		.byte	0x12
 3124 1191 5A01     		.2byte	0x15a
 3125 1193 03       		.byte	0x3
 3126 1194 40       		.uleb128 0x40
 3127 1195 8B000000 		.4byte	.LASF163
 3128 1199 02       		.byte	0x2
 3129 119a 5A02     		.2byte	0x25a
 3130 119c 03       		.byte	0x3
 3131 119d AE110000 		.4byte	0x11ae
 3132 11a1 3F       		.uleb128 0x3f
 3133 11a2 74717000 		.ascii	"tqp\000"
 3134 11a6 02       		.byte	0x2
 3135 11a7 5A02     		.2byte	0x25a
ARM GAS  /tmp/ccwwxqPB.s 			page 56


 3136 11a9 55110000 		.4byte	0x1155
 3137 11ad 00       		.byte	0
 3138 11ae 42       		.uleb128 0x42
 3139 11af 99010000 		.4byte	.LASF165
 3140 11b3 0D       		.byte	0xd
 3141 11b4 CA01     		.2byte	0x1ca
 3142 11b6 03       		.byte	0x3
 3143 11b7 42       		.uleb128 0x42
 3144 11b8 96000000 		.4byte	.LASF166
 3145 11bc 0D       		.byte	0xd
 3146 11bd BC01     		.2byte	0x1bc
 3147 11bf 03       		.byte	0x3
 3148 11c0 40       		.uleb128 0x40
 3149 11c1 09070000 		.4byte	.LASF167
 3150 11c5 04       		.byte	0x4
 3151 11c6 2002     		.2byte	0x220
 3152 11c8 03       		.byte	0x3
 3153 11c9 DA110000 		.4byte	0x11da
 3154 11cd 43       		.uleb128 0x43
 3155 11ce 4B020000 		.4byte	.LASF168
 3156 11d2 04       		.byte	0x4
 3157 11d3 2002     		.2byte	0x220
 3158 11d5 DB000000 		.4byte	0xdb
 3159 11d9 00       		.byte	0
 3160 11da 44       		.uleb128 0x44
 3161 11db 2C080000 		.4byte	.LASF169
 3162 11df 2C080000 		.4byte	.LASF169
 3163 11e3 13       		.byte	0x13
 3164 11e4 92       		.byte	0x92
 3165 11e5 44       		.uleb128 0x44
 3166 11e6 FA010000 		.4byte	.LASF170
 3167 11ea FA010000 		.4byte	.LASF170
 3168 11ee 13       		.byte	0x13
 3169 11ef 93       		.byte	0x93
 3170 11f0 44       		.uleb128 0x44
 3171 11f1 45000000 		.4byte	.LASF171
 3172 11f5 45000000 		.4byte	.LASF171
 3173 11f9 13       		.byte	0x13
 3174 11fa 94       		.byte	0x94
 3175 11fb 00       		.byte	0
 3176              		.section	.debug_abbrev,"",%progbits
 3177              	.Ldebug_abbrev0:
 3178 0000 01       		.uleb128 0x1
 3179 0001 11       		.uleb128 0x11
 3180 0002 01       		.byte	0x1
 3181 0003 25       		.uleb128 0x25
 3182 0004 0E       		.uleb128 0xe
 3183 0005 13       		.uleb128 0x13
 3184 0006 0B       		.uleb128 0xb
 3185 0007 03       		.uleb128 0x3
 3186 0008 0E       		.uleb128 0xe
 3187 0009 55       		.uleb128 0x55
 3188 000a 17       		.uleb128 0x17
 3189 000b 11       		.uleb128 0x11
 3190 000c 01       		.uleb128 0x1
 3191 000d 10       		.uleb128 0x10
 3192 000e 17       		.uleb128 0x17
ARM GAS  /tmp/ccwwxqPB.s 			page 57


 3193 000f 00       		.byte	0
 3194 0010 00       		.byte	0
 3195 0011 02       		.uleb128 0x2
 3196 0012 24       		.uleb128 0x24
 3197 0013 00       		.byte	0
 3198 0014 0B       		.uleb128 0xb
 3199 0015 0B       		.uleb128 0xb
 3200 0016 3E       		.uleb128 0x3e
 3201 0017 0B       		.uleb128 0xb
 3202 0018 03       		.uleb128 0x3
 3203 0019 08       		.uleb128 0x8
 3204 001a 00       		.byte	0
 3205 001b 00       		.byte	0
 3206 001c 03       		.uleb128 0x3
 3207 001d 16       		.uleb128 0x16
 3208 001e 00       		.byte	0
 3209 001f 03       		.uleb128 0x3
 3210 0020 0E       		.uleb128 0xe
 3211 0021 3A       		.uleb128 0x3a
 3212 0022 0B       		.uleb128 0xb
 3213 0023 3B       		.uleb128 0x3b
 3214 0024 0B       		.uleb128 0xb
 3215 0025 49       		.uleb128 0x49
 3216 0026 13       		.uleb128 0x13
 3217 0027 00       		.byte	0
 3218 0028 00       		.byte	0
 3219 0029 04       		.uleb128 0x4
 3220 002a 24       		.uleb128 0x24
 3221 002b 00       		.byte	0
 3222 002c 0B       		.uleb128 0xb
 3223 002d 0B       		.uleb128 0xb
 3224 002e 3E       		.uleb128 0x3e
 3225 002f 0B       		.uleb128 0xb
 3226 0030 03       		.uleb128 0x3
 3227 0031 0E       		.uleb128 0xe
 3228 0032 00       		.byte	0
 3229 0033 00       		.byte	0
 3230 0034 05       		.uleb128 0x5
 3231 0035 26       		.uleb128 0x26
 3232 0036 00       		.byte	0
 3233 0037 49       		.uleb128 0x49
 3234 0038 13       		.uleb128 0x13
 3235 0039 00       		.byte	0
 3236 003a 00       		.byte	0
 3237 003b 06       		.uleb128 0x6
 3238 003c 35       		.uleb128 0x35
 3239 003d 00       		.byte	0
 3240 003e 49       		.uleb128 0x49
 3241 003f 13       		.uleb128 0x13
 3242 0040 00       		.byte	0
 3243 0041 00       		.byte	0
 3244 0042 07       		.uleb128 0x7
 3245 0043 13       		.uleb128 0x13
 3246 0044 01       		.byte	0x1
 3247 0045 03       		.uleb128 0x3
 3248 0046 0E       		.uleb128 0xe
 3249 0047 0B       		.uleb128 0xb
ARM GAS  /tmp/ccwwxqPB.s 			page 58


 3250 0048 0B       		.uleb128 0xb
 3251 0049 3A       		.uleb128 0x3a
 3252 004a 0B       		.uleb128 0xb
 3253 004b 3B       		.uleb128 0x3b
 3254 004c 0B       		.uleb128 0xb
 3255 004d 01       		.uleb128 0x1
 3256 004e 13       		.uleb128 0x13
 3257 004f 00       		.byte	0
 3258 0050 00       		.byte	0
 3259 0051 08       		.uleb128 0x8
 3260 0052 0D       		.uleb128 0xd
 3261 0053 00       		.byte	0
 3262 0054 03       		.uleb128 0x3
 3263 0055 0E       		.uleb128 0xe
 3264 0056 3A       		.uleb128 0x3a
 3265 0057 0B       		.uleb128 0xb
 3266 0058 3B       		.uleb128 0x3b
 3267 0059 0B       		.uleb128 0xb
 3268 005a 49       		.uleb128 0x49
 3269 005b 13       		.uleb128 0x13
 3270 005c 38       		.uleb128 0x38
 3271 005d 0B       		.uleb128 0xb
 3272 005e 00       		.byte	0
 3273 005f 00       		.byte	0
 3274 0060 09       		.uleb128 0x9
 3275 0061 0D       		.uleb128 0xd
 3276 0062 00       		.byte	0
 3277 0063 03       		.uleb128 0x3
 3278 0064 08       		.uleb128 0x8
 3279 0065 3A       		.uleb128 0x3a
 3280 0066 0B       		.uleb128 0xb
 3281 0067 3B       		.uleb128 0x3b
 3282 0068 05       		.uleb128 0x5
 3283 0069 49       		.uleb128 0x49
 3284 006a 13       		.uleb128 0x13
 3285 006b 38       		.uleb128 0x38
 3286 006c 0B       		.uleb128 0xb
 3287 006d 00       		.byte	0
 3288 006e 00       		.byte	0
 3289 006f 0A       		.uleb128 0xa
 3290 0070 0D       		.uleb128 0xd
 3291 0071 00       		.byte	0
 3292 0072 03       		.uleb128 0x3
 3293 0073 0E       		.uleb128 0xe
 3294 0074 3A       		.uleb128 0x3a
 3295 0075 0B       		.uleb128 0xb
 3296 0076 3B       		.uleb128 0x3b
 3297 0077 05       		.uleb128 0x5
 3298 0078 49       		.uleb128 0x49
 3299 0079 13       		.uleb128 0x13
 3300 007a 38       		.uleb128 0x38
 3301 007b 0B       		.uleb128 0xb
 3302 007c 00       		.byte	0
 3303 007d 00       		.byte	0
 3304 007e 0B       		.uleb128 0xb
 3305 007f 0F       		.uleb128 0xf
 3306 0080 00       		.byte	0
ARM GAS  /tmp/ccwwxqPB.s 			page 59


 3307 0081 0B       		.uleb128 0xb
 3308 0082 0B       		.uleb128 0xb
 3309 0083 49       		.uleb128 0x49
 3310 0084 13       		.uleb128 0x13
 3311 0085 00       		.byte	0
 3312 0086 00       		.byte	0
 3313 0087 0C       		.uleb128 0xc
 3314 0088 13       		.uleb128 0x13
 3315 0089 01       		.byte	0x1
 3316 008a 03       		.uleb128 0x3
 3317 008b 0E       		.uleb128 0xe
 3318 008c 0B       		.uleb128 0xb
 3319 008d 0B       		.uleb128 0xb
 3320 008e 3A       		.uleb128 0x3a
 3321 008f 0B       		.uleb128 0xb
 3322 0090 3B       		.uleb128 0x3b
 3323 0091 05       		.uleb128 0x5
 3324 0092 01       		.uleb128 0x1
 3325 0093 13       		.uleb128 0x13
 3326 0094 00       		.byte	0
 3327 0095 00       		.byte	0
 3328 0096 0D       		.uleb128 0xd
 3329 0097 15       		.uleb128 0x15
 3330 0098 01       		.byte	0x1
 3331 0099 27       		.uleb128 0x27
 3332 009a 19       		.uleb128 0x19
 3333 009b 01       		.uleb128 0x1
 3334 009c 13       		.uleb128 0x13
 3335 009d 00       		.byte	0
 3336 009e 00       		.byte	0
 3337 009f 0E       		.uleb128 0xe
 3338 00a0 05       		.uleb128 0x5
 3339 00a1 00       		.byte	0
 3340 00a2 49       		.uleb128 0x49
 3341 00a3 13       		.uleb128 0x13
 3342 00a4 00       		.byte	0
 3343 00a5 00       		.byte	0
 3344 00a6 0F       		.uleb128 0xf
 3345 00a7 0F       		.uleb128 0xf
 3346 00a8 00       		.byte	0
 3347 00a9 0B       		.uleb128 0xb
 3348 00aa 0B       		.uleb128 0xb
 3349 00ab 00       		.byte	0
 3350 00ac 00       		.byte	0
 3351 00ad 10       		.uleb128 0x10
 3352 00ae 13       		.uleb128 0x13
 3353 00af 01       		.byte	0x1
 3354 00b0 03       		.uleb128 0x3
 3355 00b1 0E       		.uleb128 0xe
 3356 00b2 0B       		.uleb128 0xb
 3357 00b3 05       		.uleb128 0x5
 3358 00b4 3A       		.uleb128 0x3a
 3359 00b5 0B       		.uleb128 0xb
 3360 00b6 3B       		.uleb128 0x3b
 3361 00b7 05       		.uleb128 0x5
 3362 00b8 01       		.uleb128 0x1
 3363 00b9 13       		.uleb128 0x13
ARM GAS  /tmp/ccwwxqPB.s 			page 60


 3364 00ba 00       		.byte	0
 3365 00bb 00       		.byte	0
 3366 00bc 11       		.uleb128 0x11
 3367 00bd 34       		.uleb128 0x34
 3368 00be 00       		.byte	0
 3369 00bf 03       		.uleb128 0x3
 3370 00c0 0E       		.uleb128 0xe
 3371 00c1 3A       		.uleb128 0x3a
 3372 00c2 0B       		.uleb128 0xb
 3373 00c3 3B       		.uleb128 0x3b
 3374 00c4 05       		.uleb128 0x5
 3375 00c5 49       		.uleb128 0x49
 3376 00c6 13       		.uleb128 0x13
 3377 00c7 3F       		.uleb128 0x3f
 3378 00c8 19       		.uleb128 0x19
 3379 00c9 3C       		.uleb128 0x3c
 3380 00ca 19       		.uleb128 0x19
 3381 00cb 00       		.byte	0
 3382 00cc 00       		.byte	0
 3383 00cd 12       		.uleb128 0x12
 3384 00ce 34       		.uleb128 0x34
 3385 00cf 00       		.byte	0
 3386 00d0 03       		.uleb128 0x3
 3387 00d1 0E       		.uleb128 0xe
 3388 00d2 3A       		.uleb128 0x3a
 3389 00d3 0B       		.uleb128 0xb
 3390 00d4 3B       		.uleb128 0x3b
 3391 00d5 0B       		.uleb128 0xb
 3392 00d6 49       		.uleb128 0x49
 3393 00d7 13       		.uleb128 0x13
 3394 00d8 3F       		.uleb128 0x3f
 3395 00d9 19       		.uleb128 0x19
 3396 00da 3C       		.uleb128 0x3c
 3397 00db 19       		.uleb128 0x19
 3398 00dc 00       		.byte	0
 3399 00dd 00       		.byte	0
 3400 00de 13       		.uleb128 0x13
 3401 00df 0D       		.uleb128 0xd
 3402 00e0 00       		.byte	0
 3403 00e1 03       		.uleb128 0x3
 3404 00e2 08       		.uleb128 0x8
 3405 00e3 3A       		.uleb128 0x3a
 3406 00e4 0B       		.uleb128 0xb
 3407 00e5 3B       		.uleb128 0x3b
 3408 00e6 0B       		.uleb128 0xb
 3409 00e7 49       		.uleb128 0x49
 3410 00e8 13       		.uleb128 0x13
 3411 00e9 38       		.uleb128 0x38
 3412 00ea 0B       		.uleb128 0xb
 3413 00eb 00       		.byte	0
 3414 00ec 00       		.byte	0
 3415 00ed 14       		.uleb128 0x14
 3416 00ee 13       		.uleb128 0x13
 3417 00ef 01       		.byte	0x1
 3418 00f0 0B       		.uleb128 0xb
 3419 00f1 0B       		.uleb128 0xb
 3420 00f2 3A       		.uleb128 0x3a
ARM GAS  /tmp/ccwwxqPB.s 			page 61


 3421 00f3 0B       		.uleb128 0xb
 3422 00f4 3B       		.uleb128 0x3b
 3423 00f5 0B       		.uleb128 0xb
 3424 00f6 01       		.uleb128 0x1
 3425 00f7 13       		.uleb128 0x13
 3426 00f8 00       		.byte	0
 3427 00f9 00       		.byte	0
 3428 00fa 15       		.uleb128 0x15
 3429 00fb 17       		.uleb128 0x17
 3430 00fc 01       		.byte	0x1
 3431 00fd 0B       		.uleb128 0xb
 3432 00fe 0B       		.uleb128 0xb
 3433 00ff 3A       		.uleb128 0x3a
 3434 0100 0B       		.uleb128 0xb
 3435 0101 3B       		.uleb128 0x3b
 3436 0102 0B       		.uleb128 0xb
 3437 0103 01       		.uleb128 0x1
 3438 0104 13       		.uleb128 0x13
 3439 0105 00       		.byte	0
 3440 0106 00       		.byte	0
 3441 0107 16       		.uleb128 0x16
 3442 0108 0D       		.uleb128 0xd
 3443 0109 00       		.byte	0
 3444 010a 03       		.uleb128 0x3
 3445 010b 0E       		.uleb128 0xe
 3446 010c 3A       		.uleb128 0x3a
 3447 010d 0B       		.uleb128 0xb
 3448 010e 3B       		.uleb128 0x3b
 3449 010f 05       		.uleb128 0x5
 3450 0110 49       		.uleb128 0x49
 3451 0111 13       		.uleb128 0x13
 3452 0112 00       		.byte	0
 3453 0113 00       		.byte	0
 3454 0114 17       		.uleb128 0x17
 3455 0115 01       		.uleb128 0x1
 3456 0116 01       		.byte	0x1
 3457 0117 49       		.uleb128 0x49
 3458 0118 13       		.uleb128 0x13
 3459 0119 01       		.uleb128 0x1
 3460 011a 13       		.uleb128 0x13
 3461 011b 00       		.byte	0
 3462 011c 00       		.byte	0
 3463 011d 18       		.uleb128 0x18
 3464 011e 21       		.uleb128 0x21
 3465 011f 00       		.byte	0
 3466 0120 49       		.uleb128 0x49
 3467 0121 13       		.uleb128 0x13
 3468 0122 2F       		.uleb128 0x2f
 3469 0123 0B       		.uleb128 0xb
 3470 0124 00       		.byte	0
 3471 0125 00       		.byte	0
 3472 0126 19       		.uleb128 0x19
 3473 0127 34       		.uleb128 0x34
 3474 0128 00       		.byte	0
 3475 0129 03       		.uleb128 0x3
 3476 012a 08       		.uleb128 0x8
 3477 012b 3A       		.uleb128 0x3a
ARM GAS  /tmp/ccwwxqPB.s 			page 62


 3478 012c 0B       		.uleb128 0xb
 3479 012d 3B       		.uleb128 0x3b
 3480 012e 05       		.uleb128 0x5
 3481 012f 49       		.uleb128 0x49
 3482 0130 13       		.uleb128 0x13
 3483 0131 3F       		.uleb128 0x3f
 3484 0132 19       		.uleb128 0x19
 3485 0133 3C       		.uleb128 0x3c
 3486 0134 19       		.uleb128 0x19
 3487 0135 00       		.byte	0
 3488 0136 00       		.byte	0
 3489 0137 1A       		.uleb128 0x1a
 3490 0138 2E       		.uleb128 0x2e
 3491 0139 01       		.byte	0x1
 3492 013a 3F       		.uleb128 0x3f
 3493 013b 19       		.uleb128 0x19
 3494 013c 03       		.uleb128 0x3
 3495 013d 0E       		.uleb128 0xe
 3496 013e 3A       		.uleb128 0x3a
 3497 013f 0B       		.uleb128 0xb
 3498 0140 3B       		.uleb128 0x3b
 3499 0141 05       		.uleb128 0x5
 3500 0142 27       		.uleb128 0x27
 3501 0143 19       		.uleb128 0x19
 3502 0144 49       		.uleb128 0x49
 3503 0145 13       		.uleb128 0x13
 3504 0146 11       		.uleb128 0x11
 3505 0147 01       		.uleb128 0x1
 3506 0148 12       		.uleb128 0x12
 3507 0149 06       		.uleb128 0x6
 3508 014a 40       		.uleb128 0x40
 3509 014b 18       		.uleb128 0x18
 3510 014c 9642     		.uleb128 0x2116
 3511 014e 19       		.uleb128 0x19
 3512 014f 01       		.uleb128 0x1
 3513 0150 13       		.uleb128 0x13
 3514 0151 00       		.byte	0
 3515 0152 00       		.byte	0
 3516 0153 1B       		.uleb128 0x1b
 3517 0154 05       		.uleb128 0x5
 3518 0155 00       		.byte	0
 3519 0156 03       		.uleb128 0x3
 3520 0157 08       		.uleb128 0x8
 3521 0158 3A       		.uleb128 0x3a
 3522 0159 0B       		.uleb128 0xb
 3523 015a 3B       		.uleb128 0x3b
 3524 015b 05       		.uleb128 0x5
 3525 015c 49       		.uleb128 0x49
 3526 015d 13       		.uleb128 0x13
 3527 015e 02       		.uleb128 0x2
 3528 015f 17       		.uleb128 0x17
 3529 0160 00       		.byte	0
 3530 0161 00       		.byte	0
 3531 0162 1C       		.uleb128 0x1c
 3532 0163 05       		.uleb128 0x5
 3533 0164 00       		.byte	0
 3534 0165 03       		.uleb128 0x3
ARM GAS  /tmp/ccwwxqPB.s 			page 63


 3535 0166 0E       		.uleb128 0xe
 3536 0167 3A       		.uleb128 0x3a
 3537 0168 0B       		.uleb128 0xb
 3538 0169 3B       		.uleb128 0x3b
 3539 016a 05       		.uleb128 0x5
 3540 016b 49       		.uleb128 0x49
 3541 016c 13       		.uleb128 0x13
 3542 016d 02       		.uleb128 0x2
 3543 016e 17       		.uleb128 0x17
 3544 016f 00       		.byte	0
 3545 0170 00       		.byte	0
 3546 0171 1D       		.uleb128 0x1d
 3547 0172 34       		.uleb128 0x34
 3548 0173 00       		.byte	0
 3549 0174 03       		.uleb128 0x3
 3550 0175 08       		.uleb128 0x8
 3551 0176 3A       		.uleb128 0x3a
 3552 0177 0B       		.uleb128 0xb
 3553 0178 3B       		.uleb128 0x3b
 3554 0179 05       		.uleb128 0x5
 3555 017a 49       		.uleb128 0x49
 3556 017b 13       		.uleb128 0x13
 3557 017c 02       		.uleb128 0x2
 3558 017d 18       		.uleb128 0x18
 3559 017e 00       		.byte	0
 3560 017f 00       		.byte	0
 3561 0180 1E       		.uleb128 0x1e
 3562 0181 34       		.uleb128 0x34
 3563 0182 00       		.byte	0
 3564 0183 03       		.uleb128 0x3
 3565 0184 08       		.uleb128 0x8
 3566 0185 3A       		.uleb128 0x3a
 3567 0186 0B       		.uleb128 0xb
 3568 0187 3B       		.uleb128 0x3b
 3569 0188 05       		.uleb128 0x5
 3570 0189 49       		.uleb128 0x49
 3571 018a 13       		.uleb128 0x13
 3572 018b 02       		.uleb128 0x2
 3573 018c 17       		.uleb128 0x17
 3574 018d 00       		.byte	0
 3575 018e 00       		.byte	0
 3576 018f 1F       		.uleb128 0x1f
 3577 0190 34       		.uleb128 0x34
 3578 0191 00       		.byte	0
 3579 0192 03       		.uleb128 0x3
 3580 0193 0E       		.uleb128 0xe
 3581 0194 49       		.uleb128 0x49
 3582 0195 13       		.uleb128 0x13
 3583 0196 34       		.uleb128 0x34
 3584 0197 19       		.uleb128 0x19
 3585 0198 00       		.byte	0
 3586 0199 00       		.byte	0
 3587 019a 20       		.uleb128 0x20
 3588 019b 1D       		.uleb128 0x1d
 3589 019c 01       		.byte	0x1
 3590 019d 31       		.uleb128 0x31
 3591 019e 13       		.uleb128 0x13
ARM GAS  /tmp/ccwwxqPB.s 			page 64


 3592 019f 11       		.uleb128 0x11
 3593 01a0 01       		.uleb128 0x1
 3594 01a1 12       		.uleb128 0x12
 3595 01a2 06       		.uleb128 0x6
 3596 01a3 58       		.uleb128 0x58
 3597 01a4 0B       		.uleb128 0xb
 3598 01a5 59       		.uleb128 0x59
 3599 01a6 05       		.uleb128 0x5
 3600 01a7 01       		.uleb128 0x1
 3601 01a8 13       		.uleb128 0x13
 3602 01a9 00       		.byte	0
 3603 01aa 00       		.byte	0
 3604 01ab 21       		.uleb128 0x21
 3605 01ac 1D       		.uleb128 0x1d
 3606 01ad 01       		.byte	0x1
 3607 01ae 31       		.uleb128 0x31
 3608 01af 13       		.uleb128 0x13
 3609 01b0 11       		.uleb128 0x11
 3610 01b1 01       		.uleb128 0x1
 3611 01b2 12       		.uleb128 0x12
 3612 01b3 06       		.uleb128 0x6
 3613 01b4 58       		.uleb128 0x58
 3614 01b5 0B       		.uleb128 0xb
 3615 01b6 59       		.uleb128 0x59
 3616 01b7 05       		.uleb128 0x5
 3617 01b8 00       		.byte	0
 3618 01b9 00       		.byte	0
 3619 01ba 22       		.uleb128 0x22
 3620 01bb 05       		.uleb128 0x5
 3621 01bc 00       		.byte	0
 3622 01bd 31       		.uleb128 0x31
 3623 01be 13       		.uleb128 0x13
 3624 01bf 02       		.uleb128 0x2
 3625 01c0 17       		.uleb128 0x17
 3626 01c1 00       		.byte	0
 3627 01c2 00       		.byte	0
 3628 01c3 23       		.uleb128 0x23
 3629 01c4 1D       		.uleb128 0x1d
 3630 01c5 01       		.byte	0x1
 3631 01c6 31       		.uleb128 0x31
 3632 01c7 13       		.uleb128 0x13
 3633 01c8 52       		.uleb128 0x52
 3634 01c9 01       		.uleb128 0x1
 3635 01ca 55       		.uleb128 0x55
 3636 01cb 17       		.uleb128 0x17
 3637 01cc 58       		.uleb128 0x58
 3638 01cd 0B       		.uleb128 0xb
 3639 01ce 59       		.uleb128 0x59
 3640 01cf 05       		.uleb128 0x5
 3641 01d0 01       		.uleb128 0x1
 3642 01d1 13       		.uleb128 0x13
 3643 01d2 00       		.byte	0
 3644 01d3 00       		.byte	0
 3645 01d4 24       		.uleb128 0x24
 3646 01d5 0B       		.uleb128 0xb
 3647 01d6 01       		.byte	0x1
 3648 01d7 55       		.uleb128 0x55
ARM GAS  /tmp/ccwwxqPB.s 			page 65


 3649 01d8 17       		.uleb128 0x17
 3650 01d9 00       		.byte	0
 3651 01da 00       		.byte	0
 3652 01db 25       		.uleb128 0x25
 3653 01dc 34       		.uleb128 0x34
 3654 01dd 00       		.byte	0
 3655 01de 31       		.uleb128 0x31
 3656 01df 13       		.uleb128 0x13
 3657 01e0 00       		.byte	0
 3658 01e1 00       		.byte	0
 3659 01e2 26       		.uleb128 0x26
 3660 01e3 1D       		.uleb128 0x1d
 3661 01e4 01       		.byte	0x1
 3662 01e5 31       		.uleb128 0x31
 3663 01e6 13       		.uleb128 0x13
 3664 01e7 52       		.uleb128 0x52
 3665 01e8 01       		.uleb128 0x1
 3666 01e9 55       		.uleb128 0x55
 3667 01ea 17       		.uleb128 0x17
 3668 01eb 58       		.uleb128 0x58
 3669 01ec 0B       		.uleb128 0xb
 3670 01ed 59       		.uleb128 0x59
 3671 01ee 05       		.uleb128 0x5
 3672 01ef 00       		.byte	0
 3673 01f0 00       		.byte	0
 3674 01f1 27       		.uleb128 0x27
 3675 01f2 0B       		.uleb128 0xb
 3676 01f3 01       		.byte	0x1
 3677 01f4 11       		.uleb128 0x11
 3678 01f5 01       		.uleb128 0x1
 3679 01f6 12       		.uleb128 0x12
 3680 01f7 06       		.uleb128 0x6
 3681 01f8 00       		.byte	0
 3682 01f9 00       		.byte	0
 3683 01fa 28       		.uleb128 0x28
 3684 01fb 898201   		.uleb128 0x4109
 3685 01fe 01       		.byte	0x1
 3686 01ff 11       		.uleb128 0x11
 3687 0200 01       		.uleb128 0x1
 3688 0201 31       		.uleb128 0x31
 3689 0202 13       		.uleb128 0x13
 3690 0203 00       		.byte	0
 3691 0204 00       		.byte	0
 3692 0205 29       		.uleb128 0x29
 3693 0206 8A8201   		.uleb128 0x410a
 3694 0209 00       		.byte	0
 3695 020a 02       		.uleb128 0x2
 3696 020b 18       		.uleb128 0x18
 3697 020c 9142     		.uleb128 0x2111
 3698 020e 18       		.uleb128 0x18
 3699 020f 00       		.byte	0
 3700 0210 00       		.byte	0
 3701 0211 2A       		.uleb128 0x2a
 3702 0212 2E       		.uleb128 0x2e
 3703 0213 01       		.byte	0x1
 3704 0214 3F       		.uleb128 0x3f
 3705 0215 19       		.uleb128 0x19
ARM GAS  /tmp/ccwwxqPB.s 			page 66


 3706 0216 03       		.uleb128 0x3
 3707 0217 0E       		.uleb128 0xe
 3708 0218 3A       		.uleb128 0x3a
 3709 0219 0B       		.uleb128 0xb
 3710 021a 3B       		.uleb128 0x3b
 3711 021b 05       		.uleb128 0x5
 3712 021c 27       		.uleb128 0x27
 3713 021d 19       		.uleb128 0x19
 3714 021e 49       		.uleb128 0x49
 3715 021f 13       		.uleb128 0x13
 3716 0220 11       		.uleb128 0x11
 3717 0221 01       		.uleb128 0x1
 3718 0222 12       		.uleb128 0x12
 3719 0223 06       		.uleb128 0x6
 3720 0224 40       		.uleb128 0x40
 3721 0225 18       		.uleb128 0x18
 3722 0226 9742     		.uleb128 0x2117
 3723 0228 19       		.uleb128 0x19
 3724 0229 01       		.uleb128 0x1
 3725 022a 13       		.uleb128 0x13
 3726 022b 00       		.byte	0
 3727 022c 00       		.byte	0
 3728 022d 2B       		.uleb128 0x2b
 3729 022e 0B       		.uleb128 0xb
 3730 022f 01       		.byte	0x1
 3731 0230 55       		.uleb128 0x55
 3732 0231 17       		.uleb128 0x17
 3733 0232 01       		.uleb128 0x1
 3734 0233 13       		.uleb128 0x13
 3735 0234 00       		.byte	0
 3736 0235 00       		.byte	0
 3737 0236 2C       		.uleb128 0x2c
 3738 0237 898201   		.uleb128 0x4109
 3739 023a 00       		.byte	0
 3740 023b 11       		.uleb128 0x11
 3741 023c 01       		.uleb128 0x1
 3742 023d 31       		.uleb128 0x31
 3743 023e 13       		.uleb128 0x13
 3744 023f 00       		.byte	0
 3745 0240 00       		.byte	0
 3746 0241 2D       		.uleb128 0x2d
 3747 0242 898201   		.uleb128 0x4109
 3748 0245 01       		.byte	0x1
 3749 0246 11       		.uleb128 0x11
 3750 0247 01       		.uleb128 0x1
 3751 0248 00       		.byte	0
 3752 0249 00       		.byte	0
 3753 024a 2E       		.uleb128 0x2e
 3754 024b 2E       		.uleb128 0x2e
 3755 024c 01       		.byte	0x1
 3756 024d 3F       		.uleb128 0x3f
 3757 024e 19       		.uleb128 0x19
 3758 024f 03       		.uleb128 0x3
 3759 0250 0E       		.uleb128 0xe
 3760 0251 3A       		.uleb128 0x3a
 3761 0252 0B       		.uleb128 0xb
 3762 0253 3B       		.uleb128 0x3b
ARM GAS  /tmp/ccwwxqPB.s 			page 67


 3763 0254 05       		.uleb128 0x5
 3764 0255 27       		.uleb128 0x27
 3765 0256 19       		.uleb128 0x19
 3766 0257 11       		.uleb128 0x11
 3767 0258 01       		.uleb128 0x1
 3768 0259 12       		.uleb128 0x12
 3769 025a 06       		.uleb128 0x6
 3770 025b 40       		.uleb128 0x40
 3771 025c 18       		.uleb128 0x18
 3772 025d 9742     		.uleb128 0x2117
 3773 025f 19       		.uleb128 0x19
 3774 0260 01       		.uleb128 0x1
 3775 0261 13       		.uleb128 0x13
 3776 0262 00       		.byte	0
 3777 0263 00       		.byte	0
 3778 0264 2F       		.uleb128 0x2f
 3779 0265 898201   		.uleb128 0x4109
 3780 0268 01       		.byte	0x1
 3781 0269 11       		.uleb128 0x11
 3782 026a 01       		.uleb128 0x1
 3783 026b 9542     		.uleb128 0x2115
 3784 026d 19       		.uleb128 0x19
 3785 026e 31       		.uleb128 0x31
 3786 026f 13       		.uleb128 0x13
 3787 0270 00       		.byte	0
 3788 0271 00       		.byte	0
 3789 0272 30       		.uleb128 0x30
 3790 0273 05       		.uleb128 0x5
 3791 0274 00       		.byte	0
 3792 0275 03       		.uleb128 0x3
 3793 0276 08       		.uleb128 0x8
 3794 0277 3A       		.uleb128 0x3a
 3795 0278 0B       		.uleb128 0xb
 3796 0279 3B       		.uleb128 0x3b
 3797 027a 05       		.uleb128 0x5
 3798 027b 49       		.uleb128 0x49
 3799 027c 13       		.uleb128 0x13
 3800 027d 02       		.uleb128 0x2
 3801 027e 18       		.uleb128 0x18
 3802 027f 00       		.byte	0
 3803 0280 00       		.byte	0
 3804 0281 31       		.uleb128 0x31
 3805 0282 05       		.uleb128 0x5
 3806 0283 00       		.byte	0
 3807 0284 03       		.uleb128 0x3
 3808 0285 0E       		.uleb128 0xe
 3809 0286 3A       		.uleb128 0x3a
 3810 0287 0B       		.uleb128 0xb
 3811 0288 3B       		.uleb128 0x3b
 3812 0289 05       		.uleb128 0x5
 3813 028a 49       		.uleb128 0x49
 3814 028b 13       		.uleb128 0x13
 3815 028c 02       		.uleb128 0x2
 3816 028d 18       		.uleb128 0x18
 3817 028e 00       		.byte	0
 3818 028f 00       		.byte	0
 3819 0290 32       		.uleb128 0x32
ARM GAS  /tmp/ccwwxqPB.s 			page 68


 3820 0291 2E       		.uleb128 0x2e
 3821 0292 01       		.byte	0x1
 3822 0293 3F       		.uleb128 0x3f
 3823 0294 19       		.uleb128 0x19
 3824 0295 03       		.uleb128 0x3
 3825 0296 0E       		.uleb128 0xe
 3826 0297 3A       		.uleb128 0x3a
 3827 0298 0B       		.uleb128 0xb
 3828 0299 3B       		.uleb128 0x3b
 3829 029a 0B       		.uleb128 0xb
 3830 029b 27       		.uleb128 0x27
 3831 029c 19       		.uleb128 0x19
 3832 029d 49       		.uleb128 0x49
 3833 029e 13       		.uleb128 0x13
 3834 029f 11       		.uleb128 0x11
 3835 02a0 01       		.uleb128 0x1
 3836 02a1 12       		.uleb128 0x12
 3837 02a2 06       		.uleb128 0x6
 3838 02a3 40       		.uleb128 0x40
 3839 02a4 18       		.uleb128 0x18
 3840 02a5 9742     		.uleb128 0x2117
 3841 02a7 19       		.uleb128 0x19
 3842 02a8 01       		.uleb128 0x1
 3843 02a9 13       		.uleb128 0x13
 3844 02aa 00       		.byte	0
 3845 02ab 00       		.byte	0
 3846 02ac 33       		.uleb128 0x33
 3847 02ad 05       		.uleb128 0x5
 3848 02ae 00       		.byte	0
 3849 02af 03       		.uleb128 0x3
 3850 02b0 08       		.uleb128 0x8
 3851 02b1 3A       		.uleb128 0x3a
 3852 02b2 0B       		.uleb128 0xb
 3853 02b3 3B       		.uleb128 0x3b
 3854 02b4 0B       		.uleb128 0xb
 3855 02b5 49       		.uleb128 0x49
 3856 02b6 13       		.uleb128 0x13
 3857 02b7 02       		.uleb128 0x2
 3858 02b8 17       		.uleb128 0x17
 3859 02b9 00       		.byte	0
 3860 02ba 00       		.byte	0
 3861 02bb 34       		.uleb128 0x34
 3862 02bc 05       		.uleb128 0x5
 3863 02bd 00       		.byte	0
 3864 02be 03       		.uleb128 0x3
 3865 02bf 0E       		.uleb128 0xe
 3866 02c0 3A       		.uleb128 0x3a
 3867 02c1 0B       		.uleb128 0xb
 3868 02c2 3B       		.uleb128 0x3b
 3869 02c3 0B       		.uleb128 0xb
 3870 02c4 49       		.uleb128 0x49
 3871 02c5 13       		.uleb128 0x13
 3872 02c6 02       		.uleb128 0x2
 3873 02c7 17       		.uleb128 0x17
 3874 02c8 00       		.byte	0
 3875 02c9 00       		.byte	0
 3876 02ca 35       		.uleb128 0x35
ARM GAS  /tmp/ccwwxqPB.s 			page 69


 3877 02cb 34       		.uleb128 0x34
 3878 02cc 00       		.byte	0
 3879 02cd 03       		.uleb128 0x3
 3880 02ce 08       		.uleb128 0x8
 3881 02cf 3A       		.uleb128 0x3a
 3882 02d0 0B       		.uleb128 0xb
 3883 02d1 3B       		.uleb128 0x3b
 3884 02d2 0B       		.uleb128 0xb
 3885 02d3 49       		.uleb128 0x49
 3886 02d4 13       		.uleb128 0x13
 3887 02d5 02       		.uleb128 0x2
 3888 02d6 18       		.uleb128 0x18
 3889 02d7 00       		.byte	0
 3890 02d8 00       		.byte	0
 3891 02d9 36       		.uleb128 0x36
 3892 02da 34       		.uleb128 0x34
 3893 02db 00       		.byte	0
 3894 02dc 03       		.uleb128 0x3
 3895 02dd 08       		.uleb128 0x8
 3896 02de 3A       		.uleb128 0x3a
 3897 02df 0B       		.uleb128 0xb
 3898 02e0 3B       		.uleb128 0x3b
 3899 02e1 0B       		.uleb128 0xb
 3900 02e2 49       		.uleb128 0x49
 3901 02e3 13       		.uleb128 0x13
 3902 02e4 02       		.uleb128 0x2
 3903 02e5 17       		.uleb128 0x17
 3904 02e6 00       		.byte	0
 3905 02e7 00       		.byte	0
 3906 02e8 37       		.uleb128 0x37
 3907 02e9 1D       		.uleb128 0x1d
 3908 02ea 01       		.byte	0x1
 3909 02eb 31       		.uleb128 0x31
 3910 02ec 13       		.uleb128 0x13
 3911 02ed 11       		.uleb128 0x11
 3912 02ee 01       		.uleb128 0x1
 3913 02ef 12       		.uleb128 0x12
 3914 02f0 06       		.uleb128 0x6
 3915 02f1 58       		.uleb128 0x58
 3916 02f2 0B       		.uleb128 0xb
 3917 02f3 59       		.uleb128 0x59
 3918 02f4 0B       		.uleb128 0xb
 3919 02f5 01       		.uleb128 0x1
 3920 02f6 13       		.uleb128 0x13
 3921 02f7 00       		.byte	0
 3922 02f8 00       		.byte	0
 3923 02f9 38       		.uleb128 0x38
 3924 02fa 1D       		.uleb128 0x1d
 3925 02fb 01       		.byte	0x1
 3926 02fc 31       		.uleb128 0x31
 3927 02fd 13       		.uleb128 0x13
 3928 02fe 52       		.uleb128 0x52
 3929 02ff 01       		.uleb128 0x1
 3930 0300 55       		.uleb128 0x55
 3931 0301 17       		.uleb128 0x17
 3932 0302 58       		.uleb128 0x58
 3933 0303 0B       		.uleb128 0xb
ARM GAS  /tmp/ccwwxqPB.s 			page 70


 3934 0304 59       		.uleb128 0x59
 3935 0305 0B       		.uleb128 0xb
 3936 0306 01       		.uleb128 0x1
 3937 0307 13       		.uleb128 0x13
 3938 0308 00       		.byte	0
 3939 0309 00       		.byte	0
 3940 030a 39       		.uleb128 0x39
 3941 030b 898201   		.uleb128 0x4109
 3942 030e 01       		.byte	0x1
 3943 030f 11       		.uleb128 0x11
 3944 0310 01       		.uleb128 0x1
 3945 0311 01       		.uleb128 0x1
 3946 0312 13       		.uleb128 0x13
 3947 0313 00       		.byte	0
 3948 0314 00       		.byte	0
 3949 0315 3A       		.uleb128 0x3a
 3950 0316 2E       		.uleb128 0x2e
 3951 0317 01       		.byte	0x1
 3952 0318 3F       		.uleb128 0x3f
 3953 0319 19       		.uleb128 0x19
 3954 031a 03       		.uleb128 0x3
 3955 031b 0E       		.uleb128 0xe
 3956 031c 3A       		.uleb128 0x3a
 3957 031d 0B       		.uleb128 0xb
 3958 031e 3B       		.uleb128 0x3b
 3959 031f 0B       		.uleb128 0xb
 3960 0320 27       		.uleb128 0x27
 3961 0321 19       		.uleb128 0x19
 3962 0322 11       		.uleb128 0x11
 3963 0323 01       		.uleb128 0x1
 3964 0324 12       		.uleb128 0x12
 3965 0325 06       		.uleb128 0x6
 3966 0326 40       		.uleb128 0x40
 3967 0327 18       		.uleb128 0x18
 3968 0328 9742     		.uleb128 0x2117
 3969 032a 19       		.uleb128 0x19
 3970 032b 01       		.uleb128 0x1
 3971 032c 13       		.uleb128 0x13
 3972 032d 00       		.byte	0
 3973 032e 00       		.byte	0
 3974 032f 3B       		.uleb128 0x3b
 3975 0330 05       		.uleb128 0x5
 3976 0331 00       		.byte	0
 3977 0332 03       		.uleb128 0x3
 3978 0333 08       		.uleb128 0x8
 3979 0334 3A       		.uleb128 0x3a
 3980 0335 0B       		.uleb128 0xb
 3981 0336 3B       		.uleb128 0x3b
 3982 0337 0B       		.uleb128 0xb
 3983 0338 49       		.uleb128 0x49
 3984 0339 13       		.uleb128 0x13
 3985 033a 02       		.uleb128 0x2
 3986 033b 18       		.uleb128 0x18
 3987 033c 00       		.byte	0
 3988 033d 00       		.byte	0
 3989 033e 3C       		.uleb128 0x3c
 3990 033f 05       		.uleb128 0x5
ARM GAS  /tmp/ccwwxqPB.s 			page 71


 3991 0340 00       		.byte	0
 3992 0341 03       		.uleb128 0x3
 3993 0342 0E       		.uleb128 0xe
 3994 0343 3A       		.uleb128 0x3a
 3995 0344 0B       		.uleb128 0xb
 3996 0345 3B       		.uleb128 0x3b
 3997 0346 0B       		.uleb128 0xb
 3998 0347 49       		.uleb128 0x49
 3999 0348 13       		.uleb128 0x13
 4000 0349 02       		.uleb128 0x2
 4001 034a 18       		.uleb128 0x18
 4002 034b 00       		.byte	0
 4003 034c 00       		.byte	0
 4004 034d 3D       		.uleb128 0x3d
 4005 034e 1D       		.uleb128 0x1d
 4006 034f 01       		.byte	0x1
 4007 0350 31       		.uleb128 0x31
 4008 0351 13       		.uleb128 0x13
 4009 0352 11       		.uleb128 0x11
 4010 0353 01       		.uleb128 0x1
 4011 0354 12       		.uleb128 0x12
 4012 0355 06       		.uleb128 0x6
 4013 0356 58       		.uleb128 0x58
 4014 0357 0B       		.uleb128 0xb
 4015 0358 59       		.uleb128 0x59
 4016 0359 0B       		.uleb128 0xb
 4017 035a 00       		.byte	0
 4018 035b 00       		.byte	0
 4019 035c 3E       		.uleb128 0x3e
 4020 035d 2E       		.uleb128 0x2e
 4021 035e 01       		.byte	0x1
 4022 035f 03       		.uleb128 0x3
 4023 0360 0E       		.uleb128 0xe
 4024 0361 3A       		.uleb128 0x3a
 4025 0362 0B       		.uleb128 0xb
 4026 0363 3B       		.uleb128 0x3b
 4027 0364 05       		.uleb128 0x5
 4028 0365 27       		.uleb128 0x27
 4029 0366 19       		.uleb128 0x19
 4030 0367 49       		.uleb128 0x49
 4031 0368 13       		.uleb128 0x13
 4032 0369 20       		.uleb128 0x20
 4033 036a 0B       		.uleb128 0xb
 4034 036b 01       		.uleb128 0x1
 4035 036c 13       		.uleb128 0x13
 4036 036d 00       		.byte	0
 4037 036e 00       		.byte	0
 4038 036f 3F       		.uleb128 0x3f
 4039 0370 05       		.uleb128 0x5
 4040 0371 00       		.byte	0
 4041 0372 03       		.uleb128 0x3
 4042 0373 08       		.uleb128 0x8
 4043 0374 3A       		.uleb128 0x3a
 4044 0375 0B       		.uleb128 0xb
 4045 0376 3B       		.uleb128 0x3b
 4046 0377 05       		.uleb128 0x5
 4047 0378 49       		.uleb128 0x49
ARM GAS  /tmp/ccwwxqPB.s 			page 72


 4048 0379 13       		.uleb128 0x13
 4049 037a 00       		.byte	0
 4050 037b 00       		.byte	0
 4051 037c 40       		.uleb128 0x40
 4052 037d 2E       		.uleb128 0x2e
 4053 037e 01       		.byte	0x1
 4054 037f 03       		.uleb128 0x3
 4055 0380 0E       		.uleb128 0xe
 4056 0381 3A       		.uleb128 0x3a
 4057 0382 0B       		.uleb128 0xb
 4058 0383 3B       		.uleb128 0x3b
 4059 0384 05       		.uleb128 0x5
 4060 0385 27       		.uleb128 0x27
 4061 0386 19       		.uleb128 0x19
 4062 0387 20       		.uleb128 0x20
 4063 0388 0B       		.uleb128 0xb
 4064 0389 01       		.uleb128 0x1
 4065 038a 13       		.uleb128 0x13
 4066 038b 00       		.byte	0
 4067 038c 00       		.byte	0
 4068 038d 41       		.uleb128 0x41
 4069 038e 34       		.uleb128 0x34
 4070 038f 00       		.byte	0
 4071 0390 03       		.uleb128 0x3
 4072 0391 0E       		.uleb128 0xe
 4073 0392 49       		.uleb128 0x49
 4074 0393 13       		.uleb128 0x13
 4075 0394 34       		.uleb128 0x34
 4076 0395 19       		.uleb128 0x19
 4077 0396 1C       		.uleb128 0x1c
 4078 0397 0E       		.uleb128 0xe
 4079 0398 00       		.byte	0
 4080 0399 00       		.byte	0
 4081 039a 42       		.uleb128 0x42
 4082 039b 2E       		.uleb128 0x2e
 4083 039c 00       		.byte	0
 4084 039d 03       		.uleb128 0x3
 4085 039e 0E       		.uleb128 0xe
 4086 039f 3A       		.uleb128 0x3a
 4087 03a0 0B       		.uleb128 0xb
 4088 03a1 3B       		.uleb128 0x3b
 4089 03a2 05       		.uleb128 0x5
 4090 03a3 27       		.uleb128 0x27
 4091 03a4 19       		.uleb128 0x19
 4092 03a5 20       		.uleb128 0x20
 4093 03a6 0B       		.uleb128 0xb
 4094 03a7 00       		.byte	0
 4095 03a8 00       		.byte	0
 4096 03a9 43       		.uleb128 0x43
 4097 03aa 05       		.uleb128 0x5
 4098 03ab 00       		.byte	0
 4099 03ac 03       		.uleb128 0x3
 4100 03ad 0E       		.uleb128 0xe
 4101 03ae 3A       		.uleb128 0x3a
 4102 03af 0B       		.uleb128 0xb
 4103 03b0 3B       		.uleb128 0x3b
 4104 03b1 05       		.uleb128 0x5
ARM GAS  /tmp/ccwwxqPB.s 			page 73


 4105 03b2 49       		.uleb128 0x49
 4106 03b3 13       		.uleb128 0x13
 4107 03b4 00       		.byte	0
 4108 03b5 00       		.byte	0
 4109 03b6 44       		.uleb128 0x44
 4110 03b7 2E       		.uleb128 0x2e
 4111 03b8 00       		.byte	0
 4112 03b9 3F       		.uleb128 0x3f
 4113 03ba 19       		.uleb128 0x19
 4114 03bb 3C       		.uleb128 0x3c
 4115 03bc 19       		.uleb128 0x19
 4116 03bd 6E       		.uleb128 0x6e
 4117 03be 0E       		.uleb128 0xe
 4118 03bf 03       		.uleb128 0x3
 4119 03c0 0E       		.uleb128 0xe
 4120 03c1 3A       		.uleb128 0x3a
 4121 03c2 0B       		.uleb128 0xb
 4122 03c3 3B       		.uleb128 0x3b
 4123 03c4 0B       		.uleb128 0xb
 4124 03c5 00       		.byte	0
 4125 03c6 00       		.byte	0
 4126 03c7 00       		.byte	0
 4127              		.section	.debug_loc,"",%progbits
 4128              	.Ldebug_loc0:
 4129              	.LLST38:
 4130 0000 00000000 		.4byte	.LVL69
 4131 0004 1E000000 		.4byte	.LVL72
 4132 0008 0100     		.2byte	0x1
 4133 000a 50       		.byte	0x50
 4134 000b 1E000000 		.4byte	.LVL72
 4135 000f 2A000000 		.4byte	.LVL75
 4136 0013 0100     		.2byte	0x1
 4137 0015 54       		.byte	0x54
 4138 0016 2A000000 		.4byte	.LVL75
 4139 001a 49000000 		.4byte	.LVL76-1
 4140 001e 0100     		.2byte	0x1
 4141 0020 50       		.byte	0x50
 4142 0021 49000000 		.4byte	.LVL76-1
 4143 0025 6A000000 		.4byte	.LVL83
 4144 0029 0100     		.2byte	0x1
 4145 002b 54       		.byte	0x54
 4146 002c 6A000000 		.4byte	.LVL83
 4147 0030 70000000 		.4byte	.LVL84
 4148 0034 0100     		.2byte	0x1
 4149 0036 50       		.byte	0x50
 4150 0037 70000000 		.4byte	.LVL84
 4151 003b 86000000 		.4byte	.LFE236
 4152 003f 0100     		.2byte	0x1
 4153 0041 54       		.byte	0x54
 4154 0042 00000000 		.4byte	0
 4155 0046 00000000 		.4byte	0
 4156              	.LLST39:
 4157 004a 00000000 		.4byte	.LVL69
 4158 004e 1E000000 		.4byte	.LVL72
 4159 0052 0100     		.2byte	0x1
 4160 0054 51       		.byte	0x51
 4161 0055 1E000000 		.4byte	.LVL72
ARM GAS  /tmp/ccwwxqPB.s 			page 74


 4162 0059 24000000 		.4byte	.LVL74
 4163 005d 0100     		.2byte	0x1
 4164 005f 55       		.byte	0x55
 4165 0060 24000000 		.4byte	.LVL74
 4166 0064 5E000000 		.4byte	.LVL81
 4167 0068 0100     		.2byte	0x1
 4168 006a 5B       		.byte	0x5b
 4169 006b 5E000000 		.4byte	.LVL81
 4170 006f 64000000 		.4byte	.LVL82
 4171 0073 0100     		.2byte	0x1
 4172 0075 55       		.byte	0x55
 4173 0076 64000000 		.4byte	.LVL82
 4174 007a 86000000 		.4byte	.LFE236
 4175 007e 0100     		.2byte	0x1
 4176 0080 5B       		.byte	0x5b
 4177 0081 00000000 		.4byte	0
 4178 0085 00000000 		.4byte	0
 4179              	.LLST40:
 4180 0089 00000000 		.4byte	.LVL69
 4181 008d 1E000000 		.4byte	.LVL72
 4182 0091 0100     		.2byte	0x1
 4183 0093 52       		.byte	0x52
 4184 0094 1E000000 		.4byte	.LVL72
 4185 0098 50000000 		.4byte	.LVL78
 4186 009c 0100     		.2byte	0x1
 4187 009e 56       		.byte	0x56
 4188 009f 50000000 		.4byte	.LVL78
 4189 00a3 54000000 		.4byte	.LVL79
 4190 00a7 0300     		.2byte	0x3
 4191 00a9 76       		.byte	0x76
 4192 00aa 01       		.sleb128 1
 4193 00ab 9F       		.byte	0x9f
 4194 00ac 5E000000 		.4byte	.LVL81
 4195 00b0 7E000000 		.4byte	.LVL87
 4196 00b4 0100     		.2byte	0x1
 4197 00b6 56       		.byte	0x56
 4198 00b7 00000000 		.4byte	0
 4199 00bb 00000000 		.4byte	0
 4200              	.LLST41:
 4201 00bf 00000000 		.4byte	.LVL69
 4202 00c3 1E000000 		.4byte	.LVL72
 4203 00c7 0100     		.2byte	0x1
 4204 00c9 53       		.byte	0x53
 4205 00ca 1E000000 		.4byte	.LVL72
 4206 00ce 86000000 		.4byte	.LFE236
 4207 00d2 0200     		.2byte	0x2
 4208 00d4 91       		.byte	0x91
 4209 00d5 54       		.sleb128 -44
 4210 00d6 00000000 		.4byte	0
 4211 00da 00000000 		.4byte	0
 4212              	.LLST42:
 4213 00de 12000000 		.4byte	.LVL70
 4214 00e2 1E000000 		.4byte	.LVL72
 4215 00e6 0200     		.2byte	0x2
 4216 00e8 30       		.byte	0x30
 4217 00e9 9F       		.byte	0x9f
 4218 00ea 1E000000 		.4byte	.LVL72
ARM GAS  /tmp/ccwwxqPB.s 			page 75


 4219 00ee 86000000 		.4byte	.LFE236
 4220 00f2 0100     		.2byte	0x1
 4221 00f4 57       		.byte	0x57
 4222 00f5 00000000 		.4byte	0
 4223 00f9 00000000 		.4byte	0
 4224              	.LLST43:
 4225 00fd 12000000 		.4byte	.LVL70
 4226 0101 1A000000 		.4byte	.LVL71
 4227 0105 0300     		.2byte	0x3
 4228 0107 08       		.byte	0x8
 4229 0108 20       		.byte	0x20
 4230 0109 9F       		.byte	0x9f
 4231 010a 00000000 		.4byte	0
 4232 010e 00000000 		.4byte	0
 4233              	.LLST44:
 4234 0112 4A000000 		.4byte	.LVL76
 4235 0116 4E000000 		.4byte	.LVL77
 4236 011a 0200     		.2byte	0x2
 4237 011c 30       		.byte	0x30
 4238 011d 9F       		.byte	0x9f
 4239 011e 00000000 		.4byte	0
 4240 0122 00000000 		.4byte	0
 4241              	.LLST45:
 4242 0126 4E000000 		.4byte	.LVL77
 4243 012a 5A000000 		.4byte	.LVL80
 4244 012e 0300     		.2byte	0x3
 4245 0130 08       		.byte	0x8
 4246 0131 20       		.byte	0x20
 4247 0132 9F       		.byte	0x9f
 4248 0133 00000000 		.4byte	0
 4249 0137 00000000 		.4byte	0
 4250              	.LLST46:
 4251 013b 7A000000 		.4byte	.LVL86
 4252 013f 7E000000 		.4byte	.LVL87
 4253 0143 0200     		.2byte	0x2
 4254 0145 30       		.byte	0x30
 4255 0146 9F       		.byte	0x9f
 4256 0147 00000000 		.4byte	0
 4257 014b 00000000 		.4byte	0
 4258              	.LLST35:
 4259 014f 00000000 		.4byte	.LVL63
 4260 0153 25000000 		.4byte	.LVL66-1
 4261 0157 0100     		.2byte	0x1
 4262 0159 50       		.byte	0x50
 4263 015a 25000000 		.4byte	.LVL66-1
 4264 015e 2A000000 		.4byte	.LVL67
 4265 0162 0400     		.2byte	0x4
 4266 0164 F3       		.byte	0xf3
 4267 0165 01       		.uleb128 0x1
 4268 0166 50       		.byte	0x50
 4269 0167 9F       		.byte	0x9f
 4270 0168 2A000000 		.4byte	.LVL67
 4271 016c 32000000 		.4byte	.LVL68
 4272 0170 0100     		.2byte	0x1
 4273 0172 50       		.byte	0x50
 4274 0173 32000000 		.4byte	.LVL68
 4275 0177 34000000 		.4byte	.LFE235
ARM GAS  /tmp/ccwwxqPB.s 			page 76


 4276 017b 0400     		.2byte	0x4
 4277 017d F3       		.byte	0xf3
 4278 017e 01       		.uleb128 0x1
 4279 017f 50       		.byte	0x50
 4280 0180 9F       		.byte	0x9f
 4281 0181 00000000 		.4byte	0
 4282 0185 00000000 		.4byte	0
 4283              	.LLST36:
 4284 0189 1A000000 		.4byte	.LVL65
 4285 018d 2A000000 		.4byte	.LVL67
 4286 0191 0100     		.2byte	0x1
 4287 0193 54       		.byte	0x54
 4288 0194 00000000 		.4byte	0
 4289 0198 00000000 		.4byte	0
 4290              	.LLST37:
 4291 019c 00000000 		.4byte	.LVL63
 4292 01a0 0C000000 		.4byte	.LVL64
 4293 01a4 0100     		.2byte	0x1
 4294 01a6 50       		.byte	0x50
 4295 01a7 2A000000 		.4byte	.LVL67
 4296 01ab 32000000 		.4byte	.LVL68
 4297 01af 0100     		.2byte	0x1
 4298 01b1 50       		.byte	0x50
 4299 01b2 32000000 		.4byte	.LVL68
 4300 01b6 34000000 		.4byte	.LFE235
 4301 01ba 0400     		.2byte	0x4
 4302 01bc F3       		.byte	0xf3
 4303 01bd 01       		.uleb128 0x1
 4304 01be 50       		.byte	0x50
 4305 01bf 9F       		.byte	0x9f
 4306 01c0 00000000 		.4byte	0
 4307 01c4 00000000 		.4byte	0
 4308              	.LLST28:
 4309 01c8 00000000 		.4byte	.LVL51
 4310 01cc 13000000 		.4byte	.LVL54-1
 4311 01d0 0100     		.2byte	0x1
 4312 01d2 50       		.byte	0x50
 4313 01d3 13000000 		.4byte	.LVL54-1
 4314 01d7 22000000 		.4byte	.LVL57
 4315 01db 0100     		.2byte	0x1
 4316 01dd 54       		.byte	0x54
 4317 01de 22000000 		.4byte	.LVL57
 4318 01e2 40000000 		.4byte	.LVL58
 4319 01e6 0100     		.2byte	0x1
 4320 01e8 50       		.byte	0x50
 4321 01e9 40000000 		.4byte	.LVL58
 4322 01ed 50000000 		.4byte	.LFE234
 4323 01f1 0100     		.2byte	0x1
 4324 01f3 54       		.byte	0x54
 4325 01f4 00000000 		.4byte	0
 4326 01f8 00000000 		.4byte	0
 4327              	.LLST29:
 4328 01fc 00000000 		.4byte	.LVL51
 4329 0200 10000000 		.4byte	.LVL53
 4330 0204 0100     		.2byte	0x1
 4331 0206 51       		.byte	0x51
 4332 0207 10000000 		.4byte	.LVL53
ARM GAS  /tmp/ccwwxqPB.s 			page 77


 4333 020b 50000000 		.4byte	.LFE234
 4334 020f 0400     		.2byte	0x4
 4335 0211 F3       		.byte	0xf3
 4336 0212 01       		.uleb128 0x1
 4337 0213 51       		.byte	0x51
 4338 0214 9F       		.byte	0x9f
 4339 0215 00000000 		.4byte	0
 4340 0219 00000000 		.4byte	0
 4341              	.LLST30:
 4342 021d 00000000 		.4byte	.LVL51
 4343 0221 10000000 		.4byte	.LVL53
 4344 0225 0100     		.2byte	0x1
 4345 0227 52       		.byte	0x52
 4346 0228 10000000 		.4byte	.LVL53
 4347 022c 13000000 		.4byte	.LVL54-1
 4348 0230 0100     		.2byte	0x1
 4349 0232 51       		.byte	0x51
 4350 0233 13000000 		.4byte	.LVL54-1
 4351 0237 22000000 		.4byte	.LVL57
 4352 023b 0100     		.2byte	0x1
 4353 023d 56       		.byte	0x56
 4354 023e 22000000 		.4byte	.LVL57
 4355 0242 41000000 		.4byte	.LVL59-1
 4356 0246 0100     		.2byte	0x1
 4357 0248 51       		.byte	0x51
 4358 0249 41000000 		.4byte	.LVL59-1
 4359 024d 50000000 		.4byte	.LFE234
 4360 0251 0100     		.2byte	0x1
 4361 0253 56       		.byte	0x56
 4362 0254 00000000 		.4byte	0
 4363 0258 00000000 		.4byte	0
 4364              	.LLST32:
 4365 025c 14000000 		.4byte	.LVL54
 4366 0260 18000000 		.4byte	.LVL55
 4367 0264 0100     		.2byte	0x1
 4368 0266 50       		.byte	0x50
 4369 0267 4A000000 		.4byte	.LVL61
 4370 026b 50000000 		.4byte	.LFE234
 4371 026f 0100     		.2byte	0x1
 4372 0271 50       		.byte	0x50
 4373 0272 00000000 		.4byte	0
 4374 0276 00000000 		.4byte	0
 4375              	.LLST33:
 4376 027a 4A000000 		.4byte	.LVL61
 4377 027e 4E000000 		.4byte	.LVL62
 4378 0282 0200     		.2byte	0x2
 4379 0284 30       		.byte	0x30
 4380 0285 9F       		.byte	0x9f
 4381 0286 00000000 		.4byte	0
 4382 028a 00000000 		.4byte	0
 4383              	.LLST31:
 4384 028e 00000000 		.4byte	.LVL51
 4385 0292 0E000000 		.4byte	.LVL52
 4386 0296 0300     		.2byte	0x3
 4387 0298 08       		.byte	0x8
 4388 0299 20       		.byte	0x20
 4389 029a 9F       		.byte	0x9f
ARM GAS  /tmp/ccwwxqPB.s 			page 78


 4390 029b 00000000 		.4byte	0
 4391 029f 00000000 		.4byte	0
 4392              	.LLST34:
 4393 02a3 42000000 		.4byte	.LVL59
 4394 02a7 48000000 		.4byte	.LVL60
 4395 02ab 0200     		.2byte	0x2
 4396 02ad 30       		.byte	0x30
 4397 02ae 9F       		.byte	0x9f
 4398 02af 00000000 		.4byte	0
 4399 02b3 00000000 		.4byte	0
 4400              	.LLST27:
 4401 02b7 00000000 		.4byte	.LVL49
 4402 02bb 17000000 		.4byte	.LVL50-1
 4403 02bf 0100     		.2byte	0x1
 4404 02c1 50       		.byte	0x50
 4405 02c2 17000000 		.4byte	.LVL50-1
 4406 02c6 18000000 		.4byte	.LFE233
 4407 02ca 0400     		.2byte	0x4
 4408 02cc F3       		.byte	0xf3
 4409 02cd 01       		.uleb128 0x1
 4410 02ce 50       		.byte	0x50
 4411 02cf 9F       		.byte	0x9f
 4412 02d0 00000000 		.4byte	0
 4413 02d4 00000000 		.4byte	0
 4414              	.LLST24:
 4415 02d8 00000000 		.4byte	.LVL46
 4416 02dc 1A000000 		.4byte	.LVL48
 4417 02e0 0200     		.2byte	0x2
 4418 02e2 91       		.byte	0x91
 4419 02e3 00       		.sleb128 0
 4420 02e4 1A000000 		.4byte	.LVL48
 4421 02e8 1C000000 		.4byte	.LFE232
 4422 02ec 0200     		.2byte	0x2
 4423 02ee 7D       		.byte	0x7d
 4424 02ef 00       		.sleb128 0
 4425 02f0 00000000 		.4byte	0
 4426 02f4 00000000 		.4byte	0
 4427              	.LLST25:
 4428 02f8 00000000 		.4byte	.LVL46
 4429 02fc 0E000000 		.4byte	.LVL47
 4430 0300 0100     		.2byte	0x1
 4431 0302 50       		.byte	0x50
 4432 0303 00000000 		.4byte	0
 4433 0307 00000000 		.4byte	0
 4434              	.LLST15:
 4435 030b 00000000 		.4byte	.LVL26
 4436 030f 26000000 		.4byte	.LVL30
 4437 0313 0100     		.2byte	0x1
 4438 0315 50       		.byte	0x50
 4439 0316 26000000 		.4byte	.LVL30
 4440 031a 2A000000 		.4byte	.LVL32
 4441 031e 0100     		.2byte	0x1
 4442 0320 54       		.byte	0x54
 4443 0321 2A000000 		.4byte	.LVL32
 4444 0325 2D000000 		.4byte	.LVL33-1
 4445 0329 0100     		.2byte	0x1
 4446 032b 50       		.byte	0x50
ARM GAS  /tmp/ccwwxqPB.s 			page 79


 4447 032c 2D000000 		.4byte	.LVL33-1
 4448 0330 3A000000 		.4byte	.LVL36
 4449 0334 0100     		.2byte	0x1
 4450 0336 54       		.byte	0x54
 4451 0337 3A000000 		.4byte	.LVL36
 4452 033b 68000000 		.4byte	.LVL44
 4453 033f 0100     		.2byte	0x1
 4454 0341 50       		.byte	0x50
 4455 0342 68000000 		.4byte	.LVL44
 4456 0346 74000000 		.4byte	.LFE231
 4457 034a 0100     		.2byte	0x1
 4458 034c 54       		.byte	0x54
 4459 034d 00000000 		.4byte	0
 4460 0351 00000000 		.4byte	0
 4461              	.LLST16:
 4462 0355 00000000 		.4byte	.LVL26
 4463 0359 1E000000 		.4byte	.LVL29
 4464 035d 0100     		.2byte	0x1
 4465 035f 51       		.byte	0x51
 4466 0360 1E000000 		.4byte	.LVL29
 4467 0364 4A000000 		.4byte	.LVL38
 4468 0368 0100     		.2byte	0x1
 4469 036a 59       		.byte	0x59
 4470 036b 4A000000 		.4byte	.LVL38
 4471 036f 68000000 		.4byte	.LVL44
 4472 0373 0300     		.2byte	0x3
 4473 0375 79       		.byte	0x79
 4474 0376 7F       		.sleb128 -1
 4475 0377 9F       		.byte	0x9f
 4476 0378 68000000 		.4byte	.LVL44
 4477 037c 6C000000 		.4byte	.LVL45
 4478 0380 0100     		.2byte	0x1
 4479 0382 59       		.byte	0x59
 4480 0383 00000000 		.4byte	0
 4481 0387 00000000 		.4byte	0
 4482              	.LLST17:
 4483 038b 00000000 		.4byte	.LVL26
 4484 038f 1E000000 		.4byte	.LVL29
 4485 0393 0100     		.2byte	0x1
 4486 0395 52       		.byte	0x52
 4487 0396 5C000000 		.4byte	.LVL41
 4488 039a 68000000 		.4byte	.LVL44
 4489 039e 0600     		.2byte	0x6
 4490 03a0 7B       		.byte	0x7b
 4491 03a1 00       		.sleb128 0
 4492 03a2 76       		.byte	0x76
 4493 03a3 00       		.sleb128 0
 4494 03a4 1C       		.byte	0x1c
 4495 03a5 9F       		.byte	0x9f
 4496 03a6 00000000 		.4byte	0
 4497 03aa 00000000 		.4byte	0
 4498              	.LLST18:
 4499 03ae 00000000 		.4byte	.LVL26
 4500 03b2 1E000000 		.4byte	.LVL29
 4501 03b6 0100     		.2byte	0x1
 4502 03b8 53       		.byte	0x53
 4503 03b9 1E000000 		.4byte	.LVL29
ARM GAS  /tmp/ccwwxqPB.s 			page 80


 4504 03bd 2A000000 		.4byte	.LVL32
 4505 03c1 0100     		.2byte	0x1
 4506 03c3 55       		.byte	0x55
 4507 03c4 2A000000 		.4byte	.LVL32
 4508 03c8 2D000000 		.4byte	.LVL33-1
 4509 03cc 0100     		.2byte	0x1
 4510 03ce 51       		.byte	0x51
 4511 03cf 2D000000 		.4byte	.LVL33-1
 4512 03d3 3A000000 		.4byte	.LVL36
 4513 03d7 0100     		.2byte	0x1
 4514 03d9 55       		.byte	0x55
 4515 03da 3A000000 		.4byte	.LVL36
 4516 03de 40000000 		.4byte	.LVL37
 4517 03e2 0100     		.2byte	0x1
 4518 03e4 51       		.byte	0x51
 4519 03e5 40000000 		.4byte	.LVL37
 4520 03e9 74000000 		.4byte	.LFE231
 4521 03ed 0100     		.2byte	0x1
 4522 03ef 55       		.byte	0x55
 4523 03f0 00000000 		.4byte	0
 4524 03f4 00000000 		.4byte	0
 4525              	.LLST19:
 4526 03f8 12000000 		.4byte	.LVL27
 4527 03fc 1E000000 		.4byte	.LVL29
 4528 0400 0200     		.2byte	0x2
 4529 0402 30       		.byte	0x30
 4530 0403 9F       		.byte	0x9f
 4531 0404 1E000000 		.4byte	.LVL29
 4532 0408 74000000 		.4byte	.LFE231
 4533 040c 0100     		.2byte	0x1
 4534 040e 56       		.byte	0x56
 4535 040f 00000000 		.4byte	0
 4536 0413 00000000 		.4byte	0
 4537              	.LLST20:
 4538 0417 12000000 		.4byte	.LVL27
 4539 041b 18000000 		.4byte	.LVL28
 4540 041f 0300     		.2byte	0x3
 4541 0421 08       		.byte	0x8
 4542 0422 20       		.byte	0x20
 4543 0423 9F       		.byte	0x9f
 4544 0424 00000000 		.4byte	0
 4545 0428 00000000 		.4byte	0
 4546              	.LLST21:
 4547 042c 60000000 		.4byte	.LVL42
 4548 0430 66000000 		.4byte	.LVL43
 4549 0434 0300     		.2byte	0x3
 4550 0436 08       		.byte	0x8
 4551 0437 20       		.byte	0x20
 4552 0438 9F       		.byte	0x9f
 4553 0439 00000000 		.4byte	0
 4554 043d 00000000 		.4byte	0
 4555              	.LLST22:
 4556 0441 56000000 		.4byte	.LVL39
 4557 0445 5A000000 		.4byte	.LVL40
 4558 0449 0200     		.2byte	0x2
 4559 044b 30       		.byte	0x30
 4560 044c 9F       		.byte	0x9f
ARM GAS  /tmp/ccwwxqPB.s 			page 81


 4561 044d 00000000 		.4byte	0
 4562 0451 00000000 		.4byte	0
 4563              	.LLST23:
 4564 0455 68000000 		.4byte	.LVL44
 4565 0459 6C000000 		.4byte	.LVL45
 4566 045d 0200     		.2byte	0x2
 4567 045f 30       		.byte	0x30
 4568 0460 9F       		.byte	0x9f
 4569 0461 00000000 		.4byte	0
 4570 0465 00000000 		.4byte	0
 4571              	.LLST8:
 4572 0469 00000000 		.4byte	.LVL12
 4573 046d 11000000 		.4byte	.LVL14-1
 4574 0471 0100     		.2byte	0x1
 4575 0473 50       		.byte	0x50
 4576 0474 11000000 		.4byte	.LVL14-1
 4577 0478 14000000 		.4byte	.LVL15
 4578 047c 0100     		.2byte	0x1
 4579 047e 54       		.byte	0x54
 4580 047f 14000000 		.4byte	.LVL15
 4581 0483 17000000 		.4byte	.LVL16-1
 4582 0487 0100     		.2byte	0x1
 4583 0489 50       		.byte	0x50
 4584 048a 17000000 		.4byte	.LVL16-1
 4585 048e 26000000 		.4byte	.LVL19
 4586 0492 0100     		.2byte	0x1
 4587 0494 54       		.byte	0x54
 4588 0495 26000000 		.4byte	.LVL19
 4589 0499 3C000000 		.4byte	.LVL21
 4590 049d 0100     		.2byte	0x1
 4591 049f 50       		.byte	0x50
 4592 04a0 3C000000 		.4byte	.LVL21
 4593 04a4 4E000000 		.4byte	.LFE230
 4594 04a8 0100     		.2byte	0x1
 4595 04aa 54       		.byte	0x54
 4596 04ab 00000000 		.4byte	0
 4597 04af 00000000 		.4byte	0
 4598              	.LLST9:
 4599 04b3 00000000 		.4byte	.LVL12
 4600 04b7 11000000 		.4byte	.LVL14-1
 4601 04bb 0100     		.2byte	0x1
 4602 04bd 51       		.byte	0x51
 4603 04be 11000000 		.4byte	.LVL14-1
 4604 04c2 14000000 		.4byte	.LVL15
 4605 04c6 0100     		.2byte	0x1
 4606 04c8 56       		.byte	0x56
 4607 04c9 14000000 		.4byte	.LVL15
 4608 04cd 17000000 		.4byte	.LVL16-1
 4609 04d1 0100     		.2byte	0x1
 4610 04d3 51       		.byte	0x51
 4611 04d4 17000000 		.4byte	.LVL16-1
 4612 04d8 26000000 		.4byte	.LVL19
 4613 04dc 0100     		.2byte	0x1
 4614 04de 56       		.byte	0x56
 4615 04df 26000000 		.4byte	.LVL19
 4616 04e3 2A000000 		.4byte	.LVL20
 4617 04e7 0100     		.2byte	0x1
ARM GAS  /tmp/ccwwxqPB.s 			page 82


 4618 04e9 51       		.byte	0x51
 4619 04ea 2A000000 		.4byte	.LVL20
 4620 04ee 4E000000 		.4byte	.LFE230
 4621 04f2 0100     		.2byte	0x1
 4622 04f4 56       		.byte	0x56
 4623 04f5 00000000 		.4byte	0
 4624 04f9 00000000 		.4byte	0
 4625              	.LLST10:
 4626 04fd 3C000000 		.4byte	.LVL21
 4627 0501 48000000 		.4byte	.LVL24
 4628 0505 0100     		.2byte	0x1
 4629 0507 50       		.byte	0x50
 4630 0508 00000000 		.4byte	0
 4631 050c 00000000 		.4byte	0
 4632              	.LLST12:
 4633 0510 18000000 		.4byte	.LVL16
 4634 0514 1C000000 		.4byte	.LVL17
 4635 0518 0100     		.2byte	0x1
 4636 051a 50       		.byte	0x50
 4637 051b 48000000 		.4byte	.LVL24
 4638 051f 4E000000 		.4byte	.LFE230
 4639 0523 0100     		.2byte	0x1
 4640 0525 50       		.byte	0x50
 4641 0526 00000000 		.4byte	0
 4642 052a 00000000 		.4byte	0
 4643              	.LLST13:
 4644 052e 48000000 		.4byte	.LVL24
 4645 0532 4C000000 		.4byte	.LVL25
 4646 0536 0200     		.2byte	0x2
 4647 0538 30       		.byte	0x30
 4648 0539 9F       		.byte	0x9f
 4649 053a 00000000 		.4byte	0
 4650 053e 00000000 		.4byte	0
 4651              	.LLST11:
 4652 0542 00000000 		.4byte	.LVL12
 4653 0546 0C000000 		.4byte	.LVL13
 4654 054a 0300     		.2byte	0x3
 4655 054c 08       		.byte	0x8
 4656 054d 20       		.byte	0x20
 4657 054e 9F       		.byte	0x9f
 4658 054f 00000000 		.4byte	0
 4659 0553 00000000 		.4byte	0
 4660              	.LLST14:
 4661 0557 40000000 		.4byte	.LVL22
 4662 055b 46000000 		.4byte	.LVL23
 4663 055f 0200     		.2byte	0x2
 4664 0561 30       		.byte	0x30
 4665 0562 9F       		.byte	0x9f
 4666 0563 00000000 		.4byte	0
 4667 0567 00000000 		.4byte	0
 4668              	.LLST5:
 4669 056b 00000000 		.4byte	.LVL6
 4670 056f 27000000 		.4byte	.LVL9-1
 4671 0573 0100     		.2byte	0x1
 4672 0575 50       		.byte	0x50
 4673 0576 27000000 		.4byte	.LVL9-1
 4674 057a 2C000000 		.4byte	.LVL10
ARM GAS  /tmp/ccwwxqPB.s 			page 83


 4675 057e 0400     		.2byte	0x4
 4676 0580 F3       		.byte	0xf3
 4677 0581 01       		.uleb128 0x1
 4678 0582 50       		.byte	0x50
 4679 0583 9F       		.byte	0x9f
 4680 0584 2C000000 		.4byte	.LVL10
 4681 0588 34000000 		.4byte	.LVL11
 4682 058c 0100     		.2byte	0x1
 4683 058e 50       		.byte	0x50
 4684 058f 34000000 		.4byte	.LVL11
 4685 0593 36000000 		.4byte	.LFE229
 4686 0597 0400     		.2byte	0x4
 4687 0599 F3       		.byte	0xf3
 4688 059a 01       		.uleb128 0x1
 4689 059b 50       		.byte	0x50
 4690 059c 9F       		.byte	0x9f
 4691 059d 00000000 		.4byte	0
 4692 05a1 00000000 		.4byte	0
 4693              	.LLST6:
 4694 05a5 00000000 		.4byte	.LVL6
 4695 05a9 24000000 		.4byte	.LVL8
 4696 05ad 0100     		.2byte	0x1
 4697 05af 51       		.byte	0x51
 4698 05b0 24000000 		.4byte	.LVL8
 4699 05b4 2C000000 		.4byte	.LVL10
 4700 05b8 0400     		.2byte	0x4
 4701 05ba F3       		.byte	0xf3
 4702 05bb 01       		.uleb128 0x1
 4703 05bc 51       		.byte	0x51
 4704 05bd 9F       		.byte	0x9f
 4705 05be 2C000000 		.4byte	.LVL10
 4706 05c2 36000000 		.4byte	.LFE229
 4707 05c6 0100     		.2byte	0x1
 4708 05c8 51       		.byte	0x51
 4709 05c9 00000000 		.4byte	0
 4710 05cd 00000000 		.4byte	0
 4711              	.LLST7:
 4712 05d1 00000000 		.4byte	.LVL6
 4713 05d5 0A000000 		.4byte	.LVL7
 4714 05d9 0100     		.2byte	0x1
 4715 05db 50       		.byte	0x50
 4716 05dc 2C000000 		.4byte	.LVL10
 4717 05e0 34000000 		.4byte	.LVL11
 4718 05e4 0100     		.2byte	0x1
 4719 05e6 50       		.byte	0x50
 4720 05e7 34000000 		.4byte	.LVL11
 4721 05eb 36000000 		.4byte	.LFE229
 4722 05ef 0400     		.2byte	0x4
 4723 05f1 F3       		.byte	0xf3
 4724 05f2 01       		.uleb128 0x1
 4725 05f3 50       		.byte	0x50
 4726 05f4 9F       		.byte	0x9f
 4727 05f5 00000000 		.4byte	0
 4728 05f9 00000000 		.4byte	0
 4729              	.LLST4:
 4730 05fd 00000000 		.4byte	.LVL4
 4731 0601 11000000 		.4byte	.LVL5-1
ARM GAS  /tmp/ccwwxqPB.s 			page 84


 4732 0605 0100     		.2byte	0x1
 4733 0607 50       		.byte	0x50
 4734 0608 11000000 		.4byte	.LVL5-1
 4735 060c 12000000 		.4byte	.LFE228
 4736 0610 0400     		.2byte	0x4
 4737 0612 F3       		.byte	0xf3
 4738 0613 01       		.uleb128 0x1
 4739 0614 50       		.byte	0x50
 4740 0615 9F       		.byte	0x9f
 4741 0616 00000000 		.4byte	0
 4742 061a 00000000 		.4byte	0
 4743              	.LLST0:
 4744 061e 00000000 		.4byte	.LVL0
 4745 0622 0A000000 		.4byte	.LVL1
 4746 0626 0100     		.2byte	0x1
 4747 0628 52       		.byte	0x52
 4748 0629 0A000000 		.4byte	.LVL1
 4749 062d 1E000000 		.4byte	.LFE227
 4750 0631 0400     		.2byte	0x4
 4751 0633 F3       		.byte	0xf3
 4752 0634 01       		.uleb128 0x1
 4753 0635 52       		.byte	0x52
 4754 0636 9F       		.byte	0x9f
 4755 0637 00000000 		.4byte	0
 4756 063b 00000000 		.4byte	0
 4757              	.LLST1:
 4758 063f 00000000 		.4byte	.LVL0
 4759 0643 1C000000 		.4byte	.LVL3
 4760 0647 0200     		.2byte	0x2
 4761 0649 91       		.byte	0x91
 4762 064a 00       		.sleb128 0
 4763 064b 1C000000 		.4byte	.LVL3
 4764 064f 1E000000 		.4byte	.LFE227
 4765 0653 0200     		.2byte	0x2
 4766 0655 7D       		.byte	0x7d
 4767 0656 00       		.sleb128 0
 4768 0657 00000000 		.4byte	0
 4769 065b 00000000 		.4byte	0
 4770              	.LLST2:
 4771 065f 00000000 		.4byte	.LVL0
 4772 0663 12000000 		.4byte	.LVL2
 4773 0667 0100     		.2byte	0x1
 4774 0669 50       		.byte	0x50
 4775 066a 00000000 		.4byte	0
 4776 066e 00000000 		.4byte	0
 4777              		.section	.debug_aranges,"",%progbits
 4778 0000 64000000 		.4byte	0x64
 4779 0004 0200     		.2byte	0x2
 4780 0006 00000000 		.4byte	.Ldebug_info0
 4781 000a 04       		.byte	0x4
 4782 000b 00       		.byte	0
 4783 000c 0000     		.2byte	0
 4784 000e 0000     		.2byte	0
 4785 0010 00000000 		.4byte	.LFB227
 4786 0014 1E000000 		.4byte	.LFE227-.LFB227
 4787 0018 00000000 		.4byte	.LFB228
 4788 001c 12000000 		.4byte	.LFE228-.LFB228
ARM GAS  /tmp/ccwwxqPB.s 			page 85


 4789 0020 00000000 		.4byte	.LFB229
 4790 0024 36000000 		.4byte	.LFE229-.LFB229
 4791 0028 00000000 		.4byte	.LFB230
 4792 002c 4E000000 		.4byte	.LFE230-.LFB230
 4793 0030 00000000 		.4byte	.LFB231
 4794 0034 74000000 		.4byte	.LFE231-.LFB231
 4795 0038 00000000 		.4byte	.LFB232
 4796 003c 1C000000 		.4byte	.LFE232-.LFB232
 4797 0040 00000000 		.4byte	.LFB233
 4798 0044 18000000 		.4byte	.LFE233-.LFB233
 4799 0048 00000000 		.4byte	.LFB234
 4800 004c 50000000 		.4byte	.LFE234-.LFB234
 4801 0050 00000000 		.4byte	.LFB235
 4802 0054 34000000 		.4byte	.LFE235-.LFB235
 4803 0058 00000000 		.4byte	.LFB236
 4804 005c 86000000 		.4byte	.LFE236-.LFB236
 4805 0060 00000000 		.4byte	0
 4806 0064 00000000 		.4byte	0
 4807              		.section	.debug_ranges,"",%progbits
 4808              	.Ldebug_ranges0:
 4809 0000 00000000 		.4byte	.LBB111
 4810 0004 0A000000 		.4byte	.LBE111
 4811 0008 2C000000 		.4byte	.LBB114
 4812 000c 30000000 		.4byte	.LBE114
 4813 0010 00000000 		.4byte	0
 4814 0014 00000000 		.4byte	0
 4815 0018 02000000 		.4byte	.LBB115
 4816 001c 04000000 		.4byte	.LBE115
 4817 0020 08000000 		.4byte	.LBB122
 4818 0024 0C000000 		.4byte	.LBE122
 4819 0028 00000000 		.4byte	0
 4820 002c 00000000 		.4byte	0
 4821 0030 14000000 		.4byte	.LBB123
 4822 0034 22000000 		.4byte	.LBE123
 4823 0038 48000000 		.4byte	.LBB134
 4824 003c 4E000000 		.4byte	.LBE134
 4825 0040 00000000 		.4byte	0
 4826 0044 00000000 		.4byte	0
 4827 0048 1A000000 		.4byte	.LBB139
 4828 004c 1C000000 		.4byte	.LBE139
 4829 0050 60000000 		.4byte	.LBB156
 4830 0054 68000000 		.4byte	.LBE156
 4831 0058 00000000 		.4byte	0
 4832 005c 00000000 		.4byte	0
 4833 0060 1C000000 		.4byte	.LBB146
 4834 0064 1E000000 		.4byte	.LBE146
 4835 0068 56000000 		.4byte	.LBB155
 4836 006c 5A000000 		.4byte	.LBE155
 4837 0070 00000000 		.4byte	0
 4838 0074 00000000 		.4byte	0
 4839 0078 10000000 		.4byte	.LBB169
 4840 007c 1E000000 		.4byte	.LBE169
 4841 0080 4A000000 		.4byte	.LBB180
 4842 0084 50000000 		.4byte	.LBE180
 4843 0088 00000000 		.4byte	0
 4844 008c 00000000 		.4byte	0
 4845 0090 02000000 		.4byte	.LBB181
ARM GAS  /tmp/ccwwxqPB.s 			page 86


 4846 0094 0C000000 		.4byte	.LBE181
 4847 0098 2A000000 		.4byte	.LBB184
 4848 009c 2E000000 		.4byte	.LBE184
 4849 00a0 00000000 		.4byte	0
 4850 00a4 00000000 		.4byte	0
 4851 00a8 1C000000 		.4byte	.LBB189
 4852 00ac 20000000 		.4byte	.LBE189
 4853 00b0 4A000000 		.4byte	.LBB198
 4854 00b4 4E000000 		.4byte	.LBE198
 4855 00b8 00000000 		.4byte	0
 4856 00bc 00000000 		.4byte	0
 4857 00c0 00000000 		.4byte	.LFB227
 4858 00c4 1E000000 		.4byte	.LFE227
 4859 00c8 00000000 		.4byte	.LFB228
 4860 00cc 12000000 		.4byte	.LFE228
 4861 00d0 00000000 		.4byte	.LFB229
 4862 00d4 36000000 		.4byte	.LFE229
 4863 00d8 00000000 		.4byte	.LFB230
 4864 00dc 4E000000 		.4byte	.LFE230
 4865 00e0 00000000 		.4byte	.LFB231
 4866 00e4 74000000 		.4byte	.LFE231
 4867 00e8 00000000 		.4byte	.LFB232
 4868 00ec 1C000000 		.4byte	.LFE232
 4869 00f0 00000000 		.4byte	.LFB233
 4870 00f4 18000000 		.4byte	.LFE233
 4871 00f8 00000000 		.4byte	.LFB234
 4872 00fc 50000000 		.4byte	.LFE234
 4873 0100 00000000 		.4byte	.LFB235
 4874 0104 34000000 		.4byte	.LFE235
 4875 0108 00000000 		.4byte	.LFB236
 4876 010c 86000000 		.4byte	.LFE236
 4877 0110 00000000 		.4byte	0
 4878 0114 00000000 		.4byte	0
 4879              		.section	.debug_line,"",%progbits
 4880              	.Ldebug_line0:
 4881 0000 C9040000 		.section	.debug_str,"MS",%progbits,1
 4881      0200A402 
 4881      00000201 
 4881      FB0E0D00 
 4881      01010101 
 4882              	.LASF143:
 4883 0000 63684F51 		.ascii	"chOQPutTimeout\000"
 4883      50757454 
 4883      696D656F 
 4883      757400
 4884              	.LASF116:
 4885 000f 63665F6F 		.ascii	"cf_off_older\000"
 4885      66665F6F 
 4885      6C646572 
 4885      00
 4886              	.LASF54:
 4887 001c 72656164 		.ascii	"ready_list_t\000"
 4887      795F6C69 
 4887      73745F74 
 4887      00
 4888              	.LASF147:
 4889 0029 6F6E6679 		.ascii	"onfy\000"
ARM GAS  /tmp/ccwwxqPB.s 			page 87


 4889      00
 4890              	.LASF4:
 4891 002e 73697A65 		.ascii	"size_t\000"
 4891      5F7400
 4892              	.LASF91:
 4893 0035 7264796D 		.ascii	"rdymsg\000"
 4893      736700
 4894              	.LASF20:
 4895 003c 75696E74 		.ascii	"uint64_t\000"
 4895      36345F74 
 4895      00
 4896              	.LASF171:
 4897 0045 63685468 		.ascii	"chThdDequeueAllI\000"
 4897      64446571 
 4897      75657565 
 4897      416C6C49 
 4897      00
 4898              	.LASF5:
 4899 0056 5F5F7569 		.ascii	"__uint8_t\000"
 4899      6E74385F 
 4899      7400
 4900              	.LASF88:
 4901 0060 706F7274 		.ascii	"port_intctx\000"
 4901      5F696E74 
 4901      63747800 
 4902              	.LASF73:
 4903 006c 73797374 		.ascii	"system_debug_t\000"
 4903      656D5F64 
 4903      65627567 
 4903      5F7400
 4904              	.LASF149:
 4905 007b 63684951 		.ascii	"chIQReadTimeout\000"
 4905      52656164 
 4905      54696D65 
 4905      6F757400 
 4906              	.LASF163:
 4907 008b 71756575 		.ascii	"queue_init\000"
 4907      655F696E 
 4907      697400
 4908              	.LASF166:
 4909 0096 706F7274 		.ascii	"port_lock\000"
 4909      5F6C6F63 
 4909      6B00
 4910              	.LASF132:
 4911 00a0 715F746F 		.ascii	"q_top\000"
 4911      7000
 4912              	.LASF154:
 4913 00a6 63684951 		.ascii	"chIQObjectInit\000"
 4913      4F626A65 
 4913      6374496E 
 4913      697400
 4914              	.LASF15:
 4915 00b5 6C6F6E67 		.ascii	"long long unsigned int\000"
 4915      206C6F6E 
 4915      6720756E 
 4915      7369676E 
 4915      65642069 
ARM GAS  /tmp/ccwwxqPB.s 			page 88


 4916              	.LASF112:
 4917 00cc 63685F74 		.ascii	"ch_threadsize\000"
 4917      68726561 
 4917      6473697A 
 4917      6500
 4918              	.LASF92:
 4919 00da 65786974 		.ascii	"exitcode\000"
 4919      636F6465 
 4919      00
 4920              	.LASF80:
 4921 00e3 6D61696E 		.ascii	"mainthread\000"
 4921      74687265 
 4921      616400
 4922              	.LASF70:
 4923 00ee 76697274 		.ascii	"virtual_timers_list_t\000"
 4923      75616C5F 
 4923      74696D65 
 4923      72735F6C 
 4923      6973745F 
 4924              	.LASF83:
 4925 0104 49544D5F 		.ascii	"ITM_RxBuffer\000"
 4925      52784275 
 4925      66666572 
 4925      00
 4926              	.LASF127:
 4927 0111 696F5F71 		.ascii	"io_queue_t\000"
 4927      75657565 
 4927      5F7400
 4928              	.LASF53:
 4929 011c 63685F74 		.ascii	"ch_threads_queue\000"
 4929      68726561 
 4929      64735F71 
 4929      75657565 
 4929      00
 4930              	.LASF33:
 4931 012d 705F7072 		.ascii	"p_prio\000"
 4931      696F00
 4932              	.LASF119:
 4933 0134 63665F6F 		.ascii	"cf_off_state\000"
 4933      66665F73 
 4933      74617465 
 4933      00
 4934              	.LASF129:
 4935 0141 715F7761 		.ascii	"q_waiting\000"
 4935      6974696E 
 4935      6700
 4936              	.LASF1:
 4937 014b 6C6F6E67 		.ascii	"long long int\000"
 4937      206C6F6E 
 4937      6720696E 
 4937      7400
 4938              	.LASF3:
 4939 0159 7369676E 		.ascii	"signed char\000"
 4939      65642063 
 4939      68617200 
 4940              	.LASF118:
 4941 0165 63665F6F 		.ascii	"cf_off_stklimit\000"
ARM GAS  /tmp/ccwwxqPB.s 			page 89


 4941      66665F73 
 4941      746B6C69 
 4941      6D697400 
 4942              	.LASF120:
 4943 0175 63665F6F 		.ascii	"cf_off_flags\000"
 4943      66665F66 
 4943      6C616773 
 4943      00
 4944              	.LASF47:
 4945 0182 705F6D70 		.ascii	"p_mpool\000"
 4945      6F6F6C00 
 4946              	.LASF102:
 4947 018a 6D5F7175 		.ascii	"m_queue\000"
 4947      65756500 
 4948              	.LASF79:
 4949 0192 76746C69 		.ascii	"vtlist\000"
 4949      737400
 4950              	.LASF165:
 4951 0199 706F7274 		.ascii	"port_unlock\000"
 4951      5F756E6C 
 4951      6F636B00 
 4952              	.LASF139:
 4953 01a5 6F757470 		.ascii	"output_queue_t\000"
 4953      75745F71 
 4953      75657565 
 4953      5F7400
 4954              	.LASF94:
 4955 01b4 77747472 		.ascii	"wttrp\000"
 4955      7000
 4956              	.LASF77:
 4957 01ba 63685F73 		.ascii	"ch_system\000"
 4957      79737465 
 4957      6D00
 4958              	.LASF11:
 4959 01c4 6C6F6E67 		.ascii	"long int\000"
 4959      20696E74 
 4959      00
 4960              	.LASF23:
 4961 01cd 74737461 		.ascii	"tstate_t\000"
 4961      74655F74 
 4961      00
 4962              	.LASF142:
 4963 01d6 63684F51 		.ascii	"chOQGetI\000"
 4963      47657449 
 4963      00
 4964              	.LASF131:
 4965 01df 715F6275 		.ascii	"q_buffer\000"
 4965      66666572 
 4965      00
 4966              	.LASF133:
 4967 01e8 715F7772 		.ascii	"q_wrptr\000"
 4967      70747200 
 4968              	.LASF124:
 4969 01f0 63686465 		.ascii	"chdebug_t\000"
 4969      6275675F 
 4969      7400
 4970              	.LASF170:
ARM GAS  /tmp/ccwwxqPB.s 			page 90


 4971 01fa 63685468 		.ascii	"chThdDequeueNextI\000"
 4971      64446571 
 4971      75657565 
 4971      4E657874 
 4971      4900
 4972              	.LASF35:
 4973 020c 705F6E65 		.ascii	"p_newer\000"
 4973      77657200 
 4974              	.LASF99:
 4975 0214 735F7175 		.ascii	"s_queue\000"
 4975      65756500 
 4976              	.LASF59:
 4977 021c 725F6E65 		.ascii	"r_newer\000"
 4977      77657200 
 4978              	.LASF85:
 4979 0224 72656761 		.ascii	"regarm_t\000"
 4979      726D5F74 
 4979      00
 4980              	.LASF66:
 4981 022d 76745F70 		.ascii	"vt_prev\000"
 4981      72657600 
 4982              	.LASF148:
 4983 0235 6C696E6B 		.ascii	"link\000"
 4983      00
 4984              	.LASF152:
 4985 023a 63684951 		.ascii	"chIQPutI\000"
 4985      50757449 
 4985      00
 4986              	.LASF126:
 4987 0243 6D757465 		.ascii	"mutex_t\000"
 4987      785F7400 
 4988              	.LASF168:
 4989 024b 76616C75 		.ascii	"value\000"
 4989      6500
 4990              	.LASF128:
 4991 0251 696F5F71 		.ascii	"io_queue\000"
 4991      75657565 
 4991      00
 4992              	.LASF81:
 4993 025a 69646C65 		.ascii	"idle_thread_wa\000"
 4993      5F746872 
 4993      6561645F 
 4993      776100
 4994              	.LASF28:
 4995 0269 636E745F 		.ascii	"cnt_t\000"
 4995      7400
 4996              	.LASF0:
 4997 026f 756E7369 		.ascii	"unsigned int\000"
 4997      676E6564 
 4997      20696E74 
 4997      00
 4998              	.LASF65:
 4999 027c 76745F6E 		.ascii	"vt_next\000"
 4999      65787400 
 5000              	.LASF17:
 5001 0284 75696E74 		.ascii	"uint16_t\000"
 5001      31365F74 
ARM GAS  /tmp/ccwwxqPB.s 			page 91


 5001      00
 5002              	.LASF84:
 5003 028d 53797374 		.ascii	"SystemCoreClock\000"
 5003      656D436F 
 5003      7265436C 
 5003      6F636B00 
 5004              	.LASF153:
 5005 029d 63684951 		.ascii	"chIQResetI\000"
 5005      52657365 
 5005      744900
 5006              	.LASF95:
 5007 02a8 77747365 		.ascii	"wtsemp\000"
 5007      6D7000
 5008              	.LASF42:
 5009 02af 705F6D73 		.ascii	"p_msgqueue\000"
 5009      67717565 
 5009      756500
 5010              	.LASF125:
 5011 02ba 63685F64 		.ascii	"ch_debug\000"
 5011      65627567 
 5011      00
 5012              	.LASF140:
 5013 02c3 74696D65 		.ascii	"timeout\000"
 5013      6F757400 
 5014              	.LASF50:
 5015 02cb 63685F74 		.ascii	"ch_thread\000"
 5015      68726561 
 5015      6400
 5016              	.LASF100:
 5017 02d5 735F636E 		.ascii	"s_cnt\000"
 5017      7400
 5018              	.LASF9:
 5019 02db 73686F72 		.ascii	"short unsigned int\000"
 5019      7420756E 
 5019      7369676E 
 5019      65642069 
 5019      6E7400
 5020              	.LASF173:
 5021 02ee 2F686F6D 		.ascii	"/home/selim/working/ChibiOS/os/rt/src/chqueues.c\000"
 5021      652F7365 
 5021      6C696D2F 
 5021      776F726B 
 5021      696E672F 
 5022              	.LASF26:
 5023 031f 6D73675F 		.ascii	"msg_t\000"
 5023      7400
 5024              	.LASF76:
 5025 0325 63685F73 		.ascii	"ch_system_t\000"
 5025      79737465 
 5025      6D5F7400 
 5026              	.LASF123:
 5027 0331 63665F6F 		.ascii	"cf_off_time\000"
 5027      66665F74 
 5027      696D6500 
 5028              	.LASF55:
 5029 033d 63685F72 		.ascii	"ch_ready_list\000"
 5029      65616479 
ARM GAS  /tmp/ccwwxqPB.s 			page 92


 5029      5F6C6973 
 5029      7400
 5030              	.LASF27:
 5031 034b 6576656E 		.ascii	"eventmask_t\000"
 5031      746D6173 
 5031      6B5F7400 
 5032              	.LASF10:
 5033 0357 5F5F696E 		.ascii	"__int32_t\000"
 5033      7433325F 
 5033      7400
 5034              	.LASF86:
 5035 0361 73746B61 		.ascii	"stkalign_t\000"
 5035      6C69676E 
 5035      5F7400
 5036              	.LASF141:
 5037 036c 63684F51 		.ascii	"chOQWriteTimeout\000"
 5037      57726974 
 5037      6554696D 
 5037      656F7574 
 5037      00
 5038              	.LASF107:
 5039 037d 63685F7A 		.ascii	"ch_zero\000"
 5039      65726F00 
 5040              	.LASF121:
 5041 0385 63665F6F 		.ascii	"cf_off_refs\000"
 5041      66665F72 
 5041      65667300 
 5042              	.LASF161:
 5043 0391 63685468 		.ascii	"chThdQueueObjectInit\000"
 5043      64517565 
 5043      75654F62 
 5043      6A656374 
 5043      496E6974 
 5044              	.LASF41:
 5045 03a6 705F7761 		.ascii	"p_waiting\000"
 5045      6974696E 
 5045      6700
 5046              	.LASF82:
 5047 03b0 73697A65 		.ascii	"sizetype\000"
 5047      74797065 
 5047      00
 5048              	.LASF48:
 5049 03b9 74687265 		.ascii	"thread_reference_t\000"
 5049      61645F72 
 5049      65666572 
 5049      656E6365 
 5049      5F7400
 5050              	.LASF71:
 5051 03cc 63685F76 		.ascii	"ch_virtual_timers_list\000"
 5051      69727475 
 5051      616C5F74 
 5051      696D6572 
 5051      735F6C69 
 5052              	.LASF130:
 5053 03e3 715F636F 		.ascii	"q_counter\000"
 5053      756E7465 
 5053      7200
ARM GAS  /tmp/ccwwxqPB.s 			page 93


 5054              	.LASF2:
 5055 03ed 6C6F6E67 		.ascii	"long double\000"
 5055      20646F75 
 5055      626C6500 
 5056              	.LASF172:
 5057 03f9 474E5520 		.ascii	"GNU C11 6.2.1 20161205 (release) [ARM/embedded-6-br"
 5057      43313120 
 5057      362E322E 
 5057      31203230 
 5057      31363132 
 5058 042c 616E6368 		.ascii	"anch revision 243739] -mcpu=cortex-m4 -mno-thumb-in"
 5058      20726576 
 5058      6973696F 
 5058      6E203234 
 5058      33373339 
 5059 045f 74657277 		.ascii	"terwork -mthumb -ggdb -O2 -fomit-frame-pointer -fal"
 5059      6F726B20 
 5059      2D6D7468 
 5059      756D6220 
 5059      2D676764 
 5060 0492 69676E2D 		.ascii	"ign-functions=16 -ffunction-sections -fdata-section"
 5060      66756E63 
 5060      74696F6E 
 5060      733D3136 
 5060      202D6666 
 5061 04c5 73202D66 		.ascii	"s -fno-common\000"
 5061      6E6F2D63 
 5061      6F6D6D6F 
 5061      6E00
 5062              	.LASF111:
 5063 04d3 63685F74 		.ascii	"ch_timesize\000"
 5063      696D6573 
 5063      697A6500 
 5064              	.LASF117:
 5065 04df 63665F6F 		.ascii	"cf_off_name\000"
 5065      66665F6E 
 5065      616D6500 
 5066              	.LASF36:
 5067 04eb 705F6F6C 		.ascii	"p_older\000"
 5067      64657200 
 5068              	.LASF58:
 5069 04f3 725F6374 		.ascii	"r_ctx\000"
 5069      7800
 5070              	.LASF34:
 5071 04f9 705F6374 		.ascii	"p_ctx\000"
 5071      7800
 5072              	.LASF90:
 5073 04ff 746D5F63 		.ascii	"tm_calibration_t\000"
 5073      616C6962 
 5073      72617469 
 5073      6F6E5F74 
 5073      00
 5074              	.LASF61:
 5075 0510 725F6375 		.ascii	"r_current\000"
 5075      7272656E 
 5075      7400
 5076              	.LASF60:
ARM GAS  /tmp/ccwwxqPB.s 			page 94


 5077 051a 725F6F6C 		.ascii	"r_older\000"
 5077      64657200 
 5078              	.LASF14:
 5079 0522 5F5F7569 		.ascii	"__uint64_t\000"
 5079      6E743634 
 5079      5F7400
 5080              	.LASF24:
 5081 052d 74726566 		.ascii	"trefs_t\000"
 5081      735F7400 
 5082              	.LASF110:
 5083 0535 63685F70 		.ascii	"ch_ptrsize\000"
 5083      74727369 
 5083      7A6500
 5084              	.LASF137:
 5085 0540 716E6F74 		.ascii	"qnotify_t\000"
 5085      6966795F 
 5085      7400
 5086              	.LASF63:
 5087 054a 76697274 		.ascii	"virtual_timer_t\000"
 5087      75616C5F 
 5087      74696D65 
 5087      725F7400 
 5088              	.LASF32:
 5089 055a 705F7072 		.ascii	"p_prev\000"
 5089      657600
 5090              	.LASF157:
 5091 0561 63684F51 		.ascii	"chOQIsFullI\000"
 5091      49734675 
 5091      6C6C4900 
 5092              	.LASF25:
 5093 056d 74707269 		.ascii	"tprio_t\000"
 5093      6F5F7400 
 5094              	.LASF134:
 5095 0575 715F7264 		.ascii	"q_rdptr\000"
 5095      70747200 
 5096              	.LASF74:
 5097 057d 63685F73 		.ascii	"ch_system_debug\000"
 5097      79737465 
 5097      6D5F6465 
 5097      62756700 
 5098              	.LASF156:
 5099 058d 5F426F6F 		.ascii	"_Bool\000"
 5099      6C00
 5100              	.LASF18:
 5101 0593 696E7433 		.ascii	"int32_t\000"
 5101      325F7400 
 5102              	.LASF6:
 5103 059b 756E7369 		.ascii	"unsigned char\000"
 5103      676E6564 
 5103      20636861 
 5103      7200
 5104              	.LASF138:
 5105 05a9 696E7075 		.ascii	"input_queue_t\000"
 5105      745F7175 
 5105      6575655F 
 5105      7400
 5106              	.LASF38:
ARM GAS  /tmp/ccwwxqPB.s 			page 95


 5107 05b7 705F7374 		.ascii	"p_state\000"
 5107      61746500 
 5108              	.LASF45:
 5109 05bf 705F6D74 		.ascii	"p_mtxlist\000"
 5109      786C6973 
 5109      7400
 5110              	.LASF7:
 5111 05c9 73686F72 		.ascii	"short int\000"
 5111      7420696E 
 5111      7400
 5112              	.LASF57:
 5113 05d3 725F7072 		.ascii	"r_prio\000"
 5113      696F00
 5114              	.LASF97:
 5115 05da 65776D61 		.ascii	"ewmask\000"
 5115      736B00
 5116              	.LASF31:
 5117 05e1 705F6E65 		.ascii	"p_next\000"
 5117      787400
 5118              	.LASF155:
 5119 05e8 696E6679 		.ascii	"infy\000"
 5119      00
 5120              	.LASF122:
 5121 05ed 63665F6F 		.ascii	"cf_off_preempt\000"
 5121      66665F70 
 5121      7265656D 
 5121      707400
 5122              	.LASF39:
 5123 05fc 705F666C 		.ascii	"p_flags\000"
 5123      61677300 
 5124              	.LASF150:
 5125 0604 5F5F6675 		.ascii	"__func__\000"
 5125      6E635F5F 
 5125      00
 5126              	.LASF164:
 5127 060d 63685379 		.ascii	"chSysLock\000"
 5127      734C6F63 
 5127      6B00
 5128              	.LASF52:
 5129 0617 74687265 		.ascii	"threads_queue_t\000"
 5129      6164735F 
 5129      71756575 
 5129      655F7400 
 5130              	.LASF64:
 5131 0627 63685F76 		.ascii	"ch_virtual_timer\000"
 5131      69727475 
 5131      616C5F74 
 5131      696D6572 
 5131      00
 5132              	.LASF115:
 5133 0638 63665F6F 		.ascii	"cf_off_newer\000"
 5133      66665F6E 
 5133      65776572 
 5133      00
 5134              	.LASF98:
 5135 0645 63685F73 		.ascii	"ch_semaphore\000"
 5135      656D6170 
ARM GAS  /tmp/ccwwxqPB.s 			page 96


 5135      686F7265 
 5135      00
 5136              	.LASF44:
 5137 0652 705F6570 		.ascii	"p_epending\000"
 5137      656E6469 
 5137      6E6700
 5138              	.LASF159:
 5139 065d 63684951 		.ascii	"chIQIsFullI\000"
 5139      49734675 
 5139      6C6C4900 
 5140              	.LASF19:
 5141 0669 75696E74 		.ascii	"uint32_t\000"
 5141      33325F74 
 5141      00
 5142              	.LASF113:
 5143 0672 63665F6F 		.ascii	"cf_off_prio\000"
 5143      66665F70 
 5143      72696F00 
 5144              	.LASF56:
 5145 067e 725F7175 		.ascii	"r_queue\000"
 5145      65756500 
 5146              	.LASF67:
 5147 0686 76745F64 		.ascii	"vt_delta\000"
 5147      656C7461 
 5147      00
 5148              	.LASF51:
 5149 068f 63685F74 		.ascii	"ch_threads_list\000"
 5149      68726561 
 5149      64735F6C 
 5149      69737400 
 5150              	.LASF108:
 5151 069f 63685F73 		.ascii	"ch_size\000"
 5151      697A6500 
 5152              	.LASF13:
 5153 06a7 6C6F6E67 		.ascii	"long unsigned int\000"
 5153      20756E73 
 5153      69676E65 
 5153      6420696E 
 5153      7400
 5154              	.LASF105:
 5155 06b9 63686172 		.ascii	"char\000"
 5155      00
 5156              	.LASF96:
 5157 06be 77746D74 		.ascii	"wtmtxp\000"
 5157      787000
 5158              	.LASF8:
 5159 06c5 5F5F7569 		.ascii	"__uint16_t\000"
 5159      6E743136 
 5159      5F7400
 5160              	.LASF30:
 5161 06d0 74687265 		.ascii	"thread_t\000"
 5161      61645F74 
 5161      00
 5162              	.LASF104:
 5163 06d9 6D5F6E65 		.ascii	"m_next\000"
 5163      787400
 5164              	.LASF29:
ARM GAS  /tmp/ccwwxqPB.s 			page 97


 5165 06e0 73797374 		.ascii	"systime_t\000"
 5165      696D655F 
 5165      7400
 5166              	.LASF46:
 5167 06ea 705F7265 		.ascii	"p_realprio\000"
 5167      616C7072 
 5167      696F00
 5168              	.LASF62:
 5169 06f5 76746675 		.ascii	"vtfunc_t\000"
 5169      6E635F74 
 5169      00
 5170              	.LASF12:
 5171 06fe 5F5F7569 		.ascii	"__uint32_t\000"
 5171      6E743332 
 5171      5F7400
 5172              	.LASF167:
 5173 0709 5F5F7365 		.ascii	"__set_BASEPRI\000"
 5173      745F4241 
 5173      53455052 
 5173      4900
 5174              	.LASF75:
 5175 0717 70616E69 		.ascii	"panic_msg\000"
 5175      635F6D73 
 5175      6700
 5176              	.LASF89:
 5177 0721 6F666673 		.ascii	"offset\000"
 5177      657400
 5178              	.LASF144:
 5179 0728 63684F51 		.ascii	"chOQResetI\000"
 5179      52657365 
 5179      744900
 5180              	.LASF87:
 5181 0733 636F6E74 		.ascii	"context\000"
 5181      65787400 
 5182              	.LASF43:
 5183 073b 705F6D73 		.ascii	"p_msg\000"
 5183      6700
 5184              	.LASF21:
 5185 0741 7274636E 		.ascii	"rtcnt_t\000"
 5185      745F7400 
 5186              	.LASF69:
 5187 0749 76745F70 		.ascii	"vt_par\000"
 5187      617200
 5188              	.LASF145:
 5189 0750 63684F51 		.ascii	"chOQObjectInit\000"
 5189      4F626A65 
 5189      6374496E 
 5189      697400
 5190              	.LASF114:
 5191 075f 63665F6F 		.ascii	"cf_off_ctx\000"
 5191      66665F63 
 5191      747800
 5192              	.LASF101:
 5193 076a 63685F6D 		.ascii	"ch_mutex\000"
 5193      75746578 
 5193      00
 5194              	.LASF40:
ARM GAS  /tmp/ccwwxqPB.s 			page 98


 5195 0773 705F7265 		.ascii	"p_refs\000"
 5195      667300
 5196              	.LASF160:
 5197 077a 63684951 		.ascii	"chIQIsEmptyI\000"
 5197      4973456D 
 5197      70747949 
 5197      00
 5198              	.LASF135:
 5199 0787 715F6E6F 		.ascii	"q_notify\000"
 5199      74696679 
 5199      00
 5200              	.LASF78:
 5201 0790 726C6973 		.ascii	"rlist\000"
 5201      7400
 5202              	.LASF16:
 5203 0796 75696E74 		.ascii	"uint8_t\000"
 5203      385F7400 
 5204              	.LASF72:
 5205 079e 76745F6C 		.ascii	"vt_lasttime\000"
 5205      61737474 
 5205      696D6500 
 5206              	.LASF93:
 5207 07aa 77746F62 		.ascii	"wtobjp\000"
 5207      6A7000
 5208              	.LASF37:
 5209 07b1 705F6E61 		.ascii	"p_name\000"
 5209      6D6500
 5210              	.LASF146:
 5211 07b8 73697A65 		.ascii	"size\000"
 5211      00
 5212              	.LASF158:
 5213 07bd 63684F51 		.ascii	"chOQIsEmptyI\000"
 5213      4973456D 
 5213      70747949 
 5213      00
 5214              	.LASF49:
 5215 07ca 74687265 		.ascii	"threads_list_t\000"
 5215      6164735F 
 5215      6C697374 
 5215      5F7400
 5216              	.LASF22:
 5217 07d9 746D6F64 		.ascii	"tmode_t\000"
 5217      655F7400 
 5218              	.LASF162:
 5219 07e1 63685379 		.ascii	"chSysUnlock\000"
 5219      73556E6C 
 5219      6F636B00 
 5220              	.LASF109:
 5221 07ed 63685F76 		.ascii	"ch_version\000"
 5221      65727369 
 5221      6F6E00
 5222              	.LASF136:
 5223 07f8 715F6C69 		.ascii	"q_link\000"
 5223      6E6B00
 5224              	.LASF103:
 5225 07ff 6D5F6F77 		.ascii	"m_owner\000"
 5225      6E657200 
ARM GAS  /tmp/ccwwxqPB.s 			page 99


 5226              	.LASF106:
 5227 0807 63685F69 		.ascii	"ch_identifier\000"
 5227      64656E74 
 5227      69666965 
 5227      7200
 5228              	.LASF68:
 5229 0815 76745F66 		.ascii	"vt_func\000"
 5229      756E6300 
 5230              	.LASF151:
 5231 081d 63684951 		.ascii	"chIQGetTimeout\000"
 5231      47657454 
 5231      696D656F 
 5231      757400
 5232              	.LASF169:
 5233 082c 63685468 		.ascii	"chThdEnqueueTimeoutS\000"
 5233      64456E71 
 5233      75657565 
 5233      54696D65 
 5233      6F757453 
 5234              		.ident	"GCC: (GNU Tools for ARM Embedded Processors) 6.2.1 20161205 (release) [ARM/embedded-6-bran
ARM GAS  /tmp/ccwwxqPB.s 			page 100


DEFINED SYMBOLS
                            *ABS*:0000000000000000 chqueues.c
     /tmp/ccwwxqPB.s:16     .text.chIQObjectInit:0000000000000000 $t
     /tmp/ccwwxqPB.s:24     .text.chIQObjectInit:0000000000000000 chIQObjectInit
     /tmp/ccwwxqPB.s:81     .text.chIQResetI:0000000000000000 $t
     /tmp/ccwwxqPB.s:89     .text.chIQResetI:0000000000000000 chIQResetI
     /tmp/ccwwxqPB.s:115    .text.chIQPutI:0000000000000000 $t
     /tmp/ccwwxqPB.s:123    .text.chIQPutI:0000000000000000 chIQPutI
     /tmp/ccwwxqPB.s:194    .text.chIQGetTimeout:0000000000000000 $t
     /tmp/ccwwxqPB.s:202    .text.chIQGetTimeout:0000000000000000 chIQGetTimeout
     /tmp/ccwwxqPB.s:347    .text.chIQReadTimeout:0000000000000000 $t
     /tmp/ccwwxqPB.s:355    .text.chIQReadTimeout:0000000000000000 chIQReadTimeout
     /tmp/ccwwxqPB.s:546    .text.chOQObjectInit:0000000000000000 $t
     /tmp/ccwwxqPB.s:554    .text.chOQObjectInit:0000000000000000 chOQObjectInit
     /tmp/ccwwxqPB.s:605    .text.chOQResetI:0000000000000000 $t
     /tmp/ccwwxqPB.s:613    .text.chOQResetI:0000000000000000 chOQResetI
     /tmp/ccwwxqPB.s:648    .text.chOQPutTimeout:0000000000000000 $t
     /tmp/ccwwxqPB.s:656    .text.chOQPutTimeout:0000000000000000 chOQPutTimeout
     /tmp/ccwwxqPB.s:791    .text.chOQGetI:0000000000000000 $t
     /tmp/ccwwxqPB.s:799    .text.chOQGetI:0000000000000000 chOQGetI
     /tmp/ccwwxqPB.s:868    .text.chOQWriteTimeout:0000000000000000 $t
     /tmp/ccwwxqPB.s:876    .text.chOQWriteTimeout:0000000000000000 chOQWriteTimeout
                     .debug_frame:0000000000000010 $d

UNDEFINED SYMBOLS
chThdDequeueAllI
chThdDequeueNextI
chThdEnqueueTimeoutS
