ARM GAS  /tmp/ccwwxqPB.s 			page 1


   1              		.cpu cortex-m4
   2              		.eabi_attribute 20, 1
   3              		.eabi_attribute 21, 1
   4              		.eabi_attribute 23, 3
   5              		.eabi_attribute 24, 1
   6              		.eabi_attribute 25, 1
   7              		.eabi_attribute 26, 1
   8              		.eabi_attribute 30, 2
   9              		.eabi_attribute 34, 1
  10              		.eabi_attribute 18, 4
  11              		.file	"chqueues.c"
  12              		.text
  13              	.Ltext0:
  14              		.cfi_sections	.debug_frame
  15              		.section	.text.chIQObjectInit,"ax",%progbits
  16              		.align	1
  17              		.p2align 4,,15
  18              		.global	chIQObjectInit
  19              		.syntax unified
  20              		.thumb
  21              		.thumb_func
  22              		.fpu softvfp
  23              		.type	chIQObjectInit, %function
  24              	chIQObjectInit:
  25              	.LFB227:
  26              		.file 1 "/home/selim/working/ChibiOS/os/rt/src/chqueues.c"
  27              		.loc 1 88 0
  28              		.cfi_startproc
  29              		@ args = 4, pretend = 0, frame = 0
  30              		@ frame_needed = 0, uses_anonymous_args = 0
  31              		@ link register save eliminated.
  32              	.LVL0:
  33 0000 30B4     		push	{r4, r5}
  34              		.cfi_def_cfa_offset 8
  35              		.cfi_offset 4, -8
  36              		.cfi_offset 5, -4
  37              		.loc 1 88 0
  38 0002 029C     		ldr	r4, [sp, #8]
  39              		.loc 1 97 0
  40 0004 0462     		str	r4, [r0, #32]
  41              		.loc 1 91 0
  42 0006 0025     		movs	r5, #0
  43              		.loc 1 95 0
  44 0008 0A44     		add	r2, r2, r1
  45              	.LVL1:
  46              		.loc 1 91 0
  47 000a 8560     		str	r5, [r0, #8]
  48              		.loc 1 95 0
  49 000c 0261     		str	r2, [r0, #16]
  50              	.LBB108:
  51              	.LBB109:
  52              	.LBB110:
  53              		.file 2 "/home/selim/working/ChibiOS/os/rt/include/chschd.h"
  54              		.loc 2 604 0
  55 000e 0060     		str	r0, [r0]
  56              		.loc 2 605 0
  57 0010 4060     		str	r0, [r0, #4]
ARM GAS  /tmp/ccwwxqPB.s 			page 2


  58              	.LVL2:
  59              	.LBE110:
  60              	.LBE109:
  61              	.LBE108:
  62              		.loc 1 92 0
  63 0012 C160     		str	r1, [r0, #12]
  64              		.loc 1 93 0
  65 0014 8161     		str	r1, [r0, #24]
  66              		.loc 1 94 0
  67 0016 4161     		str	r1, [r0, #20]
  68              		.loc 1 96 0
  69 0018 C361     		str	r3, [r0, #28]
  70              		.loc 1 98 0
  71 001a 30BC     		pop	{r4, r5}
  72              		.cfi_restore 5
  73              		.cfi_restore 4
  74              		.cfi_def_cfa_offset 0
  75              	.LVL3:
  76 001c 7047     		bx	lr
  77              		.cfi_endproc
  78              	.LFE227:
  79              		.size	chIQObjectInit, .-chIQObjectInit
  80 001e 00BF     		.section	.text.chIQResetI,"ax",%progbits
  81              		.align	1
  82              		.p2align 4,,15
  83              		.global	chIQResetI
  84              		.syntax unified
  85              		.thumb
  86              		.thumb_func
  87              		.fpu softvfp
  88              		.type	chIQResetI, %function
  89              	chIQResetI:
  90              	.LFB228:
  91              		.loc 1 111 0
  92              		.cfi_startproc
  93              		@ args = 0, pretend = 0, frame = 0
  94              		@ frame_needed = 0, uses_anonymous_args = 0
  95              		@ link register save eliminated.
  96              	.LVL4:
  97              		.loc 1 117 0
  98 0000 0021     		movs	r1, #0
  99              		.loc 1 115 0
 100 0002 C268     		ldr	r2, [r0, #12]
 101              		.loc 1 117 0
 102 0004 8160     		str	r1, [r0, #8]
 103              		.loc 1 115 0
 104 0006 8261     		str	r2, [r0, #24]
 105              		.loc 1 116 0
 106 0008 4261     		str	r2, [r0, #20]
 107              		.loc 1 118 0
 108 000a 6FF00101 		mvn	r1, #1
 109 000e FFF7FEBF 		b	chThdDequeueAllI
 110              	.LVL5:
 111              		.cfi_endproc
 112              	.LFE228:
 113              		.size	chIQResetI, .-chIQResetI
 114 0012 00BF     		.section	.text.chIQPutI,"ax",%progbits
ARM GAS  /tmp/ccwwxqPB.s 			page 3


 115              		.align	1
 116              		.p2align 4,,15
 117              		.global	chIQPutI
 118              		.syntax unified
 119              		.thumb
 120              		.thumb_func
 121              		.fpu softvfp
 122              		.type	chIQPutI, %function
 123              	chIQPutI:
 124              	.LFB229:
 125              		.loc 1 134 0
 126              		.cfi_startproc
 127              		@ args = 0, pretend = 0, frame = 0
 128              		@ frame_needed = 0, uses_anonymous_args = 0
 129              	.LVL6:
 130              	.LBB111:
 131              	.LBB112:
 132              		.file 3 "/home/selim/working/ChibiOS/os/rt/include/chqueues.h"
 133              		.loc 3 324 0
 134 0000 8369     		ldr	r3, [r0, #24]
 135 0002 4269     		ldr	r2, [r0, #20]
 136 0004 9A42     		cmp	r2, r3
 137 0006 8368     		ldr	r3, [r0, #8]
 138 0008 10D0     		beq	.L15
 139              	.L7:
 140              	.LVL7:
 141              	.LBE112:
 142              	.LBE111:
 143              		.loc 1 134 0
 144 000a 10B5     		push	{r4, lr}
 145              		.cfi_def_cfa_offset 8
 146              		.cfi_offset 4, -8
 147              		.cfi_offset 14, -4
 148              		.loc 1 142 0
 149 000c 0133     		adds	r3, r3, #1
 150              		.loc 1 143 0
 151 000e 541C     		adds	r4, r2, #1
 152              		.loc 1 142 0
 153 0010 8360     		str	r3, [r0, #8]
 154              		.loc 1 143 0
 155 0012 4461     		str	r4, [r0, #20]
 156 0014 1170     		strb	r1, [r2]
 157              		.loc 1 144 0
 158 0016 4269     		ldr	r2, [r0, #20]
 159 0018 0369     		ldr	r3, [r0, #16]
 160 001a 9A42     		cmp	r2, r3
 161 001c 01D3     		bcc	.L9
 162              		.loc 1 145 0
 163 001e C368     		ldr	r3, [r0, #12]
 164 0020 4361     		str	r3, [r0, #20]
 165              	.L9:
 166              		.loc 1 148 0
 167 0022 0021     		movs	r1, #0
 168              	.LVL8:
 169 0024 FFF7FEFF 		bl	chThdDequeueNextI
 170              	.LVL9:
 171              		.loc 1 150 0
ARM GAS  /tmp/ccwwxqPB.s 			page 4


 172 0028 0020     		movs	r0, #0
 173 002a 10BD     		pop	{r4, pc}
 174              	.LVL10:
 175              	.L15:
 176              		.cfi_def_cfa_offset 0
 177              		.cfi_restore 4
 178              		.cfi_restore 14
 179              	.LBB114:
 180              	.LBB113:
 181              		.loc 3 324 0
 182 002c 002B     		cmp	r3, #0
 183 002e ECD0     		beq	.L7
 184              	.LBE113:
 185              	.LBE114:
 186              		.loc 1 139 0
 187 0030 6FF00300 		mvn	r0, #3
 188              	.LVL11:
 189 0034 7047     		bx	lr
 190              		.cfi_endproc
 191              	.LFE229:
 192              		.size	chIQPutI, .-chIQPutI
 193 0036 00BF     		.section	.text.chIQGetTimeout,"ax",%progbits
 194              		.align	1
 195              		.p2align 4,,15
 196              		.global	chIQGetTimeout
 197              		.syntax unified
 198              		.thumb
 199              		.thumb_func
 200              		.fpu softvfp
 201              		.type	chIQGetTimeout, %function
 202              	chIQGetTimeout:
 203              	.LFB230:
 204              		.loc 1 173 0
 205              		.cfi_startproc
 206              		@ args = 0, pretend = 0, frame = 0
 207              		@ frame_needed = 0, uses_anonymous_args = 0
 208              	.LVL12:
 209 0000 70B5     		push	{r4, r5, r6, lr}
 210              		.cfi_def_cfa_offset 16
 211              		.cfi_offset 4, -16
 212              		.cfi_offset 5, -12
 213              		.cfi_offset 6, -8
 214              		.cfi_offset 14, -4
 215              	.LBB115:
 216              	.LBB116:
 217              	.LBB117:
 218              	.LBB118:
 219              		.file 4 "/home/selim/working/ChibiOS/os/ext/CMSIS/include/core_cmFunc.h"
 220              		.loc 4 546 0
 221 0002 2023     		movs	r3, #32
 222              	.LBE118:
 223              	.LBE117:
 224              	.LBE116:
 225              	.LBE115:
 226              		.loc 1 173 0
 227 0004 0E46     		mov	r6, r1
 228 0006 0446     		mov	r4, r0
ARM GAS  /tmp/ccwwxqPB.s 			page 5


 229              	.LBB122:
 230              	.LBB121:
 231              	.LBB120:
 232              	.LBB119:
 233              		.loc 4 546 0
 234              		.syntax unified
 235              	@ 546 "/home/selim/working/ChibiOS/os/ext/CMSIS/include/core_cmFunc.h" 1
 236 0008 83F31188 		MSR basepri, r3
 237              	@ 0 "" 2
 238              	.LVL13:
 239              		.thumb
 240              		.syntax unified
 241              	.LBE119:
 242              	.LBE120:
 243              	.LBE121:
 244              	.LBE122:
 245              		.loc 1 177 0
 246 000c C369     		ldr	r3, [r0, #28]
 247 000e 2BB1     		cbz	r3, .L18
 248              		.loc 1 178 0
 249 0010 9847     		blx	r3
 250              	.LVL14:
 251 0012 03E0     		b	.L18
 252              	.LVL15:
 253              	.L20:
 254              	.LBB123:
 255              		.loc 1 182 0
 256 0014 FFF7FEFF 		bl	chThdEnqueueTimeoutS
 257              	.LVL16:
 258              		.loc 1 183 0
 259 0018 0028     		cmp	r0, #0
 260 001a 15DB     		blt	.L27
 261              	.LVL17:
 262              	.L18:
 263 001c A568     		ldr	r5, [r4, #8]
 264              	.LVL18:
 265              		.loc 1 182 0
 266 001e 3146     		mov	r1, r6
 267 0020 2046     		mov	r0, r4
 268              	.LBE123:
 269              		.loc 1 181 0
 270 0022 002D     		cmp	r5, #0
 271 0024 F6D0     		beq	.L20
 272              	.LVL19:
 273              		.loc 1 190 0
 274 0026 A269     		ldr	r2, [r4, #24]
 275              		.loc 1 191 0
 276 0028 2169     		ldr	r1, [r4, #16]
 277              	.LVL20:
 278              		.loc 1 190 0
 279 002a 531C     		adds	r3, r2, #1
 280              		.loc 1 191 0
 281 002c 8B42     		cmp	r3, r1
 282              		.loc 1 189 0
 283 002e 05F1FF35 		add	r5, r5, #-1
 284              		.loc 1 190 0
 285 0032 A361     		str	r3, [r4, #24]
ARM GAS  /tmp/ccwwxqPB.s 			page 6


 286              		.loc 1 189 0
 287 0034 A560     		str	r5, [r4, #8]
 288              		.loc 1 192 0
 289 0036 28BF     		it	cs
 290 0038 E368     		ldrcs	r3, [r4, #12]
 291              		.loc 1 190 0
 292 003a 1078     		ldrb	r0, [r2]	@ zero_extendqisi2
 293              	.LVL21:
 294              		.loc 1 192 0
 295 003c 28BF     		it	cs
 296 003e A361     		strcs	r3, [r4, #24]
 297              	.LVL22:
 298              	.LBB129:
 299              	.LBB130:
 300              	.LBB131:
 301              	.LBB132:
 302              	.LBB133:
 303              		.loc 4 546 0
 304 0040 0023     		movs	r3, #0
 305              		.syntax unified
 306              	@ 546 "/home/selim/working/ChibiOS/os/ext/CMSIS/include/core_cmFunc.h" 1
 307 0042 83F31188 		MSR basepri, r3
 308              	@ 0 "" 2
 309              	.LVL23:
 310              		.thumb
 311              		.syntax unified
 312              	.LBE133:
 313              	.LBE132:
 314              	.LBE131:
 315              	.LBE130:
 316              	.LBE129:
 317              		.loc 1 197 0
 318 0046 70BD     		pop	{r4, r5, r6, pc}
 319              	.LVL24:
 320              	.L27:
 321              	.LBB134:
 322              	.LBB124:
 323              	.LBB125:
 324              	.LBB126:
 325              	.LBB127:
 326              	.LBB128:
 327              		.loc 4 546 0
 328              		.syntax unified
 329              	@ 546 "/home/selim/working/ChibiOS/os/ext/CMSIS/include/core_cmFunc.h" 1
 330 0048 85F31188 		MSR basepri, r5
 331              	@ 0 "" 2
 332              	.LVL25:
 333              		.thumb
 334              		.syntax unified
 335              	.LBE128:
 336              	.LBE127:
 337              	.LBE126:
 338              	.LBE125:
 339              	.LBE124:
 340              		.loc 1 185 0
 341 004c 70BD     		pop	{r4, r5, r6, pc}
 342              	.LBE134:
ARM GAS  /tmp/ccwwxqPB.s 			page 7


 343              		.cfi_endproc
 344              	.LFE230:
 345              		.size	chIQGetTimeout, .-chIQGetTimeout
 346 004e 00BF     		.section	.text.chIQReadTimeout,"ax",%progbits
 347              		.align	1
 348              		.p2align 4,,15
 349              		.global	chIQReadTimeout
 350              		.syntax unified
 351              		.thumb
 352              		.thumb_func
 353              		.fpu softvfp
 354              		.type	chIQReadTimeout, %function
 355              	chIQReadTimeout:
 356              	.LFB231:
 357              		.loc 1 224 0
 358              		.cfi_startproc
 359              		@ args = 0, pretend = 0, frame = 8
 360              		@ frame_needed = 0, uses_anonymous_args = 0
 361              	.LVL26:
 362 0000 2DE9F04F 		push	{r4, r5, r6, r7, r8, r9, r10, fp, lr}
 363              		.cfi_def_cfa_offset 36
 364              		.cfi_offset 4, -36
 365              		.cfi_offset 5, -32
 366              		.cfi_offset 6, -28
 367              		.cfi_offset 7, -24
 368              		.cfi_offset 8, -20
 369              		.cfi_offset 9, -16
 370              		.cfi_offset 10, -12
 371              		.cfi_offset 11, -8
 372              		.cfi_offset 14, -4
 373 0004 0446     		mov	r4, r0
 374 0006 83B0     		sub	sp, sp, #12
 375              		.cfi_def_cfa_offset 48
 376              		.loc 1 224 0
 377 0008 8946     		mov	r9, r1
 378 000a 9346     		mov	fp, r2
 379 000c 1D46     		mov	r5, r3
 380              		.loc 1 225 0
 381 000e D0F81C80 		ldr	r8, [r0, #28]
 382              	.LVL27:
 383              	.LBB135:
 384              	.LBB136:
 385              	.LBB137:
 386              	.LBB138:
 387              		.loc 4 546 0
 388 0012 2027     		movs	r7, #32
 389              		.syntax unified
 390              	@ 546 "/home/selim/working/ChibiOS/os/ext/CMSIS/include/core_cmFunc.h" 1
 391 0014 87F31188 		MSR basepri, r7
 392              	@ 0 "" 2
 393              	.LVL28:
 394              		.thumb
 395              		.syntax unified
 396              	.LBE138:
 397              	.LBE137:
 398              	.LBE136:
 399              	.LBE135:
ARM GAS  /tmp/ccwwxqPB.s 			page 8


 400              		.loc 1 226 0
 401 0018 0026     		movs	r6, #0
 402              	.LBB139:
 403              	.LBB140:
 404              	.LBB141:
 405              	.LBB142:
 406              		.loc 4 546 0
 407 001a 0197     		str	r7, [sp, #4]
 408              	.LBE142:
 409              	.LBE141:
 410              	.LBE140:
 411              	.LBE139:
 412              	.LBB146:
 413              	.LBB147:
 414              	.LBB148:
 415              	.LBB149:
 416              	.LBB150:
 417 001c B246     		mov	r10, r6
 418              	.LVL29:
 419              	.L34:
 420              	.LBE150:
 421              	.LBE149:
 422              	.LBE148:
 423              	.LBE147:
 424              	.LBE146:
 425              		.loc 1 232 0
 426 001e B8F1000F 		cmp	r8, #0
 427 0022 05D0     		beq	.L30
 428              		.loc 1 233 0
 429 0024 2046     		mov	r0, r4
 430              	.LVL30:
 431 0026 C047     		blx	r8
 432              	.LVL31:
 433 0028 02E0     		b	.L30
 434              	.LVL32:
 435              	.L32:
 436              		.loc 1 237 0
 437 002a FFF7FEFF 		bl	chThdEnqueueTimeoutS
 438              	.LVL33:
 439 002e D8B9     		cbnz	r0, .L41
 440              	.LVL34:
 441              	.L30:
 442 0030 A768     		ldr	r7, [r4, #8]
 443              	.LVL35:
 444 0032 2946     		mov	r1, r5
 445 0034 2046     		mov	r0, r4
 446              		.loc 1 236 0
 447 0036 002F     		cmp	r7, #0
 448 0038 F7D0     		beq	.L32
 449              	.LVL36:
 450              		.loc 1 244 0
 451 003a A269     		ldr	r2, [r4, #24]
 452              		.loc 1 243 0
 453 003c 013F     		subs	r7, r7, #1
 454              		.loc 1 244 0
 455 003e 511C     		adds	r1, r2, #1
 456              	.LVL37:
ARM GAS  /tmp/ccwwxqPB.s 			page 9


 457 0040 A161     		str	r1, [r4, #24]
 458              		.loc 1 243 0
 459 0042 A760     		str	r7, [r4, #8]
 460              		.loc 1 244 0
 461 0044 1378     		ldrb	r3, [r2]	@ zero_extendqisi2
 462 0046 09F8013B 		strb	r3, [r9], #1
 463              	.LVL38:
 464              		.loc 1 245 0
 465 004a 2369     		ldr	r3, [r4, #16]
 466 004c A269     		ldr	r2, [r4, #24]
 467 004e 9A42     		cmp	r2, r3
 468              		.loc 1 246 0
 469 0050 24BF     		itt	cs
 470 0052 E368     		ldrcs	r3, [r4, #12]
 471 0054 A361     		strcs	r3, [r4, #24]
 472              	.LVL39:
 473              	.LBB155:
 474              	.LBB154:
 475              	.LBB153:
 476              	.LBB152:
 477              	.LBB151:
 478              		.loc 4 546 0
 479              		.syntax unified
 480              	@ 546 "/home/selim/working/ChibiOS/os/ext/CMSIS/include/core_cmFunc.h" 1
 481 0056 8AF31188 		MSR basepri, r10
 482              	@ 0 "" 2
 483              	.LVL40:
 484              		.thumb
 485              		.syntax unified
 486              	.LBE151:
 487              	.LBE152:
 488              	.LBE153:
 489              	.LBE154:
 490              	.LBE155:
 491              		.loc 1 250 0
 492 005a 0136     		adds	r6, r6, #1
 493              	.LVL41:
 494              		.loc 1 251 0
 495 005c B345     		cmp	fp, r6
 496 005e 05D0     		beq	.L28
 497              	.LVL42:
 498              	.LBB156:
 499              	.LBB145:
 500              	.LBB144:
 501              	.LBB143:
 502              		.loc 4 546 0
 503 0060 019B     		ldr	r3, [sp, #4]
 504              		.syntax unified
 505              	@ 546 "/home/selim/working/ChibiOS/os/ext/CMSIS/include/core_cmFunc.h" 1
 506 0062 83F31188 		MSR basepri, r3
 507              	@ 0 "" 2
 508              	.LVL43:
 509              		.thumb
 510              		.syntax unified
 511 0066 DAE7     		b	.L34
 512              	.LVL44:
 513              	.L41:
ARM GAS  /tmp/ccwwxqPB.s 			page 10


 514              	.LBE143:
 515              	.LBE144:
 516              	.LBE145:
 517              	.LBE156:
 518              	.LBB157:
 519              	.LBB158:
 520              	.LBB159:
 521              	.LBB160:
 522              	.LBB161:
 523              		.syntax unified
 524              	@ 546 "/home/selim/working/ChibiOS/os/ext/CMSIS/include/core_cmFunc.h" 1
 525 0068 87F31188 		MSR basepri, r7
 526              	@ 0 "" 2
 527              	.LVL45:
 528              		.thumb
 529              		.syntax unified
 530              	.L28:
 531              	.LBE161:
 532              	.LBE160:
 533              	.LBE159:
 534              	.LBE158:
 535              	.LBE157:
 536              		.loc 1 257 0
 537 006c 3046     		mov	r0, r6
 538 006e 03B0     		add	sp, sp, #12
 539              		.cfi_def_cfa_offset 36
 540              		@ sp needed
 541 0070 BDE8F08F 		pop	{r4, r5, r6, r7, r8, r9, r10, fp, pc}
 542              		.cfi_endproc
 543              	.LFE231:
 544              		.size	chIQReadTimeout, .-chIQReadTimeout
 545              		.section	.text.chOQObjectInit,"ax",%progbits
 546              		.align	1
 547              		.p2align 4,,15
 548              		.global	chOQObjectInit
 549              		.syntax unified
 550              		.thumb
 551              		.thumb_func
 552              		.fpu softvfp
 553              		.type	chOQObjectInit, %function
 554              	chOQObjectInit:
 555              	.LFB232:
 556              		.loc 1 276 0
 557              		.cfi_startproc
 558              		@ args = 4, pretend = 0, frame = 0
 559              		@ frame_needed = 0, uses_anonymous_args = 0
 560              		@ link register save eliminated.
 561              	.LVL46:
 562 0000 30B4     		push	{r4, r5}
 563              		.cfi_def_cfa_offset 8
 564              		.cfi_offset 4, -8
 565              		.cfi_offset 5, -4
 566              		.loc 1 276 0
 567 0002 029C     		ldr	r4, [sp, #8]
 568              		.loc 1 285 0
 569 0004 0462     		str	r4, [r0, #32]
 570              		.loc 1 283 0
ARM GAS  /tmp/ccwwxqPB.s 			page 11


 571 0006 8D18     		adds	r5, r1, r2
 572 0008 0561     		str	r5, [r0, #16]
 573              	.LBB162:
 574              	.LBB163:
 575              	.LBB164:
 576              		.loc 2 604 0
 577 000a 0060     		str	r0, [r0]
 578              		.loc 2 605 0
 579 000c 4060     		str	r0, [r0, #4]
 580              	.LVL47:
 581              	.LBE164:
 582              	.LBE163:
 583              	.LBE162:
 584              		.loc 1 279 0
 585 000e 8260     		str	r2, [r0, #8]
 586              		.loc 1 280 0
 587 0010 C160     		str	r1, [r0, #12]
 588              		.loc 1 281 0
 589 0012 8161     		str	r1, [r0, #24]
 590              		.loc 1 282 0
 591 0014 4161     		str	r1, [r0, #20]
 592              		.loc 1 284 0
 593 0016 C361     		str	r3, [r0, #28]
 594              		.loc 1 286 0
 595 0018 30BC     		pop	{r4, r5}
 596              		.cfi_restore 5
 597              		.cfi_restore 4
 598              		.cfi_def_cfa_offset 0
 599              	.LVL48:
 600 001a 7047     		bx	lr
 601              		.cfi_endproc
 602              	.LFE232:
 603              		.size	chOQObjectInit, .-chOQObjectInit
 604              		.section	.text.chOQResetI,"ax",%progbits
 605              		.align	1
 606              		.p2align 4,,15
 607              		.global	chOQResetI
 608              		.syntax unified
 609              		.thumb
 610              		.thumb_func
 611              		.fpu softvfp
 612              		.type	chOQResetI, %function
 613              	chOQResetI:
 614              	.LFB233:
 615              		.loc 1 299 0
 616              		.cfi_startproc
 617              		@ args = 0, pretend = 0, frame = 0
 618              		@ frame_needed = 0, uses_anonymous_args = 0
 619              		@ link register save eliminated.
 620              	.LVL49:
 621 0000 10B4     		push	{r4}
 622              		.cfi_def_cfa_offset 4
 623              		.cfi_offset 4, -4
 624              		.loc 1 305 0
 625 0002 0269     		ldr	r2, [r0, #16]
 626              		.loc 1 303 0
 627 0004 C468     		ldr	r4, [r0, #12]
ARM GAS  /tmp/ccwwxqPB.s 			page 12


 628 0006 8461     		str	r4, [r0, #24]
 629              		.loc 1 305 0
 630 0008 121B     		subs	r2, r2, r4
 631              		.loc 1 304 0
 632 000a 4461     		str	r4, [r0, #20]
 633              		.loc 1 306 0
 634 000c 6FF00101 		mvn	r1, #1
 635              		.loc 1 305 0
 636 0010 8260     		str	r2, [r0, #8]
 637              		.loc 1 307 0
 638 0012 10BC     		pop	{r4}
 639              		.cfi_restore 4
 640              		.cfi_def_cfa_offset 0
 641              		.loc 1 306 0
 642 0014 FFF7FEBF 		b	chThdDequeueAllI
 643              	.LVL50:
 644              		.cfi_endproc
 645              	.LFE233:
 646              		.size	chOQResetI, .-chOQResetI
 647              		.section	.text.chOQPutTimeout,"ax",%progbits
 648              		.align	1
 649              		.p2align 4,,15
 650              		.global	chOQPutTimeout
 651              		.syntax unified
 652              		.thumb
 653              		.thumb_func
 654              		.fpu softvfp
 655              		.type	chOQPutTimeout, %function
 656              	chOQPutTimeout:
 657              	.LFB234:
 658              		.loc 1 331 0
 659              		.cfi_startproc
 660              		@ args = 0, pretend = 0, frame = 0
 661              		@ frame_needed = 0, uses_anonymous_args = 0
 662              	.LVL51:
 663 0000 F8B5     		push	{r3, r4, r5, r6, r7, lr}
 664              		.cfi_def_cfa_offset 24
 665              		.cfi_offset 3, -24
 666              		.cfi_offset 4, -20
 667              		.cfi_offset 5, -16
 668              		.cfi_offset 6, -12
 669              		.cfi_offset 7, -8
 670              		.cfi_offset 14, -4
 671              		.loc 1 331 0
 672 0002 0446     		mov	r4, r0
 673 0004 0F46     		mov	r7, r1
 674 0006 1646     		mov	r6, r2
 675              	.LBB165:
 676              	.LBB166:
 677              	.LBB167:
 678              	.LBB168:
 679              		.loc 4 546 0
 680 0008 2023     		movs	r3, #32
 681              		.syntax unified
 682              	@ 546 "/home/selim/working/ChibiOS/os/ext/CMSIS/include/core_cmFunc.h" 1
 683 000a 83F31188 		MSR basepri, r3
 684              	@ 0 "" 2
ARM GAS  /tmp/ccwwxqPB.s 			page 13


 685              	.LVL52:
 686              		.thumb
 687              		.syntax unified
 688 000e 03E0     		b	.L47
 689              	.LVL53:
 690              	.L49:
 691              	.LBE168:
 692              	.LBE167:
 693              	.LBE166:
 694              	.LBE165:
 695              	.LBB169:
 696              		.loc 1 335 0
 697 0010 FFF7FEFF 		bl	chThdEnqueueTimeoutS
 698              	.LVL54:
 699              		.loc 1 336 0
 700 0014 0028     		cmp	r0, #0
 701 0016 18DB     		blt	.L57
 702              	.LVL55:
 703              	.L47:
 704 0018 A568     		ldr	r5, [r4, #8]
 705              	.LVL56:
 706              		.loc 1 335 0
 707 001a 3146     		mov	r1, r6
 708 001c 2046     		mov	r0, r4
 709              	.LBE169:
 710              		.loc 1 334 0
 711 001e 002D     		cmp	r5, #0
 712 0020 F6D0     		beq	.L49
 713              	.LVL57:
 714              		.loc 1 343 0
 715 0022 6369     		ldr	r3, [r4, #20]
 716              		.loc 1 342 0
 717 0024 013D     		subs	r5, r5, #1
 718              		.loc 1 343 0
 719 0026 5A1C     		adds	r2, r3, #1
 720 0028 6261     		str	r2, [r4, #20]
 721              		.loc 1 342 0
 722 002a A560     		str	r5, [r4, #8]
 723              		.loc 1 343 0
 724 002c 1F70     		strb	r7, [r3]
 725              		.loc 1 344 0
 726 002e 2369     		ldr	r3, [r4, #16]
 727 0030 6269     		ldr	r2, [r4, #20]
 728 0032 9A42     		cmp	r2, r3
 729              		.loc 1 345 0
 730 0034 24BF     		itt	cs
 731 0036 E368     		ldrcs	r3, [r4, #12]
 732 0038 6361     		strcs	r3, [r4, #20]
 733              		.loc 1 348 0
 734 003a E369     		ldr	r3, [r4, #28]
 735 003c 0BB1     		cbz	r3, .L51
 736              		.loc 1 349 0
 737 003e 2046     		mov	r0, r4
 738              	.LVL58:
 739 0040 9847     		blx	r3
 740              	.LVL59:
 741              	.L51:
ARM GAS  /tmp/ccwwxqPB.s 			page 14


 742              	.LBB175:
 743              	.LBB176:
 744              	.LBB177:
 745              	.LBB178:
 746              	.LBB179:
 747              		.loc 4 546 0
 748 0042 0020     		movs	r0, #0
 749              		.syntax unified
 750              	@ 546 "/home/selim/working/ChibiOS/os/ext/CMSIS/include/core_cmFunc.h" 1
 751 0044 80F31188 		MSR basepri, r0
 752              	@ 0 "" 2
 753              	.LVL60:
 754              		.thumb
 755              		.syntax unified
 756              	.LBE179:
 757              	.LBE178:
 758              	.LBE177:
 759              	.LBE176:
 760              	.LBE175:
 761              		.loc 1 354 0
 762 0048 F8BD     		pop	{r3, r4, r5, r6, r7, pc}
 763              	.LVL61:
 764              	.L57:
 765              	.LBB180:
 766              	.LBB170:
 767              	.LBB171:
 768              	.LBB172:
 769              	.LBB173:
 770              	.LBB174:
 771              		.loc 4 546 0
 772              		.syntax unified
 773              	@ 546 "/home/selim/working/ChibiOS/os/ext/CMSIS/include/core_cmFunc.h" 1
 774 004a 85F31188 		MSR basepri, r5
 775              	@ 0 "" 2
 776              	.LVL62:
 777              		.thumb
 778              		.syntax unified
 779              	.LBE174:
 780              	.LBE173:
 781              	.LBE172:
 782              	.LBE171:
 783              	.LBE170:
 784              		.loc 1 338 0
 785 004e F8BD     		pop	{r3, r4, r5, r6, r7, pc}
 786              	.LBE180:
 787              		.cfi_endproc
 788              	.LFE234:
 789              		.size	chOQPutTimeout, .-chOQPutTimeout
 790              		.section	.text.chOQGetI,"ax",%progbits
 791              		.align	1
 792              		.p2align 4,,15
 793              		.global	chOQGetI
 794              		.syntax unified
 795              		.thumb
 796              		.thumb_func
 797              		.fpu softvfp
 798              		.type	chOQGetI, %function
ARM GAS  /tmp/ccwwxqPB.s 			page 15


 799              	chOQGetI:
 800              	.LFB235:
 801              		.loc 1 366 0
 802              		.cfi_startproc
 803              		@ args = 0, pretend = 0, frame = 0
 804              		@ frame_needed = 0, uses_anonymous_args = 0
 805              	.LVL63:
 806 0000 38B5     		push	{r3, r4, r5, lr}
 807              		.cfi_def_cfa_offset 16
 808              		.cfi_offset 3, -16
 809              		.cfi_offset 4, -12
 810              		.cfi_offset 5, -8
 811              		.cfi_offset 14, -4
 812              	.LBB181:
 813              	.LBB182:
 814              		.loc 3 390 0
 815 0002 8269     		ldr	r2, [r0, #24]
 816 0004 4369     		ldr	r3, [r0, #20]
 817 0006 9342     		cmp	r3, r2
 818 0008 8368     		ldr	r3, [r0, #8]
 819 000a 0ED0     		beq	.L66
 820              	.L61:
 821              	.LVL64:
 822              	.LBE182:
 823              	.LBE181:
 824              		.loc 1 377 0
 825 000c 0569     		ldr	r5, [r0, #16]
 826              		.loc 1 376 0
 827 000e 511C     		adds	r1, r2, #1
 828              		.loc 1 375 0
 829 0010 0133     		adds	r3, r3, #1
 830 0012 8360     		str	r3, [r0, #8]
 831              		.loc 1 376 0
 832 0014 8161     		str	r1, [r0, #24]
 833              		.loc 1 377 0
 834 0016 A942     		cmp	r1, r5
 835              		.loc 1 376 0
 836 0018 1478     		ldrb	r4, [r2]	@ zero_extendqisi2
 837              	.LVL65:
 838              		.loc 1 377 0
 839 001a 01D3     		bcc	.L63
 840              		.loc 1 378 0
 841 001c C368     		ldr	r3, [r0, #12]
 842 001e 8361     		str	r3, [r0, #24]
 843              	.L63:
 844              		.loc 1 381 0
 845 0020 0021     		movs	r1, #0
 846 0022 FFF7FEFF 		bl	chThdDequeueNextI
 847              	.LVL66:
 848              		.loc 1 383 0
 849 0026 2046     		mov	r0, r4
 850 0028 38BD     		pop	{r3, r4, r5, pc}
 851              	.LVL67:
 852              	.L66:
 853              	.LBB184:
 854              	.LBB183:
 855              		.loc 3 390 0
ARM GAS  /tmp/ccwwxqPB.s 			page 16


 856 002a 002B     		cmp	r3, #0
 857 002c EED0     		beq	.L61
 858              	.LBE183:
 859              	.LBE184:
 860              		.loc 1 372 0
 861 002e 6FF00200 		mvn	r0, #2
 862              	.LVL68:
 863 0032 38BD     		pop	{r3, r4, r5, pc}
 864              		.cfi_endproc
 865              	.LFE235:
 866              		.size	chOQGetI, .-chOQGetI
 867              		.section	.text.chOQWriteTimeout,"ax",%progbits
 868              		.align	1
 869              		.p2align 4,,15
 870              		.global	chOQWriteTimeout
 871              		.syntax unified
 872              		.thumb
 873              		.thumb_func
 874              		.fpu softvfp
 875              		.type	chOQWriteTimeout, %function
 876              	chOQWriteTimeout:
 877              	.LFB236:
 878              		.loc 1 411 0
 879              		.cfi_startproc
 880              		@ args = 0, pretend = 0, frame = 8
 881              		@ frame_needed = 0, uses_anonymous_args = 0
 882              	.LVL69:
 883 0000 2DE9F04F 		push	{r4, r5, r6, r7, r8, r9, r10, fp, lr}
 884              		.cfi_def_cfa_offset 36
 885              		.cfi_offset 4, -36
 886              		.cfi_offset 5, -32
 887              		.cfi_offset 6, -28
 888              		.cfi_offset 7, -24
 889              		.cfi_offset 8, -20
 890              		.cfi_offset 9, -16
 891              		.cfi_offset 10, -12
 892              		.cfi_offset 11, -8
 893              		.cfi_offset 14, -4
 894 0004 83B0     		sub	sp, sp, #12
 895              		.cfi_def_cfa_offset 48
 896              		.loc 1 411 0
 897 0006 0446     		mov	r4, r0
 898 0008 0D46     		mov	r5, r1
 899 000a 1646     		mov	r6, r2
 900 000c 0193     		str	r3, [sp, #4]
 901              		.loc 1 412 0
 902 000e D0F81C80 		ldr	r8, [r0, #28]
 903              	.LVL70:
 904              	.LBB185:
 905              	.LBB186:
 906              	.LBB187:
 907              	.LBB188:
 908              		.loc 4 546 0
 909 0012 4FF02009 		mov	r9, #32
 910              		.syntax unified
 911              	@ 546 "/home/selim/working/ChibiOS/os/ext/CMSIS/include/core_cmFunc.h" 1
 912 0016 89F31188 		MSR basepri, r9
ARM GAS  /tmp/ccwwxqPB.s 			page 17


 913              	@ 0 "" 2
 914              	.LVL71:
 915              		.thumb
 916              		.syntax unified
 917              	.LBE188:
 918              	.LBE187:
 919              	.LBE186:
 920              	.LBE185:
 921              		.loc 1 413 0
 922 001a 0027     		movs	r7, #0
 923              	.LBB189:
 924              	.LBB190:
 925              	.LBB191:
 926              	.LBB192:
 927              	.LBB193:
 928              		.loc 4 546 0
 929 001c BA46     		mov	r10, r7
 930              	.LVL72:
 931              	.L68:
 932 001e A368     		ldr	r3, [r4, #8]
 933              	.LVL73:
 934              	.LBE193:
 935              	.LBE192:
 936              	.LBE191:
 937              	.LBE190:
 938              	.LBE189:
 939              		.loc 1 427 0
 940 0020 05F1010B 		add	fp, r5, #1
 941              	.LVL74:
 942              		.loc 1 426 0
 943 0024 591E     		subs	r1, r3, #1
 944              		.loc 1 433 0
 945 0026 2046     		mov	r0, r4
 946              		.loc 1 419 0
 947 0028 FBB1     		cbz	r3, .L71
 948              	.LVL75:
 949              	.L84:
 950              		.loc 1 427 0
 951 002a 6369     		ldr	r3, [r4, #20]
 952              		.loc 1 426 0
 953 002c A160     		str	r1, [r4, #8]
 954              		.loc 1 427 0
 955 002e 591C     		adds	r1, r3, #1
 956 0030 6161     		str	r1, [r4, #20]
 957 0032 2978     		ldrb	r1, [r5]	@ zero_extendqisi2
 958 0034 1970     		strb	r1, [r3]
 959              		.loc 1 428 0
 960 0036 2369     		ldr	r3, [r4, #16]
 961 0038 6169     		ldr	r1, [r4, #20]
 962 003a 9942     		cmp	r1, r3
 963              		.loc 1 429 0
 964 003c 24BF     		itt	cs
 965 003e E368     		ldrcs	r3, [r4, #12]
 966 0040 6361     		strcs	r3, [r4, #20]
 967              		.loc 1 432 0
 968 0042 B8F1000F 		cmp	r8, #0
 969 0046 00D0     		beq	.L73
ARM GAS  /tmp/ccwwxqPB.s 			page 18


 970              		.loc 1 433 0
 971 0048 C047     		blx	r8
 972              	.LVL76:
 973              	.L73:
 974              	.LBB198:
 975              	.LBB197:
 976              	.LBB196:
 977              	.LBB195:
 978              	.LBB194:
 979              		.loc 4 546 0
 980              		.syntax unified
 981              	@ 546 "/home/selim/working/ChibiOS/os/ext/CMSIS/include/core_cmFunc.h" 1
 982 004a 8AF31188 		MSR basepri, r10
 983              	@ 0 "" 2
 984              	.LVL77:
 985              		.thumb
 986              		.syntax unified
 987              	.LBE194:
 988              	.LBE195:
 989              	.LBE196:
 990              	.LBE197:
 991              	.LBE198:
 992              		.loc 1 438 0
 993 004e 013E     		subs	r6, r6, #1
 994              	.LVL78:
 995              		.loc 1 437 0
 996 0050 07F10107 		add	r7, r7, #1
 997              	.LVL79:
 998              		.loc 1 438 0
 999 0054 13D0     		beq	.L67
 1000              	.LBB199:
 1001              	.LBB200:
 1002              	.LBB201:
 1003              	.LBB202:
 1004              		.loc 4 546 0
 1005              		.syntax unified
 1006              	@ 546 "/home/selim/working/ChibiOS/os/ext/CMSIS/include/core_cmFunc.h" 1
 1007 0056 89F31188 		MSR basepri, r9
 1008              	@ 0 "" 2
 1009              	.LVL80:
 1010              		.thumb
 1011              		.syntax unified
 1012 005a A368     		ldr	r3, [r4, #8]
 1013              	.LBE202:
 1014              	.LBE201:
 1015              	.LBE200:
 1016              	.LBE199:
 1017              		.loc 1 427 0
 1018 005c 5D46     		mov	r5, fp
 1019              	.LVL81:
 1020              		.loc 1 426 0
 1021 005e 591E     		subs	r1, r3, #1
 1022              		.loc 1 427 0
 1023 0060 05F1010B 		add	fp, r5, #1
 1024              	.LVL82:
 1025              		.loc 1 433 0
 1026 0064 2046     		mov	r0, r4
ARM GAS  /tmp/ccwwxqPB.s 			page 19


 1027              		.loc 1 419 0
 1028 0066 002B     		cmp	r3, #0
 1029 0068 DFD1     		bne	.L84
 1030              	.LVL83:
 1031              	.L71:
 1032              		.loc 1 420 0
 1033 006a 0199     		ldr	r1, [sp, #4]
 1034 006c 0093     		str	r3, [sp]
 1035 006e 2046     		mov	r0, r4
 1036              	.LVL84:
 1037 0070 FFF7FEFF 		bl	chThdEnqueueTimeoutS
 1038              	.LVL85:
 1039 0074 009B     		ldr	r3, [sp]
 1040 0076 0028     		cmp	r0, #0
 1041 0078 D1D0     		beq	.L68
 1042              	.LVL86:
 1043              	.LBB203:
 1044              	.LBB204:
 1045              	.LBB205:
 1046              	.LBB206:
 1047              	.LBB207:
 1048              		.loc 4 546 0
 1049              		.syntax unified
 1050              	@ 546 "/home/selim/working/ChibiOS/os/ext/CMSIS/include/core_cmFunc.h" 1
 1051 007a 83F31188 		MSR basepri, r3
 1052              	@ 0 "" 2
 1053              	.LVL87:
 1054              		.thumb
 1055              		.syntax unified
 1056              	.L67:
 1057              	.LBE207:
 1058              	.LBE206:
 1059              	.LBE205:
 1060              	.LBE204:
 1061              	.LBE203:
 1062              		.loc 1 443 0
 1063 007e 3846     		mov	r0, r7
 1064 0080 03B0     		add	sp, sp, #12
 1065              		.cfi_def_cfa_offset 36
 1066              		@ sp needed
 1067 0082 BDE8F08F 		pop	{r4, r5, r6, r7, r8, r9, r10, fp, pc}
 1068              		.cfi_endproc
 1069              	.LFE236:
 1070              		.size	chOQWriteTimeout, .-chOQWriteTimeout
 1071 0086 00BF     		.text
 1072              	.Letext0:
 1073              		.file 5 "/usr/lib/gcc/arm-none-eabi/6.2.1/include/stddef.h"
 1074              		.file 6 "/usr/arm-none-eabi/include/machine/_default_types.h"
 1075              		.file 7 "/usr/arm-none-eabi/include/sys/_stdint.h"
 1076              		.file 8 "/home/selim/working/ChibiOS/os/rt/ports/ARMCMx/compilers/GCC/chtypes.h"
 1077              		.file 9 "/home/selim/working/ChibiOS/os/rt/include/chsystypes.h"
 1078              		.file 10 "/home/selim/working/ChibiOS/os/ext/CMSIS/include/core_cm4.h"
 1079              		.file 11 "/home/selim/working/ChibiOS/os/ext/CMSIS/ST/system_stm32f4xx.h"
 1080              		.file 12 "/home/selim/working/ChibiOS/os/rt/ports/ARMCMx/chcore.h"
 1081              		.file 13 "/home/selim/working/ChibiOS/os/rt/ports/ARMCMx/chcore_v7m.h"
 1082              		.file 14 "/home/selim/working/ChibiOS/os/rt/include/chtm.h"
 1083              		.file 15 "/home/selim/working/ChibiOS/os/rt/include/chsem.h"
ARM GAS  /tmp/ccwwxqPB.s 			page 20


 1084              		.file 16 "/home/selim/working/ChibiOS/os/rt/include/chmtx.h"
 1085              		.file 17 "/home/selim/working/ChibiOS/os/rt/include/chregistry.h"
 1086              		.file 18 "/home/selim/working/ChibiOS/os/rt/include/chsys.h"
 1087              		.file 19 "/home/selim/working/ChibiOS/os/rt/include/chthreads.h"