ARM GAS  /tmp/ccapcBze.s 			page 1


   1              		.cpu cortex-m4
   2              		.eabi_attribute 20, 1
   3              		.eabi_attribute 21, 1
   4              		.eabi_attribute 23, 3
   5              		.eabi_attribute 24, 1
   6              		.eabi_attribute 25, 1
   7              		.eabi_attribute 26, 1
   8              		.eabi_attribute 30, 2
   9              		.eabi_attribute 34, 1
  10              		.eabi_attribute 18, 4
  11              		.file	"chschd.c"
  12              		.text
  13              	.Ltext0:
  14              		.cfi_sections	.debug_frame
  15              		.section	.text.wakeup,"ax",%progbits
  16              		.align	1
  17              		.p2align 4,,15
  18              		.syntax unified
  19              		.thumb
  20              		.thumb_func
  21              		.fpu softvfp
  22              		.type	wakeup, %function
  23              	wakeup:
  24              	.LFB230:
  25              		.file 1 "/home/selim/working/ChibiOS/os/rt/src/chschd.c"
  26              		.loc 1 275 0
  27              		.cfi_startproc
  28              		@ args = 0, pretend = 0, frame = 0
  29              		@ frame_needed = 0, uses_anonymous_args = 0
  30              		@ link register save eliminated.
  31              	.LVL0:
  32              	.LBB128:
  33              	.LBB129:
  34              	.LBB130:
  35              	.LBB131:
  36              	.LBB132:
  37              		.file 2 "/home/selim/working/ChibiOS/os/ext/CMSIS/include/core_cmFunc.h"
  38              		.loc 2 546 0
  39 0000 2023     		movs	r3, #32
  40              		.syntax unified
  41              	@ 546 "/home/selim/working/ChibiOS/os/ext/CMSIS/include/core_cmFunc.h" 1
  42 0002 83F31188 		MSR basepri, r3
  43              	@ 0 "" 2
  44              	.LVL1:
  45              		.thumb
  46              		.syntax unified
  47              	.LBE132:
  48              	.LBE131:
  49              	.LBE130:
  50              	.LBE129:
  51              	.LBE128:
  52              		.loc 1 279 0
  53 0006 037F     		ldrb	r3, [r0, #28]	@ zero_extendqisi2
  54 0008 072B     		cmp	r3, #7
  55 000a 0ED8     		bhi	.L2
  56 000c DFE803F0 		tbb	[pc, r3]
  57              	.L4:
ARM GAS  /tmp/ccapcBze.s 			page 2


  58 0010 27       		.byte	(.L3-.L4)/2
  59 0011 0D       		.byte	(.L2-.L4)/2
  60 0012 0D       		.byte	(.L2-.L4)/2
  61 0013 23       		.byte	(.L5-.L4)/2
  62 0014 08       		.byte	(.L6-.L4)/2
  63 0015 04       		.byte	(.L7-.L4)/2
  64 0016 0D       		.byte	(.L2-.L4)/2
  65 0017 08       		.byte	(.L6-.L4)/2
  66              		.p2align 1
  67              	.L7:
  68              		.loc 1 290 0
  69 0018 026A     		ldr	r2, [r0, #32]
  70              	.LVL2:
  71              	.LBB133:
  72              	.LBB134:
  73              		.file 3 "/home/selim/working/ChibiOS/os/rt/include/chsem.h"
  74              		.loc 3 138 0
  75 001a 9368     		ldr	r3, [r2, #8]
  76 001c 0133     		adds	r3, r3, #1
  77 001e 9360     		str	r3, [r2, #8]
  78              	.LVL3:
  79              	.L6:
  80              	.LBE134:
  81              	.LBE133:
  82              	.LBB135:
  83              	.LBB136:
  84              		.file 4 "/home/selim/working/ChibiOS/os/rt/include/chschd.h"
  85              		.loc 4 691 0
  86 0020 90E80C00 		ldm	r0, {r2, r3}
  87 0024 1A60     		str	r2, [r3]
  88              		.loc 4 692 0
  89 0026 0268     		ldr	r2, [r0]
  90 0028 5360     		str	r3, [r2, #4]
  91              	.LVL4:
  92              	.L2:
  93              	.LBE136:
  94              	.LBE135:
  95              		.loc 1 275 0
  96 002a 10B4     		push	{r4}
  97              		.cfi_def_cfa_offset 4
  98              		.cfi_offset 4, -4
  99              	.LBB137:
 100              	.LBB138:
 101              		.loc 1 227 0
 102 002c 0022     		movs	r2, #0
 103              	.LBE138:
 104              	.LBE137:
 105              		.loc 1 304 0
 106 002e 4FF0FF34 		mov	r4, #-1
 107 0032 8168     		ldr	r1, [r0, #8]
 108              	.LBB140:
 109              	.LBB141:
 110              	.LBB142:
 111              	.LBB143:
 112              		.loc 1 228 0
 113 0034 0C4B     		ldr	r3, .L15
 114              	.LBE143:
ARM GAS  /tmp/ccapcBze.s 			page 3


 115              	.LBE142:
 116              	.LBE141:
 117              	.LBE140:
 118              		.loc 1 304 0
 119 0036 0462     		str	r4, [r0, #32]
 120              	.LVL5:
 121              	.LBB159:
 122              	.LBB139:
 123              		.loc 1 227 0
 124 0038 0277     		strb	r2, [r0, #28]
 125              	.LVL6:
 126              	.L9:
 127              	.LBE139:
 128              	.LBE159:
 129              	.LBB160:
 130              	.LBB158:
 131              	.LBB146:
 132              	.LBB144:
 133              		.loc 1 230 0
 134 003a 1B68     		ldr	r3, [r3]
 135              	.LVL7:
 136              		.loc 1 231 0
 137 003c 9A68     		ldr	r2, [r3, #8]
 138 003e 8A42     		cmp	r2, r1
 139 0040 FBD2     		bcs	.L9
 140              		.loc 1 234 0
 141 0042 5A68     		ldr	r2, [r3, #4]
 142 0044 4260     		str	r2, [r0, #4]
 143              		.loc 1 233 0
 144 0046 0360     		str	r3, [r0]
 145              	.LBE144:
 146              	.LBE146:
 147              	.LBB147:
 148              	.LBB148:
 149              	.LBB149:
 150              	.LBB150:
 151              	.LBB151:
 152              		.loc 2 546 0
 153 0048 0021     		movs	r1, #0
 154              	.LBE151:
 155              	.LBE150:
 156              	.LBE149:
 157              	.LBE148:
 158              	.LBE147:
 159              	.LBB156:
 160              	.LBB145:
 161              		.loc 1 235 0
 162 004a 1060     		str	r0, [r2]
 163              		.loc 1 236 0
 164 004c 5860     		str	r0, [r3, #4]
 165              	.LVL8:
 166              	.LBE145:
 167              	.LBE156:
 168              	.LBB157:
 169              	.LBB155:
 170              	.LBB154:
 171              	.LBB153:
ARM GAS  /tmp/ccapcBze.s 			page 4


 172              	.LBB152:
 173              		.loc 2 546 0
 174              		.syntax unified
 175              	@ 546 "/home/selim/working/ChibiOS/os/ext/CMSIS/include/core_cmFunc.h" 1
 176 004e 81F31188 		MSR basepri, r1
 177              	@ 0 "" 2
 178              	.LVL9:
 179              		.thumb
 180              		.syntax unified
 181              	.LBE152:
 182              	.LBE153:
 183              	.LBE154:
 184              	.LBE155:
 185              	.LBE157:
 186              	.LBE158:
 187              	.LBE160:
 188              		.loc 1 307 0
 189 0052 10BC     		pop	{r4}
 190              		.cfi_restore 4
 191              		.cfi_def_cfa_offset 0
 192 0054 7047     		bx	lr
 193              	.LVL10:
 194              	.L5:
 195              		.loc 1 286 0
 196 0056 036A     		ldr	r3, [r0, #32]
 197 0058 0022     		movs	r2, #0
 198 005a 1A60     		str	r2, [r3]
 199              		.loc 1 287 0
 200 005c E5E7     		b	.L2
 201              	.L3:
 202              	.LVL11:
 203              	.LBB161:
 204              	.LBB162:
 205              	.LBB163:
 206              	.LBB164:
 207              	.LBB165:
 208              		.loc 2 546 0
 209 005e 0023     		movs	r3, #0
 210              		.syntax unified
 211              	@ 546 "/home/selim/working/ChibiOS/os/ext/CMSIS/include/core_cmFunc.h" 1
 212 0060 83F31188 		MSR basepri, r3
 213              	@ 0 "" 2
 214              	.LVL12:
 215              		.thumb
 216              		.syntax unified
 217 0064 7047     		bx	lr
 218              	.L16:
 219 0066 00BF     		.align	2
 220              	.L15:
 221 0068 00000000 		.word	.LANCHOR0
 222              	.LBE165:
 223              	.LBE164:
 224              	.LBE163:
 225              	.LBE162:
 226              	.LBE161:
 227              		.cfi_endproc
 228              	.LFE230:
ARM GAS  /tmp/ccapcBze.s 			page 5


 229              		.size	wakeup, .-wakeup
 230              		.section	.text._scheduler_init,"ax",%progbits
 231              		.align	1
 232              		.p2align 4,,15
 233              		.global	_scheduler_init
 234              		.syntax unified
 235              		.thumb
 236              		.thumb_func
 237              		.fpu softvfp
 238              		.type	_scheduler_init, %function
 239              	_scheduler_init:
 240              	.LFB227:
 241              		.loc 1 65 0
 242              		.cfi_startproc
 243              		@ args = 0, pretend = 0, frame = 0
 244              		@ frame_needed = 0, uses_anonymous_args = 0
 245              		@ link register save eliminated.
 246              	.LVL13:
 247              	.LBB166:
 248              	.LBB167:
 249              		.loc 4 604 0
 250 0000 034B     		ldr	r3, .L18
 251              	.LBE167:
 252              	.LBE166:
 253              		.loc 1 68 0
 254 0002 0022     		movs	r2, #0
 255              	.LBB169:
 256              	.LBB168:
 257              		.loc 4 604 0
 258 0004 1B60     		str	r3, [r3]
 259              		.loc 4 605 0
 260 0006 5B60     		str	r3, [r3, #4]
 261              	.LVL14:
 262              	.LBE168:
 263              	.LBE169:
 264              		.loc 1 70 0
 265 0008 1B61     		str	r3, [r3, #16]
 266              		.loc 1 71 0
 267 000a 5B61     		str	r3, [r3, #20]
 268              		.loc 1 68 0
 269 000c 9A60     		str	r2, [r3, #8]
 270 000e 7047     		bx	lr
 271              	.L19:
 272              		.align	2
 273              	.L18:
 274 0010 00000000 		.word	.LANCHOR0
 275              		.cfi_endproc
 276              	.LFE227:
 277              		.size	_scheduler_init, .-_scheduler_init
 278              		.section	.text.chSchReadyI,"ax",%progbits
 279              		.align	1
 280              		.p2align 4,,15
 281              		.global	chSchReadyI
 282              		.syntax unified
 283              		.thumb
 284              		.thumb_func
 285              		.fpu softvfp
ARM GAS  /tmp/ccapcBze.s 			page 6


 286              		.type	chSchReadyI, %function
 287              	chSchReadyI:
 288              	.LFB228:
 289              		.loc 1 218 0
 290              		.cfi_startproc
 291              		@ args = 0, pretend = 0, frame = 0
 292              		@ frame_needed = 0, uses_anonymous_args = 0
 293              		@ link register save eliminated.
 294              	.LVL15:
 295              		.loc 1 227 0
 296 0000 0022     		movs	r2, #0
 297 0002 8168     		ldr	r1, [r0, #8]
 298              		.loc 1 228 0
 299 0004 074B     		ldr	r3, .L24
 300              		.loc 1 218 0
 301 0006 10B4     		push	{r4}
 302              		.cfi_def_cfa_offset 4
 303              		.cfi_offset 4, -4
 304              		.loc 1 218 0
 305 0008 0446     		mov	r4, r0
 306              		.loc 1 227 0
 307 000a 0277     		strb	r2, [r0, #28]
 308              	.LVL16:
 309              	.L21:
 310              		.loc 1 230 0 discriminator 1
 311 000c 1B68     		ldr	r3, [r3]
 312              	.LVL17:
 313              		.loc 1 231 0 discriminator 1
 314 000e 9A68     		ldr	r2, [r3, #8]
 315 0010 8A42     		cmp	r2, r1
 316 0012 FBD2     		bcs	.L21
 317              		.loc 1 234 0
 318 0014 5A68     		ldr	r2, [r3, #4]
 319 0016 6260     		str	r2, [r4, #4]
 320              		.loc 1 233 0
 321 0018 2360     		str	r3, [r4]
 322              		.loc 1 239 0
 323 001a 2046     		mov	r0, r4
 324              	.LVL18:
 325              		.loc 1 235 0
 326 001c 1460     		str	r4, [r2]
 327              		.loc 1 236 0
 328 001e 5C60     		str	r4, [r3, #4]
 329              		.loc 1 239 0
 330 0020 10BC     		pop	{r4}
 331              		.cfi_restore 4
 332              		.cfi_def_cfa_offset 0
 333              	.LVL19:
 334 0022 7047     		bx	lr
 335              	.L25:
 336              		.align	2
 337              	.L24:
 338 0024 00000000 		.word	.LANCHOR0
 339              		.cfi_endproc
 340              	.LFE228:
 341              		.size	chSchReadyI, .-chSchReadyI
 342              		.section	.text.chSchGoSleepS,"ax",%progbits
ARM GAS  /tmp/ccapcBze.s 			page 7


 343              		.align	1
 344              		.p2align 4,,15
 345              		.global	chSchGoSleepS
 346              		.syntax unified
 347              		.thumb
 348              		.thumb_func
 349              		.fpu softvfp
 350              		.type	chSchGoSleepS, %function
 351              	chSchGoSleepS:
 352              	.LFB229:
 353              		.loc 1 250 0
 354              		.cfi_startproc
 355              		@ args = 0, pretend = 0, frame = 0
 356              		@ frame_needed = 0, uses_anonymous_args = 0
 357              		@ link register save eliminated.
 358              	.LVL20:
 359              		.loc 1 255 0
 360 0000 074B     		ldr	r3, .L28
 361 0002 9969     		ldr	r1, [r3, #24]
 362              	.LVL21:
 363              	.LBB170:
 364              	.LBB171:
 365              		.loc 4 672 0
 366 0004 1A68     		ldr	r2, [r3]
 367              	.LBE171:
 368              	.LBE170:
 369              		.loc 1 250 0
 370 0006 10B4     		push	{r4}
 371              		.cfi_def_cfa_offset 4
 372              		.cfi_offset 4, -4
 373              		.loc 1 256 0
 374 0008 0877     		strb	r0, [r1, #28]
 375              	.LVL22:
 376              	.LBB174:
 377              	.LBB172:
 378              		.loc 4 674 0
 379 000a 1068     		ldr	r0, [r2]
 380              	.LVL23:
 381 000c 1860     		str	r0, [r3]
 382              	.LBE172:
 383              	.LBE174:
 384              		.loc 1 268 0
 385 000e 0124     		movs	r4, #1
 386              	.LBB175:
 387              	.LBB173:
 388              		.loc 4 675 0
 389 0010 4360     		str	r3, [r0, #4]
 390              	.LVL24:
 391              	.LBE173:
 392              	.LBE175:
 393              		.loc 1 268 0
 394 0012 1477     		strb	r4, [r2, #28]
 395              		.loc 1 269 0
 396 0014 1046     		mov	r0, r2
 397              		.loc 1 270 0
 398 0016 10BC     		pop	{r4}
 399              		.cfi_restore 4
ARM GAS  /tmp/ccapcBze.s 			page 8


 400              		.cfi_def_cfa_offset 0
 401              		.loc 1 262 0
 402 0018 9A61     		str	r2, [r3, #24]
 403              		.loc 1 269 0
 404 001a FFF7FEBF 		b	_port_switch
 405              	.LVL25:
 406              	.L29:
 407 001e 00BF     		.align	2
 408              	.L28:
 409 0020 00000000 		.word	.LANCHOR0
 410              		.cfi_endproc
 411              	.LFE229:
 412              		.size	chSchGoSleepS, .-chSchGoSleepS
 413              		.section	.text.chSchGoSleepTimeoutS,"ax",%progbits
 414              		.align	1
 415              		.p2align 4,,15
 416              		.global	chSchGoSleepTimeoutS
 417              		.syntax unified
 418              		.thumb
 419              		.thumb_func
 420              		.fpu softvfp
 421              		.type	chSchGoSleepTimeoutS, %function
 422              	chSchGoSleepTimeoutS:
 423              	.LFB231:
 424              		.loc 1 330 0
 425              		.cfi_startproc
 426              		@ args = 0, pretend = 0, frame = 24
 427              		@ frame_needed = 0, uses_anonymous_args = 0
 428              	.LVL26:
 429 0000 30B5     		push	{r4, r5, lr}
 430              		.cfi_def_cfa_offset 12
 431              		.cfi_offset 4, -12
 432              		.cfi_offset 5, -8
 433              		.cfi_offset 14, -4
 434              		.loc 1 334 0
 435 0002 4B1C     		adds	r3, r1, #1
 436              		.loc 1 330 0
 437 0004 87B0     		sub	sp, sp, #28
 438              		.cfi_def_cfa_offset 40
 439              		.loc 1 334 0
 440 0006 12D0     		beq	.L31
 441              	.LBB176:
 442              		.loc 1 337 0
 443 0008 0C4C     		ldr	r4, .L38
 444 000a 0D4A     		ldr	r2, .L38+4
 445 000c A369     		ldr	r3, [r4, #24]
 446 000e 0546     		mov	r5, r0
 447 0010 01A8     		add	r0, sp, #4
 448              	.LVL27:
 449 0012 FFF7FEFF 		bl	chVTDoSetI
 450              	.LVL28:
 451              		.loc 1 338 0
 452 0016 2846     		mov	r0, r5
 453 0018 FFF7FEFF 		bl	chSchGoSleepS
 454              	.LVL29:
 455              		.loc 1 339 0
 456 001c 049B     		ldr	r3, [sp, #16]
ARM GAS  /tmp/ccapcBze.s 			page 9


 457 001e 13B1     		cbz	r3, .L33
 458              		.loc 1 340 0
 459 0020 01A8     		add	r0, sp, #4
 460              	.LVL30:
 461 0022 FFF7FEFF 		bl	chVTDoResetI
 462              	.LVL31:
 463              	.L33:
 464              	.LBE176:
 465              		.loc 1 347 0
 466 0026 A369     		ldr	r3, [r4, #24]
 467              		.loc 1 348 0
 468 0028 186A     		ldr	r0, [r3, #32]
 469 002a 07B0     		add	sp, sp, #28
 470              		.cfi_remember_state
 471              		.cfi_def_cfa_offset 12
 472              		@ sp needed
 473 002c 30BD     		pop	{r4, r5, pc}
 474              	.LVL32:
 475              	.L31:
 476              		.cfi_restore_state
 477 002e 034C     		ldr	r4, .L38
 478              		.loc 1 344 0
 479 0030 FFF7FEFF 		bl	chSchGoSleepS
 480              	.LVL33:
 481              		.loc 1 347 0
 482 0034 A369     		ldr	r3, [r4, #24]
 483              		.loc 1 348 0
 484 0036 186A     		ldr	r0, [r3, #32]
 485 0038 07B0     		add	sp, sp, #28
 486              		.cfi_def_cfa_offset 12
 487              		@ sp needed
 488 003a 30BD     		pop	{r4, r5, pc}
 489              	.L39:
 490              		.align	2
 491              	.L38:
 492 003c 00000000 		.word	.LANCHOR0
 493 0040 00000000 		.word	wakeup
 494              		.cfi_endproc
 495              	.LFE231:
 496              		.size	chSchGoSleepTimeoutS, .-chSchGoSleepTimeoutS
 497              		.section	.text.chSchWakeupS,"ax",%progbits
 498              		.align	1
 499              		.p2align 4,,15
 500              		.global	chSchWakeupS
 501              		.syntax unified
 502              		.thumb
 503              		.thumb_func
 504              		.fpu softvfp
 505              		.type	chSchWakeupS, %function
 506              	chSchWakeupS:
 507              	.LFB232:
 508              		.loc 1 367 0
 509              		.cfi_startproc
 510              		@ args = 0, pretend = 0, frame = 0
 511              		@ frame_needed = 0, uses_anonymous_args = 0
 512              		@ link register save eliminated.
 513              	.LVL34:
ARM GAS  /tmp/ccapcBze.s 			page 10


 514              		.loc 1 379 0
 515 0000 144B     		ldr	r3, .L49
 516              		.loc 1 367 0
 517 0002 70B4     		push	{r4, r5, r6}
 518              		.cfi_def_cfa_offset 12
 519              		.cfi_offset 4, -12
 520              		.cfi_offset 5, -8
 521              		.cfi_offset 6, -4
 522              		.loc 1 367 0
 523 0004 0446     		mov	r4, r0
 524              		.loc 1 379 0
 525 0006 9D69     		ldr	r5, [r3, #24]
 526              		.loc 1 373 0
 527 0008 0162     		str	r1, [r0, #32]
 528              		.loc 1 379 0
 529 000a A868     		ldr	r0, [r5, #8]
 530              	.LVL35:
 531 000c A168     		ldr	r1, [r4, #8]
 532              	.LVL36:
 533 000e 8142     		cmp	r1, r0
 534              	.LBB177:
 535              	.LBB178:
 536              		.loc 1 227 0
 537 0010 4FF00002 		mov	r2, #0
 538              	.LBE178:
 539              	.LBE177:
 540              		.loc 1 379 0
 541 0014 0BD8     		bhi	.L41
 542              	.LVL37:
 543              	.LBB180:
 544              	.LBB179:
 545              		.loc 1 227 0
 546 0016 2277     		strb	r2, [r4, #28]
 547              	.LVL38:
 548              	.L42:
 549              		.loc 1 230 0
 550 0018 1B68     		ldr	r3, [r3]
 551              	.LVL39:
 552              		.loc 1 231 0
 553 001a 9A68     		ldr	r2, [r3, #8]
 554 001c 9142     		cmp	r1, r2
 555 001e FBD9     		bls	.L42
 556              		.loc 1 234 0
 557 0020 5A68     		ldr	r2, [r3, #4]
 558 0022 6260     		str	r2, [r4, #4]
 559              		.loc 1 233 0
 560 0024 2360     		str	r3, [r4]
 561              		.loc 1 235 0
 562 0026 1460     		str	r4, [r2]
 563              	.LVL40:
 564              		.loc 1 236 0
 565 0028 5C60     		str	r4, [r3, #4]
 566              	.LBE179:
 567              	.LBE180:
 568              		.loc 1 393 0
 569 002a 70BC     		pop	{r4, r5, r6}
 570              		.cfi_remember_state
ARM GAS  /tmp/ccapcBze.s 			page 11


 571              		.cfi_restore 6
 572              		.cfi_restore 5
 573              		.cfi_restore 4
 574              		.cfi_def_cfa_offset 0
 575              	.LVL41:
 576 002c 7047     		bx	lr
 577              	.LVL42:
 578              	.L41:
 579              		.cfi_restore_state
 580              	.LBB181:
 581              	.LBB182:
 582              	.LBB183:
 583              		.loc 1 227 0
 584 002e 2A77     		strb	r2, [r5, #28]
 585              	.LVL43:
 586              		.loc 1 228 0
 587 0030 1A46     		mov	r2, r3
 588              	.LVL44:
 589              	.L44:
 590              		.loc 1 230 0
 591 0032 1268     		ldr	r2, [r2]
 592              	.LVL45:
 593              		.loc 1 231 0
 594 0034 9168     		ldr	r1, [r2, #8]
 595 0036 8842     		cmp	r0, r1
 596 0038 FBD9     		bls	.L44
 597              		.loc 1 234 0
 598 003a 5068     		ldr	r0, [r2, #4]
 599 003c 6860     		str	r0, [r5, #4]
 600              	.LBE183:
 601              	.LBE182:
 602              		.loc 1 390 0
 603 003e 0126     		movs	r6, #1
 604              	.LBB185:
 605              	.LBB184:
 606              		.loc 1 233 0
 607 0040 2A60     		str	r2, [r5]
 608              		.loc 1 235 0
 609 0042 0560     		str	r5, [r0]
 610              		.loc 1 236 0
 611 0044 5560     		str	r5, [r2, #4]
 612              	.LVL46:
 613              	.LBE184:
 614              	.LBE185:
 615              		.loc 1 390 0
 616 0046 2677     		strb	r6, [r4, #28]
 617              		.loc 1 391 0
 618 0048 2946     		mov	r1, r5
 619 004a 2046     		mov	r0, r4
 620              		.loc 1 384 0
 621 004c 9C61     		str	r4, [r3, #24]
 622              	.LBE181:
 623              		.loc 1 393 0
 624 004e 70BC     		pop	{r4, r5, r6}
 625              		.cfi_restore 6
 626              		.cfi_restore 5
 627              		.cfi_restore 4
ARM GAS  /tmp/ccapcBze.s 			page 12


 628              		.cfi_def_cfa_offset 0
 629              	.LVL47:
 630              	.LBB186:
 631              		.loc 1 391 0
 632 0050 FFF7FEBF 		b	_port_switch
 633              	.LVL48:
 634              	.L50:
 635              		.align	2
 636              	.L49:
 637 0054 00000000 		.word	.LANCHOR0
 638              	.LBE186:
 639              		.cfi_endproc
 640              	.LFE232:
 641              		.size	chSchWakeupS, .-chSchWakeupS
 642              		.section	.text.chSchIsPreemptionRequired,"ax",%progbits
 643              		.align	1
 644              		.p2align 4,,15
 645              		.global	chSchIsPreemptionRequired
 646              		.syntax unified
 647              		.thumb
 648              		.thumb_func
 649              		.fpu softvfp
 650              		.type	chSchIsPreemptionRequired, %function
 651              	chSchIsPreemptionRequired:
 652              	.LFB234:
 653              		.loc 1 424 0
 654              		.cfi_startproc
 655              		@ args = 0, pretend = 0, frame = 0
 656              		@ frame_needed = 0, uses_anonymous_args = 0
 657              		@ link register save eliminated.
 658              	.LVL49:
 659              		.loc 1 425 0
 660 0000 044B     		ldr	r3, .L52
 661 0002 1A68     		ldr	r2, [r3]
 662              		.loc 1 426 0
 663 0004 9B69     		ldr	r3, [r3, #24]
 664              		.loc 1 437 0
 665 0006 9068     		ldr	r0, [r2, #8]
 666 0008 9B68     		ldr	r3, [r3, #8]
 667              		.loc 1 439 0
 668 000a 9842     		cmp	r0, r3
 669 000c 94BF     		ite	ls
 670 000e 0020     		movls	r0, #0
 671 0010 0120     		movhi	r0, #1
 672 0012 7047     		bx	lr
 673              	.L53:
 674              		.align	2
 675              	.L52:
 676 0014 00000000 		.word	.LANCHOR0
 677              		.cfi_endproc
 678              	.LFE234:
 679              		.size	chSchIsPreemptionRequired, .-chSchIsPreemptionRequired
 680              		.section	.text.chSchDoRescheduleBehind,"ax",%progbits
 681              		.align	1
 682              		.p2align 4,,15
 683              		.global	chSchDoRescheduleBehind
 684              		.syntax unified
ARM GAS  /tmp/ccapcBze.s 			page 13


 685              		.thumb
 686              		.thumb_func
 687              		.fpu softvfp
 688              		.type	chSchDoRescheduleBehind, %function
 689              	chSchDoRescheduleBehind:
 690              	.LFB235:
 691              		.loc 1 451 0
 692              		.cfi_startproc
 693              		@ args = 0, pretend = 0, frame = 0
 694              		@ frame_needed = 0, uses_anonymous_args = 0
 695              		@ link register save eliminated.
 696              		.loc 1 454 0
 697 0000 0D4A     		ldr	r2, .L59
 698              	.LBB187:
 699              	.LBB188:
 700              		.loc 4 672 0
 701 0002 1068     		ldr	r0, [r2]
 702              	.LBE188:
 703              	.LBE187:
 704              		.loc 1 451 0
 705 0004 70B4     		push	{r4, r5, r6}
 706              		.cfi_def_cfa_offset 12
 707              		.cfi_offset 4, -12
 708              		.cfi_offset 5, -8
 709              		.cfi_offset 6, -4
 710              	.LBB192:
 711              	.LBB189:
 712              		.loc 4 674 0
 713 0006 0368     		ldr	r3, [r0]
 714              	.LBE189:
 715              	.LBE192:
 716              		.loc 1 454 0
 717 0008 9469     		ldr	r4, [r2, #24]
 718              	.LVL50:
 719              	.LBB193:
 720              	.LBB190:
 721              		.loc 4 674 0
 722 000a 1360     		str	r3, [r2]
 723              	.LBE190:
 724              	.LBE193:
 725              		.loc 1 462 0
 726 000c 0126     		movs	r6, #1
 727              	.LBB194:
 728              	.LBB195:
 729              		.loc 1 227 0
 730 000e 0025     		movs	r5, #0
 731              	.LBE195:
 732              	.LBE194:
 733              		.loc 1 458 0
 734 0010 A168     		ldr	r1, [r4, #8]
 735              	.LBB198:
 736              	.LBB191:
 737              		.loc 4 675 0
 738 0012 5A60     		str	r2, [r3, #4]
 739              	.LVL51:
 740              	.LBE191:
 741              	.LBE198:
ARM GAS  /tmp/ccapcBze.s 			page 14


 742              		.loc 1 462 0
 743 0014 0677     		strb	r6, [r0, #28]
 744              	.LVL52:
 745              		.loc 1 456 0
 746 0016 9061     		str	r0, [r2, #24]
 747              	.LBB199:
 748              	.LBB196:
 749              		.loc 1 227 0
 750 0018 2577     		strb	r5, [r4, #28]
 751              	.LVL53:
 752 001a 00E0     		b	.L56
 753              	.LVL54:
 754              	.L58:
 755 001c 1B68     		ldr	r3, [r3]
 756              	.L56:
 757              		.loc 1 231 0
 758 001e 9A68     		ldr	r2, [r3, #8]
 759 0020 9142     		cmp	r1, r2
 760 0022 FBD9     		bls	.L58
 761              		.loc 1 234 0
 762 0024 5A68     		ldr	r2, [r3, #4]
 763 0026 6260     		str	r2, [r4, #4]
 764              		.loc 1 233 0
 765 0028 2360     		str	r3, [r4]
 766              	.LBE196:
 767              	.LBE199:
 768              		.loc 1 467 0
 769 002a 2146     		mov	r1, r4
 770              	.LBB200:
 771              	.LBB197:
 772              		.loc 1 235 0
 773 002c 1460     		str	r4, [r2]
 774              		.loc 1 236 0
 775 002e 5C60     		str	r4, [r3, #4]
 776              	.LVL55:
 777              	.LBE197:
 778              	.LBE200:
 779              		.loc 1 468 0
 780 0030 70BC     		pop	{r4, r5, r6}
 781              		.cfi_restore 6
 782              		.cfi_restore 5
 783              		.cfi_restore 4
 784              		.cfi_def_cfa_offset 0
 785              	.LVL56:
 786              		.loc 1 467 0
 787 0032 FFF7FEBF 		b	_port_switch
 788              	.LVL57:
 789              	.L60:
 790 0036 00BF     		.align	2
 791              	.L59:
 792 0038 00000000 		.word	.LANCHOR0
 793              		.cfi_endproc
 794              	.LFE235:
 795              		.size	chSchDoRescheduleBehind, .-chSchDoRescheduleBehind
 796              		.section	.text.chSchDoRescheduleAhead,"ax",%progbits
 797              		.align	1
 798              		.p2align 4,,15
ARM GAS  /tmp/ccapcBze.s 			page 15


 799              		.global	chSchDoRescheduleAhead
 800              		.syntax unified
 801              		.thumb
 802              		.thumb_func
 803              		.fpu softvfp
 804              		.type	chSchDoRescheduleAhead, %function
 805              	chSchDoRescheduleAhead:
 806              	.LFB236:
 807              		.loc 1 479 0
 808              		.cfi_startproc
 809              		@ args = 0, pretend = 0, frame = 0
 810              		@ frame_needed = 0, uses_anonymous_args = 0
 811              		@ link register save eliminated.
 812              		.loc 1 482 0
 813 0000 0D4A     		ldr	r2, .L66
 814              	.LBB201:
 815              	.LBB202:
 816              		.loc 4 672 0
 817 0002 1068     		ldr	r0, [r2]
 818              	.LBE202:
 819              	.LBE201:
 820              		.loc 1 479 0
 821 0004 70B4     		push	{r4, r5, r6}
 822              		.cfi_def_cfa_offset 12
 823              		.cfi_offset 4, -12
 824              		.cfi_offset 5, -8
 825              		.cfi_offset 6, -4
 826              	.LBB206:
 827              	.LBB203:
 828              		.loc 4 674 0
 829 0006 0368     		ldr	r3, [r0]
 830              	.LBE203:
 831              	.LBE206:
 832              		.loc 1 482 0
 833 0008 9469     		ldr	r4, [r2, #24]
 834              	.LVL58:
 835              	.LBB207:
 836              	.LBB204:
 837              		.loc 4 674 0
 838 000a 1360     		str	r3, [r2]
 839              	.LBE204:
 840              	.LBE207:
 841              		.loc 1 490 0
 842 000c 0126     		movs	r6, #1
 843              		.loc 1 492 0
 844 000e 0025     		movs	r5, #0
 845              		.loc 1 486 0
 846 0010 A168     		ldr	r1, [r4, #8]
 847              	.LBB208:
 848              	.LBB205:
 849              		.loc 4 675 0
 850 0012 5A60     		str	r2, [r3, #4]
 851              	.LVL59:
 852              	.LBE205:
 853              	.LBE208:
 854              		.loc 1 490 0
 855 0014 0677     		strb	r6, [r0, #28]
ARM GAS  /tmp/ccapcBze.s 			page 16


 856              		.loc 1 484 0
 857 0016 9061     		str	r0, [r2, #24]
 858              		.loc 1 492 0
 859 0018 2577     		strb	r5, [r4, #28]
 860              	.LVL60:
 861 001a 00E0     		b	.L63
 862              	.LVL61:
 863              	.L65:
 864 001c 1B68     		ldr	r3, [r3]
 865              	.L63:
 866              		.loc 1 496 0 discriminator 1
 867 001e 9A68     		ldr	r2, [r3, #8]
 868 0020 9142     		cmp	r1, r2
 869 0022 FBD3     		bcc	.L65
 870              		.loc 1 499 0
 871 0024 5A68     		ldr	r2, [r3, #4]
 872 0026 6260     		str	r2, [r4, #4]
 873              		.loc 1 498 0
 874 0028 2360     		str	r3, [r4]
 875              		.loc 1 503 0
 876 002a 2146     		mov	r1, r4
 877              		.loc 1 500 0
 878 002c 1460     		str	r4, [r2]
 879              		.loc 1 501 0
 880 002e 5C60     		str	r4, [r3, #4]
 881              		.loc 1 504 0
 882 0030 70BC     		pop	{r4, r5, r6}
 883              		.cfi_restore 6
 884              		.cfi_restore 5
 885              		.cfi_restore 4
 886              		.cfi_def_cfa_offset 0
 887              	.LVL62:
 888              		.loc 1 503 0
 889 0032 FFF7FEBF 		b	_port_switch
 890              	.LVL63:
 891              	.L67:
 892 0036 00BF     		.align	2
 893              	.L66:
 894 0038 00000000 		.word	.LANCHOR0
 895              		.cfi_endproc
 896              	.LFE236:
 897              		.size	chSchDoRescheduleAhead, .-chSchDoRescheduleAhead
 898              		.section	.text.chSchRescheduleS,"ax",%progbits
 899              		.align	1
 900              		.p2align 4,,15
 901              		.global	chSchRescheduleS
 902              		.syntax unified
 903              		.thumb
 904              		.thumb_func
 905              		.fpu softvfp
 906              		.type	chSchRescheduleS, %function
 907              	chSchRescheduleS:
 908              	.LFB233:
 909              		.loc 1 402 0
 910              		.cfi_startproc
 911              		@ args = 0, pretend = 0, frame = 0
 912              		@ frame_needed = 0, uses_anonymous_args = 0
ARM GAS  /tmp/ccapcBze.s 			page 17


 913              		@ link register save eliminated.
 914              	.LBB209:
 915              	.LBB210:
 916              		.loc 4 713 0
 917 0000 044B     		ldr	r3, .L71
 918 0002 1A68     		ldr	r2, [r3]
 919 0004 9B69     		ldr	r3, [r3, #24]
 920              	.LBE210:
 921              	.LBE209:
 922              		.loc 1 406 0
 923 0006 9268     		ldr	r2, [r2, #8]
 924 0008 9B68     		ldr	r3, [r3, #8]
 925 000a 9A42     		cmp	r2, r3
 926 000c 00D8     		bhi	.L70
 927 000e 7047     		bx	lr
 928              	.L70:
 929              		.loc 1 407 0
 930 0010 FFF7FEBF 		b	chSchDoRescheduleAhead
 931              	.LVL64:
 932              	.L72:
 933              		.align	2
 934              	.L71:
 935 0014 00000000 		.word	.LANCHOR0
 936              		.cfi_endproc
 937              	.LFE233:
 938              		.size	chSchRescheduleS, .-chSchRescheduleS
 939              		.section	.text.chSchDoReschedule,"ax",%progbits
 940              		.align	1
 941              		.p2align 4,,15
 942              		.global	chSchDoReschedule
 943              		.syntax unified
 944              		.thumb
 945              		.thumb_func
 946              		.fpu softvfp
 947              		.type	chSchDoReschedule, %function
 948              	chSchDoReschedule:
 949              	.LFB237:
 950              		.loc 1 516 0
 951              		.cfi_startproc
 952              		@ args = 0, pretend = 0, frame = 0
 953              		@ frame_needed = 0, uses_anonymous_args = 0
 954              		@ link register save eliminated.
 955              		.loc 1 534 0
 956 0000 FFF7FEBF 		b	chSchDoRescheduleAhead
 957              	.LVL65:
 958              		.cfi_endproc
 959              	.LFE237:
 960              		.size	chSchDoReschedule, .-chSchDoReschedule
 961              		.global	ch
 962              		.section	.bss.ch,"aw",%nobits
 963              		.align	3
 964              		.set	.LANCHOR0,. + 0
 965              		.type	ch, %object
 966              		.size	ch, 336
 967              	ch:
 968 0000 00000000 		.space	336
 968      00000000 
ARM GAS  /tmp/ccapcBze.s 			page 18


 968      00000000 
 968      00000000 
 968      00000000 
 969              		.text
 970              	.Letext0:
 971              		.file 5 "/usr/lib/gcc/arm-none-eabi/6.2.1/include/stddef.h"
 972              		.file 6 "/usr/arm-none-eabi/include/machine/_default_types.h"
 973              		.file 7 "/usr/arm-none-eabi/include/sys/_stdint.h"
 974              		.file 8 "/home/selim/working/ChibiOS/os/rt/ports/ARMCMx/compilers/GCC/chtypes.h"
 975              		.file 9 "/home/selim/working/ChibiOS/os/rt/include/chsystypes.h"
 976              		.file 10 "/home/selim/working/ChibiOS/os/ext/CMSIS/include/core_cm4.h"
 977              		.file 11 "/home/selim/working/ChibiOS/os/ext/CMSIS/ST/system_stm32f4xx.h"
 978              		.file 12 "/home/selim/working/ChibiOS/os/rt/ports/ARMCMx/chcore.h"
 979              		.file 13 "/home/selim/working/ChibiOS/os/rt/ports/ARMCMx/chcore_v7m.h"
 980              		.file 14 "/home/selim/working/ChibiOS/os/rt/include/chtm.h"
 981              		.file 15 "/home/selim/working/ChibiOS/os/rt/include/chmtx.h"
 982              		.file 16 "/home/selim/working/ChibiOS/os/rt/include/chregistry.h"
 983              		.file 17 "/home/selim/working/ChibiOS/os/rt/include/chvt.h"
 984              		.file 18 "/home/selim/working/ChibiOS/os/rt/include/chsys.h"