ARM GAS  /tmp/ccapcBze.s 			page 1


   1              		.cpu cortex-m4
   2              		.eabi_attribute 20, 1
   3              		.eabi_attribute 21, 1
   4              		.eabi_attribute 23, 3
   5              		.eabi_attribute 24, 1
   6              		.eabi_attribute 25, 1
   7              		.eabi_attribute 26, 1
   8              		.eabi_attribute 30, 2
   9              		.eabi_attribute 34, 1
  10              		.eabi_attribute 18, 4
  11              		.file	"chschd.c"
  12              		.text
  13              	.Ltext0:
  14              		.cfi_sections	.debug_frame
  15              		.section	.text.wakeup,"ax",%progbits
  16              		.align	1
  17              		.p2align 4,,15
  18              		.syntax unified
  19              		.thumb
  20              		.thumb_func
  21              		.fpu softvfp
  22              		.type	wakeup, %function
  23              	wakeup:
  24              	.LFB230:
  25              		.file 1 "/home/selim/working/ChibiOS/os/rt/src/chschd.c"
  26              		.loc 1 275 0
  27              		.cfi_startproc
  28              		@ args = 0, pretend = 0, frame = 0
  29              		@ frame_needed = 0, uses_anonymous_args = 0
  30              		@ link register save eliminated.
  31              	.LVL0:
  32              	.LBB128:
  33              	.LBB129:
  34              	.LBB130:
  35              	.LBB131:
  36              	.LBB132:
  37              		.file 2 "/home/selim/working/ChibiOS/os/ext/CMSIS/include/core_cmFunc.h"
  38              		.loc 2 546 0
  39 0000 2023     		movs	r3, #32
  40              		.syntax unified
  41              	@ 546 "/home/selim/working/ChibiOS/os/ext/CMSIS/include/core_cmFunc.h" 1
  42 0002 83F31188 		MSR basepri, r3
  43              	@ 0 "" 2
  44              	.LVL1:
  45              		.thumb
  46              		.syntax unified
  47              	.LBE132:
  48              	.LBE131:
  49              	.LBE130:
  50              	.LBE129:
  51              	.LBE128:
  52              		.loc 1 279 0
  53 0006 037F     		ldrb	r3, [r0, #28]	@ zero_extendqisi2
  54 0008 072B     		cmp	r3, #7
  55 000a 0ED8     		bhi	.L2
  56 000c DFE803F0 		tbb	[pc, r3]
  57              	.L4:
ARM GAS  /tmp/ccapcBze.s 			page 2


  58 0010 27       		.byte	(.L3-.L4)/2
  59 0011 0D       		.byte	(.L2-.L4)/2
  60 0012 0D       		.byte	(.L2-.L4)/2
  61 0013 23       		.byte	(.L5-.L4)/2
  62 0014 08       		.byte	(.L6-.L4)/2
  63 0015 04       		.byte	(.L7-.L4)/2
  64 0016 0D       		.byte	(.L2-.L4)/2
  65 0017 08       		.byte	(.L6-.L4)/2
  66              		.p2align 1
  67              	.L7:
  68              		.loc 1 290 0
  69 0018 026A     		ldr	r2, [r0, #32]
  70              	.LVL2:
  71              	.LBB133:
  72              	.LBB134:
  73              		.file 3 "/home/selim/working/ChibiOS/os/rt/include/chsem.h"
  74              		.loc 3 138 0
  75 001a 9368     		ldr	r3, [r2, #8]
  76 001c 0133     		adds	r3, r3, #1
  77 001e 9360     		str	r3, [r2, #8]
  78              	.LVL3:
  79              	.L6:
  80              	.LBE134:
  81              	.LBE133:
  82              	.LBB135:
  83              	.LBB136:
  84              		.file 4 "/home/selim/working/ChibiOS/os/rt/include/chschd.h"
  85              		.loc 4 691 0
  86 0020 90E80C00 		ldm	r0, {r2, r3}
  87 0024 1A60     		str	r2, [r3]
  88              		.loc 4 692 0
  89 0026 0268     		ldr	r2, [r0]
  90 0028 5360     		str	r3, [r2, #4]
  91              	.LVL4:
  92              	.L2:
  93              	.LBE136:
  94              	.LBE135:
  95              		.loc 1 275 0
  96 002a 10B4     		push	{r4}
  97              		.cfi_def_cfa_offset 4
  98              		.cfi_offset 4, -4
  99              	.LBB137:
 100              	.LBB138:
 101              		.loc 1 227 0
 102 002c 0022     		movs	r2, #0
 103              	.LBE138:
 104              	.LBE137:
 105              		.loc 1 304 0
 106 002e 4FF0FF34 		mov	r4, #-1
 107 0032 8168     		ldr	r1, [r0, #8]
 108              	.LBB140:
 109              	.LBB141:
 110              	.LBB142:
 111              	.LBB143:
 112              		.loc 1 228 0
 113 0034 0C4B     		ldr	r3, .L15
 114              	.LBE143:
ARM GAS  /tmp/ccapcBze.s 			page 3


 115              	.LBE142:
 116              	.LBE141:
 117              	.LBE140:
 118              		.loc 1 304 0
 119 0036 0462     		str	r4, [r0, #32]
 120              	.LVL5:
 121              	.LBB159:
 122              	.LBB139:
 123              		.loc 1 227 0
 124 0038 0277     		strb	r2, [r0, #28]
 125              	.LVL6:
 126              	.L9:
 127              	.LBE139:
 128              	.LBE159:
 129              	.LBB160:
 130              	.LBB158:
 131              	.LBB146:
 132              	.LBB144:
 133              		.loc 1 230 0
 134 003a 1B68     		ldr	r3, [r3]
 135              	.LVL7:
 136              		.loc 1 231 0
 137 003c 9A68     		ldr	r2, [r3, #8]
 138 003e 8A42     		cmp	r2, r1
 139 0040 FBD2     		bcs	.L9
 140              		.loc 1 234 0
 141 0042 5A68     		ldr	r2, [r3, #4]
 142 0044 4260     		str	r2, [r0, #4]
 143              		.loc 1 233 0
 144 0046 0360     		str	r3, [r0]
 145              	.LBE144:
 146              	.LBE146:
 147              	.LBB147:
 148              	.LBB148:
 149              	.LBB149:
 150              	.LBB150:
 151              	.LBB151:
 152              		.loc 2 546 0
 153 0048 0021     		movs	r1, #0
 154              	.LBE151:
 155              	.LBE150:
 156              	.LBE149:
 157              	.LBE148:
 158              	.LBE147:
 159              	.LBB156:
 160              	.LBB145:
 161              		.loc 1 235 0
 162 004a 1060     		str	r0, [r2]
 163              		.loc 1 236 0
 164 004c 5860     		str	r0, [r3, #4]
 165              	.LVL8:
 166              	.LBE145:
 167              	.LBE156:
 168              	.LBB157:
 169              	.LBB155:
 170              	.LBB154:
 171              	.LBB153:
ARM GAS  /tmp/ccapcBze.s 			page 4


 172              	.LBB152:
 173              		.loc 2 546 0
 174              		.syntax unified
 175              	@ 546 "/home/selim/working/ChibiOS/os/ext/CMSIS/include/core_cmFunc.h" 1
 176 004e 81F31188 		MSR basepri, r1
 177              	@ 0 "" 2
 178              	.LVL9:
 179              		.thumb
 180              		.syntax unified
 181              	.LBE152:
 182              	.LBE153:
 183              	.LBE154:
 184              	.LBE155:
 185              	.LBE157:
 186              	.LBE158:
 187              	.LBE160:
 188              		.loc 1 307 0
 189 0052 10BC     		pop	{r4}
 190              		.cfi_restore 4
 191              		.cfi_def_cfa_offset 0
 192 0054 7047     		bx	lr
 193              	.LVL10:
 194              	.L5:
 195              		.loc 1 286 0
 196 0056 036A     		ldr	r3, [r0, #32]
 197 0058 0022     		movs	r2, #0
 198 005a 1A60     		str	r2, [r3]
 199              		.loc 1 287 0
 200 005c E5E7     		b	.L2
 201              	.L3:
 202              	.LVL11:
 203              	.LBB161:
 204              	.LBB162:
 205              	.LBB163:
 206              	.LBB164:
 207              	.LBB165:
 208              		.loc 2 546 0
 209 005e 0023     		movs	r3, #0
 210              		.syntax unified
 211              	@ 546 "/home/selim/working/ChibiOS/os/ext/CMSIS/include/core_cmFunc.h" 1
 212 0060 83F31188 		MSR basepri, r3
 213              	@ 0 "" 2
 214              	.LVL12:
 215              		.thumb
 216              		.syntax unified
 217 0064 7047     		bx	lr
 218              	.L16:
 219 0066 00BF     		.align	2
 220              	.L15:
 221 0068 00000000 		.word	.LANCHOR0
 222              	.LBE165:
 223              	.LBE164:
 224              	.LBE163:
 225              	.LBE162:
 226              	.LBE161:
 227              		.cfi_endproc
 228              	.LFE230:
ARM GAS  /tmp/ccapcBze.s 			page 5


 229              		.size	wakeup, .-wakeup
 230              		.section	.text._scheduler_init,"ax",%progbits
 231              		.align	1
 232              		.p2align 4,,15
 233              		.global	_scheduler_init
 234              		.syntax unified
 235              		.thumb
 236              		.thumb_func
 237              		.fpu softvfp
 238              		.type	_scheduler_init, %function
 239              	_scheduler_init:
 240              	.LFB227:
 241              		.loc 1 65 0
 242              		.cfi_startproc
 243              		@ args = 0, pretend = 0, frame = 0
 244              		@ frame_needed = 0, uses_anonymous_args = 0
 245              		@ link register save eliminated.
 246              	.LVL13:
 247              	.LBB166:
 248              	.LBB167:
 249              		.loc 4 604 0
 250 0000 034B     		ldr	r3, .L18
 251              	.LBE167:
 252              	.LBE166:
 253              		.loc 1 68 0
 254 0002 0022     		movs	r2, #0
 255              	.LBB169:
 256              	.LBB168:
 257              		.loc 4 604 0
 258 0004 1B60     		str	r3, [r3]
 259              		.loc 4 605 0
 260 0006 5B60     		str	r3, [r3, #4]
 261              	.LVL14:
 262              	.LBE168:
 263              	.LBE169:
 264              		.loc 1 70 0
 265 0008 1B61     		str	r3, [r3, #16]
 266              		.loc 1 71 0
 267 000a 5B61     		str	r3, [r3, #20]
 268              		.loc 1 68 0
 269 000c 9A60     		str	r2, [r3, #8]
 270 000e 7047     		bx	lr
 271              	.L19:
 272              		.align	2
 273              	.L18:
 274 0010 00000000 		.word	.LANCHOR0
 275              		.cfi_endproc
 276              	.LFE227:
 277              		.size	_scheduler_init, .-_scheduler_init
 278              		.section	.text.chSchReadyI,"ax",%progbits
 279              		.align	1
 280              		.p2align 4,,15
 281              		.global	chSchReadyI
 282              		.syntax unified
 283              		.thumb
 284              		.thumb_func
 285              		.fpu softvfp
ARM GAS  /tmp/ccapcBze.s 			page 6


 286              		.type	chSchReadyI, %function
 287              	chSchReadyI:
 288              	.LFB228:
 289              		.loc 1 218 0
 290              		.cfi_startproc
 291              		@ args = 0, pretend = 0, frame = 0
 292              		@ frame_needed = 0, uses_anonymous_args = 0
 293              		@ link register save eliminated.
 294              	.LVL15:
 295              		.loc 1 227 0
 296 0000 0022     		movs	r2, #0
 297 0002 8168     		ldr	r1, [r0, #8]
 298              		.loc 1 228 0
 299 0004 074B     		ldr	r3, .L24
 300              		.loc 1 218 0
 301 0006 10B4     		push	{r4}
 302              		.cfi_def_cfa_offset 4
 303              		.cfi_offset 4, -4
 304              		.loc 1 218 0
 305 0008 0446     		mov	r4, r0
 306              		.loc 1 227 0
 307 000a 0277     		strb	r2, [r0, #28]
 308              	.LVL16:
 309              	.L21:
 310              		.loc 1 230 0 discriminator 1
 311 000c 1B68     		ldr	r3, [r3]
 312              	.LVL17:
 313              		.loc 1 231 0 discriminator 1
 314 000e 9A68     		ldr	r2, [r3, #8]
 315 0010 8A42     		cmp	r2, r1
 316 0012 FBD2     		bcs	.L21
 317              		.loc 1 234 0
 318 0014 5A68     		ldr	r2, [r3, #4]
 319 0016 6260     		str	r2, [r4, #4]
 320              		.loc 1 233 0
 321 0018 2360     		str	r3, [r4]
 322              		.loc 1 239 0
 323 001a 2046     		mov	r0, r4
 324              	.LVL18:
 325              		.loc 1 235 0
 326 001c 1460     		str	r4, [r2]
 327              		.loc 1 236 0
 328 001e 5C60     		str	r4, [r3, #4]
 329              		.loc 1 239 0
 330 0020 10BC     		pop	{r4}
 331              		.cfi_restore 4
 332              		.cfi_def_cfa_offset 0
 333              	.LVL19:
 334 0022 7047     		bx	lr
 335              	.L25:
 336              		.align	2
 337              	.L24:
 338 0024 00000000 		.word	.LANCHOR0
 339              		.cfi_endproc
 340              	.LFE228:
 341              		.size	chSchReadyI, .-chSchReadyI
 342              		.section	.text.chSchGoSleepS,"ax",%progbits
ARM GAS  /tmp/ccapcBze.s 			page 7


 343              		.align	1
 344              		.p2align 4,,15
 345              		.global	chSchGoSleepS
 346              		.syntax unified
 347              		.thumb
 348              		.thumb_func
 349              		.fpu softvfp
 350              		.type	chSchGoSleepS, %function
 351              	chSchGoSleepS:
 352              	.LFB229:
 353              		.loc 1 250 0
 354              		.cfi_startproc
 355              		@ args = 0, pretend = 0, frame = 0
 356              		@ frame_needed = 0, uses_anonymous_args = 0
 357              		@ link register save eliminated.
 358              	.LVL20:
 359              		.loc 1 255 0
 360 0000 074B     		ldr	r3, .L28
 361 0002 9969     		ldr	r1, [r3, #24]
 362              	.LVL21:
 363              	.LBB170:
 364              	.LBB171:
 365              		.loc 4 672 0
 366 0004 1A68     		ldr	r2, [r3]
 367              	.LBE171:
 368              	.LBE170:
 369              		.loc 1 250 0
 370 0006 10B4     		push	{r4}
 371              		.cfi_def_cfa_offset 4
 372              		.cfi_offset 4, -4
 373              		.loc 1 256 0
 374 0008 0877     		strb	r0, [r1, #28]
 375              	.LVL22:
 376              	.LBB174:
 377              	.LBB172:
 378              		.loc 4 674 0
 379 000a 1068     		ldr	r0, [r2]
 380              	.LVL23:
 381 000c 1860     		str	r0, [r3]
 382              	.LBE172:
 383              	.LBE174:
 384              		.loc 1 268 0
 385 000e 0124     		movs	r4, #1
 386              	.LBB175:
 387              	.LBB173:
 388              		.loc 4 675 0
 389 0010 4360     		str	r3, [r0, #4]
 390              	.LVL24:
 391              	.LBE173:
 392              	.LBE175:
 393              		.loc 1 268 0
 394 0012 1477     		strb	r4, [r2, #28]
 395              		.loc 1 269 0
 396 0014 1046     		mov	r0, r2
 397              		.loc 1 270 0
 398 0016 10BC     		pop	{r4}
 399              		.cfi_restore 4
ARM GAS  /tmp/ccapcBze.s 			page 8


 400              		.cfi_def_cfa_offset 0
 401              		.loc 1 262 0
 402 0018 9A61     		str	r2, [r3, #24]
 403              		.loc 1 269 0
 404 001a FFF7FEBF 		b	_port_switch
 405              	.LVL25:
 406              	.L29:
 407 001e 00BF     		.align	2
 408              	.L28:
 409 0020 00000000 		.word	.LANCHOR0
 410              		.cfi_endproc
 411              	.LFE229:
 412              		.size	chSchGoSleepS, .-chSchGoSleepS
 413              		.section	.text.chSchGoSleepTimeoutS,"ax",%progbits
 414              		.align	1
 415              		.p2align 4,,15
 416              		.global	chSchGoSleepTimeoutS
 417              		.syntax unified
 418              		.thumb
 419              		.thumb_func
 420              		.fpu softvfp
 421              		.type	chSchGoSleepTimeoutS, %function
 422              	chSchGoSleepTimeoutS:
 423              	.LFB231:
 424              		.loc 1 330 0
 425              		.cfi_startproc
 426              		@ args = 0, pretend = 0, frame = 24
 427              		@ frame_needed = 0, uses_anonymous_args = 0
 428              	.LVL26:
 429 0000 30B5     		push	{r4, r5, lr}
 430              		.cfi_def_cfa_offset 12
 431              		.cfi_offset 4, -12
 432              		.cfi_offset 5, -8
 433              		.cfi_offset 14, -4
 434              		.loc 1 334 0
 435 0002 4B1C     		adds	r3, r1, #1
 436              		.loc 1 330 0
 437 0004 87B0     		sub	sp, sp, #28
 438              		.cfi_def_cfa_offset 40
 439              		.loc 1 334 0
 440 0006 12D0     		beq	.L31
 441              	.LBB176:
 442              		.loc 1 337 0
 443 0008 0C4C     		ldr	r4, .L38
 444 000a 0D4A     		ldr	r2, .L38+4
 445 000c A369     		ldr	r3, [r4, #24]
 446 000e 0546     		mov	r5, r0
 447 0010 01A8     		add	r0, sp, #4
 448              	.LVL27:
 449 0012 FFF7FEFF 		bl	chVTDoSetI
 450              	.LVL28:
 451              		.loc 1 338 0
 452 0016 2846     		mov	r0, r5
 453 0018 FFF7FEFF 		bl	chSchGoSleepS
 454              	.LVL29:
 455              		.loc 1 339 0
 456 001c 049B     		ldr	r3, [sp, #16]
ARM GAS  /tmp/ccapcBze.s 			page 9


 457 001e 13B1     		cbz	r3, .L33
 458              		.loc 1 340 0
 459 0020 01A8     		add	r0, sp, #4
 460              	.LVL30:
 461 0022 FFF7FEFF 		bl	chVTDoResetI
 462              	.LVL31:
 463              	.L33:
 464              	.LBE176:
 465              		.loc 1 347 0
 466 0026 A369     		ldr	r3, [r4, #24]
 467              		.loc 1 348 0
 468 0028 186A     		ldr	r0, [r3, #32]
 469 002a 07B0     		add	sp, sp, #28
 470              		.cfi_remember_state
 471              		.cfi_def_cfa_offset 12
 472              		@ sp needed
 473 002c 30BD     		pop	{r4, r5, pc}
 474              	.LVL32:
 475              	.L31:
 476              		.cfi_restore_state
 477 002e 034C     		ldr	r4, .L38
 478              		.loc 1 344 0
 479 0030 FFF7FEFF 		bl	chSchGoSleepS
 480              	.LVL33:
 481              		.loc 1 347 0
 482 0034 A369     		ldr	r3, [r4, #24]
 483              		.loc 1 348 0
 484 0036 186A     		ldr	r0, [r3, #32]
 485 0038 07B0     		add	sp, sp, #28
 486              		.cfi_def_cfa_offset 12
 487              		@ sp needed
 488 003a 30BD     		pop	{r4, r5, pc}
 489              	.L39:
 490              		.align	2
 491              	.L38:
 492 003c 00000000 		.word	.LANCHOR0
 493 0040 00000000 		.word	wakeup
 494              		.cfi_endproc
 495              	.LFE231:
 496              		.size	chSchGoSleepTimeoutS, .-chSchGoSleepTimeoutS
 497              		.section	.text.chSchWakeupS,"ax",%progbits
 498              		.align	1
 499              		.p2align 4,,15
 500              		.global	chSchWakeupS
 501              		.syntax unified
 502              		.thumb
 503              		.thumb_func
 504              		.fpu softvfp
 505              		.type	chSchWakeupS, %function
 506              	chSchWakeupS:
 507              	.LFB232:
 508              		.loc 1 367 0
 509              		.cfi_startproc
 510              		@ args = 0, pretend = 0, frame = 0
 511              		@ frame_needed = 0, uses_anonymous_args = 0
 512              		@ link register save eliminated.
 513              	.LVL34:
ARM GAS  /tmp/ccapcBze.s 			page 10


 514              		.loc 1 379 0
 515 0000 144B     		ldr	r3, .L49
 516              		.loc 1 367 0
 517 0002 70B4     		push	{r4, r5, r6}
 518              		.cfi_def_cfa_offset 12
 519              		.cfi_offset 4, -12
 520              		.cfi_offset 5, -8
 521              		.cfi_offset 6, -4
 522              		.loc 1 367 0
 523 0004 0446     		mov	r4, r0
 524              		.loc 1 379 0
 525 0006 9D69     		ldr	r5, [r3, #24]
 526              		.loc 1 373 0
 527 0008 0162     		str	r1, [r0, #32]
 528              		.loc 1 379 0
 529 000a A868     		ldr	r0, [r5, #8]
 530              	.LVL35:
 531 000c A168     		ldr	r1, [r4, #8]
 532              	.LVL36:
 533 000e 8142     		cmp	r1, r0
 534              	.LBB177:
 535              	.LBB178:
 536              		.loc 1 227 0
 537 0010 4FF00002 		mov	r2, #0
 538              	.LBE178:
 539              	.LBE177:
 540              		.loc 1 379 0
 541 0014 0BD8     		bhi	.L41
 542              	.LVL37:
 543              	.LBB180:
 544              	.LBB179:
 545              		.loc 1 227 0
 546 0016 2277     		strb	r2, [r4, #28]
 547              	.LVL38:
 548              	.L42:
 549              		.loc 1 230 0
 550 0018 1B68     		ldr	r3, [r3]
 551              	.LVL39:
 552              		.loc 1 231 0
 553 001a 9A68     		ldr	r2, [r3, #8]
 554 001c 9142     		cmp	r1, r2
 555 001e FBD9     		bls	.L42
 556              		.loc 1 234 0
 557 0020 5A68     		ldr	r2, [r3, #4]
 558 0022 6260     		str	r2, [r4, #4]
 559              		.loc 1 233 0
 560 0024 2360     		str	r3, [r4]
 561              		.loc 1 235 0
 562 0026 1460     		str	r4, [r2]
 563              	.LVL40:
 564              		.loc 1 236 0
 565 0028 5C60     		str	r4, [r3, #4]
 566              	.LBE179:
 567              	.LBE180:
 568              		.loc 1 393 0
 569 002a 70BC     		pop	{r4, r5, r6}
 570              		.cfi_remember_state
ARM GAS  /tmp/ccapcBze.s 			page 11


 571              		.cfi_restore 6
 572              		.cfi_restore 5
 573              		.cfi_restore 4
 574              		.cfi_def_cfa_offset 0
 575              	.LVL41:
 576 002c 7047     		bx	lr
 577              	.LVL42:
 578              	.L41:
 579              		.cfi_restore_state
 580              	.LBB181:
 581              	.LBB182:
 582              	.LBB183:
 583              		.loc 1 227 0
 584 002e 2A77     		strb	r2, [r5, #28]
 585              	.LVL43:
 586              		.loc 1 228 0
 587 0030 1A46     		mov	r2, r3
 588              	.LVL44:
 589              	.L44:
 590              		.loc 1 230 0
 591 0032 1268     		ldr	r2, [r2]
 592              	.LVL45:
 593              		.loc 1 231 0
 594 0034 9168     		ldr	r1, [r2, #8]
 595 0036 8842     		cmp	r0, r1
 596 0038 FBD9     		bls	.L44
 597              		.loc 1 234 0
 598 003a 5068     		ldr	r0, [r2, #4]
 599 003c 6860     		str	r0, [r5, #4]
 600              	.LBE183:
 601              	.LBE182:
 602              		.loc 1 390 0
 603 003e 0126     		movs	r6, #1
 604              	.LBB185:
 605              	.LBB184:
 606              		.loc 1 233 0
 607 0040 2A60     		str	r2, [r5]
 608              		.loc 1 235 0
 609 0042 0560     		str	r5, [r0]
 610              		.loc 1 236 0
 611 0044 5560     		str	r5, [r2, #4]
 612              	.LVL46:
 613              	.LBE184:
 614              	.LBE185:
 615              		.loc 1 390 0
 616 0046 2677     		strb	r6, [r4, #28]
 617              		.loc 1 391 0
 618 0048 2946     		mov	r1, r5
 619 004a 2046     		mov	r0, r4
 620              		.loc 1 384 0
 621 004c 9C61     		str	r4, [r3, #24]
 622              	.LBE181:
 623              		.loc 1 393 0
 624 004e 70BC     		pop	{r4, r5, r6}
 625              		.cfi_restore 6
 626              		.cfi_restore 5
 627              		.cfi_restore 4
ARM GAS  /tmp/ccapcBze.s 			page 12


 628              		.cfi_def_cfa_offset 0
 629              	.LVL47:
 630              	.LBB186:
 631              		.loc 1 391 0
 632 0050 FFF7FEBF 		b	_port_switch
 633              	.LVL48:
 634              	.L50:
 635              		.align	2
 636              	.L49:
 637 0054 00000000 		.word	.LANCHOR0
 638              	.LBE186:
 639              		.cfi_endproc
 640              	.LFE232:
 641              		.size	chSchWakeupS, .-chSchWakeupS
 642              		.section	.text.chSchIsPreemptionRequired,"ax",%progbits
 643              		.align	1
 644              		.p2align 4,,15
 645              		.global	chSchIsPreemptionRequired
 646              		.syntax unified
 647              		.thumb
 648              		.thumb_func
 649              		.fpu softvfp
 650              		.type	chSchIsPreemptionRequired, %function
 651              	chSchIsPreemptionRequired:
 652              	.LFB234:
 653              		.loc 1 424 0
 654              		.cfi_startproc
 655              		@ args = 0, pretend = 0, frame = 0
 656              		@ frame_needed = 0, uses_anonymous_args = 0
 657              		@ link register save eliminated.
 658              	.LVL49:
 659              		.loc 1 425 0
 660 0000 044B     		ldr	r3, .L52
 661 0002 1A68     		ldr	r2, [r3]
 662              		.loc 1 426 0
 663 0004 9B69     		ldr	r3, [r3, #24]
 664              		.loc 1 437 0
 665 0006 9068     		ldr	r0, [r2, #8]
 666 0008 9B68     		ldr	r3, [r3, #8]
 667              		.loc 1 439 0
 668 000a 9842     		cmp	r0, r3
 669 000c 94BF     		ite	ls
 670 000e 0020     		movls	r0, #0
 671 0010 0120     		movhi	r0, #1
 672 0012 7047     		bx	lr
 673              	.L53:
 674              		.align	2
 675              	.L52:
 676 0014 00000000 		.word	.LANCHOR0
 677              		.cfi_endproc
 678              	.LFE234:
 679              		.size	chSchIsPreemptionRequired, .-chSchIsPreemptionRequired
 680              		.section	.text.chSchDoRescheduleBehind,"ax",%progbits
 681              		.align	1
 682              		.p2align 4,,15
 683              		.global	chSchDoRescheduleBehind
 684              		.syntax unified
ARM GAS  /tmp/ccapcBze.s 			page 13


 685              		.thumb
 686              		.thumb_func
 687              		.fpu softvfp
 688              		.type	chSchDoRescheduleBehind, %function
 689              	chSchDoRescheduleBehind:
 690              	.LFB235:
 691              		.loc 1 451 0
 692              		.cfi_startproc
 693              		@ args = 0, pretend = 0, frame = 0
 694              		@ frame_needed = 0, uses_anonymous_args = 0
 695              		@ link register save eliminated.
 696              		.loc 1 454 0
 697 0000 0D4A     		ldr	r2, .L59
 698              	.LBB187:
 699              	.LBB188:
 700              		.loc 4 672 0
 701 0002 1068     		ldr	r0, [r2]
 702              	.LBE188:
 703              	.LBE187:
 704              		.loc 1 451 0
 705 0004 70B4     		push	{r4, r5, r6}
 706              		.cfi_def_cfa_offset 12
 707              		.cfi_offset 4, -12
 708              		.cfi_offset 5, -8
 709              		.cfi_offset 6, -4
 710              	.LBB192:
 711              	.LBB189:
 712              		.loc 4 674 0
 713 0006 0368     		ldr	r3, [r0]
 714              	.LBE189:
 715              	.LBE192:
 716              		.loc 1 454 0
 717 0008 9469     		ldr	r4, [r2, #24]
 718              	.LVL50:
 719              	.LBB193:
 720              	.LBB190:
 721              		.loc 4 674 0
 722 000a 1360     		str	r3, [r2]
 723              	.LBE190:
 724              	.LBE193:
 725              		.loc 1 462 0
 726 000c 0126     		movs	r6, #1
 727              	.LBB194:
 728              	.LBB195:
 729              		.loc 1 227 0
 730 000e 0025     		movs	r5, #0
 731              	.LBE195:
 732              	.LBE194:
 733              		.loc 1 458 0
 734 0010 A168     		ldr	r1, [r4, #8]
 735              	.LBB198:
 736              	.LBB191:
 737              		.loc 4 675 0
 738 0012 5A60     		str	r2, [r3, #4]
 739              	.LVL51:
 740              	.LBE191:
 741              	.LBE198:
ARM GAS  /tmp/ccapcBze.s 			page 14


 742              		.loc 1 462 0
 743 0014 0677     		strb	r6, [r0, #28]
 744              	.LVL52:
 745              		.loc 1 456 0
 746 0016 9061     		str	r0, [r2, #24]
 747              	.LBB199:
 748              	.LBB196:
 749              		.loc 1 227 0
 750 0018 2577     		strb	r5, [r4, #28]
 751              	.LVL53:
 752 001a 00E0     		b	.L56
 753              	.LVL54:
 754              	.L58:
 755 001c 1B68     		ldr	r3, [r3]
 756              	.L56:
 757              		.loc 1 231 0
 758 001e 9A68     		ldr	r2, [r3, #8]
 759 0020 9142     		cmp	r1, r2
 760 0022 FBD9     		bls	.L58
 761              		.loc 1 234 0
 762 0024 5A68     		ldr	r2, [r3, #4]
 763 0026 6260     		str	r2, [r4, #4]
 764              		.loc 1 233 0
 765 0028 2360     		str	r3, [r4]
 766              	.LBE196:
 767              	.LBE199:
 768              		.loc 1 467 0
 769 002a 2146     		mov	r1, r4
 770              	.LBB200:
 771              	.LBB197:
 772              		.loc 1 235 0
 773 002c 1460     		str	r4, [r2]
 774              		.loc 1 236 0
 775 002e 5C60     		str	r4, [r3, #4]
 776              	.LVL55:
 777              	.LBE197:
 778              	.LBE200:
 779              		.loc 1 468 0
 780 0030 70BC     		pop	{r4, r5, r6}
 781              		.cfi_restore 6
 782              		.cfi_restore 5
 783              		.cfi_restore 4
 784              		.cfi_def_cfa_offset 0
 785              	.LVL56:
 786              		.loc 1 467 0
 787 0032 FFF7FEBF 		b	_port_switch
 788              	.LVL57:
 789              	.L60:
 790 0036 00BF     		.align	2
 791              	.L59:
 792 0038 00000000 		.word	.LANCHOR0
 793              		.cfi_endproc
 794              	.LFE235:
 795              		.size	chSchDoRescheduleBehind, .-chSchDoRescheduleBehind
 796              		.section	.text.chSchDoRescheduleAhead,"ax",%progbits
 797              		.align	1
 798              		.p2align 4,,15
ARM GAS  /tmp/ccapcBze.s 			page 15


 799              		.global	chSchDoRescheduleAhead
 800              		.syntax unified
 801              		.thumb
 802              		.thumb_func
 803              		.fpu softvfp
 804              		.type	chSchDoRescheduleAhead, %function
 805              	chSchDoRescheduleAhead:
 806              	.LFB236:
 807              		.loc 1 479 0
 808              		.cfi_startproc
 809              		@ args = 0, pretend = 0, frame = 0
 810              		@ frame_needed = 0, uses_anonymous_args = 0
 811              		@ link register save eliminated.
 812              		.loc 1 482 0
 813 0000 0D4A     		ldr	r2, .L66
 814              	.LBB201:
 815              	.LBB202:
 816              		.loc 4 672 0
 817 0002 1068     		ldr	r0, [r2]
 818              	.LBE202:
 819              	.LBE201:
 820              		.loc 1 479 0
 821 0004 70B4     		push	{r4, r5, r6}
 822              		.cfi_def_cfa_offset 12
 823              		.cfi_offset 4, -12
 824              		.cfi_offset 5, -8
 825              		.cfi_offset 6, -4
 826              	.LBB206:
 827              	.LBB203:
 828              		.loc 4 674 0
 829 0006 0368     		ldr	r3, [r0]
 830              	.LBE203:
 831              	.LBE206:
 832              		.loc 1 482 0
 833 0008 9469     		ldr	r4, [r2, #24]
 834              	.LVL58:
 835              	.LBB207:
 836              	.LBB204:
 837              		.loc 4 674 0
 838 000a 1360     		str	r3, [r2]
 839              	.LBE204:
 840              	.LBE207:
 841              		.loc 1 490 0
 842 000c 0126     		movs	r6, #1
 843              		.loc 1 492 0
 844 000e 0025     		movs	r5, #0
 845              		.loc 1 486 0
 846 0010 A168     		ldr	r1, [r4, #8]
 847              	.LBB208:
 848              	.LBB205:
 849              		.loc 4 675 0
 850 0012 5A60     		str	r2, [r3, #4]
 851              	.LVL59:
 852              	.LBE205:
 853              	.LBE208:
 854              		.loc 1 490 0
 855 0014 0677     		strb	r6, [r0, #28]
ARM GAS  /tmp/ccapcBze.s 			page 16


 856              		.loc 1 484 0
 857 0016 9061     		str	r0, [r2, #24]
 858              		.loc 1 492 0
 859 0018 2577     		strb	r5, [r4, #28]
 860              	.LVL60:
 861 001a 00E0     		b	.L63
 862              	.LVL61:
 863              	.L65:
 864 001c 1B68     		ldr	r3, [r3]
 865              	.L63:
 866              		.loc 1 496 0 discriminator 1
 867 001e 9A68     		ldr	r2, [r3, #8]
 868 0020 9142     		cmp	r1, r2
 869 0022 FBD3     		bcc	.L65
 870              		.loc 1 499 0
 871 0024 5A68     		ldr	r2, [r3, #4]
 872 0026 6260     		str	r2, [r4, #4]
 873              		.loc 1 498 0
 874 0028 2360     		str	r3, [r4]
 875              		.loc 1 503 0
 876 002a 2146     		mov	r1, r4
 877              		.loc 1 500 0
 878 002c 1460     		str	r4, [r2]
 879              		.loc 1 501 0
 880 002e 5C60     		str	r4, [r3, #4]
 881              		.loc 1 504 0
 882 0030 70BC     		pop	{r4, r5, r6}
 883              		.cfi_restore 6
 884              		.cfi_restore 5
 885              		.cfi_restore 4
 886              		.cfi_def_cfa_offset 0
 887              	.LVL62:
 888              		.loc 1 503 0
 889 0032 FFF7FEBF 		b	_port_switch
 890              	.LVL63:
 891              	.L67:
 892 0036 00BF     		.align	2
 893              	.L66:
 894 0038 00000000 		.word	.LANCHOR0
 895              		.cfi_endproc
 896              	.LFE236:
 897              		.size	chSchDoRescheduleAhead, .-chSchDoRescheduleAhead
 898              		.section	.text.chSchRescheduleS,"ax",%progbits
 899              		.align	1
 900              		.p2align 4,,15
 901              		.global	chSchRescheduleS
 902              		.syntax unified
 903              		.thumb
 904              		.thumb_func
 905              		.fpu softvfp
 906              		.type	chSchRescheduleS, %function
 907              	chSchRescheduleS:
 908              	.LFB233:
 909              		.loc 1 402 0
 910              		.cfi_startproc
 911              		@ args = 0, pretend = 0, frame = 0
 912              		@ frame_needed = 0, uses_anonymous_args = 0
ARM GAS  /tmp/ccapcBze.s 			page 17


 913              		@ link register save eliminated.
 914              	.LBB209:
 915              	.LBB210:
 916              		.loc 4 713 0
 917 0000 044B     		ldr	r3, .L71
 918 0002 1A68     		ldr	r2, [r3]
 919 0004 9B69     		ldr	r3, [r3, #24]
 920              	.LBE210:
 921              	.LBE209:
 922              		.loc 1 406 0
 923 0006 9268     		ldr	r2, [r2, #8]
 924 0008 9B68     		ldr	r3, [r3, #8]
 925 000a 9A42     		cmp	r2, r3
 926 000c 00D8     		bhi	.L70
 927 000e 7047     		bx	lr
 928              	.L70:
 929              		.loc 1 407 0
 930 0010 FFF7FEBF 		b	chSchDoRescheduleAhead
 931              	.LVL64:
 932              	.L72:
 933              		.align	2
 934              	.L71:
 935 0014 00000000 		.word	.LANCHOR0
 936              		.cfi_endproc
 937              	.LFE233:
 938              		.size	chSchRescheduleS, .-chSchRescheduleS
 939              		.section	.text.chSchDoReschedule,"ax",%progbits
 940              		.align	1
 941              		.p2align 4,,15
 942              		.global	chSchDoReschedule
 943              		.syntax unified
 944              		.thumb
 945              		.thumb_func
 946              		.fpu softvfp
 947              		.type	chSchDoReschedule, %function
 948              	chSchDoReschedule:
 949              	.LFB237:
 950              		.loc 1 516 0
 951              		.cfi_startproc
 952              		@ args = 0, pretend = 0, frame = 0
 953              		@ frame_needed = 0, uses_anonymous_args = 0
 954              		@ link register save eliminated.
 955              		.loc 1 534 0
 956 0000 FFF7FEBF 		b	chSchDoRescheduleAhead
 957              	.LVL65:
 958              		.cfi_endproc
 959              	.LFE237:
 960              		.size	chSchDoReschedule, .-chSchDoReschedule
 961              		.global	ch
 962              		.section	.bss.ch,"aw",%nobits
 963              		.align	3
 964              		.set	.LANCHOR0,. + 0
 965              		.type	ch, %object
 966              		.size	ch, 336
 967              	ch:
 968 0000 00000000 		.space	336
 968      00000000 
ARM GAS  /tmp/ccapcBze.s 			page 18


 968      00000000 
 968      00000000 
 968      00000000 
 969              		.text
 970              	.Letext0:
 971              		.file 5 "/usr/lib/gcc/arm-none-eabi/6.2.1/include/stddef.h"
 972              		.file 6 "/usr/arm-none-eabi/include/machine/_default_types.h"
 973              		.file 7 "/usr/arm-none-eabi/include/sys/_stdint.h"
 974              		.file 8 "/home/selim/working/ChibiOS/os/rt/ports/ARMCMx/compilers/GCC/chtypes.h"
 975              		.file 9 "/home/selim/working/ChibiOS/os/rt/include/chsystypes.h"
 976              		.file 10 "/home/selim/working/ChibiOS/os/ext/CMSIS/include/core_cm4.h"
 977              		.file 11 "/home/selim/working/ChibiOS/os/ext/CMSIS/ST/system_stm32f4xx.h"
 978              		.file 12 "/home/selim/working/ChibiOS/os/rt/ports/ARMCMx/chcore.h"
 979              		.file 13 "/home/selim/working/ChibiOS/os/rt/ports/ARMCMx/chcore_v7m.h"
 980              		.file 14 "/home/selim/working/ChibiOS/os/rt/include/chtm.h"
 981              		.file 15 "/home/selim/working/ChibiOS/os/rt/include/chmtx.h"
 982              		.file 16 "/home/selim/working/ChibiOS/os/rt/include/chregistry.h"
 983              		.file 17 "/home/selim/working/ChibiOS/os/rt/include/chvt.h"
 984              		.file 18 "/home/selim/working/ChibiOS/os/rt/include/chsys.h"
 985              		.section	.debug_info,"",%progbits
 986              	.Ldebug_info0:
 987 0000 840E0000 		.4byte	0xe84
 988 0004 0400     		.2byte	0x4
 989 0006 00000000 		.4byte	.Ldebug_abbrev0
 990 000a 04       		.byte	0x4
 991 000b 01       		.uleb128 0x1
 992 000c AF030000 		.4byte	.LASF158
 993 0010 0C       		.byte	0xc
 994 0011 1A050000 		.4byte	.LASF159
 995 0015 58010000 		.4byte	.Ldebug_ranges0+0x158
 996 0019 00000000 		.4byte	0
 997 001d 00000000 		.4byte	.Ldebug_line0
 998 0021 02       		.uleb128 0x2
 999 0022 04       		.byte	0x4
 1000 0023 05       		.byte	0x5
 1001 0024 696E7400 		.ascii	"int\000"
 1002 0028 03       		.uleb128 0x3
 1003 0029 1A000000 		.4byte	.LASF4
 1004 002d 05       		.byte	0x5
 1005 002e D8       		.byte	0xd8
 1006 002f 33000000 		.4byte	0x33
 1007 0033 04       		.uleb128 0x4
 1008 0034 04       		.byte	0x4
 1009 0035 07       		.byte	0x7
 1010 0036 5E020000 		.4byte	.LASF0
 1011 003a 04       		.uleb128 0x4
 1012 003b 08       		.byte	0x8
 1013 003c 05       		.byte	0x5
 1014 003d 36010000 		.4byte	.LASF1
 1015 0041 04       		.uleb128 0x4
 1016 0042 08       		.byte	0x8
 1017 0043 04       		.byte	0x4
 1018 0044 A3030000 		.4byte	.LASF2
 1019 0048 04       		.uleb128 0x4
 1020 0049 01       		.byte	0x1
 1021 004a 06       		.byte	0x6
 1022 004b 44010000 		.4byte	.LASF3
ARM GAS  /tmp/ccapcBze.s 			page 19


 1023 004f 03       		.uleb128 0x3
 1024 0050 54000000 		.4byte	.LASF5
 1025 0054 06       		.byte	0x6
 1026 0055 2B       		.byte	0x2b
 1027 0056 5A000000 		.4byte	0x5a
 1028 005a 04       		.uleb128 0x4
 1029 005b 01       		.byte	0x1
 1030 005c 08       		.byte	0x8
 1031 005d 89050000 		.4byte	.LASF6
 1032 0061 04       		.uleb128 0x4
 1033 0062 02       		.byte	0x2
 1034 0063 05       		.byte	0x5
 1035 0064 A0050000 		.4byte	.LASF7
 1036 0068 03       		.uleb128 0x3
 1037 0069 D1060000 		.4byte	.LASF8
 1038 006d 06       		.byte	0x6
 1039 006e 39       		.byte	0x39
 1040 006f 73000000 		.4byte	0x73
 1041 0073 04       		.uleb128 0x4
 1042 0074 02       		.byte	0x2
 1043 0075 07       		.byte	0x7
 1044 0076 D8020000 		.4byte	.LASF9
 1045 007a 03       		.uleb128 0x3
 1046 007b D4000000 		.4byte	.LASF10
 1047 007f 06       		.byte	0x6
 1048 0080 4D       		.byte	0x4d
 1049 0081 85000000 		.4byte	0x85
 1050 0085 04       		.uleb128 0x4
 1051 0086 04       		.byte	0x4
 1052 0087 05       		.byte	0x5
 1053 0088 A0010000 		.4byte	.LASF11
 1054 008c 03       		.uleb128 0x3
 1055 008d 2A070000 		.4byte	.LASF12
 1056 0091 06       		.byte	0x6
 1057 0092 4F       		.byte	0x4f
 1058 0093 97000000 		.4byte	0x97
 1059 0097 04       		.uleb128 0x4
 1060 0098 04       		.byte	0x4
 1061 0099 07       		.byte	0x7
 1062 009a B3060000 		.4byte	.LASF13
 1063 009e 03       		.uleb128 0x3
 1064 009f FC040000 		.4byte	.LASF14
 1065 00a3 06       		.byte	0x6
 1066 00a4 69       		.byte	0x69
 1067 00a5 A9000000 		.4byte	0xa9
 1068 00a9 04       		.uleb128 0x4
 1069 00aa 08       		.byte	0x8
 1070 00ab 07       		.byte	0x7
 1071 00ac 8E000000 		.4byte	.LASF15
 1072 00b0 03       		.uleb128 0x3
 1073 00b1 9F070000 		.4byte	.LASF16
 1074 00b5 07       		.byte	0x7
 1075 00b6 18       		.byte	0x18
 1076 00b7 4F000000 		.4byte	0x4f
 1077 00bb 03       		.uleb128 0x3
 1078 00bc 7A020000 		.4byte	.LASF17
 1079 00c0 07       		.byte	0x7
ARM GAS  /tmp/ccapcBze.s 			page 20


 1080 00c1 24       		.byte	0x24
 1081 00c2 68000000 		.4byte	0x68
 1082 00c6 03       		.uleb128 0x3
 1083 00c7 81050000 		.4byte	.LASF18
 1084 00cb 07       		.byte	0x7
 1085 00cc 2C       		.byte	0x2c
 1086 00cd 7A000000 		.4byte	0x7a
 1087 00d1 05       		.uleb128 0x5
 1088 00d2 C6000000 		.4byte	0xc6
 1089 00d6 03       		.uleb128 0x3
 1090 00d7 72060000 		.4byte	.LASF19
 1091 00db 07       		.byte	0x7
 1092 00dc 30       		.byte	0x30
 1093 00dd 8C000000 		.4byte	0x8c
 1094 00e1 03       		.uleb128 0x3
 1095 00e2 28000000 		.4byte	.LASF20
 1096 00e6 07       		.byte	0x7
 1097 00e7 3C       		.byte	0x3c
 1098 00e8 9E000000 		.4byte	0x9e
 1099 00ec 03       		.uleb128 0x3
 1100 00ed 5C070000 		.4byte	.LASF21
 1101 00f1 08       		.byte	0x8
 1102 00f2 46       		.byte	0x46
 1103 00f3 D6000000 		.4byte	0xd6
 1104 00f7 03       		.uleb128 0x3
 1105 00f8 DD050000 		.4byte	.LASF22
 1106 00fc 08       		.byte	0x8
 1107 00fd 49       		.byte	0x49
 1108 00fe B0000000 		.4byte	0xb0
 1109 0102 03       		.uleb128 0x3
 1110 0103 B7010000 		.4byte	.LASF23
 1111 0107 08       		.byte	0x8
 1112 0108 4A       		.byte	0x4a
 1113 0109 B0000000 		.4byte	0xb0
 1114 010d 03       		.uleb128 0x3
 1115 010e 07050000 		.4byte	.LASF24
 1116 0112 08       		.byte	0x8
 1117 0113 4B       		.byte	0x4b
 1118 0114 B0000000 		.4byte	0xb0
 1119 0118 03       		.uleb128 0x3
 1120 0119 50050000 		.4byte	.LASF25
 1121 011d 08       		.byte	0x8
 1122 011e 4D       		.byte	0x4d
 1123 011f D6000000 		.4byte	0xd6
 1124 0123 03       		.uleb128 0x3
 1125 0124 02030000 		.4byte	.LASF26
 1126 0128 08       		.byte	0x8
 1127 0129 4E       		.byte	0x4e
 1128 012a C6000000 		.4byte	0xc6
 1129 012e 03       		.uleb128 0x3
 1130 012f 48000000 		.4byte	.LASF27
 1131 0133 08       		.byte	0x8
 1132 0134 50       		.byte	0x50
 1133 0135 D6000000 		.4byte	0xd6
 1134 0139 03       		.uleb128 0x3
 1135 013a 58020000 		.4byte	.LASF28
 1136 013e 08       		.byte	0x8
ARM GAS  /tmp/ccapcBze.s 			page 21


 1137 013f 52       		.byte	0x52
 1138 0140 C6000000 		.4byte	0xc6
 1139 0144 03       		.uleb128 0x3
 1140 0145 0C070000 		.4byte	.LASF29
 1141 0149 09       		.byte	0x9
 1142 014a 33       		.byte	0x33
 1143 014b D6000000 		.4byte	0xd6
 1144 014f 03       		.uleb128 0x3
 1145 0150 F1060000 		.4byte	.LASF30
 1146 0154 09       		.byte	0x9
 1147 0155 3F       		.byte	0x3f
 1148 0156 5A010000 		.4byte	0x15a
 1149 015a 06       		.uleb128 0x6
 1150 015b EB020000 		.4byte	.LASF50
 1151 015f 44       		.byte	0x44
 1152 0160 04       		.byte	0x4
 1153 0161 C2       		.byte	0xc2
 1154 0162 47020000 		.4byte	0x247
 1155 0166 07       		.uleb128 0x7
 1156 0167 D6050000 		.4byte	.LASF31
 1157 016b 04       		.byte	0x4
 1158 016c C3       		.byte	0xc3
 1159 016d 52020000 		.4byte	0x252
 1160 0171 00       		.byte	0
 1161 0172 07       		.uleb128 0x7
 1162 0173 49050000 		.4byte	.LASF32
 1163 0177 04       		.byte	0x4
 1164 0178 C5       		.byte	0xc5
 1165 0179 52020000 		.4byte	0x252
 1166 017d 04       		.byte	0x4
 1167 017e 07       		.uleb128 0x7
 1168 017f 12010000 		.4byte	.LASF33
 1169 0183 04       		.byte	0x4
 1170 0184 C7       		.byte	0xc7
 1171 0185 18010000 		.4byte	0x118
 1172 0189 08       		.byte	0x8
 1173 018a 07       		.uleb128 0x7
 1174 018b C7040000 		.4byte	.LASF34
 1175 018f 04       		.byte	0x4
 1176 0190 C8       		.byte	0xc8
 1177 0191 99040000 		.4byte	0x499
 1178 0195 0C       		.byte	0xc
 1179 0196 07       		.uleb128 0x7
 1180 0197 EF010000 		.4byte	.LASF35
 1181 019b 04       		.byte	0x4
 1182 019c CA       		.byte	0xca
 1183 019d 52020000 		.4byte	0x252
 1184 01a1 10       		.byte	0x10
 1185 01a2 07       		.uleb128 0x7
 1186 01a3 B9040000 		.4byte	.LASF36
 1187 01a7 04       		.byte	0x4
 1188 01a8 CB       		.byte	0xcb
 1189 01a9 52020000 		.4byte	0x252
 1190 01ad 14       		.byte	0x14
 1191 01ae 07       		.uleb128 0x7
 1192 01af C4070000 		.4byte	.LASF37
 1193 01b3 04       		.byte	0x4
ARM GAS  /tmp/ccapcBze.s 			page 22


 1194 01b4 D2       		.byte	0xd2
 1195 01b5 18060000 		.4byte	0x618
 1196 01b9 18       		.byte	0x18
 1197 01ba 07       		.uleb128 0x7
 1198 01bb AA050000 		.4byte	.LASF38
 1199 01bf 04       		.byte	0x4
 1200 01c0 DD       		.byte	0xdd
 1201 01c1 02010000 		.4byte	0x102
 1202 01c5 1C       		.byte	0x1c
 1203 01c6 07       		.uleb128 0x7
 1204 01c7 F4050000 		.4byte	.LASF39
 1205 01cb 04       		.byte	0x4
 1206 01cc E1       		.byte	0xe1
 1207 01cd F7000000 		.4byte	0xf7
 1208 01d1 1D       		.byte	0x1d
 1209 01d2 07       		.uleb128 0x7
 1210 01d3 92070000 		.4byte	.LASF40
 1211 01d7 04       		.byte	0x4
 1212 01d8 E6       		.byte	0xe6
 1213 01d9 0D010000 		.4byte	0x10d
 1214 01dd 1E       		.byte	0x1e
 1215 01de 08       		.uleb128 0x8
 1216 01df 705F7500 		.ascii	"p_u\000"
 1217 01e3 04       		.byte	0x4
 1218 01e4 3101     		.2byte	0x131
 1219 01e6 53050000 		.4byte	0x553
 1220 01ea 20       		.byte	0x20
 1221 01eb 09       		.uleb128 0x9
 1222 01ec 66030000 		.4byte	.LASF41
 1223 01f0 04       		.byte	0x4
 1224 01f1 3601     		.2byte	0x136
 1225 01f3 58020000 		.4byte	0x258
 1226 01f7 24       		.byte	0x24
 1227 01f8 09       		.uleb128 0x9
 1228 01f9 B0020000 		.4byte	.LASF42
 1229 01fd 04       		.byte	0x4
 1230 01fe 3C01     		.2byte	0x13c
 1231 0200 7C020000 		.4byte	0x27c
 1232 0204 28       		.byte	0x28
 1233 0205 09       		.uleb128 0x9
 1234 0206 04080000 		.4byte	.LASF43
 1235 020a 04       		.byte	0x4
 1236 020b 4001     		.2byte	0x140
 1237 020d 23010000 		.4byte	0x123
 1238 0211 30       		.byte	0x30
 1239 0212 09       		.uleb128 0x9
 1240 0213 67060000 		.4byte	.LASF44
 1241 0217 04       		.byte	0x4
 1242 0218 4601     		.2byte	0x146
 1243 021a 2E010000 		.4byte	0x12e
 1244 021e 34       		.byte	0x34
 1245 021f 09       		.uleb128 0x9
 1246 0220 1B030000 		.4byte	.LASF45
 1247 0224 04       		.byte	0x4
 1248 0225 4D01     		.2byte	0x14d
 1249 0227 12060000 		.4byte	0x612
 1250 022b 38       		.byte	0x38
ARM GAS  /tmp/ccapcBze.s 			page 23


 1251 022c 09       		.uleb128 0x9
 1252 022d 16070000 		.4byte	.LASF46
 1253 0231 04       		.byte	0x4
 1254 0232 5101     		.2byte	0x151
 1255 0234 18010000 		.4byte	0x118
 1256 0238 3C       		.byte	0x3c
 1257 0239 09       		.uleb128 0x9
 1258 023a 6D010000 		.4byte	.LASF47
 1259 023e 04       		.byte	0x4
 1260 023f 5801     		.2byte	0x158
 1261 0241 2F030000 		.4byte	0x32f
 1262 0245 40       		.byte	0x40
 1263 0246 00       		.byte	0
 1264 0247 03       		.uleb128 0x3
 1265 0248 79030000 		.4byte	.LASF48
 1266 024c 09       		.byte	0x9
 1267 024d 44       		.byte	0x44
 1268 024e 52020000 		.4byte	0x252
 1269 0252 0A       		.uleb128 0xa
 1270 0253 04       		.byte	0x4
 1271 0254 4F010000 		.4byte	0x14f
 1272 0258 03       		.uleb128 0x3
 1273 0259 CB070000 		.4byte	.LASF49
 1274 025d 09       		.byte	0x9
 1275 025e 49       		.byte	0x49
 1276 025f 63020000 		.4byte	0x263
 1277 0263 06       		.uleb128 0x6
 1278 0264 9B060000 		.4byte	.LASF51
 1279 0268 04       		.byte	0x4
 1280 0269 04       		.byte	0x4
 1281 026a B0       		.byte	0xb0
 1282 026b 7C020000 		.4byte	0x27c
 1283 026f 07       		.uleb128 0x7
 1284 0270 D6050000 		.4byte	.LASF31
 1285 0274 04       		.byte	0x4
 1286 0275 B1       		.byte	0xb1
 1287 0276 52020000 		.4byte	0x252
 1288 027a 00       		.byte	0
 1289 027b 00       		.byte	0
 1290 027c 03       		.uleb128 0x3
 1291 027d 1E060000 		.4byte	.LASF52
 1292 0281 09       		.byte	0x9
 1293 0282 50       		.byte	0x50
 1294 0283 87020000 		.4byte	0x287
 1295 0287 06       		.uleb128 0x6
 1296 0288 01010000 		.4byte	.LASF53
 1297 028c 08       		.byte	0x8
 1298 028d 04       		.byte	0x4
 1299 028e B7       		.byte	0xb7
 1300 028f AC020000 		.4byte	0x2ac
 1301 0293 07       		.uleb128 0x7
 1302 0294 D6050000 		.4byte	.LASF31
 1303 0298 04       		.byte	0x4
 1304 0299 B8       		.byte	0xb8
 1305 029a 52020000 		.4byte	0x252
 1306 029e 00       		.byte	0
 1307 029f 07       		.uleb128 0x7
ARM GAS  /tmp/ccapcBze.s 			page 24


 1308 02a0 49050000 		.4byte	.LASF32
 1309 02a4 04       		.byte	0x4
 1310 02a5 B9       		.byte	0xb9
 1311 02a6 52020000 		.4byte	0x252
 1312 02aa 04       		.byte	0x4
 1313 02ab 00       		.byte	0
 1314 02ac 03       		.uleb128 0x3
 1315 02ad 0D000000 		.4byte	.LASF54
 1316 02b1 09       		.byte	0x9
 1317 02b2 57       		.byte	0x57
 1318 02b3 B7020000 		.4byte	0x2b7
 1319 02b7 0B       		.uleb128 0xb
 1320 02b8 C4020000 		.4byte	.LASF55
 1321 02bc 1C       		.byte	0x1c
 1322 02bd 04       		.byte	0x4
 1323 02be 9001     		.2byte	0x190
 1324 02c0 13030000 		.4byte	0x313
 1325 02c4 09       		.uleb128 0x9
 1326 02c5 87060000 		.4byte	.LASF56
 1327 02c9 04       		.byte	0x4
 1328 02ca 9101     		.2byte	0x191
 1329 02cc 7C020000 		.4byte	0x27c
 1330 02d0 00       		.byte	0
 1331 02d1 09       		.uleb128 0x9
 1332 02d2 5F030000 		.4byte	.LASF57
 1333 02d6 04       		.byte	0x4
 1334 02d7 9201     		.2byte	0x192
 1335 02d9 18010000 		.4byte	0x118
 1336 02dd 08       		.byte	0x8
 1337 02de 09       		.uleb128 0x9
 1338 02df C1040000 		.4byte	.LASF58
 1339 02e3 04       		.byte	0x4
 1340 02e4 9401     		.2byte	0x194
 1341 02e6 99040000 		.4byte	0x499
 1342 02ea 0C       		.byte	0xc
 1343 02eb 09       		.uleb128 0x9
 1344 02ec 10020000 		.4byte	.LASF59
 1345 02f0 04       		.byte	0x4
 1346 02f1 9701     		.2byte	0x197
 1347 02f3 52020000 		.4byte	0x252
 1348 02f7 10       		.byte	0x10
 1349 02f8 09       		.uleb128 0x9
 1350 02f9 F4040000 		.4byte	.LASF60
 1351 02fd 04       		.byte	0x4
 1352 02fe 9801     		.2byte	0x198
 1353 0300 52020000 		.4byte	0x252
 1354 0304 14       		.byte	0x14
 1355 0305 09       		.uleb128 0x9
 1356 0306 EA040000 		.4byte	.LASF61
 1357 030a 04       		.byte	0x4
 1358 030b 9B01     		.2byte	0x19b
 1359 030d 52020000 		.4byte	0x252
 1360 0311 18       		.byte	0x18
 1361 0312 00       		.byte	0
 1362 0313 03       		.uleb128 0x3
 1363 0314 21070000 		.4byte	.LASF62
 1364 0318 09       		.byte	0x9
ARM GAS  /tmp/ccapcBze.s 			page 25


 1365 0319 5C       		.byte	0x5c
 1366 031a 1E030000 		.4byte	0x31e
 1367 031e 0A       		.uleb128 0xa
 1368 031f 04       		.byte	0x4
 1369 0320 24030000 		.4byte	0x324
 1370 0324 0C       		.uleb128 0xc
 1371 0325 2F030000 		.4byte	0x32f
 1372 0329 0D       		.uleb128 0xd
 1373 032a 2F030000 		.4byte	0x32f
 1374 032e 00       		.byte	0
 1375 032f 0E       		.uleb128 0xe
 1376 0330 04       		.byte	0x4
 1377 0331 03       		.uleb128 0x3
 1378 0332 4F030000 		.4byte	.LASF63
 1379 0336 09       		.byte	0x9
 1380 0337 61       		.byte	0x61
 1381 0338 3C030000 		.4byte	0x33c
 1382 033c 0B       		.uleb128 0xb
 1383 033d 2E060000 		.4byte	.LASF64
 1384 0341 14       		.byte	0x14
 1385 0342 04       		.byte	0x4
 1386 0343 6B01     		.2byte	0x16b
 1387 0345 8B030000 		.4byte	0x38b
 1388 0349 09       		.uleb128 0x9
 1389 034a 72020000 		.4byte	.LASF65
 1390 034e 04       		.byte	0x4
 1391 034f 6C01     		.2byte	0x16c
 1392 0351 2F060000 		.4byte	0x62f
 1393 0355 00       		.byte	0
 1394 0356 09       		.uleb128 0x9
 1395 0357 33020000 		.4byte	.LASF66
 1396 035b 04       		.byte	0x4
 1397 035c 6D01     		.2byte	0x16d
 1398 035e 2F060000 		.4byte	0x62f
 1399 0362 04       		.byte	0x4
 1400 0363 09       		.uleb128 0x9
 1401 0364 A7020000 		.4byte	.LASF67
 1402 0368 04       		.byte	0x4
 1403 0369 6E01     		.2byte	0x16e
 1404 036b 44010000 		.4byte	0x144
 1405 036f 08       		.byte	0x8
 1406 0370 09       		.uleb128 0x9
 1407 0371 20080000 		.4byte	.LASF68
 1408 0375 04       		.byte	0x4
 1409 0376 6F01     		.2byte	0x16f
 1410 0378 13030000 		.4byte	0x313
 1411 037c 0C       		.byte	0xc
 1412 037d 09       		.uleb128 0x9
 1413 037e 77070000 		.4byte	.LASF69
 1414 0382 04       		.byte	0x4
 1415 0383 7101     		.2byte	0x171
 1416 0385 2F030000 		.4byte	0x32f
 1417 0389 10       		.byte	0x10
 1418 038a 00       		.byte	0
 1419 038b 03       		.uleb128 0x3
 1420 038c DE000000 		.4byte	.LASF70
 1421 0390 09       		.byte	0x9
ARM GAS  /tmp/ccapcBze.s 			page 26


 1422 0391 66       		.byte	0x66
 1423 0392 96030000 		.4byte	0x396
 1424 0396 0B       		.uleb128 0xb
 1425 0397 8C030000 		.4byte	.LASF71
 1426 039b 10       		.byte	0x10
 1427 039c 04       		.byte	0x4
 1428 039d 7B01     		.2byte	0x17b
 1429 039f D8030000 		.4byte	0x3d8
 1430 03a3 09       		.uleb128 0x9
 1431 03a4 72020000 		.4byte	.LASF65
 1432 03a8 04       		.byte	0x4
 1433 03a9 7C01     		.2byte	0x17c
 1434 03ab 2F060000 		.4byte	0x62f
 1435 03af 00       		.byte	0
 1436 03b0 09       		.uleb128 0x9
 1437 03b1 33020000 		.4byte	.LASF66
 1438 03b5 04       		.byte	0x4
 1439 03b6 7E01     		.2byte	0x17e
 1440 03b8 2F060000 		.4byte	0x62f
 1441 03bc 04       		.byte	0x4
 1442 03bd 09       		.uleb128 0x9
 1443 03be A7020000 		.4byte	.LASF67
 1444 03c2 04       		.byte	0x4
 1445 03c3 8001     		.2byte	0x180
 1446 03c5 44010000 		.4byte	0x144
 1447 03c9 08       		.byte	0x8
 1448 03ca 09       		.uleb128 0x9
 1449 03cb A7070000 		.4byte	.LASF72
 1450 03cf 04       		.byte	0x4
 1451 03d0 8801     		.2byte	0x188
 1452 03d2 44010000 		.4byte	0x144
 1453 03d6 0C       		.byte	0xc
 1454 03d7 00       		.byte	0
 1455 03d8 03       		.uleb128 0x3
 1456 03d9 6A000000 		.4byte	.LASF73
 1457 03dd 09       		.byte	0x9
 1458 03de 6B       		.byte	0x6b
 1459 03df E3030000 		.4byte	0x3e3
 1460 03e3 0B       		.uleb128 0xb
 1461 03e4 6B050000 		.4byte	.LASF74
 1462 03e8 04       		.byte	0x4
 1463 03e9 04       		.byte	0x4
 1464 03ea A201     		.2byte	0x1a2
 1465 03ec FE030000 		.4byte	0x3fe
 1466 03f0 09       		.uleb128 0x9
 1467 03f1 43070000 		.4byte	.LASF75
 1468 03f5 04       		.byte	0x4
 1469 03f6 AA01     		.2byte	0x1aa
 1470 03f8 1E060000 		.4byte	0x61e
 1471 03fc 00       		.byte	0
 1472 03fd 00       		.byte	0
 1473 03fe 03       		.uleb128 0x3
 1474 03ff 08030000 		.4byte	.LASF76
 1475 0403 09       		.byte	0x9
 1476 0404 70       		.byte	0x70
 1477 0405 09040000 		.4byte	0x409
 1478 0409 0F       		.uleb128 0xf
ARM GAS  /tmp/ccapcBze.s 			page 27


 1479 040a 96010000 		.4byte	.LASF77
 1480 040e 5001     		.2byte	0x150
 1481 0410 04       		.byte	0x4
 1482 0411 C201     		.2byte	0x1c2
 1483 0413 65040000 		.4byte	0x465
 1484 0417 09       		.uleb128 0x9
 1485 0418 99070000 		.4byte	.LASF78
 1486 041c 04       		.byte	0x4
 1487 041d C601     		.2byte	0x1c6
 1488 041f AC020000 		.4byte	0x2ac
 1489 0423 00       		.byte	0
 1490 0424 09       		.uleb128 0x9
 1491 0425 7D010000 		.4byte	.LASF79
 1492 0429 04       		.byte	0x4
 1493 042a CA01     		.2byte	0x1ca
 1494 042c 8B030000 		.4byte	0x38b
 1495 0430 1C       		.byte	0x1c
 1496 0431 08       		.uleb128 0x8
 1497 0432 64626700 		.ascii	"dbg\000"
 1498 0436 04       		.byte	0x4
 1499 0437 CE01     		.2byte	0x1ce
 1500 0439 D8030000 		.4byte	0x3d8
 1501 043d 2C       		.byte	0x2c
 1502 043e 09       		.uleb128 0x9
 1503 043f C9000000 		.4byte	.LASF80
 1504 0443 04       		.byte	0x4
 1505 0444 D201     		.2byte	0x1d2
 1506 0446 4F010000 		.4byte	0x14f
 1507 044a 30       		.byte	0x30
 1508 044b 08       		.uleb128 0x8
 1509 044c 746D00   		.ascii	"tm\000"
 1510 044f 04       		.byte	0x4
 1511 0450 D701     		.2byte	0x1d7
 1512 0452 48050000 		.4byte	0x548
 1513 0456 74       		.byte	0x74
 1514 0457 09       		.uleb128 0x9
 1515 0458 49020000 		.4byte	.LASF81
 1516 045c 04       		.byte	0x4
 1517 045d E301     		.2byte	0x1e3
 1518 045f 35060000 		.4byte	0x635
 1519 0463 78       		.byte	0x78
 1520 0464 00       		.byte	0
 1521 0465 04       		.uleb128 0x4
 1522 0466 04       		.byte	0x4
 1523 0467 07       		.byte	0x7
 1524 0468 70030000 		.4byte	.LASF82
 1525 046c 10       		.uleb128 0x10
 1526 046d F4000000 		.4byte	.LASF83
 1527 0471 0A       		.byte	0xa
 1528 0472 A706     		.2byte	0x6a7
 1529 0474 D1000000 		.4byte	0xd1
 1530 0478 11       		.uleb128 0x11
 1531 0479 83020000 		.4byte	.LASF84
 1532 047d 0B       		.byte	0xb
 1533 047e 4C       		.byte	0x4c
 1534 047f D6000000 		.4byte	0xd6
 1535 0483 03       		.uleb128 0x3
ARM GAS  /tmp/ccapcBze.s 			page 28


 1536 0484 18020000 		.4byte	.LASF85
 1537 0488 0C       		.byte	0xc
 1538 0489 65       		.byte	0x65
 1539 048a 2F030000 		.4byte	0x32f
 1540 048e 03       		.uleb128 0x3
 1541 048f 30030000 		.4byte	.LASF86
 1542 0493 0C       		.byte	0xc
 1543 0494 6D       		.byte	0x6d
 1544 0495 E1000000 		.4byte	0xe1
 1545 0499 06       		.uleb128 0x6
 1546 049a 54070000 		.4byte	.LASF87
 1547 049e 04       		.byte	0x4
 1548 049f 0C       		.byte	0xc
 1549 04a0 89       		.byte	0x89
 1550 04a1 B2040000 		.4byte	0x4b2
 1551 04a5 12       		.uleb128 0x12
 1552 04a6 72313300 		.ascii	"r13\000"
 1553 04aa 0C       		.byte	0xc
 1554 04ab 8A       		.byte	0x8a
 1555 04ac 2D050000 		.4byte	0x52d
 1556 04b0 00       		.byte	0
 1557 04b1 00       		.byte	0
 1558 04b2 06       		.uleb128 0x6
 1559 04b3 5E000000 		.4byte	.LASF88
 1560 04b7 24       		.byte	0x24
 1561 04b8 0D       		.byte	0xd
 1562 04b9 F4       		.byte	0xf4
 1563 04ba 2D050000 		.4byte	0x52d
 1564 04be 08       		.uleb128 0x8
 1565 04bf 723400   		.ascii	"r4\000"
 1566 04c2 0D       		.byte	0xd
 1567 04c3 0701     		.2byte	0x107
 1568 04c5 83040000 		.4byte	0x483
 1569 04c9 00       		.byte	0
 1570 04ca 08       		.uleb128 0x8
 1571 04cb 723500   		.ascii	"r5\000"
 1572 04ce 0D       		.byte	0xd
 1573 04cf 0801     		.2byte	0x108
 1574 04d1 83040000 		.4byte	0x483
 1575 04d5 04       		.byte	0x4
 1576 04d6 08       		.uleb128 0x8
 1577 04d7 723600   		.ascii	"r6\000"
 1578 04da 0D       		.byte	0xd
 1579 04db 0901     		.2byte	0x109
 1580 04dd 83040000 		.4byte	0x483
 1581 04e1 08       		.byte	0x8
 1582 04e2 08       		.uleb128 0x8
 1583 04e3 723700   		.ascii	"r7\000"
 1584 04e6 0D       		.byte	0xd
 1585 04e7 0A01     		.2byte	0x10a
 1586 04e9 83040000 		.4byte	0x483
 1587 04ed 0C       		.byte	0xc
 1588 04ee 08       		.uleb128 0x8
 1589 04ef 723800   		.ascii	"r8\000"
 1590 04f2 0D       		.byte	0xd
 1591 04f3 0B01     		.2byte	0x10b
 1592 04f5 83040000 		.4byte	0x483
ARM GAS  /tmp/ccapcBze.s 			page 29


 1593 04f9 10       		.byte	0x10
 1594 04fa 08       		.uleb128 0x8
 1595 04fb 723900   		.ascii	"r9\000"
 1596 04fe 0D       		.byte	0xd
 1597 04ff 0C01     		.2byte	0x10c
 1598 0501 83040000 		.4byte	0x483
 1599 0505 14       		.byte	0x14
 1600 0506 08       		.uleb128 0x8
 1601 0507 72313000 		.ascii	"r10\000"
 1602 050b 0D       		.byte	0xd
 1603 050c 0D01     		.2byte	0x10d
 1604 050e 83040000 		.4byte	0x483
 1605 0512 18       		.byte	0x18
 1606 0513 08       		.uleb128 0x8
 1607 0514 72313100 		.ascii	"r11\000"
 1608 0518 0D       		.byte	0xd
 1609 0519 0E01     		.2byte	0x10e
 1610 051b 83040000 		.4byte	0x483
 1611 051f 1C       		.byte	0x1c
 1612 0520 08       		.uleb128 0x8
 1613 0521 6C7200   		.ascii	"lr\000"
 1614 0524 0D       		.byte	0xd
 1615 0525 0F01     		.2byte	0x10f
 1616 0527 83040000 		.4byte	0x483
 1617 052b 20       		.byte	0x20
 1618 052c 00       		.byte	0
 1619 052d 0A       		.uleb128 0xa
 1620 052e 04       		.byte	0x4
 1621 052f B2040000 		.4byte	0x4b2
 1622 0533 13       		.uleb128 0x13
 1623 0534 04       		.byte	0x4
 1624 0535 0E       		.byte	0xe
 1625 0536 38       		.byte	0x38
 1626 0537 48050000 		.4byte	0x548
 1627 053b 07       		.uleb128 0x7
 1628 053c 4D070000 		.4byte	.LASF89
 1629 0540 0E       		.byte	0xe
 1630 0541 3C       		.byte	0x3c
 1631 0542 EC000000 		.4byte	0xec
 1632 0546 00       		.byte	0
 1633 0547 00       		.byte	0
 1634 0548 03       		.uleb128 0x3
 1635 0549 CD040000 		.4byte	.LASF90
 1636 054d 0E       		.byte	0xe
 1637 054e 3D       		.byte	0x3d
 1638 054f 33050000 		.4byte	0x533
 1639 0553 14       		.uleb128 0x14
 1640 0554 04       		.byte	0x4
 1641 0555 04       		.byte	0x4
 1642 0556 FA       		.byte	0xfa
 1643 0557 B0050000 		.4byte	0x5b0
 1644 055b 15       		.uleb128 0x15
 1645 055c 21000000 		.4byte	.LASF91
 1646 0560 04       		.byte	0x4
 1647 0561 0101     		.2byte	0x101
 1648 0563 23010000 		.4byte	0x123
 1649 0567 15       		.uleb128 0x15
ARM GAS  /tmp/ccapcBze.s 			page 30


 1650 0568 C0000000 		.4byte	.LASF92
 1651 056c 04       		.byte	0x4
 1652 056d 0801     		.2byte	0x108
 1653 056f 23010000 		.4byte	0x123
 1654 0573 15       		.uleb128 0x15
 1655 0574 14030000 		.4byte	.LASF93
 1656 0578 04       		.byte	0x4
 1657 0579 0F01     		.2byte	0x10f
 1658 057b 2F030000 		.4byte	0x32f
 1659 057f 15       		.uleb128 0x15
 1660 0580 90010000 		.4byte	.LASF94
 1661 0584 04       		.byte	0x4
 1662 0585 1601     		.2byte	0x116
 1663 0587 B0050000 		.4byte	0x5b0
 1664 058b 15       		.uleb128 0x15
 1665 058c 93020000 		.4byte	.LASF95
 1666 0590 04       		.byte	0x4
 1667 0591 1E01     		.2byte	0x11e
 1668 0593 DB050000 		.4byte	0x5db
 1669 0597 15       		.uleb128 0x15
 1670 0598 CA060000 		.4byte	.LASF96
 1671 059c 04       		.byte	0x4
 1672 059d 2701     		.2byte	0x127
 1673 059f 12060000 		.4byte	0x612
 1674 05a3 15       		.uleb128 0x15
 1675 05a4 CF050000 		.4byte	.LASF97
 1676 05a8 04       		.byte	0x4
 1677 05a9 2F01     		.2byte	0x12f
 1678 05ab 2E010000 		.4byte	0x12e
 1679 05af 00       		.byte	0
 1680 05b0 0A       		.uleb128 0xa
 1681 05b1 04       		.byte	0x4
 1682 05b2 47020000 		.4byte	0x247
 1683 05b6 06       		.uleb128 0x6
 1684 05b7 4C060000 		.4byte	.LASF98
 1685 05bb 0C       		.byte	0xc
 1686 05bc 03       		.byte	0x3
 1687 05bd 34       		.byte	0x34
 1688 05be DB050000 		.4byte	0x5db
 1689 05c2 07       		.uleb128 0x7
 1690 05c3 F7010000 		.4byte	.LASF99
 1691 05c7 03       		.byte	0x3
 1692 05c8 35       		.byte	0x35
 1693 05c9 7C020000 		.4byte	0x27c
 1694 05cd 00       		.byte	0
 1695 05ce 07       		.uleb128 0x7
 1696 05cf D2020000 		.4byte	.LASF100
 1697 05d3 03       		.byte	0x3
 1698 05d4 37       		.byte	0x37
 1699 05d5 39010000 		.4byte	0x139
 1700 05d9 08       		.byte	0x8
 1701 05da 00       		.byte	0
 1702 05db 0A       		.uleb128 0xa
 1703 05dc 04       		.byte	0x4
 1704 05dd B6050000 		.4byte	0x5b6
 1705 05e1 06       		.uleb128 0x6
 1706 05e2 89070000 		.4byte	.LASF101
ARM GAS  /tmp/ccapcBze.s 			page 31


 1707 05e6 10       		.byte	0x10
 1708 05e7 0F       		.byte	0xf
 1709 05e8 39       		.byte	0x39
 1710 05e9 12060000 		.4byte	0x612
 1711 05ed 07       		.uleb128 0x7
 1712 05ee 75010000 		.4byte	.LASF102
 1713 05f2 0F       		.byte	0xf
 1714 05f3 3A       		.byte	0x3a
 1715 05f4 7C020000 		.4byte	0x27c
 1716 05f8 00       		.byte	0
 1717 05f9 07       		.uleb128 0x7
 1718 05fa 0A080000 		.4byte	.LASF103
 1719 05fe 0F       		.byte	0xf
 1720 05ff 3C       		.byte	0x3c
 1721 0600 52020000 		.4byte	0x252
 1722 0604 08       		.byte	0x8
 1723 0605 07       		.uleb128 0x7
 1724 0606 DE040000 		.4byte	.LASF104
 1725 060a 0F       		.byte	0xf
 1726 060b 3E       		.byte	0x3e
 1727 060c 72070000 		.4byte	0x772
 1728 0610 0C       		.byte	0xc
 1729 0611 00       		.byte	0
 1730 0612 0A       		.uleb128 0xa
 1731 0613 04       		.byte	0x4
 1732 0614 E1050000 		.4byte	0x5e1
 1733 0618 0A       		.uleb128 0xa
 1734 0619 04       		.byte	0x4
 1735 061a 2A060000 		.4byte	0x62a
 1736 061e 05       		.uleb128 0x5
 1737 061f 18060000 		.4byte	0x618
 1738 0623 04       		.uleb128 0x4
 1739 0624 01       		.byte	0x1
 1740 0625 08       		.byte	0x8
 1741 0626 C5060000 		.4byte	.LASF105
 1742 062a 16       		.uleb128 0x16
 1743 062b 23060000 		.4byte	0x623
 1744 062f 0A       		.uleb128 0xa
 1745 0630 04       		.byte	0x4
 1746 0631 31030000 		.4byte	0x331
 1747 0635 17       		.uleb128 0x17
 1748 0636 8E040000 		.4byte	0x48e
 1749 063a 45060000 		.4byte	0x645
 1750 063e 18       		.uleb128 0x18
 1751 063f 65040000 		.4byte	0x465
 1752 0643 1A       		.byte	0x1a
 1753 0644 00       		.byte	0
 1754 0645 19       		.uleb128 0x19
 1755 0646 636800   		.ascii	"ch\000"
 1756 0649 04       		.byte	0x4
 1757 064a 0902     		.2byte	0x209
 1758 064c FE030000 		.4byte	0x3fe
 1759 0650 13       		.uleb128 0x13
 1760 0651 16       		.byte	0x16
 1761 0652 10       		.byte	0x10
 1762 0653 34       		.byte	0x34
 1763 0654 31070000 		.4byte	0x731
ARM GAS  /tmp/ccapcBze.s 			page 32


 1764 0658 07       		.uleb128 0x7
 1765 0659 12080000 		.4byte	.LASF106
 1766 065d 10       		.byte	0x10
 1767 065e 35       		.byte	0x35
 1768 065f 31070000 		.4byte	0x731
 1769 0663 00       		.byte	0
 1770 0664 07       		.uleb128 0x7
 1771 0665 3B030000 		.4byte	.LASF107
 1772 0669 10       		.byte	0x10
 1773 066a 36       		.byte	0x36
 1774 066b B0000000 		.4byte	0xb0
 1775 066f 04       		.byte	0x4
 1776 0670 07       		.uleb128 0x7
 1777 0671 AB060000 		.4byte	.LASF108
 1778 0675 10       		.byte	0x10
 1779 0676 37       		.byte	0x37
 1780 0677 B0000000 		.4byte	0xb0
 1781 067b 05       		.byte	0x5
 1782 067c 07       		.uleb128 0x7
 1783 067d C0010000 		.4byte	.LASF109
 1784 0681 10       		.byte	0x10
 1785 0682 38       		.byte	0x38
 1786 0683 BB000000 		.4byte	0xbb
 1787 0687 06       		.byte	0x6
 1788 0688 07       		.uleb128 0x7
 1789 0689 0F050000 		.4byte	.LASF110
 1790 068d 10       		.byte	0x10
 1791 068e 39       		.byte	0x39
 1792 068f B0000000 		.4byte	0xb0
 1793 0693 08       		.byte	0x8
 1794 0694 07       		.uleb128 0x7
 1795 0695 89040000 		.4byte	.LASF111
 1796 0699 10       		.byte	0x10
 1797 069a 3A       		.byte	0x3a
 1798 069b B0000000 		.4byte	0xb0
 1799 069f 09       		.byte	0x9
 1800 06a0 07       		.uleb128 0x7
 1801 06a1 A5000000 		.4byte	.LASF112
 1802 06a5 10       		.byte	0x10
 1803 06a6 3B       		.byte	0x3b
 1804 06a7 B0000000 		.4byte	0xb0
 1805 06ab 0A       		.byte	0xa
 1806 06ac 07       		.uleb128 0x7
 1807 06ad 7B060000 		.4byte	.LASF113
 1808 06b1 10       		.byte	0x10
 1809 06b2 3C       		.byte	0x3c
 1810 06b3 B0000000 		.4byte	0xb0
 1811 06b7 0B       		.byte	0xb
 1812 06b8 07       		.uleb128 0x7
 1813 06b9 7E070000 		.4byte	.LASF114
 1814 06bd 10       		.byte	0x10
 1815 06be 3D       		.byte	0x3d
 1816 06bf B0000000 		.4byte	0xb0
 1817 06c3 0C       		.byte	0xc
 1818 06c4 07       		.uleb128 0x7
 1819 06c5 3F060000 		.4byte	.LASF115
 1820 06c9 10       		.byte	0x10
ARM GAS  /tmp/ccapcBze.s 			page 33


 1821 06ca 3E       		.byte	0x3e
 1822 06cb B0000000 		.4byte	0xb0
 1823 06cf 0D       		.byte	0xd
 1824 06d0 07       		.uleb128 0x7
 1825 06d1 00000000 		.4byte	.LASF116
 1826 06d5 10       		.byte	0x10
 1827 06d6 3F       		.byte	0x3f
 1828 06d7 B0000000 		.4byte	0xb0
 1829 06db 0E       		.byte	0xe
 1830 06dc 07       		.uleb128 0x7
 1831 06dd AD040000 		.4byte	.LASF117
 1832 06e1 10       		.byte	0x10
 1833 06e2 40       		.byte	0x40
 1834 06e3 B0000000 		.4byte	0xb0
 1835 06e7 0F       		.byte	0xf
 1836 06e8 07       		.uleb128 0x7
 1837 06e9 50010000 		.4byte	.LASF118
 1838 06ed 10       		.byte	0x10
 1839 06ee 41       		.byte	0x41
 1840 06ef B0000000 		.4byte	0xb0
 1841 06f3 10       		.byte	0x10
 1842 06f4 07       		.uleb128 0x7
 1843 06f5 19010000 		.4byte	.LASF119
 1844 06f9 10       		.byte	0x10
 1845 06fa 43       		.byte	0x43
 1846 06fb B0000000 		.4byte	0xb0
 1847 06ff 11       		.byte	0x11
 1848 0700 07       		.uleb128 0x7
 1849 0701 60010000 		.4byte	.LASF120
 1850 0705 10       		.byte	0x10
 1851 0706 44       		.byte	0x44
 1852 0707 B0000000 		.4byte	0xb0
 1853 070b 12       		.byte	0x12
 1854 070c 07       		.uleb128 0x7
 1855 070d 43030000 		.4byte	.LASF121
 1856 0711 10       		.byte	0x10
 1857 0712 45       		.byte	0x45
 1858 0713 B0000000 		.4byte	0xb0
 1859 0717 13       		.byte	0x13
 1860 0718 07       		.uleb128 0x7
 1861 0719 E5050000 		.4byte	.LASF122
 1862 071d 10       		.byte	0x10
 1863 071e 46       		.byte	0x46
 1864 071f B0000000 		.4byte	0xb0
 1865 0723 14       		.byte	0x14
 1866 0724 07       		.uleb128 0x7
 1867 0725 B2050000 		.4byte	.LASF123
 1868 0729 10       		.byte	0x10
 1869 072a 48       		.byte	0x48
 1870 072b B0000000 		.4byte	0xb0
 1871 072f 15       		.byte	0x15
 1872 0730 00       		.byte	0
 1873 0731 17       		.uleb128 0x17
 1874 0732 23060000 		.4byte	0x623
 1875 0736 41070000 		.4byte	0x741
 1876 073a 18       		.uleb128 0x18
 1877 073b 65040000 		.4byte	0x465
ARM GAS  /tmp/ccapcBze.s 			page 34


 1878 073f 03       		.byte	0x3
 1879 0740 00       		.byte	0
 1880 0741 03       		.uleb128 0x3
 1881 0742 CB010000 		.4byte	.LASF124
 1882 0746 10       		.byte	0x10
 1883 0747 49       		.byte	0x49
 1884 0748 50060000 		.4byte	0x650
 1885 074c 16       		.uleb128 0x16
 1886 074d 41070000 		.4byte	0x741
 1887 0751 11       		.uleb128 0x11
 1888 0752 BB020000 		.4byte	.LASF125
 1889 0756 10       		.byte	0x10
 1890 0757 82       		.byte	0x82
 1891 0758 4C070000 		.4byte	0x74c
 1892 075c 03       		.uleb128 0x3
 1893 075d 12060000 		.4byte	.LASF126
 1894 0761 03       		.byte	0x3
 1895 0762 38       		.byte	0x38
 1896 0763 B6050000 		.4byte	0x5b6
 1897 0767 03       		.uleb128 0x3
 1898 0768 3B020000 		.4byte	.LASF127
 1899 076c 0F       		.byte	0xf
 1900 076d 34       		.byte	0x34
 1901 076e E1050000 		.4byte	0x5e1
 1902 0772 0A       		.uleb128 0xa
 1903 0773 04       		.byte	0x4
 1904 0774 67070000 		.4byte	0x767
 1905 0778 1A       		.uleb128 0x1a
 1906 0779 45060000 		.4byte	0x645
 1907 077d 01       		.byte	0x1
 1908 077e 2A       		.byte	0x2a
 1909 077f 05       		.uleb128 0x5
 1910 0780 03       		.byte	0x3
 1911 0781 00000000 		.4byte	ch
 1912 0785 1B       		.uleb128 0x1b
 1913 0786 21020000 		.4byte	.LASF128
 1914 078a 01       		.byte	0x1
 1915 078b 0402     		.2byte	0x204
 1916 078d 00000000 		.4byte	.LFB237
 1917 0791 04000000 		.4byte	.LFE237-.LFB237
 1918 0795 01       		.uleb128 0x1
 1919 0796 9C       		.byte	0x9c
 1920 0797 A5070000 		.4byte	0x7a5
 1921 079b 1C       		.uleb128 0x1c
 1922 079c 04000000 		.4byte	.LVL65
 1923 07a0 A5070000 		.4byte	0x7a5
 1924 07a4 00       		.byte	0
 1925 07a5 1B       		.uleb128 0x1b
 1926 07a6 31000000 		.4byte	.LASF129
 1927 07aa 01       		.byte	0x1
 1928 07ab DF01     		.2byte	0x1df
 1929 07ad 00000000 		.4byte	.LFB236
 1930 07b1 3C000000 		.4byte	.LFE236-.LFB236
 1931 07b5 01       		.uleb128 0x1
 1932 07b6 9C       		.byte	0x9c
 1933 07b7 11080000 		.4byte	0x811
 1934 07bb 1D       		.uleb128 0x1d
ARM GAS  /tmp/ccapcBze.s 			page 35


 1935 07bc 6F747000 		.ascii	"otp\000"
 1936 07c0 01       		.byte	0x1
 1937 07c1 E001     		.2byte	0x1e0
 1938 07c3 52020000 		.4byte	0x252
 1939 07c7 00000000 		.4byte	.LLST25
 1940 07cb 1D       		.uleb128 0x1d
 1941 07cc 637000   		.ascii	"cp\000"
 1942 07cf 01       		.byte	0x1
 1943 07d0 E001     		.2byte	0x1e0
 1944 07d2 52020000 		.4byte	0x252
 1945 07d6 1E000000 		.4byte	.LLST26
 1946 07da 1E       		.uleb128 0x1e
 1947 07db EE0B0000 		.4byte	0xbee
 1948 07df 02000000 		.4byte	.LBB201
 1949 07e3 30010000 		.4byte	.Ldebug_ranges0+0x130
 1950 07e7 01       		.byte	0x1
 1951 07e8 E401     		.2byte	0x1e4
 1952 07ea 07080000 		.4byte	0x807
 1953 07ee 1F       		.uleb128 0x1f
 1954 07ef FF0B0000 		.4byte	0xbff
 1955 07f3 36000000 		.4byte	.LLST27
 1956 07f7 20       		.uleb128 0x20
 1957 07f8 30010000 		.4byte	.Ldebug_ranges0+0x130
 1958 07fc 21       		.uleb128 0x21
 1959 07fd 0B0C0000 		.4byte	0xc0b
 1960 0801 4E000000 		.4byte	.LLST28
 1961 0805 00       		.byte	0
 1962 0806 00       		.byte	0
 1963 0807 1C       		.uleb128 0x1c
 1964 0808 36000000 		.4byte	.LVL63
 1965 080c 650E0000 		.4byte	0xe65
 1966 0810 00       		.byte	0
 1967 0811 1B       		.uleb128 0x1b
 1968 0812 95040000 		.4byte	.LASF130
 1969 0816 01       		.byte	0x1
 1970 0817 C301     		.2byte	0x1c3
 1971 0819 00000000 		.4byte	.LFB235
 1972 081d 3C000000 		.4byte	.LFE235-.LFB235
 1973 0821 01       		.uleb128 0x1
 1974 0822 9C       		.byte	0x9c
 1975 0823 9C080000 		.4byte	0x89c
 1976 0827 1D       		.uleb128 0x1d
 1977 0828 6F747000 		.ascii	"otp\000"
 1978 082c 01       		.byte	0x1
 1979 082d C401     		.2byte	0x1c4
 1980 082f 52020000 		.4byte	0x252
 1981 0833 61000000 		.4byte	.LLST21
 1982 0837 1E       		.uleb128 0x1e
 1983 0838 EE0B0000 		.4byte	0xbee
 1984 083c 02000000 		.4byte	.LBB187
 1985 0840 E8000000 		.4byte	.Ldebug_ranges0+0xe8
 1986 0844 01       		.byte	0x1
 1987 0845 C801     		.2byte	0x1c8
 1988 0847 64080000 		.4byte	0x864
 1989 084b 1F       		.uleb128 0x1f
 1990 084c FF0B0000 		.4byte	0xbff
 1991 0850 7F000000 		.4byte	.LLST22
ARM GAS  /tmp/ccapcBze.s 			page 36


 1992 0854 20       		.uleb128 0x20
 1993 0855 E8000000 		.4byte	.Ldebug_ranges0+0xe8
 1994 0859 21       		.uleb128 0x21
 1995 085a 0B0C0000 		.4byte	0xc0b
 1996 085e 97000000 		.4byte	.LLST23
 1997 0862 00       		.byte	0
 1998 0863 00       		.byte	0
 1999 0864 1E       		.uleb128 0x1e
 2000 0865 010B0000 		.4byte	0xb01
 2001 0869 0E000000 		.4byte	.LBB194
 2002 086d 10010000 		.4byte	.Ldebug_ranges0+0x110
 2003 0871 01       		.byte	0x1
 2004 0872 D201     		.2byte	0x1d2
 2005 0874 92080000 		.4byte	0x892
 2006 0878 1F       		.uleb128 0x1f
 2007 0879 110B0000 		.4byte	0xb11
 2008 087d AA000000 		.4byte	.LLST24
 2009 0881 20       		.uleb128 0x20
 2010 0882 10010000 		.4byte	.Ldebug_ranges0+0x110
 2011 0886 22       		.uleb128 0x22
 2012 0887 580E0000 		.4byte	0xe58
 2013 088b 22       		.uleb128 0x22
 2014 088c 5F0E0000 		.4byte	0xe5f
 2015 0890 00       		.byte	0
 2016 0891 00       		.byte	0
 2017 0892 1C       		.uleb128 0x1c
 2018 0893 36000000 		.4byte	.LVL57
 2019 0897 650E0000 		.4byte	0xe65
 2020 089b 00       		.byte	0
 2021 089c 23       		.uleb128 0x23
 2022 089d D5010000 		.4byte	.LASF134
 2023 08a1 01       		.byte	0x1
 2024 08a2 A801     		.2byte	0x1a8
 2025 08a4 DF080000 		.4byte	0x8df
 2026 08a8 00000000 		.4byte	.LFB234
 2027 08ac 18000000 		.4byte	.LFE234-.LFB234
 2028 08b0 01       		.uleb128 0x1
 2029 08b1 9C       		.byte	0x9c
 2030 08b2 DF080000 		.4byte	0x8df
 2031 08b6 24       		.uleb128 0x24
 2032 08b7 703100   		.ascii	"p1\000"
 2033 08ba 01       		.byte	0x1
 2034 08bb A901     		.2byte	0x1a9
 2035 08bd 18010000 		.4byte	0x118
 2036 08c1 08       		.uleb128 0x8
 2037 08c2 03       		.byte	0x3
 2038 08c3 00000000 		.4byte	ch
 2039 08c7 06       		.byte	0x6
 2040 08c8 23       		.byte	0x23
 2041 08c9 08       		.uleb128 0x8
 2042 08ca 24       		.uleb128 0x24
 2043 08cb 703200   		.ascii	"p2\000"
 2044 08ce 01       		.byte	0x1
 2045 08cf AA01     		.2byte	0x1aa
 2046 08d1 18010000 		.4byte	0x118
 2047 08d5 08       		.uleb128 0x8
 2048 08d6 03       		.byte	0x3
ARM GAS  /tmp/ccapcBze.s 			page 37


 2049 08d7 18000000 		.4byte	ch+24
 2050 08db 06       		.byte	0x6
 2051 08dc 23       		.byte	0x23
 2052 08dd 08       		.uleb128 0x8
 2053 08de 00       		.byte	0
 2054 08df 04       		.uleb128 0x4
 2055 08e0 01       		.byte	0x1
 2056 08e1 02       		.byte	0x2
 2057 08e2 7B050000 		.4byte	.LASF131
 2058 08e6 1B       		.uleb128 0x1b
 2059 08e7 FF010000 		.4byte	.LASF132
 2060 08eb 01       		.byte	0x1
 2061 08ec 9201     		.2byte	0x192
 2062 08ee 00000000 		.4byte	.LFB233
 2063 08f2 18000000 		.4byte	.LFE233-.LFB233
 2064 08f6 01       		.uleb128 0x1
 2065 08f7 9C       		.byte	0x9c
 2066 08f8 16090000 		.4byte	0x916
 2067 08fc 25       		.uleb128 0x25
 2068 08fd C40B0000 		.4byte	0xbc4
 2069 0901 00000000 		.4byte	.LBB209
 2070 0905 06000000 		.4byte	.LBE209-.LBB209
 2071 0909 01       		.byte	0x1
 2072 090a 9601     		.2byte	0x196
 2073 090c 1C       		.uleb128 0x1c
 2074 090d 14000000 		.4byte	.LVL64
 2075 0911 A5070000 		.4byte	0x7a5
 2076 0915 00       		.byte	0
 2077 0916 1B       		.uleb128 0x1b
 2078 0917 F5020000 		.4byte	.LASF133
 2079 091b 01       		.byte	0x1
 2080 091c 6F01     		.2byte	0x16f
 2081 091e 00000000 		.4byte	.LFB232
 2082 0922 58000000 		.4byte	.LFE232-.LFB232
 2083 0926 01       		.uleb128 0x1
 2084 0927 9C       		.byte	0x9c
 2085 0928 CC090000 		.4byte	0x9cc
 2086 092c 26       		.uleb128 0x26
 2087 092d 6E747000 		.ascii	"ntp\000"
 2088 0931 01       		.byte	0x1
 2089 0932 6F01     		.2byte	0x16f
 2090 0934 52020000 		.4byte	0x252
 2091 0938 BD000000 		.4byte	.LLST17
 2092 093c 26       		.uleb128 0x26
 2093 093d 6D736700 		.ascii	"msg\000"
 2094 0941 01       		.byte	0x1
 2095 0942 6F01     		.2byte	0x16f
 2096 0944 23010000 		.4byte	0x123
 2097 0948 0B010000 		.4byte	.LLST18
 2098 094c 27       		.uleb128 0x27
 2099 094d B8000000 		.4byte	.Ldebug_ranges0+0xb8
 2100 0951 A1090000 		.4byte	0x9a1
 2101 0955 28       		.uleb128 0x28
 2102 0956 6F747000 		.ascii	"otp\000"
 2103 095a 01       		.byte	0x1
 2104 095b 7F01     		.2byte	0x17f
 2105 095d 52020000 		.4byte	0x252
ARM GAS  /tmp/ccapcBze.s 			page 38


 2106 0961 1E       		.uleb128 0x1e
 2107 0962 010B0000 		.4byte	0xb01
 2108 0966 2E000000 		.4byte	.LBB182
 2109 096a D0000000 		.4byte	.Ldebug_ranges0+0xd0
 2110 096e 01       		.byte	0x1
 2111 096f 7F01     		.2byte	0x17f
 2112 0971 8F090000 		.4byte	0x98f
 2113 0975 1F       		.uleb128 0x1f
 2114 0976 110B0000 		.4byte	0xb11
 2115 097a 52010000 		.4byte	.LLST20
 2116 097e 20       		.uleb128 0x20
 2117 097f D0000000 		.4byte	.Ldebug_ranges0+0xd0
 2118 0983 22       		.uleb128 0x22
 2119 0984 580E0000 		.4byte	0xe58
 2120 0988 22       		.uleb128 0x22
 2121 0989 5F0E0000 		.4byte	0xe5f
 2122 098d 00       		.byte	0
 2123 098e 00       		.byte	0
 2124 098f 29       		.uleb128 0x29
 2125 0990 54000000 		.4byte	.LVL48
 2126 0994 650E0000 		.4byte	0xe65
 2127 0998 2A       		.uleb128 0x2a
 2128 0999 01       		.uleb128 0x1
 2129 099a 50       		.byte	0x50
 2130 099b 03       		.uleb128 0x3
 2131 099c F3       		.byte	0xf3
 2132 099d 01       		.uleb128 0x1
 2133 099e 50       		.byte	0x50
 2134 099f 00       		.byte	0
 2135 09a0 00       		.byte	0
 2136 09a1 2B       		.uleb128 0x2b
 2137 09a2 010B0000 		.4byte	0xb01
 2138 09a6 10000000 		.4byte	.LBB177
 2139 09aa A0000000 		.4byte	.Ldebug_ranges0+0xa0
 2140 09ae 01       		.byte	0x1
 2141 09af 7C01     		.2byte	0x17c
 2142 09b1 1F       		.uleb128 0x1f
 2143 09b2 110B0000 		.4byte	0xb11
 2144 09b6 65010000 		.4byte	.LLST19
 2145 09ba 20       		.uleb128 0x20
 2146 09bb A0000000 		.4byte	.Ldebug_ranges0+0xa0
 2147 09bf 22       		.uleb128 0x22
 2148 09c0 580E0000 		.4byte	0xe58
 2149 09c4 22       		.uleb128 0x22
 2150 09c5 5F0E0000 		.4byte	0xe5f
 2151 09c9 00       		.byte	0
 2152 09ca 00       		.byte	0
 2153 09cb 00       		.byte	0
 2154 09cc 23       		.uleb128 0x23
 2155 09cd DA070000 		.4byte	.LASF135
 2156 09d1 01       		.byte	0x1
 2157 09d2 4A01     		.2byte	0x14a
 2158 09d4 23010000 		.4byte	0x123
 2159 09d8 00000000 		.4byte	.LFB231
 2160 09dc 44000000 		.4byte	.LFE231-.LFB231
 2161 09e0 01       		.uleb128 0x1
 2162 09e1 9C       		.byte	0x9c
ARM GAS  /tmp/ccapcBze.s 			page 39


 2163 09e2 740A0000 		.4byte	0xa74
 2164 09e6 2C       		.uleb128 0x2c
 2165 09e7 97050000 		.4byte	.LASF136
 2166 09eb 01       		.byte	0x1
 2167 09ec 4A01     		.2byte	0x14a
 2168 09ee 02010000 		.4byte	0x102
 2169 09f2 84010000 		.4byte	.LLST15
 2170 09f6 2C       		.uleb128 0x2c
 2171 09f7 E5040000 		.4byte	.LASF137
 2172 09fb 01       		.byte	0x1
 2173 09fc 4A01     		.2byte	0x14a
 2174 09fe 44010000 		.4byte	0x144
 2175 0a02 BE010000 		.4byte	.LLST16
 2176 0a06 2D       		.uleb128 0x2d
 2177 0a07 08000000 		.4byte	.LBB176
 2178 0a0b 1E000000 		.4byte	.LBE176-.LBB176
 2179 0a0f 6A0A0000 		.4byte	0xa6a
 2180 0a13 24       		.uleb128 0x24
 2181 0a14 767400   		.ascii	"vt\000"
 2182 0a17 01       		.byte	0x1
 2183 0a18 4F01     		.2byte	0x14f
 2184 0a1a 31030000 		.4byte	0x331
 2185 0a1e 02       		.uleb128 0x2
 2186 0a1f 91       		.byte	0x91
 2187 0a20 5C       		.sleb128 -36
 2188 0a21 2E       		.uleb128 0x2e
 2189 0a22 16000000 		.4byte	.LVL28
 2190 0a26 710E0000 		.4byte	0xe71
 2191 0a2a 450A0000 		.4byte	0xa45
 2192 0a2e 2A       		.uleb128 0x2a
 2193 0a2f 01       		.uleb128 0x1
 2194 0a30 50       		.byte	0x50
 2195 0a31 02       		.uleb128 0x2
 2196 0a32 91       		.byte	0x91
 2197 0a33 5C       		.sleb128 -36
 2198 0a34 2A       		.uleb128 0x2a
 2199 0a35 01       		.uleb128 0x1
 2200 0a36 51       		.byte	0x51
 2201 0a37 03       		.uleb128 0x3
 2202 0a38 F3       		.byte	0xf3
 2203 0a39 01       		.uleb128 0x1
 2204 0a3a 51       		.byte	0x51
 2205 0a3b 2A       		.uleb128 0x2a
 2206 0a3c 01       		.uleb128 0x1
 2207 0a3d 52       		.byte	0x52
 2208 0a3e 05       		.uleb128 0x5
 2209 0a3f 03       		.byte	0x3
 2210 0a40 00000000 		.4byte	wakeup
 2211 0a44 00       		.byte	0
 2212 0a45 2E       		.uleb128 0x2e
 2213 0a46 1C000000 		.4byte	.LVL29
 2214 0a4a 970A0000 		.4byte	0xa97
 2215 0a4e 590A0000 		.4byte	0xa59
 2216 0a52 2A       		.uleb128 0x2a
 2217 0a53 01       		.uleb128 0x1
 2218 0a54 50       		.byte	0x50
 2219 0a55 02       		.uleb128 0x2
ARM GAS  /tmp/ccapcBze.s 			page 40


 2220 0a56 75       		.byte	0x75
 2221 0a57 00       		.sleb128 0
 2222 0a58 00       		.byte	0
 2223 0a59 2F       		.uleb128 0x2f
 2224 0a5a 26000000 		.4byte	.LVL31
 2225 0a5e 7C0E0000 		.4byte	0xe7c
 2226 0a62 2A       		.uleb128 0x2a
 2227 0a63 01       		.uleb128 0x1
 2228 0a64 50       		.byte	0x50
 2229 0a65 02       		.uleb128 0x2
 2230 0a66 91       		.byte	0x91
 2231 0a67 5C       		.sleb128 -36
 2232 0a68 00       		.byte	0
 2233 0a69 00       		.byte	0
 2234 0a6a 30       		.uleb128 0x30
 2235 0a6b 34000000 		.4byte	.LVL33
 2236 0a6f 970A0000 		.4byte	0xa97
 2237 0a73 00       		.byte	0
 2238 0a74 31       		.uleb128 0x31
 2239 0a75 6B020000 		.4byte	.LASF141
 2240 0a79 01       		.byte	0x1
 2241 0a7a 1301     		.2byte	0x113
 2242 0a7c 01       		.byte	0x1
 2243 0a7d 970A0000 		.4byte	0xa97
 2244 0a81 32       		.uleb128 0x32
 2245 0a82 7000     		.ascii	"p\000"
 2246 0a84 01       		.byte	0x1
 2247 0a85 1301     		.2byte	0x113
 2248 0a87 2F030000 		.4byte	0x32f
 2249 0a8b 28       		.uleb128 0x28
 2250 0a8c 747000   		.ascii	"tp\000"
 2251 0a8f 01       		.byte	0x1
 2252 0a90 1401     		.2byte	0x114
 2253 0a92 52020000 		.4byte	0x252
 2254 0a96 00       		.byte	0
 2255 0a97 33       		.uleb128 0x33
 2256 0a98 59060000 		.4byte	.LASF138
 2257 0a9c 01       		.byte	0x1
 2258 0a9d FA       		.byte	0xfa
 2259 0a9e 00000000 		.4byte	.LFB229
 2260 0aa2 24000000 		.4byte	.LFE229-.LFB229
 2261 0aa6 01       		.uleb128 0x1
 2262 0aa7 9C       		.byte	0x9c
 2263 0aa8 010B0000 		.4byte	0xb01
 2264 0aac 34       		.uleb128 0x34
 2265 0aad 97050000 		.4byte	.LASF136
 2266 0ab1 01       		.byte	0x1
 2267 0ab2 FA       		.byte	0xfa
 2268 0ab3 02010000 		.4byte	0x102
 2269 0ab7 F8010000 		.4byte	.LLST11
 2270 0abb 35       		.uleb128 0x35
 2271 0abc 6F747000 		.ascii	"otp\000"
 2272 0ac0 01       		.byte	0x1
 2273 0ac1 FB       		.byte	0xfb
 2274 0ac2 52020000 		.4byte	0x252
 2275 0ac6 25020000 		.4byte	.LLST12
 2276 0aca 1E       		.uleb128 0x1e
ARM GAS  /tmp/ccapcBze.s 			page 41


 2277 0acb EE0B0000 		.4byte	0xbee
 2278 0acf 04000000 		.4byte	.LBB170
 2279 0ad3 80000000 		.4byte	.Ldebug_ranges0+0x80
 2280 0ad7 01       		.byte	0x1
 2281 0ad8 0601     		.2byte	0x106
 2282 0ada F70A0000 		.4byte	0xaf7
 2283 0ade 1F       		.uleb128 0x1f
 2284 0adf FF0B0000 		.4byte	0xbff
 2285 0ae3 38020000 		.4byte	.LLST13
 2286 0ae7 20       		.uleb128 0x20
 2287 0ae8 80000000 		.4byte	.Ldebug_ranges0+0x80
 2288 0aec 21       		.uleb128 0x21
 2289 0aed 0B0C0000 		.4byte	0xc0b
 2290 0af1 50020000 		.4byte	.LLST14
 2291 0af5 00       		.byte	0
 2292 0af6 00       		.byte	0
 2293 0af7 1C       		.uleb128 0x1c
 2294 0af8 1E000000 		.4byte	.LVL25
 2295 0afc 650E0000 		.4byte	0xe65
 2296 0b00 00       		.byte	0
 2297 0b01 36       		.uleb128 0x36
 2298 0b02 8F060000 		.4byte	.LASF160
 2299 0b06 01       		.byte	0x1
 2300 0b07 DA       		.byte	0xda
 2301 0b08 52020000 		.4byte	0x252
 2302 0b0c 01       		.byte	0x1
 2303 0b0d 330B0000 		.4byte	0xb33
 2304 0b11 37       		.uleb128 0x37
 2305 0b12 747000   		.ascii	"tp\000"
 2306 0b15 01       		.byte	0x1
 2307 0b16 DA       		.byte	0xda
 2308 0b17 52020000 		.4byte	0x252
 2309 0b1b 38       		.uleb128 0x38
 2310 0b1c 637000   		.ascii	"cp\000"
 2311 0b1f 01       		.byte	0x1
 2312 0b20 DB       		.byte	0xdb
 2313 0b21 52020000 		.4byte	0x252
 2314 0b25 39       		.uleb128 0x39
 2315 0b26 FC050000 		.4byte	.LASF139
 2316 0b2a 430B0000 		.4byte	0xb43
 2317 0b2e 8F060000 		.4byte	.LASF160
 2318 0b32 00       		.byte	0
 2319 0b33 17       		.uleb128 0x17
 2320 0b34 2A060000 		.4byte	0x62a
 2321 0b38 430B0000 		.4byte	0xb43
 2322 0b3c 18       		.uleb128 0x18
 2323 0b3d 65040000 		.4byte	0x465
 2324 0b41 0B       		.byte	0xb
 2325 0b42 00       		.byte	0
 2326 0b43 16       		.uleb128 0x16
 2327 0b44 330B0000 		.4byte	0xb33
 2328 0b48 33       		.uleb128 0x33
 2329 0b49 26010000 		.4byte	.LASF140
 2330 0b4d 01       		.byte	0x1
 2331 0b4e 41       		.byte	0x41
 2332 0b4f 00000000 		.4byte	.LFB227
 2333 0b53 14000000 		.4byte	.LFE227-.LFB227
ARM GAS  /tmp/ccapcBze.s 			page 42


 2334 0b57 01       		.uleb128 0x1
 2335 0b58 9C       		.byte	0x9c
 2336 0b59 770B0000 		.4byte	0xb77
 2337 0b5d 3A       		.uleb128 0x3a
 2338 0b5e 1D0C0000 		.4byte	0xc1d
 2339 0b62 00000000 		.4byte	.LBB166
 2340 0b66 68000000 		.4byte	.Ldebug_ranges0+0x68
 2341 0b6a 01       		.byte	0x1
 2342 0b6b 43       		.byte	0x43
 2343 0b6c 1F       		.uleb128 0x1f
 2344 0b6d 2A0C0000 		.4byte	0xc2a
 2345 0b71 63020000 		.4byte	.LLST9
 2346 0b75 00       		.byte	0
 2347 0b76 00       		.byte	0
 2348 0b77 3B       		.uleb128 0x3b
 2349 0b78 BE050000 		.4byte	.LASF142
 2350 0b7c 03       		.byte	0x3
 2351 0b7d 86       		.byte	0x86
 2352 0b7e 03       		.byte	0x3
 2353 0b7f 8E0B0000 		.4byte	0xb8e
 2354 0b83 37       		.uleb128 0x37
 2355 0b84 737000   		.ascii	"sp\000"
 2356 0b87 03       		.byte	0x3
 2357 0b88 86       		.byte	0x86
 2358 0b89 8E0B0000 		.4byte	0xb8e
 2359 0b8d 00       		.byte	0
 2360 0b8e 0A       		.uleb128 0xa
 2361 0b8f 04       		.byte	0x4
 2362 0b90 5C070000 		.4byte	0x75c
 2363 0b94 3C       		.uleb128 0x3c
 2364 0b95 05060000 		.4byte	.LASF145
 2365 0b99 11       		.byte	0x11
 2366 0b9a 5101     		.2byte	0x151
 2367 0b9c DF080000 		.4byte	0x8df
 2368 0ba0 03       		.byte	0x3
 2369 0ba1 B20B0000 		.4byte	0xbb2
 2370 0ba5 32       		.uleb128 0x32
 2371 0ba6 76747000 		.ascii	"vtp\000"
 2372 0baa 11       		.byte	0x11
 2373 0bab 5101     		.2byte	0x151
 2374 0bad 2F060000 		.4byte	0x62f
 2375 0bb1 00       		.byte	0
 2376 0bb2 3D       		.uleb128 0x3d
 2377 0bb3 58050000 		.4byte	.LASF143
 2378 0bb7 12       		.byte	0x12
 2379 0bb8 9601     		.2byte	0x196
 2380 0bba 03       		.byte	0x3
 2381 0bbb 3D       		.uleb128 0x3d
 2382 0bbc B3070000 		.4byte	.LASF144
 2383 0bc0 12       		.byte	0x12
 2384 0bc1 8201     		.2byte	0x182
 2385 0bc3 03       		.byte	0x3
 2386 0bc4 3E       		.uleb128 0x3e
 2387 0bc5 EF070000 		.4byte	.LASF161
 2388 0bc9 04       		.byte	0x4
 2389 0bca C502     		.2byte	0x2c5
 2390 0bcc DF080000 		.4byte	0x8df
ARM GAS  /tmp/ccapcBze.s 			page 43


 2391 0bd0 03       		.byte	0x3
 2392 0bd1 3C       		.uleb128 0x3c
 2393 0bd2 A9010000 		.4byte	.LASF146
 2394 0bd6 04       		.byte	0x4
 2395 0bd7 B102     		.2byte	0x2b1
 2396 0bd9 52020000 		.4byte	0x252
 2397 0bdd 03       		.byte	0x3
 2398 0bde EE0B0000 		.4byte	0xbee
 2399 0be2 32       		.uleb128 0x32
 2400 0be3 747000   		.ascii	"tp\000"
 2401 0be6 04       		.byte	0x4
 2402 0be7 B102     		.2byte	0x2b1
 2403 0be9 52020000 		.4byte	0x252
 2404 0bed 00       		.byte	0
 2405 0bee 3C       		.uleb128 0x3c
 2406 0bef FA060000 		.4byte	.LASF147
 2407 0bf3 04       		.byte	0x4
 2408 0bf4 9F02     		.2byte	0x29f
 2409 0bf6 52020000 		.4byte	0x252
 2410 0bfa 03       		.byte	0x3
 2411 0bfb 170C0000 		.4byte	0xc17
 2412 0bff 32       		.uleb128 0x32
 2413 0c00 74717000 		.ascii	"tqp\000"
 2414 0c04 04       		.byte	0x4
 2415 0c05 9F02     		.2byte	0x29f
 2416 0c07 170C0000 		.4byte	0xc17
 2417 0c0b 28       		.uleb128 0x28
 2418 0c0c 747000   		.ascii	"tp\000"
 2419 0c0f 04       		.byte	0x4
 2420 0c10 A002     		.2byte	0x2a0
 2421 0c12 52020000 		.4byte	0x252
 2422 0c16 00       		.byte	0
 2423 0c17 0A       		.uleb128 0xa
 2424 0c18 04       		.byte	0x4
 2425 0c19 7C020000 		.4byte	0x27c
 2426 0c1d 31       		.uleb128 0x31
 2427 0c1e 79000000 		.4byte	.LASF148
 2428 0c22 04       		.byte	0x4
 2429 0c23 5A02     		.2byte	0x25a
 2430 0c25 03       		.byte	0x3
 2431 0c26 370C0000 		.4byte	0xc37
 2432 0c2a 32       		.uleb128 0x32
 2433 0c2b 74717000 		.ascii	"tqp\000"
 2434 0c2f 04       		.byte	0x4
 2435 0c30 5A02     		.2byte	0x25a
 2436 0c32 170C0000 		.4byte	0xc17
 2437 0c36 00       		.byte	0
 2438 0c37 3D       		.uleb128 0x3d
 2439 0c38 DC060000 		.4byte	.LASF149
 2440 0c3c 0D       		.byte	0xd
 2441 0c3d E401     		.2byte	0x1e4
 2442 0c3f 03       		.byte	0x3
 2443 0c40 3D       		.uleb128 0x3d
 2444 0c41 64070000 		.4byte	.LASF150
 2445 0c45 0D       		.byte	0xd
 2446 0c46 D901     		.2byte	0x1d9
 2447 0c48 03       		.byte	0x3
ARM GAS  /tmp/ccapcBze.s 			page 44


 2448 0c49 3D       		.uleb128 0x3d
 2449 0c4a 84010000 		.4byte	.LASF151
 2450 0c4e 0D       		.byte	0xd
 2451 0c4f CA01     		.2byte	0x1ca
 2452 0c51 03       		.byte	0x3
 2453 0c52 3D       		.uleb128 0x3d
 2454 0c53 84000000 		.4byte	.LASF152
 2455 0c57 0D       		.byte	0xd
 2456 0c58 BC01     		.2byte	0x1bc
 2457 0c5a 03       		.byte	0x3
 2458 0c5b 31       		.uleb128 0x31
 2459 0c5c 35070000 		.4byte	.LASF153
 2460 0c60 02       		.byte	0x2
 2461 0c61 2002     		.2byte	0x220
 2462 0c63 03       		.byte	0x3
 2463 0c64 750C0000 		.4byte	0xc75
 2464 0c68 3F       		.uleb128 0x3f
 2465 0c69 43020000 		.4byte	.LASF154
 2466 0c6d 02       		.byte	0x2
 2467 0c6e 2002     		.2byte	0x220
 2468 0c70 D6000000 		.4byte	0xd6
 2469 0c74 00       		.byte	0
 2470 0c75 40       		.uleb128 0x40
 2471 0c76 740A0000 		.4byte	0xa74
 2472 0c7a 00000000 		.4byte	.LFB230
 2473 0c7e 6C000000 		.4byte	.LFE230-.LFB230
 2474 0c82 01       		.uleb128 0x1
 2475 0c83 9C       		.byte	0x9c
 2476 0c84 3C0E0000 		.4byte	0xe3c
 2477 0c88 41       		.uleb128 0x41
 2478 0c89 810A0000 		.4byte	0xa81
 2479 0c8d 01       		.uleb128 0x1
 2480 0c8e 50       		.byte	0x50
 2481 0c8f 42       		.uleb128 0x42
 2482 0c90 8B0A0000 		.4byte	0xa8b
 2483 0c94 01       		.uleb128 0x1
 2484 0c95 50       		.byte	0x50
 2485 0c96 43       		.uleb128 0x43
 2486 0c97 BB0B0000 		.4byte	0xbbb
 2487 0c9b 00000000 		.4byte	.LBB128
 2488 0c9f 06000000 		.4byte	.LBE128-.LBB128
 2489 0ca3 01       		.byte	0x1
 2490 0ca4 1601     		.2byte	0x116
 2491 0ca6 E70C0000 		.4byte	0xce7
 2492 0caa 44       		.uleb128 0x44
 2493 0cab 400C0000 		.4byte	0xc40
 2494 0caf 00000000 		.4byte	.LBB129
 2495 0cb3 06000000 		.4byte	.LBE129-.LBB129
 2496 0cb7 12       		.byte	0x12
 2497 0cb8 8401     		.2byte	0x184
 2498 0cba 44       		.uleb128 0x44
 2499 0cbb 520C0000 		.4byte	0xc52
 2500 0cbf 00000000 		.4byte	.LBB130
 2501 0cc3 06000000 		.4byte	.LBE130-.LBB130
 2502 0cc7 0D       		.byte	0xd
 2503 0cc8 DB01     		.2byte	0x1db
 2504 0cca 44       		.uleb128 0x44
ARM GAS  /tmp/ccapcBze.s 			page 45


 2505 0ccb 5B0C0000 		.4byte	0xc5b
 2506 0ccf 00000000 		.4byte	.LBB131
 2507 0cd3 06000000 		.4byte	.LBE131-.LBB131
 2508 0cd7 0D       		.byte	0xd
 2509 0cd8 BF01     		.2byte	0x1bf
 2510 0cda 1F       		.uleb128 0x1f
 2511 0cdb 680C0000 		.4byte	0xc68
 2512 0cdf 7B020000 		.4byte	.LLST0
 2513 0ce3 00       		.byte	0
 2514 0ce4 00       		.byte	0
 2515 0ce5 00       		.byte	0
 2516 0ce6 00       		.byte	0
 2517 0ce7 43       		.uleb128 0x43
 2518 0ce8 770B0000 		.4byte	0xb77
 2519 0cec 1A000000 		.4byte	.LBB133
 2520 0cf0 06000000 		.4byte	.LBE133-.LBB133
 2521 0cf4 01       		.byte	0x1
 2522 0cf5 2201     		.2byte	0x122
 2523 0cf7 050D0000 		.4byte	0xd05
 2524 0cfb 1F       		.uleb128 0x1f
 2525 0cfc 830B0000 		.4byte	0xb83
 2526 0d00 90020000 		.4byte	.LLST1
 2527 0d04 00       		.byte	0
 2528 0d05 43       		.uleb128 0x43
 2529 0d06 D10B0000 		.4byte	0xbd1
 2530 0d0a 20000000 		.4byte	.LBB135
 2531 0d0e 0A000000 		.4byte	.LBE135-.LBB135
 2532 0d12 01       		.byte	0x1
 2533 0d13 2A01     		.2byte	0x12a
 2534 0d15 230D0000 		.4byte	0xd23
 2535 0d19 1F       		.uleb128 0x1f
 2536 0d1a E20B0000 		.4byte	0xbe2
 2537 0d1e A3020000 		.4byte	.LLST2
 2538 0d22 00       		.byte	0
 2539 0d23 1E       		.uleb128 0x1e
 2540 0d24 010B0000 		.4byte	0xb01
 2541 0d28 2C000000 		.4byte	.LBB137
 2542 0d2c 00000000 		.4byte	.Ldebug_ranges0+0
 2543 0d30 01       		.byte	0x1
 2544 0d31 3101     		.2byte	0x131
 2545 0d33 550D0000 		.4byte	0xd55
 2546 0d37 1F       		.uleb128 0x1f
 2547 0d38 110B0000 		.4byte	0xb11
 2548 0d3c B6020000 		.4byte	.LLST3
 2549 0d40 20       		.uleb128 0x20
 2550 0d41 00000000 		.4byte	.Ldebug_ranges0+0
 2551 0d45 21       		.uleb128 0x21
 2552 0d46 1B0B0000 		.4byte	0xb1b
 2553 0d4a C9020000 		.4byte	.LLST4
 2554 0d4e 22       		.uleb128 0x22
 2555 0d4f 250B0000 		.4byte	0xb25
 2556 0d53 00       		.byte	0
 2557 0d54 00       		.byte	0
 2558 0d55 27       		.uleb128 0x27
 2559 0d56 18000000 		.4byte	.Ldebug_ranges0+0x18
 2560 0d5a EE0D0000 		.4byte	0xdee
 2561 0d5e 1F       		.uleb128 0x1f
ARM GAS  /tmp/ccapcBze.s 			page 46


 2562 0d5f 810A0000 		.4byte	0xa81
 2563 0d63 E1020000 		.4byte	.LLST5
 2564 0d67 20       		.uleb128 0x20
 2565 0d68 18000000 		.4byte	.Ldebug_ranges0+0x18
 2566 0d6c 22       		.uleb128 0x22
 2567 0d6d 8F0C0000 		.4byte	0xc8f
 2568 0d71 1E       		.uleb128 0x1e
 2569 0d72 010B0000 		.4byte	0xb01
 2570 0d76 34000000 		.4byte	.LBB142
 2571 0d7a 30000000 		.4byte	.Ldebug_ranges0+0x30
 2572 0d7e 01       		.byte	0x1
 2573 0d7f 3101     		.2byte	0x131
 2574 0d81 9F0D0000 		.4byte	0xd9f
 2575 0d85 45       		.uleb128 0x45
 2576 0d86 110B0000 		.4byte	0xb11
 2577 0d8a 20       		.uleb128 0x20
 2578 0d8b 30000000 		.4byte	.Ldebug_ranges0+0x30
 2579 0d8f 21       		.uleb128 0x21
 2580 0d90 1B0B0000 		.4byte	0xb1b
 2581 0d94 F4020000 		.4byte	.LLST6
 2582 0d98 22       		.uleb128 0x22
 2583 0d99 250B0000 		.4byte	0xb25
 2584 0d9d 00       		.byte	0
 2585 0d9e 00       		.byte	0
 2586 0d9f 2B       		.uleb128 0x2b
 2587 0da0 B20B0000 		.4byte	0xbb2
 2588 0da4 48000000 		.4byte	.LBB147
 2589 0da8 50000000 		.4byte	.Ldebug_ranges0+0x50
 2590 0dac 01       		.byte	0x1
 2591 0dad 3201     		.2byte	0x132
 2592 0daf 2B       		.uleb128 0x2b
 2593 0db0 370C0000 		.4byte	0xc37
 2594 0db4 48000000 		.4byte	.LBB148
 2595 0db8 50000000 		.4byte	.Ldebug_ranges0+0x50
 2596 0dbc 12       		.byte	0x12
 2597 0dbd 9A01     		.2byte	0x19a
 2598 0dbf 2B       		.uleb128 0x2b
 2599 0dc0 490C0000 		.4byte	0xc49
 2600 0dc4 48000000 		.4byte	.LBB149
 2601 0dc8 50000000 		.4byte	.Ldebug_ranges0+0x50
 2602 0dcc 0D       		.byte	0xd
 2603 0dcd E601     		.2byte	0x1e6
 2604 0dcf 2B       		.uleb128 0x2b
 2605 0dd0 5B0C0000 		.4byte	0xc5b
 2606 0dd4 48000000 		.4byte	.LBB150
 2607 0dd8 50000000 		.4byte	.Ldebug_ranges0+0x50
 2608 0ddc 0D       		.byte	0xd
 2609 0ddd CD01     		.2byte	0x1cd
 2610 0ddf 1F       		.uleb128 0x1f
 2611 0de0 680C0000 		.4byte	0xc68
 2612 0de4 07030000 		.4byte	.LLST7
 2613 0de8 00       		.byte	0
 2614 0de9 00       		.byte	0
 2615 0dea 00       		.byte	0
 2616 0deb 00       		.byte	0
 2617 0dec 00       		.byte	0
 2618 0ded 00       		.byte	0
ARM GAS  /tmp/ccapcBze.s 			page 47


 2619 0dee 44       		.uleb128 0x44
 2620 0def B20B0000 		.4byte	0xbb2
 2621 0df3 5E000000 		.4byte	.LBB161
 2622 0df7 0E000000 		.4byte	.LBE161-.LBB161
 2623 0dfb 01       		.byte	0x1
 2624 0dfc 1B01     		.2byte	0x11b
 2625 0dfe 44       		.uleb128 0x44
 2626 0dff 370C0000 		.4byte	0xc37
 2627 0e03 5E000000 		.4byte	.LBB162
 2628 0e07 0E000000 		.4byte	.LBE162-.LBB162
 2629 0e0b 12       		.byte	0x12
 2630 0e0c 9A01     		.2byte	0x19a
 2631 0e0e 44       		.uleb128 0x44
 2632 0e0f 490C0000 		.4byte	0xc49
 2633 0e13 5E000000 		.4byte	.LBB163
 2634 0e17 0E000000 		.4byte	.LBE163-.LBB163
 2635 0e1b 0D       		.byte	0xd
 2636 0e1c E601     		.2byte	0x1e6
 2637 0e1e 44       		.uleb128 0x44
 2638 0e1f 5B0C0000 		.4byte	0xc5b
 2639 0e23 5E000000 		.4byte	.LBB164
 2640 0e27 0E000000 		.4byte	.LBE164-.LBB164
 2641 0e2b 0D       		.byte	0xd
 2642 0e2c CD01     		.2byte	0x1cd
 2643 0e2e 1F       		.uleb128 0x1f
 2644 0e2f 680C0000 		.4byte	0xc68
 2645 0e33 1B030000 		.4byte	.LLST8
 2646 0e37 00       		.byte	0
 2647 0e38 00       		.byte	0
 2648 0e39 00       		.byte	0
 2649 0e3a 00       		.byte	0
 2650 0e3b 00       		.byte	0
 2651 0e3c 40       		.uleb128 0x40
 2652 0e3d 010B0000 		.4byte	0xb01
 2653 0e41 00000000 		.4byte	.LFB228
 2654 0e45 28000000 		.4byte	.LFE228-.LFB228
 2655 0e49 01       		.uleb128 0x1
 2656 0e4a 9C       		.byte	0x9c
 2657 0e4b 650E0000 		.4byte	0xe65
 2658 0e4f 1F       		.uleb128 0x1f
 2659 0e50 110B0000 		.4byte	0xb11
 2660 0e54 2F030000 		.4byte	.LLST10
 2661 0e58 42       		.uleb128 0x42
 2662 0e59 1B0B0000 		.4byte	0xb1b
 2663 0e5d 01       		.uleb128 0x1
 2664 0e5e 53       		.byte	0x53
 2665 0e5f 22       		.uleb128 0x22
 2666 0e60 250B0000 		.4byte	0xb25
 2667 0e64 00       		.byte	0
 2668 0e65 46       		.uleb128 0x46
 2669 0e66 9A020000 		.4byte	.LASF155
 2670 0e6a 9A020000 		.4byte	.LASF155
 2671 0e6e 0D       		.byte	0xd
 2672 0e6f 6701     		.2byte	0x167
 2673 0e71 47       		.uleb128 0x47
 2674 0e72 25030000 		.4byte	.LASF156
 2675 0e76 25030000 		.4byte	.LASF156
ARM GAS  /tmp/ccapcBze.s 			page 48


 2676 0e7a 11       		.byte	0x11
 2677 0e7b BC       		.byte	0xbc
 2678 0e7c 47       		.uleb128 0x47
 2679 0e7d B3000000 		.4byte	.LASF157
 2680 0e81 B3000000 		.4byte	.LASF157
 2681 0e85 11       		.byte	0x11
 2682 0e86 BE       		.byte	0xbe
 2683 0e87 00       		.byte	0
 2684              		.section	.debug_abbrev,"",%progbits
 2685              	.Ldebug_abbrev0:
 2686 0000 01       		.uleb128 0x1
 2687 0001 11       		.uleb128 0x11
 2688 0002 01       		.byte	0x1
 2689 0003 25       		.uleb128 0x25
 2690 0004 0E       		.uleb128 0xe
 2691 0005 13       		.uleb128 0x13
 2692 0006 0B       		.uleb128 0xb
 2693 0007 03       		.uleb128 0x3
 2694 0008 0E       		.uleb128 0xe
 2695 0009 55       		.uleb128 0x55
 2696 000a 17       		.uleb128 0x17
 2697 000b 11       		.uleb128 0x11
 2698 000c 01       		.uleb128 0x1
 2699 000d 10       		.uleb128 0x10
 2700 000e 17       		.uleb128 0x17
 2701 000f 00       		.byte	0
 2702 0010 00       		.byte	0
 2703 0011 02       		.uleb128 0x2
 2704 0012 24       		.uleb128 0x24
 2705 0013 00       		.byte	0
 2706 0014 0B       		.uleb128 0xb
 2707 0015 0B       		.uleb128 0xb
 2708 0016 3E       		.uleb128 0x3e
 2709 0017 0B       		.uleb128 0xb
 2710 0018 03       		.uleb128 0x3
 2711 0019 08       		.uleb128 0x8
 2712 001a 00       		.byte	0
 2713 001b 00       		.byte	0
 2714 001c 03       		.uleb128 0x3
 2715 001d 16       		.uleb128 0x16
 2716 001e 00       		.byte	0
 2717 001f 03       		.uleb128 0x3
 2718 0020 0E       		.uleb128 0xe
 2719 0021 3A       		.uleb128 0x3a
 2720 0022 0B       		.uleb128 0xb
 2721 0023 3B       		.uleb128 0x3b
 2722 0024 0B       		.uleb128 0xb
 2723 0025 49       		.uleb128 0x49
 2724 0026 13       		.uleb128 0x13
 2725 0027 00       		.byte	0
 2726 0028 00       		.byte	0
 2727 0029 04       		.uleb128 0x4
 2728 002a 24       		.uleb128 0x24
 2729 002b 00       		.byte	0
 2730 002c 0B       		.uleb128 0xb
 2731 002d 0B       		.uleb128 0xb
 2732 002e 3E       		.uleb128 0x3e
ARM GAS  /tmp/ccapcBze.s 			page 49


 2733 002f 0B       		.uleb128 0xb
 2734 0030 03       		.uleb128 0x3
 2735 0031 0E       		.uleb128 0xe
 2736 0032 00       		.byte	0
 2737 0033 00       		.byte	0
 2738 0034 05       		.uleb128 0x5
 2739 0035 35       		.uleb128 0x35
 2740 0036 00       		.byte	0
 2741 0037 49       		.uleb128 0x49
 2742 0038 13       		.uleb128 0x13
 2743 0039 00       		.byte	0
 2744 003a 00       		.byte	0
 2745 003b 06       		.uleb128 0x6
 2746 003c 13       		.uleb128 0x13
 2747 003d 01       		.byte	0x1
 2748 003e 03       		.uleb128 0x3
 2749 003f 0E       		.uleb128 0xe
 2750 0040 0B       		.uleb128 0xb
 2751 0041 0B       		.uleb128 0xb
 2752 0042 3A       		.uleb128 0x3a
 2753 0043 0B       		.uleb128 0xb
 2754 0044 3B       		.uleb128 0x3b
 2755 0045 0B       		.uleb128 0xb
 2756 0046 01       		.uleb128 0x1
 2757 0047 13       		.uleb128 0x13
 2758 0048 00       		.byte	0
 2759 0049 00       		.byte	0
 2760 004a 07       		.uleb128 0x7
 2761 004b 0D       		.uleb128 0xd
 2762 004c 00       		.byte	0
 2763 004d 03       		.uleb128 0x3
 2764 004e 0E       		.uleb128 0xe
 2765 004f 3A       		.uleb128 0x3a
 2766 0050 0B       		.uleb128 0xb
 2767 0051 3B       		.uleb128 0x3b
 2768 0052 0B       		.uleb128 0xb
 2769 0053 49       		.uleb128 0x49
 2770 0054 13       		.uleb128 0x13
 2771 0055 38       		.uleb128 0x38
 2772 0056 0B       		.uleb128 0xb
 2773 0057 00       		.byte	0
 2774 0058 00       		.byte	0
 2775 0059 08       		.uleb128 0x8
 2776 005a 0D       		.uleb128 0xd
 2777 005b 00       		.byte	0
 2778 005c 03       		.uleb128 0x3
 2779 005d 08       		.uleb128 0x8
 2780 005e 3A       		.uleb128 0x3a
 2781 005f 0B       		.uleb128 0xb
 2782 0060 3B       		.uleb128 0x3b
 2783 0061 05       		.uleb128 0x5
 2784 0062 49       		.uleb128 0x49
 2785 0063 13       		.uleb128 0x13
 2786 0064 38       		.uleb128 0x38
 2787 0065 0B       		.uleb128 0xb
 2788 0066 00       		.byte	0
 2789 0067 00       		.byte	0
ARM GAS  /tmp/ccapcBze.s 			page 50


 2790 0068 09       		.uleb128 0x9
 2791 0069 0D       		.uleb128 0xd
 2792 006a 00       		.byte	0
 2793 006b 03       		.uleb128 0x3
 2794 006c 0E       		.uleb128 0xe
 2795 006d 3A       		.uleb128 0x3a
 2796 006e 0B       		.uleb128 0xb
 2797 006f 3B       		.uleb128 0x3b
 2798 0070 05       		.uleb128 0x5
 2799 0071 49       		.uleb128 0x49
 2800 0072 13       		.uleb128 0x13
 2801 0073 38       		.uleb128 0x38
 2802 0074 0B       		.uleb128 0xb
 2803 0075 00       		.byte	0
 2804 0076 00       		.byte	0
 2805 0077 0A       		.uleb128 0xa
 2806 0078 0F       		.uleb128 0xf
 2807 0079 00       		.byte	0
 2808 007a 0B       		.uleb128 0xb
 2809 007b 0B       		.uleb128 0xb
 2810 007c 49       		.uleb128 0x49
 2811 007d 13       		.uleb128 0x13
 2812 007e 00       		.byte	0
 2813 007f 00       		.byte	0
 2814 0080 0B       		.uleb128 0xb
 2815 0081 13       		.uleb128 0x13
 2816 0082 01       		.byte	0x1
 2817 0083 03       		.uleb128 0x3
 2818 0084 0E       		.uleb128 0xe
 2819 0085 0B       		.uleb128 0xb
 2820 0086 0B       		.uleb128 0xb
 2821 0087 3A       		.uleb128 0x3a
 2822 0088 0B       		.uleb128 0xb
 2823 0089 3B       		.uleb128 0x3b
 2824 008a 05       		.uleb128 0x5
 2825 008b 01       		.uleb128 0x1
 2826 008c 13       		.uleb128 0x13
 2827 008d 00       		.byte	0
 2828 008e 00       		.byte	0
 2829 008f 0C       		.uleb128 0xc
 2830 0090 15       		.uleb128 0x15
 2831 0091 01       		.byte	0x1
 2832 0092 27       		.uleb128 0x27
 2833 0093 19       		.uleb128 0x19
 2834 0094 01       		.uleb128 0x1
 2835 0095 13       		.uleb128 0x13
 2836 0096 00       		.byte	0
 2837 0097 00       		.byte	0
 2838 0098 0D       		.uleb128 0xd
 2839 0099 05       		.uleb128 0x5
 2840 009a 00       		.byte	0
 2841 009b 49       		.uleb128 0x49
 2842 009c 13       		.uleb128 0x13
 2843 009d 00       		.byte	0
 2844 009e 00       		.byte	0
 2845 009f 0E       		.uleb128 0xe
 2846 00a0 0F       		.uleb128 0xf
ARM GAS  /tmp/ccapcBze.s 			page 51


 2847 00a1 00       		.byte	0
 2848 00a2 0B       		.uleb128 0xb
 2849 00a3 0B       		.uleb128 0xb
 2850 00a4 00       		.byte	0
 2851 00a5 00       		.byte	0
 2852 00a6 0F       		.uleb128 0xf
 2853 00a7 13       		.uleb128 0x13
 2854 00a8 01       		.byte	0x1
 2855 00a9 03       		.uleb128 0x3
 2856 00aa 0E       		.uleb128 0xe
 2857 00ab 0B       		.uleb128 0xb
 2858 00ac 05       		.uleb128 0x5
 2859 00ad 3A       		.uleb128 0x3a
 2860 00ae 0B       		.uleb128 0xb
 2861 00af 3B       		.uleb128 0x3b
 2862 00b0 05       		.uleb128 0x5
 2863 00b1 01       		.uleb128 0x1
 2864 00b2 13       		.uleb128 0x13
 2865 00b3 00       		.byte	0
 2866 00b4 00       		.byte	0
 2867 00b5 10       		.uleb128 0x10
 2868 00b6 34       		.uleb128 0x34
 2869 00b7 00       		.byte	0
 2870 00b8 03       		.uleb128 0x3
 2871 00b9 0E       		.uleb128 0xe
 2872 00ba 3A       		.uleb128 0x3a
 2873 00bb 0B       		.uleb128 0xb
 2874 00bc 3B       		.uleb128 0x3b
 2875 00bd 05       		.uleb128 0x5
 2876 00be 49       		.uleb128 0x49
 2877 00bf 13       		.uleb128 0x13
 2878 00c0 3F       		.uleb128 0x3f
 2879 00c1 19       		.uleb128 0x19
 2880 00c2 3C       		.uleb128 0x3c
 2881 00c3 19       		.uleb128 0x19
 2882 00c4 00       		.byte	0
 2883 00c5 00       		.byte	0
 2884 00c6 11       		.uleb128 0x11
 2885 00c7 34       		.uleb128 0x34
 2886 00c8 00       		.byte	0
 2887 00c9 03       		.uleb128 0x3
 2888 00ca 0E       		.uleb128 0xe
 2889 00cb 3A       		.uleb128 0x3a
 2890 00cc 0B       		.uleb128 0xb
 2891 00cd 3B       		.uleb128 0x3b
 2892 00ce 0B       		.uleb128 0xb
 2893 00cf 49       		.uleb128 0x49
 2894 00d0 13       		.uleb128 0x13
 2895 00d1 3F       		.uleb128 0x3f
 2896 00d2 19       		.uleb128 0x19
 2897 00d3 3C       		.uleb128 0x3c
 2898 00d4 19       		.uleb128 0x19
 2899 00d5 00       		.byte	0
 2900 00d6 00       		.byte	0
 2901 00d7 12       		.uleb128 0x12
 2902 00d8 0D       		.uleb128 0xd
 2903 00d9 00       		.byte	0
ARM GAS  /tmp/ccapcBze.s 			page 52


 2904 00da 03       		.uleb128 0x3
 2905 00db 08       		.uleb128 0x8
 2906 00dc 3A       		.uleb128 0x3a
 2907 00dd 0B       		.uleb128 0xb
 2908 00de 3B       		.uleb128 0x3b
 2909 00df 0B       		.uleb128 0xb
 2910 00e0 49       		.uleb128 0x49
 2911 00e1 13       		.uleb128 0x13
 2912 00e2 38       		.uleb128 0x38
 2913 00e3 0B       		.uleb128 0xb
 2914 00e4 00       		.byte	0
 2915 00e5 00       		.byte	0
 2916 00e6 13       		.uleb128 0x13
 2917 00e7 13       		.uleb128 0x13
 2918 00e8 01       		.byte	0x1
 2919 00e9 0B       		.uleb128 0xb
 2920 00ea 0B       		.uleb128 0xb
 2921 00eb 3A       		.uleb128 0x3a
 2922 00ec 0B       		.uleb128 0xb
 2923 00ed 3B       		.uleb128 0x3b
 2924 00ee 0B       		.uleb128 0xb
 2925 00ef 01       		.uleb128 0x1
 2926 00f0 13       		.uleb128 0x13
 2927 00f1 00       		.byte	0
 2928 00f2 00       		.byte	0
 2929 00f3 14       		.uleb128 0x14
 2930 00f4 17       		.uleb128 0x17
 2931 00f5 01       		.byte	0x1
 2932 00f6 0B       		.uleb128 0xb
 2933 00f7 0B       		.uleb128 0xb
 2934 00f8 3A       		.uleb128 0x3a
 2935 00f9 0B       		.uleb128 0xb
 2936 00fa 3B       		.uleb128 0x3b
 2937 00fb 0B       		.uleb128 0xb
 2938 00fc 01       		.uleb128 0x1
 2939 00fd 13       		.uleb128 0x13
 2940 00fe 00       		.byte	0
 2941 00ff 00       		.byte	0
 2942 0100 15       		.uleb128 0x15
 2943 0101 0D       		.uleb128 0xd
 2944 0102 00       		.byte	0
 2945 0103 03       		.uleb128 0x3
 2946 0104 0E       		.uleb128 0xe
 2947 0105 3A       		.uleb128 0x3a
 2948 0106 0B       		.uleb128 0xb
 2949 0107 3B       		.uleb128 0x3b
 2950 0108 05       		.uleb128 0x5
 2951 0109 49       		.uleb128 0x49
 2952 010a 13       		.uleb128 0x13
 2953 010b 00       		.byte	0
 2954 010c 00       		.byte	0
 2955 010d 16       		.uleb128 0x16
 2956 010e 26       		.uleb128 0x26
 2957 010f 00       		.byte	0
 2958 0110 49       		.uleb128 0x49
 2959 0111 13       		.uleb128 0x13
 2960 0112 00       		.byte	0
ARM GAS  /tmp/ccapcBze.s 			page 53


 2961 0113 00       		.byte	0
 2962 0114 17       		.uleb128 0x17
 2963 0115 01       		.uleb128 0x1
 2964 0116 01       		.byte	0x1
 2965 0117 49       		.uleb128 0x49
 2966 0118 13       		.uleb128 0x13
 2967 0119 01       		.uleb128 0x1
 2968 011a 13       		.uleb128 0x13
 2969 011b 00       		.byte	0
 2970 011c 00       		.byte	0
 2971 011d 18       		.uleb128 0x18
 2972 011e 21       		.uleb128 0x21
 2973 011f 00       		.byte	0
 2974 0120 49       		.uleb128 0x49
 2975 0121 13       		.uleb128 0x13
 2976 0122 2F       		.uleb128 0x2f
 2977 0123 0B       		.uleb128 0xb
 2978 0124 00       		.byte	0
 2979 0125 00       		.byte	0
 2980 0126 19       		.uleb128 0x19
 2981 0127 34       		.uleb128 0x34
 2982 0128 00       		.byte	0
 2983 0129 03       		.uleb128 0x3
 2984 012a 08       		.uleb128 0x8
 2985 012b 3A       		.uleb128 0x3a
 2986 012c 0B       		.uleb128 0xb
 2987 012d 3B       		.uleb128 0x3b
 2988 012e 05       		.uleb128 0x5
 2989 012f 49       		.uleb128 0x49
 2990 0130 13       		.uleb128 0x13
 2991 0131 3F       		.uleb128 0x3f
 2992 0132 19       		.uleb128 0x19
 2993 0133 3C       		.uleb128 0x3c
 2994 0134 19       		.uleb128 0x19
 2995 0135 00       		.byte	0
 2996 0136 00       		.byte	0
 2997 0137 1A       		.uleb128 0x1a
 2998 0138 34       		.uleb128 0x34
 2999 0139 00       		.byte	0
 3000 013a 47       		.uleb128 0x47
 3001 013b 13       		.uleb128 0x13
 3002 013c 3A       		.uleb128 0x3a
 3003 013d 0B       		.uleb128 0xb
 3004 013e 3B       		.uleb128 0x3b
 3005 013f 0B       		.uleb128 0xb
 3006 0140 02       		.uleb128 0x2
 3007 0141 18       		.uleb128 0x18
 3008 0142 00       		.byte	0
 3009 0143 00       		.byte	0
 3010 0144 1B       		.uleb128 0x1b
 3011 0145 2E       		.uleb128 0x2e
 3012 0146 01       		.byte	0x1
 3013 0147 3F       		.uleb128 0x3f
 3014 0148 19       		.uleb128 0x19
 3015 0149 03       		.uleb128 0x3
 3016 014a 0E       		.uleb128 0xe
 3017 014b 3A       		.uleb128 0x3a
ARM GAS  /tmp/ccapcBze.s 			page 54


 3018 014c 0B       		.uleb128 0xb
 3019 014d 3B       		.uleb128 0x3b
 3020 014e 05       		.uleb128 0x5
 3021 014f 27       		.uleb128 0x27
 3022 0150 19       		.uleb128 0x19
 3023 0151 11       		.uleb128 0x11
 3024 0152 01       		.uleb128 0x1
 3025 0153 12       		.uleb128 0x12
 3026 0154 06       		.uleb128 0x6
 3027 0155 40       		.uleb128 0x40
 3028 0156 18       		.uleb128 0x18
 3029 0157 9742     		.uleb128 0x2117
 3030 0159 19       		.uleb128 0x19
 3031 015a 01       		.uleb128 0x1
 3032 015b 13       		.uleb128 0x13
 3033 015c 00       		.byte	0
 3034 015d 00       		.byte	0
 3035 015e 1C       		.uleb128 0x1c
 3036 015f 898201   		.uleb128 0x4109
 3037 0162 00       		.byte	0
 3038 0163 11       		.uleb128 0x11
 3039 0164 01       		.uleb128 0x1
 3040 0165 9542     		.uleb128 0x2115
 3041 0167 19       		.uleb128 0x19
 3042 0168 31       		.uleb128 0x31
 3043 0169 13       		.uleb128 0x13
 3044 016a 00       		.byte	0
 3045 016b 00       		.byte	0
 3046 016c 1D       		.uleb128 0x1d
 3047 016d 34       		.uleb128 0x34
 3048 016e 00       		.byte	0
 3049 016f 03       		.uleb128 0x3
 3050 0170 08       		.uleb128 0x8
 3051 0171 3A       		.uleb128 0x3a
 3052 0172 0B       		.uleb128 0xb
 3053 0173 3B       		.uleb128 0x3b
 3054 0174 05       		.uleb128 0x5
 3055 0175 49       		.uleb128 0x49
 3056 0176 13       		.uleb128 0x13
 3057 0177 02       		.uleb128 0x2
 3058 0178 17       		.uleb128 0x17
 3059 0179 00       		.byte	0
 3060 017a 00       		.byte	0
 3061 017b 1E       		.uleb128 0x1e
 3062 017c 1D       		.uleb128 0x1d
 3063 017d 01       		.byte	0x1
 3064 017e 31       		.uleb128 0x31
 3065 017f 13       		.uleb128 0x13
 3066 0180 52       		.uleb128 0x52
 3067 0181 01       		.uleb128 0x1
 3068 0182 55       		.uleb128 0x55
 3069 0183 17       		.uleb128 0x17
 3070 0184 58       		.uleb128 0x58
 3071 0185 0B       		.uleb128 0xb
 3072 0186 59       		.uleb128 0x59
 3073 0187 05       		.uleb128 0x5
 3074 0188 01       		.uleb128 0x1
ARM GAS  /tmp/ccapcBze.s 			page 55


 3075 0189 13       		.uleb128 0x13
 3076 018a 00       		.byte	0
 3077 018b 00       		.byte	0
 3078 018c 1F       		.uleb128 0x1f
 3079 018d 05       		.uleb128 0x5
 3080 018e 00       		.byte	0
 3081 018f 31       		.uleb128 0x31
 3082 0190 13       		.uleb128 0x13
 3083 0191 02       		.uleb128 0x2
 3084 0192 17       		.uleb128 0x17
 3085 0193 00       		.byte	0
 3086 0194 00       		.byte	0
 3087 0195 20       		.uleb128 0x20
 3088 0196 0B       		.uleb128 0xb
 3089 0197 01       		.byte	0x1
 3090 0198 55       		.uleb128 0x55
 3091 0199 17       		.uleb128 0x17
 3092 019a 00       		.byte	0
 3093 019b 00       		.byte	0
 3094 019c 21       		.uleb128 0x21
 3095 019d 34       		.uleb128 0x34
 3096 019e 00       		.byte	0
 3097 019f 31       		.uleb128 0x31
 3098 01a0 13       		.uleb128 0x13
 3099 01a1 02       		.uleb128 0x2
 3100 01a2 17       		.uleb128 0x17
 3101 01a3 00       		.byte	0
 3102 01a4 00       		.byte	0
 3103 01a5 22       		.uleb128 0x22
 3104 01a6 34       		.uleb128 0x34
 3105 01a7 00       		.byte	0
 3106 01a8 31       		.uleb128 0x31
 3107 01a9 13       		.uleb128 0x13
 3108 01aa 00       		.byte	0
 3109 01ab 00       		.byte	0
 3110 01ac 23       		.uleb128 0x23
 3111 01ad 2E       		.uleb128 0x2e
 3112 01ae 01       		.byte	0x1
 3113 01af 3F       		.uleb128 0x3f
 3114 01b0 19       		.uleb128 0x19
 3115 01b1 03       		.uleb128 0x3
 3116 01b2 0E       		.uleb128 0xe
 3117 01b3 3A       		.uleb128 0x3a
 3118 01b4 0B       		.uleb128 0xb
 3119 01b5 3B       		.uleb128 0x3b
 3120 01b6 05       		.uleb128 0x5
 3121 01b7 27       		.uleb128 0x27
 3122 01b8 19       		.uleb128 0x19
 3123 01b9 49       		.uleb128 0x49
 3124 01ba 13       		.uleb128 0x13
 3125 01bb 11       		.uleb128 0x11
 3126 01bc 01       		.uleb128 0x1
 3127 01bd 12       		.uleb128 0x12
 3128 01be 06       		.uleb128 0x6
 3129 01bf 40       		.uleb128 0x40
 3130 01c0 18       		.uleb128 0x18
 3131 01c1 9742     		.uleb128 0x2117
ARM GAS  /tmp/ccapcBze.s 			page 56


 3132 01c3 19       		.uleb128 0x19
 3133 01c4 01       		.uleb128 0x1
 3134 01c5 13       		.uleb128 0x13
 3135 01c6 00       		.byte	0
 3136 01c7 00       		.byte	0
 3137 01c8 24       		.uleb128 0x24
 3138 01c9 34       		.uleb128 0x34
 3139 01ca 00       		.byte	0
 3140 01cb 03       		.uleb128 0x3
 3141 01cc 08       		.uleb128 0x8
 3142 01cd 3A       		.uleb128 0x3a
 3143 01ce 0B       		.uleb128 0xb
 3144 01cf 3B       		.uleb128 0x3b
 3145 01d0 05       		.uleb128 0x5
 3146 01d1 49       		.uleb128 0x49
 3147 01d2 13       		.uleb128 0x13
 3148 01d3 02       		.uleb128 0x2
 3149 01d4 18       		.uleb128 0x18
 3150 01d5 00       		.byte	0
 3151 01d6 00       		.byte	0
 3152 01d7 25       		.uleb128 0x25
 3153 01d8 1D       		.uleb128 0x1d
 3154 01d9 00       		.byte	0
 3155 01da 31       		.uleb128 0x31
 3156 01db 13       		.uleb128 0x13
 3157 01dc 11       		.uleb128 0x11
 3158 01dd 01       		.uleb128 0x1
 3159 01de 12       		.uleb128 0x12
 3160 01df 06       		.uleb128 0x6
 3161 01e0 58       		.uleb128 0x58
 3162 01e1 0B       		.uleb128 0xb
 3163 01e2 59       		.uleb128 0x59
 3164 01e3 05       		.uleb128 0x5
 3165 01e4 00       		.byte	0
 3166 01e5 00       		.byte	0
 3167 01e6 26       		.uleb128 0x26
 3168 01e7 05       		.uleb128 0x5
 3169 01e8 00       		.byte	0
 3170 01e9 03       		.uleb128 0x3
 3171 01ea 08       		.uleb128 0x8
 3172 01eb 3A       		.uleb128 0x3a
 3173 01ec 0B       		.uleb128 0xb
 3174 01ed 3B       		.uleb128 0x3b
 3175 01ee 05       		.uleb128 0x5
 3176 01ef 49       		.uleb128 0x49
 3177 01f0 13       		.uleb128 0x13
 3178 01f1 02       		.uleb128 0x2
 3179 01f2 17       		.uleb128 0x17
 3180 01f3 00       		.byte	0
 3181 01f4 00       		.byte	0
 3182 01f5 27       		.uleb128 0x27
 3183 01f6 0B       		.uleb128 0xb
 3184 01f7 01       		.byte	0x1
 3185 01f8 55       		.uleb128 0x55
 3186 01f9 17       		.uleb128 0x17
 3187 01fa 01       		.uleb128 0x1
 3188 01fb 13       		.uleb128 0x13
ARM GAS  /tmp/ccapcBze.s 			page 57


 3189 01fc 00       		.byte	0
 3190 01fd 00       		.byte	0
 3191 01fe 28       		.uleb128 0x28
 3192 01ff 34       		.uleb128 0x34
 3193 0200 00       		.byte	0
 3194 0201 03       		.uleb128 0x3
 3195 0202 08       		.uleb128 0x8
 3196 0203 3A       		.uleb128 0x3a
 3197 0204 0B       		.uleb128 0xb
 3198 0205 3B       		.uleb128 0x3b
 3199 0206 05       		.uleb128 0x5
 3200 0207 49       		.uleb128 0x49
 3201 0208 13       		.uleb128 0x13
 3202 0209 00       		.byte	0
 3203 020a 00       		.byte	0
 3204 020b 29       		.uleb128 0x29
 3205 020c 898201   		.uleb128 0x4109
 3206 020f 01       		.byte	0x1
 3207 0210 11       		.uleb128 0x11
 3208 0211 01       		.uleb128 0x1
 3209 0212 9542     		.uleb128 0x2115
 3210 0214 19       		.uleb128 0x19
 3211 0215 31       		.uleb128 0x31
 3212 0216 13       		.uleb128 0x13
 3213 0217 00       		.byte	0
 3214 0218 00       		.byte	0
 3215 0219 2A       		.uleb128 0x2a
 3216 021a 8A8201   		.uleb128 0x410a
 3217 021d 00       		.byte	0
 3218 021e 02       		.uleb128 0x2
 3219 021f 18       		.uleb128 0x18
 3220 0220 9142     		.uleb128 0x2111
 3221 0222 18       		.uleb128 0x18
 3222 0223 00       		.byte	0
 3223 0224 00       		.byte	0
 3224 0225 2B       		.uleb128 0x2b
 3225 0226 1D       		.uleb128 0x1d
 3226 0227 01       		.byte	0x1
 3227 0228 31       		.uleb128 0x31
 3228 0229 13       		.uleb128 0x13
 3229 022a 52       		.uleb128 0x52
 3230 022b 01       		.uleb128 0x1
 3231 022c 55       		.uleb128 0x55
 3232 022d 17       		.uleb128 0x17
 3233 022e 58       		.uleb128 0x58
 3234 022f 0B       		.uleb128 0xb
 3235 0230 59       		.uleb128 0x59
 3236 0231 05       		.uleb128 0x5
 3237 0232 00       		.byte	0
 3238 0233 00       		.byte	0
 3239 0234 2C       		.uleb128 0x2c
 3240 0235 05       		.uleb128 0x5
 3241 0236 00       		.byte	0
 3242 0237 03       		.uleb128 0x3
 3243 0238 0E       		.uleb128 0xe
 3244 0239 3A       		.uleb128 0x3a
 3245 023a 0B       		.uleb128 0xb
ARM GAS  /tmp/ccapcBze.s 			page 58


 3246 023b 3B       		.uleb128 0x3b
 3247 023c 05       		.uleb128 0x5
 3248 023d 49       		.uleb128 0x49
 3249 023e 13       		.uleb128 0x13
 3250 023f 02       		.uleb128 0x2
 3251 0240 17       		.uleb128 0x17
 3252 0241 00       		.byte	0
 3253 0242 00       		.byte	0
 3254 0243 2D       		.uleb128 0x2d
 3255 0244 0B       		.uleb128 0xb
 3256 0245 01       		.byte	0x1
 3257 0246 11       		.uleb128 0x11
 3258 0247 01       		.uleb128 0x1
 3259 0248 12       		.uleb128 0x12
 3260 0249 06       		.uleb128 0x6
 3261 024a 01       		.uleb128 0x1
 3262 024b 13       		.uleb128 0x13
 3263 024c 00       		.byte	0
 3264 024d 00       		.byte	0
 3265 024e 2E       		.uleb128 0x2e
 3266 024f 898201   		.uleb128 0x4109
 3267 0252 01       		.byte	0x1
 3268 0253 11       		.uleb128 0x11
 3269 0254 01       		.uleb128 0x1
 3270 0255 31       		.uleb128 0x31
 3271 0256 13       		.uleb128 0x13
 3272 0257 01       		.uleb128 0x1
 3273 0258 13       		.uleb128 0x13
 3274 0259 00       		.byte	0
 3275 025a 00       		.byte	0
 3276 025b 2F       		.uleb128 0x2f
 3277 025c 898201   		.uleb128 0x4109
 3278 025f 01       		.byte	0x1
 3279 0260 11       		.uleb128 0x11
 3280 0261 01       		.uleb128 0x1
 3281 0262 31       		.uleb128 0x31
 3282 0263 13       		.uleb128 0x13
 3283 0264 00       		.byte	0
 3284 0265 00       		.byte	0
 3285 0266 30       		.uleb128 0x30
 3286 0267 898201   		.uleb128 0x4109
 3287 026a 00       		.byte	0
 3288 026b 11       		.uleb128 0x11
 3289 026c 01       		.uleb128 0x1
 3290 026d 31       		.uleb128 0x31
 3291 026e 13       		.uleb128 0x13
 3292 026f 00       		.byte	0
 3293 0270 00       		.byte	0
 3294 0271 31       		.uleb128 0x31
 3295 0272 2E       		.uleb128 0x2e
 3296 0273 01       		.byte	0x1
 3297 0274 03       		.uleb128 0x3
 3298 0275 0E       		.uleb128 0xe
 3299 0276 3A       		.uleb128 0x3a
 3300 0277 0B       		.uleb128 0xb
 3301 0278 3B       		.uleb128 0x3b
 3302 0279 05       		.uleb128 0x5
ARM GAS  /tmp/ccapcBze.s 			page 59


 3303 027a 27       		.uleb128 0x27
 3304 027b 19       		.uleb128 0x19
 3305 027c 20       		.uleb128 0x20
 3306 027d 0B       		.uleb128 0xb
 3307 027e 01       		.uleb128 0x1
 3308 027f 13       		.uleb128 0x13
 3309 0280 00       		.byte	0
 3310 0281 00       		.byte	0
 3311 0282 32       		.uleb128 0x32
 3312 0283 05       		.uleb128 0x5
 3313 0284 00       		.byte	0
 3314 0285 03       		.uleb128 0x3
 3315 0286 08       		.uleb128 0x8
 3316 0287 3A       		.uleb128 0x3a
 3317 0288 0B       		.uleb128 0xb
 3318 0289 3B       		.uleb128 0x3b
 3319 028a 05       		.uleb128 0x5
 3320 028b 49       		.uleb128 0x49
 3321 028c 13       		.uleb128 0x13
 3322 028d 00       		.byte	0
 3323 028e 00       		.byte	0
 3324 028f 33       		.uleb128 0x33
 3325 0290 2E       		.uleb128 0x2e
 3326 0291 01       		.byte	0x1
 3327 0292 3F       		.uleb128 0x3f
 3328 0293 19       		.uleb128 0x19
 3329 0294 03       		.uleb128 0x3
 3330 0295 0E       		.uleb128 0xe
 3331 0296 3A       		.uleb128 0x3a
 3332 0297 0B       		.uleb128 0xb
 3333 0298 3B       		.uleb128 0x3b
 3334 0299 0B       		.uleb128 0xb
 3335 029a 27       		.uleb128 0x27
 3336 029b 19       		.uleb128 0x19
 3337 029c 11       		.uleb128 0x11
 3338 029d 01       		.uleb128 0x1
 3339 029e 12       		.uleb128 0x12
 3340 029f 06       		.uleb128 0x6
 3341 02a0 40       		.uleb128 0x40
 3342 02a1 18       		.uleb128 0x18
 3343 02a2 9742     		.uleb128 0x2117
 3344 02a4 19       		.uleb128 0x19
 3345 02a5 01       		.uleb128 0x1
 3346 02a6 13       		.uleb128 0x13
 3347 02a7 00       		.byte	0
 3348 02a8 00       		.byte	0
 3349 02a9 34       		.uleb128 0x34
 3350 02aa 05       		.uleb128 0x5
 3351 02ab 00       		.byte	0
 3352 02ac 03       		.uleb128 0x3
 3353 02ad 0E       		.uleb128 0xe
 3354 02ae 3A       		.uleb128 0x3a
 3355 02af 0B       		.uleb128 0xb
 3356 02b0 3B       		.uleb128 0x3b
 3357 02b1 0B       		.uleb128 0xb
 3358 02b2 49       		.uleb128 0x49
 3359 02b3 13       		.uleb128 0x13
ARM GAS  /tmp/ccapcBze.s 			page 60


 3360 02b4 02       		.uleb128 0x2
 3361 02b5 17       		.uleb128 0x17
 3362 02b6 00       		.byte	0
 3363 02b7 00       		.byte	0
 3364 02b8 35       		.uleb128 0x35
 3365 02b9 34       		.uleb128 0x34
 3366 02ba 00       		.byte	0
 3367 02bb 03       		.uleb128 0x3
 3368 02bc 08       		.uleb128 0x8
 3369 02bd 3A       		.uleb128 0x3a
 3370 02be 0B       		.uleb128 0xb
 3371 02bf 3B       		.uleb128 0x3b
 3372 02c0 0B       		.uleb128 0xb
 3373 02c1 49       		.uleb128 0x49
 3374 02c2 13       		.uleb128 0x13
 3375 02c3 02       		.uleb128 0x2
 3376 02c4 17       		.uleb128 0x17
 3377 02c5 00       		.byte	0
 3378 02c6 00       		.byte	0
 3379 02c7 36       		.uleb128 0x36
 3380 02c8 2E       		.uleb128 0x2e
 3381 02c9 01       		.byte	0x1
 3382 02ca 3F       		.uleb128 0x3f
 3383 02cb 19       		.uleb128 0x19
 3384 02cc 03       		.uleb128 0x3
 3385 02cd 0E       		.uleb128 0xe
 3386 02ce 3A       		.uleb128 0x3a
 3387 02cf 0B       		.uleb128 0xb
 3388 02d0 3B       		.uleb128 0x3b
 3389 02d1 0B       		.uleb128 0xb
 3390 02d2 27       		.uleb128 0x27
 3391 02d3 19       		.uleb128 0x19
 3392 02d4 49       		.uleb128 0x49
 3393 02d5 13       		.uleb128 0x13
 3394 02d6 20       		.uleb128 0x20
 3395 02d7 0B       		.uleb128 0xb
 3396 02d8 01       		.uleb128 0x1
 3397 02d9 13       		.uleb128 0x13
 3398 02da 00       		.byte	0
 3399 02db 00       		.byte	0
 3400 02dc 37       		.uleb128 0x37
 3401 02dd 05       		.uleb128 0x5
 3402 02de 00       		.byte	0
 3403 02df 03       		.uleb128 0x3
 3404 02e0 08       		.uleb128 0x8
 3405 02e1 3A       		.uleb128 0x3a
 3406 02e2 0B       		.uleb128 0xb
 3407 02e3 3B       		.uleb128 0x3b
 3408 02e4 0B       		.uleb128 0xb
 3409 02e5 49       		.uleb128 0x49
 3410 02e6 13       		.uleb128 0x13
 3411 02e7 00       		.byte	0
 3412 02e8 00       		.byte	0
 3413 02e9 38       		.uleb128 0x38
 3414 02ea 34       		.uleb128 0x34
 3415 02eb 00       		.byte	0
 3416 02ec 03       		.uleb128 0x3
ARM GAS  /tmp/ccapcBze.s 			page 61


 3417 02ed 08       		.uleb128 0x8
 3418 02ee 3A       		.uleb128 0x3a
 3419 02ef 0B       		.uleb128 0xb
 3420 02f0 3B       		.uleb128 0x3b
 3421 02f1 0B       		.uleb128 0xb
 3422 02f2 49       		.uleb128 0x49
 3423 02f3 13       		.uleb128 0x13
 3424 02f4 00       		.byte	0
 3425 02f5 00       		.byte	0
 3426 02f6 39       		.uleb128 0x39
 3427 02f7 34       		.uleb128 0x34
 3428 02f8 00       		.byte	0
 3429 02f9 03       		.uleb128 0x3
 3430 02fa 0E       		.uleb128 0xe
 3431 02fb 49       		.uleb128 0x49
 3432 02fc 13       		.uleb128 0x13
 3433 02fd 34       		.uleb128 0x34
 3434 02fe 19       		.uleb128 0x19
 3435 02ff 1C       		.uleb128 0x1c
 3436 0300 0E       		.uleb128 0xe
 3437 0301 00       		.byte	0
 3438 0302 00       		.byte	0
 3439 0303 3A       		.uleb128 0x3a
 3440 0304 1D       		.uleb128 0x1d
 3441 0305 01       		.byte	0x1
 3442 0306 31       		.uleb128 0x31
 3443 0307 13       		.uleb128 0x13
 3444 0308 52       		.uleb128 0x52
 3445 0309 01       		.uleb128 0x1
 3446 030a 55       		.uleb128 0x55
 3447 030b 17       		.uleb128 0x17
 3448 030c 58       		.uleb128 0x58
 3449 030d 0B       		.uleb128 0xb
 3450 030e 59       		.uleb128 0x59
 3451 030f 0B       		.uleb128 0xb
 3452 0310 00       		.byte	0
 3453 0311 00       		.byte	0
 3454 0312 3B       		.uleb128 0x3b
 3455 0313 2E       		.uleb128 0x2e
 3456 0314 01       		.byte	0x1
 3457 0315 03       		.uleb128 0x3
 3458 0316 0E       		.uleb128 0xe
 3459 0317 3A       		.uleb128 0x3a
 3460 0318 0B       		.uleb128 0xb
 3461 0319 3B       		.uleb128 0x3b
 3462 031a 0B       		.uleb128 0xb
 3463 031b 27       		.uleb128 0x27
 3464 031c 19       		.uleb128 0x19
 3465 031d 20       		.uleb128 0x20
 3466 031e 0B       		.uleb128 0xb
 3467 031f 01       		.uleb128 0x1
 3468 0320 13       		.uleb128 0x13
 3469 0321 00       		.byte	0
 3470 0322 00       		.byte	0
 3471 0323 3C       		.uleb128 0x3c
 3472 0324 2E       		.uleb128 0x2e
 3473 0325 01       		.byte	0x1
ARM GAS  /tmp/ccapcBze.s 			page 62


 3474 0326 03       		.uleb128 0x3
 3475 0327 0E       		.uleb128 0xe
 3476 0328 3A       		.uleb128 0x3a
 3477 0329 0B       		.uleb128 0xb
 3478 032a 3B       		.uleb128 0x3b
 3479 032b 05       		.uleb128 0x5
 3480 032c 27       		.uleb128 0x27
 3481 032d 19       		.uleb128 0x19
 3482 032e 49       		.uleb128 0x49
 3483 032f 13       		.uleb128 0x13
 3484 0330 20       		.uleb128 0x20
 3485 0331 0B       		.uleb128 0xb
 3486 0332 01       		.uleb128 0x1
 3487 0333 13       		.uleb128 0x13
 3488 0334 00       		.byte	0
 3489 0335 00       		.byte	0
 3490 0336 3D       		.uleb128 0x3d
 3491 0337 2E       		.uleb128 0x2e
 3492 0338 00       		.byte	0
 3493 0339 03       		.uleb128 0x3
 3494 033a 0E       		.uleb128 0xe
 3495 033b 3A       		.uleb128 0x3a
 3496 033c 0B       		.uleb128 0xb
 3497 033d 3B       		.uleb128 0x3b
 3498 033e 05       		.uleb128 0x5
 3499 033f 27       		.uleb128 0x27
 3500 0340 19       		.uleb128 0x19
 3501 0341 20       		.uleb128 0x20
 3502 0342 0B       		.uleb128 0xb
 3503 0343 00       		.byte	0
 3504 0344 00       		.byte	0
 3505 0345 3E       		.uleb128 0x3e
 3506 0346 2E       		.uleb128 0x2e
 3507 0347 00       		.byte	0
 3508 0348 03       		.uleb128 0x3
 3509 0349 0E       		.uleb128 0xe
 3510 034a 3A       		.uleb128 0x3a
 3511 034b 0B       		.uleb128 0xb
 3512 034c 3B       		.uleb128 0x3b
 3513 034d 05       		.uleb128 0x5
 3514 034e 27       		.uleb128 0x27
 3515 034f 19       		.uleb128 0x19
 3516 0350 49       		.uleb128 0x49
 3517 0351 13       		.uleb128 0x13
 3518 0352 20       		.uleb128 0x20
 3519 0353 0B       		.uleb128 0xb
 3520 0354 00       		.byte	0
 3521 0355 00       		.byte	0
 3522 0356 3F       		.uleb128 0x3f
 3523 0357 05       		.uleb128 0x5
 3524 0358 00       		.byte	0
 3525 0359 03       		.uleb128 0x3
 3526 035a 0E       		.uleb128 0xe
 3527 035b 3A       		.uleb128 0x3a
 3528 035c 0B       		.uleb128 0xb
 3529 035d 3B       		.uleb128 0x3b
 3530 035e 05       		.uleb128 0x5
ARM GAS  /tmp/ccapcBze.s 			page 63


 3531 035f 49       		.uleb128 0x49
 3532 0360 13       		.uleb128 0x13
 3533 0361 00       		.byte	0
 3534 0362 00       		.byte	0
 3535 0363 40       		.uleb128 0x40
 3536 0364 2E       		.uleb128 0x2e
 3537 0365 01       		.byte	0x1
 3538 0366 31       		.uleb128 0x31
 3539 0367 13       		.uleb128 0x13
 3540 0368 11       		.uleb128 0x11
 3541 0369 01       		.uleb128 0x1
 3542 036a 12       		.uleb128 0x12
 3543 036b 06       		.uleb128 0x6
 3544 036c 40       		.uleb128 0x40
 3545 036d 18       		.uleb128 0x18
 3546 036e 9742     		.uleb128 0x2117
 3547 0370 19       		.uleb128 0x19
 3548 0371 01       		.uleb128 0x1
 3549 0372 13       		.uleb128 0x13
 3550 0373 00       		.byte	0
 3551 0374 00       		.byte	0
 3552 0375 41       		.uleb128 0x41
 3553 0376 05       		.uleb128 0x5
 3554 0377 00       		.byte	0
 3555 0378 31       		.uleb128 0x31
 3556 0379 13       		.uleb128 0x13
 3557 037a 02       		.uleb128 0x2
 3558 037b 18       		.uleb128 0x18
 3559 037c 00       		.byte	0
 3560 037d 00       		.byte	0
 3561 037e 42       		.uleb128 0x42
 3562 037f 34       		.uleb128 0x34
 3563 0380 00       		.byte	0
 3564 0381 31       		.uleb128 0x31
 3565 0382 13       		.uleb128 0x13
 3566 0383 02       		.uleb128 0x2
 3567 0384 18       		.uleb128 0x18
 3568 0385 00       		.byte	0
 3569 0386 00       		.byte	0
 3570 0387 43       		.uleb128 0x43
 3571 0388 1D       		.uleb128 0x1d
 3572 0389 01       		.byte	0x1
 3573 038a 31       		.uleb128 0x31
 3574 038b 13       		.uleb128 0x13
 3575 038c 11       		.uleb128 0x11
 3576 038d 01       		.uleb128 0x1
 3577 038e 12       		.uleb128 0x12
 3578 038f 06       		.uleb128 0x6
 3579 0390 58       		.uleb128 0x58
 3580 0391 0B       		.uleb128 0xb
 3581 0392 59       		.uleb128 0x59
 3582 0393 05       		.uleb128 0x5
 3583 0394 01       		.uleb128 0x1
 3584 0395 13       		.uleb128 0x13
 3585 0396 00       		.byte	0
 3586 0397 00       		.byte	0
 3587 0398 44       		.uleb128 0x44
ARM GAS  /tmp/ccapcBze.s 			page 64


 3588 0399 1D       		.uleb128 0x1d
 3589 039a 01       		.byte	0x1
 3590 039b 31       		.uleb128 0x31
 3591 039c 13       		.uleb128 0x13
 3592 039d 11       		.uleb128 0x11
 3593 039e 01       		.uleb128 0x1
 3594 039f 12       		.uleb128 0x12
 3595 03a0 06       		.uleb128 0x6
 3596 03a1 58       		.uleb128 0x58
 3597 03a2 0B       		.uleb128 0xb
 3598 03a3 59       		.uleb128 0x59
 3599 03a4 05       		.uleb128 0x5
 3600 03a5 00       		.byte	0
 3601 03a6 00       		.byte	0
 3602 03a7 45       		.uleb128 0x45
 3603 03a8 05       		.uleb128 0x5
 3604 03a9 00       		.byte	0
 3605 03aa 31       		.uleb128 0x31
 3606 03ab 13       		.uleb128 0x13
 3607 03ac 00       		.byte	0
 3608 03ad 00       		.byte	0
 3609 03ae 46       		.uleb128 0x46
 3610 03af 2E       		.uleb128 0x2e
 3611 03b0 00       		.byte	0
 3612 03b1 3F       		.uleb128 0x3f
 3613 03b2 19       		.uleb128 0x19
 3614 03b3 3C       		.uleb128 0x3c
 3615 03b4 19       		.uleb128 0x19
 3616 03b5 6E       		.uleb128 0x6e
 3617 03b6 0E       		.uleb128 0xe
 3618 03b7 03       		.uleb128 0x3
 3619 03b8 0E       		.uleb128 0xe
 3620 03b9 3A       		.uleb128 0x3a
 3621 03ba 0B       		.uleb128 0xb
 3622 03bb 3B       		.uleb128 0x3b
 3623 03bc 05       		.uleb128 0x5
 3624 03bd 00       		.byte	0
 3625 03be 00       		.byte	0
 3626 03bf 47       		.uleb128 0x47
 3627 03c0 2E       		.uleb128 0x2e
 3628 03c1 00       		.byte	0
 3629 03c2 3F       		.uleb128 0x3f
 3630 03c3 19       		.uleb128 0x19
 3631 03c4 3C       		.uleb128 0x3c
 3632 03c5 19       		.uleb128 0x19
 3633 03c6 6E       		.uleb128 0x6e
 3634 03c7 0E       		.uleb128 0xe
 3635 03c8 03       		.uleb128 0x3
 3636 03c9 0E       		.uleb128 0xe
 3637 03ca 3A       		.uleb128 0x3a
 3638 03cb 0B       		.uleb128 0xb
 3639 03cc 3B       		.uleb128 0x3b
 3640 03cd 0B       		.uleb128 0xb
 3641 03ce 00       		.byte	0
 3642 03cf 00       		.byte	0
 3643 03d0 00       		.byte	0
 3644              		.section	.debug_loc,"",%progbits
ARM GAS  /tmp/ccapcBze.s 			page 65


 3645              	.Ldebug_loc0:
 3646              	.LLST25:
 3647 0000 0A000000 		.4byte	.LVL58
 3648 0004 32000000 		.4byte	.LVL62
 3649 0008 0100     		.2byte	0x1
 3650 000a 54       		.byte	0x54
 3651 000b 32000000 		.4byte	.LVL62
 3652 000f 35000000 		.4byte	.LVL63-1
 3653 0013 0100     		.2byte	0x1
 3654 0015 51       		.byte	0x51
 3655 0016 00000000 		.4byte	0
 3656 001a 00000000 		.4byte	0
 3657              	.LLST26:
 3658 001e 1A000000 		.4byte	.LVL60
 3659 0022 1C000000 		.4byte	.LVL61
 3660 0026 0600     		.2byte	0x6
 3661 0028 03       		.byte	0x3
 3662 0029 00000000 		.4byte	ch
 3663 002d 9F       		.byte	0x9f
 3664 002e 00000000 		.4byte	0
 3665 0032 00000000 		.4byte	0
 3666              	.LLST27:
 3667 0036 0A000000 		.4byte	.LVL58
 3668 003a 14000000 		.4byte	.LVL59
 3669 003e 0600     		.2byte	0x6
 3670 0040 03       		.byte	0x3
 3671 0041 00000000 		.4byte	ch
 3672 0045 9F       		.byte	0x9f
 3673 0046 00000000 		.4byte	0
 3674 004a 00000000 		.4byte	0
 3675              	.LLST28:
 3676 004e 0A000000 		.4byte	.LVL58
 3677 0052 14000000 		.4byte	.LVL59
 3678 0056 0100     		.2byte	0x1
 3679 0058 50       		.byte	0x50
 3680 0059 00000000 		.4byte	0
 3681 005d 00000000 		.4byte	0
 3682              	.LLST21:
 3683 0061 0A000000 		.4byte	.LVL50
 3684 0065 32000000 		.4byte	.LVL56
 3685 0069 0100     		.2byte	0x1
 3686 006b 54       		.byte	0x54
 3687 006c 32000000 		.4byte	.LVL56
 3688 0070 35000000 		.4byte	.LVL57-1
 3689 0074 0100     		.2byte	0x1
 3690 0076 51       		.byte	0x51
 3691 0077 00000000 		.4byte	0
 3692 007b 00000000 		.4byte	0
 3693              	.LLST22:
 3694 007f 0A000000 		.4byte	.LVL50
 3695 0083 14000000 		.4byte	.LVL51
 3696 0087 0600     		.2byte	0x6
 3697 0089 03       		.byte	0x3
 3698 008a 00000000 		.4byte	ch
 3699 008e 9F       		.byte	0x9f
 3700 008f 00000000 		.4byte	0
 3701 0093 00000000 		.4byte	0
ARM GAS  /tmp/ccapcBze.s 			page 66


 3702              	.LLST23:
 3703 0097 0A000000 		.4byte	.LVL50
 3704 009b 14000000 		.4byte	.LVL51
 3705 009f 0100     		.2byte	0x1
 3706 00a1 50       		.byte	0x50
 3707 00a2 00000000 		.4byte	0
 3708 00a6 00000000 		.4byte	0
 3709              	.LLST24:
 3710 00aa 16000000 		.4byte	.LVL52
 3711 00ae 30000000 		.4byte	.LVL55
 3712 00b2 0100     		.2byte	0x1
 3713 00b4 54       		.byte	0x54
 3714 00b5 00000000 		.4byte	0
 3715 00b9 00000000 		.4byte	0
 3716              	.LLST17:
 3717 00bd 00000000 		.4byte	.LVL34
 3718 00c1 0C000000 		.4byte	.LVL35
 3719 00c5 0100     		.2byte	0x1
 3720 00c7 50       		.byte	0x50
 3721 00c8 0C000000 		.4byte	.LVL35
 3722 00cc 2C000000 		.4byte	.LVL41
 3723 00d0 0100     		.2byte	0x1
 3724 00d2 54       		.byte	0x54
 3725 00d3 2C000000 		.4byte	.LVL41
 3726 00d7 2E000000 		.4byte	.LVL42
 3727 00db 0200     		.2byte	0x2
 3728 00dd 73       		.byte	0x73
 3729 00de 04       		.sleb128 4
 3730 00df 2E000000 		.4byte	.LVL42
 3731 00e3 50000000 		.4byte	.LVL47
 3732 00e7 0100     		.2byte	0x1
 3733 00e9 54       		.byte	0x54
 3734 00ea 50000000 		.4byte	.LVL47
 3735 00ee 53000000 		.4byte	.LVL48-1
 3736 00f2 0100     		.2byte	0x1
 3737 00f4 50       		.byte	0x50
 3738 00f5 53000000 		.4byte	.LVL48-1
 3739 00f9 58000000 		.4byte	.LFE232
 3740 00fd 0400     		.2byte	0x4
 3741 00ff F3       		.byte	0xf3
 3742 0100 01       		.uleb128 0x1
 3743 0101 50       		.byte	0x50
 3744 0102 9F       		.byte	0x9f
 3745 0103 00000000 		.4byte	0
 3746 0107 00000000 		.4byte	0
 3747              	.LLST18:
 3748 010b 00000000 		.4byte	.LVL34
 3749 010f 0E000000 		.4byte	.LVL36
 3750 0113 0100     		.2byte	0x1
 3751 0115 51       		.byte	0x51
 3752 0116 0E000000 		.4byte	.LVL36
 3753 011a 28000000 		.4byte	.LVL40
 3754 011e 0200     		.2byte	0x2
 3755 0120 74       		.byte	0x74
 3756 0121 20       		.sleb128 32
 3757 0122 28000000 		.4byte	.LVL40
 3758 0126 2E000000 		.4byte	.LVL42
ARM GAS  /tmp/ccapcBze.s 			page 67


 3759 012a 0400     		.2byte	0x4
 3760 012c F3       		.byte	0xf3
 3761 012d 01       		.uleb128 0x1
 3762 012e 51       		.byte	0x51
 3763 012f 9F       		.byte	0x9f
 3764 0130 2E000000 		.4byte	.LVL42
 3765 0134 30000000 		.4byte	.LVL43
 3766 0138 0200     		.2byte	0x2
 3767 013a 74       		.byte	0x74
 3768 013b 20       		.sleb128 32
 3769 013c 30000000 		.4byte	.LVL43
 3770 0140 58000000 		.4byte	.LFE232
 3771 0144 0400     		.2byte	0x4
 3772 0146 F3       		.byte	0xf3
 3773 0147 01       		.uleb128 0x1
 3774 0148 51       		.byte	0x51
 3775 0149 9F       		.byte	0x9f
 3776 014a 00000000 		.4byte	0
 3777 014e 00000000 		.4byte	0
 3778              	.LLST20:
 3779 0152 2E000000 		.4byte	.LVL42
 3780 0156 46000000 		.4byte	.LVL46
 3781 015a 0100     		.2byte	0x1
 3782 015c 55       		.byte	0x55
 3783 015d 00000000 		.4byte	0
 3784 0161 00000000 		.4byte	0
 3785              	.LLST19:
 3786 0165 16000000 		.4byte	.LVL37
 3787 0169 2C000000 		.4byte	.LVL41
 3788 016d 0100     		.2byte	0x1
 3789 016f 54       		.byte	0x54
 3790 0170 2C000000 		.4byte	.LVL41
 3791 0174 2E000000 		.4byte	.LVL42
 3792 0178 0200     		.2byte	0x2
 3793 017a 73       		.byte	0x73
 3794 017b 04       		.sleb128 4
 3795 017c 00000000 		.4byte	0
 3796 0180 00000000 		.4byte	0
 3797              	.LLST15:
 3798 0184 00000000 		.4byte	.LVL26
 3799 0188 12000000 		.4byte	.LVL27
 3800 018c 0100     		.2byte	0x1
 3801 018e 50       		.byte	0x50
 3802 018f 12000000 		.4byte	.LVL27
 3803 0193 2E000000 		.4byte	.LVL32
 3804 0197 0400     		.2byte	0x4
 3805 0199 F3       		.byte	0xf3
 3806 019a 01       		.uleb128 0x1
 3807 019b 50       		.byte	0x50
 3808 019c 9F       		.byte	0x9f
 3809 019d 2E000000 		.4byte	.LVL32
 3810 01a1 33000000 		.4byte	.LVL33-1
 3811 01a5 0100     		.2byte	0x1
 3812 01a7 50       		.byte	0x50
 3813 01a8 33000000 		.4byte	.LVL33-1
 3814 01ac 44000000 		.4byte	.LFE231
 3815 01b0 0400     		.2byte	0x4
ARM GAS  /tmp/ccapcBze.s 			page 68


 3816 01b2 F3       		.byte	0xf3
 3817 01b3 01       		.uleb128 0x1
 3818 01b4 50       		.byte	0x50
 3819 01b5 9F       		.byte	0x9f
 3820 01b6 00000000 		.4byte	0
 3821 01ba 00000000 		.4byte	0
 3822              	.LLST16:
 3823 01be 00000000 		.4byte	.LVL26
 3824 01c2 15000000 		.4byte	.LVL28-1
 3825 01c6 0100     		.2byte	0x1
 3826 01c8 51       		.byte	0x51
 3827 01c9 15000000 		.4byte	.LVL28-1
 3828 01cd 2E000000 		.4byte	.LVL32
 3829 01d1 0400     		.2byte	0x4
 3830 01d3 F3       		.byte	0xf3
 3831 01d4 01       		.uleb128 0x1
 3832 01d5 51       		.byte	0x51
 3833 01d6 9F       		.byte	0x9f
 3834 01d7 2E000000 		.4byte	.LVL32
 3835 01db 33000000 		.4byte	.LVL33-1
 3836 01df 0100     		.2byte	0x1
 3837 01e1 51       		.byte	0x51
 3838 01e2 33000000 		.4byte	.LVL33-1
 3839 01e6 44000000 		.4byte	.LFE231
 3840 01ea 0400     		.2byte	0x4
 3841 01ec F3       		.byte	0xf3
 3842 01ed 01       		.uleb128 0x1
 3843 01ee 51       		.byte	0x51
 3844 01ef 9F       		.byte	0x9f
 3845 01f0 00000000 		.4byte	0
 3846 01f4 00000000 		.4byte	0
 3847              	.LLST11:
 3848 01f8 00000000 		.4byte	.LVL20
 3849 01fc 0C000000 		.4byte	.LVL23
 3850 0200 0100     		.2byte	0x1
 3851 0202 50       		.byte	0x50
 3852 0203 0C000000 		.4byte	.LVL23
 3853 0207 12000000 		.4byte	.LVL24
 3854 020b 0200     		.2byte	0x2
 3855 020d 71       		.byte	0x71
 3856 020e 1C       		.sleb128 28
 3857 020f 12000000 		.4byte	.LVL24
 3858 0213 24000000 		.4byte	.LFE229
 3859 0217 0400     		.2byte	0x4
 3860 0219 F3       		.byte	0xf3
 3861 021a 01       		.uleb128 0x1
 3862 021b 50       		.byte	0x50
 3863 021c 9F       		.byte	0x9f
 3864 021d 00000000 		.4byte	0
 3865 0221 00000000 		.4byte	0
 3866              	.LLST12:
 3867 0225 04000000 		.4byte	.LVL21
 3868 0229 1D000000 		.4byte	.LVL25-1
 3869 022d 0100     		.2byte	0x1
 3870 022f 51       		.byte	0x51
 3871 0230 00000000 		.4byte	0
 3872 0234 00000000 		.4byte	0
ARM GAS  /tmp/ccapcBze.s 			page 69


 3873              	.LLST13:
 3874 0238 0A000000 		.4byte	.LVL22
 3875 023c 12000000 		.4byte	.LVL24
 3876 0240 0600     		.2byte	0x6
 3877 0242 03       		.byte	0x3
 3878 0243 00000000 		.4byte	ch
 3879 0247 9F       		.byte	0x9f
 3880 0248 00000000 		.4byte	0
 3881 024c 00000000 		.4byte	0
 3882              	.LLST14:
 3883 0250 0A000000 		.4byte	.LVL22
 3884 0254 12000000 		.4byte	.LVL24
 3885 0258 0100     		.2byte	0x1
 3886 025a 52       		.byte	0x52
 3887 025b 00000000 		.4byte	0
 3888 025f 00000000 		.4byte	0
 3889              	.LLST9:
 3890 0263 00000000 		.4byte	.LVL13
 3891 0267 08000000 		.4byte	.LVL14
 3892 026b 0600     		.2byte	0x6
 3893 026d 03       		.byte	0x3
 3894 026e 00000000 		.4byte	ch
 3895 0272 9F       		.byte	0x9f
 3896 0273 00000000 		.4byte	0
 3897 0277 00000000 		.4byte	0
 3898              	.LLST0:
 3899 027b 00000000 		.4byte	.LVL0
 3900 027f 06000000 		.4byte	.LVL1
 3901 0283 0300     		.2byte	0x3
 3902 0285 08       		.byte	0x8
 3903 0286 20       		.byte	0x20
 3904 0287 9F       		.byte	0x9f
 3905 0288 00000000 		.4byte	0
 3906 028c 00000000 		.4byte	0
 3907              	.LLST1:
 3908 0290 1A000000 		.4byte	.LVL2
 3909 0294 20000000 		.4byte	.LVL3
 3910 0298 0100     		.2byte	0x1
 3911 029a 52       		.byte	0x52
 3912 029b 00000000 		.4byte	0
 3913 029f 00000000 		.4byte	0
 3914              	.LLST2:
 3915 02a3 20000000 		.4byte	.LVL3
 3916 02a7 2A000000 		.4byte	.LVL4
 3917 02ab 0100     		.2byte	0x1
 3918 02ad 50       		.byte	0x50
 3919 02ae 00000000 		.4byte	0
 3920 02b2 00000000 		.4byte	0
 3921              	.LLST3:
 3922 02b6 38000000 		.4byte	.LVL5
 3923 02ba 56000000 		.4byte	.LVL10
 3924 02be 0100     		.2byte	0x1
 3925 02c0 50       		.byte	0x50
 3926 02c1 00000000 		.4byte	0
 3927 02c5 00000000 		.4byte	0
 3928              	.LLST4:
 3929 02c9 3A000000 		.4byte	.LVL6
ARM GAS  /tmp/ccapcBze.s 			page 70


 3930 02cd 56000000 		.4byte	.LVL10
 3931 02d1 0600     		.2byte	0x6
 3932 02d3 03       		.byte	0x3
 3933 02d4 00000000 		.4byte	ch
 3934 02d8 9F       		.byte	0x9f
 3935 02d9 00000000 		.4byte	0
 3936 02dd 00000000 		.4byte	0
 3937              	.LLST5:
 3938 02e1 3A000000 		.4byte	.LVL6
 3939 02e5 56000000 		.4byte	.LVL10
 3940 02e9 0100     		.2byte	0x1
 3941 02eb 50       		.byte	0x50
 3942 02ec 00000000 		.4byte	0
 3943 02f0 00000000 		.4byte	0
 3944              	.LLST6:
 3945 02f4 3A000000 		.4byte	.LVL6
 3946 02f8 4E000000 		.4byte	.LVL8
 3947 02fc 0100     		.2byte	0x1
 3948 02fe 53       		.byte	0x53
 3949 02ff 00000000 		.4byte	0
 3950 0303 00000000 		.4byte	0
 3951              	.LLST7:
 3952 0307 4E000000 		.4byte	.LVL8
 3953 030b 52000000 		.4byte	.LVL9
 3954 030f 0200     		.2byte	0x2
 3955 0311 30       		.byte	0x30
 3956 0312 9F       		.byte	0x9f
 3957 0313 00000000 		.4byte	0
 3958 0317 00000000 		.4byte	0
 3959              	.LLST8:
 3960 031b 5E000000 		.4byte	.LVL11
 3961 031f 64000000 		.4byte	.LVL12
 3962 0323 0200     		.2byte	0x2
 3963 0325 30       		.byte	0x30
 3964 0326 9F       		.byte	0x9f
 3965 0327 00000000 		.4byte	0
 3966 032b 00000000 		.4byte	0
 3967              	.LLST10:
 3968 032f 00000000 		.4byte	.LVL15
 3969 0333 1C000000 		.4byte	.LVL18
 3970 0337 0100     		.2byte	0x1
 3971 0339 50       		.byte	0x50
 3972 033a 1C000000 		.4byte	.LVL18
 3973 033e 22000000 		.4byte	.LVL19
 3974 0342 0100     		.2byte	0x1
 3975 0344 54       		.byte	0x54
 3976 0345 22000000 		.4byte	.LVL19
 3977 0349 28000000 		.4byte	.LFE228
 3978 034d 0100     		.2byte	0x1
 3979 034f 50       		.byte	0x50
 3980 0350 00000000 		.4byte	0
 3981 0354 00000000 		.4byte	0
 3982              		.section	.debug_aranges,"",%progbits
 3983 0000 6C000000 		.4byte	0x6c
 3984 0004 0200     		.2byte	0x2
 3985 0006 00000000 		.4byte	.Ldebug_info0
 3986 000a 04       		.byte	0x4
ARM GAS  /tmp/ccapcBze.s 			page 71


 3987 000b 00       		.byte	0
 3988 000c 0000     		.2byte	0
 3989 000e 0000     		.2byte	0
 3990 0010 00000000 		.4byte	.LFB230
 3991 0014 6C000000 		.4byte	.LFE230-.LFB230
 3992 0018 00000000 		.4byte	.LFB227
 3993 001c 14000000 		.4byte	.LFE227-.LFB227
 3994 0020 00000000 		.4byte	.LFB228
 3995 0024 28000000 		.4byte	.LFE228-.LFB228
 3996 0028 00000000 		.4byte	.LFB229
 3997 002c 24000000 		.4byte	.LFE229-.LFB229
 3998 0030 00000000 		.4byte	.LFB231
 3999 0034 44000000 		.4byte	.LFE231-.LFB231
 4000 0038 00000000 		.4byte	.LFB232
 4001 003c 58000000 		.4byte	.LFE232-.LFB232
 4002 0040 00000000 		.4byte	.LFB234
 4003 0044 18000000 		.4byte	.LFE234-.LFB234
 4004 0048 00000000 		.4byte	.LFB235
 4005 004c 3C000000 		.4byte	.LFE235-.LFB235
 4006 0050 00000000 		.4byte	.LFB236
 4007 0054 3C000000 		.4byte	.LFE236-.LFB236
 4008 0058 00000000 		.4byte	.LFB233
 4009 005c 18000000 		.4byte	.LFE233-.LFB233
 4010 0060 00000000 		.4byte	.LFB237
 4011 0064 04000000 		.4byte	.LFE237-.LFB237
 4012 0068 00000000 		.4byte	0
 4013 006c 00000000 		.4byte	0
 4014              		.section	.debug_ranges,"",%progbits
 4015              	.Ldebug_ranges0:
 4016 0000 2C000000 		.4byte	.LBB137
 4017 0004 2E000000 		.4byte	.LBE137
 4018 0008 38000000 		.4byte	.LBB159
 4019 000c 3A000000 		.4byte	.LBE159
 4020 0010 00000000 		.4byte	0
 4021 0014 00000000 		.4byte	0
 4022 0018 34000000 		.4byte	.LBB140
 4023 001c 36000000 		.4byte	.LBE140
 4024 0020 3A000000 		.4byte	.LBB160
 4025 0024 52000000 		.4byte	.LBE160
 4026 0028 00000000 		.4byte	0
 4027 002c 00000000 		.4byte	0
 4028 0030 34000000 		.4byte	.LBB142
 4029 0034 36000000 		.4byte	.LBE142
 4030 0038 3A000000 		.4byte	.LBB146
 4031 003c 48000000 		.4byte	.LBE146
 4032 0040 4A000000 		.4byte	.LBB156
 4033 0044 4E000000 		.4byte	.LBE156
 4034 0048 00000000 		.4byte	0
 4035 004c 00000000 		.4byte	0
 4036 0050 48000000 		.4byte	.LBB147
 4037 0054 4A000000 		.4byte	.LBE147
 4038 0058 4E000000 		.4byte	.LBB157
 4039 005c 52000000 		.4byte	.LBE157
 4040 0060 00000000 		.4byte	0
 4041 0064 00000000 		.4byte	0
 4042 0068 00000000 		.4byte	.LBB166
 4043 006c 02000000 		.4byte	.LBE166
ARM GAS  /tmp/ccapcBze.s 			page 72


 4044 0070 04000000 		.4byte	.LBB169
 4045 0074 08000000 		.4byte	.LBE169
 4046 0078 00000000 		.4byte	0
 4047 007c 00000000 		.4byte	0
 4048 0080 04000000 		.4byte	.LBB170
 4049 0084 06000000 		.4byte	.LBE170
 4050 0088 0A000000 		.4byte	.LBB174
 4051 008c 0E000000 		.4byte	.LBE174
 4052 0090 10000000 		.4byte	.LBB175
 4053 0094 12000000 		.4byte	.LBE175
 4054 0098 00000000 		.4byte	0
 4055 009c 00000000 		.4byte	0
 4056 00a0 10000000 		.4byte	.LBB177
 4057 00a4 14000000 		.4byte	.LBE177
 4058 00a8 16000000 		.4byte	.LBB180
 4059 00ac 2A000000 		.4byte	.LBE180
 4060 00b0 00000000 		.4byte	0
 4061 00b4 00000000 		.4byte	0
 4062 00b8 2E000000 		.4byte	.LBB181
 4063 00bc 4E000000 		.4byte	.LBE181
 4064 00c0 50000000 		.4byte	.LBB186
 4065 00c4 58000000 		.4byte	.LBE186
 4066 00c8 00000000 		.4byte	0
 4067 00cc 00000000 		.4byte	0
 4068 00d0 2E000000 		.4byte	.LBB182
 4069 00d4 3E000000 		.4byte	.LBE182
 4070 00d8 40000000 		.4byte	.LBB185
 4071 00dc 46000000 		.4byte	.LBE185
 4072 00e0 00000000 		.4byte	0
 4073 00e4 00000000 		.4byte	0
 4074 00e8 02000000 		.4byte	.LBB187
 4075 00ec 04000000 		.4byte	.LBE187
 4076 00f0 06000000 		.4byte	.LBB192
 4077 00f4 08000000 		.4byte	.LBE192
 4078 00f8 0A000000 		.4byte	.LBB193
 4079 00fc 0C000000 		.4byte	.LBE193
 4080 0100 12000000 		.4byte	.LBB198
 4081 0104 14000000 		.4byte	.LBE198
 4082 0108 00000000 		.4byte	0
 4083 010c 00000000 		.4byte	0
 4084 0110 0E000000 		.4byte	.LBB194
 4085 0114 10000000 		.4byte	.LBE194
 4086 0118 18000000 		.4byte	.LBB199
 4087 011c 2A000000 		.4byte	.LBE199
 4088 0120 2C000000 		.4byte	.LBB200
 4089 0124 30000000 		.4byte	.LBE200
 4090 0128 00000000 		.4byte	0
 4091 012c 00000000 		.4byte	0
 4092 0130 02000000 		.4byte	.LBB201
 4093 0134 04000000 		.4byte	.LBE201
 4094 0138 06000000 		.4byte	.LBB206
 4095 013c 08000000 		.4byte	.LBE206
 4096 0140 0A000000 		.4byte	.LBB207
 4097 0144 0C000000 		.4byte	.LBE207
 4098 0148 12000000 		.4byte	.LBB208
 4099 014c 14000000 		.4byte	.LBE208
 4100 0150 00000000 		.4byte	0
ARM GAS  /tmp/ccapcBze.s 			page 73


 4101 0154 00000000 		.4byte	0
 4102 0158 00000000 		.4byte	.LFB230
 4103 015c 6C000000 		.4byte	.LFE230
 4104 0160 00000000 		.4byte	.LFB227
 4105 0164 14000000 		.4byte	.LFE227
 4106 0168 00000000 		.4byte	.LFB228
 4107 016c 28000000 		.4byte	.LFE228
 4108 0170 00000000 		.4byte	.LFB229
 4109 0174 24000000 		.4byte	.LFE229
 4110 0178 00000000 		.4byte	.LFB231
 4111 017c 44000000 		.4byte	.LFE231
 4112 0180 00000000 		.4byte	.LFB232
 4113 0184 58000000 		.4byte	.LFE232
 4114 0188 00000000 		.4byte	.LFB234
 4115 018c 18000000 		.4byte	.LFE234
 4116 0190 00000000 		.4byte	.LFB235
 4117 0194 3C000000 		.4byte	.LFE235
 4118 0198 00000000 		.4byte	.LFB236
 4119 019c 3C000000 		.4byte	.LFE236
 4120 01a0 00000000 		.4byte	.LFB233
 4121 01a4 18000000 		.4byte	.LFE233
 4122 01a8 00000000 		.4byte	.LFB237
 4123 01ac 04000000 		.4byte	.LFE237
 4124 01b0 00000000 		.4byte	0
 4125 01b4 00000000 		.4byte	0
 4126              		.section	.debug_line,"",%progbits
 4127              	.Ldebug_line0:
 4128 0000 FD040000 		.section	.debug_str,"MS",%progbits,1
 4128      02008F02 
 4128      00000201 
 4128      FB0E0D00 
 4128      01010101 
 4129              	.LASF116:
 4130 0000 63665F6F 		.ascii	"cf_off_older\000"
 4130      66665F6F 
 4130      6C646572 
 4130      00
 4131              	.LASF54:
 4132 000d 72656164 		.ascii	"ready_list_t\000"
 4132      795F6C69 
 4132      73745F74 
 4132      00
 4133              	.LASF4:
 4134 001a 73697A65 		.ascii	"size_t\000"
 4134      5F7400
 4135              	.LASF91:
 4136 0021 7264796D 		.ascii	"rdymsg\000"
 4136      736700
 4137              	.LASF20:
 4138 0028 75696E74 		.ascii	"uint64_t\000"
 4138      36345F74 
 4138      00
 4139              	.LASF129:
 4140 0031 63685363 		.ascii	"chSchDoRescheduleAhead\000"
 4140      68446F52 
 4140      65736368 
 4140      6564756C 
ARM GAS  /tmp/ccapcBze.s 			page 74


 4140      65416865 
 4141              	.LASF27:
 4142 0048 6576656E 		.ascii	"eventmask_t\000"
 4142      746D6173 
 4142      6B5F7400 
 4143              	.LASF5:
 4144 0054 5F5F7569 		.ascii	"__uint8_t\000"
 4144      6E74385F 
 4144      7400
 4145              	.LASF88:
 4146 005e 706F7274 		.ascii	"port_intctx\000"
 4146      5F696E74 
 4146      63747800 
 4147              	.LASF73:
 4148 006a 73797374 		.ascii	"system_debug_t\000"
 4148      656D5F64 
 4148      65627567 
 4148      5F7400
 4149              	.LASF148:
 4150 0079 71756575 		.ascii	"queue_init\000"
 4150      655F696E 
 4150      697400
 4151              	.LASF152:
 4152 0084 706F7274 		.ascii	"port_lock\000"
 4152      5F6C6F63 
 4152      6B00
 4153              	.LASF15:
 4154 008e 6C6F6E67 		.ascii	"long long unsigned int\000"
 4154      206C6F6E 
 4154      6720756E 
 4154      7369676E 
 4154      65642069 
 4155              	.LASF112:
 4156 00a5 63685F74 		.ascii	"ch_threadsize\000"
 4156      68726561 
 4156      6473697A 
 4156      6500
 4157              	.LASF157:
 4158 00b3 63685654 		.ascii	"chVTDoResetI\000"
 4158      446F5265 
 4158      73657449 
 4158      00
 4159              	.LASF92:
 4160 00c0 65786974 		.ascii	"exitcode\000"
 4160      636F6465 
 4160      00
 4161              	.LASF80:
 4162 00c9 6D61696E 		.ascii	"mainthread\000"
 4162      74687265 
 4162      616400
 4163              	.LASF10:
 4164 00d4 5F5F696E 		.ascii	"__int32_t\000"
 4164      7433325F 
 4164      7400
 4165              	.LASF70:
 4166 00de 76697274 		.ascii	"virtual_timers_list_t\000"
 4166      75616C5F 
ARM GAS  /tmp/ccapcBze.s 			page 75


 4166      74696D65 
 4166      72735F6C 
 4166      6973745F 
 4167              	.LASF83:
 4168 00f4 49544D5F 		.ascii	"ITM_RxBuffer\000"
 4168      52784275 
 4168      66666572 
 4168      00
 4169              	.LASF53:
 4170 0101 63685F74 		.ascii	"ch_threads_queue\000"
 4170      68726561 
 4170      64735F71 
 4170      75657565 
 4170      00
 4171              	.LASF33:
 4172 0112 705F7072 		.ascii	"p_prio\000"
 4172      696F00
 4173              	.LASF119:
 4174 0119 63665F6F 		.ascii	"cf_off_state\000"
 4174      66665F73 
 4174      74617465 
 4174      00
 4175              	.LASF140:
 4176 0126 5F736368 		.ascii	"_scheduler_init\000"
 4176      6564756C 
 4176      65725F69 
 4176      6E697400 
 4177              	.LASF1:
 4178 0136 6C6F6E67 		.ascii	"long long int\000"
 4178      206C6F6E 
 4178      6720696E 
 4178      7400
 4179              	.LASF3:
 4180 0144 7369676E 		.ascii	"signed char\000"
 4180      65642063 
 4180      68617200 
 4181              	.LASF118:
 4182 0150 63665F6F 		.ascii	"cf_off_stklimit\000"
 4182      66665F73 
 4182      746B6C69 
 4182      6D697400 
 4183              	.LASF120:
 4184 0160 63665F6F 		.ascii	"cf_off_flags\000"
 4184      66665F66 
 4184      6C616773 
 4184      00
 4185              	.LASF47:
 4186 016d 705F6D70 		.ascii	"p_mpool\000"
 4186      6F6F6C00 
 4187              	.LASF102:
 4188 0175 6D5F7175 		.ascii	"m_queue\000"
 4188      65756500 
 4189              	.LASF79:
 4190 017d 76746C69 		.ascii	"vtlist\000"
 4190      737400
 4191              	.LASF151:
 4192 0184 706F7274 		.ascii	"port_unlock\000"
ARM GAS  /tmp/ccapcBze.s 			page 76


 4192      5F756E6C 
 4192      6F636B00 
 4193              	.LASF94:
 4194 0190 77747472 		.ascii	"wttrp\000"
 4194      7000
 4195              	.LASF77:
 4196 0196 63685F73 		.ascii	"ch_system\000"
 4196      79737465 
 4196      6D00
 4197              	.LASF11:
 4198 01a0 6C6F6E67 		.ascii	"long int\000"
 4198      20696E74 
 4198      00
 4199              	.LASF146:
 4200 01a9 71756575 		.ascii	"queue_dequeue\000"
 4200      655F6465 
 4200      71756575 
 4200      6500
 4201              	.LASF23:
 4202 01b7 74737461 		.ascii	"tstate_t\000"
 4202      74655F74 
 4202      00
 4203              	.LASF109:
 4204 01c0 63685F76 		.ascii	"ch_version\000"
 4204      65727369 
 4204      6F6E00
 4205              	.LASF124:
 4206 01cb 63686465 		.ascii	"chdebug_t\000"
 4206      6275675F 
 4206      7400
 4207              	.LASF134:
 4208 01d5 63685363 		.ascii	"chSchIsPreemptionRequired\000"
 4208      68497350 
 4208      7265656D 
 4208      7074696F 
 4208      6E526571 
 4209              	.LASF35:
 4210 01ef 705F6E65 		.ascii	"p_newer\000"
 4210      77657200 
 4211              	.LASF99:
 4212 01f7 735F7175 		.ascii	"s_queue\000"
 4212      65756500 
 4213              	.LASF132:
 4214 01ff 63685363 		.ascii	"chSchRescheduleS\000"
 4214      68526573 
 4214      63686564 
 4214      756C6553 
 4214      00
 4215              	.LASF59:
 4216 0210 725F6E65 		.ascii	"r_newer\000"
 4216      77657200 
 4217              	.LASF85:
 4218 0218 72656761 		.ascii	"regarm_t\000"
 4218      726D5F74 
 4218      00
 4219              	.LASF128:
 4220 0221 63685363 		.ascii	"chSchDoReschedule\000"
ARM GAS  /tmp/ccapcBze.s 			page 77


 4220      68446F52 
 4220      65736368 
 4220      6564756C 
 4220      6500
 4221              	.LASF66:
 4222 0233 76745F70 		.ascii	"vt_prev\000"
 4222      72657600 
 4223              	.LASF127:
 4224 023b 6D757465 		.ascii	"mutex_t\000"
 4224      785F7400 
 4225              	.LASF154:
 4226 0243 76616C75 		.ascii	"value\000"
 4226      6500
 4227              	.LASF81:
 4228 0249 69646C65 		.ascii	"idle_thread_wa\000"
 4228      5F746872 
 4228      6561645F 
 4228      776100
 4229              	.LASF28:
 4230 0258 636E745F 		.ascii	"cnt_t\000"
 4230      7400
 4231              	.LASF0:
 4232 025e 756E7369 		.ascii	"unsigned int\000"
 4232      676E6564 
 4232      20696E74 
 4232      00
 4233              	.LASF141:
 4234 026b 77616B65 		.ascii	"wakeup\000"
 4234      757000
 4235              	.LASF65:
 4236 0272 76745F6E 		.ascii	"vt_next\000"
 4236      65787400 
 4237              	.LASF17:
 4238 027a 75696E74 		.ascii	"uint16_t\000"
 4238      31365F74 
 4238      00
 4239              	.LASF84:
 4240 0283 53797374 		.ascii	"SystemCoreClock\000"
 4240      656D436F 
 4240      7265436C 
 4240      6F636B00 
 4241              	.LASF95:
 4242 0293 77747365 		.ascii	"wtsemp\000"
 4242      6D7000
 4243              	.LASF155:
 4244 029a 5F706F72 		.ascii	"_port_switch\000"
 4244      745F7377 
 4244      69746368 
 4244      00
 4245              	.LASF67:
 4246 02a7 76745F64 		.ascii	"vt_delta\000"
 4246      656C7461 
 4246      00
 4247              	.LASF42:
 4248 02b0 705F6D73 		.ascii	"p_msgqueue\000"
 4248      67717565 
 4248      756500
ARM GAS  /tmp/ccapcBze.s 			page 78


 4249              	.LASF125:
 4250 02bb 63685F64 		.ascii	"ch_debug\000"
 4250      65627567 
 4250      00
 4251              	.LASF55:
 4252 02c4 63685F72 		.ascii	"ch_ready_list\000"
 4252      65616479 
 4252      5F6C6973 
 4252      7400
 4253              	.LASF100:
 4254 02d2 735F636E 		.ascii	"s_cnt\000"
 4254      7400
 4255              	.LASF9:
 4256 02d8 73686F72 		.ascii	"short unsigned int\000"
 4256      7420756E 
 4256      7369676E 
 4256      65642069 
 4256      6E7400
 4257              	.LASF50:
 4258 02eb 63685F74 		.ascii	"ch_thread\000"
 4258      68726561 
 4258      6400
 4259              	.LASF133:
 4260 02f5 63685363 		.ascii	"chSchWakeupS\000"
 4260      6857616B 
 4260      65757053 
 4260      00
 4261              	.LASF26:
 4262 0302 6D73675F 		.ascii	"msg_t\000"
 4262      7400
 4263              	.LASF76:
 4264 0308 63685F73 		.ascii	"ch_system_t\000"
 4264      79737465 
 4264      6D5F7400 
 4265              	.LASF93:
 4266 0314 77746F62 		.ascii	"wtobjp\000"
 4266      6A7000
 4267              	.LASF45:
 4268 031b 705F6D74 		.ascii	"p_mtxlist\000"
 4268      786C6973 
 4268      7400
 4269              	.LASF156:
 4270 0325 63685654 		.ascii	"chVTDoSetI\000"
 4270      446F5365 
 4270      744900
 4271              	.LASF86:
 4272 0330 73746B61 		.ascii	"stkalign_t\000"
 4272      6C69676E 
 4272      5F7400
 4273              	.LASF107:
 4274 033b 63685F7A 		.ascii	"ch_zero\000"
 4274      65726F00 
 4275              	.LASF121:
 4276 0343 63665F6F 		.ascii	"cf_off_refs\000"
 4276      66665F72 
 4276      65667300 
 4277              	.LASF63:
ARM GAS  /tmp/ccapcBze.s 			page 79


 4278 034f 76697274 		.ascii	"virtual_timer_t\000"
 4278      75616C5F 
 4278      74696D65 
 4278      725F7400 
 4279              	.LASF57:
 4280 035f 725F7072 		.ascii	"r_prio\000"
 4280      696F00
 4281              	.LASF41:
 4282 0366 705F7761 		.ascii	"p_waiting\000"
 4282      6974696E 
 4282      6700
 4283              	.LASF82:
 4284 0370 73697A65 		.ascii	"sizetype\000"
 4284      74797065 
 4284      00
 4285              	.LASF48:
 4286 0379 74687265 		.ascii	"thread_reference_t\000"
 4286      61645F72 
 4286      65666572 
 4286      656E6365 
 4286      5F7400
 4287              	.LASF71:
 4288 038c 63685F76 		.ascii	"ch_virtual_timers_list\000"
 4288      69727475 
 4288      616C5F74 
 4288      696D6572 
 4288      735F6C69 
 4289              	.LASF2:
 4290 03a3 6C6F6E67 		.ascii	"long double\000"
 4290      20646F75 
 4290      626C6500 
 4291              	.LASF158:
 4292 03af 474E5520 		.ascii	"GNU C11 6.2.1 20161205 (release) [ARM/embedded-6-br"
 4292      43313120 
 4292      362E322E 
 4292      31203230 
 4292      31363132 
 4293 03e2 616E6368 		.ascii	"anch revision 243739] -mcpu=cortex-m4 -mno-thumb-in"
 4293      20726576 
 4293      6973696F 
 4293      6E203234 
 4293      33373339 
 4294 0415 74657277 		.ascii	"terwork -mthumb -ggdb -O2 -fomit-frame-pointer -fal"
 4294      6F726B20 
 4294      2D6D7468 
 4294      756D6220 
 4294      2D676764 
 4295 0448 69676E2D 		.ascii	"ign-functions=16 -ffunction-sections -fdata-section"
 4295      66756E63 
 4295      74696F6E 
 4295      733D3136 
 4295      202D6666 
 4296 047b 73202D66 		.ascii	"s -fno-common\000"
 4296      6E6F2D63 
 4296      6F6D6D6F 
 4296      6E00
 4297              	.LASF111:
ARM GAS  /tmp/ccapcBze.s 			page 80


 4298 0489 63685F74 		.ascii	"ch_timesize\000"
 4298      696D6573 
 4298      697A6500 
 4299              	.LASF130:
 4300 0495 63685363 		.ascii	"chSchDoRescheduleBehind\000"
 4300      68446F52 
 4300      65736368 
 4300      6564756C 
 4300      65426568 
 4301              	.LASF117:
 4302 04ad 63665F6F 		.ascii	"cf_off_name\000"
 4302      66665F6E 
 4302      616D6500 
 4303              	.LASF36:
 4304 04b9 705F6F6C 		.ascii	"p_older\000"
 4304      64657200 
 4305              	.LASF58:
 4306 04c1 725F6374 		.ascii	"r_ctx\000"
 4306      7800
 4307              	.LASF34:
 4308 04c7 705F6374 		.ascii	"p_ctx\000"
 4308      7800
 4309              	.LASF90:
 4310 04cd 746D5F63 		.ascii	"tm_calibration_t\000"
 4310      616C6962 
 4310      72617469 
 4310      6F6E5F74 
 4310      00
 4311              	.LASF104:
 4312 04de 6D5F6E65 		.ascii	"m_next\000"
 4312      787400
 4313              	.LASF137:
 4314 04e5 74696D65 		.ascii	"time\000"
 4314      00
 4315              	.LASF61:
 4316 04ea 725F6375 		.ascii	"r_current\000"
 4316      7272656E 
 4316      7400
 4317              	.LASF60:
 4318 04f4 725F6F6C 		.ascii	"r_older\000"
 4318      64657200 
 4319              	.LASF14:
 4320 04fc 5F5F7569 		.ascii	"__uint64_t\000"
 4320      6E743634 
 4320      5F7400
 4321              	.LASF24:
 4322 0507 74726566 		.ascii	"trefs_t\000"
 4322      735F7400 
 4323              	.LASF110:
 4324 050f 63685F70 		.ascii	"ch_ptrsize\000"
 4324      74727369 
 4324      7A6500
 4325              	.LASF159:
 4326 051a 2F686F6D 		.ascii	"/home/selim/working/ChibiOS/os/rt/src/chschd.c\000"
 4326      652F7365 
 4326      6C696D2F 
 4326      776F726B 
ARM GAS  /tmp/ccapcBze.s 			page 81


 4326      696E672F 
 4327              	.LASF32:
 4328 0549 705F7072 		.ascii	"p_prev\000"
 4328      657600
 4329              	.LASF25:
 4330 0550 74707269 		.ascii	"tprio_t\000"
 4330      6F5F7400 
 4331              	.LASF143:
 4332 0558 63685379 		.ascii	"chSysUnlockFromISR\000"
 4332      73556E6C 
 4332      6F636B46 
 4332      726F6D49 
 4332      535200
 4333              	.LASF74:
 4334 056b 63685F73 		.ascii	"ch_system_debug\000"
 4334      79737465 
 4334      6D5F6465 
 4334      62756700 
 4335              	.LASF131:
 4336 057b 5F426F6F 		.ascii	"_Bool\000"
 4336      6C00
 4337              	.LASF18:
 4338 0581 696E7433 		.ascii	"int32_t\000"
 4338      325F7400 
 4339              	.LASF6:
 4340 0589 756E7369 		.ascii	"unsigned char\000"
 4340      676E6564 
 4340      20636861 
 4340      7200
 4341              	.LASF136:
 4342 0597 6E657773 		.ascii	"newstate\000"
 4342      74617465 
 4342      00
 4343              	.LASF7:
 4344 05a0 73686F72 		.ascii	"short int\000"
 4344      7420696E 
 4344      7400
 4345              	.LASF38:
 4346 05aa 705F7374 		.ascii	"p_state\000"
 4346      61746500 
 4347              	.LASF123:
 4348 05b2 63665F6F 		.ascii	"cf_off_time\000"
 4348      66665F74 
 4348      696D6500 
 4349              	.LASF142:
 4350 05be 63685365 		.ascii	"chSemFastSignalI\000"
 4350      6D466173 
 4350      74536967 
 4350      6E616C49 
 4350      00
 4351              	.LASF97:
 4352 05cf 65776D61 		.ascii	"ewmask\000"
 4352      736B00
 4353              	.LASF31:
 4354 05d6 705F6E65 		.ascii	"p_next\000"
 4354      787400
 4355              	.LASF22:
ARM GAS  /tmp/ccapcBze.s 			page 82


 4356 05dd 746D6F64 		.ascii	"tmode_t\000"
 4356      655F7400 
 4357              	.LASF122:
 4358 05e5 63665F6F 		.ascii	"cf_off_preempt\000"
 4358      66665F70 
 4358      7265656D 
 4358      707400
 4359              	.LASF39:
 4360 05f4 705F666C 		.ascii	"p_flags\000"
 4360      61677300 
 4361              	.LASF139:
 4362 05fc 5F5F6675 		.ascii	"__func__\000"
 4362      6E635F5F 
 4362      00
 4363              	.LASF145:
 4364 0605 63685654 		.ascii	"chVTIsArmedI\000"
 4364      49734172 
 4364      6D656449 
 4364      00
 4365              	.LASF126:
 4366 0612 73656D61 		.ascii	"semaphore_t\000"
 4366      70686F72 
 4366      655F7400 
 4367              	.LASF52:
 4368 061e 74687265 		.ascii	"threads_queue_t\000"
 4368      6164735F 
 4368      71756575 
 4368      655F7400 
 4369              	.LASF64:
 4370 062e 63685F76 		.ascii	"ch_virtual_timer\000"
 4370      69727475 
 4370      616C5F74 
 4370      696D6572 
 4370      00
 4371              	.LASF115:
 4372 063f 63665F6F 		.ascii	"cf_off_newer\000"
 4372      66665F6E 
 4372      65776572 
 4372      00
 4373              	.LASF98:
 4374 064c 63685F73 		.ascii	"ch_semaphore\000"
 4374      656D6170 
 4374      686F7265 
 4374      00
 4375              	.LASF138:
 4376 0659 63685363 		.ascii	"chSchGoSleepS\000"
 4376      68476F53 
 4376      6C656570 
 4376      5300
 4377              	.LASF44:
 4378 0667 705F6570 		.ascii	"p_epending\000"
 4378      656E6469 
 4378      6E6700
 4379              	.LASF19:
 4380 0672 75696E74 		.ascii	"uint32_t\000"
 4380      33325F74 
 4380      00
ARM GAS  /tmp/ccapcBze.s 			page 83


 4381              	.LASF113:
 4382 067b 63665F6F 		.ascii	"cf_off_prio\000"
 4382      66665F70 
 4382      72696F00 
 4383              	.LASF56:
 4384 0687 725F7175 		.ascii	"r_queue\000"
 4384      65756500 
 4385              	.LASF160:
 4386 068f 63685363 		.ascii	"chSchReadyI\000"
 4386      68526561 
 4386      64794900 
 4387              	.LASF51:
 4388 069b 63685F74 		.ascii	"ch_threads_list\000"
 4388      68726561 
 4388      64735F6C 
 4388      69737400 
 4389              	.LASF108:
 4390 06ab 63685F73 		.ascii	"ch_size\000"
 4390      697A6500 
 4391              	.LASF13:
 4392 06b3 6C6F6E67 		.ascii	"long unsigned int\000"
 4392      20756E73 
 4392      69676E65 
 4392      6420696E 
 4392      7400
 4393              	.LASF105:
 4394 06c5 63686172 		.ascii	"char\000"
 4394      00
 4395              	.LASF96:
 4396 06ca 77746D74 		.ascii	"wtmtxp\000"
 4396      787000
 4397              	.LASF8:
 4398 06d1 5F5F7569 		.ascii	"__uint16_t\000"
 4398      6E743136 
 4398      5F7400
 4399              	.LASF149:
 4400 06dc 706F7274 		.ascii	"port_unlock_from_isr\000"
 4400      5F756E6C 
 4400      6F636B5F 
 4400      66726F6D 
 4400      5F697372 
 4401              	.LASF30:
 4402 06f1 74687265 		.ascii	"thread_t\000"
 4402      61645F74 
 4402      00
 4403              	.LASF147:
 4404 06fa 71756575 		.ascii	"queue_fifo_remove\000"
 4404      655F6669 
 4404      666F5F72 
 4404      656D6F76 
 4404      6500
 4405              	.LASF29:
 4406 070c 73797374 		.ascii	"systime_t\000"
 4406      696D655F 
 4406      7400
 4407              	.LASF46:
 4408 0716 705F7265 		.ascii	"p_realprio\000"
ARM GAS  /tmp/ccapcBze.s 			page 84


 4408      616C7072 
 4408      696F00
 4409              	.LASF62:
 4410 0721 76746675 		.ascii	"vtfunc_t\000"
 4410      6E635F74 
 4410      00
 4411              	.LASF12:
 4412 072a 5F5F7569 		.ascii	"__uint32_t\000"
 4412      6E743332 
 4412      5F7400
 4413              	.LASF153:
 4414 0735 5F5F7365 		.ascii	"__set_BASEPRI\000"
 4414      745F4241 
 4414      53455052 
 4414      4900
 4415              	.LASF75:
 4416 0743 70616E69 		.ascii	"panic_msg\000"
 4416      635F6D73 
 4416      6700
 4417              	.LASF89:
 4418 074d 6F666673 		.ascii	"offset\000"
 4418      657400
 4419              	.LASF87:
 4420 0754 636F6E74 		.ascii	"context\000"
 4420      65787400 
 4421              	.LASF21:
 4422 075c 7274636E 		.ascii	"rtcnt_t\000"
 4422      745F7400 
 4423              	.LASF150:
 4424 0764 706F7274 		.ascii	"port_lock_from_isr\000"
 4424      5F6C6F63 
 4424      6B5F6672 
 4424      6F6D5F69 
 4424      737200
 4425              	.LASF69:
 4426 0777 76745F70 		.ascii	"vt_par\000"
 4426      617200
 4427              	.LASF114:
 4428 077e 63665F6F 		.ascii	"cf_off_ctx\000"
 4428      66665F63 
 4428      747800
 4429              	.LASF101:
 4430 0789 63685F6D 		.ascii	"ch_mutex\000"
 4430      75746578 
 4430      00
 4431              	.LASF40:
 4432 0792 705F7265 		.ascii	"p_refs\000"
 4432      667300
 4433              	.LASF78:
 4434 0799 726C6973 		.ascii	"rlist\000"
 4434      7400
 4435              	.LASF16:
 4436 079f 75696E74 		.ascii	"uint8_t\000"
 4436      385F7400 
 4437              	.LASF72:
 4438 07a7 76745F6C 		.ascii	"vt_lasttime\000"
 4438      61737474 
ARM GAS  /tmp/ccapcBze.s 			page 85


 4438      696D6500 
 4439              	.LASF144:
 4440 07b3 63685379 		.ascii	"chSysLockFromISR\000"
 4440      734C6F63 
 4440      6B46726F 
 4440      6D495352 
 4440      00
 4441              	.LASF37:
 4442 07c4 705F6E61 		.ascii	"p_name\000"
 4442      6D6500
 4443              	.LASF49:
 4444 07cb 74687265 		.ascii	"threads_list_t\000"
 4444      6164735F 
 4444      6C697374 
 4444      5F7400
 4445              	.LASF135:
 4446 07da 63685363 		.ascii	"chSchGoSleepTimeoutS\000"
 4446      68476F53 
 4446      6C656570 
 4446      54696D65 
 4446      6F757453 
 4447              	.LASF161:
 4448 07ef 63685363 		.ascii	"chSchIsRescRequiredI\000"
 4448      68497352 
 4448      65736352 
 4448      65717569 
 4448      72656449 
 4449              	.LASF43:
 4450 0804 705F6D73 		.ascii	"p_msg\000"
 4450      6700
 4451              	.LASF103:
 4452 080a 6D5F6F77 		.ascii	"m_owner\000"
 4452      6E657200 
 4453              	.LASF106:
 4454 0812 63685F69 		.ascii	"ch_identifier\000"
 4454      64656E74 
 4454      69666965 
 4454      7200
 4455              	.LASF68:
 4456 0820 76745F66 		.ascii	"vt_func\000"
 4456      756E6300 
 4457              		.ident	"GCC: (GNU Tools for ARM Embedded Processors) 6.2.1 20161205 (release) [ARM/embedded-6-bran
ARM GAS  /tmp/ccapcBze.s 			page 86


DEFINED SYMBOLS
                            *ABS*:0000000000000000 chschd.c
     /tmp/ccapcBze.s:16     .text.wakeup:0000000000000000 $t
     /tmp/ccapcBze.s:23     .text.wakeup:0000000000000000 wakeup
     /tmp/ccapcBze.s:58     .text.wakeup:0000000000000010 $d
     /tmp/ccapcBze.s:66     .text.wakeup:0000000000000018 $t
     /tmp/ccapcBze.s:221    .text.wakeup:0000000000000068 $d
     /tmp/ccapcBze.s:231    .text._scheduler_init:0000000000000000 $t
     /tmp/ccapcBze.s:239    .text._scheduler_init:0000000000000000 _scheduler_init
     /tmp/ccapcBze.s:274    .text._scheduler_init:0000000000000010 $d
     /tmp/ccapcBze.s:279    .text.chSchReadyI:0000000000000000 $t
     /tmp/ccapcBze.s:287    .text.chSchReadyI:0000000000000000 chSchReadyI
     /tmp/ccapcBze.s:338    .text.chSchReadyI:0000000000000024 $d
     /tmp/ccapcBze.s:343    .text.chSchGoSleepS:0000000000000000 $t
     /tmp/ccapcBze.s:351    .text.chSchGoSleepS:0000000000000000 chSchGoSleepS
     /tmp/ccapcBze.s:409    .text.chSchGoSleepS:0000000000000020 $d
     /tmp/ccapcBze.s:414    .text.chSchGoSleepTimeoutS:0000000000000000 $t
     /tmp/ccapcBze.s:422    .text.chSchGoSleepTimeoutS:0000000000000000 chSchGoSleepTimeoutS
     /tmp/ccapcBze.s:492    .text.chSchGoSleepTimeoutS:000000000000003c $d
     /tmp/ccapcBze.s:498    .text.chSchWakeupS:0000000000000000 $t
     /tmp/ccapcBze.s:506    .text.chSchWakeupS:0000000000000000 chSchWakeupS
     /tmp/ccapcBze.s:637    .text.chSchWakeupS:0000000000000054 $d
     /tmp/ccapcBze.s:643    .text.chSchIsPreemptionRequired:0000000000000000 $t
     /tmp/ccapcBze.s:651    .text.chSchIsPreemptionRequired:0000000000000000 chSchIsPreemptionRequired
     /tmp/ccapcBze.s:676    .text.chSchIsPreemptionRequired:0000000000000014 $d
     /tmp/ccapcBze.s:681    .text.chSchDoRescheduleBehind:0000000000000000 $t
     /tmp/ccapcBze.s:689    .text.chSchDoRescheduleBehind:0000000000000000 chSchDoRescheduleBehind
     /tmp/ccapcBze.s:792    .text.chSchDoRescheduleBehind:0000000000000038 $d
     /tmp/ccapcBze.s:797    .text.chSchDoRescheduleAhead:0000000000000000 $t
     /tmp/ccapcBze.s:805    .text.chSchDoRescheduleAhead:0000000000000000 chSchDoRescheduleAhead
     /tmp/ccapcBze.s:894    .text.chSchDoRescheduleAhead:0000000000000038 $d
     /tmp/ccapcBze.s:899    .text.chSchRescheduleS:0000000000000000 $t
     /tmp/ccapcBze.s:907    .text.chSchRescheduleS:0000000000000000 chSchRescheduleS
     /tmp/ccapcBze.s:935    .text.chSchRescheduleS:0000000000000014 $d
     /tmp/ccapcBze.s:940    .text.chSchDoReschedule:0000000000000000 $t
     /tmp/ccapcBze.s:948    .text.chSchDoReschedule:0000000000000000 chSchDoReschedule
     /tmp/ccapcBze.s:967    .bss.ch:0000000000000000 ch
     /tmp/ccapcBze.s:963    .bss.ch:0000000000000000 $d
                     .debug_frame:0000000000000010 $d

UNDEFINED SYMBOLS
_port_switch
chVTDoSetI
chVTDoResetI
