ARM GAS  /tmp/cc4SeFZS.s 			page 1


   1              		.cpu cortex-m4
   2              		.eabi_attribute 20, 1
   3              		.eabi_attribute 21, 1
   4              		.eabi_attribute 23, 3
   5              		.eabi_attribute 24, 1
   6              		.eabi_attribute 25, 1
   7              		.eabi_attribute 26, 1
   8              		.eabi_attribute 30, 2
   9              		.eabi_attribute 34, 1
  10              		.eabi_attribute 18, 4
  11              		.file	"chsem.c"
  12              		.text
  13              	.Ltext0:
  14              		.cfi_sections	.debug_frame
  15              		.section	.text.chSemObjectInit,"ax",%progbits
  16              		.align	1
  17              		.p2align 4,,15
  18              		.global	chSemObjectInit
  19              		.syntax unified
  20              		.thumb
  21              		.thumb_func
  22              		.fpu softvfp
  23              		.type	chSemObjectInit, %function
  24              	chSemObjectInit:
  25              	.LFB227:
  26              		.file 1 "/home/selim/working/ChibiOS/os/rt/src/chsem.c"
  27              		.loc 1 97 0
  28              		.cfi_startproc
  29              		@ args = 0, pretend = 0, frame = 0
  30              		@ frame_needed = 0, uses_anonymous_args = 0
  31              		@ link register save eliminated.
  32              	.LVL0:
  33              	.LBB92:
  34              	.LBB93:
  35              		.file 2 "/home/selim/working/ChibiOS/os/rt/include/chschd.h"
  36              		.loc 2 604 0
  37 0000 0060     		str	r0, [r0]
  38              		.loc 2 605 0
  39 0002 4060     		str	r0, [r0, #4]
  40              	.LVL1:
  41              	.LBE93:
  42              	.LBE92:
  43              		.loc 1 102 0
  44 0004 8160     		str	r1, [r0, #8]
  45 0006 7047     		bx	lr
  46              		.cfi_endproc
  47              	.LFE227:
  48              		.size	chSemObjectInit, .-chSemObjectInit
  49              		.section	.text.chSemResetI,"ax",%progbits
  50              		.align	1
  51              		.p2align 4,,15
  52              		.global	chSemResetI
  53              		.syntax unified
  54              		.thumb
  55              		.thumb_func
  56              		.fpu softvfp
  57              		.type	chSemResetI, %function
ARM GAS  /tmp/cc4SeFZS.s 			page 2


  58              	chSemResetI:
  59              	.LFB229:
  60              		.loc 1 147 0
  61              		.cfi_startproc
  62              		@ args = 0, pretend = 0, frame = 0
  63              		@ frame_needed = 0, uses_anonymous_args = 0
  64              	.LVL2:
  65 0000 70B5     		push	{r4, r5, r6, lr}
  66              		.cfi_def_cfa_offset 16
  67              		.cfi_offset 4, -16
  68              		.cfi_offset 5, -12
  69              		.cfi_offset 6, -8
  70              		.cfi_offset 14, -4
  71              		.loc 1 156 0
  72 0002 8568     		ldr	r5, [r0, #8]
  73              	.LVL3:
  74              		.loc 1 157 0
  75 0004 8160     		str	r1, [r0, #8]
  76              		.loc 1 158 0
  77 0006 0135     		adds	r5, r5, #1
  78              	.LVL4:
  79 0008 002D     		cmp	r5, #0
  80 000a 0CDC     		bgt	.L2
  81 000c 0446     		mov	r4, r0
  82              		.loc 1 159 0
  83 000e 6FF00106 		mvn	r6, #1
  84              	.LVL5:
  85              	.L4:
  86              	.LBB94:
  87              	.LBB95:
  88              		.loc 2 681 0
  89 0012 6068     		ldr	r0, [r4, #4]
  90              	.LVL6:
  91              		.loc 2 683 0
  92 0014 4368     		ldr	r3, [r0, #4]
  93 0016 6360     		str	r3, [r4, #4]
  94              		.loc 2 684 0
  95 0018 1C60     		str	r4, [r3]
  96              	.LVL7:
  97              	.LBE95:
  98              	.LBE94:
  99              		.loc 1 159 0
 100 001a FFF7FEFF 		bl	chSchReadyI
 101              	.LVL8:
 102              		.loc 1 158 0
 103 001e 0135     		adds	r5, r5, #1
 104              	.LVL9:
 105 0020 012D     		cmp	r5, #1
 106              		.loc 1 159 0
 107 0022 0662     		str	r6, [r0, #32]
 108              	.LVL10:
 109              		.loc 1 158 0
 110 0024 F5D1     		bne	.L4
 111              	.LVL11:
 112              	.L2:
 113 0026 70BD     		pop	{r4, r5, r6, pc}
 114              		.cfi_endproc
ARM GAS  /tmp/cc4SeFZS.s 			page 3


 115              	.LFE229:
 116              		.size	chSemResetI, .-chSemResetI
 117              		.section	.text.chSemReset,"ax",%progbits
 118              		.align	1
 119              		.p2align 4,,15
 120              		.global	chSemReset
 121              		.syntax unified
 122              		.thumb
 123              		.thumb_func
 124              		.fpu softvfp
 125              		.type	chSemReset, %function
 126              	chSemReset:
 127              	.LFB228:
 128              		.loc 1 120 0
 129              		.cfi_startproc
 130              		@ args = 0, pretend = 0, frame = 0
 131              		@ frame_needed = 0, uses_anonymous_args = 0
 132              	.LVL12:
 133 0000 08B5     		push	{r3, lr}
 134              		.cfi_def_cfa_offset 8
 135              		.cfi_offset 3, -8
 136              		.cfi_offset 14, -4
 137              	.LBB96:
 138              	.LBB97:
 139              	.LBB98:
 140              	.LBB99:
 141              		.file 3 "/home/selim/working/ChibiOS/os/ext/CMSIS/include/core_cmFunc.h"
 142              		.loc 3 546 0
 143 0002 2023     		movs	r3, #32
 144              		.syntax unified
 145              	@ 546 "/home/selim/working/ChibiOS/os/ext/CMSIS/include/core_cmFunc.h" 1
 146 0004 83F31188 		MSR basepri, r3
 147              	@ 0 "" 2
 148              	.LVL13:
 149              		.thumb
 150              		.syntax unified
 151              	.LBE99:
 152              	.LBE98:
 153              	.LBE97:
 154              	.LBE96:
 155              		.loc 1 123 0
 156 0008 FFF7FEFF 		bl	chSemResetI
 157              	.LVL14:
 158              		.loc 1 124 0
 159 000c FFF7FEFF 		bl	chSchRescheduleS
 160              	.LVL15:
 161              	.LBB100:
 162              	.LBB101:
 163              	.LBB102:
 164              	.LBB103:
 165              	.LBB104:
 166              		.loc 3 546 0
 167 0010 0023     		movs	r3, #0
 168              		.syntax unified
 169              	@ 546 "/home/selim/working/ChibiOS/os/ext/CMSIS/include/core_cmFunc.h" 1
 170 0012 83F31188 		MSR basepri, r3
 171              	@ 0 "" 2
ARM GAS  /tmp/cc4SeFZS.s 			page 4


 172              	.LVL16:
 173              		.thumb
 174              		.syntax unified
 175 0016 08BD     		pop	{r3, pc}
 176              	.LBE104:
 177              	.LBE103:
 178              	.LBE102:
 179              	.LBE101:
 180              	.LBE100:
 181              		.cfi_endproc
 182              	.LFE228:
 183              		.size	chSemReset, .-chSemReset
 184              		.section	.text.chSemWait,"ax",%progbits
 185              		.align	1
 186              		.p2align 4,,15
 187              		.global	chSemWait
 188              		.syntax unified
 189              		.thumb
 190              		.thumb_func
 191              		.fpu softvfp
 192              		.type	chSemWait, %function
 193              	chSemWait:
 194              	.LFB230:
 195              		.loc 1 175 0
 196              		.cfi_startproc
 197              		@ args = 0, pretend = 0, frame = 0
 198              		@ frame_needed = 0, uses_anonymous_args = 0
 199              	.LVL17:
 200              	.LBB120:
 201              	.LBB121:
 202              	.LBB122:
 203              	.LBB123:
 204              		.loc 3 546 0
 205 0000 2023     		movs	r3, #32
 206              		.syntax unified
 207              	@ 546 "/home/selim/working/ChibiOS/os/ext/CMSIS/include/core_cmFunc.h" 1
 208 0002 83F31188 		MSR basepri, r3
 209              	@ 0 "" 2
 210              	.LVL18:
 211              		.thumb
 212              		.syntax unified
 213              	.LBE123:
 214              	.LBE122:
 215              	.LBE121:
 216              	.LBE120:
 217              	.LBB124:
 218              	.LBB125:
 219              		.loc 1 205 0
 220 0006 8368     		ldr	r3, [r0, #8]
 221 0008 013B     		subs	r3, r3, #1
 222 000a 002B     		cmp	r3, #0
 223 000c 8360     		str	r3, [r0, #8]
 224 000e 04DB     		blt	.L18
 225              		.loc 1 213 0
 226 0010 0020     		movs	r0, #0
 227              	.LVL19:
 228              	.LBE125:
ARM GAS  /tmp/cc4SeFZS.s 			page 5


 229              	.LBE124:
 230              	.LBB133:
 231              	.LBB134:
 232              	.LBB135:
 233              	.LBB136:
 234              	.LBB137:
 235              		.loc 3 546 0
 236 0012 0023     		movs	r3, #0
 237              		.syntax unified
 238              	@ 546 "/home/selim/working/ChibiOS/os/ext/CMSIS/include/core_cmFunc.h" 1
 239 0014 83F31188 		MSR basepri, r3
 240              	@ 0 "" 2
 241              	.LVL20:
 242              		.thumb
 243              		.syntax unified
 244              	.LBE137:
 245              	.LBE136:
 246              	.LBE135:
 247              	.LBE134:
 248              	.LBE133:
 249              		.loc 1 183 0
 250 0018 7047     		bx	lr
 251              	.LVL21:
 252              	.L18:
 253              		.loc 1 175 0
 254 001a 10B5     		push	{r4, lr}
 255              		.cfi_def_cfa_offset 8
 256              		.cfi_offset 4, -8
 257              		.cfi_offset 14, -4
 258              	.LBB142:
 259              	.LBB132:
 260              	.LBB126:
 261              	.LBB127:
 262              		.loc 1 206 0
 263 001c 084C     		ldr	r4, .L19
 264 001e A269     		ldr	r2, [r4, #24]
 265 0020 1062     		str	r0, [r2, #32]
 266              	.LBB128:
 267              	.LBB129:
 268              		.loc 2 666 0
 269 0022 4168     		ldr	r1, [r0, #4]
 270 0024 5160     		str	r1, [r2, #4]
 271 0026 0346     		mov	r3, r0
 272              	.LVL22:
 273              		.loc 2 665 0
 274 0028 1060     		str	r0, [r2]
 275              		.loc 2 667 0
 276 002a 0A60     		str	r2, [r1]
 277              	.LBE129:
 278              	.LBE128:
 279              		.loc 1 208 0
 280 002c 0520     		movs	r0, #5
 281              	.LVL23:
 282              	.LBB131:
 283              	.LBB130:
 284              		.loc 2 668 0
 285 002e 5A60     		str	r2, [r3, #4]
ARM GAS  /tmp/cc4SeFZS.s 			page 6


 286              	.LVL24:
 287              	.LBE130:
 288              	.LBE131:
 289              		.loc 1 208 0
 290 0030 FFF7FEFF 		bl	chSchGoSleepS
 291              	.LVL25:
 292              		.loc 1 210 0
 293 0034 A369     		ldr	r3, [r4, #24]
 294 0036 186A     		ldr	r0, [r3, #32]
 295              	.LVL26:
 296              	.LBE127:
 297              	.LBE126:
 298              	.LBE132:
 299              	.LBE142:
 300              	.LBB143:
 301              	.LBB141:
 302              	.LBB140:
 303              	.LBB139:
 304              	.LBB138:
 305              		.loc 3 546 0
 306 0038 0023     		movs	r3, #0
 307              		.syntax unified
 308              	@ 546 "/home/selim/working/ChibiOS/os/ext/CMSIS/include/core_cmFunc.h" 1
 309 003a 83F31188 		MSR basepri, r3
 310              	@ 0 "" 2
 311              	.LVL27:
 312              		.thumb
 313              		.syntax unified
 314              	.LBE138:
 315              	.LBE139:
 316              	.LBE140:
 317              	.LBE141:
 318              	.LBE143:
 319              		.loc 1 183 0
 320 003e 10BD     		pop	{r4, pc}
 321              	.L20:
 322              		.align	2
 323              	.L19:
 324 0040 00000000 		.word	ch
 325              		.cfi_endproc
 326              	.LFE230:
 327              		.size	chSemWait, .-chSemWait
 328              		.section	.text.chSemWaitS,"ax",%progbits
 329              		.align	1
 330              		.p2align 4,,15
 331              		.global	chSemWaitS
 332              		.syntax unified
 333              		.thumb
 334              		.thumb_func
 335              		.fpu softvfp
 336              		.type	chSemWaitS, %function
 337              	chSemWaitS:
 338              	.LFB231:
 339              		.loc 1 197 0
 340              		.cfi_startproc
 341              		@ args = 0, pretend = 0, frame = 0
 342              		@ frame_needed = 0, uses_anonymous_args = 0
ARM GAS  /tmp/cc4SeFZS.s 			page 7


 343              	.LVL28:
 344              		.loc 1 205 0
 345 0000 8368     		ldr	r3, [r0, #8]
 346 0002 013B     		subs	r3, r3, #1
 347 0004 002B     		cmp	r3, #0
 348 0006 8360     		str	r3, [r0, #8]
 349 0008 01DB     		blt	.L28
 350              		.loc 1 213 0
 351 000a 0020     		movs	r0, #0
 352              	.LVL29:
 353 000c 7047     		bx	lr
 354              	.LVL30:
 355              	.L28:
 356              		.loc 1 197 0
 357 000e 10B5     		push	{r4, lr}
 358              		.cfi_def_cfa_offset 8
 359              		.cfi_offset 4, -8
 360              		.cfi_offset 14, -4
 361              	.LBB148:
 362              	.LBB149:
 363              		.loc 1 206 0
 364 0010 074C     		ldr	r4, .L29
 365 0012 A269     		ldr	r2, [r4, #24]
 366 0014 1062     		str	r0, [r2, #32]
 367              	.LBB150:
 368              	.LBB151:
 369              		.loc 2 666 0
 370 0016 4168     		ldr	r1, [r0, #4]
 371 0018 5160     		str	r1, [r2, #4]
 372 001a 0346     		mov	r3, r0
 373              	.LVL31:
 374              		.loc 2 665 0
 375 001c 1060     		str	r0, [r2]
 376              		.loc 2 667 0
 377 001e 0A60     		str	r2, [r1]
 378              	.LBE151:
 379              	.LBE150:
 380              		.loc 1 208 0
 381 0020 0520     		movs	r0, #5
 382              	.LVL32:
 383              	.LBB153:
 384              	.LBB152:
 385              		.loc 2 668 0
 386 0022 5A60     		str	r2, [r3, #4]
 387              	.LVL33:
 388              	.LBE152:
 389              	.LBE153:
 390              		.loc 1 208 0
 391 0024 FFF7FEFF 		bl	chSchGoSleepS
 392              	.LVL34:
 393              		.loc 1 210 0
 394 0028 A369     		ldr	r3, [r4, #24]
 395 002a 186A     		ldr	r0, [r3, #32]
 396              	.LVL35:
 397 002c 10BD     		pop	{r4, pc}
 398              	.L30:
 399 002e 00BF     		.align	2
ARM GAS  /tmp/cc4SeFZS.s 			page 8


 400              	.L29:
 401 0030 00000000 		.word	ch
 402              	.LBE149:
 403              	.LBE148:
 404              		.cfi_endproc
 405              	.LFE231:
 406              		.size	chSemWaitS, .-chSemWaitS
 407              		.section	.text.chSemWaitTimeout,"ax",%progbits
 408              		.align	1
 409              		.p2align 4,,15
 410              		.global	chSemWaitTimeout
 411              		.syntax unified
 412              		.thumb
 413              		.thumb_func
 414              		.fpu softvfp
 415              		.type	chSemWaitTimeout, %function
 416              	chSemWaitTimeout:
 417              	.LFB232:
 418              		.loc 1 235 0
 419              		.cfi_startproc
 420              		@ args = 0, pretend = 0, frame = 0
 421              		@ frame_needed = 0, uses_anonymous_args = 0
 422              	.LVL36:
 423              	.LBB169:
 424              	.LBB170:
 425              	.LBB171:
 426              	.LBB172:
 427              		.loc 3 546 0
 428 0000 2023     		movs	r3, #32
 429              		.syntax unified
 430              	@ 546 "/home/selim/working/ChibiOS/os/ext/CMSIS/include/core_cmFunc.h" 1
 431 0002 83F31188 		MSR basepri, r3
 432              	@ 0 "" 2
 433              	.LVL37:
 434              		.thumb
 435              		.syntax unified
 436              	.LBE172:
 437              	.LBE171:
 438              	.LBE170:
 439              	.LBE169:
 440              	.LBB173:
 441              	.LBB174:
 442              		.loc 1 272 0
 443 0006 8268     		ldr	r2, [r0, #8]
 444 0008 531E     		subs	r3, r2, #1
 445 000a 002B     		cmp	r3, #0
 446 000c 8360     		str	r3, [r0, #8]
 447 000e 04DB     		blt	.L39
 448              		.loc 1 284 0
 449 0010 0020     		movs	r0, #0
 450              	.LVL38:
 451              	.LBE174:
 452              	.LBE173:
 453              	.LBB183:
 454              	.LBB184:
 455              	.LBB185:
 456              	.LBB186:
ARM GAS  /tmp/cc4SeFZS.s 			page 9


 457              	.LBB187:
 458              		.loc 3 546 0
 459 0012 0023     		movs	r3, #0
 460              		.syntax unified
 461              	@ 546 "/home/selim/working/ChibiOS/os/ext/CMSIS/include/core_cmFunc.h" 1
 462 0014 83F31188 		MSR basepri, r3
 463              	@ 0 "" 2
 464              	.LVL39:
 465              		.thumb
 466              		.syntax unified
 467              	.LBE187:
 468              	.LBE186:
 469              	.LBE185:
 470              	.LBE184:
 471              	.LBE183:
 472              		.loc 1 243 0
 473 0018 7047     		bx	lr
 474              	.LVL40:
 475              	.L39:
 476              		.loc 1 235 0
 477 001a 10B5     		push	{r4, lr}
 478              		.cfi_def_cfa_offset 8
 479              		.cfi_offset 4, -8
 480              		.cfi_offset 14, -4
 481              	.LBB192:
 482              	.LBB181:
 483              		.loc 1 273 0
 484 001c 79B1     		cbz	r1, .L40
 485              	.LBB175:
 486              	.LBB176:
 487              		.loc 1 278 0
 488 001e 0A4A     		ldr	r2, .L41
 489 0020 9269     		ldr	r2, [r2, #24]
 490 0022 1062     		str	r0, [r2, #32]
 491              	.LBB177:
 492              	.LBB178:
 493              		.loc 2 666 0
 494 0024 4468     		ldr	r4, [r0, #4]
 495 0026 0346     		mov	r3, r0
 496              	.LVL41:
 497 0028 82E81800 		stm	r2, {r3, r4}
 498              	.LBE178:
 499              	.LBE177:
 500              		.loc 1 281 0
 501 002c 0520     		movs	r0, #5
 502              	.LVL42:
 503              	.LBB180:
 504              	.LBB179:
 505              		.loc 2 667 0
 506 002e 2260     		str	r2, [r4]
 507              		.loc 2 668 0
 508 0030 5A60     		str	r2, [r3, #4]
 509              	.LVL43:
 510              	.LBE179:
 511              	.LBE180:
 512              		.loc 1 281 0
 513 0032 FFF7FEFF 		bl	chSchGoSleepTimeoutS
ARM GAS  /tmp/cc4SeFZS.s 			page 10


 514              	.LVL44:
 515              	.L32:
 516              	.LBE176:
 517              	.LBE175:
 518              	.LBE181:
 519              	.LBE192:
 520              	.LBB193:
 521              	.LBB191:
 522              	.LBB190:
 523              	.LBB189:
 524              	.LBB188:
 525              		.loc 3 546 0
 526 0036 0023     		movs	r3, #0
 527              		.syntax unified
 528              	@ 546 "/home/selim/working/ChibiOS/os/ext/CMSIS/include/core_cmFunc.h" 1
 529 0038 83F31188 		MSR basepri, r3
 530              	@ 0 "" 2
 531              	.LVL45:
 532              		.thumb
 533              		.syntax unified
 534              	.LBE188:
 535              	.LBE189:
 536              	.LBE190:
 537              	.LBE191:
 538              	.LBE193:
 539              		.loc 1 243 0
 540 003c 10BD     		pop	{r4, pc}
 541              	.LVL46:
 542              	.L40:
 543              	.LBB194:
 544              	.LBB182:
 545              		.loc 1 274 0
 546 003e 8260     		str	r2, [r0, #8]
 547              		.loc 1 276 0
 548 0040 4FF0FF30 		mov	r0, #-1
 549              	.LVL47:
 550 0044 F7E7     		b	.L32
 551              	.L42:
 552 0046 00BF     		.align	2
 553              	.L41:
 554 0048 00000000 		.word	ch
 555              	.LBE182:
 556              	.LBE194:
 557              		.cfi_endproc
 558              	.LFE232:
 559              		.size	chSemWaitTimeout, .-chSemWaitTimeout
 560              		.section	.text.chSemWaitTimeoutS,"ax",%progbits
 561              		.align	1
 562              		.p2align 4,,15
 563              		.global	chSemWaitTimeoutS
 564              		.syntax unified
 565              		.thumb
 566              		.thumb_func
 567              		.fpu softvfp
 568              		.type	chSemWaitTimeoutS, %function
 569              	chSemWaitTimeoutS:
 570              	.LFB233:
ARM GAS  /tmp/cc4SeFZS.s 			page 11


 571              		.loc 1 264 0
 572              		.cfi_startproc
 573              		@ args = 0, pretend = 0, frame = 0
 574              		@ frame_needed = 0, uses_anonymous_args = 0
 575              		@ link register save eliminated.
 576              	.LVL48:
 577 0000 0346     		mov	r3, r0
 578              		.loc 1 272 0
 579 0002 8068     		ldr	r0, [r0, #8]
 580              	.LVL49:
 581 0004 421E     		subs	r2, r0, #1
 582 0006 002A     		cmp	r2, #0
 583 0008 9A60     		str	r2, [r3, #8]
 584 000a 01DB     		blt	.L51
 585              		.loc 1 284 0
 586 000c 0020     		movs	r0, #0
 587 000e 7047     		bx	lr
 588              	.L51:
 589              		.loc 1 264 0
 590 0010 10B4     		push	{r4}
 591              		.cfi_def_cfa_offset 4
 592              		.cfi_offset 4, -4
 593              		.loc 1 273 0
 594 0012 59B1     		cbz	r1, .L52
 595              	.LVL50:
 596              	.LBB199:
 597              	.LBB200:
 598              		.loc 1 278 0
 599 0014 084A     		ldr	r2, .L53
 600 0016 9269     		ldr	r2, [r2, #24]
 601 0018 1362     		str	r3, [r2, #32]
 602              	.LVL51:
 603              	.LBB201:
 604              	.LBB202:
 605              		.loc 2 666 0
 606 001a 5C68     		ldr	r4, [r3, #4]
 607              	.LBE202:
 608              	.LBE201:
 609              		.loc 1 281 0
 610 001c 0520     		movs	r0, #5
 611              	.LBB204:
 612              	.LBB203:
 613              		.loc 2 666 0
 614 001e 82E81800 		stm	r2, {r3, r4}
 615              		.loc 2 667 0
 616 0022 2260     		str	r2, [r4]
 617              		.loc 2 668 0
 618 0024 5A60     		str	r2, [r3, #4]
 619              	.LVL52:
 620              	.LBE203:
 621              	.LBE204:
 622              	.LBE200:
 623              	.LBE199:
 624              		.loc 1 285 0
 625 0026 10BC     		pop	{r4}
 626              		.cfi_remember_state
 627              		.cfi_restore 4
ARM GAS  /tmp/cc4SeFZS.s 			page 12


 628              		.cfi_def_cfa_offset 0
 629              	.LBB206:
 630              	.LBB205:
 631              		.loc 1 281 0
 632 0028 FFF7FEBF 		b	chSchGoSleepTimeoutS
 633              	.LVL53:
 634              	.L52:
 635              		.cfi_restore_state
 636              	.LBE205:
 637              	.LBE206:
 638              		.loc 1 274 0
 639 002c 9860     		str	r0, [r3, #8]
 640              		.loc 1 285 0
 641 002e 10BC     		pop	{r4}
 642              		.cfi_restore 4
 643              		.cfi_def_cfa_offset 0
 644              		.loc 1 276 0
 645 0030 4FF0FF30 		mov	r0, #-1
 646              		.loc 1 285 0
 647 0034 7047     		bx	lr
 648              	.L54:
 649 0036 00BF     		.align	2
 650              	.L53:
 651 0038 00000000 		.word	ch
 652              		.cfi_endproc
 653              	.LFE233:
 654              		.size	chSemWaitTimeoutS, .-chSemWaitTimeoutS
 655              		.section	.text.chSemSignal,"ax",%progbits
 656              		.align	1
 657              		.p2align 4,,15
 658              		.global	chSemSignal
 659              		.syntax unified
 660              		.thumb
 661              		.thumb_func
 662              		.fpu softvfp
 663              		.type	chSemSignal, %function
 664              	chSemSignal:
 665              	.LFB234:
 666              		.loc 1 294 0
 667              		.cfi_startproc
 668              		@ args = 0, pretend = 0, frame = 0
 669              		@ frame_needed = 0, uses_anonymous_args = 0
 670              	.LVL54:
 671 0000 08B5     		push	{r3, lr}
 672              		.cfi_def_cfa_offset 8
 673              		.cfi_offset 3, -8
 674              		.cfi_offset 14, -4
 675              	.LBB207:
 676              	.LBB208:
 677              	.LBB209:
 678              	.LBB210:
 679              		.loc 3 546 0
 680 0002 2023     		movs	r3, #32
 681              		.syntax unified
 682              	@ 546 "/home/selim/working/ChibiOS/os/ext/CMSIS/include/core_cmFunc.h" 1
 683 0004 83F31188 		MSR basepri, r3
 684              	@ 0 "" 2
ARM GAS  /tmp/cc4SeFZS.s 			page 13


 685              	.LVL55:
 686              		.thumb
 687              		.syntax unified
 688              	.LBE210:
 689              	.LBE209:
 690              	.LBE208:
 691              	.LBE207:
 692              		.loc 1 302 0
 693 0008 8368     		ldr	r3, [r0, #8]
 694 000a 0133     		adds	r3, r3, #1
 695 000c 002B     		cmp	r3, #0
 696 000e 8360     		str	r3, [r0, #8]
 697 0010 03DD     		ble	.L58
 698              	.LVL56:
 699              	.LBB211:
 700              	.LBB212:
 701              	.LBB213:
 702              	.LBB214:
 703              	.LBB215:
 704              		.loc 3 546 0
 705 0012 0023     		movs	r3, #0
 706              		.syntax unified
 707              	@ 546 "/home/selim/working/ChibiOS/os/ext/CMSIS/include/core_cmFunc.h" 1
 708 0014 83F31188 		MSR basepri, r3
 709              	@ 0 "" 2
 710              	.LVL57:
 711              		.thumb
 712              		.syntax unified
 713 0018 08BD     		pop	{r3, pc}
 714              	.L58:
 715 001a 0346     		mov	r3, r0
 716              	.LVL58:
 717              	.LBE215:
 718              	.LBE214:
 719              	.LBE213:
 720              	.LBE212:
 721              	.LBE211:
 722              	.LBB220:
 723              	.LBB221:
 724              		.loc 2 672 0
 725 001c 0068     		ldr	r0, [r0]
 726              	.LVL59:
 727              		.loc 2 674 0
 728 001e 0268     		ldr	r2, [r0]
 729 0020 1A60     		str	r2, [r3]
 730              	.LBE221:
 731              	.LBE220:
 732              		.loc 1 303 0
 733 0022 0021     		movs	r1, #0
 734              	.LBB223:
 735              	.LBB222:
 736              		.loc 2 675 0
 737 0024 5360     		str	r3, [r2, #4]
 738              	.LVL60:
 739              	.LBE222:
 740              	.LBE223:
 741              		.loc 1 303 0
ARM GAS  /tmp/cc4SeFZS.s 			page 14


 742 0026 FFF7FEFF 		bl	chSchWakeupS
 743              	.LVL61:
 744              	.LBB224:
 745              	.LBB219:
 746              	.LBB218:
 747              	.LBB217:
 748              	.LBB216:
 749              		.loc 3 546 0
 750 002a 0023     		movs	r3, #0
 751              		.syntax unified
 752              	@ 546 "/home/selim/working/ChibiOS/os/ext/CMSIS/include/core_cmFunc.h" 1
 753 002c 83F31188 		MSR basepri, r3
 754              	@ 0 "" 2
 755              	.LVL62:
 756              		.thumb
 757              		.syntax unified
 758 0030 08BD     		pop	{r3, pc}
 759              	.LBE216:
 760              	.LBE217:
 761              	.LBE218:
 762              	.LBE219:
 763              	.LBE224:
 764              		.cfi_endproc
 765              	.LFE234:
 766              		.size	chSemSignal, .-chSemSignal
 767 0032 00BF     		.section	.text.chSemSignalI,"ax",%progbits
 768              		.align	1
 769              		.p2align 4,,15
 770              		.global	chSemSignalI
 771              		.syntax unified
 772              		.thumb
 773              		.thumb_func
 774              		.fpu softvfp
 775              		.type	chSemSignalI, %function
 776              	chSemSignalI:
 777              	.LFB235:
 778              		.loc 1 319 0
 779              		.cfi_startproc
 780              		@ args = 0, pretend = 0, frame = 0
 781              		@ frame_needed = 0, uses_anonymous_args = 0
 782              		@ link register save eliminated.
 783              	.LVL63:
 784              		.loc 1 327 0
 785 0000 8368     		ldr	r3, [r0, #8]
 786 0002 0133     		adds	r3, r3, #1
 787 0004 002B     		cmp	r3, #0
 788 0006 8360     		str	r3, [r0, #8]
 789 0008 00DD     		ble	.L61
 790 000a 7047     		bx	lr
 791              	.L61:
 792              	.LVL64:
 793              	.LBB225:
 794              	.LBB226:
 795              	.LBB227:
 796              		.loc 2 672 0
 797 000c 0368     		ldr	r3, [r0]
 798              	.LVL65:
ARM GAS  /tmp/cc4SeFZS.s 			page 15


 799              		.loc 2 674 0
 800 000e 1A68     		ldr	r2, [r3]
 801 0010 0260     		str	r2, [r0]
 802              	.LBE227:
 803              	.LBE226:
 804              		.loc 1 331 0
 805 0012 0021     		movs	r1, #0
 806              	.LBB229:
 807              	.LBB228:
 808              		.loc 2 675 0
 809 0014 5060     		str	r0, [r2, #4]
 810              	.LVL66:
 811              	.LBE228:
 812              	.LBE229:
 813              		.loc 1 332 0
 814 0016 1846     		mov	r0, r3
 815              	.LVL67:
 816              		.loc 1 331 0
 817 0018 1962     		str	r1, [r3, #32]
 818              	.LVL68:
 819              		.loc 1 332 0
 820 001a FFF7FEBF 		b	chSchReadyI
 821              	.LVL69:
 822              	.LBE225:
 823              		.cfi_endproc
 824              	.LFE235:
 825              		.size	chSemSignalI, .-chSemSignalI
 826 001e 00BF     		.section	.text.chSemAddCounterI,"ax",%progbits
 827              		.align	1
 828              		.p2align 4,,15
 829              		.global	chSemAddCounterI
 830              		.syntax unified
 831              		.thumb
 832              		.thumb_func
 833              		.fpu softvfp
 834              		.type	chSemAddCounterI, %function
 835              	chSemAddCounterI:
 836              	.LFB236:
 837              		.loc 1 349 0
 838              		.cfi_startproc
 839              		@ args = 0, pretend = 0, frame = 0
 840              		@ frame_needed = 0, uses_anonymous_args = 0
 841              	.LVL70:
 842 0000 70B5     		push	{r4, r5, r6, lr}
 843              		.cfi_def_cfa_offset 16
 844              		.cfi_offset 4, -16
 845              		.cfi_offset 5, -12
 846              		.cfi_offset 6, -8
 847              		.cfi_offset 14, -4
 848              		.loc 1 357 0
 849 0002 0C1E     		subs	r4, r1, #0
 850 0004 12DD     		ble	.L62
 851 0006 0546     		mov	r5, r0
 852              		.loc 1 359 0
 853 0008 0026     		movs	r6, #0
 854 000a 01E0     		b	.L65
 855              	.LVL71:
ARM GAS  /tmp/cc4SeFZS.s 			page 16


 856              	.L64:
 857              		.loc 1 357 0
 858 000c 013C     		subs	r4, r4, #1
 859              	.LVL72:
 860 000e 0DD0     		beq	.L62
 861              	.LVL73:
 862              	.L65:
 863              		.loc 1 358 0
 864 0010 AB68     		ldr	r3, [r5, #8]
 865 0012 0133     		adds	r3, r3, #1
 866 0014 002B     		cmp	r3, #0
 867 0016 AB60     		str	r3, [r5, #8]
 868 0018 F8DC     		bgt	.L64
 869              	.LVL74:
 870              	.LBB230:
 871              	.LBB231:
 872              		.loc 2 672 0
 873 001a 2868     		ldr	r0, [r5]
 874              	.LVL75:
 875              		.loc 2 674 0
 876 001c 0368     		ldr	r3, [r0]
 877 001e 2B60     		str	r3, [r5]
 878              		.loc 2 675 0
 879 0020 5D60     		str	r5, [r3, #4]
 880              	.LVL76:
 881              	.LBE231:
 882              	.LBE230:
 883              		.loc 1 359 0
 884 0022 FFF7FEFF 		bl	chSchReadyI
 885              	.LVL77:
 886              		.loc 1 357 0
 887 0026 013C     		subs	r4, r4, #1
 888              	.LVL78:
 889              		.loc 1 359 0
 890 0028 0662     		str	r6, [r0, #32]
 891              	.LVL79:
 892              		.loc 1 357 0
 893 002a F1D1     		bne	.L65
 894              	.LVL80:
 895              	.L62:
 896 002c 70BD     		pop	{r4, r5, r6, pc}
 897              		.cfi_endproc
 898              	.LFE236:
 899              		.size	chSemAddCounterI, .-chSemAddCounterI
 900 002e 00BF     		.section	.text.chSemSignalWait,"ax",%progbits
 901              		.align	1
 902              		.p2align 4,,15
 903              		.global	chSemSignalWait
 904              		.syntax unified
 905              		.thumb
 906              		.thumb_func
 907              		.fpu softvfp
 908              		.type	chSemSignalWait, %function
 909              	chSemSignalWait:
 910              	.LFB237:
 911              		.loc 1 378 0
 912              		.cfi_startproc
ARM GAS  /tmp/cc4SeFZS.s 			page 17


 913              		@ args = 0, pretend = 0, frame = 8
 914              		@ frame_needed = 0, uses_anonymous_args = 0
 915              	.LVL81:
 916 0000 10B5     		push	{r4, lr}
 917              		.cfi_def_cfa_offset 8
 918              		.cfi_offset 4, -8
 919              		.cfi_offset 14, -4
 920              	.LBB232:
 921              	.LBB233:
 922              	.LBB234:
 923              	.LBB235:
 924              		.loc 3 546 0
 925 0002 2023     		movs	r3, #32
 926              	.LBE235:
 927              	.LBE234:
 928              	.LBE233:
 929              	.LBE232:
 930              		.loc 1 378 0
 931 0004 82B0     		sub	sp, sp, #8
 932              		.cfi_def_cfa_offset 16
 933              	.LBB239:
 934              	.LBB238:
 935              	.LBB237:
 936              	.LBB236:
 937              		.loc 3 546 0
 938              		.syntax unified
 939              	@ 546 "/home/selim/working/ChibiOS/os/ext/CMSIS/include/core_cmFunc.h" 1
 940 0006 83F31188 		MSR basepri, r3
 941              	@ 0 "" 2
 942              	.LVL82:
 943              		.thumb
 944              		.syntax unified
 945              	.LBE236:
 946              	.LBE237:
 947              	.LBE238:
 948              	.LBE239:
 949              		.loc 1 390 0
 950 000a 8368     		ldr	r3, [r0, #8]
 951 000c 0133     		adds	r3, r3, #1
 952 000e 002B     		cmp	r3, #0
 953 0010 8360     		str	r3, [r0, #8]
 954 0012 1DDD     		ble	.L74
 955              	.LVL83:
 956              	.L70:
 957              		.loc 1 393 0
 958 0014 8B68     		ldr	r3, [r1, #8]
 959 0016 013B     		subs	r3, r3, #1
 960 0018 002B     		cmp	r3, #0
 961 001a 8B60     		str	r3, [r1, #8]
 962 001c 07DB     		blt	.L75
 963              		.loc 1 401 0
 964 001e FFF7FEFF 		bl	chSchRescheduleS
 965              	.LVL84:
 966              		.loc 1 402 0
 967 0022 0020     		movs	r0, #0
 968              	.LVL85:
 969              	.LBB240:
ARM GAS  /tmp/cc4SeFZS.s 			page 18


 970              	.LBB241:
 971              	.LBB242:
 972              	.LBB243:
 973              	.LBB244:
 974              		.loc 3 546 0
 975 0024 0023     		movs	r3, #0
 976              		.syntax unified
 977              	@ 546 "/home/selim/working/ChibiOS/os/ext/CMSIS/include/core_cmFunc.h" 1
 978 0026 83F31188 		MSR basepri, r3
 979              	@ 0 "" 2
 980              	.LVL86:
 981              		.thumb
 982              		.syntax unified
 983              	.LBE244:
 984              	.LBE243:
 985              	.LBE242:
 986              	.LBE241:
 987              	.LBE240:
 988              		.loc 1 407 0
 989 002a 02B0     		add	sp, sp, #8
 990              		.cfi_remember_state
 991              		.cfi_def_cfa_offset 8
 992              		@ sp needed
 993 002c 10BD     		pop	{r4, pc}
 994              	.LVL87:
 995              	.L75:
 996              		.cfi_restore_state
 997              	.LBB249:
 998              		.loc 1 394 0
 999 002e 0E4A     		ldr	r2, .L76
 1000              	.LBB250:
 1001              	.LBB251:
 1002              		.loc 2 666 0
 1003 0030 4B68     		ldr	r3, [r1, #4]
 1004              	.LBE251:
 1005              	.LBE250:
 1006              		.loc 1 394 0
 1007 0032 9469     		ldr	r4, [r2, #24]
 1008              	.LVL88:
 1009              		.loc 1 397 0
 1010 0034 0520     		movs	r0, #5
 1011              	.LBB253:
 1012              	.LBB252:
 1013              		.loc 2 666 0
 1014 0036 84E80A00 		stm	r4, {r1, r3}
 1015              		.loc 2 667 0
 1016 003a 1C60     		str	r4, [r3]
 1017              		.loc 2 668 0
 1018 003c 4C60     		str	r4, [r1, #4]
 1019              	.LVL89:
 1020              	.LBE252:
 1021              	.LBE253:
 1022              		.loc 1 396 0
 1023 003e 2162     		str	r1, [r4, #32]
 1024              		.loc 1 397 0
 1025 0040 FFF7FEFF 		bl	chSchGoSleepS
 1026              	.LVL90:
ARM GAS  /tmp/cc4SeFZS.s 			page 19


 1027              		.loc 1 398 0
 1028 0044 206A     		ldr	r0, [r4, #32]
 1029              	.LVL91:
 1030              	.LBE249:
 1031              	.LBB254:
 1032              	.LBB248:
 1033              	.LBB247:
 1034              	.LBB246:
 1035              	.LBB245:
 1036              		.loc 3 546 0
 1037 0046 0023     		movs	r3, #0
 1038              		.syntax unified
 1039              	@ 546 "/home/selim/working/ChibiOS/os/ext/CMSIS/include/core_cmFunc.h" 1
 1040 0048 83F31188 		MSR basepri, r3
 1041              	@ 0 "" 2
 1042              	.LVL92:
 1043              		.thumb
 1044              		.syntax unified
 1045              	.LBE245:
 1046              	.LBE246:
 1047              	.LBE247:
 1048              	.LBE248:
 1049              	.LBE254:
 1050              		.loc 1 407 0
 1051 004c 02B0     		add	sp, sp, #8
 1052              		.cfi_remember_state
 1053              		.cfi_def_cfa_offset 8
 1054              		@ sp needed
 1055 004e 10BD     		pop	{r4, pc}
 1056              	.LVL93:
 1057              	.L74:
 1058              		.cfi_restore_state
 1059 0050 0246     		mov	r2, r0
 1060              	.LBB255:
 1061              	.LBB256:
 1062              		.loc 2 672 0
 1063 0052 0068     		ldr	r0, [r0]
 1064              	.LVL94:
 1065 0054 0191     		str	r1, [sp, #4]
 1066              	.LVL95:
 1067              		.loc 2 674 0
 1068 0056 0368     		ldr	r3, [r0]
 1069 0058 1360     		str	r3, [r2]
 1070              		.loc 2 675 0
 1071 005a 5A60     		str	r2, [r3, #4]
 1072              	.LVL96:
 1073              	.LBE256:
 1074              	.LBE255:
 1075              		.loc 1 391 0
 1076 005c FFF7FEFF 		bl	chSchReadyI
 1077              	.LVL97:
 1078 0060 0023     		movs	r3, #0
 1079 0062 0362     		str	r3, [r0, #32]
 1080 0064 0199     		ldr	r1, [sp, #4]
 1081 0066 D5E7     		b	.L70
 1082              	.L77:
 1083              		.align	2
ARM GAS  /tmp/cc4SeFZS.s 			page 20


 1084              	.L76:
 1085 0068 00000000 		.word	ch
 1086              		.cfi_endproc
 1087              	.LFE237:
 1088              		.size	chSemSignalWait, .-chSemSignalWait
 1089              		.text
 1090              	.Letext0:
 1091              		.file 4 "/usr/arm-none-eabi/include/machine/_default_types.h"
 1092              		.file 5 "/usr/arm-none-eabi/include/sys/_stdint.h"
 1093              		.file 6 "/home/selim/working/ChibiOS/os/rt/ports/ARMCMx/compilers/GCC/chtypes.h"
 1094              		.file 7 "/home/selim/working/ChibiOS/os/rt/include/chsystypes.h"
 1095              		.file 8 "/home/selim/working/ChibiOS/os/ext/CMSIS/include/core_cm4.h"
 1096              		.file 9 "/home/selim/working/ChibiOS/os/ext/CMSIS/ST/system_stm32f4xx.h"
 1097              		.file 10 "/home/selim/working/ChibiOS/os/rt/ports/ARMCMx/chcore.h"
 1098              		.file 11 "/home/selim/working/ChibiOS/os/rt/ports/ARMCMx/chcore_v7m.h"
 1099              		.file 12 "/home/selim/working/ChibiOS/os/rt/include/chtm.h"
 1100              		.file 13 "/home/selim/working/ChibiOS/os/rt/include/chsem.h"
 1101              		.file 14 "/home/selim/working/ChibiOS/os/rt/include/chmtx.h"
 1102              		.file 15 "/home/selim/working/ChibiOS/os/rt/include/chregistry.h"
 1103              		.file 16 "/home/selim/working/ChibiOS/os/rt/include/chsys.h"
 1104              		.section	.debug_info,"",%progbits
 1105              	.Ldebug_info0:
 1106 0000 01120000 		.4byte	0x1201
 1107 0004 0400     		.2byte	0x4
 1108 0006 00000000 		.4byte	.Ldebug_abbrev0
 1109 000a 04       		.byte	0x4
 1110 000b 01       		.uleb128 0x1
 1111 000c 84030000 		.4byte	.LASF155
 1112 0010 0C       		.byte	0xc
 1113 0011 AC040000 		.4byte	.LASF156
 1114 0015 70010000 		.4byte	.Ldebug_ranges0+0x170
 1115 0019 00000000 		.4byte	0
 1116 001d 00000000 		.4byte	.Ldebug_line0
 1117 0021 02       		.uleb128 0x2
 1118 0022 04       		.byte	0x4
 1119 0023 05       		.byte	0x5
 1120 0024 696E7400 		.ascii	"int\000"
 1121 0028 03       		.uleb128 0x3
 1122 0029 04       		.byte	0x4
 1123 002a 07       		.byte	0x7
 1124 002b 26020000 		.4byte	.LASF0
 1125 002f 03       		.uleb128 0x3
 1126 0030 08       		.byte	0x8
 1127 0031 05       		.byte	0x5
 1128 0032 17010000 		.4byte	.LASF1
 1129 0036 03       		.uleb128 0x3
 1130 0037 08       		.byte	0x8
 1131 0038 04       		.byte	0x4
 1132 0039 78030000 		.4byte	.LASF2
 1133 003d 03       		.uleb128 0x3
 1134 003e 01       		.byte	0x1
 1135 003f 06       		.byte	0x6
 1136 0040 25010000 		.4byte	.LASF3
 1137 0044 04       		.uleb128 0x4
 1138 0045 5A000000 		.4byte	.LASF6
 1139 0049 04       		.byte	0x4
 1140 004a 2B       		.byte	0x2b
ARM GAS  /tmp/cc4SeFZS.s 			page 21


 1141 004b 4F000000 		.4byte	0x4f
 1142 004f 03       		.uleb128 0x3
 1143 0050 01       		.byte	0x1
 1144 0051 08       		.byte	0x8
 1145 0052 41050000 		.4byte	.LASF4
 1146 0056 03       		.uleb128 0x3
 1147 0057 02       		.byte	0x2
 1148 0058 05       		.byte	0x5
 1149 0059 59050000 		.4byte	.LASF5
 1150 005d 04       		.uleb128 0x4
 1151 005e 84060000 		.4byte	.LASF7
 1152 0062 04       		.byte	0x4
 1153 0063 39       		.byte	0x39
 1154 0064 68000000 		.4byte	0x68
 1155 0068 03       		.uleb128 0x3
 1156 0069 02       		.byte	0x2
 1157 006a 07       		.byte	0x7
 1158 006b 9A020000 		.4byte	.LASF8
 1159 006f 04       		.uleb128 0x4
 1160 0070 FC020000 		.4byte	.LASF9
 1161 0074 04       		.byte	0x4
 1162 0075 4D       		.byte	0x4d
 1163 0076 7A000000 		.4byte	0x7a
 1164 007a 03       		.uleb128 0x3
 1165 007b 04       		.byte	0x4
 1166 007c 05       		.byte	0x5
 1167 007d 92010000 		.4byte	.LASF10
 1168 0081 04       		.uleb128 0x4
 1169 0082 C8060000 		.4byte	.LASF11
 1170 0086 04       		.byte	0x4
 1171 0087 4F       		.byte	0x4f
 1172 0088 8C000000 		.4byte	0x8c
 1173 008c 03       		.uleb128 0x3
 1174 008d 04       		.byte	0x4
 1175 008e 07       		.byte	0x7
 1176 008f 54060000 		.4byte	.LASF12
 1177 0093 04       		.uleb128 0x4
 1178 0094 EC040000 		.4byte	.LASF13
 1179 0098 04       		.byte	0x4
 1180 0099 69       		.byte	0x69
 1181 009a 9E000000 		.4byte	0x9e
 1182 009e 03       		.uleb128 0x3
 1183 009f 08       		.byte	0x8
 1184 00a0 07       		.byte	0x7
 1185 00a1 56010000 		.4byte	.LASF14
 1186 00a5 04       		.uleb128 0x4
 1187 00a6 45070000 		.4byte	.LASF15
 1188 00aa 05       		.byte	0x5
 1189 00ab 18       		.byte	0x18
 1190 00ac 44000000 		.4byte	0x44
 1191 00b0 04       		.uleb128 0x4
 1192 00b1 4C020000 		.4byte	.LASF16
 1193 00b5 05       		.byte	0x5
 1194 00b6 24       		.byte	0x24
 1195 00b7 5D000000 		.4byte	0x5d
 1196 00bb 04       		.uleb128 0x4
 1197 00bc 39050000 		.4byte	.LASF17
ARM GAS  /tmp/cc4SeFZS.s 			page 22


 1198 00c0 05       		.byte	0x5
 1199 00c1 2C       		.byte	0x2c
 1200 00c2 6F000000 		.4byte	0x6f
 1201 00c6 05       		.uleb128 0x5
 1202 00c7 BB000000 		.4byte	0xbb
 1203 00cb 04       		.uleb128 0x4
 1204 00cc 13060000 		.4byte	.LASF18
 1205 00d0 05       		.byte	0x5
 1206 00d1 30       		.byte	0x30
 1207 00d2 81000000 		.4byte	0x81
 1208 00d6 04       		.uleb128 0x4
 1209 00d7 51000000 		.4byte	.LASF19
 1210 00db 05       		.byte	0x5
 1211 00dc 3C       		.byte	0x3c
 1212 00dd 93000000 		.4byte	0x93
 1213 00e1 04       		.uleb128 0x4
 1214 00e2 04070000 		.4byte	.LASF20
 1215 00e6 06       		.byte	0x6
 1216 00e7 46       		.byte	0x46
 1217 00e8 CB000000 		.4byte	0xcb
 1218 00ec 04       		.uleb128 0x4
 1219 00ed 80050000 		.4byte	.LASF21
 1220 00f1 06       		.byte	0x6
 1221 00f2 49       		.byte	0x49
 1222 00f3 A5000000 		.4byte	0xa5
 1223 00f7 04       		.uleb128 0x4
 1224 00f8 9B010000 		.4byte	.LASF22
 1225 00fc 06       		.byte	0x6
 1226 00fd 4A       		.byte	0x4a
 1227 00fe A5000000 		.4byte	0xa5
 1228 0102 04       		.uleb128 0x4
 1229 0103 F7040000 		.4byte	.LASF23
 1230 0107 06       		.byte	0x6
 1231 0108 4B       		.byte	0x4b
 1232 0109 A5000000 		.4byte	0xa5
 1233 010d 04       		.uleb128 0x4
 1234 010e 21050000 		.4byte	.LASF24
 1235 0112 06       		.byte	0x6
 1236 0113 4D       		.byte	0x4d
 1237 0114 CB000000 		.4byte	0xcb
 1238 0118 04       		.uleb128 0x4
 1239 0119 C4020000 		.4byte	.LASF25
 1240 011d 06       		.byte	0x6
 1241 011e 4E       		.byte	0x4e
 1242 011f BB000000 		.4byte	0xbb
 1243 0123 04       		.uleb128 0x4
 1244 0124 F0020000 		.4byte	.LASF26
 1245 0128 06       		.byte	0x6
 1246 0129 50       		.byte	0x50
 1247 012a CB000000 		.4byte	0xcb
 1248 012e 04       		.uleb128 0x4
 1249 012f 20020000 		.4byte	.LASF27
 1250 0133 06       		.byte	0x6
 1251 0134 52       		.byte	0x52
 1252 0135 BB000000 		.4byte	0xbb
 1253 0139 04       		.uleb128 0x4
 1254 013a AA060000 		.4byte	.LASF28
ARM GAS  /tmp/cc4SeFZS.s 			page 23


 1255 013e 07       		.byte	0x7
 1256 013f 33       		.byte	0x33
 1257 0140 CB000000 		.4byte	0xcb
 1258 0144 04       		.uleb128 0x4
 1259 0145 8F060000 		.4byte	.LASF29
 1260 0149 07       		.byte	0x7
 1261 014a 3F       		.byte	0x3f
 1262 014b 4F010000 		.4byte	0x14f
 1263 014f 06       		.uleb128 0x6
 1264 0150 AD020000 		.4byte	.LASF49
 1265 0154 44       		.byte	0x44
 1266 0155 02       		.byte	0x2
 1267 0156 C2       		.byte	0xc2
 1268 0157 3C020000 		.4byte	0x23c
 1269 015b 07       		.uleb128 0x7
 1270 015c 79050000 		.4byte	.LASF30
 1271 0160 02       		.byte	0x2
 1272 0161 C3       		.byte	0xc3
 1273 0162 47020000 		.4byte	0x247
 1274 0166 00       		.byte	0
 1275 0167 07       		.uleb128 0x7
 1276 0168 1A050000 		.4byte	.LASF31
 1277 016c 02       		.byte	0x2
 1278 016d C5       		.byte	0xc5
 1279 016e 47020000 		.4byte	0x247
 1280 0172 04       		.byte	0x4
 1281 0173 07       		.uleb128 0x7
 1282 0174 03010000 		.4byte	.LASF32
 1283 0178 02       		.byte	0x2
 1284 0179 C7       		.byte	0xc7
 1285 017a 0D010000 		.4byte	0x10d
 1286 017e 08       		.byte	0x8
 1287 017f 07       		.uleb128 0x7
 1288 0180 8E040000 		.4byte	.LASF33
 1289 0184 02       		.byte	0x2
 1290 0185 C8       		.byte	0xc8
 1291 0186 8E040000 		.4byte	0x48e
 1292 018a 0C       		.byte	0xc
 1293 018b 07       		.uleb128 0x7
 1294 018c B9010000 		.4byte	.LASF34
 1295 0190 02       		.byte	0x2
 1296 0191 CA       		.byte	0xca
 1297 0192 47020000 		.4byte	0x247
 1298 0196 10       		.byte	0x10
 1299 0197 07       		.uleb128 0x7
 1300 0198 80040000 		.4byte	.LASF35
 1301 019c 02       		.byte	0x2
 1302 019d CB       		.byte	0xcb
 1303 019e 47020000 		.4byte	0x247
 1304 01a2 14       		.byte	0x14
 1305 01a3 07       		.uleb128 0x7
 1306 01a4 60070000 		.4byte	.LASF36
 1307 01a8 02       		.byte	0x2
 1308 01a9 D2       		.byte	0xd2
 1309 01aa 0D060000 		.4byte	0x60d
 1310 01ae 18       		.byte	0x18
 1311 01af 07       		.uleb128 0x7
ARM GAS  /tmp/cc4SeFZS.s 			page 24


 1312 01b0 63050000 		.4byte	.LASF37
 1313 01b4 02       		.byte	0x2
 1314 01b5 DD       		.byte	0xdd
 1315 01b6 F7000000 		.4byte	0xf7
 1316 01ba 1C       		.byte	0x1c
 1317 01bb 07       		.uleb128 0x7
 1318 01bc 97050000 		.4byte	.LASF38
 1319 01c0 02       		.byte	0x2
 1320 01c1 E1       		.byte	0xe1
 1321 01c2 EC000000 		.4byte	0xec
 1322 01c6 1D       		.byte	0x1d
 1323 01c7 07       		.uleb128 0x7
 1324 01c8 2C070000 		.4byte	.LASF39
 1325 01cc 02       		.byte	0x2
 1326 01cd E6       		.byte	0xe6
 1327 01ce 02010000 		.4byte	0x102
 1328 01d2 1E       		.byte	0x1e
 1329 01d3 08       		.uleb128 0x8
 1330 01d4 705F7500 		.ascii	"p_u\000"
 1331 01d8 02       		.byte	0x2
 1332 01d9 3101     		.2byte	0x131
 1333 01db 48050000 		.4byte	0x548
 1334 01df 20       		.byte	0x20
 1335 01e0 09       		.uleb128 0x9
 1336 01e1 3B030000 		.4byte	.LASF40
 1337 01e5 02       		.byte	0x2
 1338 01e6 3601     		.2byte	0x136
 1339 01e8 4D020000 		.4byte	0x24d
 1340 01ec 24       		.byte	0x24
 1341 01ed 09       		.uleb128 0x9
 1342 01ee 75020000 		.4byte	.LASF41
 1343 01f2 02       		.byte	0x2
 1344 01f3 3C01     		.2byte	0x13c
 1345 01f5 71020000 		.4byte	0x271
 1346 01f9 28       		.byte	0x28
 1347 01fa 09       		.uleb128 0x9
 1348 01fb 97070000 		.4byte	.LASF42
 1349 01ff 02       		.byte	0x2
 1350 0200 4001     		.2byte	0x140
 1351 0202 18010000 		.4byte	0x118
 1352 0206 30       		.byte	0x30
 1353 0207 09       		.uleb128 0x9
 1354 0208 08060000 		.4byte	.LASF43
 1355 020c 02       		.byte	0x2
 1356 020d 4601     		.2byte	0x146
 1357 020f 23010000 		.4byte	0x123
 1358 0213 34       		.byte	0x34
 1359 0214 09       		.uleb128 0x9
 1360 0215 4F050000 		.4byte	.LASF44
 1361 0219 02       		.byte	0x2
 1362 021a 4D01     		.2byte	0x14d
 1363 021c 07060000 		.4byte	0x607
 1364 0220 38       		.byte	0x38
 1365 0221 09       		.uleb128 0x9
 1366 0222 B4060000 		.4byte	.LASF45
 1367 0226 02       		.byte	0x2
 1368 0227 5101     		.2byte	0x151
ARM GAS  /tmp/cc4SeFZS.s 			page 25


 1369 0229 0D010000 		.4byte	0x10d
 1370 022d 3C       		.byte	0x3c
 1371 022e 09       		.uleb128 0x9
 1372 022f 4E010000 		.4byte	.LASF46
 1373 0233 02       		.byte	0x2
 1374 0234 5801     		.2byte	0x158
 1375 0236 24030000 		.4byte	0x324
 1376 023a 40       		.byte	0x40
 1377 023b 00       		.byte	0
 1378 023c 04       		.uleb128 0x4
 1379 023d 4E030000 		.4byte	.LASF47
 1380 0241 07       		.byte	0x7
 1381 0242 44       		.byte	0x44
 1382 0243 47020000 		.4byte	0x247
 1383 0247 0A       		.uleb128 0xa
 1384 0248 04       		.byte	0x4
 1385 0249 44010000 		.4byte	0x144
 1386 024d 04       		.uleb128 0x4
 1387 024e 67070000 		.4byte	.LASF48
 1388 0252 07       		.byte	0x7
 1389 0253 49       		.byte	0x49
 1390 0254 58020000 		.4byte	0x258
 1391 0258 06       		.uleb128 0x6
 1392 0259 3C060000 		.4byte	.LASF50
 1393 025d 04       		.byte	0x4
 1394 025e 02       		.byte	0x2
 1395 025f B0       		.byte	0xb0
 1396 0260 71020000 		.4byte	0x271
 1397 0264 07       		.uleb128 0x7
 1398 0265 79050000 		.4byte	.LASF30
 1399 0269 02       		.byte	0x2
 1400 026a B1       		.byte	0xb1
 1401 026b 47020000 		.4byte	0x247
 1402 026f 00       		.byte	0
 1403 0270 00       		.byte	0
 1404 0271 04       		.uleb128 0x4
 1405 0272 BF050000 		.4byte	.LASF51
 1406 0276 07       		.byte	0x7
 1407 0277 50       		.byte	0x50
 1408 0278 7C020000 		.4byte	0x27c
 1409 027c 06       		.uleb128 0x6
 1410 027d F2000000 		.4byte	.LASF52
 1411 0281 08       		.byte	0x8
 1412 0282 02       		.byte	0x2
 1413 0283 B7       		.byte	0xb7
 1414 0284 A1020000 		.4byte	0x2a1
 1415 0288 07       		.uleb128 0x7
 1416 0289 79050000 		.4byte	.LASF30
 1417 028d 02       		.byte	0x2
 1418 028e B8       		.byte	0xb8
 1419 028f 47020000 		.4byte	0x247
 1420 0293 00       		.byte	0
 1421 0294 07       		.uleb128 0x7
 1422 0295 1A050000 		.4byte	.LASF31
 1423 0299 02       		.byte	0x2
 1424 029a B9       		.byte	0xb9
 1425 029b 47020000 		.4byte	0x247
ARM GAS  /tmp/cc4SeFZS.s 			page 26


 1426 029f 04       		.byte	0x4
 1427 02a0 00       		.byte	0
 1428 02a1 04       		.uleb128 0x4
 1429 02a2 0D000000 		.4byte	.LASF53
 1430 02a6 07       		.byte	0x7
 1431 02a7 57       		.byte	0x57
 1432 02a8 AC020000 		.4byte	0x2ac
 1433 02ac 0B       		.uleb128 0xb
 1434 02ad E2020000 		.4byte	.LASF54
 1435 02b1 1C       		.byte	0x1c
 1436 02b2 02       		.byte	0x2
 1437 02b3 9001     		.2byte	0x190
 1438 02b5 08030000 		.4byte	0x308
 1439 02b9 09       		.uleb128 0x9
 1440 02ba 28060000 		.4byte	.LASF55
 1441 02be 02       		.byte	0x2
 1442 02bf 9101     		.2byte	0x191
 1443 02c1 71020000 		.4byte	0x271
 1444 02c5 00       		.byte	0
 1445 02c6 09       		.uleb128 0x9
 1446 02c7 6B050000 		.4byte	.LASF56
 1447 02cb 02       		.byte	0x2
 1448 02cc 9201     		.2byte	0x192
 1449 02ce 0D010000 		.4byte	0x10d
 1450 02d2 08       		.byte	0x8
 1451 02d3 09       		.uleb128 0x9
 1452 02d4 88040000 		.4byte	.LASF57
 1453 02d8 02       		.byte	0x2
 1454 02d9 9401     		.2byte	0x194
 1455 02db 8E040000 		.4byte	0x48e
 1456 02df 0C       		.byte	0xc
 1457 02e0 09       		.uleb128 0x9
 1458 02e1 DA010000 		.4byte	.LASF58
 1459 02e5 02       		.byte	0x2
 1460 02e6 9701     		.2byte	0x197
 1461 02e8 47020000 		.4byte	0x247
 1462 02ec 10       		.byte	0x10
 1463 02ed 09       		.uleb128 0x9
 1464 02ee E4040000 		.4byte	.LASF59
 1465 02f2 02       		.byte	0x2
 1466 02f3 9801     		.2byte	0x198
 1467 02f5 47020000 		.4byte	0x247
 1468 02f9 14       		.byte	0x14
 1469 02fa 09       		.uleb128 0x9
 1470 02fb DA040000 		.4byte	.LASF60
 1471 02ff 02       		.byte	0x2
 1472 0300 9B01     		.2byte	0x19b
 1473 0302 47020000 		.4byte	0x247
 1474 0306 18       		.byte	0x18
 1475 0307 00       		.byte	0
 1476 0308 04       		.uleb128 0x4
 1477 0309 BF060000 		.4byte	.LASF61
 1478 030d 07       		.byte	0x7
 1479 030e 5C       		.byte	0x5c
 1480 030f 13030000 		.4byte	0x313
 1481 0313 0A       		.uleb128 0xa
 1482 0314 04       		.byte	0x4
ARM GAS  /tmp/cc4SeFZS.s 			page 27


 1483 0315 19030000 		.4byte	0x319
 1484 0319 0C       		.uleb128 0xc
 1485 031a 24030000 		.4byte	0x324
 1486 031e 0D       		.uleb128 0xd
 1487 031f 24030000 		.4byte	0x324
 1488 0323 00       		.byte	0
 1489 0324 0E       		.uleb128 0xe
 1490 0325 04       		.byte	0x4
 1491 0326 04       		.uleb128 0x4
 1492 0327 0A050000 		.4byte	.LASF62
 1493 032b 07       		.byte	0x7
 1494 032c 61       		.byte	0x61
 1495 032d 31030000 		.4byte	0x331
 1496 0331 0B       		.uleb128 0xb
 1497 0332 CF050000 		.4byte	.LASF63
 1498 0336 14       		.byte	0x14
 1499 0337 02       		.byte	0x2
 1500 0338 6B01     		.2byte	0x16b
 1501 033a 80030000 		.4byte	0x380
 1502 033e 09       		.uleb128 0x9
 1503 033f 44020000 		.4byte	.LASF64
 1504 0343 02       		.byte	0x2
 1505 0344 6C01     		.2byte	0x16c
 1506 0346 24060000 		.4byte	0x624
 1507 034a 00       		.byte	0
 1508 034b 09       		.uleb128 0x9
 1509 034c EB010000 		.4byte	.LASF65
 1510 0350 02       		.byte	0x2
 1511 0351 6D01     		.2byte	0x16d
 1512 0353 24060000 		.4byte	0x624
 1513 0357 04       		.byte	0x4
 1514 0358 09       		.uleb128 0x9
 1515 0359 6C020000 		.4byte	.LASF66
 1516 035d 02       		.byte	0x2
 1517 035e 6E01     		.2byte	0x16e
 1518 0360 39010000 		.4byte	0x139
 1519 0364 08       		.byte	0x8
 1520 0365 09       		.uleb128 0x9
 1521 0366 B3070000 		.4byte	.LASF67
 1522 036a 02       		.byte	0x2
 1523 036b 6F01     		.2byte	0x16f
 1524 036d 08030000 		.4byte	0x308
 1525 0371 0C       		.byte	0xc
 1526 0372 09       		.uleb128 0x9
 1527 0373 11070000 		.4byte	.LASF68
 1528 0377 02       		.byte	0x2
 1529 0378 7101     		.2byte	0x171
 1530 037a 24030000 		.4byte	0x324
 1531 037e 10       		.byte	0x10
 1532 037f 00       		.byte	0
 1533 0380 04       		.uleb128 0x4
 1534 0381 06030000 		.4byte	.LASF69
 1535 0385 07       		.byte	0x7
 1536 0386 66       		.byte	0x66
 1537 0387 8B030000 		.4byte	0x38b
 1538 038b 0B       		.uleb128 0xb
 1539 038c 61030000 		.4byte	.LASF70
ARM GAS  /tmp/cc4SeFZS.s 			page 28


 1540 0390 10       		.byte	0x10
 1541 0391 02       		.byte	0x2
 1542 0392 7B01     		.2byte	0x17b
 1543 0394 CD030000 		.4byte	0x3cd
 1544 0398 09       		.uleb128 0x9
 1545 0399 44020000 		.4byte	.LASF64
 1546 039d 02       		.byte	0x2
 1547 039e 7C01     		.2byte	0x17c
 1548 03a0 24060000 		.4byte	0x624
 1549 03a4 00       		.byte	0
 1550 03a5 09       		.uleb128 0x9
 1551 03a6 EB010000 		.4byte	.LASF65
 1552 03aa 02       		.byte	0x2
 1553 03ab 7E01     		.2byte	0x17e
 1554 03ad 24060000 		.4byte	0x624
 1555 03b1 04       		.byte	0x4
 1556 03b2 09       		.uleb128 0x9
 1557 03b3 6C020000 		.4byte	.LASF66
 1558 03b7 02       		.byte	0x2
 1559 03b8 8001     		.2byte	0x180
 1560 03ba 39010000 		.4byte	0x139
 1561 03be 08       		.byte	0x8
 1562 03bf 09       		.uleb128 0x9
 1563 03c0 4D070000 		.4byte	.LASF71
 1564 03c4 02       		.byte	0x2
 1565 03c5 8801     		.2byte	0x188
 1566 03c7 39010000 		.4byte	0x139
 1567 03cb 0C       		.byte	0xc
 1568 03cc 00       		.byte	0
 1569 03cd 04       		.uleb128 0x4
 1570 03ce 70000000 		.4byte	.LASF72
 1571 03d2 07       		.byte	0x7
 1572 03d3 6B       		.byte	0x6b
 1573 03d4 D8030000 		.4byte	0x3d8
 1574 03d8 0B       		.uleb128 0xb
 1575 03d9 29050000 		.4byte	.LASF73
 1576 03dd 04       		.byte	0x4
 1577 03de 02       		.byte	0x2
 1578 03df A201     		.2byte	0x1a2
 1579 03e1 F3030000 		.4byte	0x3f3
 1580 03e5 09       		.uleb128 0x9
 1581 03e6 EB060000 		.4byte	.LASF74
 1582 03ea 02       		.byte	0x2
 1583 03eb AA01     		.2byte	0x1aa
 1584 03ed 13060000 		.4byte	0x613
 1585 03f1 00       		.byte	0
 1586 03f2 00       		.byte	0
 1587 03f3 04       		.uleb128 0x4
 1588 03f4 CA020000 		.4byte	.LASF75
 1589 03f8 07       		.byte	0x7
 1590 03f9 70       		.byte	0x70
 1591 03fa FE030000 		.4byte	0x3fe
 1592 03fe 0F       		.uleb128 0xf
 1593 03ff 88010000 		.4byte	.LASF76
 1594 0403 5001     		.2byte	0x150
 1595 0405 02       		.byte	0x2
 1596 0406 C201     		.2byte	0x1c2
ARM GAS  /tmp/cc4SeFZS.s 			page 29


 1597 0408 5A040000 		.4byte	0x45a
 1598 040c 09       		.uleb128 0x9
 1599 040d 3F070000 		.4byte	.LASF77
 1600 0411 02       		.byte	0x2
 1601 0412 C601     		.2byte	0x1c6
 1602 0414 A1020000 		.4byte	0x2a1
 1603 0418 00       		.byte	0
 1604 0419 09       		.uleb128 0x9
 1605 041a 75010000 		.4byte	.LASF78
 1606 041e 02       		.byte	0x2
 1607 041f CA01     		.2byte	0x1ca
 1608 0421 80030000 		.4byte	0x380
 1609 0425 1C       		.byte	0x1c
 1610 0426 08       		.uleb128 0x8
 1611 0427 64626700 		.ascii	"dbg\000"
 1612 042b 02       		.byte	0x2
 1613 042c CE01     		.2byte	0x1ce
 1614 042e CD030000 		.4byte	0x3cd
 1615 0432 2C       		.byte	0x2c
 1616 0433 09       		.uleb128 0x9
 1617 0434 C9000000 		.4byte	.LASF79
 1618 0438 02       		.byte	0x2
 1619 0439 D201     		.2byte	0x1d2
 1620 043b 44010000 		.4byte	0x144
 1621 043f 30       		.byte	0x30
 1622 0440 08       		.uleb128 0x8
 1623 0441 746D00   		.ascii	"tm\000"
 1624 0444 02       		.byte	0x2
 1625 0445 D701     		.2byte	0x1d7
 1626 0447 3D050000 		.4byte	0x53d
 1627 044b 74       		.byte	0x74
 1628 044c 09       		.uleb128 0x9
 1629 044d 01020000 		.4byte	.LASF80
 1630 0451 02       		.byte	0x2
 1631 0452 E301     		.2byte	0x1e3
 1632 0454 2A060000 		.4byte	0x62a
 1633 0458 78       		.byte	0x78
 1634 0459 00       		.byte	0
 1635 045a 03       		.uleb128 0x3
 1636 045b 04       		.byte	0x4
 1637 045c 07       		.byte	0x7
 1638 045d 45030000 		.4byte	.LASF81
 1639 0461 10       		.uleb128 0x10
 1640 0462 E5000000 		.4byte	.LASF82
 1641 0466 08       		.byte	0x8
 1642 0467 A706     		.2byte	0x6a7
 1643 0469 C6000000 		.4byte	0xc6
 1644 046d 11       		.uleb128 0x11
 1645 046e 55020000 		.4byte	.LASF83
 1646 0472 09       		.byte	0x9
 1647 0473 4C       		.byte	0x4c
 1648 0474 CB000000 		.4byte	0xcb
 1649 0478 04       		.uleb128 0x4
 1650 0479 E2010000 		.4byte	.LASF84
 1651 047d 0A       		.byte	0xa
 1652 047e 65       		.byte	0x65
 1653 047f 24030000 		.4byte	0x324
ARM GAS  /tmp/cc4SeFZS.s 			page 30


 1654 0483 04       		.uleb128 0x4
 1655 0484 1C030000 		.4byte	.LASF85
 1656 0488 0A       		.byte	0xa
 1657 0489 6D       		.byte	0x6d
 1658 048a D6000000 		.4byte	0xd6
 1659 048e 06       		.uleb128 0x6
 1660 048f FC060000 		.4byte	.LASF86
 1661 0493 04       		.byte	0x4
 1662 0494 0A       		.byte	0xa
 1663 0495 89       		.byte	0x89
 1664 0496 A7040000 		.4byte	0x4a7
 1665 049a 12       		.uleb128 0x12
 1666 049b 72313300 		.ascii	"r13\000"
 1667 049f 0A       		.byte	0xa
 1668 04a0 8A       		.byte	0x8a
 1669 04a1 22050000 		.4byte	0x522
 1670 04a5 00       		.byte	0
 1671 04a6 00       		.byte	0
 1672 04a7 06       		.uleb128 0x6
 1673 04a8 64000000 		.4byte	.LASF87
 1674 04ac 24       		.byte	0x24
 1675 04ad 0B       		.byte	0xb
 1676 04ae F4       		.byte	0xf4
 1677 04af 22050000 		.4byte	0x522
 1678 04b3 08       		.uleb128 0x8
 1679 04b4 723400   		.ascii	"r4\000"
 1680 04b7 0B       		.byte	0xb
 1681 04b8 0701     		.2byte	0x107
 1682 04ba 78040000 		.4byte	0x478
 1683 04be 00       		.byte	0
 1684 04bf 08       		.uleb128 0x8
 1685 04c0 723500   		.ascii	"r5\000"
 1686 04c3 0B       		.byte	0xb
 1687 04c4 0801     		.2byte	0x108
 1688 04c6 78040000 		.4byte	0x478
 1689 04ca 04       		.byte	0x4
 1690 04cb 08       		.uleb128 0x8
 1691 04cc 723600   		.ascii	"r6\000"
 1692 04cf 0B       		.byte	0xb
 1693 04d0 0901     		.2byte	0x109
 1694 04d2 78040000 		.4byte	0x478
 1695 04d6 08       		.byte	0x8
 1696 04d7 08       		.uleb128 0x8
 1697 04d8 723700   		.ascii	"r7\000"
 1698 04db 0B       		.byte	0xb
 1699 04dc 0A01     		.2byte	0x10a
 1700 04de 78040000 		.4byte	0x478
 1701 04e2 0C       		.byte	0xc
 1702 04e3 08       		.uleb128 0x8
 1703 04e4 723800   		.ascii	"r8\000"
 1704 04e7 0B       		.byte	0xb
 1705 04e8 0B01     		.2byte	0x10b
 1706 04ea 78040000 		.4byte	0x478
 1707 04ee 10       		.byte	0x10
 1708 04ef 08       		.uleb128 0x8
 1709 04f0 723900   		.ascii	"r9\000"
 1710 04f3 0B       		.byte	0xb
ARM GAS  /tmp/cc4SeFZS.s 			page 31


 1711 04f4 0C01     		.2byte	0x10c
 1712 04f6 78040000 		.4byte	0x478
 1713 04fa 14       		.byte	0x14
 1714 04fb 08       		.uleb128 0x8
 1715 04fc 72313000 		.ascii	"r10\000"
 1716 0500 0B       		.byte	0xb
 1717 0501 0D01     		.2byte	0x10d
 1718 0503 78040000 		.4byte	0x478
 1719 0507 18       		.byte	0x18
 1720 0508 08       		.uleb128 0x8
 1721 0509 72313100 		.ascii	"r11\000"
 1722 050d 0B       		.byte	0xb
 1723 050e 0E01     		.2byte	0x10e
 1724 0510 78040000 		.4byte	0x478
 1725 0514 1C       		.byte	0x1c
 1726 0515 08       		.uleb128 0x8
 1727 0516 6C7200   		.ascii	"lr\000"
 1728 0519 0B       		.byte	0xb
 1729 051a 0F01     		.2byte	0x10f
 1730 051c 78040000 		.4byte	0x478
 1731 0520 20       		.byte	0x20
 1732 0521 00       		.byte	0
 1733 0522 0A       		.uleb128 0xa
 1734 0523 04       		.byte	0x4
 1735 0524 A7040000 		.4byte	0x4a7
 1736 0528 13       		.uleb128 0x13
 1737 0529 04       		.byte	0x4
 1738 052a 0C       		.byte	0xc
 1739 052b 38       		.byte	0x38
 1740 052c 3D050000 		.4byte	0x53d
 1741 0530 07       		.uleb128 0x7
 1742 0531 F5060000 		.4byte	.LASF88
 1743 0535 0C       		.byte	0xc
 1744 0536 3C       		.byte	0x3c
 1745 0537 E1000000 		.4byte	0xe1
 1746 053b 00       		.byte	0
 1747 053c 00       		.byte	0
 1748 053d 04       		.uleb128 0x4
 1749 053e 94040000 		.4byte	.LASF89
 1750 0542 0C       		.byte	0xc
 1751 0543 3D       		.byte	0x3d
 1752 0544 28050000 		.4byte	0x528
 1753 0548 14       		.uleb128 0x14
 1754 0549 04       		.byte	0x4
 1755 054a 02       		.byte	0x2
 1756 054b FA       		.byte	0xfa
 1757 054c A5050000 		.4byte	0x5a5
 1758 0550 15       		.uleb128 0x15
 1759 0551 3A000000 		.4byte	.LASF90
 1760 0555 02       		.byte	0x2
 1761 0556 0101     		.2byte	0x101
 1762 0558 18010000 		.4byte	0x118
 1763 055c 15       		.uleb128 0x15
 1764 055d C0000000 		.4byte	.LASF91
 1765 0561 02       		.byte	0x2
 1766 0562 0801     		.2byte	0x108
 1767 0564 18010000 		.4byte	0x118
ARM GAS  /tmp/cc4SeFZS.s 			page 32


 1768 0568 15       		.uleb128 0x15
 1769 0569 59070000 		.4byte	.LASF92
 1770 056d 02       		.byte	0x2
 1771 056e 0F01     		.2byte	0x10f
 1772 0570 24030000 		.4byte	0x324
 1773 0574 15       		.uleb128 0x15
 1774 0575 34000000 		.4byte	.LASF93
 1775 0579 02       		.byte	0x2
 1776 057a 1601     		.2byte	0x116
 1777 057c A5050000 		.4byte	0x5a5
 1778 0580 15       		.uleb128 0x15
 1779 0581 65020000 		.4byte	.LASF94
 1780 0585 02       		.byte	0x2
 1781 0586 1E01     		.2byte	0x11e
 1782 0588 D0050000 		.4byte	0x5d0
 1783 058c 15       		.uleb128 0x15
 1784 058d 6B060000 		.4byte	.LASF95
 1785 0591 02       		.byte	0x2
 1786 0592 2701     		.2byte	0x127
 1787 0594 07060000 		.4byte	0x607
 1788 0598 15       		.uleb128 0x15
 1789 0599 72050000 		.4byte	.LASF96
 1790 059d 02       		.byte	0x2
 1791 059e 2F01     		.2byte	0x12f
 1792 05a0 23010000 		.4byte	0x123
 1793 05a4 00       		.byte	0
 1794 05a5 0A       		.uleb128 0xa
 1795 05a6 04       		.byte	0x4
 1796 05a7 3C020000 		.4byte	0x23c
 1797 05ab 06       		.uleb128 0x6
 1798 05ac ED050000 		.4byte	.LASF97
 1799 05b0 0C       		.byte	0xc
 1800 05b1 0D       		.byte	0xd
 1801 05b2 34       		.byte	0x34
 1802 05b3 D0050000 		.4byte	0x5d0
 1803 05b7 07       		.uleb128 0x7
 1804 05b8 C1010000 		.4byte	.LASF98
 1805 05bc 0D       		.byte	0xd
 1806 05bd 35       		.byte	0x35
 1807 05be 71020000 		.4byte	0x271
 1808 05c2 00       		.byte	0
 1809 05c3 07       		.uleb128 0x7
 1810 05c4 94020000 		.4byte	.LASF99
 1811 05c8 0D       		.byte	0xd
 1812 05c9 37       		.byte	0x37
 1813 05ca 2E010000 		.4byte	0x12e
 1814 05ce 08       		.byte	0x8
 1815 05cf 00       		.byte	0
 1816 05d0 0A       		.uleb128 0xa
 1817 05d1 04       		.byte	0x4
 1818 05d2 AB050000 		.4byte	0x5ab
 1819 05d6 06       		.uleb128 0x6
 1820 05d7 23070000 		.4byte	.LASF100
 1821 05db 10       		.byte	0x10
 1822 05dc 0E       		.byte	0xe
 1823 05dd 39       		.byte	0x39
 1824 05de 07060000 		.4byte	0x607
ARM GAS  /tmp/cc4SeFZS.s 			page 33


 1825 05e2 07       		.uleb128 0x7
 1826 05e3 6D010000 		.4byte	.LASF101
 1827 05e7 0E       		.byte	0xe
 1828 05e8 3A       		.byte	0x3a
 1829 05e9 71020000 		.4byte	0x271
 1830 05ed 00       		.byte	0
 1831 05ee 07       		.uleb128 0x7
 1832 05ef 9D070000 		.4byte	.LASF102
 1833 05f3 0E       		.byte	0xe
 1834 05f4 3C       		.byte	0x3c
 1835 05f5 47020000 		.4byte	0x247
 1836 05f9 08       		.byte	0x8
 1837 05fa 07       		.uleb128 0x7
 1838 05fb A5040000 		.4byte	.LASF103
 1839 05ff 0E       		.byte	0xe
 1840 0600 3E       		.byte	0x3e
 1841 0601 67070000 		.4byte	0x767
 1842 0605 0C       		.byte	0xc
 1843 0606 00       		.byte	0
 1844 0607 0A       		.uleb128 0xa
 1845 0608 04       		.byte	0x4
 1846 0609 D6050000 		.4byte	0x5d6
 1847 060d 0A       		.uleb128 0xa
 1848 060e 04       		.byte	0x4
 1849 060f 1F060000 		.4byte	0x61f
 1850 0613 05       		.uleb128 0x5
 1851 0614 0D060000 		.4byte	0x60d
 1852 0618 03       		.uleb128 0x3
 1853 0619 01       		.byte	0x1
 1854 061a 08       		.byte	0x8
 1855 061b 66060000 		.4byte	.LASF104
 1856 061f 16       		.uleb128 0x16
 1857 0620 18060000 		.4byte	0x618
 1858 0624 0A       		.uleb128 0xa
 1859 0625 04       		.byte	0x4
 1860 0626 26030000 		.4byte	0x326
 1861 062a 17       		.uleb128 0x17
 1862 062b 83040000 		.4byte	0x483
 1863 062f 3A060000 		.4byte	0x63a
 1864 0633 18       		.uleb128 0x18
 1865 0634 5A040000 		.4byte	0x45a
 1866 0638 1A       		.byte	0x1a
 1867 0639 00       		.byte	0
 1868 063a 19       		.uleb128 0x19
 1869 063b 636800   		.ascii	"ch\000"
 1870 063e 02       		.byte	0x2
 1871 063f 0902     		.2byte	0x209
 1872 0641 F3030000 		.4byte	0x3f3
 1873 0645 13       		.uleb128 0x13
 1874 0646 16       		.byte	0x16
 1875 0647 0F       		.byte	0xf
 1876 0648 34       		.byte	0x34
 1877 0649 26070000 		.4byte	0x726
 1878 064d 07       		.uleb128 0x7
 1879 064e A5070000 		.4byte	.LASF105
 1880 0652 0F       		.byte	0xf
 1881 0653 35       		.byte	0x35
ARM GAS  /tmp/cc4SeFZS.s 			page 34


 1882 0654 26070000 		.4byte	0x726
 1883 0658 00       		.byte	0
 1884 0659 07       		.uleb128 0x7
 1885 065a 27030000 		.4byte	.LASF106
 1886 065e 0F       		.byte	0xf
 1887 065f 36       		.byte	0x36
 1888 0660 A5000000 		.4byte	0xa5
 1889 0664 04       		.byte	0x4
 1890 0665 07       		.uleb128 0x7
 1891 0666 4C060000 		.4byte	.LASF107
 1892 066a 0F       		.byte	0xf
 1893 066b 37       		.byte	0x37
 1894 066c A5000000 		.4byte	0xa5
 1895 0670 05       		.byte	0x5
 1896 0671 07       		.uleb128 0x7
 1897 0672 A4010000 		.4byte	.LASF108
 1898 0676 0F       		.byte	0xf
 1899 0677 38       		.byte	0x38
 1900 0678 B0000000 		.4byte	0xb0
 1901 067c 06       		.byte	0x6
 1902 067d 07       		.uleb128 0x7
 1903 067e FF040000 		.4byte	.LASF109
 1904 0682 0F       		.byte	0xf
 1905 0683 39       		.byte	0x39
 1906 0684 A5000000 		.4byte	0xa5
 1907 0688 08       		.byte	0x8
 1908 0689 07       		.uleb128 0x7
 1909 068a 5E040000 		.4byte	.LASF110
 1910 068e 0F       		.byte	0xf
 1911 068f 3A       		.byte	0x3a
 1912 0690 A5000000 		.4byte	0xa5
 1913 0694 09       		.byte	0x9
 1914 0695 07       		.uleb128 0x7
 1915 0696 B2000000 		.4byte	.LASF111
 1916 069a 0F       		.byte	0xf
 1917 069b 3B       		.byte	0x3b
 1918 069c A5000000 		.4byte	0xa5
 1919 06a0 0A       		.byte	0xa
 1920 06a1 07       		.uleb128 0x7
 1921 06a2 1C060000 		.4byte	.LASF112
 1922 06a6 0F       		.byte	0xf
 1923 06a7 3C       		.byte	0x3c
 1924 06a8 A5000000 		.4byte	0xa5
 1925 06ac 0B       		.byte	0xb
 1926 06ad 07       		.uleb128 0x7
 1927 06ae 18070000 		.4byte	.LASF113
 1928 06b2 0F       		.byte	0xf
 1929 06b3 3D       		.byte	0x3d
 1930 06b4 A5000000 		.4byte	0xa5
 1931 06b8 0C       		.byte	0xc
 1932 06b9 07       		.uleb128 0x7
 1933 06ba E0050000 		.4byte	.LASF114
 1934 06be 0F       		.byte	0xf
 1935 06bf 3E       		.byte	0x3e
 1936 06c0 A5000000 		.4byte	0xa5
 1937 06c4 0D       		.byte	0xd
 1938 06c5 07       		.uleb128 0x7
ARM GAS  /tmp/cc4SeFZS.s 			page 35


 1939 06c6 00000000 		.4byte	.LASF115
 1940 06ca 0F       		.byte	0xf
 1941 06cb 3F       		.byte	0x3f
 1942 06cc A5000000 		.4byte	0xa5
 1943 06d0 0E       		.byte	0xe
 1944 06d1 07       		.uleb128 0x7
 1945 06d2 6A040000 		.4byte	.LASF116
 1946 06d6 0F       		.byte	0xf
 1947 06d7 40       		.byte	0x40
 1948 06d8 A5000000 		.4byte	0xa5
 1949 06dc 0F       		.byte	0xf
 1950 06dd 07       		.uleb128 0x7
 1951 06de 41000000 		.4byte	.LASF117
 1952 06e2 0F       		.byte	0xf
 1953 06e3 41       		.byte	0x41
 1954 06e4 A5000000 		.4byte	0xa5
 1955 06e8 10       		.byte	0x10
 1956 06e9 07       		.uleb128 0x7
 1957 06ea 0A010000 		.4byte	.LASF118
 1958 06ee 0F       		.byte	0xf
 1959 06ef 43       		.byte	0x43
 1960 06f0 A5000000 		.4byte	0xa5
 1961 06f4 11       		.byte	0x11
 1962 06f5 07       		.uleb128 0x7
 1963 06f6 41010000 		.4byte	.LASF119
 1964 06fa 0F       		.byte	0xf
 1965 06fb 44       		.byte	0x44
 1966 06fc A5000000 		.4byte	0xa5
 1967 0700 12       		.byte	0x12
 1968 0701 07       		.uleb128 0x7
 1969 0702 2F030000 		.4byte	.LASF120
 1970 0706 0F       		.byte	0xf
 1971 0707 45       		.byte	0x45
 1972 0708 A5000000 		.4byte	0xa5
 1973 070c 13       		.byte	0x13
 1974 070d 07       		.uleb128 0x7
 1975 070e 88050000 		.4byte	.LASF121
 1976 0712 0F       		.byte	0xf
 1977 0713 46       		.byte	0x46
 1978 0714 A5000000 		.4byte	0xa5
 1979 0718 14       		.byte	0x14
 1980 0719 07       		.uleb128 0x7
 1981 071a D6020000 		.4byte	.LASF122
 1982 071e 0F       		.byte	0xf
 1983 071f 48       		.byte	0x48
 1984 0720 A5000000 		.4byte	0xa5
 1985 0724 15       		.byte	0x15
 1986 0725 00       		.byte	0
 1987 0726 17       		.uleb128 0x17
 1988 0727 18060000 		.4byte	0x618
 1989 072b 36070000 		.4byte	0x736
 1990 072f 18       		.uleb128 0x18
 1991 0730 5A040000 		.4byte	0x45a
 1992 0734 03       		.byte	0x3
 1993 0735 00       		.byte	0
 1994 0736 04       		.uleb128 0x4
 1995 0737 AF010000 		.4byte	.LASF123
ARM GAS  /tmp/cc4SeFZS.s 			page 36


 1996 073b 0F       		.byte	0xf
 1997 073c 49       		.byte	0x49
 1998 073d 45060000 		.4byte	0x645
 1999 0741 16       		.uleb128 0x16
 2000 0742 36070000 		.4byte	0x736
 2001 0746 11       		.uleb128 0x11
 2002 0747 8B020000 		.4byte	.LASF124
 2003 074b 0F       		.byte	0xf
 2004 074c 82       		.byte	0x82
 2005 074d 41070000 		.4byte	0x741
 2006 0751 04       		.uleb128 0x4
 2007 0752 B3050000 		.4byte	.LASF125
 2008 0756 0D       		.byte	0xd
 2009 0757 38       		.byte	0x38
 2010 0758 AB050000 		.4byte	0x5ab
 2011 075c 04       		.uleb128 0x4
 2012 075d F3010000 		.4byte	.LASF126
 2013 0761 0E       		.byte	0xe
 2014 0762 34       		.byte	0x34
 2015 0763 D6050000 		.4byte	0x5d6
 2016 0767 0A       		.uleb128 0xa
 2017 0768 04       		.byte	0x4
 2018 0769 5C070000 		.4byte	0x75c
 2019 076d 1A       		.uleb128 0x1a
 2020 076e 31010000 		.4byte	.LASF132
 2021 0772 01       		.byte	0x1
 2022 0773 7A01     		.2byte	0x17a
 2023 0775 18010000 		.4byte	0x118
 2024 0779 00000000 		.4byte	.LFB237
 2025 077d 6C000000 		.4byte	.LFE237-.LFB237
 2026 0781 01       		.uleb128 0x1
 2027 0782 9C       		.byte	0x9c
 2028 0783 DF080000 		.4byte	0x8df
 2029 0787 1B       		.uleb128 0x1b
 2030 0788 73707300 		.ascii	"sps\000"
 2031 078c 01       		.byte	0x1
 2032 078d 7A01     		.2byte	0x17a
 2033 078f DF080000 		.4byte	0x8df
 2034 0793 00000000 		.4byte	.LLST47
 2035 0797 1B       		.uleb128 0x1b
 2036 0798 73707700 		.ascii	"spw\000"
 2037 079c 01       		.byte	0x1
 2038 079d 7A01     		.2byte	0x17a
 2039 079f DF080000 		.4byte	0x8df
 2040 07a3 45000000 		.4byte	.LLST48
 2041 07a7 1C       		.uleb128 0x1c
 2042 07a8 6D736700 		.ascii	"msg\000"
 2043 07ac 01       		.byte	0x1
 2044 07ad 7B01     		.2byte	0x17b
 2045 07af 18010000 		.4byte	0x118
 2046 07b3 7D000000 		.4byte	.LLST49
 2047 07b7 1D       		.uleb128 0x1d
 2048 07b8 9F050000 		.4byte	.LASF127
 2049 07bc F5080000 		.4byte	0x8f5
 2050 07c0 1E       		.uleb128 0x1e
 2051 07c1 2E000000 		.4byte	.LBB249
 2052 07c5 18000000 		.4byte	.LBE249-.LBB249
ARM GAS  /tmp/cc4SeFZS.s 			page 37


 2053 07c9 14080000 		.4byte	0x814
 2054 07cd 1C       		.uleb128 0x1c
 2055 07ce 63747000 		.ascii	"ctp\000"
 2056 07d2 01       		.byte	0x1
 2057 07d3 8A01     		.2byte	0x18a
 2058 07d5 47020000 		.4byte	0x247
 2059 07d9 A7000000 		.4byte	.LLST52
 2060 07dd 1F       		.uleb128 0x1f
 2061 07de 64100000 		.4byte	0x1064
 2062 07e2 30000000 		.4byte	.LBB250
 2063 07e6 58010000 		.4byte	.Ldebug_ranges0+0x158
 2064 07ea 01       		.byte	0x1
 2065 07eb 8B01     		.2byte	0x18b
 2066 07ed 04080000 		.4byte	0x804
 2067 07f1 20       		.uleb128 0x20
 2068 07f2 7C100000 		.4byte	0x107c
 2069 07f6 BA000000 		.4byte	.LLST53
 2070 07fa 20       		.uleb128 0x20
 2071 07fb 71100000 		.4byte	0x1071
 2072 07ff CD000000 		.4byte	.LLST54
 2073 0803 00       		.byte	0
 2074 0804 21       		.uleb128 0x21
 2075 0805 44000000 		.4byte	.LVL90
 2076 0809 C8110000 		.4byte	0x11c8
 2077 080d 22       		.uleb128 0x22
 2078 080e 01       		.uleb128 0x1
 2079 080f 50       		.byte	0x50
 2080 0810 01       		.uleb128 0x1
 2081 0811 35       		.byte	0x35
 2082 0812 00       		.byte	0
 2083 0813 00       		.byte	0
 2084 0814 1F       		.uleb128 0x1f
 2085 0815 03100000 		.4byte	0x1003
 2086 0819 02000000 		.4byte	.LBB232
 2087 081d 28010000 		.4byte	.Ldebug_ranges0+0x128
 2088 0821 01       		.byte	0x1
 2089 0822 8501     		.2byte	0x185
 2090 0824 54080000 		.4byte	0x854
 2091 0828 23       		.uleb128 0x23
 2092 0829 AC100000 		.4byte	0x10ac
 2093 082d 02000000 		.4byte	.LBB233
 2094 0831 28010000 		.4byte	.Ldebug_ranges0+0x128
 2095 0835 10       		.byte	0x10
 2096 0836 5C01     		.2byte	0x15c
 2097 0838 23       		.uleb128 0x23
 2098 0839 B5100000 		.4byte	0x10b5
 2099 083d 02000000 		.4byte	.LBB234
 2100 0841 28010000 		.4byte	.Ldebug_ranges0+0x128
 2101 0845 0B       		.byte	0xb
 2102 0846 BF01     		.2byte	0x1bf
 2103 0848 20       		.uleb128 0x20
 2104 0849 C2100000 		.4byte	0x10c2
 2105 084d E0000000 		.4byte	.LLST50
 2106 0851 00       		.byte	0
 2107 0852 00       		.byte	0
 2108 0853 00       		.byte	0
 2109 0854 1F       		.uleb128 0x1f
ARM GAS  /tmp/cc4SeFZS.s 			page 38


 2110 0855 E80F0000 		.4byte	0xfe8
 2111 0859 24000000 		.4byte	.LBB240
 2112 085d 40010000 		.4byte	.Ldebug_ranges0+0x140
 2113 0861 01       		.byte	0x1
 2114 0862 9401     		.2byte	0x194
 2115 0864 9F080000 		.4byte	0x89f
 2116 0868 24       		.uleb128 0x24
 2117 0869 40010000 		.4byte	.Ldebug_ranges0+0x140
 2118 086d 25       		.uleb128 0x25
 2119 086e F50F0000 		.4byte	0xff5
 2120 0872 23       		.uleb128 0x23
 2121 0873 A3100000 		.4byte	0x10a3
 2122 0877 24000000 		.4byte	.LBB242
 2123 087b 40010000 		.4byte	.Ldebug_ranges0+0x140
 2124 087f 10       		.byte	0x10
 2125 0880 7301     		.2byte	0x173
 2126 0882 23       		.uleb128 0x23
 2127 0883 B5100000 		.4byte	0x10b5
 2128 0887 24000000 		.4byte	.LBB243
 2129 088b 40010000 		.4byte	.Ldebug_ranges0+0x140
 2130 088f 0B       		.byte	0xb
 2131 0890 CD01     		.2byte	0x1cd
 2132 0892 20       		.uleb128 0x20
 2133 0893 C2100000 		.4byte	0x10c2
 2134 0897 F5000000 		.4byte	.LLST51
 2135 089b 00       		.byte	0
 2136 089c 00       		.byte	0
 2137 089d 00       		.byte	0
 2138 089e 00       		.byte	0
 2139 089f 26       		.uleb128 0x26
 2140 08a0 3B100000 		.4byte	0x103b
 2141 08a4 52000000 		.4byte	.LBB255
 2142 08a8 0A000000 		.4byte	.LBE255-.LBB255
 2143 08ac 01       		.byte	0x1
 2144 08ad 8701     		.2byte	0x187
 2145 08af CC080000 		.4byte	0x8cc
 2146 08b3 27       		.uleb128 0x27
 2147 08b4 4C100000 		.4byte	0x104c
 2148 08b8 28       		.uleb128 0x28
 2149 08b9 52000000 		.4byte	.LBB256
 2150 08bd 0A000000 		.4byte	.LBE256-.LBB256
 2151 08c1 29       		.uleb128 0x29
 2152 08c2 58100000 		.4byte	0x1058
 2153 08c6 15010000 		.4byte	.LLST55
 2154 08ca 00       		.byte	0
 2155 08cb 00       		.byte	0
 2156 08cc 2A       		.uleb128 0x2a
 2157 08cd 22000000 		.4byte	.LVL84
 2158 08d1 D4110000 		.4byte	0x11d4
 2159 08d5 2A       		.uleb128 0x2a
 2160 08d6 60000000 		.4byte	.LVL97
 2161 08da E0110000 		.4byte	0x11e0
 2162 08de 00       		.byte	0
 2163 08df 0A       		.uleb128 0xa
 2164 08e0 04       		.byte	0x4
 2165 08e1 51070000 		.4byte	0x751
 2166 08e5 17       		.uleb128 0x17
ARM GAS  /tmp/cc4SeFZS.s 			page 39


 2167 08e6 1F060000 		.4byte	0x61f
 2168 08ea F5080000 		.4byte	0x8f5
 2169 08ee 18       		.uleb128 0x18
 2170 08ef 5A040000 		.4byte	0x45a
 2171 08f3 0F       		.byte	0xf
 2172 08f4 00       		.byte	0
 2173 08f5 16       		.uleb128 0x16
 2174 08f6 E5080000 		.4byte	0x8e5
 2175 08fa 2B       		.uleb128 0x2b
 2176 08fb D4000000 		.4byte	.LASF128
 2177 08ff 01       		.byte	0x1
 2178 0900 5D01     		.2byte	0x15d
 2179 0902 00000000 		.4byte	.LFB236
 2180 0906 2E000000 		.4byte	.LFE236-.LFB236
 2181 090a 01       		.uleb128 0x1
 2182 090b 9C       		.byte	0x9c
 2183 090c 71090000 		.4byte	0x971
 2184 0910 1B       		.uleb128 0x1b
 2185 0911 737000   		.ascii	"sp\000"
 2186 0914 01       		.byte	0x1
 2187 0915 5D01     		.2byte	0x15d
 2188 0917 DF080000 		.4byte	0x8df
 2189 091b 28010000 		.4byte	.LLST43
 2190 091f 1B       		.uleb128 0x1b
 2191 0920 6E00     		.ascii	"n\000"
 2192 0922 01       		.byte	0x1
 2193 0923 5D01     		.2byte	0x15d
 2194 0925 2E010000 		.4byte	0x12e
 2195 0929 54010000 		.4byte	.LLST44
 2196 092d 1D       		.uleb128 0x1d
 2197 092e 9F050000 		.4byte	.LASF127
 2198 0932 81090000 		.4byte	0x981
 2199 0936 26       		.uleb128 0x26
 2200 0937 3B100000 		.4byte	0x103b
 2201 093b 1A000000 		.4byte	.LBB230
 2202 093f 08000000 		.4byte	.LBE230-.LBB230
 2203 0943 01       		.byte	0x1
 2204 0944 6701     		.2byte	0x167
 2205 0946 67090000 		.4byte	0x967
 2206 094a 20       		.uleb128 0x20
 2207 094b 4C100000 		.4byte	0x104c
 2208 094f 8C010000 		.4byte	.LLST45
 2209 0953 28       		.uleb128 0x28
 2210 0954 1A000000 		.4byte	.LBB231
 2211 0958 08000000 		.4byte	.LBE231-.LBB231
 2212 095c 29       		.uleb128 0x29
 2213 095d 58100000 		.4byte	0x1058
 2214 0961 9F010000 		.4byte	.LLST46
 2215 0965 00       		.byte	0
 2216 0966 00       		.byte	0
 2217 0967 2A       		.uleb128 0x2a
 2218 0968 26000000 		.4byte	.LVL77
 2219 096c E0110000 		.4byte	0x11e0
 2220 0970 00       		.byte	0
 2221 0971 17       		.uleb128 0x17
 2222 0972 1F060000 		.4byte	0x61f
 2223 0976 81090000 		.4byte	0x981
ARM GAS  /tmp/cc4SeFZS.s 			page 40


 2224 097a 18       		.uleb128 0x18
 2225 097b 5A040000 		.4byte	0x45a
 2226 097f 10       		.byte	0x10
 2227 0980 00       		.byte	0
 2228 0981 16       		.uleb128 0x16
 2229 0982 71090000 		.4byte	0x971
 2230 0986 2B       		.uleb128 0x2b
 2231 0987 27000000 		.4byte	.LASF129
 2232 098b 01       		.byte	0x1
 2233 098c 3F01     		.2byte	0x13f
 2234 098e 00000000 		.4byte	.LFB235
 2235 0992 1E000000 		.4byte	.LFE235-.LFB235
 2236 0996 01       		.uleb128 0x1
 2237 0997 9C       		.byte	0x9c
 2238 0998 000A0000 		.4byte	0xa00
 2239 099c 1B       		.uleb128 0x1b
 2240 099d 737000   		.ascii	"sp\000"
 2241 09a0 01       		.byte	0x1
 2242 09a1 3F01     		.2byte	0x13f
 2243 09a3 DF080000 		.4byte	0x8df
 2244 09a7 B2010000 		.4byte	.LLST40
 2245 09ab 1D       		.uleb128 0x1d
 2246 09ac 9F050000 		.4byte	.LASF127
 2247 09b0 100A0000 		.4byte	0xa10
 2248 09b4 28       		.uleb128 0x28
 2249 09b5 0C000000 		.4byte	.LBB225
 2250 09b9 12000000 		.4byte	.LBE225-.LBB225
 2251 09bd 2C       		.uleb128 0x2c
 2252 09be 747000   		.ascii	"tp\000"
 2253 09c1 01       		.byte	0x1
 2254 09c2 4A01     		.2byte	0x14a
 2255 09c4 47020000 		.4byte	0x247
 2256 09c8 1F       		.uleb128 0x1f
 2257 09c9 3B100000 		.4byte	0x103b
 2258 09cd 0C000000 		.4byte	.LBB226
 2259 09d1 10010000 		.4byte	.Ldebug_ranges0+0x110
 2260 09d5 01       		.byte	0x1
 2261 09d6 4A01     		.2byte	0x14a
 2262 09d8 F5090000 		.4byte	0x9f5
 2263 09dc 20       		.uleb128 0x20
 2264 09dd 4C100000 		.4byte	0x104c
 2265 09e1 DF010000 		.4byte	.LLST41
 2266 09e5 24       		.uleb128 0x24
 2267 09e6 10010000 		.4byte	.Ldebug_ranges0+0x110
 2268 09ea 29       		.uleb128 0x29
 2269 09eb 58100000 		.4byte	0x1058
 2270 09ef F2010000 		.4byte	.LLST42
 2271 09f3 00       		.byte	0
 2272 09f4 00       		.byte	0
 2273 09f5 2D       		.uleb128 0x2d
 2274 09f6 1E000000 		.4byte	.LVL69
 2275 09fa E0110000 		.4byte	0x11e0
 2276 09fe 00       		.byte	0
 2277 09ff 00       		.byte	0
 2278 0a00 17       		.uleb128 0x17
 2279 0a01 1F060000 		.4byte	0x61f
 2280 0a05 100A0000 		.4byte	0xa10
ARM GAS  /tmp/cc4SeFZS.s 			page 41


 2281 0a09 18       		.uleb128 0x18
 2282 0a0a 5A040000 		.4byte	0x45a
 2283 0a0e 0C       		.byte	0xc
 2284 0a0f 00       		.byte	0
 2285 0a10 16       		.uleb128 0x16
 2286 0a11 000A0000 		.4byte	0xa00
 2287 0a15 2B       		.uleb128 0x2b
 2288 0a16 A6000000 		.4byte	.LASF130
 2289 0a1a 01       		.byte	0x1
 2290 0a1b 2601     		.2byte	0x126
 2291 0a1d 00000000 		.4byte	.LFB234
 2292 0a21 32000000 		.4byte	.LFE234-.LFB234
 2293 0a25 01       		.uleb128 0x1
 2294 0a26 9C       		.byte	0x9c
 2295 0a27 0B0B0000 		.4byte	0xb0b
 2296 0a2b 1B       		.uleb128 0x1b
 2297 0a2c 737000   		.ascii	"sp\000"
 2298 0a2f 01       		.byte	0x1
 2299 0a30 2601     		.2byte	0x126
 2300 0a32 DF080000 		.4byte	0x8df
 2301 0a36 05020000 		.4byte	.LLST35
 2302 0a3a 1D       		.uleb128 0x1d
 2303 0a3b 9F050000 		.4byte	.LASF127
 2304 0a3f 1B0B0000 		.4byte	0xb1b
 2305 0a43 26       		.uleb128 0x26
 2306 0a44 03100000 		.4byte	0x1003
 2307 0a48 02000000 		.4byte	.LBB207
 2308 0a4c 06000000 		.4byte	.LBE207-.LBB207
 2309 0a50 01       		.byte	0x1
 2310 0a51 2D01     		.2byte	0x12d
 2311 0a53 830A0000 		.4byte	0xa83
 2312 0a57 2E       		.uleb128 0x2e
 2313 0a58 AC100000 		.4byte	0x10ac
 2314 0a5c 02000000 		.4byte	.LBB208
 2315 0a60 06000000 		.4byte	.LBE208-.LBB208
 2316 0a64 10       		.byte	0x10
 2317 0a65 5C01     		.2byte	0x15c
 2318 0a67 2E       		.uleb128 0x2e
 2319 0a68 B5100000 		.4byte	0x10b5
 2320 0a6c 02000000 		.4byte	.LBB209
 2321 0a70 06000000 		.4byte	.LBE209-.LBB209
 2322 0a74 0B       		.byte	0xb
 2323 0a75 BF01     		.2byte	0x1bf
 2324 0a77 20       		.uleb128 0x20
 2325 0a78 C2100000 		.4byte	0x10c2
 2326 0a7c 31020000 		.4byte	.LLST36
 2327 0a80 00       		.byte	0
 2328 0a81 00       		.byte	0
 2329 0a82 00       		.byte	0
 2330 0a83 1F       		.uleb128 0x1f
 2331 0a84 E80F0000 		.4byte	0xfe8
 2332 0a88 12000000 		.4byte	.LBB211
 2333 0a8c E0000000 		.4byte	.Ldebug_ranges0+0xe0
 2334 0a90 01       		.byte	0x1
 2335 0a91 3101     		.2byte	0x131
 2336 0a93 CE0A0000 		.4byte	0xace
 2337 0a97 24       		.uleb128 0x24
ARM GAS  /tmp/cc4SeFZS.s 			page 42


 2338 0a98 E0000000 		.4byte	.Ldebug_ranges0+0xe0
 2339 0a9c 25       		.uleb128 0x25
 2340 0a9d F50F0000 		.4byte	0xff5
 2341 0aa1 23       		.uleb128 0x23
 2342 0aa2 A3100000 		.4byte	0x10a3
 2343 0aa6 12000000 		.4byte	.LBB213
 2344 0aaa E0000000 		.4byte	.Ldebug_ranges0+0xe0
 2345 0aae 10       		.byte	0x10
 2346 0aaf 7301     		.2byte	0x173
 2347 0ab1 23       		.uleb128 0x23
 2348 0ab2 B5100000 		.4byte	0x10b5
 2349 0ab6 12000000 		.4byte	.LBB214
 2350 0aba E0000000 		.4byte	.Ldebug_ranges0+0xe0
 2351 0abe 0B       		.byte	0xb
 2352 0abf CD01     		.2byte	0x1cd
 2353 0ac1 20       		.uleb128 0x20
 2354 0ac2 C2100000 		.4byte	0x10c2
 2355 0ac6 46020000 		.4byte	.LLST37
 2356 0aca 00       		.byte	0
 2357 0acb 00       		.byte	0
 2358 0acc 00       		.byte	0
 2359 0acd 00       		.byte	0
 2360 0ace 1F       		.uleb128 0x1f
 2361 0acf 3B100000 		.4byte	0x103b
 2362 0ad3 1C000000 		.4byte	.LBB220
 2363 0ad7 F8000000 		.4byte	.Ldebug_ranges0+0xf8
 2364 0adb 01       		.byte	0x1
 2365 0adc 2F01     		.2byte	0x12f
 2366 0ade FB0A0000 		.4byte	0xafb
 2367 0ae2 20       		.uleb128 0x20
 2368 0ae3 4C100000 		.4byte	0x104c
 2369 0ae7 66020000 		.4byte	.LLST38
 2370 0aeb 24       		.uleb128 0x24
 2371 0aec F8000000 		.4byte	.Ldebug_ranges0+0xf8
 2372 0af0 29       		.uleb128 0x29
 2373 0af1 58100000 		.4byte	0x1058
 2374 0af5 79020000 		.4byte	.LLST39
 2375 0af9 00       		.byte	0
 2376 0afa 00       		.byte	0
 2377 0afb 21       		.uleb128 0x21
 2378 0afc 2A000000 		.4byte	.LVL61
 2379 0b00 EC110000 		.4byte	0x11ec
 2380 0b04 22       		.uleb128 0x22
 2381 0b05 01       		.uleb128 0x1
 2382 0b06 51       		.byte	0x51
 2383 0b07 01       		.uleb128 0x1
 2384 0b08 30       		.byte	0x30
 2385 0b09 00       		.byte	0
 2386 0b0a 00       		.byte	0
 2387 0b0b 17       		.uleb128 0x17
 2388 0b0c 1F060000 		.4byte	0x61f
 2389 0b10 1B0B0000 		.4byte	0xb1b
 2390 0b14 18       		.uleb128 0x18
 2391 0b15 5A040000 		.4byte	0x45a
 2392 0b19 0B       		.byte	0xb
 2393 0b1a 00       		.byte	0
 2394 0b1b 16       		.uleb128 0x16
ARM GAS  /tmp/cc4SeFZS.s 			page 43


 2395 0b1c 0B0B0000 		.4byte	0xb0b
 2396 0b20 2F       		.uleb128 0x2f
 2397 0b21 72060000 		.4byte	.LASF134
 2398 0b25 01       		.byte	0x1
 2399 0b26 0801     		.2byte	0x108
 2400 0b28 18010000 		.4byte	0x118
 2401 0b2c 01       		.byte	0x1
 2402 0b2d 560B0000 		.4byte	0xb56
 2403 0b31 30       		.uleb128 0x30
 2404 0b32 737000   		.ascii	"sp\000"
 2405 0b35 01       		.byte	0x1
 2406 0b36 0801     		.2byte	0x108
 2407 0b38 DF080000 		.4byte	0x8df
 2408 0b3c 31       		.uleb128 0x31
 2409 0b3d 0C070000 		.4byte	.LASF131
 2410 0b41 01       		.byte	0x1
 2411 0b42 0801     		.2byte	0x108
 2412 0b44 39010000 		.4byte	0x139
 2413 0b48 32       		.uleb128 0x32
 2414 0b49 9F050000 		.4byte	.LASF127
 2415 0b4d 660B0000 		.4byte	0xb66
 2416 0b51 72060000 		.4byte	.LASF134
 2417 0b55 00       		.byte	0
 2418 0b56 17       		.uleb128 0x17
 2419 0b57 1F060000 		.4byte	0x61f
 2420 0b5b 660B0000 		.4byte	0xb66
 2421 0b5f 18       		.uleb128 0x18
 2422 0b60 5A040000 		.4byte	0x45a
 2423 0b64 11       		.byte	0x11
 2424 0b65 00       		.byte	0
 2425 0b66 16       		.uleb128 0x16
 2426 0b67 560B0000 		.4byte	0xb56
 2427 0b6b 33       		.uleb128 0x33
 2428 0b6c 33020000 		.4byte	.LASF133
 2429 0b70 01       		.byte	0x1
 2430 0b71 EB       		.byte	0xeb
 2431 0b72 18010000 		.4byte	0x118
 2432 0b76 00000000 		.4byte	.LFB232
 2433 0b7a 4C000000 		.4byte	.LFE232-.LFB232
 2434 0b7e 01       		.uleb128 0x1
 2435 0b7f 9C       		.byte	0x9c
 2436 0b80 C00C0000 		.4byte	0xcc0
 2437 0b84 34       		.uleb128 0x34
 2438 0b85 737000   		.ascii	"sp\000"
 2439 0b88 01       		.byte	0x1
 2440 0b89 EB       		.byte	0xeb
 2441 0b8a DF080000 		.4byte	0x8df
 2442 0b8e 8C020000 		.4byte	.LLST21
 2443 0b92 35       		.uleb128 0x35
 2444 0b93 0C070000 		.4byte	.LASF131
 2445 0b97 01       		.byte	0x1
 2446 0b98 EB       		.byte	0xeb
 2447 0b99 39010000 		.4byte	0x139
 2448 0b9d EA020000 		.4byte	.LLST22
 2449 0ba1 36       		.uleb128 0x36
 2450 0ba2 6D736700 		.ascii	"msg\000"
 2451 0ba6 01       		.byte	0x1
ARM GAS  /tmp/cc4SeFZS.s 			page 44


 2452 0ba7 EC       		.byte	0xec
 2453 0ba8 18010000 		.4byte	0x118
 2454 0bac 37       		.uleb128 0x37
 2455 0bad 03100000 		.4byte	0x1003
 2456 0bb1 00000000 		.4byte	.LBB169
 2457 0bb5 06000000 		.4byte	.LBE169-.LBB169
 2458 0bb9 01       		.byte	0x1
 2459 0bba EE       		.byte	0xee
 2460 0bbb EB0B0000 		.4byte	0xbeb
 2461 0bbf 2E       		.uleb128 0x2e
 2462 0bc0 AC100000 		.4byte	0x10ac
 2463 0bc4 00000000 		.4byte	.LBB170
 2464 0bc8 06000000 		.4byte	.LBE170-.LBB170
 2465 0bcc 10       		.byte	0x10
 2466 0bcd 5C01     		.2byte	0x15c
 2467 0bcf 2E       		.uleb128 0x2e
 2468 0bd0 B5100000 		.4byte	0x10b5
 2469 0bd4 00000000 		.4byte	.LBB171
 2470 0bd8 06000000 		.4byte	.LBE171-.LBB171
 2471 0bdc 0B       		.byte	0xb
 2472 0bdd BF01     		.2byte	0x1bf
 2473 0bdf 20       		.uleb128 0x20
 2474 0be0 C2100000 		.4byte	0x10c2
 2475 0be4 16030000 		.4byte	.LLST23
 2476 0be8 00       		.byte	0
 2477 0be9 00       		.byte	0
 2478 0bea 00       		.byte	0
 2479 0beb 38       		.uleb128 0x38
 2480 0bec 200B0000 		.4byte	0xb20
 2481 0bf0 06000000 		.4byte	.LBB173
 2482 0bf4 60000000 		.4byte	.Ldebug_ranges0+0x60
 2483 0bf8 01       		.byte	0x1
 2484 0bf9 EF       		.byte	0xef
 2485 0bfa 790C0000 		.4byte	0xc79
 2486 0bfe 20       		.uleb128 0x20
 2487 0bff 3C0B0000 		.4byte	0xb3c
 2488 0c03 2B030000 		.4byte	.LLST24
 2489 0c07 20       		.uleb128 0x20
 2490 0c08 310B0000 		.4byte	0xb31
 2491 0c0c 62030000 		.4byte	.LLST25
 2492 0c10 24       		.uleb128 0x24
 2493 0c11 60000000 		.4byte	.Ldebug_ranges0+0x60
 2494 0c15 25       		.uleb128 0x25
 2495 0c16 480B0000 		.4byte	0xb48
 2496 0c1a 28       		.uleb128 0x28
 2497 0c1b 1E000000 		.4byte	.LBB175
 2498 0c1f 18000000 		.4byte	.LBE175-.LBB175
 2499 0c23 27       		.uleb128 0x27
 2500 0c24 3C0B0000 		.4byte	0xb3c
 2501 0c28 20       		.uleb128 0x20
 2502 0c29 310B0000 		.4byte	0xb31
 2503 0c2d B2030000 		.4byte	.LLST26
 2504 0c31 28       		.uleb128 0x28
 2505 0c32 1E000000 		.4byte	.LBB176
 2506 0c36 18000000 		.4byte	.LBE176-.LBB176
 2507 0c3a 25       		.uleb128 0x25
 2508 0c3b 480B0000 		.4byte	0xb48
ARM GAS  /tmp/cc4SeFZS.s 			page 45


 2509 0c3f 1F       		.uleb128 0x1f
 2510 0c40 64100000 		.4byte	0x1064
 2511 0c44 24000000 		.4byte	.LBB177
 2512 0c48 80000000 		.4byte	.Ldebug_ranges0+0x80
 2513 0c4c 01       		.byte	0x1
 2514 0c4d 1701     		.2byte	0x117
 2515 0c4f 660C0000 		.4byte	0xc66
 2516 0c53 20       		.uleb128 0x20
 2517 0c54 7C100000 		.4byte	0x107c
 2518 0c58 D3030000 		.4byte	.LLST27
 2519 0c5c 20       		.uleb128 0x20
 2520 0c5d 71100000 		.4byte	0x1071
 2521 0c61 E6030000 		.4byte	.LLST28
 2522 0c65 00       		.byte	0
 2523 0c66 21       		.uleb128 0x21
 2524 0c67 36000000 		.4byte	.LVL44
 2525 0c6b F8110000 		.4byte	0x11f8
 2526 0c6f 22       		.uleb128 0x22
 2527 0c70 01       		.uleb128 0x1
 2528 0c71 50       		.byte	0x50
 2529 0c72 01       		.uleb128 0x1
 2530 0c73 35       		.byte	0x35
 2531 0c74 00       		.byte	0
 2532 0c75 00       		.byte	0
 2533 0c76 00       		.byte	0
 2534 0c77 00       		.byte	0
 2535 0c78 00       		.byte	0
 2536 0c79 39       		.uleb128 0x39
 2537 0c7a E80F0000 		.4byte	0xfe8
 2538 0c7e 12000000 		.4byte	.LBB183
 2539 0c82 98000000 		.4byte	.Ldebug_ranges0+0x98
 2540 0c86 01       		.byte	0x1
 2541 0c87 F0       		.byte	0xf0
 2542 0c88 24       		.uleb128 0x24
 2543 0c89 98000000 		.4byte	.Ldebug_ranges0+0x98
 2544 0c8d 25       		.uleb128 0x25
 2545 0c8e F50F0000 		.4byte	0xff5
 2546 0c92 23       		.uleb128 0x23
 2547 0c93 A3100000 		.4byte	0x10a3
 2548 0c97 12000000 		.4byte	.LBB185
 2549 0c9b 98000000 		.4byte	.Ldebug_ranges0+0x98
 2550 0c9f 10       		.byte	0x10
 2551 0ca0 7301     		.2byte	0x173
 2552 0ca2 23       		.uleb128 0x23
 2553 0ca3 B5100000 		.4byte	0x10b5
 2554 0ca7 12000000 		.4byte	.LBB186
 2555 0cab 98000000 		.4byte	.Ldebug_ranges0+0x98
 2556 0caf 0B       		.byte	0xb
 2557 0cb0 CD01     		.2byte	0x1cd
 2558 0cb2 20       		.uleb128 0x20
 2559 0cb3 C2100000 		.4byte	0x10c2
 2560 0cb7 F9030000 		.4byte	.LLST29
 2561 0cbb 00       		.byte	0
 2562 0cbc 00       		.byte	0
 2563 0cbd 00       		.byte	0
 2564 0cbe 00       		.byte	0
 2565 0cbf 00       		.byte	0
ARM GAS  /tmp/cc4SeFZS.s 			page 46


 2566 0cc0 3A       		.uleb128 0x3a
 2567 0cc1 A8050000 		.4byte	.LASF135
 2568 0cc5 01       		.byte	0x1
 2569 0cc6 C5       		.byte	0xc5
 2570 0cc7 18010000 		.4byte	0x118
 2571 0ccb 01       		.byte	0x1
 2572 0ccc E80C0000 		.4byte	0xce8
 2573 0cd0 3B       		.uleb128 0x3b
 2574 0cd1 737000   		.ascii	"sp\000"
 2575 0cd4 01       		.byte	0x1
 2576 0cd5 C5       		.byte	0xc5
 2577 0cd6 DF080000 		.4byte	0x8df
 2578 0cda 32       		.uleb128 0x32
 2579 0cdb 9F050000 		.4byte	.LASF127
 2580 0cdf F80C0000 		.4byte	0xcf8
 2581 0ce3 A8050000 		.4byte	.LASF135
 2582 0ce7 00       		.byte	0
 2583 0ce8 17       		.uleb128 0x17
 2584 0ce9 1F060000 		.4byte	0x61f
 2585 0ced F80C0000 		.4byte	0xcf8
 2586 0cf1 18       		.uleb128 0x18
 2587 0cf2 5A040000 		.4byte	0x45a
 2588 0cf6 0A       		.byte	0xa
 2589 0cf7 00       		.byte	0
 2590 0cf8 16       		.uleb128 0x16
 2591 0cf9 E80C0000 		.4byte	0xce8
 2592 0cfd 33       		.uleb128 0x33
 2593 0cfe E1060000 		.4byte	.LASF136
 2594 0d02 01       		.byte	0x1
 2595 0d03 AF       		.byte	0xaf
 2596 0d04 18010000 		.4byte	0x118
 2597 0d08 00000000 		.4byte	.LFB230
 2598 0d0c 44000000 		.4byte	.LFE230-.LFB230
 2599 0d10 01       		.uleb128 0x1
 2600 0d11 9C       		.byte	0x9c
 2601 0d12 340E0000 		.4byte	0xe34
 2602 0d16 34       		.uleb128 0x34
 2603 0d17 737000   		.ascii	"sp\000"
 2604 0d1a 01       		.byte	0x1
 2605 0d1b AF       		.byte	0xaf
 2606 0d1c DF080000 		.4byte	0x8df
 2607 0d20 19040000 		.4byte	.LLST10
 2608 0d24 36       		.uleb128 0x36
 2609 0d25 6D736700 		.ascii	"msg\000"
 2610 0d29 01       		.byte	0x1
 2611 0d2a B0       		.byte	0xb0
 2612 0d2b 18010000 		.4byte	0x118
 2613 0d2f 37       		.uleb128 0x37
 2614 0d30 03100000 		.4byte	0x1003
 2615 0d34 00000000 		.4byte	.LBB120
 2616 0d38 06000000 		.4byte	.LBE120-.LBB120
 2617 0d3c 01       		.byte	0x1
 2618 0d3d B2       		.byte	0xb2
 2619 0d3e 6E0D0000 		.4byte	0xd6e
 2620 0d42 2E       		.uleb128 0x2e
 2621 0d43 AC100000 		.4byte	0x10ac
 2622 0d47 00000000 		.4byte	.LBB121
ARM GAS  /tmp/cc4SeFZS.s 			page 47


 2623 0d4b 06000000 		.4byte	.LBE121-.LBB121
 2624 0d4f 10       		.byte	0x10
 2625 0d50 5C01     		.2byte	0x15c
 2626 0d52 2E       		.uleb128 0x2e
 2627 0d53 B5100000 		.4byte	0x10b5
 2628 0d57 00000000 		.4byte	.LBB122
 2629 0d5b 06000000 		.4byte	.LBE122-.LBB122
 2630 0d5f 0B       		.byte	0xb
 2631 0d60 BF01     		.2byte	0x1bf
 2632 0d62 20       		.uleb128 0x20
 2633 0d63 C2100000 		.4byte	0x10c2
 2634 0d67 5E040000 		.4byte	.LLST11
 2635 0d6b 00       		.byte	0
 2636 0d6c 00       		.byte	0
 2637 0d6d 00       		.byte	0
 2638 0d6e 38       		.uleb128 0x38
 2639 0d6f C00C0000 		.4byte	0xcc0
 2640 0d73 06000000 		.4byte	.LBB124
 2641 0d77 00000000 		.4byte	.Ldebug_ranges0+0
 2642 0d7b 01       		.byte	0x1
 2643 0d7c B3       		.byte	0xb3
 2644 0d7d ED0D0000 		.4byte	0xded
 2645 0d81 20       		.uleb128 0x20
 2646 0d82 D00C0000 		.4byte	0xcd0
 2647 0d86 73040000 		.4byte	.LLST12
 2648 0d8a 24       		.uleb128 0x24
 2649 0d8b 00000000 		.4byte	.Ldebug_ranges0+0
 2650 0d8f 25       		.uleb128 0x25
 2651 0d90 DA0C0000 		.4byte	0xcda
 2652 0d94 28       		.uleb128 0x28
 2653 0d95 1C000000 		.4byte	.LBB126
 2654 0d99 1C000000 		.4byte	.LBE126-.LBB126
 2655 0d9d 20       		.uleb128 0x20
 2656 0d9e D00C0000 		.4byte	0xcd0
 2657 0da2 AA040000 		.4byte	.LLST13
 2658 0da6 28       		.uleb128 0x28
 2659 0da7 1C000000 		.4byte	.LBB127
 2660 0dab 1C000000 		.4byte	.LBE127-.LBB127
 2661 0daf 25       		.uleb128 0x25
 2662 0db0 DA0C0000 		.4byte	0xcda
 2663 0db4 38       		.uleb128 0x38
 2664 0db5 64100000 		.4byte	0x1064
 2665 0db9 22000000 		.4byte	.LBB128
 2666 0dbd 18000000 		.4byte	.Ldebug_ranges0+0x18
 2667 0dc1 01       		.byte	0x1
 2668 0dc2 CF       		.byte	0xcf
 2669 0dc3 DA0D0000 		.4byte	0xdda
 2670 0dc7 20       		.uleb128 0x20
 2671 0dc8 7C100000 		.4byte	0x107c
 2672 0dcc CB040000 		.4byte	.LLST14
 2673 0dd0 20       		.uleb128 0x20
 2674 0dd1 71100000 		.4byte	0x1071
 2675 0dd5 DE040000 		.4byte	.LLST15
 2676 0dd9 00       		.byte	0
 2677 0dda 21       		.uleb128 0x21
 2678 0ddb 34000000 		.4byte	.LVL25
 2679 0ddf C8110000 		.4byte	0x11c8
ARM GAS  /tmp/cc4SeFZS.s 			page 48


 2680 0de3 22       		.uleb128 0x22
 2681 0de4 01       		.uleb128 0x1
 2682 0de5 50       		.byte	0x50
 2683 0de6 01       		.uleb128 0x1
 2684 0de7 35       		.byte	0x35
 2685 0de8 00       		.byte	0
 2686 0de9 00       		.byte	0
 2687 0dea 00       		.byte	0
 2688 0deb 00       		.byte	0
 2689 0dec 00       		.byte	0
 2690 0ded 39       		.uleb128 0x39
 2691 0dee E80F0000 		.4byte	0xfe8
 2692 0df2 12000000 		.4byte	.LBB133
 2693 0df6 30000000 		.4byte	.Ldebug_ranges0+0x30
 2694 0dfa 01       		.byte	0x1
 2695 0dfb B4       		.byte	0xb4
 2696 0dfc 24       		.uleb128 0x24
 2697 0dfd 30000000 		.4byte	.Ldebug_ranges0+0x30
 2698 0e01 25       		.uleb128 0x25
 2699 0e02 F50F0000 		.4byte	0xff5
 2700 0e06 23       		.uleb128 0x23
 2701 0e07 A3100000 		.4byte	0x10a3
 2702 0e0b 12000000 		.4byte	.LBB135
 2703 0e0f 30000000 		.4byte	.Ldebug_ranges0+0x30
 2704 0e13 10       		.byte	0x10
 2705 0e14 7301     		.2byte	0x173
 2706 0e16 23       		.uleb128 0x23
 2707 0e17 B5100000 		.4byte	0x10b5
 2708 0e1b 12000000 		.4byte	.LBB136
 2709 0e1f 30000000 		.4byte	.Ldebug_ranges0+0x30
 2710 0e23 0B       		.byte	0xb
 2711 0e24 CD01     		.2byte	0x1cd
 2712 0e26 20       		.uleb128 0x20
 2713 0e27 C2100000 		.4byte	0x10c2
 2714 0e2b F1040000 		.4byte	.LLST16
 2715 0e2f 00       		.byte	0
 2716 0e30 00       		.byte	0
 2717 0e31 00       		.byte	0
 2718 0e32 00       		.byte	0
 2719 0e33 00       		.byte	0
 2720 0e34 3C       		.uleb128 0x3c
 2721 0e35 33070000 		.4byte	.LASF137
 2722 0e39 01       		.byte	0x1
 2723 0e3a 93       		.byte	0x93
 2724 0e3b 00000000 		.4byte	.LFB229
 2725 0e3f 28000000 		.4byte	.LFE229-.LFB229
 2726 0e43 01       		.uleb128 0x1
 2727 0e44 9C       		.byte	0x9c
 2728 0e45 B60E0000 		.4byte	0xeb6
 2729 0e49 34       		.uleb128 0x34
 2730 0e4a 737000   		.ascii	"sp\000"
 2731 0e4d 01       		.byte	0x1
 2732 0e4e 93       		.byte	0x93
 2733 0e4f DF080000 		.4byte	0x8df
 2734 0e53 11050000 		.4byte	.LLST1
 2735 0e57 34       		.uleb128 0x34
 2736 0e58 6E00     		.ascii	"n\000"
ARM GAS  /tmp/cc4SeFZS.s 			page 49


 2737 0e5a 01       		.byte	0x1
 2738 0e5b 93       		.byte	0x93
 2739 0e5c 2E010000 		.4byte	0x12e
 2740 0e60 3D050000 		.4byte	.LLST2
 2741 0e64 3D       		.uleb128 0x3d
 2742 0e65 636E7400 		.ascii	"cnt\000"
 2743 0e69 01       		.byte	0x1
 2744 0e6a 94       		.byte	0x94
 2745 0e6b 2E010000 		.4byte	0x12e
 2746 0e6f 5E050000 		.4byte	.LLST3
 2747 0e73 1D       		.uleb128 0x1d
 2748 0e74 9F050000 		.4byte	.LASF127
 2749 0e78 1B0B0000 		.4byte	0xb1b
 2750 0e7c 37       		.uleb128 0x37
 2751 0e7d 0C100000 		.4byte	0x100c
 2752 0e81 12000000 		.4byte	.LBB94
 2753 0e85 08000000 		.4byte	.LBE94-.LBB94
 2754 0e89 01       		.byte	0x1
 2755 0e8a 9F       		.byte	0x9f
 2756 0e8b AC0E0000 		.4byte	0xeac
 2757 0e8f 20       		.uleb128 0x20
 2758 0e90 1D100000 		.4byte	0x101d
 2759 0e94 89050000 		.4byte	.LLST4
 2760 0e98 28       		.uleb128 0x28
 2761 0e99 12000000 		.4byte	.LBB95
 2762 0e9d 08000000 		.4byte	.LBE95-.LBB95
 2763 0ea1 29       		.uleb128 0x29
 2764 0ea2 29100000 		.4byte	0x1029
 2765 0ea6 9C050000 		.4byte	.LLST5
 2766 0eaa 00       		.byte	0
 2767 0eab 00       		.byte	0
 2768 0eac 2A       		.uleb128 0x2a
 2769 0ead 1E000000 		.4byte	.LVL8
 2770 0eb1 E0110000 		.4byte	0x11e0
 2771 0eb5 00       		.byte	0
 2772 0eb6 3C       		.uleb128 0x3c
 2773 0eb7 80020000 		.4byte	.LASF138
 2774 0ebb 01       		.byte	0x1
 2775 0ebc 78       		.byte	0x78
 2776 0ebd 00000000 		.4byte	.LFB228
 2777 0ec1 18000000 		.4byte	.LFE228-.LFB228
 2778 0ec5 01       		.uleb128 0x1
 2779 0ec6 9C       		.byte	0x9c
 2780 0ec7 990F0000 		.4byte	0xf99
 2781 0ecb 34       		.uleb128 0x34
 2782 0ecc 737000   		.ascii	"sp\000"
 2783 0ecf 01       		.byte	0x1
 2784 0ed0 78       		.byte	0x78
 2785 0ed1 DF080000 		.4byte	0x8df
 2786 0ed5 AF050000 		.4byte	.LLST6
 2787 0ed9 34       		.uleb128 0x34
 2788 0eda 6E00     		.ascii	"n\000"
 2789 0edc 01       		.byte	0x1
 2790 0edd 78       		.byte	0x78
 2791 0ede 2E010000 		.4byte	0x12e
 2792 0ee2 D0050000 		.4byte	.LLST7
 2793 0ee6 37       		.uleb128 0x37
ARM GAS  /tmp/cc4SeFZS.s 			page 50


 2794 0ee7 03100000 		.4byte	0x1003
 2795 0eeb 02000000 		.4byte	.LBB96
 2796 0eef 06000000 		.4byte	.LBE96-.LBB96
 2797 0ef3 01       		.byte	0x1
 2798 0ef4 7A       		.byte	0x7a
 2799 0ef5 250F0000 		.4byte	0xf25
 2800 0ef9 2E       		.uleb128 0x2e
 2801 0efa AC100000 		.4byte	0x10ac
 2802 0efe 02000000 		.4byte	.LBB97
 2803 0f02 06000000 		.4byte	.LBE97-.LBB97
 2804 0f06 10       		.byte	0x10
 2805 0f07 5C01     		.2byte	0x15c
 2806 0f09 2E       		.uleb128 0x2e
 2807 0f0a B5100000 		.4byte	0x10b5
 2808 0f0e 02000000 		.4byte	.LBB98
 2809 0f12 06000000 		.4byte	.LBE98-.LBB98
 2810 0f16 0B       		.byte	0xb
 2811 0f17 BF01     		.2byte	0x1bf
 2812 0f19 20       		.uleb128 0x20
 2813 0f1a C2100000 		.4byte	0x10c2
 2814 0f1e F1050000 		.4byte	.LLST8
 2815 0f22 00       		.byte	0
 2816 0f23 00       		.byte	0
 2817 0f24 00       		.byte	0
 2818 0f25 37       		.uleb128 0x37
 2819 0f26 E80F0000 		.4byte	0xfe8
 2820 0f2a 10000000 		.4byte	.LBB100
 2821 0f2e 08000000 		.4byte	.LBE100-.LBB100
 2822 0f32 01       		.byte	0x1
 2823 0f33 7D       		.byte	0x7d
 2824 0f34 730F0000 		.4byte	0xf73
 2825 0f38 28       		.uleb128 0x28
 2826 0f39 10000000 		.4byte	.LBB101
 2827 0f3d 08000000 		.4byte	.LBE101-.LBB101
 2828 0f41 25       		.uleb128 0x25
 2829 0f42 F50F0000 		.4byte	0xff5
 2830 0f46 2E       		.uleb128 0x2e
 2831 0f47 A3100000 		.4byte	0x10a3
 2832 0f4b 10000000 		.4byte	.LBB102
 2833 0f4f 08000000 		.4byte	.LBE102-.LBB102
 2834 0f53 10       		.byte	0x10
 2835 0f54 7301     		.2byte	0x173
 2836 0f56 2E       		.uleb128 0x2e
 2837 0f57 B5100000 		.4byte	0x10b5
 2838 0f5b 10000000 		.4byte	.LBB103
 2839 0f5f 08000000 		.4byte	.LBE103-.LBB103
 2840 0f63 0B       		.byte	0xb
 2841 0f64 CD01     		.2byte	0x1cd
 2842 0f66 20       		.uleb128 0x20
 2843 0f67 C2100000 		.4byte	0x10c2
 2844 0f6b 06060000 		.4byte	.LLST9
 2845 0f6f 00       		.byte	0
 2846 0f70 00       		.byte	0
 2847 0f71 00       		.byte	0
 2848 0f72 00       		.byte	0
 2849 0f73 3E       		.uleb128 0x3e
 2850 0f74 0C000000 		.4byte	.LVL14
ARM GAS  /tmp/cc4SeFZS.s 			page 51


 2851 0f78 340E0000 		.4byte	0xe34
 2852 0f7c 8F0F0000 		.4byte	0xf8f
 2853 0f80 22       		.uleb128 0x22
 2854 0f81 01       		.uleb128 0x1
 2855 0f82 50       		.byte	0x50
 2856 0f83 03       		.uleb128 0x3
 2857 0f84 F3       		.byte	0xf3
 2858 0f85 01       		.uleb128 0x1
 2859 0f86 50       		.byte	0x50
 2860 0f87 22       		.uleb128 0x22
 2861 0f88 01       		.uleb128 0x1
 2862 0f89 51       		.byte	0x51
 2863 0f8a 03       		.uleb128 0x3
 2864 0f8b F3       		.byte	0xf3
 2865 0f8c 01       		.uleb128 0x1
 2866 0f8d 51       		.byte	0x51
 2867 0f8e 00       		.byte	0
 2868 0f8f 2A       		.uleb128 0x2a
 2869 0f90 10000000 		.4byte	.LVL15
 2870 0f94 D4110000 		.4byte	0x11d4
 2871 0f98 00       		.byte	0
 2872 0f99 3C       		.uleb128 0x3c
 2873 0f9a 10020000 		.4byte	.LASF139
 2874 0f9e 01       		.byte	0x1
 2875 0f9f 61       		.byte	0x61
 2876 0fa0 00000000 		.4byte	.LFB227
 2877 0fa4 08000000 		.4byte	.LFE227-.LFB227
 2878 0fa8 01       		.uleb128 0x1
 2879 0fa9 9C       		.byte	0x9c
 2880 0faa E80F0000 		.4byte	0xfe8
 2881 0fae 3F       		.uleb128 0x3f
 2882 0faf 737000   		.ascii	"sp\000"
 2883 0fb2 01       		.byte	0x1
 2884 0fb3 61       		.byte	0x61
 2885 0fb4 DF080000 		.4byte	0x8df
 2886 0fb8 01       		.uleb128 0x1
 2887 0fb9 50       		.byte	0x50
 2888 0fba 3F       		.uleb128 0x3f
 2889 0fbb 6E00     		.ascii	"n\000"
 2890 0fbd 01       		.byte	0x1
 2891 0fbe 61       		.byte	0x61
 2892 0fbf 2E010000 		.4byte	0x12e
 2893 0fc3 01       		.uleb128 0x1
 2894 0fc4 51       		.byte	0x51
 2895 0fc5 1D       		.uleb128 0x1d
 2896 0fc6 9F050000 		.4byte	.LASF127
 2897 0fca F5080000 		.4byte	0x8f5
 2898 0fce 40       		.uleb128 0x40
 2899 0fcf 89100000 		.4byte	0x1089
 2900 0fd3 00000000 		.4byte	.LBB92
 2901 0fd7 04000000 		.4byte	.LBE92-.LBB92
 2902 0fdb 01       		.byte	0x1
 2903 0fdc 65       		.byte	0x65
 2904 0fdd 20       		.uleb128 0x20
 2905 0fde 96100000 		.4byte	0x1096
 2906 0fe2 1A060000 		.4byte	.LLST0
 2907 0fe6 00       		.byte	0
ARM GAS  /tmp/cc4SeFZS.s 			page 52


 2908 0fe7 00       		.byte	0
 2909 0fe8 41       		.uleb128 0x41
 2910 0fe9 8B070000 		.4byte	.LASF140
 2911 0fed 10       		.byte	0x10
 2912 0fee 6601     		.2byte	0x166
 2913 0ff0 03       		.byte	0x3
 2914 0ff1 03100000 		.4byte	0x1003
 2915 0ff5 32       		.uleb128 0x32
 2916 0ff6 9F050000 		.4byte	.LASF127
 2917 0ffa 1B0B0000 		.4byte	0xb1b
 2918 0ffe 8B070000 		.4byte	.LASF140
 2919 1002 00       		.byte	0
 2920 1003 42       		.uleb128 0x42
 2921 1004 76040000 		.4byte	.LASF145
 2922 1008 10       		.byte	0x10
 2923 1009 5A01     		.2byte	0x15a
 2924 100b 03       		.byte	0x3
 2925 100c 43       		.uleb128 0x43
 2926 100d 94000000 		.4byte	.LASF141
 2927 1011 02       		.byte	0x2
 2928 1012 A802     		.2byte	0x2a8
 2929 1014 47020000 		.4byte	0x247
 2930 1018 03       		.byte	0x3
 2931 1019 35100000 		.4byte	0x1035
 2932 101d 30       		.uleb128 0x30
 2933 101e 74717000 		.ascii	"tqp\000"
 2934 1022 02       		.byte	0x2
 2935 1023 A802     		.2byte	0x2a8
 2936 1025 35100000 		.4byte	0x1035
 2937 1029 2C       		.uleb128 0x2c
 2938 102a 747000   		.ascii	"tp\000"
 2939 102d 02       		.byte	0x2
 2940 102e A902     		.2byte	0x2a9
 2941 1030 47020000 		.4byte	0x247
 2942 1034 00       		.byte	0
 2943 1035 0A       		.uleb128 0xa
 2944 1036 04       		.byte	0x4
 2945 1037 71020000 		.4byte	0x271
 2946 103b 43       		.uleb128 0x43
 2947 103c 98060000 		.4byte	.LASF142
 2948 1040 02       		.byte	0x2
 2949 1041 9F02     		.2byte	0x29f
 2950 1043 47020000 		.4byte	0x247
 2951 1047 03       		.byte	0x3
 2952 1048 64100000 		.4byte	0x1064
 2953 104c 30       		.uleb128 0x30
 2954 104d 74717000 		.ascii	"tqp\000"
 2955 1051 02       		.byte	0x2
 2956 1052 9F02     		.2byte	0x29f
 2957 1054 35100000 		.4byte	0x1035
 2958 1058 2C       		.uleb128 0x2c
 2959 1059 747000   		.ascii	"tp\000"
 2960 105c 02       		.byte	0x2
 2961 105d A002     		.2byte	0x2a0
 2962 105f 47020000 		.4byte	0x247
 2963 1063 00       		.byte	0
 2964 1064 41       		.uleb128 0x41
ARM GAS  /tmp/cc4SeFZS.s 			page 53


 2965 1065 1A000000 		.4byte	.LASF143
 2966 1069 02       		.byte	0x2
 2967 106a 9702     		.2byte	0x297
 2968 106c 03       		.byte	0x3
 2969 106d 89100000 		.4byte	0x1089
 2970 1071 30       		.uleb128 0x30
 2971 1072 747000   		.ascii	"tp\000"
 2972 1075 02       		.byte	0x2
 2973 1076 9702     		.2byte	0x297
 2974 1078 47020000 		.4byte	0x247
 2975 107c 30       		.uleb128 0x30
 2976 107d 74717000 		.ascii	"tqp\000"
 2977 1081 02       		.byte	0x2
 2978 1082 9702     		.2byte	0x297
 2979 1084 35100000 		.4byte	0x1035
 2980 1088 00       		.byte	0
 2981 1089 41       		.uleb128 0x41
 2982 108a 7F000000 		.4byte	.LASF144
 2983 108e 02       		.byte	0x2
 2984 108f 5A02     		.2byte	0x25a
 2985 1091 03       		.byte	0x3
 2986 1092 A3100000 		.4byte	0x10a3
 2987 1096 30       		.uleb128 0x30
 2988 1097 74717000 		.ascii	"tqp\000"
 2989 109b 02       		.byte	0x2
 2990 109c 5A02     		.2byte	0x25a
 2991 109e 35100000 		.4byte	0x1035
 2992 10a2 00       		.byte	0
 2993 10a3 42       		.uleb128 0x42
 2994 10a4 7C010000 		.4byte	.LASF146
 2995 10a8 0B       		.byte	0xb
 2996 10a9 CA01     		.2byte	0x1ca
 2997 10ab 03       		.byte	0x3
 2998 10ac 42       		.uleb128 0x42
 2999 10ad 8A000000 		.4byte	.LASF147
 3000 10b1 0B       		.byte	0xb
 3001 10b2 BC01     		.2byte	0x1bc
 3002 10b4 03       		.byte	0x3
 3003 10b5 41       		.uleb128 0x41
 3004 10b6 D3060000 		.4byte	.LASF148
 3005 10ba 03       		.byte	0x3
 3006 10bb 2002     		.2byte	0x220
 3007 10bd 03       		.byte	0x3
 3008 10be CF100000 		.4byte	0x10cf
 3009 10c2 31       		.uleb128 0x31
 3010 10c3 FB010000 		.4byte	.LASF149
 3011 10c7 03       		.byte	0x3
 3012 10c8 2002     		.2byte	0x220
 3013 10ca CB000000 		.4byte	0xcb
 3014 10ce 00       		.byte	0
 3015 10cf 44       		.uleb128 0x44
 3016 10d0 C00C0000 		.4byte	0xcc0
 3017 10d4 00000000 		.4byte	.LFB231
 3018 10d8 34000000 		.4byte	.LFE231-.LFB231
 3019 10dc 01       		.uleb128 0x1
 3020 10dd 9C       		.byte	0x9c
 3021 10de 48110000 		.4byte	0x1148
ARM GAS  /tmp/cc4SeFZS.s 			page 54


 3022 10e2 20       		.uleb128 0x20
 3023 10e3 D00C0000 		.4byte	0xcd0
 3024 10e7 2D060000 		.4byte	.LLST17
 3025 10eb 25       		.uleb128 0x25
 3026 10ec DA0C0000 		.4byte	0xcda
 3027 10f0 28       		.uleb128 0x28
 3028 10f1 10000000 		.4byte	.LBB148
 3029 10f5 24000000 		.4byte	.LBE148-.LBB148
 3030 10f9 20       		.uleb128 0x20
 3031 10fa D00C0000 		.4byte	0xcd0
 3032 10fe 72060000 		.4byte	.LLST18
 3033 1102 28       		.uleb128 0x28
 3034 1103 10000000 		.4byte	.LBB149
 3035 1107 24000000 		.4byte	.LBE149-.LBB149
 3036 110b 25       		.uleb128 0x25
 3037 110c EB100000 		.4byte	0x10eb
 3038 1110 38       		.uleb128 0x38
 3039 1111 64100000 		.4byte	0x1064
 3040 1115 16000000 		.4byte	.LBB150
 3041 1119 48000000 		.4byte	.Ldebug_ranges0+0x48
 3042 111d 01       		.byte	0x1
 3043 111e CF       		.byte	0xcf
 3044 111f 36110000 		.4byte	0x1136
 3045 1123 20       		.uleb128 0x20
 3046 1124 7C100000 		.4byte	0x107c
 3047 1128 93060000 		.4byte	.LLST19
 3048 112c 20       		.uleb128 0x20
 3049 112d 71100000 		.4byte	0x1071
 3050 1131 A6060000 		.4byte	.LLST20
 3051 1135 00       		.byte	0
 3052 1136 21       		.uleb128 0x21
 3053 1137 28000000 		.4byte	.LVL34
 3054 113b C8110000 		.4byte	0x11c8
 3055 113f 22       		.uleb128 0x22
 3056 1140 01       		.uleb128 0x1
 3057 1141 50       		.byte	0x50
 3058 1142 01       		.uleb128 0x1
 3059 1143 35       		.byte	0x35
 3060 1144 00       		.byte	0
 3061 1145 00       		.byte	0
 3062 1146 00       		.byte	0
 3063 1147 00       		.byte	0
 3064 1148 44       		.uleb128 0x44
 3065 1149 200B0000 		.4byte	0xb20
 3066 114d 00000000 		.4byte	.LFB233
 3067 1151 3C000000 		.4byte	.LFE233-.LFB233
 3068 1155 01       		.uleb128 0x1
 3069 1156 9C       		.byte	0x9c
 3070 1157 C8110000 		.4byte	0x11c8
 3071 115b 20       		.uleb128 0x20
 3072 115c 310B0000 		.4byte	0xb31
 3073 1160 B9060000 		.4byte	.LLST30
 3074 1164 20       		.uleb128 0x20
 3075 1165 3C0B0000 		.4byte	0xb3c
 3076 1169 F0060000 		.4byte	.LLST31
 3077 116d 25       		.uleb128 0x25
 3078 116e 480B0000 		.4byte	0xb48
ARM GAS  /tmp/cc4SeFZS.s 			page 55


 3079 1172 24       		.uleb128 0x24
 3080 1173 B0000000 		.4byte	.Ldebug_ranges0+0xb0
 3081 1177 27       		.uleb128 0x27
 3082 1178 3C0B0000 		.4byte	0xb3c
 3083 117c 20       		.uleb128 0x20
 3084 117d 310B0000 		.4byte	0xb31
 3085 1181 1C070000 		.4byte	.LLST32
 3086 1185 24       		.uleb128 0x24
 3087 1186 B0000000 		.4byte	.Ldebug_ranges0+0xb0
 3088 118a 25       		.uleb128 0x25
 3089 118b 6D110000 		.4byte	0x116d
 3090 118f 1F       		.uleb128 0x1f
 3091 1190 64100000 		.4byte	0x1064
 3092 1194 1A000000 		.4byte	.LBB201
 3093 1198 C8000000 		.4byte	.Ldebug_ranges0+0xc8
 3094 119c 01       		.byte	0x1
 3095 119d 1701     		.2byte	0x117
 3096 119f B6110000 		.4byte	0x11b6
 3097 11a3 20       		.uleb128 0x20
 3098 11a4 7C100000 		.4byte	0x107c
 3099 11a8 3D070000 		.4byte	.LLST33
 3100 11ac 20       		.uleb128 0x20
 3101 11ad 71100000 		.4byte	0x1071
 3102 11b1 50070000 		.4byte	.LLST34
 3103 11b5 00       		.byte	0
 3104 11b6 45       		.uleb128 0x45
 3105 11b7 2C000000 		.4byte	.LVL53
 3106 11bb F8110000 		.4byte	0x11f8
 3107 11bf 22       		.uleb128 0x22
 3108 11c0 01       		.uleb128 0x1
 3109 11c1 50       		.byte	0x50
 3110 11c2 01       		.uleb128 0x1
 3111 11c3 35       		.byte	0x35
 3112 11c4 00       		.byte	0
 3113 11c5 00       		.byte	0
 3114 11c6 00       		.byte	0
 3115 11c7 00       		.byte	0
 3116 11c8 46       		.uleb128 0x46
 3117 11c9 FA050000 		.4byte	.LASF150
 3118 11cd FA050000 		.4byte	.LASF150
 3119 11d1 02       		.byte	0x2
 3120 11d2 1402     		.2byte	0x214
 3121 11d4 46       		.uleb128 0x46
 3122 11d5 C9010000 		.4byte	.LASF151
 3123 11d9 C9010000 		.4byte	.LASF151
 3124 11dd 02       		.byte	0x2
 3125 11de 1702     		.2byte	0x217
 3126 11e0 46       		.uleb128 0x46
 3127 11e1 30060000 		.4byte	.LASF152
 3128 11e5 30060000 		.4byte	.LASF152
 3129 11e9 02       		.byte	0x2
 3130 11ea 1302     		.2byte	0x213
 3131 11ec 46       		.uleb128 0x46
 3132 11ed B7020000 		.4byte	.LASF153
 3133 11f1 B7020000 		.4byte	.LASF153
 3134 11f5 02       		.byte	0x2
 3135 11f6 1602     		.2byte	0x216
ARM GAS  /tmp/cc4SeFZS.s 			page 56


 3136 11f8 46       		.uleb128 0x46
 3137 11f9 76070000 		.4byte	.LASF154
 3138 11fd 76070000 		.4byte	.LASF154
 3139 1201 02       		.byte	0x2
 3140 1202 1502     		.2byte	0x215
 3141 1204 00       		.byte	0
 3142              		.section	.debug_abbrev,"",%progbits
 3143              	.Ldebug_abbrev0:
 3144 0000 01       		.uleb128 0x1
 3145 0001 11       		.uleb128 0x11
 3146 0002 01       		.byte	0x1
 3147 0003 25       		.uleb128 0x25
 3148 0004 0E       		.uleb128 0xe
 3149 0005 13       		.uleb128 0x13
 3150 0006 0B       		.uleb128 0xb
 3151 0007 03       		.uleb128 0x3
 3152 0008 0E       		.uleb128 0xe
 3153 0009 55       		.uleb128 0x55
 3154 000a 17       		.uleb128 0x17
 3155 000b 11       		.uleb128 0x11
 3156 000c 01       		.uleb128 0x1
 3157 000d 10       		.uleb128 0x10
 3158 000e 17       		.uleb128 0x17
 3159 000f 00       		.byte	0
 3160 0010 00       		.byte	0
 3161 0011 02       		.uleb128 0x2
 3162 0012 24       		.uleb128 0x24
 3163 0013 00       		.byte	0
 3164 0014 0B       		.uleb128 0xb
 3165 0015 0B       		.uleb128 0xb
 3166 0016 3E       		.uleb128 0x3e
 3167 0017 0B       		.uleb128 0xb
 3168 0018 03       		.uleb128 0x3
 3169 0019 08       		.uleb128 0x8
 3170 001a 00       		.byte	0
 3171 001b 00       		.byte	0
 3172 001c 03       		.uleb128 0x3
 3173 001d 24       		.uleb128 0x24
 3174 001e 00       		.byte	0
 3175 001f 0B       		.uleb128 0xb
 3176 0020 0B       		.uleb128 0xb
 3177 0021 3E       		.uleb128 0x3e
 3178 0022 0B       		.uleb128 0xb
 3179 0023 03       		.uleb128 0x3
 3180 0024 0E       		.uleb128 0xe
 3181 0025 00       		.byte	0
 3182 0026 00       		.byte	0
 3183 0027 04       		.uleb128 0x4
 3184 0028 16       		.uleb128 0x16
 3185 0029 00       		.byte	0
 3186 002a 03       		.uleb128 0x3
 3187 002b 0E       		.uleb128 0xe
 3188 002c 3A       		.uleb128 0x3a
 3189 002d 0B       		.uleb128 0xb
 3190 002e 3B       		.uleb128 0x3b
 3191 002f 0B       		.uleb128 0xb
 3192 0030 49       		.uleb128 0x49
ARM GAS  /tmp/cc4SeFZS.s 			page 57


 3193 0031 13       		.uleb128 0x13
 3194 0032 00       		.byte	0
 3195 0033 00       		.byte	0
 3196 0034 05       		.uleb128 0x5
 3197 0035 35       		.uleb128 0x35
 3198 0036 00       		.byte	0
 3199 0037 49       		.uleb128 0x49
 3200 0038 13       		.uleb128 0x13
 3201 0039 00       		.byte	0
 3202 003a 00       		.byte	0
 3203 003b 06       		.uleb128 0x6
 3204 003c 13       		.uleb128 0x13
 3205 003d 01       		.byte	0x1
 3206 003e 03       		.uleb128 0x3
 3207 003f 0E       		.uleb128 0xe
 3208 0040 0B       		.uleb128 0xb
 3209 0041 0B       		.uleb128 0xb
 3210 0042 3A       		.uleb128 0x3a
 3211 0043 0B       		.uleb128 0xb
 3212 0044 3B       		.uleb128 0x3b
 3213 0045 0B       		.uleb128 0xb
 3214 0046 01       		.uleb128 0x1
 3215 0047 13       		.uleb128 0x13
 3216 0048 00       		.byte	0
 3217 0049 00       		.byte	0
 3218 004a 07       		.uleb128 0x7
 3219 004b 0D       		.uleb128 0xd
 3220 004c 00       		.byte	0
 3221 004d 03       		.uleb128 0x3
 3222 004e 0E       		.uleb128 0xe
 3223 004f 3A       		.uleb128 0x3a
 3224 0050 0B       		.uleb128 0xb
 3225 0051 3B       		.uleb128 0x3b
 3226 0052 0B       		.uleb128 0xb
 3227 0053 49       		.uleb128 0x49
 3228 0054 13       		.uleb128 0x13
 3229 0055 38       		.uleb128 0x38
 3230 0056 0B       		.uleb128 0xb
 3231 0057 00       		.byte	0
 3232 0058 00       		.byte	0
 3233 0059 08       		.uleb128 0x8
 3234 005a 0D       		.uleb128 0xd
 3235 005b 00       		.byte	0
 3236 005c 03       		.uleb128 0x3
 3237 005d 08       		.uleb128 0x8
 3238 005e 3A       		.uleb128 0x3a
 3239 005f 0B       		.uleb128 0xb
 3240 0060 3B       		.uleb128 0x3b
 3241 0061 05       		.uleb128 0x5
 3242 0062 49       		.uleb128 0x49
 3243 0063 13       		.uleb128 0x13
 3244 0064 38       		.uleb128 0x38
 3245 0065 0B       		.uleb128 0xb
 3246 0066 00       		.byte	0
 3247 0067 00       		.byte	0
 3248 0068 09       		.uleb128 0x9
 3249 0069 0D       		.uleb128 0xd
ARM GAS  /tmp/cc4SeFZS.s 			page 58


 3250 006a 00       		.byte	0
 3251 006b 03       		.uleb128 0x3
 3252 006c 0E       		.uleb128 0xe
 3253 006d 3A       		.uleb128 0x3a
 3254 006e 0B       		.uleb128 0xb
 3255 006f 3B       		.uleb128 0x3b
 3256 0070 05       		.uleb128 0x5
 3257 0071 49       		.uleb128 0x49
 3258 0072 13       		.uleb128 0x13
 3259 0073 38       		.uleb128 0x38
 3260 0074 0B       		.uleb128 0xb
 3261 0075 00       		.byte	0
 3262 0076 00       		.byte	0
 3263 0077 0A       		.uleb128 0xa
 3264 0078 0F       		.uleb128 0xf
 3265 0079 00       		.byte	0
 3266 007a 0B       		.uleb128 0xb
 3267 007b 0B       		.uleb128 0xb
 3268 007c 49       		.uleb128 0x49
 3269 007d 13       		.uleb128 0x13
 3270 007e 00       		.byte	0
 3271 007f 00       		.byte	0
 3272 0080 0B       		.uleb128 0xb
 3273 0081 13       		.uleb128 0x13
 3274 0082 01       		.byte	0x1
 3275 0083 03       		.uleb128 0x3
 3276 0084 0E       		.uleb128 0xe
 3277 0085 0B       		.uleb128 0xb
 3278 0086 0B       		.uleb128 0xb
 3279 0087 3A       		.uleb128 0x3a
 3280 0088 0B       		.uleb128 0xb
 3281 0089 3B       		.uleb128 0x3b
 3282 008a 05       		.uleb128 0x5
 3283 008b 01       		.uleb128 0x1
 3284 008c 13       		.uleb128 0x13
 3285 008d 00       		.byte	0
 3286 008e 00       		.byte	0
 3287 008f 0C       		.uleb128 0xc
 3288 0090 15       		.uleb128 0x15
 3289 0091 01       		.byte	0x1
 3290 0092 27       		.uleb128 0x27
 3291 0093 19       		.uleb128 0x19
 3292 0094 01       		.uleb128 0x1
 3293 0095 13       		.uleb128 0x13
 3294 0096 00       		.byte	0
 3295 0097 00       		.byte	0
 3296 0098 0D       		.uleb128 0xd
 3297 0099 05       		.uleb128 0x5
 3298 009a 00       		.byte	0
 3299 009b 49       		.uleb128 0x49
 3300 009c 13       		.uleb128 0x13
 3301 009d 00       		.byte	0
 3302 009e 00       		.byte	0
 3303 009f 0E       		.uleb128 0xe
 3304 00a0 0F       		.uleb128 0xf
 3305 00a1 00       		.byte	0
 3306 00a2 0B       		.uleb128 0xb
ARM GAS  /tmp/cc4SeFZS.s 			page 59


 3307 00a3 0B       		.uleb128 0xb
 3308 00a4 00       		.byte	0
 3309 00a5 00       		.byte	0
 3310 00a6 0F       		.uleb128 0xf
 3311 00a7 13       		.uleb128 0x13
 3312 00a8 01       		.byte	0x1
 3313 00a9 03       		.uleb128 0x3
 3314 00aa 0E       		.uleb128 0xe
 3315 00ab 0B       		.uleb128 0xb
 3316 00ac 05       		.uleb128 0x5
 3317 00ad 3A       		.uleb128 0x3a
 3318 00ae 0B       		.uleb128 0xb
 3319 00af 3B       		.uleb128 0x3b
 3320 00b0 05       		.uleb128 0x5
 3321 00b1 01       		.uleb128 0x1
 3322 00b2 13       		.uleb128 0x13
 3323 00b3 00       		.byte	0
 3324 00b4 00       		.byte	0
 3325 00b5 10       		.uleb128 0x10
 3326 00b6 34       		.uleb128 0x34
 3327 00b7 00       		.byte	0
 3328 00b8 03       		.uleb128 0x3
 3329 00b9 0E       		.uleb128 0xe
 3330 00ba 3A       		.uleb128 0x3a
 3331 00bb 0B       		.uleb128 0xb
 3332 00bc 3B       		.uleb128 0x3b
 3333 00bd 05       		.uleb128 0x5
 3334 00be 49       		.uleb128 0x49
 3335 00bf 13       		.uleb128 0x13
 3336 00c0 3F       		.uleb128 0x3f
 3337 00c1 19       		.uleb128 0x19
 3338 00c2 3C       		.uleb128 0x3c
 3339 00c3 19       		.uleb128 0x19
 3340 00c4 00       		.byte	0
 3341 00c5 00       		.byte	0
 3342 00c6 11       		.uleb128 0x11
 3343 00c7 34       		.uleb128 0x34
 3344 00c8 00       		.byte	0
 3345 00c9 03       		.uleb128 0x3
 3346 00ca 0E       		.uleb128 0xe
 3347 00cb 3A       		.uleb128 0x3a
 3348 00cc 0B       		.uleb128 0xb
 3349 00cd 3B       		.uleb128 0x3b
 3350 00ce 0B       		.uleb128 0xb
 3351 00cf 49       		.uleb128 0x49
 3352 00d0 13       		.uleb128 0x13
 3353 00d1 3F       		.uleb128 0x3f
 3354 00d2 19       		.uleb128 0x19
 3355 00d3 3C       		.uleb128 0x3c
 3356 00d4 19       		.uleb128 0x19
 3357 00d5 00       		.byte	0
 3358 00d6 00       		.byte	0
 3359 00d7 12       		.uleb128 0x12
 3360 00d8 0D       		.uleb128 0xd
 3361 00d9 00       		.byte	0
 3362 00da 03       		.uleb128 0x3
 3363 00db 08       		.uleb128 0x8
ARM GAS  /tmp/cc4SeFZS.s 			page 60


 3364 00dc 3A       		.uleb128 0x3a
 3365 00dd 0B       		.uleb128 0xb
 3366 00de 3B       		.uleb128 0x3b
 3367 00df 0B       		.uleb128 0xb
 3368 00e0 49       		.uleb128 0x49
 3369 00e1 13       		.uleb128 0x13
 3370 00e2 38       		.uleb128 0x38
 3371 00e3 0B       		.uleb128 0xb
 3372 00e4 00       		.byte	0
 3373 00e5 00       		.byte	0
 3374 00e6 13       		.uleb128 0x13
 3375 00e7 13       		.uleb128 0x13
 3376 00e8 01       		.byte	0x1
 3377 00e9 0B       		.uleb128 0xb
 3378 00ea 0B       		.uleb128 0xb
 3379 00eb 3A       		.uleb128 0x3a
 3380 00ec 0B       		.uleb128 0xb
 3381 00ed 3B       		.uleb128 0x3b
 3382 00ee 0B       		.uleb128 0xb
 3383 00ef 01       		.uleb128 0x1
 3384 00f0 13       		.uleb128 0x13
 3385 00f1 00       		.byte	0
 3386 00f2 00       		.byte	0
 3387 00f3 14       		.uleb128 0x14
 3388 00f4 17       		.uleb128 0x17
 3389 00f5 01       		.byte	0x1
 3390 00f6 0B       		.uleb128 0xb
 3391 00f7 0B       		.uleb128 0xb
 3392 00f8 3A       		.uleb128 0x3a
 3393 00f9 0B       		.uleb128 0xb
 3394 00fa 3B       		.uleb128 0x3b
 3395 00fb 0B       		.uleb128 0xb
 3396 00fc 01       		.uleb128 0x1
 3397 00fd 13       		.uleb128 0x13
 3398 00fe 00       		.byte	0
 3399 00ff 00       		.byte	0
 3400 0100 15       		.uleb128 0x15
 3401 0101 0D       		.uleb128 0xd
 3402 0102 00       		.byte	0
 3403 0103 03       		.uleb128 0x3
 3404 0104 0E       		.uleb128 0xe
 3405 0105 3A       		.uleb128 0x3a
 3406 0106 0B       		.uleb128 0xb
 3407 0107 3B       		.uleb128 0x3b
 3408 0108 05       		.uleb128 0x5
 3409 0109 49       		.uleb128 0x49
 3410 010a 13       		.uleb128 0x13
 3411 010b 00       		.byte	0
 3412 010c 00       		.byte	0
 3413 010d 16       		.uleb128 0x16
 3414 010e 26       		.uleb128 0x26
 3415 010f 00       		.byte	0
 3416 0110 49       		.uleb128 0x49
 3417 0111 13       		.uleb128 0x13
 3418 0112 00       		.byte	0
 3419 0113 00       		.byte	0
 3420 0114 17       		.uleb128 0x17
ARM GAS  /tmp/cc4SeFZS.s 			page 61


 3421 0115 01       		.uleb128 0x1
 3422 0116 01       		.byte	0x1
 3423 0117 49       		.uleb128 0x49
 3424 0118 13       		.uleb128 0x13
 3425 0119 01       		.uleb128 0x1
 3426 011a 13       		.uleb128 0x13
 3427 011b 00       		.byte	0
 3428 011c 00       		.byte	0
 3429 011d 18       		.uleb128 0x18
 3430 011e 21       		.uleb128 0x21
 3431 011f 00       		.byte	0
 3432 0120 49       		.uleb128 0x49
 3433 0121 13       		.uleb128 0x13
 3434 0122 2F       		.uleb128 0x2f
 3435 0123 0B       		.uleb128 0xb
 3436 0124 00       		.byte	0
 3437 0125 00       		.byte	0
 3438 0126 19       		.uleb128 0x19
 3439 0127 34       		.uleb128 0x34
 3440 0128 00       		.byte	0
 3441 0129 03       		.uleb128 0x3
 3442 012a 08       		.uleb128 0x8
 3443 012b 3A       		.uleb128 0x3a
 3444 012c 0B       		.uleb128 0xb
 3445 012d 3B       		.uleb128 0x3b
 3446 012e 05       		.uleb128 0x5
 3447 012f 49       		.uleb128 0x49
 3448 0130 13       		.uleb128 0x13
 3449 0131 3F       		.uleb128 0x3f
 3450 0132 19       		.uleb128 0x19
 3451 0133 3C       		.uleb128 0x3c
 3452 0134 19       		.uleb128 0x19
 3453 0135 00       		.byte	0
 3454 0136 00       		.byte	0
 3455 0137 1A       		.uleb128 0x1a
 3456 0138 2E       		.uleb128 0x2e
 3457 0139 01       		.byte	0x1
 3458 013a 3F       		.uleb128 0x3f
 3459 013b 19       		.uleb128 0x19
 3460 013c 03       		.uleb128 0x3
 3461 013d 0E       		.uleb128 0xe
 3462 013e 3A       		.uleb128 0x3a
 3463 013f 0B       		.uleb128 0xb
 3464 0140 3B       		.uleb128 0x3b
 3465 0141 05       		.uleb128 0x5
 3466 0142 27       		.uleb128 0x27
 3467 0143 19       		.uleb128 0x19
 3468 0144 49       		.uleb128 0x49
 3469 0145 13       		.uleb128 0x13
 3470 0146 11       		.uleb128 0x11
 3471 0147 01       		.uleb128 0x1
 3472 0148 12       		.uleb128 0x12
 3473 0149 06       		.uleb128 0x6
 3474 014a 40       		.uleb128 0x40
 3475 014b 18       		.uleb128 0x18
 3476 014c 9742     		.uleb128 0x2117
 3477 014e 19       		.uleb128 0x19
ARM GAS  /tmp/cc4SeFZS.s 			page 62


 3478 014f 01       		.uleb128 0x1
 3479 0150 13       		.uleb128 0x13
 3480 0151 00       		.byte	0
 3481 0152 00       		.byte	0
 3482 0153 1B       		.uleb128 0x1b
 3483 0154 05       		.uleb128 0x5
 3484 0155 00       		.byte	0
 3485 0156 03       		.uleb128 0x3
 3486 0157 08       		.uleb128 0x8
 3487 0158 3A       		.uleb128 0x3a
 3488 0159 0B       		.uleb128 0xb
 3489 015a 3B       		.uleb128 0x3b
 3490 015b 05       		.uleb128 0x5
 3491 015c 49       		.uleb128 0x49
 3492 015d 13       		.uleb128 0x13
 3493 015e 02       		.uleb128 0x2
 3494 015f 17       		.uleb128 0x17
 3495 0160 00       		.byte	0
 3496 0161 00       		.byte	0
 3497 0162 1C       		.uleb128 0x1c
 3498 0163 34       		.uleb128 0x34
 3499 0164 00       		.byte	0
 3500 0165 03       		.uleb128 0x3
 3501 0166 08       		.uleb128 0x8
 3502 0167 3A       		.uleb128 0x3a
 3503 0168 0B       		.uleb128 0xb
 3504 0169 3B       		.uleb128 0x3b
 3505 016a 05       		.uleb128 0x5
 3506 016b 49       		.uleb128 0x49
 3507 016c 13       		.uleb128 0x13
 3508 016d 02       		.uleb128 0x2
 3509 016e 17       		.uleb128 0x17
 3510 016f 00       		.byte	0
 3511 0170 00       		.byte	0
 3512 0171 1D       		.uleb128 0x1d
 3513 0172 34       		.uleb128 0x34
 3514 0173 00       		.byte	0
 3515 0174 03       		.uleb128 0x3
 3516 0175 0E       		.uleb128 0xe
 3517 0176 49       		.uleb128 0x49
 3518 0177 13       		.uleb128 0x13
 3519 0178 34       		.uleb128 0x34
 3520 0179 19       		.uleb128 0x19
 3521 017a 00       		.byte	0
 3522 017b 00       		.byte	0
 3523 017c 1E       		.uleb128 0x1e
 3524 017d 0B       		.uleb128 0xb
 3525 017e 01       		.byte	0x1
 3526 017f 11       		.uleb128 0x11
 3527 0180 01       		.uleb128 0x1
 3528 0181 12       		.uleb128 0x12
 3529 0182 06       		.uleb128 0x6
 3530 0183 01       		.uleb128 0x1
 3531 0184 13       		.uleb128 0x13
 3532 0185 00       		.byte	0
 3533 0186 00       		.byte	0
 3534 0187 1F       		.uleb128 0x1f
ARM GAS  /tmp/cc4SeFZS.s 			page 63


 3535 0188 1D       		.uleb128 0x1d
 3536 0189 01       		.byte	0x1
 3537 018a 31       		.uleb128 0x31
 3538 018b 13       		.uleb128 0x13
 3539 018c 52       		.uleb128 0x52
 3540 018d 01       		.uleb128 0x1
 3541 018e 55       		.uleb128 0x55
 3542 018f 17       		.uleb128 0x17
 3543 0190 58       		.uleb128 0x58
 3544 0191 0B       		.uleb128 0xb
 3545 0192 59       		.uleb128 0x59
 3546 0193 05       		.uleb128 0x5
 3547 0194 01       		.uleb128 0x1
 3548 0195 13       		.uleb128 0x13
 3549 0196 00       		.byte	0
 3550 0197 00       		.byte	0
 3551 0198 20       		.uleb128 0x20
 3552 0199 05       		.uleb128 0x5
 3553 019a 00       		.byte	0
 3554 019b 31       		.uleb128 0x31
 3555 019c 13       		.uleb128 0x13
 3556 019d 02       		.uleb128 0x2
 3557 019e 17       		.uleb128 0x17
 3558 019f 00       		.byte	0
 3559 01a0 00       		.byte	0
 3560 01a1 21       		.uleb128 0x21
 3561 01a2 898201   		.uleb128 0x4109
 3562 01a5 01       		.byte	0x1
 3563 01a6 11       		.uleb128 0x11
 3564 01a7 01       		.uleb128 0x1
 3565 01a8 31       		.uleb128 0x31
 3566 01a9 13       		.uleb128 0x13
 3567 01aa 00       		.byte	0
 3568 01ab 00       		.byte	0
 3569 01ac 22       		.uleb128 0x22
 3570 01ad 8A8201   		.uleb128 0x410a
 3571 01b0 00       		.byte	0
 3572 01b1 02       		.uleb128 0x2
 3573 01b2 18       		.uleb128 0x18
 3574 01b3 9142     		.uleb128 0x2111
 3575 01b5 18       		.uleb128 0x18
 3576 01b6 00       		.byte	0
 3577 01b7 00       		.byte	0
 3578 01b8 23       		.uleb128 0x23
 3579 01b9 1D       		.uleb128 0x1d
 3580 01ba 01       		.byte	0x1
 3581 01bb 31       		.uleb128 0x31
 3582 01bc 13       		.uleb128 0x13
 3583 01bd 52       		.uleb128 0x52
 3584 01be 01       		.uleb128 0x1
 3585 01bf 55       		.uleb128 0x55
 3586 01c0 17       		.uleb128 0x17
 3587 01c1 58       		.uleb128 0x58
 3588 01c2 0B       		.uleb128 0xb
 3589 01c3 59       		.uleb128 0x59
 3590 01c4 05       		.uleb128 0x5
 3591 01c5 00       		.byte	0
ARM GAS  /tmp/cc4SeFZS.s 			page 64


 3592 01c6 00       		.byte	0
 3593 01c7 24       		.uleb128 0x24
 3594 01c8 0B       		.uleb128 0xb
 3595 01c9 01       		.byte	0x1
 3596 01ca 55       		.uleb128 0x55
 3597 01cb 17       		.uleb128 0x17
 3598 01cc 00       		.byte	0
 3599 01cd 00       		.byte	0
 3600 01ce 25       		.uleb128 0x25
 3601 01cf 34       		.uleb128 0x34
 3602 01d0 00       		.byte	0
 3603 01d1 31       		.uleb128 0x31
 3604 01d2 13       		.uleb128 0x13
 3605 01d3 00       		.byte	0
 3606 01d4 00       		.byte	0
 3607 01d5 26       		.uleb128 0x26
 3608 01d6 1D       		.uleb128 0x1d
 3609 01d7 01       		.byte	0x1
 3610 01d8 31       		.uleb128 0x31
 3611 01d9 13       		.uleb128 0x13
 3612 01da 11       		.uleb128 0x11
 3613 01db 01       		.uleb128 0x1
 3614 01dc 12       		.uleb128 0x12
 3615 01dd 06       		.uleb128 0x6
 3616 01de 58       		.uleb128 0x58
 3617 01df 0B       		.uleb128 0xb
 3618 01e0 59       		.uleb128 0x59
 3619 01e1 05       		.uleb128 0x5
 3620 01e2 01       		.uleb128 0x1
 3621 01e3 13       		.uleb128 0x13
 3622 01e4 00       		.byte	0
 3623 01e5 00       		.byte	0
 3624 01e6 27       		.uleb128 0x27
 3625 01e7 05       		.uleb128 0x5
 3626 01e8 00       		.byte	0
 3627 01e9 31       		.uleb128 0x31
 3628 01ea 13       		.uleb128 0x13
 3629 01eb 00       		.byte	0
 3630 01ec 00       		.byte	0
 3631 01ed 28       		.uleb128 0x28
 3632 01ee 0B       		.uleb128 0xb
 3633 01ef 01       		.byte	0x1
 3634 01f0 11       		.uleb128 0x11
 3635 01f1 01       		.uleb128 0x1
 3636 01f2 12       		.uleb128 0x12
 3637 01f3 06       		.uleb128 0x6
 3638 01f4 00       		.byte	0
 3639 01f5 00       		.byte	0
 3640 01f6 29       		.uleb128 0x29
 3641 01f7 34       		.uleb128 0x34
 3642 01f8 00       		.byte	0
 3643 01f9 31       		.uleb128 0x31
 3644 01fa 13       		.uleb128 0x13
 3645 01fb 02       		.uleb128 0x2
 3646 01fc 17       		.uleb128 0x17
 3647 01fd 00       		.byte	0
 3648 01fe 00       		.byte	0
ARM GAS  /tmp/cc4SeFZS.s 			page 65


 3649 01ff 2A       		.uleb128 0x2a
 3650 0200 898201   		.uleb128 0x4109
 3651 0203 00       		.byte	0
 3652 0204 11       		.uleb128 0x11
 3653 0205 01       		.uleb128 0x1
 3654 0206 31       		.uleb128 0x31
 3655 0207 13       		.uleb128 0x13
 3656 0208 00       		.byte	0
 3657 0209 00       		.byte	0
 3658 020a 2B       		.uleb128 0x2b
 3659 020b 2E       		.uleb128 0x2e
 3660 020c 01       		.byte	0x1
 3661 020d 3F       		.uleb128 0x3f
 3662 020e 19       		.uleb128 0x19
 3663 020f 03       		.uleb128 0x3
 3664 0210 0E       		.uleb128 0xe
 3665 0211 3A       		.uleb128 0x3a
 3666 0212 0B       		.uleb128 0xb
 3667 0213 3B       		.uleb128 0x3b
 3668 0214 05       		.uleb128 0x5
 3669 0215 27       		.uleb128 0x27
 3670 0216 19       		.uleb128 0x19
 3671 0217 11       		.uleb128 0x11
 3672 0218 01       		.uleb128 0x1
 3673 0219 12       		.uleb128 0x12
 3674 021a 06       		.uleb128 0x6
 3675 021b 40       		.uleb128 0x40
 3676 021c 18       		.uleb128 0x18
 3677 021d 9742     		.uleb128 0x2117
 3678 021f 19       		.uleb128 0x19
 3679 0220 01       		.uleb128 0x1
 3680 0221 13       		.uleb128 0x13
 3681 0222 00       		.byte	0
 3682 0223 00       		.byte	0
 3683 0224 2C       		.uleb128 0x2c
 3684 0225 34       		.uleb128 0x34
 3685 0226 00       		.byte	0
 3686 0227 03       		.uleb128 0x3
 3687 0228 08       		.uleb128 0x8
 3688 0229 3A       		.uleb128 0x3a
 3689 022a 0B       		.uleb128 0xb
 3690 022b 3B       		.uleb128 0x3b
 3691 022c 05       		.uleb128 0x5
 3692 022d 49       		.uleb128 0x49
 3693 022e 13       		.uleb128 0x13
 3694 022f 00       		.byte	0
 3695 0230 00       		.byte	0
 3696 0231 2D       		.uleb128 0x2d
 3697 0232 898201   		.uleb128 0x4109
 3698 0235 00       		.byte	0
 3699 0236 11       		.uleb128 0x11
 3700 0237 01       		.uleb128 0x1
 3701 0238 9542     		.uleb128 0x2115
 3702 023a 19       		.uleb128 0x19
 3703 023b 31       		.uleb128 0x31
 3704 023c 13       		.uleb128 0x13
 3705 023d 00       		.byte	0
ARM GAS  /tmp/cc4SeFZS.s 			page 66


 3706 023e 00       		.byte	0
 3707 023f 2E       		.uleb128 0x2e
 3708 0240 1D       		.uleb128 0x1d
 3709 0241 01       		.byte	0x1
 3710 0242 31       		.uleb128 0x31
 3711 0243 13       		.uleb128 0x13
 3712 0244 11       		.uleb128 0x11
 3713 0245 01       		.uleb128 0x1
 3714 0246 12       		.uleb128 0x12
 3715 0247 06       		.uleb128 0x6
 3716 0248 58       		.uleb128 0x58
 3717 0249 0B       		.uleb128 0xb
 3718 024a 59       		.uleb128 0x59
 3719 024b 05       		.uleb128 0x5
 3720 024c 00       		.byte	0
 3721 024d 00       		.byte	0
 3722 024e 2F       		.uleb128 0x2f
 3723 024f 2E       		.uleb128 0x2e
 3724 0250 01       		.byte	0x1
 3725 0251 3F       		.uleb128 0x3f
 3726 0252 19       		.uleb128 0x19
 3727 0253 03       		.uleb128 0x3
 3728 0254 0E       		.uleb128 0xe
 3729 0255 3A       		.uleb128 0x3a
 3730 0256 0B       		.uleb128 0xb
 3731 0257 3B       		.uleb128 0x3b
 3732 0258 05       		.uleb128 0x5
 3733 0259 27       		.uleb128 0x27
 3734 025a 19       		.uleb128 0x19
 3735 025b 49       		.uleb128 0x49
 3736 025c 13       		.uleb128 0x13
 3737 025d 20       		.uleb128 0x20
 3738 025e 0B       		.uleb128 0xb
 3739 025f 01       		.uleb128 0x1
 3740 0260 13       		.uleb128 0x13
 3741 0261 00       		.byte	0
 3742 0262 00       		.byte	0
 3743 0263 30       		.uleb128 0x30
 3744 0264 05       		.uleb128 0x5
 3745 0265 00       		.byte	0
 3746 0266 03       		.uleb128 0x3
 3747 0267 08       		.uleb128 0x8
 3748 0268 3A       		.uleb128 0x3a
 3749 0269 0B       		.uleb128 0xb
 3750 026a 3B       		.uleb128 0x3b
 3751 026b 05       		.uleb128 0x5
 3752 026c 49       		.uleb128 0x49
 3753 026d 13       		.uleb128 0x13
 3754 026e 00       		.byte	0
 3755 026f 00       		.byte	0
 3756 0270 31       		.uleb128 0x31
 3757 0271 05       		.uleb128 0x5
 3758 0272 00       		.byte	0
 3759 0273 03       		.uleb128 0x3
 3760 0274 0E       		.uleb128 0xe
 3761 0275 3A       		.uleb128 0x3a
 3762 0276 0B       		.uleb128 0xb
ARM GAS  /tmp/cc4SeFZS.s 			page 67


 3763 0277 3B       		.uleb128 0x3b
 3764 0278 05       		.uleb128 0x5
 3765 0279 49       		.uleb128 0x49
 3766 027a 13       		.uleb128 0x13
 3767 027b 00       		.byte	0
 3768 027c 00       		.byte	0
 3769 027d 32       		.uleb128 0x32
 3770 027e 34       		.uleb128 0x34
 3771 027f 00       		.byte	0
 3772 0280 03       		.uleb128 0x3
 3773 0281 0E       		.uleb128 0xe
 3774 0282 49       		.uleb128 0x49
 3775 0283 13       		.uleb128 0x13
 3776 0284 34       		.uleb128 0x34
 3777 0285 19       		.uleb128 0x19
 3778 0286 1C       		.uleb128 0x1c
 3779 0287 0E       		.uleb128 0xe
 3780 0288 00       		.byte	0
 3781 0289 00       		.byte	0
 3782 028a 33       		.uleb128 0x33
 3783 028b 2E       		.uleb128 0x2e
 3784 028c 01       		.byte	0x1
 3785 028d 3F       		.uleb128 0x3f
 3786 028e 19       		.uleb128 0x19
 3787 028f 03       		.uleb128 0x3
 3788 0290 0E       		.uleb128 0xe
 3789 0291 3A       		.uleb128 0x3a
 3790 0292 0B       		.uleb128 0xb
 3791 0293 3B       		.uleb128 0x3b
 3792 0294 0B       		.uleb128 0xb
 3793 0295 27       		.uleb128 0x27
 3794 0296 19       		.uleb128 0x19
 3795 0297 49       		.uleb128 0x49
 3796 0298 13       		.uleb128 0x13
 3797 0299 11       		.uleb128 0x11
 3798 029a 01       		.uleb128 0x1
 3799 029b 12       		.uleb128 0x12
 3800 029c 06       		.uleb128 0x6
 3801 029d 40       		.uleb128 0x40
 3802 029e 18       		.uleb128 0x18
 3803 029f 9742     		.uleb128 0x2117
 3804 02a1 19       		.uleb128 0x19
 3805 02a2 01       		.uleb128 0x1
 3806 02a3 13       		.uleb128 0x13
 3807 02a4 00       		.byte	0
 3808 02a5 00       		.byte	0
 3809 02a6 34       		.uleb128 0x34
 3810 02a7 05       		.uleb128 0x5
 3811 02a8 00       		.byte	0
 3812 02a9 03       		.uleb128 0x3
 3813 02aa 08       		.uleb128 0x8
 3814 02ab 3A       		.uleb128 0x3a
 3815 02ac 0B       		.uleb128 0xb
 3816 02ad 3B       		.uleb128 0x3b
 3817 02ae 0B       		.uleb128 0xb
 3818 02af 49       		.uleb128 0x49
 3819 02b0 13       		.uleb128 0x13
ARM GAS  /tmp/cc4SeFZS.s 			page 68


 3820 02b1 02       		.uleb128 0x2
 3821 02b2 17       		.uleb128 0x17
 3822 02b3 00       		.byte	0
 3823 02b4 00       		.byte	0
 3824 02b5 35       		.uleb128 0x35
 3825 02b6 05       		.uleb128 0x5
 3826 02b7 00       		.byte	0
 3827 02b8 03       		.uleb128 0x3
 3828 02b9 0E       		.uleb128 0xe
 3829 02ba 3A       		.uleb128 0x3a
 3830 02bb 0B       		.uleb128 0xb
 3831 02bc 3B       		.uleb128 0x3b
 3832 02bd 0B       		.uleb128 0xb
 3833 02be 49       		.uleb128 0x49
 3834 02bf 13       		.uleb128 0x13
 3835 02c0 02       		.uleb128 0x2
 3836 02c1 17       		.uleb128 0x17
 3837 02c2 00       		.byte	0
 3838 02c3 00       		.byte	0
 3839 02c4 36       		.uleb128 0x36
 3840 02c5 34       		.uleb128 0x34
 3841 02c6 00       		.byte	0
 3842 02c7 03       		.uleb128 0x3
 3843 02c8 08       		.uleb128 0x8
 3844 02c9 3A       		.uleb128 0x3a
 3845 02ca 0B       		.uleb128 0xb
 3846 02cb 3B       		.uleb128 0x3b
 3847 02cc 0B       		.uleb128 0xb
 3848 02cd 49       		.uleb128 0x49
 3849 02ce 13       		.uleb128 0x13
 3850 02cf 00       		.byte	0
 3851 02d0 00       		.byte	0
 3852 02d1 37       		.uleb128 0x37
 3853 02d2 1D       		.uleb128 0x1d
 3854 02d3 01       		.byte	0x1
 3855 02d4 31       		.uleb128 0x31
 3856 02d5 13       		.uleb128 0x13
 3857 02d6 11       		.uleb128 0x11
 3858 02d7 01       		.uleb128 0x1
 3859 02d8 12       		.uleb128 0x12
 3860 02d9 06       		.uleb128 0x6
 3861 02da 58       		.uleb128 0x58
 3862 02db 0B       		.uleb128 0xb
 3863 02dc 59       		.uleb128 0x59
 3864 02dd 0B       		.uleb128 0xb
 3865 02de 01       		.uleb128 0x1
 3866 02df 13       		.uleb128 0x13
 3867 02e0 00       		.byte	0
 3868 02e1 00       		.byte	0
 3869 02e2 38       		.uleb128 0x38
 3870 02e3 1D       		.uleb128 0x1d
 3871 02e4 01       		.byte	0x1
 3872 02e5 31       		.uleb128 0x31
 3873 02e6 13       		.uleb128 0x13
 3874 02e7 52       		.uleb128 0x52
 3875 02e8 01       		.uleb128 0x1
 3876 02e9 55       		.uleb128 0x55
ARM GAS  /tmp/cc4SeFZS.s 			page 69


 3877 02ea 17       		.uleb128 0x17
 3878 02eb 58       		.uleb128 0x58
 3879 02ec 0B       		.uleb128 0xb
 3880 02ed 59       		.uleb128 0x59
 3881 02ee 0B       		.uleb128 0xb
 3882 02ef 01       		.uleb128 0x1
 3883 02f0 13       		.uleb128 0x13
 3884 02f1 00       		.byte	0
 3885 02f2 00       		.byte	0
 3886 02f3 39       		.uleb128 0x39
 3887 02f4 1D       		.uleb128 0x1d
 3888 02f5 01       		.byte	0x1
 3889 02f6 31       		.uleb128 0x31
 3890 02f7 13       		.uleb128 0x13
 3891 02f8 52       		.uleb128 0x52
 3892 02f9 01       		.uleb128 0x1
 3893 02fa 55       		.uleb128 0x55
 3894 02fb 17       		.uleb128 0x17
 3895 02fc 58       		.uleb128 0x58
 3896 02fd 0B       		.uleb128 0xb
 3897 02fe 59       		.uleb128 0x59
 3898 02ff 0B       		.uleb128 0xb
 3899 0300 00       		.byte	0
 3900 0301 00       		.byte	0
 3901 0302 3A       		.uleb128 0x3a
 3902 0303 2E       		.uleb128 0x2e
 3903 0304 01       		.byte	0x1
 3904 0305 3F       		.uleb128 0x3f
 3905 0306 19       		.uleb128 0x19
 3906 0307 03       		.uleb128 0x3
 3907 0308 0E       		.uleb128 0xe
 3908 0309 3A       		.uleb128 0x3a
 3909 030a 0B       		.uleb128 0xb
 3910 030b 3B       		.uleb128 0x3b
 3911 030c 0B       		.uleb128 0xb
 3912 030d 27       		.uleb128 0x27
 3913 030e 19       		.uleb128 0x19
 3914 030f 49       		.uleb128 0x49
 3915 0310 13       		.uleb128 0x13
 3916 0311 20       		.uleb128 0x20
 3917 0312 0B       		.uleb128 0xb
 3918 0313 01       		.uleb128 0x1
 3919 0314 13       		.uleb128 0x13
 3920 0315 00       		.byte	0
 3921 0316 00       		.byte	0
 3922 0317 3B       		.uleb128 0x3b
 3923 0318 05       		.uleb128 0x5
 3924 0319 00       		.byte	0
 3925 031a 03       		.uleb128 0x3
 3926 031b 08       		.uleb128 0x8
 3927 031c 3A       		.uleb128 0x3a
 3928 031d 0B       		.uleb128 0xb
 3929 031e 3B       		.uleb128 0x3b
 3930 031f 0B       		.uleb128 0xb
 3931 0320 49       		.uleb128 0x49
 3932 0321 13       		.uleb128 0x13
 3933 0322 00       		.byte	0
ARM GAS  /tmp/cc4SeFZS.s 			page 70


 3934 0323 00       		.byte	0
 3935 0324 3C       		.uleb128 0x3c
 3936 0325 2E       		.uleb128 0x2e
 3937 0326 01       		.byte	0x1
 3938 0327 3F       		.uleb128 0x3f
 3939 0328 19       		.uleb128 0x19
 3940 0329 03       		.uleb128 0x3
 3941 032a 0E       		.uleb128 0xe
 3942 032b 3A       		.uleb128 0x3a
 3943 032c 0B       		.uleb128 0xb
 3944 032d 3B       		.uleb128 0x3b
 3945 032e 0B       		.uleb128 0xb
 3946 032f 27       		.uleb128 0x27
 3947 0330 19       		.uleb128 0x19
 3948 0331 11       		.uleb128 0x11
 3949 0332 01       		.uleb128 0x1
 3950 0333 12       		.uleb128 0x12
 3951 0334 06       		.uleb128 0x6
 3952 0335 40       		.uleb128 0x40
 3953 0336 18       		.uleb128 0x18
 3954 0337 9742     		.uleb128 0x2117
 3955 0339 19       		.uleb128 0x19
 3956 033a 01       		.uleb128 0x1
 3957 033b 13       		.uleb128 0x13
 3958 033c 00       		.byte	0
 3959 033d 00       		.byte	0
 3960 033e 3D       		.uleb128 0x3d
 3961 033f 34       		.uleb128 0x34
 3962 0340 00       		.byte	0
 3963 0341 03       		.uleb128 0x3
 3964 0342 08       		.uleb128 0x8
 3965 0343 3A       		.uleb128 0x3a
 3966 0344 0B       		.uleb128 0xb
 3967 0345 3B       		.uleb128 0x3b
 3968 0346 0B       		.uleb128 0xb
 3969 0347 49       		.uleb128 0x49
 3970 0348 13       		.uleb128 0x13
 3971 0349 02       		.uleb128 0x2
 3972 034a 17       		.uleb128 0x17
 3973 034b 00       		.byte	0
 3974 034c 00       		.byte	0
 3975 034d 3E       		.uleb128 0x3e
 3976 034e 898201   		.uleb128 0x4109
 3977 0351 01       		.byte	0x1
 3978 0352 11       		.uleb128 0x11
 3979 0353 01       		.uleb128 0x1
 3980 0354 31       		.uleb128 0x31
 3981 0355 13       		.uleb128 0x13
 3982 0356 01       		.uleb128 0x1
 3983 0357 13       		.uleb128 0x13
 3984 0358 00       		.byte	0
 3985 0359 00       		.byte	0
 3986 035a 3F       		.uleb128 0x3f
 3987 035b 05       		.uleb128 0x5
 3988 035c 00       		.byte	0
 3989 035d 03       		.uleb128 0x3
 3990 035e 08       		.uleb128 0x8
ARM GAS  /tmp/cc4SeFZS.s 			page 71


 3991 035f 3A       		.uleb128 0x3a
 3992 0360 0B       		.uleb128 0xb
 3993 0361 3B       		.uleb128 0x3b
 3994 0362 0B       		.uleb128 0xb
 3995 0363 49       		.uleb128 0x49
 3996 0364 13       		.uleb128 0x13
 3997 0365 02       		.uleb128 0x2
 3998 0366 18       		.uleb128 0x18
 3999 0367 00       		.byte	0
 4000 0368 00       		.byte	0
 4001 0369 40       		.uleb128 0x40
 4002 036a 1D       		.uleb128 0x1d
 4003 036b 01       		.byte	0x1
 4004 036c 31       		.uleb128 0x31
 4005 036d 13       		.uleb128 0x13
 4006 036e 11       		.uleb128 0x11
 4007 036f 01       		.uleb128 0x1
 4008 0370 12       		.uleb128 0x12
 4009 0371 06       		.uleb128 0x6
 4010 0372 58       		.uleb128 0x58
 4011 0373 0B       		.uleb128 0xb
 4012 0374 59       		.uleb128 0x59
 4013 0375 0B       		.uleb128 0xb
 4014 0376 00       		.byte	0
 4015 0377 00       		.byte	0
 4016 0378 41       		.uleb128 0x41
 4017 0379 2E       		.uleb128 0x2e
 4018 037a 01       		.byte	0x1
 4019 037b 03       		.uleb128 0x3
 4020 037c 0E       		.uleb128 0xe
 4021 037d 3A       		.uleb128 0x3a
 4022 037e 0B       		.uleb128 0xb
 4023 037f 3B       		.uleb128 0x3b
 4024 0380 05       		.uleb128 0x5
 4025 0381 27       		.uleb128 0x27
 4026 0382 19       		.uleb128 0x19
 4027 0383 20       		.uleb128 0x20
 4028 0384 0B       		.uleb128 0xb
 4029 0385 01       		.uleb128 0x1
 4030 0386 13       		.uleb128 0x13
 4031 0387 00       		.byte	0
 4032 0388 00       		.byte	0
 4033 0389 42       		.uleb128 0x42
 4034 038a 2E       		.uleb128 0x2e
 4035 038b 00       		.byte	0
 4036 038c 03       		.uleb128 0x3
 4037 038d 0E       		.uleb128 0xe
 4038 038e 3A       		.uleb128 0x3a
 4039 038f 0B       		.uleb128 0xb
 4040 0390 3B       		.uleb128 0x3b
 4041 0391 05       		.uleb128 0x5
 4042 0392 27       		.uleb128 0x27
 4043 0393 19       		.uleb128 0x19
 4044 0394 20       		.uleb128 0x20
 4045 0395 0B       		.uleb128 0xb
 4046 0396 00       		.byte	0
 4047 0397 00       		.byte	0
ARM GAS  /tmp/cc4SeFZS.s 			page 72


 4048 0398 43       		.uleb128 0x43
 4049 0399 2E       		.uleb128 0x2e
 4050 039a 01       		.byte	0x1
 4051 039b 03       		.uleb128 0x3
 4052 039c 0E       		.uleb128 0xe
 4053 039d 3A       		.uleb128 0x3a
 4054 039e 0B       		.uleb128 0xb
 4055 039f 3B       		.uleb128 0x3b
 4056 03a0 05       		.uleb128 0x5
 4057 03a1 27       		.uleb128 0x27
 4058 03a2 19       		.uleb128 0x19
 4059 03a3 49       		.uleb128 0x49
 4060 03a4 13       		.uleb128 0x13
 4061 03a5 20       		.uleb128 0x20
 4062 03a6 0B       		.uleb128 0xb
 4063 03a7 01       		.uleb128 0x1
 4064 03a8 13       		.uleb128 0x13
 4065 03a9 00       		.byte	0
 4066 03aa 00       		.byte	0
 4067 03ab 44       		.uleb128 0x44
 4068 03ac 2E       		.uleb128 0x2e
 4069 03ad 01       		.byte	0x1
 4070 03ae 31       		.uleb128 0x31
 4071 03af 13       		.uleb128 0x13
 4072 03b0 11       		.uleb128 0x11
 4073 03b1 01       		.uleb128 0x1
 4074 03b2 12       		.uleb128 0x12
 4075 03b3 06       		.uleb128 0x6
 4076 03b4 40       		.uleb128 0x40
 4077 03b5 18       		.uleb128 0x18
 4078 03b6 9742     		.uleb128 0x2117
 4079 03b8 19       		.uleb128 0x19
 4080 03b9 01       		.uleb128 0x1
 4081 03ba 13       		.uleb128 0x13
 4082 03bb 00       		.byte	0
 4083 03bc 00       		.byte	0
 4084 03bd 45       		.uleb128 0x45
 4085 03be 898201   		.uleb128 0x4109
 4086 03c1 01       		.byte	0x1
 4087 03c2 11       		.uleb128 0x11
 4088 03c3 01       		.uleb128 0x1
 4089 03c4 9542     		.uleb128 0x2115
 4090 03c6 19       		.uleb128 0x19
 4091 03c7 31       		.uleb128 0x31
 4092 03c8 13       		.uleb128 0x13
 4093 03c9 00       		.byte	0
 4094 03ca 00       		.byte	0
 4095 03cb 46       		.uleb128 0x46
 4096 03cc 2E       		.uleb128 0x2e
 4097 03cd 00       		.byte	0
 4098 03ce 3F       		.uleb128 0x3f
 4099 03cf 19       		.uleb128 0x19
 4100 03d0 3C       		.uleb128 0x3c
 4101 03d1 19       		.uleb128 0x19
 4102 03d2 6E       		.uleb128 0x6e
 4103 03d3 0E       		.uleb128 0xe
 4104 03d4 03       		.uleb128 0x3
ARM GAS  /tmp/cc4SeFZS.s 			page 73


 4105 03d5 0E       		.uleb128 0xe
 4106 03d6 3A       		.uleb128 0x3a
 4107 03d7 0B       		.uleb128 0xb
 4108 03d8 3B       		.uleb128 0x3b
 4109 03d9 05       		.uleb128 0x5
 4110 03da 00       		.byte	0
 4111 03db 00       		.byte	0
 4112 03dc 00       		.byte	0
 4113              		.section	.debug_loc,"",%progbits
 4114              	.Ldebug_loc0:
 4115              	.LLST47:
 4116 0000 00000000 		.4byte	.LVL81
 4117 0004 14000000 		.4byte	.LVL83
 4118 0008 0100     		.2byte	0x1
 4119 000a 50       		.byte	0x50
 4120 000b 14000000 		.4byte	.LVL83
 4121 000f 50000000 		.4byte	.LVL93
 4122 0013 0400     		.2byte	0x4
 4123 0015 F3       		.byte	0xf3
 4124 0016 01       		.uleb128 0x1
 4125 0017 50       		.byte	0x50
 4126 0018 9F       		.byte	0x9f
 4127 0019 50000000 		.4byte	.LVL93
 4128 001d 54000000 		.4byte	.LVL94
 4129 0021 0100     		.2byte	0x1
 4130 0023 50       		.byte	0x50
 4131 0024 54000000 		.4byte	.LVL94
 4132 0028 5F000000 		.4byte	.LVL97-1
 4133 002c 0100     		.2byte	0x1
 4134 002e 52       		.byte	0x52
 4135 002f 5F000000 		.4byte	.LVL97-1
 4136 0033 6C000000 		.4byte	.LFE237
 4137 0037 0400     		.2byte	0x4
 4138 0039 F3       		.byte	0xf3
 4139 003a 01       		.uleb128 0x1
 4140 003b 50       		.byte	0x50
 4141 003c 9F       		.byte	0x9f
 4142 003d 00000000 		.4byte	0
 4143 0041 00000000 		.4byte	0
 4144              	.LLST48:
 4145 0045 00000000 		.4byte	.LVL81
 4146 0049 14000000 		.4byte	.LVL83
 4147 004d 0100     		.2byte	0x1
 4148 004f 51       		.byte	0x51
 4149 0050 14000000 		.4byte	.LVL83
 4150 0054 50000000 		.4byte	.LVL93
 4151 0058 0400     		.2byte	0x4
 4152 005a F3       		.byte	0xf3
 4153 005b 01       		.uleb128 0x1
 4154 005c 51       		.byte	0x51
 4155 005d 9F       		.byte	0x9f
 4156 005e 50000000 		.4byte	.LVL93
 4157 0062 5F000000 		.4byte	.LVL97-1
 4158 0066 0100     		.2byte	0x1
 4159 0068 51       		.byte	0x51
 4160 0069 5F000000 		.4byte	.LVL97-1
 4161 006d 6C000000 		.4byte	.LFE237
ARM GAS  /tmp/cc4SeFZS.s 			page 74


 4162 0071 0200     		.2byte	0x2
 4163 0073 91       		.byte	0x91
 4164 0074 74       		.sleb128 -12
 4165 0075 00000000 		.4byte	0
 4166 0079 00000000 		.4byte	0
 4167              	.LLST49:
 4168 007d 22000000 		.4byte	.LVL84
 4169 0081 24000000 		.4byte	.LVL85
 4170 0085 0200     		.2byte	0x2
 4171 0087 30       		.byte	0x30
 4172 0088 9F       		.byte	0x9f
 4173 0089 24000000 		.4byte	.LVL85
 4174 008d 2E000000 		.4byte	.LVL87
 4175 0091 0100     		.2byte	0x1
 4176 0093 50       		.byte	0x50
 4177 0094 46000000 		.4byte	.LVL91
 4178 0098 50000000 		.4byte	.LVL93
 4179 009c 0100     		.2byte	0x1
 4180 009e 50       		.byte	0x50
 4181 009f 00000000 		.4byte	0
 4182 00a3 00000000 		.4byte	0
 4183              	.LLST52:
 4184 00a7 34000000 		.4byte	.LVL88
 4185 00ab 50000000 		.4byte	.LVL93
 4186 00af 0100     		.2byte	0x1
 4187 00b1 54       		.byte	0x54
 4188 00b2 00000000 		.4byte	0
 4189 00b6 00000000 		.4byte	0
 4190              	.LLST53:
 4191 00ba 34000000 		.4byte	.LVL88
 4192 00be 3E000000 		.4byte	.LVL89
 4193 00c2 0100     		.2byte	0x1
 4194 00c4 51       		.byte	0x51
 4195 00c5 00000000 		.4byte	0
 4196 00c9 00000000 		.4byte	0
 4197              	.LLST54:
 4198 00cd 34000000 		.4byte	.LVL88
 4199 00d1 3E000000 		.4byte	.LVL89
 4200 00d5 0100     		.2byte	0x1
 4201 00d7 54       		.byte	0x54
 4202 00d8 00000000 		.4byte	0
 4203 00dc 00000000 		.4byte	0
 4204              	.LLST50:
 4205 00e0 00000000 		.4byte	.LVL81
 4206 00e4 0A000000 		.4byte	.LVL82
 4207 00e8 0300     		.2byte	0x3
 4208 00ea 08       		.byte	0x8
 4209 00eb 20       		.byte	0x20
 4210 00ec 9F       		.byte	0x9f
 4211 00ed 00000000 		.4byte	0
 4212 00f1 00000000 		.4byte	0
 4213              	.LLST51:
 4214 00f5 24000000 		.4byte	.LVL85
 4215 00f9 2A000000 		.4byte	.LVL86
 4216 00fd 0200     		.2byte	0x2
 4217 00ff 30       		.byte	0x30
 4218 0100 9F       		.byte	0x9f
ARM GAS  /tmp/cc4SeFZS.s 			page 75


 4219 0101 46000000 		.4byte	.LVL91
 4220 0105 4C000000 		.4byte	.LVL92
 4221 0109 0200     		.2byte	0x2
 4222 010b 30       		.byte	0x30
 4223 010c 9F       		.byte	0x9f
 4224 010d 00000000 		.4byte	0
 4225 0111 00000000 		.4byte	0
 4226              	.LLST55:
 4227 0115 56000000 		.4byte	.LVL95
 4228 0119 5C000000 		.4byte	.LVL96
 4229 011d 0100     		.2byte	0x1
 4230 011f 50       		.byte	0x50
 4231 0120 00000000 		.4byte	0
 4232 0124 00000000 		.4byte	0
 4233              	.LLST43:
 4234 0128 00000000 		.4byte	.LVL70
 4235 012c 0C000000 		.4byte	.LVL71
 4236 0130 0100     		.2byte	0x1
 4237 0132 50       		.byte	0x50
 4238 0133 0C000000 		.4byte	.LVL71
 4239 0137 2C000000 		.4byte	.LVL80
 4240 013b 0100     		.2byte	0x1
 4241 013d 55       		.byte	0x55
 4242 013e 2C000000 		.4byte	.LVL80
 4243 0142 2E000000 		.4byte	.LFE236
 4244 0146 0400     		.2byte	0x4
 4245 0148 F3       		.byte	0xf3
 4246 0149 01       		.uleb128 0x1
 4247 014a 50       		.byte	0x50
 4248 014b 9F       		.byte	0x9f
 4249 014c 00000000 		.4byte	0
 4250 0150 00000000 		.4byte	0
 4251              	.LLST44:
 4252 0154 00000000 		.4byte	.LVL70
 4253 0158 0C000000 		.4byte	.LVL71
 4254 015c 0100     		.2byte	0x1
 4255 015e 51       		.byte	0x51
 4256 015f 0C000000 		.4byte	.LVL71
 4257 0163 0E000000 		.4byte	.LVL72
 4258 0167 0300     		.2byte	0x3
 4259 0169 74       		.byte	0x74
 4260 016a 7F       		.sleb128 -1
 4261 016b 9F       		.byte	0x9f
 4262 016c 0E000000 		.4byte	.LVL72
 4263 0170 28000000 		.4byte	.LVL78
 4264 0174 0100     		.2byte	0x1
 4265 0176 54       		.byte	0x54
 4266 0177 28000000 		.4byte	.LVL78
 4267 017b 2A000000 		.4byte	.LVL79
 4268 017f 0300     		.2byte	0x3
 4269 0181 74       		.byte	0x74
 4270 0182 01       		.sleb128 1
 4271 0183 9F       		.byte	0x9f
 4272 0184 00000000 		.4byte	0
 4273 0188 00000000 		.4byte	0
 4274              	.LLST45:
 4275 018c 1A000000 		.4byte	.LVL74
ARM GAS  /tmp/cc4SeFZS.s 			page 76


 4276 0190 22000000 		.4byte	.LVL76
 4277 0194 0100     		.2byte	0x1
 4278 0196 55       		.byte	0x55
 4279 0197 00000000 		.4byte	0
 4280 019b 00000000 		.4byte	0
 4281              	.LLST46:
 4282 019f 1C000000 		.4byte	.LVL75
 4283 01a3 22000000 		.4byte	.LVL76
 4284 01a7 0100     		.2byte	0x1
 4285 01a9 50       		.byte	0x50
 4286 01aa 00000000 		.4byte	0
 4287 01ae 00000000 		.4byte	0
 4288              	.LLST40:
 4289 01b2 00000000 		.4byte	.LVL63
 4290 01b6 18000000 		.4byte	.LVL67
 4291 01ba 0100     		.2byte	0x1
 4292 01bc 50       		.byte	0x50
 4293 01bd 18000000 		.4byte	.LVL67
 4294 01c1 1A000000 		.4byte	.LVL68
 4295 01c5 0200     		.2byte	0x2
 4296 01c7 72       		.byte	0x72
 4297 01c8 04       		.sleb128 4
 4298 01c9 1A000000 		.4byte	.LVL68
 4299 01cd 1E000000 		.4byte	.LFE235
 4300 01d1 0400     		.2byte	0x4
 4301 01d3 F3       		.byte	0xf3
 4302 01d4 01       		.uleb128 0x1
 4303 01d5 50       		.byte	0x50
 4304 01d6 9F       		.byte	0x9f
 4305 01d7 00000000 		.4byte	0
 4306 01db 00000000 		.4byte	0
 4307              	.LLST41:
 4308 01df 0C000000 		.4byte	.LVL64
 4309 01e3 16000000 		.4byte	.LVL66
 4310 01e7 0100     		.2byte	0x1
 4311 01e9 50       		.byte	0x50
 4312 01ea 00000000 		.4byte	0
 4313 01ee 00000000 		.4byte	0
 4314              	.LLST42:
 4315 01f2 0E000000 		.4byte	.LVL65
 4316 01f6 16000000 		.4byte	.LVL66
 4317 01fa 0100     		.2byte	0x1
 4318 01fc 53       		.byte	0x53
 4319 01fd 00000000 		.4byte	0
 4320 0201 00000000 		.4byte	0
 4321              	.LLST35:
 4322 0205 00000000 		.4byte	.LVL54
 4323 0209 1E000000 		.4byte	.LVL59
 4324 020d 0100     		.2byte	0x1
 4325 020f 50       		.byte	0x50
 4326 0210 1E000000 		.4byte	.LVL59
 4327 0214 29000000 		.4byte	.LVL61-1
 4328 0218 0100     		.2byte	0x1
 4329 021a 53       		.byte	0x53
 4330 021b 29000000 		.4byte	.LVL61-1
 4331 021f 32000000 		.4byte	.LFE234
 4332 0223 0400     		.2byte	0x4
ARM GAS  /tmp/cc4SeFZS.s 			page 77


 4333 0225 F3       		.byte	0xf3
 4334 0226 01       		.uleb128 0x1
 4335 0227 50       		.byte	0x50
 4336 0228 9F       		.byte	0x9f
 4337 0229 00000000 		.4byte	0
 4338 022d 00000000 		.4byte	0
 4339              	.LLST36:
 4340 0231 00000000 		.4byte	.LVL54
 4341 0235 08000000 		.4byte	.LVL55
 4342 0239 0300     		.2byte	0x3
 4343 023b 08       		.byte	0x8
 4344 023c 20       		.byte	0x20
 4345 023d 9F       		.byte	0x9f
 4346 023e 00000000 		.4byte	0
 4347 0242 00000000 		.4byte	0
 4348              	.LLST37:
 4349 0246 12000000 		.4byte	.LVL56
 4350 024a 18000000 		.4byte	.LVL57
 4351 024e 0200     		.2byte	0x2
 4352 0250 30       		.byte	0x30
 4353 0251 9F       		.byte	0x9f
 4354 0252 2A000000 		.4byte	.LVL61
 4355 0256 30000000 		.4byte	.LVL62
 4356 025a 0200     		.2byte	0x2
 4357 025c 30       		.byte	0x30
 4358 025d 9F       		.byte	0x9f
 4359 025e 00000000 		.4byte	0
 4360 0262 00000000 		.4byte	0
 4361              	.LLST38:
 4362 0266 1C000000 		.4byte	.LVL58
 4363 026a 26000000 		.4byte	.LVL60
 4364 026e 0100     		.2byte	0x1
 4365 0270 53       		.byte	0x53
 4366 0271 00000000 		.4byte	0
 4367 0275 00000000 		.4byte	0
 4368              	.LLST39:
 4369 0279 1E000000 		.4byte	.LVL59
 4370 027d 26000000 		.4byte	.LVL60
 4371 0281 0100     		.2byte	0x1
 4372 0283 50       		.byte	0x50
 4373 0284 00000000 		.4byte	0
 4374 0288 00000000 		.4byte	0
 4375              	.LLST21:
 4376 028c 00000000 		.4byte	.LVL36
 4377 0290 12000000 		.4byte	.LVL38
 4378 0294 0100     		.2byte	0x1
 4379 0296 50       		.byte	0x50
 4380 0297 12000000 		.4byte	.LVL38
 4381 029b 1A000000 		.4byte	.LVL40
 4382 029f 0400     		.2byte	0x4
 4383 02a1 F3       		.byte	0xf3
 4384 02a2 01       		.uleb128 0x1
 4385 02a3 50       		.byte	0x50
 4386 02a4 9F       		.byte	0x9f
 4387 02a5 1A000000 		.4byte	.LVL40
 4388 02a9 2E000000 		.4byte	.LVL42
 4389 02ad 0100     		.2byte	0x1
ARM GAS  /tmp/cc4SeFZS.s 			page 78


 4390 02af 50       		.byte	0x50
 4391 02b0 2E000000 		.4byte	.LVL42
 4392 02b4 35000000 		.4byte	.LVL44-1
 4393 02b8 0100     		.2byte	0x1
 4394 02ba 53       		.byte	0x53
 4395 02bb 35000000 		.4byte	.LVL44-1
 4396 02bf 3E000000 		.4byte	.LVL46
 4397 02c3 0400     		.2byte	0x4
 4398 02c5 F3       		.byte	0xf3
 4399 02c6 01       		.uleb128 0x1
 4400 02c7 50       		.byte	0x50
 4401 02c8 9F       		.byte	0x9f
 4402 02c9 3E000000 		.4byte	.LVL46
 4403 02cd 44000000 		.4byte	.LVL47
 4404 02d1 0100     		.2byte	0x1
 4405 02d3 50       		.byte	0x50
 4406 02d4 44000000 		.4byte	.LVL47
 4407 02d8 4C000000 		.4byte	.LFE232
 4408 02dc 0400     		.2byte	0x4
 4409 02de F3       		.byte	0xf3
 4410 02df 01       		.uleb128 0x1
 4411 02e0 50       		.byte	0x50
 4412 02e1 9F       		.byte	0x9f
 4413 02e2 00000000 		.4byte	0
 4414 02e6 00000000 		.4byte	0
 4415              	.LLST22:
 4416 02ea 00000000 		.4byte	.LVL36
 4417 02ee 35000000 		.4byte	.LVL44-1
 4418 02f2 0100     		.2byte	0x1
 4419 02f4 51       		.byte	0x51
 4420 02f5 35000000 		.4byte	.LVL44-1
 4421 02f9 3E000000 		.4byte	.LVL46
 4422 02fd 0400     		.2byte	0x4
 4423 02ff F3       		.byte	0xf3
 4424 0300 01       		.uleb128 0x1
 4425 0301 51       		.byte	0x51
 4426 0302 9F       		.byte	0x9f
 4427 0303 3E000000 		.4byte	.LVL46
 4428 0307 4C000000 		.4byte	.LFE232
 4429 030b 0100     		.2byte	0x1
 4430 030d 51       		.byte	0x51
 4431 030e 00000000 		.4byte	0
 4432 0312 00000000 		.4byte	0
 4433              	.LLST23:
 4434 0316 00000000 		.4byte	.LVL36
 4435 031a 06000000 		.4byte	.LVL37
 4436 031e 0300     		.2byte	0x3
 4437 0320 08       		.byte	0x8
 4438 0321 20       		.byte	0x20
 4439 0322 9F       		.byte	0x9f
 4440 0323 00000000 		.4byte	0
 4441 0327 00000000 		.4byte	0
 4442              	.LLST24:
 4443 032b 06000000 		.4byte	.LVL37
 4444 032f 12000000 		.4byte	.LVL38
 4445 0333 0100     		.2byte	0x1
 4446 0335 51       		.byte	0x51
ARM GAS  /tmp/cc4SeFZS.s 			page 79


 4447 0336 1A000000 		.4byte	.LVL40
 4448 033a 35000000 		.4byte	.LVL44-1
 4449 033e 0100     		.2byte	0x1
 4450 0340 51       		.byte	0x51
 4451 0341 35000000 		.4byte	.LVL44-1
 4452 0345 36000000 		.4byte	.LVL44
 4453 0349 0400     		.2byte	0x4
 4454 034b F3       		.byte	0xf3
 4455 034c 01       		.uleb128 0x1
 4456 034d 51       		.byte	0x51
 4457 034e 9F       		.byte	0x9f
 4458 034f 3E000000 		.4byte	.LVL46
 4459 0353 4C000000 		.4byte	.LFE232
 4460 0357 0100     		.2byte	0x1
 4461 0359 51       		.byte	0x51
 4462 035a 00000000 		.4byte	0
 4463 035e 00000000 		.4byte	0
 4464              	.LLST25:
 4465 0362 06000000 		.4byte	.LVL37
 4466 0366 12000000 		.4byte	.LVL38
 4467 036a 0100     		.2byte	0x1
 4468 036c 50       		.byte	0x50
 4469 036d 1A000000 		.4byte	.LVL40
 4470 0371 2E000000 		.4byte	.LVL42
 4471 0375 0100     		.2byte	0x1
 4472 0377 50       		.byte	0x50
 4473 0378 2E000000 		.4byte	.LVL42
 4474 037c 35000000 		.4byte	.LVL44-1
 4475 0380 0100     		.2byte	0x1
 4476 0382 53       		.byte	0x53
 4477 0383 35000000 		.4byte	.LVL44-1
 4478 0387 36000000 		.4byte	.LVL44
 4479 038b 0400     		.2byte	0x4
 4480 038d F3       		.byte	0xf3
 4481 038e 01       		.uleb128 0x1
 4482 038f 50       		.byte	0x50
 4483 0390 9F       		.byte	0x9f
 4484 0391 3E000000 		.4byte	.LVL46
 4485 0395 44000000 		.4byte	.LVL47
 4486 0399 0100     		.2byte	0x1
 4487 039b 50       		.byte	0x50
 4488 039c 44000000 		.4byte	.LVL47
 4489 03a0 4C000000 		.4byte	.LFE232
 4490 03a4 0400     		.2byte	0x4
 4491 03a6 F3       		.byte	0xf3
 4492 03a7 01       		.uleb128 0x1
 4493 03a8 50       		.byte	0x50
 4494 03a9 9F       		.byte	0x9f
 4495 03aa 00000000 		.4byte	0
 4496 03ae 00000000 		.4byte	0
 4497              	.LLST26:
 4498 03b2 28000000 		.4byte	.LVL41
 4499 03b6 35000000 		.4byte	.LVL44-1
 4500 03ba 0100     		.2byte	0x1
 4501 03bc 53       		.byte	0x53
 4502 03bd 35000000 		.4byte	.LVL44-1
 4503 03c1 36000000 		.4byte	.LVL44
ARM GAS  /tmp/cc4SeFZS.s 			page 80


 4504 03c5 0400     		.2byte	0x4
 4505 03c7 F3       		.byte	0xf3
 4506 03c8 01       		.uleb128 0x1
 4507 03c9 50       		.byte	0x50
 4508 03ca 9F       		.byte	0x9f
 4509 03cb 00000000 		.4byte	0
 4510 03cf 00000000 		.4byte	0
 4511              	.LLST27:
 4512 03d3 28000000 		.4byte	.LVL41
 4513 03d7 32000000 		.4byte	.LVL43
 4514 03db 0100     		.2byte	0x1
 4515 03dd 53       		.byte	0x53
 4516 03de 00000000 		.4byte	0
 4517 03e2 00000000 		.4byte	0
 4518              	.LLST28:
 4519 03e6 28000000 		.4byte	.LVL41
 4520 03ea 32000000 		.4byte	.LVL43
 4521 03ee 0100     		.2byte	0x1
 4522 03f0 52       		.byte	0x52
 4523 03f1 00000000 		.4byte	0
 4524 03f5 00000000 		.4byte	0
 4525              	.LLST29:
 4526 03f9 12000000 		.4byte	.LVL38
 4527 03fd 18000000 		.4byte	.LVL39
 4528 0401 0200     		.2byte	0x2
 4529 0403 30       		.byte	0x30
 4530 0404 9F       		.byte	0x9f
 4531 0405 36000000 		.4byte	.LVL44
 4532 0409 3C000000 		.4byte	.LVL45
 4533 040d 0200     		.2byte	0x2
 4534 040f 30       		.byte	0x30
 4535 0410 9F       		.byte	0x9f
 4536 0411 00000000 		.4byte	0
 4537 0415 00000000 		.4byte	0
 4538              	.LLST10:
 4539 0419 00000000 		.4byte	.LVL17
 4540 041d 12000000 		.4byte	.LVL19
 4541 0421 0100     		.2byte	0x1
 4542 0423 50       		.byte	0x50
 4543 0424 12000000 		.4byte	.LVL19
 4544 0428 1A000000 		.4byte	.LVL21
 4545 042c 0400     		.2byte	0x4
 4546 042e F3       		.byte	0xf3
 4547 042f 01       		.uleb128 0x1
 4548 0430 50       		.byte	0x50
 4549 0431 9F       		.byte	0x9f
 4550 0432 1A000000 		.4byte	.LVL21
 4551 0436 2E000000 		.4byte	.LVL23
 4552 043a 0100     		.2byte	0x1
 4553 043c 50       		.byte	0x50
 4554 043d 2E000000 		.4byte	.LVL23
 4555 0441 33000000 		.4byte	.LVL25-1
 4556 0445 0100     		.2byte	0x1
 4557 0447 53       		.byte	0x53
 4558 0448 33000000 		.4byte	.LVL25-1
 4559 044c 44000000 		.4byte	.LFE230
 4560 0450 0400     		.2byte	0x4
ARM GAS  /tmp/cc4SeFZS.s 			page 81


 4561 0452 F3       		.byte	0xf3
 4562 0453 01       		.uleb128 0x1
 4563 0454 50       		.byte	0x50
 4564 0455 9F       		.byte	0x9f
 4565 0456 00000000 		.4byte	0
 4566 045a 00000000 		.4byte	0
 4567              	.LLST11:
 4568 045e 00000000 		.4byte	.LVL17
 4569 0462 06000000 		.4byte	.LVL18
 4570 0466 0300     		.2byte	0x3
 4571 0468 08       		.byte	0x8
 4572 0469 20       		.byte	0x20
 4573 046a 9F       		.byte	0x9f
 4574 046b 00000000 		.4byte	0
 4575 046f 00000000 		.4byte	0
 4576              	.LLST12:
 4577 0473 06000000 		.4byte	.LVL18
 4578 0477 12000000 		.4byte	.LVL19
 4579 047b 0100     		.2byte	0x1
 4580 047d 50       		.byte	0x50
 4581 047e 1A000000 		.4byte	.LVL21
 4582 0482 2E000000 		.4byte	.LVL23
 4583 0486 0100     		.2byte	0x1
 4584 0488 50       		.byte	0x50
 4585 0489 2E000000 		.4byte	.LVL23
 4586 048d 33000000 		.4byte	.LVL25-1
 4587 0491 0100     		.2byte	0x1
 4588 0493 53       		.byte	0x53
 4589 0494 33000000 		.4byte	.LVL25-1
 4590 0498 38000000 		.4byte	.LVL26
 4591 049c 0400     		.2byte	0x4
 4592 049e F3       		.byte	0xf3
 4593 049f 01       		.uleb128 0x1
 4594 04a0 50       		.byte	0x50
 4595 04a1 9F       		.byte	0x9f
 4596 04a2 00000000 		.4byte	0
 4597 04a6 00000000 		.4byte	0
 4598              	.LLST13:
 4599 04aa 28000000 		.4byte	.LVL22
 4600 04ae 33000000 		.4byte	.LVL25-1
 4601 04b2 0100     		.2byte	0x1
 4602 04b4 53       		.byte	0x53
 4603 04b5 33000000 		.4byte	.LVL25-1
 4604 04b9 38000000 		.4byte	.LVL26
 4605 04bd 0400     		.2byte	0x4
 4606 04bf F3       		.byte	0xf3
 4607 04c0 01       		.uleb128 0x1
 4608 04c1 50       		.byte	0x50
 4609 04c2 9F       		.byte	0x9f
 4610 04c3 00000000 		.4byte	0
 4611 04c7 00000000 		.4byte	0
 4612              	.LLST14:
 4613 04cb 28000000 		.4byte	.LVL22
 4614 04cf 30000000 		.4byte	.LVL24
 4615 04d3 0100     		.2byte	0x1
 4616 04d5 53       		.byte	0x53
 4617 04d6 00000000 		.4byte	0
ARM GAS  /tmp/cc4SeFZS.s 			page 82


 4618 04da 00000000 		.4byte	0
 4619              	.LLST15:
 4620 04de 28000000 		.4byte	.LVL22
 4621 04e2 30000000 		.4byte	.LVL24
 4622 04e6 0100     		.2byte	0x1
 4623 04e8 52       		.byte	0x52
 4624 04e9 00000000 		.4byte	0
 4625 04ed 00000000 		.4byte	0
 4626              	.LLST16:
 4627 04f1 12000000 		.4byte	.LVL19
 4628 04f5 18000000 		.4byte	.LVL20
 4629 04f9 0200     		.2byte	0x2
 4630 04fb 30       		.byte	0x30
 4631 04fc 9F       		.byte	0x9f
 4632 04fd 38000000 		.4byte	.LVL26
 4633 0501 3E000000 		.4byte	.LVL27
 4634 0505 0200     		.2byte	0x2
 4635 0507 30       		.byte	0x30
 4636 0508 9F       		.byte	0x9f
 4637 0509 00000000 		.4byte	0
 4638 050d 00000000 		.4byte	0
 4639              	.LLST1:
 4640 0511 00000000 		.4byte	.LVL2
 4641 0515 12000000 		.4byte	.LVL5
 4642 0519 0100     		.2byte	0x1
 4643 051b 50       		.byte	0x50
 4644 051c 12000000 		.4byte	.LVL5
 4645 0520 26000000 		.4byte	.LVL11
 4646 0524 0100     		.2byte	0x1
 4647 0526 54       		.byte	0x54
 4648 0527 26000000 		.4byte	.LVL11
 4649 052b 28000000 		.4byte	.LFE229
 4650 052f 0400     		.2byte	0x4
 4651 0531 F3       		.byte	0xf3
 4652 0532 01       		.uleb128 0x1
 4653 0533 50       		.byte	0x50
 4654 0534 9F       		.byte	0x9f
 4655 0535 00000000 		.4byte	0
 4656 0539 00000000 		.4byte	0
 4657              	.LLST2:
 4658 053d 00000000 		.4byte	.LVL2
 4659 0541 12000000 		.4byte	.LVL5
 4660 0545 0100     		.2byte	0x1
 4661 0547 51       		.byte	0x51
 4662 0548 12000000 		.4byte	.LVL5
 4663 054c 28000000 		.4byte	.LFE229
 4664 0550 0400     		.2byte	0x4
 4665 0552 F3       		.byte	0xf3
 4666 0553 01       		.uleb128 0x1
 4667 0554 51       		.byte	0x51
 4668 0555 9F       		.byte	0x9f
 4669 0556 00000000 		.4byte	0
 4670 055a 00000000 		.4byte	0
 4671              	.LLST3:
 4672 055e 04000000 		.4byte	.LVL3
 4673 0562 20000000 		.4byte	.LVL9
 4674 0566 0100     		.2byte	0x1
ARM GAS  /tmp/cc4SeFZS.s 			page 83


 4675 0568 55       		.byte	0x55
 4676 0569 20000000 		.4byte	.LVL9
 4677 056d 24000000 		.4byte	.LVL10
 4678 0571 0300     		.2byte	0x3
 4679 0573 75       		.byte	0x75
 4680 0574 7F       		.sleb128 -1
 4681 0575 9F       		.byte	0x9f
 4682 0576 24000000 		.4byte	.LVL10
 4683 057a 28000000 		.4byte	.LFE229
 4684 057e 0100     		.2byte	0x1
 4685 0580 55       		.byte	0x55
 4686 0581 00000000 		.4byte	0
 4687 0585 00000000 		.4byte	0
 4688              	.LLST4:
 4689 0589 12000000 		.4byte	.LVL5
 4690 058d 1A000000 		.4byte	.LVL7
 4691 0591 0100     		.2byte	0x1
 4692 0593 54       		.byte	0x54
 4693 0594 00000000 		.4byte	0
 4694 0598 00000000 		.4byte	0
 4695              	.LLST5:
 4696 059c 14000000 		.4byte	.LVL6
 4697 05a0 1A000000 		.4byte	.LVL7
 4698 05a4 0100     		.2byte	0x1
 4699 05a6 50       		.byte	0x50
 4700 05a7 00000000 		.4byte	0
 4701 05ab 00000000 		.4byte	0
 4702              	.LLST6:
 4703 05af 00000000 		.4byte	.LVL12
 4704 05b3 0B000000 		.4byte	.LVL14-1
 4705 05b7 0100     		.2byte	0x1
 4706 05b9 50       		.byte	0x50
 4707 05ba 0B000000 		.4byte	.LVL14-1
 4708 05be 18000000 		.4byte	.LFE228
 4709 05c2 0400     		.2byte	0x4
 4710 05c4 F3       		.byte	0xf3
 4711 05c5 01       		.uleb128 0x1
 4712 05c6 50       		.byte	0x50
 4713 05c7 9F       		.byte	0x9f
 4714 05c8 00000000 		.4byte	0
 4715 05cc 00000000 		.4byte	0
 4716              	.LLST7:
 4717 05d0 00000000 		.4byte	.LVL12
 4718 05d4 0B000000 		.4byte	.LVL14-1
 4719 05d8 0100     		.2byte	0x1
 4720 05da 51       		.byte	0x51
 4721 05db 0B000000 		.4byte	.LVL14-1
 4722 05df 18000000 		.4byte	.LFE228
 4723 05e3 0400     		.2byte	0x4
 4724 05e5 F3       		.byte	0xf3
 4725 05e6 01       		.uleb128 0x1
 4726 05e7 51       		.byte	0x51
 4727 05e8 9F       		.byte	0x9f
 4728 05e9 00000000 		.4byte	0
 4729 05ed 00000000 		.4byte	0
 4730              	.LLST8:
 4731 05f1 00000000 		.4byte	.LVL12
ARM GAS  /tmp/cc4SeFZS.s 			page 84


 4732 05f5 08000000 		.4byte	.LVL13
 4733 05f9 0300     		.2byte	0x3
 4734 05fb 08       		.byte	0x8
 4735 05fc 20       		.byte	0x20
 4736 05fd 9F       		.byte	0x9f
 4737 05fe 00000000 		.4byte	0
 4738 0602 00000000 		.4byte	0
 4739              	.LLST9:
 4740 0606 10000000 		.4byte	.LVL15
 4741 060a 16000000 		.4byte	.LVL16
 4742 060e 0200     		.2byte	0x2
 4743 0610 30       		.byte	0x30
 4744 0611 9F       		.byte	0x9f
 4745 0612 00000000 		.4byte	0
 4746 0616 00000000 		.4byte	0
 4747              	.LLST0:
 4748 061a 00000000 		.4byte	.LVL0
 4749 061e 04000000 		.4byte	.LVL1
 4750 0622 0100     		.2byte	0x1
 4751 0624 50       		.byte	0x50
 4752 0625 00000000 		.4byte	0
 4753 0629 00000000 		.4byte	0
 4754              	.LLST17:
 4755 062d 00000000 		.4byte	.LVL28
 4756 0631 0C000000 		.4byte	.LVL29
 4757 0635 0100     		.2byte	0x1
 4758 0637 50       		.byte	0x50
 4759 0638 0C000000 		.4byte	.LVL29
 4760 063c 0E000000 		.4byte	.LVL30
 4761 0640 0400     		.2byte	0x4
 4762 0642 F3       		.byte	0xf3
 4763 0643 01       		.uleb128 0x1
 4764 0644 50       		.byte	0x50
 4765 0645 9F       		.byte	0x9f
 4766 0646 0E000000 		.4byte	.LVL30
 4767 064a 22000000 		.4byte	.LVL32
 4768 064e 0100     		.2byte	0x1
 4769 0650 50       		.byte	0x50
 4770 0651 22000000 		.4byte	.LVL32
 4771 0655 27000000 		.4byte	.LVL34-1
 4772 0659 0100     		.2byte	0x1
 4773 065b 53       		.byte	0x53
 4774 065c 27000000 		.4byte	.LVL34-1
 4775 0660 34000000 		.4byte	.LFE231
 4776 0664 0400     		.2byte	0x4
 4777 0666 F3       		.byte	0xf3
 4778 0667 01       		.uleb128 0x1
 4779 0668 50       		.byte	0x50
 4780 0669 9F       		.byte	0x9f
 4781 066a 00000000 		.4byte	0
 4782 066e 00000000 		.4byte	0
 4783              	.LLST18:
 4784 0672 1C000000 		.4byte	.LVL31
 4785 0676 27000000 		.4byte	.LVL34-1
 4786 067a 0100     		.2byte	0x1
 4787 067c 53       		.byte	0x53
 4788 067d 27000000 		.4byte	.LVL34-1
ARM GAS  /tmp/cc4SeFZS.s 			page 85


 4789 0681 2C000000 		.4byte	.LVL35
 4790 0685 0400     		.2byte	0x4
 4791 0687 F3       		.byte	0xf3
 4792 0688 01       		.uleb128 0x1
 4793 0689 50       		.byte	0x50
 4794 068a 9F       		.byte	0x9f
 4795 068b 00000000 		.4byte	0
 4796 068f 00000000 		.4byte	0
 4797              	.LLST19:
 4798 0693 1C000000 		.4byte	.LVL31
 4799 0697 24000000 		.4byte	.LVL33
 4800 069b 0100     		.2byte	0x1
 4801 069d 53       		.byte	0x53
 4802 069e 00000000 		.4byte	0
 4803 06a2 00000000 		.4byte	0
 4804              	.LLST20:
 4805 06a6 1C000000 		.4byte	.LVL31
 4806 06aa 24000000 		.4byte	.LVL33
 4807 06ae 0100     		.2byte	0x1
 4808 06b0 52       		.byte	0x52
 4809 06b1 00000000 		.4byte	0
 4810 06b5 00000000 		.4byte	0
 4811              	.LLST30:
 4812 06b9 00000000 		.4byte	.LVL48
 4813 06bd 04000000 		.4byte	.LVL49
 4814 06c1 0100     		.2byte	0x1
 4815 06c3 50       		.byte	0x50
 4816 06c4 04000000 		.4byte	.LVL49
 4817 06c8 2B000000 		.4byte	.LVL53-1
 4818 06cc 0100     		.2byte	0x1
 4819 06ce 53       		.byte	0x53
 4820 06cf 2B000000 		.4byte	.LVL53-1
 4821 06d3 2C000000 		.4byte	.LVL53
 4822 06d7 0400     		.2byte	0x4
 4823 06d9 F3       		.byte	0xf3
 4824 06da 01       		.uleb128 0x1
 4825 06db 50       		.byte	0x50
 4826 06dc 9F       		.byte	0x9f
 4827 06dd 2C000000 		.4byte	.LVL53
 4828 06e1 3C000000 		.4byte	.LFE233
 4829 06e5 0100     		.2byte	0x1
 4830 06e7 53       		.byte	0x53
 4831 06e8 00000000 		.4byte	0
 4832 06ec 00000000 		.4byte	0
 4833              	.LLST31:
 4834 06f0 00000000 		.4byte	.LVL48
 4835 06f4 2B000000 		.4byte	.LVL53-1
 4836 06f8 0100     		.2byte	0x1
 4837 06fa 51       		.byte	0x51
 4838 06fb 2B000000 		.4byte	.LVL53-1
 4839 06ff 2C000000 		.4byte	.LVL53
 4840 0703 0400     		.2byte	0x4
 4841 0705 F3       		.byte	0xf3
 4842 0706 01       		.uleb128 0x1
 4843 0707 51       		.byte	0x51
 4844 0708 9F       		.byte	0x9f
 4845 0709 2C000000 		.4byte	.LVL53
ARM GAS  /tmp/cc4SeFZS.s 			page 86


 4846 070d 3C000000 		.4byte	.LFE233
 4847 0711 0100     		.2byte	0x1
 4848 0713 51       		.byte	0x51
 4849 0714 00000000 		.4byte	0
 4850 0718 00000000 		.4byte	0
 4851              	.LLST32:
 4852 071c 14000000 		.4byte	.LVL50
 4853 0720 2B000000 		.4byte	.LVL53-1
 4854 0724 0100     		.2byte	0x1
 4855 0726 53       		.byte	0x53
 4856 0727 2B000000 		.4byte	.LVL53-1
 4857 072b 2C000000 		.4byte	.LVL53
 4858 072f 0400     		.2byte	0x4
 4859 0731 F3       		.byte	0xf3
 4860 0732 01       		.uleb128 0x1
 4861 0733 50       		.byte	0x50
 4862 0734 9F       		.byte	0x9f
 4863 0735 00000000 		.4byte	0
 4864 0739 00000000 		.4byte	0
 4865              	.LLST33:
 4866 073d 1A000000 		.4byte	.LVL51
 4867 0741 26000000 		.4byte	.LVL52
 4868 0745 0100     		.2byte	0x1
 4869 0747 53       		.byte	0x53
 4870 0748 00000000 		.4byte	0
 4871 074c 00000000 		.4byte	0
 4872              	.LLST34:
 4873 0750 1A000000 		.4byte	.LVL51
 4874 0754 26000000 		.4byte	.LVL52
 4875 0758 0100     		.2byte	0x1
 4876 075a 52       		.byte	0x52
 4877 075b 00000000 		.4byte	0
 4878 075f 00000000 		.4byte	0
 4879              		.section	.debug_aranges,"",%progbits
 4880 0000 6C000000 		.4byte	0x6c
 4881 0004 0200     		.2byte	0x2
 4882 0006 00000000 		.4byte	.Ldebug_info0
 4883 000a 04       		.byte	0x4
 4884 000b 00       		.byte	0
 4885 000c 0000     		.2byte	0
 4886 000e 0000     		.2byte	0
 4887 0010 00000000 		.4byte	.LFB227
 4888 0014 08000000 		.4byte	.LFE227-.LFB227
 4889 0018 00000000 		.4byte	.LFB229
 4890 001c 28000000 		.4byte	.LFE229-.LFB229
 4891 0020 00000000 		.4byte	.LFB228
 4892 0024 18000000 		.4byte	.LFE228-.LFB228
 4893 0028 00000000 		.4byte	.LFB230
 4894 002c 44000000 		.4byte	.LFE230-.LFB230
 4895 0030 00000000 		.4byte	.LFB231
 4896 0034 34000000 		.4byte	.LFE231-.LFB231
 4897 0038 00000000 		.4byte	.LFB232
 4898 003c 4C000000 		.4byte	.LFE232-.LFB232
 4899 0040 00000000 		.4byte	.LFB233
 4900 0044 3C000000 		.4byte	.LFE233-.LFB233
 4901 0048 00000000 		.4byte	.LFB234
 4902 004c 32000000 		.4byte	.LFE234-.LFB234
ARM GAS  /tmp/cc4SeFZS.s 			page 87


 4903 0050 00000000 		.4byte	.LFB235
 4904 0054 1E000000 		.4byte	.LFE235-.LFB235
 4905 0058 00000000 		.4byte	.LFB236
 4906 005c 2E000000 		.4byte	.LFE236-.LFB236
 4907 0060 00000000 		.4byte	.LFB237
 4908 0064 6C000000 		.4byte	.LFE237-.LFB237
 4909 0068 00000000 		.4byte	0
 4910 006c 00000000 		.4byte	0
 4911              		.section	.debug_ranges,"",%progbits
 4912              	.Ldebug_ranges0:
 4913 0000 06000000 		.4byte	.LBB124
 4914 0004 12000000 		.4byte	.LBE124
 4915 0008 1C000000 		.4byte	.LBB142
 4916 000c 38000000 		.4byte	.LBE142
 4917 0010 00000000 		.4byte	0
 4918 0014 00000000 		.4byte	0
 4919 0018 22000000 		.4byte	.LBB128
 4920 001c 2C000000 		.4byte	.LBE128
 4921 0020 2E000000 		.4byte	.LBB131
 4922 0024 30000000 		.4byte	.LBE131
 4923 0028 00000000 		.4byte	0
 4924 002c 00000000 		.4byte	0
 4925 0030 12000000 		.4byte	.LBB133
 4926 0034 18000000 		.4byte	.LBE133
 4927 0038 38000000 		.4byte	.LBB143
 4928 003c 3E000000 		.4byte	.LBE143
 4929 0040 00000000 		.4byte	0
 4930 0044 00000000 		.4byte	0
 4931 0048 16000000 		.4byte	.LBB150
 4932 004c 20000000 		.4byte	.LBE150
 4933 0050 22000000 		.4byte	.LBB153
 4934 0054 24000000 		.4byte	.LBE153
 4935 0058 00000000 		.4byte	0
 4936 005c 00000000 		.4byte	0
 4937 0060 06000000 		.4byte	.LBB173
 4938 0064 12000000 		.4byte	.LBE173
 4939 0068 1C000000 		.4byte	.LBB192
 4940 006c 36000000 		.4byte	.LBE192
 4941 0070 3E000000 		.4byte	.LBB194
 4942 0074 4C000000 		.4byte	.LBE194
 4943 0078 00000000 		.4byte	0
 4944 007c 00000000 		.4byte	0
 4945 0080 24000000 		.4byte	.LBB177
 4946 0084 2C000000 		.4byte	.LBE177
 4947 0088 2E000000 		.4byte	.LBB180
 4948 008c 32000000 		.4byte	.LBE180
 4949 0090 00000000 		.4byte	0
 4950 0094 00000000 		.4byte	0
 4951 0098 12000000 		.4byte	.LBB183
 4952 009c 18000000 		.4byte	.LBE183
 4953 00a0 36000000 		.4byte	.LBB193
 4954 00a4 3C000000 		.4byte	.LBE193
 4955 00a8 00000000 		.4byte	0
 4956 00ac 00000000 		.4byte	0
 4957 00b0 14000000 		.4byte	.LBB199
 4958 00b4 26000000 		.4byte	.LBE199
 4959 00b8 28000000 		.4byte	.LBB206
ARM GAS  /tmp/cc4SeFZS.s 			page 88


 4960 00bc 2C000000 		.4byte	.LBE206
 4961 00c0 00000000 		.4byte	0
 4962 00c4 00000000 		.4byte	0
 4963 00c8 1A000000 		.4byte	.LBB201
 4964 00cc 1C000000 		.4byte	.LBE201
 4965 00d0 1E000000 		.4byte	.LBB204
 4966 00d4 26000000 		.4byte	.LBE204
 4967 00d8 00000000 		.4byte	0
 4968 00dc 00000000 		.4byte	0
 4969 00e0 12000000 		.4byte	.LBB211
 4970 00e4 1C000000 		.4byte	.LBE211
 4971 00e8 2A000000 		.4byte	.LBB224
 4972 00ec 32000000 		.4byte	.LBE224
 4973 00f0 00000000 		.4byte	0
 4974 00f4 00000000 		.4byte	0
 4975 00f8 1C000000 		.4byte	.LBB220
 4976 00fc 22000000 		.4byte	.LBE220
 4977 0100 24000000 		.4byte	.LBB223
 4978 0104 26000000 		.4byte	.LBE223
 4979 0108 00000000 		.4byte	0
 4980 010c 00000000 		.4byte	0
 4981 0110 0C000000 		.4byte	.LBB226
 4982 0114 12000000 		.4byte	.LBE226
 4983 0118 14000000 		.4byte	.LBB229
 4984 011c 16000000 		.4byte	.LBE229
 4985 0120 00000000 		.4byte	0
 4986 0124 00000000 		.4byte	0
 4987 0128 02000000 		.4byte	.LBB232
 4988 012c 04000000 		.4byte	.LBE232
 4989 0130 06000000 		.4byte	.LBB239
 4990 0134 0A000000 		.4byte	.LBE239
 4991 0138 00000000 		.4byte	0
 4992 013c 00000000 		.4byte	0
 4993 0140 24000000 		.4byte	.LBB240
 4994 0144 2A000000 		.4byte	.LBE240
 4995 0148 46000000 		.4byte	.LBB254
 4996 014c 4C000000 		.4byte	.LBE254
 4997 0150 00000000 		.4byte	0
 4998 0154 00000000 		.4byte	0
 4999 0158 30000000 		.4byte	.LBB250
 5000 015c 32000000 		.4byte	.LBE250
 5001 0160 36000000 		.4byte	.LBB253
 5002 0164 3E000000 		.4byte	.LBE253
 5003 0168 00000000 		.4byte	0
 5004 016c 00000000 		.4byte	0
 5005 0170 00000000 		.4byte	.LFB227
 5006 0174 08000000 		.4byte	.LFE227
 5007 0178 00000000 		.4byte	.LFB229
 5008 017c 28000000 		.4byte	.LFE229
 5009 0180 00000000 		.4byte	.LFB228
 5010 0184 18000000 		.4byte	.LFE228
 5011 0188 00000000 		.4byte	.LFB230
 5012 018c 44000000 		.4byte	.LFE230
 5013 0190 00000000 		.4byte	.LFB231
 5014 0194 34000000 		.4byte	.LFE231
 5015 0198 00000000 		.4byte	.LFB232
 5016 019c 4C000000 		.4byte	.LFE232
ARM GAS  /tmp/cc4SeFZS.s 			page 89


 5017 01a0 00000000 		.4byte	.LFB233
 5018 01a4 3C000000 		.4byte	.LFE233
 5019 01a8 00000000 		.4byte	.LFB234
 5020 01ac 32000000 		.4byte	.LFE234
 5021 01b0 00000000 		.4byte	.LFB235
 5022 01b4 1E000000 		.4byte	.LFE235
 5023 01b8 00000000 		.4byte	.LFB236
 5024 01bc 2E000000 		.4byte	.LFE236
 5025 01c0 00000000 		.4byte	.LFB237
 5026 01c4 6C000000 		.4byte	.LFE237
 5027 01c8 00000000 		.4byte	0
 5028 01cc 00000000 		.4byte	0
 5029              		.section	.debug_line,"",%progbits
 5030              	.Ldebug_line0:
 5031 0000 E5040000 		.section	.debug_str,"MS",%progbits,1
 5031      02004F02 
 5031      00000201 
 5031      FB0E0D00 
 5031      01010101 
 5032              	.LASF115:
 5033 0000 63665F6F 		.ascii	"cf_off_older\000"
 5033      66665F6F 
 5033      6C646572 
 5033      00
 5034              	.LASF53:
 5035 000d 72656164 		.ascii	"ready_list_t\000"
 5035      795F6C69 
 5035      73745F74 
 5035      00
 5036              	.LASF143:
 5037 001a 71756575 		.ascii	"queue_insert\000"
 5037      655F696E 
 5037      73657274 
 5037      00
 5038              	.LASF129:
 5039 0027 63685365 		.ascii	"chSemSignalI\000"
 5039      6D536967 
 5039      6E616C49 
 5039      00
 5040              	.LASF93:
 5041 0034 77747472 		.ascii	"wttrp\000"
 5041      7000
 5042              	.LASF90:
 5043 003a 7264796D 		.ascii	"rdymsg\000"
 5043      736700
 5044              	.LASF117:
 5045 0041 63665F6F 		.ascii	"cf_off_stklimit\000"
 5045      66665F73 
 5045      746B6C69 
 5045      6D697400 
 5046              	.LASF19:
 5047 0051 75696E74 		.ascii	"uint64_t\000"
 5047      36345F74 
 5047      00
 5048              	.LASF6:
 5049 005a 5F5F7569 		.ascii	"__uint8_t\000"
 5049      6E74385F 
ARM GAS  /tmp/cc4SeFZS.s 			page 90


 5049      7400
 5050              	.LASF87:
 5051 0064 706F7274 		.ascii	"port_intctx\000"
 5051      5F696E74 
 5051      63747800 
 5052              	.LASF72:
 5053 0070 73797374 		.ascii	"system_debug_t\000"
 5053      656D5F64 
 5053      65627567 
 5053      5F7400
 5054              	.LASF144:
 5055 007f 71756575 		.ascii	"queue_init\000"
 5055      655F696E 
 5055      697400
 5056              	.LASF147:
 5057 008a 706F7274 		.ascii	"port_lock\000"
 5057      5F6C6F63 
 5057      6B00
 5058              	.LASF141:
 5059 0094 71756575 		.ascii	"queue_lifo_remove\000"
 5059      655F6C69 
 5059      666F5F72 
 5059      656D6F76 
 5059      6500
 5060              	.LASF130:
 5061 00a6 63685365 		.ascii	"chSemSignal\000"
 5061      6D536967 
 5061      6E616C00 
 5062              	.LASF111:
 5063 00b2 63685F74 		.ascii	"ch_threadsize\000"
 5063      68726561 
 5063      6473697A 
 5063      6500
 5064              	.LASF91:
 5065 00c0 65786974 		.ascii	"exitcode\000"
 5065      636F6465 
 5065      00
 5066              	.LASF79:
 5067 00c9 6D61696E 		.ascii	"mainthread\000"
 5067      74687265 
 5067      616400
 5068              	.LASF128:
 5069 00d4 63685365 		.ascii	"chSemAddCounterI\000"
 5069      6D416464 
 5069      436F756E 
 5069      74657249 
 5069      00
 5070              	.LASF82:
 5071 00e5 49544D5F 		.ascii	"ITM_RxBuffer\000"
 5071      52784275 
 5071      66666572 
 5071      00
 5072              	.LASF52:
 5073 00f2 63685F74 		.ascii	"ch_threads_queue\000"
 5073      68726561 
 5073      64735F71 
 5073      75657565 
ARM GAS  /tmp/cc4SeFZS.s 			page 91


 5073      00
 5074              	.LASF32:
 5075 0103 705F7072 		.ascii	"p_prio\000"
 5075      696F00
 5076              	.LASF118:
 5077 010a 63665F6F 		.ascii	"cf_off_state\000"
 5077      66665F73 
 5077      74617465 
 5077      00
 5078              	.LASF1:
 5079 0117 6C6F6E67 		.ascii	"long long int\000"
 5079      206C6F6E 
 5079      6720696E 
 5079      7400
 5080              	.LASF3:
 5081 0125 7369676E 		.ascii	"signed char\000"
 5081      65642063 
 5081      68617200 
 5082              	.LASF132:
 5083 0131 63685365 		.ascii	"chSemSignalWait\000"
 5083      6D536967 
 5083      6E616C57 
 5083      61697400 
 5084              	.LASF119:
 5085 0141 63665F6F 		.ascii	"cf_off_flags\000"
 5085      66665F66 
 5085      6C616773 
 5085      00
 5086              	.LASF46:
 5087 014e 705F6D70 		.ascii	"p_mpool\000"
 5087      6F6F6C00 
 5088              	.LASF14:
 5089 0156 6C6F6E67 		.ascii	"long long unsigned int\000"
 5089      206C6F6E 
 5089      6720756E 
 5089      7369676E 
 5089      65642069 
 5090              	.LASF101:
 5091 016d 6D5F7175 		.ascii	"m_queue\000"
 5091      65756500 
 5092              	.LASF78:
 5093 0175 76746C69 		.ascii	"vtlist\000"
 5093      737400
 5094              	.LASF146:
 5095 017c 706F7274 		.ascii	"port_unlock\000"
 5095      5F756E6C 
 5095      6F636B00 
 5096              	.LASF76:
 5097 0188 63685F73 		.ascii	"ch_system\000"
 5097      79737465 
 5097      6D00
 5098              	.LASF10:
 5099 0192 6C6F6E67 		.ascii	"long int\000"
 5099      20696E74 
 5099      00
 5100              	.LASF22:
 5101 019b 74737461 		.ascii	"tstate_t\000"
ARM GAS  /tmp/cc4SeFZS.s 			page 92


 5101      74655F74 
 5101      00
 5102              	.LASF108:
 5103 01a4 63685F76 		.ascii	"ch_version\000"
 5103      65727369 
 5103      6F6E00
 5104              	.LASF123:
 5105 01af 63686465 		.ascii	"chdebug_t\000"
 5105      6275675F 
 5105      7400
 5106              	.LASF34:
 5107 01b9 705F6E65 		.ascii	"p_newer\000"
 5107      77657200 
 5108              	.LASF98:
 5109 01c1 735F7175 		.ascii	"s_queue\000"
 5109      65756500 
 5110              	.LASF151:
 5111 01c9 63685363 		.ascii	"chSchRescheduleS\000"
 5111      68526573 
 5111      63686564 
 5111      756C6553 
 5111      00
 5112              	.LASF58:
 5113 01da 725F6E65 		.ascii	"r_newer\000"
 5113      77657200 
 5114              	.LASF84:
 5115 01e2 72656761 		.ascii	"regarm_t\000"
 5115      726D5F74 
 5115      00
 5116              	.LASF65:
 5117 01eb 76745F70 		.ascii	"vt_prev\000"
 5117      72657600 
 5118              	.LASF126:
 5119 01f3 6D757465 		.ascii	"mutex_t\000"
 5119      785F7400 
 5120              	.LASF149:
 5121 01fb 76616C75 		.ascii	"value\000"
 5121      6500
 5122              	.LASF80:
 5123 0201 69646C65 		.ascii	"idle_thread_wa\000"
 5123      5F746872 
 5123      6561645F 
 5123      776100
 5124              	.LASF139:
 5125 0210 63685365 		.ascii	"chSemObjectInit\000"
 5125      6D4F626A 
 5125      65637449 
 5125      6E697400 
 5126              	.LASF27:
 5127 0220 636E745F 		.ascii	"cnt_t\000"
 5127      7400
 5128              	.LASF0:
 5129 0226 756E7369 		.ascii	"unsigned int\000"
 5129      676E6564 
 5129      20696E74 
 5129      00
 5130              	.LASF133:
ARM GAS  /tmp/cc4SeFZS.s 			page 93


 5131 0233 63685365 		.ascii	"chSemWaitTimeout\000"
 5131      6D576169 
 5131      7454696D 
 5131      656F7574 
 5131      00
 5132              	.LASF64:
 5133 0244 76745F6E 		.ascii	"vt_next\000"
 5133      65787400 
 5134              	.LASF16:
 5135 024c 75696E74 		.ascii	"uint16_t\000"
 5135      31365F74 
 5135      00
 5136              	.LASF83:
 5137 0255 53797374 		.ascii	"SystemCoreClock\000"
 5137      656D436F 
 5137      7265436C 
 5137      6F636B00 
 5138              	.LASF94:
 5139 0265 77747365 		.ascii	"wtsemp\000"
 5139      6D7000
 5140              	.LASF66:
 5141 026c 76745F64 		.ascii	"vt_delta\000"
 5141      656C7461 
 5141      00
 5142              	.LASF41:
 5143 0275 705F6D73 		.ascii	"p_msgqueue\000"
 5143      67717565 
 5143      756500
 5144              	.LASF138:
 5145 0280 63685365 		.ascii	"chSemReset\000"
 5145      6D526573 
 5145      657400
 5146              	.LASF124:
 5147 028b 63685F64 		.ascii	"ch_debug\000"
 5147      65627567 
 5147      00
 5148              	.LASF99:
 5149 0294 735F636E 		.ascii	"s_cnt\000"
 5149      7400
 5150              	.LASF8:
 5151 029a 73686F72 		.ascii	"short unsigned int\000"
 5151      7420756E 
 5151      7369676E 
 5151      65642069 
 5151      6E7400
 5152              	.LASF49:
 5153 02ad 63685F74 		.ascii	"ch_thread\000"
 5153      68726561 
 5153      6400
 5154              	.LASF153:
 5155 02b7 63685363 		.ascii	"chSchWakeupS\000"
 5155      6857616B 
 5155      65757053 
 5155      00
 5156              	.LASF25:
 5157 02c4 6D73675F 		.ascii	"msg_t\000"
 5157      7400
ARM GAS  /tmp/cc4SeFZS.s 			page 94


 5158              	.LASF75:
 5159 02ca 63685F73 		.ascii	"ch_system_t\000"
 5159      79737465 
 5159      6D5F7400 
 5160              	.LASF122:
 5161 02d6 63665F6F 		.ascii	"cf_off_time\000"
 5161      66665F74 
 5161      696D6500 
 5162              	.LASF54:
 5163 02e2 63685F72 		.ascii	"ch_ready_list\000"
 5163      65616479 
 5163      5F6C6973 
 5163      7400
 5164              	.LASF26:
 5165 02f0 6576656E 		.ascii	"eventmask_t\000"
 5165      746D6173 
 5165      6B5F7400 
 5166              	.LASF9:
 5167 02fc 5F5F696E 		.ascii	"__int32_t\000"
 5167      7433325F 
 5167      7400
 5168              	.LASF69:
 5169 0306 76697274 		.ascii	"virtual_timers_list_t\000"
 5169      75616C5F 
 5169      74696D65 
 5169      72735F6C 
 5169      6973745F 
 5170              	.LASF85:
 5171 031c 73746B61 		.ascii	"stkalign_t\000"
 5171      6C69676E 
 5171      5F7400
 5172              	.LASF106:
 5173 0327 63685F7A 		.ascii	"ch_zero\000"
 5173      65726F00 
 5174              	.LASF120:
 5175 032f 63665F6F 		.ascii	"cf_off_refs\000"
 5175      66665F72 
 5175      65667300 
 5176              	.LASF40:
 5177 033b 705F7761 		.ascii	"p_waiting\000"
 5177      6974696E 
 5177      6700
 5178              	.LASF81:
 5179 0345 73697A65 		.ascii	"sizetype\000"
 5179      74797065 
 5179      00
 5180              	.LASF47:
 5181 034e 74687265 		.ascii	"thread_reference_t\000"
 5181      61645F72 
 5181      65666572 
 5181      656E6365 
 5181      5F7400
 5182              	.LASF70:
 5183 0361 63685F76 		.ascii	"ch_virtual_timers_list\000"
 5183      69727475 
 5183      616C5F74 
 5183      696D6572 
ARM GAS  /tmp/cc4SeFZS.s 			page 95


 5183      735F6C69 
 5184              	.LASF2:
 5185 0378 6C6F6E67 		.ascii	"long double\000"
 5185      20646F75 
 5185      626C6500 
 5186              	.LASF155:
 5187 0384 474E5520 		.ascii	"GNU C11 6.2.1 20161205 (release) [ARM/embedded-6-br"
 5187      43313120 
 5187      362E322E 
 5187      31203230 
 5187      31363132 
 5188 03b7 616E6368 		.ascii	"anch revision 243739] -mcpu=cortex-m4 -mno-thumb-in"
 5188      20726576 
 5188      6973696F 
 5188      6E203234 
 5188      33373339 
 5189 03ea 74657277 		.ascii	"terwork -mthumb -ggdb -O2 -fomit-frame-pointer -fal"
 5189      6F726B20 
 5189      2D6D7468 
 5189      756D6220 
 5189      2D676764 
 5190 041d 69676E2D 		.ascii	"ign-functions=16 -ffunction-sections -fdata-section"
 5190      66756E63 
 5190      74696F6E 
 5190      733D3136 
 5190      202D6666 
 5191 0450 73202D66 		.ascii	"s -fno-common\000"
 5191      6E6F2D63 
 5191      6F6D6D6F 
 5191      6E00
 5192              	.LASF110:
 5193 045e 63685F74 		.ascii	"ch_timesize\000"
 5193      696D6573 
 5193      697A6500 
 5194              	.LASF116:
 5195 046a 63665F6F 		.ascii	"cf_off_name\000"
 5195      66665F6E 
 5195      616D6500 
 5196              	.LASF145:
 5197 0476 63685379 		.ascii	"chSysLock\000"
 5197      734C6F63 
 5197      6B00
 5198              	.LASF35:
 5199 0480 705F6F6C 		.ascii	"p_older\000"
 5199      64657200 
 5200              	.LASF57:
 5201 0488 725F6374 		.ascii	"r_ctx\000"
 5201      7800
 5202              	.LASF33:
 5203 048e 705F6374 		.ascii	"p_ctx\000"
 5203      7800
 5204              	.LASF89:
 5205 0494 746D5F63 		.ascii	"tm_calibration_t\000"
 5205      616C6962 
 5205      72617469 
 5205      6F6E5F74 
 5205      00
ARM GAS  /tmp/cc4SeFZS.s 			page 96


 5206              	.LASF103:
 5207 04a5 6D5F6E65 		.ascii	"m_next\000"
 5207      787400
 5208              	.LASF156:
 5209 04ac 2F686F6D 		.ascii	"/home/selim/working/ChibiOS/os/rt/src/chsem.c\000"
 5209      652F7365 
 5209      6C696D2F 
 5209      776F726B 
 5209      696E672F 
 5210              	.LASF60:
 5211 04da 725F6375 		.ascii	"r_current\000"
 5211      7272656E 
 5211      7400
 5212              	.LASF59:
 5213 04e4 725F6F6C 		.ascii	"r_older\000"
 5213      64657200 
 5214              	.LASF13:
 5215 04ec 5F5F7569 		.ascii	"__uint64_t\000"
 5215      6E743634 
 5215      5F7400
 5216              	.LASF23:
 5217 04f7 74726566 		.ascii	"trefs_t\000"
 5217      735F7400 
 5218              	.LASF109:
 5219 04ff 63685F70 		.ascii	"ch_ptrsize\000"
 5219      74727369 
 5219      7A6500
 5220              	.LASF62:
 5221 050a 76697274 		.ascii	"virtual_timer_t\000"
 5221      75616C5F 
 5221      74696D65 
 5221      725F7400 
 5222              	.LASF31:
 5223 051a 705F7072 		.ascii	"p_prev\000"
 5223      657600
 5224              	.LASF24:
 5225 0521 74707269 		.ascii	"tprio_t\000"
 5225      6F5F7400 
 5226              	.LASF73:
 5227 0529 63685F73 		.ascii	"ch_system_debug\000"
 5227      79737465 
 5227      6D5F6465 
 5227      62756700 
 5228              	.LASF17:
 5229 0539 696E7433 		.ascii	"int32_t\000"
 5229      325F7400 
 5230              	.LASF4:
 5231 0541 756E7369 		.ascii	"unsigned char\000"
 5231      676E6564 
 5231      20636861 
 5231      7200
 5232              	.LASF44:
 5233 054f 705F6D74 		.ascii	"p_mtxlist\000"
 5233      786C6973 
 5233      7400
 5234              	.LASF5:
 5235 0559 73686F72 		.ascii	"short int\000"
ARM GAS  /tmp/cc4SeFZS.s 			page 97


 5235      7420696E 
 5235      7400
 5236              	.LASF37:
 5237 0563 705F7374 		.ascii	"p_state\000"
 5237      61746500 
 5238              	.LASF56:
 5239 056b 725F7072 		.ascii	"r_prio\000"
 5239      696F00
 5240              	.LASF96:
 5241 0572 65776D61 		.ascii	"ewmask\000"
 5241      736B00
 5242              	.LASF30:
 5243 0579 705F6E65 		.ascii	"p_next\000"
 5243      787400
 5244              	.LASF21:
 5245 0580 746D6F64 		.ascii	"tmode_t\000"
 5245      655F7400 
 5246              	.LASF121:
 5247 0588 63665F6F 		.ascii	"cf_off_preempt\000"
 5247      66665F70 
 5247      7265656D 
 5247      707400
 5248              	.LASF38:
 5249 0597 705F666C 		.ascii	"p_flags\000"
 5249      61677300 
 5250              	.LASF127:
 5251 059f 5F5F6675 		.ascii	"__func__\000"
 5251      6E635F5F 
 5251      00
 5252              	.LASF135:
 5253 05a8 63685365 		.ascii	"chSemWaitS\000"
 5253      6D576169 
 5253      745300
 5254              	.LASF125:
 5255 05b3 73656D61 		.ascii	"semaphore_t\000"
 5255      70686F72 
 5255      655F7400 
 5256              	.LASF51:
 5257 05bf 74687265 		.ascii	"threads_queue_t\000"
 5257      6164735F 
 5257      71756575 
 5257      655F7400 
 5258              	.LASF63:
 5259 05cf 63685F76 		.ascii	"ch_virtual_timer\000"
 5259      69727475 
 5259      616C5F74 
 5259      696D6572 
 5259      00
 5260              	.LASF114:
 5261 05e0 63665F6F 		.ascii	"cf_off_newer\000"
 5261      66665F6E 
 5261      65776572 
 5261      00
 5262              	.LASF97:
 5263 05ed 63685F73 		.ascii	"ch_semaphore\000"
 5263      656D6170 
 5263      686F7265 
ARM GAS  /tmp/cc4SeFZS.s 			page 98


 5263      00
 5264              	.LASF150:
 5265 05fa 63685363 		.ascii	"chSchGoSleepS\000"
 5265      68476F53 
 5265      6C656570 
 5265      5300
 5266              	.LASF43:
 5267 0608 705F6570 		.ascii	"p_epending\000"
 5267      656E6469 
 5267      6E6700
 5268              	.LASF18:
 5269 0613 75696E74 		.ascii	"uint32_t\000"
 5269      33325F74 
 5269      00
 5270              	.LASF112:
 5271 061c 63665F6F 		.ascii	"cf_off_prio\000"
 5271      66665F70 
 5271      72696F00 
 5272              	.LASF55:
 5273 0628 725F7175 		.ascii	"r_queue\000"
 5273      65756500 
 5274              	.LASF152:
 5275 0630 63685363 		.ascii	"chSchReadyI\000"
 5275      68526561 
 5275      64794900 
 5276              	.LASF50:
 5277 063c 63685F74 		.ascii	"ch_threads_list\000"
 5277      68726561 
 5277      64735F6C 
 5277      69737400 
 5278              	.LASF107:
 5279 064c 63685F73 		.ascii	"ch_size\000"
 5279      697A6500 
 5280              	.LASF12:
 5281 0654 6C6F6E67 		.ascii	"long unsigned int\000"
 5281      20756E73 
 5281      69676E65 
 5281      6420696E 
 5281      7400
 5282              	.LASF104:
 5283 0666 63686172 		.ascii	"char\000"
 5283      00
 5284              	.LASF95:
 5285 066b 77746D74 		.ascii	"wtmtxp\000"
 5285      787000
 5286              	.LASF134:
 5287 0672 63685365 		.ascii	"chSemWaitTimeoutS\000"
 5287      6D576169 
 5287      7454696D 
 5287      656F7574 
 5287      5300
 5288              	.LASF7:
 5289 0684 5F5F7569 		.ascii	"__uint16_t\000"
 5289      6E743136 
 5289      5F7400
 5290              	.LASF29:
 5291 068f 74687265 		.ascii	"thread_t\000"
ARM GAS  /tmp/cc4SeFZS.s 			page 99


 5291      61645F74 
 5291      00
 5292              	.LASF142:
 5293 0698 71756575 		.ascii	"queue_fifo_remove\000"
 5293      655F6669 
 5293      666F5F72 
 5293      656D6F76 
 5293      6500
 5294              	.LASF28:
 5295 06aa 73797374 		.ascii	"systime_t\000"
 5295      696D655F 
 5295      7400
 5296              	.LASF45:
 5297 06b4 705F7265 		.ascii	"p_realprio\000"
 5297      616C7072 
 5297      696F00
 5298              	.LASF61:
 5299 06bf 76746675 		.ascii	"vtfunc_t\000"
 5299      6E635F74 
 5299      00
 5300              	.LASF11:
 5301 06c8 5F5F7569 		.ascii	"__uint32_t\000"
 5301      6E743332 
 5301      5F7400
 5302              	.LASF148:
 5303 06d3 5F5F7365 		.ascii	"__set_BASEPRI\000"
 5303      745F4241 
 5303      53455052 
 5303      4900
 5304              	.LASF136:
 5305 06e1 63685365 		.ascii	"chSemWait\000"
 5305      6D576169 
 5305      7400
 5306              	.LASF74:
 5307 06eb 70616E69 		.ascii	"panic_msg\000"
 5307      635F6D73 
 5307      6700
 5308              	.LASF88:
 5309 06f5 6F666673 		.ascii	"offset\000"
 5309      657400
 5310              	.LASF86:
 5311 06fc 636F6E74 		.ascii	"context\000"
 5311      65787400 
 5312              	.LASF20:
 5313 0704 7274636E 		.ascii	"rtcnt_t\000"
 5313      745F7400 
 5314              	.LASF131:
 5315 070c 74696D65 		.ascii	"time\000"
 5315      00
 5316              	.LASF68:
 5317 0711 76745F70 		.ascii	"vt_par\000"
 5317      617200
 5318              	.LASF113:
 5319 0718 63665F6F 		.ascii	"cf_off_ctx\000"
 5319      66665F63 
 5319      747800
 5320              	.LASF100:
ARM GAS  /tmp/cc4SeFZS.s 			page 100


 5321 0723 63685F6D 		.ascii	"ch_mutex\000"
 5321      75746578 
 5321      00
 5322              	.LASF39:
 5323 072c 705F7265 		.ascii	"p_refs\000"
 5323      667300
 5324              	.LASF137:
 5325 0733 63685365 		.ascii	"chSemResetI\000"
 5325      6D526573 
 5325      65744900 
 5326              	.LASF77:
 5327 073f 726C6973 		.ascii	"rlist\000"
 5327      7400
 5328              	.LASF15:
 5329 0745 75696E74 		.ascii	"uint8_t\000"
 5329      385F7400 
 5330              	.LASF71:
 5331 074d 76745F6C 		.ascii	"vt_lasttime\000"
 5331      61737474 
 5331      696D6500 
 5332              	.LASF92:
 5333 0759 77746F62 		.ascii	"wtobjp\000"
 5333      6A7000
 5334              	.LASF36:
 5335 0760 705F6E61 		.ascii	"p_name\000"
 5335      6D6500
 5336              	.LASF48:
 5337 0767 74687265 		.ascii	"threads_list_t\000"
 5337      6164735F 
 5337      6C697374 
 5337      5F7400
 5338              	.LASF154:
 5339 0776 63685363 		.ascii	"chSchGoSleepTimeoutS\000"
 5339      68476F53 
 5339      6C656570 
 5339      54696D65 
 5339      6F757453 
 5340              	.LASF140:
 5341 078b 63685379 		.ascii	"chSysUnlock\000"
 5341      73556E6C 
 5341      6F636B00 
 5342              	.LASF42:
 5343 0797 705F6D73 		.ascii	"p_msg\000"
 5343      6700
 5344              	.LASF102:
 5345 079d 6D5F6F77 		.ascii	"m_owner\000"
 5345      6E657200 
 5346              	.LASF105:
 5347 07a5 63685F69 		.ascii	"ch_identifier\000"
 5347      64656E74 
 5347      69666965 
 5347      7200
 5348              	.LASF67:
 5349 07b3 76745F66 		.ascii	"vt_func\000"
 5349      756E6300 
 5350              		.ident	"GCC: (GNU Tools for ARM Embedded Processors) 6.2.1 20161205 (release) [ARM/embedded-6-bran
ARM GAS  /tmp/cc4SeFZS.s 			page 101


DEFINED SYMBOLS
                            *ABS*:0000000000000000 chsem.c
     /tmp/cc4SeFZS.s:16     .text.chSemObjectInit:0000000000000000 $t
     /tmp/cc4SeFZS.s:24     .text.chSemObjectInit:0000000000000000 chSemObjectInit
     /tmp/cc4SeFZS.s:50     .text.chSemResetI:0000000000000000 $t
     /tmp/cc4SeFZS.s:58     .text.chSemResetI:0000000000000000 chSemResetI
     /tmp/cc4SeFZS.s:118    .text.chSemReset:0000000000000000 $t
     /tmp/cc4SeFZS.s:126    .text.chSemReset:0000000000000000 chSemReset
     /tmp/cc4SeFZS.s:185    .text.chSemWait:0000000000000000 $t
     /tmp/cc4SeFZS.s:193    .text.chSemWait:0000000000000000 chSemWait
     /tmp/cc4SeFZS.s:324    .text.chSemWait:0000000000000040 $d
     /tmp/cc4SeFZS.s:329    .text.chSemWaitS:0000000000000000 $t
     /tmp/cc4SeFZS.s:337    .text.chSemWaitS:0000000000000000 chSemWaitS
     /tmp/cc4SeFZS.s:401    .text.chSemWaitS:0000000000000030 $d
     /tmp/cc4SeFZS.s:408    .text.chSemWaitTimeout:0000000000000000 $t
     /tmp/cc4SeFZS.s:416    .text.chSemWaitTimeout:0000000000000000 chSemWaitTimeout
     /tmp/cc4SeFZS.s:554    .text.chSemWaitTimeout:0000000000000048 $d
     /tmp/cc4SeFZS.s:561    .text.chSemWaitTimeoutS:0000000000000000 $t
     /tmp/cc4SeFZS.s:569    .text.chSemWaitTimeoutS:0000000000000000 chSemWaitTimeoutS
     /tmp/cc4SeFZS.s:651    .text.chSemWaitTimeoutS:0000000000000038 $d
     /tmp/cc4SeFZS.s:656    .text.chSemSignal:0000000000000000 $t
     /tmp/cc4SeFZS.s:664    .text.chSemSignal:0000000000000000 chSemSignal
     /tmp/cc4SeFZS.s:768    .text.chSemSignalI:0000000000000000 $t
     /tmp/cc4SeFZS.s:776    .text.chSemSignalI:0000000000000000 chSemSignalI
     /tmp/cc4SeFZS.s:827    .text.chSemAddCounterI:0000000000000000 $t
     /tmp/cc4SeFZS.s:835    .text.chSemAddCounterI:0000000000000000 chSemAddCounterI
     /tmp/cc4SeFZS.s:901    .text.chSemSignalWait:0000000000000000 $t
     /tmp/cc4SeFZS.s:909    .text.chSemSignalWait:0000000000000000 chSemSignalWait
     /tmp/cc4SeFZS.s:1085   .text.chSemSignalWait:0000000000000068 $d
                     .debug_frame:0000000000000010 $d

UNDEFINED SYMBOLS
chSchReadyI
chSchRescheduleS
chSchGoSleepS
ch
chSchGoSleepTimeoutS
chSchWakeupS
