ARM GAS  /tmp/cc4SeFZS.s 			page 1


   1              		.cpu cortex-m4
   2              		.eabi_attribute 20, 1
   3              		.eabi_attribute 21, 1
   4              		.eabi_attribute 23, 3
   5              		.eabi_attribute 24, 1
   6              		.eabi_attribute 25, 1
   7              		.eabi_attribute 26, 1
   8              		.eabi_attribute 30, 2
   9              		.eabi_attribute 34, 1
  10              		.eabi_attribute 18, 4
  11              		.file	"chsem.c"
  12              		.text
  13              	.Ltext0:
  14              		.cfi_sections	.debug_frame
  15              		.section	.text.chSemObjectInit,"ax",%progbits
  16              		.align	1
  17              		.p2align 4,,15
  18              		.global	chSemObjectInit
  19              		.syntax unified
  20              		.thumb
  21              		.thumb_func
  22              		.fpu softvfp
  23              		.type	chSemObjectInit, %function
  24              	chSemObjectInit:
  25              	.LFB227:
  26              		.file 1 "/home/selim/working/ChibiOS/os/rt/src/chsem.c"
  27              		.loc 1 97 0
  28              		.cfi_startproc
  29              		@ args = 0, pretend = 0, frame = 0
  30              		@ frame_needed = 0, uses_anonymous_args = 0
  31              		@ link register save eliminated.
  32              	.LVL0:
  33              	.LBB92:
  34              	.LBB93:
  35              		.file 2 "/home/selim/working/ChibiOS/os/rt/include/chschd.h"
  36              		.loc 2 604 0
  37 0000 0060     		str	r0, [r0]
  38              		.loc 2 605 0
  39 0002 4060     		str	r0, [r0, #4]
  40              	.LVL1:
  41              	.LBE93:
  42              	.LBE92:
  43              		.loc 1 102 0
  44 0004 8160     		str	r1, [r0, #8]
  45 0006 7047     		bx	lr
  46              		.cfi_endproc
  47              	.LFE227:
  48              		.size	chSemObjectInit, .-chSemObjectInit
  49              		.section	.text.chSemResetI,"ax",%progbits
  50              		.align	1
  51              		.p2align 4,,15
  52              		.global	chSemResetI
  53              		.syntax unified
  54              		.thumb
  55              		.thumb_func
  56              		.fpu softvfp
  57              		.type	chSemResetI, %function
ARM GAS  /tmp/cc4SeFZS.s 			page 2


  58              	chSemResetI:
  59              	.LFB229:
  60              		.loc 1 147 0
  61              		.cfi_startproc
  62              		@ args = 0, pretend = 0, frame = 0
  63              		@ frame_needed = 0, uses_anonymous_args = 0
  64              	.LVL2:
  65 0000 70B5     		push	{r4, r5, r6, lr}
  66              		.cfi_def_cfa_offset 16
  67              		.cfi_offset 4, -16
  68              		.cfi_offset 5, -12
  69              		.cfi_offset 6, -8
  70              		.cfi_offset 14, -4
  71              		.loc 1 156 0
  72 0002 8568     		ldr	r5, [r0, #8]
  73              	.LVL3:
  74              		.loc 1 157 0
  75 0004 8160     		str	r1, [r0, #8]
  76              		.loc 1 158 0
  77 0006 0135     		adds	r5, r5, #1
  78              	.LVL4:
  79 0008 002D     		cmp	r5, #0
  80 000a 0CDC     		bgt	.L2
  81 000c 0446     		mov	r4, r0
  82              		.loc 1 159 0
  83 000e 6FF00106 		mvn	r6, #1
  84              	.LVL5:
  85              	.L4:
  86              	.LBB94:
  87              	.LBB95:
  88              		.loc 2 681 0
  89 0012 6068     		ldr	r0, [r4, #4]
  90              	.LVL6:
  91              		.loc 2 683 0
  92 0014 4368     		ldr	r3, [r0, #4]
  93 0016 6360     		str	r3, [r4, #4]
  94              		.loc 2 684 0
  95 0018 1C60     		str	r4, [r3]
  96              	.LVL7:
  97              	.LBE95:
  98              	.LBE94:
  99              		.loc 1 159 0
 100 001a FFF7FEFF 		bl	chSchReadyI
 101              	.LVL8:
 102              		.loc 1 158 0
 103 001e 0135     		adds	r5, r5, #1
 104              	.LVL9:
 105 0020 012D     		cmp	r5, #1
 106              		.loc 1 159 0
 107 0022 0662     		str	r6, [r0, #32]
 108              	.LVL10:
 109              		.loc 1 158 0
 110 0024 F5D1     		bne	.L4
 111              	.LVL11:
 112              	.L2:
 113 0026 70BD     		pop	{r4, r5, r6, pc}
 114              		.cfi_endproc
ARM GAS  /tmp/cc4SeFZS.s 			page 3


 115              	.LFE229:
 116              		.size	chSemResetI, .-chSemResetI
 117              		.section	.text.chSemReset,"ax",%progbits
 118              		.align	1
 119              		.p2align 4,,15
 120              		.global	chSemReset
 121              		.syntax unified
 122              		.thumb
 123              		.thumb_func
 124              		.fpu softvfp
 125              		.type	chSemReset, %function
 126              	chSemReset:
 127              	.LFB228:
 128              		.loc 1 120 0
 129              		.cfi_startproc
 130              		@ args = 0, pretend = 0, frame = 0
 131              		@ frame_needed = 0, uses_anonymous_args = 0
 132              	.LVL12:
 133 0000 08B5     		push	{r3, lr}
 134              		.cfi_def_cfa_offset 8
 135              		.cfi_offset 3, -8
 136              		.cfi_offset 14, -4
 137              	.LBB96:
 138              	.LBB97:
 139              	.LBB98:
 140              	.LBB99:
 141              		.file 3 "/home/selim/working/ChibiOS/os/ext/CMSIS/include/core_cmFunc.h"
 142              		.loc 3 546 0
 143 0002 2023     		movs	r3, #32
 144              		.syntax unified
 145              	@ 546 "/home/selim/working/ChibiOS/os/ext/CMSIS/include/core_cmFunc.h" 1
 146 0004 83F31188 		MSR basepri, r3
 147              	@ 0 "" 2
 148              	.LVL13:
 149              		.thumb
 150              		.syntax unified
 151              	.LBE99:
 152              	.LBE98:
 153              	.LBE97:
 154              	.LBE96:
 155              		.loc 1 123 0
 156 0008 FFF7FEFF 		bl	chSemResetI
 157              	.LVL14:
 158              		.loc 1 124 0
 159 000c FFF7FEFF 		bl	chSchRescheduleS
 160              	.LVL15:
 161              	.LBB100:
 162              	.LBB101:
 163              	.LBB102:
 164              	.LBB103:
 165              	.LBB104:
 166              		.loc 3 546 0
 167 0010 0023     		movs	r3, #0
 168              		.syntax unified
 169              	@ 546 "/home/selim/working/ChibiOS/os/ext/CMSIS/include/core_cmFunc.h" 1
 170 0012 83F31188 		MSR basepri, r3
 171              	@ 0 "" 2
ARM GAS  /tmp/cc4SeFZS.s 			page 4


 172              	.LVL16:
 173              		.thumb
 174              		.syntax unified
 175 0016 08BD     		pop	{r3, pc}
 176              	.LBE104:
 177              	.LBE103:
 178              	.LBE102:
 179              	.LBE101:
 180              	.LBE100:
 181              		.cfi_endproc
 182              	.LFE228:
 183              		.size	chSemReset, .-chSemReset
 184              		.section	.text.chSemWait,"ax",%progbits
 185              		.align	1
 186              		.p2align 4,,15
 187              		.global	chSemWait
 188              		.syntax unified
 189              		.thumb
 190              		.thumb_func
 191              		.fpu softvfp
 192              		.type	chSemWait, %function
 193              	chSemWait:
 194              	.LFB230:
 195              		.loc 1 175 0
 196              		.cfi_startproc
 197              		@ args = 0, pretend = 0, frame = 0
 198              		@ frame_needed = 0, uses_anonymous_args = 0
 199              	.LVL17:
 200              	.LBB120:
 201              	.LBB121:
 202              	.LBB122:
 203              	.LBB123:
 204              		.loc 3 546 0
 205 0000 2023     		movs	r3, #32
 206              		.syntax unified
 207              	@ 546 "/home/selim/working/ChibiOS/os/ext/CMSIS/include/core_cmFunc.h" 1
 208 0002 83F31188 		MSR basepri, r3
 209              	@ 0 "" 2
 210              	.LVL18:
 211              		.thumb
 212              		.syntax unified
 213              	.LBE123:
 214              	.LBE122:
 215              	.LBE121:
 216              	.LBE120:
 217              	.LBB124:
 218              	.LBB125:
 219              		.loc 1 205 0
 220 0006 8368     		ldr	r3, [r0, #8]
 221 0008 013B     		subs	r3, r3, #1
 222 000a 002B     		cmp	r3, #0
 223 000c 8360     		str	r3, [r0, #8]
 224 000e 04DB     		blt	.L18
 225              		.loc 1 213 0
 226 0010 0020     		movs	r0, #0
 227              	.LVL19:
 228              	.LBE125:
ARM GAS  /tmp/cc4SeFZS.s 			page 5


 229              	.LBE124:
 230              	.LBB133:
 231              	.LBB134:
 232              	.LBB135:
 233              	.LBB136:
 234              	.LBB137:
 235              		.loc 3 546 0
 236 0012 0023     		movs	r3, #0
 237              		.syntax unified
 238              	@ 546 "/home/selim/working/ChibiOS/os/ext/CMSIS/include/core_cmFunc.h" 1
 239 0014 83F31188 		MSR basepri, r3
 240              	@ 0 "" 2
 241              	.LVL20:
 242              		.thumb
 243              		.syntax unified
 244              	.LBE137:
 245              	.LBE136:
 246              	.LBE135:
 247              	.LBE134:
 248              	.LBE133:
 249              		.loc 1 183 0
 250 0018 7047     		bx	lr
 251              	.LVL21:
 252              	.L18:
 253              		.loc 1 175 0
 254 001a 10B5     		push	{r4, lr}
 255              		.cfi_def_cfa_offset 8
 256              		.cfi_offset 4, -8
 257              		.cfi_offset 14, -4
 258              	.LBB142:
 259              	.LBB132:
 260              	.LBB126:
 261              	.LBB127:
 262              		.loc 1 206 0
 263 001c 084C     		ldr	r4, .L19
 264 001e A269     		ldr	r2, [r4, #24]
 265 0020 1062     		str	r0, [r2, #32]
 266              	.LBB128:
 267              	.LBB129:
 268              		.loc 2 666 0
 269 0022 4168     		ldr	r1, [r0, #4]
 270 0024 5160     		str	r1, [r2, #4]
 271 0026 0346     		mov	r3, r0
 272              	.LVL22:
 273              		.loc 2 665 0
 274 0028 1060     		str	r0, [r2]
 275              		.loc 2 667 0
 276 002a 0A60     		str	r2, [r1]
 277              	.LBE129:
 278              	.LBE128:
 279              		.loc 1 208 0
 280 002c 0520     		movs	r0, #5
 281              	.LVL23:
 282              	.LBB131:
 283              	.LBB130:
 284              		.loc 2 668 0
 285 002e 5A60     		str	r2, [r3, #4]
ARM GAS  /tmp/cc4SeFZS.s 			page 6


 286              	.LVL24:
 287              	.LBE130:
 288              	.LBE131:
 289              		.loc 1 208 0
 290 0030 FFF7FEFF 		bl	chSchGoSleepS
 291              	.LVL25:
 292              		.loc 1 210 0
 293 0034 A369     		ldr	r3, [r4, #24]
 294 0036 186A     		ldr	r0, [r3, #32]
 295              	.LVL26:
 296              	.LBE127:
 297              	.LBE126:
 298              	.LBE132:
 299              	.LBE142:
 300              	.LBB143:
 301              	.LBB141:
 302              	.LBB140:
 303              	.LBB139:
 304              	.LBB138:
 305              		.loc 3 546 0
 306 0038 0023     		movs	r3, #0
 307              		.syntax unified
 308              	@ 546 "/home/selim/working/ChibiOS/os/ext/CMSIS/include/core_cmFunc.h" 1
 309 003a 83F31188 		MSR basepri, r3
 310              	@ 0 "" 2
 311              	.LVL27:
 312              		.thumb
 313              		.syntax unified
 314              	.LBE138:
 315              	.LBE139:
 316              	.LBE140:
 317              	.LBE141:
 318              	.LBE143:
 319              		.loc 1 183 0
 320 003e 10BD     		pop	{r4, pc}
 321              	.L20:
 322              		.align	2
 323              	.L19:
 324 0040 00000000 		.word	ch
 325              		.cfi_endproc
 326              	.LFE230:
 327              		.size	chSemWait, .-chSemWait
 328              		.section	.text.chSemWaitS,"ax",%progbits
 329              		.align	1
 330              		.p2align 4,,15
 331              		.global	chSemWaitS
 332              		.syntax unified
 333              		.thumb
 334              		.thumb_func
 335              		.fpu softvfp
 336              		.type	chSemWaitS, %function
 337              	chSemWaitS:
 338              	.LFB231:
 339              		.loc 1 197 0
 340              		.cfi_startproc
 341              		@ args = 0, pretend = 0, frame = 0
 342              		@ frame_needed = 0, uses_anonymous_args = 0
ARM GAS  /tmp/cc4SeFZS.s 			page 7


 343              	.LVL28:
 344              		.loc 1 205 0
 345 0000 8368     		ldr	r3, [r0, #8]
 346 0002 013B     		subs	r3, r3, #1
 347 0004 002B     		cmp	r3, #0
 348 0006 8360     		str	r3, [r0, #8]
 349 0008 01DB     		blt	.L28
 350              		.loc 1 213 0
 351 000a 0020     		movs	r0, #0
 352              	.LVL29:
 353 000c 7047     		bx	lr
 354              	.LVL30:
 355              	.L28:
 356              		.loc 1 197 0
 357 000e 10B5     		push	{r4, lr}
 358              		.cfi_def_cfa_offset 8
 359              		.cfi_offset 4, -8
 360              		.cfi_offset 14, -4
 361              	.LBB148:
 362              	.LBB149:
 363              		.loc 1 206 0
 364 0010 074C     		ldr	r4, .L29
 365 0012 A269     		ldr	r2, [r4, #24]
 366 0014 1062     		str	r0, [r2, #32]
 367              	.LBB150:
 368              	.LBB151:
 369              		.loc 2 666 0
 370 0016 4168     		ldr	r1, [r0, #4]
 371 0018 5160     		str	r1, [r2, #4]
 372 001a 0346     		mov	r3, r0
 373              	.LVL31:
 374              		.loc 2 665 0
 375 001c 1060     		str	r0, [r2]
 376              		.loc 2 667 0
 377 001e 0A60     		str	r2, [r1]
 378              	.LBE151:
 379              	.LBE150:
 380              		.loc 1 208 0
 381 0020 0520     		movs	r0, #5
 382              	.LVL32:
 383              	.LBB153:
 384              	.LBB152:
 385              		.loc 2 668 0
 386 0022 5A60     		str	r2, [r3, #4]
 387              	.LVL33:
 388              	.LBE152:
 389              	.LBE153:
 390              		.loc 1 208 0
 391 0024 FFF7FEFF 		bl	chSchGoSleepS
 392              	.LVL34:
 393              		.loc 1 210 0
 394 0028 A369     		ldr	r3, [r4, #24]
 395 002a 186A     		ldr	r0, [r3, #32]
 396              	.LVL35:
 397 002c 10BD     		pop	{r4, pc}
 398              	.L30:
 399 002e 00BF     		.align	2
ARM GAS  /tmp/cc4SeFZS.s 			page 8


 400              	.L29:
 401 0030 00000000 		.word	ch
 402              	.LBE149:
 403              	.LBE148:
 404              		.cfi_endproc
 405              	.LFE231:
 406              		.size	chSemWaitS, .-chSemWaitS
 407              		.section	.text.chSemWaitTimeout,"ax",%progbits
 408              		.align	1
 409              		.p2align 4,,15
 410              		.global	chSemWaitTimeout
 411              		.syntax unified
 412              		.thumb
 413              		.thumb_func
 414              		.fpu softvfp
 415              		.type	chSemWaitTimeout, %function
 416              	chSemWaitTimeout:
 417              	.LFB232:
 418              		.loc 1 235 0
 419              		.cfi_startproc
 420              		@ args = 0, pretend = 0, frame = 0
 421              		@ frame_needed = 0, uses_anonymous_args = 0
 422              	.LVL36:
 423              	.LBB169:
 424              	.LBB170:
 425              	.LBB171:
 426              	.LBB172:
 427              		.loc 3 546 0
 428 0000 2023     		movs	r3, #32
 429              		.syntax unified
 430              	@ 546 "/home/selim/working/ChibiOS/os/ext/CMSIS/include/core_cmFunc.h" 1
 431 0002 83F31188 		MSR basepri, r3
 432              	@ 0 "" 2
 433              	.LVL37:
 434              		.thumb
 435              		.syntax unified
 436              	.LBE172:
 437              	.LBE171:
 438              	.LBE170:
 439              	.LBE169:
 440              	.LBB173:
 441              	.LBB174:
 442              		.loc 1 272 0
 443 0006 8268     		ldr	r2, [r0, #8]
 444 0008 531E     		subs	r3, r2, #1
 445 000a 002B     		cmp	r3, #0
 446 000c 8360     		str	r3, [r0, #8]
 447 000e 04DB     		blt	.L39
 448              		.loc 1 284 0
 449 0010 0020     		movs	r0, #0
 450              	.LVL38:
 451              	.LBE174:
 452              	.LBE173:
 453              	.LBB183:
 454              	.LBB184:
 455              	.LBB185:
 456              	.LBB186:
ARM GAS  /tmp/cc4SeFZS.s 			page 9


 457              	.LBB187:
 458              		.loc 3 546 0
 459 0012 0023     		movs	r3, #0
 460              		.syntax unified
 461              	@ 546 "/home/selim/working/ChibiOS/os/ext/CMSIS/include/core_cmFunc.h" 1
 462 0014 83F31188 		MSR basepri, r3
 463              	@ 0 "" 2
 464              	.LVL39:
 465              		.thumb
 466              		.syntax unified
 467              	.LBE187:
 468              	.LBE186:
 469              	.LBE185:
 470              	.LBE184:
 471              	.LBE183:
 472              		.loc 1 243 0
 473 0018 7047     		bx	lr
 474              	.LVL40:
 475              	.L39:
 476              		.loc 1 235 0
 477 001a 10B5     		push	{r4, lr}
 478              		.cfi_def_cfa_offset 8
 479              		.cfi_offset 4, -8
 480              		.cfi_offset 14, -4
 481              	.LBB192:
 482              	.LBB181:
 483              		.loc 1 273 0
 484 001c 79B1     		cbz	r1, .L40
 485              	.LBB175:
 486              	.LBB176:
 487              		.loc 1 278 0
 488 001e 0A4A     		ldr	r2, .L41
 489 0020 9269     		ldr	r2, [r2, #24]
 490 0022 1062     		str	r0, [r2, #32]
 491              	.LBB177:
 492              	.LBB178:
 493              		.loc 2 666 0
 494 0024 4468     		ldr	r4, [r0, #4]
 495 0026 0346     		mov	r3, r0
 496              	.LVL41:
 497 0028 82E81800 		stm	r2, {r3, r4}
 498              	.LBE178:
 499              	.LBE177:
 500              		.loc 1 281 0
 501 002c 0520     		movs	r0, #5
 502              	.LVL42:
 503              	.LBB180:
 504              	.LBB179:
 505              		.loc 2 667 0
 506 002e 2260     		str	r2, [r4]
 507              		.loc 2 668 0
 508 0030 5A60     		str	r2, [r3, #4]
 509              	.LVL43:
 510              	.LBE179:
 511              	.LBE180:
 512              		.loc 1 281 0
 513 0032 FFF7FEFF 		bl	chSchGoSleepTimeoutS
ARM GAS  /tmp/cc4SeFZS.s 			page 10


 514              	.LVL44:
 515              	.L32:
 516              	.LBE176:
 517              	.LBE175:
 518              	.LBE181:
 519              	.LBE192:
 520              	.LBB193:
 521              	.LBB191:
 522              	.LBB190:
 523              	.LBB189:
 524              	.LBB188:
 525              		.loc 3 546 0
 526 0036 0023     		movs	r3, #0
 527              		.syntax unified
 528              	@ 546 "/home/selim/working/ChibiOS/os/ext/CMSIS/include/core_cmFunc.h" 1
 529 0038 83F31188 		MSR basepri, r3
 530              	@ 0 "" 2
 531              	.LVL45:
 532              		.thumb
 533              		.syntax unified
 534              	.LBE188:
 535              	.LBE189:
 536              	.LBE190:
 537              	.LBE191:
 538              	.LBE193:
 539              		.loc 1 243 0
 540 003c 10BD     		pop	{r4, pc}
 541              	.LVL46:
 542              	.L40:
 543              	.LBB194:
 544              	.LBB182:
 545              		.loc 1 274 0
 546 003e 8260     		str	r2, [r0, #8]
 547              		.loc 1 276 0
 548 0040 4FF0FF30 		mov	r0, #-1
 549              	.LVL47:
 550 0044 F7E7     		b	.L32
 551              	.L42:
 552 0046 00BF     		.align	2
 553              	.L41:
 554 0048 00000000 		.word	ch
 555              	.LBE182:
 556              	.LBE194:
 557              		.cfi_endproc
 558              	.LFE232:
 559              		.size	chSemWaitTimeout, .-chSemWaitTimeout
 560              		.section	.text.chSemWaitTimeoutS,"ax",%progbits
 561              		.align	1
 562              		.p2align 4,,15
 563              		.global	chSemWaitTimeoutS
 564              		.syntax unified
 565              		.thumb
 566              		.thumb_func
 567              		.fpu softvfp
 568              		.type	chSemWaitTimeoutS, %function
 569              	chSemWaitTimeoutS:
 570              	.LFB233:
ARM GAS  /tmp/cc4SeFZS.s 			page 11


 571              		.loc 1 264 0
 572              		.cfi_startproc
 573              		@ args = 0, pretend = 0, frame = 0
 574              		@ frame_needed = 0, uses_anonymous_args = 0
 575              		@ link register save eliminated.
 576              	.LVL48:
 577 0000 0346     		mov	r3, r0
 578              		.loc 1 272 0
 579 0002 8068     		ldr	r0, [r0, #8]
 580              	.LVL49:
 581 0004 421E     		subs	r2, r0, #1
 582 0006 002A     		cmp	r2, #0
 583 0008 9A60     		str	r2, [r3, #8]
 584 000a 01DB     		blt	.L51
 585              		.loc 1 284 0
 586 000c 0020     		movs	r0, #0
 587 000e 7047     		bx	lr
 588              	.L51:
 589              		.loc 1 264 0
 590 0010 10B4     		push	{r4}
 591              		.cfi_def_cfa_offset 4
 592              		.cfi_offset 4, -4
 593              		.loc 1 273 0
 594 0012 59B1     		cbz	r1, .L52
 595              	.LVL50:
 596              	.LBB199:
 597              	.LBB200:
 598              		.loc 1 278 0
 599 0014 084A     		ldr	r2, .L53
 600 0016 9269     		ldr	r2, [r2, #24]
 601 0018 1362     		str	r3, [r2, #32]
 602              	.LVL51:
 603              	.LBB201:
 604              	.LBB202:
 605              		.loc 2 666 0
 606 001a 5C68     		ldr	r4, [r3, #4]
 607              	.LBE202:
 608              	.LBE201:
 609              		.loc 1 281 0
 610 001c 0520     		movs	r0, #5
 611              	.LBB204:
 612              	.LBB203:
 613              		.loc 2 666 0
 614 001e 82E81800 		stm	r2, {r3, r4}
 615              		.loc 2 667 0
 616 0022 2260     		str	r2, [r4]
 617              		.loc 2 668 0
 618 0024 5A60     		str	r2, [r3, #4]
 619              	.LVL52:
 620              	.LBE203:
 621              	.LBE204:
 622              	.LBE200:
 623              	.LBE199:
 624              		.loc 1 285 0
 625 0026 10BC     		pop	{r4}
 626              		.cfi_remember_state
 627              		.cfi_restore 4
ARM GAS  /tmp/cc4SeFZS.s 			page 12


 628              		.cfi_def_cfa_offset 0
 629              	.LBB206:
 630              	.LBB205:
 631              		.loc 1 281 0
 632 0028 FFF7FEBF 		b	chSchGoSleepTimeoutS
 633              	.LVL53:
 634              	.L52:
 635              		.cfi_restore_state
 636              	.LBE205:
 637              	.LBE206:
 638              		.loc 1 274 0
 639 002c 9860     		str	r0, [r3, #8]
 640              		.loc 1 285 0
 641 002e 10BC     		pop	{r4}
 642              		.cfi_restore 4
 643              		.cfi_def_cfa_offset 0
 644              		.loc 1 276 0
 645 0030 4FF0FF30 		mov	r0, #-1
 646              		.loc 1 285 0
 647 0034 7047     		bx	lr
 648              	.L54:
 649 0036 00BF     		.align	2
 650              	.L53:
 651 0038 00000000 		.word	ch
 652              		.cfi_endproc
 653              	.LFE233:
 654              		.size	chSemWaitTimeoutS, .-chSemWaitTimeoutS
 655              		.section	.text.chSemSignal,"ax",%progbits
 656              		.align	1
 657              		.p2align 4,,15
 658              		.global	chSemSignal
 659              		.syntax unified
 660              		.thumb
 661              		.thumb_func
 662              		.fpu softvfp
 663              		.type	chSemSignal, %function
 664              	chSemSignal:
 665              	.LFB234:
 666              		.loc 1 294 0
 667              		.cfi_startproc
 668              		@ args = 0, pretend = 0, frame = 0
 669              		@ frame_needed = 0, uses_anonymous_args = 0
 670              	.LVL54:
 671 0000 08B5     		push	{r3, lr}
 672              		.cfi_def_cfa_offset 8
 673              		.cfi_offset 3, -8
 674              		.cfi_offset 14, -4
 675              	.LBB207:
 676              	.LBB208:
 677              	.LBB209:
 678              	.LBB210:
 679              		.loc 3 546 0
 680 0002 2023     		movs	r3, #32
 681              		.syntax unified
 682              	@ 546 "/home/selim/working/ChibiOS/os/ext/CMSIS/include/core_cmFunc.h" 1
 683 0004 83F31188 		MSR basepri, r3
 684              	@ 0 "" 2
ARM GAS  /tmp/cc4SeFZS.s 			page 13


 685              	.LVL55:
 686              		.thumb
 687              		.syntax unified
 688              	.LBE210:
 689              	.LBE209:
 690              	.LBE208:
 691              	.LBE207:
 692              		.loc 1 302 0
 693 0008 8368     		ldr	r3, [r0, #8]
 694 000a 0133     		adds	r3, r3, #1
 695 000c 002B     		cmp	r3, #0
 696 000e 8360     		str	r3, [r0, #8]
 697 0010 03DD     		ble	.L58
 698              	.LVL56:
 699              	.LBB211:
 700              	.LBB212:
 701              	.LBB213:
 702              	.LBB214:
 703              	.LBB215:
 704              		.loc 3 546 0
 705 0012 0023     		movs	r3, #0
 706              		.syntax unified
 707              	@ 546 "/home/selim/working/ChibiOS/os/ext/CMSIS/include/core_cmFunc.h" 1
 708 0014 83F31188 		MSR basepri, r3
 709              	@ 0 "" 2
 710              	.LVL57:
 711              		.thumb
 712              		.syntax unified
 713 0018 08BD     		pop	{r3, pc}
 714              	.L58:
 715 001a 0346     		mov	r3, r0
 716              	.LVL58:
 717              	.LBE215:
 718              	.LBE214:
 719              	.LBE213:
 720              	.LBE212:
 721              	.LBE211:
 722              	.LBB220:
 723              	.LBB221:
 724              		.loc 2 672 0
 725 001c 0068     		ldr	r0, [r0]
 726              	.LVL59:
 727              		.loc 2 674 0
 728 001e 0268     		ldr	r2, [r0]
 729 0020 1A60     		str	r2, [r3]
 730              	.LBE221:
 731              	.LBE220:
 732              		.loc 1 303 0
 733 0022 0021     		movs	r1, #0
 734              	.LBB223:
 735              	.LBB222:
 736              		.loc 2 675 0
 737 0024 5360     		str	r3, [r2, #4]
 738              	.LVL60:
 739              	.LBE222:
 740              	.LBE223:
 741              		.loc 1 303 0
ARM GAS  /tmp/cc4SeFZS.s 			page 14


 742 0026 FFF7FEFF 		bl	chSchWakeupS
 743              	.LVL61:
 744              	.LBB224:
 745              	.LBB219:
 746              	.LBB218:
 747              	.LBB217:
 748              	.LBB216:
 749              		.loc 3 546 0
 750 002a 0023     		movs	r3, #0
 751              		.syntax unified
 752              	@ 546 "/home/selim/working/ChibiOS/os/ext/CMSIS/include/core_cmFunc.h" 1
 753 002c 83F31188 		MSR basepri, r3
 754              	@ 0 "" 2
 755              	.LVL62:
 756              		.thumb
 757              		.syntax unified
 758 0030 08BD     		pop	{r3, pc}
 759              	.LBE216:
 760              	.LBE217:
 761              	.LBE218:
 762              	.LBE219:
 763              	.LBE224:
 764              		.cfi_endproc
 765              	.LFE234:
 766              		.size	chSemSignal, .-chSemSignal
 767 0032 00BF     		.section	.text.chSemSignalI,"ax",%progbits
 768              		.align	1
 769              		.p2align 4,,15
 770              		.global	chSemSignalI
 771              		.syntax unified
 772              		.thumb
 773              		.thumb_func
 774              		.fpu softvfp
 775              		.type	chSemSignalI, %function
 776              	chSemSignalI:
 777              	.LFB235:
 778              		.loc 1 319 0
 779              		.cfi_startproc
 780              		@ args = 0, pretend = 0, frame = 0
 781              		@ frame_needed = 0, uses_anonymous_args = 0
 782              		@ link register save eliminated.
 783              	.LVL63:
 784              		.loc 1 327 0
 785 0000 8368     		ldr	r3, [r0, #8]
 786 0002 0133     		adds	r3, r3, #1
 787 0004 002B     		cmp	r3, #0
 788 0006 8360     		str	r3, [r0, #8]
 789 0008 00DD     		ble	.L61
 790 000a 7047     		bx	lr
 791              	.L61:
 792              	.LVL64:
 793              	.LBB225:
 794              	.LBB226:
 795              	.LBB227:
 796              		.loc 2 672 0
 797 000c 0368     		ldr	r3, [r0]
 798              	.LVL65:
ARM GAS  /tmp/cc4SeFZS.s 			page 15


 799              		.loc 2 674 0
 800 000e 1A68     		ldr	r2, [r3]
 801 0010 0260     		str	r2, [r0]
 802              	.LBE227:
 803              	.LBE226:
 804              		.loc 1 331 0
 805 0012 0021     		movs	r1, #0
 806              	.LBB229:
 807              	.LBB228:
 808              		.loc 2 675 0
 809 0014 5060     		str	r0, [r2, #4]
 810              	.LVL66:
 811              	.LBE228:
 812              	.LBE229:
 813              		.loc 1 332 0
 814 0016 1846     		mov	r0, r3
 815              	.LVL67:
 816              		.loc 1 331 0
 817 0018 1962     		str	r1, [r3, #32]
 818              	.LVL68:
 819              		.loc 1 332 0
 820 001a FFF7FEBF 		b	chSchReadyI
 821              	.LVL69:
 822              	.LBE225:
 823              		.cfi_endproc
 824              	.LFE235:
 825              		.size	chSemSignalI, .-chSemSignalI
 826 001e 00BF     		.section	.text.chSemAddCounterI,"ax",%progbits
 827              		.align	1
 828              		.p2align 4,,15
 829              		.global	chSemAddCounterI
 830              		.syntax unified
 831              		.thumb
 832              		.thumb_func
 833              		.fpu softvfp
 834              		.type	chSemAddCounterI, %function
 835              	chSemAddCounterI:
 836              	.LFB236:
 837              		.loc 1 349 0
 838              		.cfi_startproc
 839              		@ args = 0, pretend = 0, frame = 0
 840              		@ frame_needed = 0, uses_anonymous_args = 0
 841              	.LVL70:
 842 0000 70B5     		push	{r4, r5, r6, lr}
 843              		.cfi_def_cfa_offset 16
 844              		.cfi_offset 4, -16
 845              		.cfi_offset 5, -12
 846              		.cfi_offset 6, -8
 847              		.cfi_offset 14, -4
 848              		.loc 1 357 0
 849 0002 0C1E     		subs	r4, r1, #0
 850 0004 12DD     		ble	.L62
 851 0006 0546     		mov	r5, r0
 852              		.loc 1 359 0
 853 0008 0026     		movs	r6, #0
 854 000a 01E0     		b	.L65
 855              	.LVL71:
ARM GAS  /tmp/cc4SeFZS.s 			page 16


 856              	.L64:
 857              		.loc 1 357 0
 858 000c 013C     		subs	r4, r4, #1
 859              	.LVL72:
 860 000e 0DD0     		beq	.L62
 861              	.LVL73:
 862              	.L65:
 863              		.loc 1 358 0
 864 0010 AB68     		ldr	r3, [r5, #8]
 865 0012 0133     		adds	r3, r3, #1
 866 0014 002B     		cmp	r3, #0
 867 0016 AB60     		str	r3, [r5, #8]
 868 0018 F8DC     		bgt	.L64
 869              	.LVL74:
 870              	.LBB230:
 871              	.LBB231:
 872              		.loc 2 672 0
 873 001a 2868     		ldr	r0, [r5]
 874              	.LVL75:
 875              		.loc 2 674 0
 876 001c 0368     		ldr	r3, [r0]
 877 001e 2B60     		str	r3, [r5]
 878              		.loc 2 675 0
 879 0020 5D60     		str	r5, [r3, #4]
 880              	.LVL76:
 881              	.LBE231:
 882              	.LBE230:
 883              		.loc 1 359 0
 884 0022 FFF7FEFF 		bl	chSchReadyI
 885              	.LVL77:
 886              		.loc 1 357 0
 887 0026 013C     		subs	r4, r4, #1
 888              	.LVL78:
 889              		.loc 1 359 0
 890 0028 0662     		str	r6, [r0, #32]
 891              	.LVL79:
 892              		.loc 1 357 0
 893 002a F1D1     		bne	.L65
 894              	.LVL80:
 895              	.L62:
 896 002c 70BD     		pop	{r4, r5, r6, pc}
 897              		.cfi_endproc
 898              	.LFE236:
 899              		.size	chSemAddCounterI, .-chSemAddCounterI
 900 002e 00BF     		.section	.text.chSemSignalWait,"ax",%progbits
 901              		.align	1
 902              		.p2align 4,,15
 903              		.global	chSemSignalWait
 904              		.syntax unified
 905              		.thumb
 906              		.thumb_func
 907              		.fpu softvfp
 908              		.type	chSemSignalWait, %function
 909              	chSemSignalWait:
 910              	.LFB237:
 911              		.loc 1 378 0
 912              		.cfi_startproc
ARM GAS  /tmp/cc4SeFZS.s 			page 17


 913              		@ args = 0, pretend = 0, frame = 8
 914              		@ frame_needed = 0, uses_anonymous_args = 0
 915              	.LVL81:
 916 0000 10B5     		push	{r4, lr}
 917              		.cfi_def_cfa_offset 8
 918              		.cfi_offset 4, -8
 919              		.cfi_offset 14, -4
 920              	.LBB232:
 921              	.LBB233:
 922              	.LBB234:
 923              	.LBB235:
 924              		.loc 3 546 0
 925 0002 2023     		movs	r3, #32
 926              	.LBE235:
 927              	.LBE234:
 928              	.LBE233:
 929              	.LBE232:
 930              		.loc 1 378 0
 931 0004 82B0     		sub	sp, sp, #8
 932              		.cfi_def_cfa_offset 16
 933              	.LBB239:
 934              	.LBB238:
 935              	.LBB237:
 936              	.LBB236:
 937              		.loc 3 546 0
 938              		.syntax unified
 939              	@ 546 "/home/selim/working/ChibiOS/os/ext/CMSIS/include/core_cmFunc.h" 1
 940 0006 83F31188 		MSR basepri, r3
 941              	@ 0 "" 2
 942              	.LVL82:
 943              		.thumb
 944              		.syntax unified
 945              	.LBE236:
 946              	.LBE237:
 947              	.LBE238:
 948              	.LBE239:
 949              		.loc 1 390 0
 950 000a 8368     		ldr	r3, [r0, #8]
 951 000c 0133     		adds	r3, r3, #1
 952 000e 002B     		cmp	r3, #0
 953 0010 8360     		str	r3, [r0, #8]
 954 0012 1DDD     		ble	.L74
 955              	.LVL83:
 956              	.L70:
 957              		.loc 1 393 0
 958 0014 8B68     		ldr	r3, [r1, #8]
 959 0016 013B     		subs	r3, r3, #1
 960 0018 002B     		cmp	r3, #0
 961 001a 8B60     		str	r3, [r1, #8]
 962 001c 07DB     		blt	.L75
 963              		.loc 1 401 0
 964 001e FFF7FEFF 		bl	chSchRescheduleS
 965              	.LVL84:
 966              		.loc 1 402 0
 967 0022 0020     		movs	r0, #0
 968              	.LVL85:
 969              	.LBB240:
ARM GAS  /tmp/cc4SeFZS.s 			page 18


 970              	.LBB241:
 971              	.LBB242:
 972              	.LBB243:
 973              	.LBB244:
 974              		.loc 3 546 0
 975 0024 0023     		movs	r3, #0
 976              		.syntax unified
 977              	@ 546 "/home/selim/working/ChibiOS/os/ext/CMSIS/include/core_cmFunc.h" 1
 978 0026 83F31188 		MSR basepri, r3
 979              	@ 0 "" 2
 980              	.LVL86:
 981              		.thumb
 982              		.syntax unified
 983              	.LBE244:
 984              	.LBE243:
 985              	.LBE242:
 986              	.LBE241:
 987              	.LBE240:
 988              		.loc 1 407 0
 989 002a 02B0     		add	sp, sp, #8
 990              		.cfi_remember_state
 991              		.cfi_def_cfa_offset 8
 992              		@ sp needed
 993 002c 10BD     		pop	{r4, pc}
 994              	.LVL87:
 995              	.L75:
 996              		.cfi_restore_state
 997              	.LBB249:
 998              		.loc 1 394 0
 999 002e 0E4A     		ldr	r2, .L76
 1000              	.LBB250:
 1001              	.LBB251:
 1002              		.loc 2 666 0
 1003 0030 4B68     		ldr	r3, [r1, #4]
 1004              	.LBE251:
 1005              	.LBE250:
 1006              		.loc 1 394 0
 1007 0032 9469     		ldr	r4, [r2, #24]
 1008              	.LVL88:
 1009              		.loc 1 397 0
 1010 0034 0520     		movs	r0, #5
 1011              	.LBB253:
 1012              	.LBB252:
 1013              		.loc 2 666 0
 1014 0036 84E80A00 		stm	r4, {r1, r3}
 1015              		.loc 2 667 0
 1016 003a 1C60     		str	r4, [r3]
 1017              		.loc 2 668 0
 1018 003c 4C60     		str	r4, [r1, #4]
 1019              	.LVL89:
 1020              	.LBE252:
 1021              	.LBE253:
 1022              		.loc 1 396 0
 1023 003e 2162     		str	r1, [r4, #32]
 1024              		.loc 1 397 0
 1025 0040 FFF7FEFF 		bl	chSchGoSleepS
 1026              	.LVL90:
ARM GAS  /tmp/cc4SeFZS.s 			page 19


 1027              		.loc 1 398 0
 1028 0044 206A     		ldr	r0, [r4, #32]
 1029              	.LVL91:
 1030              	.LBE249:
 1031              	.LBB254:
 1032              	.LBB248:
 1033              	.LBB247:
 1034              	.LBB246:
 1035              	.LBB245:
 1036              		.loc 3 546 0
 1037 0046 0023     		movs	r3, #0
 1038              		.syntax unified
 1039              	@ 546 "/home/selim/working/ChibiOS/os/ext/CMSIS/include/core_cmFunc.h" 1
 1040 0048 83F31188 		MSR basepri, r3
 1041              	@ 0 "" 2
 1042              	.LVL92:
 1043              		.thumb
 1044              		.syntax unified
 1045              	.LBE245:
 1046              	.LBE246:
 1047              	.LBE247:
 1048              	.LBE248:
 1049              	.LBE254:
 1050              		.loc 1 407 0
 1051 004c 02B0     		add	sp, sp, #8
 1052              		.cfi_remember_state
 1053              		.cfi_def_cfa_offset 8
 1054              		@ sp needed
 1055 004e 10BD     		pop	{r4, pc}
 1056              	.LVL93:
 1057              	.L74:
 1058              		.cfi_restore_state
 1059 0050 0246     		mov	r2, r0
 1060              	.LBB255:
 1061              	.LBB256:
 1062              		.loc 2 672 0
 1063 0052 0068     		ldr	r0, [r0]
 1064              	.LVL94:
 1065 0054 0191     		str	r1, [sp, #4]
 1066              	.LVL95:
 1067              		.loc 2 674 0
 1068 0056 0368     		ldr	r3, [r0]
 1069 0058 1360     		str	r3, [r2]
 1070              		.loc 2 675 0
 1071 005a 5A60     		str	r2, [r3, #4]
 1072              	.LVL96:
 1073              	.LBE256:
 1074              	.LBE255:
 1075              		.loc 1 391 0
 1076 005c FFF7FEFF 		bl	chSchReadyI
 1077              	.LVL97:
 1078 0060 0023     		movs	r3, #0
 1079 0062 0362     		str	r3, [r0, #32]
 1080 0064 0199     		ldr	r1, [sp, #4]
 1081 0066 D5E7     		b	.L70
 1082              	.L77:
 1083              		.align	2
ARM GAS  /tmp/cc4SeFZS.s 			page 20


 1084              	.L76:
 1085 0068 00000000 		.word	ch
 1086              		.cfi_endproc
 1087              	.LFE237:
 1088              		.size	chSemSignalWait, .-chSemSignalWait
 1089              		.text
 1090              	.Letext0:
 1091              		.file 4 "/usr/arm-none-eabi/include/machine/_default_types.h"
 1092              		.file 5 "/usr/arm-none-eabi/include/sys/_stdint.h"
 1093              		.file 6 "/home/selim/working/ChibiOS/os/rt/ports/ARMCMx/compilers/GCC/chtypes.h"
 1094              		.file 7 "/home/selim/working/ChibiOS/os/rt/include/chsystypes.h"
 1095              		.file 8 "/home/selim/working/ChibiOS/os/ext/CMSIS/include/core_cm4.h"
 1096              		.file 9 "/home/selim/working/ChibiOS/os/ext/CMSIS/ST/system_stm32f4xx.h"
 1097              		.file 10 "/home/selim/working/ChibiOS/os/rt/ports/ARMCMx/chcore.h"
 1098              		.file 11 "/home/selim/working/ChibiOS/os/rt/ports/ARMCMx/chcore_v7m.h"
 1099              		.file 12 "/home/selim/working/ChibiOS/os/rt/include/chtm.h"
 1100              		.file 13 "/home/selim/working/ChibiOS/os/rt/include/chsem.h"
 1101              		.file 14 "/home/selim/working/ChibiOS/os/rt/include/chmtx.h"
 1102              		.file 15 "/home/selim/working/ChibiOS/os/rt/include/chregistry.h"
 1103              		.file 16 "/home/selim/working/ChibiOS/os/rt/include/chsys.h"