ARM GAS  /tmp/ccgiDT2l.s 			page 1


   1              		.cpu cortex-m4
   2              		.eabi_attribute 20, 1
   3              		.eabi_attribute 21, 1
   4              		.eabi_attribute 23, 3
   5              		.eabi_attribute 24, 1
   6              		.eabi_attribute 25, 1
   7              		.eabi_attribute 26, 1
   8              		.eabi_attribute 30, 2
   9              		.eabi_attribute 34, 1
  10              		.eabi_attribute 18, 4
  11              		.file	"chthreads.c"
  12              		.text
  13              	.Ltext0:
  14              		.cfi_sections	.debug_frame
  15              		.section	.text._thread_init,"ax",%progbits
  16              		.align	1
  17              		.p2align 4,,15
  18              		.global	_thread_init
  19              		.syntax unified
  20              		.thumb
  21              		.thumb_func
  22              		.fpu softvfp
  23              		.type	_thread_init, %function
  24              	_thread_init:
  25              	.LFB227:
  26              		.file 1 "/home/selim/working/ChibiOS/os/rt/src/chthreads.c"
  27              		.loc 1 91 0
  28              		.cfi_startproc
  29              		@ args = 0, pretend = 0, frame = 0
  30              		@ frame_needed = 0, uses_anonymous_args = 0
  31              	.LVL0:
  32 0000 F0B5     		push	{r4, r5, r6, r7, lr}
  33              		.cfi_def_cfa_offset 20
  34              		.cfi_offset 4, -20
  35              		.cfi_offset 5, -16
  36              		.cfi_offset 6, -12
  37              		.cfi_offset 7, -8
  38              		.cfi_offset 14, -4
  39              		.loc 1 114 0
  40 0002 0D4C     		ldr	r4, .L3
  41              		.loc 1 100 0
  42 0004 C163     		str	r1, [r0, #60]
  43              		.loc 1 114 0
  44 0006 6569     		ldr	r5, [r4, #20]
  45              		.loc 1 93 0
  46 0008 8160     		str	r1, [r0, #8]
  47              		.loc 1 95 0
  48 000a 0022     		movs	r2, #0
  49              		.loc 1 120 0
  50 000c 00F12801 		add	r1, r0, #40
  51              	.LVL1:
  52              		.loc 1 94 0
  53 0010 4FF0020E 		mov	lr, #2
  54              		.loc 1 110 0
  55 0014 0127     		movs	r7, #1
  56              		.loc 1 117 0
  57 0016 00F12406 		add	r6, r0, #36
ARM GAS  /tmp/ccgiDT2l.s 			page 2


  58              		.loc 1 114 0
  59 001a 4561     		str	r5, [r0, #20]
  60 001c 0461     		str	r4, [r0, #16]
  61              		.loc 1 94 0
  62 001e 80F81CE0 		strb	lr, [r0, #28]
  63              		.loc 1 110 0
  64 0022 8777     		strb	r7, [r0, #30]
  65              		.loc 1 95 0
  66 0024 4277     		strb	r2, [r0, #29]
  67              		.loc 1 101 0
  68 0026 8263     		str	r2, [r0, #56]
  69              		.loc 1 104 0
  70 0028 4263     		str	r2, [r0, #52]
  71              		.loc 1 113 0
  72 002a 8261     		str	r2, [r0, #24]
  73              		.loc 1 114 0
  74 002c 2861     		str	r0, [r5, #16]
  75 002e 6061     		str	r0, [r4, #20]
  76              	.LVL2:
  77              	.LBB200:
  78              	.LBB201:
  79              		.file 2 "/home/selim/working/ChibiOS/os/rt/include/chschd.h"
  80              		.loc 2 566 0
  81 0030 4662     		str	r6, [r0, #36]
  82              	.LVL3:
  83              	.LBE201:
  84              	.LBE200:
  85              	.LBB202:
  86              	.LBB203:
  87              		.loc 2 604 0
  88 0032 8162     		str	r1, [r0, #40]
  89              		.loc 2 605 0
  90 0034 C162     		str	r1, [r0, #44]
  91              	.LVL4:
  92              	.LBE203:
  93              	.LBE202:
  94              		.loc 1 133 0
  95 0036 F0BD     		pop	{r4, r5, r6, r7, pc}
  96              	.L4:
  97              		.align	2
  98              	.L3:
  99 0038 00000000 		.word	ch
 100              		.cfi_endproc
 101              	.LFE227:
 102              		.size	_thread_init, .-_thread_init
 103              		.section	.text.chThdCreateI,"ax",%progbits
 104              		.align	1
 105              		.p2align 4,,15
 106              		.global	chThdCreateI
 107              		.syntax unified
 108              		.thumb
 109              		.thumb_func
 110              		.fpu softvfp
 111              		.type	chThdCreateI, %function
 112              	chThdCreateI:
 113              	.LFB228:
 114              		.loc 1 178 0
ARM GAS  /tmp/ccgiDT2l.s 			page 3


 115              		.cfi_startproc
 116              		@ args = 4, pretend = 0, frame = 0
 117              		@ frame_needed = 0, uses_anonymous_args = 0
 118              	.LVL5:
 119 0000 F0B5     		push	{r4, r5, r6, r7, lr}
 120              		.cfi_def_cfa_offset 20
 121              		.cfi_offset 4, -20
 122              		.cfi_offset 5, -16
 123              		.cfi_offset 6, -12
 124              		.cfi_offset 7, -8
 125              		.cfi_offset 14, -4
 126              	.LBB204:
 127              	.LBB205:
 128              		.loc 1 114 0
 129 0002 134D     		ldr	r5, .L7
 130              	.LBE205:
 131              	.LBE204:
 132              		.loc 1 178 0
 133 0004 059F     		ldr	r7, [sp, #20]
 134              		.loc 1 187 0
 135 0006 A1F1240E 		sub	lr, r1, #36
 136              	.LVL6:
 137 000a 00EB0E06 		add	r6, r0, lr
 138              	.LBB212:
 139              	.LBB210:
 140              		.loc 1 114 0
 141 000e 6969     		ldr	r1, [r5, #20]
 142              	.LVL7:
 143              	.LBE210:
 144              	.LBE212:
 145              		.loc 1 187 0
 146 0010 C660     		str	r6, [r0, #12]
 147 0012 40F80E30 		str	r3, [r0, lr]
 148 0016 0F4B     		ldr	r3, .L7+4
 149              	.LVL8:
 150 0018 7760     		str	r7, [r6, #4]
 151 001a 3362     		str	r3, [r6, #32]
 152              	.LVL9:
 153              	.LBB213:
 154              	.LBB211:
 155              		.loc 1 94 0
 156 001c 4FF0020E 		mov	lr, #2
 157              	.LVL10:
 158              		.loc 1 95 0
 159 0020 0023     		movs	r3, #0
 160              		.loc 1 93 0
 161 0022 8260     		str	r2, [r0, #8]
 162              		.loc 1 100 0
 163 0024 C263     		str	r2, [r0, #60]
 164              		.loc 1 110 0
 165 0026 0127     		movs	r7, #1
 166              		.loc 1 120 0
 167 0028 00F12802 		add	r2, r0, #40
 168              	.LVL11:
 169              		.loc 1 117 0
 170 002c 00F12406 		add	r6, r0, #36
 171              	.LVL12:
ARM GAS  /tmp/ccgiDT2l.s 			page 4


 172              		.loc 1 114 0
 173 0030 0561     		str	r5, [r0, #16]
 174 0032 4161     		str	r1, [r0, #20]
 175              		.loc 1 94 0
 176 0034 80F81CE0 		strb	lr, [r0, #28]
 177              	.LVL13:
 178              		.loc 1 110 0
 179 0038 8777     		strb	r7, [r0, #30]
 180              		.loc 1 95 0
 181 003a 4377     		strb	r3, [r0, #29]
 182              		.loc 1 101 0
 183 003c 8363     		str	r3, [r0, #56]
 184              		.loc 1 104 0
 185 003e 4363     		str	r3, [r0, #52]
 186              		.loc 1 113 0
 187 0040 8361     		str	r3, [r0, #24]
 188              		.loc 1 114 0
 189 0042 0861     		str	r0, [r1, #16]
 190              	.LBB206:
 191              	.LBB207:
 192              		.loc 2 566 0
 193 0044 4662     		str	r6, [r0, #36]
 194              	.LBE207:
 195              	.LBE206:
 196              		.loc 1 114 0
 197 0046 6861     		str	r0, [r5, #20]
 198              	.LVL14:
 199              	.LBB208:
 200              	.LBB209:
 201              		.loc 2 604 0
 202 0048 8262     		str	r2, [r0, #40]
 203              		.loc 2 605 0
 204 004a C262     		str	r2, [r0, #44]
 205              	.LVL15:
 206              	.LBE209:
 207              	.LBE208:
 208              	.LBE211:
 209              	.LBE213:
 210              		.loc 1 190 0
 211 004c F0BD     		pop	{r4, r5, r6, r7, pc}
 212              	.LVL16:
 213              	.L8:
 214 004e 00BF     		.align	2
 215              	.L7:
 216 0050 00000000 		.word	ch
 217 0054 00000000 		.word	_port_thread_start
 218              		.cfi_endproc
 219              	.LFE228:
 220              		.size	chThdCreateI, .-chThdCreateI
 221              		.section	.text.chThdCreateStatic,"ax",%progbits
 222              		.align	1
 223              		.p2align 4,,15
 224              		.global	chThdCreateStatic
 225              		.syntax unified
 226              		.thumb
 227              		.thumb_func
 228              		.fpu softvfp
ARM GAS  /tmp/ccgiDT2l.s 			page 5


 229              		.type	chThdCreateStatic, %function
 230              	chThdCreateStatic:
 231              	.LFB229:
 232              		.loc 1 209 0
 233              		.cfi_startproc
 234              		@ args = 4, pretend = 0, frame = 0
 235              		@ frame_needed = 0, uses_anonymous_args = 0
 236              	.LVL17:
 237 0000 F8B5     		push	{r3, r4, r5, r6, r7, lr}
 238              		.cfi_def_cfa_offset 24
 239              		.cfi_offset 3, -24
 240              		.cfi_offset 4, -20
 241              		.cfi_offset 5, -16
 242              		.cfi_offset 6, -12
 243              		.cfi_offset 7, -8
 244              		.cfi_offset 14, -4
 245              		.loc 1 209 0
 246 0002 0446     		mov	r4, r0
 247              	.LBB214:
 248              	.LBB215:
 249              	.LBB216:
 250              	.LBB217:
 251              		.file 3 "/home/selim/working/ChibiOS/os/ext/CMSIS/include/core_cmFunc.h"
 252              		.loc 3 546 0
 253 0004 2025     		movs	r5, #32
 254              		.syntax unified
 255              	@ 546 "/home/selim/working/ChibiOS/os/ext/CMSIS/include/core_cmFunc.h" 1
 256 0006 85F31188 		MSR basepri, r5
 257              	@ 0 "" 2
 258              	.LVL18:
 259              		.thumb
 260              		.syntax unified
 261              	.LBE217:
 262              	.LBE216:
 263              	.LBE215:
 264              	.LBE214:
 265              	.LBB218:
 266              	.LBB219:
 267              	.LBB220:
 268              	.LBB221:
 269              		.loc 1 114 0
 270 000a 144E     		ldr	r6, .L11
 271              	.LBE221:
 272              	.LBE220:
 273              		.loc 1 187 0
 274 000c 2439     		subs	r1, r1, #36
 275              	.LVL19:
 276 000e 4518     		adds	r5, r0, r1
 277              	.LBB229:
 278              	.LBB226:
 279              		.loc 1 114 0
 280 0010 7769     		ldr	r7, [r6, #20]
 281              	.LBE226:
 282              	.LBE229:
 283              		.loc 1 187 0
 284 0012 C560     		str	r5, [r0, #12]
 285 0014 4350     		str	r3, [r0, r1]
ARM GAS  /tmp/ccgiDT2l.s 			page 6


 286 0016 069B     		ldr	r3, [sp, #24]
 287              	.LVL20:
 288 0018 6B60     		str	r3, [r5, #4]
 289 001a 1149     		ldr	r1, .L11+4
 290              	.LVL21:
 291 001c 2962     		str	r1, [r5, #32]
 292              	.LVL22:
 293              	.LBB230:
 294              	.LBB227:
 295              		.loc 1 94 0
 296 001e 0223     		movs	r3, #2
 297              		.loc 1 95 0
 298 0020 0025     		movs	r5, #0
 299              	.LVL23:
 300              		.loc 1 94 0
 301 0022 0377     		strb	r3, [r0, #28]
 302              	.LVL24:
 303              		.loc 1 117 0
 304 0024 00F1240E 		add	lr, r0, #36
 305              		.loc 1 120 0
 306 0028 00F12803 		add	r3, r0, #40
 307              		.loc 1 110 0
 308 002c 0121     		movs	r1, #1
 309              		.loc 1 93 0
 310 002e 8260     		str	r2, [r0, #8]
 311              		.loc 1 110 0
 312 0030 8177     		strb	r1, [r0, #30]
 313              		.loc 1 114 0
 314 0032 0661     		str	r6, [r0, #16]
 315 0034 4761     		str	r7, [r0, #20]
 316              		.loc 1 100 0
 317 0036 C263     		str	r2, [r0, #60]
 318              		.loc 1 95 0
 319 0038 4577     		strb	r5, [r0, #29]
 320              		.loc 1 101 0
 321 003a 8563     		str	r5, [r0, #56]
 322              		.loc 1 104 0
 323 003c 4563     		str	r5, [r0, #52]
 324              		.loc 1 113 0
 325 003e 8561     		str	r5, [r0, #24]
 326              	.LBE227:
 327              	.LBE230:
 328              	.LBE219:
 329              	.LBE218:
 330              		.loc 1 223 0
 331 0040 2946     		mov	r1, r5
 332              	.LBB233:
 333              	.LBB232:
 334              	.LBB231:
 335              	.LBB228:
 336              		.loc 1 114 0
 337 0042 3861     		str	r0, [r7, #16]
 338              	.LBB222:
 339              	.LBB223:
 340              		.loc 2 566 0
 341 0044 C0F824E0 		str	lr, [r0, #36]
 342              	.LBE223:
ARM GAS  /tmp/ccgiDT2l.s 			page 7


 343              	.LBE222:
 344              	.LBB224:
 345              	.LBB225:
 346              		.loc 2 604 0
 347 0048 8362     		str	r3, [r0, #40]
 348              		.loc 2 605 0
 349 004a C362     		str	r3, [r0, #44]
 350              	.LBE225:
 351              	.LBE224:
 352              		.loc 1 114 0
 353 004c 7061     		str	r0, [r6, #20]
 354              	.LVL25:
 355              	.LBE228:
 356              	.LBE231:
 357              	.LBE232:
 358              	.LBE233:
 359              		.loc 1 223 0
 360 004e FFF7FEFF 		bl	chSchWakeupS
 361              	.LVL26:
 362              	.LBB234:
 363              	.LBB235:
 364              	.LBB236:
 365              	.LBB237:
 366              	.LBB238:
 367              		.loc 3 546 0
 368              		.syntax unified
 369              	@ 546 "/home/selim/working/ChibiOS/os/ext/CMSIS/include/core_cmFunc.h" 1
 370 0052 85F31188 		MSR basepri, r5
 371              	@ 0 "" 2
 372              	.LVL27:
 373              		.thumb
 374              		.syntax unified
 375              	.LBE238:
 376              	.LBE237:
 377              	.LBE236:
 378              	.LBE235:
 379              	.LBE234:
 380              		.loc 1 227 0
 381 0056 2046     		mov	r0, r4
 382 0058 F8BD     		pop	{r3, r4, r5, r6, r7, pc}
 383              	.LVL28:
 384              	.L12:
 385 005a 00BF     		.align	2
 386              	.L11:
 387 005c 00000000 		.word	ch
 388 0060 00000000 		.word	_port_thread_start
 389              		.cfi_endproc
 390              	.LFE229:
 391              		.size	chThdCreateStatic, .-chThdCreateStatic
 392              		.section	.text.chThdStart,"ax",%progbits
 393              		.align	1
 394              		.p2align 4,,15
 395              		.global	chThdStart
 396              		.syntax unified
 397              		.thumb
 398              		.thumb_func
 399              		.fpu softvfp
ARM GAS  /tmp/ccgiDT2l.s 			page 8


 400              		.type	chThdStart, %function
 401              	chThdStart:
 402              	.LFB230:
 403              		.loc 1 238 0
 404              		.cfi_startproc
 405              		@ args = 0, pretend = 0, frame = 0
 406              		@ frame_needed = 0, uses_anonymous_args = 0
 407              	.LVL29:
 408 0000 08B5     		push	{r3, lr}
 409              		.cfi_def_cfa_offset 8
 410              		.cfi_offset 3, -8
 411              		.cfi_offset 14, -4
 412              	.LBB239:
 413              	.LBB240:
 414              	.LBB241:
 415              	.LBB242:
 416              		.loc 3 546 0
 417 0002 2023     		movs	r3, #32
 418              		.syntax unified
 419              	@ 546 "/home/selim/working/ChibiOS/os/ext/CMSIS/include/core_cmFunc.h" 1
 420 0004 83F31188 		MSR basepri, r3
 421              	@ 0 "" 2
 422              	.LVL30:
 423              		.thumb
 424              		.syntax unified
 425              	.LBE242:
 426              	.LBE241:
 427              	.LBE240:
 428              	.LBE239:
 429              	.LBB243:
 430              	.LBB244:
 431              		.file 4 "/home/selim/working/ChibiOS/os/rt/include/chthreads.h"
 432              		.loc 4 249 0
 433 0008 FFF7FEFF 		bl	chSchReadyI
 434              	.LVL31:
 435              	.LBE244:
 436              	.LBE243:
 437              	.LBB245:
 438              	.LBB246:
 439              	.LBB247:
 440              	.LBB248:
 441              	.LBB249:
 442              		.loc 3 546 0
 443 000c 0023     		movs	r3, #0
 444              		.syntax unified
 445              	@ 546 "/home/selim/working/ChibiOS/os/ext/CMSIS/include/core_cmFunc.h" 1
 446 000e 83F31188 		MSR basepri, r3
 447              	@ 0 "" 2
 448              	.LVL32:
 449              		.thumb
 450              		.syntax unified
 451              	.LBE249:
 452              	.LBE248:
 453              	.LBE247:
 454              	.LBE246:
 455              	.LBE245:
 456              		.loc 1 245 0
ARM GAS  /tmp/ccgiDT2l.s 			page 9


 457 0012 08BD     		pop	{r3, pc}
 458              		.cfi_endproc
 459              	.LFE230:
 460              		.size	chThdStart, .-chThdStart
 461              		.section	.text.chThdSetPriority,"ax",%progbits
 462              		.align	1
 463              		.p2align 4,,15
 464              		.global	chThdSetPriority
 465              		.syntax unified
 466              		.thumb
 467              		.thumb_func
 468              		.fpu softvfp
 469              		.type	chThdSetPriority, %function
 470              	chThdSetPriority:
 471              	.LFB231:
 472              		.loc 1 259 0
 473              		.cfi_startproc
 474              		@ args = 0, pretend = 0, frame = 0
 475              		@ frame_needed = 0, uses_anonymous_args = 0
 476              	.LVL33:
 477 0000 10B5     		push	{r4, lr}
 478              		.cfi_def_cfa_offset 8
 479              		.cfi_offset 4, -8
 480              		.cfi_offset 14, -4
 481              	.LBB250:
 482              	.LBB251:
 483              	.LBB252:
 484              	.LBB253:
 485              		.loc 3 546 0
 486 0002 2023     		movs	r3, #32
 487              		.syntax unified
 488              	@ 546 "/home/selim/working/ChibiOS/os/ext/CMSIS/include/core_cmFunc.h" 1
 489 0004 83F31188 		MSR basepri, r3
 490              	@ 0 "" 2
 491              	.LVL34:
 492              		.thumb
 493              		.syntax unified
 494              	.LBE253:
 495              	.LBE252:
 496              	.LBE251:
 497              	.LBE250:
 498              		.loc 1 266 0
 499 0008 084B     		ldr	r3, .L20
 500 000a 9B69     		ldr	r3, [r3, #24]
 501 000c DC6B     		ldr	r4, [r3, #60]
 502              	.LVL35:
 503              		.loc 1 267 0
 504 000e 9968     		ldr	r1, [r3, #8]
 505 0010 8C42     		cmp	r4, r1
 506 0012 01D0     		beq	.L16
 507              		.loc 1 267 0 is_stmt 0 discriminator 1
 508 0014 8142     		cmp	r1, r0
 509 0016 00D2     		bcs	.L17
 510              	.L16:
 511              		.loc 1 268 0 is_stmt 1
 512 0018 9860     		str	r0, [r3, #8]
 513              	.L17:
ARM GAS  /tmp/ccgiDT2l.s 			page 10


 514              		.loc 1 270 0
 515 001a D863     		str	r0, [r3, #60]
 516              		.loc 1 275 0
 517 001c FFF7FEFF 		bl	chSchRescheduleS
 518              	.LVL36:
 519              	.LBB254:
 520              	.LBB255:
 521              	.LBB256:
 522              	.LBB257:
 523              	.LBB258:
 524              		.loc 3 546 0
 525 0020 0023     		movs	r3, #0
 526              		.syntax unified
 527              	@ 546 "/home/selim/working/ChibiOS/os/ext/CMSIS/include/core_cmFunc.h" 1
 528 0022 83F31188 		MSR basepri, r3
 529              	@ 0 "" 2
 530              	.LVL37:
 531              		.thumb
 532              		.syntax unified
 533              	.LBE258:
 534              	.LBE257:
 535              	.LBE256:
 536              	.LBE255:
 537              	.LBE254:
 538              		.loc 1 279 0
 539 0026 2046     		mov	r0, r4
 540 0028 10BD     		pop	{r4, pc}
 541              	.LVL38:
 542              	.L21:
 543 002a 00BF     		.align	2
 544              	.L20:
 545 002c 00000000 		.word	ch
 546              		.cfi_endproc
 547              	.LFE231:
 548              		.size	chThdSetPriority, .-chThdSetPriority
 549              		.section	.text.chThdTerminate,"ax",%progbits
 550              		.align	1
 551              		.p2align 4,,15
 552              		.global	chThdTerminate
 553              		.syntax unified
 554              		.thumb
 555              		.thumb_func
 556              		.fpu softvfp
 557              		.type	chThdTerminate, %function
 558              	chThdTerminate:
 559              	.LFB232:
 560              		.loc 1 293 0
 561              		.cfi_startproc
 562              		@ args = 0, pretend = 0, frame = 0
 563              		@ frame_needed = 0, uses_anonymous_args = 0
 564              		@ link register save eliminated.
 565              	.LVL39:
 566              	.LBB259:
 567              	.LBB260:
 568              	.LBB261:
 569              	.LBB262:
 570              		.loc 3 546 0
ARM GAS  /tmp/ccgiDT2l.s 			page 11


 571 0000 2023     		movs	r3, #32
 572              		.syntax unified
 573              	@ 546 "/home/selim/working/ChibiOS/os/ext/CMSIS/include/core_cmFunc.h" 1
 574 0002 83F31188 		MSR basepri, r3
 575              	@ 0 "" 2
 576              	.LVL40:
 577              		.thumb
 578              		.syntax unified
 579              	.LBE262:
 580              	.LBE261:
 581              	.LBE260:
 582              	.LBE259:
 583              		.loc 1 296 0
 584 0006 437F     		ldrb	r3, [r0, #29]	@ zero_extendqisi2
 585 0008 43F00403 		orr	r3, r3, #4
 586 000c 4377     		strb	r3, [r0, #29]
 587              	.LVL41:
 588              	.LBB263:
 589              	.LBB264:
 590              	.LBB265:
 591              	.LBB266:
 592              	.LBB267:
 593              		.loc 3 546 0
 594 000e 0023     		movs	r3, #0
 595              		.syntax unified
 596              	@ 546 "/home/selim/working/ChibiOS/os/ext/CMSIS/include/core_cmFunc.h" 1
 597 0010 83F31188 		MSR basepri, r3
 598              	@ 0 "" 2
 599              	.LVL42:
 600              		.thumb
 601              		.syntax unified
 602 0014 7047     		bx	lr
 603              	.LBE267:
 604              	.LBE266:
 605              	.LBE265:
 606              	.LBE264:
 607              	.LBE263:
 608              		.cfi_endproc
 609              	.LFE232:
 610              		.size	chThdTerminate, .-chThdTerminate
 611 0016 00BF     		.section	.text.chThdSleep,"ax",%progbits
 612              		.align	1
 613              		.p2align 4,,15
 614              		.global	chThdSleep
 615              		.syntax unified
 616              		.thumb
 617              		.thumb_func
 618              		.fpu softvfp
 619              		.type	chThdSleep, %function
 620              	chThdSleep:
 621              	.LFB233:
 622              		.loc 1 312 0
 623              		.cfi_startproc
 624              		@ args = 0, pretend = 0, frame = 0
 625              		@ frame_needed = 0, uses_anonymous_args = 0
 626              	.LVL43:
 627 0000 08B5     		push	{r3, lr}
ARM GAS  /tmp/ccgiDT2l.s 			page 12


 628              		.cfi_def_cfa_offset 8
 629              		.cfi_offset 3, -8
 630              		.cfi_offset 14, -4
 631              		.loc 1 312 0
 632 0002 0146     		mov	r1, r0
 633              	.LBB268:
 634              	.LBB269:
 635              	.LBB270:
 636              	.LBB271:
 637              		.loc 3 546 0
 638 0004 2023     		movs	r3, #32
 639              		.syntax unified
 640              	@ 546 "/home/selim/working/ChibiOS/os/ext/CMSIS/include/core_cmFunc.h" 1
 641 0006 83F31188 		MSR basepri, r3
 642              	@ 0 "" 2
 643              	.LVL44:
 644              		.thumb
 645              		.syntax unified
 646              	.LBE271:
 647              	.LBE270:
 648              	.LBE269:
 649              	.LBE268:
 650              	.LBB272:
 651              	.LBB273:
 652              		.loc 4 268 0
 653 000a 0820     		movs	r0, #8
 654              	.LVL45:
 655 000c FFF7FEFF 		bl	chSchGoSleepTimeoutS
 656              	.LVL46:
 657              	.LBE273:
 658              	.LBE272:
 659              	.LBB274:
 660              	.LBB275:
 661              	.LBB276:
 662              	.LBB277:
 663              	.LBB278:
 664              		.loc 3 546 0
 665 0010 0023     		movs	r3, #0
 666              		.syntax unified
 667              	@ 546 "/home/selim/working/ChibiOS/os/ext/CMSIS/include/core_cmFunc.h" 1
 668 0012 83F31188 		MSR basepri, r3
 669              	@ 0 "" 2
 670              	.LVL47:
 671              		.thumb
 672              		.syntax unified
 673 0016 08BD     		pop	{r3, pc}
 674              	.LBE278:
 675              	.LBE277:
 676              	.LBE276:
 677              	.LBE275:
 678              	.LBE274:
 679              		.cfi_endproc
 680              	.LFE233:
 681              		.size	chThdSleep, .-chThdSleep
 682              		.section	.text.chThdSleepUntil,"ax",%progbits
 683              		.align	1
 684              		.p2align 4,,15
ARM GAS  /tmp/ccgiDT2l.s 			page 13


 685              		.global	chThdSleepUntil
 686              		.syntax unified
 687              		.thumb
 688              		.thumb_func
 689              		.fpu softvfp
 690              		.type	chThdSleepUntil, %function
 691              	chThdSleepUntil:
 692              	.LFB234:
 693              		.loc 1 332 0
 694              		.cfi_startproc
 695              		@ args = 0, pretend = 0, frame = 0
 696              		@ frame_needed = 0, uses_anonymous_args = 0
 697              	.LVL48:
 698 0000 08B5     		push	{r3, lr}
 699              		.cfi_def_cfa_offset 8
 700              		.cfi_offset 3, -8
 701              		.cfi_offset 14, -4
 702              	.LBB279:
 703              	.LBB280:
 704              	.LBB281:
 705              	.LBB282:
 706              		.loc 3 546 0
 707 0002 2023     		movs	r3, #32
 708              		.syntax unified
 709              	@ 546 "/home/selim/working/ChibiOS/os/ext/CMSIS/include/core_cmFunc.h" 1
 710 0004 83F31188 		MSR basepri, r3
 711              	@ 0 "" 2
 712              	.LVL49:
 713              		.thumb
 714              		.syntax unified
 715              	.LBE282:
 716              	.LBE281:
 717              	.LBE280:
 718              	.LBE279:
 719              	.LBB283:
 720              	.LBB284:
 721              	.LBB285:
 722              	.LBB286:
 723              		.file 5 "/home/selim/working/ChibiOS/os/hal/ports/STM32/LLD/TIMv1/st_lld.h"
 724              		.loc 5 129 0
 725 0008 4FF08043 		mov	r3, #1073741824
 726 000c 596A     		ldr	r1, [r3, #36]
 727              	.LVL50:
 728              	.LBE286:
 729              	.LBE285:
 730              	.LBE284:
 731              	.LBE283:
 732              		.loc 1 336 0
 733 000e 411A     		subs	r1, r0, r1
 734              	.LVL51:
 735 0010 02D0     		beq	.L26
 736              	.LVL52:
 737              	.LBB287:
 738              	.LBB288:
 739              		.loc 4 268 0
 740 0012 0820     		movs	r0, #8
 741 0014 FFF7FEFF 		bl	chSchGoSleepTimeoutS
ARM GAS  /tmp/ccgiDT2l.s 			page 14


 742              	.LVL53:
 743              	.L26:
 744              	.LBE288:
 745              	.LBE287:
 746              	.LBB289:
 747              	.LBB290:
 748              	.LBB291:
 749              	.LBB292:
 750              	.LBB293:
 751              		.loc 3 546 0
 752 0018 0023     		movs	r3, #0
 753              		.syntax unified
 754              	@ 546 "/home/selim/working/ChibiOS/os/ext/CMSIS/include/core_cmFunc.h" 1
 755 001a 83F31188 		MSR basepri, r3
 756              	@ 0 "" 2
 757              	.LVL54:
 758              		.thumb
 759              		.syntax unified
 760 001e 08BD     		pop	{r3, pc}
 761              	.LBE293:
 762              	.LBE292:
 763              	.LBE291:
 764              	.LBE290:
 765              	.LBE289:
 766              		.cfi_endproc
 767              	.LFE234:
 768              		.size	chThdSleepUntil, .-chThdSleepUntil
 769              		.section	.text.chThdSleepUntilWindowed,"ax",%progbits
 770              		.align	1
 771              		.p2align 4,,15
 772              		.global	chThdSleepUntilWindowed
 773              		.syntax unified
 774              		.thumb
 775              		.thumb_func
 776              		.fpu softvfp
 777              		.type	chThdSleepUntilWindowed, %function
 778              	chThdSleepUntilWindowed:
 779              	.LFB235:
 780              		.loc 1 356 0
 781              		.cfi_startproc
 782              		@ args = 0, pretend = 0, frame = 0
 783              		@ frame_needed = 0, uses_anonymous_args = 0
 784              	.LVL55:
 785 0000 10B5     		push	{r4, lr}
 786              		.cfi_def_cfa_offset 8
 787              		.cfi_offset 4, -8
 788              		.cfi_offset 14, -4
 789              	.LBB294:
 790              	.LBB295:
 791              	.LBB296:
 792              	.LBB297:
 793              		.loc 3 546 0
 794 0002 2023     		movs	r3, #32
 795              	.LBE297:
 796              	.LBE296:
 797              	.LBE295:
 798              	.LBE294:
ARM GAS  /tmp/ccgiDT2l.s 			page 15


 799              		.loc 1 356 0
 800 0004 0C46     		mov	r4, r1
 801              	.LBB301:
 802              	.LBB300:
 803              	.LBB299:
 804              	.LBB298:
 805              		.loc 3 546 0
 806              		.syntax unified
 807              	@ 546 "/home/selim/working/ChibiOS/os/ext/CMSIS/include/core_cmFunc.h" 1
 808 0006 83F31188 		MSR basepri, r3
 809              	@ 0 "" 2
 810              	.LVL56:
 811              		.thumb
 812              		.syntax unified
 813              	.LBE298:
 814              	.LBE299:
 815              	.LBE300:
 816              	.LBE301:
 817              	.LBB302:
 818              	.LBB303:
 819              	.LBB304:
 820              	.LBB305:
 821              		.loc 5 129 0
 822 000a 4FF08042 		mov	r2, #1073741824
 823              	.LBE305:
 824              	.LBE304:
 825              	.LBE303:
 826              	.LBE302:
 827              	.LBB309:
 828              	.LBB310:
 829              		.file 6 "/home/selim/working/ChibiOS/os/rt/include/chvt.h"
 830              		.loc 6 288 0
 831 000e 0B1A     		subs	r3, r1, r0
 832              	.LBE310:
 833              	.LBE309:
 834              	.LBB312:
 835              	.LBB308:
 836              	.LBB307:
 837              	.LBB306:
 838              		.loc 5 129 0
 839 0010 516A     		ldr	r1, [r2, #36]
 840              	.LVL57:
 841              	.LBE306:
 842              	.LBE307:
 843              	.LBE308:
 844              	.LBE312:
 845              	.LBB313:
 846              	.LBB311:
 847              		.loc 6 288 0
 848 0012 081A     		subs	r0, r1, r0
 849              	.LVL58:
 850              	.LBE311:
 851              	.LBE313:
 852              		.loc 1 361 0
 853 0014 9842     		cmp	r0, r3
 854 0016 03D2     		bcs	.L32
 855              	.LVL59:
ARM GAS  /tmp/ccgiDT2l.s 			page 16


 856              	.LBB314:
 857              	.LBB315:
 858              		.loc 4 268 0
 859 0018 611A     		subs	r1, r4, r1
 860              	.LVL60:
 861 001a 0820     		movs	r0, #8
 862 001c FFF7FEFF 		bl	chSchGoSleepTimeoutS
 863              	.LVL61:
 864              	.L32:
 865              	.LBE315:
 866              	.LBE314:
 867              	.LBB316:
 868              	.LBB317:
 869              	.LBB318:
 870              	.LBB319:
 871              	.LBB320:
 872              		.loc 3 546 0
 873 0020 0023     		movs	r3, #0
 874              		.syntax unified
 875              	@ 546 "/home/selim/working/ChibiOS/os/ext/CMSIS/include/core_cmFunc.h" 1
 876 0022 83F31188 		MSR basepri, r3
 877              	@ 0 "" 2
 878              	.LVL62:
 879              		.thumb
 880              		.syntax unified
 881              	.LBE320:
 882              	.LBE319:
 883              	.LBE318:
 884              	.LBE317:
 885              	.LBE316:
 886              		.loc 1 367 0
 887 0026 2046     		mov	r0, r4
 888 0028 10BD     		pop	{r4, pc}
 889              		.cfi_endproc
 890              	.LFE235:
 891              		.size	chThdSleepUntilWindowed, .-chThdSleepUntilWindowed
 892 002a 00BF     		.section	.text.chThdYield,"ax",%progbits
 893              		.align	1
 894              		.p2align 4,,15
 895              		.global	chThdYield
 896              		.syntax unified
 897              		.thumb
 898              		.thumb_func
 899              		.fpu softvfp
 900              		.type	chThdYield, %function
 901              	chThdYield:
 902              	.LFB236:
 903              		.loc 1 376 0
 904              		.cfi_startproc
 905              		@ args = 0, pretend = 0, frame = 0
 906              		@ frame_needed = 0, uses_anonymous_args = 0
 907              	.LVL63:
 908 0000 08B5     		push	{r3, lr}
 909              		.cfi_def_cfa_offset 8
 910              		.cfi_offset 3, -8
 911              		.cfi_offset 14, -4
 912              	.LBB321:
ARM GAS  /tmp/ccgiDT2l.s 			page 17


 913              	.LBB322:
 914              	.LBB323:
 915              	.LBB324:
 916              		.loc 3 546 0
 917 0002 2023     		movs	r3, #32
 918              		.syntax unified
 919              	@ 546 "/home/selim/working/ChibiOS/os/ext/CMSIS/include/core_cmFunc.h" 1
 920 0004 83F31188 		MSR basepri, r3
 921              	@ 0 "" 2
 922              	.LVL64:
 923              		.thumb
 924              		.syntax unified
 925              	.LBE324:
 926              	.LBE323:
 927              	.LBE322:
 928              	.LBE321:
 929              	.LBB325:
 930              	.LBB326:
 931              	.LBB327:
 932              	.LBB328:
 933              		.loc 2 731 0
 934 0008 064B     		ldr	r3, .L37
 935 000a 1A68     		ldr	r2, [r3]
 936 000c 9B69     		ldr	r3, [r3, #24]
 937              	.LBE328:
 938              	.LBE327:
 939              		.loc 2 745 0
 940 000e 9268     		ldr	r2, [r2, #8]
 941 0010 9B68     		ldr	r3, [r3, #8]
 942 0012 9A42     		cmp	r2, r3
 943 0014 01D3     		bcc	.L35
 944              		.loc 2 746 0
 945 0016 FFF7FEFF 		bl	chSchDoRescheduleBehind
 946              	.LVL65:
 947              	.L35:
 948              	.LBE326:
 949              	.LBE325:
 950              	.LBB329:
 951              	.LBB330:
 952              	.LBB331:
 953              	.LBB332:
 954              	.LBB333:
 955              		.loc 3 546 0
 956 001a 0023     		movs	r3, #0
 957              		.syntax unified
 958              	@ 546 "/home/selim/working/ChibiOS/os/ext/CMSIS/include/core_cmFunc.h" 1
 959 001c 83F31188 		MSR basepri, r3
 960              	@ 0 "" 2
 961              	.LVL66:
 962              		.thumb
 963              		.syntax unified
 964 0020 08BD     		pop	{r3, pc}
 965              	.L38:
 966 0022 00BF     		.align	2
 967              	.L37:
 968 0024 00000000 		.word	ch
 969              	.LBE333:
ARM GAS  /tmp/ccgiDT2l.s 			page 18


 970              	.LBE332:
 971              	.LBE331:
 972              	.LBE330:
 973              	.LBE329:
 974              		.cfi_endproc
 975              	.LFE236:
 976              		.size	chThdYield, .-chThdYield
 977              		.section	.text.chThdExitS,"ax",%progbits
 978              		.align	1
 979              		.p2align 4,,15
 980              		.global	chThdExitS
 981              		.syntax unified
 982              		.thumb
 983              		.thumb_func
 984              		.fpu softvfp
 985              		.type	chThdExitS, %function
 986              	chThdExitS:
 987              	.LFB238:
 988              		.loc 1 418 0
 989              		.cfi_startproc
 990              		@ args = 0, pretend = 0, frame = 0
 991              		@ frame_needed = 0, uses_anonymous_args = 0
 992              	.LVL67:
 993 0000 38B5     		push	{r3, r4, r5, lr}
 994              		.cfi_def_cfa_offset 16
 995              		.cfi_offset 3, -16
 996              		.cfi_offset 4, -12
 997              		.cfi_offset 5, -8
 998              		.cfi_offset 14, -4
 999              		.loc 1 419 0
 1000 0002 0E4B     		ldr	r3, .L47
 1001 0004 9C69     		ldr	r4, [r3, #24]
 1002              	.LVL68:
 1003              	.LBB334:
 1004              	.LBB335:
 1005              		.loc 2 592 0
 1006 0006 636A     		ldr	r3, [r4, #36]
 1007              	.LBE335:
 1008              	.LBE334:
 1009              		.loc 1 421 0
 1010 0008 2062     		str	r0, [r4, #32]
 1011              		.loc 1 426 0
 1012 000a 04F12405 		add	r5, r4, #36
 1013 000e 9D42     		cmp	r5, r3
 1014 0010 07D0     		beq	.L44
 1015              	.LVL69:
 1016              	.L43:
 1017              	.LBB337:
 1018              	.LBB338:
 1019              		.loc 2 646 0
 1020 0012 1A68     		ldr	r2, [r3]
 1021 0014 6262     		str	r2, [r4, #36]
 1022              	.LVL70:
 1023              	.LBE338:
 1024              	.LBE337:
 1025              		.loc 1 427 0
 1026 0016 1846     		mov	r0, r3
ARM GAS  /tmp/ccgiDT2l.s 			page 19


 1027 0018 FFF7FEFF 		bl	chSchReadyI
 1028              	.LVL71:
 1029              	.LBB339:
 1030              	.LBB336:
 1031              		.loc 2 592 0
 1032 001c 636A     		ldr	r3, [r4, #36]
 1033              	.LVL72:
 1034              	.LBE336:
 1035              	.LBE339:
 1036              		.loc 1 426 0
 1037 001e AB42     		cmp	r3, r5
 1038 0020 F7D1     		bne	.L43
 1039              	.L44:
 1040              		.loc 1 433 0
 1041 0022 637F     		ldrb	r3, [r4, #29]	@ zero_extendqisi2
 1042 0024 9B07     		lsls	r3, r3, #30
 1043 0026 04D1     		bne	.L42
 1044              		.loc 1 434 0
 1045 0028 6369     		ldr	r3, [r4, #20]
 1046 002a 2269     		ldr	r2, [r4, #16]
 1047 002c 1A61     		str	r2, [r3, #16]
 1048 002e 2269     		ldr	r2, [r4, #16]
 1049 0030 5361     		str	r3, [r2, #20]
 1050              	.L42:
 1051              		.loc 1 437 0
 1052 0032 0F20     		movs	r0, #15
 1053              		.loc 1 441 0
 1054 0034 BDE83840 		pop	{r3, r4, r5, lr}
 1055              		.cfi_restore 14
 1056              		.cfi_restore 5
 1057              		.cfi_restore 4
 1058              		.cfi_restore 3
 1059              		.cfi_def_cfa_offset 0
 1060              	.LVL73:
 1061              		.loc 1 437 0
 1062 0038 FFF7FEBF 		b	chSchGoSleepS
 1063              	.LVL74:
 1064              	.L48:
 1065              		.align	2
 1066              	.L47:
 1067 003c 00000000 		.word	ch
 1068              		.cfi_endproc
 1069              	.LFE238:
 1070              		.size	chThdExitS, .-chThdExitS
 1071              		.section	.text.chThdExit,"ax",%progbits
 1072              		.align	1
 1073              		.p2align 4,,15
 1074              		.global	chThdExit
 1075              		.syntax unified
 1076              		.thumb
 1077              		.thumb_func
 1078              		.fpu softvfp
 1079              		.type	chThdExit, %function
 1080              	chThdExit:
 1081              	.LFB237:
 1082              		.loc 1 397 0
 1083              		.cfi_startproc
ARM GAS  /tmp/ccgiDT2l.s 			page 20


 1084              		@ args = 0, pretend = 0, frame = 0
 1085              		@ frame_needed = 0, uses_anonymous_args = 0
 1086              		@ link register save eliminated.
 1087              	.LVL75:
 1088              	.LBB340:
 1089              	.LBB341:
 1090              	.LBB342:
 1091              	.LBB343:
 1092              		.loc 3 546 0
 1093 0000 2023     		movs	r3, #32
 1094              		.syntax unified
 1095              	@ 546 "/home/selim/working/ChibiOS/os/ext/CMSIS/include/core_cmFunc.h" 1
 1096 0002 83F31188 		MSR basepri, r3
 1097              	@ 0 "" 2
 1098              	.LVL76:
 1099              		.thumb
 1100              		.syntax unified
 1101              	.LBE343:
 1102              	.LBE342:
 1103              	.LBE341:
 1104              	.LBE340:
 1105              		.loc 1 400 0
 1106 0006 FFF7FEBF 		b	chThdExitS
 1107              	.LVL77:
 1108              		.cfi_endproc
 1109              	.LFE237:
 1110              		.size	chThdExit, .-chThdExit
 1111 000a 00BF     		.section	.text.chThdWait,"ax",%progbits
 1112              		.align	1
 1113              		.p2align 4,,15
 1114              		.global	chThdWait
 1115              		.syntax unified
 1116              		.thumb
 1117              		.thumb_func
 1118              		.fpu softvfp
 1119              		.type	chThdWait, %function
 1120              	chThdWait:
 1121              	.LFB239:
 1122              		.loc 1 475 0
 1123              		.cfi_startproc
 1124              		@ args = 0, pretend = 0, frame = 0
 1125              		@ frame_needed = 0, uses_anonymous_args = 0
 1126              	.LVL78:
 1127 0000 38B5     		push	{r3, r4, r5, lr}
 1128              		.cfi_def_cfa_offset 16
 1129              		.cfi_offset 3, -16
 1130              		.cfi_offset 4, -12
 1131              		.cfi_offset 5, -8
 1132              		.cfi_offset 14, -4
 1133              		.loc 1 475 0
 1134 0002 0446     		mov	r4, r0
 1135              	.LBB344:
 1136              	.LBB345:
 1137              	.LBB346:
 1138              	.LBB347:
 1139              		.loc 3 546 0
 1140 0004 2023     		movs	r3, #32
ARM GAS  /tmp/ccgiDT2l.s 			page 21


 1141              		.syntax unified
 1142              	@ 546 "/home/selim/working/ChibiOS/os/ext/CMSIS/include/core_cmFunc.h" 1
 1143 0006 83F31188 		MSR basepri, r3
 1144              	@ 0 "" 2
 1145              	.LVL79:
 1146              		.thumb
 1147              		.syntax unified
 1148              	.LBE347:
 1149              	.LBE346:
 1150              	.LBE345:
 1151              	.LBE344:
 1152              		.loc 1 485 0
 1153 000a 037F     		ldrb	r3, [r0, #28]	@ zero_extendqisi2
 1154 000c 0F2B     		cmp	r3, #15
 1155 000e 07D0     		beq	.L51
 1156              		.loc 1 486 0
 1157 0010 084B     		ldr	r3, .L56
 1158              	.LBB348:
 1159              	.LBB349:
 1160              		.loc 2 639 0
 1161 0012 426A     		ldr	r2, [r0, #36]
 1162              	.LBE349:
 1163              	.LBE348:
 1164              		.loc 1 486 0
 1165 0014 9B69     		ldr	r3, [r3, #24]
 1166              	.LVL80:
 1167              		.loc 1 487 0
 1168 0016 0920     		movs	r0, #9
 1169              	.LVL81:
 1170              	.LBB351:
 1171              	.LBB350:
 1172              		.loc 2 639 0
 1173 0018 1A60     		str	r2, [r3]
 1174              		.loc 2 640 0
 1175 001a 6362     		str	r3, [r4, #36]
 1176              	.LVL82:
 1177              	.LBE350:
 1178              	.LBE351:
 1179              		.loc 1 487 0
 1180 001c FFF7FEFF 		bl	chSchGoSleepS
 1181              	.LVL83:
 1182              	.L51:
 1183              		.loc 1 489 0
 1184 0020 256A     		ldr	r5, [r4, #32]
 1185              	.LVL84:
 1186              	.LBB352:
 1187              	.LBB353:
 1188              	.LBB354:
 1189              	.LBB355:
 1190              	.LBB356:
 1191              		.loc 3 546 0
 1192 0022 0023     		movs	r3, #0
 1193              		.syntax unified
 1194              	@ 546 "/home/selim/working/ChibiOS/os/ext/CMSIS/include/core_cmFunc.h" 1
 1195 0024 83F31188 		MSR basepri, r3
 1196              	@ 0 "" 2
 1197              	.LVL85:
ARM GAS  /tmp/ccgiDT2l.s 			page 22


 1198              		.thumb
 1199              		.syntax unified
 1200              	.LBE356:
 1201              	.LBE355:
 1202              	.LBE354:
 1203              	.LBE353:
 1204              	.LBE352:
 1205              		.loc 1 494 0
 1206 0028 2046     		mov	r0, r4
 1207 002a FFF7FEFF 		bl	chThdRelease
 1208              	.LVL86:
 1209              		.loc 1 498 0
 1210 002e 2846     		mov	r0, r5
 1211 0030 38BD     		pop	{r3, r4, r5, pc}
 1212              	.LVL87:
 1213              	.L57:
 1214 0032 00BF     		.align	2
 1215              	.L56:
 1216 0034 00000000 		.word	ch
 1217              		.cfi_endproc
 1218              	.LFE239:
 1219              		.size	chThdWait, .-chThdWait
 1220              		.section	.text.chThdSuspendS,"ax",%progbits
 1221              		.align	1
 1222              		.p2align 4,,15
 1223              		.global	chThdSuspendS
 1224              		.syntax unified
 1225              		.thumb
 1226              		.thumb_func
 1227              		.fpu softvfp
 1228              		.type	chThdSuspendS, %function
 1229              	chThdSuspendS:
 1230              	.LFB240:
 1231              		.loc 1 511 0
 1232              		.cfi_startproc
 1233              		@ args = 0, pretend = 0, frame = 0
 1234              		@ frame_needed = 0, uses_anonymous_args = 0
 1235              	.LVL88:
 1236 0000 10B5     		push	{r4, lr}
 1237              		.cfi_def_cfa_offset 8
 1238              		.cfi_offset 4, -8
 1239              		.cfi_offset 14, -4
 1240              	.LBB357:
 1241              	.LBB358:
 1242              		.loc 4 176 0
 1243 0002 054C     		ldr	r4, .L60
 1244 0004 A369     		ldr	r3, [r4, #24]
 1245              	.LBE358:
 1246              	.LBE357:
 1247              		.loc 1 516 0
 1248 0006 0360     		str	r3, [r0]
 1249              		.loc 1 511 0
 1250 0008 0246     		mov	r2, r0
 1251              		.loc 1 517 0
 1252 000a 1A62     		str	r2, [r3, #32]
 1253              		.loc 1 518 0
 1254 000c 0320     		movs	r0, #3
ARM GAS  /tmp/ccgiDT2l.s 			page 23


 1255              	.LVL89:
 1256 000e FFF7FEFF 		bl	chSchGoSleepS
 1257              	.LVL90:
 1258              		.loc 1 520 0
 1259 0012 A369     		ldr	r3, [r4, #24]
 1260              		.loc 1 521 0
 1261 0014 186A     		ldr	r0, [r3, #32]
 1262 0016 10BD     		pop	{r4, pc}
 1263              	.L61:
 1264              		.align	2
 1265              	.L60:
 1266 0018 00000000 		.word	ch
 1267              		.cfi_endproc
 1268              	.LFE240:
 1269              		.size	chThdSuspendS, .-chThdSuspendS
 1270              		.section	.text.chThdSuspendTimeoutS,"ax",%progbits
 1271              		.align	1
 1272              		.p2align 4,,15
 1273              		.global	chThdSuspendTimeoutS
 1274              		.syntax unified
 1275              		.thumb
 1276              		.thumb_func
 1277              		.fpu softvfp
 1278              		.type	chThdSuspendTimeoutS, %function
 1279              	chThdSuspendTimeoutS:
 1280              	.LFB241:
 1281              		.loc 1 542 0
 1282              		.cfi_startproc
 1283              		@ args = 0, pretend = 0, frame = 0
 1284              		@ frame_needed = 0, uses_anonymous_args = 0
 1285              		@ link register save eliminated.
 1286              	.LVL91:
 1287              	.LBB359:
 1288              	.LBB360:
 1289              		.loc 4 176 0
 1290 0000 054B     		ldr	r3, .L64
 1291              	.LBE360:
 1292              	.LBE359:
 1293              		.loc 1 542 0
 1294 0002 0246     		mov	r2, r0
 1295              	.LBB362:
 1296              	.LBB361:
 1297              		.loc 4 176 0
 1298 0004 9B69     		ldr	r3, [r3, #24]
 1299              	.LBE361:
 1300              	.LBE362:
 1301              		.loc 1 547 0
 1302 0006 21B1     		cbz	r1, .L63
 1303              		.loc 1 551 0
 1304 0008 0360     		str	r3, [r0]
 1305              		.loc 1 554 0
 1306 000a 0320     		movs	r0, #3
 1307              	.LVL92:
 1308              		.loc 1 552 0
 1309 000c 1A62     		str	r2, [r3, #32]
 1310              		.loc 1 554 0
 1311 000e FFF7FEBF 		b	chSchGoSleepTimeoutS
ARM GAS  /tmp/ccgiDT2l.s 			page 24


 1312              	.LVL93:
 1313              	.L63:
 1314              		.loc 1 555 0
 1315 0012 4FF0FF30 		mov	r0, #-1
 1316              	.LVL94:
 1317 0016 7047     		bx	lr
 1318              	.L65:
 1319              		.align	2
 1320              	.L64:
 1321 0018 00000000 		.word	ch
 1322              		.cfi_endproc
 1323              	.LFE241:
 1324              		.size	chThdSuspendTimeoutS, .-chThdSuspendTimeoutS
 1325              		.section	.text.chThdResumeI,"ax",%progbits
 1326              		.align	1
 1327              		.p2align 4,,15
 1328              		.global	chThdResumeI
 1329              		.syntax unified
 1330              		.thumb
 1331              		.thumb_func
 1332              		.fpu softvfp
 1333              		.type	chThdResumeI, %function
 1334              	chThdResumeI:
 1335              	.LFB242:
 1336              		.loc 1 567 0
 1337              		.cfi_startproc
 1338              		@ args = 0, pretend = 0, frame = 0
 1339              		@ frame_needed = 0, uses_anonymous_args = 0
 1340              		@ link register save eliminated.
 1341              	.LVL95:
 1342              		.loc 1 569 0
 1343 0000 0368     		ldr	r3, [r0]
 1344 0002 2BB1     		cbz	r3, .L66
 1345              	.LVL96:
 1346              	.LBB363:
 1347              		.loc 1 575 0
 1348 0004 0022     		movs	r2, #0
 1349 0006 0260     		str	r2, [r0]
 1350              		.loc 1 577 0
 1351 0008 1846     		mov	r0, r3
 1352              	.LVL97:
 1353              		.loc 1 576 0
 1354 000a 1962     		str	r1, [r3, #32]
 1355              		.loc 1 577 0
 1356 000c FFF7FEBF 		b	chSchReadyI
 1357              	.LVL98:
 1358              	.L66:
 1359 0010 7047     		bx	lr
 1360              	.LBE363:
 1361              		.cfi_endproc
 1362              	.LFE242:
 1363              		.size	chThdResumeI, .-chThdResumeI
 1364 0012 00BF     		.section	.text.chThdResumeS,"ax",%progbits
 1365              		.align	1
 1366              		.p2align 4,,15
 1367              		.global	chThdResumeS
 1368              		.syntax unified
ARM GAS  /tmp/ccgiDT2l.s 			page 25


 1369              		.thumb
 1370              		.thumb_func
 1371              		.fpu softvfp
 1372              		.type	chThdResumeS, %function
 1373              	chThdResumeS:
 1374              	.LFB243:
 1375              		.loc 1 591 0
 1376              		.cfi_startproc
 1377              		@ args = 0, pretend = 0, frame = 0
 1378              		@ frame_needed = 0, uses_anonymous_args = 0
 1379              		@ link register save eliminated.
 1380              	.LVL99:
 1381              		.loc 1 591 0
 1382 0000 0346     		mov	r3, r0
 1383              		.loc 1 593 0
 1384 0002 0068     		ldr	r0, [r0]
 1385              	.LVL100:
 1386 0004 18B1     		cbz	r0, .L68
 1387              	.LVL101:
 1388              	.LBB364:
 1389              		.loc 1 599 0
 1390 0006 0022     		movs	r2, #0
 1391 0008 1A60     		str	r2, [r3]
 1392              		.loc 1 600 0
 1393 000a FFF7FEBF 		b	chSchWakeupS
 1394              	.LVL102:
 1395              	.L68:
 1396 000e 7047     		bx	lr
 1397              	.LBE364:
 1398              		.cfi_endproc
 1399              	.LFE243:
 1400              		.size	chThdResumeS, .-chThdResumeS
 1401              		.section	.text.chThdResume,"ax",%progbits
 1402              		.align	1
 1403              		.p2align 4,,15
 1404              		.global	chThdResume
 1405              		.syntax unified
 1406              		.thumb
 1407              		.thumb_func
 1408              		.fpu softvfp
 1409              		.type	chThdResume, %function
 1410              	chThdResume:
 1411              	.LFB244:
 1412              		.loc 1 614 0
 1413              		.cfi_startproc
 1414              		@ args = 0, pretend = 0, frame = 0
 1415              		@ frame_needed = 0, uses_anonymous_args = 0
 1416              	.LVL103:
 1417              	.LBB365:
 1418              	.LBB366:
 1419              	.LBB367:
 1420              	.LBB368:
 1421              		.loc 3 546 0
 1422 0000 2023     		movs	r3, #32
 1423              		.syntax unified
 1424              	@ 546 "/home/selim/working/ChibiOS/os/ext/CMSIS/include/core_cmFunc.h" 1
 1425 0002 83F31188 		MSR basepri, r3
ARM GAS  /tmp/ccgiDT2l.s 			page 26


 1426              	@ 0 "" 2
 1427              	.LVL104:
 1428              		.thumb
 1429              		.syntax unified
 1430              	.LBE368:
 1431              	.LBE367:
 1432              	.LBE366:
 1433              	.LBE365:
 1434              	.LBB369:
 1435              	.LBB370:
 1436              		.loc 1 593 0
 1437 0006 0268     		ldr	r2, [r0]
 1438 0008 52B1     		cbz	r2, .L76
 1439 000a 0346     		mov	r3, r0
 1440              	.LVL105:
 1441              	.LBE370:
 1442              	.LBE369:
 1443              		.loc 1 614 0
 1444 000c 10B5     		push	{r4, lr}
 1445              		.cfi_def_cfa_offset 8
 1446              		.cfi_offset 4, -8
 1447              		.cfi_offset 14, -4
 1448              	.LBB373:
 1449              	.LBB372:
 1450              	.LBB371:
 1451              		.loc 1 599 0
 1452 000e 0024     		movs	r4, #0
 1453 0010 1C60     		str	r4, [r3]
 1454              		.loc 1 600 0
 1455 0012 1046     		mov	r0, r2
 1456              	.LVL106:
 1457 0014 FFF7FEFF 		bl	chSchWakeupS
 1458              	.LVL107:
 1459              	.LBE371:
 1460              	.LBE372:
 1461              	.LBE373:
 1462              	.LBB374:
 1463              	.LBB375:
 1464              	.LBB376:
 1465              	.LBB377:
 1466              	.LBB378:
 1467              		.loc 3 546 0
 1468 0018 0023     		movs	r3, #0
 1469              		.syntax unified
 1470              	@ 546 "/home/selim/working/ChibiOS/os/ext/CMSIS/include/core_cmFunc.h" 1
 1471 001a 83F31188 		MSR basepri, r3
 1472              	@ 0 "" 2
 1473              	.LVL108:
 1474              		.thumb
 1475              		.syntax unified
 1476 001e 10BD     		pop	{r4, pc}
 1477              	.LVL109:
 1478              	.L76:
 1479              		.cfi_def_cfa_offset 0
 1480              		.cfi_restore 4
 1481              		.cfi_restore 14
 1482 0020 0023     		movs	r3, #0
ARM GAS  /tmp/ccgiDT2l.s 			page 27


 1483              		.syntax unified
 1484              	@ 546 "/home/selim/working/ChibiOS/os/ext/CMSIS/include/core_cmFunc.h" 1
 1485 0022 83F31188 		MSR basepri, r3
 1486              	@ 0 "" 2
 1487              	.LVL110:
 1488              		.thumb
 1489              		.syntax unified
 1490 0026 7047     		bx	lr
 1491              	.LBE378:
 1492              	.LBE377:
 1493              	.LBE376:
 1494              	.LBE375:
 1495              	.LBE374:
 1496              		.cfi_endproc
 1497              	.LFE244:
 1498              		.size	chThdResume, .-chThdResume
 1499              		.section	.text.chThdEnqueueTimeoutS,"ax",%progbits
 1500              		.align	1
 1501              		.p2align 4,,15
 1502              		.global	chThdEnqueueTimeoutS
 1503              		.syntax unified
 1504              		.thumb
 1505              		.thumb_func
 1506              		.fpu softvfp
 1507              		.type	chThdEnqueueTimeoutS, %function
 1508              	chThdEnqueueTimeoutS:
 1509              	.LFB245:
 1510              		.loc 1 644 0
 1511              		.cfi_startproc
 1512              		@ args = 0, pretend = 0, frame = 0
 1513              		@ frame_needed = 0, uses_anonymous_args = 0
 1514              		@ link register save eliminated.
 1515              	.LVL111:
 1516              		.loc 1 646 0
 1517 0000 61B1     		cbz	r1, .L80
 1518              		.loc 1 650 0
 1519 0002 084B     		ldr	r3, .L84
 1520              		.loc 1 644 0
 1521 0004 10B4     		push	{r4}
 1522              		.cfi_def_cfa_offset 4
 1523              		.cfi_offset 4, -4
 1524 0006 0246     		mov	r2, r0
 1525              	.LBB379:
 1526              	.LBB380:
 1527              		.loc 2 666 0
 1528 0008 4468     		ldr	r4, [r0, #4]
 1529              	.LBE380:
 1530              	.LBE379:
 1531              		.loc 1 650 0
 1532 000a 9B69     		ldr	r3, [r3, #24]
 1533              	.LVL112:
 1534              		.loc 1 652 0
 1535 000c 0420     		movs	r0, #4
 1536              	.LVL113:
 1537              	.LBB382:
 1538              	.LBB381:
 1539              		.loc 2 666 0
ARM GAS  /tmp/ccgiDT2l.s 			page 28


 1540 000e 83E81400 		stm	r3, {r2, r4}
 1541              		.loc 2 667 0
 1542 0012 2360     		str	r3, [r4]
 1543              		.loc 2 668 0
 1544 0014 5360     		str	r3, [r2, #4]
 1545              	.LVL114:
 1546              	.LBE381:
 1547              	.LBE382:
 1548              		.loc 1 653 0
 1549 0016 10BC     		pop	{r4}
 1550              		.cfi_restore 4
 1551              		.cfi_def_cfa_offset 0
 1552              		.loc 1 652 0
 1553 0018 FFF7FEBF 		b	chSchGoSleepTimeoutS
 1554              	.LVL115:
 1555              	.L80:
 1556              		.loc 1 653 0
 1557 001c 4FF0FF30 		mov	r0, #-1
 1558              	.LVL116:
 1559 0020 7047     		bx	lr
 1560              	.L85:
 1561 0022 00BF     		.align	2
 1562              	.L84:
 1563 0024 00000000 		.word	ch
 1564              		.cfi_endproc
 1565              	.LFE245:
 1566              		.size	chThdEnqueueTimeoutS, .-chThdEnqueueTimeoutS
 1567              		.section	.text.chThdDequeueNextI,"ax",%progbits
 1568              		.align	1
 1569              		.p2align 4,,15
 1570              		.global	chThdDequeueNextI
 1571              		.syntax unified
 1572              		.thumb
 1573              		.thumb_func
 1574              		.fpu softvfp
 1575              		.type	chThdDequeueNextI, %function
 1576              	chThdDequeueNextI:
 1577              	.LFB246:
 1578              		.loc 1 664 0
 1579              		.cfi_startproc
 1580              		@ args = 0, pretend = 0, frame = 0
 1581              		@ frame_needed = 0, uses_anonymous_args = 0
 1582              		@ link register save eliminated.
 1583              	.LVL117:
 1584              	.LBB383:
 1585              	.LBB384:
 1586              		.loc 2 631 0
 1587 0000 0268     		ldr	r2, [r0]
 1588              	.LVL118:
 1589              	.LBE384:
 1590              	.LBE383:
 1591              		.loc 1 666 0
 1592 0002 9042     		cmp	r0, r2
 1593 0004 09D0     		beq	.L86
 1594              		.loc 1 664 0
 1595 0006 10B4     		push	{r4}
 1596              		.cfi_def_cfa_offset 4
ARM GAS  /tmp/ccgiDT2l.s 			page 29


 1597              		.cfi_offset 4, -4
 1598              	.LBB385:
 1599              	.LBB386:
 1600              	.LBB387:
 1601              	.LBB388:
 1602              		.loc 2 674 0
 1603 0008 1468     		ldr	r4, [r2]
 1604 000a 0460     		str	r4, [r0]
 1605 000c 0346     		mov	r3, r0
 1606              	.LVL119:
 1607              		.loc 2 675 0
 1608 000e 6360     		str	r3, [r4, #4]
 1609              	.LVL120:
 1610              	.LBE388:
 1611              	.LBE387:
 1612              		.loc 4 321 0
 1613 0010 1162     		str	r1, [r2, #32]
 1614              		.loc 4 322 0
 1615 0012 1046     		mov	r0, r2
 1616              	.LVL121:
 1617              	.LBE386:
 1618              	.LBE385:
 1619              		.loc 1 669 0
 1620 0014 10BC     		pop	{r4}
 1621              		.cfi_restore 4
 1622              		.cfi_def_cfa_offset 0
 1623              	.LBB390:
 1624              	.LBB389:
 1625              		.loc 4 322 0
 1626 0016 FFF7FEBF 		b	chSchReadyI
 1627              	.LVL122:
 1628              	.L86:
 1629 001a 7047     		bx	lr
 1630              	.LBE389:
 1631              	.LBE390:
 1632              		.cfi_endproc
 1633              	.LFE246:
 1634              		.size	chThdDequeueNextI, .-chThdDequeueNextI
 1635              		.section	.text.chThdDequeueAllI,"ax",%progbits
 1636              		.align	1
 1637              		.p2align 4,,15
 1638              		.global	chThdDequeueAllI
 1639              		.syntax unified
 1640              		.thumb
 1641              		.thumb_func
 1642              		.fpu softvfp
 1643              		.type	chThdDequeueAllI, %function
 1644              	chThdDequeueAllI:
 1645              	.LFB247:
 1646              		.loc 1 679 0
 1647              		.cfi_startproc
 1648              		@ args = 0, pretend = 0, frame = 0
 1649              		@ frame_needed = 0, uses_anonymous_args = 0
 1650              	.LVL123:
 1651 0000 38B5     		push	{r3, r4, r5, lr}
 1652              		.cfi_def_cfa_offset 16
 1653              		.cfi_offset 3, -16
ARM GAS  /tmp/ccgiDT2l.s 			page 30


 1654              		.cfi_offset 4, -12
 1655              		.cfi_offset 5, -8
 1656              		.cfi_offset 14, -4
 1657              	.LBB391:
 1658              	.LBB392:
 1659              		.loc 2 631 0
 1660 0002 0368     		ldr	r3, [r0]
 1661              	.LVL124:
 1662              	.LBE392:
 1663              	.LBE391:
 1664              		.loc 1 681 0
 1665 0004 9842     		cmp	r0, r3
 1666 0006 0BD0     		beq	.L91
 1667 0008 0446     		mov	r4, r0
 1668 000a 0D46     		mov	r5, r1
 1669              	.LVL125:
 1670              	.L93:
 1671              	.LBB394:
 1672              	.LBB395:
 1673              	.LBB396:
 1674              	.LBB397:
 1675              		.loc 2 674 0
 1676 000c 1A68     		ldr	r2, [r3]
 1677 000e 2260     		str	r2, [r4]
 1678              	.LBE397:
 1679              	.LBE396:
 1680              		.loc 4 322 0
 1681 0010 1846     		mov	r0, r3
 1682              	.LBB399:
 1683              	.LBB398:
 1684              		.loc 2 675 0
 1685 0012 5460     		str	r4, [r2, #4]
 1686              	.LVL126:
 1687              	.LBE398:
 1688              	.LBE399:
 1689              		.loc 4 321 0
 1690 0014 1D62     		str	r5, [r3, #32]
 1691              		.loc 4 322 0
 1692 0016 FFF7FEFF 		bl	chSchReadyI
 1693              	.LVL127:
 1694              	.LBE395:
 1695              	.LBE394:
 1696              	.LBB400:
 1697              	.LBB393:
 1698              		.loc 2 631 0
 1699 001a 2368     		ldr	r3, [r4]
 1700              	.LVL128:
 1701              	.LBE393:
 1702              	.LBE400:
 1703              		.loc 1 681 0
 1704 001c 9C42     		cmp	r4, r3
 1705 001e F5D1     		bne	.L93
 1706              	.LVL129:
 1707              	.L91:
 1708 0020 38BD     		pop	{r3, r4, r5, pc}
 1709              		.cfi_endproc
 1710              	.LFE247:
ARM GAS  /tmp/ccgiDT2l.s 			page 31


 1711              		.size	chThdDequeueAllI, .-chThdDequeueAllI
 1712              		.text
 1713              	.Letext0:
 1714              		.file 7 "/usr/lib/gcc/arm-none-eabi/6.2.1/include/stddef.h"
 1715              		.file 8 "/usr/arm-none-eabi/include/machine/_default_types.h"
 1716              		.file 9 "/usr/arm-none-eabi/include/sys/_stdint.h"
 1717              		.file 10 "/home/selim/working/ChibiOS/os/rt/ports/ARMCMx/compilers/GCC/chtypes.h"
 1718              		.file 11 "/home/selim/working/ChibiOS/os/rt/include/chsystypes.h"
 1719              		.file 12 "/home/selim/working/ChibiOS/os/ext/CMSIS/include/core_cm4.h"
 1720              		.file 13 "/home/selim/working/ChibiOS/os/ext/CMSIS/ST/system_stm32f4xx.h"
 1721              		.file 14 "/home/selim/working/ChibiOS/os/rt/ports/ARMCMx/chcore.h"
 1722              		.file 15 "/home/selim/working/ChibiOS/os/rt/ports/ARMCMx/chcore_v7m.h"
 1723              		.file 16 "/home/selim/working/ChibiOS/os/hal/ports/STM32/LLD/TIMv1/stm32_tim.h"
 1724              		.file 17 "/home/selim/working/ChibiOS/os/rt/include/chtm.h"
 1725              		.file 18 "/home/selim/working/ChibiOS/os/rt/include/chsem.h"
 1726              		.file 19 "/home/selim/working/ChibiOS/os/rt/include/chmtx.h"
 1727              		.file 20 "/home/selim/working/ChibiOS/os/rt/include/chregistry.h"
 1728              		.file 21 "/home/selim/working/ChibiOS/os/rt/include/chsys.h"
 1729              		.file 22 "/home/selim/working/ChibiOS/os/rt/ports/ARMCMx/chcore_timer.h"
 1730              		.file 23 "/home/selim/working/ChibiOS/os/rt/include/chdynamic.h"