ARM GAS  /tmp/ccl10SHx.s 			page 1


   1              		.cpu cortex-m4
   2              		.eabi_attribute 20, 1
   3              		.eabi_attribute 21, 1
   4              		.eabi_attribute 23, 3
   5              		.eabi_attribute 24, 1
   6              		.eabi_attribute 25, 1
   7              		.eabi_attribute 26, 1
   8              		.eabi_attribute 30, 2
   9              		.eabi_attribute 34, 1
  10              		.eabi_attribute 18, 4
  11              		.file	"chtm.c"
  12              		.text
  13              	.Ltext0:
  14              		.cfi_sections	.debug_frame
  15              		.section	.text.chTMObjectInit,"ax",%progbits
  16              		.align	1
  17              		.p2align 4,,15
  18              		.global	chTMObjectInit
  19              		.syntax unified
  20              		.thumb
  21              		.thumb_func
  22              		.fpu softvfp
  23              		.type	chTMObjectInit, %function
  24              	chTMObjectInit:
  25              	.LFB229:
  26              		.file 1 "/home/selim/working/ChibiOS/os/rt/src/chtm.c"
  27              		.loc 1 99 0
  28              		.cfi_startproc
  29              		@ args = 0, pretend = 0, frame = 0
  30              		@ frame_needed = 0, uses_anonymous_args = 0
  31              		@ link register save eliminated.
  32              	.LVL0:
  33              		.loc 1 105 0
  34 0000 0022     		movs	r2, #0
  35 0002 0023     		movs	r3, #0
  36 0004 C0E90423 		strd	r2, [r0, #16]
  37              		.loc 1 102 0
  38 0008 0023     		movs	r3, #0
  39 000a 4FF0FF32 		mov	r2, #-1
  40 000e 80E80C00 		stm	r0, {r2, r3}
  41              		.loc 1 103 0
  42 0012 8360     		str	r3, [r0, #8]
  43              		.loc 1 104 0
  44 0014 C360     		str	r3, [r0, #12]
  45 0016 7047     		bx	lr
  46              		.cfi_endproc
  47              	.LFE229:
  48              		.size	chTMObjectInit, .-chTMObjectInit
  49              		.section	.text.chTMStartMeasurementX,"ax",%progbits
  50              		.align	1
  51              		.p2align 4,,15
  52              		.global	chTMStartMeasurementX
  53              		.syntax unified
  54              		.thumb
  55              		.thumb_func
  56              		.fpu softvfp
  57              		.type	chTMStartMeasurementX, %function
ARM GAS  /tmp/ccl10SHx.s 			page 2


  58              	chTMStartMeasurementX:
  59              	.LFB230:
  60              		.loc 1 116 0
  61              		.cfi_startproc
  62              		@ args = 0, pretend = 0, frame = 0
  63              		@ frame_needed = 0, uses_anonymous_args = 0
  64              		@ link register save eliminated.
  65              	.LVL1:
  66              	.LBB14:
  67              	.LBB15:
  68              		.file 2 "/home/selim/working/ChibiOS/os/rt/ports/ARMCMx/chcore_v7m.h"
  69              		.loc 2 548 0
  70 0000 014B     		ldr	r3, .L3
  71 0002 5B68     		ldr	r3, [r3, #4]
  72              	.LBE15:
  73              	.LBE14:
  74              		.loc 1 118 0
  75 0004 8360     		str	r3, [r0, #8]
  76 0006 7047     		bx	lr
  77              	.L4:
  78              		.align	2
  79              	.L3:
  80 0008 001000E0 		.word	-536866816
  81              		.cfi_endproc
  82              	.LFE230:
  83              		.size	chTMStartMeasurementX, .-chTMStartMeasurementX
  84              		.section	.text.chTMStopMeasurementX,"ax",%progbits
  85              		.align	1
  86              		.p2align 4,,15
  87              		.global	chTMStopMeasurementX
  88              		.syntax unified
  89              		.thumb
  90              		.thumb_func
  91              		.fpu softvfp
  92              		.type	chTMStopMeasurementX, %function
  93              	chTMStopMeasurementX:
  94              	.LFB231:
  95              		.loc 1 129 0
  96              		.cfi_startproc
  97              		@ args = 0, pretend = 0, frame = 0
  98              		@ frame_needed = 0, uses_anonymous_args = 0
  99              		@ link register save eliminated.
 100              	.LVL2:
 101              	.LBB16:
 102              	.LBB17:
 103              		.loc 2 548 0
 104 0000 0F4B     		ldr	r3, .L11
 105              	.LBE17:
 106              	.LBE16:
 107              		.loc 1 131 0
 108 0002 104A     		ldr	r2, .L11+4
 109              	.LBB19:
 110              	.LBB18:
 111              		.loc 2 548 0
 112 0004 5B68     		ldr	r3, [r3, #4]
 113              	.LBE18:
 114              	.LBE19:
ARM GAS  /tmp/ccl10SHx.s 			page 3


 115              	.LBB20:
 116              	.LBB21:
 117              		.loc 1 57 0
 118 0006 C168     		ldr	r1, [r0, #12]
 119              	.LBE21:
 120              	.LBE20:
 121              		.loc 1 129 0
 122 0008 F0B4     		push	{r4, r5, r6, r7}
 123              		.cfi_def_cfa_offset 16
 124              		.cfi_offset 4, -16
 125              		.cfi_offset 5, -12
 126              		.cfi_offset 6, -8
 127              		.cfi_offset 7, -4
 128              	.LBB25:
 129              	.LBB22:
 130              		.loc 1 58 0
 131 000a 8768     		ldr	r7, [r0, #8]
 132              	.LBE22:
 133              	.LBE25:
 134              		.loc 1 131 0
 135 000c 566F     		ldr	r6, [r2, #116]
 136              	.LVL3:
 137              	.LBB26:
 138              	.LBB23:
 139              		.loc 1 61 0
 140 000e 4268     		ldr	r2, [r0, #4]
 141              		.loc 1 59 0
 142 0010 D0E90445 		ldrd	r4, [r0, #16]
 143              		.loc 1 58 0
 144 0014 DB1B     		subs	r3, r3, r7
 145 0016 9B1B     		subs	r3, r3, r6
 146              		.loc 1 59 0
 147 0018 E418     		adds	r4, r4, r3
 148 001a 45F10005 		adc	r5, r5, #0
 149              		.loc 1 57 0
 150 001e 0131     		adds	r1, r1, #1
 151              		.loc 1 61 0
 152 0020 9342     		cmp	r3, r2
 153              		.loc 1 57 0
 154 0022 C160     		str	r1, [r0, #12]
 155              		.loc 1 58 0
 156 0024 8360     		str	r3, [r0, #8]
 157              		.loc 1 59 0
 158 0026 C0E90445 		strd	r4, [r0, #16]
 159              		.loc 1 61 0
 160 002a 05D8     		bhi	.L10
 161              		.loc 1 64 0
 162 002c 0268     		ldr	r2, [r0]
 163 002e 9342     		cmp	r3, r2
 164              		.loc 1 65 0
 165 0030 38BF     		it	cc
 166 0032 0360     		strcc	r3, [r0]
 167              	.LVL4:
 168              	.LBE23:
 169              	.LBE26:
 170              		.loc 1 132 0
 171 0034 F0BC     		pop	{r4, r5, r6, r7}
ARM GAS  /tmp/ccl10SHx.s 			page 4


 172              		.cfi_remember_state
 173              		.cfi_restore 7
 174              		.cfi_restore 6
 175              		.cfi_restore 5
 176              		.cfi_restore 4
 177              		.cfi_def_cfa_offset 0
 178 0036 7047     		bx	lr
 179              	.LVL5:
 180              	.L10:
 181              		.cfi_restore_state
 182              	.LBB27:
 183              	.LBB24:
 184              		.loc 1 62 0
 185 0038 4360     		str	r3, [r0, #4]
 186              	.LBE24:
 187              	.LBE27:
 188              		.loc 1 132 0
 189 003a F0BC     		pop	{r4, r5, r6, r7}
 190              		.cfi_restore 4
 191              		.cfi_restore 5
 192              		.cfi_restore 6
 193              		.cfi_restore 7
 194              		.cfi_def_cfa_offset 0
 195              	.LVL6:
 196 003c 7047     		bx	lr
 197              	.L12:
 198 003e 00BF     		.align	2
 199              	.L11:
 200 0040 001000E0 		.word	-536866816
 201 0044 00000000 		.word	ch
 202              		.cfi_endproc
 203              	.LFE231:
 204              		.size	chTMStopMeasurementX, .-chTMStopMeasurementX
 205              		.section	.text._tm_init,"ax",%progbits
 206              		.align	1
 207              		.p2align 4,,15
 208              		.global	_tm_init
 209              		.syntax unified
 210              		.thumb
 211              		.thumb_func
 212              		.fpu softvfp
 213              		.type	_tm_init, %function
 214              	_tm_init:
 215              	.LFB228:
 216              		.loc 1 79 0
 217              		.cfi_startproc
 218              		@ args = 0, pretend = 0, frame = 24
 219              		@ frame_needed = 0, uses_anonymous_args = 0
 220 0000 D0B5     		push	{r4, r6, r7, lr}
 221              		.cfi_def_cfa_offset 16
 222              		.cfi_offset 4, -16
 223              		.cfi_offset 6, -12
 224              		.cfi_offset 7, -8
 225              		.cfi_offset 14, -4
 226              		.loc 1 85 0
 227 0002 0C4C     		ldr	r4, .L15
 228              		.loc 1 79 0
ARM GAS  /tmp/ccl10SHx.s 			page 5


 229 0004 86B0     		sub	sp, sp, #24
 230              		.cfi_def_cfa_offset 40
 231              		.loc 1 85 0
 232 0006 0023     		movs	r3, #0
 233              	.LBB28:
 234              	.LBB29:
 235              		.loc 1 101 0
 236 0008 4FF0FF32 		mov	r2, #-1
 237              	.LBE29:
 238              	.LBE28:
 239              		.loc 1 87 0
 240 000c 6846     		mov	r0, sp
 241              	.LBB32:
 242              	.LBB30:
 243              		.loc 1 105 0
 244 000e 0026     		movs	r6, #0
 245 0010 0027     		movs	r7, #0
 246              	.LBE30:
 247              	.LBE32:
 248              		.loc 1 85 0
 249 0012 6367     		str	r3, [r4, #116]
 250              	.LVL7:
 251              	.LBB33:
 252              	.LBB31:
 253              		.loc 1 102 0
 254 0014 0193     		str	r3, [sp, #4]
 255              		.loc 1 103 0
 256 0016 0293     		str	r3, [sp, #8]
 257              		.loc 1 104 0
 258 0018 0393     		str	r3, [sp, #12]
 259              		.loc 1 101 0
 260 001a 0092     		str	r2, [sp]
 261              		.loc 1 105 0
 262 001c CDE90467 		strd	r6, [sp, #16]
 263              	.LVL8:
 264              	.LBE31:
 265              	.LBE33:
 266              		.loc 1 87 0
 267 0020 FFF7FEFF 		bl	chTMStartMeasurementX
 268              	.LVL9:
 269              		.loc 1 88 0
 270 0024 6846     		mov	r0, sp
 271 0026 FFF7FEFF 		bl	chTMStopMeasurementX
 272              	.LVL10:
 273              		.loc 1 89 0
 274 002a 029B     		ldr	r3, [sp, #8]
 275 002c 6367     		str	r3, [r4, #116]
 276              		.loc 1 90 0
 277 002e 06B0     		add	sp, sp, #24
 278              		.cfi_def_cfa_offset 16
 279              		@ sp needed
 280 0030 D0BD     		pop	{r4, r6, r7, pc}
 281              	.L16:
 282 0032 00BF     		.align	2
 283              	.L15:
 284 0034 00000000 		.word	ch
 285              		.cfi_endproc
ARM GAS  /tmp/ccl10SHx.s 			page 6


 286              	.LFE228:
 287              		.size	_tm_init, .-_tm_init
 288              		.section	.text.chTMChainMeasurementToX,"ax",%progbits
 289              		.align	1
 290              		.p2align 4,,15
 291              		.global	chTMChainMeasurementToX
 292              		.syntax unified
 293              		.thumb
 294              		.thumb_func
 295              		.fpu softvfp
 296              		.type	chTMChainMeasurementToX, %function
 297              	chTMChainMeasurementToX:
 298              	.LFB232:
 299              		.loc 1 147 0
 300              		.cfi_startproc
 301              		@ args = 0, pretend = 0, frame = 0
 302              		@ frame_needed = 0, uses_anonymous_args = 0
 303              		@ link register save eliminated.
 304              	.LVL11:
 305              	.LBB34:
 306              	.LBB35:
 307              		.loc 2 548 0
 308 0000 0E4B     		ldr	r3, .L22
 309              	.LBE35:
 310              	.LBE34:
 311              	.LBB37:
 312              	.LBB38:
 313              		.loc 1 61 0
 314 0002 4268     		ldr	r2, [r0, #4]
 315              	.LBE38:
 316              	.LBE37:
 317              	.LBB41:
 318              	.LBB36:
 319              		.loc 2 548 0
 320 0004 5B68     		ldr	r3, [r3, #4]
 321              	.LBE36:
 322              	.LBE41:
 323              		.loc 1 147 0
 324 0006 70B4     		push	{r4, r5, r6}
 325              		.cfi_def_cfa_offset 12
 326              		.cfi_offset 4, -12
 327              		.cfi_offset 5, -8
 328              		.cfi_offset 6, -4
 329              		.loc 1 150 0
 330 0008 8B60     		str	r3, [r1, #8]
 331              	.LVL12:
 332              	.LBB42:
 333              	.LBB39:
 334              		.loc 1 59 0
 335 000a D0E90445 		ldrd	r4, [r0, #16]
 336              		.loc 1 58 0
 337 000e 8668     		ldr	r6, [r0, #8]
 338              		.loc 1 57 0
 339 0010 C168     		ldr	r1, [r0, #12]
 340              	.LVL13:
 341              		.loc 1 58 0
 342 0012 9B1B     		subs	r3, r3, r6
ARM GAS  /tmp/ccl10SHx.s 			page 7


 343              	.LVL14:
 344              		.loc 1 59 0
 345 0014 E418     		adds	r4, r4, r3
 346 0016 45F10005 		adc	r5, r5, #0
 347              		.loc 1 57 0
 348 001a 0131     		adds	r1, r1, #1
 349              		.loc 1 61 0
 350 001c 9342     		cmp	r3, r2
 351              		.loc 1 57 0
 352 001e C160     		str	r1, [r0, #12]
 353              		.loc 1 58 0
 354 0020 8360     		str	r3, [r0, #8]
 355              	.LVL15:
 356              		.loc 1 59 0
 357 0022 C0E90445 		strd	r4, [r0, #16]
 358              		.loc 1 61 0
 359 0026 05D8     		bhi	.L21
 360              		.loc 1 64 0
 361 0028 0268     		ldr	r2, [r0]
 362 002a 9342     		cmp	r3, r2
 363              		.loc 1 65 0
 364 002c 38BF     		it	cc
 365 002e 0360     		strcc	r3, [r0]
 366              	.LVL16:
 367              	.LBE39:
 368              	.LBE42:
 369              		.loc 1 154 0
 370 0030 70BC     		pop	{r4, r5, r6}
 371              		.cfi_remember_state
 372              		.cfi_restore 6
 373              		.cfi_restore 5
 374              		.cfi_restore 4
 375              		.cfi_def_cfa_offset 0
 376 0032 7047     		bx	lr
 377              	.LVL17:
 378              	.L21:
 379              		.cfi_restore_state
 380              	.LBB43:
 381              	.LBB40:
 382              		.loc 1 62 0
 383 0034 4360     		str	r3, [r0, #4]
 384              	.LBE40:
 385              	.LBE43:
 386              		.loc 1 154 0
 387 0036 70BC     		pop	{r4, r5, r6}
 388              		.cfi_restore 4
 389              		.cfi_restore 5
 390              		.cfi_restore 6
 391              		.cfi_def_cfa_offset 0
 392 0038 7047     		bx	lr
 393              	.L23:
 394 003a 00BF     		.align	2
 395              	.L22:
 396 003c 001000E0 		.word	-536866816
 397              		.cfi_endproc
 398              	.LFE232:
 399              		.size	chTMChainMeasurementToX, .-chTMChainMeasurementToX
ARM GAS  /tmp/ccl10SHx.s 			page 8


 400              		.text
 401              	.Letext0:
 402              		.file 3 "/usr/arm-none-eabi/include/machine/_default_types.h"
 403              		.file 4 "/usr/arm-none-eabi/include/sys/_stdint.h"
 404              		.file 5 "/home/selim/working/ChibiOS/os/rt/ports/ARMCMx/compilers/GCC/chtypes.h"
 405              		.file 6 "/home/selim/working/ChibiOS/os/rt/include/chsystypes.h"
 406              		.file 7 "/home/selim/working/ChibiOS/os/rt/include/chschd.h"
 407              		.file 8 "/home/selim/working/ChibiOS/os/ext/CMSIS/include/core_cm4.h"
 408              		.file 9 "/home/selim/working/ChibiOS/os/ext/CMSIS/ST/system_stm32f4xx.h"
 409              		.file 10 "/home/selim/working/ChibiOS/os/rt/ports/ARMCMx/chcore.h"
 410              		.file 11 "/home/selim/working/ChibiOS/os/rt/include/chtm.h"
 411              		.file 12 "/home/selim/working/ChibiOS/os/rt/include/chsem.h"
 412              		.file 13 "/home/selim/working/ChibiOS/os/rt/include/chmtx.h"
 413              		.file 14 "/home/selim/working/ChibiOS/os/rt/include/chregistry.h"