ARM GAS  /tmp/ccRj2nZ6.s 			page 1


   1              		.cpu cortex-m4
   2              		.eabi_attribute 20, 1
   3              		.eabi_attribute 21, 1
   4              		.eabi_attribute 23, 3
   5              		.eabi_attribute 24, 1
   6              		.eabi_attribute 25, 1
   7              		.eabi_attribute 26, 1
   8              		.eabi_attribute 30, 2
   9              		.eabi_attribute 34, 1
  10              		.eabi_attribute 18, 4
  11              		.file	"chvt.c"
  12              		.text
  13              	.Ltext0:
  14              		.cfi_sections	.debug_frame
  15              		.section	.text._vt_init,"ax",%progbits
  16              		.align	1
  17              		.p2align 4,,15
  18              		.global	_vt_init
  19              		.syntax unified
  20              		.thumb
  21              		.thumb_func
  22              		.fpu softvfp
  23              		.type	_vt_init, %function
  24              	_vt_init:
  25              	.LFB227:
  26              		.file 1 "/home/selim/working/ChibiOS/os/rt/src/chvt.c"
  27              		.loc 1 61 0
  28              		.cfi_startproc
  29              		@ args = 0, pretend = 0, frame = 0
  30              		@ frame_needed = 0, uses_anonymous_args = 0
  31              		@ link register save eliminated.
  32              		.loc 1 63 0
  33 0000 054B     		ldr	r3, .L2
  34              		.loc 1 65 0
  35 0002 4FF0FF30 		mov	r0, #-1
  36              		.loc 1 63 0
  37 0006 03F11C02 		add	r2, r3, #28
  38              		.loc 1 69 0
  39 000a 0021     		movs	r1, #0
  40              		.loc 1 65 0
  41 000c 5862     		str	r0, [r3, #36]
  42              		.loc 1 69 0
  43 000e 9962     		str	r1, [r3, #40]
  44              		.loc 1 63 0
  45 0010 DA61     		str	r2, [r3, #28]
  46              		.loc 1 64 0
  47 0012 1A62     		str	r2, [r3, #32]
  48 0014 7047     		bx	lr
  49              	.L3:
  50 0016 00BF     		.align	2
  51              	.L2:
  52 0018 00000000 		.word	ch
  53              		.cfi_endproc
  54              	.LFE227:
  55              		.size	_vt_init, .-_vt_init
  56              		.section	.text.chVTDoSetI,"ax",%progbits
  57              		.align	1
ARM GAS  /tmp/ccRj2nZ6.s 			page 2


  58              		.p2align 4,,15
  59              		.global	chVTDoSetI
  60              		.syntax unified
  61              		.thumb
  62              		.thumb_func
  63              		.fpu softvfp
  64              		.type	chVTDoSetI, %function
  65              	chVTDoSetI:
  66              	.LFB228:
  67              		.loc 1 96 0
  68              		.cfi_startproc
  69              		@ args = 0, pretend = 0, frame = 0
  70              		@ frame_needed = 0, uses_anonymous_args = 0
  71              	.LVL0:
  72 0000 F8B5     		push	{r3, r4, r5, r6, r7, lr}
  73              		.cfi_def_cfa_offset 24
  74              		.cfi_offset 3, -24
  75              		.cfi_offset 4, -20
  76              		.cfi_offset 5, -16
  77              		.cfi_offset 6, -12
  78              		.cfi_offset 7, -8
  79              		.cfi_offset 14, -4
  80              	.LBB27:
  81              		.loc 1 117 0
  82 0002 1C4F     		ldr	r7, .L14
  83 0004 3D46     		mov	r5, r7
  84 0006 0229     		cmp	r1, #2
  85 0008 55F81C4F 		ldr	r4, [r5, #28]!
  86              	.LBE27:
  87              		.loc 1 103 0
  88 000c 0361     		str	r3, [r0, #16]
  89              	.LBB42:
  90              	.LBB28:
  91              	.LBB29:
  92              	.LBB30:
  93              	.LBB31:
  94              		.file 2 "/home/selim/working/ChibiOS/os/hal/ports/STM32/LLD/TIMv1/st_lld.h"
  95              		.loc 2 129 0
  96 000e 4FF08043 		mov	r3, #1073741824
  97              	.LVL1:
  98 0012 38BF     		it	cc
  99 0014 0221     		movcc	r1, #2
 100              	.LVL2:
 101              	.LBE31:
 102              	.LBE30:
 103              	.LBE29:
 104              	.LBE28:
 105              		.loc 1 117 0
 106 0016 AC42     		cmp	r4, r5
 107              	.LBE42:
 108              		.loc 1 96 0
 109 0018 0646     		mov	r6, r0
 110              		.loc 1 104 0
 111 001a C260     		str	r2, [r0, #12]
 112              	.LBB43:
 113              	.LBB35:
 114              	.LBB34:
ARM GAS  /tmp/ccRj2nZ6.s 			page 3


 115              	.LBB33:
 116              	.LBB32:
 117              		.loc 2 129 0
 118 001c 586A     		ldr	r0, [r3, #36]
 119              	.LVL3:
 120              	.LBE32:
 121              	.LBE33:
 122              	.LBE34:
 123              	.LBE35:
 124              		.loc 1 117 0
 125 001e 1ED0     		beq	.L12
 126              		.loc 1 136 0
 127 0020 BD6A     		ldr	r5, [r7, #40]
 128              		.loc 1 137 0
 129 0022 A368     		ldr	r3, [r4, #8]
 130              		.loc 1 136 0
 131 0024 0844     		add	r0, r0, r1
 132 0026 451B     		subs	r5, r0, r5
 133              	.LVL4:
 134              		.loc 1 137 0
 135 0028 9D42     		cmp	r5, r3
 136 002a 13D3     		bcc	.L13
 137              	.LVL5:
 138              	.L6:
 139              	.LBE43:
 140              		.loc 1 151 0
 141 002c 9D42     		cmp	r5, r3
 142 002e 04D9     		bls	.L7
 143              	.LVL6:
 144              	.L8:
 145              		.loc 1 153 0
 146 0030 2468     		ldr	r4, [r4]
 147              	.LVL7:
 148              		.loc 1 152 0
 149 0032 ED1A     		subs	r5, r5, r3
 150              	.LVL8:
 151              		.loc 1 151 0
 152 0034 A368     		ldr	r3, [r4, #8]
 153 0036 AB42     		cmp	r3, r5
 154 0038 FAD3     		bcc	.L8
 155              	.LVL9:
 156              	.L7:
 157              		.loc 1 158 0
 158 003a 6368     		ldr	r3, [r4, #4]
 159 003c 7360     		str	r3, [r6, #4]
 160              		.loc 1 157 0
 161 003e 3460     		str	r4, [r6]
 162              		.loc 1 159 0
 163 0040 1E60     		str	r6, [r3]
 164              		.loc 1 160 0
 165 0042 6660     		str	r6, [r4, #4]
 166              		.loc 1 161 0
 167 0044 B560     		str	r5, [r6, #8]
 168              		.loc 1 165 0
 169 0046 A368     		ldr	r3, [r4, #8]
 170              		.loc 1 166 0
 171 0048 4FF0FF32 		mov	r2, #-1
ARM GAS  /tmp/ccRj2nZ6.s 			page 4


 172              		.loc 1 165 0
 173 004c 5D1B     		subs	r5, r3, r5
 174              	.LVL10:
 175 004e A560     		str	r5, [r4, #8]
 176              	.LVL11:
 177              		.loc 1 166 0
 178 0050 7A62     		str	r2, [r7, #36]
 179 0052 F8BD     		pop	{r3, r4, r5, r6, r7, pc}
 180              	.LVL12:
 181              	.L13:
 182              	.LBB44:
 183              	.LBB36:
 184              	.LBB37:
 185              		.file 3 "/home/selim/working/ChibiOS/os/rt/ports/ARMCMx/chcore_timer.h"
 186              		.loc 3 95 0
 187 0054 FFF7FEFF 		bl	stSetAlarm
 188              	.LVL13:
 189 0058 FC69     		ldr	r4, [r7, #28]
 190 005a A368     		ldr	r3, [r4, #8]
 191 005c E6E7     		b	.L6
 192              	.LVL14:
 193              	.L12:
 194              	.LBE37:
 195              	.LBE36:
 196              		.loc 1 121 0
 197 005e B862     		str	r0, [r7, #40]
 198              		.loc 1 122 0
 199 0060 FE61     		str	r6, [r7, #28]
 200              		.loc 1 123 0
 201 0062 3E62     		str	r6, [r7, #32]
 202              	.LBB38:
 203              	.LBB39:
 204              		.loc 3 73 0
 205 0064 0844     		add	r0, r0, r1
 206              	.LBE39:
 207              	.LBE38:
 208              		.loc 1 124 0
 209 0066 3460     		str	r4, [r6]
 210              		.loc 1 125 0
 211 0068 7460     		str	r4, [r6, #4]
 212              		.loc 1 126 0
 213 006a B160     		str	r1, [r6, #8]
 214              	.LVL15:
 215              	.LBE44:
 216              		.loc 1 167 0
 217 006c BDE8F840 		pop	{r3, r4, r5, r6, r7, lr}
 218              		.cfi_restore 14
 219              		.cfi_restore 7
 220              		.cfi_restore 6
 221              		.cfi_restore 5
 222              		.cfi_restore 4
 223              		.cfi_restore 3
 224              		.cfi_def_cfa_offset 0
 225              	.LVL16:
 226              	.LBB45:
 227              	.LBB41:
 228              	.LBB40:
ARM GAS  /tmp/ccRj2nZ6.s 			page 5


 229              		.loc 3 73 0
 230 0070 FFF7FEBF 		b	stStartAlarm
 231              	.LVL17:
 232              	.L15:
 233              		.align	2
 234              	.L14:
 235 0074 00000000 		.word	ch
 236              	.LBE40:
 237              	.LBE41:
 238              	.LBE45:
 239              		.cfi_endproc
 240              	.LFE228:
 241              		.size	chVTDoSetI, .-chVTDoSetI
 242              		.section	.text.chVTDoResetI,"ax",%progbits
 243              		.align	1
 244              		.p2align 4,,15
 245              		.global	chVTDoResetI
 246              		.syntax unified
 247              		.thumb
 248              		.thumb_func
 249              		.fpu softvfp
 250              		.type	chVTDoResetI, %function
 251              	chVTDoResetI:
 252              	.LFB229:
 253              		.loc 1 177 0
 254              		.cfi_startproc
 255              		@ args = 0, pretend = 0, frame = 0
 256              		@ frame_needed = 0, uses_anonymous_args = 0
 257              		@ link register save eliminated.
 258              	.LVL18:
 259              		.loc 1 201 0
 260 0000 194B     		ldr	r3, .L24
 261 0002 DA69     		ldr	r2, [r3, #28]
 262 0004 8242     		cmp	r2, r0
 263              		.loc 1 177 0
 264 0006 10B4     		push	{r4}
 265              		.cfi_def_cfa_offset 4
 266              		.cfi_offset 4, -4
 267              		.loc 1 201 0
 268 0008 0FD0     		beq	.L17
 269              		.loc 1 203 0
 270 000a 4168     		ldr	r1, [r0, #4]
 271 000c 0268     		ldr	r2, [r0]
 272 000e 0A60     		str	r2, [r1]
 273              		.loc 1 204 0
 274 0010 0268     		ldr	r2, [r0]
 275              		.loc 1 208 0
 276 0012 1C33     		adds	r3, r3, #28
 277              		.loc 1 205 0
 278 0014 0024     		movs	r4, #0
 279              		.loc 1 208 0
 280 0016 9A42     		cmp	r2, r3
 281              		.loc 1 204 0
 282 0018 5160     		str	r1, [r2, #4]
 283              		.loc 1 205 0
 284 001a C460     		str	r4, [r0, #12]
 285              		.loc 1 208 0
ARM GAS  /tmp/ccRj2nZ6.s 			page 6


 286 001c 03D0     		beq	.L16
 287              		.loc 1 209 0
 288 001e 8168     		ldr	r1, [r0, #8]
 289 0020 9368     		ldr	r3, [r2, #8]
 290 0022 0B44     		add	r3, r3, r1
 291 0024 9360     		str	r3, [r2, #8]
 292              	.LVL19:
 293              	.L16:
 294              		.loc 1 255 0
 295 0026 10BC     		pop	{r4}
 296              		.cfi_remember_state
 297              		.cfi_restore 4
 298              		.cfi_def_cfa_offset 0
 299 0028 7047     		bx	lr
 300              	.LVL20:
 301              	.L17:
 302              		.cfi_restore_state
 303              		.loc 1 215 0
 304 002a 1846     		mov	r0, r3
 305              	.LVL21:
 306 002c 1168     		ldr	r1, [r2]
 307 002e 40F81C1F 		str	r1, [r0, #28]!
 308              		.loc 1 217 0
 309 0032 0024     		movs	r4, #0
 310              		.loc 1 220 0
 311 0034 8142     		cmp	r1, r0
 312              		.loc 1 216 0
 313 0036 4860     		str	r0, [r1, #4]
 314              		.loc 1 217 0
 315 0038 D460     		str	r4, [r2, #12]
 316              		.loc 1 220 0
 317 003a 12D0     		beq	.L23
 318              		.loc 1 227 0
 319 003c 9468     		ldr	r4, [r2, #8]
 320 003e 8868     		ldr	r0, [r1, #8]
 321              		.loc 1 236 0
 322 0040 9A6A     		ldr	r2, [r3, #40]
 323              		.loc 1 227 0
 324 0042 0444     		add	r4, r4, r0
 325              	.LBB46:
 326              	.LBB47:
 327              	.LBB48:
 328              	.LBB49:
 329              		.loc 2 129 0
 330 0044 4FF08040 		mov	r0, #1073741824
 331              	.LBE49:
 332              	.LBE48:
 333              	.LBE47:
 334              	.LBE46:
 335              		.loc 1 227 0
 336 0048 8C60     		str	r4, [r1, #8]
 337              	.LBB53:
 338              	.LBB52:
 339              	.LBB51:
 340              	.LBB50:
 341              		.loc 2 129 0
 342 004a 406A     		ldr	r0, [r0, #36]
ARM GAS  /tmp/ccRj2nZ6.s 			page 7


 343              	.LBE50:
 344              	.LBE51:
 345              	.LBE52:
 346              	.LBE53:
 347              		.loc 1 236 0
 348 004c 821A     		subs	r2, r0, r2
 349              	.LVL22:
 350              		.loc 1 240 0
 351 004e 9442     		cmp	r4, r2
 352 0050 E9D9     		bls	.L16
 353              		.loc 1 245 0
 354 0052 A31A     		subs	r3, r4, r2
 355              	.LVL23:
 356              	.LBB54:
 357              	.LBB55:
 358              		.loc 3 95 0
 359 0054 022B     		cmp	r3, #2
 360 0056 2CBF     		ite	cs
 361 0058 C018     		addcs	r0, r0, r3
 362 005a 0230     		addcc	r0, r0, #2
 363              	.LVL24:
 364              	.LBE55:
 365              	.LBE54:
 366              		.loc 1 255 0
 367 005c 10BC     		pop	{r4}
 368              		.cfi_remember_state
 369              		.cfi_restore 4
 370              		.cfi_def_cfa_offset 0
 371              	.LBB57:
 372              	.LBB56:
 373              		.loc 3 95 0
 374 005e FFF7FEBF 		b	stSetAlarm
 375              	.LVL25:
 376              	.L23:
 377              		.cfi_restore_state
 378              	.LBE56:
 379              	.LBE57:
 380              		.loc 1 255 0
 381 0062 10BC     		pop	{r4}
 382              		.cfi_restore 4
 383              		.cfi_def_cfa_offset 0
 384              	.LBB58:
 385              	.LBB59:
 386              		.loc 3 83 0
 387 0064 FFF7FEBF 		b	stStopAlarm
 388              	.LVL26:
 389              	.L25:
 390              		.align	2
 391              	.L24:
 392 0068 00000000 		.word	ch
 393              	.LBE59:
 394              	.LBE58:
 395              		.cfi_endproc
 396              	.LFE229:
 397              		.size	chVTDoResetI, .-chVTDoResetI
 398              		.text
 399              	.Letext0:
ARM GAS  /tmp/ccRj2nZ6.s 			page 8


 400              		.file 4 "/usr/arm-none-eabi/include/machine/_default_types.h"
 401              		.file 5 "/usr/arm-none-eabi/include/sys/_stdint.h"
 402              		.file 6 "/home/selim/working/ChibiOS/os/rt/ports/ARMCMx/compilers/GCC/chtypes.h"
 403              		.file 7 "/home/selim/working/ChibiOS/os/rt/include/chsystypes.h"
 404              		.file 8 "/home/selim/working/ChibiOS/os/rt/include/chschd.h"
 405              		.file 9 "/home/selim/working/ChibiOS/os/ext/CMSIS/include/core_cm4.h"
 406              		.file 10 "/home/selim/working/ChibiOS/os/ext/CMSIS/ST/system_stm32f4xx.h"
 407              		.file 11 "/home/selim/working/ChibiOS/os/rt/ports/ARMCMx/chcore.h"
 408              		.file 12 "/home/selim/working/ChibiOS/os/rt/ports/ARMCMx/chcore_v7m.h"
 409              		.file 13 "/home/selim/working/ChibiOS/os/hal/ports/STM32/LLD/TIMv1/stm32_tim.h"
 410              		.file 14 "/home/selim/working/ChibiOS/os/rt/include/chtm.h"
 411              		.file 15 "/home/selim/working/ChibiOS/os/rt/include/chsem.h"
 412              		.file 16 "/home/selim/working/ChibiOS/os/rt/include/chmtx.h"
 413              		.file 17 "/home/selim/working/ChibiOS/os/rt/include/chregistry.h"
 414              		.file 18 "/home/selim/working/ChibiOS/os/rt/include/chvt.h"
 415              		.file 19 "/home/selim/working/ChibiOS/os/hal/include/st.h"