ARM GAS  /tmp/ccrpCuUt.s 			page 1


   1              		.syntax unified
   2              		.cpu cortex-m4
   3              		.fpu softvfp
   4              		.eabi_attribute 20, 1
   5              		.eabi_attribute 21, 1
   6              		.eabi_attribute 23, 3
   7              		.eabi_attribute 24, 1
   8              		.eabi_attribute 25, 1
   9              		.eabi_attribute 26, 1
  10              		.eabi_attribute 30, 2
  11              		.eabi_attribute 34, 1
  12              		.eabi_attribute 18, 4
  13              		.thumb
  14              		.syntax unified
  15              		.file	"gpt.c"
  16              		.text
  17              	.Ltext0:
  18              		.cfi_sections	.debug_frame
  19              		.section	.text.gptInit,"ax",%progbits
  20              		.align	2
  21              		.p2align 4,,15
  22              		.global	gptInit
  23              		.thumb
  24              		.thumb_func
  25              		.type	gptInit, %function
  26              	gptInit:
  27              	.LFB258:
  28              		.file 1 "/home/selim/working/ChibiOS/os/hal/src/gpt.c"
  29              		.loc 1 56 0
  30              		.cfi_startproc
  31              		@ args = 0, pretend = 0, frame = 0
  32              		@ frame_needed = 0, uses_anonymous_args = 0
  33              		@ link register save eliminated.
  34              		.loc 1 58 0
  35 0000 FFF7FEBF 		b	gpt_lld_init
  36              	.LVL0:
  37              		.cfi_endproc
  38              	.LFE258:
  39              		.size	gptInit, .-gptInit
  40              		.section	.text.gptObjectInit,"ax",%progbits
  41              		.align	2
  42              		.p2align 4,,15
  43              		.global	gptObjectInit
  44              		.thumb
  45              		.thumb_func
  46              		.type	gptObjectInit, %function
  47              	gptObjectInit:
  48              	.LFB259:
  49              		.loc 1 68 0
  50              		.cfi_startproc
  51              		@ args = 0, pretend = 0, frame = 0
  52              		@ frame_needed = 0, uses_anonymous_args = 0
  53              		@ link register save eliminated.
  54              	.LVL1:
  55              		.loc 1 70 0
  56 0000 0122     		movs	r2, #1
  57              		.loc 1 71 0
ARM GAS  /tmp/ccrpCuUt.s 			page 2


  58 0002 0023     		movs	r3, #0
  59              		.loc 1 70 0
  60 0004 0270     		strb	r2, [r0]
  61              		.loc 1 71 0
  62 0006 4360     		str	r3, [r0, #4]
  63 0008 7047     		bx	lr
  64              		.cfi_endproc
  65              	.LFE259:
  66              		.size	gptObjectInit, .-gptObjectInit
  67 000a 00BF     		.section	.text.gptStart,"ax",%progbits
  68              		.align	2
  69              		.p2align 4,,15
  70              		.global	gptStart
  71              		.thumb
  72              		.thumb_func
  73              		.type	gptStart, %function
  74              	gptStart:
  75              	.LFB260:
  76              		.loc 1 82 0
  77              		.cfi_startproc
  78              		@ args = 0, pretend = 0, frame = 0
  79              		@ frame_needed = 0, uses_anonymous_args = 0
  80              	.LVL2:
  81 0000 10B5     		push	{r4, lr}
  82              		.cfi_def_cfa_offset 8
  83              		.cfi_offset 4, -8
  84              		.cfi_offset 14, -4
  85              	.LBB108:
  86              	.LBB109:
  87              	.LBB110:
  88              	.LBB111:
  89              	.LBB112:
  90              		.file 2 "/home/selim/working/ChibiOS/os/ext/CMSIS/include/core_cmFunc.h"
  91              		.loc 2 546 0
  92 0002 2023     		movs	r3, #32
  93              	.LBE112:
  94              	.LBE111:
  95              	.LBE110:
  96              	.LBE109:
  97              	.LBE108:
  98              		.loc 1 82 0
  99 0004 0446     		mov	r4, r0
 100              	.LBB117:
 101              	.LBB116:
 102              	.LBB115:
 103              	.LBB114:
 104              	.LBB113:
 105              		.loc 2 546 0
 106              		.syntax unified
 107              	@ 546 "/home/selim/working/ChibiOS/os/ext/CMSIS/include/core_cmFunc.h" 1
 108 0006 83F31188 		MSR basepri, r3
 109              	@ 0 "" 2
 110              	.LVL3:
 111              		.thumb
 112              		.syntax unified
 113              	.LBE113:
 114              	.LBE114:
ARM GAS  /tmp/ccrpCuUt.s 			page 3


 115              	.LBE115:
 116              	.LBE116:
 117              	.LBE117:
 118              		.loc 1 89 0
 119 000a 4160     		str	r1, [r0, #4]
 120              		.loc 1 90 0
 121 000c FFF7FEFF 		bl	gpt_lld_start
 122              	.LVL4:
 123              		.loc 1 91 0
 124 0010 0223     		movs	r3, #2
 125 0012 2370     		strb	r3, [r4]
 126              	.LVL5:
 127              	.LBB118:
 128              	.LBB119:
 129              	.LBB120:
 130              	.LBB121:
 131              	.LBB122:
 132              	.LBB123:
 133              		.loc 2 546 0
 134 0014 0023     		movs	r3, #0
 135              		.syntax unified
 136              	@ 546 "/home/selim/working/ChibiOS/os/ext/CMSIS/include/core_cmFunc.h" 1
 137 0016 83F31188 		MSR basepri, r3
 138              	@ 0 "" 2
 139              	.LVL6:
 140              		.thumb
 141              		.syntax unified
 142 001a 10BD     		pop	{r4, pc}
 143              	.LBE123:
 144              	.LBE122:
 145              	.LBE121:
 146              	.LBE120:
 147              	.LBE119:
 148              	.LBE118:
 149              		.cfi_endproc
 150              	.LFE260:
 151              		.size	gptStart, .-gptStart
 152              		.section	.text.gptStop,"ax",%progbits
 153              		.align	2
 154              		.p2align 4,,15
 155              		.global	gptStop
 156              		.thumb
 157              		.thumb_func
 158              		.type	gptStop, %function
 159              	gptStop:
 160              	.LFB261:
 161              		.loc 1 102 0
 162              		.cfi_startproc
 163              		@ args = 0, pretend = 0, frame = 0
 164              		@ frame_needed = 0, uses_anonymous_args = 0
 165              	.LVL7:
 166 0000 10B5     		push	{r4, lr}
 167              		.cfi_def_cfa_offset 8
 168              		.cfi_offset 4, -8
 169              		.cfi_offset 14, -4
 170              	.LBB124:
 171              	.LBB125:
ARM GAS  /tmp/ccrpCuUt.s 			page 4


 172              	.LBB126:
 173              	.LBB127:
 174              	.LBB128:
 175              		.loc 2 546 0
 176 0002 2023     		movs	r3, #32
 177              	.LBE128:
 178              	.LBE127:
 179              	.LBE126:
 180              	.LBE125:
 181              	.LBE124:
 182              		.loc 1 102 0
 183 0004 0446     		mov	r4, r0
 184              	.LBB133:
 185              	.LBB132:
 186              	.LBB131:
 187              	.LBB130:
 188              	.LBB129:
 189              		.loc 2 546 0
 190              		.syntax unified
 191              	@ 546 "/home/selim/working/ChibiOS/os/ext/CMSIS/include/core_cmFunc.h" 1
 192 0006 83F31188 		MSR basepri, r3
 193              	@ 0 "" 2
 194              	.LVL8:
 195              		.thumb
 196              		.syntax unified
 197              	.LBE129:
 198              	.LBE130:
 199              	.LBE131:
 200              	.LBE132:
 201              	.LBE133:
 202              		.loc 1 109 0
 203 000a FFF7FEFF 		bl	gpt_lld_stop
 204              	.LVL9:
 205              		.loc 1 110 0
 206 000e 0123     		movs	r3, #1
 207 0010 2370     		strb	r3, [r4]
 208              	.LVL10:
 209              	.LBB134:
 210              	.LBB135:
 211              	.LBB136:
 212              	.LBB137:
 213              	.LBB138:
 214              	.LBB139:
 215              		.loc 2 546 0
 216 0012 0023     		movs	r3, #0
 217              		.syntax unified
 218              	@ 546 "/home/selim/working/ChibiOS/os/ext/CMSIS/include/core_cmFunc.h" 1
 219 0014 83F31188 		MSR basepri, r3
 220              	@ 0 "" 2
 221              	.LVL11:
 222              		.thumb
 223              		.syntax unified
 224 0018 10BD     		pop	{r4, pc}
 225              	.LBE139:
 226              	.LBE138:
 227              	.LBE137:
 228              	.LBE136:
ARM GAS  /tmp/ccrpCuUt.s 			page 5


 229              	.LBE135:
 230              	.LBE134:
 231              		.cfi_endproc
 232              	.LFE261:
 233              		.size	gptStop, .-gptStop
 234 001a 00BF     		.section	.text.gptChangeInterval,"ax",%progbits
 235              		.align	2
 236              		.p2align 4,,15
 237              		.global	gptChangeInterval
 238              		.thumb
 239              		.thumb_func
 240              		.type	gptChangeInterval, %function
 241              	gptChangeInterval:
 242              	.LFB262:
 243              		.loc 1 125 0
 244              		.cfi_startproc
 245              		@ args = 0, pretend = 0, frame = 0
 246              		@ frame_needed = 0, uses_anonymous_args = 0
 247              		@ link register save eliminated.
 248              	.LVL12:
 249              	.LBB140:
 250              	.LBB141:
 251              	.LBB142:
 252              	.LBB143:
 253              	.LBB144:
 254              		.loc 2 546 0
 255 0000 2023     		movs	r3, #32
 256              		.syntax unified
 257              	@ 546 "/home/selim/working/ChibiOS/os/ext/CMSIS/include/core_cmFunc.h" 1
 258 0002 83F31188 		MSR basepri, r3
 259              	@ 0 "" 2
 260              	.LVL13:
 261              		.thumb
 262              		.syntax unified
 263              	.LBE144:
 264              	.LBE143:
 265              	.LBE142:
 266              	.LBE141:
 267              	.LBE140:
 268              		.loc 1 132 0
 269 0006 C368     		ldr	r3, [r0, #12]
 270 0008 0139     		subs	r1, r1, #1
 271              	.LVL14:
 272 000a D962     		str	r1, [r3, #44]
 273              	.LVL15:
 274              	.LBB145:
 275              	.LBB146:
 276              	.LBB147:
 277              	.LBB148:
 278              	.LBB149:
 279              	.LBB150:
 280              		.loc 2 546 0
 281 000c 0023     		movs	r3, #0
 282              		.syntax unified
 283              	@ 546 "/home/selim/working/ChibiOS/os/ext/CMSIS/include/core_cmFunc.h" 1
 284 000e 83F31188 		MSR basepri, r3
 285              	@ 0 "" 2
ARM GAS  /tmp/ccrpCuUt.s 			page 6


 286              	.LVL16:
 287              		.thumb
 288              		.syntax unified
 289 0012 7047     		bx	lr
 290              	.LBE150:
 291              	.LBE149:
 292              	.LBE148:
 293              	.LBE147:
 294              	.LBE146:
 295              	.LBE145:
 296              		.cfi_endproc
 297              	.LFE262:
 298              		.size	gptChangeInterval, .-gptChangeInterval
 299              		.section	.text.gptStartContinuous,"ax",%progbits
 300              		.align	2
 301              		.p2align 4,,15
 302              		.global	gptStartContinuous
 303              		.thumb
 304              		.thumb_func
 305              		.type	gptStartContinuous, %function
 306              	gptStartContinuous:
 307              	.LFB263:
 308              		.loc 1 144 0
 309              		.cfi_startproc
 310              		@ args = 0, pretend = 0, frame = 0
 311              		@ frame_needed = 0, uses_anonymous_args = 0
 312              	.LVL17:
 313 0000 08B5     		push	{r3, lr}
 314              		.cfi_def_cfa_offset 8
 315              		.cfi_offset 3, -8
 316              		.cfi_offset 14, -4
 317              	.LBB151:
 318              	.LBB152:
 319              	.LBB153:
 320              	.LBB154:
 321              	.LBB155:
 322              		.loc 2 546 0
 323 0002 2022     		movs	r2, #32
 324              		.syntax unified
 325              	@ 546 "/home/selim/working/ChibiOS/os/ext/CMSIS/include/core_cmFunc.h" 1
 326 0004 82F31188 		MSR basepri, r2
 327              	@ 0 "" 2
 328              	.LVL18:
 329              		.thumb
 330              		.syntax unified
 331              	.LBE155:
 332              	.LBE154:
 333              	.LBE153:
 334              	.LBE152:
 335              	.LBE151:
 336              	.LBB156:
 337              	.LBB157:
 338              		.loc 1 166 0
 339 0008 0322     		movs	r2, #3
 340 000a 0270     		strb	r2, [r0]
 341              		.loc 1 167 0
 342 000c FFF7FEFF 		bl	gpt_lld_start_timer
ARM GAS  /tmp/ccrpCuUt.s 			page 7


 343              	.LVL19:
 344              	.LBE157:
 345              	.LBE156:
 346              	.LBB158:
 347              	.LBB159:
 348              	.LBB160:
 349              	.LBB161:
 350              	.LBB162:
 351              	.LBB163:
 352              		.loc 2 546 0
 353 0010 0023     		movs	r3, #0
 354              		.syntax unified
 355              	@ 546 "/home/selim/working/ChibiOS/os/ext/CMSIS/include/core_cmFunc.h" 1
 356 0012 83F31188 		MSR basepri, r3
 357              	@ 0 "" 2
 358              	.LVL20:
 359              		.thumb
 360              		.syntax unified
 361 0016 08BD     		pop	{r3, pc}
 362              	.LBE163:
 363              	.LBE162:
 364              	.LBE161:
 365              	.LBE160:
 366              	.LBE159:
 367              	.LBE158:
 368              		.cfi_endproc
 369              	.LFE263:
 370              		.size	gptStartContinuous, .-gptStartContinuous
 371              		.section	.text.gptStartContinuousI,"ax",%progbits
 372              		.align	2
 373              		.p2align 4,,15
 374              		.global	gptStartContinuousI
 375              		.thumb
 376              		.thumb_func
 377              		.type	gptStartContinuousI, %function
 378              	gptStartContinuousI:
 379              	.LFB264:
 380              		.loc 1 159 0
 381              		.cfi_startproc
 382              		@ args = 0, pretend = 0, frame = 0
 383              		@ frame_needed = 0, uses_anonymous_args = 0
 384              		@ link register save eliminated.
 385              	.LVL21:
 386              		.loc 1 166 0
 387 0000 0323     		movs	r3, #3
 388 0002 0370     		strb	r3, [r0]
 389              		.loc 1 167 0
 390 0004 FFF7FEBF 		b	gpt_lld_start_timer
 391              	.LVL22:
 392              		.cfi_endproc
 393              	.LFE264:
 394              		.size	gptStartContinuousI, .-gptStartContinuousI
 395              		.section	.text.gptStartOneShot,"ax",%progbits
 396              		.align	2
 397              		.p2align 4,,15
 398              		.global	gptStartOneShot
 399              		.thumb
ARM GAS  /tmp/ccrpCuUt.s 			page 8


 400              		.thumb_func
 401              		.type	gptStartOneShot, %function
 402              	gptStartOneShot:
 403              	.LFB265:
 404              		.loc 1 178 0
 405              		.cfi_startproc
 406              		@ args = 0, pretend = 0, frame = 0
 407              		@ frame_needed = 0, uses_anonymous_args = 0
 408              	.LVL23:
 409 0000 08B5     		push	{r3, lr}
 410              		.cfi_def_cfa_offset 8
 411              		.cfi_offset 3, -8
 412              		.cfi_offset 14, -4
 413              	.LBB164:
 414              	.LBB165:
 415              	.LBB166:
 416              	.LBB167:
 417              	.LBB168:
 418              		.loc 2 546 0
 419 0002 2022     		movs	r2, #32
 420              		.syntax unified
 421              	@ 546 "/home/selim/working/ChibiOS/os/ext/CMSIS/include/core_cmFunc.h" 1
 422 0004 82F31188 		MSR basepri, r2
 423              	@ 0 "" 2
 424              	.LVL24:
 425              		.thumb
 426              		.syntax unified
 427              	.LBE168:
 428              	.LBE167:
 429              	.LBE166:
 430              	.LBE165:
 431              	.LBE164:
 432              	.LBB169:
 433              	.LBB170:
 434              		.loc 1 201 0
 435 0008 0422     		movs	r2, #4
 436 000a 0270     		strb	r2, [r0]
 437              		.loc 1 202 0
 438 000c FFF7FEFF 		bl	gpt_lld_start_timer
 439              	.LVL25:
 440              	.LBE170:
 441              	.LBE169:
 442              	.LBB171:
 443              	.LBB172:
 444              	.LBB173:
 445              	.LBB174:
 446              	.LBB175:
 447              	.LBB176:
 448              		.loc 2 546 0
 449 0010 0023     		movs	r3, #0
 450              		.syntax unified
 451              	@ 546 "/home/selim/working/ChibiOS/os/ext/CMSIS/include/core_cmFunc.h" 1
 452 0012 83F31188 		MSR basepri, r3
 453              	@ 0 "" 2
 454              	.LVL26:
 455              		.thumb
 456              		.syntax unified
ARM GAS  /tmp/ccrpCuUt.s 			page 9


 457 0016 08BD     		pop	{r3, pc}
 458              	.LBE176:
 459              	.LBE175:
 460              	.LBE174:
 461              	.LBE173:
 462              	.LBE172:
 463              	.LBE171:
 464              		.cfi_endproc
 465              	.LFE265:
 466              		.size	gptStartOneShot, .-gptStartOneShot
 467              		.section	.text.gptStartOneShotI,"ax",%progbits
 468              		.align	2
 469              		.p2align 4,,15
 470              		.global	gptStartOneShotI
 471              		.thumb
 472              		.thumb_func
 473              		.type	gptStartOneShotI, %function
 474              	gptStartOneShotI:
 475              	.LFB266:
 476              		.loc 1 193 0
 477              		.cfi_startproc
 478              		@ args = 0, pretend = 0, frame = 0
 479              		@ frame_needed = 0, uses_anonymous_args = 0
 480              		@ link register save eliminated.
 481              	.LVL27:
 482              		.loc 1 201 0
 483 0000 0423     		movs	r3, #4
 484 0002 0370     		strb	r3, [r0]
 485              		.loc 1 202 0
 486 0004 FFF7FEBF 		b	gpt_lld_start_timer
 487              	.LVL28:
 488              		.cfi_endproc
 489              	.LFE266:
 490              		.size	gptStartOneShotI, .-gptStartOneShotI
 491              		.section	.text.gptStopTimer,"ax",%progbits
 492              		.align	2
 493              		.p2align 4,,15
 494              		.global	gptStopTimer
 495              		.thumb
 496              		.thumb_func
 497              		.type	gptStopTimer, %function
 498              	gptStopTimer:
 499              	.LFB267:
 500              		.loc 1 212 0
 501              		.cfi_startproc
 502              		@ args = 0, pretend = 0, frame = 0
 503              		@ frame_needed = 0, uses_anonymous_args = 0
 504              	.LVL29:
 505 0000 08B5     		push	{r3, lr}
 506              		.cfi_def_cfa_offset 8
 507              		.cfi_offset 3, -8
 508              		.cfi_offset 14, -4
 509              	.LBB177:
 510              	.LBB178:
 511              	.LBB179:
 512              	.LBB180:
 513              	.LBB181:
ARM GAS  /tmp/ccrpCuUt.s 			page 10


 514              		.loc 2 546 0
 515 0002 2022     		movs	r2, #32
 516              		.syntax unified
 517              	@ 546 "/home/selim/working/ChibiOS/os/ext/CMSIS/include/core_cmFunc.h" 1
 518 0004 82F31188 		MSR basepri, r2
 519              	@ 0 "" 2
 520              	.LVL30:
 521              		.thumb
 522              		.syntax unified
 523              	.LBE181:
 524              	.LBE180:
 525              	.LBE179:
 526              	.LBE178:
 527              	.LBE177:
 528              	.LBB182:
 529              	.LBB183:
 530              		.loc 1 234 0
 531 0008 0222     		movs	r2, #2
 532 000a 0270     		strb	r2, [r0]
 533              		.loc 1 235 0
 534 000c FFF7FEFF 		bl	gpt_lld_stop_timer
 535              	.LVL31:
 536              	.LBE183:
 537              	.LBE182:
 538              	.LBB184:
 539              	.LBB185:
 540              	.LBB186:
 541              	.LBB187:
 542              	.LBB188:
 543              	.LBB189:
 544              		.loc 2 546 0
 545 0010 0023     		movs	r3, #0
 546              		.syntax unified
 547              	@ 546 "/home/selim/working/ChibiOS/os/ext/CMSIS/include/core_cmFunc.h" 1
 548 0012 83F31188 		MSR basepri, r3
 549              	@ 0 "" 2
 550              	.LVL32:
 551              		.thumb
 552              		.syntax unified
 553 0016 08BD     		pop	{r3, pc}
 554              	.LBE189:
 555              	.LBE188:
 556              	.LBE187:
 557              	.LBE186:
 558              	.LBE185:
 559              	.LBE184:
 560              		.cfi_endproc
 561              	.LFE267:
 562              		.size	gptStopTimer, .-gptStopTimer
 563              		.section	.text.gptStopTimerI,"ax",%progbits
 564              		.align	2
 565              		.p2align 4,,15
 566              		.global	gptStopTimerI
 567              		.thumb
 568              		.thumb_func
 569              		.type	gptStopTimerI, %function
 570              	gptStopTimerI:
ARM GAS  /tmp/ccrpCuUt.s 			page 11


 571              	.LFB268:
 572              		.loc 1 226 0
 573              		.cfi_startproc
 574              		@ args = 0, pretend = 0, frame = 0
 575              		@ frame_needed = 0, uses_anonymous_args = 0
 576              		@ link register save eliminated.
 577              	.LVL33:
 578              		.loc 1 234 0
 579 0000 0223     		movs	r3, #2
 580 0002 0370     		strb	r3, [r0]
 581              		.loc 1 235 0
 582 0004 FFF7FEBF 		b	gpt_lld_stop_timer
 583              	.LVL34:
 584              		.cfi_endproc
 585              	.LFE268:
 586              		.size	gptStopTimerI, .-gptStopTimerI
 587              		.section	.text.gptPolledDelay,"ax",%progbits
 588              		.align	2
 589              		.p2align 4,,15
 590              		.global	gptPolledDelay
 591              		.thumb
 592              		.thumb_func
 593              		.type	gptPolledDelay, %function
 594              	gptPolledDelay:
 595              	.LFB269:
 596              		.loc 1 250 0
 597              		.cfi_startproc
 598              		@ args = 0, pretend = 0, frame = 0
 599              		@ frame_needed = 0, uses_anonymous_args = 0
 600              	.LVL35:
 601 0000 10B5     		push	{r4, lr}
 602              		.cfi_def_cfa_offset 8
 603              		.cfi_offset 4, -8
 604              		.cfi_offset 14, -4
 605              		.loc 1 255 0
 606 0002 0423     		movs	r3, #4
 607              		.loc 1 250 0
 608 0004 0446     		mov	r4, r0
 609              		.loc 1 255 0
 610 0006 0370     		strb	r3, [r0]
 611              		.loc 1 256 0
 612 0008 FFF7FEFF 		bl	gpt_lld_polled_delay
 613              	.LVL36:
 614              		.loc 1 257 0
 615 000c 0223     		movs	r3, #2
 616 000e 2370     		strb	r3, [r4]
 617 0010 10BD     		pop	{r4, pc}
 618              		.cfi_endproc
 619              	.LFE269:
 620              		.size	gptPolledDelay, .-gptPolledDelay
 621 0012 00BF     		.text
 622              	.Letext0:
 623              		.file 3 "/usr/arm-none-eabi/include/machine/_default_types.h"
 624              		.file 4 "/usr/arm-none-eabi/include/sys/_stdint.h"
 625              		.file 5 "/home/selim/working/ChibiOS/os/rt/ports/ARMCMx/compilers/GCC/chtypes.h"
 626              		.file 6 "/home/selim/working/ChibiOS/os/rt/include/chsystypes.h"
 627              		.file 7 "/home/selim/working/ChibiOS/os/rt/include/chschd.h"
ARM GAS  /tmp/ccrpCuUt.s 			page 12


 628              		.file 8 "/home/selim/working/ChibiOS/os/rt/ports/ARMCMx/chcore.h"
 629              		.file 9 "/home/selim/working/ChibiOS/os/rt/ports/ARMCMx/chcore_v7m.h"
 630              		.file 10 "/home/selim/working/ChibiOS/os/hal/ports/STM32/LLD/TIMv1/stm32_tim.h"
 631              		.file 11 "/home/selim/working/ChibiOS/os/rt/include/chtm.h"
 632              		.file 12 "/home/selim/working/ChibiOS/os/rt/include/chsem.h"
 633              		.file 13 "/home/selim/working/ChibiOS/os/rt/include/chmtx.h"
 634              		.file 14 "/home/selim/working/ChibiOS/os/hal/include/gpt.h"
 635              		.file 15 "/home/selim/working/ChibiOS/os/hal/ports/STM32/LLD/TIMv1/gpt_lld.h"
 636              		.file 16 "/home/selim/working/ChibiOS/os/rt/include/chsys.h"
 637              		.file 17 "/home/selim/working/ChibiOS/os/hal/osal/rt/osal.h"
 638              		.file 18 "/home/selim/working/ChibiOS/os/ext/CMSIS/include/core_cm4.h"
 639              		.section	.debug_info,"",%progbits
 640              	.Ldebug_info0:
 641 0000 F2110000 		.4byte	0x11f2
 642 0004 0400     		.2byte	0x4
 643 0006 00000000 		.4byte	.Ldebug_abbrev0
 644 000a 04       		.byte	0x4
 645 000b 01       		.uleb128 0x1
 646 000c 8B040000 		.4byte	.LASF160
 647 0010 0C       		.byte	0xc
 648 0011 43020000 		.4byte	.LASF161
 649 0015 30000000 		.4byte	.Ldebug_ranges0+0x30
 650 0019 00000000 		.4byte	0
 651 001d 00000000 		.4byte	.Ldebug_line0
 652 0021 02       		.uleb128 0x2
 653 0022 04       		.byte	0x4
 654 0023 05       		.byte	0x5
 655 0024 696E7400 		.ascii	"int\000"
 656 0028 03       		.uleb128 0x3
 657 0029 04       		.byte	0x4
 658 002a 07       		.byte	0x7
 659 002b 19020000 		.4byte	.LASF0
 660 002f 03       		.uleb128 0x3
 661 0030 08       		.byte	0x8
 662 0031 05       		.byte	0x5
 663 0032 66010000 		.4byte	.LASF1
 664 0036 03       		.uleb128 0x3
 665 0037 08       		.byte	0x8
 666 0038 04       		.byte	0x4
 667 0039 86030000 		.4byte	.LASF2
 668 003d 03       		.uleb128 0x3
 669 003e 01       		.byte	0x1
 670 003f 06       		.byte	0x6
 671 0040 F0000000 		.4byte	.LASF3
 672 0044 04       		.uleb128 0x4
 673 0045 28000000 		.4byte	.LASF7
 674 0049 03       		.byte	0x3
 675 004a 1D       		.byte	0x1d
 676 004b 4F000000 		.4byte	0x4f
 677 004f 03       		.uleb128 0x3
 678 0050 01       		.byte	0x1
 679 0051 08       		.byte	0x8
 680 0052 5A040000 		.4byte	.LASF4
 681 0056 03       		.uleb128 0x3
 682 0057 02       		.byte	0x2
 683 0058 05       		.byte	0x5
 684 0059 72040000 		.4byte	.LASF5
ARM GAS  /tmp/ccrpCuUt.s 			page 13


 685 005d 03       		.uleb128 0x3
 686 005e 02       		.byte	0x2
 687 005f 07       		.byte	0x7
 688 0060 A6010000 		.4byte	.LASF6
 689 0064 04       		.uleb128 0x4
 690 0065 27030000 		.4byte	.LASF8
 691 0069 03       		.byte	0x3
 692 006a 3F       		.byte	0x3f
 693 006b 6F000000 		.4byte	0x6f
 694 006f 03       		.uleb128 0x3
 695 0070 04       		.byte	0x4
 696 0071 05       		.byte	0x5
 697 0072 36010000 		.4byte	.LASF9
 698 0076 04       		.uleb128 0x4
 699 0077 5A060000 		.4byte	.LASF10
 700 007b 03       		.byte	0x3
 701 007c 41       		.byte	0x41
 702 007d 81000000 		.4byte	0x81
 703 0081 03       		.uleb128 0x3
 704 0082 04       		.byte	0x4
 705 0083 07       		.byte	0x7
 706 0084 04060000 		.4byte	.LASF11
 707 0088 04       		.uleb128 0x4
 708 0089 FE030000 		.4byte	.LASF12
 709 008d 03       		.byte	0x3
 710 008e 5B       		.byte	0x5b
 711 008f 93000000 		.4byte	0x93
 712 0093 03       		.uleb128 0x3
 713 0094 08       		.byte	0x8
 714 0095 07       		.byte	0x7
 715 0096 7A000000 		.4byte	.LASF13
 716 009a 04       		.uleb128 0x4
 717 009b 03070000 		.4byte	.LASF14
 718 009f 04       		.byte	0x4
 719 00a0 14       		.byte	0x14
 720 00a1 44000000 		.4byte	0x44
 721 00a5 04       		.uleb128 0x4
 722 00a6 52040000 		.4byte	.LASF15
 723 00aa 04       		.byte	0x4
 724 00ab 1F       		.byte	0x1f
 725 00ac 64000000 		.4byte	0x64
 726 00b0 04       		.uleb128 0x4
 727 00b1 D3050000 		.4byte	.LASF16
 728 00b5 04       		.byte	0x4
 729 00b6 20       		.byte	0x20
 730 00b7 76000000 		.4byte	0x76
 731 00bb 04       		.uleb128 0x4
 732 00bc 1F000000 		.4byte	.LASF17
 733 00c0 04       		.byte	0x4
 734 00c1 26       		.byte	0x26
 735 00c2 88000000 		.4byte	0x88
 736 00c6 05       		.uleb128 0x5
 737 00c7 A5000000 		.4byte	0xa5
 738 00cb 05       		.uleb128 0x5
 739 00cc B0000000 		.4byte	0xb0
 740 00d0 04       		.uleb128 0x4
 741 00d1 9E060000 		.4byte	.LASF18
ARM GAS  /tmp/ccrpCuUt.s 			page 14


 742 00d5 05       		.byte	0x5
 743 00d6 46       		.byte	0x46
 744 00d7 B0000000 		.4byte	0xb0
 745 00db 04       		.uleb128 0x4
 746 00dc 37070000 		.4byte	.LASF19
 747 00e0 05       		.byte	0x5
 748 00e1 49       		.byte	0x49
 749 00e2 9A000000 		.4byte	0x9a
 750 00e6 04       		.uleb128 0x4
 751 00e7 50010000 		.4byte	.LASF20
 752 00eb 05       		.byte	0x5
 753 00ec 4A       		.byte	0x4a
 754 00ed 9A000000 		.4byte	0x9a
 755 00f1 04       		.uleb128 0x4
 756 00f2 09040000 		.4byte	.LASF21
 757 00f6 05       		.byte	0x5
 758 00f7 4B       		.byte	0x4b
 759 00f8 9A000000 		.4byte	0x9a
 760 00fc 04       		.uleb128 0x4
 761 00fd 34040000 		.4byte	.LASF22
 762 0101 05       		.byte	0x5
 763 0102 4D       		.byte	0x4d
 764 0103 B0000000 		.4byte	0xb0
 765 0107 04       		.uleb128 0x4
 766 0108 BD020000 		.4byte	.LASF23
 767 010c 05       		.byte	0x5
 768 010d 4E       		.byte	0x4e
 769 010e A5000000 		.4byte	0xa5
 770 0112 04       		.uleb128 0x4
 771 0113 1B030000 		.4byte	.LASF24
 772 0117 05       		.byte	0x5
 773 0118 50       		.byte	0x50
 774 0119 B0000000 		.4byte	0xb0
 775 011d 04       		.uleb128 0x4
 776 011e 9C030000 		.4byte	.LASF25
 777 0122 05       		.byte	0x5
 778 0123 52       		.byte	0x52
 779 0124 A5000000 		.4byte	0xa5
 780 0128 04       		.uleb128 0x4
 781 0129 3C060000 		.4byte	.LASF26
 782 012d 06       		.byte	0x6
 783 012e 33       		.byte	0x33
 784 012f B0000000 		.4byte	0xb0
 785 0133 04       		.uleb128 0x4
 786 0134 2C060000 		.4byte	.LASF27
 787 0138 06       		.byte	0x6
 788 0139 3F       		.byte	0x3f
 789 013a 3E010000 		.4byte	0x13e
 790 013e 06       		.uleb128 0x6
 791 013f 8B020000 		.4byte	.LASF47
 792 0143 44       		.byte	0x44
 793 0144 07       		.byte	0x7
 794 0145 C2       		.byte	0xc2
 795 0146 2B020000 		.4byte	0x22b
 796 014a 07       		.uleb128 0x7
 797 014b 6C050000 		.4byte	.LASF28
 798 014f 07       		.byte	0x7
ARM GAS  /tmp/ccrpCuUt.s 			page 15


 799 0150 C3       		.byte	0xc3
 800 0151 36020000 		.4byte	0x236
 801 0155 00       		.byte	0
 802 0156 07       		.uleb128 0x7
 803 0157 2D040000 		.4byte	.LASF29
 804 015b 07       		.byte	0x7
 805 015c C5       		.byte	0xc5
 806 015d 36020000 		.4byte	0x236
 807 0161 04       		.byte	0x4
 808 0162 07       		.uleb128 0x7
 809 0163 D7000000 		.4byte	.LASF30
 810 0167 07       		.byte	0x7
 811 0168 C7       		.byte	0xc7
 812 0169 FC000000 		.4byte	0xfc
 813 016d 08       		.byte	0x8
 814 016e 07       		.uleb128 0x7
 815 016f 5F070000 		.4byte	.LASF31
 816 0173 07       		.byte	0x7
 817 0174 C8       		.byte	0xc8
 818 0175 86040000 		.4byte	0x486
 819 0179 0C       		.byte	0xc
 820 017a 07       		.uleb128 0x7
 821 017b 74010000 		.4byte	.LASF32
 822 017f 07       		.byte	0x7
 823 0180 CA       		.byte	0xca
 824 0181 36020000 		.4byte	0x236
 825 0185 10       		.byte	0x10
 826 0186 07       		.uleb128 0x7
 827 0187 C1030000 		.4byte	.LASF33
 828 018b 07       		.byte	0x7
 829 018c CB       		.byte	0xcb
 830 018d 36020000 		.4byte	0x236
 831 0191 14       		.byte	0x14
 832 0192 07       		.uleb128 0x7
 833 0193 21070000 		.4byte	.LASF34
 834 0197 07       		.byte	0x7
 835 0198 D2       		.byte	0xd2
 836 0199 27070000 		.4byte	0x727
 837 019d 18       		.byte	0x18
 838 019e 07       		.uleb128 0x7
 839 019f 7C040000 		.4byte	.LASF35
 840 01a3 07       		.byte	0x7
 841 01a4 DD       		.byte	0xdd
 842 01a5 E6000000 		.4byte	0xe6
 843 01a9 1C       		.byte	0x1c
 844 01aa 07       		.uleb128 0x7
 845 01ab 73050000 		.4byte	.LASF36
 846 01af 07       		.byte	0x7
 847 01b0 E1       		.byte	0xe1
 848 01b1 DB000000 		.4byte	0xdb
 849 01b5 1D       		.byte	0x1d
 850 01b6 07       		.uleb128 0x7
 851 01b7 D4060000 		.4byte	.LASF37
 852 01bb 07       		.byte	0x7
 853 01bc E6       		.byte	0xe6
 854 01bd F1000000 		.4byte	0xf1
 855 01c1 1E       		.byte	0x1e
ARM GAS  /tmp/ccrpCuUt.s 			page 16


 856 01c2 08       		.uleb128 0x8
 857 01c3 705F7500 		.ascii	"p_u\000"
 858 01c7 07       		.byte	0x7
 859 01c8 3101     		.2byte	0x131
 860 01ca 62060000 		.4byte	0x662
 861 01ce 20       		.byte	0x20
 862 01cf 09       		.uleb128 0x9
 863 01d0 49030000 		.4byte	.LASF38
 864 01d4 07       		.byte	0x7
 865 01d5 3601     		.2byte	0x136
 866 01d7 3C020000 		.4byte	0x23c
 867 01db 24       		.byte	0x24
 868 01dc 09       		.uleb128 0x9
 869 01dd 80020000 		.4byte	.LASF39
 870 01e1 07       		.byte	0x7
 871 01e2 3C01     		.2byte	0x13c
 872 01e4 60020000 		.4byte	0x260
 873 01e8 28       		.byte	0x28
 874 01e9 09       		.uleb128 0x9
 875 01ea 4B070000 		.4byte	.LASF40
 876 01ee 07       		.byte	0x7
 877 01ef 4001     		.2byte	0x140
 878 01f1 07010000 		.4byte	0x107
 879 01f5 30       		.byte	0x30
 880 01f6 09       		.uleb128 0x9
 881 01f7 BF050000 		.4byte	.LASF41
 882 01fb 07       		.byte	0x7
 883 01fc 4601     		.2byte	0x146
 884 01fe 12010000 		.4byte	0x112
 885 0202 34       		.byte	0x34
 886 0203 09       		.uleb128 0x9
 887 0204 68040000 		.4byte	.LASF42
 888 0208 07       		.byte	0x7
 889 0209 4D01     		.2byte	0x14d
 890 020b 21070000 		.4byte	0x721
 891 020f 38       		.byte	0x38
 892 0210 09       		.uleb128 0x9
 893 0211 46060000 		.4byte	.LASF43
 894 0215 07       		.byte	0x7
 895 0216 5101     		.2byte	0x151
 896 0218 FC000000 		.4byte	0xfc
 897 021c 3C       		.byte	0x3c
 898 021d 09       		.uleb128 0x9
 899 021e B5020000 		.4byte	.LASF44
 900 0222 07       		.byte	0x7
 901 0223 5801     		.2byte	0x158
 902 0225 13030000 		.4byte	0x313
 903 0229 40       		.byte	0x40
 904 022a 00       		.byte	0
 905 022b 04       		.uleb128 0x4
 906 022c 5C030000 		.4byte	.LASF45
 907 0230 06       		.byte	0x6
 908 0231 44       		.byte	0x44
 909 0232 36020000 		.4byte	0x236
 910 0236 0A       		.uleb128 0xa
 911 0237 04       		.byte	0x4
 912 0238 33010000 		.4byte	0x133
ARM GAS  /tmp/ccrpCuUt.s 			page 17


 913 023c 04       		.uleb128 0x4
 914 023d 28070000 		.4byte	.LASF46
 915 0241 06       		.byte	0x6
 916 0242 49       		.byte	0x49
 917 0243 47020000 		.4byte	0x247
 918 0247 06       		.uleb128 0x6
 919 0248 F4050000 		.4byte	.LASF48
 920 024c 04       		.byte	0x4
 921 024d 07       		.byte	0x7
 922 024e B0       		.byte	0xb0
 923 024f 60020000 		.4byte	0x260
 924 0253 07       		.uleb128 0x7
 925 0254 6C050000 		.4byte	.LASF28
 926 0258 07       		.byte	0x7
 927 0259 B1       		.byte	0xb1
 928 025a 36020000 		.4byte	0x236
 929 025e 00       		.byte	0
 930 025f 00       		.byte	0
 931 0260 04       		.uleb128 0x4
 932 0261 BB060000 		.4byte	.LASF49
 933 0265 06       		.byte	0x6
 934 0266 50       		.byte	0x50
 935 0267 6B020000 		.4byte	0x26b
 936 026b 06       		.uleb128 0x6
 937 026c 3E000000 		.4byte	.LASF50
 938 0270 08       		.byte	0x8
 939 0271 07       		.byte	0x7
 940 0272 B7       		.byte	0xb7
 941 0273 90020000 		.4byte	0x290
 942 0277 07       		.uleb128 0x7
 943 0278 6C050000 		.4byte	.LASF28
 944 027c 07       		.byte	0x7
 945 027d B8       		.byte	0xb8
 946 027e 36020000 		.4byte	0x236
 947 0282 00       		.byte	0
 948 0283 07       		.uleb128 0x7
 949 0284 2D040000 		.4byte	.LASF29
 950 0288 07       		.byte	0x7
 951 0289 B9       		.byte	0xb9
 952 028a 36020000 		.4byte	0x236
 953 028e 04       		.byte	0x4
 954 028f 00       		.byte	0
 955 0290 04       		.uleb128 0x4
 956 0291 00000000 		.4byte	.LASF51
 957 0295 06       		.byte	0x6
 958 0296 57       		.byte	0x57
 959 0297 9B020000 		.4byte	0x29b
 960 029b 0B       		.uleb128 0xb
 961 029c 0D030000 		.4byte	.LASF52
 962 02a0 1C       		.byte	0x1c
 963 02a1 07       		.byte	0x7
 964 02a2 9001     		.2byte	0x190
 965 02a4 F7020000 		.4byte	0x2f7
 966 02a8 09       		.uleb128 0x9
 967 02a9 E3050000 		.4byte	.LASF53
 968 02ad 07       		.byte	0x7
 969 02ae 9101     		.2byte	0x191
ARM GAS  /tmp/ccrpCuUt.s 			page 18


 970 02b0 60020000 		.4byte	0x260
 971 02b4 00       		.byte	0
 972 02b5 09       		.uleb128 0x9
 973 02b6 84040000 		.4byte	.LASF54
 974 02ba 07       		.byte	0x7
 975 02bb 9201     		.2byte	0x192
 976 02bd FC000000 		.4byte	0xfc
 977 02c1 08       		.byte	0x8
 978 02c2 09       		.uleb128 0x9
 979 02c3 C9030000 		.4byte	.LASF55
 980 02c7 07       		.byte	0x7
 981 02c8 9401     		.2byte	0x194
 982 02ca 86040000 		.4byte	0x486
 983 02ce 0C       		.byte	0xc
 984 02cf 09       		.uleb128 0x9
 985 02d0 C2010000 		.4byte	.LASF56
 986 02d4 07       		.byte	0x7
 987 02d5 9701     		.2byte	0x197
 988 02d7 36020000 		.4byte	0x236
 989 02db 10       		.byte	0x10
 990 02dc 09       		.uleb128 0x9
 991 02dd 96060000 		.4byte	.LASF57
 992 02e1 07       		.byte	0x7
 993 02e2 9801     		.2byte	0x198
 994 02e4 36020000 		.4byte	0x236
 995 02e8 14       		.byte	0x14
 996 02e9 09       		.uleb128 0x9
 997 02ea E0030000 		.4byte	.LASF58
 998 02ee 07       		.byte	0x7
 999 02ef 9B01     		.2byte	0x19b
 1000 02f1 36020000 		.4byte	0x236
 1001 02f5 18       		.byte	0x18
 1002 02f6 00       		.byte	0
 1003 02f7 04       		.uleb128 0x4
 1004 02f8 51060000 		.4byte	.LASF59
 1005 02fc 06       		.byte	0x6
 1006 02fd 5C       		.byte	0x5c
 1007 02fe 02030000 		.4byte	0x302
 1008 0302 0A       		.uleb128 0xa
 1009 0303 04       		.byte	0x4
 1010 0304 08030000 		.4byte	0x308
 1011 0308 0C       		.uleb128 0xc
 1012 0309 13030000 		.4byte	0x313
 1013 030d 0D       		.uleb128 0xd
 1014 030e 13030000 		.4byte	0x313
 1015 0312 00       		.byte	0
 1016 0313 0E       		.uleb128 0xe
 1017 0314 04       		.byte	0x4
 1018 0315 04       		.uleb128 0x4
 1019 0316 1D040000 		.4byte	.LASF60
 1020 031a 06       		.byte	0x6
 1021 031b 61       		.byte	0x61
 1022 031c 20030000 		.4byte	0x320
 1023 0320 0B       		.uleb128 0xb
 1024 0321 9C050000 		.4byte	.LASF61
 1025 0325 14       		.byte	0x14
 1026 0326 07       		.byte	0x7
ARM GAS  /tmp/ccrpCuUt.s 			page 19


 1027 0327 6B01     		.2byte	0x16b
 1028 0329 6F030000 		.4byte	0x36f
 1029 032d 09       		.uleb128 0x9
 1030 032e 26020000 		.4byte	.LASF62
 1031 0332 07       		.byte	0x7
 1032 0333 6C01     		.2byte	0x16c
 1033 0335 39070000 		.4byte	0x739
 1034 0339 00       		.byte	0
 1035 033a 09       		.uleb128 0x9
 1036 033b DD010000 		.4byte	.LASF63
 1037 033f 07       		.byte	0x7
 1038 0340 6D01     		.2byte	0x16d
 1039 0342 39070000 		.4byte	0x739
 1040 0346 04       		.byte	0x4
 1041 0347 09       		.uleb128 0x9
 1042 0348 EB050000 		.4byte	.LASF64
 1043 034c 07       		.byte	0x7
 1044 034d 6E01     		.2byte	0x16e
 1045 034f 28010000 		.4byte	0x128
 1046 0353 08       		.byte	0x8
 1047 0354 09       		.uleb128 0x9
 1048 0355 65070000 		.4byte	.LASF65
 1049 0359 07       		.byte	0x7
 1050 035a 6F01     		.2byte	0x16f
 1051 035c F7020000 		.4byte	0x2f7
 1052 0360 0C       		.byte	0xc
 1053 0361 09       		.uleb128 0x9
 1054 0362 B4060000 		.4byte	.LASF66
 1055 0366 07       		.byte	0x7
 1056 0367 7101     		.2byte	0x171
 1057 0369 13030000 		.4byte	0x313
 1058 036d 10       		.byte	0x10
 1059 036e 00       		.byte	0
 1060 036f 04       		.uleb128 0x4
 1061 0370 A5000000 		.4byte	.LASF67
 1062 0374 06       		.byte	0x6
 1063 0375 66       		.byte	0x66
 1064 0376 7A030000 		.4byte	0x37a
 1065 037a 0B       		.uleb128 0xb
 1066 037b 6F030000 		.4byte	.LASF68
 1067 037f 10       		.byte	0x10
 1068 0380 07       		.byte	0x7
 1069 0381 7B01     		.2byte	0x17b
 1070 0383 BC030000 		.4byte	0x3bc
 1071 0387 09       		.uleb128 0x9
 1072 0388 26020000 		.4byte	.LASF62
 1073 038c 07       		.byte	0x7
 1074 038d 7C01     		.2byte	0x17c
 1075 038f 39070000 		.4byte	0x739
 1076 0393 00       		.byte	0
 1077 0394 09       		.uleb128 0x9
 1078 0395 DD010000 		.4byte	.LASF63
 1079 0399 07       		.byte	0x7
 1080 039a 7E01     		.2byte	0x17e
 1081 039c 39070000 		.4byte	0x739
 1082 03a0 04       		.byte	0x4
 1083 03a1 09       		.uleb128 0x9
ARM GAS  /tmp/ccrpCuUt.s 			page 20


 1084 03a2 EB050000 		.4byte	.LASF64
 1085 03a6 07       		.byte	0x7
 1086 03a7 8001     		.2byte	0x180
 1087 03a9 28010000 		.4byte	0x128
 1088 03ad 08       		.byte	0x8
 1089 03ae 09       		.uleb128 0x9
 1090 03af B5030000 		.4byte	.LASF69
 1091 03b3 07       		.byte	0x7
 1092 03b4 8801     		.2byte	0x188
 1093 03b6 28010000 		.4byte	0x128
 1094 03ba 0C       		.byte	0xc
 1095 03bb 00       		.byte	0
 1096 03bc 04       		.uleb128 0x4
 1097 03bd 4F000000 		.4byte	.LASF70
 1098 03c1 06       		.byte	0x6
 1099 03c2 6B       		.byte	0x6b
 1100 03c3 C7030000 		.4byte	0x3c7
 1101 03c7 0B       		.uleb128 0xb
 1102 03c8 3C040000 		.4byte	.LASF71
 1103 03cc 04       		.byte	0x4
 1104 03cd 07       		.byte	0x7
 1105 03ce A201     		.2byte	0x1a2
 1106 03d0 E2030000 		.4byte	0x3e2
 1107 03d4 09       		.uleb128 0x9
 1108 03d5 73060000 		.4byte	.LASF72
 1109 03d9 07       		.byte	0x7
 1110 03da AA01     		.2byte	0x1aa
 1111 03dc 3F070000 		.4byte	0x73f
 1112 03e0 00       		.byte	0
 1113 03e1 00       		.byte	0
 1114 03e2 04       		.uleb128 0x4
 1115 03e3 CC020000 		.4byte	.LASF73
 1116 03e7 06       		.byte	0x6
 1117 03e8 70       		.byte	0x70
 1118 03e9 ED030000 		.4byte	0x3ed
 1119 03ed 0F       		.uleb128 0xf
 1120 03ee 2C010000 		.4byte	.LASF74
 1121 03f2 5001     		.2byte	0x150
 1122 03f4 07       		.byte	0x7
 1123 03f5 C201     		.2byte	0x1c2
 1124 03f7 49040000 		.4byte	0x449
 1125 03fb 09       		.uleb128 0x9
 1126 03fc FD060000 		.4byte	.LASF75
 1127 0400 07       		.byte	0x7
 1128 0401 C601     		.2byte	0x1c6
 1129 0403 90020000 		.4byte	0x290
 1130 0407 00       		.byte	0
 1131 0408 09       		.uleb128 0x9
 1132 0409 13010000 		.4byte	.LASF76
 1133 040d 07       		.byte	0x7
 1134 040e CA01     		.2byte	0x1ca
 1135 0410 6F030000 		.4byte	0x36f
 1136 0414 1C       		.byte	0x1c
 1137 0415 08       		.uleb128 0x8
 1138 0416 64626700 		.ascii	"dbg\000"
 1139 041a 07       		.byte	0x7
 1140 041b CE01     		.2byte	0x1ce
ARM GAS  /tmp/ccrpCuUt.s 			page 21


 1141 041d BC030000 		.4byte	0x3bc
 1142 0421 2C       		.byte	0x2c
 1143 0422 09       		.uleb128 0x9
 1144 0423 9A000000 		.4byte	.LASF77
 1145 0427 07       		.byte	0x7
 1146 0428 D201     		.2byte	0x1d2
 1147 042a 33010000 		.4byte	0x133
 1148 042e 30       		.byte	0x30
 1149 042f 08       		.uleb128 0x8
 1150 0430 746D00   		.ascii	"tm\000"
 1151 0433 07       		.byte	0x7
 1152 0434 D701     		.2byte	0x1d7
 1153 0436 57060000 		.4byte	0x657
 1154 043a 74       		.byte	0x74
 1155 043b 09       		.uleb128 0x9
 1156 043c FF010000 		.4byte	.LASF78
 1157 0440 07       		.byte	0x7
 1158 0441 E301     		.2byte	0x1e3
 1159 0443 44070000 		.4byte	0x744
 1160 0447 78       		.byte	0x78
 1161 0448 00       		.byte	0
 1162 0449 03       		.uleb128 0x3
 1163 044a 04       		.byte	0x4
 1164 044b 07       		.byte	0x7
 1165 044c 53030000 		.4byte	.LASF79
 1166 0450 10       		.uleb128 0x10
 1167 0451 CB000000 		.4byte	0xcb
 1168 0455 60040000 		.4byte	0x460
 1169 0459 11       		.uleb128 0x11
 1170 045a 49040000 		.4byte	0x449
 1171 045e 01       		.byte	0x1
 1172 045f 00       		.byte	0
 1173 0460 10       		.uleb128 0x10
 1174 0461 CB000000 		.4byte	0xcb
 1175 0465 70040000 		.4byte	0x470
 1176 0469 11       		.uleb128 0x11
 1177 046a 49040000 		.4byte	0x449
 1178 046e 03       		.byte	0x3
 1179 046f 00       		.byte	0
 1180 0470 04       		.uleb128 0x4
 1181 0471 D4010000 		.4byte	.LASF80
 1182 0475 08       		.byte	0x8
 1183 0476 65       		.byte	0x65
 1184 0477 13030000 		.4byte	0x313
 1185 047b 04       		.uleb128 0x4
 1186 047c 31030000 		.4byte	.LASF81
 1187 0480 08       		.byte	0x8
 1188 0481 6D       		.byte	0x6d
 1189 0482 BB000000 		.4byte	0xbb
 1190 0486 06       		.uleb128 0x6
 1191 0487 8E060000 		.4byte	.LASF82
 1192 048b 04       		.byte	0x4
 1193 048c 08       		.byte	0x8
 1194 048d 89       		.byte	0x89
 1195 048e 9F040000 		.4byte	0x49f
 1196 0492 12       		.uleb128 0x12
 1197 0493 72313300 		.ascii	"r13\000"
ARM GAS  /tmp/ccrpCuUt.s 			page 22


 1198 0497 08       		.byte	0x8
 1199 0498 8A       		.byte	0x8a
 1200 0499 1A050000 		.4byte	0x51a
 1201 049d 00       		.byte	0
 1202 049e 00       		.byte	0
 1203 049f 06       		.uleb128 0x6
 1204 04a0 11040000 		.4byte	.LASF83
 1205 04a4 24       		.byte	0x24
 1206 04a5 09       		.byte	0x9
 1207 04a6 F4       		.byte	0xf4
 1208 04a7 1A050000 		.4byte	0x51a
 1209 04ab 08       		.uleb128 0x8
 1210 04ac 723400   		.ascii	"r4\000"
 1211 04af 09       		.byte	0x9
 1212 04b0 0701     		.2byte	0x107
 1213 04b2 70040000 		.4byte	0x470
 1214 04b6 00       		.byte	0
 1215 04b7 08       		.uleb128 0x8
 1216 04b8 723500   		.ascii	"r5\000"
 1217 04bb 09       		.byte	0x9
 1218 04bc 0801     		.2byte	0x108
 1219 04be 70040000 		.4byte	0x470
 1220 04c2 04       		.byte	0x4
 1221 04c3 08       		.uleb128 0x8
 1222 04c4 723600   		.ascii	"r6\000"
 1223 04c7 09       		.byte	0x9
 1224 04c8 0901     		.2byte	0x109
 1225 04ca 70040000 		.4byte	0x470
 1226 04ce 08       		.byte	0x8
 1227 04cf 08       		.uleb128 0x8
 1228 04d0 723700   		.ascii	"r7\000"
 1229 04d3 09       		.byte	0x9
 1230 04d4 0A01     		.2byte	0x10a
 1231 04d6 70040000 		.4byte	0x470
 1232 04da 0C       		.byte	0xc
 1233 04db 08       		.uleb128 0x8
 1234 04dc 723800   		.ascii	"r8\000"
 1235 04df 09       		.byte	0x9
 1236 04e0 0B01     		.2byte	0x10b
 1237 04e2 70040000 		.4byte	0x470
 1238 04e6 10       		.byte	0x10
 1239 04e7 08       		.uleb128 0x8
 1240 04e8 723900   		.ascii	"r9\000"
 1241 04eb 09       		.byte	0x9
 1242 04ec 0C01     		.2byte	0x10c
 1243 04ee 70040000 		.4byte	0x470
 1244 04f2 14       		.byte	0x14
 1245 04f3 08       		.uleb128 0x8
 1246 04f4 72313000 		.ascii	"r10\000"
 1247 04f8 09       		.byte	0x9
 1248 04f9 0D01     		.2byte	0x10d
 1249 04fb 70040000 		.4byte	0x470
 1250 04ff 18       		.byte	0x18
 1251 0500 08       		.uleb128 0x8
 1252 0501 72313100 		.ascii	"r11\000"
 1253 0505 09       		.byte	0x9
 1254 0506 0E01     		.2byte	0x10e
ARM GAS  /tmp/ccrpCuUt.s 			page 23


 1255 0508 70040000 		.4byte	0x470
 1256 050c 1C       		.byte	0x1c
 1257 050d 08       		.uleb128 0x8
 1258 050e 6C7200   		.ascii	"lr\000"
 1259 0511 09       		.byte	0x9
 1260 0512 0F01     		.2byte	0x10f
 1261 0514 70040000 		.4byte	0x470
 1262 0518 20       		.byte	0x20
 1263 0519 00       		.byte	0
 1264 051a 0A       		.uleb128 0xa
 1265 051b 04       		.byte	0x4
 1266 051c 9F040000 		.4byte	0x49f
 1267 0520 13       		.uleb128 0x13
 1268 0521 60       		.byte	0x60
 1269 0522 0A       		.byte	0xa
 1270 0523 9E01     		.2byte	0x19e
 1271 0525 2C060000 		.4byte	0x62c
 1272 0529 08       		.uleb128 0x8
 1273 052a 43523100 		.ascii	"CR1\000"
 1274 052e 0A       		.byte	0xa
 1275 052f 9F01     		.2byte	0x19f
 1276 0531 CB000000 		.4byte	0xcb
 1277 0535 00       		.byte	0
 1278 0536 08       		.uleb128 0x8
 1279 0537 43523200 		.ascii	"CR2\000"
 1280 053b 0A       		.byte	0xa
 1281 053c A001     		.2byte	0x1a0
 1282 053e CB000000 		.4byte	0xcb
 1283 0542 04       		.byte	0x4
 1284 0543 09       		.uleb128 0x9
 1285 0544 1B060000 		.4byte	.LASF84
 1286 0548 0A       		.byte	0xa
 1287 0549 A101     		.2byte	0x1a1
 1288 054b CB000000 		.4byte	0xcb
 1289 054f 08       		.byte	0x8
 1290 0550 09       		.uleb128 0x9
 1291 0551 0D000000 		.4byte	.LASF85
 1292 0555 0A       		.byte	0xa
 1293 0556 A201     		.2byte	0x1a2
 1294 0558 CB000000 		.4byte	0xcb
 1295 055c 0C       		.byte	0xc
 1296 055d 08       		.uleb128 0x8
 1297 055e 535200   		.ascii	"SR\000"
 1298 0561 0A       		.byte	0xa
 1299 0562 A301     		.2byte	0x1a3
 1300 0564 CB000000 		.4byte	0xcb
 1301 0568 10       		.byte	0x10
 1302 0569 08       		.uleb128 0x8
 1303 056a 45475200 		.ascii	"EGR\000"
 1304 056e 0A       		.byte	0xa
 1305 056f A401     		.2byte	0x1a4
 1306 0571 CB000000 		.4byte	0xcb
 1307 0575 14       		.byte	0x14
 1308 0576 09       		.uleb128 0x9
 1309 0577 DE000000 		.4byte	.LASF86
 1310 057b 0A       		.byte	0xa
 1311 057c A501     		.2byte	0x1a5
ARM GAS  /tmp/ccrpCuUt.s 			page 24


 1312 057e CB000000 		.4byte	0xcb
 1313 0582 18       		.byte	0x18
 1314 0583 09       		.uleb128 0x9
 1315 0584 E4000000 		.4byte	.LASF87
 1316 0588 0A       		.byte	0xa
 1317 0589 A601     		.2byte	0x1a6
 1318 058b CB000000 		.4byte	0xcb
 1319 058f 1C       		.byte	0x1c
 1320 0590 09       		.uleb128 0x9
 1321 0591 61010000 		.4byte	.LASF88
 1322 0595 0A       		.byte	0xa
 1323 0596 A701     		.2byte	0x1a7
 1324 0598 CB000000 		.4byte	0xcb
 1325 059c 20       		.byte	0x20
 1326 059d 08       		.uleb128 0x8
 1327 059e 434E5400 		.ascii	"CNT\000"
 1328 05a2 0A       		.byte	0xa
 1329 05a3 A801     		.2byte	0x1a8
 1330 05a5 CB000000 		.4byte	0xcb
 1331 05a9 24       		.byte	0x24
 1332 05aa 08       		.uleb128 0x8
 1333 05ab 50534300 		.ascii	"PSC\000"
 1334 05af 0A       		.byte	0xa
 1335 05b0 A901     		.2byte	0x1a9
 1336 05b2 CB000000 		.4byte	0xcb
 1337 05b6 28       		.byte	0x28
 1338 05b7 08       		.uleb128 0x8
 1339 05b8 41525200 		.ascii	"ARR\000"
 1340 05bc 0A       		.byte	0xa
 1341 05bd AA01     		.2byte	0x1aa
 1342 05bf CB000000 		.4byte	0xcb
 1343 05c3 2C       		.byte	0x2c
 1344 05c4 08       		.uleb128 0x8
 1345 05c5 52435200 		.ascii	"RCR\000"
 1346 05c9 0A       		.byte	0xa
 1347 05ca AB01     		.2byte	0x1ab
 1348 05cc CB000000 		.4byte	0xcb
 1349 05d0 30       		.byte	0x30
 1350 05d1 08       		.uleb128 0x8
 1351 05d2 43435200 		.ascii	"CCR\000"
 1352 05d6 0A       		.byte	0xa
 1353 05d7 AC01     		.2byte	0x1ac
 1354 05d9 2C060000 		.4byte	0x62c
 1355 05dd 34       		.byte	0x34
 1356 05de 09       		.uleb128 0x9
 1357 05df C8000000 		.4byte	.LASF89
 1358 05e3 0A       		.byte	0xa
 1359 05e4 AD01     		.2byte	0x1ad
 1360 05e6 CB000000 		.4byte	0xcb
 1361 05ea 44       		.byte	0x44
 1362 05eb 08       		.uleb128 0x8
 1363 05ec 44435200 		.ascii	"DCR\000"
 1364 05f0 0A       		.byte	0xa
 1365 05f1 AE01     		.2byte	0x1ae
 1366 05f3 CB000000 		.4byte	0xcb
 1367 05f7 48       		.byte	0x48
 1368 05f8 09       		.uleb128 0x9
ARM GAS  /tmp/ccrpCuUt.s 			page 25


 1369 05f9 27060000 		.4byte	.LASF90
 1370 05fd 0A       		.byte	0xa
 1371 05fe AF01     		.2byte	0x1af
 1372 0600 CB000000 		.4byte	0xcb
 1373 0604 4C       		.byte	0x4c
 1374 0605 08       		.uleb128 0x8
 1375 0606 4F5200   		.ascii	"OR\000"
 1376 0609 0A       		.byte	0xa
 1377 060a B001     		.2byte	0x1b0
 1378 060c CB000000 		.4byte	0xcb
 1379 0610 50       		.byte	0x50
 1380 0611 09       		.uleb128 0x9
 1381 0612 EA000000 		.4byte	.LASF91
 1382 0616 0A       		.byte	0xa
 1383 0617 B101     		.2byte	0x1b1
 1384 0619 CB000000 		.4byte	0xcb
 1385 061d 54       		.byte	0x54
 1386 061e 09       		.uleb128 0x9
 1387 061f BA050000 		.4byte	.LASF92
 1388 0623 0A       		.byte	0xa
 1389 0624 B201     		.2byte	0x1b2
 1390 0626 31060000 		.4byte	0x631
 1391 062a 58       		.byte	0x58
 1392 062b 00       		.byte	0
 1393 062c 05       		.uleb128 0x5
 1394 062d 60040000 		.4byte	0x460
 1395 0631 05       		.uleb128 0x5
 1396 0632 50040000 		.4byte	0x450
 1397 0636 14       		.uleb128 0x14
 1398 0637 EE020000 		.4byte	.LASF93
 1399 063b 0A       		.byte	0xa
 1400 063c B301     		.2byte	0x1b3
 1401 063e 20050000 		.4byte	0x520
 1402 0642 15       		.uleb128 0x15
 1403 0643 04       		.byte	0x4
 1404 0644 0B       		.byte	0xb
 1405 0645 38       		.byte	0x38
 1406 0646 57060000 		.4byte	0x657
 1407 064a 07       		.uleb128 0x7
 1408 064b 7D060000 		.4byte	.LASF94
 1409 064f 0B       		.byte	0xb
 1410 0650 3C       		.byte	0x3c
 1411 0651 D0000000 		.4byte	0xd0
 1412 0655 00       		.byte	0
 1413 0656 00       		.byte	0
 1414 0657 04       		.uleb128 0x4
 1415 0658 CF030000 		.4byte	.LASF95
 1416 065c 0B       		.byte	0xb
 1417 065d 3D       		.byte	0x3d
 1418 065e 42060000 		.4byte	0x642
 1419 0662 16       		.uleb128 0x16
 1420 0663 04       		.byte	0x4
 1421 0664 07       		.byte	0x7
 1422 0665 FA       		.byte	0xfa
 1423 0666 BF060000 		.4byte	0x6bf
 1424 066a 17       		.uleb128 0x17
 1425 066b 18000000 		.4byte	.LASF96
ARM GAS  /tmp/ccrpCuUt.s 			page 26


 1426 066f 07       		.byte	0x7
 1427 0670 0101     		.2byte	0x101
 1428 0672 07010000 		.4byte	0x107
 1429 0676 17       		.uleb128 0x17
 1430 0677 91000000 		.4byte	.LASF97
 1431 067b 07       		.byte	0x7
 1432 067c 0801     		.2byte	0x108
 1433 067e 07010000 		.4byte	0x107
 1434 0682 17       		.uleb128 0x17
 1435 0683 1A070000 		.4byte	.LASF98
 1436 0687 07       		.byte	0x7
 1437 0688 0F01     		.2byte	0x10f
 1438 068a 13030000 		.4byte	0x313
 1439 068e 17       		.uleb128 0x17
 1440 068f 12000000 		.4byte	.LASF99
 1441 0693 07       		.byte	0x7
 1442 0694 1601     		.2byte	0x116
 1443 0696 BF060000 		.4byte	0x6bf
 1444 069a 17       		.uleb128 0x17
 1445 069b 3C020000 		.4byte	.LASF100
 1446 069f 07       		.byte	0x7
 1447 06a0 1E01     		.2byte	0x11e
 1448 06a2 EA060000 		.4byte	0x6ea
 1449 06a6 17       		.uleb128 0x17
 1450 06a7 DC050000 		.4byte	.LASF101
 1451 06ab 07       		.byte	0x7
 1452 06ac 2701     		.2byte	0x127
 1453 06ae 21070000 		.4byte	0x721
 1454 06b2 17       		.uleb128 0x17
 1455 06b3 65050000 		.4byte	.LASF102
 1456 06b7 07       		.byte	0x7
 1457 06b8 2F01     		.2byte	0x12f
 1458 06ba 12010000 		.4byte	0x112
 1459 06be 00       		.byte	0
 1460 06bf 0A       		.uleb128 0xa
 1461 06c0 04       		.byte	0x4
 1462 06c1 2B020000 		.4byte	0x22b
 1463 06c5 06       		.uleb128 0x6
 1464 06c6 AD050000 		.4byte	.LASF103
 1465 06ca 0C       		.byte	0xc
 1466 06cb 0C       		.byte	0xc
 1467 06cc 34       		.byte	0x34
 1468 06cd EA060000 		.4byte	0x6ea
 1469 06d1 07       		.uleb128 0x7
 1470 06d2 7C010000 		.4byte	.LASF104
 1471 06d6 0C       		.byte	0xc
 1472 06d7 35       		.byte	0x35
 1473 06d8 60020000 		.4byte	0x260
 1474 06dc 00       		.byte	0
 1475 06dd 07       		.uleb128 0x7
 1476 06de 9A020000 		.4byte	.LASF105
 1477 06e2 0C       		.byte	0xc
 1478 06e3 37       		.byte	0x37
 1479 06e4 1D010000 		.4byte	0x11d
 1480 06e8 08       		.byte	0x8
 1481 06e9 00       		.byte	0
 1482 06ea 0A       		.uleb128 0xa
ARM GAS  /tmp/ccrpCuUt.s 			page 27


 1483 06eb 04       		.byte	0x4
 1484 06ec C5060000 		.4byte	0x6c5
 1485 06f0 06       		.uleb128 0x6
 1486 06f1 CB060000 		.4byte	.LASF106
 1487 06f5 10       		.byte	0x10
 1488 06f6 0D       		.byte	0xd
 1489 06f7 39       		.byte	0x39
 1490 06f8 21070000 		.4byte	0x721
 1491 06fc 07       		.uleb128 0x7
 1492 06fd FC000000 		.4byte	.LASF107
 1493 0701 0D       		.byte	0xd
 1494 0702 3A       		.byte	0x3a
 1495 0703 60020000 		.4byte	0x260
 1496 0707 00       		.byte	0
 1497 0708 07       		.uleb128 0x7
 1498 0709 57070000 		.4byte	.LASF108
 1499 070d 0D       		.byte	0xd
 1500 070e 3C       		.byte	0x3c
 1501 070f 36020000 		.4byte	0x236
 1502 0713 08       		.byte	0x8
 1503 0714 07       		.uleb128 0x7
 1504 0715 35060000 		.4byte	.LASF109
 1505 0719 0D       		.byte	0xd
 1506 071a 3E       		.byte	0x3e
 1507 071b 5F070000 		.4byte	0x75f
 1508 071f 0C       		.byte	0xc
 1509 0720 00       		.byte	0
 1510 0721 0A       		.uleb128 0xa
 1511 0722 04       		.byte	0x4
 1512 0723 F0060000 		.4byte	0x6f0
 1513 0727 0A       		.uleb128 0xa
 1514 0728 04       		.byte	0x4
 1515 0729 34070000 		.4byte	0x734
 1516 072d 03       		.uleb128 0x3
 1517 072e 01       		.byte	0x1
 1518 072f 08       		.byte	0x8
 1519 0730 16060000 		.4byte	.LASF110
 1520 0734 18       		.uleb128 0x18
 1521 0735 2D070000 		.4byte	0x72d
 1522 0739 0A       		.uleb128 0xa
 1523 073a 04       		.byte	0x4
 1524 073b 15030000 		.4byte	0x315
 1525 073f 05       		.uleb128 0x5
 1526 0740 27070000 		.4byte	0x727
 1527 0744 10       		.uleb128 0x10
 1528 0745 7B040000 		.4byte	0x47b
 1529 0749 54070000 		.4byte	0x754
 1530 074d 11       		.uleb128 0x11
 1531 074e 49040000 		.4byte	0x449
 1532 0752 1A       		.byte	0x1a
 1533 0753 00       		.byte	0
 1534 0754 04       		.uleb128 0x4
 1535 0755 F1010000 		.4byte	.LASF111
 1536 0759 0D       		.byte	0xd
 1537 075a 34       		.byte	0x34
 1538 075b F0060000 		.4byte	0x6f0
 1539 075f 0A       		.uleb128 0xa
ARM GAS  /tmp/ccrpCuUt.s 			page 28


 1540 0760 04       		.byte	0x4
 1541 0761 54070000 		.4byte	0x754
 1542 0765 03       		.uleb128 0x3
 1543 0766 01       		.byte	0x1
 1544 0767 02       		.byte	0x2
 1545 0768 4C040000 		.4byte	.LASF112
 1546 076c 19       		.uleb128 0x19
 1547 076d 01       		.byte	0x1
 1548 076e 4F000000 		.4byte	0x4f
 1549 0772 0E       		.byte	0xe
 1550 0773 31       		.byte	0x31
 1551 0774 97070000 		.4byte	0x797
 1552 0778 1A       		.uleb128 0x1a
 1553 0779 A0020000 		.4byte	.LASF113
 1554 077d 00       		.byte	0
 1555 077e 1A       		.uleb128 0x1a
 1556 077f CA050000 		.4byte	.LASF114
 1557 0783 01       		.byte	0x1
 1558 0784 1A       		.uleb128 0x1a
 1559 0785 92030000 		.4byte	.LASF115
 1560 0789 02       		.byte	0x2
 1561 078a 1A       		.uleb128 0x1a
 1562 078b 04010000 		.4byte	.LASF116
 1563 078f 03       		.byte	0x3
 1564 0790 1A       		.uleb128 0x1a
 1565 0791 32000000 		.4byte	.LASF117
 1566 0795 04       		.byte	0x4
 1567 0796 00       		.byte	0
 1568 0797 04       		.uleb128 0x4
 1569 0798 0E020000 		.4byte	.LASF118
 1570 079c 0E       		.byte	0xe
 1571 079d 37       		.byte	0x37
 1572 079e 6C070000 		.4byte	0x76c
 1573 07a2 04       		.uleb128 0x4
 1574 07a3 CA010000 		.4byte	.LASF119
 1575 07a7 0E       		.byte	0xe
 1576 07a8 3C       		.byte	0x3c
 1577 07a9 AD070000 		.4byte	0x7ad
 1578 07ad 0B       		.uleb128 0xb
 1579 07ae CA010000 		.4byte	.LASF119
 1580 07b2 10       		.byte	0x10
 1581 07b3 0F       		.byte	0xf
 1582 07b4 9701     		.2byte	0x197
 1583 07b6 EF070000 		.4byte	0x7ef
 1584 07ba 09       		.uleb128 0x9
 1585 07bb 26010000 		.4byte	.LASF120
 1586 07bf 0F       		.byte	0xf
 1587 07c0 9B01     		.2byte	0x19b
 1588 07c2 97070000 		.4byte	0x797
 1589 07c6 00       		.byte	0
 1590 07c7 09       		.uleb128 0x9
 1591 07c8 20060000 		.4byte	.LASF121
 1592 07cc 0F       		.byte	0xf
 1593 07cd 9F01     		.2byte	0x19f
 1594 07cf 73080000 		.4byte	0x873
 1595 07d3 04       		.byte	0x4
 1596 07d4 09       		.uleb128 0x9
ARM GAS  /tmp/ccrpCuUt.s 			page 29


 1597 07d5 51070000 		.4byte	.LASF122
 1598 07d9 0F       		.byte	0xf
 1599 07da A701     		.2byte	0x1a7
 1600 07dc B0000000 		.4byte	0xb0
 1601 07e0 08       		.byte	0x8
 1602 07e1 08       		.uleb128 0x8
 1603 07e2 74696D00 		.ascii	"tim\000"
 1604 07e6 0F       		.byte	0xf
 1605 07e7 AB01     		.2byte	0x1ab
 1606 07e9 7E080000 		.4byte	0x87e
 1607 07ed 0C       		.byte	0xc
 1608 07ee 00       		.byte	0
 1609 07ef 04       		.uleb128 0x4
 1610 07f0 84010000 		.4byte	.LASF123
 1611 07f4 0E       		.byte	0xe
 1612 07f5 43       		.byte	0x43
 1613 07f6 FA070000 		.4byte	0x7fa
 1614 07fa 0A       		.uleb128 0xa
 1615 07fb 04       		.byte	0x4
 1616 07fc 00080000 		.4byte	0x800
 1617 0800 0C       		.uleb128 0xc
 1618 0801 0B080000 		.4byte	0x80b
 1619 0805 0D       		.uleb128 0xd
 1620 0806 0B080000 		.4byte	0x80b
 1621 080a 00       		.byte	0
 1622 080b 0A       		.uleb128 0xa
 1623 080c 04       		.byte	0x4
 1624 080d A2070000 		.4byte	0x7a2
 1625 0811 14       		.uleb128 0x14
 1626 0812 AB020000 		.4byte	.LASF124
 1627 0816 0F       		.byte	0xf
 1628 0817 6D01     		.2byte	0x16d
 1629 0819 B0000000 		.4byte	0xb0
 1630 081d 14       		.uleb128 0x14
 1631 081e 3F010000 		.4byte	.LASF125
 1632 0822 0F       		.byte	0xf
 1633 0823 7201     		.2byte	0x172
 1634 0825 B0000000 		.4byte	0xb0
 1635 0829 13       		.uleb128 0x13
 1636 082a 10       		.byte	0x10
 1637 082b 0F       		.byte	0xf
 1638 082c 7801     		.2byte	0x178
 1639 082e 67080000 		.4byte	0x867
 1640 0832 09       		.uleb128 0x9
 1641 0833 CD000000 		.4byte	.LASF126
 1642 0837 0F       		.byte	0xf
 1643 0838 7E01     		.2byte	0x17e
 1644 083a 11080000 		.4byte	0x811
 1645 083e 00       		.byte	0
 1646 083f 09       		.uleb128 0x9
 1647 0840 D8020000 		.4byte	.LASF127
 1648 0844 0F       		.byte	0xf
 1649 0845 8501     		.2byte	0x185
 1650 0847 EF070000 		.4byte	0x7ef
 1651 084b 04       		.byte	0x4
 1652 084c 08       		.uleb128 0x8
 1653 084d 63723200 		.ascii	"cr2\000"
ARM GAS  /tmp/ccrpCuUt.s 			page 30


 1654 0851 0F       		.byte	0xf
 1655 0852 8B01     		.2byte	0x18b
 1656 0854 B0000000 		.4byte	0xb0
 1657 0858 08       		.byte	0x8
 1658 0859 09       		.uleb128 0x9
 1659 085a 7E070000 		.4byte	.LASF128
 1660 085e 0F       		.byte	0xf
 1661 085f 9101     		.2byte	0x191
 1662 0861 B0000000 		.4byte	0xb0
 1663 0865 0C       		.byte	0xc
 1664 0866 00       		.byte	0
 1665 0867 14       		.uleb128 0x14
 1666 0868 84060000 		.4byte	.LASF129
 1667 086c 0F       		.byte	0xf
 1668 086d 9201     		.2byte	0x192
 1669 086f 29080000 		.4byte	0x829
 1670 0873 0A       		.uleb128 0xa
 1671 0874 04       		.byte	0x4
 1672 0875 79080000 		.4byte	0x879
 1673 0879 18       		.uleb128 0x18
 1674 087a 67080000 		.4byte	0x867
 1675 087e 0A       		.uleb128 0xa
 1676 087f 04       		.byte	0x4
 1677 0880 36060000 		.4byte	0x636
 1678 0884 1B       		.uleb128 0x1b
 1679 0885 65060000 		.4byte	.LASF133
 1680 0889 02       		.byte	0x2
 1681 088a 2002     		.2byte	0x220
 1682 088c 03       		.byte	0x3
 1683 088d 9E080000 		.4byte	0x89e
 1684 0891 1C       		.uleb128 0x1c
 1685 0892 F9010000 		.4byte	.LASF137
 1686 0896 02       		.byte	0x2
 1687 0897 2002     		.2byte	0x220
 1688 0899 B0000000 		.4byte	0xb0
 1689 089d 00       		.byte	0
 1690 089e 1D       		.uleb128 0x1d
 1691 089f 5E000000 		.4byte	.LASF130
 1692 08a3 09       		.byte	0x9
 1693 08a4 BC01     		.2byte	0x1bc
 1694 08a6 03       		.byte	0x3
 1695 08a7 1D       		.uleb128 0x1d
 1696 08a8 1A010000 		.4byte	.LASF131
 1697 08ac 09       		.byte	0x9
 1698 08ad CA01     		.2byte	0x1ca
 1699 08af 03       		.byte	0x3
 1700 08b0 1D       		.uleb128 0x1d
 1701 08b1 84050000 		.4byte	.LASF132
 1702 08b5 10       		.byte	0x10
 1703 08b6 5A01     		.2byte	0x15a
 1704 08b8 03       		.byte	0x3
 1705 08b9 1B       		.uleb128 0x1b
 1706 08ba 3F070000 		.4byte	.LASF134
 1707 08be 10       		.byte	0x10
 1708 08bf 6601     		.2byte	0x166
 1709 08c1 03       		.byte	0x3
 1710 08c2 D4080000 		.4byte	0x8d4
ARM GAS  /tmp/ccrpCuUt.s 			page 31


 1711 08c6 1E       		.uleb128 0x1e
 1712 08c7 7B050000 		.4byte	.LASF140
 1713 08cb E4080000 		.4byte	0x8e4
 1714 08cf 3F070000 		.4byte	.LASF134
 1715 08d3 00       		.byte	0
 1716 08d4 10       		.uleb128 0x10
 1717 08d5 34070000 		.4byte	0x734
 1718 08d9 E4080000 		.4byte	0x8e4
 1719 08dd 11       		.uleb128 0x11
 1720 08de 49040000 		.4byte	0x449
 1721 08e2 0B       		.byte	0xb
 1722 08e3 00       		.byte	0
 1723 08e4 18       		.uleb128 0x18
 1724 08e5 D4080000 		.4byte	0x8d4
 1725 08e9 1D       		.uleb128 0x1d
 1726 08ea 8E050000 		.4byte	.LASF135
 1727 08ee 11       		.byte	0x11
 1728 08ef C801     		.2byte	0x1c8
 1729 08f1 03       		.byte	0x3
 1730 08f2 1D       		.uleb128 0x1d
 1731 08f3 E5010000 		.4byte	.LASF136
 1732 08f7 11       		.byte	0x11
 1733 08f8 BD01     		.2byte	0x1bd
 1734 08fa 03       		.byte	0x3
 1735 08fb 1F       		.uleb128 0x1f
 1736 08fc 92010000 		.4byte	.LASF141
 1737 0900 01       		.byte	0x1
 1738 0901 9F       		.byte	0x9f
 1739 0902 01       		.byte	0x1
 1740 0903 2B090000 		.4byte	0x92b
 1741 0907 20       		.uleb128 0x20
 1742 0908 95020000 		.4byte	.LASF138
 1743 090c 01       		.byte	0x1
 1744 090d 9F       		.byte	0x9f
 1745 090e 0B080000 		.4byte	0x80b
 1746 0912 20       		.uleb128 0x20
 1747 0913 B9010000 		.4byte	.LASF139
 1748 0917 01       		.byte	0x1
 1749 0918 9F       		.byte	0x9f
 1750 0919 1D080000 		.4byte	0x81d
 1751 091d 1E       		.uleb128 0x1e
 1752 091e 7B050000 		.4byte	.LASF140
 1753 0922 3B090000 		.4byte	0x93b
 1754 0926 92010000 		.4byte	.LASF141
 1755 092a 00       		.byte	0
 1756 092b 10       		.uleb128 0x10
 1757 092c 34070000 		.4byte	0x734
 1758 0930 3B090000 		.4byte	0x93b
 1759 0934 11       		.uleb128 0x11
 1760 0935 49040000 		.4byte	0x449
 1761 0939 13       		.byte	0x13
 1762 093a 00       		.byte	0
 1763 093b 18       		.uleb128 0x18
 1764 093c 2B090000 		.4byte	0x92b
 1765 0940 1F       		.uleb128 0x1f
 1766 0941 6D070000 		.4byte	.LASF142
 1767 0945 01       		.byte	0x1
ARM GAS  /tmp/ccrpCuUt.s 			page 32


 1768 0946 C1       		.byte	0xc1
 1769 0947 01       		.byte	0x1
 1770 0948 70090000 		.4byte	0x970
 1771 094c 20       		.uleb128 0x20
 1772 094d 95020000 		.4byte	.LASF138
 1773 0951 01       		.byte	0x1
 1774 0952 C1       		.byte	0xc1
 1775 0953 0B080000 		.4byte	0x80b
 1776 0957 20       		.uleb128 0x20
 1777 0958 B9010000 		.4byte	.LASF139
 1778 095c 01       		.byte	0x1
 1779 095d C1       		.byte	0xc1
 1780 095e 1D080000 		.4byte	0x81d
 1781 0962 1E       		.uleb128 0x1e
 1782 0963 7B050000 		.4byte	.LASF140
 1783 0967 80090000 		.4byte	0x980
 1784 096b 6D070000 		.4byte	.LASF142
 1785 096f 00       		.byte	0
 1786 0970 10       		.uleb128 0x10
 1787 0971 34070000 		.4byte	0x734
 1788 0975 80090000 		.4byte	0x980
 1789 0979 11       		.uleb128 0x11
 1790 097a 49040000 		.4byte	0x449
 1791 097e 10       		.byte	0x10
 1792 097f 00       		.byte	0
 1793 0980 18       		.uleb128 0x18
 1794 0981 70090000 		.4byte	0x970
 1795 0985 1F       		.uleb128 0x1f
 1796 0986 83070000 		.4byte	.LASF143
 1797 098a 01       		.byte	0x1
 1798 098b E2       		.byte	0xe2
 1799 098c 01       		.byte	0x1
 1800 098d AA090000 		.4byte	0x9aa
 1801 0991 20       		.uleb128 0x20
 1802 0992 95020000 		.4byte	.LASF138
 1803 0996 01       		.byte	0x1
 1804 0997 E2       		.byte	0xe2
 1805 0998 0B080000 		.4byte	0x80b
 1806 099c 1E       		.uleb128 0x1e
 1807 099d 7B050000 		.4byte	.LASF140
 1808 09a1 BA090000 		.4byte	0x9ba
 1809 09a5 83070000 		.4byte	.LASF143
 1810 09a9 00       		.byte	0
 1811 09aa 10       		.uleb128 0x10
 1812 09ab 34070000 		.4byte	0x734
 1813 09af BA090000 		.4byte	0x9ba
 1814 09b3 11       		.uleb128 0x11
 1815 09b4 49040000 		.4byte	0x449
 1816 09b8 0D       		.byte	0xd
 1817 09b9 00       		.byte	0
 1818 09ba 18       		.uleb128 0x18
 1819 09bb AA090000 		.4byte	0x9aa
 1820 09bf 21       		.uleb128 0x21
 1821 09c0 59010000 		.4byte	.LASF144
 1822 09c4 01       		.byte	0x1
 1823 09c5 38       		.byte	0x38
 1824 09c6 00000000 		.4byte	.LFB258
ARM GAS  /tmp/ccrpCuUt.s 			page 33


 1825 09ca 04000000 		.4byte	.LFE258-.LFB258
 1826 09ce 01       		.uleb128 0x1
 1827 09cf 9C       		.byte	0x9c
 1828 09d0 DE090000 		.4byte	0x9de
 1829 09d4 22       		.uleb128 0x22
 1830 09d5 04000000 		.4byte	.LVL0
 1831 09d9 AD110000 		.4byte	0x11ad
 1832 09dd 00       		.byte	0
 1833 09de 21       		.uleb128 0x21
 1834 09df 2E020000 		.4byte	.LASF145
 1835 09e3 01       		.byte	0x1
 1836 09e4 44       		.byte	0x44
 1837 09e5 00000000 		.4byte	.LFB259
 1838 09e9 0A000000 		.4byte	.LFE259-.LFB259
 1839 09ed 01       		.uleb128 0x1
 1840 09ee 9C       		.byte	0x9c
 1841 09ef 010A0000 		.4byte	0xa01
 1842 09f3 23       		.uleb128 0x23
 1843 09f4 95020000 		.4byte	.LASF138
 1844 09f8 01       		.byte	0x1
 1845 09f9 44       		.byte	0x44
 1846 09fa 0B080000 		.4byte	0x80b
 1847 09fe 01       		.uleb128 0x1
 1848 09ff 50       		.byte	0x50
 1849 0a00 00       		.byte	0
 1850 0a01 21       		.uleb128 0x21
 1851 0a02 C3020000 		.4byte	.LASF146
 1852 0a06 01       		.byte	0x1
 1853 0a07 52       		.byte	0x52
 1854 0a08 00000000 		.4byte	.LFB260
 1855 0a0c 1C000000 		.4byte	.LFE260-.LFB260
 1856 0a10 01       		.uleb128 0x1
 1857 0a11 9C       		.byte	0x9c
 1858 0a12 FD0A0000 		.4byte	0xafd
 1859 0a16 24       		.uleb128 0x24
 1860 0a17 95020000 		.4byte	.LASF138
 1861 0a1b 01       		.byte	0x1
 1862 0a1c 52       		.byte	0x52
 1863 0a1d 0B080000 		.4byte	0x80b
 1864 0a21 00000000 		.4byte	.LLST0
 1865 0a25 24       		.uleb128 0x24
 1866 0a26 20060000 		.4byte	.LASF121
 1867 0a2a 01       		.byte	0x1
 1868 0a2b 52       		.byte	0x52
 1869 0a2c 73080000 		.4byte	0x873
 1870 0a30 1E000000 		.4byte	.LLST1
 1871 0a34 25       		.uleb128 0x25
 1872 0a35 7B050000 		.4byte	.LASF140
 1873 0a39 0D0B0000 		.4byte	0xb0d
 1874 0a3d 26       		.uleb128 0x26
 1875 0a3e F2080000 		.4byte	0x8f2
 1876 0a42 02000000 		.4byte	.LBB108
 1877 0a46 00000000 		.4byte	.Ldebug_ranges0+0
 1878 0a4a 01       		.byte	0x1
 1879 0a4b 56       		.byte	0x56
 1880 0a4c 8D0A0000 		.4byte	0xa8d
 1881 0a50 27       		.uleb128 0x27
ARM GAS  /tmp/ccrpCuUt.s 			page 34


 1882 0a51 B0080000 		.4byte	0x8b0
 1883 0a55 02000000 		.4byte	.LBB109
 1884 0a59 00000000 		.4byte	.Ldebug_ranges0+0
 1885 0a5d 11       		.byte	0x11
 1886 0a5e BF01     		.2byte	0x1bf
 1887 0a60 27       		.uleb128 0x27
 1888 0a61 9E080000 		.4byte	0x89e
 1889 0a65 02000000 		.4byte	.LBB110
 1890 0a69 00000000 		.4byte	.Ldebug_ranges0+0
 1891 0a6d 10       		.byte	0x10
 1892 0a6e 5C01     		.2byte	0x15c
 1893 0a70 27       		.uleb128 0x27
 1894 0a71 84080000 		.4byte	0x884
 1895 0a75 02000000 		.4byte	.LBB111
 1896 0a79 00000000 		.4byte	.Ldebug_ranges0+0
 1897 0a7d 09       		.byte	0x9
 1898 0a7e BF01     		.2byte	0x1bf
 1899 0a80 28       		.uleb128 0x28
 1900 0a81 91080000 		.4byte	0x891
 1901 0a85 3F000000 		.4byte	.LLST2
 1902 0a89 00       		.byte	0
 1903 0a8a 00       		.byte	0
 1904 0a8b 00       		.byte	0
 1905 0a8c 00       		.byte	0
 1906 0a8d 29       		.uleb128 0x29
 1907 0a8e E9080000 		.4byte	0x8e9
 1908 0a92 14000000 		.4byte	.LBB118
 1909 0a96 08000000 		.4byte	.LBE118-.LBB118
 1910 0a9a 01       		.byte	0x1
 1911 0a9b 5C       		.byte	0x5c
 1912 0a9c EC0A0000 		.4byte	0xaec
 1913 0aa0 2A       		.uleb128 0x2a
 1914 0aa1 B9080000 		.4byte	0x8b9
 1915 0aa5 14000000 		.4byte	.LBB119
 1916 0aa9 08000000 		.4byte	.LBE119-.LBB119
 1917 0aad 11       		.byte	0x11
 1918 0aae CA01     		.2byte	0x1ca
 1919 0ab0 2B       		.uleb128 0x2b
 1920 0ab1 14000000 		.4byte	.LBB120
 1921 0ab5 08000000 		.4byte	.LBE120-.LBB120
 1922 0ab9 2C       		.uleb128 0x2c
 1923 0aba C6080000 		.4byte	0x8c6
 1924 0abe 2A       		.uleb128 0x2a
 1925 0abf A7080000 		.4byte	0x8a7
 1926 0ac3 14000000 		.4byte	.LBB121
 1927 0ac7 08000000 		.4byte	.LBE121-.LBB121
 1928 0acb 10       		.byte	0x10
 1929 0acc 7301     		.2byte	0x173
 1930 0ace 2A       		.uleb128 0x2a
 1931 0acf 84080000 		.4byte	0x884
 1932 0ad3 14000000 		.4byte	.LBB122
 1933 0ad7 08000000 		.4byte	.LBE122-.LBB122
 1934 0adb 09       		.byte	0x9
 1935 0adc CD01     		.2byte	0x1cd
 1936 0ade 28       		.uleb128 0x28
 1937 0adf 91080000 		.4byte	0x891
 1938 0ae3 54000000 		.4byte	.LLST3
ARM GAS  /tmp/ccrpCuUt.s 			page 35


 1939 0ae7 00       		.byte	0
 1940 0ae8 00       		.byte	0
 1941 0ae9 00       		.byte	0
 1942 0aea 00       		.byte	0
 1943 0aeb 00       		.byte	0
 1944 0aec 2D       		.uleb128 0x2d
 1945 0aed 10000000 		.4byte	.LVL4
 1946 0af1 B9110000 		.4byte	0x11b9
 1947 0af5 2E       		.uleb128 0x2e
 1948 0af6 01       		.uleb128 0x1
 1949 0af7 50       		.byte	0x50
 1950 0af8 02       		.uleb128 0x2
 1951 0af9 74       		.byte	0x74
 1952 0afa 00       		.sleb128 0
 1953 0afb 00       		.byte	0
 1954 0afc 00       		.byte	0
 1955 0afd 10       		.uleb128 0x10
 1956 0afe 34070000 		.4byte	0x734
 1957 0b02 0D0B0000 		.4byte	0xb0d
 1958 0b06 11       		.uleb128 0x11
 1959 0b07 49040000 		.4byte	0x449
 1960 0b0b 08       		.byte	0x8
 1961 0b0c 00       		.byte	0
 1962 0b0d 18       		.uleb128 0x18
 1963 0b0e FD0A0000 		.4byte	0xafd
 1964 0b12 21       		.uleb128 0x21
 1965 0b13 48010000 		.4byte	.LASF147
 1966 0b17 01       		.byte	0x1
 1967 0b18 66       		.byte	0x66
 1968 0b19 00000000 		.4byte	.LFB261
 1969 0b1d 1A000000 		.4byte	.LFE261-.LFB261
 1970 0b21 01       		.uleb128 0x1
 1971 0b22 9C       		.byte	0x9c
 1972 0b23 FF0B0000 		.4byte	0xbff
 1973 0b27 24       		.uleb128 0x24
 1974 0b28 95020000 		.4byte	.LASF138
 1975 0b2c 01       		.byte	0x1
 1976 0b2d 66       		.byte	0x66
 1977 0b2e 0B080000 		.4byte	0x80b
 1978 0b32 68000000 		.4byte	.LLST4
 1979 0b36 25       		.uleb128 0x25
 1980 0b37 7B050000 		.4byte	.LASF140
 1981 0b3b 0F0C0000 		.4byte	0xc0f
 1982 0b3f 26       		.uleb128 0x26
 1983 0b40 F2080000 		.4byte	0x8f2
 1984 0b44 02000000 		.4byte	.LBB124
 1985 0b48 18000000 		.4byte	.Ldebug_ranges0+0x18
 1986 0b4c 01       		.byte	0x1
 1987 0b4d 6A       		.byte	0x6a
 1988 0b4e 8F0B0000 		.4byte	0xb8f
 1989 0b52 27       		.uleb128 0x27
 1990 0b53 B0080000 		.4byte	0x8b0
 1991 0b57 02000000 		.4byte	.LBB125
 1992 0b5b 18000000 		.4byte	.Ldebug_ranges0+0x18
 1993 0b5f 11       		.byte	0x11
 1994 0b60 BF01     		.2byte	0x1bf
 1995 0b62 27       		.uleb128 0x27
ARM GAS  /tmp/ccrpCuUt.s 			page 36


 1996 0b63 9E080000 		.4byte	0x89e
 1997 0b67 02000000 		.4byte	.LBB126
 1998 0b6b 18000000 		.4byte	.Ldebug_ranges0+0x18
 1999 0b6f 10       		.byte	0x10
 2000 0b70 5C01     		.2byte	0x15c
 2001 0b72 27       		.uleb128 0x27
 2002 0b73 84080000 		.4byte	0x884
 2003 0b77 02000000 		.4byte	.LBB127
 2004 0b7b 18000000 		.4byte	.Ldebug_ranges0+0x18
 2005 0b7f 09       		.byte	0x9
 2006 0b80 BF01     		.2byte	0x1bf
 2007 0b82 28       		.uleb128 0x28
 2008 0b83 91080000 		.4byte	0x891
 2009 0b87 86000000 		.4byte	.LLST5
 2010 0b8b 00       		.byte	0
 2011 0b8c 00       		.byte	0
 2012 0b8d 00       		.byte	0
 2013 0b8e 00       		.byte	0
 2014 0b8f 29       		.uleb128 0x29
 2015 0b90 E9080000 		.4byte	0x8e9
 2016 0b94 12000000 		.4byte	.LBB134
 2017 0b98 08000000 		.4byte	.LBE134-.LBB134
 2018 0b9c 01       		.byte	0x1
 2019 0b9d 6F       		.byte	0x6f
 2020 0b9e EE0B0000 		.4byte	0xbee
 2021 0ba2 2A       		.uleb128 0x2a
 2022 0ba3 B9080000 		.4byte	0x8b9
 2023 0ba7 12000000 		.4byte	.LBB135
 2024 0bab 08000000 		.4byte	.LBE135-.LBB135
 2025 0baf 11       		.byte	0x11
 2026 0bb0 CA01     		.2byte	0x1ca
 2027 0bb2 2B       		.uleb128 0x2b
 2028 0bb3 12000000 		.4byte	.LBB136
 2029 0bb7 08000000 		.4byte	.LBE136-.LBB136
 2030 0bbb 2C       		.uleb128 0x2c
 2031 0bbc C6080000 		.4byte	0x8c6
 2032 0bc0 2A       		.uleb128 0x2a
 2033 0bc1 A7080000 		.4byte	0x8a7
 2034 0bc5 12000000 		.4byte	.LBB137
 2035 0bc9 08000000 		.4byte	.LBE137-.LBB137
 2036 0bcd 10       		.byte	0x10
 2037 0bce 7301     		.2byte	0x173
 2038 0bd0 2A       		.uleb128 0x2a
 2039 0bd1 84080000 		.4byte	0x884
 2040 0bd5 12000000 		.4byte	.LBB138
 2041 0bd9 08000000 		.4byte	.LBE138-.LBB138
 2042 0bdd 09       		.byte	0x9
 2043 0bde CD01     		.2byte	0x1cd
 2044 0be0 28       		.uleb128 0x28
 2045 0be1 91080000 		.4byte	0x891
 2046 0be5 9B000000 		.4byte	.LLST6
 2047 0be9 00       		.byte	0
 2048 0bea 00       		.byte	0
 2049 0beb 00       		.byte	0
 2050 0bec 00       		.byte	0
 2051 0bed 00       		.byte	0
 2052 0bee 2D       		.uleb128 0x2d
ARM GAS  /tmp/ccrpCuUt.s 			page 37


 2053 0bef 0E000000 		.4byte	.LVL9
 2054 0bf3 C5110000 		.4byte	0x11c5
 2055 0bf7 2E       		.uleb128 0x2e
 2056 0bf8 01       		.uleb128 0x1
 2057 0bf9 50       		.byte	0x50
 2058 0bfa 02       		.uleb128 0x2
 2059 0bfb 74       		.byte	0x74
 2060 0bfc 00       		.sleb128 0
 2061 0bfd 00       		.byte	0
 2062 0bfe 00       		.byte	0
 2063 0bff 10       		.uleb128 0x10
 2064 0c00 34070000 		.4byte	0x734
 2065 0c04 0F0C0000 		.4byte	0xc0f
 2066 0c08 11       		.uleb128 0x11
 2067 0c09 49040000 		.4byte	0x449
 2068 0c0d 07       		.byte	0x7
 2069 0c0e 00       		.byte	0
 2070 0c0f 18       		.uleb128 0x18
 2071 0c10 FF0B0000 		.4byte	0xbff
 2072 0c14 21       		.uleb128 0x21
 2073 0c15 68000000 		.4byte	.LASF148
 2074 0c19 01       		.byte	0x1
 2075 0c1a 7D       		.byte	0x7d
 2076 0c1b 00000000 		.4byte	.LFB262
 2077 0c1f 14000000 		.4byte	.LFE262-.LFB262
 2078 0c23 01       		.uleb128 0x1
 2079 0c24 9C       		.byte	0x9c
 2080 0c25 FA0C0000 		.4byte	0xcfa
 2081 0c29 23       		.uleb128 0x23
 2082 0c2a 95020000 		.4byte	.LASF138
 2083 0c2e 01       		.byte	0x1
 2084 0c2f 7D       		.byte	0x7d
 2085 0c30 0B080000 		.4byte	0x80b
 2086 0c34 01       		.uleb128 0x1
 2087 0c35 50       		.byte	0x50
 2088 0c36 24       		.uleb128 0x24
 2089 0c37 B9010000 		.4byte	.LASF139
 2090 0c3b 01       		.byte	0x1
 2091 0c3c 7D       		.byte	0x7d
 2092 0c3d 1D080000 		.4byte	0x81d
 2093 0c41 AF000000 		.4byte	.LLST7
 2094 0c45 25       		.uleb128 0x25
 2095 0c46 7B050000 		.4byte	.LASF140
 2096 0c4a 0A0D0000 		.4byte	0xd0a
 2097 0c4e 29       		.uleb128 0x29
 2098 0c4f F2080000 		.4byte	0x8f2
 2099 0c53 00000000 		.4byte	.LBB140
 2100 0c57 06000000 		.4byte	.LBE140-.LBB140
 2101 0c5b 01       		.byte	0x1
 2102 0c5c 81       		.byte	0x81
 2103 0c5d 9E0C0000 		.4byte	0xc9e
 2104 0c61 2A       		.uleb128 0x2a
 2105 0c62 B0080000 		.4byte	0x8b0
 2106 0c66 00000000 		.4byte	.LBB141
 2107 0c6a 06000000 		.4byte	.LBE141-.LBB141
 2108 0c6e 11       		.byte	0x11
 2109 0c6f BF01     		.2byte	0x1bf
ARM GAS  /tmp/ccrpCuUt.s 			page 38


 2110 0c71 2A       		.uleb128 0x2a
 2111 0c72 9E080000 		.4byte	0x89e
 2112 0c76 00000000 		.4byte	.LBB142
 2113 0c7a 06000000 		.4byte	.LBE142-.LBB142
 2114 0c7e 10       		.byte	0x10
 2115 0c7f 5C01     		.2byte	0x15c
 2116 0c81 2A       		.uleb128 0x2a
 2117 0c82 84080000 		.4byte	0x884
 2118 0c86 00000000 		.4byte	.LBB143
 2119 0c8a 06000000 		.4byte	.LBE143-.LBB143
 2120 0c8e 09       		.byte	0x9
 2121 0c8f BF01     		.2byte	0x1bf
 2122 0c91 28       		.uleb128 0x28
 2123 0c92 91080000 		.4byte	0x891
 2124 0c96 CF000000 		.4byte	.LLST8
 2125 0c9a 00       		.byte	0
 2126 0c9b 00       		.byte	0
 2127 0c9c 00       		.byte	0
 2128 0c9d 00       		.byte	0
 2129 0c9e 2F       		.uleb128 0x2f
 2130 0c9f E9080000 		.4byte	0x8e9
 2131 0ca3 0C000000 		.4byte	.LBB145
 2132 0ca7 08000000 		.4byte	.LBE145-.LBB145
 2133 0cab 01       		.byte	0x1
 2134 0cac 85       		.byte	0x85
 2135 0cad 2A       		.uleb128 0x2a
 2136 0cae B9080000 		.4byte	0x8b9
 2137 0cb2 0C000000 		.4byte	.LBB146
 2138 0cb6 08000000 		.4byte	.LBE146-.LBB146
 2139 0cba 11       		.byte	0x11
 2140 0cbb CA01     		.2byte	0x1ca
 2141 0cbd 2B       		.uleb128 0x2b
 2142 0cbe 0C000000 		.4byte	.LBB147
 2143 0cc2 08000000 		.4byte	.LBE147-.LBB147
 2144 0cc6 2C       		.uleb128 0x2c
 2145 0cc7 C6080000 		.4byte	0x8c6
 2146 0ccb 2A       		.uleb128 0x2a
 2147 0ccc A7080000 		.4byte	0x8a7
 2148 0cd0 0C000000 		.4byte	.LBB148
 2149 0cd4 08000000 		.4byte	.LBE148-.LBB148
 2150 0cd8 10       		.byte	0x10
 2151 0cd9 7301     		.2byte	0x173
 2152 0cdb 2A       		.uleb128 0x2a
 2153 0cdc 84080000 		.4byte	0x884
 2154 0ce0 0C000000 		.4byte	.LBB149
 2155 0ce4 08000000 		.4byte	.LBE149-.LBB149
 2156 0ce8 09       		.byte	0x9
 2157 0ce9 CD01     		.2byte	0x1cd
 2158 0ceb 28       		.uleb128 0x28
 2159 0cec 91080000 		.4byte	0x891
 2160 0cf0 E4000000 		.4byte	.LLST9
 2161 0cf4 00       		.byte	0
 2162 0cf5 00       		.byte	0
 2163 0cf6 00       		.byte	0
 2164 0cf7 00       		.byte	0
 2165 0cf8 00       		.byte	0
 2166 0cf9 00       		.byte	0
ARM GAS  /tmp/ccrpCuUt.s 			page 39


 2167 0cfa 10       		.uleb128 0x10
 2168 0cfb 34070000 		.4byte	0x734
 2169 0cff 0A0D0000 		.4byte	0xd0a
 2170 0d03 11       		.uleb128 0x11
 2171 0d04 49040000 		.4byte	0x449
 2172 0d08 11       		.byte	0x11
 2173 0d09 00       		.byte	0
 2174 0d0a 18       		.uleb128 0x18
 2175 0d0b FA0C0000 		.4byte	0xcfa
 2176 0d0f 21       		.uleb128 0x21
 2177 0d10 FA020000 		.4byte	.LASF149
 2178 0d14 01       		.byte	0x1
 2179 0d15 90       		.byte	0x90
 2180 0d16 00000000 		.4byte	.LFB263
 2181 0d1a 18000000 		.4byte	.LFE263-.LFB263
 2182 0d1e 01       		.uleb128 0x1
 2183 0d1f 9C       		.byte	0x9c
 2184 0d20 3B0E0000 		.4byte	0xe3b
 2185 0d24 24       		.uleb128 0x24
 2186 0d25 95020000 		.4byte	.LASF138
 2187 0d29 01       		.byte	0x1
 2188 0d2a 90       		.byte	0x90
 2189 0d2b 0B080000 		.4byte	0x80b
 2190 0d2f F8000000 		.4byte	.LLST10
 2191 0d33 24       		.uleb128 0x24
 2192 0d34 B9010000 		.4byte	.LASF139
 2193 0d38 01       		.byte	0x1
 2194 0d39 90       		.byte	0x90
 2195 0d3a 1D080000 		.4byte	0x81d
 2196 0d3e 19010000 		.4byte	.LLST11
 2197 0d42 29       		.uleb128 0x29
 2198 0d43 F2080000 		.4byte	0x8f2
 2199 0d47 02000000 		.4byte	.LBB151
 2200 0d4b 06000000 		.4byte	.LBE151-.LBB151
 2201 0d4f 01       		.byte	0x1
 2202 0d50 92       		.byte	0x92
 2203 0d51 920D0000 		.4byte	0xd92
 2204 0d55 2A       		.uleb128 0x2a
 2205 0d56 B0080000 		.4byte	0x8b0
 2206 0d5a 02000000 		.4byte	.LBB152
 2207 0d5e 06000000 		.4byte	.LBE152-.LBB152
 2208 0d62 11       		.byte	0x11
 2209 0d63 BF01     		.2byte	0x1bf
 2210 0d65 2A       		.uleb128 0x2a
 2211 0d66 9E080000 		.4byte	0x89e
 2212 0d6a 02000000 		.4byte	.LBB153
 2213 0d6e 06000000 		.4byte	.LBE153-.LBB153
 2214 0d72 10       		.byte	0x10
 2215 0d73 5C01     		.2byte	0x15c
 2216 0d75 2A       		.uleb128 0x2a
 2217 0d76 84080000 		.4byte	0x884
 2218 0d7a 02000000 		.4byte	.LBB154
 2219 0d7e 06000000 		.4byte	.LBE154-.LBB154
 2220 0d82 09       		.byte	0x9
 2221 0d83 BF01     		.2byte	0x1bf
 2222 0d85 28       		.uleb128 0x28
 2223 0d86 91080000 		.4byte	0x891
ARM GAS  /tmp/ccrpCuUt.s 			page 40


 2224 0d8a 3A010000 		.4byte	.LLST12
 2225 0d8e 00       		.byte	0
 2226 0d8f 00       		.byte	0
 2227 0d90 00       		.byte	0
 2228 0d91 00       		.byte	0
 2229 0d92 29       		.uleb128 0x29
 2230 0d93 FB080000 		.4byte	0x8fb
 2231 0d97 08000000 		.4byte	.LBB156
 2232 0d9b 08000000 		.4byte	.LBE156-.LBB156
 2233 0d9f 01       		.byte	0x1
 2234 0da0 93       		.byte	0x93
 2235 0da1 DF0D0000 		.4byte	0xddf
 2236 0da5 28       		.uleb128 0x28
 2237 0da6 12090000 		.4byte	0x912
 2238 0daa 4F010000 		.4byte	.LLST13
 2239 0dae 28       		.uleb128 0x28
 2240 0daf 07090000 		.4byte	0x907
 2241 0db3 70010000 		.4byte	.LLST14
 2242 0db7 2B       		.uleb128 0x2b
 2243 0db8 08000000 		.4byte	.LBB157
 2244 0dbc 08000000 		.4byte	.LBE157-.LBB157
 2245 0dc0 2C       		.uleb128 0x2c
 2246 0dc1 1D090000 		.4byte	0x91d
 2247 0dc5 2D       		.uleb128 0x2d
 2248 0dc6 10000000 		.4byte	.LVL19
 2249 0dca D1110000 		.4byte	0x11d1
 2250 0dce 2E       		.uleb128 0x2e
 2251 0dcf 01       		.uleb128 0x1
 2252 0dd0 50       		.byte	0x50
 2253 0dd1 03       		.uleb128 0x3
 2254 0dd2 F3       		.byte	0xf3
 2255 0dd3 01       		.uleb128 0x1
 2256 0dd4 50       		.byte	0x50
 2257 0dd5 2E       		.uleb128 0x2e
 2258 0dd6 01       		.uleb128 0x1
 2259 0dd7 51       		.byte	0x51
 2260 0dd8 03       		.uleb128 0x3
 2261 0dd9 F3       		.byte	0xf3
 2262 0dda 01       		.uleb128 0x1
 2263 0ddb 51       		.byte	0x51
 2264 0ddc 00       		.byte	0
 2265 0ddd 00       		.byte	0
 2266 0dde 00       		.byte	0
 2267 0ddf 2F       		.uleb128 0x2f
 2268 0de0 E9080000 		.4byte	0x8e9
 2269 0de4 10000000 		.4byte	.LBB158
 2270 0de8 08000000 		.4byte	.LBE158-.LBB158
 2271 0dec 01       		.byte	0x1
 2272 0ded 94       		.byte	0x94
 2273 0dee 2A       		.uleb128 0x2a
 2274 0def B9080000 		.4byte	0x8b9
 2275 0df3 10000000 		.4byte	.LBB159
 2276 0df7 08000000 		.4byte	.LBE159-.LBB159
 2277 0dfb 11       		.byte	0x11
 2278 0dfc CA01     		.2byte	0x1ca
 2279 0dfe 2B       		.uleb128 0x2b
 2280 0dff 10000000 		.4byte	.LBB160
ARM GAS  /tmp/ccrpCuUt.s 			page 41


 2281 0e03 08000000 		.4byte	.LBE160-.LBB160
 2282 0e07 2C       		.uleb128 0x2c
 2283 0e08 C6080000 		.4byte	0x8c6
 2284 0e0c 2A       		.uleb128 0x2a
 2285 0e0d A7080000 		.4byte	0x8a7
 2286 0e11 10000000 		.4byte	.LBB161
 2287 0e15 08000000 		.4byte	.LBE161-.LBB161
 2288 0e19 10       		.byte	0x10
 2289 0e1a 7301     		.2byte	0x173
 2290 0e1c 2A       		.uleb128 0x2a
 2291 0e1d 84080000 		.4byte	0x884
 2292 0e21 10000000 		.4byte	.LBB162
 2293 0e25 08000000 		.4byte	.LBE162-.LBB162
 2294 0e29 09       		.byte	0x9
 2295 0e2a CD01     		.2byte	0x1cd
 2296 0e2c 28       		.uleb128 0x28
 2297 0e2d 91080000 		.4byte	0x891
 2298 0e31 91010000 		.4byte	.LLST15
 2299 0e35 00       		.byte	0
 2300 0e36 00       		.byte	0
 2301 0e37 00       		.byte	0
 2302 0e38 00       		.byte	0
 2303 0e39 00       		.byte	0
 2304 0e3a 00       		.byte	0
 2305 0e3b 30       		.uleb128 0x30
 2306 0e3c FB080000 		.4byte	0x8fb
 2307 0e40 00000000 		.4byte	.LFB264
 2308 0e44 08000000 		.4byte	.LFE264-.LFB264
 2309 0e48 01       		.uleb128 0x1
 2310 0e49 9C       		.byte	0x9c
 2311 0e4a 7E0E0000 		.4byte	0xe7e
 2312 0e4e 28       		.uleb128 0x28
 2313 0e4f 07090000 		.4byte	0x907
 2314 0e53 A5010000 		.4byte	.LLST16
 2315 0e57 28       		.uleb128 0x28
 2316 0e58 12090000 		.4byte	0x912
 2317 0e5c C6010000 		.4byte	.LLST17
 2318 0e60 2C       		.uleb128 0x2c
 2319 0e61 1D090000 		.4byte	0x91d
 2320 0e65 31       		.uleb128 0x31
 2321 0e66 08000000 		.4byte	.LVL22
 2322 0e6a D1110000 		.4byte	0x11d1
 2323 0e6e 2E       		.uleb128 0x2e
 2324 0e6f 01       		.uleb128 0x1
 2325 0e70 50       		.byte	0x50
 2326 0e71 03       		.uleb128 0x3
 2327 0e72 F3       		.byte	0xf3
 2328 0e73 01       		.uleb128 0x1
 2329 0e74 50       		.byte	0x50
 2330 0e75 2E       		.uleb128 0x2e
 2331 0e76 01       		.uleb128 0x1
 2332 0e77 51       		.byte	0x51
 2333 0e78 03       		.uleb128 0x3
 2334 0e79 F3       		.byte	0xf3
 2335 0e7a 01       		.uleb128 0x1
 2336 0e7b 51       		.byte	0x51
 2337 0e7c 00       		.byte	0
ARM GAS  /tmp/ccrpCuUt.s 			page 42


 2338 0e7d 00       		.byte	0
 2339 0e7e 21       		.uleb128 0x21
 2340 0e7f 70020000 		.4byte	.LASF150
 2341 0e83 01       		.byte	0x1
 2342 0e84 B2       		.byte	0xb2
 2343 0e85 00000000 		.4byte	.LFB265
 2344 0e89 18000000 		.4byte	.LFE265-.LFB265
 2345 0e8d 01       		.uleb128 0x1
 2346 0e8e 9C       		.byte	0x9c
 2347 0e8f AA0F0000 		.4byte	0xfaa
 2348 0e93 24       		.uleb128 0x24
 2349 0e94 95020000 		.4byte	.LASF138
 2350 0e98 01       		.byte	0x1
 2351 0e99 B2       		.byte	0xb2
 2352 0e9a 0B080000 		.4byte	0x80b
 2353 0e9e E7010000 		.4byte	.LLST18
 2354 0ea2 24       		.uleb128 0x24
 2355 0ea3 B9010000 		.4byte	.LASF139
 2356 0ea7 01       		.byte	0x1
 2357 0ea8 B2       		.byte	0xb2
 2358 0ea9 1D080000 		.4byte	0x81d
 2359 0ead 08020000 		.4byte	.LLST19
 2360 0eb1 29       		.uleb128 0x29
 2361 0eb2 F2080000 		.4byte	0x8f2
 2362 0eb6 02000000 		.4byte	.LBB164
 2363 0eba 06000000 		.4byte	.LBE164-.LBB164
 2364 0ebe 01       		.byte	0x1
 2365 0ebf B4       		.byte	0xb4
 2366 0ec0 010F0000 		.4byte	0xf01
 2367 0ec4 2A       		.uleb128 0x2a
 2368 0ec5 B0080000 		.4byte	0x8b0
 2369 0ec9 02000000 		.4byte	.LBB165
 2370 0ecd 06000000 		.4byte	.LBE165-.LBB165
 2371 0ed1 11       		.byte	0x11
 2372 0ed2 BF01     		.2byte	0x1bf
 2373 0ed4 2A       		.uleb128 0x2a
 2374 0ed5 9E080000 		.4byte	0x89e
 2375 0ed9 02000000 		.4byte	.LBB166
 2376 0edd 06000000 		.4byte	.LBE166-.LBB166
 2377 0ee1 10       		.byte	0x10
 2378 0ee2 5C01     		.2byte	0x15c
 2379 0ee4 2A       		.uleb128 0x2a
 2380 0ee5 84080000 		.4byte	0x884
 2381 0ee9 02000000 		.4byte	.LBB167
 2382 0eed 06000000 		.4byte	.LBE167-.LBB167
 2383 0ef1 09       		.byte	0x9
 2384 0ef2 BF01     		.2byte	0x1bf
 2385 0ef4 28       		.uleb128 0x28
 2386 0ef5 91080000 		.4byte	0x891
 2387 0ef9 29020000 		.4byte	.LLST20
 2388 0efd 00       		.byte	0
 2389 0efe 00       		.byte	0
 2390 0eff 00       		.byte	0
 2391 0f00 00       		.byte	0
 2392 0f01 29       		.uleb128 0x29
 2393 0f02 40090000 		.4byte	0x940
 2394 0f06 08000000 		.4byte	.LBB169
ARM GAS  /tmp/ccrpCuUt.s 			page 43


 2395 0f0a 08000000 		.4byte	.LBE169-.LBB169
 2396 0f0e 01       		.byte	0x1
 2397 0f0f B5       		.byte	0xb5
 2398 0f10 4E0F0000 		.4byte	0xf4e
 2399 0f14 28       		.uleb128 0x28
 2400 0f15 57090000 		.4byte	0x957
 2401 0f19 3E020000 		.4byte	.LLST21
 2402 0f1d 28       		.uleb128 0x28
 2403 0f1e 4C090000 		.4byte	0x94c
 2404 0f22 5F020000 		.4byte	.LLST22
 2405 0f26 2B       		.uleb128 0x2b
 2406 0f27 08000000 		.4byte	.LBB170
 2407 0f2b 08000000 		.4byte	.LBE170-.LBB170
 2408 0f2f 2C       		.uleb128 0x2c
 2409 0f30 62090000 		.4byte	0x962
 2410 0f34 2D       		.uleb128 0x2d
 2411 0f35 10000000 		.4byte	.LVL25
 2412 0f39 D1110000 		.4byte	0x11d1
 2413 0f3d 2E       		.uleb128 0x2e
 2414 0f3e 01       		.uleb128 0x1
 2415 0f3f 50       		.byte	0x50
 2416 0f40 03       		.uleb128 0x3
 2417 0f41 F3       		.byte	0xf3
 2418 0f42 01       		.uleb128 0x1
 2419 0f43 50       		.byte	0x50
 2420 0f44 2E       		.uleb128 0x2e
 2421 0f45 01       		.uleb128 0x1
 2422 0f46 51       		.byte	0x51
 2423 0f47 03       		.uleb128 0x3
 2424 0f48 F3       		.byte	0xf3
 2425 0f49 01       		.uleb128 0x1
 2426 0f4a 51       		.byte	0x51
 2427 0f4b 00       		.byte	0
 2428 0f4c 00       		.byte	0
 2429 0f4d 00       		.byte	0
 2430 0f4e 2F       		.uleb128 0x2f
 2431 0f4f E9080000 		.4byte	0x8e9
 2432 0f53 10000000 		.4byte	.LBB171
 2433 0f57 08000000 		.4byte	.LBE171-.LBB171
 2434 0f5b 01       		.byte	0x1
 2435 0f5c B6       		.byte	0xb6
 2436 0f5d 2A       		.uleb128 0x2a
 2437 0f5e B9080000 		.4byte	0x8b9
 2438 0f62 10000000 		.4byte	.LBB172
 2439 0f66 08000000 		.4byte	.LBE172-.LBB172
 2440 0f6a 11       		.byte	0x11
 2441 0f6b CA01     		.2byte	0x1ca
 2442 0f6d 2B       		.uleb128 0x2b
 2443 0f6e 10000000 		.4byte	.LBB173
 2444 0f72 08000000 		.4byte	.LBE173-.LBB173
 2445 0f76 2C       		.uleb128 0x2c
 2446 0f77 C6080000 		.4byte	0x8c6
 2447 0f7b 2A       		.uleb128 0x2a
 2448 0f7c A7080000 		.4byte	0x8a7
 2449 0f80 10000000 		.4byte	.LBB174
 2450 0f84 08000000 		.4byte	.LBE174-.LBB174
 2451 0f88 10       		.byte	0x10
ARM GAS  /tmp/ccrpCuUt.s 			page 44


 2452 0f89 7301     		.2byte	0x173
 2453 0f8b 2A       		.uleb128 0x2a
 2454 0f8c 84080000 		.4byte	0x884
 2455 0f90 10000000 		.4byte	.LBB175
 2456 0f94 08000000 		.4byte	.LBE175-.LBB175
 2457 0f98 09       		.byte	0x9
 2458 0f99 CD01     		.2byte	0x1cd
 2459 0f9b 28       		.uleb128 0x28
 2460 0f9c 91080000 		.4byte	0x891
 2461 0fa0 80020000 		.4byte	.LLST23
 2462 0fa4 00       		.byte	0
 2463 0fa5 00       		.byte	0
 2464 0fa6 00       		.byte	0
 2465 0fa7 00       		.byte	0
 2466 0fa8 00       		.byte	0
 2467 0fa9 00       		.byte	0
 2468 0faa 30       		.uleb128 0x30
 2469 0fab 40090000 		.4byte	0x940
 2470 0faf 00000000 		.4byte	.LFB266
 2471 0fb3 08000000 		.4byte	.LFE266-.LFB266
 2472 0fb7 01       		.uleb128 0x1
 2473 0fb8 9C       		.byte	0x9c
 2474 0fb9 ED0F0000 		.4byte	0xfed
 2475 0fbd 28       		.uleb128 0x28
 2476 0fbe 4C090000 		.4byte	0x94c
 2477 0fc2 94020000 		.4byte	.LLST24
 2478 0fc6 28       		.uleb128 0x28
 2479 0fc7 57090000 		.4byte	0x957
 2480 0fcb B5020000 		.4byte	.LLST25
 2481 0fcf 2C       		.uleb128 0x2c
 2482 0fd0 62090000 		.4byte	0x962
 2483 0fd4 31       		.uleb128 0x31
 2484 0fd5 08000000 		.4byte	.LVL28
 2485 0fd9 D1110000 		.4byte	0x11d1
 2486 0fdd 2E       		.uleb128 0x2e
 2487 0fde 01       		.uleb128 0x1
 2488 0fdf 50       		.byte	0x50
 2489 0fe0 03       		.uleb128 0x3
 2490 0fe1 F3       		.byte	0xf3
 2491 0fe2 01       		.uleb128 0x1
 2492 0fe3 50       		.byte	0x50
 2493 0fe4 2E       		.uleb128 0x2e
 2494 0fe5 01       		.uleb128 0x1
 2495 0fe6 51       		.byte	0x51
 2496 0fe7 03       		.uleb128 0x3
 2497 0fe8 F3       		.byte	0xf3
 2498 0fe9 01       		.uleb128 0x1
 2499 0fea 51       		.byte	0x51
 2500 0feb 00       		.byte	0
 2501 0fec 00       		.byte	0
 2502 0fed 21       		.uleb128 0x21
 2503 0fee 3C030000 		.4byte	.LASF151
 2504 0ff2 01       		.byte	0x1
 2505 0ff3 D4       		.byte	0xd4
 2506 0ff4 00000000 		.4byte	.LFB267
 2507 0ff8 18000000 		.4byte	.LFE267-.LFB267
 2508 0ffc 01       		.uleb128 0x1
ARM GAS  /tmp/ccrpCuUt.s 			page 45


 2509 0ffd 9C       		.byte	0x9c
 2510 0ffe FA100000 		.4byte	0x10fa
 2511 1002 24       		.uleb128 0x24
 2512 1003 95020000 		.4byte	.LASF138
 2513 1007 01       		.byte	0x1
 2514 1008 D4       		.byte	0xd4
 2515 1009 0B080000 		.4byte	0x80b
 2516 100d D6020000 		.4byte	.LLST26
 2517 1011 29       		.uleb128 0x29
 2518 1012 F2080000 		.4byte	0x8f2
 2519 1016 02000000 		.4byte	.LBB177
 2520 101a 06000000 		.4byte	.LBE177-.LBB177
 2521 101e 01       		.byte	0x1
 2522 101f D6       		.byte	0xd6
 2523 1020 61100000 		.4byte	0x1061
 2524 1024 2A       		.uleb128 0x2a
 2525 1025 B0080000 		.4byte	0x8b0
 2526 1029 02000000 		.4byte	.LBB178
 2527 102d 06000000 		.4byte	.LBE178-.LBB178
 2528 1031 11       		.byte	0x11
 2529 1032 BF01     		.2byte	0x1bf
 2530 1034 2A       		.uleb128 0x2a
 2531 1035 9E080000 		.4byte	0x89e
 2532 1039 02000000 		.4byte	.LBB179
 2533 103d 06000000 		.4byte	.LBE179-.LBB179
 2534 1041 10       		.byte	0x10
 2535 1042 5C01     		.2byte	0x15c
 2536 1044 2A       		.uleb128 0x2a
 2537 1045 84080000 		.4byte	0x884
 2538 1049 02000000 		.4byte	.LBB180
 2539 104d 06000000 		.4byte	.LBE180-.LBB180
 2540 1051 09       		.byte	0x9
 2541 1052 BF01     		.2byte	0x1bf
 2542 1054 28       		.uleb128 0x28
 2543 1055 91080000 		.4byte	0x891
 2544 1059 F7020000 		.4byte	.LLST27
 2545 105d 00       		.byte	0
 2546 105e 00       		.byte	0
 2547 105f 00       		.byte	0
 2548 1060 00       		.byte	0
 2549 1061 29       		.uleb128 0x29
 2550 1062 85090000 		.4byte	0x985
 2551 1066 08000000 		.4byte	.LBB182
 2552 106a 08000000 		.4byte	.LBE182-.LBB182
 2553 106e 01       		.byte	0x1
 2554 106f D7       		.byte	0xd7
 2555 1070 9E100000 		.4byte	0x109e
 2556 1074 28       		.uleb128 0x28
 2557 1075 91090000 		.4byte	0x991
 2558 1079 0C030000 		.4byte	.LLST28
 2559 107d 2B       		.uleb128 0x2b
 2560 107e 08000000 		.4byte	.LBB183
 2561 1082 08000000 		.4byte	.LBE183-.LBB183
 2562 1086 2C       		.uleb128 0x2c
 2563 1087 9C090000 		.4byte	0x99c
 2564 108b 2D       		.uleb128 0x2d
 2565 108c 10000000 		.4byte	.LVL31
ARM GAS  /tmp/ccrpCuUt.s 			page 46


 2566 1090 DD110000 		.4byte	0x11dd
 2567 1094 2E       		.uleb128 0x2e
 2568 1095 01       		.uleb128 0x1
 2569 1096 50       		.byte	0x50
 2570 1097 03       		.uleb128 0x3
 2571 1098 F3       		.byte	0xf3
 2572 1099 01       		.uleb128 0x1
 2573 109a 50       		.byte	0x50
 2574 109b 00       		.byte	0
 2575 109c 00       		.byte	0
 2576 109d 00       		.byte	0
 2577 109e 2F       		.uleb128 0x2f
 2578 109f E9080000 		.4byte	0x8e9
 2579 10a3 10000000 		.4byte	.LBB184
 2580 10a7 08000000 		.4byte	.LBE184-.LBB184
 2581 10ab 01       		.byte	0x1
 2582 10ac D8       		.byte	0xd8
 2583 10ad 2A       		.uleb128 0x2a
 2584 10ae B9080000 		.4byte	0x8b9
 2585 10b2 10000000 		.4byte	.LBB185
 2586 10b6 08000000 		.4byte	.LBE185-.LBB185
 2587 10ba 11       		.byte	0x11
 2588 10bb CA01     		.2byte	0x1ca
 2589 10bd 2B       		.uleb128 0x2b
 2590 10be 10000000 		.4byte	.LBB186
 2591 10c2 08000000 		.4byte	.LBE186-.LBB186
 2592 10c6 2C       		.uleb128 0x2c
 2593 10c7 C6080000 		.4byte	0x8c6
 2594 10cb 2A       		.uleb128 0x2a
 2595 10cc A7080000 		.4byte	0x8a7
 2596 10d0 10000000 		.4byte	.LBB187
 2597 10d4 08000000 		.4byte	.LBE187-.LBB187
 2598 10d8 10       		.byte	0x10
 2599 10d9 7301     		.2byte	0x173
 2600 10db 2A       		.uleb128 0x2a
 2601 10dc 84080000 		.4byte	0x884
 2602 10e0 10000000 		.4byte	.LBB188
 2603 10e4 08000000 		.4byte	.LBE188-.LBB188
 2604 10e8 09       		.byte	0x9
 2605 10e9 CD01     		.2byte	0x1cd
 2606 10eb 28       		.uleb128 0x28
 2607 10ec 91080000 		.4byte	0x891
 2608 10f0 2D030000 		.4byte	.LLST29
 2609 10f4 00       		.byte	0
 2610 10f5 00       		.byte	0
 2611 10f6 00       		.byte	0
 2612 10f7 00       		.byte	0
 2613 10f8 00       		.byte	0
 2614 10f9 00       		.byte	0
 2615 10fa 30       		.uleb128 0x30
 2616 10fb 85090000 		.4byte	0x985
 2617 10ff 00000000 		.4byte	.LFB268
 2618 1103 08000000 		.4byte	.LFE268-.LFB268
 2619 1107 01       		.uleb128 0x1
 2620 1108 9C       		.byte	0x9c
 2621 1109 2D110000 		.4byte	0x112d
 2622 110d 28       		.uleb128 0x28
ARM GAS  /tmp/ccrpCuUt.s 			page 47


 2623 110e 91090000 		.4byte	0x991
 2624 1112 41030000 		.4byte	.LLST30
 2625 1116 2C       		.uleb128 0x2c
 2626 1117 9C090000 		.4byte	0x99c
 2627 111b 31       		.uleb128 0x31
 2628 111c 08000000 		.4byte	.LVL34
 2629 1120 DD110000 		.4byte	0x11dd
 2630 1124 2E       		.uleb128 0x2e
 2631 1125 01       		.uleb128 0x1
 2632 1126 50       		.byte	0x50
 2633 1127 03       		.uleb128 0x3
 2634 1128 F3       		.byte	0xf3
 2635 1129 01       		.uleb128 0x1
 2636 112a 50       		.byte	0x50
 2637 112b 00       		.byte	0
 2638 112c 00       		.byte	0
 2639 112d 21       		.uleb128 0x21
 2640 112e 0B070000 		.4byte	.LASF152
 2641 1132 01       		.byte	0x1
 2642 1133 FA       		.byte	0xfa
 2643 1134 00000000 		.4byte	.LFB269
 2644 1138 12000000 		.4byte	.LFE269-.LFB269
 2645 113c 01       		.uleb128 0x1
 2646 113d 9C       		.byte	0x9c
 2647 113e 81110000 		.4byte	0x1181
 2648 1142 24       		.uleb128 0x24
 2649 1143 95020000 		.4byte	.LASF138
 2650 1147 01       		.byte	0x1
 2651 1148 FA       		.byte	0xfa
 2652 1149 0B080000 		.4byte	0x80b
 2653 114d 62030000 		.4byte	.LLST31
 2654 1151 24       		.uleb128 0x24
 2655 1152 B9010000 		.4byte	.LASF139
 2656 1156 01       		.byte	0x1
 2657 1157 FA       		.byte	0xfa
 2658 1158 1D080000 		.4byte	0x81d
 2659 115c 80030000 		.4byte	.LLST32
 2660 1160 25       		.uleb128 0x25
 2661 1161 7B050000 		.4byte	.LASF140
 2662 1165 91110000 		.4byte	0x1191
 2663 1169 2D       		.uleb128 0x2d
 2664 116a 0C000000 		.4byte	.LVL36
 2665 116e E9110000 		.4byte	0x11e9
 2666 1172 2E       		.uleb128 0x2e
 2667 1173 01       		.uleb128 0x1
 2668 1174 50       		.byte	0x50
 2669 1175 02       		.uleb128 0x2
 2670 1176 74       		.byte	0x74
 2671 1177 00       		.sleb128 0
 2672 1178 2E       		.uleb128 0x2e
 2673 1179 01       		.uleb128 0x1
 2674 117a 51       		.byte	0x51
 2675 117b 03       		.uleb128 0x3
 2676 117c F3       		.byte	0xf3
 2677 117d 01       		.uleb128 0x1
 2678 117e 51       		.byte	0x51
 2679 117f 00       		.byte	0
ARM GAS  /tmp/ccrpCuUt.s 			page 48


 2680 1180 00       		.byte	0
 2681 1181 10       		.uleb128 0x10
 2682 1182 34070000 		.4byte	0x734
 2683 1186 91110000 		.4byte	0x1191
 2684 118a 11       		.uleb128 0x11
 2685 118b 49040000 		.4byte	0x449
 2686 118f 0E       		.byte	0xe
 2687 1190 00       		.byte	0
 2688 1191 18       		.uleb128 0x18
 2689 1192 81110000 		.4byte	0x1181
 2690 1196 32       		.uleb128 0x32
 2691 1197 BB000000 		.4byte	.LASF153
 2692 119b 12       		.byte	0x12
 2693 119c A706     		.2byte	0x6a7
 2694 119e C6000000 		.4byte	0xc6
 2695 11a2 33       		.uleb128 0x33
 2696 11a3 636800   		.ascii	"ch\000"
 2697 11a6 07       		.byte	0x7
 2698 11a7 0902     		.2byte	0x209
 2699 11a9 E2030000 		.4byte	0x3e2
 2700 11ad 34       		.uleb128 0x34
 2701 11ae E1020000 		.4byte	.LASF154
 2702 11b2 E1020000 		.4byte	.LASF154
 2703 11b6 0F       		.byte	0xf
 2704 11b7 1002     		.2byte	0x210
 2705 11b9 34       		.uleb128 0x34
 2706 11ba A6060000 		.4byte	.LASF155
 2707 11be A6060000 		.4byte	.LASF155
 2708 11c2 0F       		.byte	0xf
 2709 11c3 1102     		.2byte	0x211
 2710 11c5 34       		.uleb128 0x34
 2711 11c6 F0060000 		.4byte	.LASF156
 2712 11ca F0060000 		.4byte	.LASF156
 2713 11ce 0F       		.byte	0xf
 2714 11cf 1202     		.2byte	0x212
 2715 11d1 34       		.uleb128 0x34
 2716 11d2 EA030000 		.4byte	.LASF157
 2717 11d6 EA030000 		.4byte	.LASF157
 2718 11da 0F       		.byte	0xf
 2719 11db 1302     		.2byte	0x213
 2720 11dd 34       		.uleb128 0x34
 2721 11de A2030000 		.4byte	.LASF158
 2722 11e2 A2030000 		.4byte	.LASF158
 2723 11e6 0F       		.byte	0xf
 2724 11e7 1402     		.2byte	0x214
 2725 11e9 34       		.uleb128 0x34
 2726 11ea DB060000 		.4byte	.LASF159
 2727 11ee DB060000 		.4byte	.LASF159
 2728 11f2 0F       		.byte	0xf
 2729 11f3 1502     		.2byte	0x215
 2730 11f5 00       		.byte	0
 2731              		.section	.debug_abbrev,"",%progbits
 2732              	.Ldebug_abbrev0:
 2733 0000 01       		.uleb128 0x1
 2734 0001 11       		.uleb128 0x11
 2735 0002 01       		.byte	0x1
 2736 0003 25       		.uleb128 0x25
ARM GAS  /tmp/ccrpCuUt.s 			page 49


 2737 0004 0E       		.uleb128 0xe
 2738 0005 13       		.uleb128 0x13
 2739 0006 0B       		.uleb128 0xb
 2740 0007 03       		.uleb128 0x3
 2741 0008 0E       		.uleb128 0xe
 2742 0009 55       		.uleb128 0x55
 2743 000a 17       		.uleb128 0x17
 2744 000b 11       		.uleb128 0x11
 2745 000c 01       		.uleb128 0x1
 2746 000d 10       		.uleb128 0x10
 2747 000e 17       		.uleb128 0x17
 2748 000f 00       		.byte	0
 2749 0010 00       		.byte	0
 2750 0011 02       		.uleb128 0x2
 2751 0012 24       		.uleb128 0x24
 2752 0013 00       		.byte	0
 2753 0014 0B       		.uleb128 0xb
 2754 0015 0B       		.uleb128 0xb
 2755 0016 3E       		.uleb128 0x3e
 2756 0017 0B       		.uleb128 0xb
 2757 0018 03       		.uleb128 0x3
 2758 0019 08       		.uleb128 0x8
 2759 001a 00       		.byte	0
 2760 001b 00       		.byte	0
 2761 001c 03       		.uleb128 0x3
 2762 001d 24       		.uleb128 0x24
 2763 001e 00       		.byte	0
 2764 001f 0B       		.uleb128 0xb
 2765 0020 0B       		.uleb128 0xb
 2766 0021 3E       		.uleb128 0x3e
 2767 0022 0B       		.uleb128 0xb
 2768 0023 03       		.uleb128 0x3
 2769 0024 0E       		.uleb128 0xe
 2770 0025 00       		.byte	0
 2771 0026 00       		.byte	0
 2772 0027 04       		.uleb128 0x4
 2773 0028 16       		.uleb128 0x16
 2774 0029 00       		.byte	0
 2775 002a 03       		.uleb128 0x3
 2776 002b 0E       		.uleb128 0xe
 2777 002c 3A       		.uleb128 0x3a
 2778 002d 0B       		.uleb128 0xb
 2779 002e 3B       		.uleb128 0x3b
 2780 002f 0B       		.uleb128 0xb
 2781 0030 49       		.uleb128 0x49
 2782 0031 13       		.uleb128 0x13
 2783 0032 00       		.byte	0
 2784 0033 00       		.byte	0
 2785 0034 05       		.uleb128 0x5
 2786 0035 35       		.uleb128 0x35
 2787 0036 00       		.byte	0
 2788 0037 49       		.uleb128 0x49
 2789 0038 13       		.uleb128 0x13
 2790 0039 00       		.byte	0
 2791 003a 00       		.byte	0
 2792 003b 06       		.uleb128 0x6
 2793 003c 13       		.uleb128 0x13
ARM GAS  /tmp/ccrpCuUt.s 			page 50


 2794 003d 01       		.byte	0x1
 2795 003e 03       		.uleb128 0x3
 2796 003f 0E       		.uleb128 0xe
 2797 0040 0B       		.uleb128 0xb
 2798 0041 0B       		.uleb128 0xb
 2799 0042 3A       		.uleb128 0x3a
 2800 0043 0B       		.uleb128 0xb
 2801 0044 3B       		.uleb128 0x3b
 2802 0045 0B       		.uleb128 0xb
 2803 0046 01       		.uleb128 0x1
 2804 0047 13       		.uleb128 0x13
 2805 0048 00       		.byte	0
 2806 0049 00       		.byte	0
 2807 004a 07       		.uleb128 0x7
 2808 004b 0D       		.uleb128 0xd
 2809 004c 00       		.byte	0
 2810 004d 03       		.uleb128 0x3
 2811 004e 0E       		.uleb128 0xe
 2812 004f 3A       		.uleb128 0x3a
 2813 0050 0B       		.uleb128 0xb
 2814 0051 3B       		.uleb128 0x3b
 2815 0052 0B       		.uleb128 0xb
 2816 0053 49       		.uleb128 0x49
 2817 0054 13       		.uleb128 0x13
 2818 0055 38       		.uleb128 0x38
 2819 0056 0B       		.uleb128 0xb
 2820 0057 00       		.byte	0
 2821 0058 00       		.byte	0
 2822 0059 08       		.uleb128 0x8
 2823 005a 0D       		.uleb128 0xd
 2824 005b 00       		.byte	0
 2825 005c 03       		.uleb128 0x3
 2826 005d 08       		.uleb128 0x8
 2827 005e 3A       		.uleb128 0x3a
 2828 005f 0B       		.uleb128 0xb
 2829 0060 3B       		.uleb128 0x3b
 2830 0061 05       		.uleb128 0x5
 2831 0062 49       		.uleb128 0x49
 2832 0063 13       		.uleb128 0x13
 2833 0064 38       		.uleb128 0x38
 2834 0065 0B       		.uleb128 0xb
 2835 0066 00       		.byte	0
 2836 0067 00       		.byte	0
 2837 0068 09       		.uleb128 0x9
 2838 0069 0D       		.uleb128 0xd
 2839 006a 00       		.byte	0
 2840 006b 03       		.uleb128 0x3
 2841 006c 0E       		.uleb128 0xe
 2842 006d 3A       		.uleb128 0x3a
 2843 006e 0B       		.uleb128 0xb
 2844 006f 3B       		.uleb128 0x3b
 2845 0070 05       		.uleb128 0x5
 2846 0071 49       		.uleb128 0x49
 2847 0072 13       		.uleb128 0x13
 2848 0073 38       		.uleb128 0x38
 2849 0074 0B       		.uleb128 0xb
 2850 0075 00       		.byte	0
ARM GAS  /tmp/ccrpCuUt.s 			page 51


 2851 0076 00       		.byte	0
 2852 0077 0A       		.uleb128 0xa
 2853 0078 0F       		.uleb128 0xf
 2854 0079 00       		.byte	0
 2855 007a 0B       		.uleb128 0xb
 2856 007b 0B       		.uleb128 0xb
 2857 007c 49       		.uleb128 0x49
 2858 007d 13       		.uleb128 0x13
 2859 007e 00       		.byte	0
 2860 007f 00       		.byte	0
 2861 0080 0B       		.uleb128 0xb
 2862 0081 13       		.uleb128 0x13
 2863 0082 01       		.byte	0x1
 2864 0083 03       		.uleb128 0x3
 2865 0084 0E       		.uleb128 0xe
 2866 0085 0B       		.uleb128 0xb
 2867 0086 0B       		.uleb128 0xb
 2868 0087 3A       		.uleb128 0x3a
 2869 0088 0B       		.uleb128 0xb
 2870 0089 3B       		.uleb128 0x3b
 2871 008a 05       		.uleb128 0x5
 2872 008b 01       		.uleb128 0x1
 2873 008c 13       		.uleb128 0x13
 2874 008d 00       		.byte	0
 2875 008e 00       		.byte	0
 2876 008f 0C       		.uleb128 0xc
 2877 0090 15       		.uleb128 0x15
 2878 0091 01       		.byte	0x1
 2879 0092 27       		.uleb128 0x27
 2880 0093 19       		.uleb128 0x19
 2881 0094 01       		.uleb128 0x1
 2882 0095 13       		.uleb128 0x13
 2883 0096 00       		.byte	0
 2884 0097 00       		.byte	0
 2885 0098 0D       		.uleb128 0xd
 2886 0099 05       		.uleb128 0x5
 2887 009a 00       		.byte	0
 2888 009b 49       		.uleb128 0x49
 2889 009c 13       		.uleb128 0x13
 2890 009d 00       		.byte	0
 2891 009e 00       		.byte	0
 2892 009f 0E       		.uleb128 0xe
 2893 00a0 0F       		.uleb128 0xf
 2894 00a1 00       		.byte	0
 2895 00a2 0B       		.uleb128 0xb
 2896 00a3 0B       		.uleb128 0xb
 2897 00a4 00       		.byte	0
 2898 00a5 00       		.byte	0
 2899 00a6 0F       		.uleb128 0xf
 2900 00a7 13       		.uleb128 0x13
 2901 00a8 01       		.byte	0x1
 2902 00a9 03       		.uleb128 0x3
 2903 00aa 0E       		.uleb128 0xe
 2904 00ab 0B       		.uleb128 0xb
 2905 00ac 05       		.uleb128 0x5
 2906 00ad 3A       		.uleb128 0x3a
 2907 00ae 0B       		.uleb128 0xb
ARM GAS  /tmp/ccrpCuUt.s 			page 52


 2908 00af 3B       		.uleb128 0x3b
 2909 00b0 05       		.uleb128 0x5
 2910 00b1 01       		.uleb128 0x1
 2911 00b2 13       		.uleb128 0x13
 2912 00b3 00       		.byte	0
 2913 00b4 00       		.byte	0
 2914 00b5 10       		.uleb128 0x10
 2915 00b6 01       		.uleb128 0x1
 2916 00b7 01       		.byte	0x1
 2917 00b8 49       		.uleb128 0x49
 2918 00b9 13       		.uleb128 0x13
 2919 00ba 01       		.uleb128 0x1
 2920 00bb 13       		.uleb128 0x13
 2921 00bc 00       		.byte	0
 2922 00bd 00       		.byte	0
 2923 00be 11       		.uleb128 0x11
 2924 00bf 21       		.uleb128 0x21
 2925 00c0 00       		.byte	0
 2926 00c1 49       		.uleb128 0x49
 2927 00c2 13       		.uleb128 0x13
 2928 00c3 2F       		.uleb128 0x2f
 2929 00c4 0B       		.uleb128 0xb
 2930 00c5 00       		.byte	0
 2931 00c6 00       		.byte	0
 2932 00c7 12       		.uleb128 0x12
 2933 00c8 0D       		.uleb128 0xd
 2934 00c9 00       		.byte	0
 2935 00ca 03       		.uleb128 0x3
 2936 00cb 08       		.uleb128 0x8
 2937 00cc 3A       		.uleb128 0x3a
 2938 00cd 0B       		.uleb128 0xb
 2939 00ce 3B       		.uleb128 0x3b
 2940 00cf 0B       		.uleb128 0xb
 2941 00d0 49       		.uleb128 0x49
 2942 00d1 13       		.uleb128 0x13
 2943 00d2 38       		.uleb128 0x38
 2944 00d3 0B       		.uleb128 0xb
 2945 00d4 00       		.byte	0
 2946 00d5 00       		.byte	0
 2947 00d6 13       		.uleb128 0x13
 2948 00d7 13       		.uleb128 0x13
 2949 00d8 01       		.byte	0x1
 2950 00d9 0B       		.uleb128 0xb
 2951 00da 0B       		.uleb128 0xb
 2952 00db 3A       		.uleb128 0x3a
 2953 00dc 0B       		.uleb128 0xb
 2954 00dd 3B       		.uleb128 0x3b
 2955 00de 05       		.uleb128 0x5
 2956 00df 01       		.uleb128 0x1
 2957 00e0 13       		.uleb128 0x13
 2958 00e1 00       		.byte	0
 2959 00e2 00       		.byte	0
 2960 00e3 14       		.uleb128 0x14
 2961 00e4 16       		.uleb128 0x16
 2962 00e5 00       		.byte	0
 2963 00e6 03       		.uleb128 0x3
 2964 00e7 0E       		.uleb128 0xe
ARM GAS  /tmp/ccrpCuUt.s 			page 53


 2965 00e8 3A       		.uleb128 0x3a
 2966 00e9 0B       		.uleb128 0xb
 2967 00ea 3B       		.uleb128 0x3b
 2968 00eb 05       		.uleb128 0x5
 2969 00ec 49       		.uleb128 0x49
 2970 00ed 13       		.uleb128 0x13
 2971 00ee 00       		.byte	0
 2972 00ef 00       		.byte	0
 2973 00f0 15       		.uleb128 0x15
 2974 00f1 13       		.uleb128 0x13
 2975 00f2 01       		.byte	0x1
 2976 00f3 0B       		.uleb128 0xb
 2977 00f4 0B       		.uleb128 0xb
 2978 00f5 3A       		.uleb128 0x3a
 2979 00f6 0B       		.uleb128 0xb
 2980 00f7 3B       		.uleb128 0x3b
 2981 00f8 0B       		.uleb128 0xb
 2982 00f9 01       		.uleb128 0x1
 2983 00fa 13       		.uleb128 0x13
 2984 00fb 00       		.byte	0
 2985 00fc 00       		.byte	0
 2986 00fd 16       		.uleb128 0x16
 2987 00fe 17       		.uleb128 0x17
 2988 00ff 01       		.byte	0x1
 2989 0100 0B       		.uleb128 0xb
 2990 0101 0B       		.uleb128 0xb
 2991 0102 3A       		.uleb128 0x3a
 2992 0103 0B       		.uleb128 0xb
 2993 0104 3B       		.uleb128 0x3b
 2994 0105 0B       		.uleb128 0xb
 2995 0106 01       		.uleb128 0x1
 2996 0107 13       		.uleb128 0x13
 2997 0108 00       		.byte	0
 2998 0109 00       		.byte	0
 2999 010a 17       		.uleb128 0x17
 3000 010b 0D       		.uleb128 0xd
 3001 010c 00       		.byte	0
 3002 010d 03       		.uleb128 0x3
 3003 010e 0E       		.uleb128 0xe
 3004 010f 3A       		.uleb128 0x3a
 3005 0110 0B       		.uleb128 0xb
 3006 0111 3B       		.uleb128 0x3b
 3007 0112 05       		.uleb128 0x5
 3008 0113 49       		.uleb128 0x49
 3009 0114 13       		.uleb128 0x13
 3010 0115 00       		.byte	0
 3011 0116 00       		.byte	0
 3012 0117 18       		.uleb128 0x18
 3013 0118 26       		.uleb128 0x26
 3014 0119 00       		.byte	0
 3015 011a 49       		.uleb128 0x49
 3016 011b 13       		.uleb128 0x13
 3017 011c 00       		.byte	0
 3018 011d 00       		.byte	0
 3019 011e 19       		.uleb128 0x19
 3020 011f 04       		.uleb128 0x4
 3021 0120 01       		.byte	0x1
ARM GAS  /tmp/ccrpCuUt.s 			page 54


 3022 0121 0B       		.uleb128 0xb
 3023 0122 0B       		.uleb128 0xb
 3024 0123 49       		.uleb128 0x49
 3025 0124 13       		.uleb128 0x13
 3026 0125 3A       		.uleb128 0x3a
 3027 0126 0B       		.uleb128 0xb
 3028 0127 3B       		.uleb128 0x3b
 3029 0128 0B       		.uleb128 0xb
 3030 0129 01       		.uleb128 0x1
 3031 012a 13       		.uleb128 0x13
 3032 012b 00       		.byte	0
 3033 012c 00       		.byte	0
 3034 012d 1A       		.uleb128 0x1a
 3035 012e 28       		.uleb128 0x28
 3036 012f 00       		.byte	0
 3037 0130 03       		.uleb128 0x3
 3038 0131 0E       		.uleb128 0xe
 3039 0132 1C       		.uleb128 0x1c
 3040 0133 0B       		.uleb128 0xb
 3041 0134 00       		.byte	0
 3042 0135 00       		.byte	0
 3043 0136 1B       		.uleb128 0x1b
 3044 0137 2E       		.uleb128 0x2e
 3045 0138 01       		.byte	0x1
 3046 0139 03       		.uleb128 0x3
 3047 013a 0E       		.uleb128 0xe
 3048 013b 3A       		.uleb128 0x3a
 3049 013c 0B       		.uleb128 0xb
 3050 013d 3B       		.uleb128 0x3b
 3051 013e 05       		.uleb128 0x5
 3052 013f 27       		.uleb128 0x27
 3053 0140 19       		.uleb128 0x19
 3054 0141 20       		.uleb128 0x20
 3055 0142 0B       		.uleb128 0xb
 3056 0143 01       		.uleb128 0x1
 3057 0144 13       		.uleb128 0x13
 3058 0145 00       		.byte	0
 3059 0146 00       		.byte	0
 3060 0147 1C       		.uleb128 0x1c
 3061 0148 05       		.uleb128 0x5
 3062 0149 00       		.byte	0
 3063 014a 03       		.uleb128 0x3
 3064 014b 0E       		.uleb128 0xe
 3065 014c 3A       		.uleb128 0x3a
 3066 014d 0B       		.uleb128 0xb
 3067 014e 3B       		.uleb128 0x3b
 3068 014f 05       		.uleb128 0x5
 3069 0150 49       		.uleb128 0x49
 3070 0151 13       		.uleb128 0x13
 3071 0152 00       		.byte	0
 3072 0153 00       		.byte	0
 3073 0154 1D       		.uleb128 0x1d
 3074 0155 2E       		.uleb128 0x2e
 3075 0156 00       		.byte	0
 3076 0157 03       		.uleb128 0x3
 3077 0158 0E       		.uleb128 0xe
 3078 0159 3A       		.uleb128 0x3a
ARM GAS  /tmp/ccrpCuUt.s 			page 55


 3079 015a 0B       		.uleb128 0xb
 3080 015b 3B       		.uleb128 0x3b
 3081 015c 05       		.uleb128 0x5
 3082 015d 27       		.uleb128 0x27
 3083 015e 19       		.uleb128 0x19
 3084 015f 20       		.uleb128 0x20
 3085 0160 0B       		.uleb128 0xb
 3086 0161 00       		.byte	0
 3087 0162 00       		.byte	0
 3088 0163 1E       		.uleb128 0x1e
 3089 0164 34       		.uleb128 0x34
 3090 0165 00       		.byte	0
 3091 0166 03       		.uleb128 0x3
 3092 0167 0E       		.uleb128 0xe
 3093 0168 49       		.uleb128 0x49
 3094 0169 13       		.uleb128 0x13
 3095 016a 34       		.uleb128 0x34
 3096 016b 19       		.uleb128 0x19
 3097 016c 1C       		.uleb128 0x1c
 3098 016d 0E       		.uleb128 0xe
 3099 016e 00       		.byte	0
 3100 016f 00       		.byte	0
 3101 0170 1F       		.uleb128 0x1f
 3102 0171 2E       		.uleb128 0x2e
 3103 0172 01       		.byte	0x1
 3104 0173 3F       		.uleb128 0x3f
 3105 0174 19       		.uleb128 0x19
 3106 0175 03       		.uleb128 0x3
 3107 0176 0E       		.uleb128 0xe
 3108 0177 3A       		.uleb128 0x3a
 3109 0178 0B       		.uleb128 0xb
 3110 0179 3B       		.uleb128 0x3b
 3111 017a 0B       		.uleb128 0xb
 3112 017b 27       		.uleb128 0x27
 3113 017c 19       		.uleb128 0x19
 3114 017d 20       		.uleb128 0x20
 3115 017e 0B       		.uleb128 0xb
 3116 017f 01       		.uleb128 0x1
 3117 0180 13       		.uleb128 0x13
 3118 0181 00       		.byte	0
 3119 0182 00       		.byte	0
 3120 0183 20       		.uleb128 0x20
 3121 0184 05       		.uleb128 0x5
 3122 0185 00       		.byte	0
 3123 0186 03       		.uleb128 0x3
 3124 0187 0E       		.uleb128 0xe
 3125 0188 3A       		.uleb128 0x3a
 3126 0189 0B       		.uleb128 0xb
 3127 018a 3B       		.uleb128 0x3b
 3128 018b 0B       		.uleb128 0xb
 3129 018c 49       		.uleb128 0x49
 3130 018d 13       		.uleb128 0x13
 3131 018e 00       		.byte	0
 3132 018f 00       		.byte	0
 3133 0190 21       		.uleb128 0x21
 3134 0191 2E       		.uleb128 0x2e
 3135 0192 01       		.byte	0x1
ARM GAS  /tmp/ccrpCuUt.s 			page 56


 3136 0193 3F       		.uleb128 0x3f
 3137 0194 19       		.uleb128 0x19
 3138 0195 03       		.uleb128 0x3
 3139 0196 0E       		.uleb128 0xe
 3140 0197 3A       		.uleb128 0x3a
 3141 0198 0B       		.uleb128 0xb
 3142 0199 3B       		.uleb128 0x3b
 3143 019a 0B       		.uleb128 0xb
 3144 019b 27       		.uleb128 0x27
 3145 019c 19       		.uleb128 0x19
 3146 019d 11       		.uleb128 0x11
 3147 019e 01       		.uleb128 0x1
 3148 019f 12       		.uleb128 0x12
 3149 01a0 06       		.uleb128 0x6
 3150 01a1 40       		.uleb128 0x40
 3151 01a2 18       		.uleb128 0x18
 3152 01a3 9742     		.uleb128 0x2117
 3153 01a5 19       		.uleb128 0x19
 3154 01a6 01       		.uleb128 0x1
 3155 01a7 13       		.uleb128 0x13
 3156 01a8 00       		.byte	0
 3157 01a9 00       		.byte	0
 3158 01aa 22       		.uleb128 0x22
 3159 01ab 898201   		.uleb128 0x4109
 3160 01ae 00       		.byte	0
 3161 01af 11       		.uleb128 0x11
 3162 01b0 01       		.uleb128 0x1
 3163 01b1 9542     		.uleb128 0x2115
 3164 01b3 19       		.uleb128 0x19
 3165 01b4 31       		.uleb128 0x31
 3166 01b5 13       		.uleb128 0x13
 3167 01b6 00       		.byte	0
 3168 01b7 00       		.byte	0
 3169 01b8 23       		.uleb128 0x23
 3170 01b9 05       		.uleb128 0x5
 3171 01ba 00       		.byte	0
 3172 01bb 03       		.uleb128 0x3
 3173 01bc 0E       		.uleb128 0xe
 3174 01bd 3A       		.uleb128 0x3a
 3175 01be 0B       		.uleb128 0xb
 3176 01bf 3B       		.uleb128 0x3b
 3177 01c0 0B       		.uleb128 0xb
 3178 01c1 49       		.uleb128 0x49
 3179 01c2 13       		.uleb128 0x13
 3180 01c3 02       		.uleb128 0x2
 3181 01c4 18       		.uleb128 0x18
 3182 01c5 00       		.byte	0
 3183 01c6 00       		.byte	0
 3184 01c7 24       		.uleb128 0x24
 3185 01c8 05       		.uleb128 0x5
 3186 01c9 00       		.byte	0
 3187 01ca 03       		.uleb128 0x3
 3188 01cb 0E       		.uleb128 0xe
 3189 01cc 3A       		.uleb128 0x3a
 3190 01cd 0B       		.uleb128 0xb
 3191 01ce 3B       		.uleb128 0x3b
 3192 01cf 0B       		.uleb128 0xb
ARM GAS  /tmp/ccrpCuUt.s 			page 57


 3193 01d0 49       		.uleb128 0x49
 3194 01d1 13       		.uleb128 0x13
 3195 01d2 02       		.uleb128 0x2
 3196 01d3 17       		.uleb128 0x17
 3197 01d4 00       		.byte	0
 3198 01d5 00       		.byte	0
 3199 01d6 25       		.uleb128 0x25
 3200 01d7 34       		.uleb128 0x34
 3201 01d8 00       		.byte	0
 3202 01d9 03       		.uleb128 0x3
 3203 01da 0E       		.uleb128 0xe
 3204 01db 49       		.uleb128 0x49
 3205 01dc 13       		.uleb128 0x13
 3206 01dd 34       		.uleb128 0x34
 3207 01de 19       		.uleb128 0x19
 3208 01df 00       		.byte	0
 3209 01e0 00       		.byte	0
 3210 01e1 26       		.uleb128 0x26
 3211 01e2 1D       		.uleb128 0x1d
 3212 01e3 01       		.byte	0x1
 3213 01e4 31       		.uleb128 0x31
 3214 01e5 13       		.uleb128 0x13
 3215 01e6 52       		.uleb128 0x52
 3216 01e7 01       		.uleb128 0x1
 3217 01e8 55       		.uleb128 0x55
 3218 01e9 17       		.uleb128 0x17
 3219 01ea 58       		.uleb128 0x58
 3220 01eb 0B       		.uleb128 0xb
 3221 01ec 59       		.uleb128 0x59
 3222 01ed 0B       		.uleb128 0xb
 3223 01ee 01       		.uleb128 0x1
 3224 01ef 13       		.uleb128 0x13
 3225 01f0 00       		.byte	0
 3226 01f1 00       		.byte	0
 3227 01f2 27       		.uleb128 0x27
 3228 01f3 1D       		.uleb128 0x1d
 3229 01f4 01       		.byte	0x1
 3230 01f5 31       		.uleb128 0x31
 3231 01f6 13       		.uleb128 0x13
 3232 01f7 52       		.uleb128 0x52
 3233 01f8 01       		.uleb128 0x1
 3234 01f9 55       		.uleb128 0x55
 3235 01fa 17       		.uleb128 0x17
 3236 01fb 58       		.uleb128 0x58
 3237 01fc 0B       		.uleb128 0xb
 3238 01fd 59       		.uleb128 0x59
 3239 01fe 05       		.uleb128 0x5
 3240 01ff 00       		.byte	0
 3241 0200 00       		.byte	0
 3242 0201 28       		.uleb128 0x28
 3243 0202 05       		.uleb128 0x5
 3244 0203 00       		.byte	0
 3245 0204 31       		.uleb128 0x31
 3246 0205 13       		.uleb128 0x13
 3247 0206 02       		.uleb128 0x2
 3248 0207 17       		.uleb128 0x17
 3249 0208 00       		.byte	0
ARM GAS  /tmp/ccrpCuUt.s 			page 58


 3250 0209 00       		.byte	0
 3251 020a 29       		.uleb128 0x29
 3252 020b 1D       		.uleb128 0x1d
 3253 020c 01       		.byte	0x1
 3254 020d 31       		.uleb128 0x31
 3255 020e 13       		.uleb128 0x13
 3256 020f 11       		.uleb128 0x11
 3257 0210 01       		.uleb128 0x1
 3258 0211 12       		.uleb128 0x12
 3259 0212 06       		.uleb128 0x6
 3260 0213 58       		.uleb128 0x58
 3261 0214 0B       		.uleb128 0xb
 3262 0215 59       		.uleb128 0x59
 3263 0216 0B       		.uleb128 0xb
 3264 0217 01       		.uleb128 0x1
 3265 0218 13       		.uleb128 0x13
 3266 0219 00       		.byte	0
 3267 021a 00       		.byte	0
 3268 021b 2A       		.uleb128 0x2a
 3269 021c 1D       		.uleb128 0x1d
 3270 021d 01       		.byte	0x1
 3271 021e 31       		.uleb128 0x31
 3272 021f 13       		.uleb128 0x13
 3273 0220 11       		.uleb128 0x11
 3274 0221 01       		.uleb128 0x1
 3275 0222 12       		.uleb128 0x12
 3276 0223 06       		.uleb128 0x6
 3277 0224 58       		.uleb128 0x58
 3278 0225 0B       		.uleb128 0xb
 3279 0226 59       		.uleb128 0x59
 3280 0227 05       		.uleb128 0x5
 3281 0228 00       		.byte	0
 3282 0229 00       		.byte	0
 3283 022a 2B       		.uleb128 0x2b
 3284 022b 0B       		.uleb128 0xb
 3285 022c 01       		.byte	0x1
 3286 022d 11       		.uleb128 0x11
 3287 022e 01       		.uleb128 0x1
 3288 022f 12       		.uleb128 0x12
 3289 0230 06       		.uleb128 0x6
 3290 0231 00       		.byte	0
 3291 0232 00       		.byte	0
 3292 0233 2C       		.uleb128 0x2c
 3293 0234 34       		.uleb128 0x34
 3294 0235 00       		.byte	0
 3295 0236 31       		.uleb128 0x31
 3296 0237 13       		.uleb128 0x13
 3297 0238 00       		.byte	0
 3298 0239 00       		.byte	0
 3299 023a 2D       		.uleb128 0x2d
 3300 023b 898201   		.uleb128 0x4109
 3301 023e 01       		.byte	0x1
 3302 023f 11       		.uleb128 0x11
 3303 0240 01       		.uleb128 0x1
 3304 0241 31       		.uleb128 0x31
 3305 0242 13       		.uleb128 0x13
 3306 0243 00       		.byte	0
ARM GAS  /tmp/ccrpCuUt.s 			page 59


 3307 0244 00       		.byte	0
 3308 0245 2E       		.uleb128 0x2e
 3309 0246 8A8201   		.uleb128 0x410a
 3310 0249 00       		.byte	0
 3311 024a 02       		.uleb128 0x2
 3312 024b 18       		.uleb128 0x18
 3313 024c 9142     		.uleb128 0x2111
 3314 024e 18       		.uleb128 0x18
 3315 024f 00       		.byte	0
 3316 0250 00       		.byte	0
 3317 0251 2F       		.uleb128 0x2f
 3318 0252 1D       		.uleb128 0x1d
 3319 0253 01       		.byte	0x1
 3320 0254 31       		.uleb128 0x31
 3321 0255 13       		.uleb128 0x13
 3322 0256 11       		.uleb128 0x11
 3323 0257 01       		.uleb128 0x1
 3324 0258 12       		.uleb128 0x12
 3325 0259 06       		.uleb128 0x6
 3326 025a 58       		.uleb128 0x58
 3327 025b 0B       		.uleb128 0xb
 3328 025c 59       		.uleb128 0x59
 3329 025d 0B       		.uleb128 0xb
 3330 025e 00       		.byte	0
 3331 025f 00       		.byte	0
 3332 0260 30       		.uleb128 0x30
 3333 0261 2E       		.uleb128 0x2e
 3334 0262 01       		.byte	0x1
 3335 0263 31       		.uleb128 0x31
 3336 0264 13       		.uleb128 0x13
 3337 0265 11       		.uleb128 0x11
 3338 0266 01       		.uleb128 0x1
 3339 0267 12       		.uleb128 0x12
 3340 0268 06       		.uleb128 0x6
 3341 0269 40       		.uleb128 0x40
 3342 026a 18       		.uleb128 0x18
 3343 026b 9742     		.uleb128 0x2117
 3344 026d 19       		.uleb128 0x19
 3345 026e 01       		.uleb128 0x1
 3346 026f 13       		.uleb128 0x13
 3347 0270 00       		.byte	0
 3348 0271 00       		.byte	0
 3349 0272 31       		.uleb128 0x31
 3350 0273 898201   		.uleb128 0x4109
 3351 0276 01       		.byte	0x1
 3352 0277 11       		.uleb128 0x11
 3353 0278 01       		.uleb128 0x1
 3354 0279 9542     		.uleb128 0x2115
 3355 027b 19       		.uleb128 0x19
 3356 027c 31       		.uleb128 0x31
 3357 027d 13       		.uleb128 0x13
 3358 027e 00       		.byte	0
 3359 027f 00       		.byte	0
 3360 0280 32       		.uleb128 0x32
 3361 0281 34       		.uleb128 0x34
 3362 0282 00       		.byte	0
 3363 0283 03       		.uleb128 0x3
ARM GAS  /tmp/ccrpCuUt.s 			page 60


 3364 0284 0E       		.uleb128 0xe
 3365 0285 3A       		.uleb128 0x3a
 3366 0286 0B       		.uleb128 0xb
 3367 0287 3B       		.uleb128 0x3b
 3368 0288 05       		.uleb128 0x5
 3369 0289 49       		.uleb128 0x49
 3370 028a 13       		.uleb128 0x13
 3371 028b 3F       		.uleb128 0x3f
 3372 028c 19       		.uleb128 0x19
 3373 028d 3C       		.uleb128 0x3c
 3374 028e 19       		.uleb128 0x19
 3375 028f 00       		.byte	0
 3376 0290 00       		.byte	0
 3377 0291 33       		.uleb128 0x33
 3378 0292 34       		.uleb128 0x34
 3379 0293 00       		.byte	0
 3380 0294 03       		.uleb128 0x3
 3381 0295 08       		.uleb128 0x8
 3382 0296 3A       		.uleb128 0x3a
 3383 0297 0B       		.uleb128 0xb
 3384 0298 3B       		.uleb128 0x3b
 3385 0299 05       		.uleb128 0x5
 3386 029a 49       		.uleb128 0x49
 3387 029b 13       		.uleb128 0x13
 3388 029c 3F       		.uleb128 0x3f
 3389 029d 19       		.uleb128 0x19
 3390 029e 3C       		.uleb128 0x3c
 3391 029f 19       		.uleb128 0x19
 3392 02a0 00       		.byte	0
 3393 02a1 00       		.byte	0
 3394 02a2 34       		.uleb128 0x34
 3395 02a3 2E       		.uleb128 0x2e
 3396 02a4 00       		.byte	0
 3397 02a5 3F       		.uleb128 0x3f
 3398 02a6 19       		.uleb128 0x19
 3399 02a7 3C       		.uleb128 0x3c
 3400 02a8 19       		.uleb128 0x19
 3401 02a9 6E       		.uleb128 0x6e
 3402 02aa 0E       		.uleb128 0xe
 3403 02ab 03       		.uleb128 0x3
 3404 02ac 0E       		.uleb128 0xe
 3405 02ad 3A       		.uleb128 0x3a
 3406 02ae 0B       		.uleb128 0xb
 3407 02af 3B       		.uleb128 0x3b
 3408 02b0 05       		.uleb128 0x5
 3409 02b1 00       		.byte	0
 3410 02b2 00       		.byte	0
 3411 02b3 00       		.byte	0
 3412              		.section	.debug_loc,"",%progbits
 3413              	.Ldebug_loc0:
 3414              	.LLST0:
 3415 0000 00000000 		.4byte	.LVL2
 3416 0004 0F000000 		.4byte	.LVL4-1
 3417 0008 0100     		.2byte	0x1
 3418 000a 50       		.byte	0x50
 3419 000b 0F000000 		.4byte	.LVL4-1
 3420 000f 1C000000 		.4byte	.LFE260
ARM GAS  /tmp/ccrpCuUt.s 			page 61


 3421 0013 0100     		.2byte	0x1
 3422 0015 54       		.byte	0x54
 3423 0016 00000000 		.4byte	0
 3424 001a 00000000 		.4byte	0
 3425              	.LLST1:
 3426 001e 00000000 		.4byte	.LVL2
 3427 0022 0F000000 		.4byte	.LVL4-1
 3428 0026 0100     		.2byte	0x1
 3429 0028 51       		.byte	0x51
 3430 0029 0F000000 		.4byte	.LVL4-1
 3431 002d 1C000000 		.4byte	.LFE260
 3432 0031 0400     		.2byte	0x4
 3433 0033 F3       		.byte	0xf3
 3434 0034 01       		.uleb128 0x1
 3435 0035 51       		.byte	0x51
 3436 0036 9F       		.byte	0x9f
 3437 0037 00000000 		.4byte	0
 3438 003b 00000000 		.4byte	0
 3439              	.LLST2:
 3440 003f 00000000 		.4byte	.LVL2
 3441 0043 0A000000 		.4byte	.LVL3
 3442 0047 0300     		.2byte	0x3
 3443 0049 08       		.byte	0x8
 3444 004a 20       		.byte	0x20
 3445 004b 9F       		.byte	0x9f
 3446 004c 00000000 		.4byte	0
 3447 0050 00000000 		.4byte	0
 3448              	.LLST3:
 3449 0054 14000000 		.4byte	.LVL5
 3450 0058 1A000000 		.4byte	.LVL6
 3451 005c 0200     		.2byte	0x2
 3452 005e 30       		.byte	0x30
 3453 005f 9F       		.byte	0x9f
 3454 0060 00000000 		.4byte	0
 3455 0064 00000000 		.4byte	0
 3456              	.LLST4:
 3457 0068 00000000 		.4byte	.LVL7
 3458 006c 0D000000 		.4byte	.LVL9-1
 3459 0070 0100     		.2byte	0x1
 3460 0072 50       		.byte	0x50
 3461 0073 0D000000 		.4byte	.LVL9-1
 3462 0077 1A000000 		.4byte	.LFE261
 3463 007b 0100     		.2byte	0x1
 3464 007d 54       		.byte	0x54
 3465 007e 00000000 		.4byte	0
 3466 0082 00000000 		.4byte	0
 3467              	.LLST5:
 3468 0086 00000000 		.4byte	.LVL7
 3469 008a 0A000000 		.4byte	.LVL8
 3470 008e 0300     		.2byte	0x3
 3471 0090 08       		.byte	0x8
 3472 0091 20       		.byte	0x20
 3473 0092 9F       		.byte	0x9f
 3474 0093 00000000 		.4byte	0
 3475 0097 00000000 		.4byte	0
 3476              	.LLST6:
 3477 009b 12000000 		.4byte	.LVL10
ARM GAS  /tmp/ccrpCuUt.s 			page 62


 3478 009f 18000000 		.4byte	.LVL11
 3479 00a3 0200     		.2byte	0x2
 3480 00a5 30       		.byte	0x30
 3481 00a6 9F       		.byte	0x9f
 3482 00a7 00000000 		.4byte	0
 3483 00ab 00000000 		.4byte	0
 3484              	.LLST7:
 3485 00af 00000000 		.4byte	.LVL12
 3486 00b3 0A000000 		.4byte	.LVL14
 3487 00b7 0100     		.2byte	0x1
 3488 00b9 51       		.byte	0x51
 3489 00ba 0A000000 		.4byte	.LVL14
 3490 00be 14000000 		.4byte	.LFE262
 3491 00c2 0300     		.2byte	0x3
 3492 00c4 71       		.byte	0x71
 3493 00c5 01       		.sleb128 1
 3494 00c6 9F       		.byte	0x9f
 3495 00c7 00000000 		.4byte	0
 3496 00cb 00000000 		.4byte	0
 3497              	.LLST8:
 3498 00cf 00000000 		.4byte	.LVL12
 3499 00d3 06000000 		.4byte	.LVL13
 3500 00d7 0300     		.2byte	0x3
 3501 00d9 08       		.byte	0x8
 3502 00da 20       		.byte	0x20
 3503 00db 9F       		.byte	0x9f
 3504 00dc 00000000 		.4byte	0
 3505 00e0 00000000 		.4byte	0
 3506              	.LLST9:
 3507 00e4 0C000000 		.4byte	.LVL15
 3508 00e8 12000000 		.4byte	.LVL16
 3509 00ec 0200     		.2byte	0x2
 3510 00ee 30       		.byte	0x30
 3511 00ef 9F       		.byte	0x9f
 3512 00f0 00000000 		.4byte	0
 3513 00f4 00000000 		.4byte	0
 3514              	.LLST10:
 3515 00f8 00000000 		.4byte	.LVL17
 3516 00fc 0F000000 		.4byte	.LVL19-1
 3517 0100 0100     		.2byte	0x1
 3518 0102 50       		.byte	0x50
 3519 0103 0F000000 		.4byte	.LVL19-1
 3520 0107 18000000 		.4byte	.LFE263
 3521 010b 0400     		.2byte	0x4
 3522 010d F3       		.byte	0xf3
 3523 010e 01       		.uleb128 0x1
 3524 010f 50       		.byte	0x50
 3525 0110 9F       		.byte	0x9f
 3526 0111 00000000 		.4byte	0
 3527 0115 00000000 		.4byte	0
 3528              	.LLST11:
 3529 0119 00000000 		.4byte	.LVL17
 3530 011d 0F000000 		.4byte	.LVL19-1
 3531 0121 0100     		.2byte	0x1
 3532 0123 51       		.byte	0x51
 3533 0124 0F000000 		.4byte	.LVL19-1
 3534 0128 18000000 		.4byte	.LFE263
ARM GAS  /tmp/ccrpCuUt.s 			page 63


 3535 012c 0400     		.2byte	0x4
 3536 012e F3       		.byte	0xf3
 3537 012f 01       		.uleb128 0x1
 3538 0130 51       		.byte	0x51
 3539 0131 9F       		.byte	0x9f
 3540 0132 00000000 		.4byte	0
 3541 0136 00000000 		.4byte	0
 3542              	.LLST12:
 3543 013a 00000000 		.4byte	.LVL17
 3544 013e 08000000 		.4byte	.LVL18
 3545 0142 0300     		.2byte	0x3
 3546 0144 08       		.byte	0x8
 3547 0145 20       		.byte	0x20
 3548 0146 9F       		.byte	0x9f
 3549 0147 00000000 		.4byte	0
 3550 014b 00000000 		.4byte	0
 3551              	.LLST13:
 3552 014f 08000000 		.4byte	.LVL18
 3553 0153 0F000000 		.4byte	.LVL19-1
 3554 0157 0100     		.2byte	0x1
 3555 0159 51       		.byte	0x51
 3556 015a 0F000000 		.4byte	.LVL19-1
 3557 015e 10000000 		.4byte	.LVL19
 3558 0162 0400     		.2byte	0x4
 3559 0164 F3       		.byte	0xf3
 3560 0165 01       		.uleb128 0x1
 3561 0166 51       		.byte	0x51
 3562 0167 9F       		.byte	0x9f
 3563 0168 00000000 		.4byte	0
 3564 016c 00000000 		.4byte	0
 3565              	.LLST14:
 3566 0170 08000000 		.4byte	.LVL18
 3567 0174 0F000000 		.4byte	.LVL19-1
 3568 0178 0100     		.2byte	0x1
 3569 017a 50       		.byte	0x50
 3570 017b 0F000000 		.4byte	.LVL19-1
 3571 017f 10000000 		.4byte	.LVL19
 3572 0183 0400     		.2byte	0x4
 3573 0185 F3       		.byte	0xf3
 3574 0186 01       		.uleb128 0x1
 3575 0187 50       		.byte	0x50
 3576 0188 9F       		.byte	0x9f
 3577 0189 00000000 		.4byte	0
 3578 018d 00000000 		.4byte	0
 3579              	.LLST15:
 3580 0191 10000000 		.4byte	.LVL19
 3581 0195 16000000 		.4byte	.LVL20
 3582 0199 0200     		.2byte	0x2
 3583 019b 30       		.byte	0x30
 3584 019c 9F       		.byte	0x9f
 3585 019d 00000000 		.4byte	0
 3586 01a1 00000000 		.4byte	0
 3587              	.LLST16:
 3588 01a5 00000000 		.4byte	.LVL21
 3589 01a9 07000000 		.4byte	.LVL22-1
 3590 01ad 0100     		.2byte	0x1
 3591 01af 50       		.byte	0x50
ARM GAS  /tmp/ccrpCuUt.s 			page 64


 3592 01b0 07000000 		.4byte	.LVL22-1
 3593 01b4 08000000 		.4byte	.LFE264
 3594 01b8 0400     		.2byte	0x4
 3595 01ba F3       		.byte	0xf3
 3596 01bb 01       		.uleb128 0x1
 3597 01bc 50       		.byte	0x50
 3598 01bd 9F       		.byte	0x9f
 3599 01be 00000000 		.4byte	0
 3600 01c2 00000000 		.4byte	0
 3601              	.LLST17:
 3602 01c6 00000000 		.4byte	.LVL21
 3603 01ca 07000000 		.4byte	.LVL22-1
 3604 01ce 0100     		.2byte	0x1
 3605 01d0 51       		.byte	0x51
 3606 01d1 07000000 		.4byte	.LVL22-1
 3607 01d5 08000000 		.4byte	.LFE264
 3608 01d9 0400     		.2byte	0x4
 3609 01db F3       		.byte	0xf3
 3610 01dc 01       		.uleb128 0x1
 3611 01dd 51       		.byte	0x51
 3612 01de 9F       		.byte	0x9f
 3613 01df 00000000 		.4byte	0
 3614 01e3 00000000 		.4byte	0
 3615              	.LLST18:
 3616 01e7 00000000 		.4byte	.LVL23
 3617 01eb 0F000000 		.4byte	.LVL25-1
 3618 01ef 0100     		.2byte	0x1
 3619 01f1 50       		.byte	0x50
 3620 01f2 0F000000 		.4byte	.LVL25-1
 3621 01f6 18000000 		.4byte	.LFE265
 3622 01fa 0400     		.2byte	0x4
 3623 01fc F3       		.byte	0xf3
 3624 01fd 01       		.uleb128 0x1
 3625 01fe 50       		.byte	0x50
 3626 01ff 9F       		.byte	0x9f
 3627 0200 00000000 		.4byte	0
 3628 0204 00000000 		.4byte	0
 3629              	.LLST19:
 3630 0208 00000000 		.4byte	.LVL23
 3631 020c 0F000000 		.4byte	.LVL25-1
 3632 0210 0100     		.2byte	0x1
 3633 0212 51       		.byte	0x51
 3634 0213 0F000000 		.4byte	.LVL25-1
 3635 0217 18000000 		.4byte	.LFE265
 3636 021b 0400     		.2byte	0x4
 3637 021d F3       		.byte	0xf3
 3638 021e 01       		.uleb128 0x1
 3639 021f 51       		.byte	0x51
 3640 0220 9F       		.byte	0x9f
 3641 0221 00000000 		.4byte	0
 3642 0225 00000000 		.4byte	0
 3643              	.LLST20:
 3644 0229 00000000 		.4byte	.LVL23
 3645 022d 08000000 		.4byte	.LVL24
 3646 0231 0300     		.2byte	0x3
 3647 0233 08       		.byte	0x8
 3648 0234 20       		.byte	0x20
ARM GAS  /tmp/ccrpCuUt.s 			page 65


 3649 0235 9F       		.byte	0x9f
 3650 0236 00000000 		.4byte	0
 3651 023a 00000000 		.4byte	0
 3652              	.LLST21:
 3653 023e 08000000 		.4byte	.LVL24
 3654 0242 0F000000 		.4byte	.LVL25-1
 3655 0246 0100     		.2byte	0x1
 3656 0248 51       		.byte	0x51
 3657 0249 0F000000 		.4byte	.LVL25-1
 3658 024d 10000000 		.4byte	.LVL25
 3659 0251 0400     		.2byte	0x4
 3660 0253 F3       		.byte	0xf3
 3661 0254 01       		.uleb128 0x1
 3662 0255 51       		.byte	0x51
 3663 0256 9F       		.byte	0x9f
 3664 0257 00000000 		.4byte	0
 3665 025b 00000000 		.4byte	0
 3666              	.LLST22:
 3667 025f 08000000 		.4byte	.LVL24
 3668 0263 0F000000 		.4byte	.LVL25-1
 3669 0267 0100     		.2byte	0x1
 3670 0269 50       		.byte	0x50
 3671 026a 0F000000 		.4byte	.LVL25-1
 3672 026e 10000000 		.4byte	.LVL25
 3673 0272 0400     		.2byte	0x4
 3674 0274 F3       		.byte	0xf3
 3675 0275 01       		.uleb128 0x1
 3676 0276 50       		.byte	0x50
 3677 0277 9F       		.byte	0x9f
 3678 0278 00000000 		.4byte	0
 3679 027c 00000000 		.4byte	0
 3680              	.LLST23:
 3681 0280 10000000 		.4byte	.LVL25
 3682 0284 16000000 		.4byte	.LVL26
 3683 0288 0200     		.2byte	0x2
 3684 028a 30       		.byte	0x30
 3685 028b 9F       		.byte	0x9f
 3686 028c 00000000 		.4byte	0
 3687 0290 00000000 		.4byte	0
 3688              	.LLST24:
 3689 0294 00000000 		.4byte	.LVL27
 3690 0298 07000000 		.4byte	.LVL28-1
 3691 029c 0100     		.2byte	0x1
 3692 029e 50       		.byte	0x50
 3693 029f 07000000 		.4byte	.LVL28-1
 3694 02a3 08000000 		.4byte	.LFE266
 3695 02a7 0400     		.2byte	0x4
 3696 02a9 F3       		.byte	0xf3
 3697 02aa 01       		.uleb128 0x1
 3698 02ab 50       		.byte	0x50
 3699 02ac 9F       		.byte	0x9f
 3700 02ad 00000000 		.4byte	0
 3701 02b1 00000000 		.4byte	0
 3702              	.LLST25:
 3703 02b5 00000000 		.4byte	.LVL27
 3704 02b9 07000000 		.4byte	.LVL28-1
 3705 02bd 0100     		.2byte	0x1
ARM GAS  /tmp/ccrpCuUt.s 			page 66


 3706 02bf 51       		.byte	0x51
 3707 02c0 07000000 		.4byte	.LVL28-1
 3708 02c4 08000000 		.4byte	.LFE266
 3709 02c8 0400     		.2byte	0x4
 3710 02ca F3       		.byte	0xf3
 3711 02cb 01       		.uleb128 0x1
 3712 02cc 51       		.byte	0x51
 3713 02cd 9F       		.byte	0x9f
 3714 02ce 00000000 		.4byte	0
 3715 02d2 00000000 		.4byte	0
 3716              	.LLST26:
 3717 02d6 00000000 		.4byte	.LVL29
 3718 02da 0F000000 		.4byte	.LVL31-1
 3719 02de 0100     		.2byte	0x1
 3720 02e0 50       		.byte	0x50
 3721 02e1 0F000000 		.4byte	.LVL31-1
 3722 02e5 18000000 		.4byte	.LFE267
 3723 02e9 0400     		.2byte	0x4
 3724 02eb F3       		.byte	0xf3
 3725 02ec 01       		.uleb128 0x1
 3726 02ed 50       		.byte	0x50
 3727 02ee 9F       		.byte	0x9f
 3728 02ef 00000000 		.4byte	0
 3729 02f3 00000000 		.4byte	0
 3730              	.LLST27:
 3731 02f7 00000000 		.4byte	.LVL29
 3732 02fb 08000000 		.4byte	.LVL30
 3733 02ff 0300     		.2byte	0x3
 3734 0301 08       		.byte	0x8
 3735 0302 20       		.byte	0x20
 3736 0303 9F       		.byte	0x9f
 3737 0304 00000000 		.4byte	0
 3738 0308 00000000 		.4byte	0
 3739              	.LLST28:
 3740 030c 08000000 		.4byte	.LVL30
 3741 0310 0F000000 		.4byte	.LVL31-1
 3742 0314 0100     		.2byte	0x1
 3743 0316 50       		.byte	0x50
 3744 0317 0F000000 		.4byte	.LVL31-1
 3745 031b 10000000 		.4byte	.LVL31
 3746 031f 0400     		.2byte	0x4
 3747 0321 F3       		.byte	0xf3
 3748 0322 01       		.uleb128 0x1
 3749 0323 50       		.byte	0x50
 3750 0324 9F       		.byte	0x9f
 3751 0325 00000000 		.4byte	0
 3752 0329 00000000 		.4byte	0
 3753              	.LLST29:
 3754 032d 10000000 		.4byte	.LVL31
 3755 0331 16000000 		.4byte	.LVL32
 3756 0335 0200     		.2byte	0x2
 3757 0337 30       		.byte	0x30
 3758 0338 9F       		.byte	0x9f
 3759 0339 00000000 		.4byte	0
 3760 033d 00000000 		.4byte	0
 3761              	.LLST30:
 3762 0341 00000000 		.4byte	.LVL33
ARM GAS  /tmp/ccrpCuUt.s 			page 67


 3763 0345 07000000 		.4byte	.LVL34-1
 3764 0349 0100     		.2byte	0x1
 3765 034b 50       		.byte	0x50
 3766 034c 07000000 		.4byte	.LVL34-1
 3767 0350 08000000 		.4byte	.LFE268
 3768 0354 0400     		.2byte	0x4
 3769 0356 F3       		.byte	0xf3
 3770 0357 01       		.uleb128 0x1
 3771 0358 50       		.byte	0x50
 3772 0359 9F       		.byte	0x9f
 3773 035a 00000000 		.4byte	0
 3774 035e 00000000 		.4byte	0
 3775              	.LLST31:
 3776 0362 00000000 		.4byte	.LVL35
 3777 0366 0B000000 		.4byte	.LVL36-1
 3778 036a 0100     		.2byte	0x1
 3779 036c 50       		.byte	0x50
 3780 036d 0B000000 		.4byte	.LVL36-1
 3781 0371 12000000 		.4byte	.LFE269
 3782 0375 0100     		.2byte	0x1
 3783 0377 54       		.byte	0x54
 3784 0378 00000000 		.4byte	0
 3785 037c 00000000 		.4byte	0
 3786              	.LLST32:
 3787 0380 00000000 		.4byte	.LVL35
 3788 0384 0B000000 		.4byte	.LVL36-1
 3789 0388 0100     		.2byte	0x1
 3790 038a 51       		.byte	0x51
 3791 038b 0B000000 		.4byte	.LVL36-1
 3792 038f 12000000 		.4byte	.LFE269
 3793 0393 0400     		.2byte	0x4
 3794 0395 F3       		.byte	0xf3
 3795 0396 01       		.uleb128 0x1
 3796 0397 51       		.byte	0x51
 3797 0398 9F       		.byte	0x9f
 3798 0399 00000000 		.4byte	0
 3799 039d 00000000 		.4byte	0
 3800              		.section	.debug_aranges,"",%progbits
 3801 0000 74000000 		.4byte	0x74
 3802 0004 0200     		.2byte	0x2
 3803 0006 00000000 		.4byte	.Ldebug_info0
 3804 000a 04       		.byte	0x4
 3805 000b 00       		.byte	0
 3806 000c 0000     		.2byte	0
 3807 000e 0000     		.2byte	0
 3808 0010 00000000 		.4byte	.LFB258
 3809 0014 04000000 		.4byte	.LFE258-.LFB258
 3810 0018 00000000 		.4byte	.LFB259
 3811 001c 0A000000 		.4byte	.LFE259-.LFB259
 3812 0020 00000000 		.4byte	.LFB260
 3813 0024 1C000000 		.4byte	.LFE260-.LFB260
 3814 0028 00000000 		.4byte	.LFB261
 3815 002c 1A000000 		.4byte	.LFE261-.LFB261
 3816 0030 00000000 		.4byte	.LFB262
 3817 0034 14000000 		.4byte	.LFE262-.LFB262
 3818 0038 00000000 		.4byte	.LFB263
 3819 003c 18000000 		.4byte	.LFE263-.LFB263
ARM GAS  /tmp/ccrpCuUt.s 			page 68


 3820 0040 00000000 		.4byte	.LFB264
 3821 0044 08000000 		.4byte	.LFE264-.LFB264
 3822 0048 00000000 		.4byte	.LFB265
 3823 004c 18000000 		.4byte	.LFE265-.LFB265
 3824 0050 00000000 		.4byte	.LFB266
 3825 0054 08000000 		.4byte	.LFE266-.LFB266
 3826 0058 00000000 		.4byte	.LFB267
 3827 005c 18000000 		.4byte	.LFE267-.LFB267
 3828 0060 00000000 		.4byte	.LFB268
 3829 0064 08000000 		.4byte	.LFE268-.LFB268
 3830 0068 00000000 		.4byte	.LFB269
 3831 006c 12000000 		.4byte	.LFE269-.LFB269
 3832 0070 00000000 		.4byte	0
 3833 0074 00000000 		.4byte	0
 3834              		.section	.debug_ranges,"",%progbits
 3835              	.Ldebug_ranges0:
 3836 0000 02000000 		.4byte	.LBB108
 3837 0004 04000000 		.4byte	.LBE108
 3838 0008 06000000 		.4byte	.LBB117
 3839 000c 0A000000 		.4byte	.LBE117
 3840 0010 00000000 		.4byte	0
 3841 0014 00000000 		.4byte	0
 3842 0018 02000000 		.4byte	.LBB124
 3843 001c 04000000 		.4byte	.LBE124
 3844 0020 06000000 		.4byte	.LBB133
 3845 0024 0A000000 		.4byte	.LBE133
 3846 0028 00000000 		.4byte	0
 3847 002c 00000000 		.4byte	0
 3848 0030 00000000 		.4byte	.LFB258
 3849 0034 04000000 		.4byte	.LFE258
 3850 0038 00000000 		.4byte	.LFB259
 3851 003c 0A000000 		.4byte	.LFE259
 3852 0040 00000000 		.4byte	.LFB260
 3853 0044 1C000000 		.4byte	.LFE260
 3854 0048 00000000 		.4byte	.LFB261
 3855 004c 1A000000 		.4byte	.LFE261
 3856 0050 00000000 		.4byte	.LFB262
 3857 0054 14000000 		.4byte	.LFE262
 3858 0058 00000000 		.4byte	.LFB263
 3859 005c 18000000 		.4byte	.LFE263
 3860 0060 00000000 		.4byte	.LFB264
 3861 0064 08000000 		.4byte	.LFE264
 3862 0068 00000000 		.4byte	.LFB265
 3863 006c 18000000 		.4byte	.LFE265
 3864 0070 00000000 		.4byte	.LFB266
 3865 0074 08000000 		.4byte	.LFE266
 3866 0078 00000000 		.4byte	.LFB267
 3867 007c 18000000 		.4byte	.LFE267
 3868 0080 00000000 		.4byte	.LFB268
 3869 0084 08000000 		.4byte	.LFE268
 3870 0088 00000000 		.4byte	.LFB269
 3871 008c 12000000 		.4byte	.LFE269
 3872 0090 00000000 		.4byte	0
 3873 0094 00000000 		.4byte	0
 3874              		.section	.debug_line,"",%progbits
 3875              	.Ldebug_line0:
 3876 0000 19040000 		.section	.debug_str,"MS",%progbits,1
ARM GAS  /tmp/ccrpCuUt.s 			page 69


 3876      0200BA02 
 3876      00000201 
 3876      FB0E0D00 
 3876      01010101 
 3877              	.LASF51:
 3878 0000 72656164 		.ascii	"ready_list_t\000"
 3878      795F6C69 
 3878      73745F74 
 3878      00
 3879              	.LASF85:
 3880 000d 44494552 		.ascii	"DIER\000"
 3880      00
 3881              	.LASF99:
 3882 0012 77747472 		.ascii	"wttrp\000"
 3882      7000
 3883              	.LASF96:
 3884 0018 7264796D 		.ascii	"rdymsg\000"
 3884      736700
 3885              	.LASF17:
 3886 001f 75696E74 		.ascii	"uint64_t\000"
 3886      36345F74 
 3886      00
 3887              	.LASF7:
 3888 0028 5F5F7569 		.ascii	"__uint8_t\000"
 3888      6E74385F 
 3888      7400
 3889              	.LASF117:
 3890 0032 4750545F 		.ascii	"GPT_ONESHOT\000"
 3890      4F4E4553 
 3890      484F5400 
 3891              	.LASF50:
 3892 003e 63685F74 		.ascii	"ch_threads_queue\000"
 3892      68726561 
 3892      64735F71 
 3892      75657565 
 3892      00
 3893              	.LASF70:
 3894 004f 73797374 		.ascii	"system_debug_t\000"
 3894      656D5F64 
 3894      65627567 
 3894      5F7400
 3895              	.LASF130:
 3896 005e 706F7274 		.ascii	"port_lock\000"
 3896      5F6C6F63 
 3896      6B00
 3897              	.LASF148:
 3898 0068 67707443 		.ascii	"gptChangeInterval\000"
 3898      68616E67 
 3898      65496E74 
 3898      65727661 
 3898      6C00
 3899              	.LASF13:
 3900 007a 6C6F6E67 		.ascii	"long long unsigned int\000"
 3900      206C6F6E 
 3900      6720756E 
 3900      7369676E 
 3900      65642069 
ARM GAS  /tmp/ccrpCuUt.s 			page 70


 3901              	.LASF97:
 3902 0091 65786974 		.ascii	"exitcode\000"
 3902      636F6465 
 3902      00
 3903              	.LASF77:
 3904 009a 6D61696E 		.ascii	"mainthread\000"
 3904      74687265 
 3904      616400
 3905              	.LASF67:
 3906 00a5 76697274 		.ascii	"virtual_timers_list_t\000"
 3906      75616C5F 
 3906      74696D65 
 3906      72735F6C 
 3906      6973745F 
 3907              	.LASF153:
 3908 00bb 49544D5F 		.ascii	"ITM_RxBuffer\000"
 3908      52784275 
 3908      66666572 
 3908      00
 3909              	.LASF89:
 3910 00c8 42445452 		.ascii	"BDTR\000"
 3910      00
 3911              	.LASF126:
 3912 00cd 66726571 		.ascii	"frequency\000"
 3912      75656E63 
 3912      7900
 3913              	.LASF30:
 3914 00d7 705F7072 		.ascii	"p_prio\000"
 3914      696F00
 3915              	.LASF86:
 3916 00de 43434D52 		.ascii	"CCMR1\000"
 3916      3100
 3917              	.LASF87:
 3918 00e4 43434D52 		.ascii	"CCMR2\000"
 3918      3200
 3919              	.LASF91:
 3920 00ea 43434D52 		.ascii	"CCMR3\000"
 3920      3300
 3921              	.LASF3:
 3922 00f0 7369676E 		.ascii	"signed char\000"
 3922      65642063 
 3922      68617200 
 3923              	.LASF107:
 3924 00fc 6D5F7175 		.ascii	"m_queue\000"
 3924      65756500 
 3925              	.LASF116:
 3926 0104 4750545F 		.ascii	"GPT_CONTINUOUS\000"
 3926      434F4E54 
 3926      494E554F 
 3926      555300
 3927              	.LASF76:
 3928 0113 76746C69 		.ascii	"vtlist\000"
 3928      737400
 3929              	.LASF131:
 3930 011a 706F7274 		.ascii	"port_unlock\000"
 3930      5F756E6C 
 3930      6F636B00 
ARM GAS  /tmp/ccrpCuUt.s 			page 71


 3931              	.LASF120:
 3932 0126 73746174 		.ascii	"state\000"
 3932      6500
 3933              	.LASF74:
 3934 012c 63685F73 		.ascii	"ch_system\000"
 3934      79737465 
 3934      6D00
 3935              	.LASF9:
 3936 0136 6C6F6E67 		.ascii	"long int\000"
 3936      20696E74 
 3936      00
 3937              	.LASF125:
 3938 013f 67707463 		.ascii	"gptcnt_t\000"
 3938      6E745F74 
 3938      00
 3939              	.LASF147:
 3940 0148 67707453 		.ascii	"gptStop\000"
 3940      746F7000 
 3941              	.LASF20:
 3942 0150 74737461 		.ascii	"tstate_t\000"
 3942      74655F74 
 3942      00
 3943              	.LASF144:
 3944 0159 67707449 		.ascii	"gptInit\000"
 3944      6E697400 
 3945              	.LASF88:
 3946 0161 43434552 		.ascii	"CCER\000"
 3946      00
 3947              	.LASF1:
 3948 0166 6C6F6E67 		.ascii	"long long int\000"
 3948      206C6F6E 
 3948      6720696E 
 3948      7400
 3949              	.LASF32:
 3950 0174 705F6E65 		.ascii	"p_newer\000"
 3950      77657200 
 3951              	.LASF104:
 3952 017c 735F7175 		.ascii	"s_queue\000"
 3952      65756500 
 3953              	.LASF123:
 3954 0184 67707463 		.ascii	"gptcallback_t\000"
 3954      616C6C62 
 3954      61636B5F 
 3954      7400
 3955              	.LASF141:
 3956 0192 67707453 		.ascii	"gptStartContinuousI\000"
 3956      74617274 
 3956      436F6E74 
 3956      696E756F 
 3956      75734900 
 3957              	.LASF6:
 3958 01a6 73686F72 		.ascii	"short unsigned int\000"
 3958      7420756E 
 3958      7369676E 
 3958      65642069 
 3958      6E7400
 3959              	.LASF139:
ARM GAS  /tmp/ccrpCuUt.s 			page 72


 3960 01b9 696E7465 		.ascii	"interval\000"
 3960      7276616C 
 3960      00
 3961              	.LASF56:
 3962 01c2 725F6E65 		.ascii	"r_newer\000"
 3962      77657200 
 3963              	.LASF119:
 3964 01ca 47505444 		.ascii	"GPTDriver\000"
 3964      72697665 
 3964      7200
 3965              	.LASF80:
 3966 01d4 72656761 		.ascii	"regarm_t\000"
 3966      726D5F74 
 3966      00
 3967              	.LASF63:
 3968 01dd 76745F70 		.ascii	"vt_prev\000"
 3968      72657600 
 3969              	.LASF136:
 3970 01e5 6F73616C 		.ascii	"osalSysLock\000"
 3970      5379734C 
 3970      6F636B00 
 3971              	.LASF111:
 3972 01f1 6D757465 		.ascii	"mutex_t\000"
 3972      785F7400 
 3973              	.LASF137:
 3974 01f9 76616C75 		.ascii	"value\000"
 3974      6500
 3975              	.LASF78:
 3976 01ff 69646C65 		.ascii	"idle_thread_wa\000"
 3976      5F746872 
 3976      6561645F 
 3976      776100
 3977              	.LASF118:
 3978 020e 67707473 		.ascii	"gptstate_t\000"
 3978      74617465 
 3978      5F7400
 3979              	.LASF0:
 3980 0219 756E7369 		.ascii	"unsigned int\000"
 3980      676E6564 
 3980      20696E74 
 3980      00
 3981              	.LASF62:
 3982 0226 76745F6E 		.ascii	"vt_next\000"
 3982      65787400 
 3983              	.LASF145:
 3984 022e 6770744F 		.ascii	"gptObjectInit\000"
 3984      626A6563 
 3984      74496E69 
 3984      7400
 3985              	.LASF100:
 3986 023c 77747365 		.ascii	"wtsemp\000"
 3986      6D7000
 3987              	.LASF161:
 3988 0243 2F686F6D 		.ascii	"/home/selim/working/ChibiOS/os/hal/src/gpt.c\000"
 3988      652F7365 
 3988      6C696D2F 
 3988      776F726B 
ARM GAS  /tmp/ccrpCuUt.s 			page 73


 3988      696E672F 
 3989              	.LASF150:
 3990 0270 67707453 		.ascii	"gptStartOneShot\000"
 3990      74617274 
 3990      4F6E6553 
 3990      686F7400 
 3991              	.LASF39:
 3992 0280 705F6D73 		.ascii	"p_msgqueue\000"
 3992      67717565 
 3992      756500
 3993              	.LASF47:
 3994 028b 63685F74 		.ascii	"ch_thread\000"
 3994      68726561 
 3994      6400
 3995              	.LASF138:
 3996 0295 67707470 		.ascii	"gptp\000"
 3996      00
 3997              	.LASF105:
 3998 029a 735F636E 		.ascii	"s_cnt\000"
 3998      7400
 3999              	.LASF113:
 4000 02a0 4750545F 		.ascii	"GPT_UNINIT\000"
 4000      554E494E 
 4000      495400
 4001              	.LASF124:
 4002 02ab 67707466 		.ascii	"gptfreq_t\000"
 4002      7265715F 
 4002      7400
 4003              	.LASF44:
 4004 02b5 705F6D70 		.ascii	"p_mpool\000"
 4004      6F6F6C00 
 4005              	.LASF23:
 4006 02bd 6D73675F 		.ascii	"msg_t\000"
 4006      7400
 4007              	.LASF146:
 4008 02c3 67707453 		.ascii	"gptStart\000"
 4008      74617274 
 4008      00
 4009              	.LASF73:
 4010 02cc 63685F73 		.ascii	"ch_system_t\000"
 4010      79737465 
 4010      6D5F7400 
 4011              	.LASF127:
 4012 02d8 63616C6C 		.ascii	"callback\000"
 4012      6261636B 
 4012      00
 4013              	.LASF154:
 4014 02e1 6770745F 		.ascii	"gpt_lld_init\000"
 4014      6C6C645F 
 4014      696E6974 
 4014      00
 4015              	.LASF93:
 4016 02ee 73746D33 		.ascii	"stm32_tim_t\000"
 4016      325F7469 
 4016      6D5F7400 
 4017              	.LASF149:
 4018 02fa 67707453 		.ascii	"gptStartContinuous\000"
ARM GAS  /tmp/ccrpCuUt.s 			page 74


 4018      74617274 
 4018      436F6E74 
 4018      696E756F 
 4018      757300
 4019              	.LASF52:
 4020 030d 63685F72 		.ascii	"ch_ready_list\000"
 4020      65616479 
 4020      5F6C6973 
 4020      7400
 4021              	.LASF24:
 4022 031b 6576656E 		.ascii	"eventmask_t\000"
 4022      746D6173 
 4022      6B5F7400 
 4023              	.LASF8:
 4024 0327 5F5F696E 		.ascii	"__int32_t\000"
 4024      7433325F 
 4024      7400
 4025              	.LASF81:
 4026 0331 73746B61 		.ascii	"stkalign_t\000"
 4026      6C69676E 
 4026      5F7400
 4027              	.LASF151:
 4028 033c 67707453 		.ascii	"gptStopTimer\000"
 4028      746F7054 
 4028      696D6572 
 4028      00
 4029              	.LASF38:
 4030 0349 705F7761 		.ascii	"p_waiting\000"
 4030      6974696E 
 4030      6700
 4031              	.LASF79:
 4032 0353 73697A65 		.ascii	"sizetype\000"
 4032      74797065 
 4032      00
 4033              	.LASF45:
 4034 035c 74687265 		.ascii	"thread_reference_t\000"
 4034      61645F72 
 4034      65666572 
 4034      656E6365 
 4034      5F7400
 4035              	.LASF68:
 4036 036f 63685F76 		.ascii	"ch_virtual_timers_list\000"
 4036      69727475 
 4036      616C5F74 
 4036      696D6572 
 4036      735F6C69 
 4037              	.LASF2:
 4038 0386 6C6F6E67 		.ascii	"long double\000"
 4038      20646F75 
 4038      626C6500 
 4039              	.LASF115:
 4040 0392 4750545F 		.ascii	"GPT_READY\000"
 4040      52454144 
 4040      5900
 4041              	.LASF25:
 4042 039c 636E745F 		.ascii	"cnt_t\000"
 4042      7400
ARM GAS  /tmp/ccrpCuUt.s 			page 75


 4043              	.LASF158:
 4044 03a2 6770745F 		.ascii	"gpt_lld_stop_timer\000"
 4044      6C6C645F 
 4044      73746F70 
 4044      5F74696D 
 4044      657200
 4045              	.LASF69:
 4046 03b5 76745F6C 		.ascii	"vt_lasttime\000"
 4046      61737474 
 4046      696D6500 
 4047              	.LASF33:
 4048 03c1 705F6F6C 		.ascii	"p_older\000"
 4048      64657200 
 4049              	.LASF55:
 4050 03c9 725F6374 		.ascii	"r_ctx\000"
 4050      7800
 4051              	.LASF95:
 4052 03cf 746D5F63 		.ascii	"tm_calibration_t\000"
 4052      616C6962 
 4052      72617469 
 4052      6F6E5F74 
 4052      00
 4053              	.LASF58:
 4054 03e0 725F6375 		.ascii	"r_current\000"
 4054      7272656E 
 4054      7400
 4055              	.LASF157:
 4056 03ea 6770745F 		.ascii	"gpt_lld_start_timer\000"
 4056      6C6C645F 
 4056      73746172 
 4056      745F7469 
 4056      6D657200 
 4057              	.LASF12:
 4058 03fe 5F5F7569 		.ascii	"__uint64_t\000"
 4058      6E743634 
 4058      5F7400
 4059              	.LASF21:
 4060 0409 74726566 		.ascii	"trefs_t\000"
 4060      735F7400 
 4061              	.LASF83:
 4062 0411 706F7274 		.ascii	"port_intctx\000"
 4062      5F696E74 
 4062      63747800 
 4063              	.LASF60:
 4064 041d 76697274 		.ascii	"virtual_timer_t\000"
 4064      75616C5F 
 4064      74696D65 
 4064      725F7400 
 4065              	.LASF29:
 4066 042d 705F7072 		.ascii	"p_prev\000"
 4066      657600
 4067              	.LASF22:
 4068 0434 74707269 		.ascii	"tprio_t\000"
 4068      6F5F7400 
 4069              	.LASF71:
 4070 043c 63685F73 		.ascii	"ch_system_debug\000"
 4070      79737465 
ARM GAS  /tmp/ccrpCuUt.s 			page 76


 4070      6D5F6465 
 4070      62756700 
 4071              	.LASF112:
 4072 044c 5F426F6F 		.ascii	"_Bool\000"
 4072      6C00
 4073              	.LASF15:
 4074 0452 696E7433 		.ascii	"int32_t\000"
 4074      325F7400 
 4075              	.LASF4:
 4076 045a 756E7369 		.ascii	"unsigned char\000"
 4076      676E6564 
 4076      20636861 
 4076      7200
 4077              	.LASF42:
 4078 0468 705F6D74 		.ascii	"p_mtxlist\000"
 4078      786C6973 
 4078      7400
 4079              	.LASF5:
 4080 0472 73686F72 		.ascii	"short int\000"
 4080      7420696E 
 4080      7400
 4081              	.LASF35:
 4082 047c 705F7374 		.ascii	"p_state\000"
 4082      61746500 
 4083              	.LASF54:
 4084 0484 725F7072 		.ascii	"r_prio\000"
 4084      696F00
 4085              	.LASF160:
 4086 048b 474E5520 		.ascii	"GNU C11 5.3.1 20160307 (release) [ARM/embedded-5-br"
 4086      43313120 
 4086      352E332E 
 4086      31203230 
 4086      31363033 
 4087 04be 616E6368 		.ascii	"anch revision 234589] -mcpu=cortex-m4 -mno-thumb-in"
 4087      20726576 
 4087      6973696F 
 4087      6E203233 
 4087      34353839 
 4088 04f1 74657277 		.ascii	"terwork -mthumb -ggdb -O2 -fomit-frame-pointer -fal"
 4088      6F726B20 
 4088      2D6D7468 
 4088      756D6220 
 4088      2D676764 
 4089 0524 69676E2D 		.ascii	"ign-functions=16 -ffunction-sections -fdata-section"
 4089      66756E63 
 4089      74696F6E 
 4089      733D3136 
 4089      202D6666 
 4090 0557 73202D66 		.ascii	"s -fno-common\000"
 4090      6E6F2D63 
 4090      6F6D6D6F 
 4090      6E00
 4091              	.LASF102:
 4092 0565 65776D61 		.ascii	"ewmask\000"
 4092      736B00
 4093              	.LASF28:
 4094 056c 705F6E65 		.ascii	"p_next\000"
ARM GAS  /tmp/ccrpCuUt.s 			page 77


 4094      787400
 4095              	.LASF36:
 4096 0573 705F666C 		.ascii	"p_flags\000"
 4096      61677300 
 4097              	.LASF140:
 4098 057b 5F5F6675 		.ascii	"__func__\000"
 4098      6E635F5F 
 4098      00
 4099              	.LASF132:
 4100 0584 63685379 		.ascii	"chSysLock\000"
 4100      734C6F63 
 4100      6B00
 4101              	.LASF135:
 4102 058e 6F73616C 		.ascii	"osalSysUnlock\000"
 4102      53797355 
 4102      6E6C6F63 
 4102      6B00
 4103              	.LASF61:
 4104 059c 63685F76 		.ascii	"ch_virtual_timer\000"
 4104      69727475 
 4104      616C5F74 
 4104      696D6572 
 4104      00
 4105              	.LASF103:
 4106 05ad 63685F73 		.ascii	"ch_semaphore\000"
 4106      656D6170 
 4106      686F7265 
 4106      00
 4107              	.LASF92:
 4108 05ba 43435852 		.ascii	"CCXR\000"
 4108      00
 4109              	.LASF41:
 4110 05bf 705F6570 		.ascii	"p_epending\000"
 4110      656E6469 
 4110      6E6700
 4111              	.LASF114:
 4112 05ca 4750545F 		.ascii	"GPT_STOP\000"
 4112      53544F50 
 4112      00
 4113              	.LASF16:
 4114 05d3 75696E74 		.ascii	"uint32_t\000"
 4114      33325F74 
 4114      00
 4115              	.LASF101:
 4116 05dc 77746D74 		.ascii	"wtmtxp\000"
 4116      787000
 4117              	.LASF53:
 4118 05e3 725F7175 		.ascii	"r_queue\000"
 4118      65756500 
 4119              	.LASF64:
 4120 05eb 76745F64 		.ascii	"vt_delta\000"
 4120      656C7461 
 4120      00
 4121              	.LASF48:
 4122 05f4 63685F74 		.ascii	"ch_threads_list\000"
 4122      68726561 
 4122      64735F6C 
ARM GAS  /tmp/ccrpCuUt.s 			page 78


 4122      69737400 
 4123              	.LASF11:
 4124 0604 6C6F6E67 		.ascii	"long unsigned int\000"
 4124      20756E73 
 4124      69676E65 
 4124      6420696E 
 4124      7400
 4125              	.LASF110:
 4126 0616 63686172 		.ascii	"char\000"
 4126      00
 4127              	.LASF84:
 4128 061b 534D4352 		.ascii	"SMCR\000"
 4128      00
 4129              	.LASF121:
 4130 0620 636F6E66 		.ascii	"config\000"
 4130      696700
 4131              	.LASF90:
 4132 0627 444D4152 		.ascii	"DMAR\000"
 4132      00
 4133              	.LASF27:
 4134 062c 74687265 		.ascii	"thread_t\000"
 4134      61645F74 
 4134      00
 4135              	.LASF109:
 4136 0635 6D5F6E65 		.ascii	"m_next\000"
 4136      787400
 4137              	.LASF26:
 4138 063c 73797374 		.ascii	"systime_t\000"
 4138      696D655F 
 4138      7400
 4139              	.LASF43:
 4140 0646 705F7265 		.ascii	"p_realprio\000"
 4140      616C7072 
 4140      696F00
 4141              	.LASF59:
 4142 0651 76746675 		.ascii	"vtfunc_t\000"
 4142      6E635F74 
 4142      00
 4143              	.LASF10:
 4144 065a 5F5F7569 		.ascii	"__uint32_t\000"
 4144      6E743332 
 4144      5F7400
 4145              	.LASF133:
 4146 0665 5F5F7365 		.ascii	"__set_BASEPRI\000"
 4146      745F4241 
 4146      53455052 
 4146      4900
 4147              	.LASF72:
 4148 0673 70616E69 		.ascii	"panic_msg\000"
 4148      635F6D73 
 4148      6700
 4149              	.LASF94:
 4150 067d 6F666673 		.ascii	"offset\000"
 4150      657400
 4151              	.LASF129:
 4152 0684 47505443 		.ascii	"GPTConfig\000"
 4152      6F6E6669 
ARM GAS  /tmp/ccrpCuUt.s 			page 79


 4152      6700
 4153              	.LASF82:
 4154 068e 636F6E74 		.ascii	"context\000"
 4154      65787400 
 4155              	.LASF57:
 4156 0696 725F6F6C 		.ascii	"r_older\000"
 4156      64657200 
 4157              	.LASF18:
 4158 069e 7274636E 		.ascii	"rtcnt_t\000"
 4158      745F7400 
 4159              	.LASF155:
 4160 06a6 6770745F 		.ascii	"gpt_lld_start\000"
 4160      6C6C645F 
 4160      73746172 
 4160      7400
 4161              	.LASF66:
 4162 06b4 76745F70 		.ascii	"vt_par\000"
 4162      617200
 4163              	.LASF49:
 4164 06bb 74687265 		.ascii	"threads_queue_t\000"
 4164      6164735F 
 4164      71756575 
 4164      655F7400 
 4165              	.LASF106:
 4166 06cb 63685F6D 		.ascii	"ch_mutex\000"
 4166      75746578 
 4166      00
 4167              	.LASF37:
 4168 06d4 705F7265 		.ascii	"p_refs\000"
 4168      667300
 4169              	.LASF159:
 4170 06db 6770745F 		.ascii	"gpt_lld_polled_delay\000"
 4170      6C6C645F 
 4170      706F6C6C 
 4170      65645F64 
 4170      656C6179 
 4171              	.LASF156:
 4172 06f0 6770745F 		.ascii	"gpt_lld_stop\000"
 4172      6C6C645F 
 4172      73746F70 
 4172      00
 4173              	.LASF75:
 4174 06fd 726C6973 		.ascii	"rlist\000"
 4174      7400
 4175              	.LASF14:
 4176 0703 75696E74 		.ascii	"uint8_t\000"
 4176      385F7400 
 4177              	.LASF152:
 4178 070b 67707450 		.ascii	"gptPolledDelay\000"
 4178      6F6C6C65 
 4178      6444656C 
 4178      617900
 4179              	.LASF98:
 4180 071a 77746F62 		.ascii	"wtobjp\000"
 4180      6A7000
 4181              	.LASF34:
 4182 0721 705F6E61 		.ascii	"p_name\000"
ARM GAS  /tmp/ccrpCuUt.s 			page 80


 4182      6D6500
 4183              	.LASF46:
 4184 0728 74687265 		.ascii	"threads_list_t\000"
 4184      6164735F 
 4184      6C697374 
 4184      5F7400
 4185              	.LASF19:
 4186 0737 746D6F64 		.ascii	"tmode_t\000"
 4186      655F7400 
 4187              	.LASF134:
 4188 073f 63685379 		.ascii	"chSysUnlock\000"
 4188      73556E6C 
 4188      6F636B00 
 4189              	.LASF40:
 4190 074b 705F6D73 		.ascii	"p_msg\000"
 4190      6700
 4191              	.LASF122:
 4192 0751 636C6F63 		.ascii	"clock\000"
 4192      6B00
 4193              	.LASF108:
 4194 0757 6D5F6F77 		.ascii	"m_owner\000"
 4194      6E657200 
 4195              	.LASF31:
 4196 075f 705F6374 		.ascii	"p_ctx\000"
 4196      7800
 4197              	.LASF65:
 4198 0765 76745F66 		.ascii	"vt_func\000"
 4198      756E6300 
 4199              	.LASF142:
 4200 076d 67707453 		.ascii	"gptStartOneShotI\000"
 4200      74617274 
 4200      4F6E6553 
 4200      686F7449 
 4200      00
 4201              	.LASF128:
 4202 077e 64696572 		.ascii	"dier\000"
 4202      00
 4203              	.LASF143:
 4204 0783 67707453 		.ascii	"gptStopTimerI\000"
 4204      746F7054 
 4204      696D6572 
 4204      4900
 4205              		.ident	"GCC: (GNU Tools for ARM Embedded Processors) 5.3.1 20160307 (release) [ARM/embedded-5-bran
ARM GAS  /tmp/ccrpCuUt.s 			page 81


DEFINED SYMBOLS
                            *ABS*:0000000000000000 gpt.c
     /tmp/ccrpCuUt.s:20     .text.gptInit:0000000000000000 $t
     /tmp/ccrpCuUt.s:26     .text.gptInit:0000000000000000 gptInit
     /tmp/ccrpCuUt.s:41     .text.gptObjectInit:0000000000000000 $t
     /tmp/ccrpCuUt.s:47     .text.gptObjectInit:0000000000000000 gptObjectInit
     /tmp/ccrpCuUt.s:68     .text.gptStart:0000000000000000 $t
     /tmp/ccrpCuUt.s:74     .text.gptStart:0000000000000000 gptStart
     /tmp/ccrpCuUt.s:153    .text.gptStop:0000000000000000 $t
     /tmp/ccrpCuUt.s:159    .text.gptStop:0000000000000000 gptStop
     /tmp/ccrpCuUt.s:235    .text.gptChangeInterval:0000000000000000 $t
     /tmp/ccrpCuUt.s:241    .text.gptChangeInterval:0000000000000000 gptChangeInterval
     /tmp/ccrpCuUt.s:300    .text.gptStartContinuous:0000000000000000 $t
     /tmp/ccrpCuUt.s:306    .text.gptStartContinuous:0000000000000000 gptStartContinuous
     /tmp/ccrpCuUt.s:372    .text.gptStartContinuousI:0000000000000000 $t
     /tmp/ccrpCuUt.s:378    .text.gptStartContinuousI:0000000000000000 gptStartContinuousI
     /tmp/ccrpCuUt.s:396    .text.gptStartOneShot:0000000000000000 $t
     /tmp/ccrpCuUt.s:402    .text.gptStartOneShot:0000000000000000 gptStartOneShot
     /tmp/ccrpCuUt.s:468    .text.gptStartOneShotI:0000000000000000 $t
     /tmp/ccrpCuUt.s:474    .text.gptStartOneShotI:0000000000000000 gptStartOneShotI
     /tmp/ccrpCuUt.s:492    .text.gptStopTimer:0000000000000000 $t
     /tmp/ccrpCuUt.s:498    .text.gptStopTimer:0000000000000000 gptStopTimer
     /tmp/ccrpCuUt.s:564    .text.gptStopTimerI:0000000000000000 $t
     /tmp/ccrpCuUt.s:570    .text.gptStopTimerI:0000000000000000 gptStopTimerI
     /tmp/ccrpCuUt.s:588    .text.gptPolledDelay:0000000000000000 $t
     /tmp/ccrpCuUt.s:594    .text.gptPolledDelay:0000000000000000 gptPolledDelay
                     .debug_frame:0000000000000010 $d

UNDEFINED SYMBOLS
gpt_lld_init
gpt_lld_start
gpt_lld_stop
gpt_lld_start_timer
gpt_lld_stop_timer
gpt_lld_polled_delay
