ARM GAS  /tmp/ccrpCuUt.s 			page 1


   1              		.syntax unified
   2              		.cpu cortex-m4
   3              		.fpu softvfp
   4              		.eabi_attribute 20, 1
   5              		.eabi_attribute 21, 1
   6              		.eabi_attribute 23, 3
   7              		.eabi_attribute 24, 1
   8              		.eabi_attribute 25, 1
   9              		.eabi_attribute 26, 1
  10              		.eabi_attribute 30, 2
  11              		.eabi_attribute 34, 1
  12              		.eabi_attribute 18, 4
  13              		.thumb
  14              		.syntax unified
  15              		.file	"gpt.c"
  16              		.text
  17              	.Ltext0:
  18              		.cfi_sections	.debug_frame
  19              		.section	.text.gptInit,"ax",%progbits
  20              		.align	2
  21              		.p2align 4,,15
  22              		.global	gptInit
  23              		.thumb
  24              		.thumb_func
  25              		.type	gptInit, %function
  26              	gptInit:
  27              	.LFB258:
  28              		.file 1 "/home/selim/working/ChibiOS/os/hal/src/gpt.c"
  29              		.loc 1 56 0
  30              		.cfi_startproc
  31              		@ args = 0, pretend = 0, frame = 0
  32              		@ frame_needed = 0, uses_anonymous_args = 0
  33              		@ link register save eliminated.
  34              		.loc 1 58 0
  35 0000 FFF7FEBF 		b	gpt_lld_init
  36              	.LVL0:
  37              		.cfi_endproc
  38              	.LFE258:
  39              		.size	gptInit, .-gptInit
  40              		.section	.text.gptObjectInit,"ax",%progbits
  41              		.align	2
  42              		.p2align 4,,15
  43              		.global	gptObjectInit
  44              		.thumb
  45              		.thumb_func
  46              		.type	gptObjectInit, %function
  47              	gptObjectInit:
  48              	.LFB259:
  49              		.loc 1 68 0
  50              		.cfi_startproc
  51              		@ args = 0, pretend = 0, frame = 0
  52              		@ frame_needed = 0, uses_anonymous_args = 0
  53              		@ link register save eliminated.
  54              	.LVL1:
  55              		.loc 1 70 0
  56 0000 0122     		movs	r2, #1
  57              		.loc 1 71 0
ARM GAS  /tmp/ccrpCuUt.s 			page 2


  58 0002 0023     		movs	r3, #0
  59              		.loc 1 70 0
  60 0004 0270     		strb	r2, [r0]
  61              		.loc 1 71 0
  62 0006 4360     		str	r3, [r0, #4]
  63 0008 7047     		bx	lr
  64              		.cfi_endproc
  65              	.LFE259:
  66              		.size	gptObjectInit, .-gptObjectInit
  67 000a 00BF     		.section	.text.gptStart,"ax",%progbits
  68              		.align	2
  69              		.p2align 4,,15
  70              		.global	gptStart
  71              		.thumb
  72              		.thumb_func
  73              		.type	gptStart, %function
  74              	gptStart:
  75              	.LFB260:
  76              		.loc 1 82 0
  77              		.cfi_startproc
  78              		@ args = 0, pretend = 0, frame = 0
  79              		@ frame_needed = 0, uses_anonymous_args = 0
  80              	.LVL2:
  81 0000 10B5     		push	{r4, lr}
  82              		.cfi_def_cfa_offset 8
  83              		.cfi_offset 4, -8
  84              		.cfi_offset 14, -4
  85              	.LBB108:
  86              	.LBB109:
  87              	.LBB110:
  88              	.LBB111:
  89              	.LBB112:
  90              		.file 2 "/home/selim/working/ChibiOS/os/ext/CMSIS/include/core_cmFunc.h"
  91              		.loc 2 546 0
  92 0002 2023     		movs	r3, #32
  93              	.LBE112:
  94              	.LBE111:
  95              	.LBE110:
  96              	.LBE109:
  97              	.LBE108:
  98              		.loc 1 82 0
  99 0004 0446     		mov	r4, r0
 100              	.LBB117:
 101              	.LBB116:
 102              	.LBB115:
 103              	.LBB114:
 104              	.LBB113:
 105              		.loc 2 546 0
 106              		.syntax unified
 107              	@ 546 "/home/selim/working/ChibiOS/os/ext/CMSIS/include/core_cmFunc.h" 1
 108 0006 83F31188 		MSR basepri, r3
 109              	@ 0 "" 2
 110              	.LVL3:
 111              		.thumb
 112              		.syntax unified
 113              	.LBE113:
 114              	.LBE114:
ARM GAS  /tmp/ccrpCuUt.s 			page 3


 115              	.LBE115:
 116              	.LBE116:
 117              	.LBE117:
 118              		.loc 1 89 0
 119 000a 4160     		str	r1, [r0, #4]
 120              		.loc 1 90 0
 121 000c FFF7FEFF 		bl	gpt_lld_start
 122              	.LVL4:
 123              		.loc 1 91 0
 124 0010 0223     		movs	r3, #2
 125 0012 2370     		strb	r3, [r4]
 126              	.LVL5:
 127              	.LBB118:
 128              	.LBB119:
 129              	.LBB120:
 130              	.LBB121:
 131              	.LBB122:
 132              	.LBB123:
 133              		.loc 2 546 0
 134 0014 0023     		movs	r3, #0
 135              		.syntax unified
 136              	@ 546 "/home/selim/working/ChibiOS/os/ext/CMSIS/include/core_cmFunc.h" 1
 137 0016 83F31188 		MSR basepri, r3
 138              	@ 0 "" 2
 139              	.LVL6:
 140              		.thumb
 141              		.syntax unified
 142 001a 10BD     		pop	{r4, pc}
 143              	.LBE123:
 144              	.LBE122:
 145              	.LBE121:
 146              	.LBE120:
 147              	.LBE119:
 148              	.LBE118:
 149              		.cfi_endproc
 150              	.LFE260:
 151              		.size	gptStart, .-gptStart
 152              		.section	.text.gptStop,"ax",%progbits
 153              		.align	2
 154              		.p2align 4,,15
 155              		.global	gptStop
 156              		.thumb
 157              		.thumb_func
 158              		.type	gptStop, %function
 159              	gptStop:
 160              	.LFB261:
 161              		.loc 1 102 0
 162              		.cfi_startproc
 163              		@ args = 0, pretend = 0, frame = 0
 164              		@ frame_needed = 0, uses_anonymous_args = 0
 165              	.LVL7:
 166 0000 10B5     		push	{r4, lr}
 167              		.cfi_def_cfa_offset 8
 168              		.cfi_offset 4, -8
 169              		.cfi_offset 14, -4
 170              	.LBB124:
 171              	.LBB125:
ARM GAS  /tmp/ccrpCuUt.s 			page 4


 172              	.LBB126:
 173              	.LBB127:
 174              	.LBB128:
 175              		.loc 2 546 0
 176 0002 2023     		movs	r3, #32
 177              	.LBE128:
 178              	.LBE127:
 179              	.LBE126:
 180              	.LBE125:
 181              	.LBE124:
 182              		.loc 1 102 0
 183 0004 0446     		mov	r4, r0
 184              	.LBB133:
 185              	.LBB132:
 186              	.LBB131:
 187              	.LBB130:
 188              	.LBB129:
 189              		.loc 2 546 0
 190              		.syntax unified
 191              	@ 546 "/home/selim/working/ChibiOS/os/ext/CMSIS/include/core_cmFunc.h" 1
 192 0006 83F31188 		MSR basepri, r3
 193              	@ 0 "" 2
 194              	.LVL8:
 195              		.thumb
 196              		.syntax unified
 197              	.LBE129:
 198              	.LBE130:
 199              	.LBE131:
 200              	.LBE132:
 201              	.LBE133:
 202              		.loc 1 109 0
 203 000a FFF7FEFF 		bl	gpt_lld_stop
 204              	.LVL9:
 205              		.loc 1 110 0
 206 000e 0123     		movs	r3, #1
 207 0010 2370     		strb	r3, [r4]
 208              	.LVL10:
 209              	.LBB134:
 210              	.LBB135:
 211              	.LBB136:
 212              	.LBB137:
 213              	.LBB138:
 214              	.LBB139:
 215              		.loc 2 546 0
 216 0012 0023     		movs	r3, #0
 217              		.syntax unified
 218              	@ 546 "/home/selim/working/ChibiOS/os/ext/CMSIS/include/core_cmFunc.h" 1
 219 0014 83F31188 		MSR basepri, r3
 220              	@ 0 "" 2
 221              	.LVL11:
 222              		.thumb
 223              		.syntax unified
 224 0018 10BD     		pop	{r4, pc}
 225              	.LBE139:
 226              	.LBE138:
 227              	.LBE137:
 228              	.LBE136:
ARM GAS  /tmp/ccrpCuUt.s 			page 5


 229              	.LBE135:
 230              	.LBE134:
 231              		.cfi_endproc
 232              	.LFE261:
 233              		.size	gptStop, .-gptStop
 234 001a 00BF     		.section	.text.gptChangeInterval,"ax",%progbits
 235              		.align	2
 236              		.p2align 4,,15
 237              		.global	gptChangeInterval
 238              		.thumb
 239              		.thumb_func
 240              		.type	gptChangeInterval, %function
 241              	gptChangeInterval:
 242              	.LFB262:
 243              		.loc 1 125 0
 244              		.cfi_startproc
 245              		@ args = 0, pretend = 0, frame = 0
 246              		@ frame_needed = 0, uses_anonymous_args = 0
 247              		@ link register save eliminated.
 248              	.LVL12:
 249              	.LBB140:
 250              	.LBB141:
 251              	.LBB142:
 252              	.LBB143:
 253              	.LBB144:
 254              		.loc 2 546 0
 255 0000 2023     		movs	r3, #32
 256              		.syntax unified
 257              	@ 546 "/home/selim/working/ChibiOS/os/ext/CMSIS/include/core_cmFunc.h" 1
 258 0002 83F31188 		MSR basepri, r3
 259              	@ 0 "" 2
 260              	.LVL13:
 261              		.thumb
 262              		.syntax unified
 263              	.LBE144:
 264              	.LBE143:
 265              	.LBE142:
 266              	.LBE141:
 267              	.LBE140:
 268              		.loc 1 132 0
 269 0006 C368     		ldr	r3, [r0, #12]
 270 0008 0139     		subs	r1, r1, #1
 271              	.LVL14:
 272 000a D962     		str	r1, [r3, #44]
 273              	.LVL15:
 274              	.LBB145:
 275              	.LBB146:
 276              	.LBB147:
 277              	.LBB148:
 278              	.LBB149:
 279              	.LBB150:
 280              		.loc 2 546 0
 281 000c 0023     		movs	r3, #0
 282              		.syntax unified
 283              	@ 546 "/home/selim/working/ChibiOS/os/ext/CMSIS/include/core_cmFunc.h" 1
 284 000e 83F31188 		MSR basepri, r3
 285              	@ 0 "" 2
ARM GAS  /tmp/ccrpCuUt.s 			page 6


 286              	.LVL16:
 287              		.thumb
 288              		.syntax unified
 289 0012 7047     		bx	lr
 290              	.LBE150:
 291              	.LBE149:
 292              	.LBE148:
 293              	.LBE147:
 294              	.LBE146:
 295              	.LBE145:
 296              		.cfi_endproc
 297              	.LFE262:
 298              		.size	gptChangeInterval, .-gptChangeInterval
 299              		.section	.text.gptStartContinuous,"ax",%progbits
 300              		.align	2
 301              		.p2align 4,,15
 302              		.global	gptStartContinuous
 303              		.thumb
 304              		.thumb_func
 305              		.type	gptStartContinuous, %function
 306              	gptStartContinuous:
 307              	.LFB263:
 308              		.loc 1 144 0
 309              		.cfi_startproc
 310              		@ args = 0, pretend = 0, frame = 0
 311              		@ frame_needed = 0, uses_anonymous_args = 0
 312              	.LVL17:
 313 0000 08B5     		push	{r3, lr}
 314              		.cfi_def_cfa_offset 8
 315              		.cfi_offset 3, -8
 316              		.cfi_offset 14, -4
 317              	.LBB151:
 318              	.LBB152:
 319              	.LBB153:
 320              	.LBB154:
 321              	.LBB155:
 322              		.loc 2 546 0
 323 0002 2022     		movs	r2, #32
 324              		.syntax unified
 325              	@ 546 "/home/selim/working/ChibiOS/os/ext/CMSIS/include/core_cmFunc.h" 1
 326 0004 82F31188 		MSR basepri, r2
 327              	@ 0 "" 2
 328              	.LVL18:
 329              		.thumb
 330              		.syntax unified
 331              	.LBE155:
 332              	.LBE154:
 333              	.LBE153:
 334              	.LBE152:
 335              	.LBE151:
 336              	.LBB156:
 337              	.LBB157:
 338              		.loc 1 166 0
 339 0008 0322     		movs	r2, #3
 340 000a 0270     		strb	r2, [r0]
 341              		.loc 1 167 0
 342 000c FFF7FEFF 		bl	gpt_lld_start_timer
ARM GAS  /tmp/ccrpCuUt.s 			page 7


 343              	.LVL19:
 344              	.LBE157:
 345              	.LBE156:
 346              	.LBB158:
 347              	.LBB159:
 348              	.LBB160:
 349              	.LBB161:
 350              	.LBB162:
 351              	.LBB163:
 352              		.loc 2 546 0
 353 0010 0023     		movs	r3, #0
 354              		.syntax unified
 355              	@ 546 "/home/selim/working/ChibiOS/os/ext/CMSIS/include/core_cmFunc.h" 1
 356 0012 83F31188 		MSR basepri, r3
 357              	@ 0 "" 2
 358              	.LVL20:
 359              		.thumb
 360              		.syntax unified
 361 0016 08BD     		pop	{r3, pc}
 362              	.LBE163:
 363              	.LBE162:
 364              	.LBE161:
 365              	.LBE160:
 366              	.LBE159:
 367              	.LBE158:
 368              		.cfi_endproc
 369              	.LFE263:
 370              		.size	gptStartContinuous, .-gptStartContinuous
 371              		.section	.text.gptStartContinuousI,"ax",%progbits
 372              		.align	2
 373              		.p2align 4,,15
 374              		.global	gptStartContinuousI
 375              		.thumb
 376              		.thumb_func
 377              		.type	gptStartContinuousI, %function
 378              	gptStartContinuousI:
 379              	.LFB264:
 380              		.loc 1 159 0
 381              		.cfi_startproc
 382              		@ args = 0, pretend = 0, frame = 0
 383              		@ frame_needed = 0, uses_anonymous_args = 0
 384              		@ link register save eliminated.
 385              	.LVL21:
 386              		.loc 1 166 0
 387 0000 0323     		movs	r3, #3
 388 0002 0370     		strb	r3, [r0]
 389              		.loc 1 167 0
 390 0004 FFF7FEBF 		b	gpt_lld_start_timer
 391              	.LVL22:
 392              		.cfi_endproc
 393              	.LFE264:
 394              		.size	gptStartContinuousI, .-gptStartContinuousI
 395              		.section	.text.gptStartOneShot,"ax",%progbits
 396              		.align	2
 397              		.p2align 4,,15
 398              		.global	gptStartOneShot
 399              		.thumb
ARM GAS  /tmp/ccrpCuUt.s 			page 8


 400              		.thumb_func
 401              		.type	gptStartOneShot, %function
 402              	gptStartOneShot:
 403              	.LFB265:
 404              		.loc 1 178 0
 405              		.cfi_startproc
 406              		@ args = 0, pretend = 0, frame = 0
 407              		@ frame_needed = 0, uses_anonymous_args = 0
 408              	.LVL23:
 409 0000 08B5     		push	{r3, lr}
 410              		.cfi_def_cfa_offset 8
 411              		.cfi_offset 3, -8
 412              		.cfi_offset 14, -4
 413              	.LBB164:
 414              	.LBB165:
 415              	.LBB166:
 416              	.LBB167:
 417              	.LBB168:
 418              		.loc 2 546 0
 419 0002 2022     		movs	r2, #32
 420              		.syntax unified
 421              	@ 546 "/home/selim/working/ChibiOS/os/ext/CMSIS/include/core_cmFunc.h" 1
 422 0004 82F31188 		MSR basepri, r2
 423              	@ 0 "" 2
 424              	.LVL24:
 425              		.thumb
 426              		.syntax unified
 427              	.LBE168:
 428              	.LBE167:
 429              	.LBE166:
 430              	.LBE165:
 431              	.LBE164:
 432              	.LBB169:
 433              	.LBB170:
 434              		.loc 1 201 0
 435 0008 0422     		movs	r2, #4
 436 000a 0270     		strb	r2, [r0]
 437              		.loc 1 202 0
 438 000c FFF7FEFF 		bl	gpt_lld_start_timer
 439              	.LVL25:
 440              	.LBE170:
 441              	.LBE169:
 442              	.LBB171:
 443              	.LBB172:
 444              	.LBB173:
 445              	.LBB174:
 446              	.LBB175:
 447              	.LBB176:
 448              		.loc 2 546 0
 449 0010 0023     		movs	r3, #0
 450              		.syntax unified
 451              	@ 546 "/home/selim/working/ChibiOS/os/ext/CMSIS/include/core_cmFunc.h" 1
 452 0012 83F31188 		MSR basepri, r3
 453              	@ 0 "" 2
 454              	.LVL26:
 455              		.thumb
 456              		.syntax unified
ARM GAS  /tmp/ccrpCuUt.s 			page 9


 457 0016 08BD     		pop	{r3, pc}
 458              	.LBE176:
 459              	.LBE175:
 460              	.LBE174:
 461              	.LBE173:
 462              	.LBE172:
 463              	.LBE171:
 464              		.cfi_endproc
 465              	.LFE265:
 466              		.size	gptStartOneShot, .-gptStartOneShot
 467              		.section	.text.gptStartOneShotI,"ax",%progbits
 468              		.align	2
 469              		.p2align 4,,15
 470              		.global	gptStartOneShotI
 471              		.thumb
 472              		.thumb_func
 473              		.type	gptStartOneShotI, %function
 474              	gptStartOneShotI:
 475              	.LFB266:
 476              		.loc 1 193 0
 477              		.cfi_startproc
 478              		@ args = 0, pretend = 0, frame = 0
 479              		@ frame_needed = 0, uses_anonymous_args = 0
 480              		@ link register save eliminated.
 481              	.LVL27:
 482              		.loc 1 201 0
 483 0000 0423     		movs	r3, #4
 484 0002 0370     		strb	r3, [r0]
 485              		.loc 1 202 0
 486 0004 FFF7FEBF 		b	gpt_lld_start_timer
 487              	.LVL28:
 488              		.cfi_endproc
 489              	.LFE266:
 490              		.size	gptStartOneShotI, .-gptStartOneShotI
 491              		.section	.text.gptStopTimer,"ax",%progbits
 492              		.align	2
 493              		.p2align 4,,15
 494              		.global	gptStopTimer
 495              		.thumb
 496              		.thumb_func
 497              		.type	gptStopTimer, %function
 498              	gptStopTimer:
 499              	.LFB267:
 500              		.loc 1 212 0
 501              		.cfi_startproc
 502              		@ args = 0, pretend = 0, frame = 0
 503              		@ frame_needed = 0, uses_anonymous_args = 0
 504              	.LVL29:
 505 0000 08B5     		push	{r3, lr}
 506              		.cfi_def_cfa_offset 8
 507              		.cfi_offset 3, -8
 508              		.cfi_offset 14, -4
 509              	.LBB177:
 510              	.LBB178:
 511              	.LBB179:
 512              	.LBB180:
 513              	.LBB181:
ARM GAS  /tmp/ccrpCuUt.s 			page 10


 514              		.loc 2 546 0
 515 0002 2022     		movs	r2, #32
 516              		.syntax unified
 517              	@ 546 "/home/selim/working/ChibiOS/os/ext/CMSIS/include/core_cmFunc.h" 1
 518 0004 82F31188 		MSR basepri, r2
 519              	@ 0 "" 2
 520              	.LVL30:
 521              		.thumb
 522              		.syntax unified
 523              	.LBE181:
 524              	.LBE180:
 525              	.LBE179:
 526              	.LBE178:
 527              	.LBE177:
 528              	.LBB182:
 529              	.LBB183:
 530              		.loc 1 234 0
 531 0008 0222     		movs	r2, #2
 532 000a 0270     		strb	r2, [r0]
 533              		.loc 1 235 0
 534 000c FFF7FEFF 		bl	gpt_lld_stop_timer
 535              	.LVL31:
 536              	.LBE183:
 537              	.LBE182:
 538              	.LBB184:
 539              	.LBB185:
 540              	.LBB186:
 541              	.LBB187:
 542              	.LBB188:
 543              	.LBB189:
 544              		.loc 2 546 0
 545 0010 0023     		movs	r3, #0
 546              		.syntax unified
 547              	@ 546 "/home/selim/working/ChibiOS/os/ext/CMSIS/include/core_cmFunc.h" 1
 548 0012 83F31188 		MSR basepri, r3
 549              	@ 0 "" 2
 550              	.LVL32:
 551              		.thumb
 552              		.syntax unified
 553 0016 08BD     		pop	{r3, pc}
 554              	.LBE189:
 555              	.LBE188:
 556              	.LBE187:
 557              	.LBE186:
 558              	.LBE185:
 559              	.LBE184:
 560              		.cfi_endproc
 561              	.LFE267:
 562              		.size	gptStopTimer, .-gptStopTimer
 563              		.section	.text.gptStopTimerI,"ax",%progbits
 564              		.align	2
 565              		.p2align 4,,15
 566              		.global	gptStopTimerI
 567              		.thumb
 568              		.thumb_func
 569              		.type	gptStopTimerI, %function
 570              	gptStopTimerI:
ARM GAS  /tmp/ccrpCuUt.s 			page 11


 571              	.LFB268:
 572              		.loc 1 226 0
 573              		.cfi_startproc
 574              		@ args = 0, pretend = 0, frame = 0
 575              		@ frame_needed = 0, uses_anonymous_args = 0
 576              		@ link register save eliminated.
 577              	.LVL33:
 578              		.loc 1 234 0
 579 0000 0223     		movs	r3, #2
 580 0002 0370     		strb	r3, [r0]
 581              		.loc 1 235 0
 582 0004 FFF7FEBF 		b	gpt_lld_stop_timer
 583              	.LVL34:
 584              		.cfi_endproc
 585              	.LFE268:
 586              		.size	gptStopTimerI, .-gptStopTimerI
 587              		.section	.text.gptPolledDelay,"ax",%progbits
 588              		.align	2
 589              		.p2align 4,,15
 590              		.global	gptPolledDelay
 591              		.thumb
 592              		.thumb_func
 593              		.type	gptPolledDelay, %function
 594              	gptPolledDelay:
 595              	.LFB269:
 596              		.loc 1 250 0
 597              		.cfi_startproc
 598              		@ args = 0, pretend = 0, frame = 0
 599              		@ frame_needed = 0, uses_anonymous_args = 0
 600              	.LVL35:
 601 0000 10B5     		push	{r4, lr}
 602              		.cfi_def_cfa_offset 8
 603              		.cfi_offset 4, -8
 604              		.cfi_offset 14, -4
 605              		.loc 1 255 0
 606 0002 0423     		movs	r3, #4
 607              		.loc 1 250 0
 608 0004 0446     		mov	r4, r0
 609              		.loc 1 255 0
 610 0006 0370     		strb	r3, [r0]
 611              		.loc 1 256 0
 612 0008 FFF7FEFF 		bl	gpt_lld_polled_delay
 613              	.LVL36:
 614              		.loc 1 257 0
 615 000c 0223     		movs	r3, #2
 616 000e 2370     		strb	r3, [r4]
 617 0010 10BD     		pop	{r4, pc}
 618              		.cfi_endproc
 619              	.LFE269:
 620              		.size	gptPolledDelay, .-gptPolledDelay
 621 0012 00BF     		.text
 622              	.Letext0:
 623              		.file 3 "/usr/arm-none-eabi/include/machine/_default_types.h"
 624              		.file 4 "/usr/arm-none-eabi/include/sys/_stdint.h"
 625              		.file 5 "/home/selim/working/ChibiOS/os/rt/ports/ARMCMx/compilers/GCC/chtypes.h"
 626              		.file 6 "/home/selim/working/ChibiOS/os/rt/include/chsystypes.h"
 627              		.file 7 "/home/selim/working/ChibiOS/os/rt/include/chschd.h"
ARM GAS  /tmp/ccrpCuUt.s 			page 12


 628              		.file 8 "/home/selim/working/ChibiOS/os/rt/ports/ARMCMx/chcore.h"
 629              		.file 9 "/home/selim/working/ChibiOS/os/rt/ports/ARMCMx/chcore_v7m.h"
 630              		.file 10 "/home/selim/working/ChibiOS/os/hal/ports/STM32/LLD/TIMv1/stm32_tim.h"
 631              		.file 11 "/home/selim/working/ChibiOS/os/rt/include/chtm.h"
 632              		.file 12 "/home/selim/working/ChibiOS/os/rt/include/chsem.h"
 633              		.file 13 "/home/selim/working/ChibiOS/os/rt/include/chmtx.h"
 634              		.file 14 "/home/selim/working/ChibiOS/os/hal/include/gpt.h"
 635              		.file 15 "/home/selim/working/ChibiOS/os/hal/ports/STM32/LLD/TIMv1/gpt_lld.h"
 636              		.file 16 "/home/selim/working/ChibiOS/os/rt/include/chsys.h"
 637              		.file 17 "/home/selim/working/ChibiOS/os/hal/osal/rt/osal.h"
 638              		.file 18 "/home/selim/working/ChibiOS/os/ext/CMSIS/include/core_cm4.h"