ARM GAS  /tmp/cca0ZE6L.s 			page 1


   1              		.cpu cortex-m4
   2              		.eabi_attribute 20, 1
   3              		.eabi_attribute 21, 1
   4              		.eabi_attribute 23, 3
   5              		.eabi_attribute 24, 1
   6              		.eabi_attribute 25, 1
   7              		.eabi_attribute 26, 1
   8              		.eabi_attribute 30, 2
   9              		.eabi_attribute 34, 1
  10              		.eabi_attribute 18, 4
  11              		.file	"gpt_lld.c"
  12              		.text
  13              	.Ltext0:
  14              		.cfi_sections	.debug_frame
  15              		.section	.text.VectorB4,"ax",%progbits
  16              		.align	1
  17              		.p2align 4,,15
  18              		.global	VectorB4
  19              		.syntax unified
  20              		.thumb
  21              		.thumb_func
  22              		.fpu softvfp
  23              		.type	VectorB4, %function
  24              	VectorB4:
  25              	.LFB259:
  26              		.file 1 "/home/selim/working/ChibiOS/os/hal/ports/STM32/LLD/TIMv1/gpt_lld.c"
  27              		.loc 1 207 0
  28              		.cfi_startproc
  29              		@ args = 0, pretend = 0, frame = 0
  30              		@ frame_needed = 0, uses_anonymous_args = 0
  31              	.LVL0:
  32 0000 08B5     		push	{r3, lr}
  33              		.cfi_def_cfa_offset 8
  34              		.cfi_offset 3, -8
  35              		.cfi_offset 14, -4
  36              	.LBB8:
  37              	.LBB9:
  38              		.loc 1 148 0
  39 0002 0B4B     		ldr	r3, .L5
  40              		.loc 1 149 0
  41 0004 1878     		ldrb	r0, [r3]	@ zero_extendqisi2
  42              		.loc 1 148 0
  43 0006 DA68     		ldr	r2, [r3, #12]
  44 0008 0021     		movs	r1, #0
  45              		.loc 1 149 0
  46 000a 0428     		cmp	r0, #4
  47              		.loc 1 148 0
  48 000c 1161     		str	r1, [r2, #16]
  49              		.loc 1 149 0
  50 000e 07D1     		bne	.L2
  51              		.loc 1 150 0
  52 0010 0220     		movs	r0, #2
  53 0012 1870     		strb	r0, [r3]
  54              	.LVL1:
  55              	.LBB10:
  56              	.LBB11:
  57              		.loc 1 733 0
ARM GAS  /tmp/cca0ZE6L.s 			page 2


  58 0014 1160     		str	r1, [r2]
  59              		.loc 1 734 0
  60 0016 1161     		str	r1, [r2, #16]
  61              		.loc 1 737 0
  62 0018 D168     		ldr	r1, [r2, #12]
  63 001a 21F0FF01 		bic	r1, r1, #255
  64 001e D160     		str	r1, [r2, #12]
  65              	.LVL2:
  66              	.L2:
  67              	.LBE11:
  68              	.LBE10:
  69              		.loc 1 153 0
  70 0020 5B68     		ldr	r3, [r3, #4]
  71 0022 0348     		ldr	r0, .L5
  72 0024 5B68     		ldr	r3, [r3, #4]
  73 0026 9847     		blx	r3
  74              	.LVL3:
  75              	.LBE9:
  76              	.LBE8:
  77              		.loc 1 214 0
  78 0028 BDE80840 		pop	{r3, lr}
  79              		.cfi_restore 14
  80              		.cfi_restore 3
  81              		.cfi_def_cfa_offset 0
  82              		.loc 1 213 0
  83 002c FFF7FEBF 		b	_port_irq_epilogue
  84              	.LVL4:
  85              	.L6:
  86              		.align	2
  87              	.L5:
  88 0030 00000000 		.word	.LANCHOR0
  89              		.cfi_endproc
  90              	.LFE259:
  91              		.size	VectorB4, .-VectorB4
  92              		.section	.text.gpt_lld_init,"ax",%progbits
  93              		.align	1
  94              		.p2align 4,,15
  95              		.global	gpt_lld_init
  96              		.syntax unified
  97              		.thumb
  98              		.thumb_func
  99              		.fpu softvfp
 100              		.type	gpt_lld_init, %function
 101              	gpt_lld_init:
 102              	.LFB260:
 103              		.loc 1 397 0
 104              		.cfi_startproc
 105              		@ args = 0, pretend = 0, frame = 0
 106              		@ frame_needed = 0, uses_anonymous_args = 0
 107              		@ link register save eliminated.
 108              		.loc 1 413 0
 109 0000 0248     		ldr	r0, .L8
 110 0002 034B     		ldr	r3, .L8+4
 111 0004 C360     		str	r3, [r0, #12]
 112              		.loc 1 414 0
 113 0006 FFF7FEBF 		b	gptObjectInit
 114              	.LVL5:
ARM GAS  /tmp/cca0ZE6L.s 			page 3


 115              	.L9:
 116 000a 00BF     		.align	2
 117              	.L8:
 118 000c 00000000 		.word	.LANCHOR0
 119 0010 00040040 		.word	1073742848
 120              		.cfi_endproc
 121              	.LFE260:
 122              		.size	gpt_lld_init, .-gpt_lld_init
 123              		.section	.text.gpt_lld_start,"ax",%progbits
 124              		.align	1
 125              		.p2align 4,,15
 126              		.global	gpt_lld_start
 127              		.syntax unified
 128              		.thumb
 129              		.thumb_func
 130              		.fpu softvfp
 131              		.type	gpt_lld_start, %function
 132              	gpt_lld_start:
 133              	.LFB261:
 134              		.loc 1 479 0
 135              		.cfi_startproc
 136              		@ args = 0, pretend = 0, frame = 0
 137              		@ frame_needed = 0, uses_anonymous_args = 0
 138              	.LVL6:
 139 0000 38B5     		push	{r3, r4, r5, lr}
 140              		.cfi_def_cfa_offset 16
 141              		.cfi_offset 3, -16
 142              		.cfi_offset 4, -12
 143              		.cfi_offset 5, -8
 144              		.cfi_offset 14, -4
 145              		.loc 1 482 0
 146 0002 0378     		ldrb	r3, [r0]	@ zero_extendqisi2
 147 0004 012B     		cmp	r3, #1
 148              		.loc 1 479 0
 149 0006 0446     		mov	r4, r0
 150              		.loc 1 482 0
 151 0008 12D0     		beq	.L13
 152              	.LVL7:
 153              	.L11:
 154              		.loc 1 599 0
 155 000a 6068     		ldr	r0, [r4, #4]
 156 000c A368     		ldr	r3, [r4, #8]
 157              		.loc 1 608 0
 158 000e C168     		ldr	r1, [r0, #12]
 159              		.loc 1 599 0
 160 0010 0568     		ldr	r5, [r0]
 161              		.loc 1 604 0
 162 0012 E268     		ldr	r2, [r4, #12]
 163              		.loc 1 599 0
 164 0014 B3FBF5F3 		udiv	r3, r3, r5
 165 0018 013B     		subs	r3, r3, #1
 166              		.loc 1 605 0
 167 001a 8468     		ldr	r4, [r0, #8]
 168              	.LVL8:
 169              		.loc 1 599 0
 170 001c 9BB2     		uxth	r3, r3
 171              	.LVL9:
ARM GAS  /tmp/cca0ZE6L.s 			page 4


 172              		.loc 1 604 0
 173 001e 0020     		movs	r0, #0
 174              		.loc 1 608 0
 175 0020 21F0FF01 		bic	r1, r1, #255
 176              		.loc 1 604 0
 177 0024 1060     		str	r0, [r2]
 178              		.loc 1 605 0
 179 0026 5460     		str	r4, [r2, #4]
 180              		.loc 1 606 0
 181 0028 9362     		str	r3, [r2, #40]
 182              		.loc 1 607 0
 183 002a 1061     		str	r0, [r2, #16]
 184              		.loc 1 608 0
 185 002c D160     		str	r1, [r2, #12]
 186 002e 38BD     		pop	{r3, r4, r5, pc}
 187              	.LVL10:
 188              	.L13:
 189              		.loc 1 505 0
 190 0030 0A4B     		ldr	r3, .L14
 191 0032 9842     		cmp	r0, r3
 192 0034 E9D1     		bne	.L11
 193              		.loc 1 506 0
 194 0036 0A4B     		ldr	r3, .L14+4
 195 0038 1A6C     		ldr	r2, [r3, #64]
 196 003a 42F00202 		orr	r2, r2, #2
 197 003e 1A64     		str	r2, [r3, #64]
 198              		.loc 1 507 0
 199 0040 1A6A     		ldr	r2, [r3, #32]
 200 0042 0020     		movs	r0, #0
 201              	.LVL11:
 202 0044 42F00202 		orr	r2, r2, #2
 203 0048 1A62     		str	r2, [r3, #32]
 204              		.loc 1 508 0
 205 004a 0721     		movs	r1, #7
 206              		.loc 1 507 0
 207 004c 1862     		str	r0, [r3, #32]
 208              		.loc 1 508 0
 209 004e 1D20     		movs	r0, #29
 210 0050 FFF7FEFF 		bl	nvicEnableVector
 211              	.LVL12:
 212              		.loc 1 509 0
 213 0054 034B     		ldr	r3, .L14+8
 214 0056 A360     		str	r3, [r4, #8]
 215 0058 D7E7     		b	.L11
 216              	.L15:
 217 005a 00BF     		.align	2
 218              	.L14:
 219 005c 00000000 		.word	.LANCHOR0
 220 0060 00380240 		.word	1073887232
 221 0064 00BD0105 		.word	84000000
 222              		.cfi_endproc
 223              	.LFE261:
 224              		.size	gpt_lld_start, .-gpt_lld_start
 225              		.section	.text.gpt_lld_stop,"ax",%progbits
 226              		.align	1
 227              		.p2align 4,,15
 228              		.global	gpt_lld_stop
ARM GAS  /tmp/cca0ZE6L.s 			page 5


 229              		.syntax unified
 230              		.thumb
 231              		.thumb_func
 232              		.fpu softvfp
 233              		.type	gpt_lld_stop, %function
 234              	gpt_lld_stop:
 235              	.LFB262:
 236              		.loc 1 619 0
 237              		.cfi_startproc
 238              		@ args = 0, pretend = 0, frame = 0
 239              		@ frame_needed = 0, uses_anonymous_args = 0
 240              	.LVL13:
 241 0000 08B5     		push	{r3, lr}
 242              		.cfi_def_cfa_offset 8
 243              		.cfi_offset 3, -8
 244              		.cfi_offset 14, -4
 245              		.loc 1 621 0
 246 0002 0378     		ldrb	r3, [r0]	@ zero_extendqisi2
 247 0004 022B     		cmp	r3, #2
 248 0006 00D0     		beq	.L21
 249              	.LVL14:
 250              	.L16:
 251 0008 08BD     		pop	{r3, pc}
 252              	.LVL15:
 253              	.L21:
 254              		.loc 1 639 0
 255 000a 0849     		ldr	r1, .L22
 256              		.loc 1 622 0
 257 000c C368     		ldr	r3, [r0, #12]
 258 000e 0022     		movs	r2, #0
 259              		.loc 1 639 0
 260 0010 8842     		cmp	r0, r1
 261              		.loc 1 622 0
 262 0012 1A60     		str	r2, [r3]
 263              		.loc 1 623 0
 264 0014 DA60     		str	r2, [r3, #12]
 265              		.loc 1 624 0
 266 0016 1A61     		str	r2, [r3, #16]
 267              		.loc 1 639 0
 268 0018 F6D1     		bne	.L16
 269              		.loc 1 640 0
 270 001a 1D20     		movs	r0, #29
 271              	.LVL16:
 272 001c FFF7FEFF 		bl	nvicDisableVector
 273              	.LVL17:
 274              		.loc 1 641 0
 275 0020 034A     		ldr	r2, .L22+4
 276 0022 136C     		ldr	r3, [r2, #64]
 277 0024 23F00203 		bic	r3, r3, #2
 278 0028 1364     		str	r3, [r2, #64]
 279              		.loc 1 699 0
 280 002a EDE7     		b	.L16
 281              	.L23:
 282              		.align	2
 283              	.L22:
 284 002c 00000000 		.word	.LANCHOR0
 285 0030 00380240 		.word	1073887232
ARM GAS  /tmp/cca0ZE6L.s 			page 6


 286              		.cfi_endproc
 287              	.LFE262:
 288              		.size	gpt_lld_stop, .-gpt_lld_stop
 289              		.section	.text.gpt_lld_start_timer,"ax",%progbits
 290              		.align	1
 291              		.p2align 4,,15
 292              		.global	gpt_lld_start_timer
 293              		.syntax unified
 294              		.thumb
 295              		.thumb_func
 296              		.fpu softvfp
 297              		.type	gpt_lld_start_timer, %function
 298              	gpt_lld_start_timer:
 299              	.LFB263:
 300              		.loc 1 709 0
 301              		.cfi_startproc
 302              		@ args = 0, pretend = 0, frame = 0
 303              		@ frame_needed = 0, uses_anonymous_args = 0
 304              		@ link register save eliminated.
 305              	.LVL18:
 306              		.loc 1 719 0
 307 0000 4268     		ldr	r2, [r0, #4]
 308              		.loc 1 711 0
 309 0002 C368     		ldr	r3, [r0, #12]
 310              		.loc 1 719 0
 311 0004 5068     		ldr	r0, [r2, #4]
 312              	.LVL19:
 313              		.loc 1 711 0
 314 0006 0139     		subs	r1, r1, #1
 315              	.LVL20:
 316 0008 D962     		str	r1, [r3, #44]
 317              		.loc 1 713 0
 318 000a 0022     		movs	r2, #0
 319              		.loc 1 712 0
 320 000c 0121     		movs	r1, #1
 321              	.LVL21:
 322 000e 5961     		str	r1, [r3, #20]
 323              	.LVL22:
 324              		.loc 1 713 0
 325 0010 5A62     		str	r2, [r3, #36]
 326              		.loc 1 718 0
 327 0012 1A61     		str	r2, [r3, #16]
 328              		.loc 1 719 0
 329 0014 10B1     		cbz	r0, .L25
 330              		.loc 1 720 0
 331 0016 DA68     		ldr	r2, [r3, #12]
 332 0018 0A43     		orrs	r2, r2, r1
 333 001a DA60     		str	r2, [r3, #12]
 334              	.L25:
 335              		.loc 1 721 0
 336 001c 0522     		movs	r2, #5
 337 001e 1A60     		str	r2, [r3]
 338 0020 7047     		bx	lr
 339              		.cfi_endproc
 340              	.LFE263:
 341              		.size	gpt_lld_start_timer, .-gpt_lld_start_timer
 342 0022 00BF     		.section	.text.gpt_lld_stop_timer,"ax",%progbits
ARM GAS  /tmp/cca0ZE6L.s 			page 7


 343              		.align	1
 344              		.p2align 4,,15
 345              		.global	gpt_lld_stop_timer
 346              		.syntax unified
 347              		.thumb
 348              		.thumb_func
 349              		.fpu softvfp
 350              		.type	gpt_lld_stop_timer, %function
 351              	gpt_lld_stop_timer:
 352              	.LFB264:
 353              		.loc 1 731 0
 354              		.cfi_startproc
 355              		@ args = 0, pretend = 0, frame = 0
 356              		@ frame_needed = 0, uses_anonymous_args = 0
 357              		@ link register save eliminated.
 358              	.LVL23:
 359              		.loc 1 733 0
 360 0000 C368     		ldr	r3, [r0, #12]
 361 0002 0022     		movs	r2, #0
 362 0004 1A60     		str	r2, [r3]
 363              		.loc 1 734 0
 364 0006 1A61     		str	r2, [r3, #16]
 365              		.loc 1 737 0
 366 0008 DA68     		ldr	r2, [r3, #12]
 367 000a 22F0FF02 		bic	r2, r2, #255
 368 000e DA60     		str	r2, [r3, #12]
 369 0010 7047     		bx	lr
 370              		.cfi_endproc
 371              	.LFE264:
 372              		.size	gpt_lld_stop_timer, .-gpt_lld_stop_timer
 373 0012 00BF     		.section	.text.gpt_lld_polled_delay,"ax",%progbits
 374              		.align	1
 375              		.p2align 4,,15
 376              		.global	gpt_lld_polled_delay
 377              		.syntax unified
 378              		.thumb
 379              		.thumb_func
 380              		.fpu softvfp
 381              		.type	gpt_lld_polled_delay, %function
 382              	gpt_lld_polled_delay:
 383              	.LFB265:
 384              		.loc 1 751 0
 385              		.cfi_startproc
 386              		@ args = 0, pretend = 0, frame = 0
 387              		@ frame_needed = 0, uses_anonymous_args = 0
 388              		@ link register save eliminated.
 389              	.LVL24:
 390              		.loc 1 753 0
 391 0000 C268     		ldr	r2, [r0, #12]
 392 0002 0139     		subs	r1, r1, #1
 393              	.LVL25:
 394              		.loc 1 754 0
 395 0004 0120     		movs	r0, #1
 396              	.LVL26:
 397              		.loc 1 755 0
 398 0006 0D23     		movs	r3, #13
 399              		.loc 1 753 0
ARM GAS  /tmp/cca0ZE6L.s 			page 8


 400 0008 D162     		str	r1, [r2, #44]
 401              		.loc 1 754 0
 402 000a 5061     		str	r0, [r2, #20]
 403              		.loc 1 755 0
 404 000c 1360     		str	r3, [r2]
 405              	.L31:
 406              		.loc 1 756 0 discriminator 1
 407 000e 1369     		ldr	r3, [r2, #16]
 408 0010 DB07     		lsls	r3, r3, #31
 409 0012 FCD5     		bpl	.L31
 410              		.loc 1 758 0
 411 0014 0023     		movs	r3, #0
 412 0016 1361     		str	r3, [r2, #16]
 413 0018 7047     		bx	lr
 414              		.cfi_endproc
 415              	.LFE265:
 416              		.size	gpt_lld_polled_delay, .-gpt_lld_polled_delay
 417              		.global	GPTD3
 418 001a 00BF     		.section	.bss.GPTD3,"aw",%nobits
 419              		.align	2
 420              		.set	.LANCHOR0,. + 0
 421              		.type	GPTD3, %object
 422              		.size	GPTD3, 16
 423              	GPTD3:
 424 0000 00000000 		.space	16
 424      00000000 
 424      00000000 
 424      00000000 
 425              		.text
 426              	.Letext0:
 427              		.file 2 "/usr/lib/gcc/arm-none-eabi/6.2.1/include/stddef.h"
 428              		.file 3 "/usr/arm-none-eabi/include/machine/_default_types.h"
 429              		.file 4 "/usr/arm-none-eabi/include/sys/_stdint.h"
 430              		.file 5 "/home/selim/working/ChibiOS/os/rt/ports/ARMCMx/compilers/GCC/chtypes.h"
 431              		.file 6 "/home/selim/working/ChibiOS/os/rt/include/chsystypes.h"
 432              		.file 7 "/home/selim/working/ChibiOS/os/rt/include/chschd.h"
 433              		.file 8 "/home/selim/working/ChibiOS/os/ext/CMSIS/include/core_cm4.h"
 434              		.file 9 "/home/selim/working/ChibiOS/os/ext/CMSIS/ST/system_stm32f4xx.h"
 435              		.file 10 "/home/selim/working/ChibiOS/os/ext/CMSIS/ST/stm32f407xx.h"
 436              		.file 11 "/home/selim/working/ChibiOS/os/rt/ports/ARMCMx/chcore.h"
 437              		.file 12 "/home/selim/working/ChibiOS/os/rt/ports/ARMCMx/chcore_v7m.h"
 438              		.file 13 "/home/selim/working/ChibiOS/os/hal/ports/STM32/LLD/TIMv1/stm32_tim.h"
 439              		.file 14 "/home/selim/working/ChibiOS/os/rt/include/chtm.h"
 440              		.file 15 "/home/selim/working/ChibiOS/os/rt/include/chsem.h"
 441              		.file 16 "/home/selim/working/ChibiOS/os/rt/include/chmtx.h"
 442              		.file 17 "/home/selim/working/ChibiOS/os/rt/include/chregistry.h"
 443              		.file 18 "/home/selim/working/ChibiOS/os/rt/include/chevents.h"
 444              		.file 19 "/home/selim/working/ChibiOS/os/rt/include/chqueues.h"
 445              		.file 20 "/home/selim/working/ChibiOS/os/hal/ports/STM32/STM32F4xx/stm32_dma.h"
 446              		.file 21 "/home/selim/working/ChibiOS/os/hal/ports/STM32/LLD/GPIOv2/pal_lld.h"
 447              		.file 22 "/home/selim/working/ChibiOS/os/hal/include/adc.h"
 448              		.file 23 "/home/selim/working/ChibiOS/os/hal/ports/STM32/STM32F4xx/adc_lld.h"
 449              		.file 24 "/home/selim/working/ChibiOS/os/hal/include/gpt.h"
 450              		.file 25 "/home/selim/working/ChibiOS/os/hal/ports/STM32/LLD/TIMv1/gpt_lld.h"
 451              		.file 26 "/home/selim/working/ChibiOS/os/hal/include/pwm.h"
 452              		.file 27 "/home/selim/working/ChibiOS/os/hal/ports/STM32/LLD/TIMv1/pwm_lld.h"
 453              		.file 28 "/home/selim/working/ChibiOS/os/hal/include/serial.h"
ARM GAS  /tmp/cca0ZE6L.s 			page 9


 454              		.file 29 "/home/selim/working/ChibiOS/os/hal/ports/STM32/LLD/USARTv1/serial_lld.h"
 455              		.file 30 "/home/selim/working/ChibiOS/os/hal/include/spi.h"
 456              		.file 31 "/home/selim/working/ChibiOS/os/hal/ports/STM32/LLD/SPIv1/spi_lld.h"
 457              		.file 32 "/home/selim/working/ChibiOS/os/hal/include/usb.h"
 458              		.file 33 "/home/selim/working/ChibiOS/os/hal/ports/STM32/LLD/OTGv1/usb_lld.h"
 459              		.file 34 "/home/selim/working/ChibiOS/os/hal/ports/STM32/LLD/OTGv1/stm32_otg.h"
 460              		.file 35 "/home/selim/working/ChibiOS/os/hal/ports/common/ARMCMx/nvic.h"