ARM GAS  /tmp/cc4YHyzb.s 			page 1


   1              		.cpu cortex-m4
   2              		.eabi_attribute 20, 1
   3              		.eabi_attribute 21, 1
   4              		.eabi_attribute 23, 3
   5              		.eabi_attribute 24, 1
   6              		.eabi_attribute 25, 1
   7              		.eabi_attribute 26, 1
   8              		.eabi_attribute 30, 2
   9              		.eabi_attribute 34, 1
  10              		.eabi_attribute 18, 4
  11              		.file	"hal.c"
  12              		.text
  13              	.Ltext0:
  14              		.cfi_sections	.debug_frame
  15              		.section	.text.halInit,"ax",%progbits
  16              		.align	1
  17              		.p2align 4,,15
  18              		.global	halInit
  19              		.syntax unified
  20              		.thumb
  21              		.thumb_func
  22              		.fpu softvfp
  23              		.type	halInit, %function
  24              	halInit:
  25              	.LFB258:
  26              		.file 1 "/home/selim/working/ChibiOS/os/hal/src/hal.c"
  27              		.loc 1 56 0
  28              		.cfi_startproc
  29              		@ args = 0, pretend = 0, frame = 0
  30              		@ frame_needed = 0, uses_anonymous_args = 0
  31 0000 08B5     		push	{r3, lr}
  32              		.cfi_def_cfa_offset 8
  33              		.cfi_offset 3, -8
  34              		.cfi_offset 14, -4
  35              		.loc 1 62 0
  36 0002 FFF7FEFF 		bl	hal_lld_init
  37              	.LVL0:
  38              		.loc 1 65 0
  39 0006 0B48     		ldr	r0, .L3
  40 0008 FFF7FEFF 		bl	_pal_lld_init
  41              	.LVL1:
  42              		.loc 1 68 0
  43 000c FFF7FEFF 		bl	adcInit
  44              	.LVL2:
  45              		.loc 1 80 0
  46 0010 FFF7FEFF 		bl	gptInit
  47              	.LVL3:
  48              		.loc 1 95 0
  49 0014 FFF7FEFF 		bl	pwmInit
  50              	.LVL4:
  51              		.loc 1 98 0
  52 0018 FFF7FEFF 		bl	sdInit
  53              	.LVL5:
  54              		.loc 1 104 0
  55 001c FFF7FEFF 		bl	spiInit
  56              	.LVL6:
  57              		.loc 1 110 0
ARM GAS  /tmp/cc4YHyzb.s 			page 2


  58 0020 FFF7FEFF 		bl	usbInit
  59              	.LVL7:
  60              		.loc 1 116 0
  61 0024 FFF7FEFF 		bl	sduInit
  62              	.LVL8:
  63              		.loc 1 130 0
  64 0028 FFF7FEFF 		bl	boardInit
  65              	.LVL9:
  66              		.loc 1 139 0
  67 002c BDE80840 		pop	{r3, lr}
  68              		.cfi_restore 14
  69              		.cfi_restore 3
  70              		.cfi_def_cfa_offset 0
  71              		.loc 1 137 0
  72 0030 FFF7FEBF 		b	stInit
  73              	.LVL10:
  74              	.L4:
  75              		.align	2
  76              	.L3:
  77 0034 00000000 		.word	pal_default_config
  78              		.cfi_endproc
  79              	.LFE258:
  80              		.size	halInit, .-halInit
  81              		.text
  82              	.Letext0:
  83              		.file 2 "/usr/lib/gcc/arm-none-eabi/6.2.1/include/stddef.h"
  84              		.file 3 "/usr/arm-none-eabi/include/machine/_default_types.h"
  85              		.file 4 "/usr/arm-none-eabi/include/sys/_stdint.h"
  86              		.file 5 "/home/selim/working/ChibiOS/os/rt/ports/ARMCMx/compilers/GCC/chtypes.h"
  87              		.file 6 "/home/selim/working/ChibiOS/os/rt/include/chsystypes.h"
  88              		.file 7 "/home/selim/working/ChibiOS/os/rt/include/chschd.h"
  89              		.file 8 "/home/selim/working/ChibiOS/os/ext/CMSIS/include/core_cm4.h"
  90              		.file 9 "/home/selim/working/ChibiOS/os/ext/CMSIS/ST/system_stm32f4xx.h"
  91              		.file 10 "/home/selim/working/ChibiOS/os/ext/CMSIS/ST/stm32f407xx.h"
  92              		.file 11 "/home/selim/working/ChibiOS/os/rt/ports/ARMCMx/chcore.h"
  93              		.file 12 "/home/selim/working/ChibiOS/os/rt/ports/ARMCMx/chcore_v7m.h"
  94              		.file 13 "/home/selim/working/ChibiOS/os/hal/ports/STM32/LLD/TIMv1/stm32_tim.h"
  95              		.file 14 "/home/selim/working/ChibiOS/os/rt/include/chtm.h"
  96              		.file 15 "/home/selim/working/ChibiOS/os/rt/include/chsem.h"
  97              		.file 16 "/home/selim/working/ChibiOS/os/rt/include/chmtx.h"
  98              		.file 17 "/home/selim/working/ChibiOS/os/rt/include/chregistry.h"
  99              		.file 18 "/home/selim/working/ChibiOS/os/rt/include/chevents.h"
 100              		.file 19 "/home/selim/working/ChibiOS/os/rt/include/chqueues.h"
 101              		.file 20 "/home/selim/working/ChibiOS/os/hal/ports/STM32/STM32F4xx/stm32_dma.h"
 102              		.file 21 "/home/selim/working/ChibiOS/os/hal/ports/STM32/LLD/GPIOv2/pal_lld.h"
 103              		.file 22 "/home/selim/working/ChibiOS/os/hal/include/adc.h"
 104              		.file 23 "/home/selim/working/ChibiOS/os/hal/ports/STM32/STM32F4xx/adc_lld.h"
 105              		.file 24 "/home/selim/working/ChibiOS/os/hal/include/gpt.h"
 106              		.file 25 "/home/selim/working/ChibiOS/os/hal/ports/STM32/LLD/TIMv1/gpt_lld.h"
 107              		.file 26 "/home/selim/working/ChibiOS/os/hal/include/pwm.h"
 108              		.file 27 "/home/selim/working/ChibiOS/os/hal/ports/STM32/LLD/TIMv1/pwm_lld.h"
 109              		.file 28 "/home/selim/working/ChibiOS/os/hal/include/serial.h"
 110              		.file 29 "/home/selim/working/ChibiOS/os/hal/ports/STM32/LLD/USARTv1/serial_lld.h"
 111              		.file 30 "/home/selim/working/ChibiOS/os/hal/include/spi.h"
 112              		.file 31 "/home/selim/working/ChibiOS/os/hal/ports/STM32/LLD/SPIv1/spi_lld.h"
 113              		.file 32 "/home/selim/working/ChibiOS/os/hal/include/usb.h"
 114              		.file 33 "/home/selim/working/ChibiOS/os/hal/ports/STM32/LLD/OTGv1/usb_lld.h"
ARM GAS  /tmp/cc4YHyzb.s 			page 3


 115              		.file 34 "/home/selim/working/ChibiOS/os/hal/ports/STM32/LLD/OTGv1/stm32_otg.h"
 116              		.file 35 "/home/selim/working/ChibiOS/os/hal/ports/STM32/STM32F4xx/hal_lld.h"
 117              		.file 36 "/home/selim/working/ChibiOS/os/hal/include/serial_usb.h"
 118              		.file 37 "/home/selim/working/ChibiOS/os/hal/boards/ST_STM32F4_DISCOVERY/board.h"
 119              		.file 38 "/home/selim/working/ChibiOS/os/hal/include/st.h"
 120              		.file 39 "/home/selim/working/ChibiOS/os/hal/osal/rt/osal.h"