ARM GAS  /tmp/cclafjft.s 			page 1


   1              		.cpu cortex-m4
   2              		.eabi_attribute 20, 1
   3              		.eabi_attribute 21, 1
   4              		.eabi_attribute 23, 3
   5              		.eabi_attribute 24, 1
   6              		.eabi_attribute 25, 1
   7              		.eabi_attribute 26, 1
   8              		.eabi_attribute 30, 2
   9              		.eabi_attribute 34, 1
  10              		.eabi_attribute 18, 4
  11              		.file	"lis302dl.c"
  12              		.text
  13              	.Ltext0:
  14              		.cfi_sections	.debug_frame
  15              		.section	.text.lis302dlReadRegister,"ax",%progbits
  16              		.align	1
  17              		.p2align 4,,15
  18              		.global	lis302dlReadRegister
  19              		.syntax unified
  20              		.thumb
  21              		.thumb_func
  22              		.fpu softvfp
  23              		.type	lis302dlReadRegister, %function
  24              	lis302dlReadRegister:
  25              	.LFB258:
  26              		.file 1 "/home/selim/working/ChibiOS/os/various/devices_lib/accel/lis302dl.c"
  27              		.loc 1 59 0
  28              		.cfi_startproc
  29              		@ args = 0, pretend = 0, frame = 0
  30              		@ frame_needed = 0, uses_anonymous_args = 0
  31              	.LVL0:
  32 0000 F8B5     		push	{r3, r4, r5, r6, r7, lr}
  33              		.cfi_def_cfa_offset 24
  34              		.cfi_offset 3, -24
  35              		.cfi_offset 4, -20
  36              		.cfi_offset 5, -16
  37              		.cfi_offset 6, -12
  38              		.cfi_offset 7, -8
  39              		.cfi_offset 14, -4
  40              		.loc 1 62 0
  41 0002 0B4C     		ldr	r4, .L3
  42              		.loc 1 64 0
  43 0004 0B4E     		ldr	r6, .L3+4
  44              		.loc 1 59 0
  45 0006 0D46     		mov	r5, r1
  46 0008 0746     		mov	r7, r0
  47              		.loc 1 61 0
  48 000a FFF7FEFF 		bl	spiSelect
  49              	.LVL1:
  50              		.loc 1 62 0
  51 000e 65F07F01 		orn	r1, r5, #127
  52              		.loc 1 64 0
  53 0012 2246     		mov	r2, r4
  54 0014 3846     		mov	r0, r7
  55 0016 3346     		mov	r3, r6
  56              		.loc 1 62 0
  57 0018 2170     		strb	r1, [r4]
ARM GAS  /tmp/cclafjft.s 			page 2


  58              		.loc 1 63 0
  59 001a FF25     		movs	r5, #255
  60              		.loc 1 64 0
  61 001c 0221     		movs	r1, #2
  62              		.loc 1 63 0
  63 001e 6570     		strb	r5, [r4, #1]
  64              		.loc 1 64 0
  65 0020 FFF7FEFF 		bl	spiExchange
  66              	.LVL2:
  67              		.loc 1 65 0
  68 0024 3846     		mov	r0, r7
  69 0026 FFF7FEFF 		bl	spiUnselect
  70              	.LVL3:
  71              		.loc 1 67 0
  72 002a 7078     		ldrb	r0, [r6, #1]	@ zero_extendqisi2
  73 002c F8BD     		pop	{r3, r4, r5, r6, r7, pc}
  74              	.LVL4:
  75              	.L4:
  76 002e 00BF     		.align	2
  77              	.L3:
  78 0030 00000000 		.word	.LANCHOR0
  79 0034 00000000 		.word	.LANCHOR1
  80              		.cfi_endproc
  81              	.LFE258:
  82              		.size	lis302dlReadRegister, .-lis302dlReadRegister
  83              		.section	.text.lis302dlWriteRegister,"ax",%progbits
  84              		.align	1
  85              		.p2align 4,,15
  86              		.global	lis302dlWriteRegister
  87              		.syntax unified
  88              		.thumb
  89              		.thumb_func
  90              		.fpu softvfp
  91              		.type	lis302dlWriteRegister, %function
  92              	lis302dlWriteRegister:
  93              	.LFB259:
  94              		.loc 1 77 0
  95              		.cfi_startproc
  96              		@ args = 0, pretend = 0, frame = 0
  97              		@ frame_needed = 0, uses_anonymous_args = 0
  98              	.LVL5:
  99 0000 A1F12003 		sub	r3, r1, #32
 100 0004 DBB2     		uxtb	r3, r3
 101 0006 1F2B     		cmp	r3, #31
 102 0008 07D8     		bhi	.L11
 103 000a 70B5     		push	{r4, r5, r6, lr}
 104              		.cfi_def_cfa_offset 16
 105              		.cfi_offset 4, -16
 106              		.cfi_offset 5, -12
 107              		.cfi_offset 6, -8
 108              		.cfi_offset 14, -4
 109 000c 0125     		movs	r5, #1
 110 000e 0C4C     		ldr	r4, .L16
 111 0010 05FA03F3 		lsl	r3, r5, r3
 112 0014 1C40     		ands	r4, r4, r3
 113 0016 0CB9     		cbnz	r4, .L15
 114 0018 70BD     		pop	{r4, r5, r6, pc}
ARM GAS  /tmp/cclafjft.s 			page 3


 115              	.L11:
 116              		.cfi_def_cfa_offset 0
 117              		.cfi_restore 4
 118              		.cfi_restore 5
 119              		.cfi_restore 6
 120              		.cfi_restore 14
 121 001a 7047     		bx	lr
 122              	.L15:
 123              		.cfi_def_cfa_offset 16
 124              		.cfi_offset 4, -16
 125              		.cfi_offset 5, -12
 126              		.cfi_offset 6, -8
 127              		.cfi_offset 14, -4
 128 001c 0646     		mov	r6, r0
 129 001e 1546     		mov	r5, r2
 130 0020 0C46     		mov	r4, r1
 131              		.loc 1 110 0
 132 0022 FFF7FEFF 		bl	spiSelect
 133              	.LVL6:
 134              		.loc 1 111 0
 135 0026 074B     		ldr	r3, .L16+4
 136              		.loc 1 113 0
 137 0028 3046     		mov	r0, r6
 138 002a 0221     		movs	r1, #2
 139 002c 1A46     		mov	r2, r3
 140              		.loc 1 111 0
 141 002e 1C70     		strb	r4, [r3]
 142              		.loc 1 112 0
 143 0030 5D70     		strb	r5, [r3, #1]
 144              		.loc 1 113 0
 145 0032 FFF7FEFF 		bl	spiSend
 146              	.LVL7:
 147              		.loc 1 114 0
 148 0036 3046     		mov	r0, r6
 149              		.loc 1 116 0
 150 0038 BDE87040 		pop	{r4, r5, r6, lr}
 151              		.cfi_restore 14
 152              		.cfi_restore 6
 153              		.cfi_restore 5
 154              		.cfi_restore 4
 155              		.cfi_def_cfa_offset 0
 156              	.LVL8:
 157              		.loc 1 114 0
 158 003c FFF7FEBF 		b	spiUnselect
 159              	.LVL9:
 160              	.L17:
 161              		.align	2
 162              	.L16:
 163 0040 0700DDF9 		.word	-102957049
 164 0044 00000000 		.word	.LANCHOR0
 165              		.cfi_endproc
 166              	.LFE259:
 167              		.size	lis302dlWriteRegister, .-lis302dlWriteRegister
 168              		.section	.bss.rxbuf,"aw",%nobits
 169              		.align	2
 170              		.set	.LANCHOR1,. + 0
 171              		.type	rxbuf, %object
ARM GAS  /tmp/cclafjft.s 			page 4


 172              		.size	rxbuf, 2
 173              	rxbuf:
 174 0000 0000     		.space	2
 175              		.section	.bss.txbuf,"aw",%nobits
 176              		.align	2
 177              		.set	.LANCHOR0,. + 0
 178              		.type	txbuf, %object
 179              		.size	txbuf, 2
 180              	txbuf:
 181 0000 0000     		.space	2
 182              		.text
 183              	.Letext0:
 184              		.file 2 "/usr/lib/gcc/arm-none-eabi/6.2.1/include/stddef.h"
 185              		.file 3 "/usr/arm-none-eabi/include/machine/_default_types.h"
 186              		.file 4 "/usr/arm-none-eabi/include/sys/_stdint.h"
 187              		.file 5 "/home/selim/working/ChibiOS/os/rt/ports/ARMCMx/compilers/GCC/chtypes.h"
 188              		.file 6 "/home/selim/working/ChibiOS/os/rt/include/chsystypes.h"
 189              		.file 7 "/home/selim/working/ChibiOS/os/rt/include/chschd.h"
 190              		.file 8 "/home/selim/working/ChibiOS/os/ext/CMSIS/include/core_cm4.h"
 191              		.file 9 "/home/selim/working/ChibiOS/os/ext/CMSIS/ST/system_stm32f4xx.h"
 192              		.file 10 "/home/selim/working/ChibiOS/os/ext/CMSIS/ST/stm32f407xx.h"
 193              		.file 11 "/home/selim/working/ChibiOS/os/rt/ports/ARMCMx/chcore.h"
 194              		.file 12 "/home/selim/working/ChibiOS/os/rt/ports/ARMCMx/chcore_v7m.h"
 195              		.file 13 "/home/selim/working/ChibiOS/os/hal/ports/STM32/LLD/TIMv1/stm32_tim.h"
 196              		.file 14 "/home/selim/working/ChibiOS/os/rt/include/chtm.h"
 197              		.file 15 "/home/selim/working/ChibiOS/os/rt/include/chsem.h"
 198              		.file 16 "/home/selim/working/ChibiOS/os/rt/include/chmtx.h"
 199              		.file 17 "/home/selim/working/ChibiOS/os/rt/include/chregistry.h"
 200              		.file 18 "/home/selim/working/ChibiOS/os/rt/include/chevents.h"
 201              		.file 19 "/home/selim/working/ChibiOS/os/rt/include/chqueues.h"
 202              		.file 20 "/home/selim/working/ChibiOS/os/hal/ports/STM32/STM32F4xx/stm32_dma.h"
 203              		.file 21 "/home/selim/working/ChibiOS/os/hal/ports/STM32/LLD/GPIOv2/pal_lld.h"
 204              		.file 22 "/home/selim/working/ChibiOS/os/hal/include/adc.h"
 205              		.file 23 "/home/selim/working/ChibiOS/os/hal/ports/STM32/STM32F4xx/adc_lld.h"
 206              		.file 24 "/home/selim/working/ChibiOS/os/hal/include/gpt.h"
 207              		.file 25 "/home/selim/working/ChibiOS/os/hal/ports/STM32/LLD/TIMv1/gpt_lld.h"
 208              		.file 26 "/home/selim/working/ChibiOS/os/hal/include/pwm.h"
 209              		.file 27 "/home/selim/working/ChibiOS/os/hal/ports/STM32/LLD/TIMv1/pwm_lld.h"
 210              		.file 28 "/home/selim/working/ChibiOS/os/hal/include/serial.h"
 211              		.file 29 "/home/selim/working/ChibiOS/os/hal/ports/STM32/LLD/USARTv1/serial_lld.h"
 212              		.file 30 "/home/selim/working/ChibiOS/os/hal/include/spi.h"
 213              		.file 31 "/home/selim/working/ChibiOS/os/hal/ports/STM32/LLD/SPIv1/spi_lld.h"
 214              		.file 32 "/home/selim/working/ChibiOS/os/hal/include/usb.h"
 215              		.file 33 "/home/selim/working/ChibiOS/os/hal/ports/STM32/LLD/OTGv1/usb_lld.h"
 216              		.file 34 "/home/selim/working/ChibiOS/os/hal/ports/STM32/LLD/OTGv1/stm32_otg.h"