ARM GAS  /tmp/ccyyc4jI.s 			page 1


   1              		.cpu cortex-m4
   2              		.eabi_attribute 20, 1
   3              		.eabi_attribute 21, 1
   4              		.eabi_attribute 23, 3
   5              		.eabi_attribute 24, 1
   6              		.eabi_attribute 25, 1
   7              		.eabi_attribute 26, 1
   8              		.eabi_attribute 30, 2
   9              		.eabi_attribute 34, 1
  10              		.eabi_attribute 18, 4
  11              		.file	"memstreams.c"
  12              		.text
  13              	.Ltext0:
  14              		.cfi_sections	.debug_frame
  15              		.section	.text.put,"ax",%progbits
  16              		.align	1
  17              		.p2align 4,,15
  18              		.syntax unified
  19              		.thumb
  20              		.thumb_func
  21              		.fpu softvfp
  22              		.type	put, %function
  23              	put:
  24              	.LFB260:
  25              		.file 1 "/home/selim/working/ChibiOS/os/hal/lib/streams/memstreams.c"
  26              		.loc 1 66 0
  27              		.cfi_startproc
  28              		@ args = 0, pretend = 0, frame = 0
  29              		@ frame_needed = 0, uses_anonymous_args = 0
  30              		@ link register save eliminated.
  31              	.LVL0:
  32              		.loc 1 69 0
  33 0000 C368     		ldr	r3, [r0, #12]
  34 0002 8268     		ldr	r2, [r0, #8]
  35 0004 9A42     		cmp	r2, r3
  36 0006 06D0     		beq	.L3
  37              		.loc 1 71 0
  38 0008 4268     		ldr	r2, [r0, #4]
  39 000a D154     		strb	r1, [r2, r3]
  40              		.loc 1 72 0
  41 000c C368     		ldr	r3, [r0, #12]
  42 000e 0133     		adds	r3, r3, #1
  43 0010 C360     		str	r3, [r0, #12]
  44              		.loc 1 73 0
  45 0012 0020     		movs	r0, #0
  46              	.LVL1:
  47 0014 7047     		bx	lr
  48              	.LVL2:
  49              	.L3:
  50              		.loc 1 70 0
  51 0016 6FF00100 		mvn	r0, #1
  52              	.LVL3:
  53              		.loc 1 74 0
  54 001a 7047     		bx	lr
  55              		.cfi_endproc
  56              	.LFE260:
  57              		.size	put, .-put
ARM GAS  /tmp/ccyyc4jI.s 			page 2


  58              		.section	.text.get,"ax",%progbits
  59              		.align	1
  60              		.p2align 4,,15
  61              		.syntax unified
  62              		.thumb
  63              		.thumb_func
  64              		.fpu softvfp
  65              		.type	get, %function
  66              	get:
  67              	.LFB261:
  68              		.loc 1 76 0
  69              		.cfi_startproc
  70              		@ args = 0, pretend = 0, frame = 0
  71              		@ frame_needed = 0, uses_anonymous_args = 0
  72              		@ link register save eliminated.
  73              	.LVL4:
  74              		.loc 1 80 0
  75 0000 0369     		ldr	r3, [r0, #16]
  76 0002 C168     		ldr	r1, [r0, #12]
  77 0004 9942     		cmp	r1, r3
  78              		.loc 1 76 0
  79 0006 0246     		mov	r2, r0
  80              	.LVL5:
  81              		.loc 1 80 0
  82 0008 04D0     		beq	.L7
  83              		.loc 1 82 0
  84 000a 4168     		ldr	r1, [r0, #4]
  85 000c C85C     		ldrb	r0, [r1, r3]	@ zero_extendqisi2
  86              	.LVL6:
  87              		.loc 1 83 0
  88 000e 0133     		adds	r3, r3, #1
  89 0010 1361     		str	r3, [r2, #16]
  90              		.loc 1 84 0
  91 0012 7047     		bx	lr
  92              	.LVL7:
  93              	.L7:
  94              		.loc 1 81 0
  95 0014 6FF00100 		mvn	r0, #1
  96              	.LVL8:
  97              		.loc 1 85 0
  98 0018 7047     		bx	lr
  99              		.cfi_endproc
 100              	.LFE261:
 101              		.size	get, .-get
 102 001a 00BF     		.section	.text.reads,"ax",%progbits
 103              		.align	1
 104              		.p2align 4,,15
 105              		.syntax unified
 106              		.thumb
 107              		.thumb_func
 108              		.fpu softvfp
 109              		.type	reads, %function
 110              	reads:
 111              	.LFB259:
 112              		.loc 1 56 0
 113              		.cfi_startproc
 114              		@ args = 0, pretend = 0, frame = 0
ARM GAS  /tmp/ccyyc4jI.s 			page 3


 115              		@ frame_needed = 0, uses_anonymous_args = 0
 116              	.LVL9:
 117 0000 70B5     		push	{r4, r5, r6, lr}
 118              		.cfi_def_cfa_offset 16
 119              		.cfi_offset 4, -16
 120              		.cfi_offset 5, -12
 121              		.cfi_offset 6, -8
 122              		.cfi_offset 14, -4
 123              		.loc 1 59 0
 124 0002 0369     		ldr	r3, [r0, #16]
 125 0004 C468     		ldr	r4, [r0, #12]
 126              		.loc 1 61 0
 127 0006 4668     		ldr	r6, [r0, #4]
 128              		.loc 1 59 0
 129 0008 E41A     		subs	r4, r4, r3
 130 000a 9442     		cmp	r4, r2
 131 000c 28BF     		it	cs
 132 000e 1446     		movcs	r4, r2
 133              		.loc 1 56 0
 134 0010 0546     		mov	r5, r0
 135              	.LVL10:
 136              		.loc 1 61 0
 137 0012 2246     		mov	r2, r4
 138 0014 0846     		mov	r0, r1
 139              	.LVL11:
 140 0016 F118     		adds	r1, r6, r3
 141              	.LVL12:
 142 0018 FFF7FEFF 		bl	memcpy
 143              	.LVL13:
 144              		.loc 1 62 0
 145 001c 2B69     		ldr	r3, [r5, #16]
 146 001e 2344     		add	r3, r3, r4
 147 0020 2B61     		str	r3, [r5, #16]
 148              		.loc 1 64 0
 149 0022 2046     		mov	r0, r4
 150 0024 70BD     		pop	{r4, r5, r6, pc}
 151              		.cfi_endproc
 152              	.LFE259:
 153              		.size	reads, .-reads
 154 0026 00BF     		.section	.text.writes,"ax",%progbits
 155              		.align	1
 156              		.p2align 4,,15
 157              		.syntax unified
 158              		.thumb
 159              		.thumb_func
 160              		.fpu softvfp
 161              		.type	writes, %function
 162              	writes:
 163              	.LFB258:
 164              		.loc 1 46 0
 165              		.cfi_startproc
 166              		@ args = 0, pretend = 0, frame = 0
 167              		@ frame_needed = 0, uses_anonymous_args = 0
 168              	.LVL14:
 169 0000 38B5     		push	{r3, r4, r5, lr}
 170              		.cfi_def_cfa_offset 16
 171              		.cfi_offset 3, -16
ARM GAS  /tmp/ccyyc4jI.s 			page 4


 172              		.cfi_offset 4, -12
 173              		.cfi_offset 5, -8
 174              		.cfi_offset 14, -4
 175              		.loc 1 49 0
 176 0002 C368     		ldr	r3, [r0, #12]
 177 0004 8468     		ldr	r4, [r0, #8]
 178 0006 E41A     		subs	r4, r4, r3
 179              		.loc 1 46 0
 180 0008 0546     		mov	r5, r0
 181              	.LVL15:
 182 000a 9442     		cmp	r4, r2
 183              		.loc 1 51 0
 184 000c 4068     		ldr	r0, [r0, #4]
 185              	.LVL16:
 186 000e 28BF     		it	cs
 187 0010 1446     		movcs	r4, r2
 188              	.LVL17:
 189 0012 1844     		add	r0, r0, r3
 190 0014 2246     		mov	r2, r4
 191 0016 FFF7FEFF 		bl	memcpy
 192              	.LVL18:
 193              		.loc 1 52 0
 194 001a EB68     		ldr	r3, [r5, #12]
 195 001c 2344     		add	r3, r3, r4
 196 001e EB60     		str	r3, [r5, #12]
 197              		.loc 1 54 0
 198 0020 2046     		mov	r0, r4
 199 0022 38BD     		pop	{r3, r4, r5, pc}
 200              		.cfi_endproc
 201              	.LFE258:
 202              		.size	writes, .-writes
 203              		.section	.text.msObjectInit,"ax",%progbits
 204              		.align	1
 205              		.p2align 4,,15
 206              		.global	msObjectInit
 207              		.syntax unified
 208              		.thumb
 209              		.thumb_func
 210              		.fpu softvfp
 211              		.type	msObjectInit, %function
 212              	msObjectInit:
 213              	.LFB262:
 214              		.loc 1 104 0
 215              		.cfi_startproc
 216              		@ args = 0, pretend = 0, frame = 0
 217              		@ frame_needed = 0, uses_anonymous_args = 0
 218              		@ link register save eliminated.
 219              	.LVL19:
 220 0000 10B4     		push	{r4}
 221              		.cfi_def_cfa_offset 4
 222              		.cfi_offset 4, -4
 223              		.loc 1 107 0
 224 0002 4160     		str	r1, [r0, #4]
 225              		.loc 1 106 0
 226 0004 034C     		ldr	r4, .L14
 227 0006 0460     		str	r4, [r0]
 228              		.loc 1 110 0
ARM GAS  /tmp/ccyyc4jI.s 			page 5


 229 0008 0021     		movs	r1, #0
 230              	.LVL20:
 231              		.loc 1 108 0
 232 000a 8260     		str	r2, [r0, #8]
 233              		.loc 1 109 0
 234 000c C360     		str	r3, [r0, #12]
 235              		.loc 1 110 0
 236 000e 0161     		str	r1, [r0, #16]
 237              		.loc 1 111 0
 238 0010 10BC     		pop	{r4}
 239              		.cfi_restore 4
 240              		.cfi_def_cfa_offset 0
 241 0012 7047     		bx	lr
 242              	.L15:
 243              		.align	2
 244              	.L14:
 245 0014 00000000 		.word	.LANCHOR0
 246              		.cfi_endproc
 247              	.LFE262:
 248              		.size	msObjectInit, .-msObjectInit
 249              		.section	.rodata.vmt,"a",%progbits
 250              		.align	2
 251              		.set	.LANCHOR0,. + 0
 252              		.type	vmt, %object
 253              		.size	vmt, 16
 254              	vmt:
 255 0000 00000000 		.word	writes
 256 0004 00000000 		.word	reads
 257 0008 00000000 		.word	put
 258 000c 00000000 		.word	get
 259              		.text
 260              	.Letext0:
 261              		.file 2 "/usr/lib/gcc/arm-none-eabi/6.2.1/include/stddef.h"
 262              		.file 3 "/usr/arm-none-eabi/include/machine/_default_types.h"
 263              		.file 4 "/usr/arm-none-eabi/include/sys/lock.h"
 264              		.file 5 "/usr/arm-none-eabi/include/sys/_types.h"
 265              		.file 6 "/usr/arm-none-eabi/include/sys/reent.h"
 266              		.file 7 "/usr/arm-none-eabi/include/sys/_stdint.h"
 267              		.file 8 "/home/selim/working/ChibiOS/os/rt/ports/ARMCMx/compilers/GCC/chtypes.h"
 268              		.file 9 "/home/selim/working/ChibiOS/os/rt/include/chsystypes.h"
 269              		.file 10 "/home/selim/working/ChibiOS/os/rt/include/chschd.h"
 270              		.file 11 "/home/selim/working/ChibiOS/os/ext/CMSIS/include/core_cm4.h"
 271              		.file 12 "/home/selim/working/ChibiOS/os/ext/CMSIS/ST/system_stm32f4xx.h"
 272              		.file 13 "/home/selim/working/ChibiOS/os/ext/CMSIS/ST/stm32f407xx.h"
 273              		.file 14 "/home/selim/working/ChibiOS/os/rt/ports/ARMCMx/chcore.h"
 274              		.file 15 "/home/selim/working/ChibiOS/os/rt/ports/ARMCMx/chcore_v7m.h"
 275              		.file 16 "/home/selim/working/ChibiOS/os/hal/ports/STM32/LLD/TIMv1/stm32_tim.h"
 276              		.file 17 "/home/selim/working/ChibiOS/os/rt/include/chtm.h"
 277              		.file 18 "/home/selim/working/ChibiOS/os/rt/include/chsem.h"
 278              		.file 19 "/home/selim/working/ChibiOS/os/rt/include/chmtx.h"
 279              		.file 20 "/home/selim/working/ChibiOS/os/rt/include/chregistry.h"
 280              		.file 21 "/home/selim/working/ChibiOS/os/rt/include/chevents.h"
 281              		.file 22 "/home/selim/working/ChibiOS/os/rt/include/chqueues.h"
 282              		.file 23 "/home/selim/working/ChibiOS/os/hal/ports/STM32/STM32F4xx/stm32_dma.h"
 283              		.file 24 "/home/selim/working/ChibiOS/os/hal/ports/STM32/LLD/GPIOv2/pal_lld.h"
 284              		.file 25 "/home/selim/working/ChibiOS/os/hal/include/adc.h"
 285              		.file 26 "/home/selim/working/ChibiOS/os/hal/ports/STM32/STM32F4xx/adc_lld.h"
ARM GAS  /tmp/ccyyc4jI.s 			page 6


 286              		.file 27 "/home/selim/working/ChibiOS/os/hal/include/gpt.h"
 287              		.file 28 "/home/selim/working/ChibiOS/os/hal/ports/STM32/LLD/TIMv1/gpt_lld.h"
 288              		.file 29 "/home/selim/working/ChibiOS/os/hal/include/pwm.h"
 289              		.file 30 "/home/selim/working/ChibiOS/os/hal/ports/STM32/LLD/TIMv1/pwm_lld.h"
 290              		.file 31 "/home/selim/working/ChibiOS/os/hal/include/serial.h"
 291              		.file 32 "/home/selim/working/ChibiOS/os/hal/ports/STM32/LLD/USARTv1/serial_lld.h"
 292              		.file 33 "/home/selim/working/ChibiOS/os/hal/include/spi.h"
 293              		.file 34 "/home/selim/working/ChibiOS/os/hal/ports/STM32/LLD/SPIv1/spi_lld.h"
 294              		.file 35 "/home/selim/working/ChibiOS/os/hal/include/usb.h"
 295              		.file 36 "/home/selim/working/ChibiOS/os/hal/ports/STM32/LLD/OTGv1/usb_lld.h"
 296              		.file 37 "/home/selim/working/ChibiOS/os/hal/ports/STM32/LLD/OTGv1/stm32_otg.h"
 297              		.file 38 "/home/selim/working/ChibiOS/os/hal/lib/streams/memstreams.h"