ARM GAS  /tmp/cc2FmWWk.s 			page 1


   1              		.cpu cortex-m4
   2              		.eabi_attribute 20, 1
   3              		.eabi_attribute 21, 1
   4              		.eabi_attribute 23, 3
   5              		.eabi_attribute 24, 1
   6              		.eabi_attribute 25, 1
   7              		.eabi_attribute 26, 1
   8              		.eabi_attribute 30, 2
   9              		.eabi_attribute 34, 1
  10              		.eabi_attribute 18, 4
  11              		.file	"nvic.c"
  12              		.text
  13              	.Ltext0:
  14              		.cfi_sections	.debug_frame
  15              		.section	.text.nvicEnableVector,"ax",%progbits
  16              		.align	1
  17              		.p2align 4,,15
  18              		.global	nvicEnableVector
  19              		.syntax unified
  20              		.thumb
  21              		.thumb_func
  22              		.fpu softvfp
  23              		.type	nvicEnableVector, %function
  24              	nvicEnableVector:
  25              	.LFB258:
  26              		.file 1 "/home/selim/working/ChibiOS/os/hal/ports/common/ARMCMx/nvic.c"
  27              		.loc 1 57 0
  28              		.cfi_startproc
  29              		@ args = 0, pretend = 0, frame = 0
  30              		@ frame_needed = 0, uses_anonymous_args = 0
  31              		@ link register save eliminated.
  32              	.LVL0:
  33              		.loc 1 60 0
  34 0000 4309     		lsrs	r3, r0, #5
  35              		.loc 1 57 0
  36 0002 10B4     		push	{r4}
  37              		.cfi_def_cfa_offset 4
  38              		.cfi_offset 4, -4
  39 0004 9B00     		lsls	r3, r3, #2
  40              		.loc 1 59 0
  41 0006 00F16044 		add	r4, r0, #-536870912
  42 000a 04F56144 		add	r4, r4, #57600
  43 000e 03F16043 		add	r3, r3, #-536870912
  44 0012 0901     		lsls	r1, r1, #4
  45              	.LVL1:
  46 0014 03F56143 		add	r3, r3, #57600
  47              		.loc 1 60 0
  48 0018 00F01F00 		and	r0, r0, #31
  49              	.LVL2:
  50 001c 0122     		movs	r2, #1
  51              		.loc 1 59 0
  52 001e C9B2     		uxtb	r1, r1
  53 0020 84F80013 		strb	r1, [r4, #768]
  54              		.loc 1 60 0
  55 0024 02FA00F0 		lsl	r0, r2, r0
  56 0028 C3F88001 		str	r0, [r3, #384]
  57              		.loc 1 62 0
ARM GAS  /tmp/cc2FmWWk.s 			page 2


  58 002c 10BC     		pop	{r4}
  59              		.cfi_restore 4
  60              		.cfi_def_cfa_offset 0
  61              	.LVL3:
  62              		.loc 1 61 0
  63 002e 1860     		str	r0, [r3]
  64              		.loc 1 62 0
  65 0030 7047     		bx	lr
  66              		.cfi_endproc
  67              	.LFE258:
  68              		.size	nvicEnableVector, .-nvicEnableVector
  69 0032 00BF     		.section	.text.nvicDisableVector,"ax",%progbits
  70              		.align	1
  71              		.p2align 4,,15
  72              		.global	nvicDisableVector
  73              		.syntax unified
  74              		.thumb
  75              		.thumb_func
  76              		.fpu softvfp
  77              		.type	nvicDisableVector, %function
  78              	nvicDisableVector:
  79              	.LFB259:
  80              		.loc 1 69 0
  81              		.cfi_startproc
  82              		@ args = 0, pretend = 0, frame = 0
  83              		@ frame_needed = 0, uses_anonymous_args = 0
  84              		@ link register save eliminated.
  85              	.LVL4:
  86              		.loc 1 71 0
  87 0000 0749     		ldr	r1, .L5
  88 0002 4309     		lsrs	r3, r0, #5
  89              		.loc 1 69 0
  90 0004 10B4     		push	{r4}
  91              		.cfi_def_cfa_offset 4
  92              		.cfi_offset 4, -4
  93              		.loc 1 71 0
  94 0006 2033     		adds	r3, r3, #32
  95 0008 00F01F04 		and	r4, r0, #31
  96 000c 0122     		movs	r2, #1
  97              		.loc 1 72 0
  98 000e 0844     		add	r0, r0, r1
  99              	.LVL5:
 100              		.loc 1 71 0
 101 0010 A240     		lsls	r2, r2, r4
 102              		.loc 1 72 0
 103 0012 0024     		movs	r4, #0
 104              		.loc 1 71 0
 105 0014 41F82320 		str	r2, [r1, r3, lsl #2]
 106              		.loc 1 72 0
 107 0018 80F80043 		strb	r4, [r0, #768]
 108              		.loc 1 73 0
 109 001c 10BC     		pop	{r4}
 110              		.cfi_restore 4
 111              		.cfi_def_cfa_offset 0
 112 001e 7047     		bx	lr
 113              	.L6:
 114              		.align	2
ARM GAS  /tmp/cc2FmWWk.s 			page 3


 115              	.L5:
 116 0020 00E100E0 		.word	-536813312
 117              		.cfi_endproc
 118              	.LFE259:
 119              		.size	nvicDisableVector, .-nvicDisableVector
 120              		.section	.text.nvicSetSystemHandlerPriority,"ax",%progbits
 121              		.align	1
 122              		.p2align 4,,15
 123              		.global	nvicSetSystemHandlerPriority
 124              		.syntax unified
 125              		.thumb
 126              		.thumb_func
 127              		.fpu softvfp
 128              		.type	nvicSetSystemHandlerPriority, %function
 129              	nvicSetSystemHandlerPriority:
 130              	.LFB260:
 131              		.loc 1 81 0
 132              		.cfi_startproc
 133              		@ args = 0, pretend = 0, frame = 0
 134              		@ frame_needed = 0, uses_anonymous_args = 0
 135              		@ link register save eliminated.
 136              	.LVL6:
 137              		.loc 1 85 0
 138 0000 00F16040 		add	r0, r0, #-536870912
 139              	.LVL7:
 140 0004 00F56D40 		add	r0, r0, #60672
 141              	.LVL8:
 142 0008 0901     		lsls	r1, r1, #4
 143              	.LVL9:
 144 000a C9B2     		uxtb	r1, r1
 145 000c 0176     		strb	r1, [r0, #24]
 146 000e 7047     		bx	lr
 147              		.cfi_endproc
 148              	.LFE260:
 149              		.size	nvicSetSystemHandlerPriority, .-nvicSetSystemHandlerPriority
 150              		.section	.text.nvicClearPending,"ax",%progbits
 151              		.align	1
 152              		.p2align 4,,15
 153              		.global	nvicClearPending
 154              		.syntax unified
 155              		.thumb
 156              		.thumb_func
 157              		.fpu softvfp
 158              		.type	nvicClearPending, %function
 159              	nvicClearPending:
 160              	.LFB261:
 161              		.loc 1 93 0
 162              		.cfi_startproc
 163              		@ args = 0, pretend = 0, frame = 0
 164              		@ frame_needed = 0, uses_anonymous_args = 0
 165              		@ link register save eliminated.
 166              	.LVL10:
 167              		.loc 1 95 0
 168 0000 4309     		lsrs	r3, r0, #5
 169 0002 6033     		adds	r3, r3, #96
 170 0004 00F01F00 		and	r0, r0, #31
 171              	.LVL11:
ARM GAS  /tmp/cc2FmWWk.s 			page 4


 172 0008 0122     		movs	r2, #1
 173 000a 0349     		ldr	r1, .L9
 174 000c 02FA00F0 		lsl	r0, r2, r0
 175 0010 41F82300 		str	r0, [r1, r3, lsl #2]
 176 0014 7047     		bx	lr
 177              	.L10:
 178 0016 00BF     		.align	2
 179              	.L9:
 180 0018 00E100E0 		.word	-536813312
 181              		.cfi_endproc
 182              	.LFE261:
 183              		.size	nvicClearPending, .-nvicClearPending
 184              		.text
 185              	.Letext0:
 186              		.file 2 "/usr/lib/gcc/arm-none-eabi/6.2.1/include/stddef.h"
 187              		.file 3 "/usr/arm-none-eabi/include/machine/_default_types.h"
 188              		.file 4 "/usr/arm-none-eabi/include/sys/_stdint.h"
 189              		.file 5 "/home/selim/working/ChibiOS/os/rt/ports/ARMCMx/compilers/GCC/chtypes.h"
 190              		.file 6 "/home/selim/working/ChibiOS/os/rt/include/chsystypes.h"
 191              		.file 7 "/home/selim/working/ChibiOS/os/rt/include/chschd.h"
 192              		.file 8 "/home/selim/working/ChibiOS/os/ext/CMSIS/include/core_cm4.h"
 193              		.file 9 "/home/selim/working/ChibiOS/os/ext/CMSIS/ST/system_stm32f4xx.h"
 194              		.file 10 "/home/selim/working/ChibiOS/os/ext/CMSIS/ST/stm32f407xx.h"
 195              		.file 11 "/home/selim/working/ChibiOS/os/rt/ports/ARMCMx/chcore.h"
 196              		.file 12 "/home/selim/working/ChibiOS/os/rt/ports/ARMCMx/chcore_v7m.h"
 197              		.file 13 "/home/selim/working/ChibiOS/os/hal/ports/STM32/LLD/TIMv1/stm32_tim.h"
 198              		.file 14 "/home/selim/working/ChibiOS/os/rt/include/chtm.h"
 199              		.file 15 "/home/selim/working/ChibiOS/os/rt/include/chsem.h"
 200              		.file 16 "/home/selim/working/ChibiOS/os/rt/include/chmtx.h"
 201              		.file 17 "/home/selim/working/ChibiOS/os/rt/include/chregistry.h"
 202              		.file 18 "/home/selim/working/ChibiOS/os/rt/include/chevents.h"
 203              		.file 19 "/home/selim/working/ChibiOS/os/rt/include/chqueues.h"
 204              		.file 20 "/home/selim/working/ChibiOS/os/hal/ports/STM32/STM32F4xx/stm32_dma.h"
 205              		.file 21 "/home/selim/working/ChibiOS/os/hal/ports/STM32/LLD/GPIOv2/pal_lld.h"
 206              		.file 22 "/home/selim/working/ChibiOS/os/hal/include/adc.h"
 207              		.file 23 "/home/selim/working/ChibiOS/os/hal/ports/STM32/STM32F4xx/adc_lld.h"
 208              		.file 24 "/home/selim/working/ChibiOS/os/hal/include/gpt.h"
 209              		.file 25 "/home/selim/working/ChibiOS/os/hal/ports/STM32/LLD/TIMv1/gpt_lld.h"
 210              		.file 26 "/home/selim/working/ChibiOS/os/hal/include/pwm.h"
 211              		.file 27 "/home/selim/working/ChibiOS/os/hal/ports/STM32/LLD/TIMv1/pwm_lld.h"
 212              		.file 28 "/home/selim/working/ChibiOS/os/hal/include/serial.h"
 213              		.file 29 "/home/selim/working/ChibiOS/os/hal/ports/STM32/LLD/USARTv1/serial_lld.h"
 214              		.file 30 "/home/selim/working/ChibiOS/os/hal/include/spi.h"
 215              		.file 31 "/home/selim/working/ChibiOS/os/hal/ports/STM32/LLD/SPIv1/spi_lld.h"
 216              		.file 32 "/home/selim/working/ChibiOS/os/hal/include/usb.h"
 217              		.file 33 "/home/selim/working/ChibiOS/os/hal/ports/STM32/LLD/OTGv1/usb_lld.h"
 218              		.file 34 "/home/selim/working/ChibiOS/os/hal/ports/STM32/LLD/OTGv1/stm32_otg.h"