ARM GAS  /tmp/ccqZrbe6.s 			page 1


   1              		.cpu cortex-m4
   2              		.eabi_attribute 20, 1
   3              		.eabi_attribute 21, 1
   4              		.eabi_attribute 23, 3
   5              		.eabi_attribute 24, 1
   6              		.eabi_attribute 25, 1
   7              		.eabi_attribute 26, 1
   8              		.eabi_attribute 30, 2
   9              		.eabi_attribute 34, 1
  10              		.eabi_attribute 18, 4
  11              		.file	"pal_lld.c"
  12              		.text
  13              	.Ltext0:
  14              		.cfi_sections	.debug_frame
  15              		.section	.text._pal_lld_init,"ax",%progbits
  16              		.align	1
  17              		.p2align 4,,15
  18              		.global	_pal_lld_init
  19              		.syntax unified
  20              		.thumb
  21              		.thumb_func
  22              		.fpu softvfp
  23              		.type	_pal_lld_init, %function
  24              	_pal_lld_init:
  25              	.LFB259:
  26              		.file 1 "/home/selim/working/ChibiOS/os/hal/ports/STM32/LLD/GPIOv2/pal_lld.c"
  27              		.loc 1 92 0
  28              		.cfi_startproc
  29              		@ args = 0, pretend = 0, frame = 0
  30              		@ frame_needed = 0, uses_anonymous_args = 0
  31              	.LVL0:
  32 0000 F0B5     		push	{r4, r5, r6, r7, lr}
  33              		.cfi_def_cfa_offset 20
  34              		.cfi_offset 4, -20
  35              		.cfi_offset 5, -16
  36              		.cfi_offset 6, -12
  37              		.cfi_offset 7, -8
  38              		.cfi_offset 14, -4
  39              		.loc 1 105 0
  40 0002 654D     		ldr	r5, .L3
  41              	.LBB20:
  42              	.LBB21:
  43              		.loc 1 67 0
  44 0004 654C     		ldr	r4, .L3+4
  45              	.LBE21:
  46              	.LBE20:
  47              		.loc 1 105 0
  48 0006 2F6B     		ldr	r7, [r5, #48]
  49              	.LBB23:
  50              	.LBB24:
  51              		.loc 1 67 0
  52 0008 6549     		ldr	r1, .L3+8
  53              	.LBE24:
  54              	.LBE23:
  55              	.LBB26:
  56              	.LBB27:
  57 000a 664A     		ldr	r2, .L3+12
ARM GAS  /tmp/ccqZrbe6.s 			page 2


  58              	.LBE27:
  59              	.LBE26:
  60              	.LBB29:
  61              	.LBB30:
  62 000c 664B     		ldr	r3, .L3+16
  63              	.LBE30:
  64              	.LBE29:
  65              		.loc 1 105 0
  66 000e 40F2FF1E 		movw	lr, #511
  67 0012 47EA0E07 		orr	r7, r7, lr
  68 0016 2F63     		str	r7, [r5, #48]
  69              		.loc 1 106 0
  70 0018 2E6D     		ldr	r6, [r5, #80]
  71 001a 46EA0E06 		orr	r6, r6, lr
  72 001e 2E65     		str	r6, [r5, #80]
  73              	.LVL1:
  74              	.LBB32:
  75              	.LBB22:
  76              		.loc 1 67 0
  77 0020 4568     		ldr	r5, [r0, #4]
  78 0022 6560     		str	r5, [r4, #4]
  79              		.loc 1 68 0
  80 0024 8568     		ldr	r5, [r0, #8]
  81 0026 A560     		str	r5, [r4, #8]
  82              		.loc 1 69 0
  83 0028 C568     		ldr	r5, [r0, #12]
  84 002a E560     		str	r5, [r4, #12]
  85              		.loc 1 70 0
  86 002c 0569     		ldr	r5, [r0, #16]
  87 002e 6561     		str	r5, [r4, #20]
  88              		.loc 1 71 0
  89 0030 4569     		ldr	r5, [r0, #20]
  90 0032 2562     		str	r5, [r4, #32]
  91              		.loc 1 72 0
  92 0034 8569     		ldr	r5, [r0, #24]
  93 0036 6562     		str	r5, [r4, #36]
  94              		.loc 1 73 0
  95 0038 0568     		ldr	r5, [r0]
  96 003a 2560     		str	r5, [r4]
  97              	.LVL2:
  98              	.LBE22:
  99              	.LBE32:
 100              	.LBB33:
 101              	.LBB25:
 102              		.loc 1 67 0
 103 003c 046A     		ldr	r4, [r0, #32]
 104 003e 4C60     		str	r4, [r1, #4]
 105              		.loc 1 68 0
 106 0040 446A     		ldr	r4, [r0, #36]
 107 0042 8C60     		str	r4, [r1, #8]
 108              		.loc 1 69 0
 109 0044 846A     		ldr	r4, [r0, #40]
 110 0046 CC60     		str	r4, [r1, #12]
 111              		.loc 1 70 0
 112 0048 C46A     		ldr	r4, [r0, #44]
 113 004a 4C61     		str	r4, [r1, #20]
 114              		.loc 1 71 0
ARM GAS  /tmp/ccqZrbe6.s 			page 3


 115 004c 046B     		ldr	r4, [r0, #48]
 116 004e 0C62     		str	r4, [r1, #32]
 117              		.loc 1 72 0
 118 0050 446B     		ldr	r4, [r0, #52]
 119 0052 4C62     		str	r4, [r1, #36]
 120              		.loc 1 73 0
 121 0054 C469     		ldr	r4, [r0, #28]
 122 0056 0C60     		str	r4, [r1]
 123              	.LVL3:
 124              	.LBE25:
 125              	.LBE33:
 126              	.LBB34:
 127              	.LBB28:
 128              		.loc 1 67 0
 129 0058 C16B     		ldr	r1, [r0, #60]
 130 005a 5160     		str	r1, [r2, #4]
 131              		.loc 1 68 0
 132 005c 016C     		ldr	r1, [r0, #64]
 133 005e 9160     		str	r1, [r2, #8]
 134              		.loc 1 69 0
 135 0060 416C     		ldr	r1, [r0, #68]
 136 0062 D160     		str	r1, [r2, #12]
 137              		.loc 1 70 0
 138 0064 816C     		ldr	r1, [r0, #72]
 139 0066 5161     		str	r1, [r2, #20]
 140              		.loc 1 71 0
 141 0068 C16C     		ldr	r1, [r0, #76]
 142 006a 1162     		str	r1, [r2, #32]
 143              		.loc 1 72 0
 144 006c 016D     		ldr	r1, [r0, #80]
 145 006e 5162     		str	r1, [r2, #36]
 146              		.loc 1 73 0
 147 0070 816B     		ldr	r1, [r0, #56]
 148 0072 1160     		str	r1, [r2]
 149              	.LVL4:
 150              	.LBE28:
 151              	.LBE34:
 152              	.LBB35:
 153              	.LBB31:
 154              		.loc 1 67 0
 155 0074 826D     		ldr	r2, [r0, #88]
 156 0076 5A60     		str	r2, [r3, #4]
 157              		.loc 1 68 0
 158 0078 C26D     		ldr	r2, [r0, #92]
 159 007a 9A60     		str	r2, [r3, #8]
 160              		.loc 1 69 0
 161 007c 026E     		ldr	r2, [r0, #96]
 162 007e DA60     		str	r2, [r3, #12]
 163              		.loc 1 70 0
 164 0080 426E     		ldr	r2, [r0, #100]
 165 0082 5A61     		str	r2, [r3, #20]
 166              		.loc 1 71 0
 167 0084 826E     		ldr	r2, [r0, #104]
 168 0086 1A62     		str	r2, [r3, #32]
 169              		.loc 1 72 0
 170 0088 C26E     		ldr	r2, [r0, #108]
 171 008a 5A62     		str	r2, [r3, #36]
ARM GAS  /tmp/ccqZrbe6.s 			page 4


 172              		.loc 1 73 0
 173 008c 426D     		ldr	r2, [r0, #84]
 174 008e 1A60     		str	r2, [r3]
 175              	.LVL5:
 176              	.LBE31:
 177              	.LBE35:
 178              	.LBB36:
 179              	.LBB37:
 180              		.loc 1 67 0
 181 0090 426F     		ldr	r2, [r0, #116]
 182 0092 C3F80424 		str	r2, [r3, #1028]
 183              		.loc 1 68 0
 184 0096 826F     		ldr	r2, [r0, #120]
 185 0098 C3F80824 		str	r2, [r3, #1032]
 186              		.loc 1 69 0
 187 009c C26F     		ldr	r2, [r0, #124]
 188 009e C3F80C24 		str	r2, [r3, #1036]
 189              		.loc 1 70 0
 190 00a2 D0F88020 		ldr	r2, [r0, #128]
 191 00a6 C3F81424 		str	r2, [r3, #1044]
 192              		.loc 1 71 0
 193 00aa D0F88420 		ldr	r2, [r0, #132]
 194 00ae C3F82024 		str	r2, [r3, #1056]
 195              		.loc 1 72 0
 196 00b2 D0F88820 		ldr	r2, [r0, #136]
 197 00b6 C3F82424 		str	r2, [r3, #1060]
 198              		.loc 1 73 0
 199 00ba 026F     		ldr	r2, [r0, #112]
 200 00bc C3F80024 		str	r2, [r3, #1024]
 201              	.LVL6:
 202              	.LBE37:
 203              	.LBE36:
 204              	.LBB38:
 205              	.LBB39:
 206              		.loc 1 67 0
 207 00c0 D0F89020 		ldr	r2, [r0, #144]
 208 00c4 C3F80428 		str	r2, [r3, #2052]
 209              		.loc 1 68 0
 210 00c8 D0F89420 		ldr	r2, [r0, #148]
 211 00cc C3F80828 		str	r2, [r3, #2056]
 212              		.loc 1 69 0
 213 00d0 D0F89820 		ldr	r2, [r0, #152]
 214 00d4 C3F80C28 		str	r2, [r3, #2060]
 215              		.loc 1 70 0
 216 00d8 D0F89C20 		ldr	r2, [r0, #156]
 217 00dc C3F81428 		str	r2, [r3, #2068]
 218              		.loc 1 71 0
 219 00e0 D0F8A020 		ldr	r2, [r0, #160]
 220 00e4 C3F82028 		str	r2, [r3, #2080]
 221              		.loc 1 72 0
 222 00e8 D0F8A420 		ldr	r2, [r0, #164]
 223 00ec C3F82428 		str	r2, [r3, #2084]
 224              		.loc 1 73 0
 225 00f0 D0F88C20 		ldr	r2, [r0, #140]
 226 00f4 C3F80028 		str	r2, [r3, #2048]
 227              	.LVL7:
 228              	.LBE39:
ARM GAS  /tmp/ccqZrbe6.s 			page 5


 229              	.LBE38:
 230              	.LBB40:
 231              	.LBB41:
 232              		.loc 1 67 0
 233 00f8 03F54063 		add	r3, r3, #3072
 234 00fc D0F8AC20 		ldr	r2, [r0, #172]
 235 0100 5A60     		str	r2, [r3, #4]
 236              		.loc 1 68 0
 237 0102 D0F8B020 		ldr	r2, [r0, #176]
 238 0106 9A60     		str	r2, [r3, #8]
 239              		.loc 1 69 0
 240 0108 D0F8B420 		ldr	r2, [r0, #180]
 241 010c DA60     		str	r2, [r3, #12]
 242              		.loc 1 70 0
 243 010e D0F8B820 		ldr	r2, [r0, #184]
 244 0112 5A61     		str	r2, [r3, #20]
 245              		.loc 1 71 0
 246 0114 D0F8BC20 		ldr	r2, [r0, #188]
 247 0118 1A62     		str	r2, [r3, #32]
 248              		.loc 1 72 0
 249 011a D0F8C020 		ldr	r2, [r0, #192]
 250 011e 5A62     		str	r2, [r3, #36]
 251              		.loc 1 73 0
 252 0120 D0F8A820 		ldr	r2, [r0, #168]
 253 0124 1A60     		str	r2, [r3]
 254              	.LVL8:
 255              	.LBE41:
 256              	.LBE40:
 257              	.LBB42:
 258              	.LBB43:
 259              		.loc 1 67 0
 260 0126 D0F8C820 		ldr	r2, [r0, #200]
 261 012a C3F80424 		str	r2, [r3, #1028]
 262              		.loc 1 68 0
 263 012e D0F8CC20 		ldr	r2, [r0, #204]
 264 0132 C3F80824 		str	r2, [r3, #1032]
 265              		.loc 1 69 0
 266 0136 D0F8D020 		ldr	r2, [r0, #208]
 267 013a C3F80C24 		str	r2, [r3, #1036]
 268              		.loc 1 70 0
 269 013e D0F8D420 		ldr	r2, [r0, #212]
 270 0142 C3F81424 		str	r2, [r3, #1044]
 271              		.loc 1 71 0
 272 0146 D0F8D820 		ldr	r2, [r0, #216]
 273 014a C3F82024 		str	r2, [r3, #1056]
 274              		.loc 1 72 0
 275 014e D0F8DC20 		ldr	r2, [r0, #220]
 276 0152 C3F82424 		str	r2, [r3, #1060]
 277              		.loc 1 73 0
 278 0156 D0F8C420 		ldr	r2, [r0, #196]
 279 015a C3F80024 		str	r2, [r3, #1024]
 280              	.LVL9:
 281              	.LBE43:
 282              	.LBE42:
 283              	.LBB44:
 284              	.LBB45:
 285              		.loc 1 67 0
ARM GAS  /tmp/ccqZrbe6.s 			page 6


 286 015e D0F8E420 		ldr	r2, [r0, #228]
 287 0162 C3F80428 		str	r2, [r3, #2052]
 288              		.loc 1 68 0
 289 0166 D0F8E820 		ldr	r2, [r0, #232]
 290 016a C3F80828 		str	r2, [r3, #2056]
 291              		.loc 1 69 0
 292 016e D0F8EC20 		ldr	r2, [r0, #236]
 293 0172 C3F80C28 		str	r2, [r3, #2060]
 294              		.loc 1 70 0
 295 0176 D0F8F020 		ldr	r2, [r0, #240]
 296 017a C3F81428 		str	r2, [r3, #2068]
 297              		.loc 1 71 0
 298 017e D0F8F420 		ldr	r2, [r0, #244]
 299 0182 C3F82028 		str	r2, [r3, #2080]
 300              		.loc 1 72 0
 301 0186 D0F8F820 		ldr	r2, [r0, #248]
 302 018a C3F82428 		str	r2, [r3, #2084]
 303              		.loc 1 73 0
 304 018e D0F8E020 		ldr	r2, [r0, #224]
 305 0192 C3F80028 		str	r2, [r3, #2048]
 306              	.LVL10:
 307              		.loc 1 67 0
 308 0196 F0BD     		pop	{r4, r5, r6, r7, pc}
 309              	.L4:
 310              		.align	2
 311              	.L3:
 312 0198 00380240 		.word	1073887232
 313 019c 00000240 		.word	1073872896
 314 01a0 00040240 		.word	1073873920
 315 01a4 00080240 		.word	1073874944
 316 01a8 000C0240 		.word	1073875968
 317              	.LBE45:
 318              	.LBE44:
 319              		.cfi_endproc
 320              	.LFE259:
 321              		.size	_pal_lld_init, .-_pal_lld_init
 322              		.section	.text._pal_lld_setgroupmode,"ax",%progbits
 323              		.align	1
 324              		.p2align 4,,15
 325              		.global	_pal_lld_setgroupmode
 326              		.syntax unified
 327              		.thumb
 328              		.thumb_func
 329              		.fpu softvfp
 330              		.type	_pal_lld_setgroupmode, %function
 331              	_pal_lld_setgroupmode:
 332              	.LFB260:
 333              		.loc 1 157 0
 334              		.cfi_startproc
 335              		@ args = 0, pretend = 0, frame = 0
 336              		@ frame_needed = 0, uses_anonymous_args = 0
 337              	.LVL11:
 338 0000 2DE9F04F 		push	{r4, r5, r6, r7, r8, r9, r10, fp, lr}
 339              		.cfi_def_cfa_offset 36
 340              		.cfi_offset 4, -36
 341              		.cfi_offset 5, -32
 342              		.cfi_offset 6, -28
ARM GAS  /tmp/ccqZrbe6.s 			page 7


 343              		.cfi_offset 7, -24
 344              		.cfi_offset 8, -20
 345              		.cfi_offset 9, -16
 346              		.cfi_offset 10, -12
 347              		.cfi_offset 11, -8
 348              		.cfi_offset 14, -4
 349              	.LBB46:
 350              		.loc 1 170 0
 351 0004 4FF00F0C 		mov	ip, #15
 352              	.LBE46:
 353              		.loc 1 159 0
 354 0008 02F0030E 		and	lr, r2, #3
 355              	.LVL12:
 356              		.loc 1 160 0
 357 000c C2F38007 		ubfx	r7, r2, #2, #1
 358              	.LVL13:
 359              		.loc 1 161 0
 360 0010 C2F3C106 		ubfx	r6, r2, #3, #2
 361              	.LVL14:
 362              		.loc 1 162 0
 363 0014 C2F34115 		ubfx	r5, r2, #5, #2
 364              	.LVL15:
 365              		.loc 1 164 0
 366 0018 0024     		movs	r4, #0
 367              		.loc 1 163 0
 368 001a C2F3C312 		ubfx	r2, r2, #7, #4
 369              	.LVL16:
 370              	.LBB47:
 371              		.loc 1 175 0
 372 001e 4FF00109 		mov	r9, #1
 373              		.loc 1 177 0
 374 0022 4FF00308 		mov	r8, #3
 375 0026 30E0     		b	.L10
 376              	.LVL17:
 377              	.L16:
 378              		.loc 1 172 0
 379 0028 D0F820B0 		ldr	fp, [r0, #32]
 380 002c 2BEA0303 		bic	r3, fp, r3
 381              	.LVL18:
 382 0030 43EA0A03 		orr	r3, r3, r10
 383 0034 0362     		str	r3, [r0, #32]
 384              	.L8:
 385              	.LVL19:
 386              		.loc 1 176 0
 387 0036 4368     		ldr	r3, [r0, #4]
 388              		.loc 1 175 0
 389 0038 09FA04FA 		lsl	r10, r9, r4
 390              	.LVL20:
 391              		.loc 1 176 0
 392 003c 23EA0A03 		bic	r3, r3, r10
 393 0040 3B43     		orrs	r3, r3, r7
 394 0042 4360     		str	r3, [r0, #4]
 395              	.LVL21:
 396              		.loc 1 177 0
 397 0044 6300     		lsls	r3, r4, #1
 398              		.loc 1 178 0
 399 0046 D0F808A0 		ldr	r10, [r0, #8]
ARM GAS  /tmp/ccqZrbe6.s 			page 8


 400              		.loc 1 177 0
 401 004a 08FA03F3 		lsl	r3, r8, r3
 402              		.loc 1 178 0
 403 004e DB43     		mvns	r3, r3
 404 0050 0AEA030A 		and	r10, r10, r3
 405 0054 4AEA060A 		orr	r10, r10, r6
 406 0058 C0F808A0 		str	r10, [r0, #8]
 407              		.loc 1 179 0
 408 005c D0F80CA0 		ldr	r10, [r0, #12]
 409 0060 03EA0A0A 		and	r10, r3, r10
 410 0064 4AEA050A 		orr	r10, r10, r5
 411 0068 C0F80CA0 		str	r10, [r0, #12]
 412              		.loc 1 180 0
 413 006c D0F800A0 		ldr	r10, [r0]
 414 0070 03EA0A03 		and	r3, r3, r10
 415 0074 43EA0E03 		orr	r3, r3, lr
 416 0078 0360     		str	r3, [r0]
 417              	.LVL22:
 418              	.L6:
 419              	.LBE47:
 420              		.loc 1 183 0
 421 007a 4908     		lsrs	r1, r1, #1
 422              	.LVL23:
 423 007c 19D0     		beq	.L5
 424              		.loc 1 185 0
 425 007e 7F00     		lsls	r7, r7, #1
 426              	.LVL24:
 427              		.loc 1 186 0
 428 0080 B600     		lsls	r6, r6, #2
 429              	.LVL25:
 430              		.loc 1 187 0
 431 0082 AD00     		lsls	r5, r5, #2
 432              	.LVL26:
 433              		.loc 1 188 0
 434 0084 4FEA8E0E 		lsl	lr, lr, #2
 435              	.LVL27:
 436              		.loc 1 189 0
 437 0088 0134     		adds	r4, r4, #1
 438              	.LVL28:
 439              	.L10:
 440              	.LBB48:
 441              		.loc 1 169 0
 442 008a 04F00703 		and	r3, r4, #7
 443 008e 9B00     		lsls	r3, r3, #2
 444              	.LBE48:
 445              		.loc 1 166 0
 446 0090 11F0010F 		tst	r1, #1
 447              	.LBB49:
 448              		.loc 1 169 0
 449 0094 02FA03FA 		lsl	r10, r2, r3
 450              	.LVL29:
 451              		.loc 1 170 0
 452 0098 0CFA03F3 		lsl	r3, ip, r3
 453              	.LVL30:
 454              	.LBE49:
 455              		.loc 1 166 0
 456 009c EDD0     		beq	.L6
ARM GAS  /tmp/ccqZrbe6.s 			page 9


 457              	.LBB50:
 458              		.loc 1 171 0
 459 009e 072C     		cmp	r4, #7
 460 00a0 C2D9     		bls	.L16
 461              		.loc 1 174 0
 462 00a2 D0F824B0 		ldr	fp, [r0, #36]
 463 00a6 2BEA0303 		bic	r3, fp, r3
 464              	.LVL31:
 465 00aa 43EA0A03 		orr	r3, r3, r10
 466 00ae 4362     		str	r3, [r0, #36]
 467 00b0 C1E7     		b	.L8
 468              	.LVL32:
 469              	.L5:
 470 00b2 BDE8F08F 		pop	{r4, r5, r6, r7, r8, r9, r10, fp, pc}
 471              	.LBE50:
 472              		.cfi_endproc
 473              	.LFE260:
 474              		.size	_pal_lld_setgroupmode, .-_pal_lld_setgroupmode
 475 00b6 00BF     		.text
 476              	.Letext0:
 477              		.file 2 "/usr/lib/gcc/arm-none-eabi/6.2.1/include/stddef.h"
 478              		.file 3 "/usr/arm-none-eabi/include/machine/_default_types.h"
 479              		.file 4 "/usr/arm-none-eabi/include/sys/_stdint.h"
 480              		.file 5 "/home/selim/working/ChibiOS/os/rt/ports/ARMCMx/compilers/GCC/chtypes.h"
 481              		.file 6 "/home/selim/working/ChibiOS/os/rt/include/chsystypes.h"
 482              		.file 7 "/home/selim/working/ChibiOS/os/rt/include/chschd.h"
 483              		.file 8 "/home/selim/working/ChibiOS/os/ext/CMSIS/include/core_cm4.h"
 484              		.file 9 "/home/selim/working/ChibiOS/os/ext/CMSIS/ST/system_stm32f4xx.h"
 485              		.file 10 "/home/selim/working/ChibiOS/os/ext/CMSIS/ST/stm32f407xx.h"
 486              		.file 11 "/home/selim/working/ChibiOS/os/rt/ports/ARMCMx/chcore.h"
 487              		.file 12 "/home/selim/working/ChibiOS/os/rt/ports/ARMCMx/chcore_v7m.h"
 488              		.file 13 "/home/selim/working/ChibiOS/os/hal/ports/STM32/LLD/TIMv1/stm32_tim.h"
 489              		.file 14 "/home/selim/working/ChibiOS/os/rt/include/chtm.h"
 490              		.file 15 "/home/selim/working/ChibiOS/os/rt/include/chsem.h"
 491              		.file 16 "/home/selim/working/ChibiOS/os/rt/include/chmtx.h"
 492              		.file 17 "/home/selim/working/ChibiOS/os/rt/include/chregistry.h"
 493              		.file 18 "/home/selim/working/ChibiOS/os/rt/include/chevents.h"
 494              		.file 19 "/home/selim/working/ChibiOS/os/rt/include/chqueues.h"
 495              		.file 20 "/home/selim/working/ChibiOS/os/hal/ports/STM32/STM32F4xx/stm32_dma.h"
 496              		.file 21 "/home/selim/working/ChibiOS/os/hal/ports/STM32/LLD/GPIOv2/pal_lld.h"
 497              		.file 22 "/home/selim/working/ChibiOS/os/hal/include/adc.h"
 498              		.file 23 "/home/selim/working/ChibiOS/os/hal/ports/STM32/STM32F4xx/adc_lld.h"
 499              		.file 24 "/home/selim/working/ChibiOS/os/hal/include/gpt.h"
 500              		.file 25 "/home/selim/working/ChibiOS/os/hal/ports/STM32/LLD/TIMv1/gpt_lld.h"
 501              		.file 26 "/home/selim/working/ChibiOS/os/hal/include/pwm.h"
 502              		.file 27 "/home/selim/working/ChibiOS/os/hal/ports/STM32/LLD/TIMv1/pwm_lld.h"
 503              		.file 28 "/home/selim/working/ChibiOS/os/hal/include/serial.h"
 504              		.file 29 "/home/selim/working/ChibiOS/os/hal/ports/STM32/LLD/USARTv1/serial_lld.h"
 505              		.file 30 "/home/selim/working/ChibiOS/os/hal/include/spi.h"
 506              		.file 31 "/home/selim/working/ChibiOS/os/hal/ports/STM32/LLD/SPIv1/spi_lld.h"
 507              		.file 32 "/home/selim/working/ChibiOS/os/hal/include/usb.h"
 508              		.file 33 "/home/selim/working/ChibiOS/os/hal/ports/STM32/LLD/OTGv1/usb_lld.h"
 509              		.file 34 "/home/selim/working/ChibiOS/os/hal/ports/STM32/LLD/OTGv1/stm32_otg.h"