ARM GAS  /tmp/ccbW4Sp8.s 			page 1


   1              		.cpu cortex-m4
   2              		.eabi_attribute 20, 1
   3              		.eabi_attribute 21, 1
   4              		.eabi_attribute 23, 3
   5              		.eabi_attribute 24, 1
   6              		.eabi_attribute 25, 1
   7              		.eabi_attribute 26, 1
   8              		.eabi_attribute 30, 2
   9              		.eabi_attribute 34, 1
  10              		.eabi_attribute 18, 4
  11              		.file	"pwm.c"
  12              		.text
  13              	.Ltext0:
  14              		.cfi_sections	.debug_frame
  15              		.section	.text.pwmInit,"ax",%progbits
  16              		.align	1
  17              		.p2align 4,,15
  18              		.global	pwmInit
  19              		.syntax unified
  20              		.thumb
  21              		.thumb_func
  22              		.fpu softvfp
  23              		.type	pwmInit, %function
  24              	pwmInit:
  25              	.LFB258:
  26              		.file 1 "/home/selim/working/ChibiOS/os/hal/src/pwm.c"
  27              		.loc 1 56 0
  28              		.cfi_startproc
  29              		@ args = 0, pretend = 0, frame = 0
  30              		@ frame_needed = 0, uses_anonymous_args = 0
  31              		@ link register save eliminated.
  32              		.loc 1 58 0
  33 0000 FFF7FEBF 		b	pwm_lld_init
  34              	.LVL0:
  35              		.cfi_endproc
  36              	.LFE258:
  37              		.size	pwmInit, .-pwmInit
  38              		.section	.text.pwmObjectInit,"ax",%progbits
  39              		.align	1
  40              		.p2align 4,,15
  41              		.global	pwmObjectInit
  42              		.syntax unified
  43              		.thumb
  44              		.thumb_func
  45              		.fpu softvfp
  46              		.type	pwmObjectInit, %function
  47              	pwmObjectInit:
  48              	.LFB259:
  49              		.loc 1 68 0
  50              		.cfi_startproc
  51              		@ args = 0, pretend = 0, frame = 0
  52              		@ frame_needed = 0, uses_anonymous_args = 0
  53              		@ link register save eliminated.
  54              	.LVL1:
  55              		.loc 1 71 0
  56 0000 0023     		movs	r3, #0
  57              		.loc 1 70 0
ARM GAS  /tmp/ccbW4Sp8.s 			page 2


  58 0002 0122     		movs	r2, #1
  59 0004 0270     		strb	r2, [r0]
  60              		.loc 1 71 0
  61 0006 4360     		str	r3, [r0, #4]
  62              		.loc 1 72 0
  63 0008 C360     		str	r3, [r0, #12]
  64              		.loc 1 73 0
  65 000a 0374     		strb	r3, [r0, #16]
  66 000c 7047     		bx	lr
  67              		.cfi_endproc
  68              	.LFE259:
  69              		.size	pwmObjectInit, .-pwmObjectInit
  70 000e 00BF     		.section	.text.pwmStart,"ax",%progbits
  71              		.align	1
  72              		.p2align 4,,15
  73              		.global	pwmStart
  74              		.syntax unified
  75              		.thumb
  76              		.thumb_func
  77              		.fpu softvfp
  78              		.type	pwmStart, %function
  79              	pwmStart:
  80              	.LFB260:
  81              		.loc 1 89 0
  82              		.cfi_startproc
  83              		@ args = 0, pretend = 0, frame = 0
  84              		@ frame_needed = 0, uses_anonymous_args = 0
  85              	.LVL2:
  86 0000 10B5     		push	{r4, lr}
  87              		.cfi_def_cfa_offset 8
  88              		.cfi_offset 4, -8
  89              		.cfi_offset 14, -4
  90              	.LBB141:
  91              	.LBB142:
  92              	.LBB143:
  93              	.LBB144:
  94              	.LBB145:
  95              		.file 2 "/home/selim/working/ChibiOS/os/ext/CMSIS/include/core_cmFunc.h"
  96              		.loc 2 546 0
  97 0002 2023     		movs	r3, #32
  98              	.LBE145:
  99              	.LBE144:
 100              	.LBE143:
 101              	.LBE142:
 102              	.LBE141:
 103              		.loc 1 89 0
 104 0004 0446     		mov	r4, r0
 105              	.LBB150:
 106              	.LBB149:
 107              	.LBB148:
 108              	.LBB147:
 109              	.LBB146:
 110              		.loc 2 546 0
 111              		.syntax unified
 112              	@ 546 "/home/selim/working/ChibiOS/os/ext/CMSIS/include/core_cmFunc.h" 1
 113 0006 83F31188 		MSR basepri, r3
 114              	@ 0 "" 2
ARM GAS  /tmp/ccbW4Sp8.s 			page 3


 115              	.LVL3:
 116              		.thumb
 117              		.syntax unified
 118              	.LBE146:
 119              	.LBE147:
 120              	.LBE148:
 121              	.LBE149:
 122              	.LBE150:
 123              		.loc 1 97 0
 124 000a 4B68     		ldr	r3, [r1, #4]
 125 000c 8360     		str	r3, [r0, #8]
 126              		.loc 1 96 0
 127 000e 4160     		str	r1, [r0, #4]
 128              		.loc 1 98 0
 129 0010 FFF7FEFF 		bl	pwm_lld_start
 130              	.LVL4:
 131              		.loc 1 100 0
 132 0014 0222     		movs	r2, #2
 133              		.loc 1 99 0
 134 0016 0023     		movs	r3, #0
 135              		.loc 1 100 0
 136 0018 2270     		strb	r2, [r4]
 137              	.LVL5:
 138              		.loc 1 99 0
 139 001a E360     		str	r3, [r4, #12]
 140              	.LBB151:
 141              	.LBB152:
 142              	.LBB153:
 143              	.LBB154:
 144              	.LBB155:
 145              	.LBB156:
 146              		.loc 2 546 0
 147              		.syntax unified
 148              	@ 546 "/home/selim/working/ChibiOS/os/ext/CMSIS/include/core_cmFunc.h" 1
 149 001c 83F31188 		MSR basepri, r3
 150              	@ 0 "" 2
 151              	.LVL6:
 152              		.thumb
 153              		.syntax unified
 154 0020 10BD     		pop	{r4, pc}
 155              	.LBE156:
 156              	.LBE155:
 157              	.LBE154:
 158              	.LBE153:
 159              	.LBE152:
 160              	.LBE151:
 161              		.cfi_endproc
 162              	.LFE260:
 163              		.size	pwmStart, .-pwmStart
 164 0022 00BF     		.section	.text.pwmStop,"ax",%progbits
 165              		.align	1
 166              		.p2align 4,,15
 167              		.global	pwmStop
 168              		.syntax unified
 169              		.thumb
 170              		.thumb_func
 171              		.fpu softvfp
ARM GAS  /tmp/ccbW4Sp8.s 			page 4


 172              		.type	pwmStop, %function
 173              	pwmStop:
 174              	.LFB261:
 175              		.loc 1 111 0
 176              		.cfi_startproc
 177              		@ args = 0, pretend = 0, frame = 0
 178              		@ frame_needed = 0, uses_anonymous_args = 0
 179              	.LVL7:
 180 0000 10B5     		push	{r4, lr}
 181              		.cfi_def_cfa_offset 8
 182              		.cfi_offset 4, -8
 183              		.cfi_offset 14, -4
 184              	.LBB157:
 185              	.LBB158:
 186              	.LBB159:
 187              	.LBB160:
 188              	.LBB161:
 189              		.loc 2 546 0
 190 0002 2023     		movs	r3, #32
 191              	.LBE161:
 192              	.LBE160:
 193              	.LBE159:
 194              	.LBE158:
 195              	.LBE157:
 196              		.loc 1 111 0
 197 0004 0446     		mov	r4, r0
 198              	.LBB166:
 199              	.LBB165:
 200              	.LBB164:
 201              	.LBB163:
 202              	.LBB162:
 203              		.loc 2 546 0
 204              		.syntax unified
 205              	@ 546 "/home/selim/working/ChibiOS/os/ext/CMSIS/include/core_cmFunc.h" 1
 206 0006 83F31188 		MSR basepri, r3
 207              	@ 0 "" 2
 208              	.LVL8:
 209              		.thumb
 210              		.syntax unified
 211              	.LBE162:
 212              	.LBE163:
 213              	.LBE164:
 214              	.LBE165:
 215              	.LBE166:
 216              		.loc 1 118 0
 217 000a FFF7FEFF 		bl	pwm_lld_stop
 218              	.LVL9:
 219              		.loc 1 120 0
 220 000e 0122     		movs	r2, #1
 221              		.loc 1 119 0
 222 0010 0023     		movs	r3, #0
 223              		.loc 1 120 0
 224 0012 2270     		strb	r2, [r4]
 225              	.LVL10:
 226              		.loc 1 119 0
 227 0014 E360     		str	r3, [r4, #12]
 228              	.LBB167:
ARM GAS  /tmp/ccbW4Sp8.s 			page 5


 229              	.LBB168:
 230              	.LBB169:
 231              	.LBB170:
 232              	.LBB171:
 233              	.LBB172:
 234              		.loc 2 546 0
 235              		.syntax unified
 236              	@ 546 "/home/selim/working/ChibiOS/os/ext/CMSIS/include/core_cmFunc.h" 1
 237 0016 83F31188 		MSR basepri, r3
 238              	@ 0 "" 2
 239              	.LVL11:
 240              		.thumb
 241              		.syntax unified
 242 001a 10BD     		pop	{r4, pc}
 243              	.LBE172:
 244              	.LBE171:
 245              	.LBE170:
 246              	.LBE169:
 247              	.LBE168:
 248              	.LBE167:
 249              		.cfi_endproc
 250              	.LFE261:
 251              		.size	pwmStop, .-pwmStop
 252              		.section	.text.pwmChangePeriod,"ax",%progbits
 253              		.align	1
 254              		.p2align 4,,15
 255              		.global	pwmChangePeriod
 256              		.syntax unified
 257              		.thumb
 258              		.thumb_func
 259              		.fpu softvfp
 260              		.type	pwmChangePeriod, %function
 261              	pwmChangePeriod:
 262              	.LFB262:
 263              		.loc 1 139 0
 264              		.cfi_startproc
 265              		@ args = 0, pretend = 0, frame = 0
 266              		@ frame_needed = 0, uses_anonymous_args = 0
 267              		@ link register save eliminated.
 268              	.LVL12:
 269              	.LBB173:
 270              	.LBB174:
 271              	.LBB175:
 272              	.LBB176:
 273              	.LBB177:
 274              		.loc 2 546 0
 275 0000 2023     		movs	r3, #32
 276              		.syntax unified
 277              	@ 546 "/home/selim/working/ChibiOS/os/ext/CMSIS/include/core_cmFunc.h" 1
 278 0002 83F31188 		MSR basepri, r3
 279              	@ 0 "" 2
 280              	.LVL13:
 281              		.thumb
 282              		.syntax unified
 283              	.LBE177:
 284              	.LBE176:
 285              	.LBE175:
ARM GAS  /tmp/ccbW4Sp8.s 			page 6


 286              	.LBE174:
 287              	.LBE173:
 288              		.loc 1 145 0
 289 0006 8369     		ldr	r3, [r0, #24]
 290 0008 8160     		str	r1, [r0, #8]
 291 000a 0139     		subs	r1, r1, #1
 292              	.LVL14:
 293 000c D962     		str	r1, [r3, #44]
 294              	.LVL15:
 295              	.LBB178:
 296              	.LBB179:
 297              	.LBB180:
 298              	.LBB181:
 299              	.LBB182:
 300              	.LBB183:
 301              		.loc 2 546 0
 302 000e 0023     		movs	r3, #0
 303              		.syntax unified
 304              	@ 546 "/home/selim/working/ChibiOS/os/ext/CMSIS/include/core_cmFunc.h" 1
 305 0010 83F31188 		MSR basepri, r3
 306              	@ 0 "" 2
 307              	.LVL16:
 308              		.thumb
 309              		.syntax unified
 310 0014 7047     		bx	lr
 311              	.LBE183:
 312              	.LBE182:
 313              	.LBE181:
 314              	.LBE180:
 315              	.LBE179:
 316              	.LBE178:
 317              		.cfi_endproc
 318              	.LFE262:
 319              		.size	pwmChangePeriod, .-pwmChangePeriod
 320 0016 00BF     		.section	.text.pwmEnableChannel,"ax",%progbits
 321              		.align	1
 322              		.p2align 4,,15
 323              		.global	pwmEnableChannel
 324              		.syntax unified
 325              		.thumb
 326              		.thumb_func
 327              		.fpu softvfp
 328              		.type	pwmEnableChannel, %function
 329              	pwmEnableChannel:
 330              	.LFB263:
 331              		.loc 1 165 0
 332              		.cfi_startproc
 333              		@ args = 0, pretend = 0, frame = 0
 334              		@ frame_needed = 0, uses_anonymous_args = 0
 335              	.LVL17:
 336 0000 70B5     		push	{r4, r5, r6, lr}
 337              		.cfi_def_cfa_offset 16
 338              		.cfi_offset 4, -16
 339              		.cfi_offset 5, -12
 340              		.cfi_offset 6, -8
 341              		.cfi_offset 14, -4
 342              	.LBB184:
ARM GAS  /tmp/ccbW4Sp8.s 			page 7


 343              	.LBB185:
 344              	.LBB186:
 345              	.LBB187:
 346              	.LBB188:
 347              		.loc 2 546 0
 348 0002 2023     		movs	r3, #32
 349              		.syntax unified
 350              	@ 546 "/home/selim/working/ChibiOS/os/ext/CMSIS/include/core_cmFunc.h" 1
 351 0004 83F31188 		MSR basepri, r3
 352              	@ 0 "" 2
 353              	.LVL18:
 354              		.thumb
 355              		.syntax unified
 356              	.LBE188:
 357              	.LBE187:
 358              	.LBE186:
 359              	.LBE185:
 360              	.LBE184:
 361              		.loc 1 173 0
 362 0008 0124     		movs	r4, #1
 363 000a C368     		ldr	r3, [r0, #12]
 364 000c 8C40     		lsls	r4, r4, r1
 365 000e 2343     		orrs	r3, r3, r4
 366 0010 C360     		str	r3, [r0, #12]
 367 0012 FFF7FEFF 		bl	pwm_lld_enable_channel
 368              	.LVL19:
 369              	.LBB189:
 370              	.LBB190:
 371              	.LBB191:
 372              	.LBB192:
 373              	.LBB193:
 374              	.LBB194:
 375              		.loc 2 546 0
 376 0016 0023     		movs	r3, #0
 377              		.syntax unified
 378              	@ 546 "/home/selim/working/ChibiOS/os/ext/CMSIS/include/core_cmFunc.h" 1
 379 0018 83F31188 		MSR basepri, r3
 380              	@ 0 "" 2
 381              	.LVL20:
 382              		.thumb
 383              		.syntax unified
 384 001c 70BD     		pop	{r4, r5, r6, pc}
 385              	.LBE194:
 386              	.LBE193:
 387              	.LBE192:
 388              	.LBE191:
 389              	.LBE190:
 390              	.LBE189:
 391              		.cfi_endproc
 392              	.LFE263:
 393              		.size	pwmEnableChannel, .-pwmEnableChannel
 394 001e 00BF     		.section	.text.pwmDisableChannel,"ax",%progbits
 395              		.align	1
 396              		.p2align 4,,15
 397              		.global	pwmDisableChannel
 398              		.syntax unified
 399              		.thumb
ARM GAS  /tmp/ccbW4Sp8.s 			page 8


 400              		.thumb_func
 401              		.fpu softvfp
 402              		.type	pwmDisableChannel, %function
 403              	pwmDisableChannel:
 404              	.LFB264:
 405              		.loc 1 192 0
 406              		.cfi_startproc
 407              		@ args = 0, pretend = 0, frame = 0
 408              		@ frame_needed = 0, uses_anonymous_args = 0
 409              	.LVL21:
 410 0000 38B5     		push	{r3, r4, r5, lr}
 411              		.cfi_def_cfa_offset 16
 412              		.cfi_offset 3, -16
 413              		.cfi_offset 4, -12
 414              		.cfi_offset 5, -8
 415              		.cfi_offset 14, -4
 416              	.LBB195:
 417              	.LBB196:
 418              	.LBB197:
 419              	.LBB198:
 420              	.LBB199:
 421              		.loc 2 546 0
 422 0002 2023     		movs	r3, #32
 423              		.syntax unified
 424              	@ 546 "/home/selim/working/ChibiOS/os/ext/CMSIS/include/core_cmFunc.h" 1
 425 0004 83F31188 		MSR basepri, r3
 426              	@ 0 "" 2
 427              	.LVL22:
 428              		.thumb
 429              		.syntax unified
 430              	.LBE199:
 431              	.LBE198:
 432              	.LBE197:
 433              	.LBE196:
 434              	.LBE195:
 435              		.loc 1 200 0
 436 0008 0122     		movs	r2, #1
 437 000a C368     		ldr	r3, [r0, #12]
 438 000c 8A40     		lsls	r2, r2, r1
 439 000e 23EA0203 		bic	r3, r3, r2
 440 0012 C360     		str	r3, [r0, #12]
 441 0014 FFF7FEFF 		bl	pwm_lld_disable_channel
 442              	.LVL23:
 443              	.LBB200:
 444              	.LBB201:
 445              	.LBB202:
 446              	.LBB203:
 447              	.LBB204:
 448              	.LBB205:
 449              		.loc 2 546 0
 450 0018 0023     		movs	r3, #0
 451              		.syntax unified
 452              	@ 546 "/home/selim/working/ChibiOS/os/ext/CMSIS/include/core_cmFunc.h" 1
 453 001a 83F31188 		MSR basepri, r3
 454              	@ 0 "" 2
 455              	.LVL24:
 456              		.thumb
ARM GAS  /tmp/ccbW4Sp8.s 			page 9


 457              		.syntax unified
 458 001e 38BD     		pop	{r3, r4, r5, pc}
 459              	.LBE205:
 460              	.LBE204:
 461              	.LBE203:
 462              	.LBE202:
 463              	.LBE201:
 464              	.LBE200:
 465              		.cfi_endproc
 466              	.LFE264:
 467              		.size	pwmDisableChannel, .-pwmDisableChannel
 468              		.section	.text.pwmEnablePeriodicNotification,"ax",%progbits
 469              		.align	1
 470              		.p2align 4,,15
 471              		.global	pwmEnablePeriodicNotification
 472              		.syntax unified
 473              		.thumb
 474              		.thumb_func
 475              		.fpu softvfp
 476              		.type	pwmEnablePeriodicNotification, %function
 477              	pwmEnablePeriodicNotification:
 478              	.LFB265:
 479              		.loc 1 214 0
 480              		.cfi_startproc
 481              		@ args = 0, pretend = 0, frame = 0
 482              		@ frame_needed = 0, uses_anonymous_args = 0
 483              	.LVL25:
 484 0000 08B5     		push	{r3, lr}
 485              		.cfi_def_cfa_offset 8
 486              		.cfi_offset 3, -8
 487              		.cfi_offset 14, -4
 488              	.LBB206:
 489              	.LBB207:
 490              	.LBB208:
 491              	.LBB209:
 492              	.LBB210:
 493              		.loc 2 546 0
 494 0002 2023     		movs	r3, #32
 495              		.syntax unified
 496              	@ 546 "/home/selim/working/ChibiOS/os/ext/CMSIS/include/core_cmFunc.h" 1
 497 0004 83F31188 		MSR basepri, r3
 498              	@ 0 "" 2
 499              	.LVL26:
 500              		.thumb
 501              		.syntax unified
 502              	.LBE210:
 503              	.LBE209:
 504              	.LBE208:
 505              	.LBE207:
 506              	.LBE206:
 507              		.loc 1 223 0
 508 0008 FFF7FEFF 		bl	pwm_lld_enable_periodic_notification
 509              	.LVL27:
 510              	.LBB211:
 511              	.LBB212:
 512              	.LBB213:
 513              	.LBB214:
ARM GAS  /tmp/ccbW4Sp8.s 			page 10


 514              	.LBB215:
 515              	.LBB216:
 516              		.loc 2 546 0
 517 000c 0023     		movs	r3, #0
 518              		.syntax unified
 519              	@ 546 "/home/selim/working/ChibiOS/os/ext/CMSIS/include/core_cmFunc.h" 1
 520 000e 83F31188 		MSR basepri, r3
 521              	@ 0 "" 2
 522              	.LVL28:
 523              		.thumb
 524              		.syntax unified
 525 0012 08BD     		pop	{r3, pc}
 526              	.LBE216:
 527              	.LBE215:
 528              	.LBE214:
 529              	.LBE213:
 530              	.LBE212:
 531              	.LBE211:
 532              		.cfi_endproc
 533              	.LFE265:
 534              		.size	pwmEnablePeriodicNotification, .-pwmEnablePeriodicNotification
 535              		.section	.text.pwmDisablePeriodicNotification,"ax",%progbits
 536              		.align	1
 537              		.p2align 4,,15
 538              		.global	pwmDisablePeriodicNotification
 539              		.syntax unified
 540              		.thumb
 541              		.thumb_func
 542              		.fpu softvfp
 543              		.type	pwmDisablePeriodicNotification, %function
 544              	pwmDisablePeriodicNotification:
 545              	.LFB266:
 546              		.loc 1 237 0
 547              		.cfi_startproc
 548              		@ args = 0, pretend = 0, frame = 0
 549              		@ frame_needed = 0, uses_anonymous_args = 0
 550              	.LVL29:
 551 0000 08B5     		push	{r3, lr}
 552              		.cfi_def_cfa_offset 8
 553              		.cfi_offset 3, -8
 554              		.cfi_offset 14, -4
 555              	.LBB217:
 556              	.LBB218:
 557              	.LBB219:
 558              	.LBB220:
 559              	.LBB221:
 560              		.loc 2 546 0
 561 0002 2023     		movs	r3, #32
 562              		.syntax unified
 563              	@ 546 "/home/selim/working/ChibiOS/os/ext/CMSIS/include/core_cmFunc.h" 1
 564 0004 83F31188 		MSR basepri, r3
 565              	@ 0 "" 2
 566              	.LVL30:
 567              		.thumb
 568              		.syntax unified
 569              	.LBE221:
 570              	.LBE220:
ARM GAS  /tmp/ccbW4Sp8.s 			page 11


 571              	.LBE219:
 572              	.LBE218:
 573              	.LBE217:
 574              		.loc 1 246 0
 575 0008 FFF7FEFF 		bl	pwm_lld_disable_periodic_notification
 576              	.LVL31:
 577              	.LBB222:
 578              	.LBB223:
 579              	.LBB224:
 580              	.LBB225:
 581              	.LBB226:
 582              	.LBB227:
 583              		.loc 2 546 0
 584 000c 0023     		movs	r3, #0
 585              		.syntax unified
 586              	@ 546 "/home/selim/working/ChibiOS/os/ext/CMSIS/include/core_cmFunc.h" 1
 587 000e 83F31188 		MSR basepri, r3
 588              	@ 0 "" 2
 589              	.LVL32:
 590              		.thumb
 591              		.syntax unified
 592 0012 08BD     		pop	{r3, pc}
 593              	.LBE227:
 594              	.LBE226:
 595              	.LBE225:
 596              	.LBE224:
 597              	.LBE223:
 598              	.LBE222:
 599              		.cfi_endproc
 600              	.LFE266:
 601              		.size	pwmDisablePeriodicNotification, .-pwmDisablePeriodicNotification
 602              		.section	.text.pwmEnableChannelNotification,"ax",%progbits
 603              		.align	1
 604              		.p2align 4,,15
 605              		.global	pwmEnableChannelNotification
 606              		.syntax unified
 607              		.thumb
 608              		.thumb_func
 609              		.fpu softvfp
 610              		.type	pwmEnableChannelNotification, %function
 611              	pwmEnableChannelNotification:
 612              	.LFB267:
 613              		.loc 1 262 0
 614              		.cfi_startproc
 615              		@ args = 0, pretend = 0, frame = 0
 616              		@ frame_needed = 0, uses_anonymous_args = 0
 617              	.LVL33:
 618 0000 08B5     		push	{r3, lr}
 619              		.cfi_def_cfa_offset 8
 620              		.cfi_offset 3, -8
 621              		.cfi_offset 14, -4
 622              	.LBB228:
 623              	.LBB229:
 624              	.LBB230:
 625              	.LBB231:
 626              	.LBB232:
 627              		.loc 2 546 0
ARM GAS  /tmp/ccbW4Sp8.s 			page 12


 628 0002 2023     		movs	r3, #32
 629              		.syntax unified
 630              	@ 546 "/home/selim/working/ChibiOS/os/ext/CMSIS/include/core_cmFunc.h" 1
 631 0004 83F31188 		MSR basepri, r3
 632              	@ 0 "" 2
 633              	.LVL34:
 634              		.thumb
 635              		.syntax unified
 636              	.LBE232:
 637              	.LBE231:
 638              	.LBE230:
 639              	.LBE229:
 640              	.LBE228:
 641              		.loc 1 274 0
 642 0008 FFF7FEFF 		bl	pwm_lld_enable_channel_notification
 643              	.LVL35:
 644              	.LBB233:
 645              	.LBB234:
 646              	.LBB235:
 647              	.LBB236:
 648              	.LBB237:
 649              	.LBB238:
 650              		.loc 2 546 0
 651 000c 0023     		movs	r3, #0
 652              		.syntax unified
 653              	@ 546 "/home/selim/working/ChibiOS/os/ext/CMSIS/include/core_cmFunc.h" 1
 654 000e 83F31188 		MSR basepri, r3
 655              	@ 0 "" 2
 656              	.LVL36:
 657              		.thumb
 658              		.syntax unified
 659 0012 08BD     		pop	{r3, pc}
 660              	.LBE238:
 661              	.LBE237:
 662              	.LBE236:
 663              	.LBE235:
 664              	.LBE234:
 665              	.LBE233:
 666              		.cfi_endproc
 667              	.LFE267:
 668              		.size	pwmEnableChannelNotification, .-pwmEnableChannelNotification
 669              		.section	.text.pwmDisableChannelNotification,"ax",%progbits
 670              		.align	1
 671              		.p2align 4,,15
 672              		.global	pwmDisableChannelNotification
 673              		.syntax unified
 674              		.thumb
 675              		.thumb_func
 676              		.fpu softvfp
 677              		.type	pwmDisableChannelNotification, %function
 678              	pwmDisableChannelNotification:
 679              	.LFB268:
 680              		.loc 1 290 0
 681              		.cfi_startproc
 682              		@ args = 0, pretend = 0, frame = 0
 683              		@ frame_needed = 0, uses_anonymous_args = 0
 684              	.LVL37:
ARM GAS  /tmp/ccbW4Sp8.s 			page 13


 685 0000 08B5     		push	{r3, lr}
 686              		.cfi_def_cfa_offset 8
 687              		.cfi_offset 3, -8
 688              		.cfi_offset 14, -4
 689              	.LBB239:
 690              	.LBB240:
 691              	.LBB241:
 692              	.LBB242:
 693              	.LBB243:
 694              		.loc 2 546 0
 695 0002 2023     		movs	r3, #32
 696              		.syntax unified
 697              	@ 546 "/home/selim/working/ChibiOS/os/ext/CMSIS/include/core_cmFunc.h" 1
 698 0004 83F31188 		MSR basepri, r3
 699              	@ 0 "" 2
 700              	.LVL38:
 701              		.thumb
 702              		.syntax unified
 703              	.LBE243:
 704              	.LBE242:
 705              	.LBE241:
 706              	.LBE240:
 707              	.LBE239:
 708              		.loc 1 302 0
 709 0008 FFF7FEFF 		bl	pwm_lld_disable_channel_notification
 710              	.LVL39:
 711              	.LBB244:
 712              	.LBB245:
 713              	.LBB246:
 714              	.LBB247:
 715              	.LBB248:
 716              	.LBB249:
 717              		.loc 2 546 0
 718 000c 0023     		movs	r3, #0
 719              		.syntax unified
 720              	@ 546 "/home/selim/working/ChibiOS/os/ext/CMSIS/include/core_cmFunc.h" 1
 721 000e 83F31188 		MSR basepri, r3
 722              	@ 0 "" 2
 723              	.LVL40:
 724              		.thumb
 725              		.syntax unified
 726 0012 08BD     		pop	{r3, pc}
 727              	.LBE249:
 728              	.LBE248:
 729              	.LBE247:
 730              	.LBE246:
 731              	.LBE245:
 732              	.LBE244:
 733              		.cfi_endproc
 734              	.LFE268:
 735              		.size	pwmDisableChannelNotification, .-pwmDisableChannelNotification
 736              		.text
 737              	.Letext0:
 738              		.file 3 "/usr/lib/gcc/arm-none-eabi/6.2.1/include/stddef.h"
 739              		.file 4 "/usr/arm-none-eabi/include/machine/_default_types.h"
 740              		.file 5 "/usr/arm-none-eabi/include/sys/_stdint.h"
 741              		.file 6 "/home/selim/working/ChibiOS/os/rt/ports/ARMCMx/compilers/GCC/chtypes.h"
ARM GAS  /tmp/ccbW4Sp8.s 			page 14


 742              		.file 7 "/home/selim/working/ChibiOS/os/rt/include/chsystypes.h"
 743              		.file 8 "/home/selim/working/ChibiOS/os/rt/include/chschd.h"
 744              		.file 9 "/home/selim/working/ChibiOS/os/ext/CMSIS/include/core_cm4.h"
 745              		.file 10 "/home/selim/working/ChibiOS/os/ext/CMSIS/ST/system_stm32f4xx.h"
 746              		.file 11 "/home/selim/working/ChibiOS/os/ext/CMSIS/ST/stm32f407xx.h"
 747              		.file 12 "/home/selim/working/ChibiOS/os/rt/ports/ARMCMx/chcore.h"
 748              		.file 13 "/home/selim/working/ChibiOS/os/rt/ports/ARMCMx/chcore_v7m.h"
 749              		.file 14 "/home/selim/working/ChibiOS/os/hal/ports/STM32/LLD/TIMv1/stm32_tim.h"
 750              		.file 15 "/home/selim/working/ChibiOS/os/rt/include/chtm.h"
 751              		.file 16 "/home/selim/working/ChibiOS/os/rt/include/chsem.h"
 752              		.file 17 "/home/selim/working/ChibiOS/os/rt/include/chmtx.h"
 753              		.file 18 "/home/selim/working/ChibiOS/os/rt/include/chregistry.h"
 754              		.file 19 "/home/selim/working/ChibiOS/os/rt/include/chevents.h"
 755              		.file 20 "/home/selim/working/ChibiOS/os/rt/include/chqueues.h"
 756              		.file 21 "/home/selim/working/ChibiOS/os/hal/ports/STM32/STM32F4xx/stm32_dma.h"
 757              		.file 22 "/home/selim/working/ChibiOS/os/hal/ports/STM32/LLD/GPIOv2/pal_lld.h"
 758              		.file 23 "/home/selim/working/ChibiOS/os/hal/include/adc.h"
 759              		.file 24 "/home/selim/working/ChibiOS/os/hal/ports/STM32/STM32F4xx/adc_lld.h"
 760              		.file 25 "/home/selim/working/ChibiOS/os/hal/include/gpt.h"
 761              		.file 26 "/home/selim/working/ChibiOS/os/hal/ports/STM32/LLD/TIMv1/gpt_lld.h"
 762              		.file 27 "/home/selim/working/ChibiOS/os/hal/include/pwm.h"
 763              		.file 28 "/home/selim/working/ChibiOS/os/hal/ports/STM32/LLD/TIMv1/pwm_lld.h"
 764              		.file 29 "/home/selim/working/ChibiOS/os/hal/include/serial.h"
 765              		.file 30 "/home/selim/working/ChibiOS/os/hal/ports/STM32/LLD/USARTv1/serial_lld.h"
 766              		.file 31 "/home/selim/working/ChibiOS/os/hal/include/spi.h"
 767              		.file 32 "/home/selim/working/ChibiOS/os/hal/ports/STM32/LLD/SPIv1/spi_lld.h"
 768              		.file 33 "/home/selim/working/ChibiOS/os/hal/include/usb.h"
 769              		.file 34 "/home/selim/working/ChibiOS/os/hal/ports/STM32/LLD/OTGv1/usb_lld.h"
 770              		.file 35 "/home/selim/working/ChibiOS/os/hal/ports/STM32/LLD/OTGv1/stm32_otg.h"
 771              		.file 36 "/home/selim/working/ChibiOS/os/hal/osal/rt/osal.h"
 772              		.file 37 "/home/selim/working/ChibiOS/os/rt/include/chsys.h"