ARM GAS  /tmp/ccEg9ztY.s 			page 1


   1              		.cpu cortex-m4
   2              		.eabi_attribute 20, 1
   3              		.eabi_attribute 21, 1
   4              		.eabi_attribute 23, 3
   5              		.eabi_attribute 24, 1
   6              		.eabi_attribute 25, 1
   7              		.eabi_attribute 26, 1
   8              		.eabi_attribute 30, 2
   9              		.eabi_attribute 34, 1
  10              		.eabi_attribute 18, 4
  11              		.file	"pwm_lld.c"
  12              		.text
  13              	.Ltext0:
  14              		.cfi_sections	.debug_frame
  15              		.section	.text.VectorB8,"ax",%progbits
  16              		.align	1
  17              		.p2align 4,,15
  18              		.global	VectorB8
  19              		.syntax unified
  20              		.thumb
  21              		.thumb_func
  22              		.fpu softvfp
  23              		.type	VectorB8, %function
  24              	VectorB8:
  25              	.LFB259:
  26              		.file 1 "/home/selim/working/ChibiOS/os/hal/ports/STM32/LLD/TIMv1/pwm_lld.c"
  27              		.loc 1 246 0
  28              		.cfi_startproc
  29              		@ args = 0, pretend = 0, frame = 0
  30              		@ frame_needed = 0, uses_anonymous_args = 0
  31              	.LVL0:
  32 0000 38B5     		push	{r3, r4, r5, lr}
  33              		.cfi_def_cfa_offset 16
  34              		.cfi_offset 3, -16
  35              		.cfi_offset 4, -12
  36              		.cfi_offset 5, -8
  37              		.cfi_offset 14, -4
  38              	.LBB4:
  39              	.LBB5:
  40              		.loc 1 114 0
  41 0002 174D     		ldr	r5, .L39
  42 0004 AB69     		ldr	r3, [r5, #24]
  43 0006 1C69     		ldr	r4, [r3, #16]
  44              	.LVL1:
  45              		.loc 1 115 0
  46 0008 DA68     		ldr	r2, [r3, #12]
  47 000a 1440     		ands	r4, r4, r2
  48              	.LVL2:
  49 000c E2B2     		uxtb	r2, r4
  50              		.loc 1 116 0
  51 000e D243     		mvns	r2, r2
  52 0010 1A61     		str	r2, [r3, #16]
  53              		.loc 1 117 0
  54 0012 A307     		lsls	r3, r4, #30
  55 0014 04D5     		bpl	.L2
  56              		.loc 1 118 0
  57 0016 6B68     		ldr	r3, [r5, #4]
ARM GAS  /tmp/ccEg9ztY.s 			page 2


  58 0018 1B69     		ldr	r3, [r3, #16]
  59              		.loc 1 117 0
  60 001a 0BB1     		cbz	r3, .L2
  61              		.loc 1 119 0
  62 001c 2846     		mov	r0, r5
  63 001e 9847     		blx	r3
  64              	.LVL3:
  65              	.L2:
  66              		.loc 1 120 0
  67 0020 6007     		lsls	r0, r4, #29
  68 0022 04D5     		bpl	.L3
  69              		.loc 1 121 0
  70 0024 6B68     		ldr	r3, [r5, #4]
  71 0026 9B69     		ldr	r3, [r3, #24]
  72              		.loc 1 120 0
  73 0028 0BB1     		cbz	r3, .L3
  74              		.loc 1 122 0
  75 002a 0D48     		ldr	r0, .L39
  76 002c 9847     		blx	r3
  77              	.LVL4:
  78              	.L3:
  79              		.loc 1 123 0
  80 002e 2107     		lsls	r1, r4, #28
  81 0030 04D5     		bpl	.L4
  82              		.loc 1 124 0
  83 0032 6B68     		ldr	r3, [r5, #4]
  84 0034 1B6A     		ldr	r3, [r3, #32]
  85              		.loc 1 123 0
  86 0036 0BB1     		cbz	r3, .L4
  87              		.loc 1 125 0
  88 0038 0948     		ldr	r0, .L39
  89 003a 9847     		blx	r3
  90              	.LVL5:
  91              	.L4:
  92              		.loc 1 126 0
  93 003c E206     		lsls	r2, r4, #27
  94 003e 04D5     		bpl	.L5
  95              		.loc 1 127 0
  96 0040 6B68     		ldr	r3, [r5, #4]
  97 0042 9B6A     		ldr	r3, [r3, #40]
  98              		.loc 1 126 0
  99 0044 0BB1     		cbz	r3, .L5
 100              		.loc 1 128 0
 101 0046 0648     		ldr	r0, .L39
 102 0048 9847     		blx	r3
 103              	.LVL6:
 104              	.L5:
 105              		.loc 1 129 0
 106 004a E307     		lsls	r3, r4, #31
 107 004c 04D5     		bpl	.L6
 108 004e 6B68     		ldr	r3, [r5, #4]
 109 0050 9B68     		ldr	r3, [r3, #8]
 110 0052 0BB1     		cbz	r3, .L6
 111              		.loc 1 130 0
 112 0054 0248     		ldr	r0, .L39
 113 0056 9847     		blx	r3
 114              	.LVL7:
ARM GAS  /tmp/ccEg9ztY.s 			page 3


 115              	.L6:
 116              	.LBE5:
 117              	.LBE4:
 118              		.loc 1 253 0
 119 0058 BDE83840 		pop	{r3, r4, r5, lr}
 120              		.cfi_restore 14
 121              		.cfi_restore 5
 122              		.cfi_restore 4
 123              		.cfi_restore 3
 124              		.cfi_def_cfa_offset 0
 125              		.loc 1 252 0
 126 005c FFF7FEBF 		b	_port_irq_epilogue
 127              	.LVL8:
 128              	.L40:
 129              		.align	2
 130              	.L39:
 131 0060 00000000 		.word	.LANCHOR0
 132              		.cfi_endproc
 133              	.LFE259:
 134              		.size	VectorB8, .-VectorB8
 135              		.section	.text.pwm_lld_init,"ax",%progbits
 136              		.align	1
 137              		.p2align 4,,15
 138              		.global	pwm_lld_init
 139              		.syntax unified
 140              		.thumb
 141              		.thumb_func
 142              		.fpu softvfp
 143              		.type	pwm_lld_init, %function
 144              	pwm_lld_init:
 145              	.LFB260:
 146              		.loc 1 364 0
 147              		.cfi_startproc
 148              		@ args = 0, pretend = 0, frame = 0
 149              		@ frame_needed = 0, uses_anonymous_args = 0
 150 0000 10B5     		push	{r4, lr}
 151              		.cfi_def_cfa_offset 8
 152              		.cfi_offset 4, -8
 153              		.cfi_offset 14, -4
 154              		.loc 1 389 0
 155 0002 044C     		ldr	r4, .L43
 156 0004 2046     		mov	r0, r4
 157 0006 FFF7FEFF 		bl	pwmObjectInit
 158              	.LVL9:
 159              		.loc 1 390 0
 160 000a 0422     		movs	r2, #4
 161              		.loc 1 391 0
 162 000c 024B     		ldr	r3, .L43+4
 163              		.loc 1 390 0
 164 000e 2274     		strb	r2, [r4, #16]
 165              		.loc 1 391 0
 166 0010 A361     		str	r3, [r4, #24]
 167 0012 10BD     		pop	{r4, pc}
 168              	.L44:
 169              		.align	2
 170              	.L43:
 171 0014 00000000 		.word	.LANCHOR0
ARM GAS  /tmp/ccEg9ztY.s 			page 4


 172 0018 00080040 		.word	1073743872
 173              		.cfi_endproc
 174              	.LFE260:
 175              		.size	pwm_lld_init, .-pwm_lld_init
 176              		.section	.text.pwm_lld_start,"ax",%progbits
 177              		.align	1
 178              		.p2align 4,,15
 179              		.global	pwm_lld_start
 180              		.syntax unified
 181              		.thumb
 182              		.thumb_func
 183              		.fpu softvfp
 184              		.type	pwm_lld_start, %function
 185              	pwm_lld_start:
 186              	.LFB261:
 187              		.loc 1 425 0
 188              		.cfi_startproc
 189              		@ args = 0, pretend = 0, frame = 0
 190              		@ frame_needed = 0, uses_anonymous_args = 0
 191              	.LVL10:
 192 0000 F8B5     		push	{r3, r4, r5, r6, r7, lr}
 193              		.cfi_def_cfa_offset 24
 194              		.cfi_offset 3, -24
 195              		.cfi_offset 4, -20
 196              		.cfi_offset 5, -16
 197              		.cfi_offset 6, -12
 198              		.cfi_offset 7, -8
 199              		.cfi_offset 14, -4
 200              		.loc 1 429 0
 201 0002 0378     		ldrb	r3, [r0]	@ zero_extendqisi2
 202 0004 012B     		cmp	r3, #1
 203              		.loc 1 425 0
 204 0006 0446     		mov	r4, r0
 205              		.loc 1 429 0
 206 0008 4BD0     		beq	.L73
 207              		.loc 1 512 0
 208 000a 8369     		ldr	r3, [r0, #24]
 209 000c 0022     		movs	r2, #0
 210 000e 1A60     		str	r2, [r3]
 211              		.loc 1 513 0
 212 0010 5A63     		str	r2, [r3, #52]
 213              		.loc 1 514 0
 214 0012 9A63     		str	r2, [r3, #56]
 215              		.loc 1 515 0
 216 0014 DA63     		str	r2, [r3, #60]
 217              		.loc 1 516 0
 218 0016 1A64     		str	r2, [r3, #64]
 219              		.loc 1 523 0
 220 0018 5A62     		str	r2, [r3, #36]
 221              	.LVL11:
 222              	.L48:
 223              		.loc 1 527 0
 224 001a 6168     		ldr	r1, [r4, #4]
 225              		.loc 1 532 0
 226 001c A568     		ldr	r5, [r4, #8]
 227              		.loc 1 537 0
 228 001e CA68     		ldr	r2, [r1, #12]
ARM GAS  /tmp/ccEg9ztY.s 			page 5


 229              		.loc 1 527 0
 230 0020 0F68     		ldr	r7, [r1]
 231 0022 6069     		ldr	r0, [r4, #20]
 232              		.loc 1 533 0
 233 0024 CE6A     		ldr	r6, [r1, #44]
 234              		.loc 1 527 0
 235 0026 B0FBF7F0 		udiv	r0, r0, r7
 236              		.loc 1 537 0
 237 002a 02F00F02 		and	r2, r2, #15
 238              		.loc 1 532 0
 239 002e 013D     		subs	r5, r5, #1
 240              		.loc 1 527 0
 241 0030 0138     		subs	r0, r0, #1
 242              	.LVL12:
 243              		.loc 1 537 0
 244 0032 012A     		cmp	r2, #1
 245              		.loc 1 531 0
 246 0034 9862     		str	r0, [r3, #40]
 247              		.loc 1 532 0
 248 0036 DD62     		str	r5, [r3, #44]
 249              		.loc 1 533 0
 250 0038 5E60     		str	r6, [r3, #4]
 251              	.LVL13:
 252              		.loc 1 537 0
 253 003a 03D0     		beq	.L49
 254              		.loc 1 536 0
 255 003c 022A     		cmp	r2, #2
 256 003e 0CBF     		ite	eq
 257 0040 0322     		moveq	r2, #3
 258 0042 0022     		movne	r2, #0
 259              	.L49:
 260              	.LVL14:
 261              		.loc 1 545 0
 262 0044 4869     		ldr	r0, [r1, #20]
 263              	.LVL15:
 264 0046 00F00F00 		and	r0, r0, #15
 265 004a 0128     		cmp	r0, #1
 266 004c 26D0     		beq	.L53
 267 004e 0228     		cmp	r0, #2
 268 0050 22D0     		beq	.L74
 269              	.L52:
 270              		.loc 1 553 0
 271 0052 C869     		ldr	r0, [r1, #28]
 272 0054 00F00F00 		and	r0, r0, #15
 273 0058 0128     		cmp	r0, #1
 274 005a 1AD0     		beq	.L56
 275 005c 0228     		cmp	r0, #2
 276 005e 16D0     		beq	.L75
 277              	.L55:
 278              		.loc 1 561 0
 279 0060 486A     		ldr	r0, [r1, #36]
 280 0062 00F00F00 		and	r0, r0, #15
 281 0066 0128     		cmp	r0, #1
 282 0068 03D0     		beq	.L59
 283 006a 0228     		cmp	r0, #2
 284 006c 03D1     		bne	.L58
 285              		.loc 1 563 0
ARM GAS  /tmp/ccEg9ztY.s 			page 6


 286 006e 42F40052 		orr	r2, r2, #8192
 287              	.LVL16:
 288              	.L59:
 289              		.loc 1 565 0
 290 0072 42F48052 		orr	r2, r2, #4096
 291              	.LVL17:
 292              	.L58:
 293              		.loc 1 609 0
 294 0076 096B     		ldr	r1, [r1, #48]
 295              		.loc 1 606 0
 296 0078 1A62     		str	r2, [r3, #32]
 297              		.loc 1 607 0
 298 007a 0124     		movs	r4, #1
 299              	.LVL18:
 300              		.loc 1 609 0
 301 007c 21F0FF02 		bic	r2, r1, #255
 302              	.LVL19:
 303              		.loc 1 608 0
 304 0080 0020     		movs	r0, #0
 305              		.loc 1 619 0
 306 0082 8521     		movs	r1, #133
 307              		.loc 1 607 0
 308 0084 5C61     		str	r4, [r3, #20]
 309              	.LVL20:
 310              		.loc 1 608 0
 311 0086 1861     		str	r0, [r3, #16]
 312              		.loc 1 609 0
 313 0088 DA60     		str	r2, [r3, #12]
 314              		.loc 1 619 0
 315 008a 1960     		str	r1, [r3]
 316 008c F8BD     		pop	{r3, r4, r5, r6, r7, pc}
 317              	.LVL21:
 318              	.L75:
 319              		.loc 1 555 0
 320 008e 42F40072 		orr	r2, r2, #512
 321              	.LVL22:
 322              	.L56:
 323              		.loc 1 557 0
 324 0092 42F48072 		orr	r2, r2, #256
 325              	.LVL23:
 326 0096 E3E7     		b	.L55
 327              	.L74:
 328              		.loc 1 547 0
 329 0098 42F02002 		orr	r2, r2, #32
 330              	.LVL24:
 331              	.L53:
 332              		.loc 1 549 0
 333 009c 42F01002 		orr	r2, r2, #16
 334              	.LVL25:
 335 00a0 D7E7     		b	.L52
 336              	.LVL26:
 337              	.L73:
 338              		.loc 1 461 0
 339 00a2 0D4B     		ldr	r3, .L77
 340 00a4 9842     		cmp	r0, r3
 341 00a6 05D0     		beq	.L76
 342              	.LVL27:
ARM GAS  /tmp/ccEg9ztY.s 			page 7


 343              	.L47:
 344              		.loc 1 501 0
 345 00a8 A369     		ldr	r3, [r4, #24]
 346 00aa 46F66802 		movw	r2, #26728
 347 00ae 9A61     		str	r2, [r3, #24]
 348              		.loc 1 503 0
 349 00b0 DA61     		str	r2, [r3, #28]
 350 00b2 B2E7     		b	.L48
 351              	.LVL28:
 352              	.L76:
 353              		.loc 1 462 0
 354 00b4 094B     		ldr	r3, .L77+4
 355 00b6 1A6C     		ldr	r2, [r3, #64]
 356 00b8 42F00402 		orr	r2, r2, #4
 357 00bc 1A64     		str	r2, [r3, #64]
 358              		.loc 1 463 0
 359 00be 1A6A     		ldr	r2, [r3, #32]
 360 00c0 0020     		movs	r0, #0
 361              	.LVL29:
 362 00c2 42F00402 		orr	r2, r2, #4
 363 00c6 1A62     		str	r2, [r3, #32]
 364              		.loc 1 464 0
 365 00c8 0721     		movs	r1, #7
 366              		.loc 1 463 0
 367 00ca 1862     		str	r0, [r3, #32]
 368              		.loc 1 464 0
 369 00cc 1E20     		movs	r0, #30
 370 00ce FFF7FEFF 		bl	nvicEnableVector
 371              	.LVL30:
 372              		.loc 1 465 0
 373 00d2 034B     		ldr	r3, .L77+8
 374 00d4 6361     		str	r3, [r4, #20]
 375 00d6 E7E7     		b	.L47
 376              	.L78:
 377              		.align	2
 378              	.L77:
 379 00d8 00000000 		.word	.LANCHOR0
 380 00dc 00380240 		.word	1073887232
 381 00e0 00BD0105 		.word	84000000
 382              		.cfi_endproc
 383              	.LFE261:
 384              		.size	pwm_lld_start, .-pwm_lld_start
 385              		.section	.text.pwm_lld_stop,"ax",%progbits
 386              		.align	1
 387              		.p2align 4,,15
 388              		.global	pwm_lld_stop
 389              		.syntax unified
 390              		.thumb
 391              		.thumb_func
 392              		.fpu softvfp
 393              		.type	pwm_lld_stop, %function
 394              	pwm_lld_stop:
 395              	.LFB262:
 396              		.loc 1 630 0
 397              		.cfi_startproc
 398              		@ args = 0, pretend = 0, frame = 0
 399              		@ frame_needed = 0, uses_anonymous_args = 0
ARM GAS  /tmp/ccEg9ztY.s 			page 8


 400              	.LVL31:
 401 0000 08B5     		push	{r3, lr}
 402              		.cfi_def_cfa_offset 8
 403              		.cfi_offset 3, -8
 404              		.cfi_offset 14, -4
 405              		.loc 1 633 0
 406 0002 0378     		ldrb	r3, [r0]	@ zero_extendqisi2
 407 0004 022B     		cmp	r3, #2
 408 0006 00D0     		beq	.L84
 409              	.LVL32:
 410              	.L79:
 411 0008 08BD     		pop	{r3, pc}
 412              	.LVL33:
 413              	.L84:
 414              		.loc 1 661 0
 415 000a 0849     		ldr	r1, .L85
 416              		.loc 1 634 0
 417 000c 8369     		ldr	r3, [r0, #24]
 418 000e 0022     		movs	r2, #0
 419              		.loc 1 661 0
 420 0010 8842     		cmp	r0, r1
 421              		.loc 1 634 0
 422 0012 1A60     		str	r2, [r3]
 423              		.loc 1 635 0
 424 0014 DA60     		str	r2, [r3, #12]
 425              		.loc 1 636 0
 426 0016 1A61     		str	r2, [r3, #16]
 427              		.loc 1 661 0
 428 0018 F6D1     		bne	.L79
 429              		.loc 1 662 0
 430 001a 1E20     		movs	r0, #30
 431              	.LVL34:
 432 001c FFF7FEFF 		bl	nvicDisableVector
 433              	.LVL35:
 434              		.loc 1 663 0
 435 0020 034A     		ldr	r2, .L85+4
 436 0022 136C     		ldr	r3, [r2, #64]
 437 0024 23F00403 		bic	r3, r3, #4
 438 0028 1364     		str	r3, [r2, #64]
 439              		.loc 1 686 0
 440 002a EDE7     		b	.L79
 441              	.L86:
 442              		.align	2
 443              	.L85:
 444 002c 00000000 		.word	.LANCHOR0
 445 0030 00380240 		.word	1073887232
 446              		.cfi_endproc
 447              	.LFE262:
 448              		.size	pwm_lld_stop, .-pwm_lld_stop
 449              		.section	.text.pwm_lld_enable_channel,"ax",%progbits
 450              		.align	1
 451              		.p2align 4,,15
 452              		.global	pwm_lld_enable_channel
 453              		.syntax unified
 454              		.thumb
 455              		.thumb_func
 456              		.fpu softvfp
ARM GAS  /tmp/ccEg9ztY.s 			page 9


 457              		.type	pwm_lld_enable_channel, %function
 458              	pwm_lld_enable_channel:
 459              	.LFB263:
 460              		.loc 1 703 0
 461              		.cfi_startproc
 462              		@ args = 0, pretend = 0, frame = 0
 463              		@ frame_needed = 0, uses_anonymous_args = 0
 464              		@ link register save eliminated.
 465              	.LVL36:
 466              		.loc 1 707 0
 467 0000 8369     		ldr	r3, [r0, #24]
 468 0002 0C31     		adds	r1, r1, #12
 469              	.LVL37:
 470 0004 03EB8103 		add	r3, r3, r1, lsl #2
 471 0008 5A60     		str	r2, [r3, #4]
 472 000a 7047     		bx	lr
 473              		.cfi_endproc
 474              	.LFE263:
 475              		.size	pwm_lld_enable_channel, .-pwm_lld_enable_channel
 476              		.section	.text.pwm_lld_disable_channel,"ax",%progbits
 477              		.align	1
 478              		.p2align 4,,15
 479              		.global	pwm_lld_disable_channel
 480              		.syntax unified
 481              		.thumb
 482              		.thumb_func
 483              		.fpu softvfp
 484              		.type	pwm_lld_disable_channel, %function
 485              	pwm_lld_disable_channel:
 486              	.LFB264:
 487              		.loc 1 728 0
 488              		.cfi_startproc
 489              		@ args = 0, pretend = 0, frame = 0
 490              		@ frame_needed = 0, uses_anonymous_args = 0
 491              		@ link register save eliminated.
 492              	.LVL38:
 493              		.loc 1 731 0
 494 0000 8369     		ldr	r3, [r0, #24]
 495 0002 01F10C02 		add	r2, r1, #12
 496 0006 03EB8202 		add	r2, r3, r2, lsl #2
 497 000a 0020     		movs	r0, #0
 498              	.LVL39:
 499 000c 5060     		str	r0, [r2, #4]
 500              		.loc 1 732 0
 501 000e DA68     		ldr	r2, [r3, #12]
 502 0010 0220     		movs	r0, #2
 503 0012 00FA01F1 		lsl	r1, r0, r1
 504              	.LVL40:
 505 0016 22EA0101 		bic	r1, r2, r1
 506 001a D960     		str	r1, [r3, #12]
 507 001c 7047     		bx	lr
 508              		.cfi_endproc
 509              	.LFE264:
 510              		.size	pwm_lld_disable_channel, .-pwm_lld_disable_channel
 511 001e 00BF     		.section	.text.pwm_lld_enable_periodic_notification,"ax",%progbits
 512              		.align	1
 513              		.p2align 4,,15
ARM GAS  /tmp/ccEg9ztY.s 			page 10


 514              		.global	pwm_lld_enable_periodic_notification
 515              		.syntax unified
 516              		.thumb
 517              		.thumb_func
 518              		.fpu softvfp
 519              		.type	pwm_lld_enable_periodic_notification, %function
 520              	pwm_lld_enable_periodic_notification:
 521              	.LFB265:
 522              		.loc 1 752 0
 523              		.cfi_startproc
 524              		@ args = 0, pretend = 0, frame = 0
 525              		@ frame_needed = 0, uses_anonymous_args = 0
 526              		@ link register save eliminated.
 527              	.LVL41:
 528              		.loc 1 753 0
 529 0000 8369     		ldr	r3, [r0, #24]
 530 0002 DA68     		ldr	r2, [r3, #12]
 531              	.LVL42:
 532              		.loc 1 757 0
 533 0004 D107     		lsls	r1, r2, #31
 534 0006 06D4     		bmi	.L89
 535              		.loc 1 758 0
 536 0008 42F00102 		orr	r2, r2, #1
 537              	.LVL43:
 538 000c DA60     		str	r2, [r3, #12]
 539              		.loc 1 759 0
 540 000e 1A69     		ldr	r2, [r3, #16]
 541 0010 02F00102 		and	r2, r2, #1
 542 0014 1A61     		str	r2, [r3, #16]
 543              	.L89:
 544 0016 7047     		bx	lr
 545              		.cfi_endproc
 546              	.LFE265:
 547              		.size	pwm_lld_enable_periodic_notification, .-pwm_lld_enable_periodic_notification
 548              		.section	.text.pwm_lld_disable_periodic_notification,"ax",%progbits
 549              		.align	1
 550              		.p2align 4,,15
 551              		.global	pwm_lld_disable_periodic_notification
 552              		.syntax unified
 553              		.thumb
 554              		.thumb_func
 555              		.fpu softvfp
 556              		.type	pwm_lld_disable_periodic_notification, %function
 557              	pwm_lld_disable_periodic_notification:
 558              	.LFB266:
 559              		.loc 1 772 0
 560              		.cfi_startproc
 561              		@ args = 0, pretend = 0, frame = 0
 562              		@ frame_needed = 0, uses_anonymous_args = 0
 563              		@ link register save eliminated.
 564              	.LVL44:
 565              		.loc 1 774 0
 566 0000 8269     		ldr	r2, [r0, #24]
 567 0002 D368     		ldr	r3, [r2, #12]
 568 0004 23F00103 		bic	r3, r3, #1
 569 0008 D360     		str	r3, [r2, #12]
 570 000a 7047     		bx	lr
ARM GAS  /tmp/ccEg9ztY.s 			page 11


 571              		.cfi_endproc
 572              	.LFE266:
 573              		.size	pwm_lld_disable_periodic_notification, .-pwm_lld_disable_periodic_notification
 574              		.section	.text.pwm_lld_enable_channel_notification,"ax",%progbits
 575              		.align	1
 576              		.p2align 4,,15
 577              		.global	pwm_lld_enable_channel_notification
 578              		.syntax unified
 579              		.thumb
 580              		.thumb_func
 581              		.fpu softvfp
 582              		.type	pwm_lld_enable_channel_notification, %function
 583              	pwm_lld_enable_channel_notification:
 584              	.LFB267:
 585              		.loc 1 789 0
 586              		.cfi_startproc
 587              		@ args = 0, pretend = 0, frame = 0
 588              		@ frame_needed = 0, uses_anonymous_args = 0
 589              		@ link register save eliminated.
 590              	.LVL45:
 591              		.loc 1 790 0
 592 0000 8069     		ldr	r0, [r0, #24]
 593              	.LVL46:
 594              		.loc 1 799 0
 595 0002 0223     		movs	r3, #2
 596              		.loc 1 790 0
 597 0004 C268     		ldr	r2, [r0, #12]
 598              	.LVL47:
 599              		.loc 1 799 0
 600 0006 03FA01F1 		lsl	r1, r3, r1
 601              	.LVL48:
 602 000a 0A42     		tst	r2, r1
 603 000c 03D1     		bne	.L92
 604              		.loc 1 800 0
 605 000e 0A43     		orrs	r2, r2, r1
 606              	.LVL49:
 607              		.loc 1 801 0
 608 0010 C943     		mvns	r1, r1
 609              		.loc 1 800 0
 610 0012 C260     		str	r2, [r0, #12]
 611              		.loc 1 801 0
 612 0014 0161     		str	r1, [r0, #16]
 613              	.L92:
 614 0016 7047     		bx	lr
 615              		.cfi_endproc
 616              	.LFE267:
 617              		.size	pwm_lld_enable_channel_notification, .-pwm_lld_enable_channel_notification
 618              		.section	.text.pwm_lld_disable_channel_notification,"ax",%progbits
 619              		.align	1
 620              		.p2align 4,,15
 621              		.global	pwm_lld_disable_channel_notification
 622              		.syntax unified
 623              		.thumb
 624              		.thumb_func
 625              		.fpu softvfp
 626              		.type	pwm_lld_disable_channel_notification, %function
 627              	pwm_lld_disable_channel_notification:
ARM GAS  /tmp/ccEg9ztY.s 			page 12


 628              	.LFB268:
 629              		.loc 1 817 0
 630              		.cfi_startproc
 631              		@ args = 0, pretend = 0, frame = 0
 632              		@ frame_needed = 0, uses_anonymous_args = 0
 633              		@ link register save eliminated.
 634              	.LVL50:
 635              		.loc 1 819 0
 636 0000 8069     		ldr	r0, [r0, #24]
 637              	.LVL51:
 638 0002 0222     		movs	r2, #2
 639 0004 C368     		ldr	r3, [r0, #12]
 640 0006 02FA01F1 		lsl	r1, r2, r1
 641              	.LVL52:
 642 000a 23EA0103 		bic	r3, r3, r1
 643 000e C360     		str	r3, [r0, #12]
 644 0010 7047     		bx	lr
 645              		.cfi_endproc
 646              	.LFE268:
 647              		.size	pwm_lld_disable_channel_notification, .-pwm_lld_disable_channel_notification
 648              		.global	PWMD4
 649 0012 00BF     		.section	.bss.PWMD4,"aw",%nobits
 650              		.align	2
 651              		.set	.LANCHOR0,. + 0
 652              		.type	PWMD4, %object
 653              		.size	PWMD4, 28
 654              	PWMD4:
 655 0000 00000000 		.space	28
 655      00000000 
 655      00000000 
 655      00000000 
 655      00000000 
 656              		.text
 657              	.Letext0:
 658              		.file 2 "/usr/lib/gcc/arm-none-eabi/6.2.1/include/stddef.h"
 659              		.file 3 "/usr/arm-none-eabi/include/machine/_default_types.h"
 660              		.file 4 "/usr/arm-none-eabi/include/sys/_stdint.h"
 661              		.file 5 "/home/selim/working/ChibiOS/os/rt/ports/ARMCMx/compilers/GCC/chtypes.h"
 662              		.file 6 "/home/selim/working/ChibiOS/os/rt/include/chsystypes.h"
 663              		.file 7 "/home/selim/working/ChibiOS/os/rt/include/chschd.h"
 664              		.file 8 "/home/selim/working/ChibiOS/os/ext/CMSIS/include/core_cm4.h"
 665              		.file 9 "/home/selim/working/ChibiOS/os/ext/CMSIS/ST/system_stm32f4xx.h"
 666              		.file 10 "/home/selim/working/ChibiOS/os/ext/CMSIS/ST/stm32f407xx.h"
 667              		.file 11 "/home/selim/working/ChibiOS/os/rt/ports/ARMCMx/chcore.h"
 668              		.file 12 "/home/selim/working/ChibiOS/os/rt/ports/ARMCMx/chcore_v7m.h"
 669              		.file 13 "/home/selim/working/ChibiOS/os/hal/ports/STM32/LLD/TIMv1/stm32_tim.h"
 670              		.file 14 "/home/selim/working/ChibiOS/os/rt/include/chtm.h"
 671              		.file 15 "/home/selim/working/ChibiOS/os/rt/include/chsem.h"
 672              		.file 16 "/home/selim/working/ChibiOS/os/rt/include/chmtx.h"
 673              		.file 17 "/home/selim/working/ChibiOS/os/rt/include/chregistry.h"
 674              		.file 18 "/home/selim/working/ChibiOS/os/rt/include/chevents.h"
 675              		.file 19 "/home/selim/working/ChibiOS/os/rt/include/chqueues.h"
 676              		.file 20 "/home/selim/working/ChibiOS/os/hal/ports/STM32/STM32F4xx/stm32_dma.h"
 677              		.file 21 "/home/selim/working/ChibiOS/os/hal/ports/STM32/LLD/GPIOv2/pal_lld.h"
 678              		.file 22 "/home/selim/working/ChibiOS/os/hal/include/adc.h"
 679              		.file 23 "/home/selim/working/ChibiOS/os/hal/ports/STM32/STM32F4xx/adc_lld.h"
 680              		.file 24 "/home/selim/working/ChibiOS/os/hal/include/gpt.h"
ARM GAS  /tmp/ccEg9ztY.s 			page 13


 681              		.file 25 "/home/selim/working/ChibiOS/os/hal/ports/STM32/LLD/TIMv1/gpt_lld.h"
 682              		.file 26 "/home/selim/working/ChibiOS/os/hal/include/pwm.h"
 683              		.file 27 "/home/selim/working/ChibiOS/os/hal/ports/STM32/LLD/TIMv1/pwm_lld.h"
 684              		.file 28 "/home/selim/working/ChibiOS/os/hal/include/serial.h"
 685              		.file 29 "/home/selim/working/ChibiOS/os/hal/ports/STM32/LLD/USARTv1/serial_lld.h"
 686              		.file 30 "/home/selim/working/ChibiOS/os/hal/include/spi.h"
 687              		.file 31 "/home/selim/working/ChibiOS/os/hal/ports/STM32/LLD/SPIv1/spi_lld.h"
 688              		.file 32 "/home/selim/working/ChibiOS/os/hal/include/usb.h"
 689              		.file 33 "/home/selim/working/ChibiOS/os/hal/ports/STM32/LLD/OTGv1/usb_lld.h"
 690              		.file 34 "/home/selim/working/ChibiOS/os/hal/ports/STM32/LLD/OTGv1/stm32_otg.h"
 691              		.file 35 "/home/selim/working/ChibiOS/os/hal/ports/common/ARMCMx/nvic.h"