ARM GAS  /tmp/ccyyeJCr.s 			page 1


   1              		.cpu cortex-m4
   2              		.eabi_attribute 20, 1
   3              		.eabi_attribute 21, 1
   4              		.eabi_attribute 23, 3
   5              		.eabi_attribute 24, 1
   6              		.eabi_attribute 25, 1
   7              		.eabi_attribute 26, 1
   8              		.eabi_attribute 30, 2
   9              		.eabi_attribute 34, 1
  10              		.eabi_attribute 18, 4
  11              		.file	"serial_usb.c"
  12              		.text
  13              	.Ltext0:
  14              		.cfi_sections	.debug_frame
  15              		.section	.text.onotify,"ax",%progbits
  16              		.align	1
  17              		.p2align 4,,15
  18              		.syntax unified
  19              		.thumb
  20              		.thumb_func
  21              		.fpu softvfp
  22              		.type	onotify, %function
  23              	onotify:
  24              	.LFB267:
  25              		.file 1 "/home/selim/working/ChibiOS/os/hal/src/serial_usb.c"
  26              		.loc 1 144 0
  27              		.cfi_startproc
  28              		@ args = 0, pretend = 0, frame = 0
  29              		@ frame_needed = 0, uses_anonymous_args = 0
  30              	.LVL0:
  31 0000 10B5     		push	{r4, lr}
  32              		.cfi_def_cfa_offset 8
  33              		.cfi_offset 4, -8
  34              		.cfi_offset 14, -4
  35              		.loc 1 146 0
  36 0002 046A     		ldr	r4, [r0, #32]
  37              	.LVL1:
  38              		.loc 1 150 0
  39 0004 D4F85422 		ldr	r2, [r4, #596]
  40 0008 1368     		ldr	r3, [r2]
  41 000a 1978     		ldrb	r1, [r3]	@ zero_extendqisi2
  42 000c 0429     		cmp	r1, #4
  43 000e 00D0     		beq	.L8
  44              	.LVL2:
  45              	.L1:
  46 0010 10BD     		pop	{r4, pc}
  47              	.LVL3:
  48              	.L8:
  49              		.loc 1 150 0 is_stmt 0 discriminator 1
  50 0012 217A     		ldrb	r1, [r4, #8]	@ zero_extendqisi2
  51 0014 0229     		cmp	r1, #2
  52 0016 FBD1     		bne	.L1
  53              		.loc 1 157 0 is_stmt 1
  54 0018 1179     		ldrb	r1, [r2, #4]	@ zero_extendqisi2
  55 001a 1A89     		ldrh	r2, [r3, #8]
  56 001c 0123     		movs	r3, #1
  57 001e 8B40     		lsls	r3, r3, r1
ARM GAS  /tmp/ccyyeJCr.s 			page 2


  58 0020 1A40     		ands	r2, r3, r2
  59 0022 F5D1     		bne	.L1
  60              	.LBB200:
  61              	.LBB201:
  62              		.file 2 "/home/selim/working/ChibiOS/os/rt/include/chqueues.h"
  63              		.loc 2 357 0
  64 0024 236C     		ldr	r3, [r4, #64]
  65 0026 E06B     		ldr	r0, [r4, #60]
  66              	.LVL4:
  67 0028 A16B     		ldr	r1, [r4, #56]
  68 002a 1B1A     		subs	r3, r3, r0
  69              	.LBE201:
  70              	.LBE200:
  71              		.loc 1 158 0
  72 002c 5B1A     		subs	r3, r3, r1
  73 002e EFD0     		beq	.L1
  74              	.LVL5:
  75              	.LBB202:
  76              	.LBB203:
  77              	.LBB204:
  78              	.LBB205:
  79              	.LBB206:
  80              	.LBB207:
  81              		.file 3 "/home/selim/working/ChibiOS/os/ext/CMSIS/include/core_cmFunc.h"
  82              		.loc 3 546 0
  83              		.syntax unified
  84              	@ 546 "/home/selim/working/ChibiOS/os/ext/CMSIS/include/core_cmFunc.h" 1
  85 0030 82F31188 		MSR basepri, r2
  86              	@ 0 "" 2
  87              	.LVL6:
  88              		.thumb
  89              		.syntax unified
  90              	.LBE207:
  91              	.LBE206:
  92              	.LBE205:
  93              	.LBE204:
  94              	.LBE203:
  95              	.LBE202:
  96              		.loc 1 161 0
  97 0034 D4F85422 		ldr	r2, [r4, #596]
  98 0038 1179     		ldrb	r1, [r2, #4]	@ zero_extendqisi2
  99 003a 1068     		ldr	r0, [r2]
 100 003c 04F13002 		add	r2, r4, #48
 101 0040 FFF7FEFF 		bl	usbPrepareQueuedTransmit
 102              	.LVL7:
 103              	.LBB208:
 104              	.LBB209:
 105              	.LBB210:
 106              	.LBB211:
 107              	.LBB212:
 108              		.loc 3 546 0
 109 0044 2023     		movs	r3, #32
 110              		.syntax unified
 111              	@ 546 "/home/selim/working/ChibiOS/os/ext/CMSIS/include/core_cmFunc.h" 1
 112 0046 83F31188 		MSR basepri, r3
 113              	@ 0 "" 2
 114              	.LVL8:
ARM GAS  /tmp/ccyyeJCr.s 			page 3


 115              		.thumb
 116              		.syntax unified
 117              	.LBE212:
 118              	.LBE211:
 119              	.LBE210:
 120              	.LBE209:
 121              	.LBE208:
 122              		.loc 1 166 0
 123 004a D4F85432 		ldr	r3, [r4, #596]
 124              		.loc 1 169 0
 125 004e BDE81040 		pop	{r4, lr}
 126              		.cfi_restore 14
 127              		.cfi_restore 4
 128              		.cfi_def_cfa_offset 0
 129              	.LVL9:
 130              		.loc 1 166 0
 131 0052 1979     		ldrb	r1, [r3, #4]	@ zero_extendqisi2
 132 0054 1868     		ldr	r0, [r3]
 133 0056 FFF7FEBF 		b	usbStartTransmitI
 134              	.LVL10:
 135              		.cfi_endproc
 136              	.LFE267:
 137              		.size	onotify, .-onotify
 138 005a 00BF     		.section	.text.inotify,"ax",%progbits
 139              		.align	1
 140              		.p2align 4,,15
 141              		.syntax unified
 142              		.thumb
 143              		.thumb_func
 144              		.fpu softvfp
 145              		.type	inotify, %function
 146              	inotify:
 147              	.LFB266:
 148              		.loc 1 109 0
 149              		.cfi_startproc
 150              		@ args = 0, pretend = 0, frame = 0
 151              		@ frame_needed = 0, uses_anonymous_args = 0
 152              	.LVL11:
 153 0000 38B5     		push	{r3, r4, r5, lr}
 154              		.cfi_def_cfa_offset 16
 155              		.cfi_offset 3, -16
 156              		.cfi_offset 4, -12
 157              		.cfi_offset 5, -8
 158              		.cfi_offset 14, -4
 159              		.loc 1 111 0
 160 0002 046A     		ldr	r4, [r0, #32]
 161              	.LVL12:
 162              		.loc 1 115 0
 163 0004 D4F85422 		ldr	r2, [r4, #596]
 164 0008 1368     		ldr	r3, [r2]
 165 000a 1978     		ldrb	r1, [r3]	@ zero_extendqisi2
 166 000c 0429     		cmp	r1, #4
 167 000e 00D0     		beq	.L12
 168              	.LVL13:
 169              	.L9:
 170 0010 38BD     		pop	{r3, r4, r5, pc}
 171              	.LVL14:
ARM GAS  /tmp/ccyyeJCr.s 			page 4


 172              	.L12:
 173              		.loc 1 115 0 is_stmt 0 discriminator 1
 174 0012 217A     		ldrb	r1, [r4, #8]	@ zero_extendqisi2
 175 0014 0229     		cmp	r1, #2
 176 0016 FBD1     		bne	.L9
 177              		.loc 1 123 0 is_stmt 1
 178 0018 5079     		ldrb	r0, [r2, #5]	@ zero_extendqisi2
 179              	.LVL15:
 180              		.loc 1 124 0
 181 001a 5989     		ldrh	r1, [r3, #10]
 182 001c 0122     		movs	r2, #1
 183 001e 8240     		lsls	r2, r2, r0
 184 0020 0A40     		ands	r2, r2, r1
 185 0022 F5D1     		bne	.L9
 186              		.loc 1 123 0
 187 0024 03EB8003 		add	r3, r3, r0, lsl #2
 188              	.LVL16:
 189              	.LBB213:
 190              	.LBB214:
 191              		.loc 2 290 0
 192 0028 A169     		ldr	r1, [r4, #24]
 193 002a E069     		ldr	r0, [r4, #28]
 194              	.LVL17:
 195              	.LBE214:
 196              	.LBE213:
 197              		.loc 1 123 0
 198 002c DB68     		ldr	r3, [r3, #12]
 199              	.LBB217:
 200              	.LBB215:
 201              		.loc 2 290 0
 202 002e 6569     		ldr	r5, [r4, #20]
 203              	.LBE215:
 204              	.LBE217:
 205              		.loc 1 123 0
 206 0030 5B8A     		ldrh	r3, [r3, #18]
 207              	.LVL18:
 208              	.LBB218:
 209              	.LBB216:
 210              		.loc 2 290 0
 211 0032 411A     		subs	r1, r0, r1
 212 0034 491B     		subs	r1, r1, r5
 213              	.LVL19:
 214              	.LBE216:
 215              	.LBE218:
 216              		.loc 1 125 0
 217 0036 8B42     		cmp	r3, r1
 218 0038 EAD8     		bhi	.L9
 219              	.LVL20:
 220              	.LBB219:
 221              	.LBB220:
 222              	.LBB221:
 223              	.LBB222:
 224              	.LBB223:
 225              	.LBB224:
 226              		.loc 3 546 0
 227              		.syntax unified
 228              	@ 546 "/home/selim/working/ChibiOS/os/ext/CMSIS/include/core_cmFunc.h" 1
ARM GAS  /tmp/ccyyeJCr.s 			page 5


 229 003a 82F31188 		MSR basepri, r2
 230              	@ 0 "" 2
 231              	.LVL21:
 232              		.thumb
 233              		.syntax unified
 234              	.LBE224:
 235              	.LBE223:
 236              	.LBE222:
 237              	.LBE221:
 238              	.LBE220:
 239              	.LBE219:
 240              		.loc 1 128 0
 241 003e B1FBF3F1 		udiv	r1, r1, r3
 242              	.LVL22:
 243              		.loc 1 129 0
 244 0042 D4F85422 		ldr	r2, [r4, #596]
 245 0046 03FB01F3 		mul	r3, r3, r1
 246              	.LVL23:
 247 004a 1068     		ldr	r0, [r2]
 248 004c 5179     		ldrb	r1, [r2, #5]	@ zero_extendqisi2
 249 004e 04F10C02 		add	r2, r4, #12
 250 0052 FFF7FEFF 		bl	usbPrepareQueuedReceive
 251              	.LVL24:
 252              	.LBB225:
 253              	.LBB226:
 254              	.LBB227:
 255              	.LBB228:
 256              	.LBB229:
 257              		.loc 3 546 0
 258 0056 2023     		movs	r3, #32
 259              		.syntax unified
 260              	@ 546 "/home/selim/working/ChibiOS/os/ext/CMSIS/include/core_cmFunc.h" 1
 261 0058 83F31188 		MSR basepri, r3
 262              	@ 0 "" 2
 263              	.LVL25:
 264              		.thumb
 265              		.syntax unified
 266              	.LBE229:
 267              	.LBE228:
 268              	.LBE227:
 269              	.LBE226:
 270              	.LBE225:
 271              		.loc 1 134 0
 272 005c D4F85432 		ldr	r3, [r4, #596]
 273 0060 5979     		ldrb	r1, [r3, #5]	@ zero_extendqisi2
 274 0062 1868     		ldr	r0, [r3]
 275              		.loc 1 137 0
 276 0064 BDE83840 		pop	{r3, r4, r5, lr}
 277              		.cfi_restore 14
 278              		.cfi_restore 5
 279              		.cfi_restore 4
 280              		.cfi_restore 3
 281              		.cfi_def_cfa_offset 0
 282              	.LVL26:
 283              		.loc 1 134 0
 284 0068 FFF7FEBF 		b	usbStartReceiveI
 285              	.LVL27:
ARM GAS  /tmp/ccyyeJCr.s 			page 6


 286              		.cfi_endproc
 287              	.LFE266:
 288              		.size	inotify, .-inotify
 289              		.section	.text.readt,"ax",%progbits
 290              		.align	1
 291              		.p2align 4,,15
 292              		.syntax unified
 293              		.thumb
 294              		.thumb_func
 295              		.fpu softvfp
 296              		.type	readt, %function
 297              	readt:
 298              	.LFB265:
 299              		.loc 1 94 0
 300              		.cfi_startproc
 301              		@ args = 0, pretend = 0, frame = 0
 302              		@ frame_needed = 0, uses_anonymous_args = 0
 303              		@ link register save eliminated.
 304              	.LVL28:
 305              		.loc 1 96 0
 306 0000 0C30     		adds	r0, r0, #12
 307              	.LVL29:
 308 0002 FFF7FEBF 		b	chIQReadTimeout
 309              	.LVL30:
 310              		.cfi_endproc
 311              	.LFE265:
 312              		.size	readt, .-readt
 313 0006 00BF     		.section	.text.read,"ax",%progbits
 314              		.align	1
 315              		.p2align 4,,15
 316              		.syntax unified
 317              		.thumb
 318              		.thumb_func
 319              		.fpu softvfp
 320              		.type	read, %function
 321              	read:
 322              	.LFB259:
 323              		.loc 1 63 0
 324              		.cfi_startproc
 325              		@ args = 0, pretend = 0, frame = 0
 326              		@ frame_needed = 0, uses_anonymous_args = 0
 327              		@ link register save eliminated.
 328              	.LVL31:
 329              		.loc 1 65 0
 330 0000 0C30     		adds	r0, r0, #12
 331              	.LVL32:
 332 0002 4FF0FF33 		mov	r3, #-1
 333 0006 FFF7FEBF 		b	chIQReadTimeout
 334              	.LVL33:
 335              		.cfi_endproc
 336              	.LFE259:
 337              		.size	read, .-read
 338 000a 00BF     		.section	.text.writet,"ax",%progbits
 339              		.align	1
 340              		.p2align 4,,15
 341              		.syntax unified
 342              		.thumb
ARM GAS  /tmp/ccyyeJCr.s 			page 7


 343              		.thumb_func
 344              		.fpu softvfp
 345              		.type	writet, %function
 346              	writet:
 347              	.LFB264:
 348              		.loc 1 89 0
 349              		.cfi_startproc
 350              		@ args = 0, pretend = 0, frame = 0
 351              		@ frame_needed = 0, uses_anonymous_args = 0
 352              		@ link register save eliminated.
 353              	.LVL34:
 354              		.loc 1 91 0
 355 0000 3030     		adds	r0, r0, #48
 356              	.LVL35:
 357 0002 FFF7FEBF 		b	chOQWriteTimeout
 358              	.LVL36:
 359              		.cfi_endproc
 360              	.LFE264:
 361              		.size	writet, .-writet
 362 0006 00BF     		.section	.text.write,"ax",%progbits
 363              		.align	1
 364              		.p2align 4,,15
 365              		.syntax unified
 366              		.thumb
 367              		.thumb_func
 368              		.fpu softvfp
 369              		.type	write, %function
 370              	write:
 371              	.LFB258:
 372              		.loc 1 57 0
 373              		.cfi_startproc
 374              		@ args = 0, pretend = 0, frame = 0
 375              		@ frame_needed = 0, uses_anonymous_args = 0
 376              		@ link register save eliminated.
 377              	.LVL37:
 378              		.loc 1 59 0
 379 0000 3030     		adds	r0, r0, #48
 380              	.LVL38:
 381 0002 4FF0FF33 		mov	r3, #-1
 382 0006 FFF7FEBF 		b	chOQWriteTimeout
 383              	.LVL39:
 384              		.cfi_endproc
 385              	.LFE258:
 386              		.size	write, .-write
 387 000a 00BF     		.section	.text.gett,"ax",%progbits
 388              		.align	1
 389              		.p2align 4,,15
 390              		.syntax unified
 391              		.thumb
 392              		.thumb_func
 393              		.fpu softvfp
 394              		.type	gett, %function
 395              	gett:
 396              	.LFB263:
 397              		.loc 1 84 0
 398              		.cfi_startproc
 399              		@ args = 0, pretend = 0, frame = 0
ARM GAS  /tmp/ccyyeJCr.s 			page 8


 400              		@ frame_needed = 0, uses_anonymous_args = 0
 401              		@ link register save eliminated.
 402              	.LVL40:
 403              		.loc 1 86 0
 404 0000 0C30     		adds	r0, r0, #12
 405              	.LVL41:
 406 0002 FFF7FEBF 		b	chIQGetTimeout
 407              	.LVL42:
 408              		.cfi_endproc
 409              	.LFE263:
 410              		.size	gett, .-gett
 411 0006 00BF     		.section	.text.get,"ax",%progbits
 412              		.align	1
 413              		.p2align 4,,15
 414              		.syntax unified
 415              		.thumb
 416              		.thumb_func
 417              		.fpu softvfp
 418              		.type	get, %function
 419              	get:
 420              	.LFB261:
 421              		.loc 1 74 0
 422              		.cfi_startproc
 423              		@ args = 0, pretend = 0, frame = 0
 424              		@ frame_needed = 0, uses_anonymous_args = 0
 425              		@ link register save eliminated.
 426              	.LVL43:
 427              		.loc 1 76 0
 428 0000 0C30     		adds	r0, r0, #12
 429              	.LVL44:
 430 0002 4FF0FF31 		mov	r1, #-1
 431 0006 FFF7FEBF 		b	chIQGetTimeout
 432              	.LVL45:
 433              		.cfi_endproc
 434              	.LFE261:
 435              		.size	get, .-get
 436 000a 00BF     		.section	.text.putt,"ax",%progbits
 437              		.align	1
 438              		.p2align 4,,15
 439              		.syntax unified
 440              		.thumb
 441              		.thumb_func
 442              		.fpu softvfp
 443              		.type	putt, %function
 444              	putt:
 445              	.LFB262:
 446              		.loc 1 79 0
 447              		.cfi_startproc
 448              		@ args = 0, pretend = 0, frame = 0
 449              		@ frame_needed = 0, uses_anonymous_args = 0
 450              		@ link register save eliminated.
 451              	.LVL46:
 452              		.loc 1 81 0
 453 0000 3030     		adds	r0, r0, #48
 454              	.LVL47:
 455 0002 FFF7FEBF 		b	chOQPutTimeout
 456              	.LVL48:
ARM GAS  /tmp/ccyyeJCr.s 			page 9


 457              		.cfi_endproc
 458              	.LFE262:
 459              		.size	putt, .-putt
 460 0006 00BF     		.section	.text.put,"ax",%progbits
 461              		.align	1
 462              		.p2align 4,,15
 463              		.syntax unified
 464              		.thumb
 465              		.thumb_func
 466              		.fpu softvfp
 467              		.type	put, %function
 468              	put:
 469              	.LFB260:
 470              		.loc 1 69 0
 471              		.cfi_startproc
 472              		@ args = 0, pretend = 0, frame = 0
 473              		@ frame_needed = 0, uses_anonymous_args = 0
 474              		@ link register save eliminated.
 475              	.LVL49:
 476              		.loc 1 71 0
 477 0000 3030     		adds	r0, r0, #48
 478              	.LVL50:
 479 0002 4FF0FF32 		mov	r2, #-1
 480 0006 FFF7FEBF 		b	chOQPutTimeout
 481              	.LVL51:
 482              		.cfi_endproc
 483              	.LFE260:
 484              		.size	put, .-put
 485 000a 00BF     		.section	.text.sduInit,"ax",%progbits
 486              		.align	1
 487              		.p2align 4,,15
 488              		.global	sduInit
 489              		.syntax unified
 490              		.thumb
 491              		.thumb_func
 492              		.fpu softvfp
 493              		.type	sduInit, %function
 494              	sduInit:
 495              	.LFB268:
 496              		.loc 1 182 0
 497              		.cfi_startproc
 498              		@ args = 0, pretend = 0, frame = 0
 499              		@ frame_needed = 0, uses_anonymous_args = 0
 500              		@ link register save eliminated.
 501 0000 7047     		bx	lr
 502              		.cfi_endproc
 503              	.LFE268:
 504              		.size	sduInit, .-sduInit
 505 0002 00BF     		.section	.text.sduObjectInit,"ax",%progbits
 506              		.align	1
 507              		.p2align 4,,15
 508              		.global	sduObjectInit
 509              		.syntax unified
 510              		.thumb
 511              		.thumb_func
 512              		.fpu softvfp
 513              		.type	sduObjectInit, %function
ARM GAS  /tmp/ccyyeJCr.s 			page 10


 514              	sduObjectInit:
 515              	.LFB269:
 516              		.loc 1 194 0
 517              		.cfi_startproc
 518              		@ args = 0, pretend = 0, frame = 0
 519              		@ frame_needed = 0, uses_anonymous_args = 0
 520              	.LVL52:
 521              		.loc 1 194 0
 522 0000 10B5     		push	{r4, lr}
 523              		.cfi_def_cfa_offset 8
 524              		.cfi_offset 4, -8
 525              		.cfi_offset 14, -4
 526              		.loc 1 196 0
 527 0002 0346     		mov	r3, r0
 528 0004 0E4A     		ldr	r2, .L24
 529 0006 43F8042B 		str	r2, [r3], #4
 530              	.LVL53:
 531              		.loc 1 194 0
 532 000a 82B0     		sub	sp, sp, #8
 533              		.cfi_def_cfa_offset 16
 534              		.loc 1 198 0
 535 000c 0122     		movs	r2, #1
 536              		.loc 1 194 0
 537 000e 0446     		mov	r4, r0
 538              		.loc 1 199 0
 539 0010 0090     		str	r0, [sp]
 540 0012 00F15401 		add	r1, r0, #84
 541              	.LBB230:
 542              	.LBB231:
 543              	.LBB232:
 544              		.file 4 "/home/selim/working/ChibiOS/os/rt/include/chevents.h"
 545              		.loc 4 172 0
 546 0016 4360     		str	r3, [r0, #4]
 547              	.LVL54:
 548              	.LBE232:
 549              	.LBE231:
 550              	.LBE230:
 551              		.loc 1 198 0
 552 0018 0272     		strb	r2, [r0, #8]
 553              		.loc 1 199 0
 554 001a 0A4B     		ldr	r3, .L24+4
 555 001c 0C30     		adds	r0, r0, #12
 556              	.LVL55:
 557 001e 4FF48072 		mov	r2, #256
 558 0022 FFF7FEFF 		bl	chIQObjectInit
 559              	.LVL56:
 560              		.loc 1 200 0
 561 0026 0094     		str	r4, [sp]
 562 0028 04F5AA71 		add	r1, r4, #340
 563 002c 04F13000 		add	r0, r4, #48
 564 0030 054B     		ldr	r3, .L24+8
 565 0032 4FF48072 		mov	r2, #256
 566 0036 FFF7FEFF 		bl	chOQObjectInit
 567              	.LVL57:
 568              		.loc 1 201 0
 569 003a 02B0     		add	sp, sp, #8
 570              		.cfi_def_cfa_offset 8
ARM GAS  /tmp/ccyyeJCr.s 			page 11


 571              		@ sp needed
 572 003c 10BD     		pop	{r4, pc}
 573              	.LVL58:
 574              	.L25:
 575 003e 00BF     		.align	2
 576              	.L24:
 577 0040 00000000 		.word	.LANCHOR0
 578 0044 00000000 		.word	inotify
 579 0048 00000000 		.word	onotify
 580              		.cfi_endproc
 581              	.LFE269:
 582              		.size	sduObjectInit, .-sduObjectInit
 583              		.section	.text.sduStart,"ax",%progbits
 584              		.align	1
 585              		.p2align 4,,15
 586              		.global	sduStart
 587              		.syntax unified
 588              		.thumb
 589              		.thumb_func
 590              		.fpu softvfp
 591              		.type	sduStart, %function
 592              	sduStart:
 593              	.LFB270:
 594              		.loc 1 211 0
 595              		.cfi_startproc
 596              		@ args = 0, pretend = 0, frame = 0
 597              		@ frame_needed = 0, uses_anonymous_args = 0
 598              		@ link register save eliminated.
 599              	.LVL59:
 600              		.loc 1 212 0
 601 0000 0B68     		ldr	r3, [r1]
 602              	.LVL60:
 603              	.LBB233:
 604              	.LBB234:
 605              	.LBB235:
 606              	.LBB236:
 607              	.LBB237:
 608              		.loc 3 546 0
 609 0002 2022     		movs	r2, #32
 610              		.syntax unified
 611              	@ 546 "/home/selim/working/ChibiOS/os/ext/CMSIS/include/core_cmFunc.h" 1
 612 0004 82F31188 		MSR basepri, r2
 613              	@ 0 "" 2
 614              	.LVL61:
 615              		.thumb
 616              		.syntax unified
 617              	.LBE237:
 618              	.LBE236:
 619              	.LBE235:
 620              	.LBE234:
 621              	.LBE233:
 622              		.loc 1 219 0
 623 0008 0A79     		ldrb	r2, [r1, #4]	@ zero_extendqisi2
 624 000a 03EB8202 		add	r2, r3, r2, lsl #2
 625 000e 9061     		str	r0, [r2, #24]
 626              		.loc 1 220 0
 627 0010 4A79     		ldrb	r2, [r1, #5]	@ zero_extendqisi2
ARM GAS  /tmp/ccyyeJCr.s 			page 12


 628 0012 0932     		adds	r2, r2, #9
 629 0014 43F82200 		str	r0, [r3, r2, lsl #2]
 630              		.loc 1 221 0
 631 0018 8A79     		ldrb	r2, [r1, #6]	@ zero_extendqisi2
 632 001a 12B1     		cbz	r2, .L27
 633              		.loc 1 222 0
 634 001c 03EB8203 		add	r3, r3, r2, lsl #2
 635              	.LVL62:
 636 0020 9861     		str	r0, [r3, #24]
 637              	.L27:
 638              		.loc 1 225 0
 639 0022 0223     		movs	r3, #2
 640 0024 0372     		strb	r3, [r0, #8]
 641              	.LVL63:
 642              		.loc 1 224 0
 643 0026 C0F85412 		str	r1, [r0, #596]
 644              	.LBB238:
 645              	.LBB239:
 646              	.LBB240:
 647              	.LBB241:
 648              	.LBB242:
 649              	.LBB243:
 650              		.loc 3 546 0
 651 002a 0023     		movs	r3, #0
 652              		.syntax unified
 653              	@ 546 "/home/selim/working/ChibiOS/os/ext/CMSIS/include/core_cmFunc.h" 1
 654 002c 83F31188 		MSR basepri, r3
 655              	@ 0 "" 2
 656              	.LVL64:
 657              		.thumb
 658              		.syntax unified
 659 0030 7047     		bx	lr
 660              	.LBE243:
 661              	.LBE242:
 662              	.LBE241:
 663              	.LBE240:
 664              	.LBE239:
 665              	.LBE238:
 666              		.cfi_endproc
 667              	.LFE270:
 668              		.size	sduStart, .-sduStart
 669 0032 00BF     		.section	.text.sduStop,"ax",%progbits
 670              		.align	1
 671              		.p2align 4,,15
 672              		.global	sduStop
 673              		.syntax unified
 674              		.thumb
 675              		.thumb_func
 676              		.fpu softvfp
 677              		.type	sduStop, %function
 678              	sduStop:
 679              	.LFB271:
 680              		.loc 1 238 0
 681              		.cfi_startproc
 682              		@ args = 0, pretend = 0, frame = 0
 683              		@ frame_needed = 0, uses_anonymous_args = 0
 684              	.LVL65:
ARM GAS  /tmp/ccyyeJCr.s 			page 13


 685              		.loc 1 239 0
 686 0000 D0F85422 		ldr	r2, [r0, #596]
 687              		.loc 1 238 0
 688 0004 10B5     		push	{r4, lr}
 689              		.cfi_def_cfa_offset 8
 690              		.cfi_offset 4, -8
 691              		.cfi_offset 14, -4
 692              	.LBB244:
 693              	.LBB245:
 694              	.LBB246:
 695              	.LBB247:
 696              	.LBB248:
 697              		.loc 3 546 0
 698 0006 2023     		movs	r3, #32
 699              	.LBE248:
 700              	.LBE247:
 701              	.LBE246:
 702              	.LBE245:
 703              	.LBE244:
 704              		.loc 1 238 0
 705 0008 0446     		mov	r4, r0
 706              		.loc 1 239 0
 707 000a 1268     		ldr	r2, [r2]
 708              	.LVL66:
 709              	.LBB253:
 710              	.LBB252:
 711              	.LBB251:
 712              	.LBB250:
 713              	.LBB249:
 714              		.loc 3 546 0
 715              		.syntax unified
 716              	@ 546 "/home/selim/working/ChibiOS/os/ext/CMSIS/include/core_cmFunc.h" 1
 717 000c 83F31188 		MSR basepri, r3
 718              	@ 0 "" 2
 719              	.LVL67:
 720              		.thumb
 721              		.syntax unified
 722              	.LBE249:
 723              	.LBE250:
 724              	.LBE251:
 725              	.LBE252:
 726              	.LBE253:
 727              		.loc 1 248 0
 728 0010 D0F85412 		ldr	r1, [r0, #596]
 729 0014 0B79     		ldrb	r3, [r1, #4]	@ zero_extendqisi2
 730 0016 0533     		adds	r3, r3, #5
 731 0018 02EB8303 		add	r3, r2, r3, lsl #2
 732 001c 0020     		movs	r0, #0
 733              	.LVL68:
 734 001e 5860     		str	r0, [r3, #4]
 735              		.loc 1 249 0
 736 0020 4B79     		ldrb	r3, [r1, #5]	@ zero_extendqisi2
 737 0022 0933     		adds	r3, r3, #9
 738 0024 42F82300 		str	r0, [r2, r3, lsl #2]
 739              		.loc 1 250 0
 740 0028 8B79     		ldrb	r3, [r1, #6]	@ zero_extendqisi2
 741 002a 1BB1     		cbz	r3, .L32
ARM GAS  /tmp/ccyyeJCr.s 			page 14


 742              		.loc 1 251 0
 743 002c 0533     		adds	r3, r3, #5
 744 002e 02EB8302 		add	r2, r2, r3, lsl #2
 745              	.LVL69:
 746 0032 5060     		str	r0, [r2, #4]
 747              	.L32:
 748              		.loc 1 253 0
 749 0034 0123     		movs	r3, #1
 750 0036 2372     		strb	r3, [r4, #8]
 751              	.LVL70:
 752              	.LBB254:
 753              	.LBB255:
 754              		.file 5 "/home/selim/working/ChibiOS/os/hal/osal/rt/osal.h"
 755              		.loc 5 798 0
 756 0038 0221     		movs	r1, #2
 757 003a 201D     		adds	r0, r4, #4
 758              	.LVL71:
 759 003c FFF7FEFF 		bl	chEvtBroadcastFlagsI
 760              	.LVL72:
 761              	.LBE255:
 762              	.LBE254:
 763              		.loc 1 257 0
 764 0040 04F10C00 		add	r0, r4, #12
 765 0044 FFF7FEFF 		bl	chIQResetI
 766              	.LVL73:
 767              		.loc 1 258 0
 768 0048 04F13000 		add	r0, r4, #48
 769 004c FFF7FEFF 		bl	chIQResetI
 770              	.LVL74:
 771              	.LBB256:
 772              	.LBB257:
 773              		.loc 5 554 0
 774 0050 FFF7FEFF 		bl	chSchRescheduleS
 775              	.LVL75:
 776              	.LBE257:
 777              	.LBE256:
 778              	.LBB258:
 779              	.LBB259:
 780              	.LBB260:
 781              	.LBB261:
 782              	.LBB262:
 783              	.LBB263:
 784              		.loc 3 546 0
 785 0054 0023     		movs	r3, #0
 786              		.syntax unified
 787              	@ 546 "/home/selim/working/ChibiOS/os/ext/CMSIS/include/core_cmFunc.h" 1
 788 0056 83F31188 		MSR basepri, r3
 789              	@ 0 "" 2
 790              	.LVL76:
 791              		.thumb
 792              		.syntax unified
 793 005a 10BD     		pop	{r4, pc}
 794              	.LBE263:
 795              	.LBE262:
 796              	.LBE261:
 797              	.LBE260:
 798              	.LBE259:
ARM GAS  /tmp/ccyyeJCr.s 			page 15


 799              	.LBE258:
 800              		.cfi_endproc
 801              	.LFE271:
 802              		.size	sduStop, .-sduStop
 803              		.section	.text.sduConfigureHookI,"ax",%progbits
 804              		.align	1
 805              		.p2align 4,,15
 806              		.global	sduConfigureHookI
 807              		.syntax unified
 808              		.thumb
 809              		.thumb_func
 810              		.fpu softvfp
 811              		.type	sduConfigureHookI, %function
 812              	sduConfigureHookI:
 813              	.LFB272:
 814              		.loc 1 270 0
 815              		.cfi_startproc
 816              		@ args = 0, pretend = 0, frame = 0
 817              		@ frame_needed = 0, uses_anonymous_args = 0
 818              	.LVL77:
 819 0000 70B5     		push	{r4, r5, r6, lr}
 820              		.cfi_def_cfa_offset 16
 821              		.cfi_offset 4, -16
 822              		.cfi_offset 5, -12
 823              		.cfi_offset 6, -8
 824              		.cfi_offset 14, -4
 825              		.loc 1 271 0
 826 0002 D0F85432 		ldr	r3, [r0, #596]
 827              		.loc 1 273 0
 828 0006 00F10C06 		add	r6, r0, #12
 829              		.loc 1 270 0
 830 000a 0446     		mov	r4, r0
 831              		.loc 1 273 0
 832 000c 3046     		mov	r0, r6
 833              	.LVL78:
 834              		.loc 1 271 0
 835 000e 1D68     		ldr	r5, [r3]
 836              	.LVL79:
 837              		.loc 1 273 0
 838 0010 FFF7FEFF 		bl	chIQResetI
 839              	.LVL80:
 840              		.loc 1 274 0
 841 0014 04F13000 		add	r0, r4, #48
 842 0018 FFF7FEFF 		bl	chOQResetI
 843              	.LVL81:
 844              	.LBB264:
 845              	.LBB265:
 846              		.loc 5 798 0
 847 001c 201D     		adds	r0, r4, #4
 848              	.LVL82:
 849 001e 0121     		movs	r1, #1
 850 0020 FFF7FEFF 		bl	chEvtBroadcastFlagsI
 851              	.LVL83:
 852              	.LBE265:
 853              	.LBE264:
 854              		.loc 1 278 0
 855 0024 D4F85432 		ldr	r3, [r4, #596]
ARM GAS  /tmp/ccyyeJCr.s 			page 16


 856 0028 5979     		ldrb	r1, [r3, #5]	@ zero_extendqisi2
 857              		.loc 1 279 0
 858 002a 05EB8103 		add	r3, r5, r1, lsl #2
 859              		.loc 1 278 0
 860 002e 2846     		mov	r0, r5
 861              		.loc 1 279 0
 862 0030 DB68     		ldr	r3, [r3, #12]
 863              		.loc 1 278 0
 864 0032 3246     		mov	r2, r6
 865 0034 5B8A     		ldrh	r3, [r3, #18]
 866 0036 FFF7FEFF 		bl	usbPrepareQueuedReceive
 867              	.LVL84:
 868              		.loc 1 280 0
 869 003a D4F85432 		ldr	r3, [r4, #596]
 870 003e 2846     		mov	r0, r5
 871 0040 5979     		ldrb	r1, [r3, #5]	@ zero_extendqisi2
 872              		.loc 1 281 0
 873 0042 BDE87040 		pop	{r4, r5, r6, lr}
 874              		.cfi_restore 14
 875              		.cfi_restore 6
 876              		.cfi_restore 5
 877              		.cfi_restore 4
 878              		.cfi_def_cfa_offset 0
 879              	.LVL85:
 880              		.loc 1 280 0
 881 0046 FFF7FEBF 		b	usbStartReceiveI
 882              	.LVL86:
 883              		.cfi_endproc
 884              	.LFE272:
 885              		.size	sduConfigureHookI, .-sduConfigureHookI
 886 004a 00BF     		.section	.text.sduRequestsHook,"ax",%progbits
 887              		.align	1
 888              		.p2align 4,,15
 889              		.global	sduRequestsHook
 890              		.syntax unified
 891              		.thumb
 892              		.thumb_func
 893              		.fpu softvfp
 894              		.type	sduRequestsHook, %function
 895              	sduRequestsHook:
 896              	.LFB273:
 897              		.loc 1 298 0
 898              		.cfi_startproc
 899              		@ args = 0, pretend = 0, frame = 0
 900              		@ frame_needed = 0, uses_anonymous_args = 0
 901              		@ link register save eliminated.
 902              	.LVL87:
 903              		.loc 1 300 0
 904 0000 90F84430 		ldrb	r3, [r0, #68]	@ zero_extendqisi2
 905 0004 03F06003 		and	r3, r3, #96
 906 0008 202B     		cmp	r3, #32
 907 000a 01D0     		beq	.L47
 908              	.L46:
 909              		.loc 1 313 0
 910 000c 0020     		movs	r0, #0
 911              	.LVL88:
 912              		.loc 1 317 0
ARM GAS  /tmp/ccyyeJCr.s 			page 17


 913 000e 7047     		bx	lr
 914              	.LVL89:
 915              	.L47:
 916              		.loc 1 301 0
 917 0010 90F84530 		ldrb	r3, [r0, #69]	@ zero_extendqisi2
 918 0014 212B     		cmp	r3, #33
 919 0016 03D0     		beq	.L43
 920 0018 222B     		cmp	r3, #34
 921 001a 09D0     		beq	.L42
 922 001c 202B     		cmp	r3, #32
 923 001e F5D1     		bne	.L46
 924              	.L43:
 925              		.loc 1 306 0
 926 0020 064B     		ldr	r3, .L48
 927 0022 8363     		str	r3, [r0, #56]
 928 0024 0722     		movs	r2, #7
 929 0026 0023     		movs	r3, #0
 930 0028 C263     		str	r2, [r0, #60]
 931 002a 0364     		str	r3, [r0, #64]
 932              		.loc 1 307 0
 933 002c 0120     		movs	r0, #1
 934              	.LVL90:
 935 002e 7047     		bx	lr
 936              	.LVL91:
 937              	.L42:
 938              		.loc 1 310 0
 939 0030 0023     		movs	r3, #0
 940 0032 8363     		str	r3, [r0, #56]
 941 0034 C363     		str	r3, [r0, #60]
 942 0036 0364     		str	r3, [r0, #64]
 943              		.loc 1 311 0
 944 0038 0120     		movs	r0, #1
 945              	.LVL92:
 946 003a 7047     		bx	lr
 947              	.L49:
 948              		.align	2
 949              	.L48:
 950 003c 00000000 		.word	.LANCHOR1
 951              		.cfi_endproc
 952              	.LFE273:
 953              		.size	sduRequestsHook, .-sduRequestsHook
 954              		.section	.text.sduDataTransmitted,"ax",%progbits
 955              		.align	1
 956              		.p2align 4,,15
 957              		.global	sduDataTransmitted
 958              		.syntax unified
 959              		.thumb
 960              		.thumb_func
 961              		.fpu softvfp
 962              		.type	sduDataTransmitted, %function
 963              	sduDataTransmitted:
 964              	.LFB274:
 965              		.loc 1 327 0
 966              		.cfi_startproc
 967              		@ args = 0, pretend = 0, frame = 0
 968              		@ frame_needed = 0, uses_anonymous_args = 0
 969              	.LVL93:
ARM GAS  /tmp/ccyyeJCr.s 			page 18


 970 0000 F8B5     		push	{r3, r4, r5, r6, r7, lr}
 971              		.cfi_def_cfa_offset 24
 972              		.cfi_offset 3, -24
 973              		.cfi_offset 4, -20
 974              		.cfi_offset 5, -16
 975              		.cfi_offset 6, -12
 976              		.cfi_offset 7, -8
 977              		.cfi_offset 14, -4
 978              		.loc 1 329 0
 979 0002 00EB8103 		add	r3, r0, r1, lsl #2
 980 0006 9C69     		ldr	r4, [r3, #24]
 981              	.LVL94:
 982              		.loc 1 331 0
 983 0008 BCB1     		cbz	r4, .L50
 984              	.LVL95:
 985 000a 0E46     		mov	r6, r1
 986 000c 0546     		mov	r5, r0
 987              	.LBB266:
 988              	.LBB267:
 989              	.LBB268:
 990              	.LBB269:
 991              	.LBB270:
 992              	.LBB271:
 993              		.loc 3 546 0
 994 000e 2027     		movs	r7, #32
 995              		.syntax unified
 996              	@ 546 "/home/selim/working/ChibiOS/os/ext/CMSIS/include/core_cmFunc.h" 1
 997 0010 87F31188 		MSR basepri, r7
 998              	@ 0 "" 2
 999              	.LVL96:
 1000              		.thumb
 1001              		.syntax unified
 1002              	.LBE271:
 1003              	.LBE270:
 1004              	.LBE269:
 1005              	.LBE268:
 1006              	.LBE267:
 1007              	.LBE266:
 1008              	.LBB272:
 1009              	.LBB273:
 1010              		.loc 5 798 0
 1011 0014 0821     		movs	r1, #8
 1012              	.LVL97:
 1013 0016 201D     		adds	r0, r4, #4
 1014              	.LVL98:
 1015 0018 FFF7FEFF 		bl	chEvtBroadcastFlagsI
 1016              	.LVL99:
 1017              	.LBE273:
 1018              	.LBE272:
 1019              	.LBB274:
 1020              	.LBB275:
 1021              		.loc 2 357 0
 1022 001c 236C     		ldr	r3, [r4, #64]
 1023 001e E16B     		ldr	r1, [r4, #60]
 1024 0020 A26B     		ldr	r2, [r4, #56]
 1025 0022 5B1A     		subs	r3, r3, r1
 1026              	.LBE275:
ARM GAS  /tmp/ccyyeJCr.s 			page 19


 1027              	.LBE274:
 1028              		.loc 1 339 0
 1029 0024 9B1A     		subs	r3, r3, r2
 1030 0026 10D1     		bne	.L62
 1031              		.loc 1 349 0
 1032 0028 05EB8603 		add	r3, r5, r6, lsl #2
 1033 002c DB68     		ldr	r3, [r3, #12]
 1034 002e 5A69     		ldr	r2, [r3, #20]
 1035 0030 5268     		ldr	r2, [r2, #4]
 1036 0032 1AB9     		cbnz	r2, .L63
 1037              	.L53:
 1038              	.LVL100:
 1039              	.LBB276:
 1040              	.LBB277:
 1041              	.LBB278:
 1042              	.LBB279:
 1043              	.LBB280:
 1044              	.LBB281:
 1045              		.loc 3 546 0
 1046 0034 0023     		movs	r3, #0
 1047              		.syntax unified
 1048              	@ 546 "/home/selim/working/ChibiOS/os/ext/CMSIS/include/core_cmFunc.h" 1
 1049 0036 83F31188 		MSR basepri, r3
 1050              	@ 0 "" 2
 1051              	.LVL101:
 1052              		.thumb
 1053              		.syntax unified
 1054              	.L50:
 1055 003a F8BD     		pop	{r3, r4, r5, r6, r7, pc}
 1056              	.LVL102:
 1057              	.L63:
 1058              	.LBE281:
 1059              	.LBE280:
 1060              	.LBE279:
 1061              	.LBE278:
 1062              	.LBE277:
 1063              	.LBE276:
 1064              		.loc 1 351 0 discriminator 1
 1065 003c 1B8A     		ldrh	r3, [r3, #16]
 1066 003e 013B     		subs	r3, r3, #1
 1067              		.loc 1 349 0 discriminator 1
 1068 0040 1340     		ands	r3, r3, r2
 1069 0042 F7D1     		bne	.L53
 1070              	.LVL103:
 1071              	.LBB282:
 1072              	.LBB283:
 1073              	.LBB284:
 1074              	.LBB285:
 1075              	.LBB286:
 1076              	.LBB287:
 1077              		.loc 3 546 0
 1078              		.syntax unified
 1079              	@ 546 "/home/selim/working/ChibiOS/os/ext/CMSIS/include/core_cmFunc.h" 1
 1080 0044 83F31188 		MSR basepri, r3
 1081              	@ 0 "" 2
 1082              		.thumb
 1083              		.syntax unified
ARM GAS  /tmp/ccyyeJCr.s 			page 20


 1084 0048 02E0     		b	.L61
 1085              	.LVL104:
 1086              	.L62:
 1087              	.LBE287:
 1088              	.LBE286:
 1089              	.LBE285:
 1090              	.LBE284:
 1091              	.LBE283:
 1092              	.LBE282:
 1093              	.LBB288:
 1094              	.LBB289:
 1095              	.LBB290:
 1096              	.LBB291:
 1097              	.LBB292:
 1098              	.LBB293:
 1099 004a 0022     		movs	r2, #0
 1100              		.syntax unified
 1101              	@ 546 "/home/selim/working/ChibiOS/os/ext/CMSIS/include/core_cmFunc.h" 1
 1102 004c 82F31188 		MSR basepri, r2
 1103              	@ 0 "" 2
 1104              	.LVL105:
 1105              		.thumb
 1106              		.syntax unified
 1107              	.L61:
 1108              	.LBE293:
 1109              	.LBE292:
 1110              	.LBE291:
 1111              	.LBE290:
 1112              	.LBE289:
 1113              	.LBE288:
 1114              		.loc 1 358 0
 1115 0050 04F13002 		add	r2, r4, #48
 1116 0054 3146     		mov	r1, r6
 1117 0056 2846     		mov	r0, r5
 1118 0058 FFF7FEFF 		bl	usbPrepareQueuedTransmit
 1119              	.LVL106:
 1120              	.LBB294:
 1121              	.LBB295:
 1122              	.LBB296:
 1123              	.LBB297:
 1124              	.LBB298:
 1125              	.LBB299:
 1126              		.loc 3 546 0
 1127              		.syntax unified
 1128              	@ 546 "/home/selim/working/ChibiOS/os/ext/CMSIS/include/core_cmFunc.h" 1
 1129 005c 87F31188 		MSR basepri, r7
 1130              	@ 0 "" 2
 1131              	.LVL107:
 1132              		.thumb
 1133              		.syntax unified
 1134              	.LBE299:
 1135              	.LBE298:
 1136              	.LBE297:
 1137              	.LBE296:
 1138              	.LBE295:
 1139              	.LBE294:
 1140              		.loc 1 361 0
ARM GAS  /tmp/ccyyeJCr.s 			page 21


 1141 0060 3146     		mov	r1, r6
 1142 0062 2846     		mov	r0, r5
 1143 0064 FFF7FEFF 		bl	usbStartTransmitI
 1144              	.LVL108:
 1145 0068 E4E7     		b	.L53
 1146              		.cfi_endproc
 1147              	.LFE274:
 1148              		.size	sduDataTransmitted, .-sduDataTransmitted
 1149 006a 00BF     		.section	.text.sduDataReceived,"ax",%progbits
 1150              		.align	1
 1151              		.p2align 4,,15
 1152              		.global	sduDataReceived
 1153              		.syntax unified
 1154              		.thumb
 1155              		.thumb_func
 1156              		.fpu softvfp
 1157              		.type	sduDataReceived, %function
 1158              	sduDataReceived:
 1159              	.LFB275:
 1160              		.loc 1 376 0
 1161              		.cfi_startproc
 1162              		@ args = 0, pretend = 0, frame = 0
 1163              		@ frame_needed = 0, uses_anonymous_args = 0
 1164              	.LVL109:
 1165 0000 2DE9F843 		push	{r3, r4, r5, r6, r7, r8, r9, lr}
 1166              		.cfi_def_cfa_offset 32
 1167              		.cfi_offset 3, -32
 1168              		.cfi_offset 4, -28
 1169              		.cfi_offset 5, -24
 1170              		.cfi_offset 6, -20
 1171              		.cfi_offset 7, -16
 1172              		.cfi_offset 8, -12
 1173              		.cfi_offset 9, -8
 1174              		.cfi_offset 14, -4
 1175              		.loc 1 378 0
 1176 0004 01F10903 		add	r3, r1, #9
 1177 0008 50F82360 		ldr	r6, [r0, r3, lsl #2]
 1178              	.LVL110:
 1179              		.loc 1 380 0
 1180 000c BEB1     		cbz	r6, .L64
 1181              	.LVL111:
 1182 000e 8046     		mov	r8, r0
 1183 0010 0F46     		mov	r7, r1
 1184              	.LBB300:
 1185              	.LBB301:
 1186              	.LBB302:
 1187              	.LBB303:
 1188              	.LBB304:
 1189              	.LBB305:
 1190              		.loc 3 546 0
 1191 0012 4FF02009 		mov	r9, #32
 1192              		.syntax unified
 1193              	@ 546 "/home/selim/working/ChibiOS/os/ext/CMSIS/include/core_cmFunc.h" 1
 1194 0016 89F31188 		MSR basepri, r9
 1195              	@ 0 "" 2
 1196              	.LVL112:
 1197              		.thumb
ARM GAS  /tmp/ccyyeJCr.s 			page 22


 1198              		.syntax unified
 1199              	.LBE305:
 1200              	.LBE304:
 1201              	.LBE303:
 1202              	.LBE302:
 1203              	.LBE301:
 1204              	.LBE300:
 1205              	.LBB306:
 1206              	.LBB307:
 1207              		.loc 5 798 0
 1208 001a 0421     		movs	r1, #4
 1209              	.LVL113:
 1210 001c 7018     		adds	r0, r6, r1
 1211              	.LVL114:
 1212 001e FFF7FEFF 		bl	chEvtBroadcastFlagsI
 1213              	.LVL115:
 1214              	.LBE307:
 1215              	.LBE306:
 1216              		.loc 1 389 0
 1217 0022 08EB8703 		add	r3, r8, r7, lsl #2
 1218              	.LBB308:
 1219              	.LBB309:
 1220              		.loc 2 290 0
 1221 0026 F569     		ldr	r5, [r6, #28]
 1222              	.LBE309:
 1223              	.LBE308:
 1224              		.loc 1 389 0
 1225 0028 DB68     		ldr	r3, [r3, #12]
 1226              	.LBB312:
 1227              	.LBB310:
 1228              		.loc 2 290 0
 1229 002a B469     		ldr	r4, [r6, #24]
 1230 002c 7269     		ldr	r2, [r6, #20]
 1231              	.LBE310:
 1232              	.LBE312:
 1233              		.loc 1 389 0
 1234 002e 5B8A     		ldrh	r3, [r3, #18]
 1235              	.LVL116:
 1236              	.LBB313:
 1237              	.LBB311:
 1238              		.loc 2 290 0
 1239 0030 2C1B     		subs	r4, r5, r4
 1240 0032 A41A     		subs	r4, r4, r2
 1241              	.LVL117:
 1242              	.LBE311:
 1243              	.LBE313:
 1244              		.loc 1 390 0
 1245 0034 A342     		cmp	r3, r4
 1246 0036 04D9     		bls	.L71
 1247              	.LVL118:
 1248              	.L66:
 1249              	.LBB314:
 1250              	.LBB315:
 1251              	.LBB316:
 1252              	.LBB317:
 1253              	.LBB318:
 1254              	.LBB319:
ARM GAS  /tmp/ccyyeJCr.s 			page 23


 1255              		.loc 3 546 0
 1256 0038 0023     		movs	r3, #0
 1257              		.syntax unified
 1258              	@ 546 "/home/selim/working/ChibiOS/os/ext/CMSIS/include/core_cmFunc.h" 1
 1259 003a 83F31188 		MSR basepri, r3
 1260              	@ 0 "" 2
 1261              	.LVL119:
 1262              		.thumb
 1263              		.syntax unified
 1264              	.L64:
 1265 003e BDE8F883 		pop	{r3, r4, r5, r6, r7, r8, r9, pc}
 1266              	.LVL120:
 1267              	.L71:
 1268              	.LBE319:
 1269              	.LBE318:
 1270              	.LBE317:
 1271              	.LBE316:
 1272              	.LBE315:
 1273              	.LBE314:
 1274              	.LBB320:
 1275              	.LBB321:
 1276              	.LBB322:
 1277              	.LBB323:
 1278              	.LBB324:
 1279              	.LBB325:
 1280 0042 0022     		movs	r2, #0
 1281              		.syntax unified
 1282              	@ 546 "/home/selim/working/ChibiOS/os/ext/CMSIS/include/core_cmFunc.h" 1
 1283 0044 82F31188 		MSR basepri, r2
 1284              	@ 0 "" 2
 1285              	.LVL121:
 1286              		.thumb
 1287              		.syntax unified
 1288              	.LBE325:
 1289              	.LBE324:
 1290              	.LBE323:
 1291              	.LBE322:
 1292              	.LBE321:
 1293              	.LBE320:
 1294              		.loc 1 395 0
 1295 0048 B4FBF3F4 		udiv	r4, r4, r3
 1296              	.LVL122:
 1297              		.loc 1 396 0
 1298 004c 06F10C02 		add	r2, r6, #12
 1299 0050 03FB04F3 		mul	r3, r3, r4
 1300              	.LVL123:
 1301 0054 3946     		mov	r1, r7
 1302 0056 4046     		mov	r0, r8
 1303 0058 FFF7FEFF 		bl	usbPrepareQueuedReceive
 1304              	.LVL124:
 1305              	.LBB326:
 1306              	.LBB327:
 1307              	.LBB328:
 1308              	.LBB329:
 1309              	.LBB330:
 1310              	.LBB331:
 1311              		.loc 3 546 0
ARM GAS  /tmp/ccyyeJCr.s 			page 24


 1312              		.syntax unified
 1313              	@ 546 "/home/selim/working/ChibiOS/os/ext/CMSIS/include/core_cmFunc.h" 1
 1314 005c 89F31188 		MSR basepri, r9
 1315              	@ 0 "" 2
 1316              	.LVL125:
 1317              		.thumb
 1318              		.syntax unified
 1319              	.LBE331:
 1320              	.LBE330:
 1321              	.LBE329:
 1322              	.LBE328:
 1323              	.LBE327:
 1324              	.LBE326:
 1325              		.loc 1 399 0
 1326 0060 3946     		mov	r1, r7
 1327 0062 4046     		mov	r0, r8
 1328 0064 FFF7FEFF 		bl	usbStartReceiveI
 1329              	.LVL126:
 1330 0068 E6E7     		b	.L66
 1331              		.cfi_endproc
 1332              	.LFE275:
 1333              		.size	sduDataReceived, .-sduDataReceived
 1334 006a 00BF     		.section	.text.sduInterruptTransmitted,"ax",%progbits
 1335              		.align	1
 1336              		.p2align 4,,15
 1337              		.global	sduInterruptTransmitted
 1338              		.syntax unified
 1339              		.thumb
 1340              		.thumb_func
 1341              		.fpu softvfp
 1342              		.type	sduInterruptTransmitted, %function
 1343              	sduInterruptTransmitted:
 1344              	.LFB276:
 1345              		.loc 1 412 0
 1346              		.cfi_startproc
 1347              		@ args = 0, pretend = 0, frame = 0
 1348              		@ frame_needed = 0, uses_anonymous_args = 0
 1349              		@ link register save eliminated.
 1350              	.LVL127:
 1351 0000 7047     		bx	lr
 1352              		.cfi_endproc
 1353              	.LFE276:
 1354              		.size	sduInterruptTransmitted, .-sduInterruptTransmitted
 1355 0002 00BF     		.section	.data.linecoding,"aw",%progbits
 1356              		.align	2
 1357              		.set	.LANCHOR1,. + 0
 1358              		.type	linecoding, %object
 1359              		.size	linecoding, 7
 1360              	linecoding:
 1361 0000 00       		.byte	0
 1362 0001 96       		.byte	-106
 1363 0002 00       		.byte	0
 1364 0003 00       		.byte	0
 1365 0004 00       		.byte	0
 1366 0005 00       		.byte	0
 1367 0006 08       		.byte	8
 1368              		.section	.rodata.vmt,"a",%progbits
ARM GAS  /tmp/ccyyeJCr.s 			page 25


 1369              		.align	2
 1370              		.set	.LANCHOR0,. + 0
 1371              		.type	vmt, %object
 1372              		.size	vmt, 32
 1373              	vmt:
 1374 0000 00000000 		.word	write
 1375 0004 00000000 		.word	read
 1376 0008 00000000 		.word	put
 1377 000c 00000000 		.word	get
 1378 0010 00000000 		.word	putt
 1379 0014 00000000 		.word	gett
 1380 0018 00000000 		.word	writet
 1381 001c 00000000 		.word	readt
 1382              		.text
 1383              	.Letext0:
 1384              		.file 6 "/usr/lib/gcc/arm-none-eabi/6.2.1/include/stddef.h"
 1385              		.file 7 "/usr/arm-none-eabi/include/machine/_default_types.h"
 1386              		.file 8 "/usr/arm-none-eabi/include/sys/_stdint.h"
 1387              		.file 9 "/home/selim/working/ChibiOS/os/rt/ports/ARMCMx/compilers/GCC/chtypes.h"
 1388              		.file 10 "/home/selim/working/ChibiOS/os/rt/include/chsystypes.h"
 1389              		.file 11 "/home/selim/working/ChibiOS/os/rt/include/chschd.h"
 1390              		.file 12 "/home/selim/working/ChibiOS/os/ext/CMSIS/include/core_cm4.h"
 1391              		.file 13 "/home/selim/working/ChibiOS/os/ext/CMSIS/ST/system_stm32f4xx.h"
 1392              		.file 14 "/home/selim/working/ChibiOS/os/ext/CMSIS/ST/stm32f407xx.h"
 1393              		.file 15 "/home/selim/working/ChibiOS/os/rt/ports/ARMCMx/chcore.h"
 1394              		.file 16 "/home/selim/working/ChibiOS/os/rt/ports/ARMCMx/chcore_v7m.h"
 1395              		.file 17 "/home/selim/working/ChibiOS/os/hal/ports/STM32/LLD/TIMv1/stm32_tim.h"
 1396              		.file 18 "/home/selim/working/ChibiOS/os/rt/include/chtm.h"
 1397              		.file 19 "/home/selim/working/ChibiOS/os/rt/include/chsem.h"
 1398              		.file 20 "/home/selim/working/ChibiOS/os/rt/include/chmtx.h"
 1399              		.file 21 "/home/selim/working/ChibiOS/os/rt/include/chregistry.h"
 1400              		.file 22 "/home/selim/working/ChibiOS/os/hal/ports/STM32/STM32F4xx/stm32_dma.h"
 1401              		.file 23 "/home/selim/working/ChibiOS/os/hal/ports/STM32/LLD/GPIOv2/pal_lld.h"
 1402              		.file 24 "/home/selim/working/ChibiOS/os/hal/include/adc.h"
 1403              		.file 25 "/home/selim/working/ChibiOS/os/hal/ports/STM32/STM32F4xx/adc_lld.h"
 1404              		.file 26 "/home/selim/working/ChibiOS/os/hal/include/gpt.h"
 1405              		.file 27 "/home/selim/working/ChibiOS/os/hal/ports/STM32/LLD/TIMv1/gpt_lld.h"
 1406              		.file 28 "/home/selim/working/ChibiOS/os/hal/include/pwm.h"
 1407              		.file 29 "/home/selim/working/ChibiOS/os/hal/ports/STM32/LLD/TIMv1/pwm_lld.h"
 1408              		.file 30 "/home/selim/working/ChibiOS/os/hal/include/serial.h"
 1409              		.file 31 "/home/selim/working/ChibiOS/os/hal/ports/STM32/LLD/USARTv1/serial_lld.h"
 1410              		.file 32 "/home/selim/working/ChibiOS/os/hal/include/spi.h"
 1411              		.file 33 "/home/selim/working/ChibiOS/os/hal/ports/STM32/LLD/SPIv1/spi_lld.h"
 1412              		.file 34 "/home/selim/working/ChibiOS/os/hal/include/usb.h"
 1413              		.file 35 "/home/selim/working/ChibiOS/os/hal/ports/STM32/LLD/OTGv1/usb_lld.h"
 1414              		.file 36 "/home/selim/working/ChibiOS/os/hal/ports/STM32/LLD/OTGv1/stm32_otg.h"
 1415              		.file 37 "/home/selim/working/ChibiOS/os/hal/include/serial_usb.h"
 1416              		.file 38 "/home/selim/working/ChibiOS/os/rt/include/chsys.h"