ARM GAS  /tmp/ccDH1pgj.s 			page 1


   1              		.cpu cortex-m4
   2              		.eabi_attribute 20, 1
   3              		.eabi_attribute 21, 1
   4              		.eabi_attribute 23, 3
   5              		.eabi_attribute 24, 1
   6              		.eabi_attribute 25, 1
   7              		.eabi_attribute 26, 1
   8              		.eabi_attribute 30, 2
   9              		.eabi_attribute 34, 1
  10              		.eabi_attribute 18, 4
  11              		.file	"serial.c"
  12              		.text
  13              	.Ltext0:
  14              		.cfi_sections	.debug_frame
  15              		.section	.text.readt,"ax",%progbits
  16              		.align	1
  17              		.p2align 4,,15
  18              		.syntax unified
  19              		.thumb
  20              		.thumb_func
  21              		.fpu softvfp
  22              		.type	readt, %function
  23              	readt:
  24              	.LFB265:
  25              		.file 1 "/home/selim/working/ChibiOS/os/hal/src/serial.c"
  26              		.loc 1 87 0
  27              		.cfi_startproc
  28              		@ args = 0, pretend = 0, frame = 0
  29              		@ frame_needed = 0, uses_anonymous_args = 0
  30              		@ link register save eliminated.
  31              	.LVL0:
  32              		.loc 1 89 0
  33 0000 0C30     		adds	r0, r0, #12
  34              	.LVL1:
  35 0002 FFF7FEBF 		b	chIQReadTimeout
  36              	.LVL2:
  37              		.cfi_endproc
  38              	.LFE265:
  39              		.size	readt, .-readt
  40 0006 00BF     		.section	.text.read,"ax",%progbits
  41              		.align	1
  42              		.p2align 4,,15
  43              		.syntax unified
  44              		.thumb
  45              		.thumb_func
  46              		.fpu softvfp
  47              		.type	read, %function
  48              	read:
  49              	.LFB259:
  50              		.loc 1 56 0
  51              		.cfi_startproc
  52              		@ args = 0, pretend = 0, frame = 0
  53              		@ frame_needed = 0, uses_anonymous_args = 0
  54              		@ link register save eliminated.
  55              	.LVL3:
  56              		.loc 1 58 0
  57 0000 0C30     		adds	r0, r0, #12
ARM GAS  /tmp/ccDH1pgj.s 			page 2


  58              	.LVL4:
  59 0002 4FF0FF33 		mov	r3, #-1
  60 0006 FFF7FEBF 		b	chIQReadTimeout
  61              	.LVL5:
  62              		.cfi_endproc
  63              	.LFE259:
  64              		.size	read, .-read
  65 000a 00BF     		.section	.text.writet,"ax",%progbits
  66              		.align	1
  67              		.p2align 4,,15
  68              		.syntax unified
  69              		.thumb
  70              		.thumb_func
  71              		.fpu softvfp
  72              		.type	writet, %function
  73              	writet:
  74              	.LFB264:
  75              		.loc 1 82 0
  76              		.cfi_startproc
  77              		@ args = 0, pretend = 0, frame = 0
  78              		@ frame_needed = 0, uses_anonymous_args = 0
  79              		@ link register save eliminated.
  80              	.LVL6:
  81              		.loc 1 84 0
  82 0000 3030     		adds	r0, r0, #48
  83              	.LVL7:
  84 0002 FFF7FEBF 		b	chOQWriteTimeout
  85              	.LVL8:
  86              		.cfi_endproc
  87              	.LFE264:
  88              		.size	writet, .-writet
  89 0006 00BF     		.section	.text.write,"ax",%progbits
  90              		.align	1
  91              		.p2align 4,,15
  92              		.syntax unified
  93              		.thumb
  94              		.thumb_func
  95              		.fpu softvfp
  96              		.type	write, %function
  97              	write:
  98              	.LFB258:
  99              		.loc 1 50 0
 100              		.cfi_startproc
 101              		@ args = 0, pretend = 0, frame = 0
 102              		@ frame_needed = 0, uses_anonymous_args = 0
 103              		@ link register save eliminated.
 104              	.LVL9:
 105              		.loc 1 52 0
 106 0000 3030     		adds	r0, r0, #48
 107              	.LVL10:
 108 0002 4FF0FF33 		mov	r3, #-1
 109 0006 FFF7FEBF 		b	chOQWriteTimeout
 110              	.LVL11:
 111              		.cfi_endproc
 112              	.LFE258:
 113              		.size	write, .-write
 114 000a 00BF     		.section	.text.gett,"ax",%progbits
ARM GAS  /tmp/ccDH1pgj.s 			page 3


 115              		.align	1
 116              		.p2align 4,,15
 117              		.syntax unified
 118              		.thumb
 119              		.thumb_func
 120              		.fpu softvfp
 121              		.type	gett, %function
 122              	gett:
 123              	.LFB263:
 124              		.loc 1 77 0
 125              		.cfi_startproc
 126              		@ args = 0, pretend = 0, frame = 0
 127              		@ frame_needed = 0, uses_anonymous_args = 0
 128              		@ link register save eliminated.
 129              	.LVL12:
 130              		.loc 1 79 0
 131 0000 0C30     		adds	r0, r0, #12
 132              	.LVL13:
 133 0002 FFF7FEBF 		b	chIQGetTimeout
 134              	.LVL14:
 135              		.cfi_endproc
 136              	.LFE263:
 137              		.size	gett, .-gett
 138 0006 00BF     		.section	.text.get,"ax",%progbits
 139              		.align	1
 140              		.p2align 4,,15
 141              		.syntax unified
 142              		.thumb
 143              		.thumb_func
 144              		.fpu softvfp
 145              		.type	get, %function
 146              	get:
 147              	.LFB261:
 148              		.loc 1 67 0
 149              		.cfi_startproc
 150              		@ args = 0, pretend = 0, frame = 0
 151              		@ frame_needed = 0, uses_anonymous_args = 0
 152              		@ link register save eliminated.
 153              	.LVL15:
 154              		.loc 1 69 0
 155 0000 0C30     		adds	r0, r0, #12
 156              	.LVL16:
 157 0002 4FF0FF31 		mov	r1, #-1
 158 0006 FFF7FEBF 		b	chIQGetTimeout
 159              	.LVL17:
 160              		.cfi_endproc
 161              	.LFE261:
 162              		.size	get, .-get
 163 000a 00BF     		.section	.text.putt,"ax",%progbits
 164              		.align	1
 165              		.p2align 4,,15
 166              		.syntax unified
 167              		.thumb
 168              		.thumb_func
 169              		.fpu softvfp
 170              		.type	putt, %function
 171              	putt:
ARM GAS  /tmp/ccDH1pgj.s 			page 4


 172              	.LFB262:
 173              		.loc 1 72 0
 174              		.cfi_startproc
 175              		@ args = 0, pretend = 0, frame = 0
 176              		@ frame_needed = 0, uses_anonymous_args = 0
 177              		@ link register save eliminated.
 178              	.LVL18:
 179              		.loc 1 74 0
 180 0000 3030     		adds	r0, r0, #48
 181              	.LVL19:
 182 0002 FFF7FEBF 		b	chOQPutTimeout
 183              	.LVL20:
 184              		.cfi_endproc
 185              	.LFE262:
 186              		.size	putt, .-putt
 187 0006 00BF     		.section	.text.put,"ax",%progbits
 188              		.align	1
 189              		.p2align 4,,15
 190              		.syntax unified
 191              		.thumb
 192              		.thumb_func
 193              		.fpu softvfp
 194              		.type	put, %function
 195              	put:
 196              	.LFB260:
 197              		.loc 1 62 0
 198              		.cfi_startproc
 199              		@ args = 0, pretend = 0, frame = 0
 200              		@ frame_needed = 0, uses_anonymous_args = 0
 201              		@ link register save eliminated.
 202              	.LVL21:
 203              		.loc 1 64 0
 204 0000 3030     		adds	r0, r0, #48
 205              	.LVL22:
 206 0002 4FF0FF32 		mov	r2, #-1
 207 0006 FFF7FEBF 		b	chOQPutTimeout
 208              	.LVL23:
 209              		.cfi_endproc
 210              	.LFE260:
 211              		.size	put, .-put
 212 000a 00BF     		.section	.text.sdInit,"ax",%progbits
 213              		.align	1
 214              		.p2align 4,,15
 215              		.global	sdInit
 216              		.syntax unified
 217              		.thumb
 218              		.thumb_func
 219              		.fpu softvfp
 220              		.type	sdInit, %function
 221              	sdInit:
 222              	.LFB266:
 223              		.loc 1 108 0
 224              		.cfi_startproc
 225              		@ args = 0, pretend = 0, frame = 0
 226              		@ frame_needed = 0, uses_anonymous_args = 0
 227              		@ link register save eliminated.
 228              		.loc 1 110 0
ARM GAS  /tmp/ccDH1pgj.s 			page 5


 229 0000 FFF7FEBF 		b	sd_lld_init
 230              	.LVL24:
 231              		.cfi_endproc
 232              	.LFE266:
 233              		.size	sdInit, .-sdInit
 234              		.section	.text.sdObjectInit,"ax",%progbits
 235              		.align	1
 236              		.p2align 4,,15
 237              		.global	sdObjectInit
 238              		.syntax unified
 239              		.thumb
 240              		.thumb_func
 241              		.fpu softvfp
 242              		.type	sdObjectInit, %function
 243              	sdObjectInit:
 244              	.LFB267:
 245              		.loc 1 128 0
 246              		.cfi_startproc
 247              		@ args = 0, pretend = 0, frame = 0
 248              		@ frame_needed = 0, uses_anonymous_args = 0
 249              	.LVL25:
 250 0000 70B5     		push	{r4, r5, r6, lr}
 251              		.cfi_def_cfa_offset 16
 252              		.cfi_offset 4, -16
 253              		.cfi_offset 5, -12
 254              		.cfi_offset 6, -8
 255              		.cfi_offset 14, -4
 256              		.loc 1 130 0
 257 0002 0E4B     		ldr	r3, .L12
 258              		.loc 1 128 0
 259 0004 0446     		mov	r4, r0
 260 0006 82B0     		sub	sp, sp, #8
 261              		.cfi_def_cfa_offset 24
 262              		.loc 1 130 0
 263 0008 40F8043B 		str	r3, [r0], #4
 264              	.LVL26:
 265              		.loc 1 132 0
 266 000c 0126     		movs	r6, #1
 267              		.loc 1 133 0
 268 000e 0094     		str	r4, [sp]
 269              		.loc 1 128 0
 270 0010 1546     		mov	r5, r2
 271              		.loc 1 133 0
 272 0012 0B46     		mov	r3, r1
 273              	.LBB66:
 274              	.LBB67:
 275              	.LBB68:
 276              		.file 2 "/home/selim/working/ChibiOS/os/rt/include/chevents.h"
 277              		.loc 2 172 0
 278 0014 6060     		str	r0, [r4, #4]
 279              	.LVL27:
 280              	.LBE68:
 281              	.LBE67:
 282              	.LBE66:
 283              		.loc 1 133 0
 284 0016 04F15401 		add	r1, r4, #84
 285              	.LVL28:
ARM GAS  /tmp/ccDH1pgj.s 			page 6


 286 001a 04F10C00 		add	r0, r4, #12
 287              		.loc 1 132 0
 288 001e 2672     		strb	r6, [r4, #8]
 289              		.loc 1 133 0
 290 0020 1022     		movs	r2, #16
 291              	.LVL29:
 292 0022 FFF7FEFF 		bl	chIQObjectInit
 293              	.LVL30:
 294              		.loc 1 134 0
 295 0026 0094     		str	r4, [sp]
 296 0028 2B46     		mov	r3, r5
 297 002a 04F16401 		add	r1, r4, #100
 298 002e 04F13000 		add	r0, r4, #48
 299 0032 1022     		movs	r2, #16
 300 0034 FFF7FEFF 		bl	chOQObjectInit
 301              	.LVL31:
 302              		.loc 1 135 0
 303 0038 02B0     		add	sp, sp, #8
 304              		.cfi_def_cfa_offset 16
 305              		@ sp needed
 306 003a 70BD     		pop	{r4, r5, r6, pc}
 307              	.LVL32:
 308              	.L13:
 309              		.align	2
 310              	.L12:
 311 003c 00000000 		.word	.LANCHOR0
 312              		.cfi_endproc
 313              	.LFE267:
 314              		.size	sdObjectInit, .-sdObjectInit
 315              		.section	.text.sdStart,"ax",%progbits
 316              		.align	1
 317              		.p2align 4,,15
 318              		.global	sdStart
 319              		.syntax unified
 320              		.thumb
 321              		.thumb_func
 322              		.fpu softvfp
 323              		.type	sdStart, %function
 324              	sdStart:
 325              	.LFB268:
 326              		.loc 1 147 0
 327              		.cfi_startproc
 328              		@ args = 0, pretend = 0, frame = 0
 329              		@ frame_needed = 0, uses_anonymous_args = 0
 330              	.LVL33:
 331 0000 10B5     		push	{r4, lr}
 332              		.cfi_def_cfa_offset 8
 333              		.cfi_offset 4, -8
 334              		.cfi_offset 14, -4
 335              	.LBB69:
 336              	.LBB70:
 337              	.LBB71:
 338              	.LBB72:
 339              	.LBB73:
 340              		.file 3 "/home/selim/working/ChibiOS/os/ext/CMSIS/include/core_cmFunc.h"
 341              		.loc 3 546 0
 342 0002 2023     		movs	r3, #32
ARM GAS  /tmp/ccDH1pgj.s 			page 7


 343              	.LBE73:
 344              	.LBE72:
 345              	.LBE71:
 346              	.LBE70:
 347              	.LBE69:
 348              		.loc 1 147 0
 349 0004 0446     		mov	r4, r0
 350              	.LBB78:
 351              	.LBB77:
 352              	.LBB76:
 353              	.LBB75:
 354              	.LBB74:
 355              		.loc 3 546 0
 356              		.syntax unified
 357              	@ 546 "/home/selim/working/ChibiOS/os/ext/CMSIS/include/core_cmFunc.h" 1
 358 0006 83F31188 		MSR basepri, r3
 359              	@ 0 "" 2
 360              	.LVL34:
 361              		.thumb
 362              		.syntax unified
 363              	.LBE74:
 364              	.LBE75:
 365              	.LBE76:
 366              	.LBE77:
 367              	.LBE78:
 368              		.loc 1 154 0
 369 000a FFF7FEFF 		bl	sd_lld_start
 370              	.LVL35:
 371              		.loc 1 155 0
 372 000e 0223     		movs	r3, #2
 373 0010 2372     		strb	r3, [r4, #8]
 374              	.LVL36:
 375              	.LBB79:
 376              	.LBB80:
 377              	.LBB81:
 378              	.LBB82:
 379              	.LBB83:
 380              	.LBB84:
 381              		.loc 3 546 0
 382 0012 0023     		movs	r3, #0
 383              		.syntax unified
 384              	@ 546 "/home/selim/working/ChibiOS/os/ext/CMSIS/include/core_cmFunc.h" 1
 385 0014 83F31188 		MSR basepri, r3
 386              	@ 0 "" 2
 387              	.LVL37:
 388              		.thumb
 389              		.syntax unified
 390 0018 10BD     		pop	{r4, pc}
 391              	.LBE84:
 392              	.LBE83:
 393              	.LBE82:
 394              	.LBE81:
 395              	.LBE80:
 396              	.LBE79:
 397              		.cfi_endproc
 398              	.LFE268:
 399              		.size	sdStart, .-sdStart
ARM GAS  /tmp/ccDH1pgj.s 			page 8


 400 001a 00BF     		.section	.text.sdStop,"ax",%progbits
 401              		.align	1
 402              		.p2align 4,,15
 403              		.global	sdStop
 404              		.syntax unified
 405              		.thumb
 406              		.thumb_func
 407              		.fpu softvfp
 408              		.type	sdStop, %function
 409              	sdStop:
 410              	.LFB269:
 411              		.loc 1 168 0
 412              		.cfi_startproc
 413              		@ args = 0, pretend = 0, frame = 0
 414              		@ frame_needed = 0, uses_anonymous_args = 0
 415              	.LVL38:
 416 0000 10B5     		push	{r4, lr}
 417              		.cfi_def_cfa_offset 8
 418              		.cfi_offset 4, -8
 419              		.cfi_offset 14, -4
 420              	.LBB85:
 421              	.LBB86:
 422              	.LBB87:
 423              	.LBB88:
 424              	.LBB89:
 425              		.loc 3 546 0
 426 0002 2023     		movs	r3, #32
 427              	.LBE89:
 428              	.LBE88:
 429              	.LBE87:
 430              	.LBE86:
 431              	.LBE85:
 432              		.loc 1 168 0
 433 0004 0446     		mov	r4, r0
 434              	.LBB94:
 435              	.LBB93:
 436              	.LBB92:
 437              	.LBB91:
 438              	.LBB90:
 439              		.loc 3 546 0
 440              		.syntax unified
 441              	@ 546 "/home/selim/working/ChibiOS/os/ext/CMSIS/include/core_cmFunc.h" 1
 442 0006 83F31188 		MSR basepri, r3
 443              	@ 0 "" 2
 444              	.LVL39:
 445              		.thumb
 446              		.syntax unified
 447              	.LBE90:
 448              	.LBE91:
 449              	.LBE92:
 450              	.LBE93:
 451              	.LBE94:
 452              		.loc 1 175 0
 453 000a FFF7FEFF 		bl	sd_lld_stop
 454              	.LVL40:
 455              		.loc 1 176 0
 456 000e 0123     		movs	r3, #1
ARM GAS  /tmp/ccDH1pgj.s 			page 9


 457 0010 2372     		strb	r3, [r4, #8]
 458              		.loc 1 177 0
 459 0012 04F13000 		add	r0, r4, #48
 460 0016 FFF7FEFF 		bl	chOQResetI
 461              	.LVL41:
 462              		.loc 1 178 0
 463 001a 04F10C00 		add	r0, r4, #12
 464 001e FFF7FEFF 		bl	chIQResetI
 465              	.LVL42:
 466              	.LBB95:
 467              	.LBB96:
 468              		.file 4 "/home/selim/working/ChibiOS/os/hal/osal/rt/osal.h"
 469              		.loc 4 554 0
 470 0022 FFF7FEFF 		bl	chSchRescheduleS
 471              	.LVL43:
 472              	.LBE96:
 473              	.LBE95:
 474              	.LBB97:
 475              	.LBB98:
 476              	.LBB99:
 477              	.LBB100:
 478              	.LBB101:
 479              	.LBB102:
 480              		.loc 3 546 0
 481 0026 0023     		movs	r3, #0
 482              		.syntax unified
 483              	@ 546 "/home/selim/working/ChibiOS/os/ext/CMSIS/include/core_cmFunc.h" 1
 484 0028 83F31188 		MSR basepri, r3
 485              	@ 0 "" 2
 486              	.LVL44:
 487              		.thumb
 488              		.syntax unified
 489 002c 10BD     		pop	{r4, pc}
 490              	.LBE102:
 491              	.LBE101:
 492              	.LBE100:
 493              	.LBE99:
 494              	.LBE98:
 495              	.LBE97:
 496              		.cfi_endproc
 497              	.LFE269:
 498              		.size	sdStop, .-sdStop
 499 002e 00BF     		.section	.text.sdIncomingDataI,"ax",%progbits
 500              		.align	1
 501              		.p2align 4,,15
 502              		.global	sdIncomingDataI
 503              		.syntax unified
 504              		.thumb
 505              		.thumb_func
 506              		.fpu softvfp
 507              		.type	sdIncomingDataI, %function
 508              	sdIncomingDataI:
 509              	.LFB270:
 510              		.loc 1 199 0
 511              		.cfi_startproc
 512              		@ args = 0, pretend = 0, frame = 0
 513              		@ frame_needed = 0, uses_anonymous_args = 0
ARM GAS  /tmp/ccDH1pgj.s 			page 10


 514              	.LVL45:
 515 0000 38B5     		push	{r3, r4, r5, lr}
 516              		.cfi_def_cfa_offset 16
 517              		.cfi_offset 3, -16
 518              		.cfi_offset 4, -12
 519              		.cfi_offset 5, -8
 520              		.cfi_offset 14, -4
 521              		.loc 1 204 0
 522 0002 4369     		ldr	r3, [r0, #20]
 523              		.loc 1 199 0
 524 0004 0446     		mov	r4, r0
 525              	.LVL46:
 526 0006 0D46     		mov	r5, r1
 527              		.loc 1 204 0
 528 0008 3BB1     		cbz	r3, .L23
 529              		.loc 1 206 0
 530 000a 2946     		mov	r1, r5
 531              	.LVL47:
 532 000c 04F10C00 		add	r0, r4, #12
 533              	.LVL48:
 534 0010 FFF7FEFF 		bl	chIQPutI
 535              	.LVL49:
 536 0014 0028     		cmp	r0, #0
 537 0016 0BDB     		blt	.L24
 538              	.L18:
 539 0018 38BD     		pop	{r3, r4, r5, pc}
 540              	.LVL50:
 541              	.L23:
 542              	.LBB103:
 543              	.LBB104:
 544              		.loc 4 798 0
 545 001a 0421     		movs	r1, #4
 546              	.LVL51:
 547 001c 0844     		add	r0, r0, r1
 548              	.LVL52:
 549 001e FFF7FEFF 		bl	chEvtBroadcastFlagsI
 550              	.LVL53:
 551              	.LBE104:
 552              	.LBE103:
 553              		.loc 1 206 0
 554 0022 2946     		mov	r1, r5
 555 0024 04F10C00 		add	r0, r4, #12
 556 0028 FFF7FEFF 		bl	chIQPutI
 557              	.LVL54:
 558 002c 0028     		cmp	r0, #0
 559 002e F3DA     		bge	.L18
 560              	.LVL55:
 561              	.L24:
 562              	.LBB105:
 563              	.LBB106:
 564              		.loc 4 798 0
 565 0030 201D     		adds	r0, r4, #4
 566              	.LVL56:
 567 0032 8021     		movs	r1, #128
 568              	.LBE106:
 569              	.LBE105:
 570              		.loc 1 208 0
ARM GAS  /tmp/ccDH1pgj.s 			page 11


 571 0034 BDE83840 		pop	{r3, r4, r5, lr}
 572              		.cfi_restore 14
 573              		.cfi_restore 5
 574              		.cfi_restore 4
 575              		.cfi_restore 3
 576              		.cfi_def_cfa_offset 0
 577              	.LVL57:
 578              	.LBB108:
 579              	.LBB107:
 580              		.loc 4 798 0
 581 0038 FFF7FEBF 		b	chEvtBroadcastFlagsI
 582              	.LVL58:
 583              	.LBE107:
 584              	.LBE108:
 585              		.cfi_endproc
 586              	.LFE270:
 587              		.size	sdIncomingDataI, .-sdIncomingDataI
 588              		.section	.text.sdRequestDataI,"ax",%progbits
 589              		.align	1
 590              		.p2align 4,,15
 591              		.global	sdRequestDataI
 592              		.syntax unified
 593              		.thumb
 594              		.thumb_func
 595              		.fpu softvfp
 596              		.type	sdRequestDataI, %function
 597              	sdRequestDataI:
 598              	.LFB271:
 599              		.loc 1 225 0
 600              		.cfi_startproc
 601              		@ args = 0, pretend = 0, frame = 0
 602              		@ frame_needed = 0, uses_anonymous_args = 0
 603              	.LVL59:
 604 0000 38B5     		push	{r3, r4, r5, lr}
 605              		.cfi_def_cfa_offset 16
 606              		.cfi_offset 3, -16
 607              		.cfi_offset 4, -12
 608              		.cfi_offset 5, -8
 609              		.cfi_offset 14, -4
 610              		.loc 1 225 0
 611 0002 0446     		mov	r4, r0
 612              		.loc 1 231 0
 613 0004 3030     		adds	r0, r0, #48
 614              	.LVL60:
 615 0006 FFF7FEFF 		bl	chOQGetI
 616              	.LVL61:
 617              		.loc 1 232 0
 618 000a 051E     		subs	r5, r0, #0
 619 000c 01DB     		blt	.L28
 620              		.loc 1 235 0
 621 000e 2846     		mov	r0, r5
 622 0010 38BD     		pop	{r3, r4, r5, pc}
 623              	.LVL62:
 624              	.L28:
 625              	.LBB109:
 626              	.LBB110:
 627              		.loc 4 798 0
ARM GAS  /tmp/ccDH1pgj.s 			page 12


 628 0012 201D     		adds	r0, r4, #4
 629              	.LVL63:
 630 0014 0821     		movs	r1, #8
 631 0016 FFF7FEFF 		bl	chEvtBroadcastFlagsI
 632              	.LVL64:
 633              	.LBE110:
 634              	.LBE109:
 635              		.loc 1 235 0
 636 001a 2846     		mov	r0, r5
 637 001c 38BD     		pop	{r3, r4, r5, pc}
 638              		.cfi_endproc
 639              	.LFE271:
 640              		.size	sdRequestDataI, .-sdRequestDataI
 641 001e 00BF     		.section	.rodata.vmt,"a",%progbits
 642              		.align	2
 643              		.set	.LANCHOR0,. + 0
 644              		.type	vmt, %object
 645              		.size	vmt, 32
 646              	vmt:
 647 0000 00000000 		.word	write
 648 0004 00000000 		.word	read
 649 0008 00000000 		.word	put
 650 000c 00000000 		.word	get
 651 0010 00000000 		.word	putt
 652 0014 00000000 		.word	gett
 653 0018 00000000 		.word	writet
 654 001c 00000000 		.word	readt
 655              		.text
 656              	.Letext0:
 657              		.file 5 "/usr/lib/gcc/arm-none-eabi/6.2.1/include/stddef.h"
 658              		.file 6 "/usr/arm-none-eabi/include/machine/_default_types.h"
 659              		.file 7 "/usr/arm-none-eabi/include/sys/_stdint.h"
 660              		.file 8 "/home/selim/working/ChibiOS/os/rt/ports/ARMCMx/compilers/GCC/chtypes.h"
 661              		.file 9 "/home/selim/working/ChibiOS/os/rt/include/chsystypes.h"
 662              		.file 10 "/home/selim/working/ChibiOS/os/rt/include/chschd.h"
 663              		.file 11 "/home/selim/working/ChibiOS/os/ext/CMSIS/include/core_cm4.h"
 664              		.file 12 "/home/selim/working/ChibiOS/os/ext/CMSIS/ST/system_stm32f4xx.h"
 665              		.file 13 "/home/selim/working/ChibiOS/os/ext/CMSIS/ST/stm32f407xx.h"
 666              		.file 14 "/home/selim/working/ChibiOS/os/rt/ports/ARMCMx/chcore.h"
 667              		.file 15 "/home/selim/working/ChibiOS/os/rt/ports/ARMCMx/chcore_v7m.h"
 668              		.file 16 "/home/selim/working/ChibiOS/os/hal/ports/STM32/LLD/TIMv1/stm32_tim.h"
 669              		.file 17 "/home/selim/working/ChibiOS/os/rt/include/chtm.h"
 670              		.file 18 "/home/selim/working/ChibiOS/os/rt/include/chsem.h"
 671              		.file 19 "/home/selim/working/ChibiOS/os/rt/include/chmtx.h"
 672              		.file 20 "/home/selim/working/ChibiOS/os/rt/include/chregistry.h"
 673              		.file 21 "/home/selim/working/ChibiOS/os/rt/include/chqueues.h"
 674              		.file 22 "/home/selim/working/ChibiOS/os/hal/ports/STM32/STM32F4xx/stm32_dma.h"
 675              		.file 23 "/home/selim/working/ChibiOS/os/hal/ports/STM32/LLD/GPIOv2/pal_lld.h"
 676              		.file 24 "/home/selim/working/ChibiOS/os/hal/include/adc.h"
 677              		.file 25 "/home/selim/working/ChibiOS/os/hal/ports/STM32/STM32F4xx/adc_lld.h"
 678              		.file 26 "/home/selim/working/ChibiOS/os/hal/include/gpt.h"
 679              		.file 27 "/home/selim/working/ChibiOS/os/hal/ports/STM32/LLD/TIMv1/gpt_lld.h"
 680              		.file 28 "/home/selim/working/ChibiOS/os/hal/include/pwm.h"
 681              		.file 29 "/home/selim/working/ChibiOS/os/hal/ports/STM32/LLD/TIMv1/pwm_lld.h"
 682              		.file 30 "/home/selim/working/ChibiOS/os/hal/include/serial.h"
 683              		.file 31 "/home/selim/working/ChibiOS/os/hal/ports/STM32/LLD/USARTv1/serial_lld.h"
 684              		.file 32 "/home/selim/working/ChibiOS/os/hal/include/spi.h"
ARM GAS  /tmp/ccDH1pgj.s 			page 13


 685              		.file 33 "/home/selim/working/ChibiOS/os/hal/ports/STM32/LLD/SPIv1/spi_lld.h"
 686              		.file 34 "/home/selim/working/ChibiOS/os/hal/include/usb.h"
 687              		.file 35 "/home/selim/working/ChibiOS/os/hal/ports/STM32/LLD/OTGv1/usb_lld.h"
 688              		.file 36 "/home/selim/working/ChibiOS/os/hal/ports/STM32/LLD/OTGv1/stm32_otg.h"
 689              		.file 37 "/home/selim/working/ChibiOS/os/rt/include/chsys.h"