ARM GAS  /tmp/ccFn8sEa.s 			page 1


   1              		.cpu cortex-m4
   2              		.eabi_attribute 20, 1
   3              		.eabi_attribute 21, 1
   4              		.eabi_attribute 23, 3
   5              		.eabi_attribute 24, 1
   6              		.eabi_attribute 25, 1
   7              		.eabi_attribute 26, 1
   8              		.eabi_attribute 30, 2
   9              		.eabi_attribute 34, 1
  10              		.eabi_attribute 18, 4
  11              		.file	"serial_lld.c"
  12              		.text
  13              	.Ltext0:
  14              		.cfi_sections	.debug_frame
  15              		.section	.text.notify2,"ax",%progbits
  16              		.align	1
  17              		.p2align 4,,15
  18              		.syntax unified
  19              		.thumb
  20              		.thumb_func
  21              		.fpu softvfp
  22              		.type	notify2, %function
  23              	notify2:
  24              	.LFB262:
  25              		.file 1 "/home/selim/working/ChibiOS/os/hal/ports/STM32/LLD/USARTv1/serial_lld.c"
  26              		.loc 1 216 0
  27              		.cfi_startproc
  28              		@ args = 0, pretend = 0, frame = 0
  29              		@ frame_needed = 0, uses_anonymous_args = 0
  30              		@ link register save eliminated.
  31              	.LVL0:
  32              		.loc 1 219 0
  33 0000 024A     		ldr	r2, .L2
  34 0002 D368     		ldr	r3, [r2, #12]
  35 0004 43F08003 		orr	r3, r3, #128
  36 0008 D360     		str	r3, [r2, #12]
  37 000a 7047     		bx	lr
  38              	.L3:
  39              		.align	2
  40              	.L2:
  41 000c 00440040 		.word	1073759232
  42              		.cfi_endproc
  43              	.LFE262:
  44              		.size	notify2, .-notify2
  45              		.section	.text.VectorD8,"ax",%progbits
  46              		.align	1
  47              		.p2align 4,,15
  48              		.global	VectorD8
  49              		.syntax unified
  50              		.thumb
  51              		.thumb_func
  52              		.fpu softvfp
  53              		.type	VectorD8, %function
  54              	VectorD8:
  55              	.LFB263:
  56              		.loc 1 287 0
  57              		.cfi_startproc
ARM GAS  /tmp/ccFn8sEa.s 			page 2


  58              		@ args = 0, pretend = 0, frame = 0
  59              		@ frame_needed = 0, uses_anonymous_args = 0
  60              	.LVL1:
  61 0000 2DE9F843 		push	{r3, r4, r5, r6, r7, r8, r9, lr}
  62              		.cfi_def_cfa_offset 32
  63              		.cfi_offset 3, -32
  64              		.cfi_offset 4, -28
  65              		.cfi_offset 5, -24
  66              		.cfi_offset 6, -20
  67              		.cfi_offset 7, -16
  68              		.cfi_offset 8, -12
  69              		.cfi_offset 9, -8
  70              		.cfi_offset 14, -4
  71              	.LBB232:
  72              	.LBB233:
  73              		.loc 1 154 0
  74 0004 DFF82881 		ldr	r8, .L59+8
  75 0008 D8F87450 		ldr	r5, [r8, #116]
  76              	.LVL2:
  77              		.loc 1 155 0
  78 000c D5F80C90 		ldr	r9, [r5, #12]
  79              	.LVL3:
  80              		.loc 1 156 0
  81 0010 2B68     		ldr	r3, [r5]
  82              		.loc 1 159 0
  83 0012 DA05     		lsls	r2, r3, #23
  84              		.loc 1 156 0
  85 0014 9CB2     		uxth	r4, r3
  86              	.LVL4:
  87              		.loc 1 159 0
  88 0016 54D4     		bmi	.L54
  89              	.L5:
  90              	.LVL5:
  91              	.LBB234:
  92              	.LBB235:
  93              	.LBB236:
  94              	.LBB237:
  95              	.LBB238:
  96              	.LBB239:
  97              		.file 2 "/home/selim/working/ChibiOS/os/ext/CMSIS/include/core_cmFunc.h"
  98              		.loc 2 546 0
  99 0018 2023     		movs	r3, #32
 100              		.syntax unified
 101              	@ 546 "/home/selim/working/ChibiOS/os/ext/CMSIS/include/core_cmFunc.h" 1
 102 001a 83F31188 		MSR basepri, r3
 103              	@ 0 "" 2
 104              	.LVL6:
 105              		.thumb
 106              		.syntax unified
 107              	.LBE239:
 108              	.LBE238:
 109              	.LBE237:
 110              	.LBE236:
 111              	.LBE235:
 112              	.LBE234:
 113              		.loc 1 168 0
 114 001e 14F02F0F 		tst	r4, #47
ARM GAS  /tmp/ccFn8sEa.s 			page 3


 115 0022 2CD0     		beq	.L6
 116              	.LBB240:
 117              	.LBB241:
 118              	.LBB242:
 119              	.LBB243:
 120              	.LBB244:
 121              		.file 3 "/home/selim/working/ChibiOS/os/hal/osal/rt/osal.h"
 122              		.loc 3 798 0
 123 0024 404E     		ldr	r6, .L59
 124              	.LBE244:
 125              	.LBE243:
 126              	.LBE242:
 127              	.LBE241:
 128              		.loc 1 177 0
 129 0026 371F     		subs	r7, r6, #4
 130 0028 07E0     		b	.L13
 131              	.L7:
 132              		.loc 1 176 0
 133 002a A006     		lsls	r0, r4, #26
 134              		.loc 1 175 0
 135 002c 6968     		ldr	r1, [r5, #4]
 136              	.LVL7:
 137              		.loc 1 176 0
 138 002e 1DD4     		bmi	.L55
 139              	.L12:
 140              		.loc 1 178 0
 141 0030 2C68     		ldr	r4, [r5]
 142              	.LVL8:
 143 0032 A4B2     		uxth	r4, r4
 144              	.LVL9:
 145              	.LBE240:
 146              		.loc 1 168 0
 147 0034 14F02F0F 		tst	r4, #47
 148 0038 21D0     		beq	.L6
 149              	.LVL10:
 150              	.L13:
 151              	.LBB249:
 152              		.loc 1 173 0
 153 003a 2307     		lsls	r3, r4, #28
 154 003c F5D0     		beq	.L7
 155              	.LVL11:
 156              	.LBB248:
 157              	.LBB247:
 158              		.loc 1 138 0
 159 003e 14F0080F 		tst	r4, #8
 160 0042 0CBF     		ite	eq
 161 0044 0021     		moveq	r1, #0
 162 0046 8021     		movne	r1, #128
 163              	.LVL12:
 164              		.loc 1 139 0
 165 0048 E007     		lsls	r0, r4, #31
 166              		.loc 1 140 0
 167 004a 48BF     		it	mi
 168 004c 41F02001 		orrmi	r1, r1, #32
 169              	.LVL13:
 170              		.loc 1 141 0
 171 0050 A207     		lsls	r2, r4, #30
ARM GAS  /tmp/ccFn8sEa.s 			page 4


 172              		.loc 1 142 0
 173 0052 48BF     		it	mi
 174 0054 41F04001 		orrmi	r1, r1, #64
 175              	.LVL14:
 176              		.loc 1 143 0
 177 0058 6307     		lsls	r3, r4, #29
 178              		.loc 1 144 0
 179 005a 48BF     		it	mi
 180 005c 41F48071 		orrmi	r1, r1, #256
 181              	.LVL15:
 182              	.LBB246:
 183              	.LBB245:
 184              		.loc 3 798 0
 185 0060 3046     		mov	r0, r6
 186 0062 FFF7FEFF 		bl	chEvtBroadcastFlagsI
 187              	.LVL16:
 188              	.LBE245:
 189              	.LBE246:
 190              	.LBE247:
 191              	.LBE248:
 192              		.loc 1 176 0
 193 0066 A006     		lsls	r0, r4, #26
 194              		.loc 1 175 0
 195 0068 6968     		ldr	r1, [r5, #4]
 196              	.LVL17:
 197              		.loc 1 176 0
 198 006a E1D5     		bpl	.L12
 199              	.LVL18:
 200              	.L55:
 201              		.loc 1 177 0
 202 006c C9B2     		uxtb	r1, r1
 203 006e 3846     		mov	r0, r7
 204 0070 FFF7FEFF 		bl	sdIncomingDataI
 205              	.LVL19:
 206              		.loc 1 178 0
 207 0074 2C68     		ldr	r4, [r5]
 208              	.LVL20:
 209 0076 A4B2     		uxth	r4, r4
 210              	.LVL21:
 211              	.LBE249:
 212              		.loc 1 168 0
 213 0078 14F02F0F 		tst	r4, #47
 214 007c DDD1     		bne	.L13
 215              	.L6:
 216              	.LVL22:
 217              	.LBB250:
 218              	.LBB251:
 219              	.LBB252:
 220              	.LBB253:
 221              	.LBB254:
 222              	.LBB255:
 223              		.loc 2 546 0
 224 007e 0023     		movs	r3, #0
 225              		.syntax unified
 226              	@ 546 "/home/selim/working/ChibiOS/os/ext/CMSIS/include/core_cmFunc.h" 1
 227 0080 83F31188 		MSR basepri, r3
 228              	@ 0 "" 2
ARM GAS  /tmp/ccFn8sEa.s 			page 5


 229              	.LVL23:
 230              		.thumb
 231              		.syntax unified
 232              	.LBE255:
 233              	.LBE254:
 234              	.LBE253:
 235              	.LBE252:
 236              	.LBE251:
 237              	.LBE250:
 238              		.loc 1 183 0
 239 0084 19F0800F 		tst	r9, #128
 240 0088 01D0     		beq	.L14
 241 008a 2206     		lsls	r2, r4, #24
 242 008c 29D4     		bmi	.L56
 243              	.L14:
 244              		.loc 1 197 0
 245 008e 6306     		lsls	r3, r4, #25
 246 0090 13D5     		bpl	.L17
 247              	.LVL24:
 248              	.LBB256:
 249              	.LBB257:
 250              	.LBB258:
 251              	.LBB259:
 252              	.LBB260:
 253              	.LBB261:
 254              		.loc 2 546 0
 255 0092 2023     		movs	r3, #32
 256              		.syntax unified
 257              	@ 546 "/home/selim/working/ChibiOS/os/ext/CMSIS/include/core_cmFunc.h" 1
 258 0094 83F31188 		MSR basepri, r3
 259              	@ 0 "" 2
 260              	.LVL25:
 261              		.thumb
 262              		.syntax unified
 263              	.LBE261:
 264              	.LBE260:
 265              	.LBE259:
 266              	.LBE258:
 267              	.LBE257:
 268              	.LBE256:
 269              	.LBB262:
 270              	.LBB263:
 271              		.file 4 "/home/selim/working/ChibiOS/os/rt/include/chqueues.h"
 272              		.loc 4 390 0
 273 0098 D8F84420 		ldr	r2, [r8, #68]
 274 009c D8F84830 		ldr	r3, [r8, #72]
 275 00a0 9A42     		cmp	r2, r3
 276 00a2 2BD0     		beq	.L57
 277              	.LVL26:
 278              	.L18:
 279              	.LBE263:
 280              	.LBE262:
 281              		.loc 1 201 0
 282 00a4 4FF6BF73 		movw	r3, #65471
 283 00a8 09EA0303 		and	r3, r9, r3
 284              		.loc 1 202 0
 285 00ac 6FF04002 		mvn	r2, #64
ARM GAS  /tmp/ccFn8sEa.s 			page 6


 286              		.loc 1 201 0
 287 00b0 EB60     		str	r3, [r5, #12]
 288              	.LBB265:
 289              	.LBB266:
 290              	.LBB267:
 291              	.LBB268:
 292              	.LBB269:
 293              	.LBB270:
 294              		.loc 2 546 0
 295 00b2 0023     		movs	r3, #0
 296              	.LBE270:
 297              	.LBE269:
 298              	.LBE268:
 299              	.LBE267:
 300              	.LBE266:
 301              	.LBE265:
 302              		.loc 1 202 0
 303 00b4 2A60     		str	r2, [r5]
 304              	.LVL27:
 305              	.LBB276:
 306              	.LBB275:
 307              	.LBB274:
 308              	.LBB273:
 309              	.LBB272:
 310              	.LBB271:
 311              		.loc 2 546 0
 312              		.syntax unified
 313              	@ 546 "/home/selim/working/ChibiOS/os/ext/CMSIS/include/core_cmFunc.h" 1
 314 00b6 83F31188 		MSR basepri, r3
 315              	@ 0 "" 2
 316              	.LVL28:
 317              		.thumb
 318              		.syntax unified
 319              	.L17:
 320              	.LBE271:
 321              	.LBE272:
 322              	.LBE273:
 323              	.LBE274:
 324              	.LBE275:
 325              	.LBE276:
 326              	.LBE233:
 327              	.LBE232:
 328              		.loc 1 294 0
 329 00ba BDE8F843 		pop	{r3, r4, r5, r6, r7, r8, r9, lr}
 330              		.cfi_remember_state
 331              		.cfi_restore 14
 332              		.cfi_restore 9
 333              		.cfi_restore 8
 334              		.cfi_restore 7
 335              		.cfi_restore 6
 336              		.cfi_restore 5
 337              		.cfi_restore 4
 338              		.cfi_restore 3
 339              		.cfi_def_cfa_offset 0
 340              	.LVL29:
 341              		.loc 1 293 0
 342 00be FFF7FEBF 		b	_port_irq_epilogue
ARM GAS  /tmp/ccFn8sEa.s 			page 7


 343              	.LVL30:
 344              	.L54:
 345              		.cfi_restore_state
 346              	.LBB311:
 347              	.LBB310:
 348              	.LBB277:
 349              	.LBB278:
 350              	.LBB279:
 351              	.LBB280:
 352              	.LBB281:
 353              	.LBB282:
 354              		.loc 2 546 0
 355 00c2 2023     		movs	r3, #32
 356              		.syntax unified
 357              	@ 546 "/home/selim/working/ChibiOS/os/ext/CMSIS/include/core_cmFunc.h" 1
 358 00c4 83F31188 		MSR basepri, r3
 359              	@ 0 "" 2
 360              	.LVL31:
 361              		.thumb
 362              		.syntax unified
 363              	.LBE282:
 364              	.LBE281:
 365              	.LBE280:
 366              	.LBE279:
 367              	.LBE278:
 368              	.LBE277:
 369              	.LBB283:
 370              	.LBB284:
 371              		.loc 3 798 0
 372 00c8 4FF40071 		mov	r1, #512
 373 00cc 08F10400 		add	r0, r8, #4
 374 00d0 FFF7FEFF 		bl	chEvtBroadcastFlagsI
 375              	.LVL32:
 376              	.LBE284:
 377              	.LBE283:
 378              		.loc 1 162 0
 379 00d4 6FF48073 		mvn	r3, #256
 380 00d8 2B60     		str	r3, [r5]
 381              	.LVL33:
 382              	.LBB285:
 383              	.LBB286:
 384              	.LBB287:
 385              	.LBB288:
 386              	.LBB289:
 387              	.LBB290:
 388              		.loc 2 546 0
 389 00da 0023     		movs	r3, #0
 390              		.syntax unified
 391              	@ 546 "/home/selim/working/ChibiOS/os/ext/CMSIS/include/core_cmFunc.h" 1
 392 00dc 83F31188 		MSR basepri, r3
 393              	@ 0 "" 2
 394              	.LVL34:
 395              		.thumb
 396              		.syntax unified
 397 00e0 9AE7     		b	.L5
 398              	.L56:
 399              	.LVL35:
ARM GAS  /tmp/ccFn8sEa.s 			page 8


 400              	.LBE290:
 401              	.LBE289:
 402              	.LBE288:
 403              	.LBE287:
 404              	.LBE286:
 405              	.LBE285:
 406              	.LBB291:
 407              	.LBB292:
 408              	.LBB293:
 409              	.LBB294:
 410              	.LBB295:
 411              	.LBB296:
 412              	.LBB297:
 413 00e2 2023     		movs	r3, #32
 414              		.syntax unified
 415              	@ 546 "/home/selim/working/ChibiOS/os/ext/CMSIS/include/core_cmFunc.h" 1
 416 00e4 83F31188 		MSR basepri, r3
 417              	@ 0 "" 2
 418              	.LVL36:
 419              		.thumb
 420              		.syntax unified
 421              	.LBE297:
 422              	.LBE296:
 423              	.LBE295:
 424              	.LBE294:
 425              	.LBE293:
 426              	.LBE292:
 427              		.loc 1 186 0
 428 00e8 1048     		ldr	r0, .L59+4
 429 00ea FFF7FEFF 		bl	chOQGetI
 430              	.LVL37:
 431              		.loc 1 187 0
 432 00ee 0028     		cmp	r0, #0
 433 00f0 0DDB     		blt	.L58
 434              		.loc 1 192 0
 435 00f2 6860     		str	r0, [r5, #4]
 436              	.LVL38:
 437              	.L16:
 438              	.LBB298:
 439              	.LBB299:
 440              	.LBB300:
 441              	.LBB301:
 442              	.LBB302:
 443              	.LBB303:
 444              		.loc 2 546 0
 445 00f4 0023     		movs	r3, #0
 446              		.syntax unified
 447              	@ 546 "/home/selim/working/ChibiOS/os/ext/CMSIS/include/core_cmFunc.h" 1
 448 00f6 83F31188 		MSR basepri, r3
 449              	@ 0 "" 2
 450              	.LVL39:
 451              		.thumb
 452              		.syntax unified
 453 00fa C8E7     		b	.L14
 454              	.LVL40:
 455              	.L57:
 456              	.LBE303:
ARM GAS  /tmp/ccFn8sEa.s 			page 9


 457              	.LBE302:
 458              	.LBE301:
 459              	.LBE300:
 460              	.LBE299:
 461              	.LBE298:
 462              	.LBE291:
 463              	.LBB306:
 464              	.LBB264:
 465              		.loc 4 390 0
 466 00fc D8F83830 		ldr	r3, [r8, #56]
 467 0100 002B     		cmp	r3, #0
 468 0102 CFD0     		beq	.L18
 469              	.LVL41:
 470              	.LBE264:
 471              	.LBE306:
 472              	.LBB307:
 473              	.LBB308:
 474              		.loc 3 798 0
 475 0104 1021     		movs	r1, #16
 476 0106 0848     		ldr	r0, .L59
 477 0108 FFF7FEFF 		bl	chEvtBroadcastFlagsI
 478              	.LVL42:
 479 010c CAE7     		b	.L18
 480              	.LVL43:
 481              	.L58:
 482              	.LBE308:
 483              	.LBE307:
 484              	.LBB309:
 485              	.LBB304:
 486              	.LBB305:
 487 010e 0821     		movs	r1, #8
 488 0110 0548     		ldr	r0, .L59
 489              	.LVL44:
 490 0112 FFF7FEFF 		bl	chEvtBroadcastFlagsI
 491              	.LVL45:
 492              	.LBE305:
 493              	.LBE304:
 494              		.loc 1 189 0
 495 0116 4FF63F73 		movw	r3, #65343
 496 011a 09EA0303 		and	r3, r9, r3
 497 011e 43F04003 		orr	r3, r3, #64
 498 0122 EB60     		str	r3, [r5, #12]
 499 0124 E6E7     		b	.L16
 500              	.L60:
 501 0126 00BF     		.align	2
 502              	.L59:
 503 0128 04000000 		.word	.LANCHOR0+4
 504 012c 30000000 		.word	.LANCHOR0+48
 505 0130 00000000 		.word	.LANCHOR0
 506              	.LBE309:
 507              	.LBE310:
 508              	.LBE311:
 509              		.cfi_endproc
 510              	.LFE263:
 511              		.size	VectorD8, .-VectorD8
 512              		.section	.text.sd_lld_init,"ax",%progbits
 513              		.align	1
ARM GAS  /tmp/ccFn8sEa.s 			page 10


 514              		.p2align 4,,15
 515              		.global	sd_lld_init
 516              		.syntax unified
 517              		.thumb
 518              		.thumb_func
 519              		.fpu softvfp
 520              		.type	sd_lld_init, %function
 521              	sd_lld_init:
 522              	.LFB264:
 523              		.loc 1 382 0
 524              		.cfi_startproc
 525              		@ args = 0, pretend = 0, frame = 0
 526              		@ frame_needed = 0, uses_anonymous_args = 0
 527 0000 10B5     		push	{r4, lr}
 528              		.cfi_def_cfa_offset 8
 529              		.cfi_offset 4, -8
 530              		.cfi_offset 14, -4
 531              		.loc 1 390 0
 532 0002 044C     		ldr	r4, .L63
 533 0004 044A     		ldr	r2, .L63+4
 534 0006 2046     		mov	r0, r4
 535 0008 0021     		movs	r1, #0
 536 000a FFF7FEFF 		bl	sdObjectInit
 537              	.LVL46:
 538              		.loc 1 391 0
 539 000e 034B     		ldr	r3, .L63+8
 540 0010 6367     		str	r3, [r4, #116]
 541 0012 10BD     		pop	{r4, pc}
 542              	.L64:
 543              		.align	2
 544              	.L63:
 545 0014 00000000 		.word	.LANCHOR0
 546 0018 00000000 		.word	notify2
 547 001c 00440040 		.word	1073759232
 548              		.cfi_endproc
 549              	.LFE264:
 550              		.size	sd_lld_init, .-sd_lld_init
 551              		.section	.text.sd_lld_start,"ax",%progbits
 552              		.align	1
 553              		.p2align 4,,15
 554              		.global	sd_lld_start
 555              		.syntax unified
 556              		.thumb
 557              		.thumb_func
 558              		.fpu softvfp
 559              		.type	sd_lld_start, %function
 560              	sd_lld_start:
 561              	.LFB265:
 562              		.loc 1 425 0
 563              		.cfi_startproc
 564              		@ args = 0, pretend = 0, frame = 0
 565              		@ frame_needed = 0, uses_anonymous_args = 0
 566              	.LVL47:
 567 0000 38B5     		push	{r3, r4, r5, lr}
 568              		.cfi_def_cfa_offset 16
 569              		.cfi_offset 3, -16
 570              		.cfi_offset 4, -12
ARM GAS  /tmp/ccFn8sEa.s 			page 11


 571              		.cfi_offset 5, -8
 572              		.cfi_offset 14, -4
 573              		.loc 1 428 0
 574 0002 1F4C     		ldr	r4, .L73
 575              		.loc 1 430 0
 576 0004 037A     		ldrb	r3, [r0, #8]	@ zero_extendqisi2
 577              		.loc 1 428 0
 578 0006 0029     		cmp	r1, #0
 579 0008 18BF     		it	ne
 580 000a 0C46     		movne	r4, r1
 581              	.LVL48:
 582              		.loc 1 430 0
 583 000c 012B     		cmp	r3, #1
 584              		.loc 1 425 0
 585 000e 0546     		mov	r5, r0
 586              		.loc 1 430 0
 587 0010 22D0     		beq	.L72
 588              	.LVL49:
 589              	.L67:
 590 0012 6B6F     		ldr	r3, [r5, #116]
 591              	.LVL50:
 592              	.LBB312:
 593              	.LBB313:
 594              		.loc 1 96 0
 595 0014 1B4A     		ldr	r2, .L73+4
 596 0016 9342     		cmp	r3, r2
 597 0018 2BD0     		beq	.L68
 598 001a 02F58062 		add	r2, r2, #1024
 599 001e 9342     		cmp	r3, r2
 600 0020 27D0     		beq	.L68
 601              		.loc 1 102 0
 602 0022 2168     		ldr	r1, [r4]
 603 0024 184A     		ldr	r2, .L73+8
 604 0026 B2FBF1F2 		udiv	r2, r2, r1
 605 002a 9A60     		str	r2, [r3, #8]
 606              	.L70:
 607              		.loc 1 108 0
 608 002c A288     		ldrh	r2, [r4, #4]
 609              		.loc 1 105 0
 610 002e E088     		ldrh	r0, [r4, #6]
 611              		.loc 1 106 0
 612 0030 2189     		ldrh	r1, [r4, #8]
 613              		.loc 1 108 0
 614 0032 42F40452 		orr	r2, r2, #8448
 615              		.loc 1 105 0
 616 0036 40F04000 		orr	r0, r0, #64
 617              		.loc 1 108 0
 618 003a 42F02C02 		orr	r2, r2, #44
 619              		.loc 1 106 0
 620 003e 41F00101 		orr	r1, r1, #1
 621              		.loc 1 108 0
 622 0042 92B2     		uxth	r2, r2
 623              		.loc 1 105 0
 624 0044 80B2     		uxth	r0, r0
 625              		.loc 1 106 0
 626 0046 89B2     		uxth	r1, r1
 627              		.loc 1 110 0
ARM GAS  /tmp/ccFn8sEa.s 			page 12


 628 0048 0024     		movs	r4, #0
 629              	.LVL51:
 630              		.loc 1 105 0
 631 004a 1861     		str	r0, [r3, #16]
 632              		.loc 1 106 0
 633 004c 5961     		str	r1, [r3, #20]
 634              		.loc 1 107 0
 635 004e DA60     		str	r2, [r3, #12]
 636              		.loc 1 110 0
 637 0050 1C60     		str	r4, [r3]
 638              		.loc 1 111 0
 639 0052 1A68     		ldr	r2, [r3]
 640              		.loc 1 112 0
 641 0054 5B68     		ldr	r3, [r3, #4]
 642              	.LVL52:
 643 0056 38BD     		pop	{r3, r4, r5, pc}
 644              	.LVL53:
 645              	.L72:
 646              	.LBE313:
 647              	.LBE312:
 648              		.loc 1 438 0
 649 0058 0C4B     		ldr	r3, .L73+12
 650 005a 9842     		cmp	r0, r3
 651 005c D9D1     		bne	.L67
 652              		.loc 1 439 0
 653 005e 0C4A     		ldr	r2, .L73+16
 654 0060 136C     		ldr	r3, [r2, #64]
 655 0062 43F40033 		orr	r3, r3, #131072
 656 0066 1364     		str	r3, [r2, #64]
 657              		.loc 1 440 0
 658 0068 0C21     		movs	r1, #12
 659 006a 2620     		movs	r0, #38
 660              	.LVL54:
 661 006c FFF7FEFF 		bl	nvicEnableVector
 662              	.LVL55:
 663 0070 CFE7     		b	.L67
 664              	.LVL56:
 665              	.L68:
 666              	.LBB315:
 667              	.LBB314:
 668              		.loc 1 100 0
 669 0072 2168     		ldr	r1, [r4]
 670 0074 074A     		ldr	r2, .L73+20
 671 0076 B2FBF1F2 		udiv	r2, r2, r1
 672 007a 9A60     		str	r2, [r3, #8]
 673 007c D6E7     		b	.L70
 674              	.L74:
 675 007e 00BF     		.align	2
 676              	.L73:
 677 0080 00000000 		.word	.LANCHOR1
 678 0084 00100140 		.word	1073811456
 679 0088 80DE8002 		.word	42000000
 680 008c 00000000 		.word	.LANCHOR0
 681 0090 00380240 		.word	1073887232
 682 0094 00BD0105 		.word	84000000
 683              	.LBE314:
 684              	.LBE315:
ARM GAS  /tmp/ccFn8sEa.s 			page 13


 685              		.cfi_endproc
 686              	.LFE265:
 687              		.size	sd_lld_start, .-sd_lld_start
 688              		.section	.text.sd_lld_stop,"ax",%progbits
 689              		.align	1
 690              		.p2align 4,,15
 691              		.global	sd_lld_stop
 692              		.syntax unified
 693              		.thumb
 694              		.thumb_func
 695              		.fpu softvfp
 696              		.type	sd_lld_stop, %function
 697              	sd_lld_stop:
 698              	.LFB266:
 699              		.loc 1 480 0
 700              		.cfi_startproc
 701              		@ args = 0, pretend = 0, frame = 0
 702              		@ frame_needed = 0, uses_anonymous_args = 0
 703              		@ link register save eliminated.
 704              	.LVL57:
 705              		.loc 1 482 0
 706 0000 037A     		ldrb	r3, [r0, #8]	@ zero_extendqisi2
 707 0002 022B     		cmp	r3, #2
 708 0004 00D0     		beq	.L79
 709              	.L75:
 710 0006 7047     		bx	lr
 711              	.L79:
 712              		.loc 1 492 0
 713 0008 0749     		ldr	r1, .L80
 714              		.loc 1 483 0
 715 000a 436F     		ldr	r3, [r0, #116]
 716              	.LVL58:
 717              	.LBB316:
 718              	.LBB317:
 719              		.loc 1 123 0
 720 000c 0022     		movs	r2, #0
 721              	.LBE317:
 722              	.LBE316:
 723              		.loc 1 492 0
 724 000e 8842     		cmp	r0, r1
 725              	.LBB319:
 726              	.LBB318:
 727              		.loc 1 123 0
 728 0010 DA60     		str	r2, [r3, #12]
 729              		.loc 1 124 0
 730 0012 1A61     		str	r2, [r3, #16]
 731              		.loc 1 125 0
 732 0014 5A61     		str	r2, [r3, #20]
 733              	.LVL59:
 734              	.LBE318:
 735              	.LBE319:
 736              		.loc 1 492 0
 737 0016 F6D1     		bne	.L75
 738              		.loc 1 493 0
 739 0018 044A     		ldr	r2, .L80+4
 740 001a 136C     		ldr	r3, [r2, #64]
 741 001c 23F40033 		bic	r3, r3, #131072
ARM GAS  /tmp/ccFn8sEa.s 			page 14


 742 0020 1364     		str	r3, [r2, #64]
 743              		.loc 1 494 0
 744 0022 2620     		movs	r0, #38
 745              	.LVL60:
 746 0024 FFF7FEBF 		b	nvicDisableVector
 747              	.LVL61:
 748              	.L81:
 749              		.align	2
 750              	.L80:
 751 0028 00000000 		.word	.LANCHOR0
 752 002c 00380240 		.word	1073887232
 753              		.cfi_endproc
 754              	.LFE266:
 755              		.size	sd_lld_stop, .-sd_lld_stop
 756              		.global	SD2
 757              		.section	.bss.SD2,"aw",%nobits
 758              		.align	2
 759              		.set	.LANCHOR0,. + 0
 760              		.type	SD2, %object
 761              		.size	SD2, 120
 762              	SD2:
 763 0000 00000000 		.space	120
 763      00000000 
 763      00000000 
 763      00000000 
 763      00000000 
 764              		.section	.rodata.default_config,"a",%progbits
 765              		.align	2
 766              		.set	.LANCHOR1,. + 0
 767              		.type	default_config, %object
 768              		.size	default_config, 12
 769              	default_config:
 770 0000 00960000 		.word	38400
 771 0004 0000     		.short	0
 772 0006 0040     		.short	16384
 773 0008 0000     		.short	0
 774 000a 0000     		.space	2
 775              		.text
 776              	.Letext0:
 777              		.file 5 "/usr/lib/gcc/arm-none-eabi/6.2.1/include/stddef.h"
 778              		.file 6 "/usr/arm-none-eabi/include/machine/_default_types.h"
 779              		.file 7 "/usr/arm-none-eabi/include/sys/_stdint.h"
 780              		.file 8 "/home/selim/working/ChibiOS/os/rt/ports/ARMCMx/compilers/GCC/chtypes.h"
 781              		.file 9 "/home/selim/working/ChibiOS/os/rt/include/chsystypes.h"
 782              		.file 10 "/home/selim/working/ChibiOS/os/rt/include/chschd.h"
 783              		.file 11 "/home/selim/working/ChibiOS/os/ext/CMSIS/include/core_cm4.h"
 784              		.file 12 "/home/selim/working/ChibiOS/os/ext/CMSIS/ST/system_stm32f4xx.h"
 785              		.file 13 "/home/selim/working/ChibiOS/os/ext/CMSIS/ST/stm32f407xx.h"
 786              		.file 14 "/home/selim/working/ChibiOS/os/rt/ports/ARMCMx/chcore.h"
 787              		.file 15 "/home/selim/working/ChibiOS/os/rt/ports/ARMCMx/chcore_v7m.h"
 788              		.file 16 "/home/selim/working/ChibiOS/os/hal/ports/STM32/LLD/TIMv1/stm32_tim.h"
 789              		.file 17 "/home/selim/working/ChibiOS/os/rt/include/chtm.h"
 790              		.file 18 "/home/selim/working/ChibiOS/os/rt/include/chsem.h"
 791              		.file 19 "/home/selim/working/ChibiOS/os/rt/include/chmtx.h"
 792              		.file 20 "/home/selim/working/ChibiOS/os/rt/include/chregistry.h"
 793              		.file 21 "/home/selim/working/ChibiOS/os/rt/include/chevents.h"
 794              		.file 22 "/home/selim/working/ChibiOS/os/hal/ports/STM32/STM32F4xx/stm32_dma.h"
ARM GAS  /tmp/ccFn8sEa.s 			page 15


 795              		.file 23 "/home/selim/working/ChibiOS/os/hal/ports/STM32/LLD/GPIOv2/pal_lld.h"
 796              		.file 24 "/home/selim/working/ChibiOS/os/hal/include/adc.h"
 797              		.file 25 "/home/selim/working/ChibiOS/os/hal/ports/STM32/STM32F4xx/adc_lld.h"
 798              		.file 26 "/home/selim/working/ChibiOS/os/hal/include/gpt.h"
 799              		.file 27 "/home/selim/working/ChibiOS/os/hal/ports/STM32/LLD/TIMv1/gpt_lld.h"
 800              		.file 28 "/home/selim/working/ChibiOS/os/hal/include/pwm.h"
 801              		.file 29 "/home/selim/working/ChibiOS/os/hal/ports/STM32/LLD/TIMv1/pwm_lld.h"
 802              		.file 30 "/home/selim/working/ChibiOS/os/hal/include/serial.h"
 803              		.file 31 "/home/selim/working/ChibiOS/os/hal/ports/STM32/LLD/USARTv1/serial_lld.h"
 804              		.file 32 "/home/selim/working/ChibiOS/os/hal/include/spi.h"
 805              		.file 33 "/home/selim/working/ChibiOS/os/hal/ports/STM32/LLD/SPIv1/spi_lld.h"
 806              		.file 34 "/home/selim/working/ChibiOS/os/hal/include/usb.h"
 807              		.file 35 "/home/selim/working/ChibiOS/os/hal/ports/STM32/LLD/OTGv1/usb_lld.h"
 808              		.file 36 "/home/selim/working/ChibiOS/os/hal/ports/STM32/LLD/OTGv1/stm32_otg.h"
 809              		.file 37 "/home/selim/working/ChibiOS/os/rt/include/chsys.h"
 810              		.file 38 "/home/selim/working/ChibiOS/os/hal/ports/common/ARMCMx/nvic.h"