ARM GAS  /tmp/ccwloLVr.s 			page 1


   1              		.cpu cortex-m4
   2              		.eabi_attribute 20, 1
   3              		.eabi_attribute 21, 1
   4              		.eabi_attribute 23, 3
   5              		.eabi_attribute 24, 1
   6              		.eabi_attribute 25, 1
   7              		.eabi_attribute 26, 1
   8              		.eabi_attribute 30, 2
   9              		.eabi_attribute 34, 1
  10              		.eabi_attribute 18, 4
  11              		.file	"shell.c"
  12              		.text
  13              	.Ltext0:
  14              		.cfi_sections	.debug_frame
  15              		.section	.text.chprintf,"ax",%progbits
  16              		.align	1
  17              		.p2align 4,,15
  18              		.syntax unified
  19              		.thumb
  20              		.thumb_func
  21              		.fpu softvfp
  22              		.type	chprintf, %function
  23              	chprintf:
  24              	.LFB258:
  25              		.file 1 "/home/selim/working/ChibiOS/os/hal/lib/streams/chprintf.h"
  26              		.loc 1 69 0
  27              		.cfi_startproc
  28              		@ args = 4, pretend = 12, frame = 8
  29              		@ frame_needed = 0, uses_anonymous_args = 1
  30              	.LVL0:
  31 0000 0EB4     		push	{r1, r2, r3}
  32              		.cfi_def_cfa_offset 12
  33              		.cfi_offset 1, -12
  34              		.cfi_offset 2, -8
  35              		.cfi_offset 3, -4
  36 0002 00B5     		push	{lr}
  37              		.cfi_def_cfa_offset 16
  38              		.cfi_offset 14, -16
  39 0004 82B0     		sub	sp, sp, #8
  40              		.cfi_def_cfa_offset 24
  41              		.loc 1 69 0
  42 0006 03AA     		add	r2, sp, #12
  43 0008 52F8041B 		ldr	r1, [r2], #4
  44              		.loc 1 73 0
  45 000c 0192     		str	r2, [sp, #4]
  46              		.loc 1 74 0
  47 000e FFF7FEFF 		bl	chvprintf
  48              	.LVL1:
  49              		.loc 1 78 0
  50 0012 02B0     		add	sp, sp, #8
  51              		.cfi_def_cfa_offset 16
  52              		@ sp needed
  53 0014 5DF804EB 		ldr	lr, [sp], #4
  54              		.cfi_restore 14
  55              		.cfi_def_cfa_offset 12
  56 0018 03B0     		add	sp, sp, #12
  57              		.cfi_restore 3
ARM GAS  /tmp/ccwloLVr.s 			page 2


  58              		.cfi_restore 2
  59              		.cfi_restore 1
  60              		.cfi_def_cfa_offset 0
  61 001a 7047     		bx	lr
  62              		.cfi_endproc
  63              	.LFE258:
  64              		.size	chprintf, .-chprintf
  65              		.section	.text.cmd_systime,"ax",%progbits
  66              		.align	1
  67              		.p2align 4,,15
  68              		.syntax unified
  69              		.thumb
  70              		.thumb_func
  71              		.fpu softvfp
  72              		.type	cmd_systime, %function
  73              	cmd_systime:
  74              	.LFB263:
  75              		.file 2 "/home/selim/working/ChibiOS/os/various/shell.c"
  76              		.loc 2 99 0
  77              		.cfi_startproc
  78              		@ args = 0, pretend = 0, frame = 0
  79              		@ frame_needed = 0, uses_anonymous_args = 0
  80              		@ link register save eliminated.
  81              	.LVL2:
  82              		.loc 2 102 0
  83 0000 0029     		cmp	r1, #0
  84 0002 03DD     		ble	.L4
  85              	.LVL3:
  86              	.LBB119:
  87              	.LBB120:
  88              		.loc 2 56 0
  89 0004 074A     		ldr	r2, .L6
  90              	.LVL4:
  91 0006 0849     		ldr	r1, .L6+4
  92              	.LVL5:
  93 0008 FFF7FEBF 		b	chprintf
  94              	.LVL6:
  95              	.L4:
  96              	.LBE120:
  97              	.LBE119:
  98              	.LBB121:
  99              	.LBB122:
 100              	.LBB123:
 101              	.LBB124:
 102              	.LBB125:
 103              	.LBB126:
 104              	.LBB127:
 105              	.LBB128:
 106              		.file 3 "/home/selim/working/ChibiOS/os/ext/CMSIS/include/core_cmFunc.h"
 107              		.loc 3 546 0
 108 000c 2023     		movs	r3, #32
 109              		.syntax unified
 110              	@ 546 "/home/selim/working/ChibiOS/os/ext/CMSIS/include/core_cmFunc.h" 1
 111 000e 83F31188 		MSR basepri, r3
 112              	@ 0 "" 2
 113              	.LVL7:
 114              		.thumb
ARM GAS  /tmp/ccwloLVr.s 			page 3


 115              		.syntax unified
 116              	.LBE128:
 117              	.LBE127:
 118              	.LBE126:
 119              	.LBE125:
 120              	.LBB129:
 121              	.LBB130:
 122              	.LBB131:
 123              	.LBB132:
 124              		.file 4 "/home/selim/working/ChibiOS/os/hal/ports/STM32/LLD/TIMv1/st_lld.h"
 125              		.loc 4 129 0
 126 0012 4FF08042 		mov	r2, #1073741824
 127              	.LVL8:
 128              	.LBE132:
 129              	.LBE131:
 130              	.LBE130:
 131              	.LBE129:
 132              	.LBB136:
 133              	.LBB137:
 134              	.LBB138:
 135              	.LBB139:
 136              	.LBB140:
 137              		.loc 3 546 0
 138 0016 0023     		movs	r3, #0
 139              	.LBE140:
 140              	.LBE139:
 141              	.LBE138:
 142              	.LBE137:
 143              	.LBE136:
 144              	.LBB145:
 145              	.LBB135:
 146              	.LBB134:
 147              	.LBB133:
 148              		.loc 4 129 0
 149 0018 526A     		ldr	r2, [r2, #36]
 150              	.LVL9:
 151              	.LBE133:
 152              	.LBE134:
 153              	.LBE135:
 154              	.LBE145:
 155              	.LBB146:
 156              	.LBB144:
 157              	.LBB143:
 158              	.LBB142:
 159              	.LBB141:
 160              		.loc 3 546 0
 161              		.syntax unified
 162              	@ 546 "/home/selim/working/ChibiOS/os/ext/CMSIS/include/core_cmFunc.h" 1
 163 001a 83F31188 		MSR basepri, r3
 164              	@ 0 "" 2
 165              	.LVL10:
 166              		.thumb
 167              		.syntax unified
 168              	.LBE141:
 169              	.LBE142:
 170              	.LBE143:
 171              	.LBE144:
ARM GAS  /tmp/ccwloLVr.s 			page 4


 172              	.LBE146:
 173              	.LBE124:
 174              	.LBE123:
 175              		.loc 2 106 0
 176 001e 0349     		ldr	r1, .L6+8
 177              	.LVL11:
 178 0020 FFF7FEBF 		b	chprintf
 179              	.LVL12:
 180              	.L7:
 181              		.align	2
 182              	.L6:
 183 0024 00000000 		.word	.LC0
 184 0028 08000000 		.word	.LC1
 185 002c 14000000 		.word	.LC2
 186              	.LBE122:
 187              	.LBE121:
 188              		.cfi_endproc
 189              	.LFE263:
 190              		.size	cmd_systime, .-cmd_systime
 191              		.section	.text.cmd_info,"ax",%progbits
 192              		.align	1
 193              		.p2align 4,,15
 194              		.syntax unified
 195              		.thumb
 196              		.thumb_func
 197              		.fpu softvfp
 198              		.type	cmd_info, %function
 199              	cmd_info:
 200              	.LFB262:
 201              		.loc 2 67 0
 202              		.cfi_startproc
 203              		@ args = 0, pretend = 0, frame = 0
 204              		@ frame_needed = 0, uses_anonymous_args = 0
 205              	.LVL13:
 206              		.loc 2 70 0
 207 0000 0029     		cmp	r1, #0
 208 0002 03DD     		ble	.L9
 209              	.LVL14:
 210              	.LBB153:
 211              	.LBB154:
 212              		.loc 2 56 0
 213 0004 194A     		ldr	r2, .L12
 214              	.LVL15:
 215 0006 1A49     		ldr	r1, .L12+4
 216              	.LVL16:
 217 0008 FFF7FEBF 		b	chprintf
 218              	.LVL17:
 219              	.L9:
 220              	.LBE154:
 221              	.LBE153:
 222              		.loc 2 67 0
 223 000c 10B5     		push	{r4, lr}
 224              		.cfi_def_cfa_offset 8
 225              		.cfi_offset 4, -8
 226              		.cfi_offset 14, -4
 227              	.LBB155:
 228              	.LBB156:
ARM GAS  /tmp/ccwloLVr.s 			page 5


 229              		.loc 2 75 0
 230 000e 194A     		ldr	r2, .L12+8
 231              	.LVL18:
 232 0010 1949     		ldr	r1, .L12+12
 233              	.LVL19:
 234              	.LBE156:
 235              	.LBE155:
 236              		.loc 2 67 0
 237 0012 82B0     		sub	sp, sp, #8
 238              		.cfi_def_cfa_offset 16
 239 0014 0446     		mov	r4, r0
 240              	.LVL20:
 241              	.LBB158:
 242              	.LBB157:
 243              		.loc 2 75 0
 244 0016 FFF7FEFF 		bl	chprintf
 245              	.LVL21:
 246              		.loc 2 77 0
 247 001a 184A     		ldr	r2, .L12+16
 248 001c 1849     		ldr	r1, .L12+20
 249 001e 2046     		mov	r0, r4
 250 0020 FFF7FEFF 		bl	chprintf
 251              	.LVL22:
 252              		.loc 2 79 0
 253 0024 174A     		ldr	r2, .L12+24
 254 0026 1849     		ldr	r1, .L12+28
 255 0028 2046     		mov	r0, r4
 256 002a FFF7FEFF 		bl	chprintf
 257              	.LVL23:
 258              		.loc 2 81 0
 259 002e 174A     		ldr	r2, .L12+32
 260 0030 1749     		ldr	r1, .L12+36
 261 0032 2046     		mov	r0, r4
 262 0034 FFF7FEFF 		bl	chprintf
 263              	.LVL24:
 264              		.loc 2 84 0
 265 0038 164A     		ldr	r2, .L12+40
 266 003a 1749     		ldr	r1, .L12+44
 267 003c 2046     		mov	r0, r4
 268 003e FFF7FEFF 		bl	chprintf
 269              	.LVL25:
 270              		.loc 2 87 0
 271 0042 164A     		ldr	r2, .L12+48
 272 0044 1649     		ldr	r1, .L12+52
 273 0046 2046     		mov	r0, r4
 274 0048 FFF7FEFF 		bl	chprintf
 275              	.LVL26:
 276              		.loc 2 90 0
 277 004c 154A     		ldr	r2, .L12+56
 278 004e 1649     		ldr	r1, .L12+60
 279 0050 2046     		mov	r0, r4
 280 0052 FFF7FEFF 		bl	chprintf
 281              	.LVL27:
 282              		.loc 2 94 0
 283 0056 154B     		ldr	r3, .L12+64
 284 0058 0093     		str	r3, [sp]
 285 005a 2046     		mov	r0, r4
ARM GAS  /tmp/ccwloLVr.s 			page 6


 286 005c 144B     		ldr	r3, .L12+68
 287 005e 154A     		ldr	r2, .L12+72
 288 0060 1549     		ldr	r1, .L12+76
 289 0062 FFF7FEFF 		bl	chprintf
 290              	.LVL28:
 291              	.LBE157:
 292              	.LBE158:
 293              		.loc 2 97 0
 294 0066 02B0     		add	sp, sp, #8
 295              		.cfi_def_cfa_offset 8
 296              		@ sp needed
 297 0068 10BD     		pop	{r4, pc}
 298              	.LVL29:
 299              	.L13:
 300 006a 00BF     		.align	2
 301              	.L12:
 302 006c 00000000 		.word	.LC3
 303 0070 08000000 		.word	.LC1
 304 0074 08000000 		.word	.LC4
 305 0078 10000000 		.word	.LC5
 306 007c 24000000 		.word	.LC6
 307 0080 6C000000 		.word	.LC7
 308 0084 80000000 		.word	.LC8
 309 0088 8C000000 		.word	.LC9
 310 008c A0000000 		.word	.LC10
 311 0090 AC000000 		.word	.LC11
 312 0094 C0000000 		.word	.LC12
 313 0098 D8000000 		.word	.LC13
 314 009c EC000000 		.word	.LC14
 315 00a0 18010000 		.word	.LC15
 316 00a4 2C010000 		.word	.LC16
 317 00a8 54010000 		.word	.LC17
 318 00ac 90010000 		.word	.LC21
 319 00b0 68010000 		.word	.LC18
 320 00b4 6C010000 		.word	.LC19
 321 00b8 78010000 		.word	.LC20
 322              		.cfi_endproc
 323              	.LFE262:
 324              		.size	cmd_info, .-cmd_info
 325              		.section	.text._strtok.constprop.2,"ax",%progbits
 326              		.align	1
 327              		.p2align 4,,15
 328              		.syntax unified
 329              		.thumb
 330              		.thumb_func
 331              		.fpu softvfp
 332              		.type	_strtok.constprop.2, %function
 333              	_strtok.constprop.2:
 334              	.LFB273:
 335              		.loc 2 37 0
 336              		.cfi_startproc
 337              		@ args = 0, pretend = 0, frame = 0
 338              		@ frame_needed = 0, uses_anonymous_args = 0
 339              	.LVL30:
 340 0000 38B5     		push	{r3, r4, r5, lr}
 341              		.cfi_def_cfa_offset 16
 342              		.cfi_offset 3, -16
ARM GAS  /tmp/ccwloLVr.s 			page 7


 343              		.cfi_offset 4, -12
 344              		.cfi_offset 5, -8
 345              		.cfi_offset 14, -4
 346              		.loc 2 37 0
 347 0002 0D46     		mov	r5, r1
 348              		.loc 2 39 0
 349 0004 98B1     		cbz	r0, .L15
 350 0006 0446     		mov	r4, r0
 351              		.loc 2 40 0
 352 0008 2860     		str	r0, [r5]
 353              	.LVL31:
 354              	.L16:
 355              		.loc 2 46 0
 356 000a 0D49     		ldr	r1, .L26
 357              	.LVL32:
 358 000c 2046     		mov	r0, r4
 359              	.LVL33:
 360 000e FFF7FEFF 		bl	strspn
 361              	.LVL34:
 362 0012 0444     		add	r4, r4, r0
 363              	.LVL35:
 364              		.loc 2 47 0
 365 0014 2046     		mov	r0, r4
 366 0016 0A49     		ldr	r1, .L26
 367 0018 FFF7FEFF 		bl	strpbrk
 368              	.LVL36:
 369              		.loc 2 48 0
 370 001c 68B1     		cbz	r0, .L25
 371              		.loc 2 49 0
 372 001e 421C     		adds	r2, r0, #1
 373 0020 0023     		movs	r3, #0
 374 0022 2A60     		str	r2, [r5]
 375 0024 0370     		strb	r3, [r0]
 376              	.L19:
 377              		.loc 2 51 0
 378 0026 2378     		ldrb	r3, [r4]	@ zero_extendqisi2
 379 0028 23B1     		cbz	r3, .L17
 380              		.loc 2 52 0
 381 002a 2046     		mov	r0, r4
 382 002c 38BD     		pop	{r3, r4, r5, pc}
 383              	.LVL37:
 384              	.L15:
 385              		.loc 2 41 0
 386 002e 0C68     		ldr	r4, [r1]
 387              	.LVL38:
 388              		.loc 2 43 0
 389 0030 002C     		cmp	r4, #0
 390 0032 EAD1     		bne	.L16
 391              	.LVL39:
 392              	.L17:
 393              		.loc 2 51 0
 394 0034 0024     		movs	r4, #0
 395              	.LVL40:
 396              		.loc 2 52 0
 397 0036 2046     		mov	r0, r4
 398 0038 38BD     		pop	{r3, r4, r5, pc}
 399              	.LVL41:
ARM GAS  /tmp/ccwloLVr.s 			page 8


 400              	.L25:
 401              		.loc 2 47 0
 402 003a 2860     		str	r0, [r5]
 403 003c F3E7     		b	.L19
 404              	.L27:
 405 003e 00BF     		.align	2
 406              	.L26:
 407 0040 00000000 		.word	.LC22
 408              		.cfi_endproc
 409              	.LFE273:
 410              		.size	_strtok.constprop.2, .-_strtok.constprop.2
 411              		.section	.text.shellInit,"ax",%progbits
 412              		.align	1
 413              		.p2align 4,,15
 414              		.global	shellInit
 415              		.syntax unified
 416              		.thumb
 417              		.thumb_func
 418              		.fpu softvfp
 419              		.type	shellInit, %function
 420              	shellInit:
 421              	.LFB266:
 422              		.loc 2 197 0
 423              		.cfi_startproc
 424              		@ args = 0, pretend = 0, frame = 0
 425              		@ frame_needed = 0, uses_anonymous_args = 0
 426              		@ link register save eliminated.
 427              	.LVL42:
 428              	.LBB159:
 429              	.LBB160:
 430              		.file 5 "/home/selim/working/ChibiOS/os/rt/include/chevents.h"
 431              		.loc 5 172 0
 432 0000 014B     		ldr	r3, .L29
 433 0002 1B60     		str	r3, [r3]
 434              	.LVL43:
 435 0004 7047     		bx	lr
 436              	.L30:
 437 0006 00BF     		.align	2
 438              	.L29:
 439 0008 00000000 		.word	.LANCHOR0
 440              	.LBE160:
 441              	.LBE159:
 442              		.cfi_endproc
 443              	.LFE266:
 444              		.size	shellInit, .-shellInit
 445              		.section	.text.shellExit,"ax",%progbits
 446              		.align	1
 447              		.p2align 4,,15
 448              		.global	shellExit
 449              		.syntax unified
 450              		.thumb
 451              		.thumb_func
 452              		.fpu softvfp
 453              		.type	shellExit, %function
 454              	shellExit:
 455              	.LFB267:
 456              		.loc 2 211 0
ARM GAS  /tmp/ccwloLVr.s 			page 9


 457              		.cfi_startproc
 458              		@ args = 0, pretend = 0, frame = 0
 459              		@ frame_needed = 0, uses_anonymous_args = 0
 460              	.LVL44:
 461 0000 10B5     		push	{r4, lr}
 462              		.cfi_def_cfa_offset 8
 463              		.cfi_offset 4, -8
 464              		.cfi_offset 14, -4
 465              	.LBB161:
 466              	.LBB162:
 467              	.LBB163:
 468              	.LBB164:
 469              		.loc 3 546 0
 470 0002 2023     		movs	r3, #32
 471              	.LBE164:
 472              	.LBE163:
 473              	.LBE162:
 474              	.LBE161:
 475              		.loc 2 211 0
 476 0004 0446     		mov	r4, r0
 477              	.LBB168:
 478              	.LBB167:
 479              	.LBB166:
 480              	.LBB165:
 481              		.loc 3 546 0
 482              		.syntax unified
 483              	@ 546 "/home/selim/working/ChibiOS/os/ext/CMSIS/include/core_cmFunc.h" 1
 484 0006 83F31188 		MSR basepri, r3
 485              	@ 0 "" 2
 486              	.LVL45:
 487              		.thumb
 488              		.syntax unified
 489              	.LBE165:
 490              	.LBE166:
 491              	.LBE167:
 492              	.LBE168:
 493              	.LBB169:
 494              	.LBB170:
 495              		.loc 5 256 0
 496 000a 0448     		ldr	r0, .L33
 497              	.LVL46:
 498 000c 0021     		movs	r1, #0
 499 000e FFF7FEFF 		bl	chEvtBroadcastFlagsI
 500              	.LVL47:
 501              	.LBE170:
 502              	.LBE169:
 503              		.loc 2 217 0
 504 0012 2046     		mov	r0, r4
 505              		.loc 2 218 0
 506 0014 BDE81040 		pop	{r4, lr}
 507              		.cfi_restore 14
 508              		.cfi_restore 4
 509              		.cfi_def_cfa_offset 0
 510              	.LVL48:
 511              		.loc 2 217 0
 512 0018 FFF7FEBF 		b	chThdExitS
 513              	.LVL49:
ARM GAS  /tmp/ccwloLVr.s 			page 10


 514              	.L34:
 515              		.align	2
 516              	.L33:
 517 001c 00000000 		.word	.LANCHOR0
 518              		.cfi_endproc
 519              	.LFE267:
 520              		.size	shellExit, .-shellExit
 521              		.section	.text.shellCreate,"ax",%progbits
 522              		.align	1
 523              		.p2align 4,,15
 524              		.global	shellCreate
 525              		.syntax unified
 526              		.thumb
 527              		.thumb_func
 528              		.fpu softvfp
 529              		.type	shellCreate, %function
 530              	shellCreate:
 531              	.LFB268:
 532              		.loc 2 233 0
 533              		.cfi_startproc
 534              		@ args = 0, pretend = 0, frame = 0
 535              		@ frame_needed = 0, uses_anonymous_args = 0
 536              	.LVL50:
 537 0000 00B5     		push	{lr}
 538              		.cfi_def_cfa_offset 4
 539              		.cfi_offset 14, -4
 540 0002 83B0     		sub	sp, sp, #12
 541              		.cfi_def_cfa_offset 16
 542              		.loc 2 235 0
 543 0004 034B     		ldr	r3, .L37
 544 0006 0090     		str	r0, [sp]
 545 0008 0020     		movs	r0, #0
 546              	.LVL51:
 547 000a FFF7FEFF 		bl	chThdCreateFromHeap
 548              	.LVL52:
 549              		.loc 2 236 0
 550 000e 03B0     		add	sp, sp, #12
 551              		.cfi_def_cfa_offset 4
 552              		@ sp needed
 553 0010 5DF804FB 		ldr	pc, [sp], #4
 554              	.L38:
 555              		.align	2
 556              	.L37:
 557 0014 00000000 		.word	shell_thread
 558              		.cfi_endproc
 559              	.LFE268:
 560              		.size	shellCreate, .-shellCreate
 561              		.section	.text.shellCreateStatic,"ax",%progbits
 562              		.align	1
 563              		.p2align 4,,15
 564              		.global	shellCreateStatic
 565              		.syntax unified
 566              		.thumb
 567              		.thumb_func
 568              		.fpu softvfp
 569              		.type	shellCreateStatic, %function
 570              	shellCreateStatic:
ARM GAS  /tmp/ccwloLVr.s 			page 11


 571              	.LFB269:
 572              		.loc 2 251 0
 573              		.cfi_startproc
 574              		@ args = 0, pretend = 0, frame = 0
 575              		@ frame_needed = 0, uses_anonymous_args = 0
 576              	.LVL53:
 577 0000 10B5     		push	{r4, lr}
 578              		.cfi_def_cfa_offset 8
 579              		.cfi_offset 4, -8
 580              		.cfi_offset 14, -4
 581 0002 82B0     		sub	sp, sp, #8
 582              		.cfi_def_cfa_offset 16
 583              		.loc 2 251 0
 584 0004 0C46     		mov	r4, r1
 585              		.loc 2 253 0
 586 0006 0090     		str	r0, [sp]
 587 0008 1146     		mov	r1, r2
 588              	.LVL54:
 589 000a 2046     		mov	r0, r4
 590              	.LVL55:
 591 000c 1A46     		mov	r2, r3
 592              	.LVL56:
 593 000e 024B     		ldr	r3, .L41
 594              	.LVL57:
 595 0010 FFF7FEFF 		bl	chThdCreateStatic
 596              	.LVL58:
 597              		.loc 2 254 0
 598 0014 02B0     		add	sp, sp, #8
 599              		.cfi_def_cfa_offset 8
 600              		@ sp needed
 601 0016 10BD     		pop	{r4, pc}
 602              	.LVL59:
 603              	.L42:
 604              		.align	2
 605              	.L41:
 606 0018 00000000 		.word	shell_thread
 607              		.cfi_endproc
 608              	.LFE269:
 609              		.size	shellCreateStatic, .-shellCreateStatic
 610              		.section	.text.shellGetLine,"ax",%progbits
 611              		.align	1
 612              		.p2align 4,,15
 613              		.global	shellGetLine
 614              		.syntax unified
 615              		.thumb
 616              		.thumb_func
 617              		.fpu softvfp
 618              		.type	shellGetLine, %function
 619              	shellGetLine:
 620              	.LFB270:
 621              		.loc 2 268 0
 622              		.cfi_startproc
 623              		@ args = 0, pretend = 0, frame = 8
 624              		@ frame_needed = 0, uses_anonymous_args = 0
 625              	.LVL60:
 626 0000 F0B5     		push	{r4, r5, r6, r7, lr}
 627              		.cfi_def_cfa_offset 20
ARM GAS  /tmp/ccwloLVr.s 			page 12


 628              		.cfi_offset 4, -20
 629              		.cfi_offset 5, -16
 630              		.cfi_offset 6, -12
 631              		.cfi_offset 7, -8
 632              		.cfi_offset 14, -4
 633              	.LBB171:
 634              		.loc 2 296 0
 635 0002 013A     		subs	r2, r2, #1
 636              	.LVL61:
 637              	.LBE171:
 638              		.loc 2 268 0
 639 0004 83B0     		sub	sp, sp, #12
 640              		.cfi_def_cfa_offset 32
 641              		.loc 2 268 0
 642 0006 0E46     		mov	r6, r1
 643              	.LVL62:
 644              	.LBB172:
 645              		.loc 2 296 0
 646 0008 8F18     		adds	r7, r1, r2
 647              	.LBE172:
 648              		.loc 2 268 0
 649 000a 0446     		mov	r4, r0
 650 000c 0D46     		mov	r5, r1
 651              	.LVL63:
 652              	.L44:
 653              	.LBB173:
 654              		.loc 2 274 0
 655 000e 2368     		ldr	r3, [r4]
 656 0010 0122     		movs	r2, #1
 657 0012 5B68     		ldr	r3, [r3, #4]
 658 0014 0DF10701 		add	r1, sp, #7
 659 0018 2046     		mov	r0, r4
 660 001a 9847     		blx	r3
 661              	.LVL64:
 662 001c 48B3     		cbz	r0, .L53
 663              		.loc 2 276 0
 664 001e 9DF80710 		ldrb	r1, [sp, #7]	@ zero_extendqisi2
 665 0022 0429     		cmp	r1, #4
 666 0024 28D0     		beq	.L60
 667              		.loc 2 280 0
 668 0026 0829     		cmp	r1, #8
 669 0028 10D0     		beq	.L47
 670              		.loc 2 280 0 is_stmt 0 discriminator 1
 671 002a 7F29     		cmp	r1, #127
 672 002c 0ED0     		beq	.L47
 673              		.loc 2 289 0 is_stmt 1
 674 002e 0D29     		cmp	r1, #13
 675 0030 29D0     		beq	.L61
 676              		.loc 2 294 0
 677 0032 1F29     		cmp	r1, #31
 678 0034 EBD9     		bls	.L44
 679              		.loc 2 296 0
 680 0036 BD42     		cmp	r5, r7
 681 0038 E9D2     		bcs	.L44
 682              		.loc 2 297 0
 683 003a 2368     		ldr	r3, [r4]
 684 003c 2046     		mov	r0, r4
ARM GAS  /tmp/ccwloLVr.s 			page 13


 685 003e 9B68     		ldr	r3, [r3, #8]
 686 0040 9847     		blx	r3
 687              	.LVL65:
 688              		.loc 2 298 0
 689 0042 9DF80730 		ldrb	r3, [sp, #7]	@ zero_extendqisi2
 690 0046 2B70     		strb	r3, [r5]
 691 0048 0135     		adds	r5, r5, #1
 692              	.LVL66:
 693 004a E0E7     		b	.L44
 694              	.L47:
 695              		.loc 2 281 0
 696 004c B542     		cmp	r5, r6
 697              		.loc 2 282 0
 698 004e 2046     		mov	r0, r4
 699              		.loc 2 281 0
 700 0050 DDD0     		beq	.L44
 701              	.LVL67:
 702              		.loc 2 282 0
 703 0052 2368     		ldr	r3, [r4]
 704 0054 9B68     		ldr	r3, [r3, #8]
 705 0056 9847     		blx	r3
 706              	.LVL68:
 707              		.loc 2 283 0
 708 0058 2368     		ldr	r3, [r4]
 709 005a 2021     		movs	r1, #32
 710 005c 9B68     		ldr	r3, [r3, #8]
 711 005e 2046     		mov	r0, r4
 712 0060 9847     		blx	r3
 713              	.LVL69:
 714              		.loc 2 284 0
 715 0062 2368     		ldr	r3, [r4]
 716 0064 9DF80710 		ldrb	r1, [sp, #7]	@ zero_extendqisi2
 717 0068 9B68     		ldr	r3, [r3, #8]
 718 006a 2046     		mov	r0, r4
 719              		.loc 2 285 0
 720 006c 013D     		subs	r5, r5, #1
 721              	.LVL70:
 722              		.loc 2 284 0
 723 006e 9847     		blx	r3
 724              	.LVL71:
 725 0070 CDE7     		b	.L44
 726              	.L53:
 727              		.loc 2 275 0
 728 0072 0120     		movs	r0, #1
 729              	.LBE173:
 730              		.loc 2 301 0
 731 0074 03B0     		add	sp, sp, #12
 732              		.cfi_remember_state
 733              		.cfi_def_cfa_offset 20
 734              		@ sp needed
 735 0076 F0BD     		pop	{r4, r5, r6, r7, pc}
 736              	.LVL72:
 737              	.L60:
 738              		.cfi_restore_state
 739              	.LBB174:
 740              		.loc 2 277 0
 741 0078 2046     		mov	r0, r4
ARM GAS  /tmp/ccwloLVr.s 			page 14


 742 007a 0749     		ldr	r1, .L62
 743 007c FFF7FEFF 		bl	chprintf
 744              	.LVL73:
 745              		.loc 2 278 0
 746 0080 0120     		movs	r0, #1
 747              	.LBE174:
 748              		.loc 2 301 0
 749 0082 03B0     		add	sp, sp, #12
 750              		.cfi_remember_state
 751              		.cfi_def_cfa_offset 20
 752              		@ sp needed
 753 0084 F0BD     		pop	{r4, r5, r6, r7, pc}
 754              	.LVL74:
 755              	.L61:
 756              		.cfi_restore_state
 757              	.LBB175:
 758              		.loc 2 290 0
 759 0086 2046     		mov	r0, r4
 760 0088 0449     		ldr	r1, .L62+4
 761 008a FFF7FEFF 		bl	chprintf
 762              	.LVL75:
 763              		.loc 2 291 0
 764 008e 0020     		movs	r0, #0
 765 0090 2870     		strb	r0, [r5]
 766              	.LBE175:
 767              		.loc 2 301 0
 768 0092 03B0     		add	sp, sp, #12
 769              		.cfi_def_cfa_offset 20
 770              		@ sp needed
 771 0094 F0BD     		pop	{r4, r5, r6, r7, pc}
 772              	.LVL76:
 773              	.L63:
 774 0096 00BF     		.align	2
 775              	.L62:
 776 0098 00000000 		.word	.LC23
 777 009c 04000000 		.word	.LC24
 778              		.cfi_endproc
 779              	.LFE270:
 780              		.size	shellGetLine, .-shellGetLine
 781              		.section	.text.shell_thread,"ax",%progbits
 782              		.align	1
 783              		.p2align 4,,15
 784              		.syntax unified
 785              		.thumb
 786              		.thumb_func
 787              		.fpu softvfp
 788              		.type	shell_thread, %function
 789              	shell_thread:
 790              	.LFB265:
 791              		.loc 2 136 0
 792              		.cfi_startproc
 793              		@ args = 0, pretend = 0, frame = 88
 794              		@ frame_needed = 0, uses_anonymous_args = 0
 795              	.LVL77:
 796 0000 2DE9F04F 		push	{r4, r5, r6, r7, r8, r9, r10, fp, lr}
 797              		.cfi_def_cfa_offset 36
 798              		.cfi_offset 4, -36
ARM GAS  /tmp/ccwloLVr.s 			page 15


 799              		.cfi_offset 5, -32
 800              		.cfi_offset 6, -28
 801              		.cfi_offset 7, -24
 802              		.cfi_offset 8, -20
 803              		.cfi_offset 9, -16
 804              		.cfi_offset 10, -12
 805              		.cfi_offset 11, -8
 806              		.cfi_offset 14, -4
 807              		.loc 2 143 0
 808 0004 5D4B     		ldr	r3, .L117
 809              		.loc 2 138 0
 810 0006 0668     		ldr	r6, [r0]
 811              	.LVL78:
 812              		.loc 2 143 0
 813 0008 9B69     		ldr	r3, [r3, #24]
 814 000a 5D4A     		ldr	r2, .L117+4
 815              		.loc 2 139 0
 816 000c D0F804B0 		ldr	fp, [r0, #4]
 817              	.LVL79:
 818              		.loc 2 144 0
 819 0010 5C49     		ldr	r1, .L117+8
 820              		.loc 2 143 0
 821 0012 9A61     		str	r2, [r3, #24]
 822              		.loc 2 136 0
 823 0014 97B0     		sub	sp, sp, #92
 824              		.cfi_def_cfa_offset 128
 825              		.loc 2 144 0
 826 0016 3046     		mov	r0, r6
 827              	.LVL80:
 828 0018 FFF7FEFF 		bl	chprintf
 829              	.LVL81:
 830              		.loc 2 146 0
 831 001c DFF89081 		ldr	r8, .L117+52
 832              		.loc 2 156 0
 833 0020 DFF89091 		ldr	r9, .L117+56
 834              		.loc 2 164 0
 835 0024 DFF890A1 		ldr	r10, .L117+60
 836              	.L66:
 837              		.loc 2 146 0
 838 0028 4146     		mov	r1, r8
 839 002a 3046     		mov	r0, r6
 840 002c FFF7FEFF 		bl	chprintf
 841              	.LVL82:
 842              		.loc 2 147 0
 843 0030 4022     		movs	r2, #64
 844 0032 06A9     		add	r1, sp, #24
 845 0034 3046     		mov	r0, r6
 846 0036 FFF7FEFF 		bl	shellGetLine
 847              	.LVL83:
 848 003a 0446     		mov	r4, r0
 849 003c 78BB     		cbnz	r0, .L112
 850              		.loc 2 151 0
 851 003e 6946     		mov	r1, sp
 852 0040 06A8     		add	r0, sp, #24
 853 0042 FFF7FEFF 		bl	_strtok.constprop.2
 854              	.LVL84:
 855              		.loc 2 154 0
ARM GAS  /tmp/ccwloLVr.s 			page 16


 856 0046 6946     		mov	r1, sp
 857              		.loc 2 151 0
 858 0048 0746     		mov	r7, r0
 859              	.LVL85:
 860              		.loc 2 154 0
 861 004a 0020     		movs	r0, #0
 862              	.LVL86:
 863 004c 01AD     		add	r5, sp, #4
 864 004e FFF7FEFF 		bl	_strtok.constprop.2
 865              	.LVL87:
 866 0052 50B1     		cbz	r0, .L113
 867              	.L72:
 868              		.loc 2 155 0
 869 0054 042C     		cmp	r4, #4
 870 0056 1BD0     		beq	.L114
 871              		.loc 2 160 0
 872 0058 45F8040B 		str	r0, [r5], #4
 873              		.loc 2 154 0
 874 005c 6946     		mov	r1, sp
 875 005e 0020     		movs	r0, #0
 876              	.LVL88:
 877              		.loc 2 160 0
 878 0060 0134     		adds	r4, r4, #1
 879              	.LVL89:
 880              		.loc 2 154 0
 881 0062 FFF7FEFF 		bl	_strtok.constprop.2
 882              	.LVL90:
 883 0066 0028     		cmp	r0, #0
 884 0068 F4D1     		bne	.L72
 885              	.L113:
 886              		.loc 2 162 0
 887 006a 16AB     		add	r3, sp, #88
 888 006c 03EB8403 		add	r3, r3, r4, lsl #2
 889 0070 43F8540C 		str	r0, [r3, #-84]
 890              		.loc 2 163 0
 891 0074 002F     		cmp	r7, #0
 892 0076 D7D0     		beq	.L66
 893              		.loc 2 164 0
 894 0078 5146     		mov	r1, r10
 895 007a 3846     		mov	r0, r7
 896              	.LVL91:
 897 007c FFF7FEFF 		bl	strcasecmp
 898              	.LVL92:
 899 0080 F0B9     		cbnz	r0, .L73
 900              		.loc 2 165 0
 901 0082 84B1     		cbz	r4, .L68
 902              	.LVL93:
 903              	.LBB196:
 904              	.LBB197:
 905              		.loc 2 56 0
 906 0084 5246     		mov	r2, r10
 907 0086 4049     		ldr	r1, .L117+12
 908 0088 3046     		mov	r0, r6
 909 008a FFF7FEFF 		bl	chprintf
 910              	.LVL94:
 911              	.LBE197:
 912              	.LBE196:
ARM GAS  /tmp/ccwloLVr.s 			page 17


 913              		.loc 2 167 0
 914 008e CBE7     		b	.L66
 915              	.LVL95:
 916              	.L114:
 917              		.loc 2 156 0
 918 0090 4946     		mov	r1, r9
 919 0092 3046     		mov	r0, r6
 920              	.LVL96:
 921 0094 FFF7FEFF 		bl	chprintf
 922              	.LVL97:
 923              		.loc 2 162 0
 924 0098 0023     		movs	r3, #0
 925 009a 0593     		str	r3, [sp, #20]
 926 009c C4E7     		b	.L66
 927              	.LVL98:
 928              	.L112:
 929              		.loc 2 148 0
 930 009e 3046     		mov	r0, r6
 931 00a0 3A49     		ldr	r1, .L117+16
 932 00a2 FFF7FEFF 		bl	chprintf
 933              	.LVL99:
 934              	.L68:
 935              	.LBB198:
 936              	.LBB199:
 937              	.LBB200:
 938              	.LBB201:
 939              	.LBB202:
 940              	.LBB203:
 941              		.loc 3 546 0
 942 00a6 2023     		movs	r3, #32
 943              		.syntax unified
 944              	@ 546 "/home/selim/working/ChibiOS/os/ext/CMSIS/include/core_cmFunc.h" 1
 945 00a8 83F31188 		MSR basepri, r3
 946              	@ 0 "" 2
 947              	.LVL100:
 948              		.thumb
 949              		.syntax unified
 950              	.LBE203:
 951              	.LBE202:
 952              	.LBE201:
 953              	.LBE200:
 954              	.LBB204:
 955              	.LBB205:
 956              		.loc 5 256 0
 957 00ac 0021     		movs	r1, #0
 958 00ae 3848     		ldr	r0, .L117+20
 959 00b0 FFF7FEFF 		bl	chEvtBroadcastFlagsI
 960              	.LVL101:
 961              	.LBE205:
 962              	.LBE204:
 963              		.loc 2 217 0
 964 00b4 0020     		movs	r0, #0
 965 00b6 FFF7FEFF 		bl	chThdExitS
 966              	.LVL102:
 967              	.LBE199:
 968              	.LBE198:
 969              		.loc 2 190 0
ARM GAS  /tmp/ccwloLVr.s 			page 18


 970 00ba 17B0     		add	sp, sp, #92
 971              		.cfi_remember_state
 972              		.cfi_def_cfa_offset 36
 973              		@ sp needed
 974 00bc BDE8F08F 		pop	{r4, r5, r6, r7, r8, r9, r10, fp, pc}
 975              	.LVL103:
 976              	.L73:
 977              		.cfi_restore_state
 978              		.loc 2 171 0
 979 00c0 3449     		ldr	r1, .L117+24
 980 00c2 3846     		mov	r0, r7
 981 00c4 FFF7FEFF 		bl	strcasecmp
 982              	.LVL104:
 983 00c8 30B9     		cbnz	r0, .L115
 984              		.loc 2 172 0
 985 00ca BCB1     		cbz	r4, .L78
 986              	.LVL105:
 987              	.LBB206:
 988              	.LBB207:
 989              		.loc 2 56 0
 990 00cc 314A     		ldr	r2, .L117+24
 991 00ce 2E49     		ldr	r1, .L117+12
 992 00d0 3046     		mov	r0, r6
 993 00d2 FFF7FEFF 		bl	chprintf
 994              	.LVL106:
 995              	.LBE207:
 996              	.LBE206:
 997              		.loc 2 174 0
 998 00d6 A7E7     		b	.L66
 999              	.L115:
 1000              	.LVL107:
 1001              	.LBB208:
 1002              	.LBB209:
 1003              		.loc 2 121 0
 1004 00d8 2F4D     		ldr	r5, .L117+28
 1005 00da 2868     		ldr	r0, [r5]
 1006 00dc 18B9     		cbnz	r0, .L86
 1007 00de 32E0     		b	.L77
 1008              	.LVL108:
 1009              	.L116:
 1010 00e0 55F8080F 		ldr	r0, [r5, #8]!
 1011              	.LVL109:
 1012 00e4 78B3     		cbz	r0, .L77
 1013              	.LVL110:
 1014              	.L86:
 1015              		.loc 2 122 0
 1016 00e6 3946     		mov	r1, r7
 1017 00e8 FFF7FEFF 		bl	strcasecmp
 1018              	.LVL111:
 1019 00ec 0028     		cmp	r0, #0
 1020 00ee F7D1     		bne	.L116
 1021              	.LVL112:
 1022              	.L111:
 1023              	.LBE209:
 1024              	.LBE208:
 1025              	.LBB210:
 1026              	.LBB211:
ARM GAS  /tmp/ccwloLVr.s 			page 19


 1027              		.loc 2 123 0
 1028 00f0 6B68     		ldr	r3, [r5, #4]
 1029 00f2 01AA     		add	r2, sp, #4
 1030 00f4 2146     		mov	r1, r4
 1031 00f6 3046     		mov	r0, r6
 1032 00f8 9847     		blx	r3
 1033              	.LVL113:
 1034 00fa 95E7     		b	.L66
 1035              	.L78:
 1036              	.LBE211:
 1037              	.LBE210:
 1038              	.LBB213:
 1039              	.LBB214:
 1040              		.loc 2 61 0
 1041 00fc 264D     		ldr	r5, .L117+28
 1042              	.LBE214:
 1043              	.LBE213:
 1044              		.loc 2 176 0
 1045 00fe 2749     		ldr	r1, .L117+32
 1046 0100 3046     		mov	r0, r6
 1047 0102 FFF7FEFF 		bl	chprintf
 1048              	.LVL114:
 1049              	.LBB216:
 1050              	.LBB215:
 1051              		.loc 2 61 0
 1052 0106 2A68     		ldr	r2, [r5]
 1053 0108 42B1     		cbz	r2, .L83
 1054              		.loc 2 62 0
 1055 010a 254F     		ldr	r7, .L117+36
 1056              	.LVL115:
 1057              	.L82:
 1058 010c 3946     		mov	r1, r7
 1059 010e 3046     		mov	r0, r6
 1060 0110 FFF7FEFF 		bl	chprintf
 1061              	.LVL116:
 1062              		.loc 2 61 0
 1063 0114 55F8082F 		ldr	r2, [r5, #8]!
 1064              	.LVL117:
 1065 0118 002A     		cmp	r2, #0
 1066 011a F7D1     		bne	.L82
 1067              	.LVL118:
 1068              	.L83:
 1069              	.LBE215:
 1070              	.LBE216:
 1071              		.loc 2 178 0
 1072 011c BBF1000F 		cmp	fp, #0
 1073 0120 0CD0     		beq	.L81
 1074              	.LVL119:
 1075              	.LBB217:
 1076              	.LBB218:
 1077              		.loc 2 61 0
 1078 0122 DBF80020 		ldr	r2, [fp]
 1079 0126 4AB1     		cbz	r2, .L81
 1080              		.loc 2 62 0
 1081 0128 1D4D     		ldr	r5, .L117+36
 1082 012a 5C46     		mov	r4, fp
 1083              	.LVL120:
ARM GAS  /tmp/ccwloLVr.s 			page 20


 1084              	.L84:
 1085 012c 2946     		mov	r1, r5
 1086 012e 3046     		mov	r0, r6
 1087 0130 FFF7FEFF 		bl	chprintf
 1088              	.LVL121:
 1089              		.loc 2 61 0
 1090 0134 54F8082F 		ldr	r2, [r4, #8]!
 1091              	.LVL122:
 1092 0138 002A     		cmp	r2, #0
 1093 013a F7D1     		bne	.L84
 1094              	.LVL123:
 1095              	.L81:
 1096              	.LBE218:
 1097              	.LBE217:
 1098              		.loc 2 180 0
 1099 013c 1949     		ldr	r1, .L117+40
 1100 013e 3046     		mov	r0, r6
 1101 0140 FFF7FEFF 		bl	chprintf
 1102              	.LVL124:
 1103 0144 70E7     		b	.L66
 1104              	.LVL125:
 1105              	.L77:
 1106              		.loc 2 182 0
 1107 0146 BBF1000F 		cmp	fp, #0
 1108 014a 0DD0     		beq	.L89
 1109              	.LVL126:
 1110              	.LBB219:
 1111              	.LBB212:
 1112              		.loc 2 121 0
 1113 014c DBF80000 		ldr	r0, [fp]
 1114 0150 50B1     		cbz	r0, .L89
 1115 0152 5D46     		mov	r5, fp
 1116 0154 02E0     		b	.L88
 1117              	.LVL127:
 1118              	.L87:
 1119 0156 55F8080F 		ldr	r0, [r5, #8]!
 1120              	.LVL128:
 1121 015a 28B1     		cbz	r0, .L89
 1122              	.LVL129:
 1123              	.L88:
 1124              		.loc 2 122 0
 1125 015c 3946     		mov	r1, r7
 1126 015e FFF7FEFF 		bl	strcasecmp
 1127              	.LVL130:
 1128 0162 0028     		cmp	r0, #0
 1129 0164 F7D1     		bne	.L87
 1130 0166 C3E7     		b	.L111
 1131              	.LVL131:
 1132              	.L89:
 1133              	.LBE212:
 1134              	.LBE219:
 1135              		.loc 2 184 0
 1136 0168 3A46     		mov	r2, r7
 1137 016a 0F49     		ldr	r1, .L117+44
 1138 016c 3046     		mov	r0, r6
 1139 016e FFF7FEFF 		bl	chprintf
 1140              	.LVL132:
ARM GAS  /tmp/ccwloLVr.s 			page 21


 1141              		.loc 2 185 0
 1142 0172 0E49     		ldr	r1, .L117+48
 1143 0174 3046     		mov	r0, r6
 1144 0176 FFF7FEFF 		bl	chprintf
 1145              	.LVL133:
 1146 017a 55E7     		b	.L66
 1147              	.L118:
 1148              		.align	2
 1149              	.L117:
 1150 017c 00000000 		.word	ch
 1151 0180 00000000 		.word	.LC25
 1152 0184 08000000 		.word	.LC26
 1153 0188 08000000 		.word	.LC1
 1154 018c 28000000 		.word	.LC28
 1155 0190 00000000 		.word	.LANCHOR0
 1156 0194 54000000 		.word	.LC31
 1157 0198 00000000 		.word	.LANCHOR1
 1158 019c 5C000000 		.word	.LC32
 1159 01a0 74000000 		.word	.LC33
 1160 01a4 04000000 		.word	.LC24
 1161 01a8 78000000 		.word	.LC34
 1162 01ac 7C000000 		.word	.LC35
 1163 01b0 20000000 		.word	.LC27
 1164 01b4 34000000 		.word	.LC29
 1165 01b8 4C000000 		.word	.LC30
 1166              		.cfi_endproc
 1167              	.LFE265:
 1168              		.size	shell_thread, .-shell_thread
 1169              		.global	shell_terminated
 1170              		.section	.bss.shell_terminated,"aw",%nobits
 1171              		.align	2
 1172              		.set	.LANCHOR0,. + 0
 1173              		.type	shell_terminated, %object
 1174              		.size	shell_terminated, 4
 1175              	shell_terminated:
 1176 0000 00000000 		.space	4
 1177              		.section	.data.local_commands,"aw",%progbits
 1178              		.align	2
 1179              		.set	.LANCHOR1,. + 0
 1180              		.type	local_commands, %object
 1181              		.size	local_commands, 24
 1182              	local_commands:
 1183 0000 00000000 		.word	.LC3
 1184 0004 00000000 		.word	cmd_info
 1185 0008 00000000 		.word	.LC0
 1186 000c 00000000 		.word	cmd_systime
 1187 0010 00000000 		.word	0
 1188 0014 00000000 		.word	0
 1189              		.section	.rodata._strtok.constprop.2.str1.4,"aMS",%progbits,1
 1190              		.align	2
 1191              	.LC22:
 1192 0000 200900   		.ascii	" \011\000"
 1193              		.section	.rodata.cmd_info.str1.4,"aMS",%progbits,1
 1194              		.align	2
 1195              	.LC3:
 1196 0000 696E666F 		.ascii	"info\000"
 1196      00
ARM GAS  /tmp/ccwloLVr.s 			page 22


 1197 0005 000000   		.space	3
 1198              	.LC4:
 1199 0008 332E302E 		.ascii	"3.0.0p6\000"
 1199      30703600 
 1200              	.LC5:
 1201 0010 4B65726E 		.ascii	"Kernel:       %s\015\012\000"
 1201      656C3A20 
 1201      20202020 
 1201      20202573 
 1201      0D0A00
 1202 0023 00       		.space	1
 1203              	.LC6:
 1204 0024 47434320 		.ascii	"GCC 6.2.1 20161205 (release) [ARM/embedded-6-branch"
 1204      362E322E 
 1204      31203230 
 1204      31363132 
 1204      30352028 
 1205 0057 20726576 		.ascii	" revision 243739]\000"
 1205      6973696F 
 1205      6E203234 
 1205      33373339 
 1205      5D00
 1206 0069 000000   		.space	3
 1207              	.LC7:
 1208 006c 436F6D70 		.ascii	"Compiler:     %s\015\012\000"
 1208      696C6572 
 1208      3A202020 
 1208      20202573 
 1208      0D0A00
 1209 007f 00       		.space	1
 1210              	.LC8:
 1211 0080 41524D76 		.ascii	"ARMv7-ME\000"
 1211      372D4D45 
 1211      00
 1212 0089 000000   		.space	3
 1213              	.LC9:
 1214 008c 41726368 		.ascii	"Architecture: %s\015\012\000"
 1214      69746563 
 1214      74757265 
 1214      3A202573 
 1214      0D0A00
 1215 009f 00       		.space	1
 1216              	.LC10:
 1217 00a0 436F7274 		.ascii	"Cortex-M4\000"
 1217      65782D4D 
 1217      3400
 1218 00aa 0000     		.space	2
 1219              	.LC11:
 1220 00ac 436F7265 		.ascii	"Core Variant: %s\015\012\000"
 1220      20566172 
 1220      69616E74 
 1220      3A202573 
 1220      0D0A00
 1221 00bf 00       		.space	1
 1222              	.LC12:
 1223 00c0 41647661 		.ascii	"Advanced kernel mode\000"
 1223      6E636564 
ARM GAS  /tmp/ccwloLVr.s 			page 23


 1223      206B6572 
 1223      6E656C20 
 1223      6D6F6465 
 1224 00d5 000000   		.space	3
 1225              	.LC13:
 1226 00d8 506F7274 		.ascii	"Port Info:    %s\015\012\000"
 1226      20496E66 
 1226      6F3A2020 
 1226      20202573 
 1226      0D0A00
 1227 00eb 00       		.space	1
 1228              	.LC14:
 1229 00ec 53544D33 		.ascii	"STM32F407 High Performance with DSP and FPU\000"
 1229      32463430 
 1229      37204869 
 1229      67682050 
 1229      6572666F 
 1230              	.LC15:
 1231 0118 506C6174 		.ascii	"Platform:     %s\015\012\000"
 1231      666F726D 
 1231      3A202020 
 1231      20202573 
 1231      0D0A00
 1232 012b 00       		.space	1
 1233              	.LC16:
 1234 012c 53544D69 		.ascii	"STMicroelectronics STM32F4-Discovery\000"
 1234      63726F65 
 1234      6C656374 
 1234      726F6E69 
 1234      63732053 
 1235 0151 000000   		.space	3
 1236              	.LC17:
 1237 0154 426F6172 		.ascii	"Board:        %s\015\012\000"
 1237      643A2020 
 1237      20202020 
 1237      20202573 
 1237      0D0A00
 1238 0167 00       		.space	1
 1239              	.LC18:
 1240 0168 202D2000 		.ascii	" - \000"
 1241              	.LC19:
 1242 016c 4A756E20 		.ascii	"Jun  6 2018\000"
 1242      20362032 
 1242      30313800 
 1243              	.LC20:
 1244 0178 4275696C 		.ascii	"Build time:   %s%s%s\015\012\000"
 1244      64207469 
 1244      6D653A20 
 1244      20202573 
 1244      25732573 
 1245 018f 00       		.space	1
 1246              	.LC21:
 1247 0190 32333A31 		.ascii	"23:12:22\000"
 1247      323A3232 
 1247      00
 1248              		.section	.rodata.cmd_systime.str1.4,"aMS",%progbits,1
 1249              		.align	2
ARM GAS  /tmp/ccwloLVr.s 			page 24


 1250              	.LC0:
 1251 0000 73797374 		.ascii	"systime\000"
 1251      696D6500 
 1252              	.LC1:
 1253 0008 55736167 		.ascii	"Usage: %s\015\012\000"
 1253      653A2025 
 1253      730D0A00 
 1254              	.LC2:
 1255 0014 256C750D 		.ascii	"%lu\015\012\000"
 1255      0A00
 1256              		.section	.rodata.shellGetLine.str1.4,"aMS",%progbits,1
 1257              		.align	2
 1258              	.LC23:
 1259 0000 5E4400   		.ascii	"^D\000"
 1260 0003 00       		.space	1
 1261              	.LC24:
 1262 0004 0D0A00   		.ascii	"\015\012\000"
 1263              		.section	.rodata.shell_thread.str1.4,"aMS",%progbits,1
 1264              		.align	2
 1265              	.LC25:
 1266 0000 7368656C 		.ascii	"shell\000"
 1266      6C00
 1267 0006 0000     		.space	2
 1268              	.LC26:
 1269 0008 0D0A4368 		.ascii	"\015\012ChibiOS/RT Shell\015\012\000"
 1269      6962694F 
 1269      532F5254 
 1269      20536865 
 1269      6C6C0D0A 
 1270 001d 000000   		.space	3
 1271              	.LC27:
 1272 0020 63683E20 		.ascii	"ch> \000"
 1272      00
 1273 0025 000000   		.space	3
 1274              	.LC28:
 1275 0028 0D0A6C6F 		.ascii	"\015\012logout\000"
 1275      676F7574 
 1275      00
 1276 0031 000000   		.space	3
 1277              	.LC29:
 1278 0034 746F6F20 		.ascii	"too many arguments\015\012\000"
 1278      6D616E79 
 1278      20617267 
 1278      756D656E 
 1278      74730D0A 
 1279 0049 000000   		.space	3
 1280              	.LC30:
 1281 004c 65786974 		.ascii	"exit\000"
 1281      00
 1282 0051 000000   		.space	3
 1283              	.LC31:
 1284 0054 68656C70 		.ascii	"help\000"
 1284      00
 1285 0059 000000   		.space	3
 1286              	.LC32:
 1287 005c 436F6D6D 		.ascii	"Commands: help exit \000"
 1287      616E6473 
ARM GAS  /tmp/ccwloLVr.s 			page 25


 1287      3A206865 
 1287      6C702065 
 1287      78697420 
 1288 0071 000000   		.space	3
 1289              	.LC33:
 1290 0074 25732000 		.ascii	"%s \000"
 1291              	.LC34:
 1292 0078 257300   		.ascii	"%s\000"
 1293 007b 00       		.space	1
 1294              	.LC35:
 1295 007c 203F0D0A 		.ascii	" ?\015\012\000"
 1295      00
 1296              		.text
 1297              	.Letext0:
 1298              		.file 6 "/usr/lib/gcc/arm-none-eabi/6.2.1/include/stddef.h"
 1299              		.file 7 "/usr/arm-none-eabi/include/machine/_default_types.h"
 1300              		.file 8 "/usr/arm-none-eabi/include/sys/lock.h"
 1301              		.file 9 "/usr/arm-none-eabi/include/sys/_types.h"
 1302              		.file 10 "/usr/arm-none-eabi/include/sys/reent.h"
 1303              		.file 11 "/usr/arm-none-eabi/include/sys/_stdint.h"
 1304              		.file 12 "/home/selim/working/ChibiOS/os/rt/ports/ARMCMx/compilers/GCC/chtypes.h"
 1305              		.file 13 "/home/selim/working/ChibiOS/os/rt/include/chsystypes.h"
 1306              		.file 14 "/home/selim/working/ChibiOS/os/rt/include/chschd.h"
 1307              		.file 15 "/home/selim/working/ChibiOS/os/ext/CMSIS/include/core_cm4.h"
 1308              		.file 16 "/home/selim/working/ChibiOS/os/ext/CMSIS/ST/system_stm32f4xx.h"
 1309              		.file 17 "/home/selim/working/ChibiOS/os/ext/CMSIS/ST/stm32f407xx.h"
 1310              		.file 18 "/home/selim/working/ChibiOS/os/rt/ports/ARMCMx/chcore.h"
 1311              		.file 19 "/home/selim/working/ChibiOS/os/rt/ports/ARMCMx/chcore_v7m.h"
 1312              		.file 20 "/home/selim/working/ChibiOS/os/hal/ports/STM32/LLD/TIMv1/stm32_tim.h"
 1313              		.file 21 "/home/selim/working/ChibiOS/os/rt/include/chtm.h"
 1314              		.file 22 "/home/selim/working/ChibiOS/os/rt/include/chsem.h"
 1315              		.file 23 "/home/selim/working/ChibiOS/os/rt/include/chmtx.h"
 1316              		.file 24 "/home/selim/working/ChibiOS/os/rt/include/chregistry.h"
 1317              		.file 25 "/home/selim/working/ChibiOS/os/rt/include/chqueues.h"
 1318              		.file 26 "/home/selim/working/ChibiOS/os/rt/include/chstreams.h"
 1319              		.file 27 "/home/selim/working/ChibiOS/os/hal/ports/STM32/STM32F4xx/stm32_dma.h"
 1320              		.file 28 "/home/selim/working/ChibiOS/os/hal/ports/STM32/LLD/GPIOv2/pal_lld.h"
 1321              		.file 29 "/home/selim/working/ChibiOS/os/hal/include/adc.h"
 1322              		.file 30 "/home/selim/working/ChibiOS/os/hal/ports/STM32/STM32F4xx/adc_lld.h"
 1323              		.file 31 "/home/selim/working/ChibiOS/os/hal/include/gpt.h"
 1324              		.file 32 "/home/selim/working/ChibiOS/os/hal/ports/STM32/LLD/TIMv1/gpt_lld.h"
 1325              		.file 33 "/home/selim/working/ChibiOS/os/hal/include/pwm.h"
 1326              		.file 34 "/home/selim/working/ChibiOS/os/hal/ports/STM32/LLD/TIMv1/pwm_lld.h"
 1327              		.file 35 "/home/selim/working/ChibiOS/os/hal/include/serial.h"
 1328              		.file 36 "/home/selim/working/ChibiOS/os/hal/ports/STM32/LLD/USARTv1/serial_lld.h"
 1329              		.file 37 "/home/selim/working/ChibiOS/os/hal/include/spi.h"
 1330              		.file 38 "/home/selim/working/ChibiOS/os/hal/ports/STM32/LLD/SPIv1/spi_lld.h"
 1331              		.file 39 "/home/selim/working/ChibiOS/os/hal/include/usb.h"
 1332              		.file 40 "/home/selim/working/ChibiOS/os/hal/ports/STM32/LLD/OTGv1/usb_lld.h"
 1333              		.file 41 "/home/selim/working/ChibiOS/os/hal/ports/STM32/LLD/OTGv1/stm32_otg.h"
 1334              		.file 42 "/home/selim/working/ChibiOS/os/various/shell.h"
 1335              		.file 43 "/usr/lib/gcc/arm-none-eabi/6.2.1/include/stdarg.h"
 1336              		.file 44 "<built-in>"
 1337              		.file 45 "/home/selim/working/ChibiOS/os/rt/include/chsys.h"
 1338              		.file 46 "/home/selim/working/ChibiOS/os/rt/include/chvt.h"
 1339              		.file 47 "/home/selim/working/ChibiOS/os/rt/ports/ARMCMx/chcore_timer.h"
 1340              		.file 48 "/home/selim/working/ChibiOS/os/rt/include/chthreads.h"
ARM GAS  /tmp/ccwloLVr.s 			page 26


 1341              		.file 49 "/home/selim/working/ChibiOS/os/rt/include/chdynamic.h"
 1342              		.file 50 "/usr/arm-none-eabi/include/string.h"