ARM GAS  /tmp/ccp4kKgx.s 			page 1


   1              		.cpu cortex-m4
   2              		.eabi_attribute 20, 1
   3              		.eabi_attribute 21, 1
   4              		.eabi_attribute 23, 3
   5              		.eabi_attribute 24, 1
   6              		.eabi_attribute 25, 1
   7              		.eabi_attribute 26, 1
   8              		.eabi_attribute 30, 2
   9              		.eabi_attribute 34, 1
  10              		.eabi_attribute 18, 4
  11              		.file	"spi_lld.c"
  12              		.text
  13              	.Ltext0:
  14              		.cfi_sections	.debug_frame
  15              		.section	.text.spi_lld_serve_tx_interrupt,"ax",%progbits
  16              		.align	1
  17              		.p2align 4,,15
  18              		.syntax unified
  19              		.thumb
  20              		.thumb_func
  21              		.fpu softvfp
  22              		.type	spi_lld_serve_tx_interrupt, %function
  23              	spi_lld_serve_tx_interrupt:
  24              	.LFB259:
  25              		.file 1 "/home/selim/working/ChibiOS/os/hal/ports/STM32/LLD/SPIv1/spi_lld.c"
  26              		.loc 1 158 0
  27              		.cfi_startproc
  28              		@ args = 0, pretend = 0, frame = 0
  29              		@ frame_needed = 0, uses_anonymous_args = 0
  30              		@ link register save eliminated.
  31              	.LVL0:
  32              		.loc 1 163 0
  33 0000 11F00C0F 		tst	r1, #12
  34 0004 00D1     		bne	.L4
  35 0006 7047     		bx	lr
  36              	.L4:
  37              	.LVL1:
  38              	.LBB56:
  39              	.LBB57:
  40              		.file 2 "/home/selim/working/ChibiOS/os/hal/osal/rt/osal.h"
  41              		.loc 2 416 0
  42 0008 0148     		ldr	r0, .L5
  43              	.LVL2:
  44 000a FFF7FEBF 		b	chSysHalt
  45              	.LVL3:
  46              	.L6:
  47 000e 00BF     		.align	2
  48              	.L5:
  49 0010 00000000 		.word	.LC0
  50              	.LBE57:
  51              	.LBE56:
  52              		.cfi_endproc
  53              	.LFE259:
  54              		.size	spi_lld_serve_tx_interrupt, .-spi_lld_serve_tx_interrupt
  55              		.section	.text.spi_lld_serve_rx_interrupt,"ax",%progbits
  56              		.align	1
  57              		.p2align 4,,15
ARM GAS  /tmp/ccp4kKgx.s 			page 2


  58              		.syntax unified
  59              		.thumb
  60              		.thumb_func
  61              		.fpu softvfp
  62              		.type	spi_lld_serve_rx_interrupt, %function
  63              	spi_lld_serve_rx_interrupt:
  64              	.LFB258:
  65              		.loc 1 132 0
  66              		.cfi_startproc
  67              		@ args = 0, pretend = 0, frame = 0
  68              		@ frame_needed = 0, uses_anonymous_args = 0
  69              	.LVL4:
  70              		.loc 1 136 0
  71 0000 11F00C0F 		tst	r1, #12
  72              		.loc 1 132 0
  73 0004 38B5     		push	{r3, r4, r5, lr}
  74              		.cfi_def_cfa_offset 16
  75              		.cfi_offset 3, -16
  76              		.cfi_offset 4, -12
  77              		.cfi_offset 5, -8
  78              		.cfi_offset 14, -4
  79              		.loc 1 132 0
  80 0006 0446     		mov	r4, r0
  81              		.loc 1 136 0
  82 0008 34D1     		bne	.L22
  83              	.LVL5:
  84              	.L8:
  85              		.loc 1 144 0
  86 000a 606A     		ldr	r0, [r4, #36]
  87 000c 0268     		ldr	r2, [r0]
  88 000e 1368     		ldr	r3, [r2]
  89 0010 23F01F03 		bic	r3, r3, #31
  90 0014 1360     		str	r3, [r2]
  91              	.L9:
  92              		.loc 1 144 0 is_stmt 0 discriminator 2
  93 0016 1368     		ldr	r3, [r2]
  94 0018 D907     		lsls	r1, r3, #31
  95 001a FCD4     		bmi	.L9
  96              		.loc 1 144 0 discriminator 3
  97 001c 057A     		ldrb	r5, [r0, #8]	@ zero_extendqisi2
  98              		.loc 1 145 0 is_stmt 1 discriminator 3
  99 001e 216A     		ldr	r1, [r4, #32]
 100              		.loc 1 144 0 discriminator 3
 101 0020 4068     		ldr	r0, [r0, #4]
 102              		.loc 1 145 0 discriminator 3
 103 0022 0A68     		ldr	r2, [r1]
 104              		.loc 1 144 0 discriminator 3
 105 0024 3D23     		movs	r3, #61
 106 0026 AB40     		lsls	r3, r3, r5
 107 0028 0360     		str	r3, [r0]
 108              		.loc 1 145 0 discriminator 3
 109 002a 1368     		ldr	r3, [r2]
 110 002c 23F01F03 		bic	r3, r3, #31
 111 0030 1360     		str	r3, [r2]
 112              	.L10:
 113              		.loc 1 145 0 is_stmt 0 discriminator 2
 114 0032 1368     		ldr	r3, [r2]
ARM GAS  /tmp/ccp4kKgx.s 			page 3


 115 0034 DB07     		lsls	r3, r3, #31
 116 0036 FCD4     		bmi	.L10
 117              		.loc 1 149 0 is_stmt 1 discriminator 3
 118 0038 6368     		ldr	r3, [r4, #4]
 119              		.loc 1 145 0 discriminator 3
 120 003a 087A     		ldrb	r0, [r1, #8]	@ zero_extendqisi2
 121              		.loc 1 149 0 discriminator 3
 122 003c 1A68     		ldr	r2, [r3]
 123              		.loc 1 145 0 discriminator 3
 124 003e 4968     		ldr	r1, [r1, #4]
 125 0040 3D23     		movs	r3, #61
 126 0042 8340     		lsls	r3, r3, r0
 127 0044 0B60     		str	r3, [r1]
 128              		.loc 1 149 0 discriminator 3
 129 0046 92B1     		cbz	r2, .L11
 130              		.loc 1 149 0 is_stmt 0 discriminator 1
 131 0048 0423     		movs	r3, #4
 132 004a 2370     		strb	r3, [r4]
 133 004c 2046     		mov	r0, r4
 134 004e 9047     		blx	r2
 135              	.LVL6:
 136 0050 2378     		ldrb	r3, [r4]	@ zero_extendqisi2
 137 0052 042B     		cmp	r3, #4
 138 0054 0BD0     		beq	.L11
 139              	.L12:
 140              	.LVL7:
 141              	.LBB58:
 142              	.LBB59:
 143              	.LBB60:
 144              	.LBB61:
 145              	.LBB62:
 146              	.LBB63:
 147              		.file 3 "/home/selim/working/ChibiOS/os/ext/CMSIS/include/core_cmFunc.h"
 148              		.loc 3 546 0 is_stmt 1 discriminator 4
 149 0056 2023     		movs	r3, #32
 150              		.syntax unified
 151              	@ 546 "/home/selim/working/ChibiOS/os/ext/CMSIS/include/core_cmFunc.h" 1
 152 0058 83F31188 		MSR basepri, r3
 153              	@ 0 "" 2
 154              	.LVL8:
 155              		.thumb
 156              		.syntax unified
 157              	.LBE63:
 158              	.LBE62:
 159              	.LBE61:
 160              	.LBE60:
 161              	.LBE59:
 162              	.LBE58:
 163              	.LBB64:
 164              	.LBB65:
 165              		.loc 2 682 0 discriminator 4
 166 005c 0021     		movs	r1, #0
 167 005e 04F10800 		add	r0, r4, #8
 168              	.LVL9:
 169 0062 FFF7FEFF 		bl	chThdResumeI
 170              	.LVL10:
 171              	.LBE65:
ARM GAS  /tmp/ccp4kKgx.s 			page 4


 172              	.LBE64:
 173              	.LBB66:
 174              	.LBB67:
 175              	.LBB68:
 176              	.LBB69:
 177              	.LBB70:
 178              	.LBB71:
 179              		.loc 3 546 0 discriminator 4
 180 0066 0023     		movs	r3, #0
 181              		.syntax unified
 182              	@ 546 "/home/selim/working/ChibiOS/os/ext/CMSIS/include/core_cmFunc.h" 1
 183 0068 83F31188 		MSR basepri, r3
 184              	@ 0 "" 2
 185              	.LVL11:
 186              		.thumb
 187              		.syntax unified
 188 006c 38BD     		pop	{r3, r4, r5, pc}
 189              	.LVL12:
 190              	.L11:
 191              	.LBE71:
 192              	.LBE70:
 193              	.LBE69:
 194              	.LBE68:
 195              	.LBE67:
 196              	.LBE66:
 197              		.loc 1 149 0 discriminator 3
 198 006e 0223     		movs	r3, #2
 199 0070 2370     		strb	r3, [r4]
 200 0072 F0E7     		b	.L12
 201              	.LVL13:
 202              	.L22:
 203              	.LBB72:
 204              	.LBB73:
 205              		.loc 2 416 0
 206 0074 0148     		ldr	r0, .L23
 207              	.LVL14:
 208 0076 FFF7FEFF 		bl	chSysHalt
 209              	.LVL15:
 210 007a C6E7     		b	.L8
 211              	.L24:
 212              		.align	2
 213              	.L23:
 214 007c 00000000 		.word	.LC0
 215              	.LBE73:
 216              	.LBE72:
 217              		.cfi_endproc
 218              	.LFE258:
 219              		.size	spi_lld_serve_rx_interrupt, .-spi_lld_serve_rx_interrupt
 220              		.section	.text.spi_lld_init,"ax",%progbits
 221              		.align	1
 222              		.p2align 4,,15
 223              		.global	spi_lld_init
 224              		.syntax unified
 225              		.thumb
 226              		.thumb_func
 227              		.fpu softvfp
 228              		.type	spi_lld_init, %function
ARM GAS  /tmp/ccp4kKgx.s 			page 5


 229              	spi_lld_init:
 230              	.LFB260:
 231              		.loc 1 185 0
 232              		.cfi_startproc
 233              		@ args = 0, pretend = 0, frame = 0
 234              		@ frame_needed = 0, uses_anonymous_args = 0
 235 0000 70B5     		push	{r4, r5, r6, lr}
 236              		.cfi_def_cfa_offset 16
 237              		.cfi_offset 4, -16
 238              		.cfi_offset 5, -12
 239              		.cfi_offset 6, -8
 240              		.cfi_offset 14, -4
 241              		.loc 1 190 0
 242 0002 114E     		ldr	r6, .L27
 243              		.loc 1 187 0
 244 0004 114B     		ldr	r3, .L27+4
 245              		.loc 1 208 0
 246 0006 124C     		ldr	r4, .L27+8
 247              		.loc 1 192 0
 248 0008 124D     		ldr	r5, .L27+12
 249              		.loc 1 187 0
 250 000a 4FF6FF72 		movw	r2, #65535
 251              		.loc 1 190 0
 252 000e 3046     		mov	r0, r6
 253              		.loc 1 187 0
 254 0010 1A80     		strh	r2, [r3]	@ movhi
 255              		.loc 1 190 0
 256 0012 FFF7FEFF 		bl	spiObjectInit
 257              	.LVL16:
 258              		.loc 1 191 0
 259 0016 1049     		ldr	r1, .L27+16
 260              		.loc 1 194 0
 261 0018 104A     		ldr	r2, .L27+20
 262              		.loc 1 200 0
 263 001a 114B     		ldr	r3, .L27+24
 264              		.loc 1 191 0
 265 001c F161     		str	r1, [r6, #28]
 266              		.loc 1 208 0
 267 001e 2046     		mov	r0, r4
 268              		.loc 1 193 0
 269 0020 05F12401 		add	r1, r5, #36
 270              		.loc 1 192 0
 271 0024 3562     		str	r5, [r6, #32]
 272              		.loc 1 193 0
 273 0026 7162     		str	r1, [r6, #36]
 274              		.loc 1 194 0
 275 0028 B262     		str	r2, [r6, #40]
 276              		.loc 1 200 0
 277 002a F362     		str	r3, [r6, #44]
 278              		.loc 1 208 0
 279 002c FFF7FEFF 		bl	spiObjectInit
 280              	.LVL17:
 281              		.loc 1 209 0
 282 0030 0C49     		ldr	r1, .L27+28
 283              		.loc 1 212 0
 284 0032 0D4A     		ldr	r2, .L27+32
 285              		.loc 1 218 0
ARM GAS  /tmp/ccp4kKgx.s 			page 6


 286 0034 0D4B     		ldr	r3, .L27+36
 287              		.loc 1 209 0
 288 0036 E161     		str	r1, [r4, #28]
 289              		.loc 1 210 0
 290 0038 A5F13C01 		sub	r1, r5, #60
 291              		.loc 1 211 0
 292 003c 303D     		subs	r5, r5, #48
 293              		.loc 1 210 0
 294 003e 2162     		str	r1, [r4, #32]
 295              		.loc 1 211 0
 296 0040 6562     		str	r5, [r4, #36]
 297              		.loc 1 212 0
 298 0042 A262     		str	r2, [r4, #40]
 299              		.loc 1 218 0
 300 0044 E362     		str	r3, [r4, #44]
 301 0046 70BD     		pop	{r4, r5, r6, pc}
 302              	.L28:
 303              		.align	2
 304              	.L27:
 305 0048 00000000 		.word	.LANCHOR1
 306 004c 00000000 		.word	.LANCHOR0
 307 0050 00000000 		.word	.LANCHOR2
 308 0054 60000000 		.word	_stm32_dma_streams+96
 309 0058 00300140 		.word	1073819648
 310 005c 16000106 		.word	100728854
 311 0060 46000106 		.word	100728902
 312 0064 00380040 		.word	1073756160
 313 0068 16000100 		.word	65558
 314 006c 46000100 		.word	65606
 315              		.cfi_endproc
 316              	.LFE260:
 317              		.size	spi_lld_init, .-spi_lld_init
 318              		.section	.text.spi_lld_start,"ax",%progbits
 319              		.align	1
 320              		.p2align 4,,15
 321              		.global	spi_lld_start
 322              		.syntax unified
 323              		.thumb
 324              		.thumb_func
 325              		.fpu softvfp
 326              		.type	spi_lld_start, %function
 327              	spi_lld_start:
 328              	.LFB261:
 329              		.loc 1 305 0
 330              		.cfi_startproc
 331              		@ args = 0, pretend = 0, frame = 0
 332              		@ frame_needed = 0, uses_anonymous_args = 0
 333              	.LVL18:
 334              		.loc 1 308 0
 335 0000 0378     		ldrb	r3, [r0]	@ zero_extendqisi2
 336 0002 012B     		cmp	r3, #1
 337              		.loc 1 305 0
 338 0004 10B5     		push	{r4, lr}
 339              		.cfi_def_cfa_offset 8
 340              		.cfi_offset 4, -8
 341              		.cfi_offset 14, -4
 342              		.loc 1 305 0
ARM GAS  /tmp/ccp4kKgx.s 			page 7


 343 0006 0446     		mov	r4, r0
 344              		.loc 1 308 0
 345 0008 1DD0     		beq	.L36
 346 000a C369     		ldr	r3, [r0, #28]
 347              	.LVL19:
 348              	.L30:
 349              		.loc 1 412 0
 350 000c 6268     		ldr	r2, [r4, #4]
 351              		.loc 1 415 0
 352 000e A06A     		ldr	r0, [r4, #40]
 353              		.loc 1 412 0
 354 0010 5289     		ldrh	r2, [r2, #10]
 355              		.loc 1 417 0
 356 0012 E16A     		ldr	r1, [r4, #44]
 357              		.loc 1 415 0
 358 0014 20F4F040 		bic	r0, r0, #30720
 359              		.loc 1 417 0
 360 0018 21F4F041 		bic	r1, r1, #30720
 361              		.loc 1 412 0
 362 001c 12F4006F 		tst	r2, #2048
 363              		.loc 1 422 0
 364 0020 1CBF     		itt	ne
 365 0022 40F42050 		orrne	r0, r0, #10240
 366              		.loc 1 424 0
 367 0026 41F42051 		orrne	r1, r1, #10240
 368              		.loc 1 421 0
 369 002a A062     		str	r0, [r4, #40]
 370              		.loc 1 423 0
 371 002c E162     		str	r1, [r4, #44]
 372              		.loc 1 428 0
 373 002e 42F44172 		orr	r2, r2, #772
 374              		.loc 1 427 0
 375 0032 0020     		movs	r0, #0
 376              		.loc 1 430 0
 377 0034 0721     		movs	r1, #7
 378              		.loc 1 427 0
 379 0036 1860     		str	r0, [r3]
 380              		.loc 1 428 0
 381 0038 1A60     		str	r2, [r3]
 382              		.loc 1 430 0
 383 003a 5960     		str	r1, [r3, #4]
 384              		.loc 1 431 0
 385 003c 1A68     		ldr	r2, [r3]
 386 003e 42F04002 		orr	r2, r2, #64
 387 0042 1A60     		str	r2, [r3]
 388 0044 10BD     		pop	{r4, pc}
 389              	.LVL20:
 390              	.L36:
 391              		.loc 1 310 0
 392 0046 1A4B     		ldr	r3, .L41
 393 0048 9842     		cmp	r0, r3
 394 004a 0CD0     		beq	.L39
 395              		.loc 1 326 0
 396 004c 194B     		ldr	r3, .L41+4
 397 004e 9842     		cmp	r0, r3
 398 0050 1BD0     		beq	.L40
 399              	.LVL21:
ARM GAS  /tmp/ccp4kKgx.s 			page 8


 400              	.L32:
 401              		.loc 1 407 0
 402 0052 216A     		ldr	r1, [r4, #32]
 403              		.loc 1 408 0
 404 0054 626A     		ldr	r2, [r4, #36]
 405              		.loc 1 407 0
 406 0056 E369     		ldr	r3, [r4, #28]
 407 0058 0868     		ldr	r0, [r1]
 408              		.loc 1 408 0
 409 005a 1168     		ldr	r1, [r2]
 410              		.loc 1 407 0
 411 005c 03F10C02 		add	r2, r3, #12
 412 0060 8260     		str	r2, [r0, #8]
 413              		.loc 1 408 0
 414 0062 8A60     		str	r2, [r1, #8]
 415 0064 D2E7     		b	.L30
 416              	.LVL22:
 417              	.L39:
 418              	.LBB74:
 419              		.loc 1 312 0
 420 0066 0346     		mov	r3, r0
 421 0068 134A     		ldr	r2, .L41+8
 422 006a 006A     		ldr	r0, [r0, #32]
 423              	.LVL23:
 424 006c 0A21     		movs	r1, #10
 425 006e FFF7FEFF 		bl	dmaStreamAllocate
 426              	.LVL24:
 427              		.loc 1 317 0
 428 0072 2346     		mov	r3, r4
 429 0074 114A     		ldr	r2, .L41+12
 430 0076 606A     		ldr	r0, [r4, #36]
 431 0078 0A21     		movs	r1, #10
 432 007a FFF7FEFF 		bl	dmaStreamAllocate
 433              	.LVL25:
 434              		.loc 1 322 0
 435 007e 104A     		ldr	r2, .L41+16
 436 0080 536C     		ldr	r3, [r2, #68]
 437 0082 43F48053 		orr	r3, r3, #4096
 438 0086 5364     		str	r3, [r2, #68]
 439 0088 E3E7     		b	.L32
 440              	.LVL26:
 441              	.L40:
 442              	.LBE74:
 443              	.LBB75:
 444              		.loc 1 328 0
 445 008a 0346     		mov	r3, r0
 446 008c 0A4A     		ldr	r2, .L41+8
 447 008e 006A     		ldr	r0, [r0, #32]
 448              	.LVL27:
 449 0090 0A21     		movs	r1, #10
 450 0092 FFF7FEFF 		bl	dmaStreamAllocate
 451              	.LVL28:
 452              		.loc 1 333 0
 453 0096 2346     		mov	r3, r4
 454 0098 084A     		ldr	r2, .L41+12
 455 009a 606A     		ldr	r0, [r4, #36]
 456 009c 0A21     		movs	r1, #10
ARM GAS  /tmp/ccp4kKgx.s 			page 9


 457 009e FFF7FEFF 		bl	dmaStreamAllocate
 458              	.LVL29:
 459              		.loc 1 338 0
 460 00a2 074A     		ldr	r2, .L41+16
 461 00a4 136C     		ldr	r3, [r2, #64]
 462 00a6 43F48043 		orr	r3, r3, #16384
 463 00aa 1364     		str	r3, [r2, #64]
 464 00ac D1E7     		b	.L32
 465              	.L42:
 466 00ae 00BF     		.align	2
 467              	.L41:
 468 00b0 00000000 		.word	.LANCHOR1
 469 00b4 00000000 		.word	.LANCHOR2
 470 00b8 00000000 		.word	spi_lld_serve_rx_interrupt
 471 00bc 00000000 		.word	spi_lld_serve_tx_interrupt
 472 00c0 00380240 		.word	1073887232
 473              	.LBE75:
 474              		.cfi_endproc
 475              	.LFE261:
 476              		.size	spi_lld_start, .-spi_lld_start
 477              		.section	.text.spi_lld_stop,"ax",%progbits
 478              		.align	1
 479              		.p2align 4,,15
 480              		.global	spi_lld_stop
 481              		.syntax unified
 482              		.thumb
 483              		.thumb_func
 484              		.fpu softvfp
 485              		.type	spi_lld_stop, %function
 486              	spi_lld_stop:
 487              	.LFB262:
 488              		.loc 1 441 0
 489              		.cfi_startproc
 490              		@ args = 0, pretend = 0, frame = 0
 491              		@ frame_needed = 0, uses_anonymous_args = 0
 492              	.LVL30:
 493              		.loc 1 444 0
 494 0000 0378     		ldrb	r3, [r0]	@ zero_extendqisi2
 495 0002 022B     		cmp	r3, #2
 496 0004 00D0     		beq	.L52
 497 0006 7047     		bx	lr
 498              	.L52:
 499              		.loc 1 447 0
 500 0008 C369     		ldr	r3, [r0, #28]
 501              		.loc 1 441 0
 502 000a 10B5     		push	{r4, lr}
 503              		.cfi_def_cfa_offset 8
 504              		.cfi_offset 4, -8
 505              		.cfi_offset 14, -4
 506              		.loc 1 447 0
 507 000c 0022     		movs	r2, #0
 508 000e 0446     		mov	r4, r0
 509              		.loc 1 449 0
 510 0010 006A     		ldr	r0, [r0, #32]
 511              	.LVL31:
 512              		.loc 1 447 0
 513 0012 1A60     		str	r2, [r3]
ARM GAS  /tmp/ccp4kKgx.s 			page 10


 514              		.loc 1 448 0
 515 0014 5A60     		str	r2, [r3, #4]
 516              		.loc 1 449 0
 517 0016 FFF7FEFF 		bl	dmaStreamRelease
 518              	.LVL32:
 519              		.loc 1 450 0
 520 001a 606A     		ldr	r0, [r4, #36]
 521 001c FFF7FEFF 		bl	dmaStreamRelease
 522              	.LVL33:
 523              		.loc 1 453 0
 524 0020 094B     		ldr	r3, .L55
 525 0022 9C42     		cmp	r4, r3
 526 0024 09D0     		beq	.L53
 527              		.loc 1 457 0
 528 0026 094B     		ldr	r3, .L55+4
 529 0028 9C42     		cmp	r4, r3
 530 002a 00D0     		beq	.L54
 531              	.L43:
 532 002c 10BD     		pop	{r4, pc}
 533              	.LVL34:
 534              	.L54:
 535              		.loc 1 458 0
 536 002e 084A     		ldr	r2, .L55+8
 537 0030 136C     		ldr	r3, [r2, #64]
 538 0032 23F48043 		bic	r3, r3, #16384
 539 0036 1364     		str	r3, [r2, #64]
 540              		.loc 1 477 0
 541 0038 F8E7     		b	.L43
 542              	.L53:
 543              		.loc 1 454 0
 544 003a 054A     		ldr	r2, .L55+8
 545 003c 536C     		ldr	r3, [r2, #68]
 546 003e 23F48053 		bic	r3, r3, #4096
 547 0042 5364     		str	r3, [r2, #68]
 548 0044 10BD     		pop	{r4, pc}
 549              	.LVL35:
 550              	.L56:
 551 0046 00BF     		.align	2
 552              	.L55:
 553 0048 00000000 		.word	.LANCHOR1
 554 004c 00000000 		.word	.LANCHOR2
 555 0050 00380240 		.word	1073887232
 556              		.cfi_endproc
 557              	.LFE262:
 558              		.size	spi_lld_stop, .-spi_lld_stop
 559              		.section	.text.spi_lld_select,"ax",%progbits
 560              		.align	1
 561              		.p2align 4,,15
 562              		.global	spi_lld_select
 563              		.syntax unified
 564              		.thumb
 565              		.thumb_func
 566              		.fpu softvfp
 567              		.type	spi_lld_select, %function
 568              	spi_lld_select:
 569              	.LFB263:
 570              		.loc 1 486 0
ARM GAS  /tmp/ccp4kKgx.s 			page 11


 571              		.cfi_startproc
 572              		@ args = 0, pretend = 0, frame = 0
 573              		@ frame_needed = 0, uses_anonymous_args = 0
 574              		@ link register save eliminated.
 575              	.LVL36:
 576              		.loc 1 488 0
 577 0000 4268     		ldr	r2, [r0, #4]
 578 0002 1189     		ldrh	r1, [r2, #8]
 579 0004 5268     		ldr	r2, [r2, #4]
 580 0006 0123     		movs	r3, #1
 581 0008 8B40     		lsls	r3, r3, r1
 582 000a 9BB2     		uxth	r3, r3
 583 000c 5383     		strh	r3, [r2, #26]	@ movhi
 584 000e 7047     		bx	lr
 585              		.cfi_endproc
 586              	.LFE263:
 587              		.size	spi_lld_select, .-spi_lld_select
 588              		.section	.text.spi_lld_unselect,"ax",%progbits
 589              		.align	1
 590              		.p2align 4,,15
 591              		.global	spi_lld_unselect
 592              		.syntax unified
 593              		.thumb
 594              		.thumb_func
 595              		.fpu softvfp
 596              		.type	spi_lld_unselect, %function
 597              	spi_lld_unselect:
 598              	.LFB264:
 599              		.loc 1 499 0
 600              		.cfi_startproc
 601              		@ args = 0, pretend = 0, frame = 0
 602              		@ frame_needed = 0, uses_anonymous_args = 0
 603              		@ link register save eliminated.
 604              	.LVL37:
 605              		.loc 1 501 0
 606 0000 4268     		ldr	r2, [r0, #4]
 607 0002 1189     		ldrh	r1, [r2, #8]
 608 0004 5268     		ldr	r2, [r2, #4]
 609 0006 0123     		movs	r3, #1
 610 0008 8B40     		lsls	r3, r3, r1
 611 000a 9BB2     		uxth	r3, r3
 612 000c 1383     		strh	r3, [r2, #24]	@ movhi
 613 000e 7047     		bx	lr
 614              		.cfi_endproc
 615              	.LFE264:
 616              		.size	spi_lld_unselect, .-spi_lld_unselect
 617              		.section	.text.spi_lld_ignore,"ax",%progbits
 618              		.align	1
 619              		.p2align 4,,15
 620              		.global	spi_lld_ignore
 621              		.syntax unified
 622              		.thumb
 623              		.thumb_func
 624              		.fpu softvfp
 625              		.type	spi_lld_ignore, %function
 626              	spi_lld_ignore:
 627              	.LFB265:
ARM GAS  /tmp/ccp4kKgx.s 			page 12


 628              		.loc 1 515 0
 629              		.cfi_startproc
 630              		@ args = 0, pretend = 0, frame = 0
 631              		@ frame_needed = 0, uses_anonymous_args = 0
 632              		@ link register save eliminated.
 633              	.LVL38:
 634              		.loc 1 517 0
 635 0000 026A     		ldr	r2, [r0, #32]
 636              		.loc 1 521 0
 637 0002 436A     		ldr	r3, [r0, #36]
 638              		.loc 1 517 0
 639 0004 1268     		ldr	r2, [r2]
 640              		.loc 1 521 0
 641 0006 1B68     		ldr	r3, [r3]
 642              		.loc 1 515 0
 643 0008 70B4     		push	{r4, r5, r6}
 644              		.cfi_def_cfa_offset 12
 645              		.cfi_offset 4, -12
 646              		.cfi_offset 5, -8
 647              		.cfi_offset 6, -4
 648              		.loc 1 519 0
 649 000a 856A     		ldr	r5, [r0, #40]
 650              		.loc 1 517 0
 651 000c 094E     		ldr	r6, .L61
 652              		.loc 1 523 0
 653 000e C06A     		ldr	r0, [r0, #44]
 654              	.LVL39:
 655              		.loc 1 521 0
 656 0010 094C     		ldr	r4, .L61+4
 657              		.loc 1 517 0
 658 0012 D660     		str	r6, [r2, #12]
 659              		.loc 1 518 0
 660 0014 5160     		str	r1, [r2, #4]
 661              		.loc 1 519 0
 662 0016 1560     		str	r5, [r2]
 663              		.loc 1 521 0
 664 0018 DC60     		str	r4, [r3, #12]
 665              		.loc 1 522 0
 666 001a 5960     		str	r1, [r3, #4]
 667              		.loc 1 523 0
 668 001c 1860     		str	r0, [r3]
 669              		.loc 1 525 0
 670 001e 1168     		ldr	r1, [r2]
 671              	.LVL40:
 672 0020 41F00101 		orr	r1, r1, #1
 673 0024 1160     		str	r1, [r2]
 674              		.loc 1 526 0
 675 0026 1A68     		ldr	r2, [r3]
 676 0028 42F00102 		orr	r2, r2, #1
 677 002c 1A60     		str	r2, [r3]
 678              		.loc 1 527 0
 679 002e 70BC     		pop	{r4, r5, r6}
 680              		.cfi_restore 6
 681              		.cfi_restore 5
 682              		.cfi_restore 4
 683              		.cfi_def_cfa_offset 0
 684 0030 7047     		bx	lr
ARM GAS  /tmp/ccp4kKgx.s 			page 13


 685              	.L62:
 686 0032 00BF     		.align	2
 687              	.L61:
 688 0034 00000000 		.word	.LANCHOR3
 689 0038 00000000 		.word	.LANCHOR0
 690              		.cfi_endproc
 691              	.LFE265:
 692              		.size	spi_lld_ignore, .-spi_lld_ignore
 693              		.section	.text.spi_lld_exchange,"ax",%progbits
 694              		.align	1
 695              		.p2align 4,,15
 696              		.global	spi_lld_exchange
 697              		.syntax unified
 698              		.thumb
 699              		.thumb_func
 700              		.fpu softvfp
 701              		.type	spi_lld_exchange, %function
 702              	spi_lld_exchange:
 703              	.LFB266:
 704              		.loc 1 545 0
 705              		.cfi_startproc
 706              		@ args = 0, pretend = 0, frame = 0
 707              		@ frame_needed = 0, uses_anonymous_args = 0
 708              		@ link register save eliminated.
 709              	.LVL41:
 710 0000 F0B4     		push	{r4, r5, r6, r7}
 711              		.cfi_def_cfa_offset 16
 712              		.cfi_offset 4, -16
 713              		.cfi_offset 5, -12
 714              		.cfi_offset 6, -8
 715              		.cfi_offset 7, -4
 716              		.loc 1 547 0
 717 0002 046A     		ldr	r4, [r0, #32]
 718              		.loc 1 551 0
 719 0004 476A     		ldr	r7, [r0, #36]
 720              		.loc 1 549 0
 721 0006 866A     		ldr	r6, [r0, #40]
 722              		.loc 1 553 0
 723 0008 C56A     		ldr	r5, [r0, #44]
 724              		.loc 1 547 0
 725 000a 2468     		ldr	r4, [r4]
 726              		.loc 1 551 0
 727 000c 3868     		ldr	r0, [r7]
 728              	.LVL42:
 729              		.loc 1 547 0
 730 000e E360     		str	r3, [r4, #12]
 731              		.loc 1 549 0
 732 0010 46F48066 		orr	r6, r6, #1024
 733              		.loc 1 553 0
 734 0014 45F48065 		orr	r5, r5, #1024
 735              		.loc 1 548 0
 736 0018 6160     		str	r1, [r4, #4]
 737              		.loc 1 549 0
 738 001a 2660     		str	r6, [r4]
 739              		.loc 1 551 0
 740 001c C260     		str	r2, [r0, #12]
 741              		.loc 1 552 0
ARM GAS  /tmp/ccp4kKgx.s 			page 14


 742 001e 4160     		str	r1, [r0, #4]
 743              		.loc 1 553 0
 744 0020 0560     		str	r5, [r0]
 745              		.loc 1 555 0
 746 0022 2368     		ldr	r3, [r4]
 747              	.LVL43:
 748 0024 43F00103 		orr	r3, r3, #1
 749 0028 2360     		str	r3, [r4]
 750              		.loc 1 556 0
 751 002a 0368     		ldr	r3, [r0]
 752 002c 43F00103 		orr	r3, r3, #1
 753 0030 0360     		str	r3, [r0]
 754              		.loc 1 557 0
 755 0032 F0BC     		pop	{r4, r5, r6, r7}
 756              		.cfi_restore 7
 757              		.cfi_restore 6
 758              		.cfi_restore 5
 759              		.cfi_restore 4
 760              		.cfi_def_cfa_offset 0
 761 0034 7047     		bx	lr
 762              		.cfi_endproc
 763              	.LFE266:
 764              		.size	spi_lld_exchange, .-spi_lld_exchange
 765 0036 00BF     		.section	.text.spi_lld_send,"ax",%progbits
 766              		.align	1
 767              		.p2align 4,,15
 768              		.global	spi_lld_send
 769              		.syntax unified
 770              		.thumb
 771              		.thumb_func
 772              		.fpu softvfp
 773              		.type	spi_lld_send, %function
 774              	spi_lld_send:
 775              	.LFB267:
 776              		.loc 1 572 0
 777              		.cfi_startproc
 778              		@ args = 0, pretend = 0, frame = 0
 779              		@ frame_needed = 0, uses_anonymous_args = 0
 780              		@ link register save eliminated.
 781              	.LVL44:
 782 0000 70B4     		push	{r4, r5, r6}
 783              		.cfi_def_cfa_offset 12
 784              		.cfi_offset 4, -12
 785              		.cfi_offset 5, -8
 786              		.cfi_offset 6, -4
 787              		.loc 1 578 0
 788 0002 436A     		ldr	r3, [r0, #36]
 789              		.loc 1 574 0
 790 0004 046A     		ldr	r4, [r0, #32]
 791              		.loc 1 580 0
 792 0006 C56A     		ldr	r5, [r0, #44]
 793              		.loc 1 574 0
 794 0008 2468     		ldr	r4, [r4]
 795              		.loc 1 578 0
 796 000a 1B68     		ldr	r3, [r3]
 797              		.loc 1 576 0
 798 000c 806A     		ldr	r0, [r0, #40]
ARM GAS  /tmp/ccp4kKgx.s 			page 15


 799              	.LVL45:
 800              		.loc 1 574 0
 801 000e 094E     		ldr	r6, .L67
 802 0010 E660     		str	r6, [r4, #12]
 803              		.loc 1 580 0
 804 0012 45F48065 		orr	r5, r5, #1024
 805              		.loc 1 575 0
 806 0016 6160     		str	r1, [r4, #4]
 807              		.loc 1 576 0
 808 0018 2060     		str	r0, [r4]
 809              		.loc 1 578 0
 810 001a DA60     		str	r2, [r3, #12]
 811              		.loc 1 579 0
 812 001c 5960     		str	r1, [r3, #4]
 813              		.loc 1 580 0
 814 001e 1D60     		str	r5, [r3]
 815              		.loc 1 582 0
 816 0020 2268     		ldr	r2, [r4]
 817              	.LVL46:
 818 0022 42F00102 		orr	r2, r2, #1
 819 0026 2260     		str	r2, [r4]
 820              		.loc 1 583 0
 821 0028 1A68     		ldr	r2, [r3]
 822 002a 42F00102 		orr	r2, r2, #1
 823 002e 1A60     		str	r2, [r3]
 824              		.loc 1 584 0
 825 0030 70BC     		pop	{r4, r5, r6}
 826              		.cfi_restore 6
 827              		.cfi_restore 5
 828              		.cfi_restore 4
 829              		.cfi_def_cfa_offset 0
 830 0032 7047     		bx	lr
 831              	.L68:
 832              		.align	2
 833              	.L67:
 834 0034 00000000 		.word	.LANCHOR3
 835              		.cfi_endproc
 836              	.LFE267:
 837              		.size	spi_lld_send, .-spi_lld_send
 838              		.section	.text.spi_lld_receive,"ax",%progbits
 839              		.align	1
 840              		.p2align 4,,15
 841              		.global	spi_lld_receive
 842              		.syntax unified
 843              		.thumb
 844              		.thumb_func
 845              		.fpu softvfp
 846              		.type	spi_lld_receive, %function
 847              	spi_lld_receive:
 848              	.LFB268:
 849              		.loc 1 599 0
 850              		.cfi_startproc
 851              		@ args = 0, pretend = 0, frame = 0
 852              		@ frame_needed = 0, uses_anonymous_args = 0
 853              		@ link register save eliminated.
 854              	.LVL47:
 855 0000 70B4     		push	{r4, r5, r6}
ARM GAS  /tmp/ccp4kKgx.s 			page 16


 856              		.cfi_def_cfa_offset 12
 857              		.cfi_offset 4, -12
 858              		.cfi_offset 5, -8
 859              		.cfi_offset 6, -4
 860              		.loc 1 605 0
 861 0002 436A     		ldr	r3, [r0, #36]
 862              		.loc 1 601 0
 863 0004 046A     		ldr	r4, [r0, #32]
 864              		.loc 1 603 0
 865 0006 856A     		ldr	r5, [r0, #40]
 866              		.loc 1 601 0
 867 0008 2468     		ldr	r4, [r4]
 868              		.loc 1 605 0
 869 000a 1B68     		ldr	r3, [r3]
 870              		.loc 1 607 0
 871 000c C06A     		ldr	r0, [r0, #44]
 872              	.LVL48:
 873              		.loc 1 605 0
 874 000e 094E     		ldr	r6, .L71
 875              		.loc 1 601 0
 876 0010 E260     		str	r2, [r4, #12]
 877              		.loc 1 603 0
 878 0012 45F48065 		orr	r5, r5, #1024
 879              		.loc 1 602 0
 880 0016 6160     		str	r1, [r4, #4]
 881              		.loc 1 603 0
 882 0018 2560     		str	r5, [r4]
 883              		.loc 1 605 0
 884 001a DE60     		str	r6, [r3, #12]
 885              		.loc 1 606 0
 886 001c 5960     		str	r1, [r3, #4]
 887              		.loc 1 607 0
 888 001e 1860     		str	r0, [r3]
 889              		.loc 1 609 0
 890 0020 2268     		ldr	r2, [r4]
 891              	.LVL49:
 892 0022 42F00102 		orr	r2, r2, #1
 893 0026 2260     		str	r2, [r4]
 894              		.loc 1 610 0
 895 0028 1A68     		ldr	r2, [r3]
 896 002a 42F00102 		orr	r2, r2, #1
 897 002e 1A60     		str	r2, [r3]
 898              		.loc 1 611 0
 899 0030 70BC     		pop	{r4, r5, r6}
 900              		.cfi_restore 6
 901              		.cfi_restore 5
 902              		.cfi_restore 4
 903              		.cfi_def_cfa_offset 0
 904 0032 7047     		bx	lr
 905              	.L72:
 906              		.align	2
 907              	.L71:
 908 0034 00000000 		.word	.LANCHOR0
 909              		.cfi_endproc
 910              	.LFE268:
 911              		.size	spi_lld_receive, .-spi_lld_receive
 912              		.section	.text.spi_lld_polled_exchange,"ax",%progbits
ARM GAS  /tmp/ccp4kKgx.s 			page 17


 913              		.align	1
 914              		.p2align 4,,15
 915              		.global	spi_lld_polled_exchange
 916              		.syntax unified
 917              		.thumb
 918              		.thumb_func
 919              		.fpu softvfp
 920              		.type	spi_lld_polled_exchange, %function
 921              	spi_lld_polled_exchange:
 922              	.LFB269:
 923              		.loc 1 625 0
 924              		.cfi_startproc
 925              		@ args = 0, pretend = 0, frame = 0
 926              		@ frame_needed = 0, uses_anonymous_args = 0
 927              		@ link register save eliminated.
 928              	.LVL50:
 929              		.loc 1 627 0
 930 0000 C269     		ldr	r2, [r0, #28]
 931 0002 D160     		str	r1, [r2, #12]
 932              	.L74:
 933              		.loc 1 628 0 discriminator 1
 934 0004 9368     		ldr	r3, [r2, #8]
 935 0006 DB07     		lsls	r3, r3, #31
 936 0008 FCD5     		bpl	.L74
 937              		.loc 1 630 0
 938 000a D068     		ldr	r0, [r2, #12]
 939              	.LVL51:
 940              		.loc 1 631 0
 941 000c 80B2     		uxth	r0, r0
 942 000e 7047     		bx	lr
 943              		.cfi_endproc
 944              	.LFE269:
 945              		.size	spi_lld_polled_exchange, .-spi_lld_polled_exchange
 946              		.global	SPID2
 947              		.global	SPID1
 948              		.section	.bss.SPID1,"aw",%nobits
 949              		.align	2
 950              		.set	.LANCHOR1,. + 0
 951              		.type	SPID1, %object
 952              		.size	SPID1, 48
 953              	SPID1:
 954 0000 00000000 		.space	48
 954      00000000 
 954      00000000 
 954      00000000 
 954      00000000 
 955              		.section	.bss.SPID2,"aw",%nobits
 956              		.align	2
 957              		.set	.LANCHOR2,. + 0
 958              		.type	SPID2, %object
 959              		.size	SPID2, 48
 960              	SPID2:
 961 0000 00000000 		.space	48
 961      00000000 
 961      00000000 
 961      00000000 
 961      00000000 
ARM GAS  /tmp/ccp4kKgx.s 			page 18


 962              		.section	.bss.dummyrx,"aw",%nobits
 963              		.align	1
 964              		.set	.LANCHOR3,. + 0
 965              		.type	dummyrx, %object
 966              		.size	dummyrx, 2
 967              	dummyrx:
 968 0000 0000     		.space	2
 969              		.section	.bss.dummytx,"aw",%nobits
 970              		.align	1
 971              		.set	.LANCHOR0,. + 0
 972              		.type	dummytx, %object
 973              		.size	dummytx, 2
 974              	dummytx:
 975 0000 0000     		.space	2
 976              		.section	.rodata.spi_lld_serve_tx_interrupt.str1.4,"aMS",%progbits,1
 977              		.align	2
 978              	.LC0:
 979 0000 444D4120 		.ascii	"DMA failure\000"
 979      6661696C 
 979      75726500 
 980              		.text
 981              	.Letext0:
 982              		.file 4 "/usr/lib/gcc/arm-none-eabi/6.2.1/include/stddef.h"
 983              		.file 5 "/usr/arm-none-eabi/include/machine/_default_types.h"
 984              		.file 6 "/usr/arm-none-eabi/include/sys/_stdint.h"
 985              		.file 7 "/home/selim/working/ChibiOS/os/rt/ports/ARMCMx/compilers/GCC/chtypes.h"
 986              		.file 8 "/home/selim/working/ChibiOS/os/rt/include/chsystypes.h"
 987              		.file 9 "/home/selim/working/ChibiOS/os/rt/include/chschd.h"
 988              		.file 10 "/home/selim/working/ChibiOS/os/ext/CMSIS/include/core_cm4.h"
 989              		.file 11 "/home/selim/working/ChibiOS/os/ext/CMSIS/ST/system_stm32f4xx.h"
 990              		.file 12 "/home/selim/working/ChibiOS/os/ext/CMSIS/ST/stm32f407xx.h"
 991              		.file 13 "/home/selim/working/ChibiOS/os/rt/ports/ARMCMx/chcore.h"
 992              		.file 14 "/home/selim/working/ChibiOS/os/rt/ports/ARMCMx/chcore_v7m.h"
 993              		.file 15 "/home/selim/working/ChibiOS/os/hal/ports/STM32/LLD/TIMv1/stm32_tim.h"
 994              		.file 16 "/home/selim/working/ChibiOS/os/rt/include/chtm.h"
 995              		.file 17 "/home/selim/working/ChibiOS/os/rt/include/chsem.h"
 996              		.file 18 "/home/selim/working/ChibiOS/os/rt/include/chmtx.h"
 997              		.file 19 "/home/selim/working/ChibiOS/os/rt/include/chregistry.h"
 998              		.file 20 "/home/selim/working/ChibiOS/os/rt/include/chevents.h"
 999              		.file 21 "/home/selim/working/ChibiOS/os/rt/include/chqueues.h"
 1000              		.file 22 "/home/selim/working/ChibiOS/os/hal/ports/STM32/STM32F4xx/stm32_dma.h"
 1001              		.file 23 "/home/selim/working/ChibiOS/os/hal/ports/STM32/LLD/GPIOv2/pal_lld.h"
 1002              		.file 24 "/home/selim/working/ChibiOS/os/hal/include/adc.h"
 1003              		.file 25 "/home/selim/working/ChibiOS/os/hal/ports/STM32/STM32F4xx/adc_lld.h"
 1004              		.file 26 "/home/selim/working/ChibiOS/os/hal/include/gpt.h"
 1005              		.file 27 "/home/selim/working/ChibiOS/os/hal/ports/STM32/LLD/TIMv1/gpt_lld.h"
 1006              		.file 28 "/home/selim/working/ChibiOS/os/hal/include/pwm.h"
 1007              		.file 29 "/home/selim/working/ChibiOS/os/hal/ports/STM32/LLD/TIMv1/pwm_lld.h"
 1008              		.file 30 "/home/selim/working/ChibiOS/os/hal/include/serial.h"
 1009              		.file 31 "/home/selim/working/ChibiOS/os/hal/ports/STM32/LLD/USARTv1/serial_lld.h"
 1010              		.file 32 "/home/selim/working/ChibiOS/os/hal/include/spi.h"
 1011              		.file 33 "/home/selim/working/ChibiOS/os/hal/ports/STM32/LLD/SPIv1/spi_lld.h"
 1012              		.file 34 "/home/selim/working/ChibiOS/os/hal/include/usb.h"
 1013              		.file 35 "/home/selim/working/ChibiOS/os/hal/ports/STM32/LLD/OTGv1/usb_lld.h"
 1014              		.file 36 "/home/selim/working/ChibiOS/os/hal/ports/STM32/LLD/OTGv1/stm32_otg.h"
 1015              		.file 37 "/home/selim/working/ChibiOS/os/rt/include/chsys.h"
 1016              		.file 38 "/home/selim/working/ChibiOS/os/rt/include/chthreads.h"
ARM GAS  /tmp/ccp4kKgx.s 			page 19

