ARM GAS  /tmp/ccHfawTx.s 			page 1


   1              		.cpu cortex-m4
   2              		.eabi_attribute 20, 1
   3              		.eabi_attribute 21, 1
   4              		.eabi_attribute 23, 3
   5              		.eabi_attribute 24, 1
   6              		.eabi_attribute 25, 1
   7              		.eabi_attribute 26, 1
   8              		.eabi_attribute 30, 2
   9              		.eabi_attribute 34, 1
  10              		.eabi_attribute 18, 4
  11              		.file	"st.c"
  12              		.text
  13              	.Ltext0:
  14              		.cfi_sections	.debug_frame
  15              		.section	.text.stInit,"ax",%progbits
  16              		.align	1
  17              		.p2align 4,,15
  18              		.global	stInit
  19              		.syntax unified
  20              		.thumb
  21              		.thumb_func
  22              		.fpu softvfp
  23              		.type	stInit, %function
  24              	stInit:
  25              	.LFB258:
  26              		.file 1 "/home/selim/working/ChibiOS/os/hal/src/st.c"
  27              		.loc 1 60 0
  28              		.cfi_startproc
  29              		@ args = 0, pretend = 0, frame = 0
  30              		@ frame_needed = 0, uses_anonymous_args = 0
  31              		@ link register save eliminated.
  32              		.loc 1 62 0
  33 0000 FFF7FEBF 		b	st_lld_init
  34              	.LVL0:
  35              		.cfi_endproc
  36              	.LFE258:
  37              		.size	stInit, .-stInit
  38              		.section	.text.stStartAlarm,"ax",%progbits
  39              		.align	1
  40              		.p2align 4,,15
  41              		.global	stStartAlarm
  42              		.syntax unified
  43              		.thumb
  44              		.thumb_func
  45              		.fpu softvfp
  46              		.type	stStartAlarm, %function
  47              	stStartAlarm:
  48              	.LFB259:
  49              		.loc 1 77 0
  50              		.cfi_startproc
  51              		@ args = 0, pretend = 0, frame = 0
  52              		@ frame_needed = 0, uses_anonymous_args = 0
  53              		@ link register save eliminated.
  54              	.LVL1:
  55              	.LBB10:
  56              	.LBB11:
  57              		.file 2 "/home/selim/working/ChibiOS/os/hal/ports/STM32/LLD/TIMv1/st_lld.h"
ARM GAS  /tmp/ccHfawTx.s 			page 2


  58              		.loc 2 143 0
  59 0000 4FF08043 		mov	r3, #1073741824
  60              	.LVL2:
  61              		.loc 2 144 0
  62 0004 0021     		movs	r1, #0
  63              		.loc 2 145 0
  64 0006 0222     		movs	r2, #2
  65              		.loc 2 143 0
  66 0008 5863     		str	r0, [r3, #52]
  67              		.loc 2 144 0
  68 000a 1961     		str	r1, [r3, #16]
  69              		.loc 2 145 0
  70 000c DA60     		str	r2, [r3, #12]
  71              	.LVL3:
  72 000e 7047     		bx	lr
  73              	.LBE11:
  74              	.LBE10:
  75              		.cfi_endproc
  76              	.LFE259:
  77              		.size	stStartAlarm, .-stStartAlarm
  78              		.section	.text.stStopAlarm,"ax",%progbits
  79              		.align	1
  80              		.p2align 4,,15
  81              		.global	stStopAlarm
  82              		.syntax unified
  83              		.thumb
  84              		.thumb_func
  85              		.fpu softvfp
  86              		.type	stStopAlarm, %function
  87              	stStopAlarm:
  88              	.LFB260:
  89              		.loc 1 91 0
  90              		.cfi_startproc
  91              		@ args = 0, pretend = 0, frame = 0
  92              		@ frame_needed = 0, uses_anonymous_args = 0
  93              		@ link register save eliminated.
  94              	.LBB12:
  95              	.LBB13:
  96              		.loc 2 155 0
  97 0000 4FF08043 		mov	r3, #1073741824
  98 0004 0022     		movs	r2, #0
  99 0006 DA60     		str	r2, [r3, #12]
 100 0008 7047     		bx	lr
 101              	.LBE13:
 102              	.LBE12:
 103              		.cfi_endproc
 104              	.LFE260:
 105              		.size	stStopAlarm, .-stStopAlarm
 106 000a 00BF     		.section	.text.stSetAlarm,"ax",%progbits
 107              		.align	1
 108              		.p2align 4,,15
 109              		.global	stSetAlarm
 110              		.syntax unified
 111              		.thumb
 112              		.thumb_func
 113              		.fpu softvfp
 114              		.type	stSetAlarm, %function
ARM GAS  /tmp/ccHfawTx.s 			page 3


 115              	stSetAlarm:
 116              	.LFB261:
 117              		.loc 1 105 0
 118              		.cfi_startproc
 119              		@ args = 0, pretend = 0, frame = 0
 120              		@ frame_needed = 0, uses_anonymous_args = 0
 121              		@ link register save eliminated.
 122              	.LVL4:
 123              	.LBB14:
 124              	.LBB15:
 125              		.loc 2 167 0
 126 0000 4FF08043 		mov	r3, #1073741824
 127              	.LVL5:
 128 0004 5863     		str	r0, [r3, #52]
 129              	.LVL6:
 130 0006 7047     		bx	lr
 131              	.LBE15:
 132              	.LBE14:
 133              		.cfi_endproc
 134              	.LFE261:
 135              		.size	stSetAlarm, .-stSetAlarm
 136              		.section	.text.stGetAlarm,"ax",%progbits
 137              		.align	1
 138              		.p2align 4,,15
 139              		.global	stGetAlarm
 140              		.syntax unified
 141              		.thumb
 142              		.thumb_func
 143              		.fpu softvfp
 144              		.type	stGetAlarm, %function
 145              	stGetAlarm:
 146              	.LFB262:
 147              		.loc 1 121 0
 148              		.cfi_startproc
 149              		@ args = 0, pretend = 0, frame = 0
 150              		@ frame_needed = 0, uses_anonymous_args = 0
 151              		@ link register save eliminated.
 152              	.LBB16:
 153              	.LBB17:
 154              		.loc 2 179 0
 155 0000 4FF08043 		mov	r3, #1073741824
 156 0004 586B     		ldr	r0, [r3, #52]
 157              	.LBE17:
 158              	.LBE16:
 159              		.loc 1 126 0
 160 0006 7047     		bx	lr
 161              		.cfi_endproc
 162              	.LFE262:
 163              		.size	stGetAlarm, .-stGetAlarm
 164              		.text
 165              	.Letext0:
 166              		.file 3 "/usr/lib/gcc/arm-none-eabi/6.2.1/include/stddef.h"
 167              		.file 4 "/usr/arm-none-eabi/include/machine/_default_types.h"
 168              		.file 5 "/usr/arm-none-eabi/include/sys/_stdint.h"
 169              		.file 6 "/home/selim/working/ChibiOS/os/rt/ports/ARMCMx/compilers/GCC/chtypes.h"
 170              		.file 7 "/home/selim/working/ChibiOS/os/rt/include/chsystypes.h"
 171              		.file 8 "/home/selim/working/ChibiOS/os/rt/include/chschd.h"
ARM GAS  /tmp/ccHfawTx.s 			page 4


 172              		.file 9 "/home/selim/working/ChibiOS/os/ext/CMSIS/include/core_cm4.h"
 173              		.file 10 "/home/selim/working/ChibiOS/os/ext/CMSIS/ST/system_stm32f4xx.h"
 174              		.file 11 "/home/selim/working/ChibiOS/os/ext/CMSIS/ST/stm32f407xx.h"
 175              		.file 12 "/home/selim/working/ChibiOS/os/rt/ports/ARMCMx/chcore.h"
 176              		.file 13 "/home/selim/working/ChibiOS/os/rt/ports/ARMCMx/chcore_v7m.h"
 177              		.file 14 "/home/selim/working/ChibiOS/os/hal/ports/STM32/LLD/TIMv1/stm32_tim.h"
 178              		.file 15 "/home/selim/working/ChibiOS/os/rt/include/chtm.h"
 179              		.file 16 "/home/selim/working/ChibiOS/os/rt/include/chsem.h"
 180              		.file 17 "/home/selim/working/ChibiOS/os/rt/include/chmtx.h"
 181              		.file 18 "/home/selim/working/ChibiOS/os/rt/include/chregistry.h"
 182              		.file 19 "/home/selim/working/ChibiOS/os/rt/include/chevents.h"
 183              		.file 20 "/home/selim/working/ChibiOS/os/rt/include/chqueues.h"
 184              		.file 21 "/home/selim/working/ChibiOS/os/hal/ports/STM32/STM32F4xx/stm32_dma.h"
 185              		.file 22 "/home/selim/working/ChibiOS/os/hal/ports/STM32/LLD/GPIOv2/pal_lld.h"
 186              		.file 23 "/home/selim/working/ChibiOS/os/hal/include/adc.h"
 187              		.file 24 "/home/selim/working/ChibiOS/os/hal/ports/STM32/STM32F4xx/adc_lld.h"
 188              		.file 25 "/home/selim/working/ChibiOS/os/hal/include/gpt.h"
 189              		.file 26 "/home/selim/working/ChibiOS/os/hal/ports/STM32/LLD/TIMv1/gpt_lld.h"
 190              		.file 27 "/home/selim/working/ChibiOS/os/hal/include/pwm.h"
 191              		.file 28 "/home/selim/working/ChibiOS/os/hal/ports/STM32/LLD/TIMv1/pwm_lld.h"
 192              		.file 29 "/home/selim/working/ChibiOS/os/hal/include/serial.h"
 193              		.file 30 "/home/selim/working/ChibiOS/os/hal/ports/STM32/LLD/USARTv1/serial_lld.h"
 194              		.file 31 "/home/selim/working/ChibiOS/os/hal/include/spi.h"
 195              		.file 32 "/home/selim/working/ChibiOS/os/hal/ports/STM32/LLD/SPIv1/spi_lld.h"
 196              		.file 33 "/home/selim/working/ChibiOS/os/hal/include/usb.h"
 197              		.file 34 "/home/selim/working/ChibiOS/os/hal/ports/STM32/LLD/OTGv1/usb_lld.h"
 198              		.file 35 "/home/selim/working/ChibiOS/os/hal/ports/STM32/LLD/OTGv1/stm32_otg.h"