ARM GAS  /tmp/cc4ZLxjk.s 			page 1


   1              		.cpu cortex-m4
   2              		.eabi_attribute 20, 1
   3              		.eabi_attribute 21, 1
   4              		.eabi_attribute 23, 3
   5              		.eabi_attribute 24, 1
   6              		.eabi_attribute 25, 1
   7              		.eabi_attribute 26, 1
   8              		.eabi_attribute 30, 2
   9              		.eabi_attribute 34, 1
  10              		.eabi_attribute 18, 4
  11              		.file	"testevt.c"
  12              		.text
  13              	.Ltext0:
  14              		.cfi_sections	.debug_frame
  15              		.section	.text.h3,"ax",%progbits
  16              		.align	1
  17              		.p2align 4,,15
  18              		.syntax unified
  19              		.thumb
  20              		.thumb_func
  21              		.fpu softvfp
  22              		.type	h3, %function
  23              	h3:
  24              	.LFB230:
  25              		.file 1 "/home/selim/working/ChibiOS/test/rt/testevt.c"
  26              		.loc 1 82 0
  27              		.cfi_startproc
  28              		@ args = 0, pretend = 0, frame = 0
  29              		@ frame_needed = 0, uses_anonymous_args = 0
  30              		@ link register save eliminated.
  31              	.LVL0:
  32              		.loc 1 82 0
  33 0000 4320     		movs	r0, #67
  34              	.LVL1:
  35 0002 FFF7FEBF 		b	test_emit_token
  36              	.LVL2:
  37              		.cfi_endproc
  38              	.LFE230:
  39              		.size	h3, .-h3
  40 0006 00BF     		.section	.text.h2,"ax",%progbits
  41              		.align	1
  42              		.p2align 4,,15
  43              		.syntax unified
  44              		.thumb
  45              		.thumb_func
  46              		.fpu softvfp
  47              		.type	h2, %function
  48              	h2:
  49              	.LFB229:
  50              		.loc 1 81 0
  51              		.cfi_startproc
  52              		@ args = 0, pretend = 0, frame = 0
  53              		@ frame_needed = 0, uses_anonymous_args = 0
  54              		@ link register save eliminated.
  55              	.LVL3:
  56              		.loc 1 81 0
  57 0000 4220     		movs	r0, #66
ARM GAS  /tmp/cc4ZLxjk.s 			page 2


  58              	.LVL4:
  59 0002 FFF7FEBF 		b	test_emit_token
  60              	.LVL5:
  61              		.cfi_endproc
  62              	.LFE229:
  63              		.size	h2, .-h2
  64 0006 00BF     		.section	.text.h1,"ax",%progbits
  65              		.align	1
  66              		.p2align 4,,15
  67              		.syntax unified
  68              		.thumb
  69              		.thumb_func
  70              		.fpu softvfp
  71              		.type	h1, %function
  72              	h1:
  73              	.LFB228:
  74              		.loc 1 80 0
  75              		.cfi_startproc
  76              		@ args = 0, pretend = 0, frame = 0
  77              		@ frame_needed = 0, uses_anonymous_args = 0
  78              		@ link register save eliminated.
  79              	.LVL6:
  80              		.loc 1 80 0
  81 0000 4120     		movs	r0, #65
  82              	.LVL7:
  83 0002 FFF7FEBF 		b	test_emit_token
  84              	.LVL8:
  85              		.cfi_endproc
  86              	.LFE228:
  87              		.size	h1, .-h1
  88 0006 00BF     		.section	.text.evt1_execute,"ax",%progbits
  89              		.align	1
  90              		.p2align 4,,15
  91              		.syntax unified
  92              		.thumb
  93              		.thumb_func
  94              		.fpu softvfp
  95              		.type	evt1_execute, %function
  96              	evt1_execute:
  97              	.LFB231:
  98              		.loc 1 85 0
  99              		.cfi_startproc
 100              		@ args = 0, pretend = 0, frame = 40
 101              		@ frame_needed = 0, uses_anonymous_args = 0
 102              	.LVL9:
 103 0000 10B5     		push	{r4, lr}
 104              		.cfi_def_cfa_offset 8
 105              		.cfi_offset 4, -8
 106              		.cfi_offset 14, -4
 107              	.LBB199:
 108              	.LBB200:
 109              		.file 2 "/home/selim/working/ChibiOS/os/rt/include/chevents.h"
 110              		.loc 2 172 0
 111 0002 1F4C     		ldr	r4, .L11
 112              	.LBE200:
 113              	.LBE199:
 114              		.loc 1 85 0
ARM GAS  /tmp/cc4ZLxjk.s 			page 3


 115 0004 8AB0     		sub	sp, sp, #40
 116              		.cfi_def_cfa_offset 48
 117              	.LBB202:
 118              	.LBB203:
 119              		.loc 2 193 0
 120 0006 2046     		mov	r0, r4
 121 0008 6946     		mov	r1, sp
 122 000a 4FF0FF33 		mov	r3, #-1
 123 000e 0122     		movs	r2, #1
 124              	.LBE203:
 125              	.LBE202:
 126              	.LBB205:
 127              	.LBB201:
 128              		.loc 2 172 0
 129 0010 2460     		str	r4, [r4]
 130              	.LVL10:
 131              	.LBE201:
 132              	.LBE205:
 133              	.LBB206:
 134              	.LBB204:
 135              		.loc 2 193 0
 136 0012 FFF7FEFF 		bl	chEvtRegisterMaskWithFlags
 137              	.LVL11:
 138              	.LBE204:
 139              	.LBE206:
 140              	.LBB207:
 141              	.LBB208:
 142 0016 2046     		mov	r0, r4
 143 0018 05A9     		add	r1, sp, #20
 144              	.LVL12:
 145 001a 4FF0FF33 		mov	r3, #-1
 146 001e 0222     		movs	r2, #2
 147 0020 FFF7FEFF 		bl	chEvtRegisterMaskWithFlags
 148              	.LVL13:
 149              	.LBE208:
 150              	.LBE207:
 151              	.LBB209:
 152              	.LBB210:
 153              		.loc 2 226 0
 154 0024 2168     		ldr	r1, [r4]
 155              	.LBE210:
 156              	.LBE209:
 157              		.loc 1 94 0
 158 0026 091B     		subs	r1, r1, r4
 159 0028 18BF     		it	ne
 160 002a 0121     		movne	r1, #1
 161 002c 0120     		movs	r0, #1
 162 002e FFF7FEFF 		bl	_test_assert
 163              	.LVL14:
 164 0032 08B1     		cbz	r0, .L10
 165              	.L4:
 166              		.loc 1 105 0
 167 0034 0AB0     		add	sp, sp, #40
 168              		.cfi_remember_state
 169              		.cfi_def_cfa_offset 8
 170              		@ sp needed
 171 0036 10BD     		pop	{r4, pc}
ARM GAS  /tmp/cc4ZLxjk.s 			page 4


 172              	.L10:
 173              		.cfi_restore_state
 174              		.loc 1 95 0
 175 0038 6946     		mov	r1, sp
 176 003a 2046     		mov	r0, r4
 177 003c FFF7FEFF 		bl	chEvtUnregister
 178              	.LVL15:
 179              	.LBB211:
 180              	.LBB212:
 181              		.loc 2 226 0
 182 0040 2168     		ldr	r1, [r4]
 183              	.LBE212:
 184              	.LBE211:
 185              		.loc 1 96 0
 186 0042 091B     		subs	r1, r1, r4
 187 0044 18BF     		it	ne
 188 0046 0121     		movne	r1, #1
 189 0048 0220     		movs	r0, #2
 190 004a FFF7FEFF 		bl	_test_assert
 191              	.LVL16:
 192 004e 0028     		cmp	r0, #0
 193 0050 F0D1     		bne	.L4
 194              		.loc 1 97 0
 195 0052 05A9     		add	r1, sp, #20
 196 0054 2046     		mov	r0, r4
 197 0056 FFF7FEFF 		bl	chEvtUnregister
 198              	.LVL17:
 199              		.loc 1 98 0
 200 005a 2168     		ldr	r1, [r4]
 201 005c 091B     		subs	r1, r1, r4
 202 005e B1FA81F1 		clz	r1, r1
 203 0062 0320     		movs	r0, #3
 204 0064 4909     		lsrs	r1, r1, #5
 205 0066 FFF7FEFF 		bl	_test_assert
 206              	.LVL18:
 207 006a 0028     		cmp	r0, #0
 208 006c E2D1     		bne	.L4
 209              		.loc 1 103 0
 210 006e 0721     		movs	r1, #7
 211 0070 0448     		ldr	r0, .L11+4
 212 0072 FFF7FEFF 		bl	chEvtDispatch
 213              	.LVL19:
 214              		.loc 1 104 0
 215 0076 0449     		ldr	r1, .L11+8
 216 0078 0420     		movs	r0, #4
 217 007a FFF7FEFF 		bl	_test_assert_sequence
 218              	.LVL20:
 219 007e D9E7     		b	.L4
 220              	.L12:
 221              		.align	2
 222              	.L11:
 223 0080 00000000 		.word	.LANCHOR0
 224 0084 00000000 		.word	.LANCHOR1
 225 0088 00000000 		.word	.LC0
 226              		.cfi_endproc
 227              	.LFE231:
 228              		.size	evt1_execute, .-evt1_execute
ARM GAS  /tmp/cc4ZLxjk.s 			page 5


 229              		.section	.text.evt3_setup,"ax",%progbits
 230              		.align	1
 231              		.p2align 4,,15
 232              		.syntax unified
 233              		.thumb
 234              		.thumb_func
 235              		.fpu softvfp
 236              		.type	evt3_setup, %function
 237              	evt3_setup:
 238              	.LFB236:
 239              		.loc 1 247 0
 240              		.cfi_startproc
 241              		@ args = 0, pretend = 0, frame = 0
 242              		@ frame_needed = 0, uses_anonymous_args = 0
 243              		@ link register save eliminated.
 244              		.loc 1 249 0
 245 0000 4FF0FF30 		mov	r0, #-1
 246 0004 FFF7FEBF 		b	chEvtGetAndClearEvents
 247              	.LVL21:
 248              		.cfi_endproc
 249              	.LFE236:
 250              		.size	evt3_setup, .-evt3_setup
 251              		.section	.text.evt2_setup,"ax",%progbits
 252              		.align	1
 253              		.p2align 4,,15
 254              		.syntax unified
 255              		.thumb
 256              		.thumb_func
 257              		.fpu softvfp
 258              		.type	evt2_setup, %function
 259              	evt2_setup:
 260              	.LFB241:
 261              		.cfi_startproc
 262              		@ args = 0, pretend = 0, frame = 0
 263              		@ frame_needed = 0, uses_anonymous_args = 0
 264              		@ link register save eliminated.
 265 0000 FFF7FEBF 		b	evt3_setup
 266              		.cfi_endproc
 267              	.LFE241:
 268              		.size	evt2_setup, .-evt2_setup
 269              		.section	.text.evt1_setup,"ax",%progbits
 270              		.align	1
 271              		.p2align 4,,15
 272              		.syntax unified
 273              		.thumb
 274              		.thumb_func
 275              		.fpu softvfp
 276              		.type	evt1_setup, %function
 277              	evt1_setup:
 278              	.LFB243:
 279              		.cfi_startproc
 280              		@ args = 0, pretend = 0, frame = 0
 281              		@ frame_needed = 0, uses_anonymous_args = 0
 282              		@ link register save eliminated.
 283 0000 FFF7FEBF 		b	evt3_setup
 284              		.cfi_endproc
 285              	.LFE243:
ARM GAS  /tmp/cc4ZLxjk.s 			page 6


 286              		.size	evt1_setup, .-evt1_setup
 287              		.section	.text.thread2,"ax",%progbits
 288              		.align	1
 289              		.p2align 4,,15
 290              		.syntax unified
 291              		.thumb
 292              		.thumb_func
 293              		.fpu softvfp
 294              		.type	thread2, %function
 295              	thread2:
 296              	.LFB234:
 297              		.loc 1 139 0
 298              		.cfi_startproc
 299              		@ args = 0, pretend = 0, frame = 0
 300              		@ frame_needed = 0, uses_anonymous_args = 0
 301              	.LVL22:
 302              		.loc 1 139 0
 303 0000 08B5     		push	{r3, lr}
 304              		.cfi_def_cfa_offset 8
 305              		.cfi_offset 3, -8
 306              		.cfi_offset 14, -4
 307              	.LBB213:
 308              	.LBB214:
 309              		.loc 2 239 0
 310 0002 0021     		movs	r1, #0
 311 0004 0648     		ldr	r0, .L18
 312              	.LVL23:
 313 0006 FFF7FEFF 		bl	chEvtBroadcastFlags
 314              	.LVL24:
 315              	.LBE214:
 316              	.LBE213:
 317              		.loc 1 143 0
 318 000a 4FF4FA70 		mov	r0, #500
 319 000e FFF7FEFF 		bl	chThdSleep
 320              	.LVL25:
 321              	.LBB215:
 322              	.LBB216:
 323              		.loc 2 239 0
 324 0012 0021     		movs	r1, #0
 325 0014 0348     		ldr	r0, .L18+4
 326              	.LBE216:
 327              	.LBE215:
 328              		.loc 1 145 0
 329 0016 BDE80840 		pop	{r3, lr}
 330              		.cfi_restore 14
 331              		.cfi_restore 3
 332              		.cfi_def_cfa_offset 0
 333              	.LBB218:
 334              	.LBB217:
 335              		.loc 2 239 0
 336 001a FFF7FEBF 		b	chEvtBroadcastFlags
 337              	.LVL26:
 338              	.L19:
 339 001e 00BF     		.align	2
 340              	.L18:
 341 0020 00000000 		.word	.LANCHOR0
 342 0024 00000000 		.word	.LANCHOR2
ARM GAS  /tmp/cc4ZLxjk.s 			page 7


 343              	.LBE217:
 344              	.LBE218:
 345              		.cfi_endproc
 346              	.LFE234:
 347              		.size	thread2, .-thread2
 348              		.section	.text.thread1,"ax",%progbits
 349              		.align	1
 350              		.p2align 4,,15
 351              		.syntax unified
 352              		.thumb
 353              		.thumb_func
 354              		.fpu softvfp
 355              		.type	thread1, %function
 356              	thread1:
 357              	.LFB233:
 358              		.loc 1 133 0
 359              		.cfi_startproc
 360              		@ args = 0, pretend = 0, frame = 0
 361              		@ frame_needed = 0, uses_anonymous_args = 0
 362              	.LVL27:
 363 0000 10B5     		push	{r4, lr}
 364              		.cfi_def_cfa_offset 8
 365              		.cfi_offset 4, -8
 366              		.cfi_offset 14, -4
 367              		.loc 1 133 0
 368 0002 0446     		mov	r4, r0
 369              		.loc 1 135 0
 370 0004 4FF4FA70 		mov	r0, #500
 371              	.LVL28:
 372 0008 FFF7FEFF 		bl	chThdSleep
 373              	.LVL29:
 374              		.loc 1 136 0
 375 000c 2046     		mov	r0, r4
 376 000e 0121     		movs	r1, #1
 377              		.loc 1 137 0
 378 0010 BDE81040 		pop	{r4, lr}
 379              		.cfi_restore 14
 380              		.cfi_restore 4
 381              		.cfi_def_cfa_offset 0
 382              	.LVL30:
 383              		.loc 1 136 0
 384 0014 FFF7FEBF 		b	chEvtSignal
 385              	.LVL31:
 386              		.cfi_endproc
 387              	.LFE233:
 388              		.size	thread1, .-thread1
 389              		.section	.text.evt2_execute,"ax",%progbits
 390              		.align	1
 391              		.p2align 4,,15
 392              		.syntax unified
 393              		.thumb
 394              		.thumb_func
 395              		.fpu softvfp
 396              		.type	evt2_execute, %function
 397              	evt2_execute:
 398              	.LFB235:
 399              		.loc 1 147 0
ARM GAS  /tmp/cc4ZLxjk.s 			page 8


 400              		.cfi_startproc
 401              		@ args = 0, pretend = 0, frame = 40
 402              		@ frame_needed = 0, uses_anonymous_args = 0
 403 0000 2DE9F04F 		push	{r4, r5, r6, r7, r8, r9, r10, fp, lr}
 404              		.cfi_def_cfa_offset 36
 405              		.cfi_offset 4, -36
 406              		.cfi_offset 5, -32
 407              		.cfi_offset 6, -28
 408              		.cfi_offset 7, -24
 409              		.cfi_offset 8, -20
 410              		.cfi_offset 9, -16
 411              		.cfi_offset 10, -12
 412              		.cfi_offset 11, -8
 413              		.cfi_offset 14, -4
 414              		.loc 1 155 0
 415 0004 0720     		movs	r0, #7
 416              		.loc 1 147 0
 417 0006 8DB0     		sub	sp, sp, #52
 418              		.cfi_def_cfa_offset 88
 419              		.loc 1 155 0
 420 0008 FFF7FEFF 		bl	chEvtAddEvents
 421              	.LVL32:
 422              		.loc 1 156 0
 423 000c 4FF0FF30 		mov	r0, #-1
 424 0010 FFF7FEFF 		bl	chEvtWaitOne
 425              	.LVL33:
 426              		.loc 1 157 0
 427 0014 A0F10101 		sub	r1, r0, #1
 428 0018 B1FA81F1 		clz	r1, r1
 429 001c 4909     		lsrs	r1, r1, #5
 430 001e 0120     		movs	r0, #1
 431              	.LVL34:
 432 0020 FFF7FEFF 		bl	_test_assert
 433              	.LVL35:
 434 0024 10B1     		cbz	r0, .L30
 435              	.L22:
 436              		.loc 1 222 0
 437 0026 0DB0     		add	sp, sp, #52
 438              		.cfi_remember_state
 439              		.cfi_def_cfa_offset 36
 440              		@ sp needed
 441 0028 BDE8F08F 		pop	{r4, r5, r6, r7, r8, r9, r10, fp, pc}
 442              	.L30:
 443              		.cfi_restore_state
 444              		.loc 1 158 0
 445 002c 4FF0FF30 		mov	r0, #-1
 446 0030 FFF7FEFF 		bl	chEvtWaitOne
 447              	.LVL36:
 448              		.loc 1 159 0
 449 0034 A0F10201 		sub	r1, r0, #2
 450 0038 B1FA81F1 		clz	r1, r1
 451 003c 4909     		lsrs	r1, r1, #5
 452 003e 0220     		movs	r0, #2
 453              	.LVL37:
 454 0040 FFF7FEFF 		bl	_test_assert
 455              	.LVL38:
 456 0044 0028     		cmp	r0, #0
ARM GAS  /tmp/cc4ZLxjk.s 			page 9


 457 0046 EED1     		bne	.L22
 458              		.loc 1 160 0
 459 0048 4FF0FF30 		mov	r0, #-1
 460 004c FFF7FEFF 		bl	chEvtWaitOne
 461              	.LVL39:
 462              		.loc 1 161 0
 463 0050 A0F10401 		sub	r1, r0, #4
 464 0054 B1FA81F1 		clz	r1, r1
 465 0058 4909     		lsrs	r1, r1, #5
 466 005a 0320     		movs	r0, #3
 467              	.LVL40:
 468 005c FFF7FEFF 		bl	_test_assert
 469              	.LVL41:
 470 0060 0028     		cmp	r0, #0
 471 0062 E0D1     		bne	.L22
 472              	.LBB294:
 473              	.LBB295:
 474              		.loc 1 162 0
 475 0064 4FF0FF30 		mov	r0, #-1
 476 0068 FFF7FEFF 		bl	chEvtGetAndClearEvents
 477              	.LVL42:
 478              		.loc 1 163 0
 479 006c B0FA80F1 		clz	r1, r0
 480 0070 4909     		lsrs	r1, r1, #5
 481 0072 0420     		movs	r0, #4
 482              	.LVL43:
 483 0074 FFF7FEFF 		bl	_test_assert
 484              	.LVL44:
 485 0078 0446     		mov	r4, r0
 486 007a 0028     		cmp	r0, #0
 487 007c D3D1     		bne	.L22
 488              		.loc 1 168 0
 489 007e FFF7FEFF 		bl	test_wait_tick
 490              	.LVL45:
 491              	.LBB296:
 492              	.LBB297:
 493              	.LBB298:
 494              	.LBB299:
 495              	.LBB300:
 496              	.LBB301:
 497              		.file 3 "/home/selim/working/ChibiOS/os/ext/CMSIS/include/core_cmFunc.h"
 498              		.loc 3 546 0
 499 0082 4FF02009 		mov	r9, #32
 500              		.syntax unified
 501              	@ 546 "/home/selim/working/ChibiOS/os/ext/CMSIS/include/core_cmFunc.h" 1
 502 0086 89F31188 		MSR basepri, r9
 503              	@ 0 "" 2
 504              	.LVL46:
 505              		.thumb
 506              		.syntax unified
 507              	.LBE301:
 508              	.LBE300:
 509              	.LBE299:
 510              	.LBE298:
 511              	.LBB302:
 512              	.LBB303:
 513              	.LBB304:
ARM GAS  /tmp/cc4ZLxjk.s 			page 10


 514              	.LBB305:
 515              		.file 4 "/home/selim/working/ChibiOS/os/hal/ports/STM32/LLD/TIMv1/st_lld.h"
 516              		.loc 4 129 0
 517 008a 4FF08048 		mov	r8, #1073741824
 518 008e D8F82450 		ldr	r5, [r8, #36]
 519              	.LVL47:
 520              	.LBE305:
 521              	.LBE304:
 522              	.LBE303:
 523              	.LBE302:
 524              	.LBB306:
 525              	.LBB307:
 526              	.LBB308:
 527              	.LBB309:
 528              	.LBB310:
 529              		.loc 3 546 0
 530              		.syntax unified
 531              	@ 546 "/home/selim/working/ChibiOS/os/ext/CMSIS/include/core_cmFunc.h" 1
 532 0092 84F31188 		MSR basepri, r4
 533              	@ 0 "" 2
 534              	.LVL48:
 535              		.thumb
 536              		.syntax unified
 537              	.LBE310:
 538              	.LBE309:
 539              	.LBE308:
 540              	.LBE307:
 541              	.LBE306:
 542              	.LBE297:
 543              	.LBE296:
 544              	.LBB311:
 545              	.LBB312:
 546              	.LBB313:
 547              	.LBB314:
 548              		.file 5 "/home/selim/working/ChibiOS/os/rt/include/chthreads.h"
 549              		.loc 5 176 0
 550 0096 784F     		ldr	r7, .L31
 551              	.LBE314:
 552              	.LBE313:
 553              	.LBE312:
 554              	.LBE311:
 555              		.loc 1 170 0
 556 0098 DFF8F8A1 		ldr	r10, .L31+28
 557              	.LBB318:
 558              	.LBB317:
 559              	.LBB316:
 560              	.LBB315:
 561              		.loc 5 176 0
 562 009c B969     		ldr	r1, [r7, #24]
 563              	.LBE315:
 564              	.LBE316:
 565              	.LBE317:
 566              	.LBE318:
 567              		.loc 1 170 0
 568 009e DAF80060 		ldr	r6, [r10]
 569 00a2 8A68     		ldr	r2, [r1, #8]
 570 00a4 754B     		ldr	r3, .L31+4
ARM GAS  /tmp/cc4ZLxjk.s 			page 11


 571 00a6 0091     		str	r1, [sp]
 572 00a8 013A     		subs	r2, r2, #1
 573 00aa 4FF4A471 		mov	r1, #328
 574 00ae 3046     		mov	r0, r6
 575 00b0 FFF7FEFF 		bl	chThdCreateStatic
 576              	.LVL49:
 577 00b4 724C     		ldr	r4, .L31+8
 578 00b6 2060     		str	r0, [r4]
 579              		.loc 1 172 0
 580 00b8 4FF0FF30 		mov	r0, #-1
 581 00bc FFF7FEFF 		bl	chEvtWaitOne
 582              	.LVL50:
 583              		.loc 1 173 0
 584 00c0 05F22622 		addw	r2, r5, #550
 585              		.loc 1 172 0
 586 00c4 8346     		mov	fp, r0
 587              	.LVL51:
 588              		.loc 1 173 0
 589 00c6 05F5FA71 		add	r1, r5, #500
 590              	.LVL52:
 591 00ca 0520     		movs	r0, #5
 592              	.LVL53:
 593 00cc FFF7FEFF 		bl	_test_assert_time_window
 594              	.LVL54:
 595 00d0 0028     		cmp	r0, #0
 596 00d2 A8D1     		bne	.L22
 597              		.loc 1 174 0
 598 00d4 ABF10101 		sub	r1, fp, #1
 599 00d8 B1FA81F1 		clz	r1, r1
 600 00dc 4909     		lsrs	r1, r1, #5
 601 00de 0620     		movs	r0, #6
 602 00e0 FFF7FEFF 		bl	_test_assert
 603              	.LVL55:
 604 00e4 0028     		cmp	r0, #0
 605 00e6 9ED1     		bne	.L22
 606              		.loc 1 175 0
 607 00e8 4FF0FF30 		mov	r0, #-1
 608 00ec FFF7FEFF 		bl	chEvtGetAndClearEvents
 609              	.LVL56:
 610              		.loc 1 176 0
 611 00f0 B0FA80F1 		clz	r1, r0
 612 00f4 4909     		lsrs	r1, r1, #5
 613 00f6 0720     		movs	r0, #7
 614              	.LVL57:
 615 00f8 FFF7FEFF 		bl	_test_assert
 616              	.LVL58:
 617 00fc 0028     		cmp	r0, #0
 618 00fe 92D1     		bne	.L22
 619              		.loc 1 177 0
 620 0100 FFF7FEFF 		bl	test_wait_threads
 621              	.LVL59:
 622              		.loc 1 182 0
 623 0104 0520     		movs	r0, #5
 624 0106 FFF7FEFF 		bl	chEvtAddEvents
 625              	.LVL60:
 626              		.loc 1 183 0
 627 010a 4FF0FF30 		mov	r0, #-1
ARM GAS  /tmp/cc4ZLxjk.s 			page 12


 628 010e FFF7FEFF 		bl	chEvtWaitAny
 629              	.LVL61:
 630              		.loc 1 184 0
 631 0112 A0F10501 		sub	r1, r0, #5
 632 0116 B1FA81F1 		clz	r1, r1
 633 011a 4909     		lsrs	r1, r1, #5
 634 011c 0820     		movs	r0, #8
 635              	.LVL62:
 636 011e FFF7FEFF 		bl	_test_assert
 637              	.LVL63:
 638 0122 0028     		cmp	r0, #0
 639 0124 7FF47FAF 		bne	.L22
 640              		.loc 1 185 0
 641 0128 4FF0FF30 		mov	r0, #-1
 642 012c FFF7FEFF 		bl	chEvtGetAndClearEvents
 643              	.LVL64:
 644              		.loc 1 186 0
 645 0130 B0FA80F1 		clz	r1, r0
 646 0134 4909     		lsrs	r1, r1, #5
 647 0136 0920     		movs	r0, #9
 648              	.LVL65:
 649 0138 FFF7FEFF 		bl	_test_assert
 650              	.LVL66:
 651 013c 8346     		mov	fp, r0
 652 013e 0028     		cmp	r0, #0
 653 0140 7FF471AF 		bne	.L22
 654              		.loc 1 191 0
 655 0144 FFF7FEFF 		bl	test_wait_tick
 656              	.LVL67:
 657              	.LBB319:
 658              	.LBB320:
 659              	.LBB321:
 660              	.LBB322:
 661              	.LBB323:
 662              	.LBB324:
 663              		.loc 3 546 0
 664              		.syntax unified
 665              	@ 546 "/home/selim/working/ChibiOS/os/ext/CMSIS/include/core_cmFunc.h" 1
 666 0148 89F31188 		MSR basepri, r9
 667              	@ 0 "" 2
 668              	.LVL68:
 669              		.thumb
 670              		.syntax unified
 671              	.LBE324:
 672              	.LBE323:
 673              	.LBE322:
 674              	.LBE321:
 675              	.LBB325:
 676              	.LBB326:
 677              	.LBB327:
 678              	.LBB328:
 679              		.loc 4 129 0
 680 014c D8F82450 		ldr	r5, [r8, #36]
 681              	.LVL69:
 682              	.LBE328:
 683              	.LBE327:
 684              	.LBE326:
ARM GAS  /tmp/cc4ZLxjk.s 			page 13


 685              	.LBE325:
 686              	.LBB329:
 687              	.LBB330:
 688              	.LBB331:
 689              	.LBB332:
 690              	.LBB333:
 691              		.loc 3 546 0
 692              		.syntax unified
 693              	@ 546 "/home/selim/working/ChibiOS/os/ext/CMSIS/include/core_cmFunc.h" 1
 694 0150 8BF31188 		MSR basepri, fp
 695              	@ 0 "" 2
 696              	.LVL70:
 697              		.thumb
 698              		.syntax unified
 699              	.LBE333:
 700              	.LBE332:
 701              	.LBE331:
 702              	.LBE330:
 703              	.LBE329:
 704              	.LBE320:
 705              	.LBE319:
 706              	.LBB334:
 707              	.LBB335:
 708              	.LBB336:
 709              	.LBB337:
 710              		.loc 5 176 0
 711 0154 B969     		ldr	r1, [r7, #24]
 712              	.LBE337:
 713              	.LBE336:
 714              	.LBE335:
 715              	.LBE334:
 716              		.loc 1 193 0
 717 0156 494B     		ldr	r3, .L31+4
 718 0158 8A68     		ldr	r2, [r1, #8]
 719 015a 0091     		str	r1, [sp]
 720 015c 013A     		subs	r2, r2, #1
 721 015e 4FF4A471 		mov	r1, #328
 722 0162 3046     		mov	r0, r6
 723 0164 FFF7FEFF 		bl	chThdCreateStatic
 724              	.LVL71:
 725 0168 2060     		str	r0, [r4]
 726              		.loc 1 195 0
 727 016a 4FF0FF30 		mov	r0, #-1
 728 016e FFF7FEFF 		bl	chEvtWaitAny
 729              	.LVL72:
 730              		.loc 1 196 0
 731 0172 05F22622 		addw	r2, r5, #550
 732              		.loc 1 195 0
 733 0176 0646     		mov	r6, r0
 734              	.LVL73:
 735              		.loc 1 196 0
 736 0178 05F5FA71 		add	r1, r5, #500
 737              	.LVL74:
 738 017c 0A20     		movs	r0, #10
 739              	.LVL75:
 740 017e FFF7FEFF 		bl	_test_assert_time_window
 741              	.LVL76:
ARM GAS  /tmp/cc4ZLxjk.s 			page 14


 742 0182 0028     		cmp	r0, #0
 743 0184 7FF44FAF 		bne	.L22
 744              		.loc 1 197 0
 745 0188 701E     		subs	r0, r6, #1
 746 018a 4142     		rsbs	r1, r0, #0
 747 018c 4141     		adcs	r1, r1, r0
 748 018e 0B20     		movs	r0, #11
 749 0190 FFF7FEFF 		bl	_test_assert
 750              	.LVL77:
 751 0194 0028     		cmp	r0, #0
 752 0196 7FF446AF 		bne	.L22
 753              		.loc 1 198 0
 754 019a 4FF0FF30 		mov	r0, #-1
 755 019e FFF7FEFF 		bl	chEvtGetAndClearEvents
 756              	.LVL78:
 757              		.loc 1 199 0
 758 01a2 B0FA80F1 		clz	r1, r0
 759 01a6 4909     		lsrs	r1, r1, #5
 760 01a8 0C20     		movs	r0, #12
 761              	.LVL79:
 762 01aa FFF7FEFF 		bl	_test_assert
 763              	.LVL80:
 764 01ae 8146     		mov	r9, r0
 765 01b0 0028     		cmp	r0, #0
 766 01b2 7FF438AF 		bne	.L22
 767              	.LBB338:
 768              	.LBB339:
 769              		.loc 2 172 0
 770 01b6 334E     		ldr	r6, .L31+12
 771              	.LBE339:
 772              	.LBE338:
 773              	.LBB341:
 774              	.LBB342:
 775 01b8 334D     		ldr	r5, .L31+16
 776              	.LVL81:
 777              	.LBE342:
 778              	.LBE341:
 779              		.loc 1 200 0
 780 01ba FFF7FEFF 		bl	test_wait_threads
 781              	.LVL82:
 782              	.LBB344:
 783              	.LBB345:
 784              		.loc 2 193 0
 785 01be 3046     		mov	r0, r6
 786 01c0 02A9     		add	r1, sp, #8
 787 01c2 4FF0FF33 		mov	r3, #-1
 788 01c6 0122     		movs	r2, #1
 789              	.LBE345:
 790              	.LBE344:
 791              	.LBB347:
 792              	.LBB340:
 793              		.loc 2 172 0
 794 01c8 3660     		str	r6, [r6]
 795              	.LVL83:
 796              	.LBE340:
 797              	.LBE347:
 798              	.LBB348:
ARM GAS  /tmp/cc4ZLxjk.s 			page 15


 799              	.LBB343:
 800 01ca 2D60     		str	r5, [r5]
 801              	.LVL84:
 802              	.LBE343:
 803              	.LBE348:
 804              	.LBB349:
 805              	.LBB346:
 806              		.loc 2 193 0
 807 01cc FFF7FEFF 		bl	chEvtRegisterMaskWithFlags
 808              	.LVL85:
 809              	.LBE346:
 810              	.LBE349:
 811              	.LBB350:
 812              	.LBB351:
 813 01d0 2846     		mov	r0, r5
 814 01d2 07A9     		add	r1, sp, #28
 815              	.LVL86:
 816 01d4 4FF0FF33 		mov	r3, #-1
 817 01d8 0422     		movs	r2, #4
 818 01da FFF7FEFF 		bl	chEvtRegisterMaskWithFlags
 819              	.LVL87:
 820              	.LBE351:
 821              	.LBE350:
 822              		.loc 1 209 0
 823 01de FFF7FEFF 		bl	test_wait_tick
 824              	.LVL88:
 825              	.LBB352:
 826              	.LBB353:
 827              	.LBB354:
 828              	.LBB355:
 829              	.LBB356:
 830              	.LBB357:
 831              		.loc 3 546 0
 832 01e2 2023     		movs	r3, #32
 833              		.syntax unified
 834              	@ 546 "/home/selim/working/ChibiOS/os/ext/CMSIS/include/core_cmFunc.h" 1
 835 01e4 83F31188 		MSR basepri, r3
 836              	@ 0 "" 2
 837              	.LVL89:
 838              		.thumb
 839              		.syntax unified
 840              	.LBE357:
 841              	.LBE356:
 842              	.LBE355:
 843              	.LBE354:
 844              	.LBB358:
 845              	.LBB359:
 846              	.LBB360:
 847              	.LBB361:
 848              		.loc 4 129 0
 849 01e8 D8F82480 		ldr	r8, [r8, #36]
 850              	.LVL90:
 851              	.LBE361:
 852              	.LBE360:
 853              	.LBE359:
 854              	.LBE358:
 855              	.LBB362:
ARM GAS  /tmp/cc4ZLxjk.s 			page 16


 856              	.LBB363:
 857              	.LBB364:
 858              	.LBB365:
 859              	.LBB366:
 860              		.loc 3 546 0
 861              		.syntax unified
 862              	@ 546 "/home/selim/working/ChibiOS/os/ext/CMSIS/include/core_cmFunc.h" 1
 863 01ec 89F31188 		MSR basepri, r9
 864              	@ 0 "" 2
 865              	.LVL91:
 866              		.thumb
 867              		.syntax unified
 868              	.LBE366:
 869              	.LBE365:
 870              	.LBE364:
 871              	.LBE363:
 872              	.LBE362:
 873              	.LBE353:
 874              	.LBE352:
 875              	.LBB367:
 876              	.LBB368:
 877              		.loc 5 189 0
 878 01f0 BA69     		ldr	r2, [r7, #24]
 879              	.LBE368:
 880              	.LBE367:
 881              		.loc 1 211 0
 882 01f2 264B     		ldr	r3, .L31+20
 883 01f4 9268     		ldr	r2, [r2, #8]
 884 01f6 DAF80000 		ldr	r0, [r10]
 885 01fa 0093     		str	r3, [sp]
 886 01fc 013A     		subs	r2, r2, #1
 887 01fe 4FF4A471 		mov	r1, #328
 888 0202 234B     		ldr	r3, .L31+24
 889 0204 FFF7FEFF 		bl	chThdCreateStatic
 890              	.LVL92:
 891 0208 2060     		str	r0, [r4]
 892              		.loc 1 213 0
 893 020a 0520     		movs	r0, #5
 894 020c FFF7FEFF 		bl	chEvtWaitAll
 895              	.LVL93:
 896              		.loc 1 214 0
 897 0210 08F22622 		addw	r2, r8, #550
 898 0214 08F5FA71 		add	r1, r8, #500
 899              	.LVL94:
 900 0218 0D20     		movs	r0, #13
 901 021a FFF7FEFF 		bl	_test_assert_time_window
 902              	.LVL95:
 903 021e 0028     		cmp	r0, #0
 904 0220 7FF401AF 		bne	.L22
 905              		.loc 1 215 0
 906 0224 4FF0FF30 		mov	r0, #-1
 907 0228 FFF7FEFF 		bl	chEvtGetAndClearEvents
 908              	.LVL96:
 909              		.loc 1 216 0
 910 022c B0FA80F1 		clz	r1, r0
 911 0230 4909     		lsrs	r1, r1, #5
 912 0232 0E20     		movs	r0, #14
ARM GAS  /tmp/cc4ZLxjk.s 			page 17


 913              	.LVL97:
 914 0234 FFF7FEFF 		bl	_test_assert
 915              	.LVL98:
 916 0238 0028     		cmp	r0, #0
 917 023a 7FF4F4AE 		bne	.L22
 918              		.loc 1 217 0
 919 023e FFF7FEFF 		bl	test_wait_threads
 920              	.LVL99:
 921              		.loc 1 218 0
 922 0242 02A9     		add	r1, sp, #8
 923 0244 3046     		mov	r0, r6
 924 0246 FFF7FEFF 		bl	chEvtUnregister
 925              	.LVL100:
 926              		.loc 1 219 0
 927 024a 07A9     		add	r1, sp, #28
 928 024c 2846     		mov	r0, r5
 929 024e FFF7FEFF 		bl	chEvtUnregister
 930              	.LVL101:
 931              		.loc 1 220 0
 932 0252 3168     		ldr	r1, [r6]
 933 0254 8A1B     		subs	r2, r1, r6
 934 0256 5142     		rsbs	r1, r2, #0
 935 0258 5141     		adcs	r1, r1, r2
 936 025a 0F20     		movs	r0, #15
 937 025c FFF7FEFF 		bl	_test_assert
 938              	.LVL102:
 939 0260 0028     		cmp	r0, #0
 940 0262 7FF4E0AE 		bne	.L22
 941              		.loc 1 221 0
 942 0266 2968     		ldr	r1, [r5]
 943 0268 4B1B     		subs	r3, r1, r5
 944 026a 5942     		rsbs	r1, r3, #0
 945 026c 5941     		adcs	r1, r1, r3
 946 026e 1020     		movs	r0, #16
 947 0270 FFF7FEFF 		bl	_test_assert
 948              	.LVL103:
 949 0274 D7E6     		b	.L22
 950              	.L32:
 951 0276 00BF     		.align	2
 952              	.L31:
 953 0278 00000000 		.word	ch
 954 027c 00000000 		.word	thread1
 955 0280 00000000 		.word	threads
 956 0284 00000000 		.word	.LANCHOR0
 957 0288 00000000 		.word	.LANCHOR2
 958 028c 00000000 		.word	.LC1
 959 0290 00000000 		.word	thread2
 960 0294 00000000 		.word	wa
 961              	.LBE295:
 962              	.LBE294:
 963              		.cfi_endproc
 964              	.LFE235:
 965              		.size	evt2_execute, .-evt2_execute
 966              		.section	.text.evt3_execute,"ax",%progbits
 967              		.align	1
 968              		.p2align 4,,15
 969              		.syntax unified
ARM GAS  /tmp/cc4ZLxjk.s 			page 18


 970              		.thumb
 971              		.thumb_func
 972              		.fpu softvfp
 973              		.type	evt3_execute, %function
 974              	evt3_execute:
 975              	.LFB237:
 976              		.loc 1 252 0
 977              		.cfi_startproc
 978              		@ args = 0, pretend = 0, frame = 0
 979              		@ frame_needed = 0, uses_anonymous_args = 0
 980 0000 08B5     		push	{r3, lr}
 981              		.cfi_def_cfa_offset 8
 982              		.cfi_offset 3, -8
 983              		.cfi_offset 14, -4
 984              		.loc 1 258 0
 985 0002 0021     		movs	r1, #0
 986 0004 4FF0FF30 		mov	r0, #-1
 987 0008 FFF7FEFF 		bl	chEvtWaitOneTimeout
 988              	.LVL104:
 989              		.loc 1 259 0
 990 000c B0FA80F1 		clz	r1, r0
 991 0010 4909     		lsrs	r1, r1, #5
 992 0012 0120     		movs	r0, #1
 993              	.LVL105:
 994 0014 FFF7FEFF 		bl	_test_assert
 995              	.LVL106:
 996 0018 00B1     		cbz	r0, .L38
 997              	.L33:
 998 001a 08BD     		pop	{r3, pc}
 999              	.L38:
 1000              		.loc 1 260 0
 1001 001c 0146     		mov	r1, r0
 1002 001e 4FF0FF30 		mov	r0, #-1
 1003 0022 FFF7FEFF 		bl	chEvtWaitAnyTimeout
 1004              	.LVL107:
 1005              		.loc 1 261 0
 1006 0026 B0FA80F1 		clz	r1, r0
 1007 002a 4909     		lsrs	r1, r1, #5
 1008 002c 0220     		movs	r0, #2
 1009              	.LVL108:
 1010 002e FFF7FEFF 		bl	_test_assert
 1011              	.LVL109:
 1012 0032 0028     		cmp	r0, #0
 1013 0034 F1D1     		bne	.L33
 1014              		.loc 1 262 0
 1015 0036 0146     		mov	r1, r0
 1016 0038 4FF0FF30 		mov	r0, #-1
 1017 003c FFF7FEFF 		bl	chEvtWaitAllTimeout
 1018              	.LVL110:
 1019              		.loc 1 263 0
 1020 0040 B0FA80F1 		clz	r1, r0
 1021 0044 4909     		lsrs	r1, r1, #5
 1022 0046 0320     		movs	r0, #3
 1023              	.LVL111:
 1024 0048 FFF7FEFF 		bl	_test_assert
 1025              	.LVL112:
 1026 004c 0028     		cmp	r0, #0
ARM GAS  /tmp/cc4ZLxjk.s 			page 19


 1027 004e E4D1     		bne	.L33
 1028              	.LBB371:
 1029              	.LBB372:
 1030              		.loc 1 264 0
 1031 0050 0A21     		movs	r1, #10
 1032 0052 4FF0FF30 		mov	r0, #-1
 1033 0056 FFF7FEFF 		bl	chEvtWaitOneTimeout
 1034              	.LVL113:
 1035              		.loc 1 265 0
 1036 005a B0FA80F1 		clz	r1, r0
 1037 005e 4909     		lsrs	r1, r1, #5
 1038 0060 0420     		movs	r0, #4
 1039              	.LVL114:
 1040 0062 FFF7FEFF 		bl	_test_assert
 1041              	.LVL115:
 1042 0066 0028     		cmp	r0, #0
 1043 0068 D7D1     		bne	.L33
 1044              		.loc 1 266 0
 1045 006a 0A21     		movs	r1, #10
 1046 006c 4FF0FF30 		mov	r0, #-1
 1047 0070 FFF7FEFF 		bl	chEvtWaitAnyTimeout
 1048              	.LVL116:
 1049              		.loc 1 267 0
 1050 0074 B0FA80F1 		clz	r1, r0
 1051 0078 4909     		lsrs	r1, r1, #5
 1052 007a 0520     		movs	r0, #5
 1053              	.LVL117:
 1054 007c FFF7FEFF 		bl	_test_assert
 1055              	.LVL118:
 1056 0080 0028     		cmp	r0, #0
 1057 0082 CAD1     		bne	.L33
 1058              		.loc 1 268 0
 1059 0084 0A21     		movs	r1, #10
 1060 0086 4FF0FF30 		mov	r0, #-1
 1061 008a FFF7FEFF 		bl	chEvtWaitAllTimeout
 1062              	.LVL119:
 1063              		.loc 1 269 0
 1064 008e B0FA80F1 		clz	r1, r0
 1065 0092 4909     		lsrs	r1, r1, #5
 1066 0094 0620     		movs	r0, #6
 1067              	.LVL120:
 1068              	.LBE372:
 1069              	.LBE371:
 1070              		.loc 1 270 0
 1071 0096 BDE80840 		pop	{r3, lr}
 1072              		.cfi_restore 14
 1073              		.cfi_restore 3
 1074              		.cfi_def_cfa_offset 0
 1075              	.LBB374:
 1076              	.LBB373:
 1077              		.loc 1 269 0
 1078 009a FFF7FEBF 		b	_test_assert
 1079              	.LVL121:
 1080              	.LBE373:
 1081              	.LBE374:
 1082              		.cfi_endproc
 1083              	.LFE237:
ARM GAS  /tmp/cc4ZLxjk.s 			page 20


 1084              		.size	evt3_execute, .-evt3_execute
 1085              		.global	patternevt
 1086              		.global	testevt3
 1087              		.global	testevt2
 1088              		.global	testevt1
 1089 009e 00BF     		.section	.data.es1,"aw",%progbits
 1090              		.align	2
 1091              		.set	.LANCHOR0,. + 0
 1092              		.type	es1, %object
 1093              		.size	es1, 4
 1094              	es1:
 1095 0000 00000000 		.word	es1
 1096              		.section	.data.es2,"aw",%progbits
 1097              		.align	2
 1098              		.set	.LANCHOR2,. + 0
 1099              		.type	es2, %object
 1100              		.size	es2, 4
 1101              	es2:
 1102 0000 00000000 		.word	es2
 1103              		.section	.rodata.evhndl,"a",%progbits
 1104              		.align	2
 1105              		.set	.LANCHOR1,. + 0
 1106              		.type	evhndl, %object
 1107              		.size	evhndl, 12
 1108              	evhndl:
 1109 0000 00000000 		.word	h1
 1110 0004 00000000 		.word	h2
 1111 0008 00000000 		.word	h3
 1112              		.section	.rodata.evt1_execute.str1.4,"aMS",%progbits,1
 1113              		.align	2
 1114              	.LC0:
 1115 0000 41424300 		.ascii	"ABC\000"
 1116              		.section	.rodata.evt2_execute.str1.4,"aMS",%progbits,1
 1117              		.align	2
 1118              	.LC1:
 1119 0000 4100     		.ascii	"A\000"
 1120              		.section	.rodata.patternevt,"a",%progbits
 1121              		.align	2
 1122              		.type	patternevt, %object
 1123              		.size	patternevt, 16
 1124              	patternevt:
 1125 0000 00000000 		.word	testevt1
 1126 0004 00000000 		.word	testevt2
 1127 0008 00000000 		.word	testevt3
 1128 000c 00000000 		.word	0
 1129              		.section	.rodata.str1.4,"aMS",%progbits,1
 1130              		.align	2
 1131              	.LC2:
 1132 0000 4576656E 		.ascii	"Events, timeouts\000"
 1132      74732C20 
 1132      74696D65 
 1132      6F757473 
 1132      00
 1133 0011 000000   		.space	3
 1134              	.LC3:
 1135 0014 4576656E 		.ascii	"Events, wait and broadcast\000"
 1135      74732C20 
ARM GAS  /tmp/cc4ZLxjk.s 			page 21


 1135      77616974 
 1135      20616E64 
 1135      2062726F 
 1136 002f 00       		.space	1
 1137              	.LC4:
 1138 0030 4576656E 		.ascii	"Events, registration and dispatch\000"
 1138      74732C20 
 1138      72656769 
 1138      73747261 
 1138      74696F6E 
 1139              		.section	.rodata.testevt1,"a",%progbits
 1140              		.align	2
 1141              		.type	testevt1, %object
 1142              		.size	testevt1, 16
 1143              	testevt1:
 1144 0000 30000000 		.word	.LC4
 1145 0004 00000000 		.word	evt1_setup
 1146 0008 00000000 		.word	0
 1147 000c 00000000 		.word	evt1_execute
 1148              		.section	.rodata.testevt2,"a",%progbits
 1149              		.align	2
 1150              		.type	testevt2, %object
 1151              		.size	testevt2, 16
 1152              	testevt2:
 1153 0000 14000000 		.word	.LC3
 1154 0004 00000000 		.word	evt2_setup
 1155 0008 00000000 		.word	0
 1156 000c 00000000 		.word	evt2_execute
 1157              		.section	.rodata.testevt3,"a",%progbits
 1158              		.align	2
 1159              		.type	testevt3, %object
 1160              		.size	testevt3, 16
 1161              	testevt3:
 1162 0000 00000000 		.word	.LC2
 1163 0004 00000000 		.word	evt3_setup
 1164 0008 00000000 		.word	0
 1165 000c 00000000 		.word	evt3_execute
 1166              		.text
 1167              	.Letext0:
 1168              		.file 6 "/usr/lib/gcc/arm-none-eabi/6.2.1/include/stddef.h"
 1169              		.file 7 "/usr/arm-none-eabi/include/machine/_default_types.h"
 1170              		.file 8 "/usr/arm-none-eabi/include/sys/_stdint.h"
 1171              		.file 9 "/home/selim/working/ChibiOS/os/rt/ports/ARMCMx/compilers/GCC/chtypes.h"
 1172              		.file 10 "/home/selim/working/ChibiOS/os/rt/include/chsystypes.h"
 1173              		.file 11 "/home/selim/working/ChibiOS/os/rt/include/chschd.h"
 1174              		.file 12 "/home/selim/working/ChibiOS/os/ext/CMSIS/include/core_cm4.h"
 1175              		.file 13 "/home/selim/working/ChibiOS/os/ext/CMSIS/ST/system_stm32f4xx.h"
 1176              		.file 14 "/home/selim/working/ChibiOS/os/rt/ports/ARMCMx/chcore.h"
 1177              		.file 15 "/home/selim/working/ChibiOS/os/rt/ports/ARMCMx/chcore_v7m.h"
 1178              		.file 16 "/home/selim/working/ChibiOS/os/hal/ports/STM32/LLD/TIMv1/stm32_tim.h"
 1179              		.file 17 "/home/selim/working/ChibiOS/os/rt/include/chtm.h"
 1180              		.file 18 "/home/selim/working/ChibiOS/os/rt/include/chsem.h"
 1181              		.file 19 "/home/selim/working/ChibiOS/os/rt/include/chmtx.h"
 1182              		.file 20 "/home/selim/working/ChibiOS/os/rt/include/chregistry.h"
 1183              		.file 21 "/home/selim/working/ChibiOS/test/rt/test.h"
 1184              		.file 22 "/home/selim/working/ChibiOS/os/rt/include/chvt.h"
 1185              		.file 23 "/home/selim/working/ChibiOS/os/rt/include/chsys.h"
ARM GAS  /tmp/cc4ZLxjk.s 			page 22


 1186              		.file 24 "/home/selim/working/ChibiOS/os/rt/ports/ARMCMx/chcore_timer.h"