ARM GAS  /tmp/ccll3BPa.s 			page 1


   1              		.cpu cortex-m4
   2              		.eabi_attribute 20, 1
   3              		.eabi_attribute 21, 1
   4              		.eabi_attribute 23, 3
   5              		.eabi_attribute 24, 1
   6              		.eabi_attribute 25, 1
   7              		.eabi_attribute 26, 1
   8              		.eabi_attribute 30, 2
   9              		.eabi_attribute 34, 1
  10              		.eabi_attribute 18, 4
  11              		.file	"testmsg.c"
  12              		.text
  13              	.Ltext0:
  14              		.cfi_sections	.debug_frame
  15              		.section	.text.msg1_execute,"ax",%progbits
  16              		.align	1
  17              		.p2align 4,,15
  18              		.syntax unified
  19              		.thumb
  20              		.thumb_func
  21              		.fpu softvfp
  22              		.type	msg1_execute, %function
  23              	msg1_execute:
  24              	.LFB228:
  25              		.file 1 "/home/selim/working/ChibiOS/test/rt/testmsg.c"
  26              		.loc 1 66 0
  27              		.cfi_startproc
  28              		@ args = 0, pretend = 0, frame = 0
  29              		@ frame_needed = 0, uses_anonymous_args = 0
  30 0000 10B5     		push	{r4, lr}
  31              		.cfi_def_cfa_offset 8
  32              		.cfi_offset 4, -8
  33              		.cfi_offset 14, -4
  34              	.LBB16:
  35              	.LBB17:
  36              	.LBB18:
  37              	.LBB19:
  38              		.file 2 "/home/selim/working/ChibiOS/os/rt/include/chthreads.h"
  39              		.loc 2 176 0
  40 0002 184A     		ldr	r2, .L3
  41              	.LBE19:
  42              	.LBE18:
  43              	.LBE17:
  44              	.LBE16:
  45              		.loc 1 73 0
  46 0004 184B     		ldr	r3, .L3+4
  47              	.LBB23:
  48              	.LBB22:
  49              	.LBB21:
  50              	.LBB20:
  51              		.loc 2 176 0
  52 0006 9169     		ldr	r1, [r2, #24]
  53              	.LBE20:
  54              	.LBE21:
  55              	.LBE22:
  56              	.LBE23:
  57              		.loc 1 73 0
ARM GAS  /tmp/ccll3BPa.s 			page 2


  58 0008 1868     		ldr	r0, [r3]
  59 000a 8A68     		ldr	r2, [r1, #8]
  60 000c 174B     		ldr	r3, .L3+8
  61              		.loc 1 66 0
  62 000e 82B0     		sub	sp, sp, #8
  63              		.cfi_def_cfa_offset 16
  64              		.loc 1 73 0
  65 0010 0132     		adds	r2, r2, #1
  66 0012 0091     		str	r1, [sp]
  67 0014 4FF4A471 		mov	r1, #328
  68 0018 FFF7FEFF 		bl	chThdCreateStatic
  69              	.LVL0:
  70 001c 144B     		ldr	r3, .L3+12
  71 001e 1860     		str	r0, [r3]
  72              		.loc 1 75 0
  73 0020 FFF7FEFF 		bl	chMsgWait
  74              	.LVL1:
  75 0024 046B     		ldr	r4, [r0, #48]
  76              	.LVL2:
  77              		.loc 1 77 0
  78 0026 2146     		mov	r1, r4
  79 0028 FFF7FEFF 		bl	chMsgRelease
  80              	.LVL3:
  81              		.loc 1 78 0
  82 002c E0B2     		uxtb	r0, r4
  83 002e FFF7FEFF 		bl	test_emit_token
  84              	.LVL4:
  85              		.loc 1 79 0
  86 0032 FFF7FEFF 		bl	chMsgWait
  87              	.LVL5:
  88 0036 046B     		ldr	r4, [r0, #48]
  89              	.LVL6:
  90              		.loc 1 81 0
  91 0038 2146     		mov	r1, r4
  92 003a FFF7FEFF 		bl	chMsgRelease
  93              	.LVL7:
  94              		.loc 1 82 0
  95 003e E0B2     		uxtb	r0, r4
  96 0040 FFF7FEFF 		bl	test_emit_token
  97              	.LVL8:
  98              		.loc 1 83 0
  99 0044 FFF7FEFF 		bl	chMsgWait
 100              	.LVL9:
 101 0048 046B     		ldr	r4, [r0, #48]
 102              	.LVL10:
 103              		.loc 1 85 0
 104 004a 2146     		mov	r1, r4
 105 004c FFF7FEFF 		bl	chMsgRelease
 106              	.LVL11:
 107              		.loc 1 86 0
 108 0050 E0B2     		uxtb	r0, r4
 109 0052 FFF7FEFF 		bl	test_emit_token
 110              	.LVL12:
 111              		.loc 1 87 0
 112 0056 0749     		ldr	r1, .L3+16
 113 0058 0120     		movs	r0, #1
 114              		.loc 1 88 0
ARM GAS  /tmp/ccll3BPa.s 			page 3


 115 005a 02B0     		add	sp, sp, #8
 116              		.cfi_def_cfa_offset 8
 117              		@ sp needed
 118 005c BDE81040 		pop	{r4, lr}
 119              		.cfi_restore 14
 120              		.cfi_restore 4
 121              		.cfi_def_cfa_offset 0
 122              		.loc 1 87 0
 123 0060 FFF7FEBF 		b	_test_assert_sequence
 124              	.LVL13:
 125              	.L4:
 126              		.align	2
 127              	.L3:
 128 0064 00000000 		.word	ch
 129 0068 00000000 		.word	wa
 130 006c 00000000 		.word	thread
 131 0070 00000000 		.word	threads
 132 0074 00000000 		.word	.LC0
 133              		.cfi_endproc
 134              	.LFE228:
 135              		.size	msg1_execute, .-msg1_execute
 136              		.section	.text.thread,"ax",%progbits
 137              		.align	1
 138              		.p2align 4,,15
 139              		.syntax unified
 140              		.thumb
 141              		.thumb_func
 142              		.fpu softvfp
 143              		.type	thread, %function
 144              	thread:
 145              	.LFB227:
 146              		.loc 1 59 0
 147              		.cfi_startproc
 148              		@ args = 0, pretend = 0, frame = 0
 149              		@ frame_needed = 0, uses_anonymous_args = 0
 150              	.LVL14:
 151 0000 10B5     		push	{r4, lr}
 152              		.cfi_def_cfa_offset 8
 153              		.cfi_offset 4, -8
 154              		.cfi_offset 14, -4
 155              		.loc 1 61 0
 156 0002 4121     		movs	r1, #65
 157              		.loc 1 59 0
 158 0004 0446     		mov	r4, r0
 159              		.loc 1 61 0
 160 0006 FFF7FEFF 		bl	chMsgSend
 161              	.LVL15:
 162              		.loc 1 62 0
 163 000a 2046     		mov	r0, r4
 164 000c 4221     		movs	r1, #66
 165 000e FFF7FEFF 		bl	chMsgSend
 166              	.LVL16:
 167              		.loc 1 63 0
 168 0012 2046     		mov	r0, r4
 169 0014 4321     		movs	r1, #67
 170              		.loc 1 64 0
 171 0016 BDE81040 		pop	{r4, lr}
ARM GAS  /tmp/ccll3BPa.s 			page 4


 172              		.cfi_restore 14
 173              		.cfi_restore 4
 174              		.cfi_def_cfa_offset 0
 175              	.LVL17:
 176              		.loc 1 63 0
 177 001a FFF7FEBF 		b	chMsgSend
 178              	.LVL18:
 179              		.cfi_endproc
 180              	.LFE227:
 181              		.size	thread, .-thread
 182              		.global	patternmsg
 183              		.global	testmsg1
 184 001e 00BF     		.section	.rodata.msg1_execute.str1.4,"aMS",%progbits,1
 185              		.align	2
 186              	.LC0:
 187 0000 41424300 		.ascii	"ABC\000"
 188              		.section	.rodata.patternmsg,"a",%progbits
 189              		.align	2
 190              		.type	patternmsg, %object
 191              		.size	patternmsg, 8
 192              	patternmsg:
 193 0000 00000000 		.word	testmsg1
 194 0004 00000000 		.word	0
 195              		.section	.rodata.str1.4,"aMS",%progbits,1
 196              		.align	2
 197              	.LC1:
 198 0000 4D657373 		.ascii	"Messages, loop\000"
 198      61676573 
 198      2C206C6F 
 198      6F7000
 199              		.section	.rodata.testmsg1,"a",%progbits
 200              		.align	2
 201              		.type	testmsg1, %object
 202              		.size	testmsg1, 16
 203              	testmsg1:
 204 0000 00000000 		.word	.LC1
 205 0004 00000000 		.word	0
 206 0008 00000000 		.word	0
 207 000c 00000000 		.word	msg1_execute
 208              		.text
 209              	.Letext0:
 210              		.file 3 "/usr/lib/gcc/arm-none-eabi/6.2.1/include/stddef.h"
 211              		.file 4 "/usr/arm-none-eabi/include/machine/_default_types.h"
 212              		.file 5 "/usr/arm-none-eabi/include/sys/_stdint.h"
 213              		.file 6 "/home/selim/working/ChibiOS/os/rt/ports/ARMCMx/compilers/GCC/chtypes.h"
 214              		.file 7 "/home/selim/working/ChibiOS/os/rt/include/chsystypes.h"
 215              		.file 8 "/home/selim/working/ChibiOS/os/rt/include/chschd.h"
 216              		.file 9 "/home/selim/working/ChibiOS/os/ext/CMSIS/include/core_cm4.h"
 217              		.file 10 "/home/selim/working/ChibiOS/os/ext/CMSIS/ST/system_stm32f4xx.h"
 218              		.file 11 "/home/selim/working/ChibiOS/os/rt/ports/ARMCMx/chcore.h"
 219              		.file 12 "/home/selim/working/ChibiOS/os/rt/ports/ARMCMx/chcore_v7m.h"
 220              		.file 13 "/home/selim/working/ChibiOS/os/rt/include/chtm.h"
 221              		.file 14 "/home/selim/working/ChibiOS/os/rt/include/chsem.h"
 222              		.file 15 "/home/selim/working/ChibiOS/os/rt/include/chmtx.h"
 223              		.file 16 "/home/selim/working/ChibiOS/os/rt/include/chregistry.h"
 224              		.file 17 "/home/selim/working/ChibiOS/test/rt/test.h"
 225              		.file 18 "/home/selim/working/ChibiOS/os/rt/include/chmsg.h"
ARM GAS  /tmp/ccll3BPa.s 			page 5

