ARM GAS  /tmp/cchLbDiY.s 			page 1


   1              		.cpu cortex-m4
   2              		.eabi_attribute 20, 1
   3              		.eabi_attribute 21, 1
   4              		.eabi_attribute 23, 3
   5              		.eabi_attribute 24, 1
   6              		.eabi_attribute 25, 1
   7              		.eabi_attribute 26, 1
   8              		.eabi_attribute 30, 2
   9              		.eabi_attribute 34, 1
  10              		.eabi_attribute 18, 4
  11              		.file	"testmtx.c"
  12              		.text
  13              	.Ltext0:
  14              		.cfi_sections	.debug_frame
  15              		.section	.text.mtx1_execute,"ax",%progbits
  16              		.align	1
  17              		.p2align 4,,15
  18              		.syntax unified
  19              		.thumb
  20              		.thumb_func
  21              		.fpu softvfp
  22              		.type	mtx1_execute, %function
  23              	mtx1_execute:
  24              	.LFB229:
  25              		.file 1 "/home/selim/working/ChibiOS/test/rt/testmtx.c"
  26              		.loc 1 96 0
  27              		.cfi_startproc
  28              		@ args = 0, pretend = 0, frame = 0
  29              		@ frame_needed = 0, uses_anonymous_args = 0
  30 0000 F0B5     		push	{r4, r5, r6, r7, lr}
  31              		.cfi_def_cfa_offset 20
  32              		.cfi_offset 4, -20
  33              		.cfi_offset 5, -16
  34              		.cfi_offset 6, -12
  35              		.cfi_offset 7, -8
  36              		.cfi_offset 14, -4
  37              	.LBB138:
  38              	.LBB139:
  39              	.LBB140:
  40              	.LBB141:
  41              		.file 2 "/home/selim/working/ChibiOS/os/rt/include/chthreads.h"
  42              		.loc 2 176 0
  43 0002 2B4F     		ldr	r7, .L6
  44              	.LBE141:
  45              	.LBE140:
  46              	.LBE139:
  47              	.LBE138:
  48              		.loc 1 100 0
  49 0004 2B4E     		ldr	r6, .L6+4
  50              	.LBB144:
  51              	.LBB142:
  52              		.loc 2 189 0
  53 0006 BB69     		ldr	r3, [r7, #24]
  54              	.LBE142:
  55              	.LBE144:
  56              		.loc 1 99 0
  57 0008 2B48     		ldr	r0, .L6+8
ARM GAS  /tmp/cchLbDiY.s 			page 2


  58              	.LBB145:
  59              	.LBB143:
  60              		.loc 2 189 0
  61 000a 9C68     		ldr	r4, [r3, #8]
  62              	.LBE143:
  63              	.LBE145:
  64              		.loc 1 100 0
  65 000c 2B4D     		ldr	r5, .L6+12
  66              		.loc 1 96 0
  67 000e 83B0     		sub	sp, sp, #12
  68              		.cfi_def_cfa_offset 32
  69              		.loc 1 99 0
  70 0010 FFF7FEFF 		bl	chMtxLock
  71              	.LVL0:
  72              		.loc 1 100 0
  73 0014 2A4B     		ldr	r3, .L6+16
  74 0016 0093     		str	r3, [sp]
  75 0018 621C     		adds	r2, r4, #1
  76 001a 2A4B     		ldr	r3, .L6+20
  77 001c 3068     		ldr	r0, [r6]
  78 001e 4FF4A471 		mov	r1, #328
  79 0022 FFF7FEFF 		bl	chThdCreateStatic
  80              	.LVL1:
  81              		.loc 1 101 0
  82 0026 7168     		ldr	r1, [r6, #4]
  83 0028 274B     		ldr	r3, .L6+24
  84              		.loc 1 100 0
  85 002a 2860     		str	r0, [r5]
  86              		.loc 1 101 0
  87 002c A21C     		adds	r2, r4, #2
  88 002e 0846     		mov	r0, r1
  89 0030 0093     		str	r3, [sp]
  90 0032 4FF4A471 		mov	r1, #328
  91 0036 234B     		ldr	r3, .L6+20
  92 0038 FFF7FEFF 		bl	chThdCreateStatic
  93              	.LVL2:
  94              		.loc 1 102 0
  95 003c B168     		ldr	r1, [r6, #8]
  96 003e 234B     		ldr	r3, .L6+28
  97              		.loc 1 101 0
  98 0040 6860     		str	r0, [r5, #4]
  99              		.loc 1 102 0
 100 0042 E21C     		adds	r2, r4, #3
 101 0044 0846     		mov	r0, r1
 102 0046 0093     		str	r3, [sp]
 103 0048 4FF4A471 		mov	r1, #328
 104 004c 1D4B     		ldr	r3, .L6+20
 105 004e FFF7FEFF 		bl	chThdCreateStatic
 106              	.LVL3:
 107              		.loc 1 103 0
 108 0052 F168     		ldr	r1, [r6, #12]
 109 0054 1E4B     		ldr	r3, .L6+32
 110              		.loc 1 102 0
 111 0056 A860     		str	r0, [r5, #8]
 112              		.loc 1 103 0
 113 0058 221D     		adds	r2, r4, #4
 114 005a 0846     		mov	r0, r1
ARM GAS  /tmp/cchLbDiY.s 			page 3


 115 005c 0093     		str	r3, [sp]
 116 005e 4FF4A471 		mov	r1, #328
 117 0062 184B     		ldr	r3, .L6+20
 118 0064 FFF7FEFF 		bl	chThdCreateStatic
 119              	.LVL4:
 120              		.loc 1 104 0
 121 0068 3169     		ldr	r1, [r6, #16]
 122 006a 1A4B     		ldr	r3, .L6+36
 123              		.loc 1 103 0
 124 006c E860     		str	r0, [r5, #12]
 125              		.loc 1 104 0
 126 006e 621D     		adds	r2, r4, #5
 127 0070 0846     		mov	r0, r1
 128 0072 0093     		str	r3, [sp]
 129 0074 4FF4A471 		mov	r1, #328
 130 0078 124B     		ldr	r3, .L6+20
 131 007a FFF7FEFF 		bl	chThdCreateStatic
 132              	.LVL5:
 133 007e 2861     		str	r0, [r5, #16]
 134              		.loc 1 105 0
 135 0080 0D48     		ldr	r0, .L6+8
 136 0082 FFF7FEFF 		bl	chMtxUnlock
 137              	.LVL6:
 138              		.loc 1 106 0
 139 0086 FFF7FEFF 		bl	test_wait_threads
 140              	.LVL7:
 141              	.LBB146:
 142              	.LBB147:
 143              		.loc 2 189 0
 144 008a BB69     		ldr	r3, [r7, #24]
 145              	.LBE147:
 146              	.LBE146:
 147              		.loc 1 107 0
 148 008c 9968     		ldr	r1, [r3, #8]
 149 008e 091B     		subs	r1, r1, r4
 150 0090 B1FA81F1 		clz	r1, r1
 151 0094 0120     		movs	r0, #1
 152 0096 4909     		lsrs	r1, r1, #5
 153 0098 FFF7FEFF 		bl	_test_assert
 154              	.LVL8:
 155 009c 08B1     		cbz	r0, .L5
 156              		.loc 1 109 0
 157 009e 03B0     		add	sp, sp, #12
 158              		.cfi_remember_state
 159              		.cfi_def_cfa_offset 20
 160              		@ sp needed
 161 00a0 F0BD     		pop	{r4, r5, r6, r7, pc}
 162              	.L5:
 163              		.cfi_restore_state
 164              		.loc 1 108 0
 165 00a2 0D49     		ldr	r1, .L6+40
 166 00a4 0220     		movs	r0, #2
 167              		.loc 1 109 0
 168 00a6 03B0     		add	sp, sp, #12
 169              		.cfi_def_cfa_offset 20
 170              		@ sp needed
 171 00a8 BDE8F040 		pop	{r4, r5, r6, r7, lr}
ARM GAS  /tmp/cchLbDiY.s 			page 4


 172              		.cfi_restore 14
 173              		.cfi_restore 7
 174              		.cfi_restore 6
 175              		.cfi_restore 5
 176              		.cfi_restore 4
 177              		.cfi_def_cfa_offset 0
 178              		.loc 1 108 0
 179 00ac FFF7FEBF 		b	_test_assert_sequence
 180              	.LVL9:
 181              	.L7:
 182              		.align	2
 183              	.L6:
 184 00b0 00000000 		.word	ch
 185 00b4 00000000 		.word	wa
 186 00b8 00000000 		.word	.LANCHOR0
 187 00bc 00000000 		.word	threads
 188 00c0 00000000 		.word	.LC0
 189 00c4 00000000 		.word	thread1
 190 00c8 04000000 		.word	.LC1
 191 00cc 08000000 		.word	.LC2
 192 00d0 0C000000 		.word	.LC3
 193 00d4 10000000 		.word	.LC4
 194 00d8 14000000 		.word	.LC5
 195              		.cfi_endproc
 196              	.LFE229:
 197              		.size	mtx1_execute, .-mtx1_execute
 198              		.section	.text.thread1,"ax",%progbits
 199              		.align	1
 200              		.p2align 4,,15
 201              		.syntax unified
 202              		.thumb
 203              		.thumb_func
 204              		.fpu softvfp
 205              		.type	thread1, %function
 206              	thread1:
 207              	.LFB228:
 208              		.loc 1 89 0
 209              		.cfi_startproc
 210              		@ args = 0, pretend = 0, frame = 0
 211              		@ frame_needed = 0, uses_anonymous_args = 0
 212              	.LVL10:
 213 0000 38B5     		push	{r3, r4, r5, lr}
 214              		.cfi_def_cfa_offset 16
 215              		.cfi_offset 3, -16
 216              		.cfi_offset 4, -12
 217              		.cfi_offset 5, -8
 218              		.cfi_offset 14, -4
 219              		.loc 1 91 0
 220 0002 064C     		ldr	r4, .L10
 221              		.loc 1 89 0
 222 0004 0546     		mov	r5, r0
 223              		.loc 1 91 0
 224 0006 2046     		mov	r0, r4
 225              	.LVL11:
 226 0008 FFF7FEFF 		bl	chMtxLock
 227              	.LVL12:
 228              		.loc 1 92 0
ARM GAS  /tmp/cchLbDiY.s 			page 5


 229 000c 2878     		ldrb	r0, [r5]	@ zero_extendqisi2
 230 000e FFF7FEFF 		bl	test_emit_token
 231              	.LVL13:
 232              		.loc 1 93 0
 233 0012 2046     		mov	r0, r4
 234              		.loc 1 94 0
 235 0014 BDE83840 		pop	{r3, r4, r5, lr}
 236              		.cfi_restore 14
 237              		.cfi_restore 5
 238              		.cfi_restore 4
 239              		.cfi_restore 3
 240              		.cfi_def_cfa_offset 0
 241              	.LVL14:
 242              		.loc 1 93 0
 243 0018 FFF7FEBF 		b	chMtxUnlock
 244              	.LVL15:
 245              	.L11:
 246              		.align	2
 247              	.L10:
 248 001c 00000000 		.word	.LANCHOR0
 249              		.cfi_endproc
 250              	.LFE228:
 251              		.size	thread1, .-thread1
 252              		.section	.text.thread12,"ax",%progbits
 253              		.align	1
 254              		.p2align 4,,15
 255              		.syntax unified
 256              		.thumb
 257              		.thumb_func
 258              		.fpu softvfp
 259              		.type	thread12, %function
 260              	thread12:
 261              	.LFB243:
 262              		.loc 1 576 0
 263              		.cfi_startproc
 264              		@ args = 0, pretend = 0, frame = 0
 265              		@ frame_needed = 0, uses_anonymous_args = 0
 266              	.LVL16:
 267 0000 38B5     		push	{r3, r4, r5, lr}
 268              		.cfi_def_cfa_offset 16
 269              		.cfi_offset 3, -16
 270              		.cfi_offset 4, -12
 271              		.cfi_offset 5, -8
 272              		.cfi_offset 14, -4
 273              		.loc 1 578 0
 274 0002 064C     		ldr	r4, .L14
 275              		.loc 1 576 0
 276 0004 0546     		mov	r5, r0
 277              		.loc 1 578 0
 278 0006 2046     		mov	r0, r4
 279              	.LVL17:
 280 0008 FFF7FEFF 		bl	chMtxLock
 281              	.LVL18:
 282              		.loc 1 579 0
 283 000c 2878     		ldrb	r0, [r5]	@ zero_extendqisi2
 284 000e FFF7FEFF 		bl	test_emit_token
 285              	.LVL19:
ARM GAS  /tmp/cchLbDiY.s 			page 6


 286              		.loc 1 580 0
 287 0012 2046     		mov	r0, r4
 288              		.loc 1 581 0
 289 0014 BDE83840 		pop	{r3, r4, r5, lr}
 290              		.cfi_restore 14
 291              		.cfi_restore 5
 292              		.cfi_restore 4
 293              		.cfi_restore 3
 294              		.cfi_def_cfa_offset 0
 295              	.LVL20:
 296              		.loc 1 580 0
 297 0018 FFF7FEBF 		b	chMtxUnlock
 298              	.LVL21:
 299              	.L15:
 300              		.align	2
 301              	.L14:
 302 001c 00000000 		.word	.LANCHOR1
 303              		.cfi_endproc
 304              	.LFE243:
 305              		.size	thread12, .-thread12
 306              		.section	.text.mtx4_setup,"ax",%progbits
 307              		.align	1
 308              		.p2align 4,,15
 309              		.syntax unified
 310              		.thumb
 311              		.thumb_func
 312              		.fpu softvfp
 313              		.type	mtx4_setup, %function
 314              	mtx4_setup:
 315              	.LFB230:
 316              		.loc 1 332 0
 317              		.cfi_startproc
 318              		@ args = 0, pretend = 0, frame = 0
 319              		@ frame_needed = 0, uses_anonymous_args = 0
 320 0000 08B5     		push	{r3, lr}
 321              		.cfi_def_cfa_offset 8
 322              		.cfi_offset 3, -8
 323              		.cfi_offset 14, -4
 324              		.loc 1 334 0
 325 0002 0448     		ldr	r0, .L18
 326 0004 FFF7FEFF 		bl	chMtxObjectInit
 327              	.LVL22:
 328              		.loc 1 335 0
 329 0008 0348     		ldr	r0, .L18+4
 330              		.loc 1 336 0
 331 000a BDE80840 		pop	{r3, lr}
 332              		.cfi_restore 14
 333              		.cfi_restore 3
 334              		.cfi_def_cfa_offset 0
 335              		.loc 1 335 0
 336 000e FFF7FEBF 		b	chMtxObjectInit
 337              	.LVL23:
 338              	.L19:
 339 0012 00BF     		.align	2
 340              	.L18:
 341 0014 00000000 		.word	.LANCHOR0
 342 0018 00000000 		.word	.LANCHOR1
ARM GAS  /tmp/cchLbDiY.s 			page 7


 343              		.cfi_endproc
 344              	.LFE230:
 345              		.size	mtx4_setup, .-mtx4_setup
 346              		.section	.text.mtx5_setup,"ax",%progbits
 347              		.align	1
 348              		.p2align 4,,15
 349              		.syntax unified
 350              		.thumb
 351              		.thumb_func
 352              		.fpu softvfp
 353              		.type	mtx5_setup, %function
 354              	mtx5_setup:
 355              	.LFB234:
 356              		.loc 1 418 0
 357              		.cfi_startproc
 358              		@ args = 0, pretend = 0, frame = 0
 359              		@ frame_needed = 0, uses_anonymous_args = 0
 360              		@ link register save eliminated.
 361              		.loc 1 420 0
 362 0000 0148     		ldr	r0, .L21
 363 0002 FFF7FEBF 		b	chMtxObjectInit
 364              	.LVL24:
 365              	.L22:
 366 0006 00BF     		.align	2
 367              	.L21:
 368 0008 00000000 		.word	.LANCHOR0
 369              		.cfi_endproc
 370              	.LFE234:
 371              		.size	mtx5_setup, .-mtx5_setup
 372              		.section	.text.mtx1_setup,"ax",%progbits
 373              		.align	1
 374              		.p2align 4,,15
 375              		.syntax unified
 376              		.thumb
 377              		.thumb_func
 378              		.fpu softvfp
 379              		.type	mtx1_setup, %function
 380              	mtx1_setup:
 381              	.LFB248:
 382              		.cfi_startproc
 383              		@ args = 0, pretend = 0, frame = 0
 384              		@ frame_needed = 0, uses_anonymous_args = 0
 385              		@ link register save eliminated.
 386 0000 FFF7FEBF 		b	mtx5_setup
 387              		.cfi_endproc
 388              	.LFE248:
 389              		.size	mtx1_setup, .-mtx1_setup
 390              		.section	.text.thread4b,"ax",%progbits
 391              		.align	1
 392              		.p2align 4,,15
 393              		.syntax unified
 394              		.thumb
 395              		.thumb_func
 396              		.fpu softvfp
 397              		.type	thread4b, %function
 398              	thread4b:
 399              	.LFB232:
ARM GAS  /tmp/cchLbDiY.s 			page 8


 400              		.loc 1 346 0
 401              		.cfi_startproc
 402              		@ args = 0, pretend = 0, frame = 0
 403              		@ frame_needed = 0, uses_anonymous_args = 0
 404              	.LVL25:
 405              		.loc 1 346 0
 406 0000 10B5     		push	{r4, lr}
 407              		.cfi_def_cfa_offset 8
 408              		.cfi_offset 4, -8
 409              		.cfi_offset 14, -4
 410              		.loc 1 350 0
 411 0002 064C     		ldr	r4, .L26
 412              		.loc 1 349 0
 413 0004 40F2DC50 		movw	r0, #1500
 414              	.LVL26:
 415 0008 FFF7FEFF 		bl	chThdSleep
 416              	.LVL27:
 417              		.loc 1 350 0
 418 000c 2046     		mov	r0, r4
 419 000e FFF7FEFF 		bl	chMtxLock
 420              	.LVL28:
 421              		.loc 1 351 0
 422 0012 2046     		mov	r0, r4
 423              		.loc 1 352 0
 424 0014 BDE81040 		pop	{r4, lr}
 425              		.cfi_restore 14
 426              		.cfi_restore 4
 427              		.cfi_def_cfa_offset 0
 428              		.loc 1 351 0
 429 0018 FFF7FEBF 		b	chMtxUnlock
 430              	.LVL29:
 431              	.L27:
 432              		.align	2
 433              	.L26:
 434 001c 00000000 		.word	.LANCHOR0
 435              		.cfi_endproc
 436              	.LFE232:
 437              		.size	thread4b, .-thread4b
 438              		.section	.text.thread4a,"ax",%progbits
 439              		.align	1
 440              		.p2align 4,,15
 441              		.syntax unified
 442              		.thumb
 443              		.thumb_func
 444              		.fpu softvfp
 445              		.type	thread4a, %function
 446              	thread4a:
 447              	.LFB231:
 448              		.loc 1 338 0
 449              		.cfi_startproc
 450              		@ args = 0, pretend = 0, frame = 0
 451              		@ frame_needed = 0, uses_anonymous_args = 0
 452              	.LVL30:
 453 0000 10B5     		push	{r4, lr}
 454              		.cfi_def_cfa_offset 8
 455              		.cfi_offset 4, -8
 456              		.cfi_offset 14, -4
ARM GAS  /tmp/cchLbDiY.s 			page 9


 457              		.loc 1 342 0
 458 0002 064C     		ldr	r4, .L30
 459              		.loc 1 341 0
 460 0004 4FF4FA70 		mov	r0, #500
 461              	.LVL31:
 462 0008 FFF7FEFF 		bl	chThdSleep
 463              	.LVL32:
 464              		.loc 1 342 0
 465 000c 2046     		mov	r0, r4
 466 000e FFF7FEFF 		bl	chMtxLock
 467              	.LVL33:
 468              		.loc 1 343 0
 469 0012 2046     		mov	r0, r4
 470              		.loc 1 344 0
 471 0014 BDE81040 		pop	{r4, lr}
 472              		.cfi_restore 14
 473              		.cfi_restore 4
 474              		.cfi_def_cfa_offset 0
 475              		.loc 1 343 0
 476 0018 FFF7FEBF 		b	chMtxUnlock
 477              	.LVL34:
 478              	.L31:
 479              		.align	2
 480              	.L30:
 481 001c 00000000 		.word	.LANCHOR1
 482              		.cfi_endproc
 483              	.LFE231:
 484              		.size	thread4a, .-thread4a
 485              		.section	.text.mtx4_execute,"ax",%progbits
 486              		.align	1
 487              		.p2align 4,,15
 488              		.syntax unified
 489              		.thumb
 490              		.thumb_func
 491              		.fpu softvfp
 492              		.type	mtx4_execute, %function
 493              	mtx4_execute:
 494              	.LFB233:
 495              		.loc 1 354 0
 496              		.cfi_startproc
 497              		@ args = 0, pretend = 0, frame = 8
 498              		@ frame_needed = 0, uses_anonymous_args = 0
 499 0000 2DE9F046 		push	{r4, r5, r6, r7, r9, r10, lr}
 500              		.cfi_def_cfa_offset 28
 501              		.cfi_offset 4, -28
 502              		.cfi_offset 5, -24
 503              		.cfi_offset 6, -20
 504              		.cfi_offset 7, -16
 505              		.cfi_offset 9, -12
 506              		.cfi_offset 10, -8
 507              		.cfi_offset 14, -4
 508              	.LBB148:
 509              	.LBB149:
 510              	.LBB150:
 511              	.LBB151:
 512              		.loc 2 176 0
 513 0004 8E4D     		ldr	r5, .L38
ARM GAS  /tmp/cchLbDiY.s 			page 10


 514              	.LBE151:
 515              	.LBE150:
 516              	.LBE149:
 517              	.LBE148:
 518              		.loc 1 360 0
 519 0006 8F4E     		ldr	r6, .L38+4
 520              	.LBB154:
 521              	.LBB152:
 522              		.loc 2 189 0
 523 0008 AB69     		ldr	r3, [r5, #24]
 524              	.LBE152:
 525              	.LBE154:
 526              		.loc 1 360 0
 527 000a 3268     		ldr	r2, [r6]
 528              	.LBB155:
 529              	.LBB153:
 530              		.loc 2 189 0
 531 000c 9C68     		ldr	r4, [r3, #8]
 532              	.LBE153:
 533              	.LBE155:
 534              		.loc 1 360 0
 535 000e 8E4B     		ldr	r3, .L38+8
 536 0010 8E4F     		ldr	r7, .L38+12
 537              		.loc 1 354 0
 538 0012 85B0     		sub	sp, sp, #20
 539              		.cfi_def_cfa_offset 48
 540              		.loc 1 358 0
 541 0014 04F10109 		add	r9, r4, #1
 542              	.LVL35:
 543              		.loc 1 360 0
 544 0018 1046     		mov	r0, r2
 545 001a 0392     		str	r2, [sp, #12]
 546 001c 0093     		str	r3, [sp]
 547 001e 4A46     		mov	r2, r9
 548 0020 8B4B     		ldr	r3, .L38+16
 549 0022 4FF4A471 		mov	r1, #328
 550 0026 FFF7FEFF 		bl	chThdCreateStatic
 551              	.LVL36:
 552              		.loc 1 361 0
 553 002a 7668     		ldr	r6, [r6, #4]
 554 002c 894B     		ldr	r3, .L38+20
 555              		.loc 1 360 0
 556 002e 3860     		str	r0, [r7]
 557              		.loc 1 359 0
 558 0030 04F1020A 		add	r10, r4, #2
 559              	.LVL37:
 560              		.loc 1 361 0
 561 0034 4FF4A471 		mov	r1, #328
 562 0038 5246     		mov	r2, r10
 563 003a 0093     		str	r3, [sp]
 564 003c 3046     		mov	r0, r6
 565 003e 864B     		ldr	r3, .L38+24
 566 0040 FFF7FEFF 		bl	chThdCreateStatic
 567              	.LVL38:
 568 0044 7860     		str	r0, [r7, #4]
 569              		.loc 1 362 0
 570 0046 8548     		ldr	r0, .L38+28
ARM GAS  /tmp/cchLbDiY.s 			page 11


 571 0048 FFF7FEFF 		bl	chMtxLock
 572              	.LVL39:
 573              	.LBB156:
 574              	.LBB157:
 575              		.loc 2 189 0
 576 004c AB69     		ldr	r3, [r5, #24]
 577              	.LBE157:
 578              	.LBE156:
 579              		.loc 1 363 0
 580 004e 9968     		ldr	r1, [r3, #8]
 581 0050 091B     		subs	r1, r1, r4
 582 0052 B1FA81F1 		clz	r1, r1
 583 0056 0120     		movs	r0, #1
 584 0058 4909     		lsrs	r1, r1, #5
 585 005a FFF7FEFF 		bl	_test_assert
 586              	.LVL40:
 587 005e 10B1     		cbz	r0, .L37
 588              	.L32:
 589              		.loc 1 399 0
 590 0060 05B0     		add	sp, sp, #20
 591              		.cfi_remember_state
 592              		.cfi_def_cfa_offset 28
 593              		@ sp needed
 594 0062 BDE8F086 		pop	{r4, r5, r6, r7, r9, r10, pc}
 595              	.LVL41:
 596              	.L37:
 597              		.cfi_restore_state
 598              		.loc 1 364 0
 599 0066 4FF47A70 		mov	r0, #1000
 600 006a FFF7FEFF 		bl	chThdSleep
 601              	.LVL42:
 602              	.LBB158:
 603              	.LBB159:
 604              		.loc 2 189 0
 605 006e AB69     		ldr	r3, [r5, #24]
 606              	.LBE159:
 607              	.LBE158:
 608              		.loc 1 365 0
 609 0070 9968     		ldr	r1, [r3, #8]
 610 0072 A1EB0901 		sub	r1, r1, r9
 611 0076 B1FA81F1 		clz	r1, r1
 612 007a 0220     		movs	r0, #2
 613 007c 4909     		lsrs	r1, r1, #5
 614 007e FFF7FEFF 		bl	_test_assert
 615              	.LVL43:
 616 0082 0028     		cmp	r0, #0
 617 0084 ECD1     		bne	.L32
 618              		.loc 1 366 0
 619 0086 7648     		ldr	r0, .L38+32
 620 0088 FFF7FEFF 		bl	chMtxLock
 621              	.LVL44:
 622              	.LBB160:
 623              	.LBB161:
 624              		.loc 2 189 0
 625 008c AB69     		ldr	r3, [r5, #24]
 626              	.LBE161:
 627              	.LBE160:
ARM GAS  /tmp/cchLbDiY.s 			page 12


 628              		.loc 1 367 0
 629 008e 9968     		ldr	r1, [r3, #8]
 630 0090 A1EB0901 		sub	r1, r1, r9
 631 0094 B1FA81F1 		clz	r1, r1
 632 0098 0320     		movs	r0, #3
 633 009a 4909     		lsrs	r1, r1, #5
 634 009c FFF7FEFF 		bl	_test_assert
 635              	.LVL45:
 636 00a0 0028     		cmp	r0, #0
 637 00a2 DDD1     		bne	.L32
 638              		.loc 1 368 0
 639 00a4 4FF47A70 		mov	r0, #1000
 640 00a8 FFF7FEFF 		bl	chThdSleep
 641              	.LVL46:
 642              	.LBB162:
 643              	.LBB163:
 644              		.loc 2 189 0
 645 00ac AB69     		ldr	r3, [r5, #24]
 646              	.LBE163:
 647              	.LBE162:
 648              		.loc 1 369 0
 649 00ae 9968     		ldr	r1, [r3, #8]
 650 00b0 A1EB0A01 		sub	r1, r1, r10
 651 00b4 B1FA81F1 		clz	r1, r1
 652 00b8 0420     		movs	r0, #4
 653 00ba 4909     		lsrs	r1, r1, #5
 654 00bc FFF7FEFF 		bl	_test_assert
 655              	.LVL47:
 656 00c0 0028     		cmp	r0, #0
 657 00c2 CDD1     		bne	.L32
 658              		.loc 1 370 0
 659 00c4 6648     		ldr	r0, .L38+32
 660 00c6 FFF7FEFF 		bl	chMtxUnlock
 661              	.LVL48:
 662              	.LBB164:
 663              	.LBB165:
 664              		.loc 2 189 0
 665 00ca AB69     		ldr	r3, [r5, #24]
 666              	.LBE165:
 667              	.LBE164:
 668              		.loc 1 371 0
 669 00cc 9968     		ldr	r1, [r3, #8]
 670 00ce A1EB0901 		sub	r1, r1, r9
 671 00d2 B1FA81F1 		clz	r1, r1
 672 00d6 0520     		movs	r0, #5
 673 00d8 4909     		lsrs	r1, r1, #5
 674 00da FFF7FEFF 		bl	_test_assert
 675              	.LVL49:
 676 00de 0028     		cmp	r0, #0
 677 00e0 BED1     		bne	.L32
 678              		.loc 1 372 0
 679 00e2 4FF47A70 		mov	r0, #1000
 680 00e6 FFF7FEFF 		bl	chThdSleep
 681              	.LVL50:
 682              	.LBB166:
 683              	.LBB167:
 684              		.loc 2 189 0
ARM GAS  /tmp/cchLbDiY.s 			page 13


 685 00ea AB69     		ldr	r3, [r5, #24]
 686              	.LBE167:
 687              	.LBE166:
 688              		.loc 1 373 0
 689 00ec 9968     		ldr	r1, [r3, #8]
 690 00ee A1EB0901 		sub	r1, r1, r9
 691 00f2 B1FA81F1 		clz	r1, r1
 692 00f6 0620     		movs	r0, #6
 693 00f8 4909     		lsrs	r1, r1, #5
 694 00fa FFF7FEFF 		bl	_test_assert
 695              	.LVL51:
 696 00fe 0028     		cmp	r0, #0
 697 0100 AED1     		bne	.L32
 698              		.loc 1 374 0
 699 0102 FFF7FEFF 		bl	chMtxUnlockAll
 700              	.LVL52:
 701              	.LBB168:
 702              	.LBB169:
 703              		.loc 2 189 0
 704 0106 AB69     		ldr	r3, [r5, #24]
 705              	.LBE169:
 706              	.LBE168:
 707              		.loc 1 375 0
 708 0108 9968     		ldr	r1, [r3, #8]
 709 010a 091B     		subs	r1, r1, r4
 710 010c B1FA81F1 		clz	r1, r1
 711 0110 0720     		movs	r0, #7
 712 0112 4909     		lsrs	r1, r1, #5
 713 0114 FFF7FEFF 		bl	_test_assert
 714              	.LVL53:
 715 0118 0028     		cmp	r0, #0
 716 011a A1D1     		bne	.L32
 717              		.loc 1 376 0
 718 011c FFF7FEFF 		bl	test_wait_threads
 719              	.LVL54:
 720              		.loc 1 379 0
 721 0120 504B     		ldr	r3, .L38+36
 722 0122 0093     		str	r3, [sp]
 723 0124 4A46     		mov	r2, r9
 724 0126 4A4B     		ldr	r3, .L38+16
 725 0128 0398     		ldr	r0, [sp, #12]
 726 012a 4FF4A471 		mov	r1, #328
 727 012e FFF7FEFF 		bl	chThdCreateStatic
 728              	.LVL55:
 729              		.loc 1 380 0
 730 0132 4D4B     		ldr	r3, .L38+40
 731              		.loc 1 379 0
 732 0134 3860     		str	r0, [r7]
 733              		.loc 1 380 0
 734 0136 4FF4A471 		mov	r1, #328
 735 013a 0093     		str	r3, [sp]
 736 013c 5246     		mov	r2, r10
 737 013e 464B     		ldr	r3, .L38+24
 738 0140 3046     		mov	r0, r6
 739 0142 FFF7FEFF 		bl	chThdCreateStatic
 740              	.LVL56:
 741 0146 7860     		str	r0, [r7, #4]
ARM GAS  /tmp/cchLbDiY.s 			page 14


 742              		.loc 1 381 0
 743 0148 4448     		ldr	r0, .L38+28
 744 014a FFF7FEFF 		bl	chMtxLock
 745              	.LVL57:
 746              	.LBB170:
 747              	.LBB171:
 748              		.loc 2 189 0
 749 014e AB69     		ldr	r3, [r5, #24]
 750              	.LBE171:
 751              	.LBE170:
 752              		.loc 1 382 0
 753 0150 9968     		ldr	r1, [r3, #8]
 754 0152 091B     		subs	r1, r1, r4
 755 0154 B1FA81F1 		clz	r1, r1
 756 0158 0820     		movs	r0, #8
 757 015a 4909     		lsrs	r1, r1, #5
 758 015c FFF7FEFF 		bl	_test_assert
 759              	.LVL58:
 760 0160 0028     		cmp	r0, #0
 761 0162 7FF47DAF 		bne	.L32
 762              		.loc 1 383 0
 763 0166 4FF47A70 		mov	r0, #1000
 764 016a FFF7FEFF 		bl	chThdSleep
 765              	.LVL59:
 766              	.LBB172:
 767              	.LBB173:
 768              		.loc 2 189 0
 769 016e AB69     		ldr	r3, [r5, #24]
 770              	.LBE173:
 771              	.LBE172:
 772              		.loc 1 384 0
 773 0170 9968     		ldr	r1, [r3, #8]
 774 0172 A1EB090C 		sub	ip, r1, r9
 775 0176 DCF10001 		rsbs	r1, ip, #0
 776 017a 41EB0C01 		adc	r1, r1, ip
 777 017e 0920     		movs	r0, #9
 778 0180 FFF7FEFF 		bl	_test_assert
 779              	.LVL60:
 780 0184 0028     		cmp	r0, #0
 781 0186 7FF46BAF 		bne	.L32
 782              		.loc 1 385 0
 783 018a 3548     		ldr	r0, .L38+32
 784 018c FFF7FEFF 		bl	chMtxLock
 785              	.LVL61:
 786              	.LBB174:
 787              	.LBB175:
 788              		.loc 2 189 0
 789 0190 AB69     		ldr	r3, [r5, #24]
 790              	.LBE175:
 791              	.LBE174:
 792              		.loc 1 386 0
 793 0192 9968     		ldr	r1, [r3, #8]
 794 0194 A1EB090E 		sub	lr, r1, r9
 795 0198 DEF10001 		rsbs	r1, lr, #0
 796 019c 41EB0E01 		adc	r1, r1, lr
 797 01a0 0A20     		movs	r0, #10
 798 01a2 FFF7FEFF 		bl	_test_assert
ARM GAS  /tmp/cchLbDiY.s 			page 15


 799              	.LVL62:
 800 01a6 0028     		cmp	r0, #0
 801 01a8 7FF45AAF 		bne	.L32
 802              		.loc 1 387 0
 803 01ac 4FF47A70 		mov	r0, #1000
 804 01b0 FFF7FEFF 		bl	chThdSleep
 805              	.LVL63:
 806              	.LBB176:
 807              	.LBB177:
 808              		.loc 2 189 0
 809 01b4 AB69     		ldr	r3, [r5, #24]
 810              	.LBE177:
 811              	.LBE176:
 812              		.loc 1 388 0
 813 01b6 9968     		ldr	r1, [r3, #8]
 814 01b8 A1EB0A07 		sub	r7, r1, r10
 815 01bc 7942     		rsbs	r1, r7, #0
 816 01be 4FF00B00 		mov	r0, #11
 817 01c2 7941     		adcs	r1, r1, r7
 818 01c4 FFF7FEFF 		bl	_test_assert
 819              	.LVL64:
 820 01c8 0646     		mov	r6, r0
 821 01ca 0028     		cmp	r0, #0
 822 01cc 7FF448AF 		bne	.L32
 823              	.LVL65:
 824              	.LBB178:
 825              	.LBB179:
 826              	.LBB180:
 827              	.LBB181:
 828              		.file 3 "/home/selim/working/ChibiOS/os/ext/CMSIS/include/core_cmFunc.h"
 829              		.loc 3 546 0
 830 01d0 2023     		movs	r3, #32
 831              		.syntax unified
 832              	@ 546 "/home/selim/working/ChibiOS/os/ext/CMSIS/include/core_cmFunc.h" 1
 833 01d2 83F31188 		MSR basepri, r3
 834              	@ 0 "" 2
 835              	.LVL66:
 836              		.thumb
 837              		.syntax unified
 838              	.LBE181:
 839              	.LBE180:
 840              	.LBE179:
 841              	.LBE178:
 842              		.loc 1 390 0
 843 01d6 2248     		ldr	r0, .L38+32
 844 01d8 FFF7FEFF 		bl	chMtxUnlockS
 845              	.LVL67:
 846              		.loc 1 391 0
 847 01dc FFF7FEFF 		bl	chSchRescheduleS
 848              	.LVL68:
 849              	.LBB182:
 850              	.LBB183:
 851              	.LBB184:
 852              	.LBB185:
 853              	.LBB186:
 854              		.loc 3 546 0
 855              		.syntax unified
ARM GAS  /tmp/cchLbDiY.s 			page 16


 856              	@ 546 "/home/selim/working/ChibiOS/os/ext/CMSIS/include/core_cmFunc.h" 1
 857 01e0 86F31188 		MSR basepri, r6
 858              	@ 0 "" 2
 859              	.LVL69:
 860              		.thumb
 861              		.syntax unified
 862              	.LBE186:
 863              	.LBE185:
 864              	.LBE184:
 865              	.LBE183:
 866              	.LBE182:
 867              	.LBB187:
 868              	.LBB188:
 869              		.loc 2 189 0
 870 01e4 AB69     		ldr	r3, [r5, #24]
 871              	.LBE188:
 872              	.LBE187:
 873              		.loc 1 393 0
 874 01e6 9968     		ldr	r1, [r3, #8]
 875 01e8 A1EB0906 		sub	r6, r1, r9
 876 01ec 7142     		rsbs	r1, r6, #0
 877 01ee 7141     		adcs	r1, r1, r6
 878 01f0 0C20     		movs	r0, #12
 879 01f2 FFF7FEFF 		bl	_test_assert
 880              	.LVL70:
 881 01f6 0028     		cmp	r0, #0
 882 01f8 7FF432AF 		bne	.L32
 883              		.loc 1 394 0
 884 01fc 4FF47A70 		mov	r0, #1000
 885 0200 FFF7FEFF 		bl	chThdSleep
 886              	.LVL71:
 887              	.LBB189:
 888              	.LBB190:
 889              		.loc 2 189 0
 890 0204 AB69     		ldr	r3, [r5, #24]
 891              	.LBE190:
 892              	.LBE189:
 893              		.loc 1 395 0
 894 0206 9968     		ldr	r1, [r3, #8]
 895 0208 A1EB0902 		sub	r2, r1, r9
 896 020c 5142     		rsbs	r1, r2, #0
 897 020e 5141     		adcs	r1, r1, r2
 898 0210 0D20     		movs	r0, #13
 899 0212 FFF7FEFF 		bl	_test_assert
 900              	.LVL72:
 901 0216 0028     		cmp	r0, #0
 902 0218 7FF422AF 		bne	.L32
 903              		.loc 1 396 0
 904 021c FFF7FEFF 		bl	chMtxUnlockAll
 905              	.LVL73:
 906              	.LBB191:
 907              	.LBB192:
 908              		.loc 2 189 0
 909 0220 AB69     		ldr	r3, [r5, #24]
 910              	.LBE192:
 911              	.LBE191:
 912              		.loc 1 397 0
ARM GAS  /tmp/cchLbDiY.s 			page 17


 913 0222 9968     		ldr	r1, [r3, #8]
 914 0224 0B1B     		subs	r3, r1, r4
 915 0226 5942     		rsbs	r1, r3, #0
 916 0228 5941     		adcs	r1, r1, r3
 917 022a 0E20     		movs	r0, #14
 918 022c FFF7FEFF 		bl	_test_assert
 919              	.LVL74:
 920 0230 0028     		cmp	r0, #0
 921 0232 7FF415AF 		bne	.L32
 922              		.loc 1 399 0
 923 0236 05B0     		add	sp, sp, #20
 924              		.cfi_def_cfa_offset 28
 925              		@ sp needed
 926 0238 BDE8F046 		pop	{r4, r5, r6, r7, r9, r10, lr}
 927              		.cfi_restore 14
 928              		.cfi_restore 10
 929              		.cfi_restore 9
 930              		.cfi_restore 7
 931              		.cfi_restore 6
 932              		.cfi_restore 5
 933              		.cfi_restore 4
 934              		.cfi_def_cfa_offset 0
 935              	.LVL75:
 936              		.loc 1 398 0
 937 023c FFF7FEBF 		b	test_wait_threads
 938              	.LVL76:
 939              	.L39:
 940              		.align	2
 941              	.L38:
 942 0240 00000000 		.word	ch
 943 0244 00000000 		.word	wa
 944 0248 0C000000 		.word	.LC3
 945 024c 00000000 		.word	threads
 946 0250 00000000 		.word	thread4a
 947 0254 10000000 		.word	.LC4
 948 0258 00000000 		.word	thread4b
 949 025c 00000000 		.word	.LANCHOR1
 950 0260 00000000 		.word	.LANCHOR0
 951 0264 04000000 		.word	.LC1
 952 0268 08000000 		.word	.LC2
 953              		.cfi_endproc
 954              	.LFE233:
 955              		.size	mtx4_execute, .-mtx4_execute
 956              		.section	.text.mtx5_execute,"ax",%progbits
 957              		.align	1
 958              		.p2align 4,,15
 959              		.syntax unified
 960              		.thumb
 961              		.thumb_func
 962              		.fpu softvfp
 963              		.type	mtx5_execute, %function
 964              	mtx5_execute:
 965              	.LFB235:
 966              		.loc 1 423 0
 967              		.cfi_startproc
 968              		@ args = 0, pretend = 0, frame = 0
 969              		@ frame_needed = 0, uses_anonymous_args = 0
ARM GAS  /tmp/cchLbDiY.s 			page 18


 970 0000 F8B5     		push	{r3, r4, r5, r6, r7, lr}
 971              		.cfi_def_cfa_offset 24
 972              		.cfi_offset 3, -24
 973              		.cfi_offset 4, -20
 974              		.cfi_offset 5, -16
 975              		.cfi_offset 6, -12
 976              		.cfi_offset 7, -8
 977              		.cfi_offset 14, -4
 978              	.LBB193:
 979              	.LBB194:
 980              	.LBB195:
 981              	.LBB196:
 982              		.loc 2 176 0
 983 0002 2B4D     		ldr	r5, .L46
 984              	.LBE196:
 985              	.LBE195:
 986              	.LBE194:
 987              	.LBE193:
 988              		.loc 1 429 0
 989 0004 2B4C     		ldr	r4, .L46+4
 990              	.LBB199:
 991              	.LBB197:
 992              		.loc 2 189 0
 993 0006 AB69     		ldr	r3, [r5, #24]
 994              	.LBE197:
 995              	.LBE199:
 996              		.loc 1 429 0
 997 0008 2046     		mov	r0, r4
 998              	.LBB200:
 999              	.LBB198:
 1000              		.loc 2 189 0
 1001 000a 9E68     		ldr	r6, [r3, #8]
 1002              	.LBE198:
 1003              	.LBE200:
 1004              		.loc 1 429 0
 1005 000c FFF7FEFF 		bl	chMtxTryLock
 1006              	.LVL77:
 1007              		.loc 1 430 0
 1008 0010 0146     		mov	r1, r0
 1009 0012 0120     		movs	r0, #1
 1010              	.LVL78:
 1011 0014 FFF7FEFF 		bl	_test_assert
 1012              	.LVL79:
 1013 0018 00B1     		cbz	r0, .L45
 1014              	.L40:
 1015 001a F8BD     		pop	{r3, r4, r5, r6, r7, pc}
 1016              	.L45:
 1017              		.loc 1 432 0
 1018 001c 2046     		mov	r0, r4
 1019 001e FFF7FEFF 		bl	chMtxTryLock
 1020              	.LVL80:
 1021              		.loc 1 433 0
 1022 0022 80F00101 		eor	r1, r0, #1
 1023 0026 C9B2     		uxtb	r1, r1
 1024 0028 0220     		movs	r0, #2
 1025              	.LVL81:
 1026 002a FFF7FEFF 		bl	_test_assert
ARM GAS  /tmp/cchLbDiY.s 			page 19


 1027              	.LVL82:
 1028 002e 0746     		mov	r7, r0
 1029 0030 0028     		cmp	r0, #0
 1030 0032 F2D1     		bne	.L40
 1031              	.LVL83:
 1032              	.LBB201:
 1033              	.LBB202:
 1034              	.LBB203:
 1035              	.LBB204:
 1036              		.loc 3 546 0
 1037 0034 2023     		movs	r3, #32
 1038              		.syntax unified
 1039              	@ 546 "/home/selim/working/ChibiOS/os/ext/CMSIS/include/core_cmFunc.h" 1
 1040 0036 83F31188 		MSR basepri, r3
 1041              	@ 0 "" 2
 1042              	.LVL84:
 1043              		.thumb
 1044              		.syntax unified
 1045              	.LBE204:
 1046              	.LBE203:
 1047              	.LBE202:
 1048              	.LBE201:
 1049              		.loc 1 436 0
 1050 003a 2046     		mov	r0, r4
 1051 003c FFF7FEFF 		bl	chMtxUnlockS
 1052              	.LVL85:
 1053              	.LBB205:
 1054              	.LBB206:
 1055              	.LBB207:
 1056              	.LBB208:
 1057              	.LBB209:
 1058              		.loc 3 546 0
 1059              		.syntax unified
 1060              	@ 546 "/home/selim/working/ChibiOS/os/ext/CMSIS/include/core_cmFunc.h" 1
 1061 0040 87F31188 		MSR basepri, r7
 1062              	@ 0 "" 2
 1063              	.LVL86:
 1064              		.thumb
 1065              		.syntax unified
 1066              	.LBE209:
 1067              	.LBE208:
 1068              	.LBE207:
 1069              	.LBE206:
 1070              	.LBE205:
 1071              	.LBB210:
 1072              	.LBB211:
 1073              		.file 4 "/home/selim/working/ChibiOS/os/rt/include/chschd.h"
 1074              		.loc 4 618 0
 1075 0044 2168     		ldr	r1, [r4]
 1076              	.LBE211:
 1077              	.LBE210:
 1078              		.loc 1 439 0
 1079 0046 091B     		subs	r1, r1, r4
 1080 0048 B1FA81F1 		clz	r1, r1
 1081 004c 0320     		movs	r0, #3
 1082 004e 4909     		lsrs	r1, r1, #5
 1083 0050 FFF7FEFF 		bl	_test_assert
ARM GAS  /tmp/cchLbDiY.s 			page 20


 1084              	.LVL87:
 1085 0054 0028     		cmp	r0, #0
 1086 0056 E0D1     		bne	.L40
 1087              		.loc 1 440 0
 1088 0058 A168     		ldr	r1, [r4, #8]
 1089 005a B1FA81F1 		clz	r1, r1
 1090 005e 4909     		lsrs	r1, r1, #5
 1091 0060 0420     		movs	r0, #4
 1092 0062 FFF7FEFF 		bl	_test_assert
 1093              	.LVL88:
 1094 0066 0028     		cmp	r0, #0
 1095 0068 D7D1     		bne	.L40
 1096              	.LBB212:
 1097              	.LBB213:
 1098              		.loc 2 189 0
 1099 006a AB69     		ldr	r3, [r5, #24]
 1100              	.LBE213:
 1101              	.LBE212:
 1102              		.loc 1 441 0
 1103 006c 9968     		ldr	r1, [r3, #8]
 1104 006e 891B     		subs	r1, r1, r6
 1105 0070 B1FA81F1 		clz	r1, r1
 1106 0074 0520     		movs	r0, #5
 1107 0076 4909     		lsrs	r1, r1, #5
 1108 0078 FFF7FEFF 		bl	_test_assert
 1109              	.LVL89:
 1110 007c 0028     		cmp	r0, #0
 1111 007e CCD1     		bne	.L40
 1112              		.loc 1 444 0
 1113 0080 2046     		mov	r0, r4
 1114 0082 FFF7FEFF 		bl	chMtxLock
 1115              	.LVL90:
 1116              		.loc 1 445 0
 1117 0086 FFF7FEFF 		bl	chMtxUnlockAll
 1118              	.LVL91:
 1119              	.LBB214:
 1120              	.LBB215:
 1121              		.loc 4 618 0
 1122 008a 2168     		ldr	r1, [r4]
 1123              	.LBE215:
 1124              	.LBE214:
 1125              		.loc 1 446 0
 1126 008c 091B     		subs	r1, r1, r4
 1127 008e B1FA81F1 		clz	r1, r1
 1128 0092 0620     		movs	r0, #6
 1129 0094 4909     		lsrs	r1, r1, #5
 1130 0096 FFF7FEFF 		bl	_test_assert
 1131              	.LVL92:
 1132 009a 0028     		cmp	r0, #0
 1133 009c BDD1     		bne	.L40
 1134              		.loc 1 447 0
 1135 009e A168     		ldr	r1, [r4, #8]
 1136 00a0 B1FA81F1 		clz	r1, r1
 1137 00a4 4909     		lsrs	r1, r1, #5
 1138 00a6 0720     		movs	r0, #7
 1139              		.loc 1 448 0
 1140 00a8 BDE8F840 		pop	{r3, r4, r5, r6, r7, lr}
ARM GAS  /tmp/cchLbDiY.s 			page 21


 1141              		.cfi_restore 14
 1142              		.cfi_restore 7
 1143              		.cfi_restore 6
 1144              		.cfi_restore 5
 1145              		.cfi_restore 4
 1146              		.cfi_restore 3
 1147              		.cfi_def_cfa_offset 0
 1148              		.loc 1 447 0
 1149 00ac FFF7FEBF 		b	_test_assert
 1150              	.LVL93:
 1151              	.L47:
 1152              		.align	2
 1153              	.L46:
 1154 00b0 00000000 		.word	ch
 1155 00b4 00000000 		.word	.LANCHOR0
 1156              		.cfi_endproc
 1157              	.LFE235:
 1158              		.size	mtx5_execute, .-mtx5_execute
 1159              		.section	.text.mtx6_execute,"ax",%progbits
 1160              		.align	1
 1161              		.p2align 4,,15
 1162              		.syntax unified
 1163              		.thumb
 1164              		.thumb_func
 1165              		.fpu softvfp
 1166              		.type	mtx6_execute, %function
 1167              	mtx6_execute:
 1168              	.LFB238:
 1169              		.loc 1 483 0
 1170              		.cfi_startproc
 1171              		@ args = 0, pretend = 0, frame = 0
 1172              		@ frame_needed = 0, uses_anonymous_args = 0
 1173 0000 F0B5     		push	{r4, r5, r6, r7, lr}
 1174              		.cfi_def_cfa_offset 20
 1175              		.cfi_offset 4, -20
 1176              		.cfi_offset 5, -16
 1177              		.cfi_offset 6, -12
 1178              		.cfi_offset 7, -8
 1179              		.cfi_offset 14, -4
 1180              	.LBB216:
 1181              	.LBB217:
 1182              	.LBB218:
 1183              	.LBB219:
 1184              		.loc 2 176 0
 1185 0002 2F4B     		ldr	r3, .L50
 1186              	.LBE219:
 1187              	.LBE218:
 1188              	.LBE217:
 1189              	.LBE216:
 1190              		.loc 1 486 0
 1191 0004 2F4F     		ldr	r7, .L50+4
 1192              	.LBB222:
 1193              	.LBB220:
 1194              		.loc 2 189 0
 1195 0006 9B69     		ldr	r3, [r3, #24]
 1196              	.LBE220:
 1197              	.LBE222:
ARM GAS  /tmp/cchLbDiY.s 			page 22


 1198              		.loc 1 486 0
 1199 0008 2F4D     		ldr	r5, .L50+8
 1200              	.LBB223:
 1201              	.LBB221:
 1202              		.loc 2 189 0
 1203 000a 9E68     		ldr	r6, [r3, #8]
 1204              	.LBE221:
 1205              	.LBE223:
 1206              		.loc 1 486 0
 1207 000c 2F4B     		ldr	r3, .L50+12
 1208 000e 3868     		ldr	r0, [r7]
 1209 0010 2F4C     		ldr	r4, .L50+16
 1210              		.loc 1 483 0
 1211 0012 83B0     		sub	sp, sp, #12
 1212              		.cfi_def_cfa_offset 32
 1213              		.loc 1 486 0
 1214 0014 721C     		adds	r2, r6, #1
 1215 0016 0093     		str	r3, [sp]
 1216 0018 4FF4A471 		mov	r1, #328
 1217 001c 2B46     		mov	r3, r5
 1218 001e FFF7FEFF 		bl	chThdCreateStatic
 1219              	.LVL94:
 1220              		.loc 1 487 0
 1221 0022 7B68     		ldr	r3, [r7, #4]
 1222 0024 2B49     		ldr	r1, .L50+20
 1223              		.loc 1 486 0
 1224 0026 2060     		str	r0, [r4]
 1225              		.loc 1 487 0
 1226 0028 B21C     		adds	r2, r6, #2
 1227 002a 0091     		str	r1, [sp]
 1228 002c 1846     		mov	r0, r3
 1229 002e 4FF4A471 		mov	r1, #328
 1230 0032 2B46     		mov	r3, r5
 1231 0034 FFF7FEFF 		bl	chThdCreateStatic
 1232              	.LVL95:
 1233              		.loc 1 488 0
 1234 0038 BB68     		ldr	r3, [r7, #8]
 1235 003a 2749     		ldr	r1, .L50+24
 1236              		.loc 1 487 0
 1237 003c 6060     		str	r0, [r4, #4]
 1238              		.loc 1 488 0
 1239 003e F21C     		adds	r2, r6, #3
 1240 0040 0091     		str	r1, [sp]
 1241 0042 1846     		mov	r0, r3
 1242 0044 4FF4A471 		mov	r1, #328
 1243 0048 2B46     		mov	r3, r5
 1244 004a FFF7FEFF 		bl	chThdCreateStatic
 1245              	.LVL96:
 1246              		.loc 1 489 0
 1247 004e FB68     		ldr	r3, [r7, #12]
 1248 0050 2249     		ldr	r1, .L50+28
 1249              		.loc 1 488 0
 1250 0052 A060     		str	r0, [r4, #8]
 1251              		.loc 1 489 0
 1252 0054 321D     		adds	r2, r6, #4
 1253 0056 0091     		str	r1, [sp]
 1254 0058 1846     		mov	r0, r3
ARM GAS  /tmp/cchLbDiY.s 			page 23


 1255 005a 4FF4A471 		mov	r1, #328
 1256 005e 2B46     		mov	r3, r5
 1257 0060 FFF7FEFF 		bl	chThdCreateStatic
 1258              	.LVL97:
 1259              		.loc 1 490 0
 1260 0064 3B69     		ldr	r3, [r7, #16]
 1261 0066 1E49     		ldr	r1, .L50+32
 1262              		.loc 1 489 0
 1263 0068 E060     		str	r0, [r4, #12]
 1264              		.loc 1 490 0
 1265 006a 721D     		adds	r2, r6, #5
 1266 006c 0091     		str	r1, [sp]
 1267 006e 1846     		mov	r0, r3
 1268 0070 4FF4A471 		mov	r1, #328
 1269 0074 2B46     		mov	r3, r5
 1270 0076 FFF7FEFF 		bl	chThdCreateStatic
 1271              	.LVL98:
 1272              	.LBB224:
 1273              	.LBB225:
 1274              	.LBB226:
 1275              	.LBB227:
 1276              		.loc 3 546 0
 1277 007a 2023     		movs	r3, #32
 1278              	.LBE227:
 1279              	.LBE226:
 1280              	.LBE225:
 1281              	.LBE224:
 1282              		.loc 1 490 0
 1283 007c 2061     		str	r0, [r4, #16]
 1284              	.LVL99:
 1285              	.LBB231:
 1286              	.LBB230:
 1287              	.LBB229:
 1288              	.LBB228:
 1289              		.loc 3 546 0
 1290              		.syntax unified
 1291              	@ 546 "/home/selim/working/ChibiOS/os/ext/CMSIS/include/core_cmFunc.h" 1
 1292 007e 83F31188 		MSR basepri, r3
 1293              	@ 0 "" 2
 1294              	.LVL100:
 1295              		.thumb
 1296              		.syntax unified
 1297              	.LBE228:
 1298              	.LBE229:
 1299              	.LBE230:
 1300              	.LBE231:
 1301              		.loc 1 492 0
 1302 0082 184C     		ldr	r4, .L50+36
 1303 0084 2046     		mov	r0, r4
 1304 0086 FFF7FEFF 		bl	chCondSignalI
 1305              	.LVL101:
 1306              		.loc 1 493 0
 1307 008a 2046     		mov	r0, r4
 1308 008c FFF7FEFF 		bl	chCondSignalI
 1309              	.LVL102:
 1310              		.loc 1 494 0
 1311 0090 2046     		mov	r0, r4
ARM GAS  /tmp/cchLbDiY.s 			page 24


 1312 0092 FFF7FEFF 		bl	chCondSignalI
 1313              	.LVL103:
 1314              		.loc 1 495 0
 1315 0096 2046     		mov	r0, r4
 1316 0098 FFF7FEFF 		bl	chCondSignalI
 1317              	.LVL104:
 1318              		.loc 1 496 0
 1319 009c 2046     		mov	r0, r4
 1320 009e FFF7FEFF 		bl	chCondSignalI
 1321              	.LVL105:
 1322              		.loc 1 497 0
 1323 00a2 FFF7FEFF 		bl	chSchRescheduleS
 1324              	.LVL106:
 1325              	.LBB232:
 1326              	.LBB233:
 1327              	.LBB234:
 1328              	.LBB235:
 1329              	.LBB236:
 1330              		.loc 3 546 0
 1331 00a6 0023     		movs	r3, #0
 1332              		.syntax unified
 1333              	@ 546 "/home/selim/working/ChibiOS/os/ext/CMSIS/include/core_cmFunc.h" 1
 1334 00a8 83F31188 		MSR basepri, r3
 1335              	@ 0 "" 2
 1336              	.LVL107:
 1337              		.thumb
 1338              		.syntax unified
 1339              	.LBE236:
 1340              	.LBE235:
 1341              	.LBE234:
 1342              	.LBE233:
 1343              	.LBE232:
 1344              		.loc 1 499 0
 1345 00ac FFF7FEFF 		bl	test_wait_threads
 1346              	.LVL108:
 1347              		.loc 1 500 0
 1348 00b0 0D49     		ldr	r1, .L50+40
 1349 00b2 0120     		movs	r0, #1
 1350              		.loc 1 501 0
 1351 00b4 03B0     		add	sp, sp, #12
 1352              		.cfi_def_cfa_offset 20
 1353              		@ sp needed
 1354 00b6 BDE8F040 		pop	{r4, r5, r6, r7, lr}
 1355              		.cfi_restore 14
 1356              		.cfi_restore 7
 1357              		.cfi_restore 6
 1358              		.cfi_restore 5
 1359              		.cfi_restore 4
 1360              		.cfi_def_cfa_offset 0
 1361              		.loc 1 500 0
 1362 00ba FFF7FEBF 		b	_test_assert_sequence
 1363              	.LVL109:
 1364              	.L51:
 1365 00be 00BF     		.align	2
 1366              	.L50:
 1367 00c0 00000000 		.word	ch
 1368 00c4 00000000 		.word	wa
ARM GAS  /tmp/cchLbDiY.s 			page 25


 1369 00c8 00000000 		.word	thread10
 1370 00cc 00000000 		.word	.LC0
 1371 00d0 00000000 		.word	threads
 1372 00d4 04000000 		.word	.LC1
 1373 00d8 08000000 		.word	.LC2
 1374 00dc 0C000000 		.word	.LC3
 1375 00e0 10000000 		.word	.LC4
 1376 00e4 00000000 		.word	.LANCHOR2
 1377 00e8 14000000 		.word	.LC5
 1378              		.cfi_endproc
 1379              	.LFE238:
 1380              		.size	mtx6_execute, .-mtx6_execute
 1381              		.section	.text.thread10,"ax",%progbits
 1382              		.align	1
 1383              		.p2align 4,,15
 1384              		.syntax unified
 1385              		.thumb
 1386              		.thumb_func
 1387              		.fpu softvfp
 1388              		.type	thread10, %function
 1389              	thread10:
 1390              	.LFB237:
 1391              		.loc 1 475 0
 1392              		.cfi_startproc
 1393              		@ args = 0, pretend = 0, frame = 0
 1394              		@ frame_needed = 0, uses_anonymous_args = 0
 1395              	.LVL110:
 1396 0000 38B5     		push	{r3, r4, r5, lr}
 1397              		.cfi_def_cfa_offset 16
 1398              		.cfi_offset 3, -16
 1399              		.cfi_offset 4, -12
 1400              		.cfi_offset 5, -8
 1401              		.cfi_offset 14, -4
 1402              		.loc 1 477 0
 1403 0002 084C     		ldr	r4, .L54
 1404              		.loc 1 475 0
 1405 0004 0546     		mov	r5, r0
 1406              		.loc 1 477 0
 1407 0006 2046     		mov	r0, r4
 1408              	.LVL111:
 1409 0008 FFF7FEFF 		bl	chMtxLock
 1410              	.LVL112:
 1411              		.loc 1 478 0
 1412 000c 0648     		ldr	r0, .L54+4
 1413 000e FFF7FEFF 		bl	chCondWait
 1414              	.LVL113:
 1415              		.loc 1 479 0
 1416 0012 2878     		ldrb	r0, [r5]	@ zero_extendqisi2
 1417 0014 FFF7FEFF 		bl	test_emit_token
 1418              	.LVL114:
 1419              		.loc 1 480 0
 1420 0018 2046     		mov	r0, r4
 1421              		.loc 1 481 0
 1422 001a BDE83840 		pop	{r3, r4, r5, lr}
 1423              		.cfi_restore 14
 1424              		.cfi_restore 5
 1425              		.cfi_restore 4
ARM GAS  /tmp/cchLbDiY.s 			page 26


 1426              		.cfi_restore 3
 1427              		.cfi_def_cfa_offset 0
 1428              	.LVL115:
 1429              		.loc 1 480 0
 1430 001e FFF7FEBF 		b	chMtxUnlock
 1431              	.LVL116:
 1432              	.L55:
 1433 0022 00BF     		.align	2
 1434              	.L54:
 1435 0024 00000000 		.word	.LANCHOR0
 1436 0028 00000000 		.word	.LANCHOR2
 1437              		.cfi_endproc
 1438              	.LFE237:
 1439              		.size	thread10, .-thread10
 1440              		.section	.text.mtx7_setup,"ax",%progbits
 1441              		.align	1
 1442              		.p2align 4,,15
 1443              		.syntax unified
 1444              		.thumb
 1445              		.thumb_func
 1446              		.fpu softvfp
 1447              		.type	mtx7_setup, %function
 1448              	mtx7_setup:
 1449              	.LFB239:
 1450              		.loc 1 520 0
 1451              		.cfi_startproc
 1452              		@ args = 0, pretend = 0, frame = 0
 1453              		@ frame_needed = 0, uses_anonymous_args = 0
 1454 0000 08B5     		push	{r3, lr}
 1455              		.cfi_def_cfa_offset 8
 1456              		.cfi_offset 3, -8
 1457              		.cfi_offset 14, -4
 1458              		.loc 1 522 0
 1459 0002 0448     		ldr	r0, .L58
 1460 0004 FFF7FEFF 		bl	chCondObjectInit
 1461              	.LVL117:
 1462              		.loc 1 523 0
 1463 0008 0348     		ldr	r0, .L58+4
 1464              		.loc 1 524 0
 1465 000a BDE80840 		pop	{r3, lr}
 1466              		.cfi_restore 14
 1467              		.cfi_restore 3
 1468              		.cfi_def_cfa_offset 0
 1469              		.loc 1 523 0
 1470 000e FFF7FEBF 		b	chMtxObjectInit
 1471              	.LVL118:
 1472              	.L59:
 1473 0012 00BF     		.align	2
 1474              	.L58:
 1475 0014 00000000 		.word	.LANCHOR2
 1476 0018 00000000 		.word	.LANCHOR0
 1477              		.cfi_endproc
 1478              	.LFE239:
 1479              		.size	mtx7_setup, .-mtx7_setup
 1480              		.section	.text.mtx6_setup,"ax",%progbits
 1481              		.align	1
 1482              		.p2align 4,,15
ARM GAS  /tmp/cchLbDiY.s 			page 27


 1483              		.syntax unified
 1484              		.thumb
 1485              		.thumb_func
 1486              		.fpu softvfp
 1487              		.type	mtx6_setup, %function
 1488              	mtx6_setup:
 1489              	.LFB246:
 1490              		.cfi_startproc
 1491              		@ args = 0, pretend = 0, frame = 0
 1492              		@ frame_needed = 0, uses_anonymous_args = 0
 1493              		@ link register save eliminated.
 1494 0000 FFF7FEBF 		b	mtx7_setup
 1495              		.cfi_endproc
 1496              	.LFE246:
 1497              		.size	mtx6_setup, .-mtx6_setup
 1498              		.section	.text.mtx8_setup,"ax",%progbits
 1499              		.align	1
 1500              		.p2align 4,,15
 1501              		.syntax unified
 1502              		.thumb
 1503              		.thumb_func
 1504              		.fpu softvfp
 1505              		.type	mtx8_setup, %function
 1506              	mtx8_setup:
 1507              	.LFB241:
 1508              		.loc 1 555 0
 1509              		.cfi_startproc
 1510              		@ args = 0, pretend = 0, frame = 0
 1511              		@ frame_needed = 0, uses_anonymous_args = 0
 1512              		.loc 1 555 0
 1513 0000 08B5     		push	{r3, lr}
 1514              		.cfi_def_cfa_offset 8
 1515              		.cfi_offset 3, -8
 1516              		.cfi_offset 14, -4
 1517              		.loc 1 557 0
 1518 0002 0548     		ldr	r0, .L63
 1519 0004 FFF7FEFF 		bl	chCondObjectInit
 1520              	.LVL119:
 1521              		.loc 1 558 0
 1522 0008 0448     		ldr	r0, .L63+4
 1523 000a FFF7FEFF 		bl	chMtxObjectInit
 1524              	.LVL120:
 1525              		.loc 1 559 0
 1526 000e 0448     		ldr	r0, .L63+8
 1527              		.loc 1 560 0
 1528 0010 BDE80840 		pop	{r3, lr}
 1529              		.cfi_restore 14
 1530              		.cfi_restore 3
 1531              		.cfi_def_cfa_offset 0
 1532              		.loc 1 559 0
 1533 0014 FFF7FEBF 		b	chMtxObjectInit
 1534              	.LVL121:
 1535              	.L64:
 1536              		.align	2
 1537              	.L63:
 1538 0018 00000000 		.word	.LANCHOR2
 1539 001c 00000000 		.word	.LANCHOR0
ARM GAS  /tmp/cchLbDiY.s 			page 28


 1540 0020 00000000 		.word	.LANCHOR1
 1541              		.cfi_endproc
 1542              	.LFE241:
 1543              		.size	mtx8_setup, .-mtx8_setup
 1544              		.section	.text.mtx7_execute,"ax",%progbits
 1545              		.align	1
 1546              		.p2align 4,,15
 1547              		.syntax unified
 1548              		.thumb
 1549              		.thumb_func
 1550              		.fpu softvfp
 1551              		.type	mtx7_execute, %function
 1552              	mtx7_execute:
 1553              	.LFB240:
 1554              		.loc 1 526 0
 1555              		.cfi_startproc
 1556              		@ args = 0, pretend = 0, frame = 0
 1557              		@ frame_needed = 0, uses_anonymous_args = 0
 1558 0000 F0B5     		push	{r4, r5, r6, r7, lr}
 1559              		.cfi_def_cfa_offset 20
 1560              		.cfi_offset 4, -20
 1561              		.cfi_offset 5, -16
 1562              		.cfi_offset 6, -12
 1563              		.cfi_offset 7, -8
 1564              		.cfi_offset 14, -4
 1565              	.LBB237:
 1566              	.LBB238:
 1567              	.LBB239:
 1568              	.LBB240:
 1569              		.loc 2 176 0
 1570 0002 244B     		ldr	r3, .L67
 1571              	.LBE240:
 1572              	.LBE239:
 1573              	.LBE238:
 1574              	.LBE237:
 1575              		.loc 1 529 0
 1576 0004 244F     		ldr	r7, .L67+4
 1577              	.LBB243:
 1578              	.LBB241:
 1579              		.loc 2 189 0
 1580 0006 9B69     		ldr	r3, [r3, #24]
 1581              	.LBE241:
 1582              	.LBE243:
 1583              		.loc 1 529 0
 1584 0008 244D     		ldr	r5, .L67+8
 1585              	.LBB244:
 1586              	.LBB242:
 1587              		.loc 2 189 0
 1588 000a 9E68     		ldr	r6, [r3, #8]
 1589              	.LBE242:
 1590              	.LBE244:
 1591              		.loc 1 529 0
 1592 000c 244B     		ldr	r3, .L67+12
 1593 000e 3868     		ldr	r0, [r7]
 1594 0010 244C     		ldr	r4, .L67+16
 1595              		.loc 1 526 0
 1596 0012 83B0     		sub	sp, sp, #12
ARM GAS  /tmp/cchLbDiY.s 			page 29


 1597              		.cfi_def_cfa_offset 32
 1598              		.loc 1 529 0
 1599 0014 721C     		adds	r2, r6, #1
 1600 0016 0093     		str	r3, [sp]
 1601 0018 4FF4A471 		mov	r1, #328
 1602 001c 2B46     		mov	r3, r5
 1603 001e FFF7FEFF 		bl	chThdCreateStatic
 1604              	.LVL122:
 1605              		.loc 1 530 0
 1606 0022 7B68     		ldr	r3, [r7, #4]
 1607 0024 2049     		ldr	r1, .L67+20
 1608              		.loc 1 529 0
 1609 0026 2060     		str	r0, [r4]
 1610              		.loc 1 530 0
 1611 0028 B21C     		adds	r2, r6, #2
 1612 002a 0091     		str	r1, [sp]
 1613 002c 1846     		mov	r0, r3
 1614 002e 4FF4A471 		mov	r1, #328
 1615 0032 2B46     		mov	r3, r5
 1616 0034 FFF7FEFF 		bl	chThdCreateStatic
 1617              	.LVL123:
 1618              		.loc 1 531 0
 1619 0038 BB68     		ldr	r3, [r7, #8]
 1620 003a 1C49     		ldr	r1, .L67+24
 1621              		.loc 1 530 0
 1622 003c 6060     		str	r0, [r4, #4]
 1623              		.loc 1 531 0
 1624 003e F21C     		adds	r2, r6, #3
 1625 0040 0091     		str	r1, [sp]
 1626 0042 1846     		mov	r0, r3
 1627 0044 4FF4A471 		mov	r1, #328
 1628 0048 2B46     		mov	r3, r5
 1629 004a FFF7FEFF 		bl	chThdCreateStatic
 1630              	.LVL124:
 1631              		.loc 1 532 0
 1632 004e FB68     		ldr	r3, [r7, #12]
 1633 0050 1749     		ldr	r1, .L67+28
 1634              		.loc 1 531 0
 1635 0052 A060     		str	r0, [r4, #8]
 1636              		.loc 1 532 0
 1637 0054 321D     		adds	r2, r6, #4
 1638 0056 0091     		str	r1, [sp]
 1639 0058 1846     		mov	r0, r3
 1640 005a 4FF4A471 		mov	r1, #328
 1641 005e 2B46     		mov	r3, r5
 1642 0060 FFF7FEFF 		bl	chThdCreateStatic
 1643              	.LVL125:
 1644              		.loc 1 533 0
 1645 0064 3B69     		ldr	r3, [r7, #16]
 1646 0066 1349     		ldr	r1, .L67+32
 1647              		.loc 1 532 0
 1648 0068 E060     		str	r0, [r4, #12]
 1649              		.loc 1 533 0
 1650 006a 721D     		adds	r2, r6, #5
 1651 006c 0091     		str	r1, [sp]
 1652 006e 1846     		mov	r0, r3
 1653 0070 4FF4A471 		mov	r1, #328
ARM GAS  /tmp/cchLbDiY.s 			page 30


 1654 0074 2B46     		mov	r3, r5
 1655 0076 FFF7FEFF 		bl	chThdCreateStatic
 1656              	.LVL126:
 1657 007a 2061     		str	r0, [r4, #16]
 1658              		.loc 1 534 0
 1659 007c 0E48     		ldr	r0, .L67+36
 1660 007e FFF7FEFF 		bl	chCondBroadcast
 1661              	.LVL127:
 1662              		.loc 1 535 0
 1663 0082 FFF7FEFF 		bl	test_wait_threads
 1664              	.LVL128:
 1665              		.loc 1 536 0
 1666 0086 0D49     		ldr	r1, .L67+40
 1667 0088 0120     		movs	r0, #1
 1668              		.loc 1 537 0
 1669 008a 03B0     		add	sp, sp, #12
 1670              		.cfi_def_cfa_offset 20
 1671              		@ sp needed
 1672 008c BDE8F040 		pop	{r4, r5, r6, r7, lr}
 1673              		.cfi_restore 14
 1674              		.cfi_restore 7
 1675              		.cfi_restore 6
 1676              		.cfi_restore 5
 1677              		.cfi_restore 4
 1678              		.cfi_def_cfa_offset 0
 1679              		.loc 1 536 0
 1680 0090 FFF7FEBF 		b	_test_assert_sequence
 1681              	.LVL129:
 1682              	.L68:
 1683              		.align	2
 1684              	.L67:
 1685 0094 00000000 		.word	ch
 1686 0098 00000000 		.word	wa
 1687 009c 00000000 		.word	thread10
 1688 00a0 00000000 		.word	.LC0
 1689 00a4 00000000 		.word	threads
 1690 00a8 04000000 		.word	.LC1
 1691 00ac 08000000 		.word	.LC2
 1692 00b0 0C000000 		.word	.LC3
 1693 00b4 10000000 		.word	.LC4
 1694 00b8 00000000 		.word	.LANCHOR2
 1695 00bc 14000000 		.word	.LC5
 1696              		.cfi_endproc
 1697              	.LFE240:
 1698              		.size	mtx7_execute, .-mtx7_execute
 1699              		.section	.text.mtx8_execute,"ax",%progbits
 1700              		.align	1
 1701              		.p2align 4,,15
 1702              		.syntax unified
 1703              		.thumb
 1704              		.thumb_func
 1705              		.fpu softvfp
 1706              		.type	mtx8_execute, %function
 1707              	mtx8_execute:
 1708              	.LFB244:
 1709              		.loc 1 583 0
 1710              		.cfi_startproc
ARM GAS  /tmp/cchLbDiY.s 			page 31


 1711              		@ args = 0, pretend = 0, frame = 0
 1712              		@ frame_needed = 0, uses_anonymous_args = 0
 1713 0000 F0B5     		push	{r4, r5, r6, r7, lr}
 1714              		.cfi_def_cfa_offset 20
 1715              		.cfi_offset 4, -20
 1716              		.cfi_offset 5, -16
 1717              		.cfi_offset 6, -12
 1718              		.cfi_offset 7, -8
 1719              		.cfi_offset 14, -4
 1720              	.LBB245:
 1721              	.LBB246:
 1722              	.LBB247:
 1723              	.LBB248:
 1724              		.loc 2 176 0
 1725 0002 1B4B     		ldr	r3, .L71
 1726              	.LBE248:
 1727              	.LBE247:
 1728              	.LBE246:
 1729              	.LBE245:
 1730              		.loc 1 586 0
 1731 0004 1B4E     		ldr	r6, .L71+4
 1732              	.LBB251:
 1733              	.LBB249:
 1734              		.loc 2 189 0
 1735 0006 9B69     		ldr	r3, [r3, #24]
 1736              	.LBE249:
 1737              	.LBE251:
 1738              		.loc 1 586 0
 1739 0008 3068     		ldr	r0, [r6]
 1740              	.LBB252:
 1741              	.LBB250:
 1742              		.loc 2 189 0
 1743 000a 9D68     		ldr	r5, [r3, #8]
 1744              	.LBE250:
 1745              	.LBE252:
 1746              		.loc 1 586 0
 1747 000c 1A4B     		ldr	r3, .L71+8
 1748 000e 1B4C     		ldr	r4, .L71+12
 1749              		.loc 1 589 0
 1750 0010 1B4F     		ldr	r7, .L71+16
 1751              		.loc 1 583 0
 1752 0012 83B0     		sub	sp, sp, #12
 1753              		.cfi_def_cfa_offset 32
 1754              		.loc 1 586 0
 1755 0014 6A1C     		adds	r2, r5, #1
 1756 0016 0093     		str	r3, [sp]
 1757 0018 4FF4A471 		mov	r1, #328
 1758 001c 194B     		ldr	r3, .L71+20
 1759 001e FFF7FEFF 		bl	chThdCreateStatic
 1760              	.LVL130:
 1761              		.loc 1 587 0
 1762 0022 7168     		ldr	r1, [r6, #4]
 1763 0024 184B     		ldr	r3, .L71+24
 1764              		.loc 1 586 0
 1765 0026 2060     		str	r0, [r4]
 1766              		.loc 1 587 0
 1767 0028 AA1C     		adds	r2, r5, #2
ARM GAS  /tmp/cchLbDiY.s 			page 32


 1768 002a 0093     		str	r3, [sp]
 1769 002c 0846     		mov	r0, r1
 1770 002e 174B     		ldr	r3, .L71+28
 1771 0030 4FF4A471 		mov	r1, #328
 1772 0034 FFF7FEFF 		bl	chThdCreateStatic
 1773              	.LVL131:
 1774              		.loc 1 588 0
 1775 0038 B168     		ldr	r1, [r6, #8]
 1776 003a 154B     		ldr	r3, .L71+32
 1777              		.loc 1 587 0
 1778 003c 6060     		str	r0, [r4, #4]
 1779              		.loc 1 588 0
 1780 003e EA1C     		adds	r2, r5, #3
 1781 0040 0093     		str	r3, [sp]
 1782 0042 0846     		mov	r0, r1
 1783 0044 134B     		ldr	r3, .L71+36
 1784 0046 4FF4A471 		mov	r1, #328
 1785 004a FFF7FEFF 		bl	chThdCreateStatic
 1786              	.LVL132:
 1787 004e A060     		str	r0, [r4, #8]
 1788              		.loc 1 589 0
 1789 0050 3846     		mov	r0, r7
 1790 0052 FFF7FEFF 		bl	chCondSignal
 1791              	.LVL133:
 1792              		.loc 1 590 0
 1793 0056 3846     		mov	r0, r7
 1794 0058 FFF7FEFF 		bl	chCondSignal
 1795              	.LVL134:
 1796              		.loc 1 591 0
 1797 005c FFF7FEFF 		bl	test_wait_threads
 1798              	.LVL135:
 1799              		.loc 1 592 0
 1800 0060 0D49     		ldr	r1, .L71+40
 1801 0062 0120     		movs	r0, #1
 1802              		.loc 1 593 0
 1803 0064 03B0     		add	sp, sp, #12
 1804              		.cfi_def_cfa_offset 20
 1805              		@ sp needed
 1806 0066 BDE8F040 		pop	{r4, r5, r6, r7, lr}
 1807              		.cfi_restore 14
 1808              		.cfi_restore 7
 1809              		.cfi_restore 6
 1810              		.cfi_restore 5
 1811              		.cfi_restore 4
 1812              		.cfi_def_cfa_offset 0
 1813              		.loc 1 592 0
 1814 006a FFF7FEBF 		b	_test_assert_sequence
 1815              	.LVL136:
 1816              	.L72:
 1817 006e 00BF     		.align	2
 1818              	.L71:
 1819 0070 00000000 		.word	ch
 1820 0074 00000000 		.word	wa
 1821 0078 10000000 		.word	.LC4
 1822 007c 00000000 		.word	threads
 1823 0080 00000000 		.word	.LANCHOR2
 1824 0084 00000000 		.word	thread11
ARM GAS  /tmp/cchLbDiY.s 			page 33


 1825 0088 08000000 		.word	.LC2
 1826 008c 00000000 		.word	thread10
 1827 0090 0C000000 		.word	.LC3
 1828 0094 00000000 		.word	thread12
 1829 0098 00000000 		.word	.LC6
 1830              		.cfi_endproc
 1831              	.LFE244:
 1832              		.size	mtx8_execute, .-mtx8_execute
 1833              		.section	.text.thread11,"ax",%progbits
 1834              		.align	1
 1835              		.p2align 4,,15
 1836              		.syntax unified
 1837              		.thumb
 1838              		.thumb_func
 1839              		.fpu softvfp
 1840              		.type	thread11, %function
 1841              	thread11:
 1842              	.LFB242:
 1843              		.loc 1 562 0
 1844              		.cfi_startproc
 1845              		@ args = 0, pretend = 0, frame = 0
 1846              		@ frame_needed = 0, uses_anonymous_args = 0
 1847              	.LVL137:
 1848 0000 70B5     		push	{r4, r5, r6, lr}
 1849              		.cfi_def_cfa_offset 16
 1850              		.cfi_offset 4, -16
 1851              		.cfi_offset 5, -12
 1852              		.cfi_offset 6, -8
 1853              		.cfi_offset 14, -4
 1854              		.loc 1 564 0
 1855 0002 0C4C     		ldr	r4, .L75
 1856              		.loc 1 565 0
 1857 0004 0C4D     		ldr	r5, .L75+4
 1858              		.loc 1 562 0
 1859 0006 0646     		mov	r6, r0
 1860              		.loc 1 564 0
 1861 0008 2046     		mov	r0, r4
 1862              	.LVL138:
 1863 000a FFF7FEFF 		bl	chMtxLock
 1864              	.LVL139:
 1865              		.loc 1 565 0
 1866 000e 2846     		mov	r0, r5
 1867 0010 FFF7FEFF 		bl	chMtxLock
 1868              	.LVL140:
 1869              		.loc 1 567 0
 1870 0014 4FF0FF31 		mov	r1, #-1
 1871 0018 0848     		ldr	r0, .L75+8
 1872 001a FFF7FEFF 		bl	chCondWaitTimeout
 1873              	.LVL141:
 1874              		.loc 1 571 0
 1875 001e 3078     		ldrb	r0, [r6]	@ zero_extendqisi2
 1876 0020 FFF7FEFF 		bl	test_emit_token
 1877              	.LVL142:
 1878              		.loc 1 572 0
 1879 0024 2846     		mov	r0, r5
 1880 0026 FFF7FEFF 		bl	chMtxUnlock
 1881              	.LVL143:
ARM GAS  /tmp/cchLbDiY.s 			page 34


 1882              		.loc 1 573 0
 1883 002a 2046     		mov	r0, r4
 1884              		.loc 1 574 0
 1885 002c BDE87040 		pop	{r4, r5, r6, lr}
 1886              		.cfi_restore 14
 1887              		.cfi_restore 6
 1888              		.cfi_restore 5
 1889              		.cfi_restore 4
 1890              		.cfi_def_cfa_offset 0
 1891              	.LVL144:
 1892              		.loc 1 573 0
 1893 0030 FFF7FEBF 		b	chMtxUnlock
 1894              	.LVL145:
 1895              	.L76:
 1896              		.align	2
 1897              	.L75:
 1898 0034 00000000 		.word	.LANCHOR1
 1899 0038 00000000 		.word	.LANCHOR0
 1900 003c 00000000 		.word	.LANCHOR2
 1901              		.cfi_endproc
 1902              	.LFE242:
 1903              		.size	thread11, .-thread11
 1904              		.global	patternmtx
 1905              		.global	testmtx8
 1906              		.global	testmtx7
 1907              		.global	testmtx6
 1908              		.global	testmtx5
 1909              		.global	testmtx4
 1910              		.global	testmtx1
 1911              		.section	.data.c1,"aw",%progbits
 1912              		.align	2
 1913              		.set	.LANCHOR2,. + 0
 1914              		.type	c1, %object
 1915              		.size	c1, 8
 1916              	c1:
 1917 0000 00000000 		.word	c1
 1918 0004 00000000 		.word	c1
 1919              		.section	.data.m1,"aw",%progbits
 1920              		.align	2
 1921              		.set	.LANCHOR0,. + 0
 1922              		.type	m1, %object
 1923              		.size	m1, 16
 1924              	m1:
 1925 0000 00000000 		.word	m1
 1926 0004 00000000 		.word	m1
 1927 0008 00000000 		.word	0
 1928 000c 00000000 		.word	0
 1929              		.section	.data.m2,"aw",%progbits
 1930              		.align	2
 1931              		.set	.LANCHOR1,. + 0
 1932              		.type	m2, %object
 1933              		.size	m2, 16
 1934              	m2:
 1935 0000 00000000 		.word	m2
 1936 0004 00000000 		.word	m2
 1937 0008 00000000 		.word	0
 1938 000c 00000000 		.word	0
ARM GAS  /tmp/cchLbDiY.s 			page 35


 1939              		.section	.rodata.mtx1_execute.str1.4,"aMS",%progbits,1
 1940              		.align	2
 1941              	.LC0:
 1942 0000 4500     		.ascii	"E\000"
 1943 0002 0000     		.space	2
 1944              	.LC1:
 1945 0004 4400     		.ascii	"D\000"
 1946 0006 0000     		.space	2
 1947              	.LC2:
 1948 0008 4300     		.ascii	"C\000"
 1949 000a 0000     		.space	2
 1950              	.LC3:
 1951 000c 4200     		.ascii	"B\000"
 1952 000e 0000     		.space	2
 1953              	.LC4:
 1954 0010 4100     		.ascii	"A\000"
 1955 0012 0000     		.space	2
 1956              	.LC5:
 1957 0014 41424344 		.ascii	"ABCDE\000"
 1957      4500
 1958              		.section	.rodata.mtx8_execute.str1.4,"aMS",%progbits,1
 1959              		.align	2
 1960              	.LC6:
 1961 0000 41424300 		.ascii	"ABC\000"
 1962              		.section	.rodata.patternmtx,"a",%progbits
 1963              		.align	2
 1964              		.type	patternmtx, %object
 1965              		.size	patternmtx, 28
 1966              	patternmtx:
 1967 0000 00000000 		.word	testmtx1
 1968 0004 00000000 		.word	testmtx4
 1969 0008 00000000 		.word	testmtx5
 1970 000c 00000000 		.word	testmtx6
 1971 0010 00000000 		.word	testmtx7
 1972 0014 00000000 		.word	testmtx8
 1973 0018 00000000 		.word	0
 1974              		.section	.rodata.str1.4,"aMS",%progbits,1
 1975              		.align	2
 1976              	.LC7:
 1977 0000 436F6E64 		.ascii	"CondVar, boost test\000"
 1977      5661722C 
 1977      20626F6F 
 1977      73742074 
 1977      65737400 
 1978              	.LC8:
 1979 0014 436F6E64 		.ascii	"CondVar, broadcast test\000"
 1979      5661722C 
 1979      2062726F 
 1979      61646361 
 1979      73742074 
 1980              	.LC9:
 1981 002c 436F6E64 		.ascii	"CondVar, signal test\000"
 1981      5661722C 
 1981      20736967 
 1981      6E616C20 
 1981      74657374 
 1982 0041 000000   		.space	3
ARM GAS  /tmp/cchLbDiY.s 			page 36


 1983              	.LC10:
 1984 0044 4D757465 		.ascii	"Mutexes, status\000"
 1984      7865732C 
 1984      20737461 
 1984      74757300 
 1985              	.LC11:
 1986 0054 4D757465 		.ascii	"Mutexes, priority return\000"
 1986      7865732C 
 1986      20707269 
 1986      6F726974 
 1986      79207265 
 1987 006d 000000   		.space	3
 1988              	.LC12:
 1989 0070 4D757465 		.ascii	"Mutexes, priority enqueuing test\000"
 1989      7865732C 
 1989      20707269 
 1989      6F726974 
 1989      7920656E 
 1990              		.section	.rodata.testmtx1,"a",%progbits
 1991              		.align	2
 1992              		.type	testmtx1, %object
 1993              		.size	testmtx1, 16
 1994              	testmtx1:
 1995 0000 70000000 		.word	.LC12
 1996 0004 00000000 		.word	mtx1_setup
 1997 0008 00000000 		.word	0
 1998 000c 00000000 		.word	mtx1_execute
 1999              		.section	.rodata.testmtx4,"a",%progbits
 2000              		.align	2
 2001              		.type	testmtx4, %object
 2002              		.size	testmtx4, 16
 2003              	testmtx4:
 2004 0000 54000000 		.word	.LC11
 2005 0004 00000000 		.word	mtx4_setup
 2006 0008 00000000 		.word	0
 2007 000c 00000000 		.word	mtx4_execute
 2008              		.section	.rodata.testmtx5,"a",%progbits
 2009              		.align	2
 2010              		.type	testmtx5, %object
 2011              		.size	testmtx5, 16
 2012              	testmtx5:
 2013 0000 44000000 		.word	.LC10
 2014 0004 00000000 		.word	mtx5_setup
 2015 0008 00000000 		.word	0
 2016 000c 00000000 		.word	mtx5_execute
 2017              		.section	.rodata.testmtx6,"a",%progbits
 2018              		.align	2
 2019              		.type	testmtx6, %object
 2020              		.size	testmtx6, 16
 2021              	testmtx6:
 2022 0000 2C000000 		.word	.LC9
 2023 0004 00000000 		.word	mtx6_setup
 2024 0008 00000000 		.word	0
 2025 000c 00000000 		.word	mtx6_execute
 2026              		.section	.rodata.testmtx7,"a",%progbits
 2027              		.align	2
 2028              		.type	testmtx7, %object
ARM GAS  /tmp/cchLbDiY.s 			page 37


 2029              		.size	testmtx7, 16
 2030              	testmtx7:
 2031 0000 14000000 		.word	.LC8
 2032 0004 00000000 		.word	mtx7_setup
 2033 0008 00000000 		.word	0
 2034 000c 00000000 		.word	mtx7_execute
 2035              		.section	.rodata.testmtx8,"a",%progbits
 2036              		.align	2
 2037              		.type	testmtx8, %object
 2038              		.size	testmtx8, 16
 2039              	testmtx8:
 2040 0000 00000000 		.word	.LC7
 2041 0004 00000000 		.word	mtx8_setup
 2042 0008 00000000 		.word	0
 2043 000c 00000000 		.word	mtx8_execute
 2044              		.text
 2045              	.Letext0:
 2046              		.file 5 "/usr/lib/gcc/arm-none-eabi/6.2.1/include/stddef.h"
 2047              		.file 6 "/usr/arm-none-eabi/include/machine/_default_types.h"
 2048              		.file 7 "/usr/arm-none-eabi/include/sys/_stdint.h"
 2049              		.file 8 "/home/selim/working/ChibiOS/os/rt/ports/ARMCMx/compilers/GCC/chtypes.h"
 2050              		.file 9 "/home/selim/working/ChibiOS/os/rt/include/chsystypes.h"
 2051              		.file 10 "/home/selim/working/ChibiOS/os/ext/CMSIS/include/core_cm4.h"
 2052              		.file 11 "/home/selim/working/ChibiOS/os/ext/CMSIS/ST/system_stm32f4xx.h"
 2053              		.file 12 "/home/selim/working/ChibiOS/os/rt/ports/ARMCMx/chcore.h"
 2054              		.file 13 "/home/selim/working/ChibiOS/os/rt/ports/ARMCMx/chcore_v7m.h"
 2055              		.file 14 "/home/selim/working/ChibiOS/os/rt/include/chtm.h"
 2056              		.file 15 "/home/selim/working/ChibiOS/os/rt/include/chsem.h"
 2057              		.file 16 "/home/selim/working/ChibiOS/os/rt/include/chmtx.h"
 2058              		.file 17 "/home/selim/working/ChibiOS/os/rt/include/chregistry.h"
 2059              		.file 18 "/home/selim/working/ChibiOS/os/rt/include/chcond.h"
 2060              		.file 19 "/home/selim/working/ChibiOS/test/rt/test.h"
 2061              		.file 20 "/home/selim/working/ChibiOS/os/rt/include/chsys.h"