ARM GAS  /tmp/ccQpfGYP.s 			page 1


   1              		.cpu cortex-m4
   2              		.eabi_attribute 20, 1
   3              		.eabi_attribute 21, 1
   4              		.eabi_attribute 23, 3
   5              		.eabi_attribute 24, 1
   6              		.eabi_attribute 25, 1
   7              		.eabi_attribute 26, 1
   8              		.eabi_attribute 30, 2
   9              		.eabi_attribute 34, 1
  10              		.eabi_attribute 18, 4
  11              		.file	"testqueues.c"
  12              		.text
  13              	.Ltext0:
  14              		.cfi_sections	.debug_frame
  15              		.section	.text.notify,"ax",%progbits
  16              		.align	1
  17              		.p2align 4,,15
  18              		.syntax unified
  19              		.thumb
  20              		.thumb_func
  21              		.fpu softvfp
  22              		.type	notify, %function
  23              	notify:
  24              	.LFB227:
  25              		.file 1 "/home/selim/working/ChibiOS/test/rt/testqueues.c"
  26              		.loc 1 57 0
  27              		.cfi_startproc
  28              		@ args = 0, pretend = 0, frame = 0
  29              		@ frame_needed = 0, uses_anonymous_args = 0
  30              		@ link register save eliminated.
  31              	.LVL0:
  32 0000 7047     		bx	lr
  33              		.cfi_endproc
  34              	.LFE227:
  35              		.size	notify, .-notify
  36 0002 00BF     		.section	.text.thread1,"ax",%progbits
  37              		.align	1
  38              		.p2align 4,,15
  39              		.syntax unified
  40              		.thumb
  41              		.thumb_func
  42              		.fpu softvfp
  43              		.type	thread1, %function
  44              	thread1:
  45              	.LFB229:
  46              		.loc 1 83 0
  47              		.cfi_startproc
  48              		@ args = 0, pretend = 0, frame = 0
  49              		@ frame_needed = 0, uses_anonymous_args = 0
  50              		@ link register save eliminated.
  51              	.LVL1:
  52              		.loc 1 86 0
  53 0000 4FF4FA61 		mov	r1, #2000
  54 0004 0148     		ldr	r0, .L3
  55              	.LVL2:
  56 0006 FFF7FEBF 		b	chIQGetTimeout
  57              	.LVL3:
ARM GAS  /tmp/ccQpfGYP.s 			page 2


  58              	.L4:
  59 000a 00BF     		.align	2
  60              	.L3:
  61 000c 00000000 		.word	.LANCHOR0
  62              		.cfi_endproc
  63              	.LFE229:
  64              		.size	thread1, .-thread1
  65              		.section	.text.queues1_setup,"ax",%progbits
  66              		.align	1
  67              		.p2align 4,,15
  68              		.syntax unified
  69              		.thumb
  70              		.thumb_func
  71              		.fpu softvfp
  72              		.type	queues1_setup, %function
  73              	queues1_setup:
  74              	.LFB228:
  75              		.loc 1 78 0
  76              		.cfi_startproc
  77              		@ args = 0, pretend = 0, frame = 0
  78              		@ frame_needed = 0, uses_anonymous_args = 0
  79 0000 00B5     		push	{lr}
  80              		.cfi_def_cfa_offset 4
  81              		.cfi_offset 14, -4
  82              		.loc 1 80 0
  83 0002 064A     		ldr	r2, .L7
  84 0004 064B     		ldr	r3, .L7+4
  85 0006 1168     		ldr	r1, [r2]
  86 0008 0648     		ldr	r0, .L7+8
  87              		.loc 1 78 0
  88 000a 83B0     		sub	sp, sp, #12
  89              		.cfi_def_cfa_offset 16
  90              		.loc 1 80 0
  91 000c 0022     		movs	r2, #0
  92 000e 0092     		str	r2, [sp]
  93 0010 0422     		movs	r2, #4
  94 0012 FFF7FEFF 		bl	chIQObjectInit
  95              	.LVL4:
  96              		.loc 1 81 0
  97 0016 03B0     		add	sp, sp, #12
  98              		.cfi_def_cfa_offset 4
  99              		@ sp needed
 100 0018 5DF804FB 		ldr	pc, [sp], #4
 101              	.L8:
 102              		.align	2
 103              	.L7:
 104 001c 00000000 		.word	wa
 105 0020 00000000 		.word	notify
 106 0024 00000000 		.word	.LANCHOR0
 107              		.cfi_endproc
 108              	.LFE228:
 109              		.size	queues1_setup, .-queues1_setup
 110              		.section	.text.thread2,"ax",%progbits
 111              		.align	1
 112              		.p2align 4,,15
 113              		.syntax unified
 114              		.thumb
ARM GAS  /tmp/ccQpfGYP.s 			page 3


 115              		.thumb_func
 116              		.fpu softvfp
 117              		.type	thread2, %function
 118              	thread2:
 119              	.LFB232:
 120              		.loc 1 169 0
 121              		.cfi_startproc
 122              		@ args = 0, pretend = 0, frame = 0
 123              		@ frame_needed = 0, uses_anonymous_args = 0
 124              		@ link register save eliminated.
 125              	.LVL5:
 126              		.loc 1 172 0
 127 0000 4FF4FA62 		mov	r2, #2000
 128 0004 0021     		movs	r1, #0
 129 0006 0148     		ldr	r0, .L10
 130              	.LVL6:
 131 0008 FFF7FEBF 		b	chOQPutTimeout
 132              	.LVL7:
 133              	.L11:
 134              		.align	2
 135              	.L10:
 136 000c 00000000 		.word	.LANCHOR1
 137              		.cfi_endproc
 138              	.LFE232:
 139              		.size	thread2, .-thread2
 140              		.section	.text.queues2_setup,"ax",%progbits
 141              		.align	1
 142              		.p2align 4,,15
 143              		.syntax unified
 144              		.thumb
 145              		.thumb_func
 146              		.fpu softvfp
 147              		.type	queues2_setup, %function
 148              	queues2_setup:
 149              	.LFB231:
 150              		.loc 1 164 0
 151              		.cfi_startproc
 152              		@ args = 0, pretend = 0, frame = 0
 153              		@ frame_needed = 0, uses_anonymous_args = 0
 154 0000 00B5     		push	{lr}
 155              		.cfi_def_cfa_offset 4
 156              		.cfi_offset 14, -4
 157              		.loc 1 166 0
 158 0002 064A     		ldr	r2, .L14
 159 0004 064B     		ldr	r3, .L14+4
 160 0006 1168     		ldr	r1, [r2]
 161 0008 0648     		ldr	r0, .L14+8
 162              		.loc 1 164 0
 163 000a 83B0     		sub	sp, sp, #12
 164              		.cfi_def_cfa_offset 16
 165              		.loc 1 166 0
 166 000c 0022     		movs	r2, #0
 167 000e 0092     		str	r2, [sp]
 168 0010 0422     		movs	r2, #4
 169 0012 FFF7FEFF 		bl	chOQObjectInit
 170              	.LVL8:
 171              		.loc 1 167 0
ARM GAS  /tmp/ccQpfGYP.s 			page 4


 172 0016 03B0     		add	sp, sp, #12
 173              		.cfi_def_cfa_offset 4
 174              		@ sp needed
 175 0018 5DF804FB 		ldr	pc, [sp], #4
 176              	.L15:
 177              		.align	2
 178              	.L14:
 179 001c 00000000 		.word	wa
 180 0020 00000000 		.word	notify
 181 0024 00000000 		.word	.LANCHOR1
 182              		.cfi_endproc
 183              	.LFE231:
 184              		.size	queues2_setup, .-queues2_setup
 185              		.section	.text.queues1_execute,"ax",%progbits
 186              		.align	1
 187              		.p2align 4,,15
 188              		.syntax unified
 189              		.thumb
 190              		.thumb_func
 191              		.fpu softvfp
 192              		.type	queues1_execute, %function
 193              	queues1_execute:
 194              	.LFB230:
 195              		.loc 1 89 0
 196              		.cfi_startproc
 197              		@ args = 0, pretend = 0, frame = 0
 198              		@ frame_needed = 0, uses_anonymous_args = 0
 199              	.LVL9:
 200 0000 2DE9F041 		push	{r4, r5, r6, r7, r8, lr}
 201              		.cfi_def_cfa_offset 24
 202              		.cfi_offset 4, -24
 203              		.cfi_offset 5, -20
 204              		.cfi_offset 6, -16
 205              		.cfi_offset 7, -12
 206              		.cfi_offset 8, -8
 207              		.cfi_offset 14, -4
 208              	.LBB882:
 209              	.LBB883:
 210              	.LBB884:
 211              	.LBB885:
 212              		.file 2 "/home/selim/working/ChibiOS/os/ext/CMSIS/include/core_cmFunc.h"
 213              		.loc 2 546 0
 214 0004 2024     		movs	r4, #32
 215              	.LBE885:
 216              	.LBE884:
 217              	.LBE883:
 218              	.LBE882:
 219              		.loc 1 89 0
 220 0006 82B0     		sub	sp, sp, #8
 221              		.cfi_def_cfa_offset 32
 222              	.LBB889:
 223              	.LBB888:
 224              	.LBB887:
 225              	.LBB886:
 226              		.loc 2 546 0
 227              		.syntax unified
 228              	@ 546 "/home/selim/working/ChibiOS/os/ext/CMSIS/include/core_cmFunc.h" 1
ARM GAS  /tmp/ccQpfGYP.s 			page 5


 229 0008 84F31188 		MSR basepri, r4
 230              	@ 0 "" 2
 231              	.LVL10:
 232              		.thumb
 233              		.syntax unified
 234              	.LBE886:
 235              	.LBE887:
 236              	.LBE888:
 237              	.LBE889:
 238              	.LBB890:
 239              	.LBB891:
 240              		.file 3 "/home/selim/working/ChibiOS/os/rt/include/chqueues.h"
 241              		.loc 3 307 0
 242 000c 8F4D     		ldr	r5, .L45
 243 000e A968     		ldr	r1, [r5, #8]
 244              	.LBE891:
 245              	.LBE890:
 246              		.loc 1 94 0
 247 0010 B1FA81F1 		clz	r1, r1
 248 0014 4909     		lsrs	r1, r1, #5
 249 0016 0120     		movs	r0, #1
 250 0018 FFF7FEFF 		bl	_test_assert
 251              	.LVL11:
 252 001c F0B9     		cbnz	r0, .L39
 253 001e 0646     		mov	r6, r0
 254              	.LVL12:
 255              	.LBB892:
 256              	.LBB893:
 257              	.LBB894:
 258              	.LBB895:
 259              	.LBB896:
 260              		.loc 2 546 0
 261              		.syntax unified
 262              	@ 546 "/home/selim/working/ChibiOS/os/ext/CMSIS/include/core_cmFunc.h" 1
 263 0020 80F31188 		MSR basepri, r0
 264              	@ 0 "" 2
 265              	.LVL13:
 266              		.thumb
 267              		.syntax unified
 268              	.LBE896:
 269              	.LBE895:
 270              	.LBE894:
 271              	.LBE893:
 272              	.LBE892:
 273              	.LBB897:
 274              	.LBB898:
 275              	.LBB899:
 276              	.LBB900:
 277              		.syntax unified
 278              	@ 546 "/home/selim/working/ChibiOS/os/ext/CMSIS/include/core_cmFunc.h" 1
 279 0024 84F31188 		MSR basepri, r4
 280              	@ 0 "" 2
 281              	.LVL14:
 282              		.thumb
 283              		.syntax unified
 284 0028 4124     		movs	r4, #65
 285              	.LBE900:
ARM GAS  /tmp/ccQpfGYP.s 			page 6


 286              	.LBE899:
 287              	.LBE898:
 288              	.LBE897:
 289              		.loc 1 99 0
 290 002a 2F46     		mov	r7, r5
 291              	.LVL15:
 292              	.L19:
 293              		.loc 1 99 0 is_stmt 0 discriminator 3
 294 002c 2146     		mov	r1, r4
 295 002e 0134     		adds	r4, r4, #1
 296 0030 3846     		mov	r0, r7
 297 0032 E4B2     		uxtb	r4, r4
 298 0034 FFF7FEFF 		bl	chIQPutI
 299              	.LVL16:
 300              		.loc 1 98 0 is_stmt 1 discriminator 3
 301 0038 452C     		cmp	r4, #69
 302 003a F7D1     		bne	.L19
 303              	.LVL17:
 304              	.LBB901:
 305              	.LBB902:
 306              	.LBB903:
 307              	.LBB904:
 308              	.LBB905:
 309              		.loc 2 546 0
 310 003c 0023     		movs	r3, #0
 311              		.syntax unified
 312              	@ 546 "/home/selim/working/ChibiOS/os/ext/CMSIS/include/core_cmFunc.h" 1
 313 003e 83F31188 		MSR basepri, r3
 314              	@ 0 "" 2
 315              	.LVL18:
 316              		.thumb
 317              		.syntax unified
 318              	.LBE905:
 319              	.LBE904:
 320              	.LBE903:
 321              	.LBE902:
 322              	.LBE901:
 323              	.LBB906:
 324              	.LBB907:
 325              	.LBB908:
 326              	.LBB909:
 327 0042 2023     		movs	r3, #32
 328              		.syntax unified
 329              	@ 546 "/home/selim/working/ChibiOS/os/ext/CMSIS/include/core_cmFunc.h" 1
 330 0044 83F31188 		MSR basepri, r3
 331              	@ 0 "" 2
 332              	.LVL19:
 333              		.thumb
 334              		.syntax unified
 335              	.LBE909:
 336              	.LBE908:
 337              	.LBE907:
 338              	.LBE906:
 339              	.LBB910:
 340              	.LBB911:
 341              		.loc 3 324 0
 342 0048 AA69     		ldr	r2, [r5, #24]
ARM GAS  /tmp/ccQpfGYP.s 			page 7


 343 004a 6B69     		ldr	r3, [r5, #20]
 344 004c 9A42     		cmp	r2, r3
 345 004e 3AD0     		beq	.L42
 346              	.L20:
 347              	.LVL20:
 348              	.LBE911:
 349              	.LBE910:
 350              		.loc 1 101 0
 351 0050 3146     		mov	r1, r6
 352 0052 0220     		movs	r0, #2
 353 0054 FFF7FEFF 		bl	_test_assert
 354              	.LVL21:
 355 0058 0446     		mov	r4, r0
 356 005a 28B1     		cbz	r0, .L21
 357              	.L39:
 358              	.LVL22:
 359              	.LBB913:
 360              	.LBB914:
 361              	.LBB915:
 362              	.LBB916:
 363              	.LBB917:
 364              		.loc 2 546 0
 365 005c 0023     		movs	r3, #0
 366              		.syntax unified
 367              	@ 546 "/home/selim/working/ChibiOS/os/ext/CMSIS/include/core_cmFunc.h" 1
 368 005e 83F31188 		MSR basepri, r3
 369              	@ 0 "" 2
 370              	.LVL23:
 371              		.thumb
 372              		.syntax unified
 373              	.L16:
 374              	.LBE917:
 375              	.LBE916:
 376              	.LBE915:
 377              	.LBE914:
 378              	.LBE913:
 379              		.loc 1 146 0
 380 0062 02B0     		add	sp, sp, #8
 381              		.cfi_remember_state
 382              		.cfi_def_cfa_offset 24
 383              		@ sp needed
 384 0064 BDE8F081 		pop	{r4, r5, r6, r7, r8, pc}
 385              	.L21:
 386              		.cfi_restore_state
 387              	.LVL24:
 388              	.LBB918:
 389              	.LBB919:
 390              	.LBB920:
 391              	.LBB921:
 392              	.LBB922:
 393              	.LBB923:
 394              	.LBB924:
 395              		.loc 2 546 0
 396              		.syntax unified
 397              	@ 546 "/home/selim/working/ChibiOS/os/ext/CMSIS/include/core_cmFunc.h" 1
 398 0068 80F31188 		MSR basepri, r0
 399              	@ 0 "" 2
ARM GAS  /tmp/ccQpfGYP.s 			page 8


 400              	.LVL25:
 401              		.thumb
 402              		.syntax unified
 403              	.LBE924:
 404              	.LBE923:
 405              	.LBE922:
 406              	.LBE921:
 407              	.LBE920:
 408              	.LBB925:
 409              	.LBB926:
 410              	.LBB927:
 411              	.LBB928:
 412 006c 2023     		movs	r3, #32
 413              		.syntax unified
 414              	@ 546 "/home/selim/working/ChibiOS/os/ext/CMSIS/include/core_cmFunc.h" 1
 415 006e 83F31188 		MSR basepri, r3
 416              	@ 0 "" 2
 417              	.LVL26:
 418              		.thumb
 419              		.syntax unified
 420              	.LBE928:
 421              	.LBE927:
 422              	.LBE926:
 423              	.LBE925:
 424              		.loc 1 102 0
 425 0072 7648     		ldr	r0, .L45
 426 0074 2146     		mov	r1, r4
 427 0076 FFF7FEFF 		bl	chIQPutI
 428              	.LVL27:
 429 007a 0430     		adds	r0, r0, #4
 430 007c 14BF     		ite	ne
 431 007e 0021     		movne	r1, #0
 432 0080 0121     		moveq	r1, #1
 433 0082 0320     		movs	r0, #3
 434 0084 FFF7FEFF 		bl	_test_assert
 435              	.LVL28:
 436 0088 C0B9     		cbnz	r0, .L40
 437              	.LVL29:
 438              	.LBB929:
 439              	.LBB930:
 440              	.LBB931:
 441              	.LBB932:
 442              	.LBB933:
 443              		.loc 2 546 0
 444              		.syntax unified
 445              	@ 546 "/home/selim/working/ChibiOS/os/ext/CMSIS/include/core_cmFunc.h" 1
 446 008a 80F31188 		MSR basepri, r0
 447              	@ 0 "" 2
 448              	.LVL30:
 449              		.thumb
 450              		.syntax unified
 451              	.LBE933:
 452              	.LBE932:
 453              	.LBE931:
 454              	.LBE930:
 455              	.LBE929:
 456              	.LBB938:
ARM GAS  /tmp/ccQpfGYP.s 			page 9


 457              	.LBB939:
 458              		.loc 3 341 0
 459 008e 6F4E     		ldr	r6, .L45
 460              	.LBE939:
 461              	.LBE938:
 462              	.LBB941:
 463              	.LBB937:
 464              	.LBB936:
 465              	.LBB935:
 466              	.LBB934:
 467              		.loc 2 546 0
 468 0090 0424     		movs	r4, #4
 469              	.LVL31:
 470              	.L23:
 471              	.LBE934:
 472              	.LBE935:
 473              	.LBE936:
 474              	.LBE937:
 475              	.LBE941:
 476              	.LBB942:
 477              	.LBB940:
 478              		.loc 3 341 0
 479 0092 4FF0FF31 		mov	r1, #-1
 480 0096 3046     		mov	r0, r6
 481 0098 FFF7FEFF 		bl	chIQGetTimeout
 482              	.LVL32:
 483              	.LBE940:
 484              	.LBE942:
 485              		.loc 1 106 0
 486 009c C0B2     		uxtb	r0, r0
 487 009e FFF7FEFF 		bl	test_emit_token
 488              	.LVL33:
 489              		.loc 1 105 0
 490 00a2 013C     		subs	r4, r4, #1
 491              	.LVL34:
 492 00a4 F5D1     		bne	.L23
 493              	.LVL35:
 494              	.LBB943:
 495              	.LBB944:
 496              	.LBB945:
 497              	.LBB946:
 498              		.loc 2 546 0
 499 00a6 2026     		movs	r6, #32
 500              		.syntax unified
 501              	@ 546 "/home/selim/working/ChibiOS/os/ext/CMSIS/include/core_cmFunc.h" 1
 502 00a8 86F31188 		MSR basepri, r6
 503              	@ 0 "" 2
 504              	.LVL36:
 505              		.thumb
 506              		.syntax unified
 507              	.LBE946:
 508              	.LBE945:
 509              	.LBE944:
 510              	.LBE943:
 511              	.LBB947:
 512              	.LBB948:
 513              		.loc 3 307 0
ARM GAS  /tmp/ccQpfGYP.s 			page 10


 514 00ac A968     		ldr	r1, [r5, #8]
 515              	.LBE948:
 516              	.LBE947:
 517              		.loc 1 107 0
 518 00ae B1FA81F1 		clz	r1, r1
 519 00b2 4909     		lsrs	r1, r1, #5
 520 00b4 0420     		movs	r0, #4
 521 00b6 FFF7FEFF 		bl	_test_assert
 522              	.LVL37:
 523 00ba 48B1     		cbz	r0, .L43
 524              	.LVL38:
 525              	.L40:
 526              	.LBB949:
 527              	.LBB950:
 528              	.LBB951:
 529              	.LBB952:
 530              	.LBB953:
 531              		.loc 2 546 0
 532              		.syntax unified
 533              	@ 546 "/home/selim/working/ChibiOS/os/ext/CMSIS/include/core_cmFunc.h" 1
 534 00bc 84F31188 		MSR basepri, r4
 535              	@ 0 "" 2
 536              	.LVL39:
 537              		.thumb
 538              		.syntax unified
 539              	.LBE953:
 540              	.LBE952:
 541              	.LBE951:
 542              	.LBE950:
 543              	.LBE949:
 544              	.LBE919:
 545              	.LBE918:
 546              		.loc 1 146 0
 547 00c0 02B0     		add	sp, sp, #8
 548              		.cfi_remember_state
 549              		.cfi_def_cfa_offset 24
 550              		@ sp needed
 551 00c2 BDE8F081 		pop	{r4, r5, r6, r7, r8, pc}
 552              	.LVL40:
 553              	.L42:
 554              		.cfi_restore_state
 555              	.LBB1047:
 556              	.LBB912:
 557              		.loc 3 324 0
 558 00c6 AE68     		ldr	r6, [r5, #8]
 559 00c8 0036     		adds	r6, r6, #0
 560 00ca 18BF     		it	ne
 561 00cc 0126     		movne	r6, #1
 562 00ce BFE7     		b	.L20
 563              	.LVL41:
 564              	.L43:
 565              	.LBE912:
 566              	.LBE1047:
 567              	.LBB1048:
 568              	.LBB1045:
 569              	.LBB954:
 570              	.LBB955:
ARM GAS  /tmp/ccQpfGYP.s 			page 11


 571              	.LBB956:
 572              	.LBB957:
 573              	.LBB958:
 574              		.loc 2 546 0
 575              		.syntax unified
 576              	@ 546 "/home/selim/working/ChibiOS/os/ext/CMSIS/include/core_cmFunc.h" 1
 577 00d0 84F31188 		MSR basepri, r4
 578              	@ 0 "" 2
 579              	.LVL42:
 580              		.thumb
 581              		.syntax unified
 582              	.LBE958:
 583              	.LBE957:
 584              	.LBE956:
 585              	.LBE955:
 586              	.LBE954:
 587              		.loc 1 108 0
 588 00d4 5E49     		ldr	r1, .L45+4
 589 00d6 0520     		movs	r0, #5
 590 00d8 FFF7FEFF 		bl	_test_assert_sequence
 591              	.LVL43:
 592 00dc 0028     		cmp	r0, #0
 593 00de C0D1     		bne	.L16
 594              	.LVL44:
 595              	.LBB959:
 596              	.LBB960:
 597              	.LBB961:
 598              	.LBB962:
 599              		.loc 2 546 0
 600              		.syntax unified
 601              	@ 546 "/home/selim/working/ChibiOS/os/ext/CMSIS/include/core_cmFunc.h" 1
 602 00e0 86F31188 		MSR basepri, r6
 603              	@ 0 "" 2
 604              	.LVL45:
 605              		.thumb
 606              		.syntax unified
 607              	.LBE962:
 608              	.LBE961:
 609              	.LBE960:
 610              	.LBE959:
 611              		.loc 1 113 0
 612 00e4 594E     		ldr	r6, .L45
 613              	.LBB966:
 614              	.LBB965:
 615              	.LBB964:
 616              	.LBB963:
 617              		.loc 2 546 0
 618 00e6 4124     		movs	r4, #65
 619              	.LVL46:
 620              	.L26:
 621              	.LBE963:
 622              	.LBE964:
 623              	.LBE965:
 624              	.LBE966:
 625              		.loc 1 113 0
 626 00e8 2146     		mov	r1, r4
 627 00ea 0134     		adds	r4, r4, #1
ARM GAS  /tmp/ccQpfGYP.s 			page 12


 628 00ec 3046     		mov	r0, r6
 629 00ee E4B2     		uxtb	r4, r4
 630 00f0 FFF7FEFF 		bl	chIQPutI
 631              	.LVL47:
 632              		.loc 1 112 0
 633 00f4 452C     		cmp	r4, #69
 634 00f6 F7D1     		bne	.L26
 635              	.LVL48:
 636              	.LBB967:
 637              	.LBB968:
 638              	.LBB969:
 639              	.LBB970:
 640              	.LBB971:
 641              		.loc 2 546 0
 642 00f8 0023     		movs	r3, #0
 643              		.syntax unified
 644              	@ 546 "/home/selim/working/ChibiOS/os/ext/CMSIS/include/core_cmFunc.h" 1
 645 00fa 83F31188 		MSR basepri, r3
 646              	@ 0 "" 2
 647              	.LVL49:
 648              		.thumb
 649              		.syntax unified
 650              	.LBE971:
 651              	.LBE970:
 652              	.LBE969:
 653              	.LBE968:
 654              	.LBE967:
 655              		.loc 1 117 0
 656 00fe 554E     		ldr	r6, .L45+8
 657 0100 5248     		ldr	r0, .L45
 658 0102 7168     		ldr	r1, [r6, #4]
 659 0104 0822     		movs	r2, #8
 660 0106 FFF7FEFF 		bl	chIQReadTimeout
 661              	.LVL50:
 662              		.loc 1 118 0
 663 010a A0F10401 		sub	r1, r0, #4
 664 010e B1FA81F1 		clz	r1, r1
 665 0112 4909     		lsrs	r1, r1, #5
 666 0114 0620     		movs	r0, #6
 667              	.LVL51:
 668 0116 FFF7FEFF 		bl	_test_assert
 669              	.LVL52:
 670 011a 0446     		mov	r4, r0
 671 011c 0028     		cmp	r0, #0
 672 011e A0D1     		bne	.L16
 673              	.LVL53:
 674              	.LBB972:
 675              	.LBB973:
 676              	.LBB974:
 677              	.LBB975:
 678              		.loc 2 546 0
 679 0120 2027     		movs	r7, #32
 680              		.syntax unified
 681              	@ 546 "/home/selim/working/ChibiOS/os/ext/CMSIS/include/core_cmFunc.h" 1
 682 0122 87F31188 		MSR basepri, r7
 683              	@ 0 "" 2
 684              	.LVL54:
ARM GAS  /tmp/ccQpfGYP.s 			page 13


 685              		.thumb
 686              		.syntax unified
 687              	.LBE975:
 688              	.LBE974:
 689              	.LBE973:
 690              	.LBE972:
 691              	.LBB976:
 692              	.LBB977:
 693              		.loc 3 307 0
 694 0126 A968     		ldr	r1, [r5, #8]
 695              	.LBE977:
 696              	.LBE976:
 697              		.loc 1 119 0
 698 0128 B1FA81F1 		clz	r1, r1
 699 012c 4909     		lsrs	r1, r1, #5
 700 012e 0720     		movs	r0, #7
 701 0130 FFF7FEFF 		bl	_test_assert
 702              	.LVL55:
 703 0134 0028     		cmp	r0, #0
 704 0136 C1D1     		bne	.L40
 705              	.LVL56:
 706              	.LBB978:
 707              	.LBB979:
 708              	.LBB980:
 709              	.LBB981:
 710              	.LBB982:
 711              		.loc 2 546 0
 712              		.syntax unified
 713              	@ 546 "/home/selim/working/ChibiOS/os/ext/CMSIS/include/core_cmFunc.h" 1
 714 0138 80F31188 		MSR basepri, r0
 715              	@ 0 "" 2
 716              	.LVL57:
 717              		.thumb
 718              		.syntax unified
 719              	.LBE982:
 720              	.LBE981:
 721              	.LBE980:
 722              	.LBE979:
 723              	.LBE978:
 724              	.LBB983:
 725              	.LBB984:
 726              	.LBB985:
 727              	.LBB986:
 728              		.syntax unified
 729              	@ 546 "/home/selim/working/ChibiOS/os/ext/CMSIS/include/core_cmFunc.h" 1
 730 013c 87F31188 		MSR basepri, r7
 731              	@ 0 "" 2
 732              	.LVL58:
 733              		.thumb
 734              		.syntax unified
 735              	.LBE986:
 736              	.LBE985:
 737              	.LBE984:
 738              	.LBE983:
 739              		.loc 1 124 0
 740 0140 424F     		ldr	r7, .L45
 741              	.LBB990:
ARM GAS  /tmp/ccQpfGYP.s 			page 14


 742              	.LBB989:
 743              	.LBB988:
 744              	.LBB987:
 745              		.loc 2 546 0
 746 0142 4124     		movs	r4, #65
 747              	.LVL59:
 748              	.L29:
 749              	.LBE987:
 750              	.LBE988:
 751              	.LBE989:
 752              	.LBE990:
 753              		.loc 1 124 0
 754 0144 2146     		mov	r1, r4
 755 0146 0134     		adds	r4, r4, #1
 756 0148 3846     		mov	r0, r7
 757 014a E4B2     		uxtb	r4, r4
 758 014c FFF7FEFF 		bl	chIQPutI
 759              	.LVL60:
 760              		.loc 1 123 0
 761 0150 452C     		cmp	r4, #69
 762 0152 F7D1     		bne	.L29
 763              	.LVL61:
 764              	.LBB991:
 765              	.LBB992:
 766              	.LBB993:
 767              	.LBB994:
 768              	.LBB995:
 769              		.loc 2 546 0
 770 0154 0023     		movs	r3, #0
 771              		.syntax unified
 772              	@ 546 "/home/selim/working/ChibiOS/os/ext/CMSIS/include/core_cmFunc.h" 1
 773 0156 83F31188 		MSR basepri, r3
 774              	@ 0 "" 2
 775              	.LVL62:
 776              		.thumb
 777              		.syntax unified
 778              	.LBE995:
 779              	.LBE994:
 780              	.LBE993:
 781              	.LBE992:
 782              	.LBE991:
 783              		.loc 1 128 0
 784 015a 7468     		ldr	r4, [r6, #4]
 785 015c 3B48     		ldr	r0, .L45
 786 015e 2146     		mov	r1, r4
 787 0160 0222     		movs	r2, #2
 788 0162 FFF7FEFF 		bl	chIQReadTimeout
 789              	.LVL63:
 790              		.loc 1 129 0
 791 0166 A0F10201 		sub	r1, r0, #2
 792 016a B1FA81F1 		clz	r1, r1
 793 016e 4909     		lsrs	r1, r1, #5
 794 0170 0820     		movs	r0, #8
 795              	.LVL64:
 796 0172 FFF7FEFF 		bl	_test_assert
 797              	.LVL65:
 798 0176 0028     		cmp	r0, #0
ARM GAS  /tmp/ccQpfGYP.s 			page 15


 799 0178 7FF473AF 		bne	.L16
 800              		.loc 1 130 0
 801 017c 0346     		mov	r3, r0
 802 017e 2146     		mov	r1, r4
 803 0180 0222     		movs	r2, #2
 804 0182 3248     		ldr	r0, .L45
 805 0184 FFF7FEFF 		bl	chIQReadTimeout
 806              	.LVL66:
 807              		.loc 1 131 0
 808 0188 A0F10201 		sub	r1, r0, #2
 809 018c B1FA81F1 		clz	r1, r1
 810 0190 4909     		lsrs	r1, r1, #5
 811 0192 0920     		movs	r0, #9
 812              	.LVL67:
 813 0194 FFF7FEFF 		bl	_test_assert
 814              	.LVL68:
 815 0198 0746     		mov	r7, r0
 816 019a 0028     		cmp	r0, #0
 817 019c 7FF461AF 		bne	.L16
 818              	.LVL69:
 819              	.LBB996:
 820              	.LBB997:
 821              	.LBB998:
 822              	.LBB999:
 823              		.loc 2 546 0
 824 01a0 4FF02008 		mov	r8, #32
 825              		.syntax unified
 826              	@ 546 "/home/selim/working/ChibiOS/os/ext/CMSIS/include/core_cmFunc.h" 1
 827 01a4 88F31188 		MSR basepri, r8
 828              	@ 0 "" 2
 829              	.LVL70:
 830              		.thumb
 831              		.syntax unified
 832              	.LBE999:
 833              	.LBE998:
 834              	.LBE997:
 835              	.LBE996:
 836              	.LBB1000:
 837              	.LBB1001:
 838              		.loc 3 307 0
 839 01a8 A968     		ldr	r1, [r5, #8]
 840              	.LBE1001:
 841              	.LBE1000:
 842              		.loc 1 132 0
 843 01aa B1FA81F1 		clz	r1, r1
 844 01ae 4909     		lsrs	r1, r1, #5
 845 01b0 0A20     		movs	r0, #10
 846 01b2 FFF7FEFF 		bl	_test_assert
 847              	.LVL71:
 848 01b6 0446     		mov	r4, r0
 849 01b8 10B1     		cbz	r0, .L44
 850              	.L38:
 851              	.LVL72:
 852              	.LBB1002:
 853              	.LBB1003:
 854              	.LBB1004:
 855              	.LBB1005:
ARM GAS  /tmp/ccQpfGYP.s 			page 16


 856              	.LBB1006:
 857              		.loc 2 546 0
 858              		.syntax unified
 859              	@ 546 "/home/selim/working/ChibiOS/os/ext/CMSIS/include/core_cmFunc.h" 1
 860 01ba 87F31188 		MSR basepri, r7
 861              	@ 0 "" 2
 862              	.LVL73:
 863              		.thumb
 864              		.syntax unified
 865 01be 50E7     		b	.L16
 866              	.L44:
 867              	.LVL74:
 868              	.LBE1006:
 869              	.LBE1005:
 870              	.LBE1004:
 871              	.LBE1003:
 872              	.LBE1002:
 873              	.LBB1007:
 874              	.LBB1008:
 875              	.LBB1009:
 876              	.LBB1010:
 877              	.LBB1011:
 878              		.syntax unified
 879              	@ 546 "/home/selim/working/ChibiOS/os/ext/CMSIS/include/core_cmFunc.h" 1
 880 01c0 80F31188 		MSR basepri, r0
 881              	@ 0 "" 2
 882              	.LVL75:
 883              		.thumb
 884              		.syntax unified
 885              	.LBE1011:
 886              	.LBE1010:
 887              	.LBE1009:
 888              	.LBE1008:
 889              	.LBE1007:
 890              	.LBB1012:
 891              	.LBB1013:
 892              	.LBB1014:
 893              	.LBB1015:
 894              		.syntax unified
 895              	@ 546 "/home/selim/working/ChibiOS/os/ext/CMSIS/include/core_cmFunc.h" 1
 896 01c4 88F31188 		MSR basepri, r8
 897              	@ 0 "" 2
 898              	.LVL76:
 899              		.thumb
 900              		.syntax unified
 901              	.LBE1015:
 902              	.LBE1014:
 903              	.LBE1013:
 904              	.LBE1012:
 905              		.loc 1 136 0
 906 01c8 2048     		ldr	r0, .L45
 907 01ca 2146     		mov	r1, r4
 908 01cc FFF7FEFF 		bl	chIQPutI
 909              	.LVL77:
 910              		.loc 1 137 0
 911 01d0 1E48     		ldr	r0, .L45
 912 01d2 FFF7FEFF 		bl	chIQResetI
ARM GAS  /tmp/ccQpfGYP.s 			page 17


 913              	.LVL78:
 914              	.LBB1016:
 915              	.LBB1017:
 916              	.LBB1018:
 917              	.LBB1019:
 918              	.LBB1020:
 919              		.loc 2 546 0
 920              		.syntax unified
 921              	@ 546 "/home/selim/working/ChibiOS/os/ext/CMSIS/include/core_cmFunc.h" 1
 922 01d6 84F31188 		MSR basepri, r4
 923              	@ 0 "" 2
 924              	.LVL79:
 925              		.thumb
 926              		.syntax unified
 927              	.LBE1020:
 928              	.LBE1019:
 929              	.LBE1018:
 930              	.LBE1017:
 931              	.LBE1016:
 932              	.LBB1021:
 933              	.LBB1022:
 934              	.LBB1023:
 935              	.LBB1024:
 936              		.syntax unified
 937              	@ 546 "/home/selim/working/ChibiOS/os/ext/CMSIS/include/core_cmFunc.h" 1
 938 01da 88F31188 		MSR basepri, r8
 939              	@ 0 "" 2
 940              	.LVL80:
 941              		.thumb
 942              		.syntax unified
 943              	.LBE1024:
 944              	.LBE1023:
 945              	.LBE1022:
 946              	.LBE1021:
 947              		.loc 1 139 0
 948 01de A968     		ldr	r1, [r5, #8]
 949 01e0 B1FA81F1 		clz	r1, r1
 950 01e4 4909     		lsrs	r1, r1, #5
 951 01e6 0B20     		movs	r0, #11
 952 01e8 FFF7FEFF 		bl	_test_assert
 953              	.LVL81:
 954 01ec 0746     		mov	r7, r0
 955 01ee 0028     		cmp	r0, #0
 956 01f0 7FF464AF 		bne	.L40
 957              	.LVL82:
 958              	.LBB1025:
 959              	.LBB1026:
 960              	.LBB1027:
 961              	.LBB1028:
 962              	.LBB1029:
 963              		.loc 2 546 0
 964              		.syntax unified
 965              	@ 546 "/home/selim/working/ChibiOS/os/ext/CMSIS/include/core_cmFunc.h" 1
 966 01f4 80F31188 		MSR basepri, r0
 967              	@ 0 "" 2
 968              	.LVL83:
 969              		.thumb
ARM GAS  /tmp/ccQpfGYP.s 			page 18


 970              		.syntax unified
 971              	.LBE1029:
 972              	.LBE1028:
 973              	.LBE1027:
 974              	.LBE1026:
 975              	.LBE1025:
 976              	.LBB1030:
 977              	.LBB1031:
 978              	.LBB1032:
 979              	.LBB1033:
 980              		.file 4 "/home/selim/working/ChibiOS/os/rt/include/chthreads.h"
 981              		.loc 4 176 0
 982 01f8 174B     		ldr	r3, .L45+12
 983              	.LBE1033:
 984              	.LBE1032:
 985              	.LBE1031:
 986              	.LBE1030:
 987              		.loc 1 140 0
 988 01fa 3068     		ldr	r0, [r6]
 989              	.LBB1035:
 990              	.LBB1034:
 991              		.loc 4 189 0
 992 01fc 9A69     		ldr	r2, [r3, #24]
 993              	.LBE1034:
 994              	.LBE1035:
 995              		.loc 1 140 0
 996 01fe 174B     		ldr	r3, .L45+16
 997 0200 9268     		ldr	r2, [r2, #8]
 998 0202 0097     		str	r7, [sp]
 999 0204 0132     		adds	r2, r2, #1
 1000 0206 4FF4A471 		mov	r1, #328
 1001 020a FFF7FEFF 		bl	chThdCreateStatic
 1002              	.LVL84:
 1003 020e 144B     		ldr	r3, .L45+20
 1004 0210 1860     		str	r0, [r3]
 1005              	.LVL85:
 1006              	.LBB1036:
 1007              	.LBB1037:
 1008              	.LBB1038:
 1009              	.LBB1039:
 1010              		.loc 2 546 0
 1011              		.syntax unified
 1012              	@ 546 "/home/selim/working/ChibiOS/os/ext/CMSIS/include/core_cmFunc.h" 1
 1013 0212 88F31188 		MSR basepri, r8
 1014              	@ 0 "" 2
 1015              	.LVL86:
 1016              		.thumb
 1017              		.syntax unified
 1018              	.LBE1039:
 1019              	.LBE1038:
 1020              	.LBE1037:
 1021              	.LBE1036:
 1022              		.loc 1 141 0
 1023 0216 A968     		ldr	r1, [r5, #8]
 1024 0218 B1FA81F1 		clz	r1, r1
 1025 021c 4909     		lsrs	r1, r1, #5
 1026 021e 0C20     		movs	r0, #12
ARM GAS  /tmp/ccQpfGYP.s 			page 19


 1027 0220 FFF7FEFF 		bl	_test_assert
 1028              	.LVL87:
 1029 0224 0028     		cmp	r0, #0
 1030 0226 C8D1     		bne	.L38
 1031              	.LVL88:
 1032              	.LBB1040:
 1033              	.LBB1041:
 1034              	.LBB1042:
 1035              	.LBB1043:
 1036              	.LBB1044:
 1037              		.loc 2 546 0
 1038              		.syntax unified
 1039              	@ 546 "/home/selim/working/ChibiOS/os/ext/CMSIS/include/core_cmFunc.h" 1
 1040 0228 80F31188 		MSR basepri, r0
 1041              	@ 0 "" 2
 1042              	.LVL89:
 1043              		.thumb
 1044              		.syntax unified
 1045              	.LBE1044:
 1046              	.LBE1043:
 1047              	.LBE1042:
 1048              	.LBE1041:
 1049              	.LBE1040:
 1050              		.loc 1 142 0
 1051 022c FFF7FEFF 		bl	test_wait_threads
 1052              	.LVL90:
 1053              		.loc 1 145 0
 1054 0230 0A21     		movs	r1, #10
 1055 0232 0648     		ldr	r0, .L45
 1056 0234 FFF7FEFF 		bl	chIQGetTimeout
 1057              	.LVL91:
 1058 0238 431C     		adds	r3, r0, #1
 1059 023a 5942     		rsbs	r1, r3, #0
 1060 023c 5941     		adcs	r1, r1, r3
 1061 023e 0D20     		movs	r0, #13
 1062              	.LBE1045:
 1063              	.LBE1048:
 1064              		.loc 1 146 0
 1065 0240 02B0     		add	sp, sp, #8
 1066              		.cfi_def_cfa_offset 24
 1067              		@ sp needed
 1068 0242 BDE8F041 		pop	{r4, r5, r6, r7, r8, lr}
 1069              		.cfi_restore 14
 1070              		.cfi_restore 8
 1071              		.cfi_restore 7
 1072              		.cfi_restore 6
 1073              		.cfi_restore 5
 1074              		.cfi_restore 4
 1075              		.cfi_def_cfa_offset 0
 1076              	.LBB1049:
 1077              	.LBB1046:
 1078              		.loc 1 145 0
 1079 0246 FFF7FEBF 		b	_test_assert
 1080              	.LVL92:
 1081              	.L46:
 1082 024a 00BF     		.align	2
 1083              	.L45:
ARM GAS  /tmp/ccQpfGYP.s 			page 20


 1084 024c 00000000 		.word	.LANCHOR0
 1085 0250 00000000 		.word	.LC0
 1086 0254 00000000 		.word	wa
 1087 0258 00000000 		.word	ch
 1088 025c 00000000 		.word	thread1
 1089 0260 00000000 		.word	threads
 1090              	.LBE1046:
 1091              	.LBE1049:
 1092              		.cfi_endproc
 1093              	.LFE230:
 1094              		.size	queues1_execute, .-queues1_execute
 1095              		.section	.text.queues2_execute,"ax",%progbits
 1096              		.align	1
 1097              		.p2align 4,,15
 1098              		.syntax unified
 1099              		.thumb
 1100              		.thumb_func
 1101              		.fpu softvfp
 1102              		.type	queues2_execute, %function
 1103              	queues2_execute:
 1104              	.LFB233:
 1105              		.loc 1 175 0
 1106              		.cfi_startproc
 1107              		@ args = 0, pretend = 0, frame = 0
 1108              		@ frame_needed = 0, uses_anonymous_args = 0
 1109              	.LVL93:
 1110 0000 2DE9F043 		push	{r4, r5, r6, r7, r8, r9, lr}
 1111              		.cfi_def_cfa_offset 28
 1112              		.cfi_offset 4, -28
 1113              		.cfi_offset 5, -24
 1114              		.cfi_offset 6, -20
 1115              		.cfi_offset 7, -16
 1116              		.cfi_offset 8, -12
 1117              		.cfi_offset 9, -8
 1118              		.cfi_offset 14, -4
 1119              	.LBB1232:
 1120              	.LBB1233:
 1121              	.LBB1234:
 1122              	.LBB1235:
 1123              		.loc 2 546 0
 1124 0004 2023     		movs	r3, #32
 1125              	.LBE1235:
 1126              	.LBE1234:
 1127              	.LBE1233:
 1128              	.LBE1232:
 1129              		.loc 1 175 0
 1130 0006 83B0     		sub	sp, sp, #12
 1131              		.cfi_def_cfa_offset 40
 1132              	.LBB1239:
 1133              	.LBB1238:
 1134              	.LBB1237:
 1135              	.LBB1236:
 1136              		.loc 2 546 0
 1137              		.syntax unified
 1138              	@ 546 "/home/selim/working/ChibiOS/os/ext/CMSIS/include/core_cmFunc.h" 1
 1139 0008 83F31188 		MSR basepri, r3
 1140              	@ 0 "" 2
ARM GAS  /tmp/ccQpfGYP.s 			page 21


 1141              	.LVL94:
 1142              		.thumb
 1143              		.syntax unified
 1144              	.LBE1236:
 1145              	.LBE1237:
 1146              	.LBE1238:
 1147              	.LBE1239:
 1148              	.LBB1240:
 1149              	.LBB1241:
 1150              		.loc 3 390 0
 1151 000c 844D     		ldr	r5, .L72
 1152 000e AA69     		ldr	r2, [r5, #24]
 1153 0010 6B69     		ldr	r3, [r5, #20]
 1154 0012 9A42     		cmp	r2, r3
 1155 0014 5CD0     		beq	.L69
 1156 0016 0021     		movs	r1, #0
 1157              	.L48:
 1158              	.LVL95:
 1159              	.LBE1241:
 1160              	.LBE1240:
 1161              		.loc 1 180 0
 1162 0018 0120     		movs	r0, #1
 1163 001a FFF7FEFF 		bl	_test_assert
 1164              	.LVL96:
 1165 001e B0BB     		cbnz	r0, .L68
 1166              	.LVL97:
 1167              	.LBB1243:
 1168              	.LBB1244:
 1169              	.LBB1245:
 1170              	.LBB1246:
 1171              	.LBB1247:
 1172              		.loc 2 546 0
 1173              		.syntax unified
 1174              	@ 546 "/home/selim/working/ChibiOS/os/ext/CMSIS/include/core_cmFunc.h" 1
 1175 0020 80F31188 		MSR basepri, r0
 1176              	@ 0 "" 2
 1177              	.LVL98:
 1178              		.thumb
 1179              		.syntax unified
 1180              	.LBE1247:
 1181              	.LBE1246:
 1182              	.LBE1245:
 1183              	.LBE1244:
 1184              	.LBE1243:
 1185              	.LBB1252:
 1186              	.LBB1253:
 1187              		.loc 3 426 0
 1188 0024 7E4E     		ldr	r6, .L72
 1189              	.LBE1253:
 1190              	.LBE1252:
 1191              	.LBB1255:
 1192              	.LBB1251:
 1193              	.LBB1250:
 1194              	.LBB1249:
 1195              	.LBB1248:
 1196              		.loc 2 546 0
 1197 0026 4124     		movs	r4, #65
ARM GAS  /tmp/ccQpfGYP.s 			page 22


 1198              	.LVL99:
 1199              	.L51:
 1200              	.LBE1248:
 1201              	.LBE1249:
 1202              	.LBE1250:
 1203              	.LBE1251:
 1204              	.LBE1255:
 1205              	.LBB1256:
 1206              	.LBB1254:
 1207              		.loc 3 426 0 discriminator 3
 1208 0028 2146     		mov	r1, r4
 1209 002a 0134     		adds	r4, r4, #1
 1210              	.LVL100:
 1211 002c 4FF0FF32 		mov	r2, #-1
 1212 0030 3046     		mov	r0, r6
 1213 0032 E4B2     		uxtb	r4, r4
 1214 0034 FFF7FEFF 		bl	chOQPutTimeout
 1215              	.LVL101:
 1216              	.LBE1254:
 1217              	.LBE1256:
 1218              		.loc 1 183 0 discriminator 3
 1219 0038 452C     		cmp	r4, #69
 1220 003a F5D1     		bne	.L51
 1221              	.LVL102:
 1222              	.LBB1257:
 1223              	.LBB1258:
 1224              	.LBB1259:
 1225              	.LBB1260:
 1226              		.loc 2 546 0
 1227 003c 2026     		movs	r6, #32
 1228              		.syntax unified
 1229              	@ 546 "/home/selim/working/ChibiOS/os/ext/CMSIS/include/core_cmFunc.h" 1
 1230 003e 86F31188 		MSR basepri, r6
 1231              	@ 0 "" 2
 1232              	.LVL103:
 1233              		.thumb
 1234              		.syntax unified
 1235              	.LBE1260:
 1236              	.LBE1259:
 1237              	.LBE1258:
 1238              	.LBE1257:
 1239              	.LBB1261:
 1240              	.LBB1262:
 1241              		.loc 3 407 0
 1242 0042 A968     		ldr	r1, [r5, #8]
 1243              	.LBE1262:
 1244              	.LBE1261:
 1245              		.loc 1 185 0
 1246 0044 B1FA81F1 		clz	r1, r1
 1247 0048 4909     		lsrs	r1, r1, #5
 1248 004a 0220     		movs	r0, #2
 1249 004c FFF7FEFF 		bl	_test_assert
 1250              	.LVL104:
 1251 0050 0746     		mov	r7, r0
 1252 0052 E0B9     		cbnz	r0, .L68
 1253              	.LVL105:
 1254              	.LBB1263:
ARM GAS  /tmp/ccQpfGYP.s 			page 23


 1255              	.LBB1264:
 1256              	.LBB1265:
 1257              	.LBB1266:
 1258              	.LBB1267:
 1259              	.LBB1268:
 1260              	.LBB1269:
 1261              		.loc 2 546 0
 1262              		.syntax unified
 1263              	@ 546 "/home/selim/working/ChibiOS/os/ext/CMSIS/include/core_cmFunc.h" 1
 1264 0054 80F31188 		MSR basepri, r0
 1265              	@ 0 "" 2
 1266              	.LVL106:
 1267              		.thumb
 1268              		.syntax unified
 1269              	.LBE1269:
 1270              	.LBE1268:
 1271              	.LBE1267:
 1272              	.LBE1266:
 1273              	.LBE1265:
 1274              	.LBB1274:
 1275              		.loc 1 192 0
 1276 0058 DFF8C491 		ldr	r9, .L72
 1277              	.LBB1275:
 1278              	.LBB1276:
 1279              	.LBB1277:
 1280              	.LBB1278:
 1281              	.LBB1279:
 1282              		.loc 2 546 0
 1283 005c 8046     		mov	r8, r0
 1284              	.LBE1279:
 1285              	.LBE1278:
 1286              	.LBE1277:
 1287              	.LBE1276:
 1288              	.LBE1275:
 1289              	.LBE1274:
 1290              	.LBB1289:
 1291              	.LBB1273:
 1292              	.LBB1272:
 1293              	.LBB1271:
 1294              	.LBB1270:
 1295 005e 0424     		movs	r4, #4
 1296              	.LVL107:
 1297              	.L53:
 1298              	.LBE1270:
 1299              	.LBE1271:
 1300              	.LBE1272:
 1301              	.LBE1273:
 1302              	.LBE1289:
 1303              	.LBB1290:
 1304              	.LBB1284:
 1305              	.LBB1285:
 1306              	.LBB1286:
 1307              	.LBB1287:
 1308              		.syntax unified
 1309              	@ 546 "/home/selim/working/ChibiOS/os/ext/CMSIS/include/core_cmFunc.h" 1
 1310 0060 86F31188 		MSR basepri, r6
 1311              	@ 0 "" 2
ARM GAS  /tmp/ccQpfGYP.s 			page 24


 1312              	.LVL108:
 1313              		.thumb
 1314              		.syntax unified
 1315              	.LBE1287:
 1316              	.LBE1286:
 1317              	.LBE1285:
 1318              	.LBE1284:
 1319              		.loc 1 192 0
 1320 0064 4846     		mov	r0, r9
 1321 0066 FFF7FEFF 		bl	chOQGetI
 1322              	.LVL109:
 1323              	.LBB1288:
 1324              	.LBB1283:
 1325              	.LBB1282:
 1326              	.LBB1281:
 1327              	.LBB1280:
 1328              		.loc 2 546 0
 1329              		.syntax unified
 1330              	@ 546 "/home/selim/working/ChibiOS/os/ext/CMSIS/include/core_cmFunc.h" 1
 1331 006a 88F31188 		MSR basepri, r8
 1332              	@ 0 "" 2
 1333              	.LVL110:
 1334              		.thumb
 1335              		.syntax unified
 1336              	.LBE1280:
 1337              	.LBE1281:
 1338              	.LBE1282:
 1339              	.LBE1283:
 1340              	.LBE1288:
 1341              		.loc 1 194 0
 1342 006e C0B2     		uxtb	r0, r0
 1343 0070 FFF7FEFF 		bl	test_emit_token
 1344              	.LVL111:
 1345              	.LBE1290:
 1346              		.loc 1 188 0
 1347 0074 013C     		subs	r4, r4, #1
 1348              	.LVL112:
 1349 0076 F3D1     		bne	.L53
 1350              	.LVL113:
 1351              	.LBB1291:
 1352              	.LBB1292:
 1353              	.LBB1293:
 1354              	.LBB1294:
 1355              		.loc 2 546 0
 1356              		.syntax unified
 1357              	@ 546 "/home/selim/working/ChibiOS/os/ext/CMSIS/include/core_cmFunc.h" 1
 1358 0078 86F31188 		MSR basepri, r6
 1359              	@ 0 "" 2
 1360              	.LVL114:
 1361              		.thumb
 1362              		.syntax unified
 1363              	.LBE1294:
 1364              	.LBE1293:
 1365              	.LBE1292:
 1366              	.LBE1291:
 1367              	.LBB1295:
 1368              	.LBB1296:
ARM GAS  /tmp/ccQpfGYP.s 			page 25


 1369              		.loc 3 390 0
 1370 007c 6A69     		ldr	r2, [r5, #20]
 1371 007e AB69     		ldr	r3, [r5, #24]
 1372 0080 9A42     		cmp	r2, r3
 1373 0082 2AD0     		beq	.L70
 1374              	.L54:
 1375              	.LVL115:
 1376              	.LBE1296:
 1377              	.LBE1295:
 1378              		.loc 1 196 0
 1379 0084 3946     		mov	r1, r7
 1380 0086 0320     		movs	r0, #3
 1381 0088 FFF7FEFF 		bl	_test_assert
 1382              	.LVL116:
 1383 008c 28B1     		cbz	r0, .L71
 1384              	.LVL117:
 1385              	.L68:
 1386              	.LBB1298:
 1387              	.LBB1299:
 1388              	.LBB1300:
 1389              	.LBB1301:
 1390              	.LBB1302:
 1391              		.loc 2 546 0
 1392 008e 0023     		movs	r3, #0
 1393              		.syntax unified
 1394              	@ 546 "/home/selim/working/ChibiOS/os/ext/CMSIS/include/core_cmFunc.h" 1
 1395 0090 83F31188 		MSR basepri, r3
 1396              	@ 0 "" 2
 1397              	.LVL118:
 1398              		.thumb
 1399              		.syntax unified
 1400              	.L47:
 1401              	.LBE1302:
 1402              	.LBE1301:
 1403              	.LBE1300:
 1404              	.LBE1299:
 1405              	.LBE1298:
 1406              	.LBE1264:
 1407              	.LBE1263:
 1408              		.loc 1 223 0
 1409 0094 03B0     		add	sp, sp, #12
 1410              		.cfi_remember_state
 1411              		.cfi_def_cfa_offset 28
 1412              		@ sp needed
 1413 0096 BDE8F083 		pop	{r4, r5, r6, r7, r8, r9, pc}
 1414              	.LVL119:
 1415              	.L71:
 1416              		.cfi_restore_state
 1417              	.LBB1400:
 1418              	.LBB1397:
 1419              	.LBB1303:
 1420              	.LBB1304:
 1421              	.LBB1305:
 1422              	.LBB1306:
 1423              	.LBB1307:
 1424              		.loc 2 546 0
 1425              		.syntax unified
ARM GAS  /tmp/ccQpfGYP.s 			page 26


 1426              	@ 546 "/home/selim/working/ChibiOS/os/ext/CMSIS/include/core_cmFunc.h" 1
 1427 009a 80F31188 		MSR basepri, r0
 1428              	@ 0 "" 2
 1429              	.LVL120:
 1430              		.thumb
 1431              		.syntax unified
 1432              	.LBE1307:
 1433              	.LBE1306:
 1434              	.LBE1305:
 1435              	.LBE1304:
 1436              	.LBE1303:
 1437              		.loc 1 197 0
 1438 009e 6149     		ldr	r1, .L72+4
 1439 00a0 0420     		movs	r0, #4
 1440 00a2 FFF7FEFF 		bl	_test_assert_sequence
 1441              	.LVL121:
 1442 00a6 0446     		mov	r4, r0
 1443              	.LVL122:
 1444 00a8 0028     		cmp	r0, #0
 1445 00aa F3D1     		bne	.L47
 1446              	.LVL123:
 1447              	.LBB1308:
 1448              	.LBB1309:
 1449              	.LBB1310:
 1450              	.LBB1311:
 1451              		.loc 2 546 0
 1452 00ac 2026     		movs	r6, #32
 1453              		.syntax unified
 1454              	@ 546 "/home/selim/working/ChibiOS/os/ext/CMSIS/include/core_cmFunc.h" 1
 1455 00ae 86F31188 		MSR basepri, r6
 1456              	@ 0 "" 2
 1457              	.LVL124:
 1458              		.thumb
 1459              		.syntax unified
 1460              	.LBE1311:
 1461              	.LBE1310:
 1462              	.LBE1309:
 1463              	.LBE1308:
 1464              		.loc 1 198 0
 1465 00b2 5B48     		ldr	r0, .L72
 1466 00b4 FFF7FEFF 		bl	chOQGetI
 1467              	.LVL125:
 1468 00b8 0330     		adds	r0, r0, #3
 1469 00ba 14BF     		ite	ne
 1470 00bc 0021     		movne	r1, #0
 1471 00be 0121     		moveq	r1, #1
 1472 00c0 0520     		movs	r0, #5
 1473 00c2 FFF7FEFF 		bl	_test_assert
 1474              	.LVL126:
 1475 00c6 0346     		mov	r3, r0
 1476 00c8 60B1     		cbz	r0, .L57
 1477              	.LVL127:
 1478              	.LBB1312:
 1479              	.LBB1313:
 1480              	.LBB1314:
 1481              	.LBB1315:
 1482              	.LBB1316:
ARM GAS  /tmp/ccQpfGYP.s 			page 27


 1483              		.loc 2 546 0
 1484              		.syntax unified
 1485              	@ 546 "/home/selim/working/ChibiOS/os/ext/CMSIS/include/core_cmFunc.h" 1
 1486 00ca 84F31188 		MSR basepri, r4
 1487              	@ 0 "" 2
 1488              	.LVL128:
 1489              		.thumb
 1490              		.syntax unified
 1491 00ce E1E7     		b	.L47
 1492              	.LVL129:
 1493              	.L69:
 1494              	.LBE1316:
 1495              	.LBE1315:
 1496              	.LBE1314:
 1497              	.LBE1313:
 1498              	.LBE1312:
 1499              	.LBE1397:
 1500              	.LBE1400:
 1501              	.LBB1401:
 1502              	.LBB1242:
 1503              		.loc 3 390 0
 1504 00d0 A968     		ldr	r1, [r5, #8]
 1505 00d2 0031     		adds	r1, r1, #0
 1506 00d4 18BF     		it	ne
 1507 00d6 0121     		movne	r1, #1
 1508 00d8 9EE7     		b	.L48
 1509              	.LVL130:
 1510              	.L70:
 1511              	.LBE1242:
 1512              	.LBE1401:
 1513              	.LBB1402:
 1514              	.LBB1398:
 1515              	.LBB1317:
 1516              	.LBB1297:
 1517 00da AF68     		ldr	r7, [r5, #8]
 1518 00dc 0037     		adds	r7, r7, #0
 1519 00de 18BF     		it	ne
 1520 00e0 0127     		movne	r7, #1
 1521 00e2 CFE7     		b	.L54
 1522              	.LVL131:
 1523              	.L57:
 1524              	.LBE1297:
 1525              	.LBE1317:
 1526              	.LBB1318:
 1527              	.LBB1319:
 1528              	.LBB1320:
 1529              	.LBB1321:
 1530              	.LBB1322:
 1531              		.loc 2 546 0
 1532              		.syntax unified
 1533              	@ 546 "/home/selim/working/ChibiOS/os/ext/CMSIS/include/core_cmFunc.h" 1
 1534 00e4 80F31188 		MSR basepri, r0
 1535              	@ 0 "" 2
 1536              	.LVL132:
 1537              		.thumb
 1538              		.syntax unified
 1539              	.LBE1322:
ARM GAS  /tmp/ccQpfGYP.s 			page 28


 1540              	.LBE1321:
 1541              	.LBE1320:
 1542              	.LBE1319:
 1543              	.LBE1318:
 1544              		.loc 1 201 0
 1545 00e8 4F4F     		ldr	r7, .L72+8
 1546 00ea 4D48     		ldr	r0, .L72
 1547 00ec 7C68     		ldr	r4, [r7, #4]
 1548 00ee 0822     		movs	r2, #8
 1549 00f0 2146     		mov	r1, r4
 1550 00f2 FFF7FEFF 		bl	chOQWriteTimeout
 1551              	.LVL133:
 1552              		.loc 1 202 0
 1553 00f6 A0F10401 		sub	r1, r0, #4
 1554 00fa B1FA81F1 		clz	r1, r1
 1555 00fe 4909     		lsrs	r1, r1, #5
 1556 0100 0620     		movs	r0, #6
 1557              	.LVL134:
 1558 0102 FFF7FEFF 		bl	_test_assert
 1559              	.LVL135:
 1560 0106 8046     		mov	r8, r0
 1561 0108 0028     		cmp	r0, #0
 1562 010a C3D1     		bne	.L47
 1563              	.LVL136:
 1564              	.LBB1323:
 1565              	.LBB1324:
 1566              	.LBB1325:
 1567              	.LBB1326:
 1568              		.loc 2 546 0
 1569              		.syntax unified
 1570              	@ 546 "/home/selim/working/ChibiOS/os/ext/CMSIS/include/core_cmFunc.h" 1
 1571 010c 86F31188 		MSR basepri, r6
 1572              	@ 0 "" 2
 1573              	.LVL137:
 1574              		.thumb
 1575              		.syntax unified
 1576              	.LBE1326:
 1577              	.LBE1325:
 1578              	.LBE1324:
 1579              	.LBE1323:
 1580              	.LBB1327:
 1581              	.LBB1328:
 1582              		.loc 3 407 0
 1583 0110 A968     		ldr	r1, [r5, #8]
 1584              	.LBE1328:
 1585              	.LBE1327:
 1586              		.loc 1 203 0
 1587 0112 B1FA81F1 		clz	r1, r1
 1588 0116 4909     		lsrs	r1, r1, #5
 1589 0118 0720     		movs	r0, #7
 1590 011a FFF7FEFF 		bl	_test_assert
 1591              	.LVL138:
 1592 011e 8146     		mov	r9, r0
 1593 0120 10B1     		cbz	r0, .L59
 1594              	.LVL139:
 1595              	.LBB1329:
 1596              	.LBB1330:
ARM GAS  /tmp/ccQpfGYP.s 			page 29


 1597              	.LBB1331:
 1598              	.LBB1332:
 1599              	.LBB1333:
 1600              		.loc 2 546 0
 1601              		.syntax unified
 1602              	@ 546 "/home/selim/working/ChibiOS/os/ext/CMSIS/include/core_cmFunc.h" 1
 1603 0122 88F31188 		MSR basepri, r8
 1604              	@ 0 "" 2
 1605              	.LVL140:
 1606              		.thumb
 1607              		.syntax unified
 1608 0126 B5E7     		b	.L47
 1609              	.L59:
 1610              	.LVL141:
 1611              	.LBE1333:
 1612              	.LBE1332:
 1613              	.LBE1331:
 1614              	.LBE1330:
 1615              	.LBE1329:
 1616              	.LBB1334:
 1617              	.LBB1335:
 1618              	.LBB1336:
 1619              	.LBB1337:
 1620              	.LBB1338:
 1621              		.syntax unified
 1622              	@ 546 "/home/selim/working/ChibiOS/os/ext/CMSIS/include/core_cmFunc.h" 1
 1623 0128 80F31188 		MSR basepri, r0
 1624              	@ 0 "" 2
 1625              	.LVL142:
 1626              		.thumb
 1627              		.syntax unified
 1628              	.LBE1338:
 1629              	.LBE1337:
 1630              	.LBE1336:
 1631              	.LBE1335:
 1632              	.LBE1334:
 1633              	.LBB1339:
 1634              	.LBB1340:
 1635              	.LBB1341:
 1636              	.LBB1342:
 1637              		.loc 4 176 0
 1638 012c 3F4B     		ldr	r3, .L72+12
 1639              	.LBE1342:
 1640              	.LBE1341:
 1641              	.LBE1340:
 1642              	.LBE1339:
 1643              		.loc 1 204 0
 1644 012e 3868     		ldr	r0, [r7]
 1645              	.LBB1344:
 1646              	.LBB1343:
 1647              		.loc 4 189 0
 1648 0130 9A69     		ldr	r2, [r3, #24]
 1649              	.LBE1343:
 1650              	.LBE1344:
 1651              		.loc 1 204 0
 1652 0132 3F4B     		ldr	r3, .L72+16
 1653 0134 9268     		ldr	r2, [r2, #8]
ARM GAS  /tmp/ccQpfGYP.s 			page 30


 1654 0136 CDF80090 		str	r9, [sp]
 1655 013a 0132     		adds	r2, r2, #1
 1656 013c 4FF4A471 		mov	r1, #328
 1657 0140 FFF7FEFF 		bl	chThdCreateStatic
 1658              	.LVL143:
 1659 0144 3B4B     		ldr	r3, .L72+20
 1660 0146 1860     		str	r0, [r3]
 1661              	.LVL144:
 1662              	.LBB1345:
 1663              	.LBB1346:
 1664              	.LBB1347:
 1665              	.LBB1348:
 1666              		.loc 2 546 0
 1667              		.syntax unified
 1668              	@ 546 "/home/selim/working/ChibiOS/os/ext/CMSIS/include/core_cmFunc.h" 1
 1669 0148 86F31188 		MSR basepri, r6
 1670              	@ 0 "" 2
 1671              	.LVL145:
 1672              		.thumb
 1673              		.syntax unified
 1674              	.LBE1348:
 1675              	.LBE1347:
 1676              	.LBE1346:
 1677              	.LBE1345:
 1678              	.LBB1349:
 1679              	.LBB1350:
 1680              		.loc 3 357 0
 1681 014c 05F10801 		add	r1, r5, #8
 1682 0150 0EC9     		ldm	r1, {r1, r2, r3}
 1683 0152 9B1A     		subs	r3, r3, r2
 1684 0154 591A     		subs	r1, r3, r1
 1685              	.LBE1350:
 1686              	.LBE1349:
 1687              		.loc 1 205 0
 1688 0156 A1F10401 		sub	r1, #4
 1689 015a B1FA81F1 		clz	r1, r1
 1690 015e 4909     		lsrs	r1, r1, #5
 1691 0160 0820     		movs	r0, #8
 1692 0162 FFF7FEFF 		bl	_test_assert
 1693              	.LVL146:
 1694 0166 0746     		mov	r7, r0
 1695 0168 10B1     		cbz	r0, .L60
 1696              	.LVL147:
 1697              	.LBB1351:
 1698              	.LBB1352:
 1699              	.LBB1353:
 1700              	.LBB1354:
 1701              	.LBB1355:
 1702              		.loc 2 546 0
 1703              		.syntax unified
 1704              	@ 546 "/home/selim/working/ChibiOS/os/ext/CMSIS/include/core_cmFunc.h" 1
 1705 016a 89F31188 		MSR basepri, r9
 1706              	@ 0 "" 2
 1707              	.LVL148:
 1708              		.thumb
 1709              		.syntax unified
 1710 016e 91E7     		b	.L47
ARM GAS  /tmp/ccQpfGYP.s 			page 31


 1711              	.L60:
 1712              	.LVL149:
 1713              	.LBE1355:
 1714              	.LBE1354:
 1715              	.LBE1353:
 1716              	.LBE1352:
 1717              	.LBE1351:
 1718              	.LBB1356:
 1719              	.LBB1357:
 1720              	.LBB1358:
 1721              	.LBB1359:
 1722              	.LBB1360:
 1723              		.syntax unified
 1724              	@ 546 "/home/selim/working/ChibiOS/os/ext/CMSIS/include/core_cmFunc.h" 1
 1725 0170 80F31188 		MSR basepri, r0
 1726              	@ 0 "" 2
 1727              	.LVL150:
 1728              		.thumb
 1729              		.syntax unified
 1730              	.LBE1360:
 1731              	.LBE1359:
 1732              	.LBE1358:
 1733              	.LBE1357:
 1734              	.LBE1356:
 1735              		.loc 1 206 0
 1736 0174 FFF7FEFF 		bl	test_wait_threads
 1737              	.LVL151:
 1738              	.LBB1361:
 1739              	.LBB1362:
 1740              	.LBB1363:
 1741              	.LBB1364:
 1742              		.loc 2 546 0
 1743              		.syntax unified
 1744              	@ 546 "/home/selim/working/ChibiOS/os/ext/CMSIS/include/core_cmFunc.h" 1
 1745 0178 86F31188 		MSR basepri, r6
 1746              	@ 0 "" 2
 1747              	.LVL152:
 1748              		.thumb
 1749              		.syntax unified
 1750              	.LBE1364:
 1751              	.LBE1363:
 1752              	.LBE1362:
 1753              	.LBE1361:
 1754              		.loc 1 210 0
 1755 017c 2848     		ldr	r0, .L72
 1756 017e FFF7FEFF 		bl	chOQResetI
 1757              	.LVL153:
 1758              	.LBB1365:
 1759              	.LBB1366:
 1760              	.LBB1367:
 1761              	.LBB1368:
 1762              	.LBB1369:
 1763              		.loc 2 546 0
 1764              		.syntax unified
 1765              	@ 546 "/home/selim/working/ChibiOS/os/ext/CMSIS/include/core_cmFunc.h" 1
 1766 0182 87F31188 		MSR basepri, r7
 1767              	@ 0 "" 2
ARM GAS  /tmp/ccQpfGYP.s 			page 32


 1768              	.LVL154:
 1769              		.thumb
 1770              		.syntax unified
 1771              	.LBE1369:
 1772              	.LBE1368:
 1773              	.LBE1367:
 1774              	.LBE1366:
 1775              	.LBE1365:
 1776              	.LBB1370:
 1777              	.LBB1371:
 1778              	.LBB1372:
 1779              	.LBB1373:
 1780              		.syntax unified
 1781              	@ 546 "/home/selim/working/ChibiOS/os/ext/CMSIS/include/core_cmFunc.h" 1
 1782 0186 86F31188 		MSR basepri, r6
 1783              	@ 0 "" 2
 1784              	.LVL155:
 1785              		.thumb
 1786              		.syntax unified
 1787              	.LBE1373:
 1788              	.LBE1372:
 1789              	.LBE1371:
 1790              	.LBE1370:
 1791              		.loc 1 212 0
 1792 018a 05F10801 		add	r1, r5, #8
 1793 018e 0EC9     		ldm	r1, {r1, r2, r3}
 1794              	.LBB1374:
 1795              	.LBB1375:
 1796              		.loc 3 357 0
 1797 0190 9B1A     		subs	r3, r3, r2
 1798              	.LBE1375:
 1799              	.LBE1374:
 1800              		.loc 1 212 0
 1801 0192 591A     		subs	r1, r3, r1
 1802 0194 B1FA81F1 		clz	r1, r1
 1803 0198 4909     		lsrs	r1, r1, #5
 1804 019a 0920     		movs	r0, #9
 1805 019c FFF7FEFF 		bl	_test_assert
 1806              	.LVL156:
 1807 01a0 0346     		mov	r3, r0
 1808 01a2 10B1     		cbz	r0, .L61
 1809              	.LVL157:
 1810              	.LBB1376:
 1811              	.LBB1377:
 1812              	.LBB1378:
 1813              	.LBB1379:
 1814              	.LBB1380:
 1815              		.loc 2 546 0
 1816              		.syntax unified
 1817              	@ 546 "/home/selim/working/ChibiOS/os/ext/CMSIS/include/core_cmFunc.h" 1
 1818 01a4 87F31188 		MSR basepri, r7
 1819              	@ 0 "" 2
 1820              	.LVL158:
 1821              		.thumb
 1822              		.syntax unified
 1823 01a8 74E7     		b	.L47
 1824              	.L61:
ARM GAS  /tmp/ccQpfGYP.s 			page 33


 1825              	.LVL159:
 1826              	.LBE1380:
 1827              	.LBE1379:
 1828              	.LBE1378:
 1829              	.LBE1377:
 1830              	.LBE1376:
 1831              	.LBB1381:
 1832              	.LBB1382:
 1833              	.LBB1383:
 1834              	.LBB1384:
 1835              	.LBB1385:
 1836              		.syntax unified
 1837              	@ 546 "/home/selim/working/ChibiOS/os/ext/CMSIS/include/core_cmFunc.h" 1
 1838 01aa 80F31188 		MSR basepri, r0
 1839              	@ 0 "" 2
 1840              	.LVL160:
 1841              		.thumb
 1842              		.syntax unified
 1843              	.LBE1385:
 1844              	.LBE1384:
 1845              	.LBE1383:
 1846              	.LBE1382:
 1847              	.LBE1381:
 1848              		.loc 1 215 0
 1849 01ae 0222     		movs	r2, #2
 1850 01b0 2146     		mov	r1, r4
 1851 01b2 1B48     		ldr	r0, .L72
 1852 01b4 FFF7FEFF 		bl	chOQWriteTimeout
 1853              	.LVL161:
 1854              		.loc 1 216 0
 1855 01b8 0238     		subs	r0, r0, #2
 1856              	.LVL162:
 1857 01ba 4142     		rsbs	r1, r0, #0
 1858 01bc 4141     		adcs	r1, r1, r0
 1859 01be 0A20     		movs	r0, #10
 1860              	.LVL163:
 1861 01c0 FFF7FEFF 		bl	_test_assert
 1862              	.LVL164:
 1863 01c4 0346     		mov	r3, r0
 1864 01c6 0028     		cmp	r0, #0
 1865 01c8 7FF464AF 		bne	.L47
 1866              		.loc 1 217 0
 1867 01cc 2146     		mov	r1, r4
 1868 01ce 0222     		movs	r2, #2
 1869 01d0 1348     		ldr	r0, .L72
 1870 01d2 FFF7FEFF 		bl	chOQWriteTimeout
 1871              	.LVL165:
 1872              		.loc 1 218 0
 1873 01d6 821E     		subs	r2, r0, #2
 1874 01d8 5142     		rsbs	r1, r2, #0
 1875 01da 5141     		adcs	r1, r1, r2
 1876 01dc 0B20     		movs	r0, #11
 1877              	.LVL166:
 1878 01de FFF7FEFF 		bl	_test_assert
 1879              	.LVL167:
 1880 01e2 0028     		cmp	r0, #0
 1881 01e4 7FF456AF 		bne	.L47
ARM GAS  /tmp/ccQpfGYP.s 			page 34


 1882              	.LVL168:
 1883              	.LBB1386:
 1884              	.LBB1387:
 1885              	.LBB1388:
 1886              	.LBB1389:
 1887              		.loc 2 546 0
 1888              		.syntax unified
 1889              	@ 546 "/home/selim/working/ChibiOS/os/ext/CMSIS/include/core_cmFunc.h" 1
 1890 01e8 86F31188 		MSR basepri, r6
 1891              	@ 0 "" 2
 1892              	.LVL169:
 1893              		.thumb
 1894              		.syntax unified
 1895              	.LBE1389:
 1896              	.LBE1388:
 1897              	.LBE1387:
 1898              	.LBE1386:
 1899              	.LBB1390:
 1900              	.LBB1391:
 1901              		.loc 3 407 0
 1902 01ec A968     		ldr	r1, [r5, #8]
 1903              	.LBE1391:
 1904              	.LBE1390:
 1905              		.loc 1 219 0
 1906 01ee B1FA81F1 		clz	r1, r1
 1907 01f2 4909     		lsrs	r1, r1, #5
 1908 01f4 0C20     		movs	r0, #12
 1909 01f6 FFF7FEFF 		bl	_test_assert
 1910              	.LVL170:
 1911 01fa 0028     		cmp	r0, #0
 1912 01fc 7FF447AF 		bne	.L68
 1913              	.LVL171:
 1914              	.LBB1392:
 1915              	.LBB1393:
 1916              	.LBB1394:
 1917              	.LBB1395:
 1918              	.LBB1396:
 1919              		.loc 2 546 0
 1920 0200 0021     		movs	r1, #0
 1921              		.syntax unified
 1922              	@ 546 "/home/selim/working/ChibiOS/os/ext/CMSIS/include/core_cmFunc.h" 1
 1923 0202 81F31188 		MSR basepri, r1
 1924              	@ 0 "" 2
 1925              	.LVL172:
 1926              		.thumb
 1927              		.syntax unified
 1928              	.LBE1396:
 1929              	.LBE1395:
 1930              	.LBE1394:
 1931              	.LBE1393:
 1932              	.LBE1392:
 1933              		.loc 1 222 0
 1934 0206 0A22     		movs	r2, #10
 1935 0208 0548     		ldr	r0, .L72
 1936 020a FFF7FEFF 		bl	chOQPutTimeout
 1937              	.LVL173:
 1938 020e 431C     		adds	r3, r0, #1
ARM GAS  /tmp/ccQpfGYP.s 			page 35


 1939 0210 5942     		rsbs	r1, r3, #0
 1940 0212 5941     		adcs	r1, r1, r3
 1941 0214 0D20     		movs	r0, #13
 1942              	.LBE1398:
 1943              	.LBE1402:
 1944              		.loc 1 223 0
 1945 0216 03B0     		add	sp, sp, #12
 1946              		.cfi_def_cfa_offset 28
 1947              		@ sp needed
 1948 0218 BDE8F043 		pop	{r4, r5, r6, r7, r8, r9, lr}
 1949              		.cfi_restore 14
 1950              		.cfi_restore 9
 1951              		.cfi_restore 8
 1952              		.cfi_restore 7
 1953              		.cfi_restore 6
 1954              		.cfi_restore 5
 1955              		.cfi_restore 4
 1956              		.cfi_def_cfa_offset 0
 1957              	.LBB1403:
 1958              	.LBB1399:
 1959              		.loc 1 222 0
 1960 021c FFF7FEBF 		b	_test_assert
 1961              	.LVL174:
 1962              	.L73:
 1963              		.align	2
 1964              	.L72:
 1965 0220 00000000 		.word	.LANCHOR1
 1966 0224 00000000 		.word	.LC0
 1967 0228 00000000 		.word	wa
 1968 022c 00000000 		.word	ch
 1969 0230 00000000 		.word	thread2
 1970 0234 00000000 		.word	threads
 1971              	.LBE1399:
 1972              	.LBE1403:
 1973              		.cfi_endproc
 1974              	.LFE233:
 1975              		.size	queues2_execute, .-queues2_execute
 1976              		.global	patternqueues
 1977              		.global	testqueues2
 1978              		.global	testqueues1
 1979              		.section	.data.iq,"aw",%progbits
 1980              		.align	2
 1981              		.set	.LANCHOR0,. + 0
 1982              		.type	iq, %object
 1983              		.size	iq, 36
 1984              	iq:
 1985 0000 00000000 		.word	iq
 1986 0004 00000000 		.word	iq
 1987 0008 00000000 		.word	0
 1988 000c 00000000 		.word	test
 1989 0010 04000000 		.word	test+4
 1990 0014 00000000 		.word	test
 1991 0018 00000000 		.word	test
 1992 001c 00000000 		.word	notify
 1993 0020 00000000 		.word	0
 1994              		.section	.data.oq,"aw",%progbits
 1995              		.align	2
ARM GAS  /tmp/ccQpfGYP.s 			page 36


 1996              		.set	.LANCHOR1,. + 0
 1997              		.type	oq, %object
 1998              		.size	oq, 36
 1999              	oq:
 2000 0000 00000000 		.word	oq
 2001 0004 00000000 		.word	oq
 2002 0008 04000000 		.word	4
 2003 000c 48010000 		.word	test+328
 2004 0010 4C010000 		.word	test+332
 2005 0014 48010000 		.word	test+328
 2006 0018 48010000 		.word	test+328
 2007 001c 00000000 		.word	notify
 2008 0020 00000000 		.word	0
 2009              		.section	.rodata.patternqueues,"a",%progbits
 2010              		.align	2
 2011              		.type	patternqueues, %object
 2012              		.size	patternqueues, 12
 2013              	patternqueues:
 2014 0000 00000000 		.word	testqueues1
 2015 0004 00000000 		.word	testqueues2
 2016 0008 00000000 		.word	0
 2017              		.section	.rodata.queues1_execute.str1.4,"aMS",%progbits,1
 2018              		.align	2
 2019              	.LC0:
 2020 0000 41424344 		.ascii	"ABCD\000"
 2020      00
 2021              		.section	.rodata.str1.4,"aMS",%progbits,1
 2022              		.align	2
 2023              	.LC1:
 2024 0000 51756575 		.ascii	"Queues, output queues\000"
 2024      65732C20 
 2024      6F757470 
 2024      75742071 
 2024      75657565 
 2025 0016 0000     		.space	2
 2026              	.LC2:
 2027 0018 51756575 		.ascii	"Queues, input queues\000"
 2027      65732C20 
 2027      696E7075 
 2027      74207175 
 2027      65756573 
 2028              		.section	.rodata.testqueues1,"a",%progbits
 2029              		.align	2
 2030              		.type	testqueues1, %object
 2031              		.size	testqueues1, 16
 2032              	testqueues1:
 2033 0000 18000000 		.word	.LC2
 2034 0004 00000000 		.word	queues1_setup
 2035 0008 00000000 		.word	0
 2036 000c 00000000 		.word	queues1_execute
 2037              		.section	.rodata.testqueues2,"a",%progbits
 2038              		.align	2
 2039              		.type	testqueues2, %object
 2040              		.size	testqueues2, 16
 2041              	testqueues2:
 2042 0000 00000000 		.word	.LC1
 2043 0004 00000000 		.word	queues2_setup
ARM GAS  /tmp/ccQpfGYP.s 			page 37


 2044 0008 00000000 		.word	0
 2045 000c 00000000 		.word	queues2_execute
 2046              		.text
 2047              	.Letext0:
 2048              		.file 5 "/usr/lib/gcc/arm-none-eabi/6.2.1/include/stddef.h"
 2049              		.file 6 "/usr/arm-none-eabi/include/machine/_default_types.h"
 2050              		.file 7 "/usr/arm-none-eabi/include/sys/_stdint.h"
 2051              		.file 8 "/home/selim/working/ChibiOS/os/rt/ports/ARMCMx/compilers/GCC/chtypes.h"
 2052              		.file 9 "/home/selim/working/ChibiOS/os/rt/include/chsystypes.h"
 2053              		.file 10 "/home/selim/working/ChibiOS/os/rt/include/chschd.h"
 2054              		.file 11 "/home/selim/working/ChibiOS/os/ext/CMSIS/include/core_cm4.h"
 2055              		.file 12 "/home/selim/working/ChibiOS/os/ext/CMSIS/ST/system_stm32f4xx.h"
 2056              		.file 13 "/home/selim/working/ChibiOS/os/rt/ports/ARMCMx/chcore.h"
 2057              		.file 14 "/home/selim/working/ChibiOS/os/rt/ports/ARMCMx/chcore_v7m.h"
 2058              		.file 15 "/home/selim/working/ChibiOS/os/rt/include/chtm.h"
 2059              		.file 16 "/home/selim/working/ChibiOS/os/rt/include/chsem.h"
 2060              		.file 17 "/home/selim/working/ChibiOS/os/rt/include/chmtx.h"
 2061              		.file 18 "/home/selim/working/ChibiOS/os/rt/include/chregistry.h"
 2062              		.file 19 "/home/selim/working/ChibiOS/test/rt/test.h"
 2063              		.file 20 "/home/selim/working/ChibiOS/os/rt/include/chsys.h"