ARM GAS  /tmp/cc1RPLVi.s 			page 1


   1              		.cpu cortex-m4
   2              		.eabi_attribute 20, 1
   3              		.eabi_attribute 21, 1
   4              		.eabi_attribute 23, 3
   5              		.eabi_attribute 24, 1
   6              		.eabi_attribute 25, 1
   7              		.eabi_attribute 26, 1
   8              		.eabi_attribute 30, 2
   9              		.eabi_attribute 34, 1
  10              		.eabi_attribute 18, 4
  11              		.file	"testmbox.c"
  12              		.text
  13              	.Ltext0:
  14              		.cfi_sections	.debug_frame
  15              		.section	.text.mbox1_execute,"ax",%progbits
  16              		.align	1
  17              		.p2align 4,,15
  18              		.syntax unified
  19              		.thumb
  20              		.thumb_func
  21              		.fpu softvfp
  22              		.type	mbox1_execute, %function
  23              	mbox1_execute:
  24              	.LFB228:
  25              		.file 1 "/home/selim/working/ChibiOS/test/rt/testmbox.c"
  26              		.loc 1 76 0
  27              		.cfi_startproc
  28              		@ args = 0, pretend = 0, frame = 8
  29              		@ frame_needed = 0, uses_anonymous_args = 0
  30              	.LVL0:
  31 0000 2DE9F041 		push	{r4, r5, r6, r7, r8, lr}
  32              		.cfi_def_cfa_offset 24
  33              		.cfi_offset 4, -24
  34              		.cfi_offset 5, -20
  35              		.cfi_offset 6, -16
  36              		.cfi_offset 7, -12
  37              		.cfi_offset 8, -8
  38              		.cfi_offset 14, -4
  39              	.LBB335:
  40              	.LBB336:
  41              	.LBB337:
  42              	.LBB338:
  43              		.file 2 "/home/selim/working/ChibiOS/os/ext/CMSIS/include/core_cmFunc.h"
  44              		.loc 2 546 0
  45 0004 2023     		movs	r3, #32
  46              	.LBE338:
  47              	.LBE337:
  48              	.LBE336:
  49              	.LBE335:
  50              		.loc 1 76 0
  51 0006 82B0     		sub	sp, sp, #8
  52              		.cfi_def_cfa_offset 32
  53              	.LBB342:
  54              	.LBB341:
  55              	.LBB340:
  56              	.LBB339:
  57              		.loc 2 546 0
ARM GAS  /tmp/cc1RPLVi.s 			page 2


  58              		.syntax unified
  59              	@ 546 "/home/selim/working/ChibiOS/os/ext/CMSIS/include/core_cmFunc.h" 1
  60 0008 83F31188 		MSR basepri, r3
  61              	@ 0 "" 2
  62              	.LVL1:
  63              		.thumb
  64              		.syntax unified
  65              	.LBE339:
  66              	.LBE340:
  67              	.LBE341:
  68              	.LBE342:
  69              		.loc 1 83 0
  70 000c 194D     		ldr	r5, .L41
  71 000e 696A     		ldr	r1, [r5, #36]
  72 0010 A1F10501 		sub	r1, #5
  73 0014 B1FA81F1 		clz	r1, r1
  74 0018 0120     		movs	r0, #1
  75 001a 4909     		lsrs	r1, r1, #5
  76 001c FFF7FEFF 		bl	_test_assert
  77              	.LVL2:
  78 0020 0028     		cmp	r0, #0
  79 0022 40F09981 		bne	.L33
  80              	.LVL3:
  81              	.LBB343:
  82              	.LBB344:
  83              	.LBB345:
  84              	.LBB346:
  85              	.LBB347:
  86              		.loc 2 546 0
  87              		.syntax unified
  88              	@ 546 "/home/selim/working/ChibiOS/os/ext/CMSIS/include/core_cmFunc.h" 1
  89 0026 80F31188 		MSR basepri, r0
  90              	@ 0 "" 2
  91              	.LVL4:
  92              		.thumb
  93              		.syntax unified
  94 002a 4224     		movs	r4, #66
  95              	.LBE347:
  96              	.LBE346:
  97              	.LBE345:
  98              	.LBE344:
  99              	.LBE343:
 100              		.loc 1 89 0
 101 002c 2E46     		mov	r6, r5
 102              	.LVL5:
 103              	.L5:
 104 002e 2146     		mov	r1, r4
 105 0030 4FF0FF32 		mov	r2, #-1
 106 0034 3046     		mov	r0, r6
 107 0036 FFF7FEFF 		bl	chMBPost
 108              	.LVL6:
 109              		.loc 1 90 0
 110 003a B0FA80F1 		clz	r1, r0
 111 003e 4909     		lsrs	r1, r1, #5
 112 0040 0220     		movs	r0, #2
 113              	.LVL7:
 114 0042 FFF7FEFF 		bl	_test_assert
ARM GAS  /tmp/cc1RPLVi.s 			page 3


 115              	.LVL8:
 116 0046 0134     		adds	r4, r4, #1
 117              	.LVL9:
 118 0048 80B9     		cbnz	r0, .L1
 119              		.loc 1 88 0 discriminator 2
 120 004a 462C     		cmp	r4, #70
 121 004c EFD1     		bne	.L5
 122              		.loc 1 92 0
 123 004e 4121     		movs	r1, #65
 124 0050 4FF0FF32 		mov	r2, #-1
 125 0054 0748     		ldr	r0, .L41
 126 0056 FFF7FEFF 		bl	chMBPostAhead
 127              	.LVL10:
 128              		.loc 1 93 0
 129 005a B0FA80F1 		clz	r1, r0
 130 005e 4909     		lsrs	r1, r1, #5
 131 0060 0320     		movs	r0, #3
 132              	.LVL11:
 133 0062 FFF7FEFF 		bl	_test_assert
 134              	.LVL12:
 135 0066 0028     		cmp	r0, #0
 136 0068 00F08081 		beq	.L35
 137              	.LVL13:
 138              	.L1:
 139              		.loc 1 220 0
 140 006c 02B0     		add	sp, sp, #8
 141              		.cfi_remember_state
 142              		.cfi_def_cfa_offset 24
 143              		@ sp needed
 144 006e BDE8F081 		pop	{r4, r5, r6, r7, r8, pc}
 145              	.L42:
 146 0072 00BF     		.align	2
 147              	.L41:
 148 0074 00000000 		.word	.LANCHOR0
 149              	.LVL14:
 150              	.L40:
 151              		.cfi_restore_state
 152              	.LBB348:
 153              	.LBB349:
 154              	.LBB350:
 155              	.LBB351:
 156              	.LBB352:
 157              		.loc 2 546 0
 158              		.syntax unified
 159              	@ 546 "/home/selim/working/ChibiOS/os/ext/CMSIS/include/core_cmFunc.h" 1
 160 0078 80F31188 		MSR basepri, r0
 161              	@ 0 "" 2
 162              	.LVL15:
 163              		.thumb
 164              		.syntax unified
 165              	.LBE352:
 166              	.LBE351:
 167              	.LBE350:
 168              	.LBE349:
 169              	.LBE348:
 170              	.LBB353:
 171              	.LBB354:
ARM GAS  /tmp/cc1RPLVi.s 			page 4


 172              	.LBB355:
 173              	.LBB356:
 174              		.syntax unified
 175              	@ 546 "/home/selim/working/ChibiOS/os/ext/CMSIS/include/core_cmFunc.h" 1
 176 007c 84F31188 		MSR basepri, r4
 177              	@ 0 "" 2
 178              	.LVL16:
 179              		.thumb
 180              		.syntax unified
 181              	.LBE356:
 182              	.LBE355:
 183              	.LBE354:
 184              	.LBE353:
 185              		.loc 1 159 0
 186 0080 4121     		movs	r1, #65
 187 0082 B848     		ldr	r0, .L43
 188 0084 FFF7FEFF 		bl	chMBPostI
 189              	.LVL17:
 190              		.loc 1 160 0
 191 0088 B0FA80F1 		clz	r1, r0
 192 008c 4909     		lsrs	r1, r1, #5
 193 008e 1620     		movs	r0, #22
 194              	.LVL18:
 195 0090 FFF7FEFF 		bl	_test_assert
 196              	.LVL19:
 197 0094 0028     		cmp	r0, #0
 198 0096 E9D1     		bne	.L1
 199              		.loc 1 161 0
 200 0098 4221     		movs	r1, #66
 201 009a B248     		ldr	r0, .L43
 202 009c FFF7FEFF 		bl	chMBPostI
 203              	.LVL20:
 204              		.loc 1 162 0
 205 00a0 B0FA80F1 		clz	r1, r0
 206 00a4 4909     		lsrs	r1, r1, #5
 207 00a6 1720     		movs	r0, #23
 208              	.LVL21:
 209 00a8 FFF7FEFF 		bl	_test_assert
 210              	.LVL22:
 211 00ac 0028     		cmp	r0, #0
 212 00ae DDD1     		bne	.L1
 213              		.loc 1 163 0
 214 00b0 4321     		movs	r1, #67
 215 00b2 AC48     		ldr	r0, .L43
 216 00b4 FFF7FEFF 		bl	chMBPostI
 217              	.LVL23:
 218              		.loc 1 164 0
 219 00b8 B0FA80F1 		clz	r1, r0
 220 00bc 4909     		lsrs	r1, r1, #5
 221 00be 1820     		movs	r0, #24
 222              	.LVL24:
 223 00c0 FFF7FEFF 		bl	_test_assert
 224              	.LVL25:
 225 00c4 0028     		cmp	r0, #0
 226 00c6 D1D1     		bne	.L1
 227              		.loc 1 165 0
 228 00c8 4421     		movs	r1, #68
ARM GAS  /tmp/cc1RPLVi.s 			page 5


 229 00ca A648     		ldr	r0, .L43
 230 00cc FFF7FEFF 		bl	chMBPostI
 231              	.LVL26:
 232              		.loc 1 166 0
 233 00d0 B0FA80F1 		clz	r1, r0
 234 00d4 4909     		lsrs	r1, r1, #5
 235 00d6 1920     		movs	r0, #25
 236              	.LVL27:
 237 00d8 FFF7FEFF 		bl	_test_assert
 238              	.LVL28:
 239 00dc 0646     		mov	r6, r0
 240 00de 0028     		cmp	r0, #0
 241 00e0 C4D1     		bne	.L1
 242              		.loc 1 167 0
 243 00e2 4521     		movs	r1, #69
 244 00e4 9F48     		ldr	r0, .L43
 245 00e6 FFF7FEFF 		bl	chMBPostI
 246              	.LVL29:
 247              	.LBB357:
 248              	.LBB358:
 249              	.LBB359:
 250              	.LBB360:
 251              	.LBB361:
 252              		.loc 2 546 0
 253              		.syntax unified
 254              	@ 546 "/home/selim/working/ChibiOS/os/ext/CMSIS/include/core_cmFunc.h" 1
 255 00ea 86F31188 		MSR basepri, r6
 256              	@ 0 "" 2
 257              	.LVL30:
 258              		.thumb
 259              		.syntax unified
 260              	.LBE361:
 261              	.LBE360:
 262              	.LBE359:
 263              	.LBE358:
 264              	.LBE357:
 265              		.loc 1 169 0
 266 00ee B0FA80F1 		clz	r1, r0
 267 00f2 4909     		lsrs	r1, r1, #5
 268 00f4 1A20     		movs	r0, #26
 269              	.LVL31:
 270 00f6 FFF7FEFF 		bl	_test_assert
 271              	.LVL32:
 272 00fa 0028     		cmp	r0, #0
 273 00fc B6D1     		bne	.L1
 274              		.loc 1 170 0
 275 00fe E968     		ldr	r1, [r5, #12]
 276 0100 AB68     		ldr	r3, [r5, #8]
 277 0102 CE1A     		subs	r6, r1, r3
 278 0104 7142     		rsbs	r1, r6, #0
 279 0106 7141     		adcs	r1, r1, r6
 280 0108 1B20     		movs	r0, #27
 281 010a FFF7FEFF 		bl	_test_assert
 282              	.LVL33:
 283 010e 0028     		cmp	r0, #0
 284 0110 ACD1     		bne	.L1
 285              		.loc 1 173 0
ARM GAS  /tmp/cc1RPLVi.s 			page 6


 286 0112 DFF85082 		ldr	r8, .L43
 287              	.LBB362:
 288              	.LBB363:
 289              	.LBB364:
 290              	.LBB365:
 291              	.LBB366:
 292              		.loc 2 546 0
 293 0116 0746     		mov	r7, r0
 294              	.LBE366:
 295              	.LBE365:
 296              	.LBE364:
 297              	.LBE363:
 298              	.LBE362:
 299 0118 0526     		movs	r6, #5
 300              	.L13:
 301              	.LVL34:
 302              	.LBB371:
 303              	.LBB372:
 304              	.LBB373:
 305              	.LBB374:
 306              		.syntax unified
 307              	@ 546 "/home/selim/working/ChibiOS/os/ext/CMSIS/include/core_cmFunc.h" 1
 308 011a 84F31188 		MSR basepri, r4
 309              	@ 0 "" 2
 310              	.LVL35:
 311              		.thumb
 312              		.syntax unified
 313              	.LBE374:
 314              	.LBE373:
 315              	.LBE372:
 316              	.LBE371:
 317              		.loc 1 173 0
 318 011e 01A9     		add	r1, sp, #4
 319 0120 4046     		mov	r0, r8
 320 0122 FFF7FEFF 		bl	chMBFetchI
 321              	.LVL36:
 322              	.LBB375:
 323              	.LBB370:
 324              	.LBB369:
 325              	.LBB368:
 326              	.LBB367:
 327              		.loc 2 546 0
 328              		.syntax unified
 329              	@ 546 "/home/selim/working/ChibiOS/os/ext/CMSIS/include/core_cmFunc.h" 1
 330 0126 87F31188 		MSR basepri, r7
 331              	@ 0 "" 2
 332              	.LVL37:
 333              		.thumb
 334              		.syntax unified
 335              	.LBE367:
 336              	.LBE368:
 337              	.LBE369:
 338              	.LBE370:
 339              	.LBE375:
 340              		.loc 1 175 0
 341 012a B0FA80F1 		clz	r1, r0
 342 012e 4909     		lsrs	r1, r1, #5
ARM GAS  /tmp/cc1RPLVi.s 			page 7


 343 0130 1C20     		movs	r0, #28
 344              	.LVL38:
 345 0132 FFF7FEFF 		bl	_test_assert
 346              	.LVL39:
 347 0136 0028     		cmp	r0, #0
 348 0138 98D1     		bne	.L1
 349              		.loc 1 176 0 discriminator 2
 350 013a 9DF80400 		ldrb	r0, [sp, #4]	@ zero_extendqisi2
 351 013e FFF7FEFF 		bl	test_emit_token
 352              	.LVL40:
 353              		.loc 1 171 0 discriminator 2
 354 0142 013E     		subs	r6, r6, #1
 355              	.LVL41:
 356 0144 E9D1     		bne	.L13
 357              		.loc 1 178 0
 358 0146 8849     		ldr	r1, .L43+4
 359 0148 1D20     		movs	r0, #29
 360 014a FFF7FEFF 		bl	_test_assert_sequence
 361              	.LVL42:
 362 014e 0028     		cmp	r0, #0
 363 0150 8CD1     		bne	.L1
 364              	.LVL43:
 365              	.LBB376:
 366              	.LBB377:
 367              	.LBB378:
 368              	.LBB379:
 369              		.loc 2 546 0
 370              		.syntax unified
 371              	@ 546 "/home/selim/working/ChibiOS/os/ext/CMSIS/include/core_cmFunc.h" 1
 372 0152 84F31188 		MSR basepri, r4
 373              	@ 0 "" 2
 374              	.LVL44:
 375              		.thumb
 376              		.syntax unified
 377              	.LBE379:
 378              	.LBE378:
 379              	.LBE377:
 380              	.LBE376:
 381              		.loc 1 179 0
 382 0156 696A     		ldr	r1, [r5, #36]
 383 0158 4A1F     		subs	r2, r1, #5
 384 015a 5142     		rsbs	r1, r2, #0
 385 015c 5141     		adcs	r1, r1, r2
 386 015e 1E20     		movs	r0, #30
 387 0160 FFF7FEFF 		bl	_test_assert
 388              	.LVL45:
 389 0164 0028     		cmp	r0, #0
 390 0166 40F02682 		bne	.L32
 391              	.LVL46:
 392              	.LBB380:
 393              	.LBB381:
 394              	.LBB382:
 395              	.LBB383:
 396              	.LBB384:
 397              		.loc 2 546 0
 398              		.syntax unified
 399              	@ 546 "/home/selim/working/ChibiOS/os/ext/CMSIS/include/core_cmFunc.h" 1
ARM GAS  /tmp/cc1RPLVi.s 			page 8


 400 016a 86F31188 		MSR basepri, r6
 401              	@ 0 "" 2
 402              	.LVL47:
 403              		.thumb
 404              		.syntax unified
 405              	.LBE384:
 406              	.LBE383:
 407              	.LBE382:
 408              	.LBE381:
 409              	.LBE380:
 410              	.LBB385:
 411              	.LBB386:
 412              	.LBB387:
 413              	.LBB388:
 414              		.syntax unified
 415              	@ 546 "/home/selim/working/ChibiOS/os/ext/CMSIS/include/core_cmFunc.h" 1
 416 016e 84F31188 		MSR basepri, r4
 417              	@ 0 "" 2
 418              	.LVL48:
 419              		.thumb
 420              		.syntax unified
 421              	.LBE388:
 422              	.LBE387:
 423              	.LBE386:
 424              	.LBE385:
 425              		.loc 1 180 0
 426 0172 A969     		ldr	r1, [r5, #24]
 427 0174 B1FA81F1 		clz	r1, r1
 428 0178 4909     		lsrs	r1, r1, #5
 429 017a 1F20     		movs	r0, #31
 430 017c FFF7FEFF 		bl	_test_assert
 431              	.LVL49:
 432 0180 0028     		cmp	r0, #0
 433 0182 40F01882 		bne	.L32
 434              	.LVL50:
 435              	.LBB389:
 436              	.LBB390:
 437              	.LBB391:
 438              	.LBB392:
 439              	.LBB393:
 440              		.loc 2 546 0
 441              		.syntax unified
 442              	@ 546 "/home/selim/working/ChibiOS/os/ext/CMSIS/include/core_cmFunc.h" 1
 443 0186 86F31188 		MSR basepri, r6
 444              	@ 0 "" 2
 445              	.LVL51:
 446              		.thumb
 447              		.syntax unified
 448              	.LBE393:
 449              	.LBE392:
 450              	.LBE391:
 451              	.LBE390:
 452              	.LBE389:
 453              		.loc 1 181 0
 454 018a E968     		ldr	r1, [r5, #12]
 455 018c AB68     		ldr	r3, [r5, #8]
 456 018e CB1A     		subs	r3, r1, r3
ARM GAS  /tmp/cc1RPLVi.s 			page 9


 457 0190 5942     		rsbs	r1, r3, #0
 458 0192 5941     		adcs	r1, r1, r3
 459 0194 2020     		movs	r0, #32
 460 0196 FFF7FEFF 		bl	_test_assert
 461              	.LVL52:
 462 019a 0028     		cmp	r0, #0
 463 019c 7FF466AF 		bne	.L1
 464              	.LVL53:
 465              	.LBB394:
 466              	.LBB395:
 467              	.LBB396:
 468              	.LBB397:
 469              		.loc 2 546 0
 470              		.syntax unified
 471              	@ 546 "/home/selim/working/ChibiOS/os/ext/CMSIS/include/core_cmFunc.h" 1
 472 01a0 84F31188 		MSR basepri, r4
 473              	@ 0 "" 2
 474              	.LVL54:
 475              		.thumb
 476              		.syntax unified
 477              	.LBE397:
 478              	.LBE396:
 479              	.LBE395:
 480              	.LBE394:
 481              		.loc 1 184 0
 482 01a4 4521     		movs	r1, #69
 483 01a6 6F48     		ldr	r0, .L43
 484 01a8 FFF7FEFF 		bl	chMBPostAheadI
 485              	.LVL55:
 486              		.loc 1 185 0
 487 01ac B0FA80F1 		clz	r1, r0
 488 01b0 4909     		lsrs	r1, r1, #5
 489 01b2 2120     		movs	r0, #33
 490              	.LVL56:
 491 01b4 FFF7FEFF 		bl	_test_assert
 492              	.LVL57:
 493 01b8 0028     		cmp	r0, #0
 494 01ba 7FF457AF 		bne	.L1
 495              		.loc 1 186 0
 496 01be 4421     		movs	r1, #68
 497 01c0 6848     		ldr	r0, .L43
 498 01c2 FFF7FEFF 		bl	chMBPostAheadI
 499              	.LVL58:
 500              		.loc 1 187 0
 501 01c6 B0FA80F1 		clz	r1, r0
 502 01ca 4909     		lsrs	r1, r1, #5
 503 01cc 2220     		movs	r0, #34
 504              	.LVL59:
 505 01ce FFF7FEFF 		bl	_test_assert
 506              	.LVL60:
 507 01d2 0028     		cmp	r0, #0
 508 01d4 7FF44AAF 		bne	.L1
 509              		.loc 1 188 0
 510 01d8 4321     		movs	r1, #67
 511 01da 6248     		ldr	r0, .L43
 512 01dc FFF7FEFF 		bl	chMBPostAheadI
 513              	.LVL61:
ARM GAS  /tmp/cc1RPLVi.s 			page 10


 514              		.loc 1 189 0
 515 01e0 B0FA80F1 		clz	r1, r0
 516 01e4 4909     		lsrs	r1, r1, #5
 517 01e6 2320     		movs	r0, #35
 518              	.LVL62:
 519 01e8 FFF7FEFF 		bl	_test_assert
 520              	.LVL63:
 521 01ec 0028     		cmp	r0, #0
 522 01ee 7FF43DAF 		bne	.L1
 523              		.loc 1 190 0
 524 01f2 4221     		movs	r1, #66
 525 01f4 5B48     		ldr	r0, .L43
 526 01f6 FFF7FEFF 		bl	chMBPostAheadI
 527              	.LVL64:
 528              		.loc 1 191 0
 529 01fa B0FA80F1 		clz	r1, r0
 530 01fe 4909     		lsrs	r1, r1, #5
 531 0200 2420     		movs	r0, #36
 532              	.LVL65:
 533 0202 FFF7FEFF 		bl	_test_assert
 534              	.LVL66:
 535 0206 0028     		cmp	r0, #0
 536 0208 7FF430AF 		bne	.L1
 537              		.loc 1 192 0
 538 020c 4121     		movs	r1, #65
 539 020e 5548     		ldr	r0, .L43
 540 0210 FFF7FEFF 		bl	chMBPostAheadI
 541              	.LVL67:
 542              	.LBB398:
 543              	.LBB399:
 544              	.LBB400:
 545              	.LBB401:
 546              	.LBB402:
 547              		.loc 2 546 0
 548 0214 0023     		movs	r3, #0
 549              		.syntax unified
 550              	@ 546 "/home/selim/working/ChibiOS/os/ext/CMSIS/include/core_cmFunc.h" 1
 551 0216 83F31188 		MSR basepri, r3
 552              	@ 0 "" 2
 553              	.LVL68:
 554              		.thumb
 555              		.syntax unified
 556              	.LBE402:
 557              	.LBE401:
 558              	.LBE400:
 559              	.LBE399:
 560              	.LBE398:
 561              		.loc 1 194 0
 562 021a B0FA80F1 		clz	r1, r0
 563 021e 4909     		lsrs	r1, r1, #5
 564 0220 2520     		movs	r0, #37
 565              	.LVL69:
 566 0222 FFF7FEFF 		bl	_test_assert
 567              	.LVL70:
 568 0226 0028     		cmp	r0, #0
 569 0228 7FF420AF 		bne	.L1
 570              		.loc 1 195 0
ARM GAS  /tmp/cc1RPLVi.s 			page 11


 571 022c E968     		ldr	r1, [r5, #12]
 572 022e AB68     		ldr	r3, [r5, #8]
 573 0230 A1EB0308 		sub	r8, r1, r3
 574 0234 D8F10001 		rsbs	r1, r8, #0
 575 0238 41EB0801 		adc	r1, r1, r8
 576 023c 2620     		movs	r0, #38
 577 023e FFF7FEFF 		bl	_test_assert
 578              	.LVL71:
 579 0242 0028     		cmp	r0, #0
 580 0244 7FF412AF 		bne	.L1
 581              		.loc 1 198 0
 582 0248 DFF81881 		ldr	r8, .L43
 583              	.LBB403:
 584              	.LBB404:
 585              	.LBB405:
 586              	.LBB406:
 587              	.LBB407:
 588              		.loc 2 546 0
 589 024c 0646     		mov	r6, r0
 590              	.LVL72:
 591              	.LBE407:
 592              	.LBE406:
 593              	.LBE405:
 594              	.LBE404:
 595              	.LBE403:
 596 024e 0524     		movs	r4, #5
 597              	.LBB412:
 598              	.LBB413:
 599              	.LBB414:
 600              	.LBB415:
 601 0250 2027     		movs	r7, #32
 602              	.L16:
 603              	.LVL73:
 604              		.syntax unified
 605              	@ 546 "/home/selim/working/ChibiOS/os/ext/CMSIS/include/core_cmFunc.h" 1
 606 0252 87F31188 		MSR basepri, r7
 607              	@ 0 "" 2
 608              	.LVL74:
 609              		.thumb
 610              		.syntax unified
 611              	.LBE415:
 612              	.LBE414:
 613              	.LBE413:
 614              	.LBE412:
 615              		.loc 1 198 0
 616 0256 01A9     		add	r1, sp, #4
 617 0258 4046     		mov	r0, r8
 618 025a FFF7FEFF 		bl	chMBFetchI
 619              	.LVL75:
 620              	.LBB416:
 621              	.LBB411:
 622              	.LBB410:
 623              	.LBB409:
 624              	.LBB408:
 625              		.loc 2 546 0
 626              		.syntax unified
 627              	@ 546 "/home/selim/working/ChibiOS/os/ext/CMSIS/include/core_cmFunc.h" 1
ARM GAS  /tmp/cc1RPLVi.s 			page 12


 628 025e 86F31188 		MSR basepri, r6
 629              	@ 0 "" 2
 630              	.LVL76:
 631              		.thumb
 632              		.syntax unified
 633              	.LBE408:
 634              	.LBE409:
 635              	.LBE410:
 636              	.LBE411:
 637              	.LBE416:
 638              		.loc 1 200 0
 639 0262 B0FA80F1 		clz	r1, r0
 640 0266 4909     		lsrs	r1, r1, #5
 641 0268 2720     		movs	r0, #39
 642              	.LVL77:
 643 026a FFF7FEFF 		bl	_test_assert
 644              	.LVL78:
 645 026e 0028     		cmp	r0, #0
 646 0270 7FF4FCAE 		bne	.L1
 647              		.loc 1 201 0 discriminator 2
 648 0274 9DF80400 		ldrb	r0, [sp, #4]	@ zero_extendqisi2
 649 0278 FFF7FEFF 		bl	test_emit_token
 650              	.LVL79:
 651              		.loc 1 196 0 discriminator 2
 652 027c 013C     		subs	r4, r4, #1
 653              	.LVL80:
 654 027e E8D1     		bne	.L16
 655              		.loc 1 203 0
 656 0280 3949     		ldr	r1, .L43+4
 657 0282 2820     		movs	r0, #40
 658 0284 FFF7FEFF 		bl	_test_assert_sequence
 659              	.LVL81:
 660 0288 0028     		cmp	r0, #0
 661 028a 7FF4EFAE 		bne	.L1
 662              	.LVL82:
 663              	.LBB417:
 664              	.LBB418:
 665              	.LBB419:
 666              	.LBB420:
 667              		.loc 2 546 0
 668              		.syntax unified
 669              	@ 546 "/home/selim/working/ChibiOS/os/ext/CMSIS/include/core_cmFunc.h" 1
 670 028e 87F31188 		MSR basepri, r7
 671              	@ 0 "" 2
 672              	.LVL83:
 673              		.thumb
 674              		.syntax unified
 675              	.LBE420:
 676              	.LBE419:
 677              	.LBE418:
 678              	.LBE417:
 679              		.loc 1 204 0
 680 0292 696A     		ldr	r1, [r5, #36]
 681 0294 A1F1050C 		sub	ip, r1, #5
 682 0298 DCF10001 		rsbs	r1, ip, #0
 683 029c 41EB0C01 		adc	r1, r1, ip
 684 02a0 2920     		movs	r0, #41
ARM GAS  /tmp/cc1RPLVi.s 			page 13


 685 02a2 FFF7FEFF 		bl	_test_assert
 686              	.LVL84:
 687 02a6 0028     		cmp	r0, #0
 688 02a8 40F0C680 		bne	.L30
 689              	.LVL85:
 690              	.LBB421:
 691              	.LBB422:
 692              	.LBB423:
 693              	.LBB424:
 694              	.LBB425:
 695              		.loc 2 546 0
 696              		.syntax unified
 697              	@ 546 "/home/selim/working/ChibiOS/os/ext/CMSIS/include/core_cmFunc.h" 1
 698 02ac 84F31188 		MSR basepri, r4
 699              	@ 0 "" 2
 700              	.LVL86:
 701              		.thumb
 702              		.syntax unified
 703              	.LBE425:
 704              	.LBE424:
 705              	.LBE423:
 706              	.LBE422:
 707              	.LBE421:
 708              	.LBB426:
 709              	.LBB427:
 710              	.LBB428:
 711              	.LBB429:
 712              		.syntax unified
 713              	@ 546 "/home/selim/working/ChibiOS/os/ext/CMSIS/include/core_cmFunc.h" 1
 714 02b0 87F31188 		MSR basepri, r7
 715              	@ 0 "" 2
 716              	.LVL87:
 717              		.thumb
 718              		.syntax unified
 719              	.LBE429:
 720              	.LBE428:
 721              	.LBE427:
 722              	.LBE426:
 723              		.loc 1 205 0
 724 02b4 A969     		ldr	r1, [r5, #24]
 725 02b6 B1FA81F1 		clz	r1, r1
 726 02ba 4909     		lsrs	r1, r1, #5
 727 02bc 2A20     		movs	r0, #42
 728 02be FFF7FEFF 		bl	_test_assert
 729              	.LVL88:
 730 02c2 0028     		cmp	r0, #0
 731 02c4 40F0B880 		bne	.L30
 732              	.LVL89:
 733              	.LBB430:
 734              	.LBB431:
 735              	.LBB432:
 736              	.LBB433:
 737              	.LBB434:
 738              		.loc 2 546 0
 739              		.syntax unified
 740              	@ 546 "/home/selim/working/ChibiOS/os/ext/CMSIS/include/core_cmFunc.h" 1
 741 02c8 84F31188 		MSR basepri, r4
ARM GAS  /tmp/cc1RPLVi.s 			page 14


 742              	@ 0 "" 2
 743              	.LVL90:
 744              		.thumb
 745              		.syntax unified
 746              	.LBE434:
 747              	.LBE433:
 748              	.LBE432:
 749              	.LBE431:
 750              	.LBE430:
 751              		.loc 1 206 0
 752 02cc E968     		ldr	r1, [r5, #12]
 753 02ce AB68     		ldr	r3, [r5, #8]
 754 02d0 A1EB030E 		sub	lr, r1, r3
 755 02d4 DEF10001 		rsbs	r1, lr, #0
 756 02d8 41EB0E01 		adc	r1, r1, lr
 757 02dc 2B20     		movs	r0, #43
 758 02de FFF7FEFF 		bl	_test_assert
 759              	.LVL91:
 760 02e2 0028     		cmp	r0, #0
 761 02e4 7FF4C2AE 		bne	.L1
 762              		.loc 1 211 0
 763 02e8 1E48     		ldr	r0, .L43
 764 02ea FFF7FEFF 		bl	chMBReset
 765              	.LVL92:
 766              	.LBB435:
 767              	.LBB436:
 768              	.LBB437:
 769              	.LBB438:
 770              		.loc 2 546 0
 771              		.syntax unified
 772              	@ 546 "/home/selim/working/ChibiOS/os/ext/CMSIS/include/core_cmFunc.h" 1
 773 02ee 87F31188 		MSR basepri, r7
 774              	@ 0 "" 2
 775              	.LVL93:
 776              		.thumb
 777              		.syntax unified
 778              	.LBE438:
 779              	.LBE437:
 780              	.LBE436:
 781              	.LBE435:
 782              		.loc 1 216 0
 783 02f2 696A     		ldr	r1, [r5, #36]
 784 02f4 4E1F     		subs	r6, r1, #5
 785 02f6 7142     		rsbs	r1, r6, #0
 786 02f8 7141     		adcs	r1, r1, r6
 787 02fa 2C20     		movs	r0, #44
 788 02fc FFF7FEFF 		bl	_test_assert
 789              	.LVL94:
 790 0300 0028     		cmp	r0, #0
 791 0302 40F09980 		bne	.L30
 792              	.LVL95:
 793              	.LBB439:
 794              	.LBB440:
 795              	.LBB441:
 796              	.LBB442:
 797              	.LBB443:
 798              		.loc 2 546 0
ARM GAS  /tmp/cc1RPLVi.s 			page 15


 799              		.syntax unified
 800              	@ 546 "/home/selim/working/ChibiOS/os/ext/CMSIS/include/core_cmFunc.h" 1
 801 0306 84F31188 		MSR basepri, r4
 802              	@ 0 "" 2
 803              	.LVL96:
 804              		.thumb
 805              		.syntax unified
 806              	.LBE443:
 807              	.LBE442:
 808              	.LBE441:
 809              	.LBE440:
 810              	.LBE439:
 811              	.LBB444:
 812              	.LBB445:
 813              	.LBB446:
 814              	.LBB447:
 815              		.syntax unified
 816              	@ 546 "/home/selim/working/ChibiOS/os/ext/CMSIS/include/core_cmFunc.h" 1
 817 030a 87F31188 		MSR basepri, r7
 818              	@ 0 "" 2
 819              	.LVL97:
 820              		.thumb
 821              		.syntax unified
 822              	.LBE447:
 823              	.LBE446:
 824              	.LBE445:
 825              	.LBE444:
 826              		.loc 1 217 0
 827 030e A969     		ldr	r1, [r5, #24]
 828 0310 B1FA81F1 		clz	r1, r1
 829 0314 4909     		lsrs	r1, r1, #5
 830 0316 2D20     		movs	r0, #45
 831 0318 FFF7FEFF 		bl	_test_assert
 832              	.LVL98:
 833 031c 0028     		cmp	r0, #0
 834 031e 40F08B80 		bne	.L30
 835              	.LVL99:
 836              	.LBB448:
 837              	.LBB449:
 838              	.LBB450:
 839              	.LBB451:
 840              	.LBB452:
 841              		.loc 2 546 0
 842              		.syntax unified
 843              	@ 546 "/home/selim/working/ChibiOS/os/ext/CMSIS/include/core_cmFunc.h" 1
 844 0322 84F31188 		MSR basepri, r4
 845              	@ 0 "" 2
 846              	.LVL100:
 847              		.thumb
 848              		.syntax unified
 849              	.LBE452:
 850              	.LBE451:
 851              	.LBE450:
 852              	.LBE449:
 853              	.LBE448:
 854              	.LBB453:
 855              	.LBB454:
ARM GAS  /tmp/cc1RPLVi.s 			page 16


 856              	.LBB455:
 857              	.LBB456:
 858              		.syntax unified
 859              	@ 546 "/home/selim/working/ChibiOS/os/ext/CMSIS/include/core_cmFunc.h" 1
 860 0326 87F31188 		MSR basepri, r7
 861              	@ 0 "" 2
 862              	.LVL101:
 863              		.thumb
 864              		.syntax unified
 865              	.LBE456:
 866              	.LBE455:
 867              	.LBE454:
 868              	.LBE453:
 869              		.loc 1 218 0
 870 032a 2968     		ldr	r1, [r5]
 871 032c AB68     		ldr	r3, [r5, #8]
 872 032e CA1A     		subs	r2, r1, r3
 873 0330 5142     		rsbs	r1, r2, #0
 874 0332 5141     		adcs	r1, r1, r2
 875 0334 2E20     		movs	r0, #46
 876 0336 FFF7FEFF 		bl	_test_assert
 877              	.LVL102:
 878 033a 0028     		cmp	r0, #0
 879 033c 7CD1     		bne	.L30
 880              	.LVL103:
 881              	.LBB457:
 882              	.LBB458:
 883              	.LBB459:
 884              	.LBB460:
 885              	.LBB461:
 886              		.loc 2 546 0
 887              		.syntax unified
 888              	@ 546 "/home/selim/working/ChibiOS/os/ext/CMSIS/include/core_cmFunc.h" 1
 889 033e 84F31188 		MSR basepri, r4
 890              	@ 0 "" 2
 891              	.LVL104:
 892              		.thumb
 893              		.syntax unified
 894              	.LBE461:
 895              	.LBE460:
 896              	.LBE459:
 897              	.LBE458:
 898              	.LBE457:
 899              	.LBB462:
 900              	.LBB463:
 901              	.LBB464:
 902              	.LBB465:
 903              		.syntax unified
 904              	@ 546 "/home/selim/working/ChibiOS/os/ext/CMSIS/include/core_cmFunc.h" 1
 905 0342 87F31188 		MSR basepri, r7
 906              	@ 0 "" 2
 907              	.LVL105:
 908              		.thumb
 909              		.syntax unified
 910              	.LBE465:
 911              	.LBE464:
 912              	.LBE463:
ARM GAS  /tmp/cc1RPLVi.s 			page 17


 913              	.LBE462:
 914              		.loc 1 219 0
 915 0346 2968     		ldr	r1, [r5]
 916 0348 EB68     		ldr	r3, [r5, #12]
 917 034a CB1A     		subs	r3, r1, r3
 918 034c 5942     		rsbs	r1, r3, #0
 919 034e 4FF02F00 		mov	r0, #47
 920 0352 5941     		adcs	r1, r1, r3
 921 0354 FFF7FEFF 		bl	_test_assert
 922              	.LVL106:
 923              	.L33:
 924              	.LBB466:
 925              	.LBB467:
 926              	.LBB468:
 927              	.LBB469:
 928              	.LBB470:
 929              		.loc 2 546 0
 930 0358 0023     		movs	r3, #0
 931              	.L22:
 932              	.LVL107:
 933              	.LBE470:
 934              	.LBE469:
 935              	.LBE468:
 936              	.LBE467:
 937              	.LBE466:
 938              	.LBB471:
 939              	.LBB472:
 940              	.LBB473:
 941              	.LBB474:
 942              	.LBB475:
 943              		.syntax unified
 944              	@ 546 "/home/selim/working/ChibiOS/os/ext/CMSIS/include/core_cmFunc.h" 1
 945 035a 83F31188 		MSR basepri, r3
 946              	@ 0 "" 2
 947              	.LVL108:
 948              		.thumb
 949              		.syntax unified
 950              	.LBE475:
 951              	.LBE474:
 952              	.LBE473:
 953              	.LBE472:
 954              	.LBE471:
 955              		.loc 1 220 0
 956 035e 02B0     		add	sp, sp, #8
 957              		.cfi_remember_state
 958              		.cfi_def_cfa_offset 24
 959              		@ sp needed
 960 0360 BDE8F081 		pop	{r4, r5, r6, r7, r8, pc}
 961              	.L44:
 962              		.align	2
 963              	.L43:
 964 0364 00000000 		.word	.LANCHOR0
 965 0368 00000000 		.word	.LC0
 966              	.LVL109:
 967              	.L35:
 968              		.cfi_restore_state
 969              		.loc 1 98 0
ARM GAS  /tmp/cc1RPLVi.s 			page 18


 970 036c 0122     		movs	r2, #1
 971 036e 5821     		movs	r1, #88
 972 0370 9248     		ldr	r0, .L45
 973 0372 FFF7FEFF 		bl	chMBPost
 974              	.LVL110:
 975              		.loc 1 99 0
 976 0376 A0F1FF31 		sub	r1, r0, #-1
 977 037a B1FA81F1 		clz	r1, r1
 978 037e 4909     		lsrs	r1, r1, #5
 979 0380 0420     		movs	r0, #4
 980              	.LVL111:
 981 0382 FFF7FEFF 		bl	_test_assert
 982              	.LVL112:
 983 0386 0446     		mov	r4, r0
 984              	.LVL113:
 985 0388 0028     		cmp	r0, #0
 986 038a 7FF46FAE 		bne	.L1
 987              	.LVL114:
 988              	.LBB476:
 989              	.LBB477:
 990              	.LBB478:
 991              	.LBB479:
 992              		.loc 2 546 0
 993 038e 2026     		movs	r6, #32
 994              		.syntax unified
 995              	@ 546 "/home/selim/working/ChibiOS/os/ext/CMSIS/include/core_cmFunc.h" 1
 996 0390 86F31188 		MSR basepri, r6
 997              	@ 0 "" 2
 998              	.LVL115:
 999              		.thumb
 1000              		.syntax unified
 1001              	.LBE479:
 1002              	.LBE478:
 1003              	.LBE477:
 1004              	.LBE476:
 1005              		.loc 1 101 0
 1006 0394 5821     		movs	r1, #88
 1007 0396 8948     		ldr	r0, .L45
 1008 0398 FFF7FEFF 		bl	chMBPostI
 1009              	.LVL116:
 1010 039c 0146     		mov	r1, r0
 1011              	.LVL117:
 1012              	.LBB480:
 1013              	.LBB481:
 1014              	.LBB482:
 1015              	.LBB483:
 1016              	.LBB484:
 1017              		.loc 2 546 0
 1018              		.syntax unified
 1019              	@ 546 "/home/selim/working/ChibiOS/os/ext/CMSIS/include/core_cmFunc.h" 1
 1020 039e 84F31188 		MSR basepri, r4
 1021              	@ 0 "" 2
 1022              	.LVL118:
 1023              		.thumb
 1024              		.syntax unified
 1025              	.LBE484:
 1026              	.LBE483:
ARM GAS  /tmp/cc1RPLVi.s 			page 19


 1027              	.LBE482:
 1028              	.LBE481:
 1029              	.LBE480:
 1030              		.loc 1 103 0
 1031 03a2 A1F1FF31 		sub	r1, r1, #-1
 1032 03a6 B1FA81F1 		clz	r1, r1
 1033 03aa 0520     		movs	r0, #5
 1034              	.LVL119:
 1035 03ac 4909     		lsrs	r1, r1, #5
 1036 03ae FFF7FEFF 		bl	_test_assert
 1037              	.LVL120:
 1038 03b2 0028     		cmp	r0, #0
 1039 03b4 7FF45AAE 		bne	.L1
 1040              		.loc 1 104 0
 1041 03b8 0122     		movs	r2, #1
 1042 03ba 5821     		movs	r1, #88
 1043 03bc 7F48     		ldr	r0, .L45
 1044 03be FFF7FEFF 		bl	chMBPostAhead
 1045              	.LVL121:
 1046              		.loc 1 105 0
 1047 03c2 A0F1FF31 		sub	r1, r0, #-1
 1048 03c6 B1FA81F1 		clz	r1, r1
 1049 03ca 4909     		lsrs	r1, r1, #5
 1050 03cc 0620     		movs	r0, #6
 1051              	.LVL122:
 1052 03ce FFF7FEFF 		bl	_test_assert
 1053              	.LVL123:
 1054 03d2 0446     		mov	r4, r0
 1055 03d4 0028     		cmp	r0, #0
 1056 03d6 7FF449AE 		bne	.L1
 1057              	.LVL124:
 1058              	.LBB485:
 1059              	.LBB486:
 1060              	.LBB487:
 1061              	.LBB488:
 1062              		.loc 2 546 0
 1063              		.syntax unified
 1064              	@ 546 "/home/selim/working/ChibiOS/os/ext/CMSIS/include/core_cmFunc.h" 1
 1065 03da 86F31188 		MSR basepri, r6
 1066              	@ 0 "" 2
 1067              	.LVL125:
 1068              		.thumb
 1069              		.syntax unified
 1070              	.LBE488:
 1071              	.LBE487:
 1072              	.LBE486:
 1073              	.LBE485:
 1074              		.loc 1 107 0
 1075 03de 5821     		movs	r1, #88
 1076 03e0 7648     		ldr	r0, .L45
 1077 03e2 FFF7FEFF 		bl	chMBPostAheadI
 1078              	.LVL126:
 1079 03e6 0146     		mov	r1, r0
 1080              	.LVL127:
 1081              	.LBB489:
 1082              	.LBB490:
 1083              	.LBB491:
ARM GAS  /tmp/cc1RPLVi.s 			page 20


 1084              	.LBB492:
 1085              	.LBB493:
 1086              		.loc 2 546 0
 1087              		.syntax unified
 1088              	@ 546 "/home/selim/working/ChibiOS/os/ext/CMSIS/include/core_cmFunc.h" 1
 1089 03e8 84F31188 		MSR basepri, r4
 1090              	@ 0 "" 2
 1091              	.LVL128:
 1092              		.thumb
 1093              		.syntax unified
 1094              	.LBE493:
 1095              	.LBE492:
 1096              	.LBE491:
 1097              	.LBE490:
 1098              	.LBE489:
 1099              		.loc 1 109 0
 1100 03ec A1F1FF31 		sub	r1, r1, #-1
 1101 03f0 B1FA81F1 		clz	r1, r1
 1102 03f4 0720     		movs	r0, #7
 1103              	.LVL129:
 1104 03f6 4909     		lsrs	r1, r1, #5
 1105 03f8 FFF7FEFF 		bl	_test_assert
 1106              	.LVL130:
 1107 03fc 0746     		mov	r7, r0
 1108 03fe 0028     		cmp	r0, #0
 1109 0400 7FF434AE 		bne	.L1
 1110              	.LVL131:
 1111              	.LBB494:
 1112              	.LBB495:
 1113              	.LBB496:
 1114              	.LBB497:
 1115              		.loc 2 546 0
 1116              		.syntax unified
 1117              	@ 546 "/home/selim/working/ChibiOS/os/ext/CMSIS/include/core_cmFunc.h" 1
 1118 0404 86F31188 		MSR basepri, r6
 1119              	@ 0 "" 2
 1120              	.LVL132:
 1121              		.thumb
 1122              		.syntax unified
 1123              	.LBE497:
 1124              	.LBE496:
 1125              	.LBE495:
 1126              	.LBE494:
 1127              		.loc 1 114 0
 1128 0408 696A     		ldr	r1, [r5, #36]
 1129 040a B1FA81F1 		clz	r1, r1
 1130 040e 4909     		lsrs	r1, r1, #5
 1131 0410 0820     		movs	r0, #8
 1132 0412 FFF7FEFF 		bl	_test_assert
 1133              	.LVL133:
 1134 0416 0446     		mov	r4, r0
 1135 0418 10B1     		cbz	r0, .L36
 1136              	.LVL134:
 1137              	.L31:
 1138              	.LBB498:
 1139              	.LBB499:
 1140              	.LBB500:
ARM GAS  /tmp/cc1RPLVi.s 			page 21


 1141              	.LBB501:
 1142              	.LBB502:
 1143              		.loc 2 546 0
 1144              		.syntax unified
 1145              	@ 546 "/home/selim/working/ChibiOS/os/ext/CMSIS/include/core_cmFunc.h" 1
 1146 041a 87F31188 		MSR basepri, r7
 1147              	@ 0 "" 2
 1148              	.LVL135:
 1149              		.thumb
 1150              		.syntax unified
 1151 041e 25E6     		b	.L1
 1152              	.LVL136:
 1153              	.L36:
 1154              	.LBE502:
 1155              	.LBE501:
 1156              	.LBE500:
 1157              	.LBE499:
 1158              	.LBE498:
 1159              	.LBB503:
 1160              	.LBB504:
 1161              	.LBB505:
 1162              	.LBB506:
 1163              	.LBB507:
 1164              		.syntax unified
 1165              	@ 546 "/home/selim/working/ChibiOS/os/ext/CMSIS/include/core_cmFunc.h" 1
 1166 0420 80F31188 		MSR basepri, r0
 1167              	@ 0 "" 2
 1168              	.LVL137:
 1169              		.thumb
 1170              		.syntax unified
 1171              	.LBE507:
 1172              	.LBE506:
 1173              	.LBE505:
 1174              	.LBE504:
 1175              	.LBE503:
 1176              	.LBB508:
 1177              	.LBB509:
 1178              	.LBB510:
 1179              	.LBB511:
 1180              		.syntax unified
 1181              	@ 546 "/home/selim/working/ChibiOS/os/ext/CMSIS/include/core_cmFunc.h" 1
 1182 0424 86F31188 		MSR basepri, r6
 1183              	@ 0 "" 2
 1184              	.LVL138:
 1185              		.thumb
 1186              		.syntax unified
 1187              	.LBE511:
 1188              	.LBE510:
 1189              	.LBE509:
 1190              	.LBE508:
 1191              		.loc 1 115 0
 1192 0428 A969     		ldr	r1, [r5, #24]
 1193 042a 4F1F     		subs	r7, r1, #5
 1194 042c 7942     		rsbs	r1, r7, #0
 1195 042e 7941     		adcs	r1, r1, r7
 1196 0430 0920     		movs	r0, #9
 1197 0432 FFF7FEFF 		bl	_test_assert
ARM GAS  /tmp/cc1RPLVi.s 			page 22


 1198              	.LVL139:
 1199 0436 10B1     		cbz	r0, .L37
 1200              	.LVL140:
 1201              	.L30:
 1202              	.LBB512:
 1203              	.LBB513:
 1204              	.LBB514:
 1205              	.LBB515:
 1206              	.LBB516:
 1207              		.loc 2 546 0
 1208              		.syntax unified
 1209              	@ 546 "/home/selim/working/ChibiOS/os/ext/CMSIS/include/core_cmFunc.h" 1
 1210 0438 84F31188 		MSR basepri, r4
 1211              	@ 0 "" 2
 1212              	.LVL141:
 1213              		.thumb
 1214              		.syntax unified
 1215 043c 16E6     		b	.L1
 1216              	.LVL142:
 1217              	.L37:
 1218              	.LBE516:
 1219              	.LBE515:
 1220              	.LBE514:
 1221              	.LBE513:
 1222              	.LBE512:
 1223              	.LBB517:
 1224              	.LBB518:
 1225              	.LBB519:
 1226              	.LBB520:
 1227              	.LBB521:
 1228              		.syntax unified
 1229              	@ 546 "/home/selim/working/ChibiOS/os/ext/CMSIS/include/core_cmFunc.h" 1
 1230 043e 80F31188 		MSR basepri, r0
 1231              	@ 0 "" 2
 1232              	.LVL143:
 1233              		.thumb
 1234              		.syntax unified
 1235              	.LBE521:
 1236              	.LBE520:
 1237              	.LBE519:
 1238              	.LBE518:
 1239              	.LBE517:
 1240              	.LBB522:
 1241              	.LBB523:
 1242              	.LBB524:
 1243              	.LBB525:
 1244              		.syntax unified
 1245              	@ 546 "/home/selim/working/ChibiOS/os/ext/CMSIS/include/core_cmFunc.h" 1
 1246 0442 86F31188 		MSR basepri, r6
 1247              	@ 0 "" 2
 1248              	.LVL144:
 1249              		.thumb
 1250              		.syntax unified
 1251              	.LBE525:
 1252              	.LBE524:
 1253              	.LBE523:
 1254              	.LBE522:
ARM GAS  /tmp/cc1RPLVi.s 			page 23


 1255              		.loc 1 116 0
 1256 0446 E968     		ldr	r1, [r5, #12]
 1257 0448 AB68     		ldr	r3, [r5, #8]
 1258 044a CC1A     		subs	r4, r1, r3
 1259 044c 6142     		rsbs	r1, r4, #0
 1260 044e 4FF00A00 		mov	r0, #10
 1261 0452 6141     		adcs	r1, r1, r4
 1262 0454 FFF7FEFF 		bl	_test_assert
 1263              	.LVL145:
 1264              	.LBB526:
 1265              	.LBB527:
 1266              	.LBB528:
 1267              	.LBB529:
 1268              	.LBB530:
 1269              		.loc 2 546 0
 1270 0458 0023     		movs	r3, #0
 1271              	.LBE530:
 1272              	.LBE529:
 1273              	.LBE528:
 1274              	.LBE527:
 1275              	.LBE526:
 1276              		.loc 1 116 0
 1277 045a 0028     		cmp	r0, #0
 1278 045c 7FF47DAF 		bne	.L22
 1279              	.LVL146:
 1280              	.LBB531:
 1281              	.LBB532:
 1282              	.LBB533:
 1283              	.LBB534:
 1284              	.LBB535:
 1285              		.loc 2 546 0
 1286              		.syntax unified
 1287              	@ 546 "/home/selim/working/ChibiOS/os/ext/CMSIS/include/core_cmFunc.h" 1
 1288 0460 83F31188 		MSR basepri, r3
 1289              	@ 0 "" 2
 1290              	.LVL147:
 1291              		.thumb
 1292              		.syntax unified
 1293              	.LBE535:
 1294              	.LBE534:
 1295              	.LBE533:
 1296              	.LBE532:
 1297              	.LBE531:
 1298              		.loc 1 122 0
 1299 0464 554E     		ldr	r6, .L45
 1300              	.LBB540:
 1301              	.LBB539:
 1302              	.LBB538:
 1303              	.LBB537:
 1304              	.LBB536:
 1305              		.loc 2 546 0
 1306 0466 0524     		movs	r4, #5
 1307 0468 05E0     		b	.L9
 1308              	.LVL148:
 1309              	.L39:
 1310              	.LBE536:
 1311              	.LBE537:
ARM GAS  /tmp/cc1RPLVi.s 			page 24


 1312              	.LBE538:
 1313              	.LBE539:
 1314              	.LBE540:
 1315              		.loc 1 124 0 discriminator 2
 1316 046a 9DF80400 		ldrb	r0, [sp, #4]	@ zero_extendqisi2
 1317 046e FFF7FEFF 		bl	test_emit_token
 1318              	.LVL149:
 1319              		.loc 1 121 0 discriminator 2
 1320 0472 013C     		subs	r4, r4, #1
 1321              	.LVL150:
 1322 0474 0ED0     		beq	.L38
 1323              	.LVL151:
 1324              	.L9:
 1325              		.loc 1 122 0
 1326 0476 01A9     		add	r1, sp, #4
 1327 0478 4FF0FF32 		mov	r2, #-1
 1328 047c 3046     		mov	r0, r6
 1329 047e FFF7FEFF 		bl	chMBFetch
 1330              	.LVL152:
 1331              		.loc 1 123 0
 1332 0482 B0FA80F1 		clz	r1, r0
 1333 0486 4909     		lsrs	r1, r1, #5
 1334 0488 0B20     		movs	r0, #11
 1335              	.LVL153:
 1336 048a FFF7FEFF 		bl	_test_assert
 1337              	.LVL154:
 1338 048e 0028     		cmp	r0, #0
 1339 0490 EBD0     		beq	.L39
 1340 0492 EBE5     		b	.L1
 1341              	.L38:
 1342              		.loc 1 126 0
 1343 0494 4A49     		ldr	r1, .L45+4
 1344 0496 0C20     		movs	r0, #12
 1345 0498 FFF7FEFF 		bl	_test_assert_sequence
 1346              	.LVL155:
 1347 049c 0028     		cmp	r0, #0
 1348 049e 7FF4E5AD 		bne	.L1
 1349              		.loc 1 131 0
 1350 04a2 4721     		movs	r1, #71
 1351 04a4 4FF0FF32 		mov	r2, #-1
 1352 04a8 4448     		ldr	r0, .L45
 1353 04aa FFF7FEFF 		bl	chMBPost
 1354              	.LVL156:
 1355              		.loc 1 132 0
 1356 04ae B0FA80F1 		clz	r1, r0
 1357 04b2 4909     		lsrs	r1, r1, #5
 1358 04b4 0D20     		movs	r0, #13
 1359              	.LVL157:
 1360 04b6 FFF7FEFF 		bl	_test_assert
 1361              	.LVL158:
 1362 04ba 0028     		cmp	r0, #0
 1363 04bc 7FF4D6AD 		bne	.L1
 1364              		.loc 1 133 0
 1365 04c0 01A9     		add	r1, sp, #4
 1366 04c2 4FF0FF32 		mov	r2, #-1
 1367 04c6 3D48     		ldr	r0, .L45
 1368 04c8 FFF7FEFF 		bl	chMBFetch
ARM GAS  /tmp/cc1RPLVi.s 			page 25


 1369              	.LVL159:
 1370              		.loc 1 134 0
 1371 04cc B0FA80F1 		clz	r1, r0
 1372 04d0 4909     		lsrs	r1, r1, #5
 1373 04d2 0E20     		movs	r0, #14
 1374              	.LVL160:
 1375 04d4 FFF7FEFF 		bl	_test_assert
 1376              	.LVL161:
 1377 04d8 0028     		cmp	r0, #0
 1378 04da 7FF4C7AD 		bne	.L1
 1379              		.loc 1 135 0
 1380 04de 2968     		ldr	r1, [r5]
 1381 04e0 AB68     		ldr	r3, [r5, #8]
 1382 04e2 CA1A     		subs	r2, r1, r3
 1383 04e4 5142     		rsbs	r1, r2, #0
 1384 04e6 5141     		adcs	r1, r1, r2
 1385 04e8 0F20     		movs	r0, #15
 1386 04ea FFF7FEFF 		bl	_test_assert
 1387              	.LVL162:
 1388 04ee 0028     		cmp	r0, #0
 1389 04f0 7FF4BCAD 		bne	.L1
 1390              		.loc 1 136 0
 1391 04f4 2968     		ldr	r1, [r5]
 1392 04f6 EB68     		ldr	r3, [r5, #12]
 1393 04f8 CB1A     		subs	r3, r1, r3
 1394 04fa 5942     		rsbs	r1, r3, #0
 1395 04fc 5941     		adcs	r1, r1, r3
 1396 04fe 1020     		movs	r0, #16
 1397 0500 FFF7FEFF 		bl	_test_assert
 1398              	.LVL163:
 1399 0504 0028     		cmp	r0, #0
 1400 0506 7FF4B1AD 		bne	.L1
 1401              		.loc 1 141 0
 1402 050a 01A9     		add	r1, sp, #4
 1403 050c 0122     		movs	r2, #1
 1404 050e 2B48     		ldr	r0, .L45
 1405 0510 FFF7FEFF 		bl	chMBFetch
 1406              	.LVL164:
 1407              		.loc 1 142 0
 1408 0514 00F10108 		add	r8, r0, #1
 1409 0518 D8F10001 		rsbs	r1, r8, #0
 1410 051c 41EB0801 		adc	r1, r1, r8
 1411 0520 1120     		movs	r0, #17
 1412              	.LVL165:
 1413 0522 FFF7FEFF 		bl	_test_assert
 1414              	.LVL166:
 1415 0526 0028     		cmp	r0, #0
 1416 0528 7FF4A0AD 		bne	.L1
 1417              	.LVL167:
 1418              	.LBB541:
 1419              	.LBB542:
 1420              	.LBB543:
 1421              	.LBB544:
 1422              		.loc 2 546 0
 1423 052c 2026     		movs	r6, #32
 1424              		.syntax unified
 1425              	@ 546 "/home/selim/working/ChibiOS/os/ext/CMSIS/include/core_cmFunc.h" 1
ARM GAS  /tmp/cc1RPLVi.s 			page 26


 1426 052e 86F31188 		MSR basepri, r6
 1427              	@ 0 "" 2
 1428              	.LVL168:
 1429              		.thumb
 1430              		.syntax unified
 1431              	.LBE544:
 1432              	.LBE543:
 1433              	.LBE542:
 1434              	.LBE541:
 1435              		.loc 1 144 0
 1436 0532 2248     		ldr	r0, .L45
 1437 0534 01A9     		add	r1, sp, #4
 1438 0536 FFF7FEFF 		bl	chMBFetchI
 1439              	.LVL169:
 1440 053a 0146     		mov	r1, r0
 1441              	.LVL170:
 1442              	.LBB545:
 1443              	.LBB546:
 1444              	.LBB547:
 1445              	.LBB548:
 1446              	.LBB549:
 1447              		.loc 2 546 0
 1448              		.syntax unified
 1449              	@ 546 "/home/selim/working/ChibiOS/os/ext/CMSIS/include/core_cmFunc.h" 1
 1450 053c 84F31188 		MSR basepri, r4
 1451              	@ 0 "" 2
 1452              	.LVL171:
 1453              		.thumb
 1454              		.syntax unified
 1455              	.LBE549:
 1456              	.LBE548:
 1457              	.LBE547:
 1458              	.LBE546:
 1459              	.LBE545:
 1460              		.loc 1 146 0
 1461 0540 01F1010C 		add	ip, r1, #1
 1462 0544 DCF10001 		rsbs	r1, ip, #0
 1463 0548 41EB0C01 		adc	r1, r1, ip
 1464 054c 1220     		movs	r0, #18
 1465              	.LVL172:
 1466 054e FFF7FEFF 		bl	_test_assert
 1467              	.LVL173:
 1468 0552 0028     		cmp	r0, #0
 1469 0554 7FF48AAD 		bne	.L1
 1470              	.LVL174:
 1471              	.LBB550:
 1472              	.LBB551:
 1473              	.LBB552:
 1474              	.LBB553:
 1475              		.loc 2 546 0
 1476              		.syntax unified
 1477              	@ 546 "/home/selim/working/ChibiOS/os/ext/CMSIS/include/core_cmFunc.h" 1
 1478 0558 86F31188 		MSR basepri, r6
 1479              	@ 0 "" 2
 1480              	.LVL175:
 1481              		.thumb
 1482              		.syntax unified
ARM GAS  /tmp/cc1RPLVi.s 			page 27


 1483              	.LBE553:
 1484              	.LBE552:
 1485              	.LBE551:
 1486              	.LBE550:
 1487              		.loc 1 151 0
 1488 055c 696A     		ldr	r1, [r5, #36]
 1489 055e A1F1050E 		sub	lr, r1, #5
 1490 0562 DEF10001 		rsbs	r1, lr, #0
 1491 0566 41EB0E01 		adc	r1, r1, lr
 1492 056a 1320     		movs	r0, #19
 1493 056c FFF7FEFF 		bl	_test_assert
 1494              	.LVL176:
 1495 0570 0028     		cmp	r0, #0
 1496 0572 7FF4F1AE 		bne	.L33
 1497              	.LVL177:
 1498              	.LBB554:
 1499              	.LBB555:
 1500              	.LBB556:
 1501              	.LBB557:
 1502              	.LBB558:
 1503              		.loc 2 546 0
 1504 0576 0027     		movs	r7, #0
 1505              		.syntax unified
 1506              	@ 546 "/home/selim/working/ChibiOS/os/ext/CMSIS/include/core_cmFunc.h" 1
 1507 0578 87F31188 		MSR basepri, r7
 1508              	@ 0 "" 2
 1509              	.LVL178:
 1510              		.thumb
 1511              		.syntax unified
 1512              	.LBE558:
 1513              	.LBE557:
 1514              	.LBE556:
 1515              	.LBE555:
 1516              	.LBE554:
 1517              	.LBB559:
 1518              	.LBB560:
 1519              	.LBB561:
 1520              	.LBB562:
 1521 057c 2024     		movs	r4, #32
 1522              	.LVL179:
 1523              		.syntax unified
 1524              	@ 546 "/home/selim/working/ChibiOS/os/ext/CMSIS/include/core_cmFunc.h" 1
 1525 057e 84F31188 		MSR basepri, r4
 1526              	@ 0 "" 2
 1527              	.LVL180:
 1528              		.thumb
 1529              		.syntax unified
 1530              	.LBE562:
 1531              	.LBE561:
 1532              	.LBE560:
 1533              	.LBE559:
 1534              		.loc 1 152 0
 1535 0582 A969     		ldr	r1, [r5, #24]
 1536 0584 B1FA81F1 		clz	r1, r1
 1537 0588 4909     		lsrs	r1, r1, #5
 1538 058a 1420     		movs	r0, #20
 1539 058c FFF7FEFF 		bl	_test_assert
ARM GAS  /tmp/cc1RPLVi.s 			page 28


 1540              	.LVL181:
 1541 0590 0646     		mov	r6, r0
 1542 0592 0028     		cmp	r0, #0
 1543 0594 7FF441AF 		bne	.L31
 1544              	.LVL182:
 1545              	.LBB563:
 1546              	.LBB564:
 1547              	.LBB565:
 1548              	.LBB566:
 1549              	.LBB567:
 1550              		.loc 2 546 0
 1551              		.syntax unified
 1552              	@ 546 "/home/selim/working/ChibiOS/os/ext/CMSIS/include/core_cmFunc.h" 1
 1553 0598 80F31188 		MSR basepri, r0
 1554              	@ 0 "" 2
 1555              	.LVL183:
 1556              		.thumb
 1557              		.syntax unified
 1558              	.LBE567:
 1559              	.LBE566:
 1560              	.LBE565:
 1561              	.LBE564:
 1562              	.LBE563:
 1563              	.LBB568:
 1564              	.LBB569:
 1565              	.LBB570:
 1566              	.LBB571:
 1567              		.syntax unified
 1568              	@ 546 "/home/selim/working/ChibiOS/os/ext/CMSIS/include/core_cmFunc.h" 1
 1569 059c 84F31188 		MSR basepri, r4
 1570              	@ 0 "" 2
 1571              	.LVL184:
 1572              		.thumb
 1573              		.syntax unified
 1574              	.LBE571:
 1575              	.LBE570:
 1576              	.LBE569:
 1577              	.LBE568:
 1578              		.loc 1 153 0
 1579 05a0 E968     		ldr	r1, [r5, #12]
 1580 05a2 AB68     		ldr	r3, [r5, #8]
 1581 05a4 CF1A     		subs	r7, r1, r3
 1582 05a6 7942     		rsbs	r1, r7, #0
 1583 05a8 7941     		adcs	r1, r1, r7
 1584 05aa 1520     		movs	r0, #21
 1585 05ac FFF7FEFF 		bl	_test_assert
 1586              	.LVL185:
 1587 05b0 0028     		cmp	r0, #0
 1588 05b2 3FF461AD 		beq	.L40
 1589              	.LVL186:
 1590              	.L32:
 1591              	.LBB572:
 1592              	.LBB573:
 1593              	.LBB574:
 1594              	.LBB575:
 1595              	.LBB576:
 1596              		.loc 2 546 0
ARM GAS  /tmp/cc1RPLVi.s 			page 29


 1597              		.syntax unified
 1598              	@ 546 "/home/selim/working/ChibiOS/os/ext/CMSIS/include/core_cmFunc.h" 1
 1599 05b6 86F31188 		MSR basepri, r6
 1600              	@ 0 "" 2
 1601              	.LVL187:
 1602              		.thumb
 1603              		.syntax unified
 1604 05ba 57E5     		b	.L1
 1605              	.L46:
 1606              		.align	2
 1607              	.L45:
 1608 05bc 00000000 		.word	.LANCHOR0
 1609 05c0 00000000 		.word	.LC0
 1610              	.LBE576:
 1611              	.LBE575:
 1612              	.LBE574:
 1613              	.LBE573:
 1614              	.LBE572:
 1615              		.cfi_endproc
 1616              	.LFE228:
 1617              		.size	mbox1_execute, .-mbox1_execute
 1618              		.section	.text.mbox1_setup,"ax",%progbits
 1619              		.align	1
 1620              		.p2align 4,,15
 1621              		.syntax unified
 1622              		.thumb
 1623              		.thumb_func
 1624              		.fpu softvfp
 1625              		.type	mbox1_setup, %function
 1626              	mbox1_setup:
 1627              	.LFB227:
 1628              		.loc 1 71 0
 1629              		.cfi_startproc
 1630              		@ args = 0, pretend = 0, frame = 0
 1631              		@ frame_needed = 0, uses_anonymous_args = 0
 1632              		@ link register save eliminated.
 1633              		.loc 1 73 0
 1634 0000 0522     		movs	r2, #5
 1635 0002 0249     		ldr	r1, .L48
 1636 0004 0248     		ldr	r0, .L48+4
 1637 0006 FFF7FEBF 		b	chMBObjectInit
 1638              	.LVL188:
 1639              	.L49:
 1640 000a 00BF     		.align	2
 1641              	.L48:
 1642 000c 00000000 		.word	test
 1643 0010 00000000 		.word	.LANCHOR0
 1644              		.cfi_endproc
 1645              	.LFE227:
 1646              		.size	mbox1_setup, .-mbox1_setup
 1647              		.global	patternmbox
 1648              		.global	testmbox1
 1649              		.section	.data.mb1,"aw",%progbits
 1650              		.align	2
 1651              		.set	.LANCHOR0,. + 0
 1652              		.type	mb1, %object
 1653              		.size	mb1, 40
ARM GAS  /tmp/cc1RPLVi.s 			page 30


 1654              	mb1:
 1655 0000 00000000 		.word	test
 1656 0004 14000000 		.word	test+20
 1657 0008 00000000 		.word	test
 1658 000c 00000000 		.word	test
 1659 0010 10000000 		.word	mb1+16
 1660 0014 10000000 		.word	mb1+16
 1661 0018 00000000 		.word	0
 1662 001c 1C000000 		.word	mb1+28
 1663 0020 1C000000 		.word	mb1+28
 1664 0024 05000000 		.word	5
 1665              		.section	.rodata.mbox1_execute.str1.4,"aMS",%progbits,1
 1666              		.align	2
 1667              	.LC0:
 1668 0000 41424344 		.ascii	"ABCDE\000"
 1668      4500
 1669              		.section	.rodata.patternmbox,"a",%progbits
 1670              		.align	2
 1671              		.type	patternmbox, %object
 1672              		.size	patternmbox, 8
 1673              	patternmbox:
 1674 0000 00000000 		.word	testmbox1
 1675 0004 00000000 		.word	0
 1676              		.section	.rodata.str1.4,"aMS",%progbits,1
 1677              		.align	2
 1678              	.LC1:
 1679 0000 4D61696C 		.ascii	"Mailboxes, queuing and timeouts\000"
 1679      626F7865 
 1679      732C2071 
 1679      75657569 
 1679      6E672061 
 1680              		.section	.rodata.testmbox1,"a",%progbits
 1681              		.align	2
 1682              		.type	testmbox1, %object
 1683              		.size	testmbox1, 16
 1684              	testmbox1:
 1685 0000 00000000 		.word	.LC1
 1686 0004 00000000 		.word	mbox1_setup
 1687 0008 00000000 		.word	0
 1688 000c 00000000 		.word	mbox1_execute
 1689              		.text
 1690              	.Letext0:
 1691              		.file 3 "/usr/lib/gcc/arm-none-eabi/6.2.1/include/stddef.h"
 1692              		.file 4 "/usr/arm-none-eabi/include/machine/_default_types.h"
 1693              		.file 5 "/usr/arm-none-eabi/include/sys/_stdint.h"
 1694              		.file 6 "/home/selim/working/ChibiOS/os/rt/ports/ARMCMx/compilers/GCC/chtypes.h"
 1695              		.file 7 "/home/selim/working/ChibiOS/os/rt/include/chsystypes.h"
 1696              		.file 8 "/home/selim/working/ChibiOS/os/rt/include/chschd.h"
 1697              		.file 9 "/home/selim/working/ChibiOS/os/ext/CMSIS/include/core_cm4.h"
 1698              		.file 10 "/home/selim/working/ChibiOS/os/ext/CMSIS/ST/system_stm32f4xx.h"
 1699              		.file 11 "/home/selim/working/ChibiOS/os/rt/ports/ARMCMx/chcore.h"
 1700              		.file 12 "/home/selim/working/ChibiOS/os/rt/ports/ARMCMx/chcore_v7m.h"
 1701              		.file 13 "/home/selim/working/ChibiOS/os/rt/include/chtm.h"
 1702              		.file 14 "/home/selim/working/ChibiOS/os/rt/include/chsem.h"
 1703              		.file 15 "/home/selim/working/ChibiOS/os/rt/include/chmtx.h"
 1704              		.file 16 "/home/selim/working/ChibiOS/os/rt/include/chregistry.h"
 1705              		.file 17 "/home/selim/working/ChibiOS/os/rt/include/chmboxes.h"
ARM GAS  /tmp/cc1RPLVi.s 			page 31


 1706              		.file 18 "/home/selim/working/ChibiOS/test/rt/test.h"
 1707              		.file 19 "/home/selim/working/ChibiOS/os/rt/include/chsys.h"