ARM GAS  /tmp/ccuiwpjt.s 			page 1


   1              		.cpu cortex-m4
   2              		.eabi_attribute 20, 1
   3              		.eabi_attribute 21, 1
   4              		.eabi_attribute 23, 3
   5              		.eabi_attribute 24, 1
   6              		.eabi_attribute 25, 1
   7              		.eabi_attribute 26, 1
   8              		.eabi_attribute 30, 2
   9              		.eabi_attribute 34, 1
  10              		.eabi_attribute 18, 4
  11              		.file	"testheap.c"
  12              		.text
  13              	.Ltext0:
  14              		.cfi_sections	.debug_frame
  15              		.section	.text.heap1_execute,"ax",%progbits
  16              		.align	1
  17              		.p2align 4,,15
  18              		.syntax unified
  19              		.thumb
  20              		.thumb_func
  21              		.fpu softvfp
  22              		.type	heap1_execute, %function
  23              	heap1_execute:
  24              	.LFB228:
  25              		.file 1 "/home/selim/working/ChibiOS/test/rt/testheap.c"
  26              		.loc 1 69 0
  27              		.cfi_startproc
  28              		@ args = 0, pretend = 0, frame = 8
  29              		@ frame_needed = 0, uses_anonymous_args = 0
  30 0000 70B5     		push	{r4, r5, r6, lr}
  31              		.cfi_def_cfa_offset 16
  32              		.cfi_offset 4, -16
  33              		.cfi_offset 5, -12
  34              		.cfi_offset 6, -8
  35              		.cfi_offset 14, -4
  36 0002 82B0     		sub	sp, sp, #8
  37              		.cfi_def_cfa_offset 24
  38              		.loc 1 74 0
  39 0004 FFF7FEFF 		bl	chCoreGetStatusX
  40              	.LVL0:
  41              		.loc 1 80 0
  42 0008 01A9     		add	r1, sp, #4
  43 000a 0020     		movs	r0, #0
  44 000c FFF7FEFF 		bl	chHeapStatus
  45              	.LVL1:
  46              		.loc 1 81 0
  47 0010 1021     		movs	r1, #16
  48 0012 0020     		movs	r0, #0
  49 0014 FFF7FEFF 		bl	chHeapAlloc
  50              	.LVL2:
  51              		.loc 1 82 0
  52 0018 011C     		adds	r1, r0, #0
  53 001a 0546     		mov	r5, r0
  54 001c 18BF     		it	ne
  55 001e 0121     		movne	r1, #1
  56 0020 0120     		movs	r0, #1
  57              	.LVL3:
ARM GAS  /tmp/ccuiwpjt.s 			page 2


  58 0022 FFF7FEFF 		bl	_test_assert
  59              	.LVL4:
  60 0026 08B1     		cbz	r0, .L9
  61              	.LVL5:
  62              	.L1:
  63              		.loc 1 140 0
  64 0028 02B0     		add	sp, sp, #8
  65              		.cfi_remember_state
  66              		.cfi_def_cfa_offset 16
  67              		@ sp needed
  68 002a 70BD     		pop	{r4, r5, r6, pc}
  69              	.LVL6:
  70              	.L9:
  71              		.cfi_restore_state
  72 002c 0446     		mov	r4, r0
  73              		.loc 1 83 0
  74 002e 2846     		mov	r0, r5
  75 0030 FFF7FEFF 		bl	chHeapFree
  76              	.LVL7:
  77              		.loc 1 84 0
  78 0034 6FF0FF01 		mvn	r1, #255
  79 0038 2046     		mov	r0, r4
  80 003a FFF7FEFF 		bl	chHeapAlloc
  81              	.LVL8:
  82              		.loc 1 85 0
  83 003e B0FA80F1 		clz	r1, r0
  84 0042 4909     		lsrs	r1, r1, #5
  85 0044 0220     		movs	r0, #2
  86              	.LVL9:
  87 0046 FFF7FEFF 		bl	_test_assert
  88              	.LVL10:
  89 004a 0028     		cmp	r0, #0
  90 004c ECD1     		bne	.L1
  91              		.loc 1 88 0
  92 004e 01A9     		add	r1, sp, #4
  93 0050 7D48     		ldr	r0, .L10
  94 0052 FFF7FEFF 		bl	chHeapStatus
  95              	.LVL11:
  96              		.loc 1 91 0
  97 0056 1021     		movs	r1, #16
  98 0058 7B48     		ldr	r0, .L10
  99 005a FFF7FEFF 		bl	chHeapAlloc
 100              	.LVL12:
 101              		.loc 1 92 0
 102 005e 1021     		movs	r1, #16
 103              		.loc 1 91 0
 104 0060 0646     		mov	r6, r0
 105              	.LVL13:
 106              		.loc 1 92 0
 107 0062 7948     		ldr	r0, .L10
 108              	.LVL14:
 109 0064 FFF7FEFF 		bl	chHeapAlloc
 110              	.LVL15:
 111              		.loc 1 93 0
 112 0068 1021     		movs	r1, #16
 113              		.loc 1 92 0
 114 006a 0546     		mov	r5, r0
ARM GAS  /tmp/ccuiwpjt.s 			page 3


 115              	.LVL16:
 116              		.loc 1 93 0
 117 006c 7648     		ldr	r0, .L10
 118              	.LVL17:
 119 006e FFF7FEFF 		bl	chHeapAlloc
 120              	.LVL18:
 121 0072 0446     		mov	r4, r0
 122              	.LVL19:
 123              		.loc 1 94 0
 124 0074 3046     		mov	r0, r6
 125              	.LVL20:
 126 0076 FFF7FEFF 		bl	chHeapFree
 127              	.LVL21:
 128              		.loc 1 95 0
 129 007a 2846     		mov	r0, r5
 130 007c FFF7FEFF 		bl	chHeapFree
 131              	.LVL22:
 132              		.loc 1 96 0
 133 0080 2046     		mov	r0, r4
 134 0082 FFF7FEFF 		bl	chHeapFree
 135              	.LVL23:
 136              		.loc 1 97 0
 137 0086 6946     		mov	r1, sp
 138 0088 6F48     		ldr	r0, .L10
 139 008a FFF7FEFF 		bl	chHeapStatus
 140              	.LVL24:
 141 008e A0F10101 		sub	r1, r0, #1
 142 0092 B1FA81F1 		clz	r1, r1
 143 0096 4909     		lsrs	r1, r1, #5
 144 0098 0320     		movs	r0, #3
 145 009a FFF7FEFF 		bl	_test_assert
 146              	.LVL25:
 147 009e 0028     		cmp	r0, #0
 148 00a0 C2D1     		bne	.L1
 149              		.loc 1 100 0
 150 00a2 1021     		movs	r1, #16
 151 00a4 6848     		ldr	r0, .L10
 152 00a6 FFF7FEFF 		bl	chHeapAlloc
 153              	.LVL26:
 154              		.loc 1 101 0
 155 00aa 1021     		movs	r1, #16
 156              		.loc 1 100 0
 157 00ac 0446     		mov	r4, r0
 158              	.LVL27:
 159              		.loc 1 101 0
 160 00ae 6648     		ldr	r0, .L10
 161              	.LVL28:
 162 00b0 FFF7FEFF 		bl	chHeapAlloc
 163              	.LVL29:
 164              		.loc 1 102 0
 165 00b4 1021     		movs	r1, #16
 166              		.loc 1 101 0
 167 00b6 0546     		mov	r5, r0
 168              	.LVL30:
 169              		.loc 1 102 0
 170 00b8 6348     		ldr	r0, .L10
 171              	.LVL31:
ARM GAS  /tmp/ccuiwpjt.s 			page 4


 172 00ba FFF7FEFF 		bl	chHeapAlloc
 173              	.LVL32:
 174              		.loc 1 103 0
 175 00be FFF7FEFF 		bl	chHeapFree
 176              	.LVL33:
 177              		.loc 1 104 0
 178 00c2 2846     		mov	r0, r5
 179 00c4 FFF7FEFF 		bl	chHeapFree
 180              	.LVL34:
 181              		.loc 1 105 0
 182 00c8 2046     		mov	r0, r4
 183 00ca FFF7FEFF 		bl	chHeapFree
 184              	.LVL35:
 185              		.loc 1 106 0
 186 00ce 6946     		mov	r1, sp
 187 00d0 5D48     		ldr	r0, .L10
 188 00d2 FFF7FEFF 		bl	chHeapStatus
 189              	.LVL36:
 190 00d6 A0F10101 		sub	r1, r0, #1
 191 00da B1FA81F1 		clz	r1, r1
 192 00de 4909     		lsrs	r1, r1, #5
 193 00e0 0420     		movs	r0, #4
 194 00e2 FFF7FEFF 		bl	_test_assert
 195              	.LVL37:
 196 00e6 0028     		cmp	r0, #0
 197 00e8 9ED1     		bne	.L1
 198              		.loc 1 109 0
 199 00ea 1121     		movs	r1, #17
 200 00ec 5648     		ldr	r0, .L10
 201 00ee FFF7FEFF 		bl	chHeapAlloc
 202              	.LVL38:
 203              		.loc 1 110 0
 204 00f2 1021     		movs	r1, #16
 205              		.loc 1 109 0
 206 00f4 0446     		mov	r4, r0
 207              	.LVL39:
 208              		.loc 1 110 0
 209 00f6 5448     		ldr	r0, .L10
 210              	.LVL40:
 211 00f8 FFF7FEFF 		bl	chHeapAlloc
 212              	.LVL41:
 213 00fc 0546     		mov	r5, r0
 214              	.LVL42:
 215              		.loc 1 111 0
 216 00fe 2046     		mov	r0, r4
 217              	.LVL43:
 218 0100 FFF7FEFF 		bl	chHeapFree
 219              	.LVL44:
 220              		.loc 1 112 0
 221 0104 6946     		mov	r1, sp
 222 0106 5048     		ldr	r0, .L10
 223 0108 FFF7FEFF 		bl	chHeapStatus
 224              	.LVL45:
 225 010c A0F10201 		sub	r1, r0, #2
 226 0110 B1FA81F1 		clz	r1, r1
 227 0114 4909     		lsrs	r1, r1, #5
 228 0116 0520     		movs	r0, #5
ARM GAS  /tmp/ccuiwpjt.s 			page 5


 229 0118 FFF7FEFF 		bl	_test_assert
 230              	.LVL46:
 231 011c 0028     		cmp	r0, #0
 232 011e 83D1     		bne	.L1
 233              		.loc 1 113 0
 234 0120 1021     		movs	r1, #16
 235 0122 4948     		ldr	r0, .L10
 236 0124 FFF7FEFF 		bl	chHeapAlloc
 237              	.LVL47:
 238              		.loc 1 116 0
 239 0128 6946     		mov	r1, sp
 240              		.loc 1 113 0
 241 012a 0446     		mov	r4, r0
 242              	.LVL48:
 243              		.loc 1 116 0
 244 012c 4648     		ldr	r0, .L10
 245              	.LVL49:
 246 012e FFF7FEFF 		bl	chHeapStatus
 247              	.LVL50:
 248 0132 0128     		cmp	r0, #1
 249 0134 00F08580 		beq	.L6
 250              		.loc 1 116 0 is_stmt 0 discriminator 2
 251 0138 6946     		mov	r1, sp
 252 013a 4348     		ldr	r0, .L10
 253 013c FFF7FEFF 		bl	chHeapStatus
 254              	.LVL51:
 255 0140 A0F10201 		sub	r1, r0, #2
 256 0144 B1FA81F1 		clz	r1, r1
 257 0148 4909     		lsrs	r1, r1, #5
 258              	.L5:
 259              		.loc 1 116 0 discriminator 6
 260 014a 0620     		movs	r0, #6
 261 014c FFF7FEFF 		bl	_test_assert
 262              	.LVL52:
 263 0150 0028     		cmp	r0, #0
 264 0152 7FF469AF 		bne	.L1
 265              		.loc 1 118 0 is_stmt 1
 266 0156 2846     		mov	r0, r5
 267 0158 FFF7FEFF 		bl	chHeapFree
 268              	.LVL53:
 269              		.loc 1 119 0
 270 015c 2046     		mov	r0, r4
 271 015e FFF7FEFF 		bl	chHeapFree
 272              	.LVL54:
 273              		.loc 1 120 0
 274 0162 6946     		mov	r1, sp
 275 0164 3848     		ldr	r0, .L10
 276 0166 FFF7FEFF 		bl	chHeapStatus
 277              	.LVL55:
 278 016a A0F10101 		sub	r1, r0, #1
 279 016e B1FA81F1 		clz	r1, r1
 280 0172 4909     		lsrs	r1, r1, #5
 281 0174 0720     		movs	r0, #7
 282 0176 FFF7FEFF 		bl	_test_assert
 283              	.LVL56:
 284 017a 0028     		cmp	r0, #0
 285 017c 7FF454AF 		bne	.L1
ARM GAS  /tmp/ccuiwpjt.s 			page 6


 286              		.loc 1 123 0
 287 0180 1021     		movs	r1, #16
 288 0182 3148     		ldr	r0, .L10
 289 0184 FFF7FEFF 		bl	chHeapAlloc
 290              	.LVL57:
 291              		.loc 1 124 0
 292 0188 1021     		movs	r1, #16
 293              		.loc 1 123 0
 294 018a 0546     		mov	r5, r0
 295              	.LVL58:
 296              		.loc 1 124 0
 297 018c 2E48     		ldr	r0, .L10
 298              	.LVL59:
 299 018e FFF7FEFF 		bl	chHeapAlloc
 300              	.LVL60:
 301 0192 0446     		mov	r4, r0
 302              	.LVL61:
 303              		.loc 1 125 0
 304 0194 2846     		mov	r0, r5
 305              	.LVL62:
 306 0196 FFF7FEFF 		bl	chHeapFree
 307              	.LVL63:
 308              		.loc 1 126 0
 309 019a 6946     		mov	r1, sp
 310 019c 2A48     		ldr	r0, .L10
 311 019e FFF7FEFF 		bl	chHeapStatus
 312              	.LVL64:
 313 01a2 A0F10201 		sub	r1, r0, #2
 314 01a6 B1FA81F1 		clz	r1, r1
 315 01aa 4909     		lsrs	r1, r1, #5
 316 01ac 0820     		movs	r0, #8
 317 01ae FFF7FEFF 		bl	_test_assert
 318              	.LVL65:
 319 01b2 0028     		cmp	r0, #0
 320 01b4 7FF438AF 		bne	.L1
 321              		.loc 1 127 0
 322 01b8 2021     		movs	r1, #32
 323 01ba 2348     		ldr	r0, .L10
 324 01bc FFF7FEFF 		bl	chHeapAlloc
 325              	.LVL66:
 326              		.loc 1 128 0
 327 01c0 FFF7FEFF 		bl	chHeapFree
 328              	.LVL67:
 329              		.loc 1 129 0
 330 01c4 2046     		mov	r0, r4
 331 01c6 FFF7FEFF 		bl	chHeapFree
 332              	.LVL68:
 333              		.loc 1 130 0
 334 01ca 6946     		mov	r1, sp
 335 01cc 1E48     		ldr	r0, .L10
 336 01ce FFF7FEFF 		bl	chHeapStatus
 337              	.LVL69:
 338 01d2 0138     		subs	r0, r0, #1
 339 01d4 4142     		rsbs	r1, r0, #0
 340 01d6 4141     		adcs	r1, r1, r0
 341 01d8 0920     		movs	r0, #9
 342 01da FFF7FEFF 		bl	_test_assert
ARM GAS  /tmp/ccuiwpjt.s 			page 7


 343              	.LVL70:
 344 01de 0028     		cmp	r0, #0
 345 01e0 7FF422AF 		bne	.L1
 346              		.loc 1 133 0
 347 01e4 6946     		mov	r1, sp
 348 01e6 1848     		ldr	r0, .L10
 349 01e8 FFF7FEFF 		bl	chHeapStatus
 350              	.LVL71:
 351              		.loc 1 134 0
 352 01ec 0099     		ldr	r1, [sp]
 353 01ee 1648     		ldr	r0, .L10
 354 01f0 FFF7FEFF 		bl	chHeapAlloc
 355              	.LVL72:
 356              		.loc 1 135 0
 357 01f4 6946     		mov	r1, sp
 358              		.loc 1 134 0
 359 01f6 0446     		mov	r4, r0
 360              	.LVL73:
 361              		.loc 1 135 0
 362 01f8 1348     		ldr	r0, .L10
 363              	.LVL74:
 364 01fa FFF7FEFF 		bl	chHeapStatus
 365              	.LVL75:
 366 01fe B0FA80F1 		clz	r1, r0
 367 0202 4909     		lsrs	r1, r1, #5
 368 0204 0A20     		movs	r0, #10
 369 0206 FFF7FEFF 		bl	_test_assert
 370              	.LVL76:
 371 020a 0028     		cmp	r0, #0
 372 020c 7FF40CAF 		bne	.L1
 373              		.loc 1 136 0
 374 0210 2046     		mov	r0, r4
 375 0212 FFF7FEFF 		bl	chHeapFree
 376              	.LVL77:
 377              		.loc 1 138 0
 378 0216 6946     		mov	r1, sp
 379 0218 0B48     		ldr	r0, .L10
 380 021a FFF7FEFF 		bl	chHeapStatus
 381              	.LVL78:
 382 021e 421E     		subs	r2, r0, #1
 383 0220 5142     		rsbs	r1, r2, #0
 384 0222 5141     		adcs	r1, r1, r2
 385 0224 0B20     		movs	r0, #11
 386 0226 FFF7FEFF 		bl	_test_assert
 387              	.LVL79:
 388 022a 0028     		cmp	r0, #0
 389 022c 7FF4FCAE 		bne	.L1
 390              		.loc 1 139 0
 391 0230 9DE80A00 		ldm	sp, {r1, r3}
 392 0234 CB1A     		subs	r3, r1, r3
 393 0236 5942     		rsbs	r1, r3, #0
 394 0238 5941     		adcs	r1, r1, r3
 395 023a 0C20     		movs	r0, #12
 396 023c FFF7FEFF 		bl	_test_assert
 397              	.LVL80:
 398 0240 F2E6     		b	.L1
 399              	.LVL81:
ARM GAS  /tmp/ccuiwpjt.s 			page 8


 400              	.L6:
 401 0242 0146     		mov	r1, r0
 402 0244 81E7     		b	.L5
 403              	.L11:
 404 0246 00BF     		.align	2
 405              	.L10:
 406 0248 00000000 		.word	.LANCHOR0
 407              		.cfi_endproc
 408              	.LFE228:
 409              		.size	heap1_execute, .-heap1_execute
 410              		.section	.text.heap1_setup,"ax",%progbits
 411              		.align	1
 412              		.p2align 4,,15
 413              		.syntax unified
 414              		.thumb
 415              		.thumb_func
 416              		.fpu softvfp
 417              		.type	heap1_setup, %function
 418              	heap1_setup:
 419              	.LFB227:
 420              		.loc 1 64 0
 421              		.cfi_startproc
 422              		@ args = 0, pretend = 0, frame = 0
 423              		@ frame_needed = 0, uses_anonymous_args = 0
 424              		@ link register save eliminated.
 425              		.loc 1 66 0
 426 0000 4FF4CD62 		mov	r2, #1640
 427 0004 0149     		ldr	r1, .L13
 428 0006 0248     		ldr	r0, .L13+4
 429 0008 FFF7FEBF 		b	chHeapObjectInit
 430              	.LVL82:
 431              	.L14:
 432              		.align	2
 433              	.L13:
 434 000c 00000000 		.word	test
 435 0010 00000000 		.word	.LANCHOR0
 436              		.cfi_endproc
 437              	.LFE227:
 438              		.size	heap1_setup, .-heap1_setup
 439              		.global	patternheap
 440              		.global	testheap1
 441              		.section	.bss.test_heap,"aw",%nobits
 442              		.align	3
 443              		.set	.LANCHOR0,. + 0
 444              		.type	test_heap, %object
 445              		.size	test_heap, 32
 446              	test_heap:
 447 0000 00000000 		.space	32
 447      00000000 
 447      00000000 
 447      00000000 
 447      00000000 
 448              		.section	.rodata.patternheap,"a",%progbits
 449              		.align	2
 450              		.type	patternheap, %object
 451              		.size	patternheap, 8
 452              	patternheap:
ARM GAS  /tmp/ccuiwpjt.s 			page 9


 453 0000 00000000 		.word	testheap1
 454 0004 00000000 		.word	0
 455              		.section	.rodata.str1.4,"aMS",%progbits,1
 456              		.align	2
 457              	.LC0:
 458 0000 48656170 		.ascii	"Heap, allocation and fragmentation test\000"
 458      2C20616C 
 458      6C6F6361 
 458      74696F6E 
 458      20616E64 
 459              		.section	.rodata.testheap1,"a",%progbits
 460              		.align	2
 461              		.type	testheap1, %object
 462              		.size	testheap1, 16
 463              	testheap1:
 464 0000 00000000 		.word	.LC0
 465 0004 00000000 		.word	heap1_setup
 466 0008 00000000 		.word	0
 467 000c 00000000 		.word	heap1_execute
 468              		.text
 469              	.Letext0:
 470              		.file 2 "/usr/lib/gcc/arm-none-eabi/6.2.1/include/stddef.h"
 471              		.file 3 "/usr/arm-none-eabi/include/machine/_default_types.h"
 472              		.file 4 "/usr/arm-none-eabi/include/sys/_stdint.h"
 473              		.file 5 "/home/selim/working/ChibiOS/os/rt/ports/ARMCMx/compilers/GCC/chtypes.h"
 474              		.file 6 "/home/selim/working/ChibiOS/os/rt/include/chsystypes.h"
 475              		.file 7 "/home/selim/working/ChibiOS/os/rt/include/chschd.h"
 476              		.file 8 "/home/selim/working/ChibiOS/os/ext/CMSIS/include/core_cm4.h"
 477              		.file 9 "/home/selim/working/ChibiOS/os/ext/CMSIS/ST/system_stm32f4xx.h"
 478              		.file 10 "/home/selim/working/ChibiOS/os/rt/ports/ARMCMx/chcore.h"
 479              		.file 11 "/home/selim/working/ChibiOS/os/rt/ports/ARMCMx/chcore_v7m.h"
 480              		.file 12 "/home/selim/working/ChibiOS/os/rt/include/chtm.h"
 481              		.file 13 "/home/selim/working/ChibiOS/os/rt/include/chsem.h"
 482              		.file 14 "/home/selim/working/ChibiOS/os/rt/include/chmtx.h"
 483              		.file 15 "/home/selim/working/ChibiOS/os/rt/include/chregistry.h"
 484              		.file 16 "/home/selim/working/ChibiOS/os/rt/include/chmemcore.h"
 485              		.file 17 "/home/selim/working/ChibiOS/os/rt/include/chheap.h"
 486              		.file 18 "/home/selim/working/ChibiOS/test/rt/test.h"