ARM GAS  /tmp/cc63Ficj.s 			page 1


   1              		.cpu cortex-m4
   2              		.eabi_attribute 20, 1
   3              		.eabi_attribute 21, 1
   4              		.eabi_attribute 23, 3
   5              		.eabi_attribute 24, 1
   6              		.eabi_attribute 25, 1
   7              		.eabi_attribute 26, 1
   8              		.eabi_attribute 30, 2
   9              		.eabi_attribute 34, 1
  10              		.eabi_attribute 18, 4
  11              		.file	"test.c"
  12              		.text
  13              	.Ltext0:
  14              		.cfi_sections	.debug_frame
  15              		.section	.text.tmr,"ax",%progbits
  16              		.align	1
  17              		.p2align 4,,15
  18              		.syntax unified
  19              		.thumb
  20              		.thumb_func
  21              		.fpu softvfp
  22              		.type	tmr, %function
  23              	tmr:
  24              	.LFB271:
  25              		.file 1 "/home/selim/working/ChibiOS/test/rt/test.c"
  26              		.loc 1 264 0
  27              		.cfi_startproc
  28              		@ args = 0, pretend = 0, frame = 0
  29              		@ frame_needed = 0, uses_anonymous_args = 0
  30              		@ link register save eliminated.
  31              	.LVL0:
  32              		.loc 1 267 0
  33 0000 014B     		ldr	r3, .L2
  34 0002 0122     		movs	r2, #1
  35 0004 1A70     		strb	r2, [r3]
  36 0006 7047     		bx	lr
  37              	.L3:
  38              		.align	2
  39              	.L2:
  40 0008 00000000 		.word	.LANCHOR0
  41              		.cfi_endproc
  42              	.LFE271:
  43              		.size	tmr, .-tmr
  44              		.section	.text.print_line,"ax",%progbits
  45              		.align	1
  46              		.p2align 4,,15
  47              		.syntax unified
  48              		.thumb
  49              		.thumb_func
  50              		.fpu softvfp
  51              		.type	print_line, %function
  52              	print_line:
  53              	.LFB274:
  54              		.loc 1 303 0
  55              		.cfi_startproc
  56              		@ args = 0, pretend = 0, frame = 0
  57              		@ frame_needed = 0, uses_anonymous_args = 0
ARM GAS  /tmp/cc63Ficj.s 			page 2


  58              	.LVL1:
  59 0000 70B5     		push	{r4, r5, r6, lr}
  60              		.cfi_def_cfa_offset 16
  61              		.cfi_offset 4, -16
  62              		.cfi_offset 5, -12
  63              		.cfi_offset 6, -8
  64              		.cfi_offset 14, -4
  65 0002 084D     		ldr	r5, .L9
  66              		.loc 1 303 0
  67 0004 4C24     		movs	r4, #76
  68              	.LVL2:
  69              	.L5:
  70              		.loc 1 307 0 discriminator 3
  71 0006 2868     		ldr	r0, [r5]
  72 0008 0368     		ldr	r3, [r0]
  73 000a 2D21     		movs	r1, #45
  74 000c 9B68     		ldr	r3, [r3, #8]
  75 000e 9847     		blx	r3
  76              	.LVL3:
  77              		.loc 1 306 0 discriminator 3
  78 0010 013C     		subs	r4, r4, #1
  79              	.LVL4:
  80 0012 F8D1     		bne	.L5
  81              		.loc 1 308 0
  82 0014 2868     		ldr	r0, [r5]
  83 0016 0449     		ldr	r1, .L9+4
  84 0018 0368     		ldr	r3, [r0]
  85 001a 0222     		movs	r2, #2
  86 001c 1B68     		ldr	r3, [r3]
  87              		.loc 1 309 0
  88 001e BDE87040 		pop	{r4, r5, r6, lr}
  89              		.cfi_restore 14
  90              		.cfi_restore 6
  91              		.cfi_restore 5
  92              		.cfi_restore 4
  93              		.cfi_def_cfa_offset 0
  94              	.LVL5:
  95              		.loc 1 308 0
  96 0022 1847     		bx	r3
  97              	.LVL6:
  98              	.L10:
  99              		.align	2
 100              	.L9:
 101 0024 00000000 		.word	.LANCHOR1
 102 0028 00000000 		.word	.LC0
 103              		.cfi_endproc
 104              	.LFE274:
 105              		.size	print_line, .-print_line
 106              		.section	.text.test_printn,"ax",%progbits
 107              		.align	1
 108              		.p2align 4,,15
 109              		.global	test_printn
 110              		.syntax unified
 111              		.thumb
 112              		.thumb_func
 113              		.fpu softvfp
 114              		.type	test_printn, %function
ARM GAS  /tmp/cc63Ficj.s 			page 3


 115              	test_printn:
 116              	.LFB258:
 117              		.loc 1 94 0
 118              		.cfi_startproc
 119              		@ args = 0, pretend = 0, frame = 16
 120              		@ frame_needed = 0, uses_anonymous_args = 0
 121              	.LVL7:
 122              		.loc 1 97 0
 123 0000 20B3     		cbz	r0, .L20
 124              		.loc 1 94 0
 125 0002 70B5     		push	{r4, r5, r6, lr}
 126              		.cfi_def_cfa_offset 16
 127              		.cfi_offset 4, -16
 128              		.cfi_offset 5, -12
 129              		.cfi_offset 6, -8
 130              		.cfi_offset 14, -4
 131 0004 84B0     		sub	sp, sp, #16
 132              		.cfi_def_cfa_offset 32
 133 0006 6D46     		mov	r5, sp
 134 0008 6C46     		mov	r4, sp
 135              		.loc 1 102 0
 136 000a 134E     		ldr	r6, .L22
 137 000c 00E0     		b	.L13
 138              	.LVL8:
 139              	.L17:
 140 000e 1446     		mov	r4, r2
 141              	.LVL9:
 142              	.L13:
 143 0010 A6FB0023 		umull	r2, r3, r6, r0
 144 0014 DB08     		lsrs	r3, r3, #3
 145 0016 03EB8301 		add	r1, r3, r3, lsl #2
 146 001a A0EB4100 		sub	r0, r0, r1, lsl #1
 147              	.LVL10:
 148 001e 00F13001 		add	r1, r0, #48
 149 0022 2246     		mov	r2, r4
 150              	.LVL11:
 151 0024 C9B2     		uxtb	r1, r1
 152 0026 02F8011B 		strb	r1, [r2], #1
 153              	.LVL12:
 154              		.loc 1 101 0
 155 002a 1846     		mov	r0, r3
 156 002c 002B     		cmp	r3, #0
 157 002e EED1     		bne	.L17
 158              		.loc 1 103 0
 159 0030 AA42     		cmp	r2, r5
 160 0032 09D9     		bls	.L11
 161 0034 094E     		ldr	r6, .L22+4
 162 0036 01E0     		b	.L15
 163              	.LVL13:
 164              	.L21:
 165 0038 14F8011D 		ldrb	r1, [r4, #-1]!	@ zero_extendqisi2
 166              	.LVL14:
 167              	.L15:
 168              		.loc 1 104 0
 169 003c 3068     		ldr	r0, [r6]
 170              	.LVL15:
 171 003e 0368     		ldr	r3, [r0]
ARM GAS  /tmp/cc63Ficj.s 			page 4


 172 0040 9B68     		ldr	r3, [r3, #8]
 173 0042 9847     		blx	r3
 174              	.LVL16:
 175              		.loc 1 103 0
 176 0044 AC42     		cmp	r4, r5
 177 0046 F7D1     		bne	.L21
 178              	.LVL17:
 179              	.L11:
 180              		.loc 1 106 0
 181 0048 04B0     		add	sp, sp, #16
 182              		.cfi_def_cfa_offset 16
 183              		@ sp needed
 184 004a 70BD     		pop	{r4, r5, r6, pc}
 185              	.LVL18:
 186              	.L20:
 187              		.cfi_def_cfa_offset 0
 188              		.cfi_restore 4
 189              		.cfi_restore 5
 190              		.cfi_restore 6
 191              		.cfi_restore 14
 192              	.LBB173:
 193              	.LBB174:
 194              		.loc 1 98 0
 195 004c 034B     		ldr	r3, .L22+4
 196 004e 1868     		ldr	r0, [r3]
 197              	.LVL19:
 198 0050 0368     		ldr	r3, [r0]
 199 0052 3021     		movs	r1, #48
 200 0054 9B68     		ldr	r3, [r3, #8]
 201 0056 1847     		bx	r3
 202              	.LVL20:
 203              	.L23:
 204              		.align	2
 205              	.L22:
 206 0058 CDCCCCCC 		.word	-858993459
 207 005c 00000000 		.word	.LANCHOR1
 208              	.LBE174:
 209              	.LBE173:
 210              		.cfi_endproc
 211              	.LFE258:
 212              		.size	test_printn, .-test_printn
 213              		.section	.text.test_print,"ax",%progbits
 214              		.align	1
 215              		.p2align 4,,15
 216              		.global	test_print
 217              		.syntax unified
 218              		.thumb
 219              		.thumb_func
 220              		.fpu softvfp
 221              		.type	test_print, %function
 222              	test_print:
 223              	.LFB259:
 224              		.loc 1 113 0
 225              		.cfi_startproc
 226              		@ args = 0, pretend = 0, frame = 0
 227              		@ frame_needed = 0, uses_anonymous_args = 0
 228              	.LVL21:
ARM GAS  /tmp/cc63Ficj.s 			page 5


 229              		.loc 1 115 0
 230 0000 0178     		ldrb	r1, [r0]	@ zero_extendqisi2
 231 0002 59B1     		cbz	r1, .L30
 232              		.loc 1 113 0
 233 0004 38B5     		push	{r3, r4, r5, lr}
 234              		.cfi_def_cfa_offset 16
 235              		.cfi_offset 3, -16
 236              		.cfi_offset 4, -12
 237              		.cfi_offset 5, -8
 238              		.cfi_offset 14, -4
 239 0006 064D     		ldr	r5, .L33
 240 0008 0446     		mov	r4, r0
 241              	.LVL22:
 242              	.L26:
 243              		.loc 1 116 0
 244 000a 2868     		ldr	r0, [r5]
 245 000c 0368     		ldr	r3, [r0]
 246 000e 9B68     		ldr	r3, [r3, #8]
 247 0010 9847     		blx	r3
 248              	.LVL23:
 249              		.loc 1 115 0
 250 0012 14F8011F 		ldrb	r1, [r4, #1]!	@ zero_extendqisi2
 251              	.LVL24:
 252 0016 0029     		cmp	r1, #0
 253 0018 F7D1     		bne	.L26
 254 001a 38BD     		pop	{r3, r4, r5, pc}
 255              	.LVL25:
 256              	.L30:
 257              		.cfi_def_cfa_offset 0
 258              		.cfi_restore 3
 259              		.cfi_restore 4
 260              		.cfi_restore 5
 261              		.cfi_restore 14
 262 001c 7047     		bx	lr
 263              	.L34:
 264 001e 00BF     		.align	2
 265              	.L33:
 266 0020 00000000 		.word	.LANCHOR1
 267              		.cfi_endproc
 268              	.LFE259:
 269              		.size	test_print, .-test_print
 270              		.section	.text.test_println,"ax",%progbits
 271              		.align	1
 272              		.p2align 4,,15
 273              		.global	test_println
 274              		.syntax unified
 275              		.thumb
 276              		.thumb_func
 277              		.fpu softvfp
 278              		.type	test_println, %function
 279              	test_println:
 280              	.LFB260:
 281              		.loc 1 124 0
 282              		.cfi_startproc
 283              		@ args = 0, pretend = 0, frame = 0
 284              		@ frame_needed = 0, uses_anonymous_args = 0
 285              	.LVL26:
ARM GAS  /tmp/cc63Ficj.s 			page 6


 286 0000 70B5     		push	{r4, r5, r6, lr}
 287              		.cfi_def_cfa_offset 16
 288              		.cfi_offset 4, -16
 289              		.cfi_offset 5, -12
 290              		.cfi_offset 6, -8
 291              		.cfi_offset 14, -4
 292              	.LBB175:
 293              	.LBB176:
 294              		.loc 1 115 0
 295 0002 0178     		ldrb	r1, [r0]	@ zero_extendqisi2
 296 0004 89B1     		cbz	r1, .L41
 297 0006 0A4D     		ldr	r5, .L42
 298 0008 0446     		mov	r4, r0
 299              	.LVL27:
 300              	.L37:
 301              		.loc 1 116 0
 302 000a 2868     		ldr	r0, [r5]
 303 000c 0368     		ldr	r3, [r0]
 304 000e 9B68     		ldr	r3, [r3, #8]
 305 0010 9847     		blx	r3
 306              	.LVL28:
 307              		.loc 1 115 0
 308 0012 14F8011F 		ldrb	r1, [r4, #1]!	@ zero_extendqisi2
 309              	.LVL29:
 310 0016 0029     		cmp	r1, #0
 311 0018 F7D1     		bne	.L37
 312              	.LVL30:
 313              	.L38:
 314              	.LBE176:
 315              	.LBE175:
 316              		.loc 1 127 0
 317 001a 2868     		ldr	r0, [r5]
 318 001c 0549     		ldr	r1, .L42+4
 319 001e 0368     		ldr	r3, [r0]
 320 0020 0222     		movs	r2, #2
 321 0022 1B68     		ldr	r3, [r3]
 322              		.loc 1 128 0
 323 0024 BDE87040 		pop	{r4, r5, r6, lr}
 324              		.cfi_remember_state
 325              		.cfi_restore 14
 326              		.cfi_restore 6
 327              		.cfi_restore 5
 328              		.cfi_restore 4
 329              		.cfi_def_cfa_offset 0
 330              		.loc 1 127 0
 331 0028 1847     		bx	r3
 332              	.LVL31:
 333              	.L41:
 334              		.cfi_restore_state
 335 002a 014D     		ldr	r5, .L42
 336 002c F5E7     		b	.L38
 337              	.L43:
 338 002e 00BF     		.align	2
 339              	.L42:
 340 0030 00000000 		.word	.LANCHOR1
 341 0034 00000000 		.word	.LC0
 342              		.cfi_endproc
ARM GAS  /tmp/cc63Ficj.s 			page 7


 343              	.LFE260:
 344              		.size	test_println, .-test_println
 345              		.section	.text.test_emit_token,"ax",%progbits
 346              		.align	1
 347              		.p2align 4,,15
 348              		.global	test_emit_token
 349              		.syntax unified
 350              		.thumb
 351              		.thumb_func
 352              		.fpu softvfp
 353              		.type	test_emit_token, %function
 354              	test_emit_token:
 355              	.LFB263:
 356              		.loc 1 150 0
 357              		.cfi_startproc
 358              		@ args = 0, pretend = 0, frame = 0
 359              		@ frame_needed = 0, uses_anonymous_args = 0
 360              		@ link register save eliminated.
 361              	.LVL32:
 362              	.LBB177:
 363              	.LBB178:
 364              	.LBB179:
 365              	.LBB180:
 366              		.file 2 "/home/selim/working/ChibiOS/os/ext/CMSIS/include/core_cmFunc.h"
 367              		.loc 2 546 0
 368 0000 2023     		movs	r3, #32
 369              		.syntax unified
 370              	@ 546 "/home/selim/working/ChibiOS/os/ext/CMSIS/include/core_cmFunc.h" 1
 371 0002 83F31188 		MSR basepri, r3
 372              	@ 0 "" 2
 373              	.LVL33:
 374              		.thumb
 375              		.syntax unified
 376              	.LBE180:
 377              	.LBE179:
 378              	.LBE178:
 379              	.LBE177:
 380              		.loc 1 153 0
 381 0006 044B     		ldr	r3, .L45
 382 0008 1A68     		ldr	r2, [r3]
 383 000a 511C     		adds	r1, r2, #1
 384 000c 1960     		str	r1, [r3]
 385 000e 1070     		strb	r0, [r2]
 386              	.LVL34:
 387              	.LBB181:
 388              	.LBB182:
 389              	.LBB183:
 390              	.LBB184:
 391              	.LBB185:
 392              		.loc 2 546 0
 393 0010 0023     		movs	r3, #0
 394              		.syntax unified
 395              	@ 546 "/home/selim/working/ChibiOS/os/ext/CMSIS/include/core_cmFunc.h" 1
 396 0012 83F31188 		MSR basepri, r3
 397              	@ 0 "" 2
 398              	.LVL35:
 399              		.thumb
ARM GAS  /tmp/cc63Ficj.s 			page 8


 400              		.syntax unified
 401 0016 7047     		bx	lr
 402              	.L46:
 403              		.align	2
 404              	.L45:
 405 0018 00000000 		.word	.LANCHOR2
 406              	.LBE185:
 407              	.LBE184:
 408              	.LBE183:
 409              	.LBE182:
 410              	.LBE181:
 411              		.cfi_endproc
 412              	.LFE263:
 413              		.size	test_emit_token, .-test_emit_token
 414              		.section	.text._test_fail,"ax",%progbits
 415              		.align	1
 416              		.p2align 4,,15
 417              		.global	_test_fail
 418              		.syntax unified
 419              		.thumb
 420              		.thumb_func
 421              		.fpu softvfp
 422              		.type	_test_fail, %function
 423              	_test_fail:
 424              	.LFB264:
 425              		.loc 1 160 0
 426              		.cfi_startproc
 427              		@ args = 0, pretend = 0, frame = 0
 428              		@ frame_needed = 0, uses_anonymous_args = 0
 429              		@ link register save eliminated.
 430              	.LVL36:
 431              		.loc 1 164 0
 432 0000 0349     		ldr	r1, .L48
 433              		.loc 1 162 0
 434 0002 044A     		ldr	r2, .L48+4
 435              		.loc 1 163 0
 436 0004 044B     		ldr	r3, .L48+8
 437              		.loc 1 164 0
 438 0006 0860     		str	r0, [r1]
 439              		.loc 1 162 0
 440 0008 0120     		movs	r0, #1
 441              	.LVL37:
 442 000a 1070     		strb	r0, [r2]
 443              		.loc 1 163 0
 444 000c 1870     		strb	r0, [r3]
 445              		.loc 1 166 0
 446 000e 7047     		bx	lr
 447              	.L49:
 448              		.align	2
 449              	.L48:
 450 0010 00000000 		.word	.LANCHOR5
 451 0014 00000000 		.word	.LANCHOR3
 452 0018 00000000 		.word	.LANCHOR4
 453              		.cfi_endproc
 454              	.LFE264:
 455              		.size	_test_fail, .-_test_fail
 456              		.section	.text._test_assert,"ax",%progbits
ARM GAS  /tmp/cc63Ficj.s 			page 9


 457              		.align	1
 458              		.p2align 4,,15
 459              		.global	_test_assert
 460              		.syntax unified
 461              		.thumb
 462              		.thumb_func
 463              		.fpu softvfp
 464              		.type	_test_assert, %function
 465              	_test_assert:
 466              	.LFB265:
 467              		.loc 1 168 0
 468              		.cfi_startproc
 469              		@ args = 0, pretend = 0, frame = 0
 470              		@ frame_needed = 0, uses_anonymous_args = 0
 471              		@ link register save eliminated.
 472              	.LVL38:
 473              		.loc 1 170 0
 474 0000 51B9     		cbnz	r1, .L52
 475              	.LVL39:
 476              		.loc 1 168 0
 477 0002 10B4     		push	{r4}
 478              		.cfi_def_cfa_offset 4
 479              		.cfi_offset 4, -4
 480              	.LBB186:
 481              	.LBB187:
 482              		.loc 1 163 0
 483 0004 0649     		ldr	r1, .L57
 484              	.LVL40:
 485              		.loc 1 162 0
 486 0006 074C     		ldr	r4, .L57+4
 487              		.loc 1 164 0
 488 0008 074A     		ldr	r2, .L57+8
 489              		.loc 1 162 0
 490 000a 0123     		movs	r3, #1
 491 000c 2370     		strb	r3, [r4]
 492              		.loc 1 164 0
 493 000e 1060     		str	r0, [r2]
 494              	.LVL41:
 495              		.loc 1 163 0
 496 0010 0B70     		strb	r3, [r1]
 497              	.LBE187:
 498              	.LBE186:
 499              		.loc 1 173 0
 500 0012 1846     		mov	r0, r3
 501              	.LVL42:
 502 0014 10BC     		pop	{r4}
 503              		.cfi_restore 4
 504              		.cfi_def_cfa_offset 0
 505 0016 7047     		bx	lr
 506              	.LVL43:
 507              	.L52:
 508              		.loc 1 172 0
 509 0018 0023     		movs	r3, #0
 510              		.loc 1 173 0
 511 001a 1846     		mov	r0, r3
 512              	.LVL44:
 513 001c 7047     		bx	lr
ARM GAS  /tmp/cc63Ficj.s 			page 10


 514              	.L58:
 515 001e 00BF     		.align	2
 516              	.L57:
 517 0020 00000000 		.word	.LANCHOR4
 518 0024 00000000 		.word	.LANCHOR3
 519 0028 00000000 		.word	.LANCHOR5
 520              		.cfi_endproc
 521              	.LFE265:
 522              		.size	_test_assert, .-_test_assert
 523              		.section	.text._test_assert_sequence,"ax",%progbits
 524              		.align	1
 525              		.p2align 4,,15
 526              		.global	_test_assert_sequence
 527              		.syntax unified
 528              		.thumb
 529              		.thumb_func
 530              		.fpu softvfp
 531              		.type	_test_assert_sequence, %function
 532              	_test_assert_sequence:
 533              	.LFB266:
 534              		.loc 1 175 0
 535              		.cfi_startproc
 536              		@ args = 0, pretend = 0, frame = 0
 537              		@ frame_needed = 0, uses_anonymous_args = 0
 538              		@ link register save eliminated.
 539              	.LVL45:
 540 0000 F0B4     		push	{r4, r5, r6, r7}
 541              		.cfi_def_cfa_offset 16
 542              		.cfi_offset 4, -16
 543              		.cfi_offset 5, -12
 544              		.cfi_offset 6, -8
 545              		.cfi_offset 7, -4
 546 0002 0E4E     		ldr	r6, .L66
 547              		.loc 1 176 0
 548 0004 0E4F     		ldr	r7, .L66+4
 549 0006 3568     		ldr	r5, [r6]
 550 0008 3B46     		mov	r3, r7
 551              		.loc 1 177 0
 552 000a 05E0     		b	.L60
 553              	.LVL46:
 554              	.L62:
 555              		.loc 1 178 0
 556 000c 13F8014B 		ldrb	r4, [r3], #1	@ zero_extendqisi2
 557              	.LVL47:
 558 0010 11F8012B 		ldrb	r2, [r1], #1	@ zero_extendqisi2
 559              	.LVL48:
 560 0014 9442     		cmp	r4, r2
 561 0016 07D1     		bne	.L63
 562              	.LVL49:
 563              	.L60:
 564              		.loc 1 177 0
 565 0018 AB42     		cmp	r3, r5
 566 001a F7D3     		bcc	.L62
 567              		.loc 1 181 0
 568 001c 0B78     		ldrb	r3, [r1]	@ zero_extendqisi2
 569              	.LVL50:
 570 001e 1BB9     		cbnz	r3, .L63
ARM GAS  /tmp/cc63Ficj.s 			page 11


 571              	.LBB188:
 572              	.LBB189:
 573              		.loc 1 135 0
 574 0020 3760     		str	r7, [r6]
 575              	.LBE189:
 576              	.LBE188:
 577              		.loc 1 185 0
 578 0022 1846     		mov	r0, r3
 579              	.LVL51:
 580 0024 F0BC     		pop	{r4, r5, r6, r7}
 581              		.cfi_remember_state
 582              		.cfi_restore 4
 583              		.cfi_restore 5
 584              		.cfi_restore 6
 585              		.cfi_restore 7
 586              		.cfi_def_cfa_offset 0
 587 0026 7047     		bx	lr
 588              	.LVL52:
 589              	.L63:
 590              		.cfi_restore_state
 591              	.LBB190:
 592              	.LBB191:
 593              		.loc 1 162 0
 594 0028 064C     		ldr	r4, .L66+8
 595              		.loc 1 163 0
 596 002a 0749     		ldr	r1, .L66+12
 597              		.loc 1 164 0
 598 002c 074A     		ldr	r2, .L66+16
 599              		.loc 1 162 0
 600 002e 0123     		movs	r3, #1
 601 0030 2370     		strb	r3, [r4]
 602              		.loc 1 164 0
 603 0032 1060     		str	r0, [r2]
 604              	.LVL53:
 605              		.loc 1 163 0
 606 0034 0B70     		strb	r3, [r1]
 607              	.LBE191:
 608              	.LBE190:
 609              		.loc 1 185 0
 610 0036 1846     		mov	r0, r3
 611              	.LVL54:
 612 0038 F0BC     		pop	{r4, r5, r6, r7}
 613              		.cfi_restore 7
 614              		.cfi_restore 6
 615              		.cfi_restore 5
 616              		.cfi_restore 4
 617              		.cfi_def_cfa_offset 0
 618 003a 7047     		bx	lr
 619              	.L67:
 620              		.align	2
 621              	.L66:
 622 003c 00000000 		.word	.LANCHOR2
 623 0040 00000000 		.word	.LANCHOR6
 624 0044 00000000 		.word	.LANCHOR3
 625 0048 00000000 		.word	.LANCHOR4
 626 004c 00000000 		.word	.LANCHOR5
 627              		.cfi_endproc
ARM GAS  /tmp/cc63Ficj.s 			page 12


 628              	.LFE266:
 629              		.size	_test_assert_sequence, .-_test_assert_sequence
 630              		.section	.text._test_assert_time_window,"ax",%progbits
 631              		.align	1
 632              		.p2align 4,,15
 633              		.global	_test_assert_time_window
 634              		.syntax unified
 635              		.thumb
 636              		.thumb_func
 637              		.fpu softvfp
 638              		.type	_test_assert_time_window, %function
 639              	_test_assert_time_window:
 640              	.LFB267:
 641              		.loc 1 187 0
 642              		.cfi_startproc
 643              		@ args = 0, pretend = 0, frame = 0
 644              		@ frame_needed = 0, uses_anonymous_args = 0
 645              		@ link register save eliminated.
 646              	.LVL55:
 647 0000 10B4     		push	{r4}
 648              		.cfi_def_cfa_offset 4
 649              		.cfi_offset 4, -4
 650              	.LBB192:
 651              	.LBB193:
 652              	.LBB194:
 653              	.LBB195:
 654              	.LBB196:
 655              	.LBB197:
 656              	.LBB198:
 657              		.loc 2 546 0
 658 0002 2023     		movs	r3, #32
 659              		.syntax unified
 660              	@ 546 "/home/selim/working/ChibiOS/os/ext/CMSIS/include/core_cmFunc.h" 1
 661 0004 83F31188 		MSR basepri, r3
 662              	@ 0 "" 2
 663              	.LVL56:
 664              		.thumb
 665              		.syntax unified
 666              	.LBE198:
 667              	.LBE197:
 668              	.LBE196:
 669              	.LBE195:
 670              	.LBB199:
 671              	.LBB200:
 672              	.LBB201:
 673              	.LBB202:
 674              		.file 3 "/home/selim/working/ChibiOS/os/hal/ports/STM32/LLD/TIMv1/st_lld.h"
 675              		.loc 3 129 0
 676 0008 4FF08044 		mov	r4, #1073741824
 677              	.LBE202:
 678              	.LBE201:
 679              	.LBE200:
 680              	.LBE199:
 681              	.LBB206:
 682              	.LBB207:
 683              	.LBB208:
 684              	.LBB209:
ARM GAS  /tmp/cc63Ficj.s 			page 13


 685              	.LBB210:
 686              		.loc 2 546 0
 687 000c 0023     		movs	r3, #0
 688              	.LBE210:
 689              	.LBE209:
 690              	.LBE208:
 691              	.LBE207:
 692              	.LBE206:
 693              	.LBB215:
 694              	.LBB205:
 695              	.LBB204:
 696              	.LBB203:
 697              		.loc 3 129 0
 698 000e 646A     		ldr	r4, [r4, #36]
 699              	.LVL57:
 700              	.LBE203:
 701              	.LBE204:
 702              	.LBE205:
 703              	.LBE215:
 704              	.LBB216:
 705              	.LBB214:
 706              	.LBB213:
 707              	.LBB212:
 708              	.LBB211:
 709              		.loc 2 546 0
 710              		.syntax unified
 711              	@ 546 "/home/selim/working/ChibiOS/os/ext/CMSIS/include/core_cmFunc.h" 1
 712 0010 83F31188 		MSR basepri, r3
 713              	@ 0 "" 2
 714              	.LVL58:
 715              		.thumb
 716              		.syntax unified
 717              	.LBE211:
 718              	.LBE212:
 719              	.LBE213:
 720              	.LBE214:
 721              	.LBE216:
 722              	.LBE194:
 723              	.LBE193:
 724              	.LBB217:
 725              	.LBB218:
 726              		.file 4 "/home/selim/working/ChibiOS/os/rt/include/chvt.h"
 727              		.loc 4 288 0
 728 0014 641A     		subs	r4, r4, r1
 729 0016 521A     		subs	r2, r2, r1
 730              	.LVL59:
 731              	.LBE218:
 732              	.LBE217:
 733              	.LBE192:
 734              	.LBB219:
 735              	.LBB220:
 736              		.loc 1 170 0
 737 0018 9442     		cmp	r4, r2
 738 001a 06D3     		bcc	.L69
 739              	.LVL60:
 740              	.LBB221:
 741              	.LBB222:
ARM GAS  /tmp/cc63Ficj.s 			page 14


 742              		.loc 1 162 0
 743 001c 044C     		ldr	r4, .L72
 744              		.loc 1 163 0
 745 001e 0549     		ldr	r1, .L72+4
 746              	.LVL61:
 747              		.loc 1 164 0
 748 0020 054A     		ldr	r2, .L72+8
 749              		.loc 1 162 0
 750 0022 0123     		movs	r3, #1
 751 0024 2370     		strb	r3, [r4]
 752              		.loc 1 163 0
 753 0026 0B70     		strb	r3, [r1]
 754              		.loc 1 164 0
 755 0028 1060     		str	r0, [r2]
 756              	.LVL62:
 757              	.L69:
 758              	.LBE222:
 759              	.LBE221:
 760              	.LBE220:
 761              	.LBE219:
 762              		.loc 1 190 0
 763 002a 1846     		mov	r0, r3
 764              	.LVL63:
 765 002c 10BC     		pop	{r4}
 766              		.cfi_restore 4
 767              		.cfi_def_cfa_offset 0
 768 002e 7047     		bx	lr
 769              	.L73:
 770              		.align	2
 771              	.L72:
 772 0030 00000000 		.word	.LANCHOR3
 773 0034 00000000 		.word	.LANCHOR4
 774 0038 00000000 		.word	.LANCHOR5
 775              		.cfi_endproc
 776              	.LFE267:
 777              		.size	_test_assert_time_window, .-_test_assert_time_window
 778              		.section	.text.test_terminate_threads,"ax",%progbits
 779              		.align	1
 780              		.p2align 4,,15
 781              		.global	test_terminate_threads
 782              		.syntax unified
 783              		.thumb
 784              		.thumb_func
 785              		.fpu softvfp
 786              		.type	test_terminate_threads, %function
 787              	test_terminate_threads:
 788              	.LFB268:
 789              		.loc 1 199 0
 790              		.cfi_startproc
 791              		@ args = 0, pretend = 0, frame = 0
 792              		@ frame_needed = 0, uses_anonymous_args = 0
 793              	.LVL64:
 794 0000 38B5     		push	{r3, r4, r5, lr}
 795              		.cfi_def_cfa_offset 16
 796              		.cfi_offset 3, -16
 797              		.cfi_offset 4, -12
 798              		.cfi_offset 5, -8
ARM GAS  /tmp/cc63Ficj.s 			page 15


 799              		.cfi_offset 14, -4
 800 0002 064C     		ldr	r4, .L82
 801 0004 04F11405 		add	r5, r4, #20
 802              	.LVL65:
 803              	.L76:
 804              		.loc 1 203 0
 805 0008 54F8043B 		ldr	r3, [r4], #4
 806              		.loc 1 204 0
 807 000c 1846     		mov	r0, r3
 808              		.loc 1 203 0
 809 000e 0BB1     		cbz	r3, .L75
 810              		.loc 1 204 0
 811 0010 FFF7FEFF 		bl	chThdTerminate
 812              	.LVL66:
 813              	.L75:
 814              		.loc 1 202 0 discriminator 2
 815 0014 AC42     		cmp	r4, r5
 816 0016 F7D1     		bne	.L76
 817              		.loc 1 205 0
 818 0018 38BD     		pop	{r3, r4, r5, pc}
 819              	.L83:
 820 001a 00BF     		.align	2
 821              	.L82:
 822 001c 00000000 		.word	.LANCHOR7
 823              		.cfi_endproc
 824              	.LFE268:
 825              		.size	test_terminate_threads, .-test_terminate_threads
 826              		.section	.text.test_wait_threads,"ax",%progbits
 827              		.align	1
 828              		.p2align 4,,15
 829              		.global	test_wait_threads
 830              		.syntax unified
 831              		.thumb
 832              		.thumb_func
 833              		.fpu softvfp
 834              		.type	test_wait_threads, %function
 835              	test_wait_threads:
 836              	.LFB269:
 837              		.loc 1 210 0
 838              		.cfi_startproc
 839              		@ args = 0, pretend = 0, frame = 0
 840              		@ frame_needed = 0, uses_anonymous_args = 0
 841              	.LVL67:
 842 0000 70B5     		push	{r4, r5, r6, lr}
 843              		.cfi_def_cfa_offset 16
 844              		.cfi_offset 4, -16
 845              		.cfi_offset 5, -12
 846              		.cfi_offset 6, -8
 847              		.cfi_offset 14, -4
 848 0002 064C     		ldr	r4, .L92
 849              		.loc 1 216 0
 850 0004 0026     		movs	r6, #0
 851 0006 04F11405 		add	r5, r4, #20
 852              	.LVL68:
 853              	.L86:
 854              		.loc 1 214 0
 855 000a 2068     		ldr	r0, [r4]
ARM GAS  /tmp/cc63Ficj.s 			page 16


 856 000c 10B1     		cbz	r0, .L85
 857              		.loc 1 215 0
 858 000e FFF7FEFF 		bl	chThdWait
 859              	.LVL69:
 860              		.loc 1 216 0
 861 0012 2660     		str	r6, [r4]
 862              	.L85:
 863 0014 0434     		adds	r4, r4, #4
 864              		.loc 1 213 0 discriminator 2
 865 0016 AC42     		cmp	r4, r5
 866 0018 F7D1     		bne	.L86
 867              		.loc 1 218 0
 868 001a 70BD     		pop	{r4, r5, r6, pc}
 869              	.L93:
 870              		.align	2
 871              	.L92:
 872 001c 00000000 		.word	.LANCHOR7
 873              		.cfi_endproc
 874              	.LFE269:
 875              		.size	test_wait_threads, .-test_wait_threads
 876              		.section	.text.test_wait_tick,"ax",%progbits
 877              		.align	1
 878              		.p2align 4,,15
 879              		.global	test_wait_tick
 880              		.syntax unified
 881              		.thumb
 882              		.thumb_func
 883              		.fpu softvfp
 884              		.type	test_wait_tick, %function
 885              	test_wait_tick:
 886              	.LFB270:
 887              		.loc 1 248 0
 888              		.cfi_startproc
 889              		@ args = 0, pretend = 0, frame = 0
 890              		@ frame_needed = 0, uses_anonymous_args = 0
 891 0000 08B5     		push	{r3, lr}
 892              		.cfi_def_cfa_offset 8
 893              		.cfi_offset 3, -8
 894              		.cfi_offset 14, -4
 895              		.loc 1 250 0
 896 0002 0120     		movs	r0, #1
 897 0004 FFF7FEFF 		bl	chThdSleep
 898              	.LVL70:
 899              	.LBB223:
 900              	.LBB224:
 901              	.LBB225:
 902              	.LBB226:
 903              	.LBB227:
 904              	.LBB228:
 905              		.loc 2 546 0
 906 0008 2023     		movs	r3, #32
 907              		.syntax unified
 908              	@ 546 "/home/selim/working/ChibiOS/os/ext/CMSIS/include/core_cmFunc.h" 1
 909 000a 83F31188 		MSR basepri, r3
 910              	@ 0 "" 2
 911              	.LVL71:
 912              		.thumb
ARM GAS  /tmp/cc63Ficj.s 			page 17


 913              		.syntax unified
 914              	.LBE228:
 915              	.LBE227:
 916              	.LBE226:
 917              	.LBE225:
 918              	.LBB229:
 919              	.LBB230:
 920              	.LBB231:
 921              	.LBB232:
 922              		.loc 3 129 0
 923 000e 4FF08042 		mov	r2, #1073741824
 924              	.LBE232:
 925              	.LBE231:
 926              	.LBE230:
 927              	.LBE229:
 928              	.LBB236:
 929              	.LBB237:
 930              	.LBB238:
 931              	.LBB239:
 932              	.LBB240:
 933              		.loc 2 546 0
 934 0012 0023     		movs	r3, #0
 935              	.LBE240:
 936              	.LBE239:
 937              	.LBE238:
 938              	.LBE237:
 939              	.LBE236:
 940              	.LBB245:
 941              	.LBB235:
 942              	.LBB234:
 943              	.LBB233:
 944              		.loc 3 129 0
 945 0014 506A     		ldr	r0, [r2, #36]
 946              	.LVL72:
 947              	.LBE233:
 948              	.LBE234:
 949              	.LBE235:
 950              	.LBE245:
 951              	.LBB246:
 952              	.LBB244:
 953              	.LBB243:
 954              	.LBB242:
 955              	.LBB241:
 956              		.loc 2 546 0
 957              		.syntax unified
 958              	@ 546 "/home/selim/working/ChibiOS/os/ext/CMSIS/include/core_cmFunc.h" 1
 959 0016 83F31188 		MSR basepri, r3
 960              	@ 0 "" 2
 961              	.LVL73:
 962              		.thumb
 963              		.syntax unified
 964              	.LBE241:
 965              	.LBE242:
 966              	.LBE243:
 967              	.LBE244:
 968              	.LBE246:
 969              	.LBE224:
ARM GAS  /tmp/cc63Ficj.s 			page 18


 970              	.LBE223:
 971              		.loc 1 252 0
 972 001a 08BD     		pop	{r3, pc}
 973              		.cfi_endproc
 974              	.LFE270:
 975              		.size	test_wait_tick, .-test_wait_tick
 976              		.section	.text.test_start_timer,"ax",%progbits
 977              		.align	1
 978              		.p2align 4,,15
 979              		.global	test_start_timer
 980              		.syntax unified
 981              		.thumb
 982              		.thumb_func
 983              		.fpu softvfp
 984              		.type	test_start_timer, %function
 985              	test_start_timer:
 986              	.LFB272:
 987              		.loc 1 275 0
 988              		.cfi_startproc
 989              		@ args = 0, pretend = 0, frame = 0
 990              		@ frame_needed = 0, uses_anonymous_args = 0
 991              	.LVL74:
 992 0000 10B5     		push	{r4, lr}
 993              		.cfi_def_cfa_offset 8
 994              		.cfi_offset 4, -8
 995              		.cfi_offset 14, -4
 996              		.loc 1 277 0
 997 0002 42F21074 		movw	r4, #10000
 998 0006 04FB00F4 		mul	r4, r4, r0
 999 000a 0D49     		ldr	r1, .L102
 1000              		.loc 1 278 0
 1001 000c 0D4B     		ldr	r3, .L102+4
 1002              		.loc 1 277 0
 1003 000e 04F2E734 		addw	r4, r4, #999
 1004 0012 A1FB0424 		umull	r2, r4, r1, r4
 1005              		.loc 1 278 0
 1006 0016 0022     		movs	r2, #0
 1007 0018 1A70     		strb	r2, [r3]
 1008              		.loc 1 277 0
 1009 001a A409     		lsrs	r4, r4, #6
 1010              	.LVL75:
 1011              	.LBB262:
 1012              	.LBB263:
 1013              	.LBB264:
 1014              	.LBB265:
 1015              	.LBB266:
 1016              		.loc 2 546 0
 1017 001c 2023     		movs	r3, #32
 1018              		.syntax unified
 1019              	@ 546 "/home/selim/working/ChibiOS/os/ext/CMSIS/include/core_cmFunc.h" 1
 1020 001e 83F31188 		MSR basepri, r3
 1021              	@ 0 "" 2
 1022              	.LVL76:
 1023              		.thumb
 1024              		.syntax unified
 1025              	.LBE266:
 1026              	.LBE265:
ARM GAS  /tmp/cc63Ficj.s 			page 19


 1027              	.LBE264:
 1028              	.LBE263:
 1029              	.LBB267:
 1030              	.LBB268:
 1031              	.LBB269:
 1032              	.LBB270:
 1033              		.loc 4 376 0
 1034 0022 0948     		ldr	r0, .L102+8
 1035              	.LVL77:
 1036 0024 C368     		ldr	r3, [r0, #12]
 1037 0026 0BB1     		cbz	r3, .L97
 1038              		.loc 4 377 0
 1039 0028 FFF7FEFF 		bl	chVTDoResetI
 1040              	.LVL78:
 1041              	.L97:
 1042              	.LBE270:
 1043              	.LBE269:
 1044              		.loc 4 424 0
 1045 002c 2146     		mov	r1, r4
 1046 002e 0023     		movs	r3, #0
 1047 0030 064A     		ldr	r2, .L102+12
 1048 0032 0548     		ldr	r0, .L102+8
 1049 0034 FFF7FEFF 		bl	chVTDoSetI
 1050              	.LVL79:
 1051              	.LBE268:
 1052              	.LBE267:
 1053              	.LBB271:
 1054              	.LBB272:
 1055              	.LBB273:
 1056              	.LBB274:
 1057              	.LBB275:
 1058              		.loc 2 546 0
 1059 0038 0023     		movs	r3, #0
 1060              		.syntax unified
 1061              	@ 546 "/home/selim/working/ChibiOS/os/ext/CMSIS/include/core_cmFunc.h" 1
 1062 003a 83F31188 		MSR basepri, r3
 1063              	@ 0 "" 2
 1064              	.LVL80:
 1065              		.thumb
 1066              		.syntax unified
 1067 003e 10BD     		pop	{r4, pc}
 1068              	.LVL81:
 1069              	.L103:
 1070              		.align	2
 1071              	.L102:
 1072 0040 D34D6210 		.word	274877907
 1073 0044 00000000 		.word	.LANCHOR0
 1074 0048 00000000 		.word	.LANCHOR8
 1075 004c 00000000 		.word	tmr
 1076              	.LBE275:
 1077              	.LBE274:
 1078              	.LBE273:
 1079              	.LBE272:
 1080              	.LBE271:
 1081              	.LBE262:
 1082              		.cfi_endproc
 1083              	.LFE272:
ARM GAS  /tmp/cc63Ficj.s 			page 20


 1084              		.size	test_start_timer, .-test_start_timer
 1085              		.section	.text.TestThread,"ax",%progbits
 1086              		.align	1
 1087              		.p2align 4,,15
 1088              		.global	TestThread
 1089              		.syntax unified
 1090              		.thumb
 1091              		.thumb_func
 1092              		.fpu softvfp
 1093              		.type	TestThread, %function
 1094              	TestThread:
 1095              	.LFB275:
 1096              		.loc 1 316 0
 1097              		.cfi_startproc
 1098              		@ args = 0, pretend = 0, frame = 16
 1099              		@ frame_needed = 0, uses_anonymous_args = 0
 1100              	.LVL82:
 1101 0000 2DE9F04F 		push	{r4, r5, r6, r7, r8, r9, r10, fp, lr}
 1102              		.cfi_def_cfa_offset 36
 1103              		.cfi_offset 4, -36
 1104              		.cfi_offset 5, -32
 1105              		.cfi_offset 6, -28
 1106              		.cfi_offset 7, -24
 1107              		.cfi_offset 8, -20
 1108              		.cfi_offset 9, -16
 1109              		.cfi_offset 10, -12
 1110              		.cfi_offset 11, -8
 1111              		.cfi_offset 14, -4
 1112              		.loc 1 319 0
 1113 0004 9A4C     		ldr	r4, .L157
 1114              		.loc 1 322 0
 1115 0006 9B4D     		ldr	r5, .L157+4
 1116              		.loc 1 319 0
 1117 0008 2060     		str	r0, [r4]
 1118              		.loc 1 316 0
 1119 000a 85B0     		sub	sp, sp, #20
 1120              		.cfi_def_cfa_offset 56
 1121              		.loc 1 320 0
 1122 000c 9A48     		ldr	r0, .L157+8
 1123              	.LVL83:
 1124 000e FFF7FEFF 		bl	test_println
 1125              	.LVL84:
 1126              		.loc 1 321 0
 1127 0012 9A48     		ldr	r0, .L157+12
 1128 0014 FFF7FEFF 		bl	test_println
 1129              	.LVL85:
 1130              		.loc 1 322 0
 1131 0018 9948     		ldr	r0, .L157+16
 1132 001a FFF7FEFF 		bl	test_println
 1133              	.LVL86:
 1134 001e 2A21     		movs	r1, #42
 1135              	.LVL87:
 1136              	.L105:
 1137              	.LBB312:
 1138              	.LBB313:
 1139              		.loc 1 116 0
 1140 0020 2068     		ldr	r0, [r4]
ARM GAS  /tmp/cc63Ficj.s 			page 21


 1141 0022 0368     		ldr	r3, [r0]
 1142 0024 9B68     		ldr	r3, [r3, #8]
 1143 0026 9847     		blx	r3
 1144              	.LVL88:
 1145              		.loc 1 115 0
 1146 0028 15F8011F 		ldrb	r1, [r5, #1]!	@ zero_extendqisi2
 1147              	.LVL89:
 1148 002c 0029     		cmp	r1, #0
 1149 002e F7D1     		bne	.L105
 1150              	.LVL90:
 1151              	.LBE313:
 1152              	.LBE312:
 1153              		.loc 1 324 0
 1154 0030 9448     		ldr	r0, .L157+20
 1155 0032 954D     		ldr	r5, .L157+24
 1156 0034 FFF7FEFF 		bl	test_println
 1157              	.LVL91:
 1158 0038 2A21     		movs	r1, #42
 1159              	.LVL92:
 1160              	.L106:
 1161              	.LBB314:
 1162              	.LBB315:
 1163              		.loc 1 116 0
 1164 003a 2068     		ldr	r0, [r4]
 1165 003c 0368     		ldr	r3, [r0]
 1166 003e 9B68     		ldr	r3, [r3, #8]
 1167 0040 9847     		blx	r3
 1168              	.LVL93:
 1169              		.loc 1 115 0
 1170 0042 15F8011F 		ldrb	r1, [r5, #1]!	@ zero_extendqisi2
 1171              	.LVL94:
 1172 0046 0029     		cmp	r1, #0
 1173 0048 F7D1     		bne	.L106
 1174              	.LVL95:
 1175              	.LBE315:
 1176              	.LBE314:
 1177              		.loc 1 326 0
 1178 004a 9048     		ldr	r0, .L157+28
 1179 004c 904D     		ldr	r5, .L157+32
 1180 004e FFF7FEFF 		bl	test_println
 1181              	.LVL96:
 1182 0052 2A21     		movs	r1, #42
 1183              	.LVL97:
 1184              	.L107:
 1185              	.LBB316:
 1186              	.LBB317:
 1187              		.loc 1 116 0
 1188 0054 2068     		ldr	r0, [r4]
 1189 0056 0368     		ldr	r3, [r0]
 1190 0058 9B68     		ldr	r3, [r3, #8]
 1191 005a 9847     		blx	r3
 1192              	.LVL98:
 1193              		.loc 1 115 0
 1194 005c 15F8011F 		ldrb	r1, [r5, #1]!	@ zero_extendqisi2
 1195              	.LVL99:
 1196 0060 0029     		cmp	r1, #0
 1197 0062 F7D1     		bne	.L107
ARM GAS  /tmp/cc63Ficj.s 			page 22


 1198              	.LVL100:
 1199              	.LBE317:
 1200              	.LBE316:
 1201              		.loc 1 329 0
 1202 0064 8B48     		ldr	r0, .L157+36
 1203 0066 8C4D     		ldr	r5, .L157+40
 1204 0068 FFF7FEFF 		bl	test_println
 1205              	.LVL101:
 1206 006c 2A21     		movs	r1, #42
 1207              	.LVL102:
 1208              	.L108:
 1209              	.LBB318:
 1210              	.LBB319:
 1211              		.loc 1 116 0
 1212 006e 2068     		ldr	r0, [r4]
 1213 0070 0368     		ldr	r3, [r0]
 1214 0072 9B68     		ldr	r3, [r3, #8]
 1215 0074 9847     		blx	r3
 1216              	.LVL103:
 1217              		.loc 1 115 0
 1218 0076 15F8011F 		ldrb	r1, [r5, #1]!	@ zero_extendqisi2
 1219              	.LVL104:
 1220 007a 0029     		cmp	r1, #0
 1221 007c F7D1     		bne	.L108
 1222              	.LVL105:
 1223              	.LBE319:
 1224              	.LBE318:
 1225              		.loc 1 332 0
 1226 007e 8748     		ldr	r0, .L157+44
 1227 0080 874D     		ldr	r5, .L157+48
 1228 0082 FFF7FEFF 		bl	test_println
 1229              	.LVL106:
 1230 0086 2A21     		movs	r1, #42
 1231              	.LVL107:
 1232              	.L109:
 1233              	.LBB320:
 1234              	.LBB321:
 1235              		.loc 1 116 0
 1236 0088 2068     		ldr	r0, [r4]
 1237 008a 0368     		ldr	r3, [r0]
 1238 008c 9B68     		ldr	r3, [r3, #8]
 1239 008e 9847     		blx	r3
 1240              	.LVL108:
 1241              		.loc 1 115 0
 1242 0090 15F8011F 		ldrb	r1, [r5, #1]!	@ zero_extendqisi2
 1243              	.LVL109:
 1244 0094 0029     		cmp	r1, #0
 1245 0096 F7D1     		bne	.L109
 1246              	.LVL110:
 1247              	.LBE321:
 1248              	.LBE320:
 1249              		.loc 1 335 0
 1250 0098 8248     		ldr	r0, .L157+52
 1251 009a 834D     		ldr	r5, .L157+56
 1252 009c FFF7FEFF 		bl	test_println
 1253              	.LVL111:
 1254 00a0 2A21     		movs	r1, #42
ARM GAS  /tmp/cc63Ficj.s 			page 23


 1255              	.LVL112:
 1256              	.L110:
 1257              	.LBB322:
 1258              	.LBB323:
 1259              		.loc 1 116 0
 1260 00a2 2068     		ldr	r0, [r4]
 1261 00a4 0368     		ldr	r3, [r0]
 1262 00a6 9B68     		ldr	r3, [r3, #8]
 1263 00a8 9847     		blx	r3
 1264              	.LVL113:
 1265              		.loc 1 115 0
 1266 00aa 15F8011F 		ldrb	r1, [r5, #1]!	@ zero_extendqisi2
 1267              	.LVL114:
 1268 00ae 0029     		cmp	r1, #0
 1269 00b0 F7D1     		bne	.L110
 1270              	.LVL115:
 1271              	.LBE323:
 1272              	.LBE322:
 1273              		.loc 1 339 0
 1274 00b2 7E48     		ldr	r0, .L157+60
 1275 00b4 7E4D     		ldr	r5, .L157+64
 1276 00b6 FFF7FEFF 		bl	test_println
 1277              	.LVL116:
 1278 00ba 2A21     		movs	r1, #42
 1279              	.LVL117:
 1280              	.L111:
 1281              	.LBB324:
 1282              	.LBB325:
 1283              		.loc 1 116 0
 1284 00bc 2068     		ldr	r0, [r4]
 1285 00be 0368     		ldr	r3, [r0]
 1286 00c0 9B68     		ldr	r3, [r3, #8]
 1287 00c2 9847     		blx	r3
 1288              	.LVL118:
 1289              		.loc 1 115 0
 1290 00c4 15F8011F 		ldrb	r1, [r5, #1]!	@ zero_extendqisi2
 1291              	.LVL119:
 1292 00c8 0029     		cmp	r1, #0
 1293 00ca F7D1     		bne	.L111
 1294              	.LVL120:
 1295              	.LBE325:
 1296              	.LBE324:
 1297              		.loc 1 343 0
 1298 00cc 7948     		ldr	r0, .L157+68
 1299 00ce 7A4D     		ldr	r5, .L157+72
 1300 00d0 FFF7FEFF 		bl	test_println
 1301              	.LVL121:
 1302 00d4 2A21     		movs	r1, #42
 1303              	.LVL122:
 1304              	.L112:
 1305              	.LBB326:
 1306              	.LBB327:
 1307              		.loc 1 116 0
 1308 00d6 2068     		ldr	r0, [r4]
 1309 00d8 0368     		ldr	r3, [r0]
 1310 00da 9B68     		ldr	r3, [r3, #8]
 1311 00dc 9847     		blx	r3
ARM GAS  /tmp/cc63Ficj.s 			page 24


 1312              	.LVL123:
 1313              		.loc 1 115 0
 1314 00de 15F8011F 		ldrb	r1, [r5, #1]!	@ zero_extendqisi2
 1315              	.LVL124:
 1316 00e2 0029     		cmp	r1, #0
 1317 00e4 F7D1     		bne	.L112
 1318 00e6 754B     		ldr	r3, .L157+76
 1319              	.LBE327:
 1320              	.LBE326:
 1321              		.loc 1 347 0
 1322 00e8 7548     		ldr	r0, .L157+80
 1323 00ea 0293     		str	r3, [sp, #8]
 1324              		.loc 1 351 0
 1325 00ec 754B     		ldr	r3, .L157+84
 1326 00ee 0391     		str	r1, [sp, #12]
 1327              	.LVL125:
 1328 00f0 0193     		str	r3, [sp, #4]
 1329              		.loc 1 347 0
 1330 00f2 FFF7FEFF 		bl	test_println
 1331              	.LVL126:
 1332              		.loc 1 349 0
 1333 00f6 6048     		ldr	r0, .L157+8
 1334              	.LBB328:
 1335              	.LBB329:
 1336              	.LBB330:
 1337              	.LBB331:
 1338              		.loc 1 135 0
 1339 00f8 734E     		ldr	r6, .L157+88
 1340 00fa DFF8F4A1 		ldr	r10, .L157+128
 1341              	.LBE331:
 1342              	.LBE330:
 1343              		.loc 1 290 0
 1344 00fe DFF80892 		ldr	r9, .L157+152
 1345              	.LBE329:
 1346              	.LBE328:
 1347              		.loc 1 351 0
 1348 0102 724F     		ldr	r7, .L157+92
 1349              		.loc 1 349 0
 1350 0104 FFF7FEFF 		bl	test_println
 1351              	.LVL127:
 1352              		.loc 1 351 0
 1353 0108 0399     		ldr	r1, [sp, #12]
 1354 010a 714B     		ldr	r3, .L157+96
 1355 010c 8B46     		mov	fp, r1
 1356 010e 1970     		strb	r1, [r3]
 1357              	.LVL128:
 1358              	.L113:
 1359 0110 0BF1010B 		add	fp, fp, #1
 1360              	.LVL129:
 1361 0114 043F     		subs	r7, r7, #4
 1362              	.LBB335:
 1363              	.LBB336:
 1364              		.loc 1 141 0
 1365 0116 4FF00008 		mov	r8, #0
 1366              	.L131:
 1367              	.LVL130:
 1368              	.LBE336:
ARM GAS  /tmp/cc63Ficj.s 			page 25


 1369              	.LBE335:
 1370              		.loc 1 355 0
 1371 011a 7B68     		ldr	r3, [r7, #4]
 1372 011c 002B     		cmp	r3, #0
 1373 011e 7BD0     		beq	.L155
 1374              	.L129:
 1375              		.loc 1 356 0
 1376 0120 6C4D     		ldr	r5, .L157+100
 1377 0122 FFF7FEFF 		bl	print_line
 1378              	.LVL131:
 1379 0126 2D21     		movs	r1, #45
 1380              	.LVL132:
 1381              	.L114:
 1382              	.LBB338:
 1383              	.LBB339:
 1384              		.loc 1 116 0
 1385 0128 2068     		ldr	r0, [r4]
 1386 012a 0368     		ldr	r3, [r0]
 1387 012c 9B68     		ldr	r3, [r3, #8]
 1388 012e 9847     		blx	r3
 1389              	.LVL133:
 1390              		.loc 1 115 0
 1391 0130 15F8011F 		ldrb	r1, [r5, #1]!	@ zero_extendqisi2
 1392              	.LVL134:
 1393 0134 0029     		cmp	r1, #0
 1394 0136 F7D1     		bne	.L114
 1395              	.LVL135:
 1396              	.LBE339:
 1397              	.LBE338:
 1398              		.loc 1 358 0
 1399 0138 5846     		mov	r0, fp
 1400 013a FFF7FEFF 		bl	test_printn
 1401              	.LVL136:
 1402              	.LBB340:
 1403              	.LBB341:
 1404              		.loc 1 116 0
 1405 013e 2068     		ldr	r0, [r4]
 1406              	.LVL137:
 1407              	.LBE341:
 1408              	.LBE340:
 1409              		.loc 1 360 0
 1410 0140 654D     		ldr	r5, .L157+104
 1411              	.LBB344:
 1412              	.LBB342:
 1413              		.loc 1 116 0
 1414 0142 0368     		ldr	r3, [r0]
 1415 0144 2E21     		movs	r1, #46
 1416 0146 9B68     		ldr	r3, [r3, #8]
 1417              	.LBE342:
 1418              	.LBE344:
 1419              		.loc 1 360 0
 1420 0148 08F10108 		add	r8, r8, #1
 1421              	.LVL138:
 1422              	.LBB345:
 1423              	.LBB343:
 1424              		.loc 1 116 0
 1425 014c 9847     		blx	r3
ARM GAS  /tmp/cc63Ficj.s 			page 26


 1426              	.LVL139:
 1427              	.LBE343:
 1428              	.LBE345:
 1429              		.loc 1 360 0
 1430 014e 4046     		mov	r0, r8
 1431 0150 FFF7FEFF 		bl	test_printn
 1432              	.LVL140:
 1433 0154 2021     		movs	r1, #32
 1434              	.LVL141:
 1435              	.L115:
 1436              	.LBB346:
 1437              	.LBB347:
 1438              		.loc 1 116 0
 1439 0156 2068     		ldr	r0, [r4]
 1440 0158 0368     		ldr	r3, [r0]
 1441 015a 9B68     		ldr	r3, [r3, #8]
 1442 015c 9847     		blx	r3
 1443              	.LVL142:
 1444              		.loc 1 115 0
 1445 015e 15F8011F 		ldrb	r1, [r5, #1]!	@ zero_extendqisi2
 1446              	.LVL143:
 1447 0162 0029     		cmp	r1, #0
 1448 0164 F7D1     		bne	.L115
 1449              	.LVL144:
 1450              	.LBE347:
 1451              	.LBE346:
 1452              		.loc 1 362 0
 1453 0166 57F8043F 		ldr	r3, [r7, #4]!
 1454 016a 1D68     		ldr	r5, [r3]
 1455              	.LVL145:
 1456              	.LBB348:
 1457              	.LBB349:
 1458              		.loc 1 115 0
 1459 016c 2978     		ldrb	r1, [r5]	@ zero_extendqisi2
 1460 016e 39B1     		cbz	r1, .L120
 1461              	.LVL146:
 1462              	.L119:
 1463              		.loc 1 116 0
 1464 0170 2068     		ldr	r0, [r4]
 1465 0172 0368     		ldr	r3, [r0]
 1466 0174 9B68     		ldr	r3, [r3, #8]
 1467 0176 9847     		blx	r3
 1468              	.LVL147:
 1469              		.loc 1 115 0
 1470 0178 15F8011F 		ldrb	r1, [r5, #1]!	@ zero_extendqisi2
 1471              	.LVL148:
 1472 017c 0029     		cmp	r1, #0
 1473 017e F7D1     		bne	.L119
 1474              	.LVL149:
 1475              	.L120:
 1476              	.LBE349:
 1477              	.LBE348:
 1478              		.loc 1 363 0
 1479 0180 5648     		ldr	r0, .L157+108
 1480 0182 FFF7FEFF 		bl	test_println
 1481              	.LVL150:
 1482              		.loc 1 365 0
ARM GAS  /tmp/cc63Ficj.s 			page 27


 1483 0186 4FF4FA60 		mov	r0, #2000
 1484 018a FFF7FEFF 		bl	chThdSleep
 1485              	.LVL151:
 1486              		.loc 1 367 0
 1487 018e 3D68     		ldr	r5, [r7]
 1488              	.LVL152:
 1489              	.LBB350:
 1490              	.LBB334:
 1491              		.loc 1 292 0
 1492 0190 534A     		ldr	r2, .L157+112
 1493              		.loc 1 294 0
 1494 0192 6968     		ldr	r1, [r5, #4]
 1495              	.LBB333:
 1496              	.LBB332:
 1497              		.loc 1 135 0
 1498 0194 C6F800A0 		str	r10, [r6]
 1499              	.LBE332:
 1500              	.LBE333:
 1501              		.loc 1 290 0
 1502 0198 0023     		movs	r3, #0
 1503              		.loc 1 292 0
 1504 019a 1360     		str	r3, [r2]
 1505              		.loc 1 290 0
 1506 019c 89F80030 		strb	r3, [r9]
 1507              	.LVL153:
 1508              		.loc 1 292 0
 1509 01a0 5360     		str	r3, [r2, #4]
 1510              	.LVL154:
 1511 01a2 9360     		str	r3, [r2, #8]
 1512              	.LVL155:
 1513 01a4 D360     		str	r3, [r2, #12]
 1514              	.LVL156:
 1515 01a6 1361     		str	r3, [r2, #16]
 1516              	.LVL157:
 1517              		.loc 1 294 0
 1518 01a8 01B1     		cbz	r1, .L118
 1519              		.loc 1 295 0
 1520 01aa 8847     		blx	r1
 1521              	.LVL158:
 1522              	.L118:
 1523              		.loc 1 296 0
 1524 01ac EB68     		ldr	r3, [r5, #12]
 1525 01ae 9847     		blx	r3
 1526              	.LVL159:
 1527              		.loc 1 297 0
 1528 01b0 AB68     		ldr	r3, [r5, #8]
 1529 01b2 03B1     		cbz	r3, .L121
 1530              		.loc 1 298 0
 1531 01b4 9847     		blx	r3
 1532              	.LVL160:
 1533              	.L121:
 1534              		.loc 1 300 0
 1535 01b6 FFF7FEFF 		bl	test_wait_threads
 1536              	.LVL161:
 1537              	.LBE334:
 1538              	.LBE350:
 1539              		.loc 1 368 0
ARM GAS  /tmp/cc63Ficj.s 			page 28


 1540 01ba 99F80030 		ldrb	r3, [r9]	@ zero_extendqisi2
 1541 01be 002B     		cmp	r3, #0
 1542 01c0 34D0     		beq	.L122
 1543 01c2 484D     		ldr	r5, .L157+116
 1544 01c4 2D21     		movs	r1, #45
 1545              	.L123:
 1546              	.LVL162:
 1547              	.LBB351:
 1548              	.LBB352:
 1549              		.loc 1 116 0
 1550 01c6 2068     		ldr	r0, [r4]
 1551 01c8 0368     		ldr	r3, [r0]
 1552 01ca 9B68     		ldr	r3, [r3, #8]
 1553 01cc 9847     		blx	r3
 1554              	.LVL163:
 1555              		.loc 1 115 0
 1556 01ce 15F8011F 		ldrb	r1, [r5, #1]!	@ zero_extendqisi2
 1557              	.LVL164:
 1558 01d2 0029     		cmp	r1, #0
 1559 01d4 F7D1     		bne	.L123
 1560              	.LVL165:
 1561              	.LBE352:
 1562              	.LBE351:
 1563              		.loc 1 370 0
 1564 01d6 444B     		ldr	r3, .L157+120
 1565 01d8 444D     		ldr	r5, .L157+124
 1566 01da 1868     		ldr	r0, [r3]
 1567 01dc FFF7FEFF 		bl	test_printn
 1568              	.LVL166:
 1569 01e0 2021     		movs	r1, #32
 1570              	.LVL167:
 1571              	.L124:
 1572              	.LBB353:
 1573              	.LBB354:
 1574              		.loc 1 116 0
 1575 01e2 2068     		ldr	r0, [r4]
 1576 01e4 0368     		ldr	r3, [r0]
 1577 01e6 9B68     		ldr	r3, [r3, #8]
 1578 01e8 9847     		blx	r3
 1579              	.LVL168:
 1580              		.loc 1 115 0
 1581 01ea 15F8011F 		ldrb	r1, [r5, #1]!	@ zero_extendqisi2
 1582              	.LVL169:
 1583 01ee 0029     		cmp	r1, #0
 1584 01f0 F7D1     		bne	.L124
 1585              	.LVL170:
 1586              	.LBE354:
 1587              	.LBE353:
 1588              	.LBB355:
 1589              	.LBB337:
 1590              		.loc 1 141 0
 1591 01f2 3368     		ldr	r3, [r6]
 1592 01f4 5345     		cmp	r3, r10
 1593 01f6 09D9     		bls	.L128
 1594 01f8 3D4D     		ldr	r5, .L157+128
 1595              	.LVL171:
 1596              	.L127:
ARM GAS  /tmp/cc63Ficj.s 			page 29


 1597              		.loc 1 142 0
 1598 01fa 2068     		ldr	r0, [r4]
 1599 01fc 15F8011B 		ldrb	r1, [r5], #1	@ zero_extendqisi2
 1600              	.LVL172:
 1601 0200 0368     		ldr	r3, [r0]
 1602 0202 9B68     		ldr	r3, [r3, #8]
 1603 0204 9847     		blx	r3
 1604              	.LVL173:
 1605              		.loc 1 141 0
 1606 0206 3368     		ldr	r3, [r6]
 1607 0208 9D42     		cmp	r5, r3
 1608 020a F6D3     		bcc	.L127
 1609              	.LVL174:
 1610              	.L128:
 1611              	.LBE337:
 1612              	.LBE355:
 1613              		.loc 1 373 0
 1614 020c 3948     		ldr	r0, .L157+132
 1615 020e FFF7FEFF 		bl	test_println
 1616              	.LVL175:
 1617              		.loc 1 355 0
 1618 0212 7B68     		ldr	r3, [r7, #4]
 1619 0214 002B     		cmp	r3, #0
 1620 0216 83D1     		bne	.L129
 1621              	.L155:
 1622              	.LVL176:
 1623              		.loc 1 353 0
 1624 0218 019B     		ldr	r3, [sp, #4]
 1625 021a 5BB1     		cbz	r3, .L130
 1626              		.loc 1 379 0
 1627 021c 1F46     		mov	r7, r3
 1628 021e 029B     		ldr	r3, [sp, #8]
 1629 0220 1A46     		mov	r2, r3
 1630 0222 52F8043F 		ldr	r3, [r2, #4]!
 1631 0226 0193     		str	r3, [sp, #4]
 1632 0228 0292     		str	r2, [sp, #8]
 1633 022a 71E7     		b	.L113
 1634              	.LVL177:
 1635              	.L122:
 1636              		.loc 1 376 0
 1637 022c 3248     		ldr	r0, .L157+136
 1638 022e FFF7FEFF 		bl	test_println
 1639              	.LVL178:
 1640 0232 72E7     		b	.L131
 1641              	.LVL179:
 1642              	.L130:
 1643              		.loc 1 381 0
 1644 0234 FFF7FEFF 		bl	print_line
 1645              	.LVL180:
 1646              		.loc 1 382 0
 1647 0238 304D     		ldr	r5, .L157+140
 1648 023a 0F48     		ldr	r0, .L157+8
 1649 023c FFF7FEFF 		bl	test_println
 1650              	.LVL181:
 1651 0240 4621     		movs	r1, #70
 1652              	.LVL182:
 1653              	.L132:
ARM GAS  /tmp/cc63Ficj.s 			page 30


 1654              	.LBB356:
 1655              	.LBB357:
 1656              		.loc 1 116 0
 1657 0242 2068     		ldr	r0, [r4]
 1658 0244 0368     		ldr	r3, [r0]
 1659 0246 9B68     		ldr	r3, [r3, #8]
 1660 0248 9847     		blx	r3
 1661              	.LVL183:
 1662              		.loc 1 115 0
 1663 024a 15F8011F 		ldrb	r1, [r5, #1]!	@ zero_extendqisi2
 1664              	.LVL184:
 1665 024e 0029     		cmp	r1, #0
 1666 0250 F7D1     		bne	.L132
 1667              	.LVL185:
 1668              	.LBE357:
 1669              	.LBE356:
 1670              		.loc 1 384 0
 1671 0252 1F4B     		ldr	r3, .L157+96
 1672 0254 1B78     		ldrb	r3, [r3]	@ zero_extendqisi2
 1673 0256 2BB9     		cbnz	r3, .L156
 1674              		.loc 1 387 0
 1675 0258 2948     		ldr	r0, .L157+144
 1676              		.loc 1 388 0
 1677 025a 05B0     		add	sp, sp, #20
 1678              		.cfi_remember_state
 1679              		.cfi_def_cfa_offset 36
 1680              		@ sp needed
 1681 025c BDE8F04F 		pop	{r4, r5, r6, r7, r8, r9, r10, fp, lr}
 1682              		.cfi_restore 14
 1683              		.cfi_restore 11
 1684              		.cfi_restore 10
 1685              		.cfi_restore 9
 1686              		.cfi_restore 8
 1687              		.cfi_restore 7
 1688              		.cfi_restore 6
 1689              		.cfi_restore 5
 1690              		.cfi_restore 4
 1691              		.cfi_def_cfa_offset 0
 1692              	.LVL186:
 1693              		.loc 1 387 0
 1694 0260 FFF7FEBF 		b	test_println
 1695              	.LVL187:
 1696              	.L156:
 1697              		.cfi_restore_state
 1698              		.loc 1 385 0
 1699 0264 2748     		ldr	r0, .L157+148
 1700              		.loc 1 388 0
 1701 0266 05B0     		add	sp, sp, #20
 1702              		.cfi_def_cfa_offset 36
 1703              		@ sp needed
 1704 0268 BDE8F04F 		pop	{r4, r5, r6, r7, r8, r9, r10, fp, lr}
 1705              		.cfi_restore 4
 1706              		.cfi_restore 5
 1707              		.cfi_restore 6
 1708              		.cfi_restore 7
 1709              		.cfi_restore 8
 1710              		.cfi_restore 9
ARM GAS  /tmp/cc63Ficj.s 			page 31


 1711              		.cfi_restore 10
 1712              		.cfi_restore 11
 1713              		.cfi_restore 14
 1714              		.cfi_def_cfa_offset 0
 1715              	.LVL188:
 1716              		.loc 1 387 0
 1717 026c FFF7FEBF 		b	test_println
 1718              	.LVL189:
 1719              	.L158:
 1720              		.align	2
 1721              	.L157:
 1722 0270 00000000 		.word	.LANCHOR1
 1723 0274 00000000 		.word	.LC1
 1724 0278 E0000000 		.word	.LC14
 1725 027c E4000000 		.word	.LC15
 1726 0280 00010000 		.word	.LC16
 1727 0284 04010000 		.word	.LC17
 1728 0288 14000000 		.word	.LC2
 1729 028c 0C010000 		.word	.LC18
 1730 0290 28000000 		.word	.LC3
 1731 0294 24010000 		.word	.LC19
 1732 0298 3C000000 		.word	.LC4
 1733 029c 6C010000 		.word	.LC20
 1734 02a0 50000000 		.word	.LC5
 1735 02a4 78010000 		.word	.LC21
 1736 02a8 64000000 		.word	.LC6
 1737 02ac 84010000 		.word	.LC22
 1738 02b0 78000000 		.word	.LC7
 1739 02b4 9C010000 		.word	.LC23
 1740 02b8 8C000000 		.word	.LC8
 1741 02bc 04000000 		.word	.LANCHOR9+4
 1742 02c0 C8010000 		.word	.LC24
 1743 02c4 00000000 		.word	patternthd
 1744 02c8 00000000 		.word	.LANCHOR2
 1745 02cc 00000000 		.word	patternsys
 1746 02d0 00000000 		.word	.LANCHOR3
 1747 02d4 A0000000 		.word	.LC9
 1748 02d8 B0000000 		.word	.LC10
 1749 02dc F0010000 		.word	.LC25
 1750 02e0 00000000 		.word	.LANCHOR7
 1751 02e4 B4000000 		.word	.LC11
 1752 02e8 00000000 		.word	.LANCHOR5
 1753 02ec CC000000 		.word	.LC12
 1754 02f0 00000000 		.word	.LANCHOR6
 1755 02f4 F4010000 		.word	.LC26
 1756 02f8 F8010000 		.word	.LC27
 1757 02fc D0000000 		.word	.LC13
 1758 0300 14020000 		.word	.LC29
 1759 0304 0C020000 		.word	.LC28
 1760 0308 00000000 		.word	.LANCHOR4
 1761              		.cfi_endproc
 1762              	.LFE275:
 1763              		.size	TestThread, .-TestThread
 1764              		.global	test_timer_done
 1765              		.global	wa
 1766              		.global	threads
 1767              		.global	test
ARM GAS  /tmp/cc63Ficj.s 			page 32


 1768              		.global	test_global_fail
 1769              		.section	.bss.chp,"aw",%nobits
 1770              		.align	2
 1771              		.set	.LANCHOR1,. + 0
 1772              		.type	chp, %object
 1773              		.size	chp, 4
 1774              	chp:
 1775 0000 00000000 		.space	4
 1776              		.section	.bss.failpoint,"aw",%nobits
 1777              		.align	2
 1778              		.set	.LANCHOR5,. + 0
 1779              		.type	failpoint, %object
 1780              		.size	failpoint, 4
 1781              	failpoint:
 1782 0000 00000000 		.space	4
 1783              		.section	.bss.local_fail,"aw",%nobits
 1784              		.set	.LANCHOR4,. + 0
 1785              		.type	local_fail, %object
 1786              		.size	local_fail, 1
 1787              	local_fail:
 1788 0000 00       		.space	1
 1789              		.section	.bss.test,"aw",%nobits
 1790              		.align	3
 1791              		.type	test, %object
 1792              		.size	test, 1640
 1793              	test:
 1794 0000 00000000 		.space	1640
 1794      00000000 
 1794      00000000 
 1794      00000000 
 1794      00000000 
 1795              		.section	.bss.test_global_fail,"aw",%nobits
 1796              		.set	.LANCHOR3,. + 0
 1797              		.type	test_global_fail, %object
 1798              		.size	test_global_fail, 1
 1799              	test_global_fail:
 1800 0000 00       		.space	1
 1801              		.section	.bss.test_timer_done,"aw",%nobits
 1802              		.set	.LANCHOR0,. + 0
 1803              		.type	test_timer_done, %object
 1804              		.size	test_timer_done, 1
 1805              	test_timer_done:
 1806 0000 00       		.space	1
 1807              		.section	.bss.threads,"aw",%nobits
 1808              		.align	2
 1809              		.set	.LANCHOR7,. + 0
 1810              		.type	threads, %object
 1811              		.size	threads, 20
 1812              	threads:
 1813 0000 00000000 		.space	20
 1813      00000000 
 1813      00000000 
 1813      00000000 
 1813      00000000 
 1814              		.section	.bss.tokens_buffer,"aw",%nobits
 1815              		.align	2
 1816              		.set	.LANCHOR6,. + 0
ARM GAS  /tmp/cc63Ficj.s 			page 33


 1817              		.type	tokens_buffer, %object
 1818              		.size	tokens_buffer, 16
 1819              	tokens_buffer:
 1820 0000 00000000 		.space	16
 1820      00000000 
 1820      00000000 
 1820      00000000 
 1821              		.section	.bss.tokp,"aw",%nobits
 1822              		.align	2
 1823              		.set	.LANCHOR2,. + 0
 1824              		.type	tokp, %object
 1825              		.size	tokp, 4
 1826              	tokp:
 1827 0000 00000000 		.space	4
 1828              		.section	.bss.vt,"aw",%nobits
 1829              		.align	2
 1830              		.set	.LANCHOR8,. + 0
 1831              		.type	vt, %object
 1832              		.size	vt, 20
 1833              	vt:
 1834 0000 00000000 		.space	20
 1834      00000000 
 1834      00000000 
 1834      00000000 
 1834      00000000 
 1835              		.section	.rodata.TestThread.str1.4,"aMS",%progbits,1
 1836              		.align	2
 1837              	.LC1:
 1838 0000 2A2A2A20 		.ascii	"*** Kernel:       \000"
 1838      4B65726E 
 1838      656C3A20 
 1838      20202020 
 1838      202000
 1839 0013 00       		.space	1
 1840              	.LC2:
 1841 0014 2A2A2A20 		.ascii	"*** Compiled:     \000"
 1841      436F6D70 
 1841      696C6564 
 1841      3A202020 
 1841      202000
 1842 0027 00       		.space	1
 1843              	.LC3:
 1844 0028 2A2A2A20 		.ascii	"*** Compiler:     \000"
 1844      436F6D70 
 1844      696C6572 
 1844      3A202020 
 1844      202000
 1845 003b 00       		.space	1
 1846              	.LC4:
 1847 003c 2A2A2A20 		.ascii	"*** Architecture: \000"
 1847      41726368 
 1847      69746563 
 1847      74757265 
 1847      3A2000
 1848 004f 00       		.space	1
 1849              	.LC5:
 1850 0050 2A2A2A20 		.ascii	"*** Core Variant: \000"
ARM GAS  /tmp/cc63Ficj.s 			page 34


 1850      436F7265 
 1850      20566172 
 1850      69616E74 
 1850      3A2000
 1851 0063 00       		.space	1
 1852              	.LC6:
 1853 0064 2A2A2A20 		.ascii	"*** Port Info:    \000"
 1853      506F7274 
 1853      20496E66 
 1853      6F3A2020 
 1853      202000
 1854 0077 00       		.space	1
 1855              	.LC7:
 1856 0078 2A2A2A20 		.ascii	"*** Platform:     \000"
 1856      506C6174 
 1856      666F726D 
 1856      3A202020 
 1856      202000
 1857 008b 00       		.space	1
 1858              	.LC8:
 1859 008c 2A2A2A20 		.ascii	"*** Test Board:   \000"
 1859      54657374 
 1859      20426F61 
 1859      72643A20 
 1859      202000
 1860 009f 00       		.space	1
 1861              	.LC9:
 1862 00a0 2D2D2D20 		.ascii	"--- Test Case \000"
 1862      54657374 
 1862      20436173 
 1862      652000
 1863 00af 00       		.space	1
 1864              	.LC10:
 1865 00b0 202800   		.ascii	" (\000"
 1866 00b3 00       		.space	1
 1867              	.LC11:
 1868 00b4 2D2D2D20 		.ascii	"--- Result: FAILURE (#\000"
 1868      52657375 
 1868      6C743A20 
 1868      4641494C 
 1868      55524520 
 1869 00cb 00       		.space	1
 1870              	.LC12:
 1871 00cc 205B00   		.ascii	" [\000"
 1872 00cf 00       		.space	1
 1873              	.LC13:
 1874 00d0 46696E61 		.ascii	"Final result: \000"
 1874      6C207265 
 1874      73756C74 
 1874      3A2000
 1875 00df 00       		.space	1
 1876              	.LC14:
 1877 00e0 00       		.ascii	"\000"
 1878 00e1 000000   		.space	3
 1879              	.LC15:
 1880 00e4 2A2A2A20 		.ascii	"*** ChibiOS/RT test suite\000"
 1880      43686962 
ARM GAS  /tmp/cc63Ficj.s 			page 35


 1880      694F532F 
 1880      52542074 
 1880      65737420 
 1881 00fe 0000     		.space	2
 1882              	.LC16:
 1883 0100 2A2A2A00 		.ascii	"***\000"
 1884              	.LC17:
 1885 0104 332E302E 		.ascii	"3.0.0p6\000"
 1885      30703600 
 1886              	.LC18:
 1887 010c 4A756E20 		.ascii	"Jun  6 2018 - 23:12:20\000"
 1887      20362032 
 1887      30313820 
 1887      2D203233 
 1887      3A31323A 
 1888 0123 00       		.space	1
 1889              	.LC19:
 1890 0124 47434320 		.ascii	"GCC 6.2.1 20161205 (release) [ARM/embedded-6-branch"
 1890      362E322E 
 1890      31203230 
 1890      31363132 
 1890      30352028 
 1891 0157 20726576 		.ascii	" revision 243739]\000"
 1891      6973696F 
 1891      6E203234 
 1891      33373339 
 1891      5D00
 1892 0169 000000   		.space	3
 1893              	.LC20:
 1894 016c 41524D76 		.ascii	"ARMv7-ME\000"
 1894      372D4D45 
 1894      00
 1895 0175 000000   		.space	3
 1896              	.LC21:
 1897 0178 436F7274 		.ascii	"Cortex-M4\000"
 1897      65782D4D 
 1897      3400
 1898 0182 0000     		.space	2
 1899              	.LC22:
 1900 0184 41647661 		.ascii	"Advanced kernel mode\000"
 1900      6E636564 
 1900      206B6572 
 1900      6E656C20 
 1900      6D6F6465 
 1901 0199 000000   		.space	3
 1902              	.LC23:
 1903 019c 53544D33 		.ascii	"STM32F407 High Performance with DSP and FPU\000"
 1903      32463430 
 1903      37204869 
 1903      67682050 
 1903      6572666F 
 1904              	.LC24:
 1905 01c8 53544D69 		.ascii	"STMicroelectronics STM32F4-Discovery\000"
 1905      63726F65 
 1905      6C656374 
 1905      726F6E69 
 1905      63732053 
ARM GAS  /tmp/cc63Ficj.s 			page 36


 1906 01ed 000000   		.space	3
 1907              	.LC25:
 1908 01f0 2900     		.ascii	")\000"
 1909 01f2 0000     		.space	2
 1910              	.LC26:
 1911 01f4 5D2900   		.ascii	"])\000"
 1912 01f7 00       		.space	1
 1913              	.LC27:
 1914 01f8 2D2D2D20 		.ascii	"--- Result: SUCCESS\000"
 1914      52657375 
 1914      6C743A20 
 1914      53554343 
 1914      45535300 
 1915              	.LC28:
 1916 020c 4641494C 		.ascii	"FAILURE\000"
 1916      55524500 
 1917              	.LC29:
 1918 0214 53554343 		.ascii	"SUCCESS\000"
 1918      45535300 
 1919              		.section	.rodata.patterns,"a",%progbits
 1920              		.align	2
 1921              		.set	.LANCHOR9,. + 0
 1922              		.type	patterns, %object
 1923              		.size	patterns, 52
 1924              	patterns:
 1925 0000 00000000 		.word	patternsys
 1926 0004 00000000 		.word	patternthd
 1927 0008 00000000 		.word	patternsem
 1928 000c 00000000 		.word	patternmtx
 1929 0010 00000000 		.word	patternmsg
 1930 0014 00000000 		.word	patternmbox
 1931 0018 00000000 		.word	patternevt
 1932 001c 00000000 		.word	patternheap
 1933 0020 00000000 		.word	patternpools
 1934 0024 00000000 		.word	patterndyn
 1935 0028 00000000 		.word	patternqueues
 1936 002c 00000000 		.word	patternbmk
 1937 0030 00000000 		.word	0
 1938              		.section	.rodata.print_line.str1.4,"aMS",%progbits,1
 1939              		.align	2
 1940              	.LC0:
 1941 0000 0D0A00   		.ascii	"\015\012\000"
 1942              		.section	.rodata.wa,"a",%progbits
 1943              		.align	2
 1944              		.type	wa, %object
 1945              		.size	wa, 20
 1946              	wa:
 1947 0000 00000000 		.word	test
 1948 0004 48010000 		.word	test+328
 1949 0008 90020000 		.word	test+656
 1950 000c D8030000 		.word	test+984
 1951 0010 20050000 		.word	test+1312
 1952              		.text
 1953              	.Letext0:
 1954              		.file 5 "/usr/lib/gcc/arm-none-eabi/6.2.1/include/stddef.h"
 1955              		.file 6 "/usr/arm-none-eabi/include/machine/_default_types.h"
 1956              		.file 7 "/usr/arm-none-eabi/include/sys/_stdint.h"
ARM GAS  /tmp/cc63Ficj.s 			page 37


 1957              		.file 8 "/home/selim/working/ChibiOS/os/rt/ports/ARMCMx/compilers/GCC/chtypes.h"
 1958              		.file 9 "/home/selim/working/ChibiOS/os/rt/include/chsystypes.h"
 1959              		.file 10 "/home/selim/working/ChibiOS/os/rt/include/chschd.h"
 1960              		.file 11 "/home/selim/working/ChibiOS/os/ext/CMSIS/include/core_cm4.h"
 1961              		.file 12 "/home/selim/working/ChibiOS/os/ext/CMSIS/ST/system_stm32f4xx.h"
 1962              		.file 13 "/home/selim/working/ChibiOS/os/ext/CMSIS/ST/stm32f407xx.h"
 1963              		.file 14 "/home/selim/working/ChibiOS/os/rt/ports/ARMCMx/chcore.h"
 1964              		.file 15 "/home/selim/working/ChibiOS/os/rt/ports/ARMCMx/chcore_v7m.h"
 1965              		.file 16 "/home/selim/working/ChibiOS/os/hal/ports/STM32/LLD/TIMv1/stm32_tim.h"
 1966              		.file 17 "/home/selim/working/ChibiOS/os/rt/include/chtm.h"
 1967              		.file 18 "/home/selim/working/ChibiOS/os/rt/include/chsem.h"
 1968              		.file 19 "/home/selim/working/ChibiOS/os/rt/include/chmtx.h"
 1969              		.file 20 "/home/selim/working/ChibiOS/os/rt/include/chregistry.h"
 1970              		.file 21 "/home/selim/working/ChibiOS/os/rt/include/chevents.h"
 1971              		.file 22 "/home/selim/working/ChibiOS/os/rt/include/chqueues.h"
 1972              		.file 23 "/home/selim/working/ChibiOS/os/rt/include/chstreams.h"
 1973              		.file 24 "/home/selim/working/ChibiOS/os/hal/ports/STM32/STM32F4xx/stm32_dma.h"
 1974              		.file 25 "/home/selim/working/ChibiOS/os/hal/ports/STM32/LLD/GPIOv2/pal_lld.h"
 1975              		.file 26 "/home/selim/working/ChibiOS/os/hal/include/adc.h"
 1976              		.file 27 "/home/selim/working/ChibiOS/os/hal/ports/STM32/STM32F4xx/adc_lld.h"
 1977              		.file 28 "/home/selim/working/ChibiOS/os/hal/include/gpt.h"
 1978              		.file 29 "/home/selim/working/ChibiOS/os/hal/ports/STM32/LLD/TIMv1/gpt_lld.h"
 1979              		.file 30 "/home/selim/working/ChibiOS/os/hal/include/pwm.h"
 1980              		.file 31 "/home/selim/working/ChibiOS/os/hal/ports/STM32/LLD/TIMv1/pwm_lld.h"
 1981              		.file 32 "/home/selim/working/ChibiOS/os/hal/include/serial.h"
 1982              		.file 33 "/home/selim/working/ChibiOS/os/hal/ports/STM32/LLD/USARTv1/serial_lld.h"
 1983              		.file 34 "/home/selim/working/ChibiOS/os/hal/include/spi.h"
 1984              		.file 35 "/home/selim/working/ChibiOS/os/hal/ports/STM32/LLD/SPIv1/spi_lld.h"
 1985              		.file 36 "/home/selim/working/ChibiOS/os/hal/include/usb.h"
 1986              		.file 37 "/home/selim/working/ChibiOS/os/hal/ports/STM32/LLD/OTGv1/usb_lld.h"
 1987              		.file 38 "/home/selim/working/ChibiOS/os/hal/ports/STM32/LLD/OTGv1/stm32_otg.h"
 1988              		.file 39 "/home/selim/working/ChibiOS/test/rt/test.h"
 1989              		.file 40 "/home/selim/working/ChibiOS/test/rt/testsys.h"
 1990              		.file 41 "/home/selim/working/ChibiOS/test/rt/testthd.h"
 1991              		.file 42 "/home/selim/working/ChibiOS/test/rt/testsem.h"
 1992              		.file 43 "/home/selim/working/ChibiOS/test/rt/testmtx.h"
 1993              		.file 44 "/home/selim/working/ChibiOS/test/rt/testmsg.h"
 1994              		.file 45 "/home/selim/working/ChibiOS/test/rt/testmbox.h"
 1995              		.file 46 "/home/selim/working/ChibiOS/test/rt/testevt.h"
 1996              		.file 47 "/home/selim/working/ChibiOS/test/rt/testheap.h"
 1997              		.file 48 "/home/selim/working/ChibiOS/test/rt/testpools.h"
 1998              		.file 49 "/home/selim/working/ChibiOS/test/rt/testdyn.h"
 1999              		.file 50 "/home/selim/working/ChibiOS/test/rt/testqueues.h"
 2000              		.file 51 "/home/selim/working/ChibiOS/test/rt/testbmk.h"
 2001              		.file 52 "/home/selim/working/ChibiOS/os/rt/include/chsys.h"
 2002              		.file 53 "/home/selim/working/ChibiOS/os/rt/ports/ARMCMx/chcore_timer.h"
 2003              		.file 54 "/home/selim/working/ChibiOS/os/rt/include/chthreads.h"