ARM GAS  /tmp/cccEV7XE.s 			page 1


   1              		.cpu cortex-m4
   2              		.eabi_attribute 20, 1
   3              		.eabi_attribute 21, 1
   4              		.eabi_attribute 23, 3
   5              		.eabi_attribute 24, 1
   6              		.eabi_attribute 25, 1
   7              		.eabi_attribute 26, 1
   8              		.eabi_attribute 30, 2
   9              		.eabi_attribute 34, 1
  10              		.eabi_attribute 18, 4
  11              		.file	"testdyn.c"
  12              		.text
  13              	.Ltext0:
  14              		.cfi_sections	.debug_frame
  15              		.section	.text.dyn1_execute,"ax",%progbits
  16              		.align	1
  17              		.p2align 4,,15
  18              		.syntax unified
  19              		.thumb
  20              		.thumb_func
  21              		.fpu softvfp
  22              		.type	dyn1_execute, %function
  23              	dyn1_execute:
  24              	.LFB229:
  25              		.file 1 "/home/selim/working/ChibiOS/test/rt/testdyn.c"
  26              		.loc 1 82 0
  27              		.cfi_startproc
  28              		@ args = 0, pretend = 0, frame = 8
  29              		@ frame_needed = 0, uses_anonymous_args = 0
  30 0000 70B5     		push	{r4, r5, r6, lr}
  31              		.cfi_def_cfa_offset 16
  32              		.cfi_offset 4, -16
  33              		.cfi_offset 5, -12
  34              		.cfi_offset 6, -8
  35              		.cfi_offset 14, -4
  36              	.LBB16:
  37              	.LBB17:
  38              	.LBB18:
  39              	.LBB19:
  40              		.file 2 "/home/selim/working/ChibiOS/os/rt/include/chthreads.h"
  41              		.loc 2 176 0
  42 0002 344B     		ldr	r3, .L14
  43              	.LBE19:
  44              	.LBE18:
  45              	.LBE17:
  46              	.LBE16:
  47              		.loc 1 87 0
  48 0004 3448     		ldr	r0, .L14+4
  49              	.LBB22:
  50              	.LBB20:
  51              		.loc 2 189 0
  52 0006 9B69     		ldr	r3, [r3, #24]
  53              	.LBE20:
  54              	.LBE22:
  55              		.loc 1 89 0
  56 0008 344C     		ldr	r4, .L14+8
  57              	.LBB23:
ARM GAS  /tmp/cccEV7XE.s 			page 2


  58              	.LBB21:
  59              		.loc 2 189 0
  60 000a 9D68     		ldr	r5, [r3, #8]
  61              	.LBE21:
  62              	.LBE23:
  63              		.loc 1 82 0
  64 000c 84B0     		sub	sp, sp, #16
  65              		.cfi_def_cfa_offset 32
  66              		.loc 1 87 0
  67 000e 03A9     		add	r1, sp, #12
  68 0010 FFF7FEFF 		bl	chHeapStatus
  69              	.LVL0:
  70              		.loc 1 89 0
  71 0014 324B     		ldr	r3, .L14+12
  72 0016 0093     		str	r3, [sp]
  73 0018 6A1E     		subs	r2, r5, #1
  74 001a 324B     		ldr	r3, .L14+16
  75 001c 2E48     		ldr	r0, .L14+4
  76 001e 4FF4A471 		mov	r1, #328
  77 0022 FFF7FEFF 		bl	chThdCreateFromHeap
  78              	.LVL1:
  79              		.loc 1 92 0
  80 0026 304B     		ldr	r3, .L14+20
  81              		.loc 1 89 0
  82 0028 2060     		str	r0, [r4]
  83              		.loc 1 92 0
  84 002a AA1E     		subs	r2, r5, #2
  85 002c 0093     		str	r3, [sp]
  86 002e 4FF4A471 		mov	r1, #328
  87 0032 2C4B     		ldr	r3, .L14+16
  88 0034 2848     		ldr	r0, .L14+4
  89 0036 FFF7FEFF 		bl	chThdCreateFromHeap
  90              	.LVL2:
  91              		.loc 1 96 0
  92 003a 02A9     		add	r1, sp, #8
  93              		.loc 1 92 0
  94 003c 6060     		str	r0, [r4, #4]
  95              		.loc 1 96 0
  96 003e 2648     		ldr	r0, .L14+4
  97 0040 FFF7FEFF 		bl	chHeapStatus
  98              	.LVL3:
  99              		.loc 1 97 0
 100 0044 0299     		ldr	r1, [sp, #8]
 101 0046 2448     		ldr	r0, .L14+4
 102 0048 FFF7FEFF 		bl	chHeapAlloc
 103              	.LVL4:
 104              		.loc 1 98 0
 105 004c 274B     		ldr	r3, .L14+24
 106 004e 0093     		str	r3, [sp]
 107 0050 4FF4A471 		mov	r1, #328
 108              		.loc 1 97 0
 109 0054 0646     		mov	r6, r0
 110              	.LVL5:
 111              		.loc 1 98 0
 112 0056 EA1E     		subs	r2, r5, #3
 113 0058 224B     		ldr	r3, .L14+16
 114 005a 1F48     		ldr	r0, .L14+4
ARM GAS  /tmp/cccEV7XE.s 			page 3


 115              	.LVL6:
 116 005c FFF7FEFF 		bl	chThdCreateFromHeap
 117              	.LVL7:
 118 0060 A060     		str	r0, [r4, #8]
 119              		.loc 1 101 0
 120 0062 3046     		mov	r0, r6
 121 0064 FFF7FEFF 		bl	chHeapFree
 122              	.LVL8:
 123              		.loc 1 103 0
 124 0068 2168     		ldr	r1, [r4]
 125 006a 21B1     		cbz	r1, .L2
 126              		.loc 1 103 0 is_stmt 0 discriminator 1
 127 006c 6168     		ldr	r1, [r4, #4]
 128 006e 11B1     		cbz	r1, .L2
 129              		.loc 1 103 0 discriminator 3
 130 0070 A168     		ldr	r1, [r4, #8]
 131 0072 31B3     		cbz	r1, .L12
 132 0074 0021     		movs	r1, #0
 133              	.L2:
 134              		.loc 1 103 0 discriminator 12
 135 0076 0120     		movs	r0, #1
 136 0078 FFF7FEFF 		bl	_test_assert
 137              	.LVL9:
 138 007c 08B1     		cbz	r0, .L13
 139              	.L1:
 140              		.loc 1 117 0 is_stmt 1
 141 007e 04B0     		add	sp, sp, #16
 142              		.cfi_remember_state
 143              		.cfi_def_cfa_offset 16
 144              		@ sp needed
 145 0080 70BD     		pop	{r4, r5, r6, pc}
 146              	.LVL10:
 147              	.L13:
 148              		.cfi_restore_state
 149              		.loc 1 111 0
 150 0082 FFF7FEFF 		bl	test_wait_threads
 151              	.LVL11:
 152              		.loc 1 112 0
 153 0086 1A49     		ldr	r1, .L14+28
 154 0088 0220     		movs	r0, #2
 155 008a FFF7FEFF 		bl	_test_assert_sequence
 156              	.LVL12:
 157 008e 0028     		cmp	r0, #0
 158 0090 F5D1     		bne	.L1
 159              		.loc 1 115 0
 160 0092 02A9     		add	r1, sp, #8
 161 0094 1048     		ldr	r0, .L14+4
 162 0096 FFF7FEFF 		bl	chHeapStatus
 163              	.LVL13:
 164 009a A0F10101 		sub	r1, r0, #1
 165 009e B1FA81F1 		clz	r1, r1
 166 00a2 4909     		lsrs	r1, r1, #5
 167 00a4 0320     		movs	r0, #3
 168 00a6 FFF7FEFF 		bl	_test_assert
 169              	.LVL14:
 170 00aa 0028     		cmp	r0, #0
 171 00ac E7D1     		bne	.L1
ARM GAS  /tmp/cccEV7XE.s 			page 4


 172              		.loc 1 116 0
 173 00ae 0299     		ldr	r1, [sp, #8]
 174 00b0 039B     		ldr	r3, [sp, #12]
 175 00b2 C91A     		subs	r1, r1, r3
 176 00b4 B1FA81F1 		clz	r1, r1
 177 00b8 4909     		lsrs	r1, r1, #5
 178 00ba 0420     		movs	r0, #4
 179 00bc FFF7FEFF 		bl	_test_assert
 180              	.LVL15:
 181 00c0 DDE7     		b	.L1
 182              	.L12:
 183              		.loc 1 103 0 discriminator 5
 184 00c2 E368     		ldr	r3, [r4, #12]
 185 00c4 002B     		cmp	r3, #0
 186 00c6 D6D1     		bne	.L2
 187              		.loc 1 103 0 is_stmt 0 discriminator 7
 188 00c8 2169     		ldr	r1, [r4, #16]
 189 00ca B1FA81F1 		clz	r1, r1
 190 00ce 4909     		lsrs	r1, r1, #5
 191 00d0 D1E7     		b	.L2
 192              	.L15:
 193 00d2 00BF     		.align	2
 194              	.L14:
 195 00d4 00000000 		.word	ch
 196 00d8 00000000 		.word	.LANCHOR0
 197 00dc 00000000 		.word	threads
 198 00e0 00000000 		.word	.LC0
 199 00e4 00000000 		.word	thread
 200 00e8 04000000 		.word	.LC1
 201 00ec 08000000 		.word	.LC2
 202 00f0 0C000000 		.word	.LC3
 203              		.cfi_endproc
 204              	.LFE229:
 205              		.size	dyn1_execute, .-dyn1_execute
 206              		.section	.text.thread,"ax",%progbits
 207              		.align	1
 208              		.p2align 4,,15
 209              		.syntax unified
 210              		.thumb
 211              		.thumb_func
 212              		.fpu softvfp
 213              		.type	thread, %function
 214              	thread:
 215              	.LFB227:
 216              		.loc 1 71 0 is_stmt 1
 217              		.cfi_startproc
 218              		@ args = 0, pretend = 0, frame = 0
 219              		@ frame_needed = 0, uses_anonymous_args = 0
 220              		@ link register save eliminated.
 221              	.LVL16:
 222              		.loc 1 73 0
 223 0000 0078     		ldrb	r0, [r0]	@ zero_extendqisi2
 224              	.LVL17:
 225 0002 FFF7FEBF 		b	test_emit_token
 226              	.LVL18:
 227              		.cfi_endproc
 228              	.LFE227:
ARM GAS  /tmp/cccEV7XE.s 			page 5


 229              		.size	thread, .-thread
 230 0006 00BF     		.section	.text.dyn3_setup,"ax",%progbits
 231              		.align	1
 232              		.p2align 4,,15
 233              		.syntax unified
 234              		.thumb
 235              		.thumb_func
 236              		.fpu softvfp
 237              		.type	dyn3_setup, %function
 238              	dyn3_setup:
 239              	.LFB233:
 240              		.loc 1 205 0
 241              		.cfi_startproc
 242              		@ args = 0, pretend = 0, frame = 0
 243              		@ frame_needed = 0, uses_anonymous_args = 0
 244              		@ link register save eliminated.
 245              		.loc 1 207 0
 246 0000 4FF4CD62 		mov	r2, #1640
 247 0004 0149     		ldr	r1, .L18
 248 0006 0248     		ldr	r0, .L18+4
 249 0008 FFF7FEBF 		b	chHeapObjectInit
 250              	.LVL19:
 251              	.L19:
 252              		.align	2
 253              	.L18:
 254 000c 00000000 		.word	test
 255 0010 00000000 		.word	.LANCHOR0
 256              		.cfi_endproc
 257              	.LFE233:
 258              		.size	dyn3_setup, .-dyn3_setup
 259              		.section	.text.dyn1_setup,"ax",%progbits
 260              		.align	1
 261              		.p2align 4,,15
 262              		.syntax unified
 263              		.thumb
 264              		.thumb_func
 265              		.fpu softvfp
 266              		.type	dyn1_setup, %function
 267              	dyn1_setup:
 268              	.LFB236:
 269              		.cfi_startproc
 270              		@ args = 0, pretend = 0, frame = 0
 271              		@ frame_needed = 0, uses_anonymous_args = 0
 272              		@ link register save eliminated.
 273 0000 FFF7FEBF 		b	dyn3_setup
 274              		.cfi_endproc
 275              	.LFE236:
 276              		.size	dyn1_setup, .-dyn1_setup
 277              		.section	.text.dyn2_execute,"ax",%progbits
 278              		.align	1
 279              		.p2align 4,,15
 280              		.syntax unified
 281              		.thumb
 282              		.thumb_func
 283              		.fpu softvfp
 284              		.type	dyn2_execute, %function
 285              	dyn2_execute:
ARM GAS  /tmp/cccEV7XE.s 			page 6


 286              	.LFB231:
 287              		.loc 1 143 0
 288              		.cfi_startproc
 289              		@ args = 0, pretend = 0, frame = 0
 290              		@ frame_needed = 0, uses_anonymous_args = 0
 291              		.loc 1 143 0
 292 0000 F8B5     		push	{r3, r4, r5, r6, r7, lr}
 293              		.cfi_def_cfa_offset 24
 294              		.cfi_offset 3, -24
 295              		.cfi_offset 4, -20
 296              		.cfi_offset 5, -16
 297              		.cfi_offset 6, -12
 298              		.cfi_offset 7, -8
 299              		.cfi_offset 14, -4
 300              	.LBB24:
 301              	.LBB25:
 302              	.LBB26:
 303              	.LBB27:
 304              		.loc 2 176 0
 305 0002 324B     		ldr	r3, .L36
 306 0004 324C     		ldr	r4, .L36+4
 307              	.LBE27:
 308              	.LBE26:
 309              		.loc 2 189 0
 310 0006 9B69     		ldr	r3, [r3, #24]
 311              	.LBE25:
 312              	.LBE24:
 313              		.loc 1 149 0
 314 0008 324F     		ldr	r7, .L36+8
 315              	.LBB29:
 316              	.LBB28:
 317              		.loc 2 189 0
 318 000a 9D68     		ldr	r5, [r3, #8]
 319              	.LVL20:
 320 000c 04F11006 		add	r6, r4, #16
 321              	.LVL21:
 322              	.L22:
 323              	.LBE28:
 324              	.LBE29:
 325              		.loc 1 149 0 discriminator 3
 326 0010 54F8041B 		ldr	r1, [r4], #4
 327 0014 3846     		mov	r0, r7
 328 0016 FFF7FEFF 		bl	chPoolFree
 329              	.LVL22:
 330              		.loc 1 148 0 discriminator 3
 331 001a A642     		cmp	r6, r4
 332 001c F8D1     		bne	.L22
 333              		.loc 1 152 0
 334 001e 2E4B     		ldr	r3, .L36+12
 335 0020 2E4A     		ldr	r2, .L36+16
 336 0022 2C48     		ldr	r0, .L36+8
 337 0024 2E4C     		ldr	r4, .L36+20
 338 0026 691E     		subs	r1, r5, #1
 339 0028 FFF7FEFF 		bl	chThdCreateFromMemoryPool
 340              	.LVL23:
 341              		.loc 1 153 0
 342 002c 2D4B     		ldr	r3, .L36+24
ARM GAS  /tmp/cccEV7XE.s 			page 7


 343              		.loc 1 152 0
 344 002e 2060     		str	r0, [r4]
 345              		.loc 1 153 0
 346 0030 2A4A     		ldr	r2, .L36+16
 347 0032 2848     		ldr	r0, .L36+8
 348 0034 A91E     		subs	r1, r5, #2
 349 0036 FFF7FEFF 		bl	chThdCreateFromMemoryPool
 350              	.LVL24:
 351              		.loc 1 154 0
 352 003a 2B4B     		ldr	r3, .L36+28
 353              		.loc 1 153 0
 354 003c 6060     		str	r0, [r4, #4]
 355              		.loc 1 154 0
 356 003e 274A     		ldr	r2, .L36+16
 357 0040 2448     		ldr	r0, .L36+8
 358 0042 E91E     		subs	r1, r5, #3
 359 0044 FFF7FEFF 		bl	chThdCreateFromMemoryPool
 360              	.LVL25:
 361              		.loc 1 155 0
 362 0048 284B     		ldr	r3, .L36+32
 363              		.loc 1 154 0
 364 004a A060     		str	r0, [r4, #8]
 365              		.loc 1 155 0
 366 004c 234A     		ldr	r2, .L36+16
 367 004e 2148     		ldr	r0, .L36+8
 368 0050 291F     		subs	r1, r5, #4
 369 0052 FFF7FEFF 		bl	chThdCreateFromMemoryPool
 370              	.LVL26:
 371              		.loc 1 156 0
 372 0056 691F     		subs	r1, r5, #5
 373              		.loc 1 155 0
 374 0058 E060     		str	r0, [r4, #12]
 375              		.loc 1 156 0
 376 005a 254B     		ldr	r3, .L36+36
 377 005c 1F4A     		ldr	r2, .L36+16
 378 005e 1D48     		ldr	r0, .L36+8
 379 0060 FFF7FEFF 		bl	chThdCreateFromMemoryPool
 380              	.LVL27:
 381              		.loc 1 158 0
 382 0064 2168     		ldr	r1, [r4]
 383              		.loc 1 156 0
 384 0066 2061     		str	r0, [r4, #16]
 385              		.loc 1 158 0
 386 0068 41B1     		cbz	r1, .L23
 387              		.loc 1 158 0 is_stmt 0 discriminator 1
 388 006a 6168     		ldr	r1, [r4, #4]
 389 006c 31B1     		cbz	r1, .L23
 390              		.loc 1 158 0 discriminator 3
 391 006e A168     		ldr	r1, [r4, #8]
 392 0070 21B1     		cbz	r1, .L23
 393              		.loc 1 158 0 discriminator 5
 394 0072 E168     		ldr	r1, [r4, #12]
 395 0074 11B1     		cbz	r1, .L23
 396              		.loc 1 158 0 discriminator 7
 397 0076 B0FA80F1 		clz	r1, r0
 398 007a 4909     		lsrs	r1, r1, #5
 399              	.L23:
ARM GAS  /tmp/cccEV7XE.s 			page 8


 400              		.loc 1 158 0 discriminator 12
 401 007c 0120     		movs	r0, #1
 402 007e FFF7FEFF 		bl	_test_assert
 403              	.LVL28:
 404 0082 00B1     		cbz	r0, .L35
 405              	.L21:
 406 0084 F8BD     		pop	{r3, r4, r5, r6, r7, pc}
 407              	.L35:
 408              		.loc 1 166 0 is_stmt 1
 409 0086 FFF7FEFF 		bl	test_wait_threads
 410              	.LVL29:
 411              		.loc 1 167 0
 412 008a 1A49     		ldr	r1, .L36+40
 413 008c 0220     		movs	r0, #2
 414 008e FFF7FEFF 		bl	_test_assert_sequence
 415              	.LVL30:
 416 0092 0028     		cmp	r0, #0
 417 0094 F6D1     		bne	.L21
 418              		.loc 1 171 0
 419 0096 0F4D     		ldr	r5, .L36+8
 420 0098 0424     		movs	r4, #4
 421              	.L27:
 422              	.LVL31:
 423 009a 2846     		mov	r0, r5
 424 009c FFF7FEFF 		bl	chPoolAlloc
 425              	.LVL32:
 426 00a0 011C     		adds	r1, r0, #0
 427 00a2 18BF     		it	ne
 428 00a4 0121     		movne	r1, #1
 429 00a6 0320     		movs	r0, #3
 430 00a8 FFF7FEFF 		bl	_test_assert
 431              	.LVL33:
 432 00ac 0028     		cmp	r0, #0
 433 00ae E9D1     		bne	.L21
 434              		.loc 1 170 0 discriminator 2
 435 00b0 013C     		subs	r4, r4, #1
 436              	.LVL34:
 437 00b2 F2D1     		bne	.L27
 438              		.loc 1 172 0
 439 00b4 0748     		ldr	r0, .L36+8
 440 00b6 FFF7FEFF 		bl	chPoolAlloc
 441              	.LVL35:
 442 00ba B0FA80F1 		clz	r1, r0
 443 00be 4909     		lsrs	r1, r1, #5
 444 00c0 0420     		movs	r0, #4
 445              		.loc 1 173 0
 446 00c2 BDE8F840 		pop	{r3, r4, r5, r6, r7, lr}
 447              		.cfi_restore 14
 448              		.cfi_restore 7
 449              		.cfi_restore 6
 450              		.cfi_restore 5
 451              		.cfi_restore 4
 452              		.cfi_restore 3
 453              		.cfi_def_cfa_offset 0
 454              	.LVL36:
 455              		.loc 1 172 0
 456 00c6 FFF7FEBF 		b	_test_assert
ARM GAS  /tmp/cccEV7XE.s 			page 9


 457              	.LVL37:
 458              	.L37:
 459 00ca 00BF     		.align	2
 460              	.L36:
 461 00cc 00000000 		.word	ch
 462 00d0 00000000 		.word	wa
 463 00d4 00000000 		.word	.LANCHOR1
 464 00d8 00000000 		.word	.LC0
 465 00dc 00000000 		.word	thread
 466 00e0 00000000 		.word	threads
 467 00e4 04000000 		.word	.LC1
 468 00e8 08000000 		.word	.LC2
 469 00ec 00000000 		.word	.LC4
 470 00f0 04000000 		.word	.LC5
 471 00f4 08000000 		.word	.LC6
 472              		.cfi_endproc
 473              	.LFE231:
 474              		.size	dyn2_execute, .-dyn2_execute
 475              		.section	.text.dyn2_setup,"ax",%progbits
 476              		.align	1
 477              		.p2align 4,,15
 478              		.syntax unified
 479              		.thumb
 480              		.thumb_func
 481              		.fpu softvfp
 482              		.type	dyn2_setup, %function
 483              	dyn2_setup:
 484              	.LFB230:
 485              		.loc 1 138 0
 486              		.cfi_startproc
 487              		@ args = 0, pretend = 0, frame = 0
 488              		@ frame_needed = 0, uses_anonymous_args = 0
 489              		@ link register save eliminated.
 490              		.loc 1 140 0
 491 0000 0022     		movs	r2, #0
 492 0002 4FF4A471 		mov	r1, #328
 493 0006 0148     		ldr	r0, .L39
 494 0008 FFF7FEBF 		b	chPoolObjectInit
 495              	.LVL38:
 496              	.L40:
 497              		.align	2
 498              	.L39:
 499 000c 00000000 		.word	.LANCHOR1
 500              		.cfi_endproc
 501              	.LFE230:
 502              		.size	dyn2_setup, .-dyn2_setup
 503              		.section	.text.regfind,"ax",%progbits
 504              		.align	1
 505              		.p2align 4,,15
 506              		.syntax unified
 507              		.thumb
 508              		.thumb_func
 509              		.fpu softvfp
 510              		.type	regfind, %function
 511              	regfind:
 512              	.LFB232:
 513              		.loc 1 193 0
ARM GAS  /tmp/cccEV7XE.s 			page 10


 514              		.cfi_startproc
 515              		@ args = 0, pretend = 0, frame = 0
 516              		@ frame_needed = 0, uses_anonymous_args = 0
 517              	.LVL39:
 518 0000 38B5     		push	{r3, r4, r5, lr}
 519              		.cfi_def_cfa_offset 16
 520              		.cfi_offset 3, -16
 521              		.cfi_offset 4, -12
 522              		.cfi_offset 5, -8
 523              		.cfi_offset 14, -4
 524              		.loc 1 193 0
 525 0002 0546     		mov	r5, r0
 526              		.loc 1 197 0
 527 0004 FFF7FEFF 		bl	chRegFirstThread
 528              	.LVL40:
 529              		.loc 1 195 0
 530 0008 0024     		movs	r4, #0
 531              		.loc 1 197 0
 532 000a 0346     		mov	r3, r0
 533              	.LVL41:
 534              	.L42:
 535              		.loc 1 200 0 discriminator 1
 536 000c 1846     		mov	r0, r3
 537 000e AB42     		cmp	r3, r5
 538 0010 08BF     		it	eq
 539 0012 44F00104 		orreq	r4, r4, #1
 540              	.LVL42:
 541 0016 FFF7FEFF 		bl	chRegNextThread
 542              	.LVL43:
 543              		.loc 1 201 0 discriminator 1
 544 001a 0346     		mov	r3, r0
 545 001c 0028     		cmp	r0, #0
 546 001e F5D1     		bne	.L42
 547              		.loc 1 203 0
 548 0020 2046     		mov	r0, r4
 549              	.LVL44:
 550 0022 38BD     		pop	{r3, r4, r5, pc}
 551              		.cfi_endproc
 552              	.LFE232:
 553              		.size	regfind, .-regfind
 554              		.section	.text.dyn3_execute,"ax",%progbits
 555              		.align	1
 556              		.p2align 4,,15
 557              		.syntax unified
 558              		.thumb
 559              		.thumb_func
 560              		.fpu softvfp
 561              		.type	dyn3_execute, %function
 562              	dyn3_execute:
 563              	.LFB234:
 564              		.loc 1 210 0
 565              		.cfi_startproc
 566              		@ args = 0, pretend = 0, frame = 0
 567              		@ frame_needed = 0, uses_anonymous_args = 0
 568 0000 10B5     		push	{r4, lr}
 569              		.cfi_def_cfa_offset 8
 570              		.cfi_offset 4, -8
ARM GAS  /tmp/cccEV7XE.s 			page 11


 571              		.cfi_offset 14, -4
 572              	.LBB30:
 573              	.LBB31:
 574              	.LBB32:
 575              	.LBB33:
 576              		.loc 2 176 0
 577 0002 484B     		ldr	r3, .L51
 578              	.LBE33:
 579              	.LBE32:
 580              	.LBE31:
 581              	.LBE30:
 582              		.loc 1 215 0
 583 0004 4849     		ldr	r1, .L51+4
 584              	.LBB35:
 585              	.LBB34:
 586              		.loc 2 189 0
 587 0006 9A69     		ldr	r2, [r3, #24]
 588              	.LBE34:
 589              	.LBE35:
 590              		.loc 1 215 0
 591 0008 4848     		ldr	r0, .L51+8
 592 000a 9268     		ldr	r2, [r2, #8]
 593 000c 484B     		ldr	r3, .L51+12
 594              		.loc 1 210 0
 595 000e 82B0     		sub	sp, sp, #8
 596              		.cfi_def_cfa_offset 16
 597              		.loc 1 215 0
 598 0010 013A     		subs	r2, r2, #1
 599 0012 0091     		str	r1, [sp]
 600 0014 4FF4A471 		mov	r1, #328
 601 0018 FFF7FEFF 		bl	chThdCreateFromHeap
 602              	.LVL45:
 603 001c 0446     		mov	r4, r0
 604              	.LVL46:
 605              		.loc 1 216 0
 606 001e 0120     		movs	r0, #1
 607              	.LVL47:
 608 0020 A17F     		ldrb	r1, [r4, #30]	@ zero_extendqisi2
 609 0022 091A     		subs	r1, r1, r0
 610 0024 B1FA81F1 		clz	r1, r1
 611 0028 4909     		lsrs	r1, r1, #5
 612 002a FFF7FEFF 		bl	_test_assert
 613              	.LVL48:
 614 002e 08B1     		cbz	r0, .L50
 615              	.L45:
 616              		.loc 1 238 0
 617 0030 02B0     		add	sp, sp, #8
 618              		.cfi_remember_state
 619              		.cfi_def_cfa_offset 8
 620              		@ sp needed
 621 0032 10BD     		pop	{r4, pc}
 622              	.LVL49:
 623              	.L50:
 624              		.cfi_restore_state
 625              		.loc 1 217 0
 626 0034 2046     		mov	r0, r4
 627 0036 FFF7FEFF 		bl	chThdAddRef
ARM GAS  /tmp/cccEV7XE.s 			page 12


 628              	.LVL50:
 629              		.loc 1 218 0
 630 003a A17F     		ldrb	r1, [r4, #30]	@ zero_extendqisi2
 631 003c 0220     		movs	r0, #2
 632 003e 091A     		subs	r1, r1, r0
 633 0040 B1FA81F1 		clz	r1, r1
 634 0044 4909     		lsrs	r1, r1, #5
 635 0046 FFF7FEFF 		bl	_test_assert
 636              	.LVL51:
 637 004a 0028     		cmp	r0, #0
 638 004c F0D1     		bne	.L45
 639              		.loc 1 219 0
 640 004e 2046     		mov	r0, r4
 641 0050 FFF7FEFF 		bl	chThdRelease
 642              	.LVL52:
 643              		.loc 1 220 0
 644 0054 A17F     		ldrb	r1, [r4, #30]	@ zero_extendqisi2
 645 0056 A1F10101 		sub	r1, #1
 646 005a B1FA81F1 		clz	r1, r1
 647 005e 0320     		movs	r0, #3
 648 0060 4909     		lsrs	r1, r1, #5
 649 0062 FFF7FEFF 		bl	_test_assert
 650              	.LVL53:
 651 0066 0028     		cmp	r0, #0
 652 0068 E2D1     		bne	.L45
 653              		.loc 1 223 0
 654 006a 2046     		mov	r0, r4
 655 006c FFF7FEFF 		bl	regfind
 656              	.LVL54:
 657 0070 0146     		mov	r1, r0
 658 0072 0420     		movs	r0, #4
 659 0074 FFF7FEFF 		bl	_test_assert
 660              	.LVL55:
 661 0078 0028     		cmp	r0, #0
 662 007a D9D1     		bne	.L45
 663              		.loc 1 224 0
 664 007c 2046     		mov	r0, r4
 665 007e FFF7FEFF 		bl	regfind
 666              	.LVL56:
 667 0082 0146     		mov	r1, r0
 668 0084 0520     		movs	r0, #5
 669 0086 FFF7FEFF 		bl	_test_assert
 670              	.LVL57:
 671 008a 0028     		cmp	r0, #0
 672 008c D0D1     		bne	.L45
 673              		.loc 1 227 0
 674 008e 2046     		mov	r0, r4
 675 0090 FFF7FEFF 		bl	chThdRelease
 676              	.LVL58:
 677              		.loc 1 228 0
 678 0094 A17F     		ldrb	r1, [r4, #30]	@ zero_extendqisi2
 679 0096 B1FA81F1 		clz	r1, r1
 680 009a 4909     		lsrs	r1, r1, #5
 681 009c 0620     		movs	r0, #6
 682 009e FFF7FEFF 		bl	_test_assert
 683              	.LVL59:
 684 00a2 0028     		cmp	r0, #0
ARM GAS  /tmp/cccEV7XE.s 			page 13


 685 00a4 C4D1     		bne	.L45
 686              		.loc 1 229 0
 687 00a6 217F     		ldrb	r1, [r4, #28]	@ zero_extendqisi2
 688 00a8 B1FA81F1 		clz	r1, r1
 689 00ac 4909     		lsrs	r1, r1, #5
 690 00ae 0720     		movs	r0, #7
 691 00b0 FFF7FEFF 		bl	_test_assert
 692              	.LVL60:
 693 00b4 0028     		cmp	r0, #0
 694 00b6 BBD1     		bne	.L45
 695              		.loc 1 230 0
 696 00b8 2046     		mov	r0, r4
 697 00ba FFF7FEFF 		bl	regfind
 698              	.LVL61:
 699 00be 0146     		mov	r1, r0
 700 00c0 0820     		movs	r0, #8
 701 00c2 FFF7FEFF 		bl	_test_assert
 702              	.LVL62:
 703 00c6 0028     		cmp	r0, #0
 704 00c8 B2D1     		bne	.L45
 705              		.loc 1 231 0
 706 00ca 2046     		mov	r0, r4
 707 00cc FFF7FEFF 		bl	regfind
 708              	.LVL63:
 709 00d0 0146     		mov	r1, r0
 710 00d2 0920     		movs	r0, #9
 711 00d4 FFF7FEFF 		bl	_test_assert
 712              	.LVL64:
 713 00d8 0028     		cmp	r0, #0
 714 00da A9D1     		bne	.L45
 715              		.loc 1 232 0
 716 00dc 4FF4FA70 		mov	r0, #500
 717 00e0 FFF7FEFF 		bl	chThdSleep
 718              	.LVL65:
 719              		.loc 1 233 0
 720 00e4 217F     		ldrb	r1, [r4, #28]	@ zero_extendqisi2
 721 00e6 A1F10F03 		sub	r3, r1, #15
 722 00ea 5942     		rsbs	r1, r3, #0
 723 00ec 5941     		adcs	r1, r1, r3
 724 00ee 0A20     		movs	r0, #10
 725 00f0 FFF7FEFF 		bl	_test_assert
 726              	.LVL66:
 727 00f4 0028     		cmp	r0, #0
 728 00f6 9BD1     		bne	.L45
 729              		.loc 1 236 0
 730 00f8 2046     		mov	r0, r4
 731 00fa FFF7FEFF 		bl	regfind
 732              	.LVL67:
 733 00fe 0146     		mov	r1, r0
 734 0100 0B20     		movs	r0, #11
 735 0102 FFF7FEFF 		bl	_test_assert
 736              	.LVL68:
 737 0106 0028     		cmp	r0, #0
 738 0108 92D1     		bne	.L45
 739              		.loc 1 237 0
 740 010a 2046     		mov	r0, r4
 741 010c FFF7FEFF 		bl	regfind
ARM GAS  /tmp/cccEV7XE.s 			page 14


 742              	.LVL69:
 743 0110 80F00101 		eor	r1, r0, #1
 744 0114 C9B2     		uxtb	r1, r1
 745 0116 0C20     		movs	r0, #12
 746              		.loc 1 238 0
 747 0118 02B0     		add	sp, sp, #8
 748              		.cfi_def_cfa_offset 8
 749              		@ sp needed
 750 011a BDE81040 		pop	{r4, lr}
 751              		.cfi_restore 14
 752              		.cfi_restore 4
 753              		.cfi_def_cfa_offset 0
 754              	.LVL70:
 755              		.loc 1 237 0
 756 011e FFF7FEBF 		b	_test_assert
 757              	.LVL71:
 758              	.L52:
 759 0122 00BF     		.align	2
 760              	.L51:
 761 0124 00000000 		.word	ch
 762 0128 00000000 		.word	.LC0
 763 012c 00000000 		.word	.LANCHOR0
 764 0130 00000000 		.word	thread
 765              		.cfi_endproc
 766              	.LFE234:
 767              		.size	dyn3_execute, .-dyn3_execute
 768              		.global	patterndyn
 769              		.global	testdyn3
 770              		.global	testdyn2
 771              		.global	testdyn1
 772              		.section	.bss.heap1,"aw",%nobits
 773              		.align	3
 774              		.set	.LANCHOR0,. + 0
 775              		.type	heap1, %object
 776              		.size	heap1, 32
 777              	heap1:
 778 0000 00000000 		.space	32
 778      00000000 
 778      00000000 
 778      00000000 
 778      00000000 
 779              		.section	.bss.mp1,"aw",%nobits
 780              		.align	2
 781              		.set	.LANCHOR1,. + 0
 782              		.type	mp1, %object
 783              		.size	mp1, 12
 784              	mp1:
 785 0000 00000000 		.space	12
 785      00000000 
 785      00000000 
 786              		.section	.rodata.dyn1_execute.str1.4,"aMS",%progbits,1
 787              		.align	2
 788              	.LC0:
 789 0000 4100     		.ascii	"A\000"
 790 0002 0000     		.space	2
 791              	.LC1:
 792 0004 4200     		.ascii	"B\000"
ARM GAS  /tmp/cccEV7XE.s 			page 15


 793 0006 0000     		.space	2
 794              	.LC2:
 795 0008 4300     		.ascii	"C\000"
 796 000a 0000     		.space	2
 797              	.LC3:
 798 000c 414200   		.ascii	"AB\000"
 799              		.section	.rodata.dyn2_execute.str1.4,"aMS",%progbits,1
 800              		.align	2
 801              	.LC4:
 802 0000 4400     		.ascii	"D\000"
 803 0002 0000     		.space	2
 804              	.LC5:
 805 0004 4500     		.ascii	"E\000"
 806 0006 0000     		.space	2
 807              	.LC6:
 808 0008 41424344 		.ascii	"ABCD\000"
 808      00
 809              		.section	.rodata.patterndyn,"a",%progbits
 810              		.align	2
 811              		.type	patterndyn, %object
 812              		.size	patterndyn, 16
 813              	patterndyn:
 814 0000 00000000 		.word	testdyn1
 815 0004 00000000 		.word	testdyn2
 816 0008 00000000 		.word	testdyn3
 817 000c 00000000 		.word	0
 818              		.section	.rodata.str1.4,"aMS",%progbits,1
 819              		.align	2
 820              	.LC7:
 821 0000 44796E61 		.ascii	"Dynamic APIs, registry and references\000"
 821      6D696320 
 821      41504973 
 821      2C207265 
 821      67697374 
 822 0026 0000     		.space	2
 823              	.LC8:
 824 0028 44796E61 		.ascii	"Dynamic APIs, threads creation from memory pool\000"
 824      6D696320 
 824      41504973 
 824      2C207468 
 824      72656164 
 825              	.LC9:
 826 0058 44796E61 		.ascii	"Dynamic APIs, threads creation from heap\000"
 826      6D696320 
 826      41504973 
 826      2C207468 
 826      72656164 
 827              		.section	.rodata.testdyn1,"a",%progbits
 828              		.align	2
 829              		.type	testdyn1, %object
 830              		.size	testdyn1, 16
 831              	testdyn1:
 832 0000 58000000 		.word	.LC9
 833 0004 00000000 		.word	dyn1_setup
 834 0008 00000000 		.word	0
 835 000c 00000000 		.word	dyn1_execute
 836              		.section	.rodata.testdyn2,"a",%progbits
ARM GAS  /tmp/cccEV7XE.s 			page 16


 837              		.align	2
 838              		.type	testdyn2, %object
 839              		.size	testdyn2, 16
 840              	testdyn2:
 841 0000 28000000 		.word	.LC8
 842 0004 00000000 		.word	dyn2_setup
 843 0008 00000000 		.word	0
 844 000c 00000000 		.word	dyn2_execute
 845              		.section	.rodata.testdyn3,"a",%progbits
 846              		.align	2
 847              		.type	testdyn3, %object
 848              		.size	testdyn3, 16
 849              	testdyn3:
 850 0000 00000000 		.word	.LC7
 851 0004 00000000 		.word	dyn3_setup
 852 0008 00000000 		.word	0
 853 000c 00000000 		.word	dyn3_execute
 854              		.text
 855              	.Letext0:
 856              		.file 3 "/usr/lib/gcc/arm-none-eabi/6.2.1/include/stddef.h"
 857              		.file 4 "/usr/arm-none-eabi/include/machine/_default_types.h"
 858              		.file 5 "/usr/arm-none-eabi/include/sys/_stdint.h"
 859              		.file 6 "/home/selim/working/ChibiOS/os/rt/ports/ARMCMx/compilers/GCC/chtypes.h"
 860              		.file 7 "/home/selim/working/ChibiOS/os/rt/include/chsystypes.h"
 861              		.file 8 "/home/selim/working/ChibiOS/os/rt/include/chschd.h"
 862              		.file 9 "/home/selim/working/ChibiOS/os/ext/CMSIS/include/core_cm4.h"
 863              		.file 10 "/home/selim/working/ChibiOS/os/ext/CMSIS/ST/system_stm32f4xx.h"
 864              		.file 11 "/home/selim/working/ChibiOS/os/rt/ports/ARMCMx/chcore.h"
 865              		.file 12 "/home/selim/working/ChibiOS/os/rt/ports/ARMCMx/chcore_v7m.h"
 866              		.file 13 "/home/selim/working/ChibiOS/os/rt/include/chtm.h"
 867              		.file 14 "/home/selim/working/ChibiOS/os/rt/include/chsem.h"
 868              		.file 15 "/home/selim/working/ChibiOS/os/rt/include/chmtx.h"
 869              		.file 16 "/home/selim/working/ChibiOS/os/rt/include/chregistry.h"
 870              		.file 17 "/home/selim/working/ChibiOS/os/rt/include/chmemcore.h"
 871              		.file 18 "/home/selim/working/ChibiOS/os/rt/include/chheap.h"
 872              		.file 19 "/home/selim/working/ChibiOS/os/rt/include/chmempools.h"
 873              		.file 20 "/home/selim/working/ChibiOS/test/rt/test.h"
 874              		.file 21 "/home/selim/working/ChibiOS/os/rt/include/chdynamic.h"