ARM GAS  /tmp/ccvnHshQ.s 			page 1


   1              		.cpu cortex-m4
   2              		.eabi_attribute 20, 1
   3              		.eabi_attribute 21, 1
   4              		.eabi_attribute 23, 3
   5              		.eabi_attribute 24, 1
   6              		.eabi_attribute 25, 1
   7              		.eabi_attribute 26, 1
   8              		.eabi_attribute 30, 2
   9              		.eabi_attribute 34, 1
  10              		.eabi_attribute 18, 4
  11              		.file	"usb.c"
  12              		.text
  13              	.Ltext0:
  14              		.cfi_sections	.debug_frame
  15              		.section	.text.usbInit,"ax",%progbits
  16              		.align	1
  17              		.p2align 4,,15
  18              		.global	usbInit
  19              		.syntax unified
  20              		.thumb
  21              		.thumb_func
  22              		.fpu softvfp
  23              		.type	usbInit, %function
  24              	usbInit:
  25              	.LFB261:
  26              		.file 1 "/home/selim/working/ChibiOS/os/hal/src/usb.c"
  27              		.loc 1 254 0
  28              		.cfi_startproc
  29              		@ args = 0, pretend = 0, frame = 0
  30              		@ frame_needed = 0, uses_anonymous_args = 0
  31              		@ link register save eliminated.
  32              		.loc 1 256 0
  33 0000 FFF7FEBF 		b	usb_lld_init
  34              	.LVL0:
  35              		.cfi_endproc
  36              	.LFE261:
  37              		.size	usbInit, .-usbInit
  38              		.section	.text.usbObjectInit,"ax",%progbits
  39              		.align	1
  40              		.p2align 4,,15
  41              		.global	usbObjectInit
  42              		.syntax unified
  43              		.thumb
  44              		.thumb_func
  45              		.fpu softvfp
  46              		.type	usbObjectInit, %function
  47              	usbObjectInit:
  48              	.LFB262:
  49              		.loc 1 266 0
  50              		.cfi_startproc
  51              		@ args = 0, pretend = 0, frame = 0
  52              		@ frame_needed = 0, uses_anonymous_args = 0
  53              		@ link register save eliminated.
  54              	.LVL1:
  55              		.loc 1 270 0
  56 0000 0023     		movs	r3, #0
  57              		.loc 1 269 0
ARM GAS  /tmp/ccvnHshQ.s 			page 2


  58 0002 0122     		movs	r2, #1
  59 0004 0270     		strb	r2, [r0]
  60              		.loc 1 270 0
  61 0006 4360     		str	r3, [r0, #4]
  62              	.LVL2:
  63              		.loc 1 272 0
  64 0008 C361     		str	r3, [r0, #28]
  65              		.loc 1 273 0
  66 000a 8362     		str	r3, [r0, #40]
  67              	.LVL3:
  68              		.loc 1 272 0
  69 000c 0362     		str	r3, [r0, #32]
  70              		.loc 1 273 0
  71 000e C362     		str	r3, [r0, #44]
  72              	.LVL4:
  73              		.loc 1 272 0
  74 0010 4362     		str	r3, [r0, #36]
  75              		.loc 1 273 0
  76 0012 0363     		str	r3, [r0, #48]
  77              	.LVL5:
  78              		.loc 1 275 0
  79 0014 0381     		strh	r3, [r0, #8]	@ movhi
  80              		.loc 1 276 0
  81 0016 4381     		strh	r3, [r0, #10]	@ movhi
  82 0018 7047     		bx	lr
  83              		.cfi_endproc
  84              	.LFE262:
  85              		.size	usbObjectInit, .-usbObjectInit
  86 001a 00BF     		.section	.text.usbStart,"ax",%progbits
  87              		.align	1
  88              		.p2align 4,,15
  89              		.global	usbStart
  90              		.syntax unified
  91              		.thumb
  92              		.thumb_func
  93              		.fpu softvfp
  94              		.type	usbStart, %function
  95              	usbStart:
  96              	.LFB263:
  97              		.loc 1 287 0
  98              		.cfi_startproc
  99              		@ args = 0, pretend = 0, frame = 0
 100              		@ frame_needed = 0, uses_anonymous_args = 0
 101              	.LVL6:
 102 0000 38B5     		push	{r3, r4, r5, lr}
 103              		.cfi_def_cfa_offset 16
 104              		.cfi_offset 3, -16
 105              		.cfi_offset 4, -12
 106              		.cfi_offset 5, -8
 107              		.cfi_offset 14, -4
 108              		.loc 1 287 0
 109 0002 0446     		mov	r4, r0
 110              	.LBB212:
 111              	.LBB213:
 112              	.LBB214:
 113              	.LBB215:
 114              	.LBB216:
ARM GAS  /tmp/ccvnHshQ.s 			page 3


 115              		.file 2 "/home/selim/working/ChibiOS/os/ext/CMSIS/include/core_cmFunc.h"
 116              		.loc 2 546 0
 117 0004 2023     		movs	r3, #32
 118              		.syntax unified
 119              	@ 546 "/home/selim/working/ChibiOS/os/ext/CMSIS/include/core_cmFunc.h" 1
 120 0006 83F31188 		MSR basepri, r3
 121              	@ 0 "" 2
 122              	.LVL7:
 123              		.thumb
 124              		.syntax unified
 125              	.LBE216:
 126              	.LBE215:
 127              	.LBE214:
 128              	.LBE213:
 129              	.LBE212:
 130              		.loc 1 297 0
 131 000a 0025     		movs	r5, #0
 132              		.loc 1 295 0
 133 000c 4160     		str	r1, [r0, #4]
 134              	.LVL8:
 135              		.loc 1 297 0
 136 000e C560     		str	r5, [r0, #12]
 137              	.LVL9:
 138 0010 0561     		str	r5, [r0, #16]
 139              	.LVL10:
 140 0012 4561     		str	r5, [r0, #20]
 141              	.LVL11:
 142 0014 8561     		str	r5, [r0, #24]
 143              	.LVL12:
 144              		.loc 1 299 0
 145 0016 FFF7FEFF 		bl	usb_lld_start
 146              	.LVL13:
 147              		.loc 1 300 0
 148 001a 0223     		movs	r3, #2
 149 001c 2370     		strb	r3, [r4]
 150              	.LVL14:
 151              	.LBB217:
 152              	.LBB218:
 153              	.LBB219:
 154              	.LBB220:
 155              	.LBB221:
 156              	.LBB222:
 157              		.loc 2 546 0
 158              		.syntax unified
 159              	@ 546 "/home/selim/working/ChibiOS/os/ext/CMSIS/include/core_cmFunc.h" 1
 160 001e 85F31188 		MSR basepri, r5
 161              	@ 0 "" 2
 162              	.LVL15:
 163              		.thumb
 164              		.syntax unified
 165 0022 38BD     		pop	{r3, r4, r5, pc}
 166              	.LBE222:
 167              	.LBE221:
 168              	.LBE220:
 169              	.LBE219:
 170              	.LBE218:
 171              	.LBE217:
ARM GAS  /tmp/ccvnHshQ.s 			page 4


 172              		.cfi_endproc
 173              	.LFE263:
 174              		.size	usbStart, .-usbStart
 175              		.section	.text.usbStop,"ax",%progbits
 176              		.align	1
 177              		.p2align 4,,15
 178              		.global	usbStop
 179              		.syntax unified
 180              		.thumb
 181              		.thumb_func
 182              		.fpu softvfp
 183              		.type	usbStop, %function
 184              	usbStop:
 185              	.LFB264:
 186              		.loc 1 311 0
 187              		.cfi_startproc
 188              		@ args = 0, pretend = 0, frame = 0
 189              		@ frame_needed = 0, uses_anonymous_args = 0
 190              	.LVL16:
 191 0000 10B5     		push	{r4, lr}
 192              		.cfi_def_cfa_offset 8
 193              		.cfi_offset 4, -8
 194              		.cfi_offset 14, -4
 195              	.LBB223:
 196              	.LBB224:
 197              	.LBB225:
 198              	.LBB226:
 199              	.LBB227:
 200              		.loc 2 546 0
 201 0002 2023     		movs	r3, #32
 202              	.LBE227:
 203              	.LBE226:
 204              	.LBE225:
 205              	.LBE224:
 206              	.LBE223:
 207              		.loc 1 311 0
 208 0004 0446     		mov	r4, r0
 209              	.LBB232:
 210              	.LBB231:
 211              	.LBB230:
 212              	.LBB229:
 213              	.LBB228:
 214              		.loc 2 546 0
 215              		.syntax unified
 216              	@ 546 "/home/selim/working/ChibiOS/os/ext/CMSIS/include/core_cmFunc.h" 1
 217 0006 83F31188 		MSR basepri, r3
 218              	@ 0 "" 2
 219              	.LVL17:
 220              		.thumb
 221              		.syntax unified
 222              	.LBE228:
 223              	.LBE229:
 224              	.LBE230:
 225              	.LBE231:
 226              	.LBE232:
 227              		.loc 1 319 0
 228 000a FFF7FEFF 		bl	usb_lld_stop
ARM GAS  /tmp/ccvnHshQ.s 			page 5


 229              	.LVL18:
 230              		.loc 1 320 0
 231 000e 0123     		movs	r3, #1
 232 0010 2370     		strb	r3, [r4]
 233              	.LVL19:
 234              	.LBB233:
 235              	.LBB234:
 236              	.LBB235:
 237              	.LBB236:
 238              	.LBB237:
 239              	.LBB238:
 240              		.loc 2 546 0
 241 0012 0023     		movs	r3, #0
 242              		.syntax unified
 243              	@ 546 "/home/selim/working/ChibiOS/os/ext/CMSIS/include/core_cmFunc.h" 1
 244 0014 83F31188 		MSR basepri, r3
 245              	@ 0 "" 2
 246              	.LVL20:
 247              		.thumb
 248              		.syntax unified
 249 0018 10BD     		pop	{r4, pc}
 250              	.LBE238:
 251              	.LBE237:
 252              	.LBE236:
 253              	.LBE235:
 254              	.LBE234:
 255              	.LBE233:
 256              		.cfi_endproc
 257              	.LFE264:
 258              		.size	usbStop, .-usbStop
 259 001a 00BF     		.section	.text.usbInitEndpointI,"ax",%progbits
 260              		.align	1
 261              		.p2align 4,,15
 262              		.global	usbInitEndpointI
 263              		.syntax unified
 264              		.thumb
 265              		.thumb_func
 266              		.fpu softvfp
 267              		.type	usbInitEndpointI, %function
 268              	usbInitEndpointI:
 269              	.LFB265:
 270              		.loc 1 338 0
 271              		.cfi_startproc
 272              		@ args = 0, pretend = 0, frame = 0
 273              		@ frame_needed = 0, uses_anonymous_args = 0
 274              		@ link register save eliminated.
 275              	.LVL21:
 276              		.loc 1 347 0
 277 0000 5369     		ldr	r3, [r2, #20]
 278              		.loc 1 338 0
 279 0002 10B4     		push	{r4}
 280              		.cfi_def_cfa_offset 4
 281              		.cfi_offset 4, -4
 282              		.loc 1 347 0
 283 0004 2BB1     		cbz	r3, .L8
 284              		.loc 1 348 0
 285 0006 0024     		movs	r4, #0
ARM GAS  /tmp/ccvnHshQ.s 			page 6


 286 0008 1C60     		str	r4, [r3]	@ unaligned
 287 000a 5C60     		str	r4, [r3, #4]	@ unaligned
 288 000c 9C60     		str	r4, [r3, #8]	@ unaligned
 289 000e DC60     		str	r4, [r3, #12]	@ unaligned
 290 0010 1C61     		str	r4, [r3, #16]	@ unaligned
 291              	.L8:
 292              		.loc 1 350 0
 293 0012 9369     		ldr	r3, [r2, #24]
 294 0014 2BB1     		cbz	r3, .L9
 295              		.loc 1 351 0
 296 0016 0024     		movs	r4, #0
 297 0018 1C60     		str	r4, [r3]	@ unaligned
 298 001a 5C60     		str	r4, [r3, #4]	@ unaligned
 299 001c 9C60     		str	r4, [r3, #8]	@ unaligned
 300 001e DC60     		str	r4, [r3, #12]	@ unaligned
 301 0020 1C61     		str	r4, [r3, #16]	@ unaligned
 302              	.L9:
 303              		.loc 1 354 0
 304 0022 00EB8103 		add	r3, r0, r1, lsl #2
 305              		.loc 1 358 0
 306 0026 10BC     		pop	{r4}
 307              		.cfi_restore 4
 308              		.cfi_def_cfa_offset 0
 309              		.loc 1 354 0
 310 0028 DA60     		str	r2, [r3, #12]
 311              		.loc 1 357 0
 312 002a FFF7FEBF 		b	usb_lld_init_endpoint
 313              	.LVL22:
 314              		.cfi_endproc
 315              	.LFE265:
 316              		.size	usbInitEndpointI, .-usbInitEndpointI
 317 002e 00BF     		.section	.text.usbDisableEndpointsI,"ax",%progbits
 318              		.align	1
 319              		.p2align 4,,15
 320              		.global	usbDisableEndpointsI
 321              		.syntax unified
 322              		.thumb
 323              		.thumb_func
 324              		.fpu softvfp
 325              		.type	usbDisableEndpointsI, %function
 326              	usbDisableEndpointsI:
 327              	.LFB266:
 328              		.loc 1 371 0
 329              		.cfi_startproc
 330              		@ args = 0, pretend = 0, frame = 0
 331              		@ frame_needed = 0, uses_anonymous_args = 0
 332              		@ link register save eliminated.
 333              	.LVL23:
 334 0000 10B4     		push	{r4}
 335              		.cfi_def_cfa_offset 4
 336              		.cfi_offset 4, -4
 337              		.loc 1 379 0
 338 0002 4189     		ldrh	r1, [r0, #10]
 339              		.loc 1 378 0
 340 0004 0489     		ldrh	r4, [r0, #8]
 341              		.loc 1 381 0
 342 0006 0022     		movs	r2, #0
ARM GAS  /tmp/ccvnHshQ.s 			page 7


 343              		.loc 1 378 0
 344 0008 24F00104 		bic	r4, r4, #1
 345              		.loc 1 379 0
 346 000c 21F00101 		bic	r1, r1, #1
 347              		.loc 1 378 0
 348 0010 0481     		strh	r4, [r0, #8]	@ movhi
 349              		.loc 1 381 0
 350 0012 0261     		str	r2, [r0, #16]
 351              		.loc 1 379 0
 352 0014 4181     		strh	r1, [r0, #10]	@ movhi
 353              	.LVL24:
 354              		.loc 1 381 0
 355 0016 4261     		str	r2, [r0, #20]
 356              	.LVL25:
 357 0018 8261     		str	r2, [r0, #24]
 358              	.LVL26:
 359              		.loc 1 386 0
 360 001a 10BC     		pop	{r4}
 361              		.cfi_restore 4
 362              		.cfi_def_cfa_offset 0
 363              		.loc 1 385 0
 364 001c FFF7FEBF 		b	usb_lld_disable_endpoints
 365              	.LVL27:
 366              		.cfi_endproc
 367              	.LFE266:
 368              		.size	usbDisableEndpointsI, .-usbDisableEndpointsI
 369              		.section	.text.usbPrepareReceive,"ax",%progbits
 370              		.align	1
 371              		.p2align 4,,15
 372              		.global	usbPrepareReceive
 373              		.syntax unified
 374              		.thumb
 375              		.thumb_func
 376              		.fpu softvfp
 377              		.type	usbPrepareReceive, %function
 378              	usbPrepareReceive:
 379              	.LFB267:
 380              		.loc 1 400 0
 381              		.cfi_startproc
 382              		@ args = 0, pretend = 0, frame = 0
 383              		@ frame_needed = 0, uses_anonymous_args = 0
 384              		@ link register save eliminated.
 385              	.LVL28:
 386 0000 30B4     		push	{r4, r5}
 387              		.cfi_def_cfa_offset 8
 388              		.cfi_offset 4, -8
 389              		.cfi_offset 5, -4
 390              		.loc 1 401 0
 391 0002 00EB8104 		add	r4, r0, r1, lsl #2
 392              		.loc 1 403 0
 393 0006 0025     		movs	r5, #0
 394              		.loc 1 401 0
 395 0008 E468     		ldr	r4, [r4, #12]
 396 000a A469     		ldr	r4, [r4, #24]
 397              	.LVL29:
 398              		.loc 1 404 0
 399 000c E260     		str	r2, [r4, #12]
ARM GAS  /tmp/ccvnHshQ.s 			page 8


 400              		.loc 1 405 0
 401 000e 6360     		str	r3, [r4, #4]
 402              		.loc 1 403 0
 403 0010 2570     		strb	r5, [r4]
 404              		.loc 1 406 0
 405 0012 A560     		str	r5, [r4, #8]
 406              		.loc 1 409 0
 407 0014 30BC     		pop	{r4, r5}
 408              		.cfi_restore 5
 409              		.cfi_restore 4
 410              		.cfi_def_cfa_offset 0
 411              	.LVL30:
 412              		.loc 1 408 0
 413 0016 FFF7FEBF 		b	usb_lld_prepare_receive
 414              	.LVL31:
 415              		.cfi_endproc
 416              	.LFE267:
 417              		.size	usbPrepareReceive, .-usbPrepareReceive
 418 001a 00BF     		.section	.text.usbPrepareTransmit,"ax",%progbits
 419              		.align	1
 420              		.p2align 4,,15
 421              		.global	usbPrepareTransmit
 422              		.syntax unified
 423              		.thumb
 424              		.thumb_func
 425              		.fpu softvfp
 426              		.type	usbPrepareTransmit, %function
 427              	usbPrepareTransmit:
 428              	.LFB268:
 429              		.loc 1 426 0
 430              		.cfi_startproc
 431              		@ args = 0, pretend = 0, frame = 0
 432              		@ frame_needed = 0, uses_anonymous_args = 0
 433              		@ link register save eliminated.
 434              	.LVL32:
 435 0000 30B4     		push	{r4, r5}
 436              		.cfi_def_cfa_offset 8
 437              		.cfi_offset 4, -8
 438              		.cfi_offset 5, -4
 439              		.loc 1 427 0
 440 0002 00EB8104 		add	r4, r0, r1, lsl #2
 441              		.loc 1 429 0
 442 0006 0025     		movs	r5, #0
 443              		.loc 1 427 0
 444 0008 E468     		ldr	r4, [r4, #12]
 445 000a 6469     		ldr	r4, [r4, #20]
 446              	.LVL33:
 447              		.loc 1 430 0
 448 000c E260     		str	r2, [r4, #12]
 449              		.loc 1 431 0
 450 000e 6360     		str	r3, [r4, #4]
 451              		.loc 1 429 0
 452 0010 2570     		strb	r5, [r4]
 453              		.loc 1 432 0
 454 0012 A560     		str	r5, [r4, #8]
 455              		.loc 1 435 0
 456 0014 30BC     		pop	{r4, r5}
ARM GAS  /tmp/ccvnHshQ.s 			page 9


 457              		.cfi_restore 5
 458              		.cfi_restore 4
 459              		.cfi_def_cfa_offset 0
 460              	.LVL34:
 461              		.loc 1 434 0
 462 0016 FFF7FEBF 		b	usb_lld_prepare_transmit
 463              	.LVL35:
 464              		.cfi_endproc
 465              	.LFE268:
 466              		.size	usbPrepareTransmit, .-usbPrepareTransmit
 467 001a 00BF     		.section	.text.usbPrepareQueuedReceive,"ax",%progbits
 468              		.align	1
 469              		.p2align 4,,15
 470              		.global	usbPrepareQueuedReceive
 471              		.syntax unified
 472              		.thumb
 473              		.thumb_func
 474              		.fpu softvfp
 475              		.type	usbPrepareQueuedReceive, %function
 476              	usbPrepareQueuedReceive:
 477              	.LFB269:
 478              		.loc 1 455 0
 479              		.cfi_startproc
 480              		@ args = 0, pretend = 0, frame = 0
 481              		@ frame_needed = 0, uses_anonymous_args = 0
 482              		@ link register save eliminated.
 483              	.LVL36:
 484 0000 70B4     		push	{r4, r5, r6}
 485              		.cfi_def_cfa_offset 12
 486              		.cfi_offset 4, -12
 487              		.cfi_offset 5, -8
 488              		.cfi_offset 6, -4
 489              		.loc 1 456 0
 490 0002 00EB8104 		add	r4, r0, r1, lsl #2
 491              		.loc 1 458 0
 492 0006 0126     		movs	r6, #1
 493              		.loc 1 456 0
 494 0008 E468     		ldr	r4, [r4, #12]
 495 000a A469     		ldr	r4, [r4, #24]
 496              	.LVL37:
 497              		.loc 1 461 0
 498 000c 0025     		movs	r5, #0
 499              		.loc 1 459 0
 500 000e E260     		str	r2, [r4, #12]
 501              		.loc 1 460 0
 502 0010 6360     		str	r3, [r4, #4]
 503              		.loc 1 458 0
 504 0012 2670     		strb	r6, [r4]
 505              		.loc 1 461 0
 506 0014 A560     		str	r5, [r4, #8]
 507              		.loc 1 464 0
 508 0016 70BC     		pop	{r4, r5, r6}
 509              		.cfi_restore 6
 510              		.cfi_restore 5
 511              		.cfi_restore 4
 512              		.cfi_def_cfa_offset 0
 513              	.LVL38:
ARM GAS  /tmp/ccvnHshQ.s 			page 10


 514              		.loc 1 463 0
 515 0018 FFF7FEBF 		b	usb_lld_prepare_receive
 516              	.LVL39:
 517              		.cfi_endproc
 518              	.LFE269:
 519              		.size	usbPrepareQueuedReceive, .-usbPrepareQueuedReceive
 520              		.section	.text.usbPrepareQueuedTransmit,"ax",%progbits
 521              		.align	1
 522              		.p2align 4,,15
 523              		.global	usbPrepareQueuedTransmit
 524              		.syntax unified
 525              		.thumb
 526              		.thumb_func
 527              		.fpu softvfp
 528              		.type	usbPrepareQueuedTransmit, %function
 529              	usbPrepareQueuedTransmit:
 530              	.LFB270:
 531              		.loc 1 481 0
 532              		.cfi_startproc
 533              		@ args = 0, pretend = 0, frame = 0
 534              		@ frame_needed = 0, uses_anonymous_args = 0
 535              		@ link register save eliminated.
 536              	.LVL40:
 537 0000 70B4     		push	{r4, r5, r6}
 538              		.cfi_def_cfa_offset 12
 539              		.cfi_offset 4, -12
 540              		.cfi_offset 5, -8
 541              		.cfi_offset 6, -4
 542              		.loc 1 482 0
 543 0002 00EB8104 		add	r4, r0, r1, lsl #2
 544              		.loc 1 484 0
 545 0006 0126     		movs	r6, #1
 546              		.loc 1 482 0
 547 0008 E468     		ldr	r4, [r4, #12]
 548 000a 6469     		ldr	r4, [r4, #20]
 549              	.LVL41:
 550              		.loc 1 487 0
 551 000c 0025     		movs	r5, #0
 552              		.loc 1 485 0
 553 000e E260     		str	r2, [r4, #12]
 554              		.loc 1 486 0
 555 0010 6360     		str	r3, [r4, #4]
 556              		.loc 1 484 0
 557 0012 2670     		strb	r6, [r4]
 558              		.loc 1 487 0
 559 0014 A560     		str	r5, [r4, #8]
 560              		.loc 1 490 0
 561 0016 70BC     		pop	{r4, r5, r6}
 562              		.cfi_restore 6
 563              		.cfi_restore 5
 564              		.cfi_restore 4
 565              		.cfi_def_cfa_offset 0
 566              	.LVL42:
 567              		.loc 1 489 0
 568 0018 FFF7FEBF 		b	usb_lld_prepare_transmit
 569              	.LVL43:
 570              		.cfi_endproc
ARM GAS  /tmp/ccvnHshQ.s 			page 11


 571              	.LFE270:
 572              		.size	usbPrepareQueuedTransmit, .-usbPrepareQueuedTransmit
 573              		.section	.text.usbStartReceiveI,"ax",%progbits
 574              		.align	1
 575              		.p2align 4,,15
 576              		.global	usbStartReceiveI
 577              		.syntax unified
 578              		.thumb
 579              		.thumb_func
 580              		.fpu softvfp
 581              		.type	usbStartReceiveI, %function
 582              	usbStartReceiveI:
 583              	.LFB271:
 584              		.loc 1 506 0
 585              		.cfi_startproc
 586              		@ args = 0, pretend = 0, frame = 0
 587              		@ frame_needed = 0, uses_anonymous_args = 0
 588              	.LVL44:
 589              		.loc 1 511 0
 590 0000 0122     		movs	r2, #1
 591              		.loc 1 506 0
 592 0002 70B5     		push	{r4, r5, r6, lr}
 593              		.cfi_def_cfa_offset 16
 594              		.cfi_offset 4, -16
 595              		.cfi_offset 5, -12
 596              		.cfi_offset 6, -8
 597              		.cfi_offset 14, -4
 598              		.loc 1 511 0
 599 0004 02FA01F3 		lsl	r3, r2, r1
 600 0008 4489     		ldrh	r4, [r0, #10]
 601 000a 9BB2     		uxth	r3, r3
 602 000c 14EA0306 		ands	r6, r4, r3
 603 0010 01D0     		beq	.L32
 604              		.loc 1 512 0
 605 0012 1046     		mov	r0, r2
 606              	.LVL45:
 607              		.loc 1 518 0
 608 0014 70BD     		pop	{r4, r5, r6, pc}
 609              	.LVL46:
 610              	.L32:
 611              		.loc 1 515 0
 612 0016 2343     		orrs	r3, r3, r4
 613 0018 4381     		strh	r3, [r0, #10]	@ movhi
 614              		.loc 1 516 0
 615 001a FFF7FEFF 		bl	usb_lld_start_out
 616              	.LVL47:
 617              		.loc 1 517 0
 618 001e 3046     		mov	r0, r6
 619 0020 70BD     		pop	{r4, r5, r6, pc}
 620              		.cfi_endproc
 621              	.LFE271:
 622              		.size	usbStartReceiveI, .-usbStartReceiveI
 623 0022 00BF     		.section	.text.usbStartTransmitI,"ax",%progbits
 624              		.align	1
 625              		.p2align 4,,15
 626              		.global	usbStartTransmitI
 627              		.syntax unified
ARM GAS  /tmp/ccvnHshQ.s 			page 12


 628              		.thumb
 629              		.thumb_func
 630              		.fpu softvfp
 631              		.type	usbStartTransmitI, %function
 632              	usbStartTransmitI:
 633              	.LFB272:
 634              		.loc 1 534 0
 635              		.cfi_startproc
 636              		@ args = 0, pretend = 0, frame = 0
 637              		@ frame_needed = 0, uses_anonymous_args = 0
 638              	.LVL48:
 639              		.loc 1 539 0
 640 0000 0122     		movs	r2, #1
 641              		.loc 1 534 0
 642 0002 70B5     		push	{r4, r5, r6, lr}
 643              		.cfi_def_cfa_offset 16
 644              		.cfi_offset 4, -16
 645              		.cfi_offset 5, -12
 646              		.cfi_offset 6, -8
 647              		.cfi_offset 14, -4
 648              		.loc 1 539 0
 649 0004 02FA01F3 		lsl	r3, r2, r1
 650 0008 0489     		ldrh	r4, [r0, #8]
 651 000a 9BB2     		uxth	r3, r3
 652 000c 14EA0306 		ands	r6, r4, r3
 653 0010 01D0     		beq	.L37
 654              		.loc 1 540 0
 655 0012 1046     		mov	r0, r2
 656              	.LVL49:
 657              		.loc 1 546 0
 658 0014 70BD     		pop	{r4, r5, r6, pc}
 659              	.LVL50:
 660              	.L37:
 661              		.loc 1 543 0
 662 0016 2343     		orrs	r3, r3, r4
 663 0018 0381     		strh	r3, [r0, #8]	@ movhi
 664              		.loc 1 544 0
 665 001a FFF7FEFF 		bl	usb_lld_start_in
 666              	.LVL51:
 667              		.loc 1 545 0
 668 001e 3046     		mov	r0, r6
 669 0020 70BD     		pop	{r4, r5, r6, pc}
 670              		.cfi_endproc
 671              	.LFE272:
 672              		.size	usbStartTransmitI, .-usbStartTransmitI
 673 0022 00BF     		.section	.text.usbStallReceiveI,"ax",%progbits
 674              		.align	1
 675              		.p2align 4,,15
 676              		.global	usbStallReceiveI
 677              		.syntax unified
 678              		.thumb
 679              		.thumb_func
 680              		.fpu softvfp
 681              		.type	usbStallReceiveI, %function
 682              	usbStallReceiveI:
 683              	.LFB273:
 684              		.loc 1 560 0
ARM GAS  /tmp/ccvnHshQ.s 			page 13


 685              		.cfi_startproc
 686              		@ args = 0, pretend = 0, frame = 0
 687              		@ frame_needed = 0, uses_anonymous_args = 0
 688              	.LVL52:
 689 0000 10B5     		push	{r4, lr}
 690              		.cfi_def_cfa_offset 8
 691              		.cfi_offset 4, -8
 692              		.cfi_offset 14, -4
 693              		.loc 1 565 0
 694 0002 0123     		movs	r3, #1
 695 0004 4489     		ldrh	r4, [r0, #10]
 696 0006 03FA01F2 		lsl	r2, r3, r1
 697 000a 1440     		ands	r4, r2, r4
 698 000c 01D0     		beq	.L42
 699              		.loc 1 566 0
 700 000e 1846     		mov	r0, r3
 701              	.LVL53:
 702              		.loc 1 571 0
 703 0010 10BD     		pop	{r4, pc}
 704              	.LVL54:
 705              	.L42:
 706              		.loc 1 569 0
 707 0012 FFF7FEFF 		bl	usb_lld_stall_out
 708              	.LVL55:
 709              		.loc 1 570 0
 710 0016 2046     		mov	r0, r4
 711 0018 10BD     		pop	{r4, pc}
 712              		.cfi_endproc
 713              	.LFE273:
 714              		.size	usbStallReceiveI, .-usbStallReceiveI
 715 001a 00BF     		.section	.text.usbStallTransmitI,"ax",%progbits
 716              		.align	1
 717              		.p2align 4,,15
 718              		.global	usbStallTransmitI
 719              		.syntax unified
 720              		.thumb
 721              		.thumb_func
 722              		.fpu softvfp
 723              		.type	usbStallTransmitI, %function
 724              	usbStallTransmitI:
 725              	.LFB274:
 726              		.loc 1 585 0
 727              		.cfi_startproc
 728              		@ args = 0, pretend = 0, frame = 0
 729              		@ frame_needed = 0, uses_anonymous_args = 0
 730              	.LVL56:
 731 0000 10B5     		push	{r4, lr}
 732              		.cfi_def_cfa_offset 8
 733              		.cfi_offset 4, -8
 734              		.cfi_offset 14, -4
 735              		.loc 1 590 0
 736 0002 0123     		movs	r3, #1
 737 0004 0489     		ldrh	r4, [r0, #8]
 738 0006 03FA01F2 		lsl	r2, r3, r1
 739 000a 1440     		ands	r4, r2, r4
 740 000c 01D0     		beq	.L47
 741              		.loc 1 591 0
ARM GAS  /tmp/ccvnHshQ.s 			page 14


 742 000e 1846     		mov	r0, r3
 743              	.LVL57:
 744              		.loc 1 596 0
 745 0010 10BD     		pop	{r4, pc}
 746              	.LVL58:
 747              	.L47:
 748              		.loc 1 594 0
 749 0012 FFF7FEFF 		bl	usb_lld_stall_in
 750              	.LVL59:
 751              		.loc 1 595 0
 752 0016 2046     		mov	r0, r4
 753 0018 10BD     		pop	{r4, pc}
 754              		.cfi_endproc
 755              	.LFE274:
 756              		.size	usbStallTransmitI, .-usbStallTransmitI
 757 001a 00BF     		.section	.text._usb_reset,"ax",%progbits
 758              		.align	1
 759              		.p2align 4,,15
 760              		.global	_usb_reset
 761              		.syntax unified
 762              		.thumb
 763              		.thumb_func
 764              		.fpu softvfp
 765              		.type	_usb_reset, %function
 766              	_usb_reset:
 767              	.LFB275:
 768              		.loc 1 607 0
 769              		.cfi_startproc
 770              		@ args = 0, pretend = 0, frame = 0
 771              		@ frame_needed = 0, uses_anonymous_args = 0
 772              		@ link register save eliminated.
 773              	.LVL60:
 774              		.loc 1 611 0
 775 0000 0022     		movs	r2, #0
 776              		.loc 1 610 0
 777 0002 0221     		movs	r1, #2
 778 0004 0170     		strb	r1, [r0]
 779              		.loc 1 611 0
 780 0006 A0F84C20 		strh	r2, [r0, #76]	@ movhi
 781              		.loc 1 612 0
 782 000a 80F84E20 		strb	r2, [r0, #78]
 783              		.loc 1 613 0
 784 000e 80F84F20 		strb	r2, [r0, #79]
 785              		.loc 1 614 0
 786 0012 0281     		strh	r2, [r0, #8]	@ movhi
 787              		.loc 1 615 0
 788 0014 4281     		strh	r2, [r0, #10]	@ movhi
 789              	.LVL61:
 790              		.loc 1 619 0
 791 0016 C260     		str	r2, [r0, #12]
 792              	.LVL62:
 793 0018 0261     		str	r2, [r0, #16]
 794              	.LVL63:
 795 001a 4261     		str	r2, [r0, #20]
 796              	.LVL64:
 797 001c 8261     		str	r2, [r0, #24]
 798              	.LVL65:
ARM GAS  /tmp/ccvnHshQ.s 			page 15


 799              		.loc 1 623 0
 800 001e 80F83420 		strb	r2, [r0, #52]
 801              		.loc 1 626 0
 802 0022 FFF7FEBF 		b	usb_lld_reset
 803              	.LVL66:
 804              		.cfi_endproc
 805              	.LFE275:
 806              		.size	_usb_reset, .-_usb_reset
 807 0026 00BF     		.section	.text._usb_ep0setup,"ax",%progbits
 808              		.align	1
 809              		.p2align 4,,15
 810              		.global	_usb_ep0setup
 811              		.syntax unified
 812              		.thumb
 813              		.thumb_func
 814              		.fpu softvfp
 815              		.type	_usb_ep0setup, %function
 816              	_usb_ep0setup:
 817              	.LFB276:
 818              		.loc 1 639 0
 819              		.cfi_startproc
 820              		@ args = 0, pretend = 0, frame = 0
 821              		@ frame_needed = 0, uses_anonymous_args = 0
 822              	.LVL67:
 823 0000 70B5     		push	{r4, r5, r6, lr}
 824              		.cfi_def_cfa_offset 16
 825              		.cfi_offset 4, -16
 826              		.cfi_offset 5, -12
 827              		.cfi_offset 6, -8
 828              		.cfi_offset 14, -4
 829              		.loc 1 642 0
 830 0002 0023     		movs	r3, #0
 831              		.loc 1 639 0
 832 0004 0446     		mov	r4, r0
 833              		.loc 1 642 0
 834 0006 80F83430 		strb	r3, [r0, #52]
 835              		.loc 1 643 0
 836 000a 00F14402 		add	r2, r0, #68
 837 000e FFF7FEFF 		bl	usb_lld_read_setup
 838              	.LVL68:
 839              		.loc 1 648 0
 840 0012 6368     		ldr	r3, [r4, #4]
 841 0014 9B68     		ldr	r3, [r3, #8]
 842 0016 002B     		cmp	r3, #0
 843 0018 36D0     		beq	.L54
 844              		.loc 1 649 0 discriminator 1
 845 001a 2046     		mov	r0, r4
 846 001c 9847     		blx	r3
 847              	.LVL69:
 848              		.loc 1 648 0 discriminator 1
 849 001e 0028     		cmp	r0, #0
 850 0020 32D0     		beq	.L54
 851 0022 E56B     		ldr	r5, [r4, #60]
 852 0024 94F84430 		ldrb	r3, [r4, #68]	@ zero_extendqisi2
 853              	.L70:
 854              	.LBB311:
 855              	.LBB312:
ARM GAS  /tmp/ccvnHshQ.s 			page 16


 856              		.loc 1 55 0
 857 0028 94F84B10 		ldrb	r1, [r4, #75]	@ zero_extendqisi2
 858 002c 94F84A20 		ldrb	r2, [r4, #74]	@ zero_extendqisi2
 859              	.LBE312:
 860              	.LBE311:
 861              		.loc 1 676 0
 862 0030 42EA0122 		orr	r2, r2, r1, lsl #8
 863              	.LVL70:
 864              		.loc 1 678 0
 865 0034 AA42     		cmp	r2, r5
 866 0036 2CBF     		ite	cs
 867 0038 2A46     		movcs	r2, r5
 868              	.LVL71:
 869              		.loc 1 679 0
 870 003a E263     		strcc	r2, [r4, #60]
 871              		.loc 1 681 0
 872 003c 1906     		lsls	r1, r3, #24
 873              	.LVL72:
 874 003e 00F1AB80 		bmi	.L132
 875              		.loc 1 707 0
 876 0042 002A     		cmp	r2, #0
 877 0044 00F08B80 		beq	.L94
 878              	.LBB313:
 879              	.LBB314:
 880              		.loc 1 401 0
 881 0048 E368     		ldr	r3, [r4, #12]
 882              	.LBE314:
 883              	.LBE313:
 884              		.loc 1 710 0
 885 004a A56B     		ldr	r5, [r4, #56]
 886              	.LVL73:
 887              	.LBB317:
 888              	.LBB315:
 889              		.loc 1 401 0
 890 004c 9B69     		ldr	r3, [r3, #24]
 891              	.LVL74:
 892              		.loc 1 403 0
 893 004e 0020     		movs	r0, #0
 894              	.LBE315:
 895              	.LBE317:
 896              		.loc 1 709 0
 897 0050 0421     		movs	r1, #4
 898 0052 84F83410 		strb	r1, [r4, #52]
 899              	.LBB318:
 900              	.LBB316:
 901              		.loc 1 408 0
 902 0056 0146     		mov	r1, r0
 903              		.loc 1 404 0
 904 0058 DD60     		str	r5, [r3, #12]
 905              	.LVL75:
 906              		.loc 1 405 0
 907 005a 5A60     		str	r2, [r3, #4]
 908              		.loc 1 403 0
 909 005c 1870     		strb	r0, [r3]
 910              		.loc 1 406 0
 911 005e 9860     		str	r0, [r3, #8]
 912              	.LVL76:
ARM GAS  /tmp/ccvnHshQ.s 			page 17


 913              	.L129:
 914              		.loc 1 408 0
 915 0060 2046     		mov	r0, r4
 916 0062 FFF7FEFF 		bl	usb_lld_prepare_receive
 917              	.LVL77:
 918              	.LBE316:
 919              	.LBE318:
 920              	.LBB319:
 921              	.LBB320:
 922              	.LBB321:
 923              	.LBB322:
 924              	.LBB323:
 925              	.LBB324:
 926              		.loc 2 546 0
 927 0066 2023     		movs	r3, #32
 928              		.syntax unified
 929              	@ 546 "/home/selim/working/ChibiOS/os/ext/CMSIS/include/core_cmFunc.h" 1
 930 0068 83F31188 		MSR basepri, r3
 931              	@ 0 "" 2
 932              	.LVL78:
 933              		.thumb
 934              		.syntax unified
 935              	.LBE324:
 936              	.LBE323:
 937              	.LBE322:
 938              	.LBE321:
 939              	.LBE320:
 940              	.LBE319:
 941              	.LBB325:
 942              	.LBB326:
 943              		.loc 1 511 0
 944 006c 6389     		ldrh	r3, [r4, #10]
 945 006e 13F00101 		ands	r1, r3, #1
 946 0072 05D1     		bne	.L96
 947              		.loc 1 515 0
 948 0074 43F00103 		orr	r3, r3, #1
 949 0078 6381     		strh	r3, [r4, #10]	@ movhi
 950              		.loc 1 516 0
 951 007a 2046     		mov	r0, r4
 952 007c FFF7FEFF 		bl	usb_lld_start_out
 953              	.LVL79:
 954              	.L96:
 955              	.LBE326:
 956              	.LBE325:
 957              	.LBB327:
 958              	.LBB328:
 959              	.LBB329:
 960              	.LBB330:
 961              	.LBB331:
 962              	.LBB332:
 963              		.loc 2 546 0
 964 0080 0023     		movs	r3, #0
 965              		.syntax unified
 966              	@ 546 "/home/selim/working/ChibiOS/os/ext/CMSIS/include/core_cmFunc.h" 1
 967 0082 83F31188 		MSR basepri, r3
 968              	@ 0 "" 2
 969              	.LVL80:
ARM GAS  /tmp/ccvnHshQ.s 			page 18


 970              		.thumb
 971              		.syntax unified
 972 0086 70BD     		pop	{r4, r5, r6, pc}
 973              	.LVL81:
 974              	.L54:
 975              	.LBE332:
 976              	.LBE331:
 977              	.LBE330:
 978              	.LBE329:
 979              	.LBE328:
 980              	.LBE327:
 981              		.loc 1 654 0
 982 0088 94F84430 		ldrb	r3, [r4, #68]	@ zero_extendqisi2
 983 008c 13F06006 		ands	r6, r3, #96
 984 0090 1A46     		mov	r2, r3
 985 0092 11D0     		beq	.L133
 986              	.L55:
 987              		.loc 1 660 0
 988 0094 0021     		movs	r1, #0
 989 0096 2046     		mov	r0, r4
 990 0098 FFF7FEFF 		bl	usb_lld_stall_in
 991              	.LVL82:
 992              		.loc 1 661 0
 993 009c 0021     		movs	r1, #0
 994 009e 2046     		mov	r0, r4
 995 00a0 FFF7FEFF 		bl	usb_lld_stall_out
 996              	.LVL83:
 997              		.loc 1 662 0
 998 00a4 6368     		ldr	r3, [r4, #4]
 999 00a6 1B68     		ldr	r3, [r3]
 1000 00a8 13B1     		cbz	r3, .L86
 1001              		.loc 1 662 0 is_stmt 0 discriminator 1
 1002 00aa 0521     		movs	r1, #5
 1003 00ac 2046     		mov	r0, r4
 1004 00ae 9847     		blx	r3
 1005              	.LVL84:
 1006              	.L86:
 1007              		.loc 1 663 0 is_stmt 1
 1008 00b0 0623     		movs	r3, #6
 1009 00b2 84F83430 		strb	r3, [r4, #52]
 1010              		.loc 1 664 0
 1011 00b6 70BD     		pop	{r4, r5, r6, pc}
 1012              	.LVL85:
 1013              	.L133:
 1014              	.LBB333:
 1015              	.LBB334:
 1016              		.loc 1 90 0
 1017 00b8 94F84510 		ldrb	r1, [r4, #69]	@ zero_extendqisi2
 1018              		.loc 1 88 0
 1019 00bc 03F07F05 		and	r5, r3, #127
 1020              		.loc 1 89 0
 1021 00c0 45EA0125 		orr	r5, r5, r1, lsl #8
 1022              		.loc 1 88 0
 1023 00c4 B5F5407F 		cmp	r5, #768
 1024 00c8 00F0EF80 		beq	.L56
 1025 00cc 16D9     		bls	.L134
 1026 00ce B5F5C06F 		cmp	r5, #1536
ARM GAS  /tmp/ccvnHshQ.s 			page 19


 1027 00d2 00F0D180 		beq	.L64
 1028 00d6 2FD9     		bls	.L135
 1029 00d8 B5F5106F 		cmp	r5, #2304
 1030 00dc 76D0     		beq	.L68
 1031 00de 40F60242 		movw	r2, #3074
 1032 00e2 9542     		cmp	r5, r2
 1033 00e4 00F0F380 		beq	.L61
 1034 00e8 B5F5006F 		cmp	r5, #2048
 1035 00ec D2D1     		bne	.L55
 1036              		.loc 1 141 0
 1037 00ee 04F14F02 		add	r2, r4, #79
 1038 00f2 0125     		movs	r5, #1
 1039 00f4 2664     		str	r6, [r4, #64]
 1040 00f6 A263     		str	r2, [r4, #56]
 1041 00f8 E563     		str	r5, [r4, #60]
 1042 00fa 95E7     		b	.L70
 1043              	.L134:
 1044              		.loc 1 88 0
 1045 00fc 022D     		cmp	r5, #2
 1046 00fe 00F0A480 		beq	.L58
 1047 0102 40F29880 		bls	.L136
 1048 0106 B5F5807F 		cmp	r5, #256
 1049 010a 00F08580 		beq	.L62
 1050 010e B5F5817F 		cmp	r5, #258
 1051 0112 BFD1     		bne	.L55
 1052              		.loc 1 201 0
 1053 0114 94F84630 		ldrb	r3, [r4, #70]	@ zero_extendqisi2
 1054 0118 002B     		cmp	r3, #0
 1055 011a BBD1     		bne	.L55
 1056              		.loc 1 205 0
 1057 011c 94F84830 		ldrb	r3, [r4, #72]	@ zero_extendqisi2
 1058 0120 13F00F01 		ands	r1, r3, #15
 1059 0124 15D0     		beq	.L84
 1060              		.loc 1 206 0
 1061 0126 1E06     		lsls	r6, r3, #24
 1062              		.loc 1 207 0
 1063 0128 2046     		mov	r0, r4
 1064              		.loc 1 206 0
 1065 012a 00F1F780 		bmi	.L137
 1066              	.LVL86:
 1067              		.loc 1 210 0
 1068 012e FFF7FEFF 		bl	usb_lld_clear_out
 1069              	.LVL87:
 1070 0132 94F84420 		ldrb	r2, [r4, #68]	@ zero_extendqisi2
 1071 0136 0CE0     		b	.L84
 1072              	.L135:
 1073              		.loc 1 88 0
 1074 0138 40F20233 		movw	r3, #770
 1075 013c 9D42     		cmp	r5, r3
 1076 013e 58D0     		beq	.L66
 1077 0140 B5F5A06F 		cmp	r5, #1280
 1078 0144 A6D1     		bne	.L55
 1079              		.loc 1 118 0
 1080 0146 B4F84430 		ldrh	r3, [r4, #68]
 1081 014a B3F5A06F 		cmp	r3, #1280
 1082 014e 00F0D380 		beq	.L138
 1083              	.L84:
ARM GAS  /tmp/ccvnHshQ.s 			page 20


 1084              		.loc 1 229 0
 1085 0152 0023     		movs	r3, #0
 1086 0154 A363     		str	r3, [r4, #56]
 1087 0156 E363     		str	r3, [r4, #60]
 1088 0158 2364     		str	r3, [r4, #64]
 1089              	.L71:
 1090              	.LVL88:
 1091              	.LBE334:
 1092              	.LBE333:
 1093              		.loc 1 681 0
 1094 015a 1306     		lsls	r3, r2, #24
 1095 015c 2AD4     		bmi	.L91
 1096              	.LVL89:
 1097              	.L94:
 1098              	.LBB342:
 1099              	.LBB343:
 1100              		.loc 1 427 0
 1101 015e E368     		ldr	r3, [r4, #12]
 1102 0160 5A69     		ldr	r2, [r3, #20]
 1103              	.LBE343:
 1104              	.LBE342:
 1105              		.loc 1 718 0
 1106 0162 0521     		movs	r1, #5
 1107              	.LBB346:
 1108              	.LBB344:
 1109              		.loc 1 429 0
 1110 0164 0023     		movs	r3, #0
 1111              	.LBE344:
 1112              	.LBE346:
 1113              		.loc 1 718 0
 1114 0166 84F83410 		strb	r1, [r4, #52]
 1115              	.LVL90:
 1116              	.LBB347:
 1117              	.LBB345:
 1118              		.loc 1 434 0
 1119 016a 1946     		mov	r1, r3
 1120              		.loc 1 429 0
 1121 016c 1370     		strb	r3, [r2]
 1122              		.loc 1 430 0
 1123 016e D360     		str	r3, [r2, #12]
 1124              		.loc 1 431 0
 1125 0170 5360     		str	r3, [r2, #4]
 1126              		.loc 1 432 0
 1127 0172 9360     		str	r3, [r2, #8]
 1128              	.LVL91:
 1129              	.L130:
 1130              		.loc 1 434 0
 1131 0174 2046     		mov	r0, r4
 1132 0176 FFF7FEFF 		bl	usb_lld_prepare_transmit
 1133              	.LVL92:
 1134              	.LBE345:
 1135              	.LBE347:
 1136              	.LBB348:
 1137              	.LBB349:
 1138              	.LBB350:
 1139              	.LBB351:
 1140              	.LBB352:
ARM GAS  /tmp/ccvnHshQ.s 			page 21


 1141              	.LBB353:
 1142              		.loc 2 546 0
 1143 017a 2023     		movs	r3, #32
 1144              		.syntax unified
 1145              	@ 546 "/home/selim/working/ChibiOS/os/ext/CMSIS/include/core_cmFunc.h" 1
 1146 017c 83F31188 		MSR basepri, r3
 1147              	@ 0 "" 2
 1148              	.LVL93:
 1149              		.thumb
 1150              		.syntax unified
 1151              	.LBE353:
 1152              	.LBE352:
 1153              	.LBE351:
 1154              	.LBE350:
 1155              	.LBE349:
 1156              	.LBE348:
 1157              	.LBB354:
 1158              	.LBB355:
 1159              		.loc 1 539 0
 1160 0180 2389     		ldrh	r3, [r4, #8]
 1161 0182 13F00101 		ands	r1, r3, #1
 1162 0186 7FF47BAF 		bne	.L96
 1163              		.loc 1 543 0
 1164 018a 43F00103 		orr	r3, r3, #1
 1165 018e 2381     		strh	r3, [r4, #8]	@ movhi
 1166              		.loc 1 544 0
 1167 0190 2046     		mov	r0, r4
 1168 0192 FFF7FEFF 		bl	usb_lld_start_in
 1169              	.LVL94:
 1170 0196 73E7     		b	.L96
 1171              	.LVL95:
 1172              	.L132:
 1173              	.LBE355:
 1174              	.LBE354:
 1175              		.loc 1 683 0
 1176 0198 62B1     		cbz	r2, .L91
 1177              	.LBB356:
 1178              	.LBB357:
 1179              		.loc 1 427 0
 1180 019a E368     		ldr	r3, [r4, #12]
 1181              	.LBE357:
 1182              	.LBE356:
 1183              		.loc 1 686 0
 1184 019c A56B     		ldr	r5, [r4, #56]
 1185              	.LVL96:
 1186              	.LBB360:
 1187              	.LBB358:
 1188              		.loc 1 427 0
 1189 019e 5B69     		ldr	r3, [r3, #20]
 1190              	.LVL97:
 1191              		.loc 1 429 0
 1192 01a0 0020     		movs	r0, #0
 1193              	.LBE358:
 1194              	.LBE360:
 1195              		.loc 1 685 0
 1196 01a2 0121     		movs	r1, #1
 1197 01a4 84F83410 		strb	r1, [r4, #52]
ARM GAS  /tmp/ccvnHshQ.s 			page 22


 1198              	.LBB361:
 1199              	.LBB359:
 1200              		.loc 1 434 0
 1201 01a8 0146     		mov	r1, r0
 1202              		.loc 1 430 0
 1203 01aa DD60     		str	r5, [r3, #12]
 1204              	.LVL98:
 1205              		.loc 1 431 0
 1206 01ac 5A60     		str	r2, [r3, #4]
 1207              		.loc 1 429 0
 1208 01ae 1870     		strb	r0, [r3]
 1209              		.loc 1 432 0
 1210 01b0 9860     		str	r0, [r3, #8]
 1211 01b2 DFE7     		b	.L130
 1212              	.LVL99:
 1213              	.L91:
 1214              	.LBE359:
 1215              	.LBE361:
 1216              	.LBB362:
 1217              	.LBB363:
 1218              		.loc 1 401 0
 1219 01b4 E368     		ldr	r3, [r4, #12]
 1220 01b6 9A69     		ldr	r2, [r3, #24]
 1221              	.LBE363:
 1222              	.LBE362:
 1223              		.loc 1 694 0
 1224 01b8 0321     		movs	r1, #3
 1225              	.LBB366:
 1226              	.LBB364:
 1227              		.loc 1 403 0
 1228 01ba 0023     		movs	r3, #0
 1229              	.LBE364:
 1230              	.LBE366:
 1231              		.loc 1 694 0
 1232 01bc 84F83410 		strb	r1, [r4, #52]
 1233              	.LVL100:
 1234              	.LBB367:
 1235              	.LBB365:
 1236              		.loc 1 408 0
 1237 01c0 1946     		mov	r1, r3
 1238              		.loc 1 403 0
 1239 01c2 1370     		strb	r3, [r2]
 1240              		.loc 1 404 0
 1241 01c4 D360     		str	r3, [r2, #12]
 1242              		.loc 1 405 0
 1243 01c6 5360     		str	r3, [r2, #4]
 1244              		.loc 1 406 0
 1245 01c8 9360     		str	r3, [r2, #8]
 1246 01ca 49E7     		b	.L129
 1247              	.LVL101:
 1248              	.L68:
 1249              	.LBE365:
 1250              	.LBE367:
 1251              	.LBB368:
 1252              	.LBB341:
 1253              		.loc 1 145 0
 1254 01cc 94F84630 		ldrb	r3, [r4, #70]	@ zero_extendqisi2
ARM GAS  /tmp/ccvnHshQ.s 			page 23


 1255 01d0 84F84F30 		strb	r3, [r4, #79]
 1256              		.loc 1 146 0
 1257 01d4 002B     		cmp	r3, #0
 1258 01d6 40F08180 		bne	.L74
 1259              		.loc 1 147 0
 1260 01da 0323     		movs	r3, #3
 1261 01dc 2370     		strb	r3, [r4]
 1262              	.L75:
 1263              		.loc 1 152 0
 1264 01de 6368     		ldr	r3, [r4, #4]
 1265 01e0 1B68     		ldr	r3, [r3]
 1266 01e2 002B     		cmp	r3, #0
 1267 01e4 B5D0     		beq	.L84
 1268 01e6 0221     		movs	r1, #2
 1269 01e8 2046     		mov	r0, r4
 1270 01ea 9847     		blx	r3
 1271              	.LVL102:
 1272 01ec 94F84420 		ldrb	r2, [r4, #68]	@ zero_extendqisi2
 1273 01f0 AFE7     		b	.L84
 1274              	.L66:
 1275              		.loc 1 217 0
 1276 01f2 94F84630 		ldrb	r3, [r4, #70]	@ zero_extendqisi2
 1277 01f6 002B     		cmp	r3, #0
 1278 01f8 7FF44CAF 		bne	.L55
 1279              		.loc 1 221 0
 1280 01fc 94F84830 		ldrb	r3, [r4, #72]	@ zero_extendqisi2
 1281 0200 13F00F01 		ands	r1, r3, #15
 1282 0204 A5D0     		beq	.L84
 1283              		.loc 1 222 0
 1284 0206 1D06     		lsls	r5, r3, #24
 1285              		.loc 1 223 0
 1286 0208 2046     		mov	r0, r4
 1287              		.loc 1 222 0
 1288 020a 00F18C80 		bmi	.L139
 1289              	.LVL103:
 1290              		.loc 1 226 0
 1291 020e FFF7FEFF 		bl	usb_lld_stall_out
 1292              	.LVL104:
 1293 0212 94F84420 		ldrb	r2, [r4, #68]	@ zero_extendqisi2
 1294 0216 9CE7     		b	.L84
 1295              	.L62:
 1296              		.loc 1 98 0
 1297 0218 94F84630 		ldrb	r3, [r4, #70]	@ zero_extendqisi2
 1298 021c 012B     		cmp	r3, #1
 1299 021e 7FF439AF 		bne	.L55
 1300              		.loc 1 99 0
 1301 0222 B4F84C30 		ldrh	r3, [r4, #76]
 1302              		.loc 1 100 0
 1303 0226 A663     		str	r6, [r4, #56]
 1304              		.loc 1 99 0
 1305 0228 23F00203 		bic	r3, r3, #2
 1306              		.loc 1 100 0
 1307 022c E663     		str	r6, [r4, #60]
 1308 022e 2664     		str	r6, [r4, #64]
 1309              		.loc 1 99 0
 1310 0230 A4F84C30 		strh	r3, [r4, #76]	@ movhi
 1311 0234 91E7     		b	.L71
ARM GAS  /tmp/ccvnHshQ.s 			page 24


 1312              	.L136:
 1313              		.loc 1 88 0
 1314 0236 002D     		cmp	r5, #0
 1315 0238 46D1     		bne	.L140
 1316              		.loc 1 93 0
 1317 023a 0220     		movs	r0, #2
 1318 023c 04F14C02 		add	r2, r4, #76
 1319 0240 2564     		str	r5, [r4, #64]
 1320 0242 A263     		str	r2, [r4, #56]
 1321 0244 E063     		str	r0, [r4, #60]
 1322 0246 0546     		mov	r5, r0
 1323 0248 EEE6     		b	.L70
 1324              	.L58:
 1325              		.loc 1 165 0
 1326 024a 94F84810 		ldrb	r1, [r4, #72]	@ zero_extendqisi2
 1327 024e 11F0800F 		tst	r1, #128
 1328              		.loc 1 166 0
 1329 0252 2046     		mov	r0, r4
 1330 0254 01F00F01 		and	r1, r1, #15
 1331              		.loc 1 165 0
 1332 0258 43D1     		bne	.L141
 1333              	.LVL105:
 1334              		.loc 1 183 0
 1335 025a FFF7FEFF 		bl	usb_lld_get_status_out
 1336              	.LVL106:
 1337 025e 0128     		cmp	r0, #1
 1338 0260 43D0     		beq	.L80
 1339              	.L126:
 1340 0262 0228     		cmp	r0, #2
 1341 0264 7FF416AF 		bne	.L55
 1342              		.loc 1 191 0
 1343 0268 314B     		ldr	r3, .L142
 1344 026a A363     		str	r3, [r4, #56]
 1345 026c E063     		str	r0, [r4, #60]
 1346 026e 2664     		str	r6, [r4, #64]
 1347 0270 0546     		mov	r5, r0
 1348 0272 94F84430 		ldrb	r3, [r4, #68]	@ zero_extendqisi2
 1349 0276 D7E6     		b	.L70
 1350              	.L64:
 1351              	.LBB335:
 1352              	.LBB336:
 1353              		.loc 1 55 0
 1354 0278 94F84900 		ldrb	r0, [r4, #73]	@ zero_extendqisi2
 1355              	.LBE336:
 1356              	.LBE335:
 1357              		.loc 1 129 0
 1358 027c 6168     		ldr	r1, [r4, #4]
 1359              	.LBB338:
 1360              	.LBB337:
 1361              		.loc 1 55 0
 1362 027e 94F84830 		ldrb	r3, [r4, #72]	@ zero_extendqisi2
 1363              	.LBE337:
 1364              	.LBE338:
 1365              		.loc 1 129 0
 1366 0282 4D68     		ldr	r5, [r1, #4]
 1367 0284 94F84620 		ldrb	r2, [r4, #70]	@ zero_extendqisi2
 1368 0288 94F84710 		ldrb	r1, [r4, #71]	@ zero_extendqisi2
ARM GAS  /tmp/ccvnHshQ.s 			page 25


 1369 028c 43EA0023 		orr	r3, r3, r0, lsl #8
 1370 0290 2046     		mov	r0, r4
 1371 0292 A847     		blx	r5
 1372              	.LVL107:
 1373              		.loc 1 132 0
 1374 0294 0028     		cmp	r0, #0
 1375 0296 3FF4FDAE 		beq	.L55
 1376              		.loc 1 136 0
 1377 029a 4368     		ldr	r3, [r0, #4]
 1378 029c 0568     		ldr	r5, [r0]
 1379 029e E563     		str	r5, [r4, #60]
 1380 02a0 A363     		str	r3, [r4, #56]
 1381 02a2 2664     		str	r6, [r4, #64]
 1382 02a4 94F84430 		ldrb	r3, [r4, #68]	@ zero_extendqisi2
 1383 02a8 BEE6     		b	.L70
 1384              	.LVL108:
 1385              	.L56:
 1386              		.loc 1 107 0
 1387 02aa 94F84630 		ldrb	r3, [r4, #70]	@ zero_extendqisi2
 1388 02ae 012B     		cmp	r3, #1
 1389 02b0 7FF4F0AE 		bne	.L55
 1390              		.loc 1 108 0
 1391 02b4 B4F84C30 		ldrh	r3, [r4, #76]
 1392              		.loc 1 109 0
 1393 02b8 A663     		str	r6, [r4, #56]
 1394              		.loc 1 108 0
 1395 02ba 43F00203 		orr	r3, r3, #2
 1396              		.loc 1 109 0
 1397 02be E663     		str	r6, [r4, #60]
 1398 02c0 2664     		str	r6, [r4, #64]
 1399              		.loc 1 108 0
 1400 02c2 A4F84C30 		strh	r3, [r4, #76]	@ movhi
 1401 02c6 48E7     		b	.L71
 1402              	.L140:
 1403              		.loc 1 88 0
 1404 02c8 012D     		cmp	r5, #1
 1405 02ca 7FF4E3AE 		bne	.L55
 1406              	.L61:
 1407              		.loc 1 160 0
 1408 02ce 194A     		ldr	r2, .L142+4
 1409 02d0 A263     		str	r2, [r4, #56]
 1410 02d2 0225     		movs	r5, #2
 1411 02d4 0022     		movs	r2, #0
 1412 02d6 E563     		str	r5, [r4, #60]
 1413 02d8 2264     		str	r2, [r4, #64]
 1414 02da A5E6     		b	.L70
 1415              	.L74:
 1416              		.loc 1 150 0
 1417 02dc 0423     		movs	r3, #4
 1418 02de 2370     		strb	r3, [r4]
 1419 02e0 7DE7     		b	.L75
 1420              	.LVL109:
 1421              	.L141:
 1422              		.loc 1 166 0
 1423 02e2 FFF7FEFF 		bl	usb_lld_get_status_in
 1424              	.LVL110:
 1425 02e6 0128     		cmp	r0, #1
ARM GAS  /tmp/ccvnHshQ.s 			page 26


 1426 02e8 BBD1     		bne	.L126
 1427              	.L80:
 1428              		.loc 1 186 0
 1429 02ea 134B     		ldr	r3, .L142+8
 1430 02ec A363     		str	r3, [r4, #56]
 1431 02ee E563     		str	r5, [r4, #60]
 1432 02f0 2664     		str	r6, [r4, #64]
 1433 02f2 94F84430 		ldrb	r3, [r4, #68]	@ zero_extendqisi2
 1434 02f6 97E6     		b	.L70
 1435              	.L138:
 1436              	.LVL111:
 1437              	.LBB339:
 1438              	.LBB340:
 1439              		.loc 1 66 0
 1440 02f8 94F84630 		ldrb	r3, [r4, #70]	@ zero_extendqisi2
 1441 02fc 84F84E30 		strb	r3, [r4, #78]
 1442              		.loc 1 67 0
 1443 0300 2046     		mov	r0, r4
 1444 0302 FFF7FEFF 		bl	usb_lld_set_address
 1445              	.LVL112:
 1446              		.loc 1 68 0
 1447 0306 6368     		ldr	r3, [r4, #4]
 1448 0308 1B68     		ldr	r3, [r3]
 1449 030a 13B1     		cbz	r3, .L73
 1450 030c 0121     		movs	r1, #1
 1451 030e 2046     		mov	r0, r4
 1452 0310 9847     		blx	r3
 1453              	.LVL113:
 1454              	.L73:
 1455              		.loc 1 69 0
 1456 0312 0323     		movs	r3, #3
 1457 0314 94F84420 		ldrb	r2, [r4, #68]	@ zero_extendqisi2
 1458 0318 2370     		strb	r3, [r4]
 1459 031a 1AE7     		b	.L84
 1460              	.LVL114:
 1461              	.L137:
 1462              	.LBE340:
 1463              	.LBE339:
 1464              		.loc 1 207 0
 1465 031c FFF7FEFF 		bl	usb_lld_clear_in
 1466              	.LVL115:
 1467 0320 94F84420 		ldrb	r2, [r4, #68]	@ zero_extendqisi2
 1468 0324 15E7     		b	.L84
 1469              	.LVL116:
 1470              	.L139:
 1471              		.loc 1 223 0
 1472 0326 FFF7FEFF 		bl	usb_lld_stall_in
 1473              	.LVL117:
 1474 032a 94F84420 		ldrb	r2, [r4, #68]	@ zero_extendqisi2
 1475 032e 10E7     		b	.L84
 1476              	.L143:
 1477              		.align	2
 1478              	.L142:
 1479 0330 00000000 		.word	.LANCHOR2
 1480 0334 00000000 		.word	.LANCHOR0
 1481 0338 00000000 		.word	.LANCHOR1
 1482              	.LBE341:
ARM GAS  /tmp/ccvnHshQ.s 			page 27


 1483              	.LBE368:
 1484              		.cfi_endproc
 1485              	.LFE276:
 1486              		.size	_usb_ep0setup, .-_usb_ep0setup
 1487              		.section	.text._usb_ep0in,"ax",%progbits
 1488              		.align	1
 1489              		.p2align 4,,15
 1490              		.global	_usb_ep0in
 1491              		.syntax unified
 1492              		.thumb
 1493              		.thumb_func
 1494              		.fpu softvfp
 1495              		.type	_usb_ep0in, %function
 1496              	_usb_ep0in:
 1497              	.LFB277:
 1498              		.loc 1 741 0
 1499              		.cfi_startproc
 1500              		@ args = 0, pretend = 0, frame = 0
 1501              		@ frame_needed = 0, uses_anonymous_args = 0
 1502              	.LVL118:
 1503              		.loc 1 745 0
 1504 0000 90F83430 		ldrb	r3, [r0, #52]	@ zero_extendqisi2
 1505              		.loc 1 741 0
 1506 0004 10B5     		push	{r4, lr}
 1507              		.cfi_def_cfa_offset 8
 1508              		.cfi_offset 4, -8
 1509              		.cfi_offset 14, -4
 1510              		.loc 1 741 0
 1511 0006 0446     		mov	r4, r0
 1512              		.loc 1 745 0
 1513 0008 062B     		cmp	r3, #6
 1514 000a 15D8     		bhi	.L144
 1515 000c DFE803F0 		tbb	[pc, r3]
 1516              	.L147:
 1517 0010 04       		.byte	(.L146-.L147)/2
 1518 0011 3B       		.byte	(.L148-.L147)/2
 1519 0012 1C       		.byte	(.L149-.L147)/2
 1520 0013 04       		.byte	(.L146-.L147)/2
 1521 0014 04       		.byte	(.L146-.L147)/2
 1522 0015 15       		.byte	(.L150-.L147)/2
 1523 0016 04       		.byte	(.L146-.L147)/2
 1524 0017 00       		.p2align 1
 1525              	.L146:
 1526              		.loc 1 790 0
 1527 0018 0021     		movs	r1, #0
 1528              	.LVL119:
 1529 001a FFF7FEFF 		bl	usb_lld_stall_in
 1530              	.LVL120:
 1531              		.loc 1 791 0
 1532 001e 0021     		movs	r1, #0
 1533 0020 2046     		mov	r0, r4
 1534 0022 FFF7FEFF 		bl	usb_lld_stall_out
 1535              	.LVL121:
 1536              		.loc 1 792 0
 1537 0026 6368     		ldr	r3, [r4, #4]
 1538 0028 1B68     		ldr	r3, [r3]
 1539 002a 13B1     		cbz	r3, .L156
ARM GAS  /tmp/ccvnHshQ.s 			page 28


 1540              		.loc 1 792 0 is_stmt 0 discriminator 1
 1541 002c 0521     		movs	r1, #5
 1542 002e 2046     		mov	r0, r4
 1543 0030 9847     		blx	r3
 1544              	.LVL122:
 1545              	.L156:
 1546              		.loc 1 793 0 is_stmt 1
 1547 0032 0623     		movs	r3, #6
 1548 0034 84F83430 		strb	r3, [r4, #52]
 1549              	.L144:
 1550 0038 10BD     		pop	{r4, pc}
 1551              	.LVL123:
 1552              	.L150:
 1553              		.loc 1 775 0
 1554 003a 036C     		ldr	r3, [r0, #64]
 1555 003c 03B1     		cbz	r3, .L155
 1556              		.loc 1 776 0
 1557 003e 9847     		blx	r3
 1558              	.LVL124:
 1559              	.L155:
 1560              		.loc 1 778 0
 1561 0040 0023     		movs	r3, #0
 1562 0042 84F83430 		strb	r3, [r4, #52]
 1563              		.loc 1 779 0
 1564 0046 10BD     		pop	{r4, pc}
 1565              	.LVL125:
 1566              	.L149:
 1567 0048 C368     		ldr	r3, [r0, #12]
 1568              	.LVL126:
 1569              	.L152:
 1570              	.LBB369:
 1571              	.LBB370:
 1572              		.loc 1 401 0
 1573 004a 9A69     		ldr	r2, [r3, #24]
 1574              	.LBE370:
 1575              	.LBE369:
 1576              		.loc 1 763 0
 1577 004c 0321     		movs	r1, #3
 1578              	.LBB373:
 1579              	.LBB371:
 1580              		.loc 1 403 0
 1581 004e 0023     		movs	r3, #0
 1582              	.LBE371:
 1583              	.LBE373:
 1584              		.loc 1 763 0
 1585 0050 84F83410 		strb	r1, [r4, #52]
 1586              	.LVL127:
 1587              	.LBB374:
 1588              	.LBB372:
 1589              		.loc 1 408 0
 1590 0054 2046     		mov	r0, r4
 1591 0056 1946     		mov	r1, r3
 1592              		.loc 1 403 0
 1593 0058 1370     		strb	r3, [r2]
 1594              		.loc 1 404 0
 1595 005a D360     		str	r3, [r2, #12]
 1596              		.loc 1 405 0
ARM GAS  /tmp/ccvnHshQ.s 			page 29


 1597 005c 5360     		str	r3, [r2, #4]
 1598              		.loc 1 406 0
 1599 005e 9360     		str	r3, [r2, #8]
 1600              		.loc 1 408 0
 1601 0060 FFF7FEFF 		bl	usb_lld_prepare_receive
 1602              	.LVL128:
 1603              	.LBE372:
 1604              	.LBE374:
 1605              	.LBB375:
 1606              	.LBB376:
 1607              	.LBB377:
 1608              	.LBB378:
 1609              	.LBB379:
 1610              	.LBB380:
 1611              		.loc 2 546 0
 1612 0064 2023     		movs	r3, #32
 1613              		.syntax unified
 1614              	@ 546 "/home/selim/working/ChibiOS/os/ext/CMSIS/include/core_cmFunc.h" 1
 1615 0066 83F31188 		MSR basepri, r3
 1616              	@ 0 "" 2
 1617              	.LVL129:
 1618              		.thumb
 1619              		.syntax unified
 1620              	.LBE380:
 1621              	.LBE379:
 1622              	.LBE378:
 1623              	.LBE377:
 1624              	.LBE376:
 1625              	.LBE375:
 1626              	.LBB381:
 1627              	.LBB382:
 1628              		.loc 1 511 0
 1629 006a 6389     		ldrh	r3, [r4, #10]
 1630 006c 13F00101 		ands	r1, r3, #1
 1631 0070 05D1     		bne	.L154
 1632              		.loc 1 515 0
 1633 0072 43F00103 		orr	r3, r3, #1
 1634 0076 6381     		strh	r3, [r4, #10]	@ movhi
 1635              		.loc 1 516 0
 1636 0078 2046     		mov	r0, r4
 1637 007a FFF7FEFF 		bl	usb_lld_start_out
 1638              	.LVL130:
 1639              	.L154:
 1640              	.LBE382:
 1641              	.LBE381:
 1642              	.LBB383:
 1643              	.LBB384:
 1644              	.LBB385:
 1645              	.LBB386:
 1646              	.LBB387:
 1647              	.LBB388:
 1648              		.loc 2 546 0
 1649 007e 0023     		movs	r3, #0
 1650              		.syntax unified
 1651              	@ 546 "/home/selim/working/ChibiOS/os/ext/CMSIS/include/core_cmFunc.h" 1
 1652 0080 83F31188 		MSR basepri, r3
 1653              	@ 0 "" 2
ARM GAS  /tmp/ccvnHshQ.s 			page 30


 1654              	.LVL131:
 1655              		.thumb
 1656              		.syntax unified
 1657 0084 10BD     		pop	{r4, pc}
 1658              	.LVL132:
 1659              	.L148:
 1660              	.LBE388:
 1661              	.LBE387:
 1662              	.LBE386:
 1663              	.LBE385:
 1664              	.LBE384:
 1665              	.LBE383:
 1666              	.LBB389:
 1667              	.LBB390:
 1668              		.loc 1 55 0
 1669 0086 90F84B10 		ldrb	r1, [r0, #75]	@ zero_extendqisi2
 1670              	.LVL133:
 1671 008a 90F84A30 		ldrb	r3, [r0, #74]	@ zero_extendqisi2
 1672              	.LBE390:
 1673              	.LBE389:
 1674              		.loc 1 751 0
 1675 008e C26B     		ldr	r2, [r0, #60]
 1676              		.loc 1 747 0
 1677 0090 43EA0123 		orr	r3, r3, r1, lsl #8
 1678              		.loc 1 751 0
 1679 0094 9342     		cmp	r3, r2
 1680              		.loc 1 752 0
 1681 0096 C368     		ldr	r3, [r0, #12]
 1682              		.loc 1 751 0
 1683 0098 D7D9     		bls	.L152
 1684              		.loc 1 752 0 discriminator 1
 1685 009a 188A     		ldrh	r0, [r3, #16]
 1686              	.LVL134:
 1687 009c B2FBF0F1 		udiv	r1, r2, r0
 1688              	.LVL135:
 1689 00a0 00FB1122 		mls	r2, r0, r1, r2
 1690              		.loc 1 751 0 discriminator 1
 1691 00a4 002A     		cmp	r2, #0
 1692 00a6 D0D1     		bne	.L152
 1693              	.LVL136:
 1694              	.LBB391:
 1695              	.LBB392:
 1696              		.loc 1 427 0
 1697 00a8 5B69     		ldr	r3, [r3, #20]
 1698              	.LVL137:
 1699              		.loc 1 434 0
 1700 00aa 1146     		mov	r1, r2
 1701              		.loc 1 429 0
 1702 00ac 1A70     		strb	r2, [r3]
 1703              	.LVL138:
 1704              		.loc 1 430 0
 1705 00ae DA60     		str	r2, [r3, #12]
 1706              		.loc 1 431 0
 1707 00b0 5A60     		str	r2, [r3, #4]
 1708              		.loc 1 432 0
 1709 00b2 9A60     		str	r2, [r3, #8]
 1710              		.loc 1 434 0
ARM GAS  /tmp/ccvnHshQ.s 			page 31


 1711 00b4 2046     		mov	r0, r4
 1712 00b6 FFF7FEFF 		bl	usb_lld_prepare_transmit
 1713              	.LVL139:
 1714              	.LBE392:
 1715              	.LBE391:
 1716              	.LBB393:
 1717              	.LBB394:
 1718              	.LBB395:
 1719              	.LBB396:
 1720              	.LBB397:
 1721              	.LBB398:
 1722              		.loc 2 546 0
 1723 00ba 2023     		movs	r3, #32
 1724              		.syntax unified
 1725              	@ 546 "/home/selim/working/ChibiOS/os/ext/CMSIS/include/core_cmFunc.h" 1
 1726 00bc 83F31188 		MSR basepri, r3
 1727              	@ 0 "" 2
 1728              	.LVL140:
 1729              		.thumb
 1730              		.syntax unified
 1731              	.LBE398:
 1732              	.LBE397:
 1733              	.LBE396:
 1734              	.LBE395:
 1735              	.LBE394:
 1736              	.LBE393:
 1737              	.LBB399:
 1738              	.LBB400:
 1739              		.loc 1 539 0
 1740 00c0 2389     		ldrh	r3, [r4, #8]
 1741 00c2 13F00101 		ands	r1, r3, #1
 1742 00c6 05D1     		bne	.L153
 1743              		.loc 1 543 0
 1744 00c8 43F00103 		orr	r3, r3, #1
 1745 00cc 2381     		strh	r3, [r4, #8]	@ movhi
 1746              		.loc 1 544 0
 1747 00ce 2046     		mov	r0, r4
 1748 00d0 FFF7FEFF 		bl	usb_lld_start_in
 1749              	.LVL141:
 1750              	.L153:
 1751              	.LBE400:
 1752              	.LBE399:
 1753              	.LBB401:
 1754              	.LBB402:
 1755              	.LBB403:
 1756              	.LBB404:
 1757              	.LBB405:
 1758              	.LBB406:
 1759              		.loc 2 546 0
 1760 00d4 0023     		movs	r3, #0
 1761              		.syntax unified
 1762              	@ 546 "/home/selim/working/ChibiOS/os/ext/CMSIS/include/core_cmFunc.h" 1
 1763 00d6 83F31188 		MSR basepri, r3
 1764              	@ 0 "" 2
 1765              	.LVL142:
 1766              		.thumb
 1767              		.syntax unified
ARM GAS  /tmp/ccvnHshQ.s 			page 32


 1768              	.LBE406:
 1769              	.LBE405:
 1770              	.LBE404:
 1771              	.LBE403:
 1772              	.LBE402:
 1773              	.LBE401:
 1774              		.loc 1 757 0
 1775 00da 0223     		movs	r3, #2
 1776 00dc 84F83430 		strb	r3, [r4, #52]
 1777              		.loc 1 758 0
 1778 00e0 10BD     		pop	{r4, pc}
 1779              		.cfi_endproc
 1780              	.LFE277:
 1781              		.size	_usb_ep0in, .-_usb_ep0in
 1782 00e2 00BF     		.section	.text._usb_ep0out,"ax",%progbits
 1783              		.align	1
 1784              		.p2align 4,,15
 1785              		.global	_usb_ep0out
 1786              		.syntax unified
 1787              		.thumb
 1788              		.thumb_func
 1789              		.fpu softvfp
 1790              		.type	_usb_ep0out, %function
 1791              	_usb_ep0out:
 1792              	.LFB278:
 1793              		.loc 1 810 0
 1794              		.cfi_startproc
 1795              		@ args = 0, pretend = 0, frame = 0
 1796              		@ frame_needed = 0, uses_anonymous_args = 0
 1797              	.LVL143:
 1798              		.loc 1 813 0
 1799 0000 90F83420 		ldrb	r2, [r0, #52]	@ zero_extendqisi2
 1800 0004 062A     		cmp	r2, #6
 1801 0006 0CD8     		bhi	.L181
 1802 0008 0123     		movs	r3, #1
 1803 000a 9340     		lsls	r3, r3, r2
 1804 000c 13F0670F 		tst	r3, #103
 1805              		.loc 1 810 0
 1806 0010 10B5     		push	{r4, lr}
 1807              		.cfi_def_cfa_offset 8
 1808              		.cfi_offset 4, -8
 1809              		.cfi_offset 14, -4
 1810 0012 0446     		mov	r4, r0
 1811 0014 12D1     		bne	.L166
 1812 0016 13F00802 		ands	r2, r3, #8
 1813 001a 03D1     		bne	.L167
 1814 001c DB06     		lsls	r3, r3, #27
 1815 001e 1ED4     		bmi	.L184
 1816              	.L164:
 1817 0020 10BD     		pop	{r4, pc}
 1818              	.L181:
 1819              		.cfi_def_cfa_offset 0
 1820              		.cfi_restore 4
 1821              		.cfi_restore 14
 1822 0022 7047     		bx	lr
 1823              	.L167:
 1824              		.cfi_def_cfa_offset 8
ARM GAS  /tmp/ccvnHshQ.s 			page 33


 1825              		.cfi_offset 4, -8
 1826              		.cfi_offset 14, -4
 1827              		.loc 1 830 0
 1828 0024 C368     		ldr	r3, [r0, #12]
 1829 0026 9B69     		ldr	r3, [r3, #24]
 1830 0028 9B68     		ldr	r3, [r3, #8]
 1831 002a 002B     		cmp	r3, #0
 1832 002c F8D1     		bne	.L164
 1833              		.loc 1 834 0
 1834 002e 036C     		ldr	r3, [r0, #64]
 1835 0030 03B1     		cbz	r3, .L169
 1836              		.loc 1 835 0
 1837 0032 9847     		blx	r3
 1838              	.LVL144:
 1839              	.L169:
 1840              		.loc 1 837 0
 1841 0034 0023     		movs	r3, #0
 1842 0036 84F83430 		strb	r3, [r4, #52]
 1843              		.loc 1 838 0
 1844 003a 10BD     		pop	{r4, pc}
 1845              	.LVL145:
 1846              	.L166:
 1847              		.loc 1 850 0
 1848 003c 0021     		movs	r1, #0
 1849              	.LVL146:
 1850 003e FFF7FEFF 		bl	usb_lld_stall_in
 1851              	.LVL147:
 1852              		.loc 1 851 0
 1853 0042 0021     		movs	r1, #0
 1854 0044 2046     		mov	r0, r4
 1855 0046 FFF7FEFF 		bl	usb_lld_stall_out
 1856              	.LVL148:
 1857              		.loc 1 852 0
 1858 004a 6368     		ldr	r3, [r4, #4]
 1859 004c 1B68     		ldr	r3, [r3]
 1860 004e 13B1     		cbz	r3, .L170
 1861              		.loc 1 852 0 is_stmt 0 discriminator 1
 1862 0050 0521     		movs	r1, #5
 1863 0052 2046     		mov	r0, r4
 1864 0054 9847     		blx	r3
 1865              	.LVL149:
 1866              	.L170:
 1867              		.loc 1 853 0 is_stmt 1
 1868 0056 0623     		movs	r3, #6
 1869 0058 84F83430 		strb	r3, [r4, #52]
 1870 005c 10BD     		pop	{r4, pc}
 1871              	.LVL150:
 1872              	.L184:
 1873              	.LBB407:
 1874              	.LBB408:
 1875              		.loc 1 427 0
 1876 005e C368     		ldr	r3, [r0, #12]
 1877 0060 5B69     		ldr	r3, [r3, #20]
 1878              	.LBE408:
 1879              	.LBE407:
 1880              		.loc 1 816 0
 1881 0062 0521     		movs	r1, #5
ARM GAS  /tmp/ccvnHshQ.s 			page 34


 1882              	.LVL151:
 1883 0064 80F83410 		strb	r1, [r0, #52]
 1884              	.LVL152:
 1885              	.LBB410:
 1886              	.LBB409:
 1887              		.loc 1 429 0
 1888 0068 1A70     		strb	r2, [r3]
 1889              		.loc 1 430 0
 1890 006a DA60     		str	r2, [r3, #12]
 1891              		.loc 1 431 0
 1892 006c 5A60     		str	r2, [r3, #4]
 1893              		.loc 1 432 0
 1894 006e 9A60     		str	r2, [r3, #8]
 1895              		.loc 1 434 0
 1896 0070 1146     		mov	r1, r2
 1897 0072 FFF7FEFF 		bl	usb_lld_prepare_transmit
 1898              	.LVL153:
 1899              	.LBE409:
 1900              	.LBE410:
 1901              	.LBB411:
 1902              	.LBB412:
 1903              	.LBB413:
 1904              	.LBB414:
 1905              	.LBB415:
 1906              	.LBB416:
 1907              		.loc 2 546 0
 1908 0076 2023     		movs	r3, #32
 1909              		.syntax unified
 1910              	@ 546 "/home/selim/working/ChibiOS/os/ext/CMSIS/include/core_cmFunc.h" 1
 1911 0078 83F31188 		MSR basepri, r3
 1912              	@ 0 "" 2
 1913              	.LVL154:
 1914              		.thumb
 1915              		.syntax unified
 1916              	.LBE416:
 1917              	.LBE415:
 1918              	.LBE414:
 1919              	.LBE413:
 1920              	.LBE412:
 1921              	.LBE411:
 1922              	.LBB417:
 1923              	.LBB418:
 1924              		.loc 1 539 0
 1925 007c 2389     		ldrh	r3, [r4, #8]
 1926 007e 13F00101 		ands	r1, r3, #1
 1927 0082 03D0     		beq	.L185
 1928              	.L168:
 1929              	.LVL155:
 1930              	.LBE418:
 1931              	.LBE417:
 1932              	.LBB420:
 1933              	.LBB421:
 1934              	.LBB422:
 1935              	.LBB423:
 1936              	.LBB424:
 1937              	.LBB425:
 1938              		.loc 2 546 0
ARM GAS  /tmp/ccvnHshQ.s 			page 35


 1939 0084 0023     		movs	r3, #0
 1940              		.syntax unified
 1941              	@ 546 "/home/selim/working/ChibiOS/os/ext/CMSIS/include/core_cmFunc.h" 1
 1942 0086 83F31188 		MSR basepri, r3
 1943              	@ 0 "" 2
 1944              	.LVL156:
 1945              		.thumb
 1946              		.syntax unified
 1947 008a 10BD     		pop	{r4, pc}
 1948              	.LVL157:
 1949              	.L185:
 1950              	.LBE425:
 1951              	.LBE424:
 1952              	.LBE423:
 1953              	.LBE422:
 1954              	.LBE421:
 1955              	.LBE420:
 1956              	.LBB426:
 1957              	.LBB419:
 1958              		.loc 1 543 0
 1959 008c 43F00103 		orr	r3, r3, #1
 1960 0090 2381     		strh	r3, [r4, #8]	@ movhi
 1961              		.loc 1 544 0
 1962 0092 2046     		mov	r0, r4
 1963 0094 FFF7FEFF 		bl	usb_lld_start_in
 1964              	.LVL158:
 1965 0098 F4E7     		b	.L168
 1966              	.LBE419:
 1967              	.LBE426:
 1968              		.cfi_endproc
 1969              	.LFE278:
 1970              		.size	_usb_ep0out, .-_usb_ep0out
 1971 009a 00BF     		.section	.rodata.active_status,"a",%progbits
 1972              		.align	2
 1973              		.set	.LANCHOR2,. + 0
 1974              		.type	active_status, %object
 1975              		.size	active_status, 2
 1976              	active_status:
 1977 0000 0000     		.space	2
 1978              		.section	.rodata.halted_status,"a",%progbits
 1979              		.align	2
 1980              		.set	.LANCHOR1,. + 0
 1981              		.type	halted_status, %object
 1982              		.size	halted_status, 2
 1983              	halted_status:
 1984 0000 01       		.byte	1
 1985 0001 00       		.byte	0
 1986              		.section	.rodata.zero_status,"a",%progbits
 1987              		.align	2
 1988              		.set	.LANCHOR0,. + 0
 1989              		.type	zero_status, %object
 1990              		.size	zero_status, 2
 1991              	zero_status:
 1992 0000 0000     		.space	2
 1993              		.text
 1994              	.Letext0:
 1995              		.file 3 "/usr/lib/gcc/arm-none-eabi/6.2.1/include/stddef.h"
ARM GAS  /tmp/ccvnHshQ.s 			page 36


 1996              		.file 4 "/usr/arm-none-eabi/include/machine/_default_types.h"
 1997              		.file 5 "/usr/arm-none-eabi/include/sys/lock.h"
 1998              		.file 6 "/usr/arm-none-eabi/include/sys/_types.h"
 1999              		.file 7 "/usr/arm-none-eabi/include/sys/reent.h"
 2000              		.file 8 "/usr/arm-none-eabi/include/sys/_stdint.h"
 2001              		.file 9 "/home/selim/working/ChibiOS/os/rt/ports/ARMCMx/compilers/GCC/chtypes.h"
 2002              		.file 10 "/home/selim/working/ChibiOS/os/rt/include/chsystypes.h"
 2003              		.file 11 "/home/selim/working/ChibiOS/os/rt/include/chschd.h"
 2004              		.file 12 "/home/selim/working/ChibiOS/os/ext/CMSIS/include/core_cm4.h"
 2005              		.file 13 "/home/selim/working/ChibiOS/os/ext/CMSIS/ST/system_stm32f4xx.h"
 2006              		.file 14 "/home/selim/working/ChibiOS/os/ext/CMSIS/ST/stm32f407xx.h"
 2007              		.file 15 "/home/selim/working/ChibiOS/os/rt/ports/ARMCMx/chcore.h"
 2008              		.file 16 "/home/selim/working/ChibiOS/os/rt/ports/ARMCMx/chcore_v7m.h"
 2009              		.file 17 "/home/selim/working/ChibiOS/os/hal/ports/STM32/LLD/TIMv1/stm32_tim.h"
 2010              		.file 18 "/home/selim/working/ChibiOS/os/rt/include/chtm.h"
 2011              		.file 19 "/home/selim/working/ChibiOS/os/rt/include/chsem.h"
 2012              		.file 20 "/home/selim/working/ChibiOS/os/rt/include/chmtx.h"
 2013              		.file 21 "/home/selim/working/ChibiOS/os/rt/include/chregistry.h"
 2014              		.file 22 "/home/selim/working/ChibiOS/os/rt/include/chevents.h"
 2015              		.file 23 "/home/selim/working/ChibiOS/os/rt/include/chqueues.h"
 2016              		.file 24 "/home/selim/working/ChibiOS/os/hal/ports/STM32/STM32F4xx/stm32_dma.h"
 2017              		.file 25 "/home/selim/working/ChibiOS/os/hal/ports/STM32/LLD/GPIOv2/pal_lld.h"
 2018              		.file 26 "/home/selim/working/ChibiOS/os/hal/include/adc.h"
 2019              		.file 27 "/home/selim/working/ChibiOS/os/hal/ports/STM32/STM32F4xx/adc_lld.h"
 2020              		.file 28 "/home/selim/working/ChibiOS/os/hal/include/gpt.h"
 2021              		.file 29 "/home/selim/working/ChibiOS/os/hal/ports/STM32/LLD/TIMv1/gpt_lld.h"
 2022              		.file 30 "/home/selim/working/ChibiOS/os/hal/include/pwm.h"
 2023              		.file 31 "/home/selim/working/ChibiOS/os/hal/ports/STM32/LLD/TIMv1/pwm_lld.h"
 2024              		.file 32 "/home/selim/working/ChibiOS/os/hal/include/serial.h"
 2025              		.file 33 "/home/selim/working/ChibiOS/os/hal/ports/STM32/LLD/USARTv1/serial_lld.h"
 2026              		.file 34 "/home/selim/working/ChibiOS/os/hal/include/spi.h"
 2027              		.file 35 "/home/selim/working/ChibiOS/os/hal/ports/STM32/LLD/SPIv1/spi_lld.h"
 2028              		.file 36 "/home/selim/working/ChibiOS/os/hal/include/usb.h"
 2029              		.file 37 "/home/selim/working/ChibiOS/os/hal/ports/STM32/LLD/OTGv1/usb_lld.h"
 2030              		.file 38 "/home/selim/working/ChibiOS/os/hal/ports/STM32/LLD/OTGv1/stm32_otg.h"
 2031              		.file 39 "/home/selim/working/ChibiOS/os/hal/osal/rt/osal.h"
 2032              		.file 40 "/home/selim/working/ChibiOS/os/rt/include/chsys.h"