ARM GAS  /tmp/ccigORce.s 			page 1


   1              		.cpu cortex-m4
   2              		.eabi_attribute 20, 1
   3              		.eabi_attribute 21, 1
   4              		.eabi_attribute 23, 3
   5              		.eabi_attribute 24, 1
   6              		.eabi_attribute 25, 1
   7              		.eabi_attribute 26, 1
   8              		.eabi_attribute 30, 2
   9              		.eabi_attribute 34, 1
  10              		.eabi_attribute 18, 4
  11              		.file	"usb_lld.c"
  12              		.text
  13              	.Ltext0:
  14              		.cfi_sections	.debug_frame
  15              		.section	.text.usb_lld_pump,"ax",%progbits
  16              		.align	1
  17              		.p2align 4,,15
  18              		.global	usb_lld_pump
  19              		.syntax unified
  20              		.thumb
  21              		.thumb_func
  22              		.fpu softvfp
  23              		.type	usb_lld_pump, %function
  24              	usb_lld_pump:
  25              	.LFB294:
  26              		.file 1 "/home/selim/working/ChibiOS/os/hal/ports/STM32/LLD/OTGv1/usb_lld.c"
  27              		.loc 1 1294 0
  28              		.cfi_startproc
  29              		@ args = 0, pretend = 0, frame = 24
  30              		@ frame_needed = 0, uses_anonymous_args = 0
  31              	.LVL0:
  32 0000 2DE9F04F 		push	{r4, r5, r6, r7, r8, r9, r10, fp, lr}
  33              		.cfi_def_cfa_offset 36
  34              		.cfi_offset 4, -36
  35              		.cfi_offset 5, -32
  36              		.cfi_offset 6, -28
  37              		.cfi_offset 7, -24
  38              		.cfi_offset 8, -20
  39              		.cfi_offset 9, -16
  40              		.cfi_offset 10, -12
  41              		.cfi_offset 11, -8
  42              		.cfi_offset 14, -4
  43              		.loc 1 1299 0
  44 0004 A84B     		ldr	r3, .L108
  45 0006 A949     		ldr	r1, .L108+4
  46 0008 9A69     		ldr	r2, [r3, #24]
  47              	.LVL1:
  48              		.loc 1 1296 0
  49 000a 076D     		ldr	r7, [r0, #80]
  50              	.LVL2:
  51              		.loc 1 1299 0
  52 000c 9161     		str	r1, [r2, #24]
  53              	.LVL3:
  54              		.loc 1 1294 0
  55 000e 87B0     		sub	sp, sp, #28
  56              		.cfi_def_cfa_offset 64
  57              	.LBB418:
ARM GAS  /tmp/ccigORce.s 			page 2


  58              	.LBB419:
  59              	.LBB420:
  60              	.LBB421:
  61              	.LBB422:
  62              		.file 2 "/home/selim/working/ChibiOS/os/ext/CMSIS/include/core_cmFunc.h"
  63              		.loc 2 546 0
  64 0010 2023     		movs	r3, #32
  65              		.syntax unified
  66              	@ 546 "/home/selim/working/ChibiOS/os/ext/CMSIS/include/core_cmFunc.h" 1
  67 0012 83F31188 		MSR basepri, r3
  68              	@ 0 "" 2
  69              	.LVL4:
  70              		.thumb
  71              		.syntax unified
  72 0016 00F16003 		add	r3, r0, #96
  73 001a 0593     		str	r3, [sp, #20]
  74 001c 8146     		mov	r9, r0
  75 001e BA46     		mov	r10, r7
  76              	.LVL5:
  77              	.L60:
  78              	.LBE422:
  79              	.LBE421:
  80              	.LBE420:
  81              	.LBE419:
  82              	.LBE418:
  83              	.LBB423:
  84              		.loc 1 1307 0
  85 0020 99F80030 		ldrb	r3, [r9]	@ zero_extendqisi2
  86 0024 012B     		cmp	r3, #1
  87 0026 06D0     		beq	.L2
  88              		.loc 1 1307 0 is_stmt 0 discriminator 1
  89 0028 D9F85C30 		ldr	r3, [r9, #92]
  90 002c 63B9     		cbnz	r3, .L3
  91              		.loc 1 1308 0 is_stmt 1
  92 002e DAF81430 		ldr	r3, [r10, #20]
  93 0032 DB06     		lsls	r3, r3, #27
  94 0034 08D4     		bmi	.L3
  95              	.L2:
  96              		.loc 1 1309 0
  97 0036 DAF81830 		ldr	r3, [r10, #24]
  98              	.LBB424:
  99              	.LBB425:
 100              		.file 3 "/home/selim/working/ChibiOS/os/hal/osal/rt/osal.h"
 101              		.loc 3 642 0
 102 003a 0598     		ldr	r0, [sp, #20]
 103              	.LBE425:
 104              	.LBE424:
 105              		.loc 1 1309 0
 106 003c 43F01003 		orr	r3, r3, #16
 107 0040 CAF81830 		str	r3, [r10, #24]
 108              	.LBB427:
 109              	.LBB426:
 110              		.loc 3 642 0
 111 0044 FFF7FEFF 		bl	chThdSuspendS
 112              	.LVL6:
 113              	.L3:
 114              	.LBE426:
ARM GAS  /tmp/ccigORce.s 			page 3


 115              	.LBE427:
 116              	.LBB428:
 117              	.LBB429:
 118              	.LBB430:
 119              	.LBB431:
 120              	.LBB432:
 121              	.LBB433:
 122              		.loc 2 546 0
 123 0048 0026     		movs	r6, #0
 124              		.syntax unified
 125              	@ 546 "/home/selim/working/ChibiOS/os/ext/CMSIS/include/core_cmFunc.h" 1
 126 004a 86F31188 		MSR basepri, r6
 127              	@ 0 "" 2
 128              	.LVL7:
 129              		.thumb
 130              		.syntax unified
 131 004e B346     		mov	fp, r6
 132              	.LVL8:
 133              	.L5:
 134              	.LBE433:
 135              	.LBE432:
 136              	.LBE431:
 137              	.LBE430:
 138              	.LBE429:
 139              	.LBE428:
 140              		.loc 1 1318 0
 141 0050 DAF81430 		ldr	r3, [r10, #20]
 142 0054 13F01003 		ands	r3, r3, #16
 143 0058 35D0     		beq	.L98
 144              	.L30:
 145              	.LVL9:
 146              	.LBB434:
 147              	.LBB435:
 148              		.loc 1 437 0
 149 005a D9F85010 		ldr	r1, [r9, #80]
 150 005e 0B6A     		ldr	r3, [r1, #32]
 151              	.LVL10:
 152              		.loc 1 438 0
 153 0060 03F4F012 		and	r2, r3, #1966080
 154 0064 B2F5802F 		cmp	r2, #262144
 155 0068 43D0     		beq	.L6
 156 006a B2F5402F 		cmp	r2, #786432
 157 006e EFD1     		bne	.L5
 158              	.LVL11:
 159              		.loc 1 443 0
 160 0070 03F00F02 		and	r2, r3, #15
 161              	.LVL12:
 162              		.loc 1 444 0
 163 0074 09EB8202 		add	r2, r9, r2, lsl #2
 164              	.LVL13:
 165              		.loc 1 442 0
 166 0078 C3F30A13 		ubfx	r3, r3, #4, #11
 167              	.LVL14:
 168              		.loc 1 444 0
 169 007c D268     		ldr	r2, [r2, #12]
 170              	.LBB436:
 171              	.LBB437:
ARM GAS  /tmp/ccigORce.s 			page 4


 172              		.loc 1 356 0
 173 007e 0333     		adds	r3, r3, #3
 174              		.loc 1 358 0
 175 0080 9B08     		lsrs	r3, r3, #2
 176              	.LBE437:
 177              	.LBE436:
 178              		.loc 1 444 0
 179 0082 126A     		ldr	r2, [r2, #32]
 180              	.LVL15:
 181              	.LBB445:
 182              	.LBB444:
 183              		.loc 1 358 0
 184 0084 E4D0     		beq	.L5
 185              	.LBB438:
 186              		.loc 1 359 0
 187 0086 01F58051 		add	r1, r1, #4096
 188              	.LVL16:
 189              	.LBE438:
 190              		.loc 1 358 0
 191 008a 5C1E     		subs	r4, r3, #1
 192              	.LBB439:
 193              		.loc 1 359 0
 194 008c 0868     		ldr	r0, [r1]
 195              	.LVL17:
 196              		.loc 1 363 0
 197 008e 42F8040B 		str	r0, [r2], #4
 198              	.LVL18:
 199              	.LBE439:
 200              		.loc 1 357 0
 201 0092 4FF00205 		mov	r5, #2
 202              	.LVL19:
 203              		.loc 1 358 0
 204 0096 DBD0     		beq	.L5
 205              	.LBB440:
 206              		.loc 1 360 0
 207 0098 012D     		cmp	r5, #1
 208              		.loc 1 359 0
 209 009a 0868     		ldr	r0, [r1]
 210              	.LVL20:
 211              		.loc 1 360 0
 212 009c 09D0     		beq	.L99
 213              	.LVL21:
 214              	.L61:
 215 009e 2346     		mov	r3, r4
 216              	.LBE440:
 217              		.loc 1 358 0
 218 00a0 5C1E     		subs	r4, r3, #1
 219              	.LVL22:
 220              	.LBB441:
 221              		.loc 1 365 0
 222 00a2 4FF00105 		mov	r5, #1
 223              	.LVL23:
 224              		.loc 1 363 0
 225 00a6 42F8040B 		str	r0, [r2], #4
 226              	.LVL24:
 227              	.LBE441:
 228              		.loc 1 358 0
ARM GAS  /tmp/ccigORce.s 			page 5


 229 00aa D1D0     		beq	.L5
 230              	.LBB442:
 231              		.loc 1 360 0
 232 00ac 012D     		cmp	r5, #1
 233              		.loc 1 359 0
 234 00ae 0868     		ldr	r0, [r1]
 235              	.LVL25:
 236              		.loc 1 360 0
 237 00b0 F5D1     		bne	.L61
 238              	.LVL26:
 239              	.L99:
 240              	.LBE442:
 241              		.loc 1 358 0
 242 00b2 023B     		subs	r3, r3, #2
 243              	.LVL27:
 244 00b4 CCD0     		beq	.L5
 245              	.LVL28:
 246              	.L12:
 247 00b6 013B     		subs	r3, r3, #1
 248              	.LVL29:
 249              	.LBB443:
 250              		.loc 1 359 0
 251 00b8 0A68     		ldr	r2, [r1]
 252              	.LVL30:
 253              	.LBE443:
 254              		.loc 1 358 0
 255 00ba FCD1     		bne	.L12
 256              	.LBE444:
 257              	.LBE445:
 258              	.LBE435:
 259              	.LBE434:
 260              		.loc 1 1318 0
 261 00bc DAF81430 		ldr	r3, [r10, #20]
 262 00c0 13F01003 		ands	r3, r3, #16
 263 00c4 C9D1     		bne	.L30
 264              	.LVL31:
 265              	.L98:
 266              		.loc 1 1323 0
 267 00c6 D9F85C20 		ldr	r2, [r9, #92]
 268              		.loc 1 1322 0
 269 00ca 0121     		movs	r1, #1
 270 00cc 01FA0BF1 		lsl	r1, r1, fp
 271              		.loc 1 1323 0
 272 00d0 1142     		tst	r1, r2
 273              		.loc 1 1322 0
 274 00d2 0391     		str	r1, [sp, #12]
 275              	.LVL32:
 276              		.loc 1 1323 0
 277 00d4 74D1     		bne	.L92
 278 00d6 0BF10103 		add	r3, fp, #1
 279 00da 0293     		str	r3, [sp, #8]
 280              	.LVL33:
 281              	.L31:
 282              		.loc 1 1315 0 discriminator 2
 283 00dc D9F85430 		ldr	r3, [r9, #84]
 284 00e0 9DF808B0 		ldrb	fp, [sp, #8]	@ zero_extendqisi2
 285              	.LVL34:
ARM GAS  /tmp/ccigORce.s 			page 6


 286 00e4 9B68     		ldr	r3, [r3, #8]
 287 00e6 9B45     		cmp	fp, r3
 288 00e8 B2D9     		bls	.L5
 289              	.LVL35:
 290              	.LBB472:
 291              	.LBB473:
 292              	.LBB474:
 293              	.LBB475:
 294              	.LBB476:
 295              		.loc 2 546 0
 296 00ea 2023     		movs	r3, #32
 297              		.syntax unified
 298              	@ 546 "/home/selim/working/ChibiOS/os/ext/CMSIS/include/core_cmFunc.h" 1
 299 00ec 83F31188 		MSR basepri, r3
 300              	@ 0 "" 2
 301              	.LVL36:
 302              		.thumb
 303              		.syntax unified
 304 00f0 96E7     		b	.L60
 305              	.LVL37:
 306              	.L6:
 307              	.LBE476:
 308              	.LBE475:
 309              	.LBE474:
 310              	.LBE473:
 311              	.LBE472:
 312              	.LBB477:
 313              	.LBB471:
 314              		.loc 1 449 0
 315 00f2 03F00F05 		and	r5, r3, #15
 316 00f6 09EB8505 		add	r5, r9, r5, lsl #2
 317              		.loc 1 448 0
 318 00fa C3F30A14 		ubfx	r4, r3, #4, #11
 319              	.LVL38:
 320              		.loc 1 450 0
 321 00fe EB68     		ldr	r3, [r5, #12]
 322              	.LVL39:
 323 0100 9869     		ldr	r0, [r3, #24]
 324 0102 0378     		ldrb	r3, [r0]	@ zero_extendqisi2
 325 0104 1BBB     		cbnz	r3, .L100
 326              		.loc 1 457 0
 327 0106 021D     		adds	r2, r0, #4
 328 0108 2CCA     		ldm	r2, {r2, r3, r5}
 329              	.LVL40:
 330              	.LBB446:
 331              	.LBB447:
 332              		.loc 1 357 0
 333 010a D61C     		adds	r6, r2, #3
 334              		.loc 1 356 0
 335 010c E21C     		adds	r2, r4, #3
 336              	.LVL41:
 337              		.loc 1 357 0
 338 010e F61A     		subs	r6, r6, r3
 339              		.loc 1 358 0
 340 0110 9208     		lsrs	r2, r2, #2
 341              		.loc 1 357 0
 342 0112 4FEA9606 		lsr	r6, r6, #2
ARM GAS  /tmp/ccigORce.s 			page 7


 343              	.LVL42:
 344              		.loc 1 358 0
 345 0116 15D0     		beq	.L27
 346              	.LBB448:
 347              		.loc 1 359 0
 348 0118 01F58051 		add	r1, r1, #4096
 349 011c D1F800E0 		ldr	lr, [r1]
 350              	.LVL43:
 351              		.loc 1 360 0
 352 0120 5EB1     		cbz	r6, .L25
 353 0122 961B     		subs	r6, r2, r6
 354              	.LVL44:
 355 0124 B446     		mov	ip, r6
 356 0126 2F46     		mov	r7, r5
 357 0128 7646     		mov	r6, lr
 358 012a E646     		mov	lr, ip
 359              	.LVL45:
 360              	.L26:
 361              	.LBE448:
 362              		.loc 1 358 0
 363 012c 013A     		subs	r2, r2, #1
 364              	.LVL46:
 365              	.LBB449:
 366              		.loc 1 363 0
 367 012e 47F8046B 		str	r6, [r7], #4
 368              	.LVL47:
 369              	.LBE449:
 370              		.loc 1 358 0
 371 0132 07D0     		beq	.L27
 372              	.LBB450:
 373              		.loc 1 360 0
 374 0134 7245     		cmp	r2, lr
 375              		.loc 1 359 0
 376 0136 0E68     		ldr	r6, [r1]
 377              	.LVL48:
 378              		.loc 1 360 0
 379 0138 F8D1     		bne	.L26
 380              	.LVL49:
 381              	.L25:
 382              	.LBE450:
 383              		.loc 1 358 0
 384 013a 013A     		subs	r2, r2, #1
 385              	.LVL50:
 386 013c 02D0     		beq	.L27
 387              	.LVL51:
 388              	.L28:
 389 013e 013A     		subs	r2, r2, #1
 390              	.LVL52:
 391              	.LBB451:
 392              		.loc 1 359 0
 393 0140 0E68     		ldr	r6, [r1]
 394              	.LVL53:
 395              	.LBE451:
 396              		.loc 1 358 0
 397 0142 FCD1     		bne	.L28
 398              	.L27:
 399              	.LBE447:
ARM GAS  /tmp/ccigORce.s 			page 8


 400              	.LBE446:
 401              		.loc 1 462 0
 402 0144 2544     		add	r5, r5, r4
 403 0146 C560     		str	r5, [r0, #12]
 404              	.L22:
 405              		.loc 1 464 0
 406 0148 2344     		add	r3, r3, r4
 407 014a 8360     		str	r3, [r0, #8]
 408 014c 80E7     		b	.L5
 409              	.L100:
 410              		.loc 1 452 0
 411 014e C068     		ldr	r0, [r0, #12]
 412              	.LVL54:
 413              	.LBB452:
 414              	.LBB453:
 415              		.loc 1 386 0
 416 0150 24B3     		cbz	r4, .L15
 417 0152 4269     		ldr	r2, [r0, #20]
 418 0154 01F58051 		add	r1, r1, #4096
 419              	.LVL55:
 420 0158 2746     		mov	r7, r4
 421              	.LVL56:
 422              	.L16:
 423              	.LBB454:
 424              		.loc 1 390 0
 425 015a 032F     		cmp	r7, #3
 426 015c 06D9     		bls	.L17
 427              	.LVL57:
 428              	.L101:
 429              	.LBB455:
 430              		.loc 1 396 0
 431 015e 0369     		ldr	r3, [r0, #16]
 432 0160 9342     		cmp	r3, r2
 433 0162 03D8     		bhi	.L17
 434              		.loc 1 397 0
 435 0164 C268     		ldr	r2, [r0, #12]
 436 0166 4261     		str	r2, [r0, #20]
 437              	.LVL58:
 438              	.LBE455:
 439              		.loc 1 390 0
 440 0168 032F     		cmp	r7, #3
 441 016a F8D8     		bhi	.L101
 442              	.LVL59:
 443              	.L17:
 444              		.loc 1 408 0
 445 016c D1F800E0 		ldr	lr, [r1]
 446              	.LVL60:
 447 0170 0023     		movs	r3, #0
 448              	.LVL61:
 449              	.L21:
 450              		.loc 1 411 0
 451 0172 2EFA03F6 		lsr	r6, lr, r3
 452 0176 02F1010C 		add	ip, r2, #1
 453 017a C0F814C0 		str	ip, [r0, #20]
 454 017e 1670     		strb	r6, [r2]
 455              		.loc 1 412 0
 456 0180 0269     		ldr	r2, [r0, #16]
ARM GAS  /tmp/ccigORce.s 			page 9


 457 0182 4669     		ldr	r6, [r0, #20]
 458 0184 9642     		cmp	r6, r2
 459              		.loc 1 413 0
 460 0186 24BF     		itt	cs
 461 0188 C268     		ldrcs	r2, [r0, #12]
 462 018a 4261     		strcs	r2, [r0, #20]
 463              		.loc 1 410 0
 464 018c 013F     		subs	r7, r7, #1
 465              	.LVL62:
 466 018e 03F10803 		add	r3, r3, #8
 467 0192 03D0     		beq	.L15
 468 0194 202B     		cmp	r3, #32
 469 0196 4269     		ldr	r2, [r0, #20]
 470 0198 EBD1     		bne	.L21
 471 019a DEE7     		b	.L16
 472              	.LVL63:
 473              	.L15:
 474              	.LBE454:
 475              	.LBB456:
 476              	.LBB457:
 477              	.LBB458:
 478              	.LBB459:
 479              	.LBB460:
 480              		.loc 2 546 0
 481 019c 2023     		movs	r3, #32
 482              		.syntax unified
 483              	@ 546 "/home/selim/working/ChibiOS/os/ext/CMSIS/include/core_cmFunc.h" 1
 484 019e 83F31188 		MSR basepri, r3
 485              	@ 0 "" 2
 486              	.LVL64:
 487              		.thumb
 488              		.syntax unified
 489              	.LBE460:
 490              	.LBE459:
 491              	.LBE458:
 492              	.LBE457:
 493              	.LBE456:
 494              		.loc 1 421 0
 495 01a2 8368     		ldr	r3, [r0, #8]
 496 01a4 2344     		add	r3, r3, r4
 497 01a6 8360     		str	r3, [r0, #8]
 498              	.LVL65:
 499              	.LBB461:
 500              	.LBB462:
 501              		.loc 3 764 0
 502 01a8 0021     		movs	r1, #0
 503 01aa FFF7FEFF 		bl	chThdDequeueAllI
 504              	.LVL66:
 505              	.LBE462:
 506              	.LBE461:
 507              	.LBB463:
 508              	.LBB464:
 509              		.loc 3 554 0
 510 01ae FFF7FEFF 		bl	chSchRescheduleS
 511              	.LVL67:
 512              	.LBE464:
 513              	.LBE463:
ARM GAS  /tmp/ccigORce.s 			page 10


 514              	.LBB465:
 515              	.LBB466:
 516              	.LBB467:
 517              	.LBB468:
 518              	.LBB469:
 519              	.LBB470:
 520              		.loc 2 546 0
 521 01b2 0023     		movs	r3, #0
 522              		.syntax unified
 523              	@ 546 "/home/selim/working/ChibiOS/os/ext/CMSIS/include/core_cmFunc.h" 1
 524 01b4 83F31188 		MSR basepri, r3
 525              	@ 0 "" 2
 526              	.LVL68:
 527              		.thumb
 528              		.syntax unified
 529 01b8 EB68     		ldr	r3, [r5, #12]
 530 01ba 9869     		ldr	r0, [r3, #24]
 531 01bc 8368     		ldr	r3, [r0, #8]
 532 01be C3E7     		b	.L22
 533              	.LVL69:
 534              	.L92:
 535              	.LBE470:
 536              	.LBE469:
 537              	.LBE468:
 538              	.LBE467:
 539              	.LBE466:
 540              	.LBE465:
 541              	.LBE453:
 542              	.LBE452:
 543              	.LBE471:
 544              	.LBE477:
 545              	.LBB478:
 546              	.LBB479:
 547              	.LBB480:
 548              	.LBB481:
 549              	.LBB482:
 550              	.LBB483:
 551 01c0 2022     		movs	r2, #32
 552              		.syntax unified
 553              	@ 546 "/home/selim/working/ChibiOS/os/ext/CMSIS/include/core_cmFunc.h" 1
 554 01c2 82F31188 		MSR basepri, r2
 555              	@ 0 "" 2
 556              	.LVL70:
 557              		.thumb
 558              		.syntax unified
 559              	.LBE483:
 560              	.LBE482:
 561              	.LBE481:
 562              	.LBE480:
 563              	.LBE479:
 564              		.loc 1 1334 0
 565 01c6 DAF80810 		ldr	r1, [r10, #8]
 566              	.LVL71:
 567              		.loc 1 1335 0
 568 01ca D9F85C20 		ldr	r2, [r9, #92]
 569 01ce 0398     		ldr	r0, [sp, #12]
 570              		.loc 1 1334 0
ARM GAS  /tmp/ccigORce.s 			page 11


 571 01d0 21F00101 		bic	r1, r1, #1
 572              		.loc 1 1335 0
 573 01d4 22EA0002 		bic	r2, r2, r0
 574              		.loc 1 1334 0
 575 01d8 CAF80810 		str	r1, [r10, #8]
 576              		.loc 1 1335 0
 577 01dc C9F85C20 		str	r2, [r9, #92]
 578              	.LVL72:
 579              	.LBB484:
 580              	.LBB485:
 581              	.LBB486:
 582              	.LBB487:
 583              	.LBB488:
 584              	.LBB489:
 585              		.loc 2 546 0
 586              		.syntax unified
 587              	@ 546 "/home/selim/working/ChibiOS/os/ext/CMSIS/include/core_cmFunc.h" 1
 588 01e0 83F31188 		MSR basepri, r3
 589              	@ 0 "" 2
 590              	.LVL73:
 591              		.thumb
 592              		.syntax unified
 593 01e4 09EB8B06 		add	r6, r9, fp, lsl #2
 594              	.LBE489:
 595              	.LBE488:
 596              	.LBE487:
 597              	.LBE486:
 598              	.LBE485:
 599              	.LBE484:
 600              	.LBB490:
 601              	.LBB491:
 602              		.loc 1 488 0
 603 01e8 F568     		ldr	r5, [r6, #12]
 604 01ea 6869     		ldr	r0, [r5, #20]
 605 01ec 8168     		ldr	r1, [r0, #8]
 606 01ee 4268     		ldr	r2, [r0, #4]
 607 01f0 8A42     		cmp	r2, r1
 608 01f2 40F2BF80 		bls	.L102
 609              		.loc 1 498 0
 610 01f6 D9F85040 		ldr	r4, [r9, #80]
 611              		.loc 1 493 0
 612 01fa 2D8A     		ldrh	r5, [r5, #16]
 613              		.loc 1 498 0
 614 01fc 4FEA4B17 		lsl	r7, fp, #5
 615 0200 04EB070E 		add	lr, r4, r7
 616              		.loc 1 492 0
 617 0204 521A     		subs	r2, r2, r1
 618              	.LVL74:
 619              		.loc 1 498 0
 620 0206 DEF81819 		ldr	r1, [lr, #2328]
 621 020a 0197     		str	r7, [sp, #4]
 622 020c 9542     		cmp	r5, r2
 623 020e 28BF     		it	cs
 624 0210 1546     		movcs	r5, r2
 625              	.LVL75:
 626 0212 8AB2     		uxth	r2, r1
 627 0214 B5EB820F 		cmp	r5, r2, lsl #2
ARM GAS  /tmp/ccigORce.s 			page 12


 628 0218 00F29F80 		bhi	.L103
 629 021c 0BF10102 		add	r2, fp, #1
 630 0220 0292     		str	r2, [sp, #8]
 631              	.LBB492:
 632              	.LBB493:
 633              	.LBB494:
 634              	.LBB495:
 635              		.loc 3 764 0
 636 0222 0493     		str	r3, [sp, #16]
 637 0224 4FEA0238 		lsl	r8, r2, #12
 638              	.L37:
 639              	.LBE495:
 640              	.LBE494:
 641              	.LBE493:
 642              	.LBE492:
 643              		.loc 1 505 0
 644 0228 0378     		ldrb	r3, [r0]	@ zero_extendqisi2
 645 022a 002B     		cmp	r3, #0
 646 022c 40D1     		bne	.L104
 647              	.LBB523:
 648              	.LBB524:
 649              		.loc 1 256 0
 650 022e EB1C     		adds	r3, r5, #3
 651              	.LBE524:
 652              	.LBE523:
 653              		.loc 1 513 0
 654 0230 D0F80CE0 		ldr	lr, [r0, #12]
 655              	.LBB531:
 656              	.LBB529:
 657              	.LBB525:
 658              	.LBB526:
 659              		.loc 1 233 0
 660 0234 9B08     		lsrs	r3, r3, #2
 661              	.LBE526:
 662              	.LBE525:
 663              	.LBE529:
 664              	.LBE531:
 665              		.loc 1 513 0
 666 0236 4444     		add	r4, r4, r8
 667              	.LVL76:
 668              	.LBB532:
 669              	.LBB530:
 670              	.LBB528:
 671              	.LBB527:
 672              		.loc 1 233 0
 673 0238 18BF     		it	ne
 674 023a 7246     		movne	r2, lr
 675 023c 04D0     		beq	.L56
 676              	.LVL77:
 677              	.L55:
 678              		.loc 1 236 0
 679 023e 52F8041B 		ldr	r1, [r2], #4
 680              	.LVL78:
 681 0242 2160     		str	r1, [r4]
 682              	.LVL79:
 683              		.loc 1 233 0
 684 0244 013B     		subs	r3, r3, #1
ARM GAS  /tmp/ccigORce.s 			page 13


 685              	.LVL80:
 686 0246 FAD1     		bne	.L55
 687              	.LVL81:
 688              	.L56:
 689              	.LBE527:
 690              	.LBE528:
 691              	.LBE530:
 692              	.LBE532:
 693              		.loc 1 516 0
 694 0248 0EEB0503 		add	r3, lr, r5
 695 024c C360     		str	r3, [r0, #12]
 696              	.L53:
 697              		.loc 1 521 0
 698 024e F168     		ldr	r1, [r6, #12]
 699 0250 4869     		ldr	r0, [r1, #20]
 700 0252 8368     		ldr	r3, [r0, #8]
 701              		.loc 1 488 0
 702 0254 4268     		ldr	r2, [r0, #4]
 703              		.loc 1 521 0
 704 0256 1D44     		add	r5, r5, r3
 705              	.LVL82:
 706              		.loc 1 488 0
 707 0258 AA42     		cmp	r2, r5
 708              		.loc 1 521 0
 709 025a 8560     		str	r5, [r0, #8]
 710              		.loc 1 488 0
 711 025c 7BD9     		bls	.L105
 712              		.loc 1 498 0
 713 025e 019B     		ldr	r3, [sp, #4]
 714 0260 D9F85040 		ldr	r4, [r9, #80]
 715              		.loc 1 493 0
 716 0264 098A     		ldrh	r1, [r1, #16]
 717              		.loc 1 498 0
 718 0266 04EB030E 		add	lr, r4, r3
 719              		.loc 1 492 0
 720 026a 551B     		subs	r5, r2, r5
 721              	.LVL83:
 722              		.loc 1 498 0
 723 026c DEF81839 		ldr	r3, [lr, #2328]
 724 0270 8D42     		cmp	r5, r1
 725 0272 28BF     		it	cs
 726 0274 0D46     		movcs	r5, r1
 727              	.LVL84:
 728 0276 9BB2     		uxth	r3, r3
 729 0278 B5EB830F 		cmp	r5, r3, lsl #2
 730 027c D4D9     		bls	.L37
 731              		.loc 1 499 0
 732 027e 0022     		movs	r2, #0
 733              	.LVL85:
 734              	.L36:
 735              	.LBE491:
 736              	.LBE490:
 737              	.LBB535:
 738              	.LBB536:
 739              	.LBB537:
 740              	.LBB538:
 741              	.LBB539:
ARM GAS  /tmp/ccigORce.s 			page 14


 742              		.loc 2 546 0
 743 0280 2023     		movs	r3, #32
 744              		.syntax unified
 745              	@ 546 "/home/selim/working/ChibiOS/os/ext/CMSIS/include/core_cmFunc.h" 1
 746 0282 83F31188 		MSR basepri, r3
 747              	@ 0 "" 2
 748              	.LVL86:
 749              		.thumb
 750              		.syntax unified
 751              	.LBE539:
 752              	.LBE538:
 753              	.LBE537:
 754              	.LBE536:
 755              	.LBE535:
 756              		.loc 1 1341 0
 757 0286 DAF80830 		ldr	r3, [r10, #8]
 758 028a 43F00103 		orr	r3, r3, #1
 759 028e CAF80830 		str	r3, [r10, #8]
 760              		.loc 1 1342 0
 761 0292 2AB9     		cbnz	r2, .L33
 762              	.L35:
 763              		.loc 1 1343 0
 764 0294 DAF83438 		ldr	r3, [r10, #2100]
 765 0298 039A     		ldr	r2, [sp, #12]
 766 029a 1A43     		orrs	r2, r2, r3
 767 029c CAF83428 		str	r2, [r10, #2100]
 768              	.L33:
 769              	.LVL87:
 770              	.LBB548:
 771              	.LBB549:
 772              	.LBB550:
 773              	.LBB551:
 774              	.LBB552:
 775              	.LBB553:
 776              		.loc 2 546 0
 777 02a0 0023     		movs	r3, #0
 778              		.syntax unified
 779              	@ 546 "/home/selim/working/ChibiOS/os/ext/CMSIS/include/core_cmFunc.h" 1
 780 02a2 83F31188 		MSR basepri, r3
 781              	@ 0 "" 2
 782              	.LVL88:
 783              		.thumb
 784              		.syntax unified
 785 02a6 19E7     		b	.L31
 786              	.L109:
 787              		.align	2
 788              	.L108:
 789 02a8 00000000 		.word	ch
 790 02ac 00000000 		.word	.LC0
 791              	.LVL89:
 792              	.L104:
 793              	.LBE553:
 794              	.LBE552:
 795              	.LBE551:
 796              	.LBE550:
 797              	.LBE549:
 798              	.LBE548:
ARM GAS  /tmp/ccigORce.s 			page 15


 799              	.LBB554:
 800              	.LBB534:
 801              		.loc 1 507 0
 802 02b0 4444     		add	r4, r4, r8
 803 02b2 C068     		ldr	r0, [r0, #12]
 804              	.LVL90:
 805              	.LBB533:
 806              	.LBB522:
 807              		.loc 1 274 0
 808 02b4 FDB1     		cbz	r5, .L41
 809 02b6 D0F810E0 		ldr	lr, [r0, #16]
 810 02ba 2946     		mov	r1, r5
 811              	.LVL91:
 812              	.L40:
 813              	.LBB497:
 814              		.loc 1 278 0
 815 02bc 5FEA910C 		lsrs	ip, r1, #2
 816              	.LVL92:
 817 02c0 28D0     		beq	.L42
 818              	.LBB498:
 819              		.loc 1 280 0
 820 02c2 8369     		ldr	r3, [r0, #24]
 821              	.LVL93:
 822 02c4 BEEB0302 		subs	r2, lr, r3
 823 02c8 48BF     		it	mi
 824 02ca 0332     		addmi	r2, r2, #3
 825 02cc 9710     		asrs	r7, r2, #2
 826              		.loc 1 282 0
 827 02ce 6745     		cmp	r7, ip
 828 02d0 28BF     		it	cs
 829 02d2 6746     		movcs	r7, ip
 830              	.LVL94:
 831 02d4 BA00     		lsls	r2, r7, #2
 832 02d6 891A     		subs	r1, r1, r2
 833              	.LVL95:
 834              	.LBB499:
 835              	.LBB500:
 836              		.loc 1 233 0
 837 02d8 002F     		cmp	r7, #0
 838 02da 3AD0     		beq	.L63
 839 02dc 1A44     		add	r2, r2, r3
 840              	.LVL96:
 841              	.L45:
 842              		.loc 1 236 0
 843 02de 53F8047B 		ldr	r7, [r3], #4
 844              	.LVL97:
 845 02e2 2760     		str	r7, [r4]
 846              	.LVL98:
 847              		.loc 1 233 0
 848 02e4 9342     		cmp	r3, r2
 849 02e6 FAD1     		bne	.L45
 850              	.L44:
 851              	.LVL99:
 852              	.LBE500:
 853              	.LBE499:
 854              		.loc 1 284 0
 855 02e8 9645     		cmp	lr, r2
ARM GAS  /tmp/ccigORce.s 			page 16


 856              		.loc 1 283 0
 857 02ea 8261     		str	r2, [r0, #24]
 858              	.LVL100:
 859              		.loc 1 284 0
 860 02ec 2CD8     		bhi	.L46
 861              		.loc 1 285 0
 862 02ee C368     		ldr	r3, [r0, #12]
 863 02f0 8361     		str	r3, [r0, #24]
 864              	.LBE498:
 865              	.LBE497:
 866              		.loc 1 274 0
 867 02f2 0029     		cmp	r1, #0
 868 02f4 E2D1     		bne	.L40
 869              	.LVL101:
 870              	.L41:
 871              	.LBB507:
 872              	.LBB508:
 873              	.LBB509:
 874              	.LBB510:
 875              	.LBB511:
 876              		.loc 2 546 0
 877 02f6 2023     		movs	r3, #32
 878              		.syntax unified
 879              	@ 546 "/home/selim/working/ChibiOS/os/ext/CMSIS/include/core_cmFunc.h" 1
 880 02f8 83F31188 		MSR basepri, r3
 881              	@ 0 "" 2
 882              	.LVL102:
 883              		.thumb
 884              		.syntax unified
 885              	.LBE511:
 886              	.LBE510:
 887              	.LBE509:
 888              	.LBE508:
 889              	.LBE507:
 890              		.loc 1 310 0
 891 02fc 8368     		ldr	r3, [r0, #8]
 892 02fe 2B44     		add	r3, r3, r5
 893 0300 8360     		str	r3, [r0, #8]
 894              	.LVL103:
 895              	.LBB512:
 896              	.LBB496:
 897              		.loc 3 764 0
 898 0302 0021     		movs	r1, #0
 899 0304 FFF7FEFF 		bl	chThdDequeueAllI
 900              	.LVL104:
 901              	.LBE496:
 902              	.LBE512:
 903              	.LBB513:
 904              	.LBB514:
 905              		.loc 3 554 0
 906 0308 FFF7FEFF 		bl	chSchRescheduleS
 907              	.LVL105:
 908              	.LBE514:
 909              	.LBE513:
 910              	.LBB515:
 911              	.LBB516:
 912              	.LBB517:
ARM GAS  /tmp/ccigORce.s 			page 17


 913              	.LBB518:
 914              	.LBB519:
 915              	.LBB520:
 916              		.loc 2 546 0
 917 030c 049B     		ldr	r3, [sp, #16]
 918              		.syntax unified
 919              	@ 546 "/home/selim/working/ChibiOS/os/ext/CMSIS/include/core_cmFunc.h" 1
 920 030e 83F31188 		MSR basepri, r3
 921              	@ 0 "" 2
 922              	.LVL106:
 923              		.thumb
 924              		.syntax unified
 925 0312 9CE7     		b	.L53
 926              	.LVL107:
 927              	.L42:
 928 0314 8269     		ldr	r2, [r0, #24]
 929              	.L48:
 930              	.LVL108:
 931              	.LBE520:
 932              	.LBE519:
 933              	.LBE518:
 934              	.LBE517:
 935              	.LBE516:
 936              	.LBE515:
 937              	.LBB521:
 938              	.LBB505:
 939              	.LBB503:
 940              	.LBB501:
 941              		.loc 1 233 0
 942 0316 0023     		movs	r3, #0
 943 0318 1F46     		mov	r7, r3
 944              	.LVL109:
 945              	.L51:
 946              	.LBE501:
 947              	.LBE503:
 948              	.LBE505:
 949              		.loc 1 299 0
 950 031a 02F1010C 		add	ip, r2, #1
 951 031e C0F818C0 		str	ip, [r0, #24]
 952 0322 1278     		ldrb	r2, [r2]	@ zero_extendqisi2
 953              		.loc 1 300 0
 954 0324 E645     		cmp	lr, ip
 955              		.loc 1 299 0
 956 0326 02FA03F2 		lsl	r2, r2, r3
 957 032a 47EA0207 		orr	r7, r7, r2
 958              	.LVL110:
 959              		.loc 1 301 0
 960 032e 9CBF     		itt	ls
 961 0330 C268     		ldrls	r2, [r0, #12]
 962 0332 8261     		strls	r2, [r0, #24]
 963              		.loc 1 298 0
 964 0334 0139     		subs	r1, r1, #1
 965              	.LVL111:
 966              		.loc 1 299 0
 967 0336 03F10803 		add	r3, r3, #8
 968              	.LVL112:
 969              		.loc 1 298 0
ARM GAS  /tmp/ccigORce.s 			page 18


 970 033a 08D0     		beq	.L106
 971 033c 202B     		cmp	r3, #32
 972 033e 01D0     		beq	.L107
 973 0340 8269     		ldr	r2, [r0, #24]
 974 0342 EAE7     		b	.L51
 975              	.L107:
 976              		.loc 1 305 0
 977 0344 2760     		str	r7, [r4]
 978 0346 B9E7     		b	.L40
 979              	.LVL113:
 980              	.L46:
 981              		.loc 1 292 0
 982 0348 0029     		cmp	r1, #0
 983 034a E4D1     		bne	.L48
 984 034c D3E7     		b	.L41
 985              	.LVL114:
 986              	.L106:
 987              		.loc 1 305 0
 988 034e 2760     		str	r7, [r4]
 989 0350 D1E7     		b	.L41
 990              	.LVL115:
 991              	.L63:
 992              	.LBB506:
 993              	.LBB504:
 994              	.LBB502:
 995              		.loc 1 233 0
 996 0352 1A46     		mov	r2, r3
 997 0354 C8E7     		b	.L44
 998              	.LVL116:
 999              	.L105:
 1000              	.LBE502:
 1001              	.LBE504:
 1002              	.LBE506:
 1003              	.LBE521:
 1004              	.LBE522:
 1005              	.LBE533:
 1006              		.loc 1 489 0
 1007 0356 0122     		movs	r2, #1
 1008 0358 92E7     		b	.L36
 1009              	.LVL117:
 1010              	.L103:
 1011              	.LBE534:
 1012              	.LBE554:
 1013              	.LBB555:
 1014              	.LBB546:
 1015              	.LBB544:
 1016              	.LBB542:
 1017              	.LBB540:
 1018              		.loc 2 546 0
 1019 035a 2023     		movs	r3, #32
 1020              		.syntax unified
 1021              	@ 546 "/home/selim/working/ChibiOS/os/ext/CMSIS/include/core_cmFunc.h" 1
 1022 035c 83F31188 		MSR basepri, r3
 1023              	@ 0 "" 2
 1024              	.LVL118:
 1025              		.thumb
 1026              		.syntax unified
ARM GAS  /tmp/ccigORce.s 			page 19


 1027              	.LBE540:
 1028              	.LBE542:
 1029              	.LBE544:
 1030              	.LBE546:
 1031              	.LBE555:
 1032              		.loc 1 1341 0
 1033 0360 DAF80830 		ldr	r3, [r10, #8]
 1034 0364 0BF10102 		add	r2, fp, #1
 1035 0368 43F00103 		orr	r3, r3, #1
 1036 036c 0292     		str	r2, [sp, #8]
 1037 036e CAF80830 		str	r3, [r10, #8]
 1038 0372 8FE7     		b	.L35
 1039              	.LVL119:
 1040              	.L102:
 1041              	.LBB556:
 1042              	.LBB547:
 1043              	.LBB545:
 1044              	.LBB543:
 1045              	.LBB541:
 1046              		.loc 2 546 0
 1047 0374 2023     		movs	r3, #32
 1048              		.syntax unified
 1049              	@ 546 "/home/selim/working/ChibiOS/os/ext/CMSIS/include/core_cmFunc.h" 1
 1050 0376 83F31188 		MSR basepri, r3
 1051              	@ 0 "" 2
 1052              	.LVL120:
 1053              		.thumb
 1054              		.syntax unified
 1055              	.LBE541:
 1056              	.LBE543:
 1057              	.LBE545:
 1058              	.LBE547:
 1059              	.LBE556:
 1060              		.loc 1 1341 0
 1061 037a DAF80830 		ldr	r3, [r10, #8]
 1062 037e 0BF10102 		add	r2, fp, #1
 1063 0382 43F00103 		orr	r3, r3, #1
 1064 0386 0292     		str	r2, [sp, #8]
 1065 0388 CAF80830 		str	r3, [r10, #8]
 1066 038c 88E7     		b	.L33
 1067              	.LBE478:
 1068              	.LBE423:
 1069              		.cfi_endproc
 1070              	.LFE294:
 1071              		.size	usb_lld_pump, .-usb_lld_pump
 1072 038e 00BF     		.section	.text.otg_disable_ep.isra.0,"ax",%progbits
 1073              		.align	1
 1074              		.p2align 4,,15
 1075              		.syntax unified
 1076              		.thumb
 1077              		.thumb_func
 1078              		.fpu softvfp
 1079              		.type	otg_disable_ep.isra.0, %function
 1080              	otg_disable_ep.isra.0:
 1081              	.LFB295:
 1082              		.loc 1 132 0
 1083              		.cfi_startproc
ARM GAS  /tmp/ccigORce.s 			page 20


 1084              		@ args = 0, pretend = 0, frame = 0
 1085              		@ frame_needed = 0, uses_anonymous_args = 0
 1086 0000 F0B5     		push	{r4, r5, r6, r7, lr}
 1087              		.cfi_def_cfa_offset 20
 1088              		.cfi_offset 4, -20
 1089              		.cfi_offset 5, -16
 1090              		.cfi_offset 6, -12
 1091              		.cfi_offset 7, -8
 1092              		.cfi_offset 14, -4
 1093              		.loc 1 136 0
 1094 0002 0024     		movs	r4, #0
 1095              	.LVL121:
 1096 0004 D1F808E0 		ldr	lr, [r1, #8]
 1097              		.loc 1 147 0
 1098 0008 2546     		mov	r5, r4
 1099              		.loc 1 141 0
 1100 000a 4FF0804C 		mov	ip, #1073741824
 1101              		.loc 1 149 0
 1102 000e 4FF0FF37 		mov	r7, #-1
 1103 0012 14E0     		b	.L117
 1104              	.LVL122:
 1105              	.L111:
 1106              		.loc 1 147 0
 1107 0014 C1F80059 		str	r5, [r1, #2304]
 1108              	.L113:
 1109              		.loc 1 148 0
 1110 0018 C218     		adds	r2, r0, r3
 1111 001a C2F81059 		str	r5, [r2, #2320]
 1112              		.loc 1 149 0
 1113 001e C2F80879 		str	r7, [r2, #2312]
 1114              		.loc 1 155 0
 1115 0022 D1F8006B 		ldr	r6, [r1, #2816]
 1116 0026 002E     		cmp	r6, #0
 1117 0028 17DB     		blt	.L124
 1118              		.loc 1 162 0
 1119 002a C1F8005B 		str	r5, [r1, #2816]
 1120              	.L116:
 1121              		.loc 1 163 0
 1122 002e 0344     		add	r3, r3, r0
 1123              		.loc 1 136 0
 1124 0030 0134     		adds	r4, r4, #1
 1125              	.LVL123:
 1126 0032 7445     		cmp	r4, lr
 1127              		.loc 1 163 0
 1128 0034 C3F8105B 		str	r5, [r3, #2832]
 1129              		.loc 1 164 0
 1130 0038 C3F8087B 		str	r7, [r3, #2824]
 1131              		.loc 1 136 0
 1132 003c 14D8     		bhi	.L125
 1133              	.LVL124:
 1134              	.L117:
 1135 003e 6301     		lsls	r3, r4, #5
 1136 0040 C118     		adds	r1, r0, r3
 1137              		.loc 1 140 0
 1138 0042 D1F80029 		ldr	r2, [r1, #2304]
 1139 0046 002A     		cmp	r2, #0
 1140 0048 E4DA     		bge	.L111
ARM GAS  /tmp/ccigORce.s 			page 21


 1141              		.loc 1 141 0
 1142 004a C1F800C9 		str	ip, [r1, #2304]
 1143              		.loc 1 143 0
 1144 004e 0E46     		mov	r6, r1
 1145              	.L112:
 1146 0050 D6F80829 		ldr	r2, [r6, #2312]
 1147 0054 9207     		lsls	r2, r2, #30
 1148 0056 FBD5     		bpl	.L112
 1149 0058 DEE7     		b	.L113
 1150              	.L124:
 1151              		.loc 1 156 0
 1152 005a C1F800CB 		str	ip, [r1, #2816]
 1153              	.L115:
 1154              		.loc 1 158 0
 1155 005e D2F8081B 		ldr	r1, [r2, #2824]
 1156 0062 C906     		lsls	r1, r1, #27
 1157 0064 FBD5     		bpl	.L115
 1158 0066 E2E7     		b	.L116
 1159              	.L125:
 1160              		.loc 1 166 0
 1161 0068 4FF00113 		mov	r3, #65537
 1162 006c C0F81C38 		str	r3, [r0, #2076]
 1163 0070 F0BD     		pop	{r4, r5, r6, r7, pc}
 1164              		.cfi_endproc
 1165              	.LFE295:
 1166              		.size	otg_disable_ep.isra.0, .-otg_disable_ep.isra.0
 1167 0072 00BF     		.section	.text.usb_lld_init,"ax",%progbits
 1168              		.align	1
 1169              		.p2align 4,,15
 1170              		.global	usb_lld_init
 1171              		.syntax unified
 1172              		.thumb
 1173              		.thumb_func
 1174              		.fpu softvfp
 1175              		.type	usb_lld_init, %function
 1176              	usb_lld_init:
 1177              	.LFB276:
 1178              		.loc 1 744 0
 1179              		.cfi_startproc
 1180              		@ args = 0, pretend = 0, frame = 0
 1181              		@ frame_needed = 0, uses_anonymous_args = 0
 1182 0000 10B5     		push	{r4, lr}
 1183              		.cfi_def_cfa_offset 8
 1184              		.cfi_offset 4, -8
 1185              		.cfi_offset 14, -4
 1186              		.loc 1 748 0
 1187 0002 064C     		ldr	r4, .L128
 1188 0004 2046     		mov	r0, r4
 1189 0006 FFF7FEFF 		bl	usbObjectInit
 1190              	.LVL125:
 1191              		.loc 1 750 0
 1192 000a 4FF0A043 		mov	r3, #1342177280
 1193              		.loc 1 751 0
 1194 000e 044A     		ldr	r2, .L128+4
 1195              		.loc 1 750 0
 1196 0010 2365     		str	r3, [r4, #80]
 1197              		.loc 1 749 0
ARM GAS  /tmp/ccigORce.s 			page 22


 1198 0012 0023     		movs	r3, #0
 1199              		.loc 1 751 0
 1200 0014 6265     		str	r2, [r4, #84]
 1201              		.loc 1 749 0
 1202 0016 2366     		str	r3, [r4, #96]
 1203              		.loc 1 754 0
 1204 0018 6366     		str	r3, [r4, #100]
 1205 001a 10BD     		pop	{r4, pc}
 1206              	.L129:
 1207              		.align	2
 1208              	.L128:
 1209 001c 00000000 		.word	.LANCHOR0
 1210 0020 00000000 		.word	.LANCHOR1
 1211              		.cfi_endproc
 1212              	.LFE276:
 1213              		.size	usb_lld_init, .-usb_lld_init
 1214              		.section	.text.usb_lld_start,"ax",%progbits
 1215              		.align	1
 1216              		.p2align 4,,15
 1217              		.global	usb_lld_start
 1218              		.syntax unified
 1219              		.thumb
 1220              		.thumb_func
 1221              		.fpu softvfp
 1222              		.type	usb_lld_start, %function
 1223              	usb_lld_start:
 1224              	.LFB277:
 1225              		.loc 1 806 0
 1226              		.cfi_startproc
 1227              		@ args = 0, pretend = 0, frame = 0
 1228              		@ frame_needed = 0, uses_anonymous_args = 0
 1229              	.LVL126:
 1230              		.loc 1 809 0
 1231 0000 0378     		ldrb	r3, [r0]	@ zero_extendqisi2
 1232 0002 012B     		cmp	r3, #1
 1233 0004 00D0     		beq	.L145
 1234 0006 7047     		bx	lr
 1235              	.L145:
 1236              		.loc 1 806 0
 1237 0008 70B5     		push	{r4, r5, r6, lr}
 1238              		.cfi_def_cfa_offset 16
 1239              		.cfi_offset 4, -16
 1240              		.cfi_offset 5, -12
 1241              		.cfi_offset 6, -8
 1242              		.cfi_offset 14, -4
 1243              		.loc 1 812 0
 1244 000a 314B     		ldr	r3, .L149
 1245              		.loc 1 807 0
 1246 000c 066D     		ldr	r6, [r0, #80]
 1247              		.loc 1 812 0
 1248 000e 9842     		cmp	r0, r3
 1249              		.loc 1 806 0
 1250 0010 82B0     		sub	sp, sp, #8
 1251              		.cfi_def_cfa_offset 24
 1252 0012 0546     		mov	r5, r0
 1253              		.loc 1 807 0
 1254 0014 18BF     		it	ne
ARM GAS  /tmp/ccigORce.s 			page 23


 1255 0016 3446     		movne	r4, r6
 1256              		.loc 1 812 0
 1257 0018 3AD0     		beq	.L146
 1258              	.LVL127:
 1259              	.L132:
 1260              		.loc 1 836 0
 1261 001a 0023     		movs	r3, #0
 1262              		.loc 1 841 0
 1263 001c 2D48     		ldr	r0, .L149+4
 1264              		.loc 1 844 0
 1265 001e 2E49     		ldr	r1, .L149+8
 1266              		.loc 1 836 0
 1267 0020 EB65     		str	r3, [r5, #92]
 1268              		.loc 1 854 0
 1269 0022 4FF45022 		mov	r2, #851968
 1270              		.loc 1 841 0
 1271 0026 F060     		str	r0, [r6, #12]
 1272              		.loc 1 844 0
 1273 0028 C6F80018 		str	r1, [r6, #2048]
 1274              	.LBB565:
 1275              	.LBB566:
 1276              	.LBB567:
 1277              	.LBB568:
 1278              		.loc 3 527 0
 1279 002c 2020     		movs	r0, #32
 1280              	.LBE568:
 1281              	.LBE567:
 1282              	.LBE566:
 1283              	.LBE565:
 1284              		.loc 1 847 0
 1285 002e C6F8003E 		str	r3, [r6, #3584]
 1286              		.loc 1 854 0
 1287 0032 B263     		str	r2, [r6, #56]
 1288              	.LVL128:
 1289              	.LBB574:
 1290              	.LBB573:
 1291              	.LBB570:
 1292              	.LBB569:
 1293              		.loc 3 527 0
 1294 0034 FFF7FEFF 		bl	chSysPolledDelayX
 1295              	.LVL129:
 1296              	.LBE569:
 1297              	.LBE570:
 1298              		.loc 1 121 0
 1299 0038 0123     		movs	r3, #1
 1300 003a 2361     		str	r3, [r4, #16]
 1301              	.L133:
 1302              		.loc 1 122 0
 1303 003c 2369     		ldr	r3, [r4, #16]
 1304 003e DB07     		lsls	r3, r3, #31
 1305 0040 FCD4     		bmi	.L133
 1306              	.LVL130:
 1307              	.LBB571:
 1308              	.LBB572:
 1309              		.loc 3 527 0
 1310 0042 0C20     		movs	r0, #12
 1311 0044 FFF7FEFF 		bl	chSysPolledDelayX
ARM GAS  /tmp/ccigORce.s 			page 24


 1312              	.LVL131:
 1313              	.L134:
 1314              	.LBE572:
 1315              	.LBE571:
 1316              		.loc 1 128 0
 1317 0048 2369     		ldr	r3, [r4, #16]
 1318 004a 002B     		cmp	r3, #0
 1319 004c FCDA     		bge	.L134
 1320              	.LBE573:
 1321              	.LBE574:
 1322              		.loc 1 861 0
 1323 004e 0024     		movs	r4, #0
 1324 0050 B460     		str	r4, [r6, #8]
 1325              		.loc 1 864 0
 1326 0052 696D     		ldr	r1, [r5, #84]
 1327 0054 286D     		ldr	r0, [r5, #80]
 1328 0056 FFF7FEFF 		bl	otg_disable_ep.isra.0
 1329              	.LVL132:
 1330              		.loc 1 871 0
 1331 005a 6B68     		ldr	r3, [r5, #4]
 1332              		.loc 1 868 0
 1333 005c C6F81048 		str	r4, [r6, #2064]
 1334              		.loc 1 871 0
 1335 0060 DB68     		ldr	r3, [r3, #12]
 1336              		.loc 1 869 0
 1337 0062 C6F81448 		str	r4, [r6, #2068]
 1338              		.loc 1 870 0
 1339 0066 C6F81C48 		str	r4, [r6, #2076]
 1340              		.loc 1 871 0
 1341 006a 6BB1     		cbz	r3, .L147
 1342              		.loc 1 875 0
 1343 006c 43F20803 		movw	r3, #12296
 1344 0070 B361     		str	r3, [r6, #24]
 1345              	.L136:
 1346              		.loc 1 881 0
 1347 0072 6B6E     		ldr	r3, [r5, #100]
 1348              		.loc 1 877 0
 1349 0074 4FF0FF32 		mov	r2, #-1
 1350 0078 7261     		str	r2, [r6, #20]
 1351              		.loc 1 881 0
 1352 007a D3B1     		cbz	r3, .L148
 1353              	.L137:
 1354              		.loc 1 891 0
 1355 007c B368     		ldr	r3, [r6, #8]
 1356 007e 43F00103 		orr	r3, r3, #1
 1357 0082 B360     		str	r3, [r6, #8]
 1358              		.loc 1 893 0
 1359 0084 02B0     		add	sp, sp, #8
 1360              		.cfi_remember_state
 1361              		.cfi_def_cfa_offset 16
 1362              		@ sp needed
 1363 0086 70BD     		pop	{r4, r5, r6, pc}
 1364              	.LVL133:
 1365              	.L147:
 1366              		.cfi_restore_state
 1367              		.loc 1 872 0
 1368 0088 4FF44053 		mov	r3, #12288
ARM GAS  /tmp/ccigORce.s 			page 25


 1369 008c B361     		str	r3, [r6, #24]
 1370 008e F0E7     		b	.L136
 1371              	.LVL134:
 1372              	.L146:
 1373              		.loc 1 814 0
 1374 0090 124B     		ldr	r3, .L149+12
 1375 0092 5A6B     		ldr	r2, [r3, #52]
 1376 0094 42F08002 		orr	r2, r2, #128
 1377 0098 5A63     		str	r2, [r3, #52]
 1378              		.loc 1 815 0
 1379 009a 5A69     		ldr	r2, [r3, #20]
 1380 009c 0020     		movs	r0, #0
 1381              	.LVL135:
 1382 009e 42F08002 		orr	r2, r2, #128
 1383 00a2 5A61     		str	r2, [r3, #20]
 1384              		.loc 1 818 0
 1385 00a4 0E21     		movs	r1, #14
 1386              		.loc 1 815 0
 1387 00a6 5861     		str	r0, [r3, #20]
 1388              		.loc 1 818 0
 1389 00a8 4320     		movs	r0, #67
 1390 00aa FFF7FEFF 		bl	nvicEnableVector
 1391              	.LVL136:
 1392 00ae 2C6D     		ldr	r4, [r5, #80]
 1393 00b0 B3E7     		b	.L132
 1394              	.LVL137:
 1395              	.L148:
 1396              		.loc 1 882 0
 1397 00b2 0B4B     		ldr	r3, .L149+16
 1398 00b4 0095     		str	r5, [sp]
 1399 00b6 0222     		movs	r2, #2
 1400 00b8 4FF4A471 		mov	r1, #328
 1401 00bc 05F16800 		add	r0, r5, #104
 1402 00c0 FFF7FEFF 		bl	chThdCreateI
 1403              	.LVL138:
 1404 00c4 6866     		str	r0, [r5, #100]
 1405              	.LVL139:
 1406              	.LBB575:
 1407              	.LBB576:
 1408              		.file 4 "/home/selim/working/ChibiOS/os/rt/include/chthreads.h"
 1409              		.loc 4 249 0
 1410 00c6 FFF7FEFF 		bl	chSchReadyI
 1411              	.LVL140:
 1412              	.LBE576:
 1413              	.LBE575:
 1414              		.loc 1 886 0
 1415 00ca FFF7FEFF 		bl	chSchRescheduleS
 1416              	.LVL141:
 1417 00ce D5E7     		b	.L137
 1418              	.L150:
 1419              		.align	2
 1420              	.L149:
 1421 00d0 00000000 		.word	.LANCHOR0
 1422 00d4 40140040 		.word	1073747008
 1423 00d8 03002002 		.word	35651587
 1424 00dc 00380240 		.word	1073887232
 1425 00e0 00000000 		.word	usb_lld_pump
ARM GAS  /tmp/ccigORce.s 			page 26


 1426              		.cfi_endproc
 1427              	.LFE277:
 1428              		.size	usb_lld_start, .-usb_lld_start
 1429              		.section	.text.usb_lld_stop,"ax",%progbits
 1430              		.align	1
 1431              		.p2align 4,,15
 1432              		.global	usb_lld_stop
 1433              		.syntax unified
 1434              		.thumb
 1435              		.thumb_func
 1436              		.fpu softvfp
 1437              		.type	usb_lld_stop, %function
 1438              	usb_lld_stop:
 1439              	.LFB278:
 1440              		.loc 1 902 0
 1441              		.cfi_startproc
 1442              		@ args = 0, pretend = 0, frame = 0
 1443              		@ frame_needed = 0, uses_anonymous_args = 0
 1444              	.LVL142:
 1445 0000 38B5     		push	{r3, r4, r5, lr}
 1446              		.cfi_def_cfa_offset 16
 1447              		.cfi_offset 3, -16
 1448              		.cfi_offset 4, -12
 1449              		.cfi_offset 5, -8
 1450              		.cfi_offset 14, -4
 1451              		.loc 1 906 0
 1452 0002 0378     		ldrb	r3, [r0]	@ zero_extendqisi2
 1453 0004 012B     		cmp	r3, #1
 1454 0006 0BD0     		beq	.L151
 1455              		.loc 1 903 0
 1456 0008 056D     		ldr	r5, [r0, #80]
 1457              		.loc 1 910 0
 1458 000a 416D     		ldr	r1, [r0, #84]
 1459 000c 0446     		mov	r4, r0
 1460 000e 2846     		mov	r0, r5
 1461              	.LVL143:
 1462 0010 FFF7FEFF 		bl	otg_disable_ep.isra.0
 1463              	.LVL144:
 1464              		.loc 1 912 0
 1465 0014 0023     		movs	r3, #0
 1466 0016 E365     		str	r3, [r4, #92]
 1467              		.loc 1 914 0
 1468 0018 C5F81C38 		str	r3, [r5, #2076]
 1469              		.loc 1 915 0
 1470 001c AB60     		str	r3, [r5, #8]
 1471              		.loc 1 916 0
 1472 001e AB63     		str	r3, [r5, #56]
 1473              	.LVL145:
 1474              	.L151:
 1475 0020 38BD     		pop	{r3, r4, r5, pc}
 1476              		.cfi_endproc
 1477              	.LFE278:
 1478              		.size	usb_lld_stop, .-usb_lld_stop
 1479 0022 00BF     		.section	.text.usb_lld_reset,"ax",%progbits
 1480              		.align	1
 1481              		.p2align 4,,15
 1482              		.global	usb_lld_reset
ARM GAS  /tmp/ccigORce.s 			page 27


 1483              		.syntax unified
 1484              		.thumb
 1485              		.thumb_func
 1486              		.fpu softvfp
 1487              		.type	usb_lld_reset, %function
 1488              	usb_lld_reset:
 1489              	.LFB279:
 1490              		.loc 1 941 0
 1491              		.cfi_startproc
 1492              		@ args = 0, pretend = 0, frame = 0
 1493              		@ frame_needed = 0, uses_anonymous_args = 0
 1494              	.LVL146:
 1495 0000 F8B5     		push	{r3, r4, r5, r6, r7, lr}
 1496              		.cfi_def_cfa_offset 24
 1497              		.cfi_offset 3, -24
 1498              		.cfi_offset 4, -20
 1499              		.cfi_offset 5, -16
 1500              		.cfi_offset 6, -12
 1501              		.cfi_offset 7, -8
 1502              		.cfi_offset 14, -4
 1503              		.loc 1 943 0
 1504 0002 056D     		ldr	r5, [r0, #80]
 1505              	.LVL147:
 1506              	.LBB577:
 1507              	.LBB578:
 1508              		.loc 1 182 0
 1509 0004 2023     		movs	r3, #32
 1510              	.LBE578:
 1511              	.LBE577:
 1512              		.loc 1 941 0
 1513 0006 0746     		mov	r7, r0
 1514              	.LVL148:
 1515              	.LBB582:
 1516              	.LBB581:
 1517              		.loc 1 182 0
 1518 0008 2B61     		str	r3, [r5, #16]
 1519              	.L158:
 1520              		.loc 1 183 0
 1521 000a 2C69     		ldr	r4, [r5, #16]
 1522 000c 14F02004 		ands	r4, r4, #32
 1523 0010 FBD1     		bne	.L158
 1524              	.LVL149:
 1525              	.LBB579:
 1526              	.LBB580:
 1527              		.loc 3 527 0
 1528 0012 0C20     		movs	r0, #12
 1529              	.LVL150:
 1530 0014 FFF7FEFF 		bl	chSysPolledDelayX
 1531              	.LVL151:
 1532              	.LBE580:
 1533              	.LBE579:
 1534              	.LBE581:
 1535              	.LBE582:
 1536              		.loc 1 949 0
 1537 0018 D7F854E0 		ldr	lr, [r7, #84]
 1538 001c DEF80860 		ldr	r6, [lr, #8]
 1539 0020 2346     		mov	r3, r4
ARM GAS  /tmp/ccigORce.s 			page 28


 1540              		.loc 1 950 0
 1541 0022 4FF00060 		mov	r0, #134217728
 1542              		.loc 1 952 0
 1543 0026 FF21     		movs	r1, #255
 1544              	.LVL152:
 1545              	.L159:
 1546 0028 05EB4312 		add	r2, r5, r3, lsl #5
 1547              		.loc 1 949 0 discriminator 3
 1548 002c 0133     		adds	r3, r3, #1
 1549              	.LVL153:
 1550 002e B342     		cmp	r3, r6
 1551              		.loc 1 950 0 discriminator 3
 1552 0030 C2F80009 		str	r0, [r2, #2304]
 1553              		.loc 1 951 0 discriminator 3
 1554 0034 C2F8000B 		str	r0, [r2, #2816]
 1555              		.loc 1 952 0 discriminator 3
 1556 0038 C2F80819 		str	r1, [r2, #2312]
 1557              		.loc 1 953 0 discriminator 3
 1558 003c C2F8081B 		str	r1, [r2, #2824]
 1559              		.loc 1 949 0 discriminator 3
 1560 0040 F2D9     		bls	.L159
 1561              	.LBB583:
 1562              	.LBB584:
 1563              		.loc 1 198 0
 1564 0042 DEF80030 		ldr	r3, [lr]
 1565              	.LVL154:
 1566              	.LBE584:
 1567              	.LBE583:
 1568              		.loc 1 957 0
 1569 0046 4FF0FF32 		mov	r2, #-1
 1570              		.loc 1 958 0
 1571 004a 4FF00111 		mov	r1, #65537
 1572              		.loc 1 957 0
 1573 004e C5F81828 		str	r2, [r5, #2072]
 1574 0052 3A6D     		ldr	r2, [r7, #80]
 1575              		.loc 1 958 0
 1576 0054 C5F81C18 		str	r1, [r5, #2076]
 1577              	.LVL155:
 1578              	.LBB586:
 1579              	.LBB585:
 1580              		.loc 1 198 0
 1581 0058 BB65     		str	r3, [r7, #88]
 1582              	.LBE585:
 1583              	.LBE586:
 1584              		.loc 1 964 0
 1585 005a DEF80030 		ldr	r3, [lr]
 1586 005e 6B62     		str	r3, [r5, #36]
 1587              	.LBB587:
 1588              	.LBB588:
 1589              		.loc 1 172 0
 1590 0060 1023     		movs	r3, #16
 1591 0062 1361     		str	r3, [r2, #16]
 1592              	.L160:
 1593              		.loc 1 173 0
 1594 0064 1469     		ldr	r4, [r2, #16]
 1595 0066 14F01004 		ands	r4, r4, #16
 1596 006a FBD1     		bne	.L160
ARM GAS  /tmp/ccigORce.s 			page 29


 1597              	.LVL156:
 1598              	.LBB589:
 1599              	.LBB590:
 1600              		.loc 3 527 0
 1601 006c 0C20     		movs	r0, #12
 1602 006e FFF7FEFF 		bl	chSysPolledDelayX
 1603              	.LVL157:
 1604              	.LBE590:
 1605              	.LBE589:
 1606              	.LBE588:
 1607              	.LBE587:
 1608              		.loc 1 968 0
 1609 0072 D5F80038 		ldr	r3, [r5, #2048]
 1610              		.loc 1 978 0
 1611 0076 114A     		ldr	r2, .L165
 1612              		.loc 1 976 0
 1613 0078 1148     		ldr	r0, .L165+4
 1614              		.loc 1 968 0
 1615 007a 23F4FE63 		bic	r3, r3, #2032
 1616 007e C5F80038 		str	r3, [r5, #2048]
 1617              		.loc 1 971 0
 1618 0082 AB69     		ldr	r3, [r5, #24]
 1619 0084 43F44023 		orr	r3, r3, #786432
 1620 0088 43F01003 		orr	r3, r3, #16
 1621              		.loc 1 972 0
 1622 008c 0921     		movs	r1, #9
 1623              		.loc 1 971 0
 1624 008e AB61     		str	r3, [r5, #24]
 1625              		.loc 1 972 0
 1626 0090 C5F81018 		str	r1, [r5, #2064]
 1627              		.loc 1 973 0
 1628 0094 C5F81418 		str	r1, [r5, #2068]
 1629              		.loc 1 976 0
 1630 0098 F860     		str	r0, [r7, #12]
 1631              		.loc 1 977 0
 1632 009a C5F8104B 		str	r4, [r5, #2832]
 1633              		.loc 1 978 0
 1634 009e C5F8002B 		str	r2, [r5, #2816]
 1635              		.loc 1 980 0
 1636 00a2 C5F81049 		str	r4, [r5, #2320]
 1637              		.loc 1 981 0
 1638 00a6 C5F80029 		str	r2, [r5, #2304]
 1639              	.LVL158:
 1640              	.LBB591:
 1641              	.LBB592:
 1642              		.loc 1 212 0
 1643 00aa BB6D     		ldr	r3, [r7, #88]
 1644              	.LVL159:
 1645              		.loc 1 213 0
 1646 00ac 03F11002 		add	r2, r3, #16
 1647              	.LBE592:
 1648              	.LBE591:
 1649              		.loc 1 983 0
 1650 00b0 43F48013 		orr	r3, r3, #1048576
 1651              	.LVL160:
 1652              	.LBB594:
 1653              	.LBB593:
ARM GAS  /tmp/ccigORce.s 			page 30


 1654              		.loc 1 213 0
 1655 00b4 BA65     		str	r2, [r7, #88]
 1656              	.LVL161:
 1657              	.LBE593:
 1658              	.LBE594:
 1659              		.loc 1 983 0
 1660 00b6 AB62     		str	r3, [r5, #40]
 1661 00b8 F8BD     		pop	{r3, r4, r5, r6, r7, pc}
 1662              	.LVL162:
 1663              	.L166:
 1664 00ba 00BF     		.align	2
 1665              	.L165:
 1666 00bc 40800010 		.word	268468288
 1667 00c0 00000000 		.word	.LANCHOR2
 1668              		.cfi_endproc
 1669              	.LFE279:
 1670              		.size	usb_lld_reset, .-usb_lld_reset
 1671              		.section	.text.usb_lld_set_address,"ax",%progbits
 1672              		.align	1
 1673              		.p2align 4,,15
 1674              		.global	usb_lld_set_address
 1675              		.syntax unified
 1676              		.thumb
 1677              		.thumb_func
 1678              		.fpu softvfp
 1679              		.type	usb_lld_set_address, %function
 1680              	usb_lld_set_address:
 1681              	.LFB280:
 1682              		.loc 1 995 0
 1683              		.cfi_startproc
 1684              		@ args = 0, pretend = 0, frame = 0
 1685              		@ frame_needed = 0, uses_anonymous_args = 0
 1686              		@ link register save eliminated.
 1687              	.LVL163:
 1688              		.loc 1 996 0
 1689 0000 026D     		ldr	r2, [r0, #80]
 1690              	.LVL164:
 1691              		.loc 1 998 0
 1692 0002 90F84E10 		ldrb	r1, [r0, #78]	@ zero_extendqisi2
 1693 0006 D2F80038 		ldr	r3, [r2, #2048]
 1694 000a 23F4FE63 		bic	r3, r3, #2032
 1695 000e 43EA0113 		orr	r3, r3, r1, lsl #4
 1696 0012 C2F80038 		str	r3, [r2, #2048]
 1697 0016 7047     		bx	lr
 1698              		.cfi_endproc
 1699              	.LFE280:
 1700              		.size	usb_lld_set_address, .-usb_lld_set_address
 1701              		.section	.text.usb_lld_init_endpoint,"ax",%progbits
 1702              		.align	1
 1703              		.p2align 4,,15
 1704              		.global	usb_lld_init_endpoint
 1705              		.syntax unified
 1706              		.thumb
 1707              		.thumb_func
 1708              		.fpu softvfp
 1709              		.type	usb_lld_init_endpoint, %function
 1710              	usb_lld_init_endpoint:
ARM GAS  /tmp/ccigORce.s 			page 31


 1711              	.LFB281:
 1712              		.loc 1 1009 0
 1713              		.cfi_startproc
 1714              		@ args = 0, pretend = 0, frame = 0
 1715              		@ frame_needed = 0, uses_anonymous_args = 0
 1716              	.LVL165:
 1717 0000 2DE9F041 		push	{r4, r5, r6, r7, r8, lr}
 1718              		.cfi_def_cfa_offset 24
 1719              		.cfi_offset 4, -24
 1720              		.cfi_offset 5, -20
 1721              		.cfi_offset 6, -16
 1722              		.cfi_offset 7, -12
 1723              		.cfi_offset 8, -8
 1724              		.cfi_offset 14, -4
 1725 0004 0FFA81F8 		sxth	r8, r1
 1726 0008 00EB8807 		add	r7, r0, r8, lsl #2
 1727              		.loc 1 1009 0
 1728 000c 0D46     		mov	r5, r1
 1729              		.loc 1 1014 0
 1730 000e FB68     		ldr	r3, [r7, #12]
 1731 0010 1A68     		ldr	r2, [r3]
 1732 0012 02F00302 		and	r2, r2, #3
 1733 0016 022A     		cmp	r2, #2
 1734 0018 5DD0     		beq	.L170
 1735 001a 032A     		cmp	r2, #3
 1736 001c 5DD0     		beq	.L171
 1737              		.loc 1 1016 0
 1738 001e 4C4E     		ldr	r6, .L184
 1739 0020 4C49     		ldr	r1, .L184+4
 1740              	.LVL166:
 1741 0022 012A     		cmp	r2, #1
 1742 0024 18BF     		it	ne
 1743 0026 0E46     		movne	r6, r1
 1744              	.L172:
 1745              		.loc 1 1011 0
 1746 0028 046D     		ldr	r4, [r0, #80]
 1747              	.LVL167:
 1748              		.loc 1 1033 0
 1749 002a DA68     		ldr	r2, [r3, #12]
 1750              		.loc 1 1032 0
 1751 002c 6901     		lsls	r1, r5, #5
 1752 002e 04EB010E 		add	lr, r4, r1
 1753 0032 4FF0000C 		mov	ip, #0
 1754 0036 CEF810CB 		str	ip, [lr, #2832]
 1755              		.loc 1 1033 0
 1756 003a 002A     		cmp	r2, #0
 1757 003c 72D0     		beq	.L173
 1758              		.loc 1 1034 0
 1759 003e B3F812E0 		ldrh	lr, [r3, #18]
 1760 0042 05F15802 		add	r2, r5, #88
 1761 0046 5201     		lsls	r2, r2, #5
 1762 0048 4EEA060E 		orr	lr, lr, r6
 1763 004c 44F802E0 		str	lr, [r4, r2]
 1764              		.loc 1 1035 0
 1765 0050 05F1100C 		add	ip, r5, #16
 1766 0054 D4F81CE8 		ldr	lr, [r4, #2076]
 1767 0058 0122     		movs	r2, #1
ARM GAS  /tmp/ccigORce.s 			page 32


 1768 005a 02FA0CF2 		lsl	r2, r2, ip
 1769 005e 42EA0E02 		orr	r2, r2, lr
 1770 0062 C4F81C28 		str	r2, [r4, #2076]
 1771              	.L174:
 1772              		.loc 1 1043 0
 1773 0066 2144     		add	r1, r1, r4
 1774              		.loc 1 1044 0
 1775 0068 9A68     		ldr	r2, [r3, #8]
 1776              		.loc 1 1043 0
 1777 006a 4FF0000E 		mov	lr, #0
 1778 006e C1F810E9 		str	lr, [r1, #2320]
 1779              		.loc 1 1044 0
 1780 0072 002A     		cmp	r2, #0
 1781 0074 33D0     		beq	.L175
 1782              		.loc 1 1047 0
 1783 0076 9A8B     		ldrh	r2, [r3, #28]
 1784              		.loc 1 1046 0
 1785 0078 198A     		ldrh	r1, [r3, #16]
 1786              		.loc 1 1047 0
 1787 007a 012A     		cmp	r2, #1
 1788              		.loc 1 1046 0
 1789 007c 4FEA9103 		lsr	r3, r1, #2
 1790              	.LVL168:
 1791              		.loc 1 1048 0
 1792 0080 88BF     		it	hi
 1793 0082 5343     		mulhi	r3, r2, r3
 1794              	.LVL169:
 1795              	.LBB595:
 1796              	.LBB596:
 1797              		.loc 1 212 0
 1798 0084 826D     		ldr	r2, [r0, #88]
 1799              	.LVL170:
 1800              	.LBE596:
 1801              	.LBE595:
 1802              		.loc 1 1049 0
 1803 0086 05F13F01 		add	r1, r5, #63
 1804              	.LBB599:
 1805              	.LBB597:
 1806              		.loc 1 213 0
 1807 008a 03EB020E 		add	lr, r3, r2
 1808              	.LBE597:
 1809              	.LBE599:
 1810              		.loc 1 1049 0
 1811 008e 04EB8101 		add	r1, r4, r1, lsl #2
 1812 0092 42EA0343 		orr	r3, r2, r3, lsl #16
 1813              	.LVL171:
 1814              	.LBB600:
 1815              	.LBB601:
 1816              		.loc 1 182 0
 1817 0096 AA01     		lsls	r2, r5, #6
 1818              	.LVL172:
 1819 0098 42F02002 		orr	r2, r2, #32
 1820              	.LBE601:
 1821              	.LBE600:
 1822              	.LBB605:
 1823              	.LBB598:
 1824              		.loc 1 213 0
ARM GAS  /tmp/ccigORce.s 			page 33


 1825 009c C0F858E0 		str	lr, [r0, #88]
 1826              	.LVL173:
 1827              	.LBE598:
 1828              	.LBE605:
 1829              		.loc 1 1049 0
 1830 00a0 4B60     		str	r3, [r1, #4]
 1831              	.LVL174:
 1832              	.LBB606:
 1833              	.LBB604:
 1834              		.loc 1 182 0
 1835 00a2 2261     		str	r2, [r4, #16]
 1836              	.L177:
 1837              		.loc 1 183 0
 1838 00a4 2369     		ldr	r3, [r4, #16]
 1839 00a6 9A06     		lsls	r2, r3, #26
 1840 00a8 FCD4     		bmi	.L177
 1841              	.LVL175:
 1842              	.LBB602:
 1843              	.LBB603:
 1844              		.loc 3 527 0
 1845 00aa 0C20     		movs	r0, #12
 1846              	.LVL176:
 1847 00ac FFF7FEFF 		bl	chSysPolledDelayX
 1848              	.LVL177:
 1849              	.LBE603:
 1850              	.LBE602:
 1851              	.LBE604:
 1852              	.LBE606:
 1853              		.loc 1 1055 0
 1854 00b0 FB68     		ldr	r3, [r7, #12]
 1855 00b2 1A8A     		ldrh	r2, [r3, #16]
 1856              		.loc 1 1053 0
 1857 00b4 05F14803 		add	r3, r5, #72
 1858              		.loc 1 1054 0
 1859 00b8 42EA8552 		orr	r2, r2, r5, lsl #22
 1860              		.loc 1 1053 0
 1861 00bc 5B01     		lsls	r3, r3, #5
 1862              		.loc 1 1054 0
 1863 00be 3243     		orrs	r2, r2, r6
 1864              		.loc 1 1053 0
 1865 00c0 E250     		str	r2, [r4, r3]
 1866              		.loc 1 1056 0
 1867 00c2 0121     		movs	r1, #1
 1868 00c4 D4F81C38 		ldr	r3, [r4, #2076]
 1869 00c8 01FA05F5 		lsl	r5, r1, r5
 1870 00cc 1D43     		orrs	r5, r5, r3
 1871 00ce C4F81C58 		str	r5, [r4, #2076]
 1872 00d2 BDE8F081 		pop	{r4, r5, r6, r7, r8, pc}
 1873              	.LVL178:
 1874              	.L170:
 1875              		.loc 1 1022 0
 1876 00d6 204E     		ldr	r6, .L184+8
 1877              		.loc 1 1023 0
 1878 00d8 A6E7     		b	.L172
 1879              	.LVL179:
 1880              	.L171:
 1881              		.loc 1 1025 0
ARM GAS  /tmp/ccigORce.s 			page 34


 1882 00da 204E     		ldr	r6, .L184+12
 1883              		.loc 1 1026 0
 1884 00dc A4E7     		b	.L172
 1885              	.LVL180:
 1886              	.L175:
 1887              		.loc 1 1059 0
 1888 00de 05F13F02 		add	r2, r5, #63
 1889 00e2 04EB8202 		add	r2, r4, r2, lsl #2
 1890              	.LBB607:
 1891              	.LBB608:
 1892              		.loc 1 182 0
 1893 00e6 AB01     		lsls	r3, r5, #6
 1894              	.LBE608:
 1895              	.LBE607:
 1896              		.loc 1 1059 0
 1897 00e8 1D49     		ldr	r1, .L184+16
 1898 00ea 5160     		str	r1, [r2, #4]
 1899              	.LVL181:
 1900              	.LBB612:
 1901              	.LBB611:
 1902              		.loc 1 182 0
 1903 00ec 43F02003 		orr	r3, r3, #32
 1904 00f0 2361     		str	r3, [r4, #16]
 1905              	.L179:
 1906              		.loc 1 183 0
 1907 00f2 2369     		ldr	r3, [r4, #16]
 1908 00f4 9B06     		lsls	r3, r3, #26
 1909 00f6 FCD4     		bmi	.L179
 1910              	.LVL182:
 1911 00f8 04EB4818 		add	r8, r4, r8, lsl #5
 1912              	.LBB609:
 1913              	.LBB610:
 1914              		.loc 3 527 0
 1915 00fc 0C20     		movs	r0, #12
 1916              	.LVL183:
 1917 00fe FFF7FEFF 		bl	chSysPolledDelayX
 1918              	.LVL184:
 1919              	.LBE610:
 1920              	.LBE609:
 1921              	.LBE611:
 1922              	.LBE612:
 1923              		.loc 1 1061 0
 1924 0102 D8F80039 		ldr	r3, [r8, #2304]
 1925 0106 23F40043 		bic	r3, r3, #32768
 1926 010a C8F80039 		str	r3, [r8, #2304]
 1927              		.loc 1 1062 0
 1928 010e D4F81C38 		ldr	r3, [r4, #2076]
 1929 0112 0122     		movs	r2, #1
 1930 0114 02FA05F5 		lsl	r5, r2, r5
 1931 0118 23EA0503 		bic	r3, r3, r5
 1932 011c C4F81C38 		str	r3, [r4, #2076]
 1933 0120 BDE8F081 		pop	{r4, r5, r6, r7, r8, pc}
 1934              	.LVL185:
 1935              	.L173:
 1936 0124 04EB4812 		add	r2, r4, r8, lsl #5
 1937              		.loc 1 1039 0
 1938 0128 05F1100C 		add	ip, r5, #16
ARM GAS  /tmp/ccigORce.s 			page 35


 1939              		.loc 1 1038 0
 1940 012c D2F800EB 		ldr	lr, [r2, #2816]
 1941 0130 2EF4004E 		bic	lr, lr, #32768
 1942 0134 C2F800EB 		str	lr, [r2, #2816]
 1943              		.loc 1 1039 0
 1944 0138 D4F81C28 		ldr	r2, [r4, #2076]
 1945 013c 4FF0010E 		mov	lr, #1
 1946 0140 0EFA0CFE 		lsl	lr, lr, ip
 1947 0144 22EA0E02 		bic	r2, r2, lr
 1948 0148 C4F81C28 		str	r2, [r4, #2076]
 1949 014c 8BE7     		b	.L174
 1950              	.L185:
 1951 014e 00BF     		.align	2
 1952              	.L184:
 1953 0150 00800410 		.word	268730368
 1954 0154 00800010 		.word	268468224
 1955 0158 00800810 		.word	268992512
 1956 015c 00800C10 		.word	269254656
 1957 0160 00040002 		.word	33555456
 1958              		.cfi_endproc
 1959              	.LFE281:
 1960              		.size	usb_lld_init_endpoint, .-usb_lld_init_endpoint
 1961              		.section	.text.usb_lld_disable_endpoints,"ax",%progbits
 1962              		.align	1
 1963              		.p2align 4,,15
 1964              		.global	usb_lld_disable_endpoints
 1965              		.syntax unified
 1966              		.thumb
 1967              		.thumb_func
 1968              		.fpu softvfp
 1969              		.type	usb_lld_disable_endpoints, %function
 1970              	usb_lld_disable_endpoints:
 1971              	.LFB282:
 1972              		.loc 1 1073 0
 1973              		.cfi_startproc
 1974              		@ args = 0, pretend = 0, frame = 0
 1975              		@ frame_needed = 0, uses_anonymous_args = 0
 1976              		@ link register save eliminated.
 1977              	.LVL186:
 1978 0000 416D     		ldr	r1, [r0, #84]
 1979              	.LVL187:
 1980              		.loc 1 1073 0
 1981 0002 0346     		mov	r3, r0
 1982              	.LBB613:
 1983              	.LBB614:
 1984              		.loc 1 198 0
 1985 0004 0A68     		ldr	r2, [r1]
 1986              	.LBE614:
 1987              	.LBE613:
 1988              		.loc 1 1079 0
 1989 0006 006D     		ldr	r0, [r0, #80]
 1990              	.LVL188:
 1991              	.LBB616:
 1992              	.LBB615:
 1993              		.loc 1 198 0
 1994 0008 9A65     		str	r2, [r3, #88]
 1995              	.LBE615:
ARM GAS  /tmp/ccigORce.s 			page 36


 1996              	.LBE616:
 1997              		.loc 1 1079 0
 1998 000a FFF7FEBF 		b	otg_disable_ep.isra.0
 1999              	.LVL189:
 2000              		.cfi_endproc
 2001              	.LFE282:
 2002              		.size	usb_lld_disable_endpoints, .-usb_lld_disable_endpoints
 2003 000e 00BF     		.section	.text.usb_lld_get_status_out,"ax",%progbits
 2004              		.align	1
 2005              		.p2align 4,,15
 2006              		.global	usb_lld_get_status_out
 2007              		.syntax unified
 2008              		.thumb
 2009              		.thumb_func
 2010              		.fpu softvfp
 2011              		.type	usb_lld_get_status_out, %function
 2012              	usb_lld_get_status_out:
 2013              	.LFB283:
 2014              		.loc 1 1094 0
 2015              		.cfi_startproc
 2016              		@ args = 0, pretend = 0, frame = 0
 2017              		@ frame_needed = 0, uses_anonymous_args = 0
 2018              		@ link register save eliminated.
 2019              	.LVL190:
 2020              		.loc 1 1099 0
 2021 0000 5831     		adds	r1, r1, #88
 2022              	.LVL191:
 2023 0002 036D     		ldr	r3, [r0, #80]
 2024 0004 4901     		lsls	r1, r1, #5
 2025 0006 5B58     		ldr	r3, [r3, r1]
 2026              	.LVL192:
 2027              		.loc 1 1100 0
 2028 0008 13F40040 		ands	r0, r3, #32768
 2029              	.LVL193:
 2030 000c 04D0     		beq	.L188
 2031              		.loc 1 1102 0
 2032 000e 13F4001F 		tst	r3, #2097152
 2033              		.loc 1 1104 0
 2034 0012 14BF     		ite	ne
 2035 0014 0120     		movne	r0, #1
 2036 0016 0220     		moveq	r0, #2
 2037              	.L188:
 2038              		.loc 1 1105 0
 2039 0018 7047     		bx	lr
 2040              		.cfi_endproc
 2041              	.LFE283:
 2042              		.size	usb_lld_get_status_out, .-usb_lld_get_status_out
 2043 001a 00BF     		.section	.text.usb_lld_get_status_in,"ax",%progbits
 2044              		.align	1
 2045              		.p2align 4,,15
 2046              		.global	usb_lld_get_status_in
 2047              		.syntax unified
 2048              		.thumb
 2049              		.thumb_func
 2050              		.fpu softvfp
 2051              		.type	usb_lld_get_status_in, %function
 2052              	usb_lld_get_status_in:
ARM GAS  /tmp/ccigORce.s 			page 37


 2053              	.LFB284:
 2054              		.loc 1 1119 0
 2055              		.cfi_startproc
 2056              		@ args = 0, pretend = 0, frame = 0
 2057              		@ frame_needed = 0, uses_anonymous_args = 0
 2058              		@ link register save eliminated.
 2059              	.LVL194:
 2060              		.loc 1 1124 0
 2061 0000 4831     		adds	r1, r1, #72
 2062              	.LVL195:
 2063 0002 036D     		ldr	r3, [r0, #80]
 2064 0004 4901     		lsls	r1, r1, #5
 2065 0006 5B58     		ldr	r3, [r3, r1]
 2066              	.LVL196:
 2067              		.loc 1 1125 0
 2068 0008 13F40040 		ands	r0, r3, #32768
 2069              	.LVL197:
 2070 000c 04D0     		beq	.L192
 2071              		.loc 1 1127 0
 2072 000e 13F4001F 		tst	r3, #2097152
 2073              		.loc 1 1129 0
 2074 0012 14BF     		ite	ne
 2075 0014 0120     		movne	r0, #1
 2076 0016 0220     		moveq	r0, #2
 2077              	.L192:
 2078              		.loc 1 1130 0
 2079 0018 7047     		bx	lr
 2080              		.cfi_endproc
 2081              	.LFE284:
 2082              		.size	usb_lld_get_status_in, .-usb_lld_get_status_in
 2083 001a 00BF     		.section	.text.usb_lld_read_setup,"ax",%progbits
 2084              		.align	1
 2085              		.p2align 4,,15
 2086              		.global	usb_lld_read_setup
 2087              		.syntax unified
 2088              		.thumb
 2089              		.thumb_func
 2090              		.fpu softvfp
 2091              		.type	usb_lld_read_setup, %function
 2092              	usb_lld_read_setup:
 2093              	.LFB285:
 2094              		.loc 1 1146 0
 2095              		.cfi_startproc
 2096              		@ args = 0, pretend = 0, frame = 0
 2097              		@ frame_needed = 0, uses_anonymous_args = 0
 2098              		@ link register save eliminated.
 2099              	.LVL198:
 2100              		.loc 1 1148 0
 2101 0000 00EB8101 		add	r1, r0, r1, lsl #2
 2102              	.LVL199:
 2103 0004 CB68     		ldr	r3, [r1, #12]
 2104 0006 1B6A     		ldr	r3, [r3, #32]
 2105 0008 1968     		ldr	r1, [r3]	@ unaligned
 2106 000a 5B68     		ldr	r3, [r3, #4]	@ unaligned
 2107 000c 5360     		str	r3, [r2, #4]	@ unaligned
 2108 000e 1160     		str	r1, [r2]	@ unaligned
 2109 0010 7047     		bx	lr
ARM GAS  /tmp/ccigORce.s 			page 38


 2110              		.cfi_endproc
 2111              	.LFE285:
 2112              		.size	usb_lld_read_setup, .-usb_lld_read_setup
 2113 0012 00BF     		.section	.text.usb_lld_prepare_receive,"ax",%progbits
 2114              		.align	1
 2115              		.p2align 4,,15
 2116              		.global	usb_lld_prepare_receive
 2117              		.syntax unified
 2118              		.thumb
 2119              		.thumb_func
 2120              		.fpu softvfp
 2121              		.type	usb_lld_prepare_receive, %function
 2122              	usb_lld_prepare_receive:
 2123              	.LFB286:
 2124              		.loc 1 1159 0
 2125              		.cfi_startproc
 2126              		@ args = 0, pretend = 0, frame = 0
 2127              		@ frame_needed = 0, uses_anonymous_args = 0
 2128              		@ link register save eliminated.
 2129              	.LVL200:
 2130              		.loc 1 1161 0
 2131 0000 00EB8103 		add	r3, r0, r1, lsl #2
 2132              		.loc 1 1159 0
 2133 0004 70B4     		push	{r4, r5, r6}
 2134              		.cfi_def_cfa_offset 12
 2135              		.cfi_offset 4, -12
 2136              		.cfi_offset 5, -8
 2137              		.cfi_offset 6, -4
 2138              		.loc 1 1161 0
 2139 0006 DE68     		ldr	r6, [r3, #12]
 2140 0008 B569     		ldr	r5, [r6, #24]
 2141              	.LVL201:
 2142              		.loc 1 1164 0
 2143 000a 6A68     		ldr	r2, [r5, #4]
 2144 000c 2A61     		str	r2, [r5, #16]
 2145              		.loc 1 1165 0
 2146 000e 29B9     		cbnz	r1, .L201
 2147              		.loc 1 1165 0 is_stmt 0 discriminator 1
 2148 0010 402A     		cmp	r2, #64
 2149 0012 03D9     		bls	.L201
 2150              		.loc 1 1166 0 is_stmt 1
 2151 0014 4022     		movs	r2, #64
 2152 0016 094C     		ldr	r4, .L202
 2153 0018 6A60     		str	r2, [r5, #4]
 2154 001a 01E0     		b	.L198
 2155              	.L201:
 2156 001c 42F0C044 		orr	r4, r2, #1610612736
 2157              	.L198:
 2158              		.loc 1 1168 0
 2159 0020 758A     		ldrh	r5, [r6, #18]
 2160              	.LVL202:
 2161              		.loc 1 1170 0
 2162 0022 006D     		ldr	r0, [r0, #80]
 2163              	.LVL203:
 2164              		.loc 1 1168 0
 2165 0024 6B1E     		subs	r3, r5, #1
 2166              		.loc 1 1170 0
ARM GAS  /tmp/ccigORce.s 			page 39


 2167 0026 00EB4111 		add	r1, r0, r1, lsl #5
 2168              	.LVL204:
 2169              		.loc 1 1168 0
 2170 002a 1344     		add	r3, r3, r2
 2171 002c B3FBF5F3 		udiv	r3, r3, r5
 2172              		.loc 1 1170 0
 2173 0030 44EAC343 		orr	r3, r4, r3, lsl #19
 2174 0034 C1F8103B 		str	r3, [r1, #2832]
 2175              		.loc 1 1173 0
 2176 0038 70BC     		pop	{r4, r5, r6}
 2177              		.cfi_restore 6
 2178              		.cfi_restore 5
 2179              		.cfi_restore 4
 2180              		.cfi_def_cfa_offset 0
 2181              	.LVL205:
 2182 003a 7047     		bx	lr
 2183              	.L203:
 2184              		.align	2
 2185              	.L202:
 2186 003c 40000060 		.word	1610612800
 2187              		.cfi_endproc
 2188              	.LFE286:
 2189              		.size	usb_lld_prepare_receive, .-usb_lld_prepare_receive
 2190              		.section	.text.otg_epout_handler.constprop.7,"ax",%progbits
 2191              		.align	1
 2192              		.p2align 4,,15
 2193              		.syntax unified
 2194              		.thumb
 2195              		.thumb_func
 2196              		.fpu softvfp
 2197              		.type	otg_epout_handler.constprop.7, %function
 2198              	otg_epout_handler.constprop.7:
 2199              	.LFB302:
 2200              		.loc 1 581 0
 2201              		.cfi_startproc
 2202              		@ args = 0, pretend = 0, frame = 0
 2203              		@ frame_needed = 0, uses_anonymous_args = 0
 2204              	.LVL206:
 2205 0000 2DE9F041 		push	{r4, r5, r6, r7, r8, lr}
 2206              		.cfi_def_cfa_offset 24
 2207              		.cfi_offset 4, -24
 2208              		.cfi_offset 5, -20
 2209              		.cfi_offset 6, -16
 2210              		.cfi_offset 7, -12
 2211              		.cfi_offset 8, -8
 2212              		.cfi_offset 14, -4
 2213              		.loc 1 582 0
 2214 0004 254E     		ldr	r6, .L223
 2215 0006 376D     		ldr	r7, [r6, #80]
 2216              	.LVL207:
 2217              		.loc 1 583 0
 2218 0008 07EB4013 		add	r3, r7, r0, lsl #5
 2219              		.loc 1 581 0
 2220 000c 0546     		mov	r5, r0
 2221              		.loc 1 583 0
 2222 000e D3F8084B 		ldr	r4, [r3, #2824]
 2223              	.LVL208:
ARM GAS  /tmp/ccigORce.s 			page 40


 2224              		.loc 1 586 0
 2225 0012 C3F8084B 		str	r4, [r3, #2824]
 2226              		.loc 1 588 0
 2227 0016 2007     		lsls	r0, r4, #28
 2228              	.LVL209:
 2229 0018 03D5     		bpl	.L205
 2230 001a D7F81438 		ldr	r3, [r7, #2068]
 2231 001e 1907     		lsls	r1, r3, #28
 2232 0020 1CD4     		bmi	.L221
 2233              	.L205:
 2234              		.loc 1 594 0
 2235 0022 E207     		lsls	r2, r4, #31
 2236 0024 18D5     		bpl	.L204
 2237 0026 D7F81438 		ldr	r3, [r7, #2068]
 2238 002a DB07     		lsls	r3, r3, #31
 2239 002c 14D5     		bpl	.L204
 2240              	.LBB617:
 2241              		.loc 1 596 0
 2242 002e 06EB8503 		add	r3, r6, r5, lsl #2
 2243 0032 D968     		ldr	r1, [r3, #12]
 2244 0034 8B69     		ldr	r3, [r1, #24]
 2245              	.LVL210:
 2246              		.loc 1 598 0
 2247 0036 5868     		ldr	r0, [r3, #4]
 2248 0038 1A69     		ldr	r2, [r3, #16]
 2249 003a 9042     		cmp	r0, r2
 2250 003c 16D3     		bcc	.L222
 2251              		.loc 1 611 0
 2252 003e 7389     		ldrh	r3, [r6, #10]
 2253              	.LVL211:
 2254 0040 CC68     		ldr	r4, [r1, #12]
 2255              	.LVL212:
 2256 0042 1648     		ldr	r0, .L223
 2257 0044 0122     		movs	r2, #1
 2258 0046 AA40     		lsls	r2, r2, r5
 2259 0048 23EA0203 		bic	r3, r3, r2
 2260 004c 7381     		strh	r3, [r6, #10]	@ movhi
 2261 004e 2946     		mov	r1, r5
 2262              	.LVL213:
 2263 0050 2346     		mov	r3, r4
 2264              	.LBE617:
 2265              		.loc 1 614 0
 2266 0052 BDE8F041 		pop	{r4, r5, r6, r7, r8, lr}
 2267              		.cfi_remember_state
 2268              		.cfi_restore 14
 2269              		.cfi_restore 8
 2270              		.cfi_restore 7
 2271              		.cfi_restore 6
 2272              		.cfi_restore 5
 2273              		.cfi_restore 4
 2274              		.cfi_def_cfa_offset 0
 2275              	.LVL214:
 2276              	.LBB630:
 2277              		.loc 1 611 0
 2278 0056 1847     		bx	r3	@ indirect register sibling call
 2279              	.LVL215:
 2280              	.L204:
ARM GAS  /tmp/ccigORce.s 			page 41


 2281              		.cfi_restore_state
 2282 0058 BDE8F081 		pop	{r4, r5, r6, r7, r8, pc}
 2283              	.LVL216:
 2284              	.L221:
 2285              	.LBE630:
 2286              		.loc 1 591 0
 2287 005c 06EB8503 		add	r3, r6, r5, lsl #2
 2288 0060 2946     		mov	r1, r5
 2289 0062 DB68     		ldr	r3, [r3, #12]
 2290 0064 3046     		mov	r0, r6
 2291 0066 5B68     		ldr	r3, [r3, #4]
 2292 0068 9847     		blx	r3
 2293              	.LVL217:
 2294 006a DAE7     		b	.L205
 2295              	.LVL218:
 2296              	.L222:
 2297              	.LBB631:
 2298              		.loc 1 602 0
 2299 006c 121A     		subs	r2, r2, r0
 2300              		.loc 1 603 0
 2301 006e 0024     		movs	r4, #0
 2302              	.LVL219:
 2303              		.loc 1 602 0
 2304 0070 5A60     		str	r2, [r3, #4]
 2305              		.loc 1 603 0
 2306 0072 9C60     		str	r4, [r3, #8]
 2307              		.loc 1 604 0
 2308 0074 2946     		mov	r1, r5
 2309 0076 0948     		ldr	r0, .L223
 2310 0078 FFF7FEFF 		bl	usb_lld_prepare_receive
 2311              	.LVL220:
 2312              	.LBB618:
 2313              	.LBB619:
 2314              	.LBB620:
 2315              	.LBB621:
 2316              	.LBB622:
 2317              		.loc 2 546 0
 2318 007c 2023     		movs	r3, #32
 2319              		.syntax unified
 2320              	@ 546 "/home/selim/working/ChibiOS/os/ext/CMSIS/include/core_cmFunc.h" 1
 2321 007e 83F31188 		MSR basepri, r3
 2322              	@ 0 "" 2
 2323              	.LVL221:
 2324              		.thumb
 2325              		.syntax unified
 2326 0082 336D     		ldr	r3, [r6, #80]
 2327 0084 03EB4515 		add	r5, r3, r5, lsl #5
 2328              	.LVL222:
 2329              	.LBE622:
 2330              	.LBE621:
 2331              	.LBE620:
 2332              	.LBE619:
 2333              	.LBE618:
 2334              	.LBB623:
 2335              	.LBB624:
 2336              		.loc 1 1214 0
 2337 0088 D5F8003B 		ldr	r3, [r5, #2816]
ARM GAS  /tmp/ccigORce.s 			page 42


 2338 008c 43F08063 		orr	r3, r3, #67108864
 2339 0090 C5F8003B 		str	r3, [r5, #2816]
 2340              	.LVL223:
 2341              	.LBE624:
 2342              	.LBE623:
 2343              	.LBB625:
 2344              	.LBB626:
 2345              	.LBB627:
 2346              	.LBB628:
 2347              	.LBB629:
 2348              		.loc 2 546 0
 2349              		.syntax unified
 2350              	@ 546 "/home/selim/working/ChibiOS/os/ext/CMSIS/include/core_cmFunc.h" 1
 2351 0094 84F31188 		MSR basepri, r4
 2352              	@ 0 "" 2
 2353              	.LVL224:
 2354              		.thumb
 2355              		.syntax unified
 2356 0098 BDE8F081 		pop	{r4, r5, r6, r7, r8, pc}
 2357              	.LVL225:
 2358              	.L224:
 2359              		.align	2
 2360              	.L223:
 2361 009c 00000000 		.word	.LANCHOR0
 2362              	.LBE629:
 2363              	.LBE628:
 2364              	.LBE627:
 2365              	.LBE626:
 2366              	.LBE625:
 2367              	.LBE631:
 2368              		.cfi_endproc
 2369              	.LFE302:
 2370              		.size	otg_epout_handler.constprop.7, .-otg_epout_handler.constprop.7
 2371              		.section	.text.usb_lld_prepare_transmit,"ax",%progbits
 2372              		.align	1
 2373              		.p2align 4,,15
 2374              		.global	usb_lld_prepare_transmit
 2375              		.syntax unified
 2376              		.thumb
 2377              		.thumb_func
 2378              		.fpu softvfp
 2379              		.type	usb_lld_prepare_transmit, %function
 2380              	usb_lld_prepare_transmit:
 2381              	.LFB287:
 2382              		.loc 1 1183 0
 2383              		.cfi_startproc
 2384              		@ args = 0, pretend = 0, frame = 0
 2385              		@ frame_needed = 0, uses_anonymous_args = 0
 2386              		@ link register save eliminated.
 2387              	.LVL226:
 2388              		.loc 1 1184 0
 2389 0000 00EB8103 		add	r3, r0, r1, lsl #2
 2390              		.loc 1 1183 0
 2391 0004 10B4     		push	{r4}
 2392              		.cfi_def_cfa_offset 4
 2393              		.cfi_offset 4, -4
 2394              		.loc 1 1184 0
ARM GAS  /tmp/ccigORce.s 			page 43


 2395 0006 DC68     		ldr	r4, [r3, #12]
 2396 0008 6269     		ldr	r2, [r4, #20]
 2397              	.LVL227:
 2398              		.loc 1 1187 0
 2399 000a 5368     		ldr	r3, [r2, #4]
 2400 000c 1361     		str	r3, [r2, #16]
 2401              		.loc 1 1188 0
 2402 000e 9BB1     		cbz	r3, .L230
 2403              	.LBB632:
 2404              		.loc 1 1193 0
 2405 0010 69B1     		cbz	r1, .L231
 2406              	.L228:
 2407              		.loc 1 1197 0
 2408 0012 248A     		ldrh	r4, [r4, #16]
 2409              	.LVL228:
 2410              		.loc 1 1199 0
 2411 0014 006D     		ldr	r0, [r0, #80]
 2412              	.LVL229:
 2413              		.loc 1 1197 0
 2414 0016 621E     		subs	r2, r4, #1
 2415              	.LVL230:
 2416              		.loc 1 1199 0
 2417 0018 00EB4111 		add	r1, r0, r1, lsl #5
 2418              	.LVL231:
 2419              		.loc 1 1197 0
 2420 001c 1A44     		add	r2, r2, r3
 2421 001e B2FBF4F2 		udiv	r2, r2, r4
 2422              		.loc 1 1199 0
 2423 0022 43EAC243 		orr	r3, r3, r2, lsl #19
 2424              	.LVL232:
 2425 0026 C1F81039 		str	r3, [r1, #2320]
 2426              	.LBE632:
 2427              		.loc 1 1202 0
 2428 002a 10BC     		pop	{r4}
 2429              		.cfi_remember_state
 2430              		.cfi_restore 4
 2431              		.cfi_def_cfa_offset 0
 2432 002c 7047     		bx	lr
 2433              	.LVL233:
 2434              	.L231:
 2435              		.cfi_restore_state
 2436              	.LBB633:
 2437              		.loc 1 1193 0 discriminator 1
 2438 002e 402B     		cmp	r3, #64
 2439              		.loc 1 1194 0 discriminator 1
 2440 0030 84BF     		itt	hi
 2441 0032 4023     		movhi	r3, #64
 2442 0034 5360     		strhi	r3, [r2, #4]
 2443 0036 ECE7     		b	.L228
 2444              	.L230:
 2445              	.LBE633:
 2446              		.loc 1 1190 0
 2447 0038 036D     		ldr	r3, [r0, #80]
 2448              		.loc 1 1202 0
 2449 003a 10BC     		pop	{r4}
 2450              		.cfi_restore 4
 2451              		.cfi_def_cfa_offset 0
ARM GAS  /tmp/ccigORce.s 			page 44


 2452              		.loc 1 1190 0
 2453 003c 03EB4111 		add	r1, r3, r1, lsl #5
 2454              	.LVL234:
 2455 0040 4FF40023 		mov	r3, #524288
 2456 0044 C1F81039 		str	r3, [r1, #2320]
 2457              		.loc 1 1202 0
 2458 0048 7047     		bx	lr
 2459              		.cfi_endproc
 2460              	.LFE287:
 2461              		.size	usb_lld_prepare_transmit, .-usb_lld_prepare_transmit
 2462 004a 00BF     		.section	.text.otg_epin_handler.constprop.8,"ax",%progbits
 2463              		.align	1
 2464              		.p2align 4,,15
 2465              		.syntax unified
 2466              		.thumb
 2467              		.thumb_func
 2468              		.fpu softvfp
 2469              		.type	otg_epin_handler.constprop.8, %function
 2470              	otg_epin_handler.constprop.8:
 2471              	.LFB301:
 2472              		.loc 1 533 0
 2473              		.cfi_startproc
 2474              		@ args = 0, pretend = 0, frame = 0
 2475              		@ frame_needed = 0, uses_anonymous_args = 0
 2476              	.LVL235:
 2477 0000 2DE9F041 		push	{r4, r5, r6, r7, r8, lr}
 2478              		.cfi_def_cfa_offset 24
 2479              		.cfi_offset 4, -24
 2480              		.cfi_offset 5, -20
 2481              		.cfi_offset 6, -16
 2482              		.cfi_offset 7, -12
 2483              		.cfi_offset 8, -8
 2484              		.cfi_offset 14, -4
 2485              		.loc 1 534 0
 2486 0004 314F     		ldr	r7, .L251
 2487 0006 3D6D     		ldr	r5, [r7, #80]
 2488              	.LVL236:
 2489              		.loc 1 535 0
 2490 0008 05EB4013 		add	r3, r5, r0, lsl #5
 2491              		.loc 1 533 0
 2492 000c 0646     		mov	r6, r0
 2493              		.loc 1 535 0
 2494 000e D3F80849 		ldr	r4, [r3, #2312]
 2495              	.LVL237:
 2496              		.loc 1 537 0
 2497 0012 C3F80849 		str	r4, [r3, #2312]
 2498              		.loc 1 542 0
 2499 0016 E107     		lsls	r1, r4, #31
 2500 0018 03D5     		bpl	.L233
 2501 001a D5F81038 		ldr	r3, [r5, #2064]
 2502 001e DA07     		lsls	r2, r3, #31
 2503 0020 0AD4     		bmi	.L249
 2504              	.LVL238:
 2505              	.L233:
 2506              		.loc 1 562 0
 2507 0022 2306     		lsls	r3, r4, #24
 2508 0024 06D5     		bpl	.L232
ARM GAS  /tmp/ccigORce.s 			page 45


 2509              		.loc 1 563 0
 2510 0026 0123     		movs	r3, #1
 2511 0028 D5F83428 		ldr	r2, [r5, #2100]
 2512 002c 03FA06F6 		lsl	r6, r3, r6
 2513              		.loc 1 562 0
 2514 0030 1642     		tst	r6, r2
 2515 0032 29D1     		bne	.L250
 2516              	.L232:
 2517 0034 BDE8F081 		pop	{r4, r5, r6, r7, r8, pc}
 2518              	.LVL239:
 2519              	.L249:
 2520              	.LBB634:
 2521              		.loc 1 544 0
 2522 0038 07EB8003 		add	r3, r7, r0, lsl #2
 2523 003c D968     		ldr	r1, [r3, #12]
 2524 003e 4B69     		ldr	r3, [r1, #20]
 2525              	.LVL240:
 2526              		.loc 1 546 0
 2527 0040 5868     		ldr	r0, [r3, #4]
 2528              	.LVL241:
 2529 0042 1A69     		ldr	r2, [r3, #16]
 2530 0044 9042     		cmp	r0, r2
 2531 0046 34D2     		bcs	.L234
 2532              		.loc 1 550 0
 2533 0048 121A     		subs	r2, r2, r0
 2534              		.loc 1 551 0
 2535 004a 4FF00008 		mov	r8, #0
 2536              		.loc 1 550 0
 2537 004e 5A60     		str	r2, [r3, #4]
 2538              		.loc 1 551 0
 2539 0050 C3F80880 		str	r8, [r3, #8]
 2540              		.loc 1 552 0
 2541 0054 3146     		mov	r1, r6
 2542 0056 3846     		mov	r0, r7
 2543 0058 FFF7FEFF 		bl	usb_lld_prepare_transmit
 2544              	.LVL242:
 2545              	.LBB635:
 2546              	.LBB636:
 2547              	.LBB637:
 2548              	.LBB638:
 2549              	.LBB639:
 2550              	.LBB640:
 2551              		.loc 2 546 0
 2552 005c 2023     		movs	r3, #32
 2553              		.syntax unified
 2554              	@ 546 "/home/selim/working/ChibiOS/os/ext/CMSIS/include/core_cmFunc.h" 1
 2555 005e 83F31188 		MSR basepri, r3
 2556              	@ 0 "" 2
 2557              	.LVL243:
 2558              		.thumb
 2559              		.syntax unified
 2560              	.LBE640:
 2561              	.LBE639:
 2562              	.LBE638:
 2563              	.LBE637:
 2564              	.LBE636:
 2565              	.LBE635:
ARM GAS  /tmp/ccigORce.s 			page 46


 2566              	.LBB641:
 2567              	.LBB642:
 2568              		.loc 1 1227 0
 2569 0062 3A6D     		ldr	r2, [r7, #80]
 2570 0064 02EB4610 		add	r0, r2, r6, lsl #5
 2571              		.loc 1 1228 0
 2572 0068 0123     		movs	r3, #1
 2573              		.loc 1 1227 0
 2574 006a D0F80019 		ldr	r1, [r0, #2304]
 2575 006e 41F00441 		orr	r1, r1, #-2080374784
 2576 0072 C0F80019 		str	r1, [r0, #2304]
 2577              		.loc 1 1228 0
 2578 0076 D2F83418 		ldr	r1, [r2, #2100]
 2579 007a B340     		lsls	r3, r3, r6
 2580 007c 0B43     		orrs	r3, r3, r1
 2581 007e C2F83438 		str	r3, [r2, #2100]
 2582              	.LVL244:
 2583              	.LBE642:
 2584              	.LBE641:
 2585              	.LBB643:
 2586              	.LBB644:
 2587              	.LBB645:
 2588              	.LBB646:
 2589              	.LBB647:
 2590              	.LBB648:
 2591              		.loc 2 546 0
 2592              		.syntax unified
 2593              	@ 546 "/home/selim/working/ChibiOS/os/ext/CMSIS/include/core_cmFunc.h" 1
 2594 0082 88F31188 		MSR basepri, r8
 2595              	@ 0 "" 2
 2596              	.LVL245:
 2597              		.thumb
 2598              		.syntax unified
 2599 0086 CCE7     		b	.L233
 2600              	.L250:
 2601              	.LVL246:
 2602              	.LBE648:
 2603              	.LBE647:
 2604              	.LBE646:
 2605              	.LBE645:
 2606              	.LBE644:
 2607              	.LBE643:
 2608              	.LBE634:
 2609              	.LBB649:
 2610              	.LBB650:
 2611              	.LBB651:
 2612              	.LBB652:
 2613              	.LBB653:
 2614              	.LBB654:
 2615 0088 2023     		movs	r3, #32
 2616              		.syntax unified
 2617              	@ 546 "/home/selim/working/ChibiOS/os/ext/CMSIS/include/core_cmFunc.h" 1
 2618 008a 83F31188 		MSR basepri, r3
 2619              	@ 0 "" 2
 2620              	.LVL247:
 2621              		.thumb
 2622              		.syntax unified
ARM GAS  /tmp/ccigORce.s 			page 47


 2623              	.LBE654:
 2624              	.LBE653:
 2625              	.LBE652:
 2626              	.LBE651:
 2627              	.LBE650:
 2628              	.LBE649:
 2629              		.loc 1 567 0
 2630 008e D5F83428 		ldr	r2, [r5, #2100]
 2631              		.loc 1 566 0
 2632 0092 FB6D     		ldr	r3, [r7, #92]
 2633              	.LBB655:
 2634              	.LBB656:
 2635              		.loc 3 682 0
 2636 0094 0E48     		ldr	r0, .L251+4
 2637              	.LBE656:
 2638              	.LBE655:
 2639              		.loc 1 567 0
 2640 0096 22EA0602 		bic	r2, r2, r6
 2641 009a C5F83428 		str	r2, [r5, #2100]
 2642              	.LVL248:
 2643              		.loc 1 566 0
 2644 009e 1E43     		orrs	r6, r6, r3
 2645              	.LBB659:
 2646              	.LBB657:
 2647              		.loc 3 682 0
 2648 00a0 0021     		movs	r1, #0
 2649              	.LBE657:
 2650              	.LBE659:
 2651              		.loc 1 566 0
 2652 00a2 FE65     		str	r6, [r7, #92]
 2653              	.LBB660:
 2654              	.LBB658:
 2655              		.loc 3 682 0
 2656 00a4 FFF7FEFF 		bl	chThdResumeI
 2657              	.LVL249:
 2658              	.LBE658:
 2659              	.LBE660:
 2660              	.LBB661:
 2661              	.LBB662:
 2662              	.LBB663:
 2663              	.LBB664:
 2664              	.LBB665:
 2665              	.LBB666:
 2666              		.loc 2 546 0
 2667 00a8 0023     		movs	r3, #0
 2668              		.syntax unified
 2669              	@ 546 "/home/selim/working/ChibiOS/os/ext/CMSIS/include/core_cmFunc.h" 1
 2670 00aa 83F31188 		MSR basepri, r3
 2671              	@ 0 "" 2
 2672              	.LVL250:
 2673              		.thumb
 2674              		.syntax unified
 2675 00ae BDE8F081 		pop	{r4, r5, r6, r7, r8, pc}
 2676              	.LVL251:
 2677              	.L234:
 2678              	.LBE666:
 2679              	.LBE665:
ARM GAS  /tmp/ccigORce.s 			page 48


 2680              	.LBE664:
 2681              	.LBE663:
 2682              	.LBE662:
 2683              	.LBE661:
 2684              	.LBB667:
 2685              		.loc 1 559 0
 2686 00b2 3B89     		ldrh	r3, [r7, #8]
 2687              	.LVL252:
 2688 00b4 D1F80880 		ldr	r8, [r1, #8]
 2689 00b8 0122     		movs	r2, #1
 2690 00ba B240     		lsls	r2, r2, r6
 2691 00bc 23EA0203 		bic	r3, r3, r2
 2692 00c0 3B81     		strh	r3, [r7, #8]	@ movhi
 2693 00c2 3146     		mov	r1, r6
 2694              	.LVL253:
 2695 00c4 3846     		mov	r0, r7
 2696 00c6 C047     		blx	r8
 2697              	.LVL254:
 2698 00c8 ABE7     		b	.L233
 2699              	.L252:
 2700 00ca 00BF     		.align	2
 2701              	.L251:
 2702 00cc 00000000 		.word	.LANCHOR0
 2703 00d0 60000000 		.word	.LANCHOR0+96
 2704              	.LBE667:
 2705              		.cfi_endproc
 2706              	.LFE301:
 2707              		.size	otg_epin_handler.constprop.8, .-otg_epin_handler.constprop.8
 2708              		.section	.text.Vector14C,"ax",%progbits
 2709              		.align	1
 2710              		.p2align 4,,15
 2711              		.global	Vector14C
 2712              		.syntax unified
 2713              		.thumb
 2714              		.thumb_func
 2715              		.fpu softvfp
 2716              		.type	Vector14C, %function
 2717              	Vector14C:
 2718              	.LFB275:
 2719              		.loc 1 706 0
 2720              		.cfi_startproc
 2721              		@ args = 0, pretend = 0, frame = 0
 2722              		@ frame_needed = 0, uses_anonymous_args = 0
 2723              	.LVL255:
 2724 0000 70B5     		push	{r4, r5, r6, lr}
 2725              		.cfi_def_cfa_offset 16
 2726              		.cfi_offset 4, -16
 2727              		.cfi_offset 5, -12
 2728              		.cfi_offset 6, -8
 2729              		.cfi_offset 14, -4
 2730              	.LBB684:
 2731              	.LBB685:
 2732              		.loc 1 624 0
 2733 0002 3A4D     		ldr	r5, .L322
 2734 0004 2E6D     		ldr	r6, [r5, #80]
 2735              	.LVL256:
 2736              		.loc 1 627 0
ARM GAS  /tmp/ccigORce.s 			page 49


 2737 0006 7469     		ldr	r4, [r6, #20]
 2738              	.LVL257:
 2739              		.loc 1 628 0
 2740 0008 B369     		ldr	r3, [r6, #24]
 2741 000a 1C40     		ands	r4, r4, r3
 2742              	.LVL258:
 2743              		.loc 1 632 0
 2744 000c E104     		lsls	r1, r4, #19
 2745              		.loc 1 629 0
 2746 000e 7461     		str	r4, [r6, #20]
 2747              		.loc 1 632 0
 2748 0010 2DD4     		bmi	.L312
 2749              	.L255:
 2750              		.loc 1 638 0
 2751 0012 A204     		lsls	r2, r4, #18
 2752              		.loc 1 639 0
 2753 0014 48BF     		it	mi
 2754 0016 D6F80838 		ldrmi	r3, [r6, #2056]
 2755              		.loc 1 643 0
 2756 001a 2307     		lsls	r3, r4, #28
 2757 001c 04D5     		bpl	.L258
 2758              		.loc 1 644 0
 2759 001e 6B68     		ldr	r3, [r5, #4]
 2760 0020 DB68     		ldr	r3, [r3, #12]
 2761 0022 0BB1     		cbz	r3, .L258
 2762 0024 3148     		ldr	r0, .L322
 2763 0026 9847     		blx	r3
 2764              	.LVL259:
 2765              	.L258:
 2766              		.loc 1 648 0
 2767 0028 E506     		lsls	r5, r4, #27
 2768 002a 2BD4     		bmi	.L313
 2769              	.L259:
 2770              		.loc 1 659 0
 2771 002c 6003     		lsls	r0, r4, #13
 2772              		.loc 1 658 0
 2773 002e D6F81858 		ldr	r5, [r6, #2072]
 2774              	.LVL260:
 2775              		.loc 1 659 0
 2776 0032 07D5     		bpl	.L261
 2777              		.loc 1 660 0
 2778 0034 E907     		lsls	r1, r5, #31
 2779 0036 45D4     		bmi	.L314
 2780              		.loc 1 662 0
 2781 0038 AA07     		lsls	r2, r5, #30
 2782 003a 48D4     		bmi	.L315
 2783              	.L263:
 2784              		.loc 1 664 0
 2785 003c 6B07     		lsls	r3, r5, #29
 2786 003e 4BD4     		bmi	.L316
 2787              	.L264:
 2788              		.loc 1 666 0
 2789 0040 2E07     		lsls	r6, r5, #28
 2790              	.LVL261:
 2791 0042 4ED4     		bmi	.L317
 2792              	.L261:
 2793              		.loc 1 675 0
ARM GAS  /tmp/ccigORce.s 			page 50


 2794 0044 2403     		lsls	r4, r4, #12
 2795              	.LVL262:
 2796 0046 07D5     		bpl	.L267
 2797              		.loc 1 676 0
 2798 0048 E803     		lsls	r0, r5, #15
 2799 004a 30D4     		bmi	.L318
 2800              		.loc 1 678 0
 2801 004c A903     		lsls	r1, r5, #14
 2802 004e 33D4     		bmi	.L319
 2803              	.L269:
 2804              		.loc 1 680 0
 2805 0050 6A03     		lsls	r2, r5, #13
 2806 0052 26D4     		bmi	.L320
 2807              	.L270:
 2808              		.loc 1 682 0
 2809 0054 2B03     		lsls	r3, r5, #12
 2810 0056 03D4     		bmi	.L321
 2811              	.L267:
 2812              	.LVL263:
 2813              	.LBE685:
 2814              	.LBE684:
 2815              		.loc 1 713 0
 2816 0058 BDE87040 		pop	{r4, r5, r6, lr}
 2817              		.cfi_remember_state
 2818              		.cfi_restore 14
 2819              		.cfi_restore 6
 2820              		.cfi_restore 5
 2821              		.cfi_restore 4
 2822              		.cfi_def_cfa_offset 0
 2823              		.loc 1 712 0
 2824 005c FFF7FEBF 		b	_port_irq_epilogue
 2825              	.LVL264:
 2826              	.L321:
 2827              		.cfi_restore_state
 2828              	.LBB704:
 2829              	.LBB702:
 2830              		.loc 1 683 0
 2831 0060 0320     		movs	r0, #3
 2832 0062 FFF7FEFF 		bl	otg_epout_handler.constprop.7
 2833              	.LVL265:
 2834              	.LBE702:
 2835              	.LBE704:
 2836              		.loc 1 713 0
 2837 0066 BDE87040 		pop	{r4, r5, r6, lr}
 2838              		.cfi_remember_state
 2839              		.cfi_restore 4
 2840              		.cfi_restore 5
 2841              		.cfi_restore 6
 2842              		.cfi_restore 14
 2843              		.cfi_def_cfa_offset 0
 2844              		.loc 1 712 0
 2845 006a FFF7FEBF 		b	_port_irq_epilogue
 2846              	.LVL266:
 2847              	.L312:
 2848              		.cfi_restore_state
 2849              	.LBB705:
 2850              	.LBB703:
ARM GAS  /tmp/ccigORce.s 			page 51


 2851              		.loc 1 633 0
 2852 006e 2846     		mov	r0, r5
 2853 0070 FFF7FEFF 		bl	_usb_reset
 2854              	.LVL267:
 2855              		.loc 1 634 0
 2856 0074 6B68     		ldr	r3, [r5, #4]
 2857 0076 1B68     		ldr	r3, [r3]
 2858 0078 002B     		cmp	r3, #0
 2859 007a CAD0     		beq	.L255
 2860 007c 0021     		movs	r1, #0
 2861 007e 2846     		mov	r0, r5
 2862 0080 9847     		blx	r3
 2863              	.LVL268:
 2864 0082 C6E7     		b	.L255
 2865              	.L313:
 2866              	.LVL269:
 2867              	.LBB686:
 2868              	.LBB687:
 2869              	.LBB688:
 2870              	.LBB689:
 2871              	.LBB690:
 2872              	.LBB691:
 2873              		.loc 2 546 0
 2874 0084 2023     		movs	r3, #32
 2875              		.syntax unified
 2876              	@ 546 "/home/selim/working/ChibiOS/os/ext/CMSIS/include/core_cmFunc.h" 1
 2877 0086 83F31188 		MSR basepri, r3
 2878              	@ 0 "" 2
 2879              	.LVL270:
 2880              		.thumb
 2881              		.syntax unified
 2882              	.LBE691:
 2883              	.LBE690:
 2884              	.LBE689:
 2885              	.LBE688:
 2886              	.LBE687:
 2887              	.LBE686:
 2888              		.loc 1 652 0
 2889 008a B369     		ldr	r3, [r6, #24]
 2890              	.LBB692:
 2891              	.LBB693:
 2892              		.loc 3 682 0
 2893 008c 1848     		ldr	r0, .L322+4
 2894              	.LBE693:
 2895              	.LBE692:
 2896              		.loc 1 652 0
 2897 008e 23F01003 		bic	r3, r3, #16
 2898 0092 B361     		str	r3, [r6, #24]
 2899              	.LVL271:
 2900              	.LBB695:
 2901              	.LBB694:
 2902              		.loc 3 682 0
 2903 0094 0021     		movs	r1, #0
 2904 0096 FFF7FEFF 		bl	chThdResumeI
 2905              	.LVL272:
 2906              	.LBE694:
 2907              	.LBE695:
ARM GAS  /tmp/ccigORce.s 			page 52


 2908              	.LBB696:
 2909              	.LBB697:
 2910              	.LBB698:
 2911              	.LBB699:
 2912              	.LBB700:
 2913              	.LBB701:
 2914              		.loc 2 546 0
 2915 009a 0023     		movs	r3, #0
 2916              		.syntax unified
 2917              	@ 546 "/home/selim/working/ChibiOS/os/ext/CMSIS/include/core_cmFunc.h" 1
 2918 009c 83F31188 		MSR basepri, r3
 2919              	@ 0 "" 2
 2920              	.LVL273:
 2921              		.thumb
 2922              		.syntax unified
 2923 00a0 C4E7     		b	.L259
 2924              	.LVL274:
 2925              	.L320:
 2926              	.LBE701:
 2927              	.LBE700:
 2928              	.LBE699:
 2929              	.LBE698:
 2930              	.LBE697:
 2931              	.LBE696:
 2932              		.loc 1 681 0
 2933 00a2 0220     		movs	r0, #2
 2934 00a4 FFF7FEFF 		bl	otg_epout_handler.constprop.7
 2935              	.LVL275:
 2936              		.loc 1 682 0
 2937 00a8 2B03     		lsls	r3, r5, #12
 2938 00aa D5D5     		bpl	.L267
 2939 00ac D8E7     		b	.L321
 2940              	.L318:
 2941              		.loc 1 677 0
 2942 00ae 0020     		movs	r0, #0
 2943 00b0 FFF7FEFF 		bl	otg_epout_handler.constprop.7
 2944              	.LVL276:
 2945              		.loc 1 678 0
 2946 00b4 A903     		lsls	r1, r5, #14
 2947 00b6 CBD5     		bpl	.L269
 2948              	.L319:
 2949              		.loc 1 679 0
 2950 00b8 0120     		movs	r0, #1
 2951 00ba FFF7FEFF 		bl	otg_epout_handler.constprop.7
 2952              	.LVL277:
 2953              		.loc 1 680 0
 2954 00be 6A03     		lsls	r2, r5, #13
 2955 00c0 C8D5     		bpl	.L270
 2956 00c2 EEE7     		b	.L320
 2957              	.LVL278:
 2958              	.L314:
 2959              		.loc 1 661 0
 2960 00c4 0020     		movs	r0, #0
 2961 00c6 FFF7FEFF 		bl	otg_epin_handler.constprop.8
 2962              	.LVL279:
 2963              		.loc 1 662 0
 2964 00ca AA07     		lsls	r2, r5, #30
ARM GAS  /tmp/ccigORce.s 			page 53


 2965 00cc B6D5     		bpl	.L263
 2966              	.L315:
 2967              		.loc 1 663 0
 2968 00ce 0120     		movs	r0, #1
 2969 00d0 FFF7FEFF 		bl	otg_epin_handler.constprop.8
 2970              	.LVL280:
 2971              		.loc 1 664 0
 2972 00d4 6B07     		lsls	r3, r5, #29
 2973 00d6 B3D5     		bpl	.L264
 2974              	.L316:
 2975              		.loc 1 665 0
 2976 00d8 0220     		movs	r0, #2
 2977 00da FFF7FEFF 		bl	otg_epin_handler.constprop.8
 2978              	.LVL281:
 2979              		.loc 1 666 0
 2980 00de 2E07     		lsls	r6, r5, #28
 2981              	.LVL282:
 2982 00e0 B0D5     		bpl	.L261
 2983              	.L317:
 2984              		.loc 1 667 0
 2985 00e2 0320     		movs	r0, #3
 2986 00e4 FFF7FEFF 		bl	otg_epin_handler.constprop.8
 2987              	.LVL283:
 2988 00e8 ACE7     		b	.L261
 2989              	.L323:
 2990 00ea 00BF     		.align	2
 2991              	.L322:
 2992 00ec 00000000 		.word	.LANCHOR0
 2993 00f0 60000000 		.word	.LANCHOR0+96
 2994              	.LBE703:
 2995              	.LBE705:
 2996              		.cfi_endproc
 2997              	.LFE275:
 2998              		.size	Vector14C, .-Vector14C
 2999              		.section	.text.usb_lld_start_out,"ax",%progbits
 3000              		.align	1
 3001              		.p2align 4,,15
 3002              		.global	usb_lld_start_out
 3003              		.syntax unified
 3004              		.thumb
 3005              		.thumb_func
 3006              		.fpu softvfp
 3007              		.type	usb_lld_start_out, %function
 3008              	usb_lld_start_out:
 3009              	.LFB288:
 3010              		.loc 1 1212 0
 3011              		.cfi_startproc
 3012              		@ args = 0, pretend = 0, frame = 0
 3013              		@ frame_needed = 0, uses_anonymous_args = 0
 3014              		@ link register save eliminated.
 3015              	.LVL284:
 3016 0000 036D     		ldr	r3, [r0, #80]
 3017 0002 03EB4111 		add	r1, r3, r1, lsl #5
 3018              	.LVL285:
 3019              		.loc 1 1214 0
 3020 0006 D1F8003B 		ldr	r3, [r1, #2816]
 3021 000a 43F08063 		orr	r3, r3, #67108864
ARM GAS  /tmp/ccigORce.s 			page 54


 3022 000e C1F8003B 		str	r3, [r1, #2816]
 3023 0012 7047     		bx	lr
 3024              		.cfi_endproc
 3025              	.LFE288:
 3026              		.size	usb_lld_start_out, .-usb_lld_start_out
 3027              		.section	.text.usb_lld_start_in,"ax",%progbits
 3028              		.align	1
 3029              		.p2align 4,,15
 3030              		.global	usb_lld_start_in
 3031              		.syntax unified
 3032              		.thumb
 3033              		.thumb_func
 3034              		.fpu softvfp
 3035              		.type	usb_lld_start_in, %function
 3036              	usb_lld_start_in:
 3037              	.LFB289:
 3038              		.loc 1 1225 0
 3039              		.cfi_startproc
 3040              		@ args = 0, pretend = 0, frame = 0
 3041              		@ frame_needed = 0, uses_anonymous_args = 0
 3042              		@ link register save eliminated.
 3043              	.LVL286:
 3044              		.loc 1 1227 0
 3045 0000 026D     		ldr	r2, [r0, #80]
 3046              		.loc 1 1225 0
 3047 0002 10B4     		push	{r4}
 3048              		.cfi_def_cfa_offset 4
 3049              		.cfi_offset 4, -4
 3050 0004 02EB4114 		add	r4, r2, r1, lsl #5
 3051              		.loc 1 1228 0
 3052 0008 0123     		movs	r3, #1
 3053              		.loc 1 1227 0
 3054 000a D4F80009 		ldr	r0, [r4, #2304]
 3055              	.LVL287:
 3056 000e 40F00440 		orr	r0, r0, #-2080374784
 3057 0012 C4F80009 		str	r0, [r4, #2304]
 3058              		.loc 1 1228 0
 3059 0016 D2F83408 		ldr	r0, [r2, #2100]
 3060              		.loc 1 1229 0
 3061 001a 10BC     		pop	{r4}
 3062              		.cfi_restore 4
 3063              		.cfi_def_cfa_offset 0
 3064              		.loc 1 1228 0
 3065 001c 03FA01F1 		lsl	r1, r3, r1
 3066              	.LVL288:
 3067 0020 0143     		orrs	r1, r1, r0
 3068 0022 C2F83418 		str	r1, [r2, #2100]
 3069              		.loc 1 1229 0
 3070 0026 7047     		bx	lr
 3071              		.cfi_endproc
 3072              	.LFE289:
 3073              		.size	usb_lld_start_in, .-usb_lld_start_in
 3074              		.section	.text.usb_lld_stall_out,"ax",%progbits
 3075              		.align	1
 3076              		.p2align 4,,15
 3077              		.global	usb_lld_stall_out
 3078              		.syntax unified
ARM GAS  /tmp/ccigORce.s 			page 55


 3079              		.thumb
 3080              		.thumb_func
 3081              		.fpu softvfp
 3082              		.type	usb_lld_stall_out, %function
 3083              	usb_lld_stall_out:
 3084              	.LFB290:
 3085              		.loc 1 1239 0
 3086              		.cfi_startproc
 3087              		@ args = 0, pretend = 0, frame = 0
 3088              		@ frame_needed = 0, uses_anonymous_args = 0
 3089              		@ link register save eliminated.
 3090              	.LVL289:
 3091 0000 036D     		ldr	r3, [r0, #80]
 3092 0002 03EB4111 		add	r1, r3, r1, lsl #5
 3093              	.LVL290:
 3094              		.loc 1 1241 0
 3095 0006 D1F8003B 		ldr	r3, [r1, #2816]
 3096 000a 43F40013 		orr	r3, r3, #2097152
 3097 000e C1F8003B 		str	r3, [r1, #2816]
 3098 0012 7047     		bx	lr
 3099              		.cfi_endproc
 3100              	.LFE290:
 3101              		.size	usb_lld_stall_out, .-usb_lld_stall_out
 3102              		.section	.text.usb_lld_stall_in,"ax",%progbits
 3103              		.align	1
 3104              		.p2align 4,,15
 3105              		.global	usb_lld_stall_in
 3106              		.syntax unified
 3107              		.thumb
 3108              		.thumb_func
 3109              		.fpu softvfp
 3110              		.type	usb_lld_stall_in, %function
 3111              	usb_lld_stall_in:
 3112              	.LFB291:
 3113              		.loc 1 1252 0
 3114              		.cfi_startproc
 3115              		@ args = 0, pretend = 0, frame = 0
 3116              		@ frame_needed = 0, uses_anonymous_args = 0
 3117              		@ link register save eliminated.
 3118              	.LVL291:
 3119 0000 036D     		ldr	r3, [r0, #80]
 3120 0002 03EB4111 		add	r1, r3, r1, lsl #5
 3121              	.LVL292:
 3122              		.loc 1 1254 0
 3123 0006 D1F80039 		ldr	r3, [r1, #2304]
 3124 000a 43F40013 		orr	r3, r3, #2097152
 3125 000e C1F80039 		str	r3, [r1, #2304]
 3126 0012 7047     		bx	lr
 3127              		.cfi_endproc
 3128              	.LFE291:
 3129              		.size	usb_lld_stall_in, .-usb_lld_stall_in
 3130              		.section	.text.usb_lld_clear_out,"ax",%progbits
 3131              		.align	1
 3132              		.p2align 4,,15
 3133              		.global	usb_lld_clear_out
 3134              		.syntax unified
 3135              		.thumb
ARM GAS  /tmp/ccigORce.s 			page 56


 3136              		.thumb_func
 3137              		.fpu softvfp
 3138              		.type	usb_lld_clear_out, %function
 3139              	usb_lld_clear_out:
 3140              	.LFB292:
 3141              		.loc 1 1265 0
 3142              		.cfi_startproc
 3143              		@ args = 0, pretend = 0, frame = 0
 3144              		@ frame_needed = 0, uses_anonymous_args = 0
 3145              		@ link register save eliminated.
 3146              	.LVL293:
 3147 0000 036D     		ldr	r3, [r0, #80]
 3148 0002 03EB4111 		add	r1, r3, r1, lsl #5
 3149              	.LVL294:
 3150              		.loc 1 1267 0
 3151 0006 D1F8003B 		ldr	r3, [r1, #2816]
 3152 000a 23F40013 		bic	r3, r3, #2097152
 3153 000e C1F8003B 		str	r3, [r1, #2816]
 3154 0012 7047     		bx	lr
 3155              		.cfi_endproc
 3156              	.LFE292:
 3157              		.size	usb_lld_clear_out, .-usb_lld_clear_out
 3158              		.section	.text.usb_lld_clear_in,"ax",%progbits
 3159              		.align	1
 3160              		.p2align 4,,15
 3161              		.global	usb_lld_clear_in
 3162              		.syntax unified
 3163              		.thumb
 3164              		.thumb_func
 3165              		.fpu softvfp
 3166              		.type	usb_lld_clear_in, %function
 3167              	usb_lld_clear_in:
 3168              	.LFB293:
 3169              		.loc 1 1278 0
 3170              		.cfi_startproc
 3171              		@ args = 0, pretend = 0, frame = 0
 3172              		@ frame_needed = 0, uses_anonymous_args = 0
 3173              		@ link register save eliminated.
 3174              	.LVL295:
 3175 0000 036D     		ldr	r3, [r0, #80]
 3176 0002 03EB4111 		add	r1, r3, r1, lsl #5
 3177              	.LVL296:
 3178              		.loc 1 1280 0
 3179 0006 D1F80039 		ldr	r3, [r1, #2304]
 3180 000a 23F40013 		bic	r3, r3, #2097152
 3181 000e C1F80039 		str	r3, [r1, #2304]
 3182 0012 7047     		bx	lr
 3183              		.cfi_endproc
 3184              	.LFE293:
 3185              		.size	usb_lld_clear_in, .-usb_lld_clear_in
 3186              		.global	USBD1
 3187              		.section	.bss.USBD1,"aw",%nobits
 3188              		.align	3
 3189              		.set	.LANCHOR0,. + 0
 3190              		.type	USBD1, %object
 3191              		.size	USBD1, 432
 3192              	USBD1:
ARM GAS  /tmp/ccigORce.s 			page 57


 3193 0000 00000000 		.space	432
 3193      00000000 
 3193      00000000 
 3193      00000000 
 3193      00000000 
 3194              		.section	.bss.ep0_state,"aw",%nobits
 3195              		.align	2
 3196              		.type	ep0_state, %object
 3197              		.size	ep0_state, 20
 3198              	ep0_state:
 3199 0000 00000000 		.space	20
 3199      00000000 
 3199      00000000 
 3199      00000000 
 3199      00000000 
 3200              		.section	.bss.ep0setup_buffer,"aw",%nobits
 3201              		.align	2
 3202              		.type	ep0setup_buffer, %object
 3203              		.size	ep0setup_buffer, 8
 3204              	ep0setup_buffer:
 3205 0000 00000000 		.space	8
 3205      00000000 
 3206              		.section	.rodata.ep0config,"a",%progbits
 3207              		.align	2
 3208              		.set	.LANCHOR2,. + 0
 3209              		.type	ep0config, %object
 3210              		.size	ep0config, 36
 3211              	ep0config:
 3212 0000 00000000 		.word	0
 3213 0004 00000000 		.word	_usb_ep0setup
 3214 0008 00000000 		.word	_usb_ep0in
 3215 000c 00000000 		.word	_usb_ep0out
 3216 0010 4000     		.short	64
 3217 0012 4000     		.short	64
 3218 0014 00000000 		.word	ep0_state
 3219 0018 00000000 		.word	ep0_state
 3220 001c 0100     		.short	1
 3221 001e 0000     		.space	2
 3222 0020 00000000 		.word	ep0setup_buffer
 3223              		.section	.rodata.fsparams,"a",%progbits
 3224              		.align	2
 3225              		.set	.LANCHOR1,. + 0
 3226              		.type	fsparams, %object
 3227              		.size	fsparams, 12
 3228              	fsparams:
 3229 0000 80000000 		.word	128
 3230 0004 40010000 		.word	320
 3231 0008 03000000 		.word	3
 3232              		.section	.rodata.usb_lld_pump.str1.4,"aMS",%progbits,1
 3233              		.align	2
 3234              	.LC0:
 3235 0000 7573625F 		.ascii	"usb_lld_pump\000"
 3235      6C6C645F 
 3235      70756D70 
 3235      00
 3236              		.text
 3237              	.Letext0:
ARM GAS  /tmp/ccigORce.s 			page 58


 3238              		.file 5 "/usr/lib/gcc/arm-none-eabi/6.2.1/include/stddef.h"
 3239              		.file 6 "/usr/arm-none-eabi/include/machine/_default_types.h"
 3240              		.file 7 "/usr/arm-none-eabi/include/sys/lock.h"
 3241              		.file 8 "/usr/arm-none-eabi/include/sys/_types.h"
 3242              		.file 9 "/usr/arm-none-eabi/include/sys/reent.h"
 3243              		.file 10 "/usr/arm-none-eabi/include/sys/_stdint.h"
 3244              		.file 11 "/home/selim/working/ChibiOS/os/rt/ports/ARMCMx/compilers/GCC/chtypes.h"
 3245              		.file 12 "/home/selim/working/ChibiOS/os/rt/include/chsystypes.h"
 3246              		.file 13 "/home/selim/working/ChibiOS/os/rt/include/chschd.h"
 3247              		.file 14 "/home/selim/working/ChibiOS/os/ext/CMSIS/include/core_cm4.h"
 3248              		.file 15 "/home/selim/working/ChibiOS/os/ext/CMSIS/ST/system_stm32f4xx.h"
 3249              		.file 16 "/home/selim/working/ChibiOS/os/ext/CMSIS/ST/stm32f407xx.h"
 3250              		.file 17 "/home/selim/working/ChibiOS/os/rt/ports/ARMCMx/chcore.h"
 3251              		.file 18 "/home/selim/working/ChibiOS/os/rt/ports/ARMCMx/chcore_v7m.h"
 3252              		.file 19 "/home/selim/working/ChibiOS/os/hal/ports/STM32/LLD/TIMv1/stm32_tim.h"
 3253              		.file 20 "/home/selim/working/ChibiOS/os/rt/include/chtm.h"
 3254              		.file 21 "/home/selim/working/ChibiOS/os/rt/include/chsem.h"
 3255              		.file 22 "/home/selim/working/ChibiOS/os/rt/include/chmtx.h"
 3256              		.file 23 "/home/selim/working/ChibiOS/os/rt/include/chregistry.h"
 3257              		.file 24 "/home/selim/working/ChibiOS/os/rt/include/chevents.h"
 3258              		.file 25 "/home/selim/working/ChibiOS/os/rt/include/chqueues.h"
 3259              		.file 26 "/home/selim/working/ChibiOS/os/hal/ports/STM32/STM32F4xx/stm32_dma.h"
 3260              		.file 27 "/home/selim/working/ChibiOS/os/hal/ports/STM32/LLD/GPIOv2/pal_lld.h"
 3261              		.file 28 "/home/selim/working/ChibiOS/os/hal/include/adc.h"
 3262              		.file 29 "/home/selim/working/ChibiOS/os/hal/ports/STM32/STM32F4xx/adc_lld.h"
 3263              		.file 30 "/home/selim/working/ChibiOS/os/hal/include/gpt.h"
 3264              		.file 31 "/home/selim/working/ChibiOS/os/hal/ports/STM32/LLD/TIMv1/gpt_lld.h"
 3265              		.file 32 "/home/selim/working/ChibiOS/os/hal/include/pwm.h"
 3266              		.file 33 "/home/selim/working/ChibiOS/os/hal/ports/STM32/LLD/TIMv1/pwm_lld.h"
 3267              		.file 34 "/home/selim/working/ChibiOS/os/hal/include/serial.h"
 3268              		.file 35 "/home/selim/working/ChibiOS/os/hal/ports/STM32/LLD/USARTv1/serial_lld.h"
 3269              		.file 36 "/home/selim/working/ChibiOS/os/hal/include/spi.h"
 3270              		.file 37 "/home/selim/working/ChibiOS/os/hal/ports/STM32/LLD/SPIv1/spi_lld.h"
 3271              		.file 38 "/home/selim/working/ChibiOS/os/hal/include/usb.h"
 3272              		.file 39 "/home/selim/working/ChibiOS/os/hal/ports/STM32/LLD/OTGv1/usb_lld.h"
 3273              		.file 40 "/home/selim/working/ChibiOS/os/hal/ports/STM32/LLD/OTGv1/stm32_otg.h"
 3274              		.file 41 "/home/selim/working/ChibiOS/os/rt/include/chsys.h"
 3275              		.file 42 "/home/selim/working/ChibiOS/os/hal/ports/common/ARMCMx/nvic.h"