ARM GAS  /tmp/ccigORce.s 			page 1


   1              		.cpu cortex-m4
   2              		.eabi_attribute 20, 1
   3              		.eabi_attribute 21, 1
   4              		.eabi_attribute 23, 3
   5              		.eabi_attribute 24, 1
   6              		.eabi_attribute 25, 1
   7              		.eabi_attribute 26, 1
   8              		.eabi_attribute 30, 2
   9              		.eabi_attribute 34, 1
  10              		.eabi_attribute 18, 4
  11              		.file	"usb_lld.c"
  12              		.text
  13              	.Ltext0:
  14              		.cfi_sections	.debug_frame
  15              		.section	.text.usb_lld_pump,"ax",%progbits
  16              		.align	1
  17              		.p2align 4,,15
  18              		.global	usb_lld_pump
  19              		.syntax unified
  20              		.thumb
  21              		.thumb_func
  22              		.fpu softvfp
  23              		.type	usb_lld_pump, %function
  24              	usb_lld_pump:
  25              	.LFB294:
  26              		.file 1 "/home/selim/working/ChibiOS/os/hal/ports/STM32/LLD/OTGv1/usb_lld.c"
  27              		.loc 1 1294 0
  28              		.cfi_startproc
  29              		@ args = 0, pretend = 0, frame = 24
  30              		@ frame_needed = 0, uses_anonymous_args = 0
  31              	.LVL0:
  32 0000 2DE9F04F 		push	{r4, r5, r6, r7, r8, r9, r10, fp, lr}
  33              		.cfi_def_cfa_offset 36
  34              		.cfi_offset 4, -36
  35              		.cfi_offset 5, -32
  36              		.cfi_offset 6, -28
  37              		.cfi_offset 7, -24
  38              		.cfi_offset 8, -20
  39              		.cfi_offset 9, -16
  40              		.cfi_offset 10, -12
  41              		.cfi_offset 11, -8
  42              		.cfi_offset 14, -4
  43              		.loc 1 1299 0
  44 0004 A84B     		ldr	r3, .L108
  45 0006 A949     		ldr	r1, .L108+4
  46 0008 9A69     		ldr	r2, [r3, #24]
  47              	.LVL1:
  48              		.loc 1 1296 0
  49 000a 076D     		ldr	r7, [r0, #80]
  50              	.LVL2:
  51              		.loc 1 1299 0
  52 000c 9161     		str	r1, [r2, #24]
  53              	.LVL3:
  54              		.loc 1 1294 0
  55 000e 87B0     		sub	sp, sp, #28
  56              		.cfi_def_cfa_offset 64
  57              	.LBB418:
ARM GAS  /tmp/ccigORce.s 			page 2


  58              	.LBB419:
  59              	.LBB420:
  60              	.LBB421:
  61              	.LBB422:
  62              		.file 2 "/home/selim/working/ChibiOS/os/ext/CMSIS/include/core_cmFunc.h"
  63              		.loc 2 546 0
  64 0010 2023     		movs	r3, #32
  65              		.syntax unified
  66              	@ 546 "/home/selim/working/ChibiOS/os/ext/CMSIS/include/core_cmFunc.h" 1
  67 0012 83F31188 		MSR basepri, r3
  68              	@ 0 "" 2
  69              	.LVL4:
  70              		.thumb
  71              		.syntax unified
  72 0016 00F16003 		add	r3, r0, #96
  73 001a 0593     		str	r3, [sp, #20]
  74 001c 8146     		mov	r9, r0
  75 001e BA46     		mov	r10, r7
  76              	.LVL5:
  77              	.L60:
  78              	.LBE422:
  79              	.LBE421:
  80              	.LBE420:
  81              	.LBE419:
  82              	.LBE418:
  83              	.LBB423:
  84              		.loc 1 1307 0
  85 0020 99F80030 		ldrb	r3, [r9]	@ zero_extendqisi2
  86 0024 012B     		cmp	r3, #1
  87 0026 06D0     		beq	.L2
  88              		.loc 1 1307 0 is_stmt 0 discriminator 1
  89 0028 D9F85C30 		ldr	r3, [r9, #92]
  90 002c 63B9     		cbnz	r3, .L3
  91              		.loc 1 1308 0 is_stmt 1
  92 002e DAF81430 		ldr	r3, [r10, #20]
  93 0032 DB06     		lsls	r3, r3, #27
  94 0034 08D4     		bmi	.L3
  95              	.L2:
  96              		.loc 1 1309 0
  97 0036 DAF81830 		ldr	r3, [r10, #24]
  98              	.LBB424:
  99              	.LBB425:
 100              		.file 3 "/home/selim/working/ChibiOS/os/hal/osal/rt/osal.h"
 101              		.loc 3 642 0
 102 003a 0598     		ldr	r0, [sp, #20]
 103              	.LBE425:
 104              	.LBE424:
 105              		.loc 1 1309 0
 106 003c 43F01003 		orr	r3, r3, #16
 107 0040 CAF81830 		str	r3, [r10, #24]
 108              	.LBB427:
 109              	.LBB426:
 110              		.loc 3 642 0
 111 0044 FFF7FEFF 		bl	chThdSuspendS
 112              	.LVL6:
 113              	.L3:
 114              	.LBE426:
ARM GAS  /tmp/ccigORce.s 			page 3


 115              	.LBE427:
 116              	.LBB428:
 117              	.LBB429:
 118              	.LBB430:
 119              	.LBB431:
 120              	.LBB432:
 121              	.LBB433:
 122              		.loc 2 546 0
 123 0048 0026     		movs	r6, #0
 124              		.syntax unified
 125              	@ 546 "/home/selim/working/ChibiOS/os/ext/CMSIS/include/core_cmFunc.h" 1
 126 004a 86F31188 		MSR basepri, r6
 127              	@ 0 "" 2
 128              	.LVL7:
 129              		.thumb
 130              		.syntax unified
 131 004e B346     		mov	fp, r6
 132              	.LVL8:
 133              	.L5:
 134              	.LBE433:
 135              	.LBE432:
 136              	.LBE431:
 137              	.LBE430:
 138              	.LBE429:
 139              	.LBE428:
 140              		.loc 1 1318 0
 141 0050 DAF81430 		ldr	r3, [r10, #20]
 142 0054 13F01003 		ands	r3, r3, #16
 143 0058 35D0     		beq	.L98
 144              	.L30:
 145              	.LVL9:
 146              	.LBB434:
 147              	.LBB435:
 148              		.loc 1 437 0
 149 005a D9F85010 		ldr	r1, [r9, #80]
 150 005e 0B6A     		ldr	r3, [r1, #32]
 151              	.LVL10:
 152              		.loc 1 438 0
 153 0060 03F4F012 		and	r2, r3, #1966080
 154 0064 B2F5802F 		cmp	r2, #262144
 155 0068 43D0     		beq	.L6
 156 006a B2F5402F 		cmp	r2, #786432
 157 006e EFD1     		bne	.L5
 158              	.LVL11:
 159              		.loc 1 443 0
 160 0070 03F00F02 		and	r2, r3, #15
 161              	.LVL12:
 162              		.loc 1 444 0
 163 0074 09EB8202 		add	r2, r9, r2, lsl #2
 164              	.LVL13:
 165              		.loc 1 442 0
 166 0078 C3F30A13 		ubfx	r3, r3, #4, #11
 167              	.LVL14:
 168              		.loc 1 444 0
 169 007c D268     		ldr	r2, [r2, #12]
 170              	.LBB436:
 171              	.LBB437:
ARM GAS  /tmp/ccigORce.s 			page 4


 172              		.loc 1 356 0
 173 007e 0333     		adds	r3, r3, #3
 174              		.loc 1 358 0
 175 0080 9B08     		lsrs	r3, r3, #2
 176              	.LBE437:
 177              	.LBE436:
 178              		.loc 1 444 0
 179 0082 126A     		ldr	r2, [r2, #32]
 180              	.LVL15:
 181              	.LBB445:
 182              	.LBB444:
 183              		.loc 1 358 0
 184 0084 E4D0     		beq	.L5
 185              	.LBB438:
 186              		.loc 1 359 0
 187 0086 01F58051 		add	r1, r1, #4096
 188              	.LVL16:
 189              	.LBE438:
 190              		.loc 1 358 0
 191 008a 5C1E     		subs	r4, r3, #1
 192              	.LBB439:
 193              		.loc 1 359 0
 194 008c 0868     		ldr	r0, [r1]
 195              	.LVL17:
 196              		.loc 1 363 0
 197 008e 42F8040B 		str	r0, [r2], #4
 198              	.LVL18:
 199              	.LBE439:
 200              		.loc 1 357 0
 201 0092 4FF00205 		mov	r5, #2
 202              	.LVL19:
 203              		.loc 1 358 0
 204 0096 DBD0     		beq	.L5
 205              	.LBB440:
 206              		.loc 1 360 0
 207 0098 012D     		cmp	r5, #1
 208              		.loc 1 359 0
 209 009a 0868     		ldr	r0, [r1]
 210              	.LVL20:
 211              		.loc 1 360 0
 212 009c 09D0     		beq	.L99
 213              	.LVL21:
 214              	.L61:
 215 009e 2346     		mov	r3, r4
 216              	.LBE440:
 217              		.loc 1 358 0
 218 00a0 5C1E     		subs	r4, r3, #1
 219              	.LVL22:
 220              	.LBB441:
 221              		.loc 1 365 0
 222 00a2 4FF00105 		mov	r5, #1
 223              	.LVL23:
 224              		.loc 1 363 0
 225 00a6 42F8040B 		str	r0, [r2], #4
 226              	.LVL24:
 227              	.LBE441:
 228              		.loc 1 358 0
ARM GAS  /tmp/ccigORce.s 			page 5


 229 00aa D1D0     		beq	.L5
 230              	.LBB442:
 231              		.loc 1 360 0
 232 00ac 012D     		cmp	r5, #1
 233              		.loc 1 359 0
 234 00ae 0868     		ldr	r0, [r1]
 235              	.LVL25:
 236              		.loc 1 360 0
 237 00b0 F5D1     		bne	.L61
 238              	.LVL26:
 239              	.L99:
 240              	.LBE442:
 241              		.loc 1 358 0
 242 00b2 023B     		subs	r3, r3, #2
 243              	.LVL27:
 244 00b4 CCD0     		beq	.L5
 245              	.LVL28:
 246              	.L12:
 247 00b6 013B     		subs	r3, r3, #1
 248              	.LVL29:
 249              	.LBB443:
 250              		.loc 1 359 0
 251 00b8 0A68     		ldr	r2, [r1]
 252              	.LVL30:
 253              	.LBE443:
 254              		.loc 1 358 0
 255 00ba FCD1     		bne	.L12
 256              	.LBE444:
 257              	.LBE445:
 258              	.LBE435:
 259              	.LBE434:
 260              		.loc 1 1318 0
 261 00bc DAF81430 		ldr	r3, [r10, #20]
 262 00c0 13F01003 		ands	r3, r3, #16
 263 00c4 C9D1     		bne	.L30
 264              	.LVL31:
 265              	.L98:
 266              		.loc 1 1323 0
 267 00c6 D9F85C20 		ldr	r2, [r9, #92]
 268              		.loc 1 1322 0
 269 00ca 0121     		movs	r1, #1
 270 00cc 01FA0BF1 		lsl	r1, r1, fp
 271              		.loc 1 1323 0
 272 00d0 1142     		tst	r1, r2
 273              		.loc 1 1322 0
 274 00d2 0391     		str	r1, [sp, #12]
 275              	.LVL32:
 276              		.loc 1 1323 0
 277 00d4 74D1     		bne	.L92
 278 00d6 0BF10103 		add	r3, fp, #1
 279 00da 0293     		str	r3, [sp, #8]
 280              	.LVL33:
 281              	.L31:
 282              		.loc 1 1315 0 discriminator 2
 283 00dc D9F85430 		ldr	r3, [r9, #84]
 284 00e0 9DF808B0 		ldrb	fp, [sp, #8]	@ zero_extendqisi2
 285              	.LVL34:
ARM GAS  /tmp/ccigORce.s 			page 6


 286 00e4 9B68     		ldr	r3, [r3, #8]
 287 00e6 9B45     		cmp	fp, r3
 288 00e8 B2D9     		bls	.L5
 289              	.LVL35:
 290              	.LBB472:
 291              	.LBB473:
 292              	.LBB474:
 293              	.LBB475:
 294              	.LBB476:
 295              		.loc 2 546 0
 296 00ea 2023     		movs	r3, #32
 297              		.syntax unified
 298              	@ 546 "/home/selim/working/ChibiOS/os/ext/CMSIS/include/core_cmFunc.h" 1
 299 00ec 83F31188 		MSR basepri, r3
 300              	@ 0 "" 2
 301              	.LVL36:
 302              		.thumb
 303              		.syntax unified
 304 00f0 96E7     		b	.L60
 305              	.LVL37:
 306              	.L6:
 307              	.LBE476:
 308              	.LBE475:
 309              	.LBE474:
 310              	.LBE473:
 311              	.LBE472:
 312              	.LBB477:
 313              	.LBB471:
 314              		.loc 1 449 0
 315 00f2 03F00F05 		and	r5, r3, #15
 316 00f6 09EB8505 		add	r5, r9, r5, lsl #2
 317              		.loc 1 448 0
 318 00fa C3F30A14 		ubfx	r4, r3, #4, #11
 319              	.LVL38:
 320              		.loc 1 450 0
 321 00fe EB68     		ldr	r3, [r5, #12]
 322              	.LVL39:
 323 0100 9869     		ldr	r0, [r3, #24]
 324 0102 0378     		ldrb	r3, [r0]	@ zero_extendqisi2
 325 0104 1BBB     		cbnz	r3, .L100
 326              		.loc 1 457 0
 327 0106 021D     		adds	r2, r0, #4
 328 0108 2CCA     		ldm	r2, {r2, r3, r5}
 329              	.LVL40:
 330              	.LBB446:
 331              	.LBB447:
 332              		.loc 1 357 0
 333 010a D61C     		adds	r6, r2, #3
 334              		.loc 1 356 0
 335 010c E21C     		adds	r2, r4, #3
 336              	.LVL41:
 337              		.loc 1 357 0
 338 010e F61A     		subs	r6, r6, r3
 339              		.loc 1 358 0
 340 0110 9208     		lsrs	r2, r2, #2
 341              		.loc 1 357 0
 342 0112 4FEA9606 		lsr	r6, r6, #2
ARM GAS  /tmp/ccigORce.s 			page 7


 343              	.LVL42:
 344              		.loc 1 358 0
 345 0116 15D0     		beq	.L27
 346              	.LBB448:
 347              		.loc 1 359 0
 348 0118 01F58051 		add	r1, r1, #4096
 349 011c D1F800E0 		ldr	lr, [r1]
 350              	.LVL43:
 351              		.loc 1 360 0
 352 0120 5EB1     		cbz	r6, .L25
 353 0122 961B     		subs	r6, r2, r6
 354              	.LVL44:
 355 0124 B446     		mov	ip, r6
 356 0126 2F46     		mov	r7, r5
 357 0128 7646     		mov	r6, lr
 358 012a E646     		mov	lr, ip
 359              	.LVL45:
 360              	.L26:
 361              	.LBE448:
 362              		.loc 1 358 0
 363 012c 013A     		subs	r2, r2, #1
 364              	.LVL46:
 365              	.LBB449:
 366              		.loc 1 363 0
 367 012e 47F8046B 		str	r6, [r7], #4
 368              	.LVL47:
 369              	.LBE449:
 370              		.loc 1 358 0
 371 0132 07D0     		beq	.L27
 372              	.LBB450:
 373              		.loc 1 360 0
 374 0134 7245     		cmp	r2, lr
 375              		.loc 1 359 0
 376 0136 0E68     		ldr	r6, [r1]
 377              	.LVL48:
 378              		.loc 1 360 0
 379 0138 F8D1     		bne	.L26
 380              	.LVL49:
 381              	.L25:
 382              	.LBE450:
 383              		.loc 1 358 0
 384 013a 013A     		subs	r2, r2, #1
 385              	.LVL50:
 386 013c 02D0     		beq	.L27
 387              	.LVL51:
 388              	.L28:
 389 013e 013A     		subs	r2, r2, #1
 390              	.LVL52:
 391              	.LBB451:
 392              		.loc 1 359 0
 393 0140 0E68     		ldr	r6, [r1]
 394              	.LVL53:
 395              	.LBE451:
 396              		.loc 1 358 0
 397 0142 FCD1     		bne	.L28
 398              	.L27:
 399              	.LBE447:
ARM GAS  /tmp/ccigORce.s 			page 8


 400              	.LBE446:
 401              		.loc 1 462 0
 402 0144 2544     		add	r5, r5, r4
 403 0146 C560     		str	r5, [r0, #12]
 404              	.L22:
 405              		.loc 1 464 0
 406 0148 2344     		add	r3, r3, r4
 407 014a 8360     		str	r3, [r0, #8]
 408 014c 80E7     		b	.L5
 409              	.L100:
 410              		.loc 1 452 0
 411 014e C068     		ldr	r0, [r0, #12]
 412              	.LVL54:
 413              	.LBB452:
 414              	.LBB453:
 415              		.loc 1 386 0
 416 0150 24B3     		cbz	r4, .L15
 417 0152 4269     		ldr	r2, [r0, #20]
 418 0154 01F58051 		add	r1, r1, #4096
 419              	.LVL55:
 420 0158 2746     		mov	r7, r4
 421              	.LVL56:
 422              	.L16:
 423              	.LBB454:
 424              		.loc 1 390 0
 425 015a 032F     		cmp	r7, #3
 426 015c 06D9     		bls	.L17
 427              	.LVL57:
 428              	.L101:
 429              	.LBB455:
 430              		.loc 1 396 0
 431 015e 0369     		ldr	r3, [r0, #16]
 432 0160 9342     		cmp	r3, r2
 433 0162 03D8     		bhi	.L17
 434              		.loc 1 397 0
 435 0164 C268     		ldr	r2, [r0, #12]
 436 0166 4261     		str	r2, [r0, #20]
 437              	.LVL58:
 438              	.LBE455:
 439              		.loc 1 390 0
 440 0168 032F     		cmp	r7, #3
 441 016a F8D8     		bhi	.L101
 442              	.LVL59:
 443              	.L17:
 444              		.loc 1 408 0
 445 016c D1F800E0 		ldr	lr, [r1]
 446              	.LVL60:
 447 0170 0023     		movs	r3, #0
 448              	.LVL61:
 449              	.L21:
 450              		.loc 1 411 0
 451 0172 2EFA03F6 		lsr	r6, lr, r3
 452 0176 02F1010C 		add	ip, r2, #1
 453 017a C0F814C0 		str	ip, [r0, #20]
 454 017e 1670     		strb	r6, [r2]
 455              		.loc 1 412 0
 456 0180 0269     		ldr	r2, [r0, #16]
ARM GAS  /tmp/ccigORce.s 			page 9


 457 0182 4669     		ldr	r6, [r0, #20]
 458 0184 9642     		cmp	r6, r2
 459              		.loc 1 413 0
 460 0186 24BF     		itt	cs
 461 0188 C268     		ldrcs	r2, [r0, #12]
 462 018a 4261     		strcs	r2, [r0, #20]
 463              		.loc 1 410 0
 464 018c 013F     		subs	r7, r7, #1
 465              	.LVL62:
 466 018e 03F10803 		add	r3, r3, #8
 467 0192 03D0     		beq	.L15
 468 0194 202B     		cmp	r3, #32
 469 0196 4269     		ldr	r2, [r0, #20]
 470 0198 EBD1     		bne	.L21
 471 019a DEE7     		b	.L16
 472              	.LVL63:
 473              	.L15:
 474              	.LBE454:
 475              	.LBB456:
 476              	.LBB457:
 477              	.LBB458:
 478              	.LBB459:
 479              	.LBB460:
 480              		.loc 2 546 0
 481 019c 2023     		movs	r3, #32
 482              		.syntax unified
 483              	@ 546 "/home/selim/working/ChibiOS/os/ext/CMSIS/include/core_cmFunc.h" 1
 484 019e 83F31188 		MSR basepri, r3
 485              	@ 0 "" 2
 486              	.LVL64:
 487              		.thumb
 488              		.syntax unified
 489              	.LBE460:
 490              	.LBE459:
 491              	.LBE458:
 492              	.LBE457:
 493              	.LBE456:
 494              		.loc 1 421 0
 495 01a2 8368     		ldr	r3, [r0, #8]
 496 01a4 2344     		add	r3, r3, r4
 497 01a6 8360     		str	r3, [r0, #8]
 498              	.LVL65:
 499              	.LBB461:
 500              	.LBB462:
 501              		.loc 3 764 0
 502 01a8 0021     		movs	r1, #0
 503 01aa FFF7FEFF 		bl	chThdDequeueAllI
 504              	.LVL66:
 505              	.LBE462:
 506              	.LBE461:
 507              	.LBB463:
 508              	.LBB464:
 509              		.loc 3 554 0
 510 01ae FFF7FEFF 		bl	chSchRescheduleS
 511              	.LVL67:
 512              	.LBE464:
 513              	.LBE463:
ARM GAS  /tmp/ccigORce.s 			page 10


 514              	.LBB465:
 515              	.LBB466:
 516              	.LBB467:
 517              	.LBB468:
 518              	.LBB469:
 519              	.LBB470:
 520              		.loc 2 546 0
 521 01b2 0023     		movs	r3, #0
 522              		.syntax unified
 523              	@ 546 "/home/selim/working/ChibiOS/os/ext/CMSIS/include/core_cmFunc.h" 1
 524 01b4 83F31188 		MSR basepri, r3
 525              	@ 0 "" 2
 526              	.LVL68:
 527              		.thumb
 528              		.syntax unified
 529 01b8 EB68     		ldr	r3, [r5, #12]
 530 01ba 9869     		ldr	r0, [r3, #24]
 531 01bc 8368     		ldr	r3, [r0, #8]
 532 01be C3E7     		b	.L22
 533              	.LVL69:
 534              	.L92:
 535              	.LBE470:
 536              	.LBE469:
 537              	.LBE468:
 538              	.LBE467:
 539              	.LBE466:
 540              	.LBE465:
 541              	.LBE453:
 542              	.LBE452:
 543              	.LBE471:
 544              	.LBE477:
 545              	.LBB478:
 546              	.LBB479:
 547              	.LBB480:
 548              	.LBB481:
 549              	.LBB482:
 550              	.LBB483:
 551 01c0 2022     		movs	r2, #32
 552              		.syntax unified
 553              	@ 546 "/home/selim/working/ChibiOS/os/ext/CMSIS/include/core_cmFunc.h" 1
 554 01c2 82F31188 		MSR basepri, r2
 555              	@ 0 "" 2
 556              	.LVL70:
 557              		.thumb
 558              		.syntax unified
 559              	.LBE483:
 560              	.LBE482:
 561              	.LBE481:
 562              	.LBE480:
 563              	.LBE479:
 564              		.loc 1 1334 0
 565 01c6 DAF80810 		ldr	r1, [r10, #8]
 566              	.LVL71:
 567              		.loc 1 1335 0
 568 01ca D9F85C20 		ldr	r2, [r9, #92]
 569 01ce 0398     		ldr	r0, [sp, #12]
 570              		.loc 1 1334 0
ARM GAS  /tmp/ccigORce.s 			page 11


 571 01d0 21F00101 		bic	r1, r1, #1
 572              		.loc 1 1335 0
 573 01d4 22EA0002 		bic	r2, r2, r0
 574              		.loc 1 1334 0
 575 01d8 CAF80810 		str	r1, [r10, #8]
 576              		.loc 1 1335 0
 577 01dc C9F85C20 		str	r2, [r9, #92]
 578              	.LVL72:
 579              	.LBB484:
 580              	.LBB485:
 581              	.LBB486:
 582              	.LBB487:
 583              	.LBB488:
 584              	.LBB489:
 585              		.loc 2 546 0
 586              		.syntax unified
 587              	@ 546 "/home/selim/working/ChibiOS/os/ext/CMSIS/include/core_cmFunc.h" 1
 588 01e0 83F31188 		MSR basepri, r3
 589              	@ 0 "" 2
 590              	.LVL73:
 591              		.thumb
 592              		.syntax unified
 593 01e4 09EB8B06 		add	r6, r9, fp, lsl #2
 594              	.LBE489:
 595              	.LBE488:
 596              	.LBE487:
 597              	.LBE486:
 598              	.LBE485:
 599              	.LBE484:
 600              	.LBB490:
 601              	.LBB491:
 602              		.loc 1 488 0
 603 01e8 F568     		ldr	r5, [r6, #12]
 604 01ea 6869     		ldr	r0, [r5, #20]
 605 01ec 8168     		ldr	r1, [r0, #8]
 606 01ee 4268     		ldr	r2, [r0, #4]
 607 01f0 8A42     		cmp	r2, r1
 608 01f2 40F2BF80 		bls	.L102
 609              		.loc 1 498 0
 610 01f6 D9F85040 		ldr	r4, [r9, #80]
 611              		.loc 1 493 0
 612 01fa 2D8A     		ldrh	r5, [r5, #16]
 613              		.loc 1 498 0
 614 01fc 4FEA4B17 		lsl	r7, fp, #5
 615 0200 04EB070E 		add	lr, r4, r7
 616              		.loc 1 492 0
 617 0204 521A     		subs	r2, r2, r1
 618              	.LVL74:
 619              		.loc 1 498 0
 620 0206 DEF81819 		ldr	r1, [lr, #2328]
 621 020a 0197     		str	r7, [sp, #4]
 622 020c 9542     		cmp	r5, r2
 623 020e 28BF     		it	cs
 624 0210 1546     		movcs	r5, r2
 625              	.LVL75:
 626 0212 8AB2     		uxth	r2, r1
 627 0214 B5EB820F 		cmp	r5, r2, lsl #2
ARM GAS  /tmp/ccigORce.s 			page 12


 628 0218 00F29F80 		bhi	.L103
 629 021c 0BF10102 		add	r2, fp, #1
 630 0220 0292     		str	r2, [sp, #8]
 631              	.LBB492:
 632              	.LBB493:
 633              	.LBB494:
 634              	.LBB495:
 635              		.loc 3 764 0
 636 0222 0493     		str	r3, [sp, #16]
 637 0224 4FEA0238 		lsl	r8, r2, #12
 638              	.L37:
 639              	.LBE495:
 640              	.LBE494:
 641              	.LBE493:
 642              	.LBE492:
 643              		.loc 1 505 0
 644 0228 0378     		ldrb	r3, [r0]	@ zero_extendqisi2
 645 022a 002B     		cmp	r3, #0
 646 022c 40D1     		bne	.L104
 647              	.LBB523:
 648              	.LBB524:
 649              		.loc 1 256 0
 650 022e EB1C     		adds	r3, r5, #3
 651              	.LBE524:
 652              	.LBE523:
 653              		.loc 1 513 0
 654 0230 D0F80CE0 		ldr	lr, [r0, #12]
 655              	.LBB531:
 656              	.LBB529:
 657              	.LBB525:
 658              	.LBB526:
 659              		.loc 1 233 0
 660 0234 9B08     		lsrs	r3, r3, #2
 661              	.LBE526:
 662              	.LBE525:
 663              	.LBE529:
 664              	.LBE531:
 665              		.loc 1 513 0
 666 0236 4444     		add	r4, r4, r8
 667              	.LVL76:
 668              	.LBB532:
 669              	.LBB530:
 670              	.LBB528:
 671              	.LBB527:
 672              		.loc 1 233 0
 673 0238 18BF     		it	ne
 674 023a 7246     		movne	r2, lr
 675 023c 04D0     		beq	.L56
 676              	.LVL77:
 677              	.L55:
 678              		.loc 1 236 0
 679 023e 52F8041B 		ldr	r1, [r2], #4
 680              	.LVL78:
 681 0242 2160     		str	r1, [r4]
 682              	.LVL79:
 683              		.loc 1 233 0
 684 0244 013B     		subs	r3, r3, #1
ARM GAS  /tmp/ccigORce.s 			page 13


 685              	.LVL80:
 686 0246 FAD1     		bne	.L55
 687              	.LVL81:
 688              	.L56:
 689              	.LBE527:
 690              	.LBE528:
 691              	.LBE530:
 692              	.LBE532:
 693              		.loc 1 516 0
 694 0248 0EEB0503 		add	r3, lr, r5
 695 024c C360     		str	r3, [r0, #12]
 696              	.L53:
 697              		.loc 1 521 0
 698 024e F168     		ldr	r1, [r6, #12]
 699 0250 4869     		ldr	r0, [r1, #20]
 700 0252 8368     		ldr	r3, [r0, #8]
 701              		.loc 1 488 0
 702 0254 4268     		ldr	r2, [r0, #4]
 703              		.loc 1 521 0
 704 0256 1D44     		add	r5, r5, r3
 705              	.LVL82:
 706              		.loc 1 488 0
 707 0258 AA42     		cmp	r2, r5
 708              		.loc 1 521 0
 709 025a 8560     		str	r5, [r0, #8]
 710              		.loc 1 488 0
 711 025c 7BD9     		bls	.L105
 712              		.loc 1 498 0
 713 025e 019B     		ldr	r3, [sp, #4]
 714 0260 D9F85040 		ldr	r4, [r9, #80]
 715              		.loc 1 493 0
 716 0264 098A     		ldrh	r1, [r1, #16]
 717              		.loc 1 498 0
 718 0266 04EB030E 		add	lr, r4, r3
 719              		.loc 1 492 0
 720 026a 551B     		subs	r5, r2, r5
 721              	.LVL83:
 722              		.loc 1 498 0
 723 026c DEF81839 		ldr	r3, [lr, #2328]
 724 0270 8D42     		cmp	r5, r1
 725 0272 28BF     		it	cs
 726 0274 0D46     		movcs	r5, r1
 727              	.LVL84:
 728 0276 9BB2     		uxth	r3, r3
 729 0278 B5EB830F 		cmp	r5, r3, lsl #2
 730 027c D4D9     		bls	.L37
 731              		.loc 1 499 0
 732 027e 0022     		movs	r2, #0
 733              	.LVL85:
 734              	.L36:
 735              	.LBE491:
 736              	.LBE490:
 737              	.LBB535:
 738              	.LBB536:
 739              	.LBB537:
 740              	.LBB538:
 741              	.LBB539:
ARM GAS  /tmp/ccigORce.s 			page 14


 742              		.loc 2 546 0
 743 0280 2023     		movs	r3, #32
 744              		.syntax unified
 745              	@ 546 "/home/selim/working/ChibiOS/os/ext/CMSIS/include/core_cmFunc.h" 1
 746 0282 83F31188 		MSR basepri, r3
 747              	@ 0 "" 2
 748              	.LVL86:
 749              		.thumb
 750              		.syntax unified
 751              	.LBE539:
 752              	.LBE538:
 753              	.LBE537:
 754              	.LBE536:
 755              	.LBE535:
 756              		.loc 1 1341 0
 757 0286 DAF80830 		ldr	r3, [r10, #8]
 758 028a 43F00103 		orr	r3, r3, #1
 759 028e CAF80830 		str	r3, [r10, #8]
 760              		.loc 1 1342 0
 761 0292 2AB9     		cbnz	r2, .L33
 762              	.L35:
 763              		.loc 1 1343 0
 764 0294 DAF83438 		ldr	r3, [r10, #2100]
 765 0298 039A     		ldr	r2, [sp, #12]
 766 029a 1A43     		orrs	r2, r2, r3
 767 029c CAF83428 		str	r2, [r10, #2100]
 768              	.L33:
 769              	.LVL87:
 770              	.LBB548:
 771              	.LBB549:
 772              	.LBB550:
 773              	.LBB551:
 774              	.LBB552:
 775              	.LBB553:
 776              		.loc 2 546 0
 777 02a0 0023     		movs	r3, #0
 778              		.syntax unified
 779              	@ 546 "/home/selim/working/ChibiOS/os/ext/CMSIS/include/core_cmFunc.h" 1
 780 02a2 83F31188 		MSR basepri, r3
 781              	@ 0 "" 2
 782              	.LVL88:
 783              		.thumb
 784              		.syntax unified
 785 02a6 19E7     		b	.L31
 786              	.L109:
 787              		.align	2
 788              	.L108:
 789 02a8 00000000 		.word	ch
 790 02ac 00000000 		.word	.LC0
 791              	.LVL89:
 792              	.L104:
 793              	.LBE553:
 794              	.LBE552:
 795              	.LBE551:
 796              	.LBE550:
 797              	.LBE549:
 798              	.LBE548:
ARM GAS  /tmp/ccigORce.s 			page 15


 799              	.LBB554:
 800              	.LBB534:
 801              		.loc 1 507 0
 802 02b0 4444     		add	r4, r4, r8
 803 02b2 C068     		ldr	r0, [r0, #12]
 804              	.LVL90:
 805              	.LBB533:
 806              	.LBB522:
 807              		.loc 1 274 0
 808 02b4 FDB1     		cbz	r5, .L41
 809 02b6 D0F810E0 		ldr	lr, [r0, #16]
 810 02ba 2946     		mov	r1, r5
 811              	.LVL91:
 812              	.L40:
 813              	.LBB497:
 814              		.loc 1 278 0
 815 02bc 5FEA910C 		lsrs	ip, r1, #2
 816              	.LVL92:
 817 02c0 28D0     		beq	.L42
 818              	.LBB498:
 819              		.loc 1 280 0
 820 02c2 8369     		ldr	r3, [r0, #24]
 821              	.LVL93:
 822 02c4 BEEB0302 		subs	r2, lr, r3
 823 02c8 48BF     		it	mi
 824 02ca 0332     		addmi	r2, r2, #3
 825 02cc 9710     		asrs	r7, r2, #2
 826              		.loc 1 282 0
 827 02ce 6745     		cmp	r7, ip
 828 02d0 28BF     		it	cs
 829 02d2 6746     		movcs	r7, ip
 830              	.LVL94:
 831 02d4 BA00     		lsls	r2, r7, #2
 832 02d6 891A     		subs	r1, r1, r2
 833              	.LVL95:
 834              	.LBB499:
 835              	.LBB500:
 836              		.loc 1 233 0
 837 02d8 002F     		cmp	r7, #0
 838 02da 3AD0     		beq	.L63
 839 02dc 1A44     		add	r2, r2, r3
 840              	.LVL96:
 841              	.L45:
 842              		.loc 1 236 0
 843 02de 53F8047B 		ldr	r7, [r3], #4
 844              	.LVL97:
 845 02e2 2760     		str	r7, [r4]
 846              	.LVL98:
 847              		.loc 1 233 0
 848 02e4 9342     		cmp	r3, r2
 849 02e6 FAD1     		bne	.L45
 850              	.L44:
 851              	.LVL99:
 852              	.LBE500:
 853              	.LBE499:
 854              		.loc 1 284 0
 855 02e8 9645     		cmp	lr, r2
ARM GAS  /tmp/ccigORce.s 			page 16


 856              		.loc 1 283 0
 857 02ea 8261     		str	r2, [r0, #24]
 858              	.LVL100:
 859              		.loc 1 284 0
 860 02ec 2CD8     		bhi	.L46
 861              		.loc 1 285 0
 862 02ee C368     		ldr	r3, [r0, #12]
 863 02f0 8361     		str	r3, [r0, #24]
 864              	.LBE498:
 865              	.LBE497:
 866              		.loc 1 274 0
 867 02f2 0029     		cmp	r1, #0
 868 02f4 E2D1     		bne	.L40
 869              	.LVL101:
 870              	.L41:
 871              	.LBB507:
 872              	.LBB508:
 873              	.LBB509:
 874              	.LBB510:
 875              	.LBB511:
 876              		.loc 2 546 0
 877 02f6 2023     		movs	r3, #32
 878              		.syntax unified
 879              	@ 546 "/home/selim/working/ChibiOS/os/ext/CMSIS/include/core_cmFunc.h" 1
 880 02f8 83F31188 		MSR basepri, r3
 881              	@ 0 "" 2
 882              	.LVL102:
 883              		.thumb
 884              		.syntax unified
 885              	.LBE511:
 886              	.LBE510:
 887              	.LBE509:
 888              	.LBE508:
 889              	.LBE507:
 890              		.loc 1 310 0
 891 02fc 8368     		ldr	r3, [r0, #8]
 892 02fe 2B44     		add	r3, r3, r5
 893 0300 8360     		str	r3, [r0, #8]
 894              	.LVL103:
 895              	.LBB512:
 896              	.LBB496:
 897              		.loc 3 764 0
 898 0302 0021     		movs	r1, #0
 899 0304 FFF7FEFF 		bl	chThdDequeueAllI
 900              	.LVL104:
 901              	.LBE496:
 902              	.LBE512:
 903              	.LBB513:
 904              	.LBB514:
 905              		.loc 3 554 0
 906 0308 FFF7FEFF 		bl	chSchRescheduleS
 907              	.LVL105:
 908              	.LBE514:
 909              	.LBE513:
 910              	.LBB515:
 911              	.LBB516:
 912              	.LBB517:
ARM GAS  /tmp/ccigORce.s 			page 17


 913              	.LBB518:
 914              	.LBB519:
 915              	.LBB520:
 916              		.loc 2 546 0
 917 030c 049B     		ldr	r3, [sp, #16]
 918              		.syntax unified
 919              	@ 546 "/home/selim/working/ChibiOS/os/ext/CMSIS/include/core_cmFunc.h" 1
 920 030e 83F31188 		MSR basepri, r3
 921              	@ 0 "" 2
 922              	.LVL106:
 923              		.thumb
 924              		.syntax unified
 925 0312 9CE7     		b	.L53
 926              	.LVL107:
 927              	.L42:
 928 0314 8269     		ldr	r2, [r0, #24]
 929              	.L48:
 930              	.LVL108:
 931              	.LBE520:
 932              	.LBE519:
 933              	.LBE518:
 934              	.LBE517:
 935              	.LBE516:
 936              	.LBE515:
 937              	.LBB521:
 938              	.LBB505:
 939              	.LBB503:
 940              	.LBB501:
 941              		.loc 1 233 0
 942 0316 0023     		movs	r3, #0
 943 0318 1F46     		mov	r7, r3
 944              	.LVL109:
 945              	.L51:
 946              	.LBE501:
 947              	.LBE503:
 948              	.LBE505:
 949              		.loc 1 299 0
 950 031a 02F1010C 		add	ip, r2, #1
 951 031e C0F818C0 		str	ip, [r0, #24]
 952 0322 1278     		ldrb	r2, [r2]	@ zero_extendqisi2
 953              		.loc 1 300 0
 954 0324 E645     		cmp	lr, ip
 955              		.loc 1 299 0
 956 0326 02FA03F2 		lsl	r2, r2, r3
 957 032a 47EA0207 		orr	r7, r7, r2
 958              	.LVL110:
 959              		.loc 1 301 0
 960 032e 9CBF     		itt	ls
 961 0330 C268     		ldrls	r2, [r0, #12]
 962 0332 8261     		strls	r2, [r0, #24]
 963              		.loc 1 298 0
 964 0334 0139     		subs	r1, r1, #1
 965              	.LVL111:
 966              		.loc 1 299 0
 967 0336 03F10803 		add	r3, r3, #8
 968              	.LVL112:
 969              		.loc 1 298 0
ARM GAS  /tmp/ccigORce.s 			page 18


 970 033a 08D0     		beq	.L106
 971 033c 202B     		cmp	r3, #32
 972 033e 01D0     		beq	.L107
 973 0340 8269     		ldr	r2, [r0, #24]
 974 0342 EAE7     		b	.L51
 975              	.L107:
 976              		.loc 1 305 0
 977 0344 2760     		str	r7, [r4]
 978 0346 B9E7     		b	.L40
 979              	.LVL113:
 980              	.L46:
 981              		.loc 1 292 0
 982 0348 0029     		cmp	r1, #0
 983 034a E4D1     		bne	.L48
 984 034c D3E7     		b	.L41
 985              	.LVL114:
 986              	.L106:
 987              		.loc 1 305 0
 988 034e 2760     		str	r7, [r4]
 989 0350 D1E7     		b	.L41
 990              	.LVL115:
 991              	.L63:
 992              	.LBB506:
 993              	.LBB504:
 994              	.LBB502:
 995              		.loc 1 233 0
 996 0352 1A46     		mov	r2, r3
 997 0354 C8E7     		b	.L44
 998              	.LVL116:
 999              	.L105:
 1000              	.LBE502:
 1001              	.LBE504:
 1002              	.LBE506:
 1003              	.LBE521:
 1004              	.LBE522:
 1005              	.LBE533:
 1006              		.loc 1 489 0
 1007 0356 0122     		movs	r2, #1
 1008 0358 92E7     		b	.L36
 1009              	.LVL117:
 1010              	.L103:
 1011              	.LBE534:
 1012              	.LBE554:
 1013              	.LBB555:
 1014              	.LBB546:
 1015              	.LBB544:
 1016              	.LBB542:
 1017              	.LBB540:
 1018              		.loc 2 546 0
 1019 035a 2023     		movs	r3, #32
 1020              		.syntax unified
 1021              	@ 546 "/home/selim/working/ChibiOS/os/ext/CMSIS/include/core_cmFunc.h" 1
 1022 035c 83F31188 		MSR basepri, r3
 1023              	@ 0 "" 2
 1024              	.LVL118:
 1025              		.thumb
 1026              		.syntax unified
ARM GAS  /tmp/ccigORce.s 			page 19


 1027              	.LBE540:
 1028              	.LBE542:
 1029              	.LBE544:
 1030              	.LBE546:
 1031              	.LBE555:
 1032              		.loc 1 1341 0
 1033 0360 DAF80830 		ldr	r3, [r10, #8]
 1034 0364 0BF10102 		add	r2, fp, #1
 1035 0368 43F00103 		orr	r3, r3, #1
 1036 036c 0292     		str	r2, [sp, #8]
 1037 036e CAF80830 		str	r3, [r10, #8]
 1038 0372 8FE7     		b	.L35
 1039              	.LVL119:
 1040              	.L102:
 1041              	.LBB556:
 1042              	.LBB547:
 1043              	.LBB545:
 1044              	.LBB543:
 1045              	.LBB541:
 1046              		.loc 2 546 0
 1047 0374 2023     		movs	r3, #32
 1048              		.syntax unified
 1049              	@ 546 "/home/selim/working/ChibiOS/os/ext/CMSIS/include/core_cmFunc.h" 1
 1050 0376 83F31188 		MSR basepri, r3
 1051              	@ 0 "" 2
 1052              	.LVL120:
 1053              		.thumb
 1054              		.syntax unified
 1055              	.LBE541:
 1056              	.LBE543:
 1057              	.LBE545:
 1058              	.LBE547:
 1059              	.LBE556:
 1060              		.loc 1 1341 0
 1061 037a DAF80830 		ldr	r3, [r10, #8]
 1062 037e 0BF10102 		add	r2, fp, #1
 1063 0382 43F00103 		orr	r3, r3, #1
 1064 0386 0292     		str	r2, [sp, #8]
 1065 0388 CAF80830 		str	r3, [r10, #8]
 1066 038c 88E7     		b	.L33
 1067              	.LBE478:
 1068              	.LBE423:
 1069              		.cfi_endproc
 1070              	.LFE294:
 1071              		.size	usb_lld_pump, .-usb_lld_pump
 1072 038e 00BF     		.section	.text.otg_disable_ep.isra.0,"ax",%progbits
 1073              		.align	1
 1074              		.p2align 4,,15
 1075              		.syntax unified
 1076              		.thumb
 1077              		.thumb_func
 1078              		.fpu softvfp
 1079              		.type	otg_disable_ep.isra.0, %function
 1080              	otg_disable_ep.isra.0:
 1081              	.LFB295:
 1082              		.loc 1 132 0
 1083              		.cfi_startproc
ARM GAS  /tmp/ccigORce.s 			page 20


 1084              		@ args = 0, pretend = 0, frame = 0
 1085              		@ frame_needed = 0, uses_anonymous_args = 0
 1086 0000 F0B5     		push	{r4, r5, r6, r7, lr}
 1087              		.cfi_def_cfa_offset 20
 1088              		.cfi_offset 4, -20
 1089              		.cfi_offset 5, -16
 1090              		.cfi_offset 6, -12
 1091              		.cfi_offset 7, -8
 1092              		.cfi_offset 14, -4
 1093              		.loc 1 136 0
 1094 0002 0024     		movs	r4, #0
 1095              	.LVL121:
 1096 0004 D1F808E0 		ldr	lr, [r1, #8]
 1097              		.loc 1 147 0
 1098 0008 2546     		mov	r5, r4
 1099              		.loc 1 141 0
 1100 000a 4FF0804C 		mov	ip, #1073741824
 1101              		.loc 1 149 0
 1102 000e 4FF0FF37 		mov	r7, #-1
 1103 0012 14E0     		b	.L117
 1104              	.LVL122:
 1105              	.L111:
 1106              		.loc 1 147 0
 1107 0014 C1F80059 		str	r5, [r1, #2304]
 1108              	.L113:
 1109              		.loc 1 148 0
 1110 0018 C218     		adds	r2, r0, r3
 1111 001a C2F81059 		str	r5, [r2, #2320]
 1112              		.loc 1 149 0
 1113 001e C2F80879 		str	r7, [r2, #2312]
 1114              		.loc 1 155 0
 1115 0022 D1F8006B 		ldr	r6, [r1, #2816]
 1116 0026 002E     		cmp	r6, #0
 1117 0028 17DB     		blt	.L124
 1118              		.loc 1 162 0
 1119 002a C1F8005B 		str	r5, [r1, #2816]
 1120              	.L116:
 1121              		.loc 1 163 0
 1122 002e 0344     		add	r3, r3, r0
 1123              		.loc 1 136 0
 1124 0030 0134     		adds	r4, r4, #1
 1125              	.LVL123:
 1126 0032 7445     		cmp	r4, lr
 1127              		.loc 1 163 0
 1128 0034 C3F8105B 		str	r5, [r3, #2832]
 1129              		.loc 1 164 0
 1130 0038 C3F8087B 		str	r7, [r3, #2824]
 1131              		.loc 1 136 0
 1132 003c 14D8     		bhi	.L125
 1133              	.LVL124:
 1134              	.L117:
 1135 003e 6301     		lsls	r3, r4, #5
 1136 0040 C118     		adds	r1, r0, r3
 1137              		.loc 1 140 0
 1138 0042 D1F80029 		ldr	r2, [r1, #2304]
 1139 0046 002A     		cmp	r2, #0
 1140 0048 E4DA     		bge	.L111
ARM GAS  /tmp/ccigORce.s 			page 21


 1141              		.loc 1 141 0
 1142 004a C1F800C9 		str	ip, [r1, #2304]
 1143              		.loc 1 143 0
 1144 004e 0E46     		mov	r6, r1
 1145              	.L112:
 1146 0050 D6F80829 		ldr	r2, [r6, #2312]
 1147 0054 9207     		lsls	r2, r2, #30
 1148 0056 FBD5     		bpl	.L112
 1149 0058 DEE7     		b	.L113
 1150              	.L124:
 1151              		.loc 1 156 0
 1152 005a C1F800CB 		str	ip, [r1, #2816]
 1153              	.L115:
 1154              		.loc 1 158 0
 1155 005e D2F8081B 		ldr	r1, [r2, #2824]
 1156 0062 C906     		lsls	r1, r1, #27
 1157 0064 FBD5     		bpl	.L115
 1158 0066 E2E7     		b	.L116
 1159              	.L125:
 1160              		.loc 1 166 0
 1161 0068 4FF00113 		mov	r3, #65537
 1162 006c C0F81C38 		str	r3, [r0, #2076]
 1163 0070 F0BD     		pop	{r4, r5, r6, r7, pc}
 1164              		.cfi_endproc
 1165              	.LFE295:
 1166              		.size	otg_disable_ep.isra.0, .-otg_disable_ep.isra.0
 1167 0072 00BF     		.section	.text.usb_lld_init,"ax",%progbits
 1168              		.align	1
 1169              		.p2align 4,,15
 1170              		.global	usb_lld_init
 1171              		.syntax unified
 1172              		.thumb
 1173              		.thumb_func
 1174              		.fpu softvfp
 1175              		.type	usb_lld_init, %function
 1176              	usb_lld_init:
 1177              	.LFB276:
 1178              		.loc 1 744 0
 1179              		.cfi_startproc
 1180              		@ args = 0, pretend = 0, frame = 0
 1181              		@ frame_needed = 0, uses_anonymous_args = 0
 1182 0000 10B5     		push	{r4, lr}
 1183              		.cfi_def_cfa_offset 8
 1184              		.cfi_offset 4, -8
 1185              		.cfi_offset 14, -4
 1186              		.loc 1 748 0
 1187 0002 064C     		ldr	r4, .L128
 1188 0004 2046     		mov	r0, r4
 1189 0006 FFF7FEFF 		bl	usbObjectInit
 1190              	.LVL125:
 1191              		.loc 1 750 0
 1192 000a 4FF0A043 		mov	r3, #1342177280
 1193              		.loc 1 751 0
 1194 000e 044A     		ldr	r2, .L128+4
 1195              		.loc 1 750 0
 1196 0010 2365     		str	r3, [r4, #80]
 1197              		.loc 1 749 0
ARM GAS  /tmp/ccigORce.s 			page 22


 1198 0012 0023     		movs	r3, #0
 1199              		.loc 1 751 0
 1200 0014 6265     		str	r2, [r4, #84]
 1201              		.loc 1 749 0
 1202 0016 2366     		str	r3, [r4, #96]
 1203              		.loc 1 754 0
 1204 0018 6366     		str	r3, [r4, #100]
 1205 001a 10BD     		pop	{r4, pc}
 1206              	.L129:
 1207              		.align	2
 1208              	.L128:
 1209 001c 00000000 		.word	.LANCHOR0
 1210 0020 00000000 		.word	.LANCHOR1
 1211              		.cfi_endproc
 1212              	.LFE276:
 1213              		.size	usb_lld_init, .-usb_lld_init
 1214              		.section	.text.usb_lld_start,"ax",%progbits
 1215              		.align	1
 1216              		.p2align 4,,15
 1217              		.global	usb_lld_start
 1218              		.syntax unified
 1219              		.thumb
 1220              		.thumb_func
 1221              		.fpu softvfp
 1222              		.type	usb_lld_start, %function
 1223              	usb_lld_start:
 1224              	.LFB277:
 1225              		.loc 1 806 0
 1226              		.cfi_startproc
 1227              		@ args = 0, pretend = 0, frame = 0
 1228              		@ frame_needed = 0, uses_anonymous_args = 0
 1229              	.LVL126:
 1230              		.loc 1 809 0
 1231 0000 0378     		ldrb	r3, [r0]	@ zero_extendqisi2
 1232 0002 012B     		cmp	r3, #1
 1233 0004 00D0     		beq	.L145
 1234 0006 7047     		bx	lr
 1235              	.L145:
 1236              		.loc 1 806 0
 1237 0008 70B5     		push	{r4, r5, r6, lr}
 1238              		.cfi_def_cfa_offset 16
 1239              		.cfi_offset 4, -16
 1240              		.cfi_offset 5, -12
 1241              		.cfi_offset 6, -8
 1242              		.cfi_offset 14, -4
 1243              		.loc 1 812 0
 1244 000a 314B     		ldr	r3, .L149
 1245              		.loc 1 807 0
 1246 000c 066D     		ldr	r6, [r0, #80]
 1247              		.loc 1 812 0
 1248 000e 9842     		cmp	r0, r3
 1249              		.loc 1 806 0
 1250 0010 82B0     		sub	sp, sp, #8
 1251              		.cfi_def_cfa_offset 24
 1252 0012 0546     		mov	r5, r0
 1253              		.loc 1 807 0
 1254 0014 18BF     		it	ne
ARM GAS  /tmp/ccigORce.s 			page 23


 1255 0016 3446     		movne	r4, r6
 1256              		.loc 1 812 0
 1257 0018 3AD0     		beq	.L146
 1258              	.LVL127:
 1259              	.L132:
 1260              		.loc 1 836 0
 1261 001a 0023     		movs	r3, #0
 1262              		.loc 1 841 0
 1263 001c 2D48     		ldr	r0, .L149+4
 1264              		.loc 1 844 0
 1265 001e 2E49     		ldr	r1, .L149+8
 1266              		.loc 1 836 0
 1267 0020 EB65     		str	r3, [r5, #92]
 1268              		.loc 1 854 0
 1269 0022 4FF45022 		mov	r2, #851968
 1270              		.loc 1 841 0
 1271 0026 F060     		str	r0, [r6, #12]
 1272              		.loc 1 844 0
 1273 0028 C6F80018 		str	r1, [r6, #2048]
 1274              	.LBB565:
 1275              	.LBB566:
 1276              	.LBB567:
 1277              	.LBB568:
 1278              		.loc 3 527 0
 1279 002c 2020     		movs	r0, #32
 1280              	.LBE568:
 1281              	.LBE567:
 1282              	.LBE566:
 1283              	.LBE565:
 1284              		.loc 1 847 0
 1285 002e C6F8003E 		str	r3, [r6, #3584]
 1286              		.loc 1 854 0
 1287 0032 B263     		str	r2, [r6, #56]
 1288              	.LVL128:
 1289              	.LBB574:
 1290              	.LBB573:
 1291              	.LBB570:
 1292              	.LBB569:
 1293              		.loc 3 527 0
 1294 0034 FFF7FEFF 		bl	chSysPolledDelayX
 1295              	.LVL129:
 1296              	.LBE569:
 1297              	.LBE570:
 1298              		.loc 1 121 0
 1299 0038 0123     		movs	r3, #1
 1300 003a 2361     		str	r3, [r4, #16]
 1301              	.L133:
 1302              		.loc 1 122 0
 1303 003c 2369     		ldr	r3, [r4, #16]
 1304 003e DB07     		lsls	r3, r3, #31
 1305 0040 FCD4     		bmi	.L133
 1306              	.LVL130:
 1307              	.LBB571:
 1308              	.LBB572:
 1309              		.loc 3 527 0
 1310 0042 0C20     		movs	r0, #12
 1311 0044 FFF7FEFF 		bl	chSysPolledDelayX
ARM GAS  /tmp/ccigORce.s 			page 24


 1312              	.LVL131:
 1313              	.L134:
 1314              	.LBE572:
 1315              	.LBE571:
 1316              		.loc 1 128 0
 1317 0048 2369     		ldr	r3, [r4, #16]
 1318 004a 002B     		cmp	r3, #0
 1319 004c FCDA     		bge	.L134
 1320              	.LBE573:
 1321              	.LBE574:
 1322              		.loc 1 861 0
 1323 004e 0024     		movs	r4, #0
 1324 0050 B460     		str	r4, [r6, #8]
 1325              		.loc 1 864 0
 1326 0052 696D     		ldr	r1, [r5, #84]
 1327 0054 286D     		ldr	r0, [r5, #80]
 1328 0056 FFF7FEFF 		bl	otg_disable_ep.isra.0
 1329              	.LVL132:
 1330              		.loc 1 871 0
 1331 005a 6B68     		ldr	r3, [r5, #4]
 1332              		.loc 1 868 0
 1333 005c C6F81048 		str	r4, [r6, #2064]
 1334              		.loc 1 871 0
 1335 0060 DB68     		ldr	r3, [r3, #12]
 1336              		.loc 1 869 0
 1337 0062 C6F81448 		str	r4, [r6, #2068]
 1338              		.loc 1 870 0
 1339 0066 C6F81C48 		str	r4, [r6, #2076]
 1340              		.loc 1 871 0
 1341 006a 6BB1     		cbz	r3, .L147
 1342              		.loc 1 875 0
 1343 006c 43F20803 		movw	r3, #12296
 1344 0070 B361     		str	r3, [r6, #24]
 1345              	.L136:
 1346              		.loc 1 881 0
 1347 0072 6B6E     		ldr	r3, [r5, #100]
 1348              		.loc 1 877 0
 1349 0074 4FF0FF32 		mov	r2, #-1
 1350 0078 7261     		str	r2, [r6, #20]
 1351              		.loc 1 881 0
 1352 007a D3B1     		cbz	r3, .L148
 1353              	.L137:
 1354              		.loc 1 891 0
 1355 007c B368     		ldr	r3, [r6, #8]
 1356 007e 43F00103 		orr	r3, r3, #1
 1357 0082 B360     		str	r3, [r6, #8]
 1358              		.loc 1 893 0
 1359 0084 02B0     		add	sp, sp, #8
 1360              		.cfi_remember_state
 1361              		.cfi_def_cfa_offset 16
 1362              		@ sp needed
 1363 0086 70BD     		pop	{r4, r5, r6, pc}
 1364              	.LVL133:
 1365              	.L147:
 1366              		.cfi_restore_state
 1367              		.loc 1 872 0
 1368 0088 4FF44053 		mov	r3, #12288
ARM GAS  /tmp/ccigORce.s 			page 25


 1369 008c B361     		str	r3, [r6, #24]
 1370 008e F0E7     		b	.L136
 1371              	.LVL134:
 1372              	.L146:
 1373              		.loc 1 814 0
 1374 0090 124B     		ldr	r3, .L149+12
 1375 0092 5A6B     		ldr	r2, [r3, #52]
 1376 0094 42F08002 		orr	r2, r2, #128
 1377 0098 5A63     		str	r2, [r3, #52]
 1378              		.loc 1 815 0
 1379 009a 5A69     		ldr	r2, [r3, #20]
 1380 009c 0020     		movs	r0, #0
 1381              	.LVL135:
 1382 009e 42F08002 		orr	r2, r2, #128
 1383 00a2 5A61     		str	r2, [r3, #20]
 1384              		.loc 1 818 0
 1385 00a4 0E21     		movs	r1, #14
 1386              		.loc 1 815 0
 1387 00a6 5861     		str	r0, [r3, #20]
 1388              		.loc 1 818 0
 1389 00a8 4320     		movs	r0, #67
 1390 00aa FFF7FEFF 		bl	nvicEnableVector
 1391              	.LVL136:
 1392 00ae 2C6D     		ldr	r4, [r5, #80]
 1393 00b0 B3E7     		b	.L132
 1394              	.LVL137:
 1395              	.L148:
 1396              		.loc 1 882 0
 1397 00b2 0B4B     		ldr	r3, .L149+16
 1398 00b4 0095     		str	r5, [sp]
 1399 00b6 0222     		movs	r2, #2
 1400 00b8 4FF4A471 		mov	r1, #328
 1401 00bc 05F16800 		add	r0, r5, #104
 1402 00c0 FFF7FEFF 		bl	chThdCreateI
 1403              	.LVL138:
 1404 00c4 6866     		str	r0, [r5, #100]
 1405              	.LVL139:
 1406              	.LBB575:
 1407              	.LBB576:
 1408              		.file 4 "/home/selim/working/ChibiOS/os/rt/include/chthreads.h"
 1409              		.loc 4 249 0
 1410 00c6 FFF7FEFF 		bl	chSchReadyI
 1411              	.LVL140:
 1412              	.LBE576:
 1413              	.LBE575:
 1414              		.loc 1 886 0
 1415 00ca FFF7FEFF 		bl	chSchRescheduleS
 1416              	.LVL141:
 1417 00ce D5E7     		b	.L137
 1418              	.L150:
 1419              		.align	2
 1420              	.L149:
 1421 00d0 00000000 		.word	.LANCHOR0
 1422 00d4 40140040 		.word	1073747008
 1423 00d8 03002002 		.word	35651587
 1424 00dc 00380240 		.word	1073887232
 1425 00e0 00000000 		.word	usb_lld_pump
ARM GAS  /tmp/ccigORce.s 			page 26


 1426              		.cfi_endproc
 1427              	.LFE277:
 1428              		.size	usb_lld_start, .-usb_lld_start
 1429              		.section	.text.usb_lld_stop,"ax",%progbits
 1430              		.align	1
 1431              		.p2align 4,,15
 1432              		.global	usb_lld_stop
 1433              		.syntax unified
 1434              		.thumb
 1435              		.thumb_func
 1436              		.fpu softvfp
 1437              		.type	usb_lld_stop, %function
 1438              	usb_lld_stop:
 1439              	.LFB278:
 1440              		.loc 1 902 0
 1441              		.cfi_startproc
 1442              		@ args = 0, pretend = 0, frame = 0
 1443              		@ frame_needed = 0, uses_anonymous_args = 0
 1444              	.LVL142:
 1445 0000 38B5     		push	{r3, r4, r5, lr}
 1446              		.cfi_def_cfa_offset 16
 1447              		.cfi_offset 3, -16
 1448              		.cfi_offset 4, -12
 1449              		.cfi_offset 5, -8
 1450              		.cfi_offset 14, -4
 1451              		.loc 1 906 0
 1452 0002 0378     		ldrb	r3, [r0]	@ zero_extendqisi2
 1453 0004 012B     		cmp	r3, #1
 1454 0006 0BD0     		beq	.L151
 1455              		.loc 1 903 0
 1456 0008 056D     		ldr	r5, [r0, #80]
 1457              		.loc 1 910 0
 1458 000a 416D     		ldr	r1, [r0, #84]
 1459 000c 0446     		mov	r4, r0
 1460 000e 2846     		mov	r0, r5
 1461              	.LVL143:
 1462 0010 FFF7FEFF 		bl	otg_disable_ep.isra.0
 1463              	.LVL144:
 1464              		.loc 1 912 0
 1465 0014 0023     		movs	r3, #0
 1466 0016 E365     		str	r3, [r4, #92]
 1467              		.loc 1 914 0
 1468 0018 C5F81C38 		str	r3, [r5, #2076]
 1469              		.loc 1 915 0
 1470 001c AB60     		str	r3, [r5, #8]
 1471              		.loc 1 916 0
 1472 001e AB63     		str	r3, [r5, #56]
 1473              	.LVL145:
 1474              	.L151:
 1475 0020 38BD     		pop	{r3, r4, r5, pc}
 1476              		.cfi_endproc
 1477              	.LFE278:
 1478              		.size	usb_lld_stop, .-usb_lld_stop
 1479 0022 00BF     		.section	.text.usb_lld_reset,"ax",%progbits
 1480              		.align	1
 1481              		.p2align 4,,15
 1482              		.global	usb_lld_reset
ARM GAS  /tmp/ccigORce.s 			page 27


 1483              		.syntax unified
 1484              		.thumb
 1485              		.thumb_func
 1486              		.fpu softvfp
 1487              		.type	usb_lld_reset, %function
 1488              	usb_lld_reset:
 1489              	.LFB279:
 1490              		.loc 1 941 0
 1491              		.cfi_startproc
 1492              		@ args = 0, pretend = 0, frame = 0
 1493              		@ frame_needed = 0, uses_anonymous_args = 0
 1494              	.LVL146:
 1495 0000 F8B5     		push	{r3, r4, r5, r6, r7, lr}
 1496              		.cfi_def_cfa_offset 24
 1497              		.cfi_offset 3, -24
 1498              		.cfi_offset 4, -20
 1499              		.cfi_offset 5, -16
 1500              		.cfi_offset 6, -12
 1501              		.cfi_offset 7, -8
 1502              		.cfi_offset 14, -4
 1503              		.loc 1 943 0
 1504 0002 056D     		ldr	r5, [r0, #80]
 1505              	.LVL147:
 1506              	.LBB577:
 1507              	.LBB578:
 1508              		.loc 1 182 0
 1509 0004 2023     		movs	r3, #32
 1510              	.LBE578:
 1511              	.LBE577:
 1512              		.loc 1 941 0
 1513 0006 0746     		mov	r7, r0
 1514              	.LVL148:
 1515              	.LBB582:
 1516              	.LBB581:
 1517              		.loc 1 182 0
 1518 0008 2B61     		str	r3, [r5, #16]
 1519              	.L158:
 1520              		.loc 1 183 0
 1521 000a 2C69     		ldr	r4, [r5, #16]
 1522 000c 14F02004 		ands	r4, r4, #32
 1523 0010 FBD1     		bne	.L158
 1524              	.LVL149:
 1525              	.LBB579:
 1526              	.LBB580:
 1527              		.loc 3 527 0
 1528 0012 0C20     		movs	r0, #12
 1529              	.LVL150:
 1530 0014 FFF7FEFF 		bl	chSysPolledDelayX
 1531              	.LVL151:
 1532              	.LBE580:
 1533              	.LBE579:
 1534              	.LBE581:
 1535              	.LBE582:
 1536              		.loc 1 949 0
 1537 0018 D7F854E0 		ldr	lr, [r7, #84]
 1538 001c DEF80860 		ldr	r6, [lr, #8]
 1539 0020 2346     		mov	r3, r4
ARM GAS  /tmp/ccigORce.s 			page 28


 1540              		.loc 1 950 0
 1541 0022 4FF00060 		mov	r0, #134217728
 1542              		.loc 1 952 0
 1543 0026 FF21     		movs	r1, #255
 1544              	.LVL152:
 1545              	.L159:
 1546 0028 05EB4312 		add	r2, r5, r3, lsl #5
 1547              		.loc 1 949 0 discriminator 3
 1548 002c 0133     		adds	r3, r3, #1
 1549              	.LVL153:
 1550 002e B342     		cmp	r3, r6
 1551              		.loc 1 950 0 discriminator 3
 1552 0030 C2F80009 		str	r0, [r2, #2304]
 1553              		.loc 1 951 0 discriminator 3
 1554 0034 C2F8000B 		str	r0, [r2, #2816]
 1555              		.loc 1 952 0 discriminator 3
 1556 0038 C2F80819 		str	r1, [r2, #2312]
 1557              		.loc 1 953 0 discriminator 3
 1558 003c C2F8081B 		str	r1, [r2, #2824]
 1559              		.loc 1 949 0 discriminator 3
 1560 0040 F2D9     		bls	.L159
 1561              	.LBB583:
 1562              	.LBB584:
 1563              		.loc 1 198 0
 1564 0042 DEF80030 		ldr	r3, [lr]
 1565              	.LVL154:
 1566              	.LBE584:
 1567              	.LBE583:
 1568              		.loc 1 957 0
 1569 0046 4FF0FF32 		mov	r2, #-1
 1570              		.loc 1 958 0
 1571 004a 4FF00111 		mov	r1, #65537
 1572              		.loc 1 957 0
 1573 004e C5F81828 		str	r2, [r5, #2072]
 1574 0052 3A6D     		ldr	r2, [r7, #80]
 1575              		.loc 1 958 0
 1576 0054 C5F81C18 		str	r1, [r5, #2076]
 1577              	.LVL155:
 1578              	.LBB586:
 1579              	.LBB585:
 1580              		.loc 1 198 0
 1581 0058 BB65     		str	r3, [r7, #88]
 1582              	.LBE585:
 1583              	.LBE586:
 1584              		.loc 1 964 0
 1585 005a DEF80030 		ldr	r3, [lr]
 1586 005e 6B62     		str	r3, [r5, #36]
 1587              	.LBB587:
 1588              	.LBB588:
 1589              		.loc 1 172 0
 1590 0060 1023     		movs	r3, #16
 1591 0062 1361     		str	r3, [r2, #16]
 1592              	.L160:
 1593              		.loc 1 173 0
 1594 0064 1469     		ldr	r4, [r2, #16]
 1595 0066 14F01004 		ands	r4, r4, #16
 1596 006a FBD1     		bne	.L160
ARM GAS  /tmp/ccigORce.s 			page 29


 1597              	.LVL156:
 1598              	.LBB589:
 1599              	.LBB590:
 1600              		.loc 3 527 0
 1601 006c 0C20     		movs	r0, #12
 1602 006e FFF7FEFF 		bl	chSysPolledDelayX
 1603              	.LVL157:
 1604              	.LBE590:
 1605              	.LBE589:
 1606              	.LBE588:
 1607              	.LBE587:
 1608              		.loc 1 968 0
 1609 0072 D5F80038 		ldr	r3, [r5, #2048]
 1610              		.loc 1 978 0
 1611 0076 114A     		ldr	r2, .L165
 1612              		.loc 1 976 0
 1613 0078 1148     		ldr	r0, .L165+4
 1614              		.loc 1 968 0
 1615 007a 23F4FE63 		bic	r3, r3, #2032
 1616 007e C5F80038 		str	r3, [r5, #2048]
 1617              		.loc 1 971 0
 1618 0082 AB69     		ldr	r3, [r5, #24]
 1619 0084 43F44023 		orr	r3, r3, #786432
 1620 0088 43F01003 		orr	r3, r3, #16
 1621              		.loc 1 972 0
 1622 008c 0921     		movs	r1, #9
 1623              		.loc 1 971 0
 1624 008e AB61     		str	r3, [r5, #24]
 1625              		.loc 1 972 0
 1626 0090 C5F81018 		str	r1, [r5, #2064]
 1627              		.loc 1 973 0
 1628 0094 C5F81418 		str	r1, [r5, #2068]
 1629              		.loc 1 976 0
 1630 0098 F860     		str	r0, [r7, #12]
 1631              		.loc 1 977 0
 1632 009a C5F8104B 		str	r4, [r5, #2832]
 1633              		.loc 1 978 0
 1634 009e C5F8002B 		str	r2, [r5, #2816]
 1635              		.loc 1 980 0
 1636 00a2 C5F81049 		str	r4, [r5, #2320]
 1637              		.loc 1 981 0
 1638 00a6 C5F80029 		str	r2, [r5, #2304]
 1639              	.LVL158:
 1640              	.LBB591:
 1641              	.LBB592:
 1642              		.loc 1 212 0
 1643 00aa BB6D     		ldr	r3, [r7, #88]
 1644              	.LVL159:
 1645              		.loc 1 213 0
 1646 00ac 03F11002 		add	r2, r3, #16
 1647              	.LBE592:
 1648              	.LBE591:
 1649              		.loc 1 983 0
 1650 00b0 43F48013 		orr	r3, r3, #1048576
 1651              	.LVL160:
 1652              	.LBB594:
 1653              	.LBB593:
ARM GAS  /tmp/ccigORce.s 			page 30


 1654              		.loc 1 213 0
 1655 00b4 BA65     		str	r2, [r7, #88]
 1656              	.LVL161:
 1657              	.LBE593:
 1658              	.LBE594:
 1659              		.loc 1 983 0
 1660 00b6 AB62     		str	r3, [r5, #40]
 1661 00b8 F8BD     		pop	{r3, r4, r5, r6, r7, pc}
 1662              	.LVL162:
 1663              	.L166:
 1664 00ba 00BF     		.align	2
 1665              	.L165:
 1666 00bc 40800010 		.word	268468288
 1667 00c0 00000000 		.word	.LANCHOR2
 1668              		.cfi_endproc
 1669              	.LFE279:
 1670              		.size	usb_lld_reset, .-usb_lld_reset
 1671              		.section	.text.usb_lld_set_address,"ax",%progbits
 1672              		.align	1
 1673              		.p2align 4,,15
 1674              		.global	usb_lld_set_address
 1675              		.syntax unified
 1676              		.thumb
 1677              		.thumb_func
 1678              		.fpu softvfp
 1679              		.type	usb_lld_set_address, %function
 1680              	usb_lld_set_address:
 1681              	.LFB280:
 1682              		.loc 1 995 0
 1683              		.cfi_startproc
 1684              		@ args = 0, pretend = 0, frame = 0
 1685              		@ frame_needed = 0, uses_anonymous_args = 0
 1686              		@ link register save eliminated.
 1687              	.LVL163:
 1688              		.loc 1 996 0
 1689 0000 026D     		ldr	r2, [r0, #80]
 1690              	.LVL164:
 1691              		.loc 1 998 0
 1692 0002 90F84E10 		ldrb	r1, [r0, #78]	@ zero_extendqisi2
 1693 0006 D2F80038 		ldr	r3, [r2, #2048]
 1694 000a 23F4FE63 		bic	r3, r3, #2032
 1695 000e 43EA0113 		orr	r3, r3, r1, lsl #4
 1696 0012 C2F80038 		str	r3, [r2, #2048]
 1697 0016 7047     		bx	lr
 1698              		.cfi_endproc
 1699              	.LFE280:
 1700              		.size	usb_lld_set_address, .-usb_lld_set_address
 1701              		.section	.text.usb_lld_init_endpoint,"ax",%progbits
 1702              		.align	1
 1703              		.p2align 4,,15
 1704              		.global	usb_lld_init_endpoint
 1705              		.syntax unified
 1706              		.thumb
 1707              		.thumb_func
 1708              		.fpu softvfp
 1709              		.type	usb_lld_init_endpoint, %function
 1710              	usb_lld_init_endpoint:
ARM GAS  /tmp/ccigORce.s 			page 31


 1711              	.LFB281:
 1712              		.loc 1 1009 0
 1713              		.cfi_startproc
 1714              		@ args = 0, pretend = 0, frame = 0
 1715              		@ frame_needed = 0, uses_anonymous_args = 0
 1716              	.LVL165:
 1717 0000 2DE9F041 		push	{r4, r5, r6, r7, r8, lr}
 1718              		.cfi_def_cfa_offset 24
 1719              		.cfi_offset 4, -24
 1720              		.cfi_offset 5, -20
 1721              		.cfi_offset 6, -16
 1722              		.cfi_offset 7, -12
 1723              		.cfi_offset 8, -8
 1724              		.cfi_offset 14, -4
 1725 0004 0FFA81F8 		sxth	r8, r1
 1726 0008 00EB8807 		add	r7, r0, r8, lsl #2
 1727              		.loc 1 1009 0
 1728 000c 0D46     		mov	r5, r1
 1729              		.loc 1 1014 0
 1730 000e FB68     		ldr	r3, [r7, #12]
 1731 0010 1A68     		ldr	r2, [r3]
 1732 0012 02F00302 		and	r2, r2, #3
 1733 0016 022A     		cmp	r2, #2
 1734 0018 5DD0     		beq	.L170
 1735 001a 032A     		cmp	r2, #3
 1736 001c 5DD0     		beq	.L171
 1737              		.loc 1 1016 0
 1738 001e 4C4E     		ldr	r6, .L184
 1739 0020 4C49     		ldr	r1, .L184+4
 1740              	.LVL166:
 1741 0022 012A     		cmp	r2, #1
 1742 0024 18BF     		it	ne
 1743 0026 0E46     		movne	r6, r1
 1744              	.L172:
 1745              		.loc 1 1011 0
 1746 0028 046D     		ldr	r4, [r0, #80]
 1747              	.LVL167:
 1748              		.loc 1 1033 0
 1749 002a DA68     		ldr	r2, [r3, #12]
 1750              		.loc 1 1032 0
 1751 002c 6901     		lsls	r1, r5, #5
 1752 002e 04EB010E 		add	lr, r4, r1
 1753 0032 4FF0000C 		mov	ip, #0
 1754 0036 CEF810CB 		str	ip, [lr, #2832]
 1755              		.loc 1 1033 0
 1756 003a 002A     		cmp	r2, #0
 1757 003c 72D0     		beq	.L173
 1758              		.loc 1 1034 0
 1759 003e B3F812E0 		ldrh	lr, [r3, #18]
 1760 0042 05F15802 		add	r2, r5, #88
 1761 0046 5201     		lsls	r2, r2, #5
 1762 0048 4EEA060E 		orr	lr, lr, r6
 1763 004c 44F802E0 		str	lr, [r4, r2]
 1764              		.loc 1 1035 0
 1765 0050 05F1100C 		add	ip, r5, #16
 1766 0054 D4F81CE8 		ldr	lr, [r4, #2076]
 1767 0058 0122     		movs	r2, #1
ARM GAS  /tmp/ccigORce.s 			page 32


 1768 005a 02FA0CF2 		lsl	r2, r2, ip
 1769 005e 42EA0E02 		orr	r2, r2, lr
 1770 0062 C4F81C28 		str	r2, [r4, #2076]
 1771              	.L174:
 1772              		.loc 1 1043 0
 1773 0066 2144     		add	r1, r1, r4
 1774              		.loc 1 1044 0
 1775 0068 9A68     		ldr	r2, [r3, #8]
 1776              		.loc 1 1043 0
 1777 006a 4FF0000E 		mov	lr, #0
 1778 006e C1F810E9 		str	lr, [r1, #2320]
 1779              		.loc 1 1044 0
 1780 0072 002A     		cmp	r2, #0
 1781 0074 33D0     		beq	.L175
 1782              		.loc 1 1047 0
 1783 0076 9A8B     		ldrh	r2, [r3, #28]
 1784              		.loc 1 1046 0
 1785 0078 198A     		ldrh	r1, [r3, #16]
 1786              		.loc 1 1047 0
 1787 007a 012A     		cmp	r2, #1
 1788              		.loc 1 1046 0
 1789 007c 4FEA9103 		lsr	r3, r1, #2
 1790              	.LVL168:
 1791              		.loc 1 1048 0
 1792 0080 88BF     		it	hi
 1793 0082 5343     		mulhi	r3, r2, r3
 1794              	.LVL169:
 1795              	.LBB595:
 1796              	.LBB596:
 1797              		.loc 1 212 0
 1798 0084 826D     		ldr	r2, [r0, #88]
 1799              	.LVL170:
 1800              	.LBE596:
 1801              	.LBE595:
 1802              		.loc 1 1049 0
 1803 0086 05F13F01 		add	r1, r5, #63
 1804              	.LBB599:
 1805              	.LBB597:
 1806              		.loc 1 213 0
 1807 008a 03EB020E 		add	lr, r3, r2
 1808              	.LBE597:
 1809              	.LBE599:
 1810              		.loc 1 1049 0
 1811 008e 04EB8101 		add	r1, r4, r1, lsl #2
 1812 0092 42EA0343 		orr	r3, r2, r3, lsl #16
 1813              	.LVL171:
 1814              	.LBB600:
 1815              	.LBB601:
 1816              		.loc 1 182 0
 1817 0096 AA01     		lsls	r2, r5, #6
 1818              	.LVL172:
 1819 0098 42F02002 		orr	r2, r2, #32
 1820              	.LBE601:
 1821              	.LBE600:
 1822              	.LBB605:
 1823              	.LBB598:
 1824              		.loc 1 213 0
ARM GAS  /tmp/ccigORce.s 			page 33


 1825 009c C0F858E0 		str	lr, [r0, #88]
 1826              	.LVL173:
 1827              	.LBE598:
 1828              	.LBE605:
 1829              		.loc 1 1049 0
 1830 00a0 4B60     		str	r3, [r1, #4]
 1831              	.LVL174:
 1832              	.LBB606:
 1833              	.LBB604:
 1834              		.loc 1 182 0
 1835 00a2 2261     		str	r2, [r4, #16]
 1836              	.L177:
 1837              		.loc 1 183 0
 1838 00a4 2369     		ldr	r3, [r4, #16]
 1839 00a6 9A06     		lsls	r2, r3, #26
 1840 00a8 FCD4     		bmi	.L177
 1841              	.LVL175:
 1842              	.LBB602:
 1843              	.LBB603:
 1844              		.loc 3 527 0
 1845 00aa 0C20     		movs	r0, #12
 1846              	.LVL176:
 1847 00ac FFF7FEFF 		bl	chSysPolledDelayX
 1848              	.LVL177:
 1849              	.LBE603:
 1850              	.LBE602:
 1851              	.LBE604:
 1852              	.LBE606:
 1853              		.loc 1 1055 0
 1854 00b0 FB68     		ldr	r3, [r7, #12]
 1855 00b2 1A8A     		ldrh	r2, [r3, #16]
 1856              		.loc 1 1053 0
 1857 00b4 05F14803 		add	r3, r5, #72
 1858              		.loc 1 1054 0
 1859 00b8 42EA8552 		orr	r2, r2, r5, lsl #22
 1860              		.loc 1 1053 0
 1861 00bc 5B01     		lsls	r3, r3, #5
 1862              		.loc 1 1054 0
 1863 00be 3243     		orrs	r2, r2, r6
 1864              		.loc 1 1053 0
 1865 00c0 E250     		str	r2, [r4, r3]
 1866              		.loc 1 1056 0
 1867 00c2 0121     		movs	r1, #1
 1868 00c4 D4F81C38 		ldr	r3, [r4, #2076]
 1869 00c8 01FA05F5 		lsl	r5, r1, r5
 1870 00cc 1D43     		orrs	r5, r5, r3
 1871 00ce C4F81C58 		str	r5, [r4, #2076]
 1872 00d2 BDE8F081 		pop	{r4, r5, r6, r7, r8, pc}
 1873              	.LVL178:
 1874              	.L170:
 1875              		.loc 1 1022 0
 1876 00d6 204E     		ldr	r6, .L184+8
 1877              		.loc 1 1023 0
 1878 00d8 A6E7     		b	.L172
 1879              	.LVL179:
 1880              	.L171:
 1881              		.loc 1 1025 0
ARM GAS  /tmp/ccigORce.s 			page 34


 1882 00da 204E     		ldr	r6, .L184+12
 1883              		.loc 1 1026 0
 1884 00dc A4E7     		b	.L172
 1885              	.LVL180:
 1886              	.L175:
 1887              		.loc 1 1059 0
 1888 00de 05F13F02 		add	r2, r5, #63
 1889 00e2 04EB8202 		add	r2, r4, r2, lsl #2
 1890              	.LBB607:
 1891              	.LBB608:
 1892              		.loc 1 182 0
 1893 00e6 AB01     		lsls	r3, r5, #6
 1894              	.LBE608:
 1895              	.LBE607:
 1896              		.loc 1 1059 0
 1897 00e8 1D49     		ldr	r1, .L184+16
 1898 00ea 5160     		str	r1, [r2, #4]
 1899              	.LVL181:
 1900              	.LBB612:
 1901              	.LBB611:
 1902              		.loc 1 182 0
 1903 00ec 43F02003 		orr	r3, r3, #32
 1904 00f0 2361     		str	r3, [r4, #16]
 1905              	.L179:
 1906              		.loc 1 183 0
 1907 00f2 2369     		ldr	r3, [r4, #16]
 1908 00f4 9B06     		lsls	r3, r3, #26
 1909 00f6 FCD4     		bmi	.L179
 1910              	.LVL182:
 1911 00f8 04EB4818 		add	r8, r4, r8, lsl #5
 1912              	.LBB609:
 1913              	.LBB610:
 1914              		.loc 3 527 0
 1915 00fc 0C20     		movs	r0, #12
 1916              	.LVL183:
 1917 00fe FFF7FEFF 		bl	chSysPolledDelayX
 1918              	.LVL184:
 1919              	.LBE610:
 1920              	.LBE609:
 1921              	.LBE611:
 1922              	.LBE612:
 1923              		.loc 1 1061 0
 1924 0102 D8F80039 		ldr	r3, [r8, #2304]
 1925 0106 23F40043 		bic	r3, r3, #32768
 1926 010a C8F80039 		str	r3, [r8, #2304]
 1927              		.loc 1 1062 0
 1928 010e D4F81C38 		ldr	r3, [r4, #2076]
 1929 0112 0122     		movs	r2, #1
 1930 0114 02FA05F5 		lsl	r5, r2, r5
 1931 0118 23EA0503 		bic	r3, r3, r5
 1932 011c C4F81C38 		str	r3, [r4, #2076]
 1933 0120 BDE8F081 		pop	{r4, r5, r6, r7, r8, pc}
 1934              	.LVL185:
 1935              	.L173:
 1936 0124 04EB4812 		add	r2, r4, r8, lsl #5
 1937              		.loc 1 1039 0
 1938 0128 05F1100C 		add	ip, r5, #16
ARM GAS  /tmp/ccigORce.s 			page 35


 1939              		.loc 1 1038 0
 1940 012c D2F800EB 		ldr	lr, [r2, #2816]
 1941 0130 2EF4004E 		bic	lr, lr, #32768
 1942 0134 C2F800EB 		str	lr, [r2, #2816]
 1943              		.loc 1 1039 0
 1944 0138 D4F81C28 		ldr	r2, [r4, #2076]
 1945 013c 4FF0010E 		mov	lr, #1
 1946 0140 0EFA0CFE 		lsl	lr, lr, ip
 1947 0144 22EA0E02 		bic	r2, r2, lr
 1948 0148 C4F81C28 		str	r2, [r4, #2076]
 1949 014c 8BE7     		b	.L174
 1950              	.L185:
 1951 014e 00BF     		.align	2
 1952              	.L184:
 1953 0150 00800410 		.word	268730368
 1954 0154 00800010 		.word	268468224
 1955 0158 00800810 		.word	268992512
 1956 015c 00800C10 		.word	269254656
 1957 0160 00040002 		.word	33555456
 1958              		.cfi_endproc
 1959              	.LFE281:
 1960              		.size	usb_lld_init_endpoint, .-usb_lld_init_endpoint
 1961              		.section	.text.usb_lld_disable_endpoints,"ax",%progbits
 1962              		.align	1
 1963              		.p2align 4,,15
 1964              		.global	usb_lld_disable_endpoints
 1965              		.syntax unified
 1966              		.thumb
 1967              		.thumb_func
 1968              		.fpu softvfp
 1969              		.type	usb_lld_disable_endpoints, %function
 1970              	usb_lld_disable_endpoints:
 1971              	.LFB282:
 1972              		.loc 1 1073 0
 1973              		.cfi_startproc
 1974              		@ args = 0, pretend = 0, frame = 0
 1975              		@ frame_needed = 0, uses_anonymous_args = 0
 1976              		@ link register save eliminated.
 1977              	.LVL186:
 1978 0000 416D     		ldr	r1, [r0, #84]
 1979              	.LVL187:
 1980              		.loc 1 1073 0
 1981 0002 0346     		mov	r3, r0
 1982              	.LBB613:
 1983              	.LBB614:
 1984              		.loc 1 198 0
 1985 0004 0A68     		ldr	r2, [r1]
 1986              	.LBE614:
 1987              	.LBE613:
 1988              		.loc 1 1079 0
 1989 0006 006D     		ldr	r0, [r0, #80]
 1990              	.LVL188:
 1991              	.LBB616:
 1992              	.LBB615:
 1993              		.loc 1 198 0
 1994 0008 9A65     		str	r2, [r3, #88]
 1995              	.LBE615:
ARM GAS  /tmp/ccigORce.s 			page 36


 1996              	.LBE616:
 1997              		.loc 1 1079 0
 1998 000a FFF7FEBF 		b	otg_disable_ep.isra.0
 1999              	.LVL189:
 2000              		.cfi_endproc
 2001              	.LFE282:
 2002              		.size	usb_lld_disable_endpoints, .-usb_lld_disable_endpoints
 2003 000e 00BF     		.section	.text.usb_lld_get_status_out,"ax",%progbits
 2004              		.align	1
 2005              		.p2align 4,,15
 2006              		.global	usb_lld_get_status_out
 2007              		.syntax unified
 2008              		.thumb
 2009              		.thumb_func
 2010              		.fpu softvfp
 2011              		.type	usb_lld_get_status_out, %function
 2012              	usb_lld_get_status_out:
 2013              	.LFB283:
 2014              		.loc 1 1094 0
 2015              		.cfi_startproc
 2016              		@ args = 0, pretend = 0, frame = 0
 2017              		@ frame_needed = 0, uses_anonymous_args = 0
 2018              		@ link register save eliminated.
 2019              	.LVL190:
 2020              		.loc 1 1099 0
 2021 0000 5831     		adds	r1, r1, #88
 2022              	.LVL191:
 2023 0002 036D     		ldr	r3, [r0, #80]
 2024 0004 4901     		lsls	r1, r1, #5
 2025 0006 5B58     		ldr	r3, [r3, r1]
 2026              	.LVL192:
 2027              		.loc 1 1100 0
 2028 0008 13F40040 		ands	r0, r3, #32768
 2029              	.LVL193:
 2030 000c 04D0     		beq	.L188
 2031              		.loc 1 1102 0
 2032 000e 13F4001F 		tst	r3, #2097152
 2033              		.loc 1 1104 0
 2034 0012 14BF     		ite	ne
 2035 0014 0120     		movne	r0, #1
 2036 0016 0220     		moveq	r0, #2
 2037              	.L188:
 2038              		.loc 1 1105 0
 2039 0018 7047     		bx	lr
 2040              		.cfi_endproc
 2041              	.LFE283:
 2042              		.size	usb_lld_get_status_out, .-usb_lld_get_status_out
 2043 001a 00BF     		.section	.text.usb_lld_get_status_in,"ax",%progbits
 2044              		.align	1
 2045              		.p2align 4,,15
 2046              		.global	usb_lld_get_status_in
 2047              		.syntax unified
 2048              		.thumb
 2049              		.thumb_func
 2050              		.fpu softvfp
 2051              		.type	usb_lld_get_status_in, %function
 2052              	usb_lld_get_status_in:
ARM GAS  /tmp/ccigORce.s 			page 37


 2053              	.LFB284:
 2054              		.loc 1 1119 0
 2055              		.cfi_startproc
 2056              		@ args = 0, pretend = 0, frame = 0
 2057              		@ frame_needed = 0, uses_anonymous_args = 0
 2058              		@ link register save eliminated.
 2059              	.LVL194:
 2060              		.loc 1 1124 0
 2061 0000 4831     		adds	r1, r1, #72
 2062              	.LVL195:
 2063 0002 036D     		ldr	r3, [r0, #80]
 2064 0004 4901     		lsls	r1, r1, #5
 2065 0006 5B58     		ldr	r3, [r3, r1]
 2066              	.LVL196:
 2067              		.loc 1 1125 0
 2068 0008 13F40040 		ands	r0, r3, #32768
 2069              	.LVL197:
 2070 000c 04D0     		beq	.L192
 2071              		.loc 1 1127 0
 2072 000e 13F4001F 		tst	r3, #2097152
 2073              		.loc 1 1129 0
 2074 0012 14BF     		ite	ne
 2075 0014 0120     		movne	r0, #1
 2076 0016 0220     		moveq	r0, #2
 2077              	.L192:
 2078              		.loc 1 1130 0
 2079 0018 7047     		bx	lr
 2080              		.cfi_endproc
 2081              	.LFE284:
 2082              		.size	usb_lld_get_status_in, .-usb_lld_get_status_in
 2083 001a 00BF     		.section	.text.usb_lld_read_setup,"ax",%progbits
 2084              		.align	1
 2085              		.p2align 4,,15
 2086              		.global	usb_lld_read_setup
 2087              		.syntax unified
 2088              		.thumb
 2089              		.thumb_func
 2090              		.fpu softvfp
 2091              		.type	usb_lld_read_setup, %function
 2092              	usb_lld_read_setup:
 2093              	.LFB285:
 2094              		.loc 1 1146 0
 2095              		.cfi_startproc
 2096              		@ args = 0, pretend = 0, frame = 0
 2097              		@ frame_needed = 0, uses_anonymous_args = 0
 2098              		@ link register save eliminated.
 2099              	.LVL198:
 2100              		.loc 1 1148 0
 2101 0000 00EB8101 		add	r1, r0, r1, lsl #2
 2102              	.LVL199:
 2103 0004 CB68     		ldr	r3, [r1, #12]
 2104 0006 1B6A     		ldr	r3, [r3, #32]
 2105 0008 1968     		ldr	r1, [r3]	@ unaligned
 2106 000a 5B68     		ldr	r3, [r3, #4]	@ unaligned
 2107 000c 5360     		str	r3, [r2, #4]	@ unaligned
 2108 000e 1160     		str	r1, [r2]	@ unaligned
 2109 0010 7047     		bx	lr
ARM GAS  /tmp/ccigORce.s 			page 38


 2110              		.cfi_endproc
 2111              	.LFE285:
 2112              		.size	usb_lld_read_setup, .-usb_lld_read_setup
 2113 0012 00BF     		.section	.text.usb_lld_prepare_receive,"ax",%progbits
 2114              		.align	1
 2115              		.p2align 4,,15
 2116              		.global	usb_lld_prepare_receive
 2117              		.syntax unified
 2118              		.thumb
 2119              		.thumb_func
 2120              		.fpu softvfp
 2121              		.type	usb_lld_prepare_receive, %function
 2122              	usb_lld_prepare_receive:
 2123              	.LFB286:
 2124              		.loc 1 1159 0
 2125              		.cfi_startproc
 2126              		@ args = 0, pretend = 0, frame = 0
 2127              		@ frame_needed = 0, uses_anonymous_args = 0
 2128              		@ link register save eliminated.
 2129              	.LVL200:
 2130              		.loc 1 1161 0
 2131 0000 00EB8103 		add	r3, r0, r1, lsl #2
 2132              		.loc 1 1159 0
 2133 0004 70B4     		push	{r4, r5, r6}
 2134              		.cfi_def_cfa_offset 12
 2135              		.cfi_offset 4, -12
 2136              		.cfi_offset 5, -8
 2137              		.cfi_offset 6, -4
 2138              		.loc 1 1161 0
 2139 0006 DE68     		ldr	r6, [r3, #12]
 2140 0008 B569     		ldr	r5, [r6, #24]
 2141              	.LVL201:
 2142              		.loc 1 1164 0
 2143 000a 6A68     		ldr	r2, [r5, #4]
 2144 000c 2A61     		str	r2, [r5, #16]
 2145              		.loc 1 1165 0
 2146 000e 29B9     		cbnz	r1, .L201
 2147              		.loc 1 1165 0 is_stmt 0 discriminator 1
 2148 0010 402A     		cmp	r2, #64
 2149 0012 03D9     		bls	.L201
 2150              		.loc 1 1166 0 is_stmt 1
 2151 0014 4022     		movs	r2, #64
 2152 0016 094C     		ldr	r4, .L202
 2153 0018 6A60     		str	r2, [r5, #4]
 2154 001a 01E0     		b	.L198
 2155              	.L201:
 2156 001c 42F0C044 		orr	r4, r2, #1610612736
 2157              	.L198:
 2158              		.loc 1 1168 0
 2159 0020 758A     		ldrh	r5, [r6, #18]
 2160              	.LVL202:
 2161              		.loc 1 1170 0
 2162 0022 006D     		ldr	r0, [r0, #80]
 2163              	.LVL203:
 2164              		.loc 1 1168 0
 2165 0024 6B1E     		subs	r3, r5, #1
 2166              		.loc 1 1170 0
ARM GAS  /tmp/ccigORce.s 			page 39


 2167 0026 00EB4111 		add	r1, r0, r1, lsl #5
 2168              	.LVL204:
 2169              		.loc 1 1168 0
 2170 002a 1344     		add	r3, r3, r2
 2171 002c B3FBF5F3 		udiv	r3, r3, r5
 2172              		.loc 1 1170 0
 2173 0030 44EAC343 		orr	r3, r4, r3, lsl #19
 2174 0034 C1F8103B 		str	r3, [r1, #2832]
 2175              		.loc 1 1173 0
 2176 0038 70BC     		pop	{r4, r5, r6}
 2177              		.cfi_restore 6
 2178              		.cfi_restore 5
 2179              		.cfi_restore 4
 2180              		.cfi_def_cfa_offset 0
 2181              	.LVL205:
 2182 003a 7047     		bx	lr
 2183              	.L203:
 2184              		.align	2
 2185              	.L202:
 2186 003c 40000060 		.word	1610612800
 2187              		.cfi_endproc
 2188              	.LFE286:
 2189              		.size	usb_lld_prepare_receive, .-usb_lld_prepare_receive
 2190              		.section	.text.otg_epout_handler.constprop.7,"ax",%progbits
 2191              		.align	1
 2192              		.p2align 4,,15
 2193              		.syntax unified
 2194              		.thumb
 2195              		.thumb_func
 2196              		.fpu softvfp
 2197              		.type	otg_epout_handler.constprop.7, %function
 2198              	otg_epout_handler.constprop.7:
 2199              	.LFB302:
 2200              		.loc 1 581 0
 2201              		.cfi_startproc
 2202              		@ args = 0, pretend = 0, frame = 0
 2203              		@ frame_needed = 0, uses_anonymous_args = 0
 2204              	.LVL206:
 2205 0000 2DE9F041 		push	{r4, r5, r6, r7, r8, lr}
 2206              		.cfi_def_cfa_offset 24
 2207              		.cfi_offset 4, -24
 2208              		.cfi_offset 5, -20
 2209              		.cfi_offset 6, -16
 2210              		.cfi_offset 7, -12
 2211              		.cfi_offset 8, -8
 2212              		.cfi_offset 14, -4
 2213              		.loc 1 582 0
 2214 0004 254E     		ldr	r6, .L223
 2215 0006 376D     		ldr	r7, [r6, #80]
 2216              	.LVL207:
 2217              		.loc 1 583 0
 2218 0008 07EB4013 		add	r3, r7, r0, lsl #5
 2219              		.loc 1 581 0
 2220 000c 0546     		mov	r5, r0
 2221              		.loc 1 583 0
 2222 000e D3F8084B 		ldr	r4, [r3, #2824]
 2223              	.LVL208:
ARM GAS  /tmp/ccigORce.s 			page 40


 2224              		.loc 1 586 0
 2225 0012 C3F8084B 		str	r4, [r3, #2824]
 2226              		.loc 1 588 0
 2227 0016 2007     		lsls	r0, r4, #28
 2228              	.LVL209:
 2229 0018 03D5     		bpl	.L205
 2230 001a D7F81438 		ldr	r3, [r7, #2068]
 2231 001e 1907     		lsls	r1, r3, #28
 2232 0020 1CD4     		bmi	.L221
 2233              	.L205:
 2234              		.loc 1 594 0
 2235 0022 E207     		lsls	r2, r4, #31
 2236 0024 18D5     		bpl	.L204
 2237 0026 D7F81438 		ldr	r3, [r7, #2068]
 2238 002a DB07     		lsls	r3, r3, #31
 2239 002c 14D5     		bpl	.L204
 2240              	.LBB617:
 2241              		.loc 1 596 0
 2242 002e 06EB8503 		add	r3, r6, r5, lsl #2
 2243 0032 D968     		ldr	r1, [r3, #12]
 2244 0034 8B69     		ldr	r3, [r1, #24]
 2245              	.LVL210:
 2246              		.loc 1 598 0
 2247 0036 5868     		ldr	r0, [r3, #4]
 2248 0038 1A69     		ldr	r2, [r3, #16]
 2249 003a 9042     		cmp	r0, r2
 2250 003c 16D3     		bcc	.L222
 2251              		.loc 1 611 0
 2252 003e 7389     		ldrh	r3, [r6, #10]
 2253              	.LVL211:
 2254 0040 CC68     		ldr	r4, [r1, #12]
 2255              	.LVL212:
 2256 0042 1648     		ldr	r0, .L223
 2257 0044 0122     		movs	r2, #1
 2258 0046 AA40     		lsls	r2, r2, r5
 2259 0048 23EA0203 		bic	r3, r3, r2
 2260 004c 7381     		strh	r3, [r6, #10]	@ movhi
 2261 004e 2946     		mov	r1, r5
 2262              	.LVL213:
 2263 0050 2346     		mov	r3, r4
 2264              	.LBE617:
 2265              		.loc 1 614 0
 2266 0052 BDE8F041 		pop	{r4, r5, r6, r7, r8, lr}
 2267              		.cfi_remember_state
 2268              		.cfi_restore 14
 2269              		.cfi_restore 8
 2270              		.cfi_restore 7
 2271              		.cfi_restore 6
 2272              		.cfi_restore 5
 2273              		.cfi_restore 4
 2274              		.cfi_def_cfa_offset 0
 2275              	.LVL214:
 2276              	.LBB630:
 2277              		.loc 1 611 0
 2278 0056 1847     		bx	r3	@ indirect register sibling call
 2279              	.LVL215:
 2280              	.L204:
ARM GAS  /tmp/ccigORce.s 			page 41


 2281              		.cfi_restore_state
 2282 0058 BDE8F081 		pop	{r4, r5, r6, r7, r8, pc}
 2283              	.LVL216:
 2284              	.L221:
 2285              	.LBE630:
 2286              		.loc 1 591 0
 2287 005c 06EB8503 		add	r3, r6, r5, lsl #2
 2288 0060 2946     		mov	r1, r5
 2289 0062 DB68     		ldr	r3, [r3, #12]
 2290 0064 3046     		mov	r0, r6
 2291 0066 5B68     		ldr	r3, [r3, #4]
 2292 0068 9847     		blx	r3
 2293              	.LVL217:
 2294 006a DAE7     		b	.L205
 2295              	.LVL218:
 2296              	.L222:
 2297              	.LBB631:
 2298              		.loc 1 602 0
 2299 006c 121A     		subs	r2, r2, r0
 2300              		.loc 1 603 0
 2301 006e 0024     		movs	r4, #0
 2302              	.LVL219:
 2303              		.loc 1 602 0
 2304 0070 5A60     		str	r2, [r3, #4]
 2305              		.loc 1 603 0
 2306 0072 9C60     		str	r4, [r3, #8]
 2307              		.loc 1 604 0
 2308 0074 2946     		mov	r1, r5
 2309 0076 0948     		ldr	r0, .L223
 2310 0078 FFF7FEFF 		bl	usb_lld_prepare_receive
 2311              	.LVL220:
 2312              	.LBB618:
 2313              	.LBB619:
 2314              	.LBB620:
 2315              	.LBB621:
 2316              	.LBB622:
 2317              		.loc 2 546 0
 2318 007c 2023     		movs	r3, #32
 2319              		.syntax unified
 2320              	@ 546 "/home/selim/working/ChibiOS/os/ext/CMSIS/include/core_cmFunc.h" 1
 2321 007e 83F31188 		MSR basepri, r3
 2322              	@ 0 "" 2
 2323              	.LVL221:
 2324              		.thumb
 2325              		.syntax unified
 2326 0082 336D     		ldr	r3, [r6, #80]
 2327 0084 03EB4515 		add	r5, r3, r5, lsl #5
 2328              	.LVL222:
 2329              	.LBE622:
 2330              	.LBE621:
 2331              	.LBE620:
 2332              	.LBE619:
 2333              	.LBE618:
 2334              	.LBB623:
 2335              	.LBB624:
 2336              		.loc 1 1214 0
 2337 0088 D5F8003B 		ldr	r3, [r5, #2816]
ARM GAS  /tmp/ccigORce.s 			page 42


 2338 008c 43F08063 		orr	r3, r3, #67108864
 2339 0090 C5F8003B 		str	r3, [r5, #2816]
 2340              	.LVL223:
 2341              	.LBE624:
 2342              	.LBE623:
 2343              	.LBB625:
 2344              	.LBB626:
 2345              	.LBB627:
 2346              	.LBB628:
 2347              	.LBB629:
 2348              		.loc 2 546 0
 2349              		.syntax unified
 2350              	@ 546 "/home/selim/working/ChibiOS/os/ext/CMSIS/include/core_cmFunc.h" 1
 2351 0094 84F31188 		MSR basepri, r4
 2352              	@ 0 "" 2
 2353              	.LVL224:
 2354              		.thumb
 2355              		.syntax unified
 2356 0098 BDE8F081 		pop	{r4, r5, r6, r7, r8, pc}
 2357              	.LVL225:
 2358              	.L224:
 2359              		.align	2
 2360              	.L223:
 2361 009c 00000000 		.word	.LANCHOR0
 2362              	.LBE629:
 2363              	.LBE628:
 2364              	.LBE627:
 2365              	.LBE626:
 2366              	.LBE625:
 2367              	.LBE631:
 2368              		.cfi_endproc
 2369              	.LFE302:
 2370              		.size	otg_epout_handler.constprop.7, .-otg_epout_handler.constprop.7
 2371              		.section	.text.usb_lld_prepare_transmit,"ax",%progbits
 2372              		.align	1
 2373              		.p2align 4,,15
 2374              		.global	usb_lld_prepare_transmit
 2375              		.syntax unified
 2376              		.thumb
 2377              		.thumb_func
 2378              		.fpu softvfp
 2379              		.type	usb_lld_prepare_transmit, %function
 2380              	usb_lld_prepare_transmit:
 2381              	.LFB287:
 2382              		.loc 1 1183 0
 2383              		.cfi_startproc
 2384              		@ args = 0, pretend = 0, frame = 0
 2385              		@ frame_needed = 0, uses_anonymous_args = 0
 2386              		@ link register save eliminated.
 2387              	.LVL226:
 2388              		.loc 1 1184 0
 2389 0000 00EB8103 		add	r3, r0, r1, lsl #2
 2390              		.loc 1 1183 0
 2391 0004 10B4     		push	{r4}
 2392              		.cfi_def_cfa_offset 4
 2393              		.cfi_offset 4, -4
 2394              		.loc 1 1184 0
ARM GAS  /tmp/ccigORce.s 			page 43


 2395 0006 DC68     		ldr	r4, [r3, #12]
 2396 0008 6269     		ldr	r2, [r4, #20]
 2397              	.LVL227:
 2398              		.loc 1 1187 0
 2399 000a 5368     		ldr	r3, [r2, #4]
 2400 000c 1361     		str	r3, [r2, #16]
 2401              		.loc 1 1188 0
 2402 000e 9BB1     		cbz	r3, .L230
 2403              	.LBB632:
 2404              		.loc 1 1193 0
 2405 0010 69B1     		cbz	r1, .L231
 2406              	.L228:
 2407              		.loc 1 1197 0
 2408 0012 248A     		ldrh	r4, [r4, #16]
 2409              	.LVL228:
 2410              		.loc 1 1199 0
 2411 0014 006D     		ldr	r0, [r0, #80]
 2412              	.LVL229:
 2413              		.loc 1 1197 0
 2414 0016 621E     		subs	r2, r4, #1
 2415              	.LVL230:
 2416              		.loc 1 1199 0
 2417 0018 00EB4111 		add	r1, r0, r1, lsl #5
 2418              	.LVL231:
 2419              		.loc 1 1197 0
 2420 001c 1A44     		add	r2, r2, r3
 2421 001e B2FBF4F2 		udiv	r2, r2, r4
 2422              		.loc 1 1199 0
 2423 0022 43EAC243 		orr	r3, r3, r2, lsl #19
 2424              	.LVL232:
 2425 0026 C1F81039 		str	r3, [r1, #2320]
 2426              	.LBE632:
 2427              		.loc 1 1202 0
 2428 002a 10BC     		pop	{r4}
 2429              		.cfi_remember_state
 2430              		.cfi_restore 4
 2431              		.cfi_def_cfa_offset 0
 2432 002c 7047     		bx	lr
 2433              	.LVL233:
 2434              	.L231:
 2435              		.cfi_restore_state
 2436              	.LBB633:
 2437              		.loc 1 1193 0 discriminator 1
 2438 002e 402B     		cmp	r3, #64
 2439              		.loc 1 1194 0 discriminator 1
 2440 0030 84BF     		itt	hi
 2441 0032 4023     		movhi	r3, #64
 2442 0034 5360     		strhi	r3, [r2, #4]
 2443 0036 ECE7     		b	.L228
 2444              	.L230:
 2445              	.LBE633:
 2446              		.loc 1 1190 0
 2447 0038 036D     		ldr	r3, [r0, #80]
 2448              		.loc 1 1202 0
 2449 003a 10BC     		pop	{r4}
 2450              		.cfi_restore 4
 2451              		.cfi_def_cfa_offset 0
ARM GAS  /tmp/ccigORce.s 			page 44


 2452              		.loc 1 1190 0
 2453 003c 03EB4111 		add	r1, r3, r1, lsl #5
 2454              	.LVL234:
 2455 0040 4FF40023 		mov	r3, #524288
 2456 0044 C1F81039 		str	r3, [r1, #2320]
 2457              		.loc 1 1202 0
 2458 0048 7047     		bx	lr
 2459              		.cfi_endproc
 2460              	.LFE287:
 2461              		.size	usb_lld_prepare_transmit, .-usb_lld_prepare_transmit
 2462 004a 00BF     		.section	.text.otg_epin_handler.constprop.8,"ax",%progbits
 2463              		.align	1
 2464              		.p2align 4,,15
 2465              		.syntax unified
 2466              		.thumb
 2467              		.thumb_func
 2468              		.fpu softvfp
 2469              		.type	otg_epin_handler.constprop.8, %function
 2470              	otg_epin_handler.constprop.8:
 2471              	.LFB301:
 2472              		.loc 1 533 0
 2473              		.cfi_startproc
 2474              		@ args = 0, pretend = 0, frame = 0
 2475              		@ frame_needed = 0, uses_anonymous_args = 0
 2476              	.LVL235:
 2477 0000 2DE9F041 		push	{r4, r5, r6, r7, r8, lr}
 2478              		.cfi_def_cfa_offset 24
 2479              		.cfi_offset 4, -24
 2480              		.cfi_offset 5, -20
 2481              		.cfi_offset 6, -16
 2482              		.cfi_offset 7, -12
 2483              		.cfi_offset 8, -8
 2484              		.cfi_offset 14, -4
 2485              		.loc 1 534 0
 2486 0004 314F     		ldr	r7, .L251
 2487 0006 3D6D     		ldr	r5, [r7, #80]
 2488              	.LVL236:
 2489              		.loc 1 535 0
 2490 0008 05EB4013 		add	r3, r5, r0, lsl #5
 2491              		.loc 1 533 0
 2492 000c 0646     		mov	r6, r0
 2493              		.loc 1 535 0
 2494 000e D3F80849 		ldr	r4, [r3, #2312]
 2495              	.LVL237:
 2496              		.loc 1 537 0
 2497 0012 C3F80849 		str	r4, [r3, #2312]
 2498              		.loc 1 542 0
 2499 0016 E107     		lsls	r1, r4, #31
 2500 0018 03D5     		bpl	.L233
 2501 001a D5F81038 		ldr	r3, [r5, #2064]
 2502 001e DA07     		lsls	r2, r3, #31
 2503 0020 0AD4     		bmi	.L249
 2504              	.LVL238:
 2505              	.L233:
 2506              		.loc 1 562 0
 2507 0022 2306     		lsls	r3, r4, #24
 2508 0024 06D5     		bpl	.L232
ARM GAS  /tmp/ccigORce.s 			page 45


 2509              		.loc 1 563 0
 2510 0026 0123     		movs	r3, #1
 2511 0028 D5F83428 		ldr	r2, [r5, #2100]
 2512 002c 03FA06F6 		lsl	r6, r3, r6
 2513              		.loc 1 562 0
 2514 0030 1642     		tst	r6, r2
 2515 0032 29D1     		bne	.L250
 2516              	.L232:
 2517 0034 BDE8F081 		pop	{r4, r5, r6, r7, r8, pc}
 2518              	.LVL239:
 2519              	.L249:
 2520              	.LBB634:
 2521              		.loc 1 544 0
 2522 0038 07EB8003 		add	r3, r7, r0, lsl #2
 2523 003c D968     		ldr	r1, [r3, #12]
 2524 003e 4B69     		ldr	r3, [r1, #20]
 2525              	.LVL240:
 2526              		.loc 1 546 0
 2527 0040 5868     		ldr	r0, [r3, #4]
 2528              	.LVL241:
 2529 0042 1A69     		ldr	r2, [r3, #16]
 2530 0044 9042     		cmp	r0, r2
 2531 0046 34D2     		bcs	.L234
 2532              		.loc 1 550 0
 2533 0048 121A     		subs	r2, r2, r0
 2534              		.loc 1 551 0
 2535 004a 4FF00008 		mov	r8, #0
 2536              		.loc 1 550 0
 2537 004e 5A60     		str	r2, [r3, #4]
 2538              		.loc 1 551 0
 2539 0050 C3F80880 		str	r8, [r3, #8]
 2540              		.loc 1 552 0
 2541 0054 3146     		mov	r1, r6
 2542 0056 3846     		mov	r0, r7
 2543 0058 FFF7FEFF 		bl	usb_lld_prepare_transmit
 2544              	.LVL242:
 2545              	.LBB635:
 2546              	.LBB636:
 2547              	.LBB637:
 2548              	.LBB638:
 2549              	.LBB639:
 2550              	.LBB640:
 2551              		.loc 2 546 0
 2552 005c 2023     		movs	r3, #32
 2553              		.syntax unified
 2554              	@ 546 "/home/selim/working/ChibiOS/os/ext/CMSIS/include/core_cmFunc.h" 1
 2555 005e 83F31188 		MSR basepri, r3
 2556              	@ 0 "" 2
 2557              	.LVL243:
 2558              		.thumb
 2559              		.syntax unified
 2560              	.LBE640:
 2561              	.LBE639:
 2562              	.LBE638:
 2563              	.LBE637:
 2564              	.LBE636:
 2565              	.LBE635:
ARM GAS  /tmp/ccigORce.s 			page 46


 2566              	.LBB641:
 2567              	.LBB642:
 2568              		.loc 1 1227 0
 2569 0062 3A6D     		ldr	r2, [r7, #80]
 2570 0064 02EB4610 		add	r0, r2, r6, lsl #5
 2571              		.loc 1 1228 0
 2572 0068 0123     		movs	r3, #1
 2573              		.loc 1 1227 0
 2574 006a D0F80019 		ldr	r1, [r0, #2304]
 2575 006e 41F00441 		orr	r1, r1, #-2080374784
 2576 0072 C0F80019 		str	r1, [r0, #2304]
 2577              		.loc 1 1228 0
 2578 0076 D2F83418 		ldr	r1, [r2, #2100]
 2579 007a B340     		lsls	r3, r3, r6
 2580 007c 0B43     		orrs	r3, r3, r1
 2581 007e C2F83438 		str	r3, [r2, #2100]
 2582              	.LVL244:
 2583              	.LBE642:
 2584              	.LBE641:
 2585              	.LBB643:
 2586              	.LBB644:
 2587              	.LBB645:
 2588              	.LBB646:
 2589              	.LBB647:
 2590              	.LBB648:
 2591              		.loc 2 546 0
 2592              		.syntax unified
 2593              	@ 546 "/home/selim/working/ChibiOS/os/ext/CMSIS/include/core_cmFunc.h" 1
 2594 0082 88F31188 		MSR basepri, r8
 2595              	@ 0 "" 2
 2596              	.LVL245:
 2597              		.thumb
 2598              		.syntax unified
 2599 0086 CCE7     		b	.L233
 2600              	.L250:
 2601              	.LVL246:
 2602              	.LBE648:
 2603              	.LBE647:
 2604              	.LBE646:
 2605              	.LBE645:
 2606              	.LBE644:
 2607              	.LBE643:
 2608              	.LBE634:
 2609              	.LBB649:
 2610              	.LBB650:
 2611              	.LBB651:
 2612              	.LBB652:
 2613              	.LBB653:
 2614              	.LBB654:
 2615 0088 2023     		movs	r3, #32
 2616              		.syntax unified
 2617              	@ 546 "/home/selim/working/ChibiOS/os/ext/CMSIS/include/core_cmFunc.h" 1
 2618 008a 83F31188 		MSR basepri, r3
 2619              	@ 0 "" 2
 2620              	.LVL247:
 2621              		.thumb
 2622              		.syntax unified
ARM GAS  /tmp/ccigORce.s 			page 47


 2623              	.LBE654:
 2624              	.LBE653:
 2625              	.LBE652:
 2626              	.LBE651:
 2627              	.LBE650:
 2628              	.LBE649:
 2629              		.loc 1 567 0
 2630 008e D5F83428 		ldr	r2, [r5, #2100]
 2631              		.loc 1 566 0
 2632 0092 FB6D     		ldr	r3, [r7, #92]
 2633              	.LBB655:
 2634              	.LBB656:
 2635              		.loc 3 682 0
 2636 0094 0E48     		ldr	r0, .L251+4
 2637              	.LBE656:
 2638              	.LBE655:
 2639              		.loc 1 567 0
 2640 0096 22EA0602 		bic	r2, r2, r6
 2641 009a C5F83428 		str	r2, [r5, #2100]
 2642              	.LVL248:
 2643              		.loc 1 566 0
 2644 009e 1E43     		orrs	r6, r6, r3
 2645              	.LBB659:
 2646              	.LBB657:
 2647              		.loc 3 682 0
 2648 00a0 0021     		movs	r1, #0
 2649              	.LBE657:
 2650              	.LBE659:
 2651              		.loc 1 566 0
 2652 00a2 FE65     		str	r6, [r7, #92]
 2653              	.LBB660:
 2654              	.LBB658:
 2655              		.loc 3 682 0
 2656 00a4 FFF7FEFF 		bl	chThdResumeI
 2657              	.LVL249:
 2658              	.LBE658:
 2659              	.LBE660:
 2660              	.LBB661:
 2661              	.LBB662:
 2662              	.LBB663:
 2663              	.LBB664:
 2664              	.LBB665:
 2665              	.LBB666:
 2666              		.loc 2 546 0
 2667 00a8 0023     		movs	r3, #0
 2668              		.syntax unified
 2669              	@ 546 "/home/selim/working/ChibiOS/os/ext/CMSIS/include/core_cmFunc.h" 1
 2670 00aa 83F31188 		MSR basepri, r3
 2671              	@ 0 "" 2
 2672              	.LVL250:
 2673              		.thumb
 2674              		.syntax unified
 2675 00ae BDE8F081 		pop	{r4, r5, r6, r7, r8, pc}
 2676              	.LVL251:
 2677              	.L234:
 2678              	.LBE666:
 2679              	.LBE665:
ARM GAS  /tmp/ccigORce.s 			page 48


 2680              	.LBE664:
 2681              	.LBE663:
 2682              	.LBE662:
 2683              	.LBE661:
 2684              	.LBB667:
 2685              		.loc 1 559 0
 2686 00b2 3B89     		ldrh	r3, [r7, #8]
 2687              	.LVL252:
 2688 00b4 D1F80880 		ldr	r8, [r1, #8]
 2689 00b8 0122     		movs	r2, #1
 2690 00ba B240     		lsls	r2, r2, r6
 2691 00bc 23EA0203 		bic	r3, r3, r2
 2692 00c0 3B81     		strh	r3, [r7, #8]	@ movhi
 2693 00c2 3146     		mov	r1, r6
 2694              	.LVL253:
 2695 00c4 3846     		mov	r0, r7
 2696 00c6 C047     		blx	r8
 2697              	.LVL254:
 2698 00c8 ABE7     		b	.L233
 2699              	.L252:
 2700 00ca 00BF     		.align	2
 2701              	.L251:
 2702 00cc 00000000 		.word	.LANCHOR0
 2703 00d0 60000000 		.word	.LANCHOR0+96
 2704              	.LBE667:
 2705              		.cfi_endproc
 2706              	.LFE301:
 2707              		.size	otg_epin_handler.constprop.8, .-otg_epin_handler.constprop.8
 2708              		.section	.text.Vector14C,"ax",%progbits
 2709              		.align	1
 2710              		.p2align 4,,15
 2711              		.global	Vector14C
 2712              		.syntax unified
 2713              		.thumb
 2714              		.thumb_func
 2715              		.fpu softvfp
 2716              		.type	Vector14C, %function
 2717              	Vector14C:
 2718              	.LFB275:
 2719              		.loc 1 706 0
 2720              		.cfi_startproc
 2721              		@ args = 0, pretend = 0, frame = 0
 2722              		@ frame_needed = 0, uses_anonymous_args = 0
 2723              	.LVL255:
 2724 0000 70B5     		push	{r4, r5, r6, lr}
 2725              		.cfi_def_cfa_offset 16
 2726              		.cfi_offset 4, -16
 2727              		.cfi_offset 5, -12
 2728              		.cfi_offset 6, -8
 2729              		.cfi_offset 14, -4
 2730              	.LBB684:
 2731              	.LBB685:
 2732              		.loc 1 624 0
 2733 0002 3A4D     		ldr	r5, .L322
 2734 0004 2E6D     		ldr	r6, [r5, #80]
 2735              	.LVL256:
 2736              		.loc 1 627 0
ARM GAS  /tmp/ccigORce.s 			page 49


 2737 0006 7469     		ldr	r4, [r6, #20]
 2738              	.LVL257:
 2739              		.loc 1 628 0
 2740 0008 B369     		ldr	r3, [r6, #24]
 2741 000a 1C40     		ands	r4, r4, r3
 2742              	.LVL258:
 2743              		.loc 1 632 0
 2744 000c E104     		lsls	r1, r4, #19
 2745              		.loc 1 629 0
 2746 000e 7461     		str	r4, [r6, #20]
 2747              		.loc 1 632 0
 2748 0010 2DD4     		bmi	.L312
 2749              	.L255:
 2750              		.loc 1 638 0
 2751 0012 A204     		lsls	r2, r4, #18
 2752              		.loc 1 639 0
 2753 0014 48BF     		it	mi
 2754 0016 D6F80838 		ldrmi	r3, [r6, #2056]
 2755              		.loc 1 643 0
 2756 001a 2307     		lsls	r3, r4, #28
 2757 001c 04D5     		bpl	.L258
 2758              		.loc 1 644 0
 2759 001e 6B68     		ldr	r3, [r5, #4]
 2760 0020 DB68     		ldr	r3, [r3, #12]
 2761 0022 0BB1     		cbz	r3, .L258
 2762 0024 3148     		ldr	r0, .L322
 2763 0026 9847     		blx	r3
 2764              	.LVL259:
 2765              	.L258:
 2766              		.loc 1 648 0
 2767 0028 E506     		lsls	r5, r4, #27
 2768 002a 2BD4     		bmi	.L313
 2769              	.L259:
 2770              		.loc 1 659 0
 2771 002c 6003     		lsls	r0, r4, #13
 2772              		.loc 1 658 0
 2773 002e D6F81858 		ldr	r5, [r6, #2072]
 2774              	.LVL260:
 2775              		.loc 1 659 0
 2776 0032 07D5     		bpl	.L261
 2777              		.loc 1 660 0
 2778 0034 E907     		lsls	r1, r5, #31
 2779 0036 45D4     		bmi	.L314
 2780              		.loc 1 662 0
 2781 0038 AA07     		lsls	r2, r5, #30
 2782 003a 48D4     		bmi	.L315
 2783              	.L263:
 2784              		.loc 1 664 0
 2785 003c 6B07     		lsls	r3, r5, #29
 2786 003e 4BD4     		bmi	.L316
 2787              	.L264:
 2788              		.loc 1 666 0
 2789 0040 2E07     		lsls	r6, r5, #28
 2790              	.LVL261:
 2791 0042 4ED4     		bmi	.L317
 2792              	.L261:
 2793              		.loc 1 675 0
ARM GAS  /tmp/ccigORce.s 			page 50


 2794 0044 2403     		lsls	r4, r4, #12
 2795              	.LVL262:
 2796 0046 07D5     		bpl	.L267
 2797              		.loc 1 676 0
 2798 0048 E803     		lsls	r0, r5, #15
 2799 004a 30D4     		bmi	.L318
 2800              		.loc 1 678 0
 2801 004c A903     		lsls	r1, r5, #14
 2802 004e 33D4     		bmi	.L319
 2803              	.L269:
 2804              		.loc 1 680 0
 2805 0050 6A03     		lsls	r2, r5, #13
 2806 0052 26D4     		bmi	.L320
 2807              	.L270:
 2808              		.loc 1 682 0
 2809 0054 2B03     		lsls	r3, r5, #12
 2810 0056 03D4     		bmi	.L321
 2811              	.L267:
 2812              	.LVL263:
 2813              	.LBE685:
 2814              	.LBE684:
 2815              		.loc 1 713 0
 2816 0058 BDE87040 		pop	{r4, r5, r6, lr}
 2817              		.cfi_remember_state
 2818              		.cfi_restore 14
 2819              		.cfi_restore 6
 2820              		.cfi_restore 5
 2821              		.cfi_restore 4
 2822              		.cfi_def_cfa_offset 0
 2823              		.loc 1 712 0
 2824 005c FFF7FEBF 		b	_port_irq_epilogue
 2825              	.LVL264:
 2826              	.L321:
 2827              		.cfi_restore_state
 2828              	.LBB704:
 2829              	.LBB702:
 2830              		.loc 1 683 0
 2831 0060 0320     		movs	r0, #3
 2832 0062 FFF7FEFF 		bl	otg_epout_handler.constprop.7
 2833              	.LVL265:
 2834              	.LBE702:
 2835              	.LBE704:
 2836              		.loc 1 713 0
 2837 0066 BDE87040 		pop	{r4, r5, r6, lr}
 2838              		.cfi_remember_state
 2839              		.cfi_restore 4
 2840              		.cfi_restore 5
 2841              		.cfi_restore 6
 2842              		.cfi_restore 14
 2843              		.cfi_def_cfa_offset 0
 2844              		.loc 1 712 0
 2845 006a FFF7FEBF 		b	_port_irq_epilogue
 2846              	.LVL266:
 2847              	.L312:
 2848              		.cfi_restore_state
 2849              	.LBB705:
 2850              	.LBB703:
ARM GAS  /tmp/ccigORce.s 			page 51


 2851              		.loc 1 633 0
 2852 006e 2846     		mov	r0, r5
 2853 0070 FFF7FEFF 		bl	_usb_reset
 2854              	.LVL267:
 2855              		.loc 1 634 0
 2856 0074 6B68     		ldr	r3, [r5, #4]
 2857 0076 1B68     		ldr	r3, [r3]
 2858 0078 002B     		cmp	r3, #0
 2859 007a CAD0     		beq	.L255
 2860 007c 0021     		movs	r1, #0
 2861 007e 2846     		mov	r0, r5
 2862 0080 9847     		blx	r3
 2863              	.LVL268:
 2864 0082 C6E7     		b	.L255
 2865              	.L313:
 2866              	.LVL269:
 2867              	.LBB686:
 2868              	.LBB687:
 2869              	.LBB688:
 2870              	.LBB689:
 2871              	.LBB690:
 2872              	.LBB691:
 2873              		.loc 2 546 0
 2874 0084 2023     		movs	r3, #32
 2875              		.syntax unified
 2876              	@ 546 "/home/selim/working/ChibiOS/os/ext/CMSIS/include/core_cmFunc.h" 1
 2877 0086 83F31188 		MSR basepri, r3
 2878              	@ 0 "" 2
 2879              	.LVL270:
 2880              		.thumb
 2881              		.syntax unified
 2882              	.LBE691:
 2883              	.LBE690:
 2884              	.LBE689:
 2885              	.LBE688:
 2886              	.LBE687:
 2887              	.LBE686:
 2888              		.loc 1 652 0
 2889 008a B369     		ldr	r3, [r6, #24]
 2890              	.LBB692:
 2891              	.LBB693:
 2892              		.loc 3 682 0
 2893 008c 1848     		ldr	r0, .L322+4
 2894              	.LBE693:
 2895              	.LBE692:
 2896              		.loc 1 652 0
 2897 008e 23F01003 		bic	r3, r3, #16
 2898 0092 B361     		str	r3, [r6, #24]
 2899              	.LVL271:
 2900              	.LBB695:
 2901              	.LBB694:
 2902              		.loc 3 682 0
 2903 0094 0021     		movs	r1, #0
 2904 0096 FFF7FEFF 		bl	chThdResumeI
 2905              	.LVL272:
 2906              	.LBE694:
 2907              	.LBE695:
ARM GAS  /tmp/ccigORce.s 			page 52


 2908              	.LBB696:
 2909              	.LBB697:
 2910              	.LBB698:
 2911              	.LBB699:
 2912              	.LBB700:
 2913              	.LBB701:
 2914              		.loc 2 546 0
 2915 009a 0023     		movs	r3, #0
 2916              		.syntax unified
 2917              	@ 546 "/home/selim/working/ChibiOS/os/ext/CMSIS/include/core_cmFunc.h" 1
 2918 009c 83F31188 		MSR basepri, r3
 2919              	@ 0 "" 2
 2920              	.LVL273:
 2921              		.thumb
 2922              		.syntax unified
 2923 00a0 C4E7     		b	.L259
 2924              	.LVL274:
 2925              	.L320:
 2926              	.LBE701:
 2927              	.LBE700:
 2928              	.LBE699:
 2929              	.LBE698:
 2930              	.LBE697:
 2931              	.LBE696:
 2932              		.loc 1 681 0
 2933 00a2 0220     		movs	r0, #2
 2934 00a4 FFF7FEFF 		bl	otg_epout_handler.constprop.7
 2935              	.LVL275:
 2936              		.loc 1 682 0
 2937 00a8 2B03     		lsls	r3, r5, #12
 2938 00aa D5D5     		bpl	.L267
 2939 00ac D8E7     		b	.L321
 2940              	.L318:
 2941              		.loc 1 677 0
 2942 00ae 0020     		movs	r0, #0
 2943 00b0 FFF7FEFF 		bl	otg_epout_handler.constprop.7
 2944              	.LVL276:
 2945              		.loc 1 678 0
 2946 00b4 A903     		lsls	r1, r5, #14
 2947 00b6 CBD5     		bpl	.L269
 2948              	.L319:
 2949              		.loc 1 679 0
 2950 00b8 0120     		movs	r0, #1
 2951 00ba FFF7FEFF 		bl	otg_epout_handler.constprop.7
 2952              	.LVL277:
 2953              		.loc 1 680 0
 2954 00be 6A03     		lsls	r2, r5, #13
 2955 00c0 C8D5     		bpl	.L270
 2956 00c2 EEE7     		b	.L320
 2957              	.LVL278:
 2958              	.L314:
 2959              		.loc 1 661 0
 2960 00c4 0020     		movs	r0, #0
 2961 00c6 FFF7FEFF 		bl	otg_epin_handler.constprop.8
 2962              	.LVL279:
 2963              		.loc 1 662 0
 2964 00ca AA07     		lsls	r2, r5, #30
ARM GAS  /tmp/ccigORce.s 			page 53


 2965 00cc B6D5     		bpl	.L263
 2966              	.L315:
 2967              		.loc 1 663 0
 2968 00ce 0120     		movs	r0, #1
 2969 00d0 FFF7FEFF 		bl	otg_epin_handler.constprop.8
 2970              	.LVL280:
 2971              		.loc 1 664 0
 2972 00d4 6B07     		lsls	r3, r5, #29
 2973 00d6 B3D5     		bpl	.L264
 2974              	.L316:
 2975              		.loc 1 665 0
 2976 00d8 0220     		movs	r0, #2
 2977 00da FFF7FEFF 		bl	otg_epin_handler.constprop.8
 2978              	.LVL281:
 2979              		.loc 1 666 0
 2980 00de 2E07     		lsls	r6, r5, #28
 2981              	.LVL282:
 2982 00e0 B0D5     		bpl	.L261
 2983              	.L317:
 2984              		.loc 1 667 0
 2985 00e2 0320     		movs	r0, #3
 2986 00e4 FFF7FEFF 		bl	otg_epin_handler.constprop.8
 2987              	.LVL283:
 2988 00e8 ACE7     		b	.L261
 2989              	.L323:
 2990 00ea 00BF     		.align	2
 2991              	.L322:
 2992 00ec 00000000 		.word	.LANCHOR0
 2993 00f0 60000000 		.word	.LANCHOR0+96
 2994              	.LBE703:
 2995              	.LBE705:
 2996              		.cfi_endproc
 2997              	.LFE275:
 2998              		.size	Vector14C, .-Vector14C
 2999              		.section	.text.usb_lld_start_out,"ax",%progbits
 3000              		.align	1
 3001              		.p2align 4,,15
 3002              		.global	usb_lld_start_out
 3003              		.syntax unified
 3004              		.thumb
 3005              		.thumb_func
 3006              		.fpu softvfp
 3007              		.type	usb_lld_start_out, %function
 3008              	usb_lld_start_out:
 3009              	.LFB288:
 3010              		.loc 1 1212 0
 3011              		.cfi_startproc
 3012              		@ args = 0, pretend = 0, frame = 0
 3013              		@ frame_needed = 0, uses_anonymous_args = 0
 3014              		@ link register save eliminated.
 3015              	.LVL284:
 3016 0000 036D     		ldr	r3, [r0, #80]
 3017 0002 03EB4111 		add	r1, r3, r1, lsl #5
 3018              	.LVL285:
 3019              		.loc 1 1214 0
 3020 0006 D1F8003B 		ldr	r3, [r1, #2816]
 3021 000a 43F08063 		orr	r3, r3, #67108864
ARM GAS  /tmp/ccigORce.s 			page 54


 3022 000e C1F8003B 		str	r3, [r1, #2816]
 3023 0012 7047     		bx	lr
 3024              		.cfi_endproc
 3025              	.LFE288:
 3026              		.size	usb_lld_start_out, .-usb_lld_start_out
 3027              		.section	.text.usb_lld_start_in,"ax",%progbits
 3028              		.align	1
 3029              		.p2align 4,,15
 3030              		.global	usb_lld_start_in
 3031              		.syntax unified
 3032              		.thumb
 3033              		.thumb_func
 3034              		.fpu softvfp
 3035              		.type	usb_lld_start_in, %function
 3036              	usb_lld_start_in:
 3037              	.LFB289:
 3038              		.loc 1 1225 0
 3039              		.cfi_startproc
 3040              		@ args = 0, pretend = 0, frame = 0
 3041              		@ frame_needed = 0, uses_anonymous_args = 0
 3042              		@ link register save eliminated.
 3043              	.LVL286:
 3044              		.loc 1 1227 0
 3045 0000 026D     		ldr	r2, [r0, #80]
 3046              		.loc 1 1225 0
 3047 0002 10B4     		push	{r4}
 3048              		.cfi_def_cfa_offset 4
 3049              		.cfi_offset 4, -4
 3050 0004 02EB4114 		add	r4, r2, r1, lsl #5
 3051              		.loc 1 1228 0
 3052 0008 0123     		movs	r3, #1
 3053              		.loc 1 1227 0
 3054 000a D4F80009 		ldr	r0, [r4, #2304]
 3055              	.LVL287:
 3056 000e 40F00440 		orr	r0, r0, #-2080374784
 3057 0012 C4F80009 		str	r0, [r4, #2304]
 3058              		.loc 1 1228 0
 3059 0016 D2F83408 		ldr	r0, [r2, #2100]
 3060              		.loc 1 1229 0
 3061 001a 10BC     		pop	{r4}
 3062              		.cfi_restore 4
 3063              		.cfi_def_cfa_offset 0
 3064              		.loc 1 1228 0
 3065 001c 03FA01F1 		lsl	r1, r3, r1
 3066              	.LVL288:
 3067 0020 0143     		orrs	r1, r1, r0
 3068 0022 C2F83418 		str	r1, [r2, #2100]
 3069              		.loc 1 1229 0
 3070 0026 7047     		bx	lr
 3071              		.cfi_endproc
 3072              	.LFE289:
 3073              		.size	usb_lld_start_in, .-usb_lld_start_in
 3074              		.section	.text.usb_lld_stall_out,"ax",%progbits
 3075              		.align	1
 3076              		.p2align 4,,15
 3077              		.global	usb_lld_stall_out
 3078              		.syntax unified
ARM GAS  /tmp/ccigORce.s 			page 55


 3079              		.thumb
 3080              		.thumb_func
 3081              		.fpu softvfp
 3082              		.type	usb_lld_stall_out, %function
 3083              	usb_lld_stall_out:
 3084              	.LFB290:
 3085              		.loc 1 1239 0
 3086              		.cfi_startproc
 3087              		@ args = 0, pretend = 0, frame = 0
 3088              		@ frame_needed = 0, uses_anonymous_args = 0
 3089              		@ link register save eliminated.
 3090              	.LVL289:
 3091 0000 036D     		ldr	r3, [r0, #80]
 3092 0002 03EB4111 		add	r1, r3, r1, lsl #5
 3093              	.LVL290:
 3094              		.loc 1 1241 0
 3095 0006 D1F8003B 		ldr	r3, [r1, #2816]
 3096 000a 43F40013 		orr	r3, r3, #2097152
 3097 000e C1F8003B 		str	r3, [r1, #2816]
 3098 0012 7047     		bx	lr
 3099              		.cfi_endproc
 3100              	.LFE290:
 3101              		.size	usb_lld_stall_out, .-usb_lld_stall_out
 3102              		.section	.text.usb_lld_stall_in,"ax",%progbits
 3103              		.align	1
 3104              		.p2align 4,,15
 3105              		.global	usb_lld_stall_in
 3106              		.syntax unified
 3107              		.thumb
 3108              		.thumb_func
 3109              		.fpu softvfp
 3110              		.type	usb_lld_stall_in, %function
 3111              	usb_lld_stall_in:
 3112              	.LFB291:
 3113              		.loc 1 1252 0
 3114              		.cfi_startproc
 3115              		@ args = 0, pretend = 0, frame = 0
 3116              		@ frame_needed = 0, uses_anonymous_args = 0
 3117              		@ link register save eliminated.
 3118              	.LVL291:
 3119 0000 036D     		ldr	r3, [r0, #80]
 3120 0002 03EB4111 		add	r1, r3, r1, lsl #5
 3121              	.LVL292:
 3122              		.loc 1 1254 0
 3123 0006 D1F80039 		ldr	r3, [r1, #2304]
 3124 000a 43F40013 		orr	r3, r3, #2097152
 3125 000e C1F80039 		str	r3, [r1, #2304]
 3126 0012 7047     		bx	lr
 3127              		.cfi_endproc
 3128              	.LFE291:
 3129              		.size	usb_lld_stall_in, .-usb_lld_stall_in
 3130              		.section	.text.usb_lld_clear_out,"ax",%progbits
 3131              		.align	1
 3132              		.p2align 4,,15
 3133              		.global	usb_lld_clear_out
 3134              		.syntax unified
 3135              		.thumb
ARM GAS  /tmp/ccigORce.s 			page 56


 3136              		.thumb_func
 3137              		.fpu softvfp
 3138              		.type	usb_lld_clear_out, %function
 3139              	usb_lld_clear_out:
 3140              	.LFB292:
 3141              		.loc 1 1265 0
 3142              		.cfi_startproc
 3143              		@ args = 0, pretend = 0, frame = 0
 3144              		@ frame_needed = 0, uses_anonymous_args = 0
 3145              		@ link register save eliminated.
 3146              	.LVL293:
 3147 0000 036D     		ldr	r3, [r0, #80]
 3148 0002 03EB4111 		add	r1, r3, r1, lsl #5
 3149              	.LVL294:
 3150              		.loc 1 1267 0
 3151 0006 D1F8003B 		ldr	r3, [r1, #2816]
 3152 000a 23F40013 		bic	r3, r3, #2097152
 3153 000e C1F8003B 		str	r3, [r1, #2816]
 3154 0012 7047     		bx	lr
 3155              		.cfi_endproc
 3156              	.LFE292:
 3157              		.size	usb_lld_clear_out, .-usb_lld_clear_out
 3158              		.section	.text.usb_lld_clear_in,"ax",%progbits
 3159              		.align	1
 3160              		.p2align 4,,15
 3161              		.global	usb_lld_clear_in
 3162              		.syntax unified
 3163              		.thumb
 3164              		.thumb_func
 3165              		.fpu softvfp
 3166              		.type	usb_lld_clear_in, %function
 3167              	usb_lld_clear_in:
 3168              	.LFB293:
 3169              		.loc 1 1278 0
 3170              		.cfi_startproc
 3171              		@ args = 0, pretend = 0, frame = 0
 3172              		@ frame_needed = 0, uses_anonymous_args = 0
 3173              		@ link register save eliminated.
 3174              	.LVL295:
 3175 0000 036D     		ldr	r3, [r0, #80]
 3176 0002 03EB4111 		add	r1, r3, r1, lsl #5
 3177              	.LVL296:
 3178              		.loc 1 1280 0
 3179 0006 D1F80039 		ldr	r3, [r1, #2304]
 3180 000a 23F40013 		bic	r3, r3, #2097152
 3181 000e C1F80039 		str	r3, [r1, #2304]
 3182 0012 7047     		bx	lr
 3183              		.cfi_endproc
 3184              	.LFE293:
 3185              		.size	usb_lld_clear_in, .-usb_lld_clear_in
 3186              		.global	USBD1
 3187              		.section	.bss.USBD1,"aw",%nobits
 3188              		.align	3
 3189              		.set	.LANCHOR0,. + 0
 3190              		.type	USBD1, %object
 3191              		.size	USBD1, 432
 3192              	USBD1:
ARM GAS  /tmp/ccigORce.s 			page 57


 3193 0000 00000000 		.space	432
 3193      00000000 
 3193      00000000 
 3193      00000000 
 3193      00000000 
 3194              		.section	.bss.ep0_state,"aw",%nobits
 3195              		.align	2
 3196              		.type	ep0_state, %object
 3197              		.size	ep0_state, 20
 3198              	ep0_state:
 3199 0000 00000000 		.space	20
 3199      00000000 
 3199      00000000 
 3199      00000000 
 3199      00000000 
 3200              		.section	.bss.ep0setup_buffer,"aw",%nobits
 3201              		.align	2
 3202              		.type	ep0setup_buffer, %object
 3203              		.size	ep0setup_buffer, 8
 3204              	ep0setup_buffer:
 3205 0000 00000000 		.space	8
 3205      00000000 
 3206              		.section	.rodata.ep0config,"a",%progbits
 3207              		.align	2
 3208              		.set	.LANCHOR2,. + 0
 3209              		.type	ep0config, %object
 3210              		.size	ep0config, 36
 3211              	ep0config:
 3212 0000 00000000 		.word	0
 3213 0004 00000000 		.word	_usb_ep0setup
 3214 0008 00000000 		.word	_usb_ep0in
 3215 000c 00000000 		.word	_usb_ep0out
 3216 0010 4000     		.short	64
 3217 0012 4000     		.short	64
 3218 0014 00000000 		.word	ep0_state
 3219 0018 00000000 		.word	ep0_state
 3220 001c 0100     		.short	1
 3221 001e 0000     		.space	2
 3222 0020 00000000 		.word	ep0setup_buffer
 3223              		.section	.rodata.fsparams,"a",%progbits
 3224              		.align	2
 3225              		.set	.LANCHOR1,. + 0
 3226              		.type	fsparams, %object
 3227              		.size	fsparams, 12
 3228              	fsparams:
 3229 0000 80000000 		.word	128
 3230 0004 40010000 		.word	320
 3231 0008 03000000 		.word	3
 3232              		.section	.rodata.usb_lld_pump.str1.4,"aMS",%progbits,1
 3233              		.align	2
 3234              	.LC0:
 3235 0000 7573625F 		.ascii	"usb_lld_pump\000"
 3235      6C6C645F 
 3235      70756D70 
 3235      00
 3236              		.text
 3237              	.Letext0:
ARM GAS  /tmp/ccigORce.s 			page 58


 3238              		.file 5 "/usr/lib/gcc/arm-none-eabi/6.2.1/include/stddef.h"
 3239              		.file 6 "/usr/arm-none-eabi/include/machine/_default_types.h"
 3240              		.file 7 "/usr/arm-none-eabi/include/sys/lock.h"
 3241              		.file 8 "/usr/arm-none-eabi/include/sys/_types.h"
 3242              		.file 9 "/usr/arm-none-eabi/include/sys/reent.h"
 3243              		.file 10 "/usr/arm-none-eabi/include/sys/_stdint.h"
 3244              		.file 11 "/home/selim/working/ChibiOS/os/rt/ports/ARMCMx/compilers/GCC/chtypes.h"
 3245              		.file 12 "/home/selim/working/ChibiOS/os/rt/include/chsystypes.h"
 3246              		.file 13 "/home/selim/working/ChibiOS/os/rt/include/chschd.h"
 3247              		.file 14 "/home/selim/working/ChibiOS/os/ext/CMSIS/include/core_cm4.h"
 3248              		.file 15 "/home/selim/working/ChibiOS/os/ext/CMSIS/ST/system_stm32f4xx.h"
 3249              		.file 16 "/home/selim/working/ChibiOS/os/ext/CMSIS/ST/stm32f407xx.h"
 3250              		.file 17 "/home/selim/working/ChibiOS/os/rt/ports/ARMCMx/chcore.h"
 3251              		.file 18 "/home/selim/working/ChibiOS/os/rt/ports/ARMCMx/chcore_v7m.h"
 3252              		.file 19 "/home/selim/working/ChibiOS/os/hal/ports/STM32/LLD/TIMv1/stm32_tim.h"
 3253              		.file 20 "/home/selim/working/ChibiOS/os/rt/include/chtm.h"
 3254              		.file 21 "/home/selim/working/ChibiOS/os/rt/include/chsem.h"
 3255              		.file 22 "/home/selim/working/ChibiOS/os/rt/include/chmtx.h"
 3256              		.file 23 "/home/selim/working/ChibiOS/os/rt/include/chregistry.h"
 3257              		.file 24 "/home/selim/working/ChibiOS/os/rt/include/chevents.h"
 3258              		.file 25 "/home/selim/working/ChibiOS/os/rt/include/chqueues.h"
 3259              		.file 26 "/home/selim/working/ChibiOS/os/hal/ports/STM32/STM32F4xx/stm32_dma.h"
 3260              		.file 27 "/home/selim/working/ChibiOS/os/hal/ports/STM32/LLD/GPIOv2/pal_lld.h"
 3261              		.file 28 "/home/selim/working/ChibiOS/os/hal/include/adc.h"
 3262              		.file 29 "/home/selim/working/ChibiOS/os/hal/ports/STM32/STM32F4xx/adc_lld.h"
 3263              		.file 30 "/home/selim/working/ChibiOS/os/hal/include/gpt.h"
 3264              		.file 31 "/home/selim/working/ChibiOS/os/hal/ports/STM32/LLD/TIMv1/gpt_lld.h"
 3265              		.file 32 "/home/selim/working/ChibiOS/os/hal/include/pwm.h"
 3266              		.file 33 "/home/selim/working/ChibiOS/os/hal/ports/STM32/LLD/TIMv1/pwm_lld.h"
 3267              		.file 34 "/home/selim/working/ChibiOS/os/hal/include/serial.h"
 3268              		.file 35 "/home/selim/working/ChibiOS/os/hal/ports/STM32/LLD/USARTv1/serial_lld.h"
 3269              		.file 36 "/home/selim/working/ChibiOS/os/hal/include/spi.h"
 3270              		.file 37 "/home/selim/working/ChibiOS/os/hal/ports/STM32/LLD/SPIv1/spi_lld.h"
 3271              		.file 38 "/home/selim/working/ChibiOS/os/hal/include/usb.h"
 3272              		.file 39 "/home/selim/working/ChibiOS/os/hal/ports/STM32/LLD/OTGv1/usb_lld.h"
 3273              		.file 40 "/home/selim/working/ChibiOS/os/hal/ports/STM32/LLD/OTGv1/stm32_otg.h"
 3274              		.file 41 "/home/selim/working/ChibiOS/os/rt/include/chsys.h"
 3275              		.file 42 "/home/selim/working/ChibiOS/os/hal/ports/common/ARMCMx/nvic.h"
 3276              		.section	.debug_info,"",%progbits
 3277              	.Ldebug_info0:
 3278 0000 7E480000 		.4byte	0x487e
 3279 0004 0400     		.2byte	0x4
 3280 0006 00000000 		.4byte	.Ldebug_abbrev0
 3281 000a 04       		.byte	0x4
 3282 000b 01       		.uleb128 0x1
 3283 000c DF000000 		.4byte	.LASF714
 3284 0010 0C       		.byte	0xc
 3285 0011 640C0000 		.4byte	.LASF715
 3286 0015 28030000 		.4byte	.Ldebug_ranges0+0x328
 3287 0019 00000000 		.4byte	0
 3288 001d 00000000 		.4byte	.Ldebug_line0
 3289 0021 02       		.uleb128 0x2
 3290 0022 04       		.byte	0x4
 3291 0023 07       		.byte	0x7
 3292 0024 C4110000 		.4byte	.LASF0
 3293 0028 03       		.uleb128 0x3
 3294 0029 04       		.byte	0x4
ARM GAS  /tmp/ccigORce.s 			page 59


 3295 002a 05       		.byte	0x5
 3296 002b 696E7400 		.ascii	"int\000"
 3297 002f 04       		.uleb128 0x4
 3298 0030 39000000 		.4byte	.LASF4
 3299 0034 05       		.byte	0x5
 3300 0035 D8       		.byte	0xd8
 3301 0036 21000000 		.4byte	0x21
 3302 003a 02       		.uleb128 0x2
 3303 003b 08       		.byte	0x8
 3304 003c 05       		.byte	0x5
 3305 003d C60F0000 		.4byte	.LASF1
 3306 0041 02       		.uleb128 0x2
 3307 0042 08       		.byte	0x8
 3308 0043 04       		.byte	0x4
 3309 0044 54140000 		.4byte	.LASF2
 3310 0048 02       		.uleb128 0x2
 3311 0049 01       		.byte	0x1
 3312 004a 06       		.byte	0x6
 3313 004b 07070000 		.4byte	.LASF3
 3314 004f 04       		.uleb128 0x4
 3315 0050 A4040000 		.4byte	.LASF5
 3316 0054 06       		.byte	0x6
 3317 0055 2B       		.byte	0x2b
 3318 0056 5A000000 		.4byte	0x5a
 3319 005a 02       		.uleb128 0x2
 3320 005b 01       		.byte	0x1
 3321 005c 08       		.byte	0x8
 3322 005d CD070000 		.4byte	.LASF6
 3323 0061 02       		.uleb128 0x2
 3324 0062 02       		.byte	0x2
 3325 0063 05       		.byte	0x5
 3326 0064 A7180000 		.4byte	.LASF7
 3327 0068 04       		.uleb128 0x4
 3328 0069 A6090000 		.4byte	.LASF8
 3329 006d 06       		.byte	0x6
 3330 006e 39       		.byte	0x39
 3331 006f 73000000 		.4byte	0x73
 3332 0073 02       		.uleb128 0x2
 3333 0074 02       		.byte	0x2
 3334 0075 07       		.byte	0x7
 3335 0076 D51B0000 		.4byte	.LASF9
 3336 007a 04       		.uleb128 0x4
 3337 007b 821C0000 		.4byte	.LASF10
 3338 007f 06       		.byte	0x6
 3339 0080 4D       		.byte	0x4d
 3340 0081 85000000 		.4byte	0x85
 3341 0085 02       		.uleb128 0x2
 3342 0086 04       		.byte	0x4
 3343 0087 05       		.byte	0x5
 3344 0088 67050000 		.4byte	.LASF11
 3345 008c 04       		.uleb128 0x4
 3346 008d 950F0000 		.4byte	.LASF12
 3347 0091 06       		.byte	0x6
 3348 0092 4F       		.byte	0x4f
 3349 0093 97000000 		.4byte	0x97
 3350 0097 02       		.uleb128 0x2
 3351 0098 04       		.byte	0x4
ARM GAS  /tmp/ccigORce.s 			page 60


 3352 0099 07       		.byte	0x7
 3353 009a 080D0000 		.4byte	.LASF13
 3354 009e 04       		.uleb128 0x4
 3355 009f E40C0000 		.4byte	.LASF14
 3356 00a3 06       		.byte	0x6
 3357 00a4 69       		.byte	0x69
 3358 00a5 A9000000 		.4byte	0xa9
 3359 00a9 02       		.uleb128 0x2
 3360 00aa 08       		.byte	0x8
 3361 00ab 07       		.byte	0x7
 3362 00ac 21150000 		.4byte	.LASF15
 3363 00b0 04       		.uleb128 0x4
 3364 00b1 B50D0000 		.4byte	.LASF16
 3365 00b5 07       		.byte	0x7
 3366 00b6 07       		.byte	0x7
 3367 00b7 28000000 		.4byte	0x28
 3368 00bb 04       		.uleb128 0x4
 3369 00bc 811B0000 		.4byte	.LASF17
 3370 00c0 08       		.byte	0x8
 3371 00c1 2C       		.byte	0x2c
 3372 00c2 85000000 		.4byte	0x85
 3373 00c6 04       		.uleb128 0x4
 3374 00c7 BB140000 		.4byte	.LASF18
 3375 00cb 08       		.byte	0x8
 3376 00cc 72       		.byte	0x72
 3377 00cd 85000000 		.4byte	0x85
 3378 00d1 05       		.uleb128 0x5
 3379 00d2 59170000 		.4byte	.LASF19
 3380 00d6 05       		.byte	0x5
 3381 00d7 6501     		.2byte	0x165
 3382 00d9 21000000 		.4byte	0x21
 3383 00dd 06       		.uleb128 0x6
 3384 00de 04       		.byte	0x4
 3385 00df 08       		.byte	0x8
 3386 00e0 A6       		.byte	0xa6
 3387 00e1 FC000000 		.4byte	0xfc
 3388 00e5 07       		.uleb128 0x7
 3389 00e6 7F040000 		.4byte	.LASF20
 3390 00ea 08       		.byte	0x8
 3391 00eb A8       		.byte	0xa8
 3392 00ec D1000000 		.4byte	0xd1
 3393 00f0 07       		.uleb128 0x7
 3394 00f1 C3140000 		.4byte	.LASF21
 3395 00f5 08       		.byte	0x8
 3396 00f6 A9       		.byte	0xa9
 3397 00f7 FC000000 		.4byte	0xfc
 3398 00fb 00       		.byte	0
 3399 00fc 08       		.uleb128 0x8
 3400 00fd 5A000000 		.4byte	0x5a
 3401 0101 0C010000 		.4byte	0x10c
 3402 0105 09       		.uleb128 0x9
 3403 0106 0C010000 		.4byte	0x10c
 3404 010a 03       		.byte	0x3
 3405 010b 00       		.byte	0
 3406 010c 02       		.uleb128 0x2
 3407 010d 04       		.byte	0x4
 3408 010e 07       		.byte	0x7
ARM GAS  /tmp/ccigORce.s 			page 61


 3409 010f 4A000000 		.4byte	.LASF22
 3410 0113 0A       		.uleb128 0xa
 3411 0114 08       		.byte	0x8
 3412 0115 08       		.byte	0x8
 3413 0116 A3       		.byte	0xa3
 3414 0117 34010000 		.4byte	0x134
 3415 011b 0B       		.uleb128 0xb
 3416 011c CD130000 		.4byte	.LASF23
 3417 0120 08       		.byte	0x8
 3418 0121 A5       		.byte	0xa5
 3419 0122 28000000 		.4byte	0x28
 3420 0126 00       		.byte	0
 3421 0127 0B       		.uleb128 0xb
 3422 0128 5E000000 		.4byte	.LASF24
 3423 012c 08       		.byte	0x8
 3424 012d AA       		.byte	0xaa
 3425 012e DD000000 		.4byte	0xdd
 3426 0132 04       		.byte	0x4
 3427 0133 00       		.byte	0
 3428 0134 04       		.uleb128 0x4
 3429 0135 31170000 		.4byte	.LASF25
 3430 0139 08       		.byte	0x8
 3431 013a AB       		.byte	0xab
 3432 013b 13010000 		.4byte	0x113
 3433 013f 04       		.uleb128 0x4
 3434 0140 CD160000 		.4byte	.LASF26
 3435 0144 08       		.byte	0x8
 3436 0145 AF       		.byte	0xaf
 3437 0146 B0000000 		.4byte	0xb0
 3438 014a 0C       		.uleb128 0xc
 3439 014b 04       		.byte	0x4
 3440 014c 0D       		.uleb128 0xd
 3441 014d 04       		.byte	0x4
 3442 014e 52010000 		.4byte	0x152
 3443 0152 02       		.uleb128 0x2
 3444 0153 01       		.byte	0x1
 3445 0154 08       		.byte	0x8
 3446 0155 47090000 		.4byte	.LASF27
 3447 0159 0E       		.uleb128 0xe
 3448 015a 52010000 		.4byte	0x152
 3449 015e 04       		.uleb128 0x4
 3450 015f FC1A0000 		.4byte	.LASF28
 3451 0163 09       		.byte	0x9
 3452 0164 16       		.byte	0x16
 3453 0165 97000000 		.4byte	0x97
 3454 0169 0F       		.uleb128 0xf
 3455 016a 8E0E0000 		.4byte	.LASF33
 3456 016e 18       		.byte	0x18
 3457 016f 09       		.byte	0x9
 3458 0170 2F       		.byte	0x2f
 3459 0171 BC010000 		.4byte	0x1bc
 3460 0175 0B       		.uleb128 0xb
 3461 0176 8E170000 		.4byte	.LASF29
 3462 017a 09       		.byte	0x9
 3463 017b 31       		.byte	0x31
 3464 017c BC010000 		.4byte	0x1bc
 3465 0180 00       		.byte	0
ARM GAS  /tmp/ccigORce.s 			page 62


 3466 0181 10       		.uleb128 0x10
 3467 0182 5F6B00   		.ascii	"_k\000"
 3468 0185 09       		.byte	0x9
 3469 0186 32       		.byte	0x32
 3470 0187 28000000 		.4byte	0x28
 3471 018b 04       		.byte	0x4
 3472 018c 0B       		.uleb128 0xb
 3473 018d CF0E0000 		.4byte	.LASF30
 3474 0191 09       		.byte	0x9
 3475 0192 32       		.byte	0x32
 3476 0193 28000000 		.4byte	0x28
 3477 0197 08       		.byte	0x8
 3478 0198 0B       		.uleb128 0xb
 3479 0199 20110000 		.4byte	.LASF31
 3480 019d 09       		.byte	0x9
 3481 019e 32       		.byte	0x32
 3482 019f 28000000 		.4byte	0x28
 3483 01a3 0C       		.byte	0xc
 3484 01a4 0B       		.uleb128 0xb
 3485 01a5 A70B0000 		.4byte	.LASF32
 3486 01a9 09       		.byte	0x9
 3487 01aa 32       		.byte	0x32
 3488 01ab 28000000 		.4byte	0x28
 3489 01af 10       		.byte	0x10
 3490 01b0 10       		.uleb128 0x10
 3491 01b1 5F7800   		.ascii	"_x\000"
 3492 01b4 09       		.byte	0x9
 3493 01b5 33       		.byte	0x33
 3494 01b6 C2010000 		.4byte	0x1c2
 3495 01ba 14       		.byte	0x14
 3496 01bb 00       		.byte	0
 3497 01bc 0D       		.uleb128 0xd
 3498 01bd 04       		.byte	0x4
 3499 01be 69010000 		.4byte	0x169
 3500 01c2 08       		.uleb128 0x8
 3501 01c3 5E010000 		.4byte	0x15e
 3502 01c7 D2010000 		.4byte	0x1d2
 3503 01cb 09       		.uleb128 0x9
 3504 01cc 0C010000 		.4byte	0x10c
 3505 01d0 00       		.byte	0
 3506 01d1 00       		.byte	0
 3507 01d2 0F       		.uleb128 0xf
 3508 01d3 E3020000 		.4byte	.LASF34
 3509 01d7 24       		.byte	0x24
 3510 01d8 09       		.byte	0x9
 3511 01d9 37       		.byte	0x37
 3512 01da 4B020000 		.4byte	0x24b
 3513 01de 0B       		.uleb128 0xb
 3514 01df FF020000 		.4byte	.LASF35
 3515 01e3 09       		.byte	0x9
 3516 01e4 39       		.byte	0x39
 3517 01e5 28000000 		.4byte	0x28
 3518 01e9 00       		.byte	0
 3519 01ea 0B       		.uleb128 0xb
 3520 01eb 381D0000 		.4byte	.LASF36
 3521 01ef 09       		.byte	0x9
 3522 01f0 3A       		.byte	0x3a
ARM GAS  /tmp/ccigORce.s 			page 63


 3523 01f1 28000000 		.4byte	0x28
 3524 01f5 04       		.byte	0x4
 3525 01f6 0B       		.uleb128 0xb
 3526 01f7 E81B0000 		.4byte	.LASF37
 3527 01fb 09       		.byte	0x9
 3528 01fc 3B       		.byte	0x3b
 3529 01fd 28000000 		.4byte	0x28
 3530 0201 08       		.byte	0x8
 3531 0202 0B       		.uleb128 0xb
 3532 0203 B2120000 		.4byte	.LASF38
 3533 0207 09       		.byte	0x9
 3534 0208 3C       		.byte	0x3c
 3535 0209 28000000 		.4byte	0x28
 3536 020d 0C       		.byte	0xc
 3537 020e 0B       		.uleb128 0xb
 3538 020f 90060000 		.4byte	.LASF39
 3539 0213 09       		.byte	0x9
 3540 0214 3D       		.byte	0x3d
 3541 0215 28000000 		.4byte	0x28
 3542 0219 10       		.byte	0x10
 3543 021a 0B       		.uleb128 0xb
 3544 021b 8F190000 		.4byte	.LASF40
 3545 021f 09       		.byte	0x9
 3546 0220 3E       		.byte	0x3e
 3547 0221 28000000 		.4byte	0x28
 3548 0225 14       		.byte	0x14
 3549 0226 0B       		.uleb128 0xb
 3550 0227 0D140000 		.4byte	.LASF41
 3551 022b 09       		.byte	0x9
 3552 022c 3F       		.byte	0x3f
 3553 022d 28000000 		.4byte	0x28
 3554 0231 18       		.byte	0x18
 3555 0232 0B       		.uleb128 0xb
 3556 0233 60140000 		.4byte	.LASF42
 3557 0237 09       		.byte	0x9
 3558 0238 40       		.byte	0x40
 3559 0239 28000000 		.4byte	0x28
 3560 023d 1C       		.byte	0x1c
 3561 023e 0B       		.uleb128 0xb
 3562 023f F11C0000 		.4byte	.LASF43
 3563 0243 09       		.byte	0x9
 3564 0244 41       		.byte	0x41
 3565 0245 28000000 		.4byte	0x28
 3566 0249 20       		.byte	0x20
 3567 024a 00       		.byte	0
 3568 024b 11       		.uleb128 0x11
 3569 024c D8040000 		.4byte	.LASF44
 3570 0250 0801     		.2byte	0x108
 3571 0252 09       		.byte	0x9
 3572 0253 4A       		.byte	0x4a
 3573 0254 8B020000 		.4byte	0x28b
 3574 0258 0B       		.uleb128 0xb
 3575 0259 E41C0000 		.4byte	.LASF45
 3576 025d 09       		.byte	0x9
 3577 025e 4B       		.byte	0x4b
 3578 025f 8B020000 		.4byte	0x28b
 3579 0263 00       		.byte	0
ARM GAS  /tmp/ccigORce.s 			page 64


 3580 0264 0B       		.uleb128 0xb
 3581 0265 A0150000 		.4byte	.LASF46
 3582 0269 09       		.byte	0x9
 3583 026a 4C       		.byte	0x4c
 3584 026b 8B020000 		.4byte	0x28b
 3585 026f 80       		.byte	0x80
 3586 0270 12       		.uleb128 0x12
 3587 0271 58190000 		.4byte	.LASF47
 3588 0275 09       		.byte	0x9
 3589 0276 4E       		.byte	0x4e
 3590 0277 5E010000 		.4byte	0x15e
 3591 027b 0001     		.2byte	0x100
 3592 027d 12       		.uleb128 0x12
 3593 027e 7F1A0000 		.4byte	.LASF48
 3594 0282 09       		.byte	0x9
 3595 0283 51       		.byte	0x51
 3596 0284 5E010000 		.4byte	0x15e
 3597 0288 0401     		.2byte	0x104
 3598 028a 00       		.byte	0
 3599 028b 08       		.uleb128 0x8
 3600 028c 4A010000 		.4byte	0x14a
 3601 0290 9B020000 		.4byte	0x29b
 3602 0294 09       		.uleb128 0x9
 3603 0295 0C010000 		.4byte	0x10c
 3604 0299 1F       		.byte	0x1f
 3605 029a 00       		.byte	0
 3606 029b 11       		.uleb128 0x11
 3607 029c 8C130000 		.4byte	.LASF49
 3608 02a0 9001     		.2byte	0x190
 3609 02a2 09       		.byte	0x9
 3610 02a3 5D       		.byte	0x5d
 3611 02a4 D9020000 		.4byte	0x2d9
 3612 02a8 0B       		.uleb128 0xb
 3613 02a9 8E170000 		.4byte	.LASF29
 3614 02ad 09       		.byte	0x9
 3615 02ae 5E       		.byte	0x5e
 3616 02af D9020000 		.4byte	0x2d9
 3617 02b3 00       		.byte	0
 3618 02b4 0B       		.uleb128 0xb
 3619 02b5 471A0000 		.4byte	.LASF50
 3620 02b9 09       		.byte	0x9
 3621 02ba 5F       		.byte	0x5f
 3622 02bb 28000000 		.4byte	0x28
 3623 02bf 04       		.byte	0x4
 3624 02c0 0B       		.uleb128 0xb
 3625 02c1 54090000 		.4byte	.LASF51
 3626 02c5 09       		.byte	0x9
 3627 02c6 61       		.byte	0x61
 3628 02c7 DF020000 		.4byte	0x2df
 3629 02cb 08       		.byte	0x8
 3630 02cc 0B       		.uleb128 0xb
 3631 02cd D8040000 		.4byte	.LASF44
 3632 02d1 09       		.byte	0x9
 3633 02d2 62       		.byte	0x62
 3634 02d3 4B020000 		.4byte	0x24b
 3635 02d7 88       		.byte	0x88
 3636 02d8 00       		.byte	0
ARM GAS  /tmp/ccigORce.s 			page 65


 3637 02d9 0D       		.uleb128 0xd
 3638 02da 04       		.byte	0x4
 3639 02db 9B020000 		.4byte	0x29b
 3640 02df 08       		.uleb128 0x8
 3641 02e0 EF020000 		.4byte	0x2ef
 3642 02e4 EF020000 		.4byte	0x2ef
 3643 02e8 09       		.uleb128 0x9
 3644 02e9 0C010000 		.4byte	0x10c
 3645 02ed 1F       		.byte	0x1f
 3646 02ee 00       		.byte	0
 3647 02ef 0D       		.uleb128 0xd
 3648 02f0 04       		.byte	0x4
 3649 02f1 F5020000 		.4byte	0x2f5
 3650 02f5 13       		.uleb128 0x13
 3651 02f6 0F       		.uleb128 0xf
 3652 02f7 781A0000 		.4byte	.LASF52
 3653 02fb 08       		.byte	0x8
 3654 02fc 09       		.byte	0x9
 3655 02fd 75       		.byte	0x75
 3656 02fe 1B030000 		.4byte	0x31b
 3657 0302 0B       		.uleb128 0xb
 3658 0303 6A160000 		.4byte	.LASF53
 3659 0307 09       		.byte	0x9
 3660 0308 76       		.byte	0x76
 3661 0309 1B030000 		.4byte	0x31b
 3662 030d 00       		.byte	0
 3663 030e 0B       		.uleb128 0xb
 3664 030f B9050000 		.4byte	.LASF54
 3665 0313 09       		.byte	0x9
 3666 0314 77       		.byte	0x77
 3667 0315 28000000 		.4byte	0x28
 3668 0319 04       		.byte	0x4
 3669 031a 00       		.byte	0
 3670 031b 0D       		.uleb128 0xd
 3671 031c 04       		.byte	0x4
 3672 031d 5A000000 		.4byte	0x5a
 3673 0321 0F       		.uleb128 0xf
 3674 0322 330D0000 		.4byte	.LASF55
 3675 0326 68       		.byte	0x68
 3676 0327 09       		.byte	0x9
 3677 0328 B5       		.byte	0xb5
 3678 0329 4B040000 		.4byte	0x44b
 3679 032d 10       		.uleb128 0x10
 3680 032e 5F7000   		.ascii	"_p\000"
 3681 0331 09       		.byte	0x9
 3682 0332 B6       		.byte	0xb6
 3683 0333 1B030000 		.4byte	0x31b
 3684 0337 00       		.byte	0
 3685 0338 10       		.uleb128 0x10
 3686 0339 5F7200   		.ascii	"_r\000"
 3687 033c 09       		.byte	0x9
 3688 033d B7       		.byte	0xb7
 3689 033e 28000000 		.4byte	0x28
 3690 0342 04       		.byte	0x4
 3691 0343 10       		.uleb128 0x10
 3692 0344 5F7700   		.ascii	"_w\000"
 3693 0347 09       		.byte	0x9
ARM GAS  /tmp/ccigORce.s 			page 66


 3694 0348 B8       		.byte	0xb8
 3695 0349 28000000 		.4byte	0x28
 3696 034d 08       		.byte	0x8
 3697 034e 0B       		.uleb128 0xb
 3698 034f 52130000 		.4byte	.LASF56
 3699 0353 09       		.byte	0x9
 3700 0354 B9       		.byte	0xb9
 3701 0355 61000000 		.4byte	0x61
 3702 0359 0C       		.byte	0xc
 3703 035a 0B       		.uleb128 0xb
 3704 035b B4040000 		.4byte	.LASF57
 3705 035f 09       		.byte	0x9
 3706 0360 BA       		.byte	0xba
 3707 0361 61000000 		.4byte	0x61
 3708 0365 0E       		.byte	0xe
 3709 0366 10       		.uleb128 0x10
 3710 0367 5F626600 		.ascii	"_bf\000"
 3711 036b 09       		.byte	0x9
 3712 036c BB       		.byte	0xbb
 3713 036d F6020000 		.4byte	0x2f6
 3714 0371 10       		.byte	0x10
 3715 0372 0B       		.uleb128 0xb
 3716 0373 1B1A0000 		.4byte	.LASF58
 3717 0377 09       		.byte	0x9
 3718 0378 BC       		.byte	0xbc
 3719 0379 28000000 		.4byte	0x28
 3720 037d 18       		.byte	0x18
 3721 037e 0B       		.uleb128 0xb
 3722 037f 870B0000 		.4byte	.LASF59
 3723 0383 09       		.byte	0x9
 3724 0384 C3       		.byte	0xc3
 3725 0385 4A010000 		.4byte	0x14a
 3726 0389 1C       		.byte	0x1c
 3727 038a 0B       		.uleb128 0xb
 3728 038b A0000000 		.4byte	.LASF60
 3729 038f 09       		.byte	0x9
 3730 0390 C5       		.byte	0xc5
 3731 0391 A6050000 		.4byte	0x5a6
 3732 0395 20       		.byte	0x20
 3733 0396 0B       		.uleb128 0xb
 3734 0397 B9010000 		.4byte	.LASF61
 3735 039b 09       		.byte	0x9
 3736 039c C7       		.byte	0xc7
 3737 039d D5050000 		.4byte	0x5d5
 3738 03a1 24       		.byte	0x24
 3739 03a2 0B       		.uleb128 0xb
 3740 03a3 AC140000 		.4byte	.LASF62
 3741 03a7 09       		.byte	0x9
 3742 03a8 CA       		.byte	0xca
 3743 03a9 F9050000 		.4byte	0x5f9
 3744 03ad 28       		.byte	0x28
 3745 03ae 0B       		.uleb128 0xb
 3746 03af 66090000 		.4byte	.LASF63
 3747 03b3 09       		.byte	0x9
 3748 03b4 CB       		.byte	0xcb
 3749 03b5 13060000 		.4byte	0x613
 3750 03b9 2C       		.byte	0x2c
ARM GAS  /tmp/ccigORce.s 			page 67


 3751 03ba 10       		.uleb128 0x10
 3752 03bb 5F756200 		.ascii	"_ub\000"
 3753 03bf 09       		.byte	0x9
 3754 03c0 CE       		.byte	0xce
 3755 03c1 F6020000 		.4byte	0x2f6
 3756 03c5 30       		.byte	0x30
 3757 03c6 10       		.uleb128 0x10
 3758 03c7 5F757000 		.ascii	"_up\000"
 3759 03cb 09       		.byte	0x9
 3760 03cc CF       		.byte	0xcf
 3761 03cd 1B030000 		.4byte	0x31b
 3762 03d1 38       		.byte	0x38
 3763 03d2 10       		.uleb128 0x10
 3764 03d3 5F757200 		.ascii	"_ur\000"
 3765 03d7 09       		.byte	0x9
 3766 03d8 D0       		.byte	0xd0
 3767 03d9 28000000 		.4byte	0x28
 3768 03dd 3C       		.byte	0x3c
 3769 03de 0B       		.uleb128 0xb
 3770 03df CB120000 		.4byte	.LASF64
 3771 03e3 09       		.byte	0x9
 3772 03e4 D3       		.byte	0xd3
 3773 03e5 19060000 		.4byte	0x619
 3774 03e9 40       		.byte	0x40
 3775 03ea 0B       		.uleb128 0xb
 3776 03eb F9020000 		.4byte	.LASF65
 3777 03ef 09       		.byte	0x9
 3778 03f0 D4       		.byte	0xd4
 3779 03f1 29060000 		.4byte	0x629
 3780 03f5 43       		.byte	0x43
 3781 03f6 10       		.uleb128 0x10
 3782 03f7 5F6C6200 		.ascii	"_lb\000"
 3783 03fb 09       		.byte	0x9
 3784 03fc D7       		.byte	0xd7
 3785 03fd F6020000 		.4byte	0x2f6
 3786 0401 44       		.byte	0x44
 3787 0402 0B       		.uleb128 0xb
 3788 0403 52160000 		.4byte	.LASF66
 3789 0407 09       		.byte	0x9
 3790 0408 DA       		.byte	0xda
 3791 0409 28000000 		.4byte	0x28
 3792 040d 4C       		.byte	0x4c
 3793 040e 0B       		.uleb128 0xb
 3794 040f F80B0000 		.4byte	.LASF67
 3795 0413 09       		.byte	0x9
 3796 0414 DB       		.byte	0xdb
 3797 0415 BB000000 		.4byte	0xbb
 3798 0419 50       		.byte	0x50
 3799 041a 0B       		.uleb128 0xb
 3800 041b 9A170000 		.4byte	.LASF68
 3801 041f 09       		.byte	0x9
 3802 0420 DE       		.byte	0xde
 3803 0421 69040000 		.4byte	0x469
 3804 0425 54       		.byte	0x54
 3805 0426 0B       		.uleb128 0xb
 3806 0427 87030000 		.4byte	.LASF69
 3807 042b 09       		.byte	0x9
ARM GAS  /tmp/ccigORce.s 			page 68


 3808 042c E2       		.byte	0xe2
 3809 042d 3F010000 		.4byte	0x13f
 3810 0431 58       		.byte	0x58
 3811 0432 0B       		.uleb128 0xb
 3812 0433 23130000 		.4byte	.LASF70
 3813 0437 09       		.byte	0x9
 3814 0438 E4       		.byte	0xe4
 3815 0439 34010000 		.4byte	0x134
 3816 043d 5C       		.byte	0x5c
 3817 043e 0B       		.uleb128 0xb
 3818 043f 460D0000 		.4byte	.LASF71
 3819 0443 09       		.byte	0x9
 3820 0444 E5       		.byte	0xe5
 3821 0445 28000000 		.4byte	0x28
 3822 0449 64       		.byte	0x64
 3823 044a 00       		.byte	0
 3824 044b 14       		.uleb128 0x14
 3825 044c 28000000 		.4byte	0x28
 3826 0450 69040000 		.4byte	0x469
 3827 0454 15       		.uleb128 0x15
 3828 0455 69040000 		.4byte	0x469
 3829 0459 15       		.uleb128 0x15
 3830 045a 4A010000 		.4byte	0x14a
 3831 045e 15       		.uleb128 0x15
 3832 045f 4C010000 		.4byte	0x14c
 3833 0463 15       		.uleb128 0x15
 3834 0464 28000000 		.4byte	0x28
 3835 0468 00       		.byte	0
 3836 0469 0D       		.uleb128 0xd
 3837 046a 04       		.byte	0x4
 3838 046b 74040000 		.4byte	0x474
 3839 046f 0E       		.uleb128 0xe
 3840 0470 69040000 		.4byte	0x469
 3841 0474 16       		.uleb128 0x16
 3842 0475 53080000 		.4byte	.LASF72
 3843 0479 2804     		.2byte	0x428
 3844 047b 09       		.byte	0x9
 3845 047c 3902     		.2byte	0x239
 3846 047e A6050000 		.4byte	0x5a6
 3847 0482 17       		.uleb128 0x17
 3848 0483 FC0D0000 		.4byte	.LASF73
 3849 0487 09       		.byte	0x9
 3850 0488 3B02     		.2byte	0x23b
 3851 048a 28000000 		.4byte	0x28
 3852 048e 00       		.byte	0
 3853 048f 17       		.uleb128 0x17
 3854 0490 DD090000 		.4byte	.LASF74
 3855 0494 09       		.byte	0x9
 3856 0495 4002     		.2byte	0x240
 3857 0497 80060000 		.4byte	0x680
 3858 049b 04       		.byte	0x4
 3859 049c 17       		.uleb128 0x17
 3860 049d 0A160000 		.4byte	.LASF75
 3861 04a1 09       		.byte	0x9
 3862 04a2 4002     		.2byte	0x240
 3863 04a4 80060000 		.4byte	0x680
 3864 04a8 08       		.byte	0x8
ARM GAS  /tmp/ccigORce.s 			page 69


 3865 04a9 17       		.uleb128 0x17
 3866 04aa E2120000 		.4byte	.LASF76
 3867 04ae 09       		.byte	0x9
 3868 04af 4002     		.2byte	0x240
 3869 04b1 80060000 		.4byte	0x680
 3870 04b5 0C       		.byte	0xc
 3871 04b6 17       		.uleb128 0x17
 3872 04b7 421A0000 		.4byte	.LASF77
 3873 04bb 09       		.byte	0x9
 3874 04bc 4202     		.2byte	0x242
 3875 04be 28000000 		.4byte	0x28
 3876 04c2 10       		.byte	0x10
 3877 04c3 17       		.uleb128 0x17
 3878 04c4 A00F0000 		.4byte	.LASF78
 3879 04c8 09       		.byte	0x9
 3880 04c9 4302     		.2byte	0x243
 3881 04cb 62080000 		.4byte	0x862
 3882 04cf 14       		.byte	0x14
 3883 04d0 17       		.uleb128 0x17
 3884 04d1 2F080000 		.4byte	.LASF79
 3885 04d5 09       		.byte	0x9
 3886 04d6 4602     		.2byte	0x246
 3887 04d8 28000000 		.4byte	0x28
 3888 04dc 30       		.byte	0x30
 3889 04dd 17       		.uleb128 0x17
 3890 04de F41A0000 		.4byte	.LASF80
 3891 04e2 09       		.byte	0x9
 3892 04e3 4702     		.2byte	0x247
 3893 04e5 77080000 		.4byte	0x877
 3894 04e9 34       		.byte	0x34
 3895 04ea 17       		.uleb128 0x17
 3896 04eb 3B0D0000 		.4byte	.LASF81
 3897 04ef 09       		.byte	0x9
 3898 04f0 4902     		.2byte	0x249
 3899 04f2 28000000 		.4byte	0x28
 3900 04f6 38       		.byte	0x38
 3901 04f7 17       		.uleb128 0x17
 3902 04f8 070F0000 		.4byte	.LASF82
 3903 04fc 09       		.byte	0x9
 3904 04fd 4B02     		.2byte	0x24b
 3905 04ff 88080000 		.4byte	0x888
 3906 0503 3C       		.byte	0x3c
 3907 0504 17       		.uleb128 0x17
 3908 0505 391B0000 		.4byte	.LASF83
 3909 0509 09       		.byte	0x9
 3910 050a 4E02     		.2byte	0x24e
 3911 050c BC010000 		.4byte	0x1bc
 3912 0510 40       		.byte	0x40
 3913 0511 17       		.uleb128 0x17
 3914 0512 A2050000 		.4byte	.LASF84
 3915 0516 09       		.byte	0x9
 3916 0517 4F02     		.2byte	0x24f
 3917 0519 28000000 		.4byte	0x28
 3918 051d 44       		.byte	0x44
 3919 051e 17       		.uleb128 0x17
 3920 051f 030D0000 		.4byte	.LASF85
 3921 0523 09       		.byte	0x9
ARM GAS  /tmp/ccigORce.s 			page 70


 3922 0524 5002     		.2byte	0x250
 3923 0526 BC010000 		.4byte	0x1bc
 3924 052a 48       		.byte	0x48
 3925 052b 17       		.uleb128 0x17
 3926 052c E7100000 		.4byte	.LASF86
 3927 0530 09       		.byte	0x9
 3928 0531 5102     		.2byte	0x251
 3929 0533 8E080000 		.4byte	0x88e
 3930 0537 4C       		.byte	0x4c
 3931 0538 17       		.uleb128 0x17
 3932 0539 0C020000 		.4byte	.LASF87
 3933 053d 09       		.byte	0x9
 3934 053e 5402     		.2byte	0x254
 3935 0540 28000000 		.4byte	0x28
 3936 0544 50       		.byte	0x50
 3937 0545 17       		.uleb128 0x17
 3938 0546 0D0C0000 		.4byte	.LASF88
 3939 054a 09       		.byte	0x9
 3940 054b 5502     		.2byte	0x255
 3941 054d 4C010000 		.4byte	0x14c
 3942 0551 54       		.byte	0x54
 3943 0552 17       		.uleb128 0x17
 3944 0553 C6120000 		.4byte	.LASF89
 3945 0557 09       		.byte	0x9
 3946 0558 7802     		.2byte	0x278
 3947 055a 40080000 		.4byte	0x840
 3948 055e 58       		.byte	0x58
 3949 055f 18       		.uleb128 0x18
 3950 0560 8C130000 		.4byte	.LASF49
 3951 0564 09       		.byte	0x9
 3952 0565 7C02     		.2byte	0x27c
 3953 0567 D9020000 		.4byte	0x2d9
 3954 056b 4801     		.2byte	0x148
 3955 056d 18       		.uleb128 0x18
 3956 056e 190F0000 		.4byte	.LASF90
 3957 0572 09       		.byte	0x9
 3958 0573 7D02     		.2byte	0x27d
 3959 0575 9B020000 		.4byte	0x29b
 3960 0579 4C01     		.2byte	0x14c
 3961 057b 18       		.uleb128 0x18
 3962 057c C50B0000 		.4byte	.LASF91
 3963 0580 09       		.byte	0x9
 3964 0581 8102     		.2byte	0x281
 3965 0583 9F080000 		.4byte	0x89f
 3966 0587 DC02     		.2byte	0x2dc
 3967 0589 18       		.uleb128 0x18
 3968 058a 2B100000 		.4byte	.LASF92
 3969 058e 09       		.byte	0x9
 3970 058f 8602     		.2byte	0x286
 3971 0591 45060000 		.4byte	0x645
 3972 0595 E002     		.2byte	0x2e0
 3973 0597 18       		.uleb128 0x18
 3974 0598 7C000000 		.4byte	.LASF93
 3975 059c 09       		.byte	0x9
 3976 059d 8702     		.2byte	0x287
 3977 059f AB080000 		.4byte	0x8ab
 3978 05a3 EC02     		.2byte	0x2ec
ARM GAS  /tmp/ccigORce.s 			page 71


 3979 05a5 00       		.byte	0
 3980 05a6 0D       		.uleb128 0xd
 3981 05a7 04       		.byte	0x4
 3982 05a8 4B040000 		.4byte	0x44b
 3983 05ac 14       		.uleb128 0x14
 3984 05ad 28000000 		.4byte	0x28
 3985 05b1 CA050000 		.4byte	0x5ca
 3986 05b5 15       		.uleb128 0x15
 3987 05b6 69040000 		.4byte	0x469
 3988 05ba 15       		.uleb128 0x15
 3989 05bb 4A010000 		.4byte	0x14a
 3990 05bf 15       		.uleb128 0x15
 3991 05c0 CA050000 		.4byte	0x5ca
 3992 05c4 15       		.uleb128 0x15
 3993 05c5 28000000 		.4byte	0x28
 3994 05c9 00       		.byte	0
 3995 05ca 0D       		.uleb128 0xd
 3996 05cb 04       		.byte	0x4
 3997 05cc 59010000 		.4byte	0x159
 3998 05d0 19       		.uleb128 0x19
 3999 05d1 CA050000 		.4byte	0x5ca
 4000 05d5 0D       		.uleb128 0xd
 4001 05d6 04       		.byte	0x4
 4002 05d7 AC050000 		.4byte	0x5ac
 4003 05db 14       		.uleb128 0x14
 4004 05dc C6000000 		.4byte	0xc6
 4005 05e0 F9050000 		.4byte	0x5f9
 4006 05e4 15       		.uleb128 0x15
 4007 05e5 69040000 		.4byte	0x469
 4008 05e9 15       		.uleb128 0x15
 4009 05ea 4A010000 		.4byte	0x14a
 4010 05ee 15       		.uleb128 0x15
 4011 05ef C6000000 		.4byte	0xc6
 4012 05f3 15       		.uleb128 0x15
 4013 05f4 28000000 		.4byte	0x28
 4014 05f8 00       		.byte	0
 4015 05f9 0D       		.uleb128 0xd
 4016 05fa 04       		.byte	0x4
 4017 05fb DB050000 		.4byte	0x5db
 4018 05ff 14       		.uleb128 0x14
 4019 0600 28000000 		.4byte	0x28
 4020 0604 13060000 		.4byte	0x613
 4021 0608 15       		.uleb128 0x15
 4022 0609 69040000 		.4byte	0x469
 4023 060d 15       		.uleb128 0x15
 4024 060e 4A010000 		.4byte	0x14a
 4025 0612 00       		.byte	0
 4026 0613 0D       		.uleb128 0xd
 4027 0614 04       		.byte	0x4
 4028 0615 FF050000 		.4byte	0x5ff
 4029 0619 08       		.uleb128 0x8
 4030 061a 5A000000 		.4byte	0x5a
 4031 061e 29060000 		.4byte	0x629
 4032 0622 09       		.uleb128 0x9
 4033 0623 0C010000 		.4byte	0x10c
 4034 0627 02       		.byte	0x2
 4035 0628 00       		.byte	0
ARM GAS  /tmp/ccigORce.s 			page 72


 4036 0629 08       		.uleb128 0x8
 4037 062a 5A000000 		.4byte	0x5a
 4038 062e 39060000 		.4byte	0x639
 4039 0632 09       		.uleb128 0x9
 4040 0633 0C010000 		.4byte	0x10c
 4041 0637 00       		.byte	0
 4042 0638 00       		.byte	0
 4043 0639 05       		.uleb128 0x5
 4044 063a EA160000 		.4byte	.LASF94
 4045 063e 09       		.byte	0x9
 4046 063f 1F01     		.2byte	0x11f
 4047 0641 21030000 		.4byte	0x321
 4048 0645 1A       		.uleb128 0x1a
 4049 0646 0D110000 		.4byte	.LASF95
 4050 064a 0C       		.byte	0xc
 4051 064b 09       		.byte	0x9
 4052 064c 2301     		.2byte	0x123
 4053 064e 7A060000 		.4byte	0x67a
 4054 0652 17       		.uleb128 0x17
 4055 0653 8E170000 		.4byte	.LASF29
 4056 0657 09       		.byte	0x9
 4057 0658 2501     		.2byte	0x125
 4058 065a 7A060000 		.4byte	0x67a
 4059 065e 00       		.byte	0
 4060 065f 17       		.uleb128 0x17
 4061 0660 03100000 		.4byte	.LASF96
 4062 0664 09       		.byte	0x9
 4063 0665 2601     		.2byte	0x126
 4064 0667 28000000 		.4byte	0x28
 4065 066b 04       		.byte	0x4
 4066 066c 17       		.uleb128 0x17
 4067 066d 01110000 		.4byte	.LASF97
 4068 0671 09       		.byte	0x9
 4069 0672 2701     		.2byte	0x127
 4070 0674 80060000 		.4byte	0x680
 4071 0678 08       		.byte	0x8
 4072 0679 00       		.byte	0
 4073 067a 0D       		.uleb128 0xd
 4074 067b 04       		.byte	0x4
 4075 067c 45060000 		.4byte	0x645
 4076 0680 0D       		.uleb128 0xd
 4077 0681 04       		.byte	0x4
 4078 0682 39060000 		.4byte	0x639
 4079 0686 1A       		.uleb128 0x1a
 4080 0687 DA150000 		.4byte	.LASF98
 4081 068b 0E       		.byte	0xe
 4082 068c 09       		.byte	0x9
 4083 068d 3F01     		.2byte	0x13f
 4084 068f BB060000 		.4byte	0x6bb
 4085 0693 17       		.uleb128 0x17
 4086 0694 9B140000 		.4byte	.LASF99
 4087 0698 09       		.byte	0x9
 4088 0699 4001     		.2byte	0x140
 4089 069b BB060000 		.4byte	0x6bb
 4090 069f 00       		.byte	0
 4091 06a0 17       		.uleb128 0x17
 4092 06a1 B4030000 		.4byte	.LASF100
ARM GAS  /tmp/ccigORce.s 			page 73


 4093 06a5 09       		.byte	0x9
 4094 06a6 4101     		.2byte	0x141
 4095 06a8 BB060000 		.4byte	0x6bb
 4096 06ac 06       		.byte	0x6
 4097 06ad 17       		.uleb128 0x17
 4098 06ae BB1B0000 		.4byte	.LASF101
 4099 06b2 09       		.byte	0x9
 4100 06b3 4201     		.2byte	0x142
 4101 06b5 73000000 		.4byte	0x73
 4102 06b9 0C       		.byte	0xc
 4103 06ba 00       		.byte	0
 4104 06bb 08       		.uleb128 0x8
 4105 06bc 73000000 		.4byte	0x73
 4106 06c0 CB060000 		.4byte	0x6cb
 4107 06c4 09       		.uleb128 0x9
 4108 06c5 0C010000 		.4byte	0x10c
 4109 06c9 02       		.byte	0x2
 4110 06ca 00       		.byte	0
 4111 06cb 1B       		.uleb128 0x1b
 4112 06cc D0       		.byte	0xd0
 4113 06cd 09       		.byte	0x9
 4114 06ce 5902     		.2byte	0x259
 4115 06d0 CC070000 		.4byte	0x7cc
 4116 06d4 17       		.uleb128 0x17
 4117 06d5 F3060000 		.4byte	.LASF102
 4118 06d9 09       		.byte	0x9
 4119 06da 5B02     		.2byte	0x25b
 4120 06dc 21000000 		.4byte	0x21
 4121 06e0 00       		.byte	0
 4122 06e1 17       		.uleb128 0x17
 4123 06e2 7C160000 		.4byte	.LASF103
 4124 06e6 09       		.byte	0x9
 4125 06e7 5C02     		.2byte	0x25c
 4126 06e9 4C010000 		.4byte	0x14c
 4127 06ed 04       		.byte	0x4
 4128 06ee 17       		.uleb128 0x17
 4129 06ef F2010000 		.4byte	.LASF104
 4130 06f3 09       		.byte	0x9
 4131 06f4 5D02     		.2byte	0x25d
 4132 06f6 CC070000 		.4byte	0x7cc
 4133 06fa 08       		.byte	0x8
 4134 06fb 17       		.uleb128 0x17
 4135 06fc ED050000 		.4byte	.LASF105
 4136 0700 09       		.byte	0x9
 4137 0701 5E02     		.2byte	0x25e
 4138 0703 D2010000 		.4byte	0x1d2
 4139 0707 24       		.byte	0x24
 4140 0708 17       		.uleb128 0x17
 4141 0709 94100000 		.4byte	.LASF106
 4142 070d 09       		.byte	0x9
 4143 070e 5F02     		.2byte	0x25f
 4144 0710 28000000 		.4byte	0x28
 4145 0714 48       		.byte	0x48
 4146 0715 17       		.uleb128 0x17
 4147 0716 40130000 		.4byte	.LASF107
 4148 071a 09       		.byte	0x9
 4149 071b 6002     		.2byte	0x260
ARM GAS  /tmp/ccigORce.s 			page 74


 4150 071d A9000000 		.4byte	0xa9
 4151 0721 50       		.byte	0x50
 4152 0722 17       		.uleb128 0x17
 4153 0723 49170000 		.4byte	.LASF108
 4154 0727 09       		.byte	0x9
 4155 0728 6102     		.2byte	0x261
 4156 072a 86060000 		.4byte	0x686
 4157 072e 58       		.byte	0x58
 4158 072f 17       		.uleb128 0x17
 4159 0730 91180000 		.4byte	.LASF109
 4160 0734 09       		.byte	0x9
 4161 0735 6202     		.2byte	0x262
 4162 0737 34010000 		.4byte	0x134
 4163 073b 68       		.byte	0x68
 4164 073c 17       		.uleb128 0x17
 4165 073d EA140000 		.4byte	.LASF110
 4166 0741 09       		.byte	0x9
 4167 0742 6302     		.2byte	0x263
 4168 0744 34010000 		.4byte	0x134
 4169 0748 70       		.byte	0x70
 4170 0749 17       		.uleb128 0x17
 4171 074a 15130000 		.4byte	.LASF111
 4172 074e 09       		.byte	0x9
 4173 074f 6402     		.2byte	0x264
 4174 0751 34010000 		.4byte	0x134
 4175 0755 78       		.byte	0x78
 4176 0756 17       		.uleb128 0x17
 4177 0757 22030000 		.4byte	.LASF112
 4178 075b 09       		.byte	0x9
 4179 075c 6502     		.2byte	0x265
 4180 075e DC070000 		.4byte	0x7dc
 4181 0762 80       		.byte	0x80
 4182 0763 17       		.uleb128 0x17
 4183 0764 450E0000 		.4byte	.LASF113
 4184 0768 09       		.byte	0x9
 4185 0769 6602     		.2byte	0x266
 4186 076b EC070000 		.4byte	0x7ec
 4187 076f 88       		.byte	0x88
 4188 0770 17       		.uleb128 0x17
 4189 0771 531D0000 		.4byte	.LASF114
 4190 0775 09       		.byte	0x9
 4191 0776 6702     		.2byte	0x267
 4192 0778 28000000 		.4byte	0x28
 4193 077c A0       		.byte	0xa0
 4194 077d 17       		.uleb128 0x17
 4195 077e 59050000 		.4byte	.LASF115
 4196 0782 09       		.byte	0x9
 4197 0783 6802     		.2byte	0x268
 4198 0785 34010000 		.4byte	0x134
 4199 0789 A4       		.byte	0xa4
 4200 078a 17       		.uleb128 0x17
 4201 078b 91160000 		.4byte	.LASF116
 4202 078f 09       		.byte	0x9
 4203 0790 6902     		.2byte	0x269
 4204 0792 34010000 		.4byte	0x134
 4205 0796 AC       		.byte	0xac
 4206 0797 17       		.uleb128 0x17
ARM GAS  /tmp/ccigORce.s 			page 75


 4207 0798 3D1C0000 		.4byte	.LASF117
 4208 079c 09       		.byte	0x9
 4209 079d 6A02     		.2byte	0x26a
 4210 079f 34010000 		.4byte	0x134
 4211 07a3 B4       		.byte	0xb4
 4212 07a4 17       		.uleb128 0x17
 4213 07a5 90120000 		.4byte	.LASF118
 4214 07a9 09       		.byte	0x9
 4215 07aa 6B02     		.2byte	0x26b
 4216 07ac 34010000 		.4byte	0x134
 4217 07b0 BC       		.byte	0xbc
 4218 07b1 17       		.uleb128 0x17
 4219 07b2 E8020000 		.4byte	.LASF119
 4220 07b6 09       		.byte	0x9
 4221 07b7 6C02     		.2byte	0x26c
 4222 07b9 34010000 		.4byte	0x134
 4223 07bd C4       		.byte	0xc4
 4224 07be 17       		.uleb128 0x17
 4225 07bf 28120000 		.4byte	.LASF120
 4226 07c3 09       		.byte	0x9
 4227 07c4 6D02     		.2byte	0x26d
 4228 07c6 28000000 		.4byte	0x28
 4229 07ca CC       		.byte	0xcc
 4230 07cb 00       		.byte	0
 4231 07cc 08       		.uleb128 0x8
 4232 07cd 52010000 		.4byte	0x152
 4233 07d1 DC070000 		.4byte	0x7dc
 4234 07d5 09       		.uleb128 0x9
 4235 07d6 0C010000 		.4byte	0x10c
 4236 07da 19       		.byte	0x19
 4237 07db 00       		.byte	0
 4238 07dc 08       		.uleb128 0x8
 4239 07dd 52010000 		.4byte	0x152
 4240 07e1 EC070000 		.4byte	0x7ec
 4241 07e5 09       		.uleb128 0x9
 4242 07e6 0C010000 		.4byte	0x10c
 4243 07ea 07       		.byte	0x7
 4244 07eb 00       		.byte	0
 4245 07ec 08       		.uleb128 0x8
 4246 07ed 52010000 		.4byte	0x152
 4247 07f1 FC070000 		.4byte	0x7fc
 4248 07f5 09       		.uleb128 0x9
 4249 07f6 0C010000 		.4byte	0x10c
 4250 07fa 17       		.byte	0x17
 4251 07fb 00       		.byte	0
 4252 07fc 1B       		.uleb128 0x1b
 4253 07fd F0       		.byte	0xf0
 4254 07fe 09       		.byte	0x9
 4255 07ff 7202     		.2byte	0x272
 4256 0801 20080000 		.4byte	0x820
 4257 0805 17       		.uleb128 0x17
 4258 0806 971A0000 		.4byte	.LASF121
 4259 080a 09       		.byte	0x9
 4260 080b 7502     		.2byte	0x275
 4261 080d 20080000 		.4byte	0x820
 4262 0811 00       		.byte	0
 4263 0812 17       		.uleb128 0x17
ARM GAS  /tmp/ccigORce.s 			page 76


 4264 0813 5F100000 		.4byte	.LASF122
 4265 0817 09       		.byte	0x9
 4266 0818 7602     		.2byte	0x276
 4267 081a 30080000 		.4byte	0x830
 4268 081e 78       		.byte	0x78
 4269 081f 00       		.byte	0
 4270 0820 08       		.uleb128 0x8
 4271 0821 1B030000 		.4byte	0x31b
 4272 0825 30080000 		.4byte	0x830
 4273 0829 09       		.uleb128 0x9
 4274 082a 0C010000 		.4byte	0x10c
 4275 082e 1D       		.byte	0x1d
 4276 082f 00       		.byte	0
 4277 0830 08       		.uleb128 0x8
 4278 0831 21000000 		.4byte	0x21
 4279 0835 40080000 		.4byte	0x840
 4280 0839 09       		.uleb128 0x9
 4281 083a 0C010000 		.4byte	0x10c
 4282 083e 1D       		.byte	0x1d
 4283 083f 00       		.byte	0
 4284 0840 1C       		.uleb128 0x1c
 4285 0841 F0       		.byte	0xf0
 4286 0842 09       		.byte	0x9
 4287 0843 5702     		.2byte	0x257
 4288 0845 62080000 		.4byte	0x862
 4289 0849 1D       		.uleb128 0x1d
 4290 084a 53080000 		.4byte	.LASF72
 4291 084e 09       		.byte	0x9
 4292 084f 6E02     		.2byte	0x26e
 4293 0851 CB060000 		.4byte	0x6cb
 4294 0855 1D       		.uleb128 0x1d
 4295 0856 DB020000 		.4byte	.LASF123
 4296 085a 09       		.byte	0x9
 4297 085b 7702     		.2byte	0x277
 4298 085d FC070000 		.4byte	0x7fc
 4299 0861 00       		.byte	0
 4300 0862 08       		.uleb128 0x8
 4301 0863 52010000 		.4byte	0x152
 4302 0867 72080000 		.4byte	0x872
 4303 086b 09       		.uleb128 0x9
 4304 086c 0C010000 		.4byte	0x10c
 4305 0870 18       		.byte	0x18
 4306 0871 00       		.byte	0
 4307 0872 1E       		.uleb128 0x1e
 4308 0873 53000000 		.4byte	.LASF716
 4309 0877 0D       		.uleb128 0xd
 4310 0878 04       		.byte	0x4
 4311 0879 72080000 		.4byte	0x872
 4312 087d 1F       		.uleb128 0x1f
 4313 087e 88080000 		.4byte	0x888
 4314 0882 15       		.uleb128 0x15
 4315 0883 69040000 		.4byte	0x469
 4316 0887 00       		.byte	0
 4317 0888 0D       		.uleb128 0xd
 4318 0889 04       		.byte	0x4
 4319 088a 7D080000 		.4byte	0x87d
 4320 088e 0D       		.uleb128 0xd
ARM GAS  /tmp/ccigORce.s 			page 77


 4321 088f 04       		.byte	0x4
 4322 0890 BC010000 		.4byte	0x1bc
 4323 0894 1F       		.uleb128 0x1f
 4324 0895 9F080000 		.4byte	0x89f
 4325 0899 15       		.uleb128 0x15
 4326 089a 28000000 		.4byte	0x28
 4327 089e 00       		.byte	0
 4328 089f 0D       		.uleb128 0xd
 4329 08a0 04       		.byte	0x4
 4330 08a1 A5080000 		.4byte	0x8a5
 4331 08a5 0D       		.uleb128 0xd
 4332 08a6 04       		.byte	0x4
 4333 08a7 94080000 		.4byte	0x894
 4334 08ab 08       		.uleb128 0x8
 4335 08ac 39060000 		.4byte	0x639
 4336 08b0 BB080000 		.4byte	0x8bb
 4337 08b4 09       		.uleb128 0x9
 4338 08b5 0C010000 		.4byte	0x10c
 4339 08b9 02       		.byte	0x2
 4340 08ba 00       		.byte	0
 4341 08bb 20       		.uleb128 0x20
 4342 08bc 8E050000 		.4byte	.LASF124
 4343 08c0 09       		.byte	0x9
 4344 08c1 FE02     		.2byte	0x2fe
 4345 08c3 69040000 		.4byte	0x469
 4346 08c7 20       		.uleb128 0x20
 4347 08c8 62080000 		.4byte	.LASF125
 4348 08cc 09       		.byte	0x9
 4349 08cd FF02     		.2byte	0x2ff
 4350 08cf 6F040000 		.4byte	0x46f
 4351 08d3 04       		.uleb128 0x4
 4352 08d4 1A070000 		.4byte	.LASF126
 4353 08d8 0A       		.byte	0xa
 4354 08d9 18       		.byte	0x18
 4355 08da 4F000000 		.4byte	0x4f
 4356 08de 0E       		.uleb128 0xe
 4357 08df D3080000 		.4byte	0x8d3
 4358 08e3 04       		.uleb128 0x4
 4359 08e4 8A150000 		.4byte	.LASF127
 4360 08e8 0A       		.byte	0xa
 4361 08e9 24       		.byte	0x24
 4362 08ea 68000000 		.4byte	0x68
 4363 08ee 04       		.uleb128 0x4
 4364 08ef CE010000 		.4byte	.LASF128
 4365 08f3 0A       		.byte	0xa
 4366 08f4 2C       		.byte	0x2c
 4367 08f5 7A000000 		.4byte	0x7a
 4368 08f9 19       		.uleb128 0x19
 4369 08fa EE080000 		.4byte	0x8ee
 4370 08fe 04       		.uleb128 0x4
 4371 08ff 221B0000 		.4byte	.LASF129
 4372 0903 0A       		.byte	0xa
 4373 0904 30       		.byte	0x30
 4374 0905 8C000000 		.4byte	0x8c
 4375 0909 19       		.uleb128 0x19
 4376 090a FE080000 		.4byte	0x8fe
 4377 090e 04       		.uleb128 0x4
ARM GAS  /tmp/ccigORce.s 			page 78


 4378 090f CB180000 		.4byte	.LASF130
 4379 0913 0A       		.byte	0xa
 4380 0914 3C       		.byte	0x3c
 4381 0915 9E000000 		.4byte	0x9e
 4382 0919 04       		.uleb128 0x4
 4383 091a 0E120000 		.4byte	.LASF131
 4384 091e 0B       		.byte	0xb
 4385 091f 46       		.byte	0x46
 4386 0920 FE080000 		.4byte	0x8fe
 4387 0924 04       		.uleb128 0x4
 4388 0925 C3170000 		.4byte	.LASF132
 4389 0929 0B       		.byte	0xb
 4390 092a 49       		.byte	0x49
 4391 092b D3080000 		.4byte	0x8d3
 4392 092f 04       		.uleb128 0x4
 4393 0930 0D060000 		.4byte	.LASF133
 4394 0934 0B       		.byte	0xb
 4395 0935 4A       		.byte	0x4a
 4396 0936 D3080000 		.4byte	0x8d3
 4397 093a 04       		.uleb128 0x4
 4398 093b 8F1A0000 		.4byte	.LASF134
 4399 093f 0B       		.byte	0xb
 4400 0940 4B       		.byte	0x4b
 4401 0941 D3080000 		.4byte	0x8d3
 4402 0945 04       		.uleb128 0x4
 4403 0946 A6000000 		.4byte	.LASF135
 4404 094a 0B       		.byte	0xb
 4405 094b 4D       		.byte	0x4d
 4406 094c FE080000 		.4byte	0x8fe
 4407 0950 04       		.uleb128 0x4
 4408 0951 AC150000 		.4byte	.LASF136
 4409 0955 0B       		.byte	0xb
 4410 0956 4E       		.byte	0x4e
 4411 0957 EE080000 		.4byte	0x8ee
 4412 095b 04       		.uleb128 0x4
 4413 095c 67070000 		.4byte	.LASF137
 4414 0960 0B       		.byte	0xb
 4415 0961 50       		.byte	0x50
 4416 0962 FE080000 		.4byte	0x8fe
 4417 0966 04       		.uleb128 0x4
 4418 0967 E2150000 		.4byte	.LASF138
 4419 096b 0B       		.byte	0xb
 4420 096c 51       		.byte	0x51
 4421 096d FE080000 		.4byte	0x8fe
 4422 0971 04       		.uleb128 0x4
 4423 0972 520B0000 		.4byte	.LASF139
 4424 0976 0B       		.byte	0xb
 4425 0977 52       		.byte	0x52
 4426 0978 EE080000 		.4byte	0x8ee
 4427 097c 04       		.uleb128 0x4
 4428 097d 72000000 		.4byte	.LASF140
 4429 0981 0C       		.byte	0xc
 4430 0982 33       		.byte	0x33
 4431 0983 FE080000 		.4byte	0x8fe
 4432 0987 04       		.uleb128 0x4
 4433 0988 45140000 		.4byte	.LASF141
 4434 098c 0C       		.byte	0xc
ARM GAS  /tmp/ccigORce.s 			page 79


 4435 098d 3F       		.byte	0x3f
 4436 098e 92090000 		.4byte	0x992
 4437 0992 0F       		.uleb128 0xf
 4438 0993 8D0D0000 		.4byte	.LASF142
 4439 0997 44       		.byte	0x44
 4440 0998 0D       		.byte	0xd
 4441 0999 C2       		.byte	0xc2
 4442 099a 7F0A0000 		.4byte	0xa7f
 4443 099e 0B       		.uleb128 0xb
 4444 099f 7B050000 		.4byte	.LASF143
 4445 09a3 0D       		.byte	0xd
 4446 09a4 C3       		.byte	0xc3
 4447 09a5 8A0A0000 		.4byte	0xa8a
 4448 09a9 00       		.byte	0
 4449 09aa 0B       		.uleb128 0xb
 4450 09ab BF050000 		.4byte	.LASF144
 4451 09af 0D       		.byte	0xd
 4452 09b0 C5       		.byte	0xc5
 4453 09b1 8A0A0000 		.4byte	0xa8a
 4454 09b5 04       		.byte	0x4
 4455 09b6 0B       		.uleb128 0xb
 4456 09b7 8B090000 		.4byte	.LASF145
 4457 09bb 0D       		.byte	0xd
 4458 09bc C7       		.byte	0xc7
 4459 09bd 45090000 		.4byte	0x945
 4460 09c1 08       		.byte	0x8
 4461 09c2 0B       		.uleb128 0xb
 4462 09c3 9A000000 		.4byte	.LASF146
 4463 09c7 0D       		.byte	0xd
 4464 09c8 C8       		.byte	0xc8
 4465 09c9 0F110000 		.4byte	0x110f
 4466 09cd 0C       		.byte	0xc
 4467 09ce 0B       		.uleb128 0xb
 4468 09cf 35050000 		.4byte	.LASF147
 4469 09d3 0D       		.byte	0xd
 4470 09d4 CA       		.byte	0xca
 4471 09d5 8A0A0000 		.4byte	0xa8a
 4472 09d9 10       		.byte	0x10
 4473 09da 0B       		.uleb128 0xb
 4474 09db 6B150000 		.4byte	.LASF148
 4475 09df 0D       		.byte	0xd
 4476 09e0 CB       		.byte	0xcb
 4477 09e1 8A0A0000 		.4byte	0xa8a
 4478 09e5 14       		.byte	0x14
 4479 09e6 0B       		.uleb128 0xb
 4480 09e7 101D0000 		.4byte	.LASF149
 4481 09eb 0D       		.byte	0xd
 4482 09ec D2       		.byte	0xd2
 4483 09ed CA050000 		.4byte	0x5ca
 4484 09f1 18       		.byte	0x18
 4485 09f2 0B       		.uleb128 0xb
 4486 09f3 AC1D0000 		.4byte	.LASF150
 4487 09f7 0D       		.byte	0xd
 4488 09f8 DD       		.byte	0xdd
 4489 09f9 2F090000 		.4byte	0x92f
 4490 09fd 1C       		.byte	0x1c
 4491 09fe 0B       		.uleb128 0xb
ARM GAS  /tmp/ccigORce.s 			page 80


 4492 09ff 77040000 		.4byte	.LASF151
 4493 0a03 0D       		.byte	0xd
 4494 0a04 E1       		.byte	0xe1
 4495 0a05 24090000 		.4byte	0x924
 4496 0a09 1D       		.byte	0x1d
 4497 0a0a 0B       		.uleb128 0xb
 4498 0a0b 6B120000 		.4byte	.LASF152
 4499 0a0f 0D       		.byte	0xd
 4500 0a10 E6       		.byte	0xe6
 4501 0a11 3A090000 		.4byte	0x93a
 4502 0a15 1E       		.byte	0x1e
 4503 0a16 21       		.uleb128 0x21
 4504 0a17 705F7500 		.ascii	"p_u\000"
 4505 0a1b 0D       		.byte	0xd
 4506 0a1c 3101     		.2byte	0x131
 4507 0a1e E1120000 		.4byte	0x12e1
 4508 0a22 20       		.byte	0x20
 4509 0a23 17       		.uleb128 0x17
 4510 0a24 6D110000 		.4byte	.LASF153
 4511 0a28 0D       		.byte	0xd
 4512 0a29 3601     		.2byte	0x136
 4513 0a2b 900A0000 		.4byte	0xa90
 4514 0a2f 24       		.byte	0x24
 4515 0a30 17       		.uleb128 0x17
 4516 0a31 D4000000 		.4byte	.LASF154
 4517 0a35 0D       		.byte	0xd
 4518 0a36 3C01     		.2byte	0x13c
 4519 0a38 B40A0000 		.4byte	0xab4
 4520 0a3c 28       		.byte	0x28
 4521 0a3d 17       		.uleb128 0x17
 4522 0a3e 891D0000 		.4byte	.LASF155
 4523 0a42 0D       		.byte	0xd
 4524 0a43 4001     		.2byte	0x140
 4525 0a45 50090000 		.4byte	0x950
 4526 0a49 30       		.byte	0x30
 4527 0a4a 17       		.uleb128 0x17
 4528 0a4b 950B0000 		.4byte	.LASF156
 4529 0a4f 0D       		.byte	0xd
 4530 0a50 4601     		.2byte	0x146
 4531 0a52 5B090000 		.4byte	0x95b
 4532 0a56 34       		.byte	0x34
 4533 0a57 17       		.uleb128 0x17
 4534 0a58 32060000 		.4byte	.LASF157
 4535 0a5c 0D       		.byte	0xd
 4536 0a5d 4D01     		.2byte	0x14d
 4537 0a5f A0130000 		.4byte	0x13a0
 4538 0a63 38       		.byte	0x38
 4539 0a64 17       		.uleb128 0x17
 4540 0a65 6A140000 		.4byte	.LASF158
 4541 0a69 0D       		.byte	0xd
 4542 0a6a 5101     		.2byte	0x151
 4543 0a6c 45090000 		.4byte	0x945
 4544 0a70 3C       		.byte	0x3c
 4545 0a71 17       		.uleb128 0x17
 4546 0a72 20120000 		.4byte	.LASF159
 4547 0a76 0D       		.byte	0xd
 4548 0a77 5801     		.2byte	0x158
ARM GAS  /tmp/ccigORce.s 			page 81


 4549 0a79 4A010000 		.4byte	0x14a
 4550 0a7d 40       		.byte	0x40
 4551 0a7e 00       		.byte	0
 4552 0a7f 04       		.uleb128 0x4
 4553 0a80 79130000 		.4byte	.LASF160
 4554 0a84 0C       		.byte	0xc
 4555 0a85 44       		.byte	0x44
 4556 0a86 8A0A0000 		.4byte	0xa8a
 4557 0a8a 0D       		.uleb128 0xd
 4558 0a8b 04       		.byte	0x4
 4559 0a8c 87090000 		.4byte	0x987
 4560 0a90 04       		.uleb128 0x4
 4561 0a91 AE1A0000 		.4byte	.LASF161
 4562 0a95 0C       		.byte	0xc
 4563 0a96 49       		.byte	0x49
 4564 0a97 9B0A0000 		.4byte	0xa9b
 4565 0a9b 0F       		.uleb128 0xf
 4566 0a9c B60E0000 		.4byte	.LASF162
 4567 0aa0 04       		.byte	0x4
 4568 0aa1 0D       		.byte	0xd
 4569 0aa2 B0       		.byte	0xb0
 4570 0aa3 B40A0000 		.4byte	0xab4
 4571 0aa7 0B       		.uleb128 0xb
 4572 0aa8 7B050000 		.4byte	.LASF143
 4573 0aac 0D       		.byte	0xd
 4574 0aad B1       		.byte	0xb1
 4575 0aae 8A0A0000 		.4byte	0xa8a
 4576 0ab2 00       		.byte	0
 4577 0ab3 00       		.byte	0
 4578 0ab4 04       		.uleb128 0x4
 4579 0ab5 22060000 		.4byte	.LASF163
 4580 0ab9 0C       		.byte	0xc
 4581 0aba 50       		.byte	0x50
 4582 0abb BF0A0000 		.4byte	0xabf
 4583 0abf 0F       		.uleb128 0xf
 4584 0ac0 B7150000 		.4byte	.LASF164
 4585 0ac4 08       		.byte	0x8
 4586 0ac5 0D       		.byte	0xd
 4587 0ac6 B7       		.byte	0xb7
 4588 0ac7 E40A0000 		.4byte	0xae4
 4589 0acb 0B       		.uleb128 0xb
 4590 0acc 7B050000 		.4byte	.LASF143
 4591 0ad0 0D       		.byte	0xd
 4592 0ad1 B8       		.byte	0xb8
 4593 0ad2 8A0A0000 		.4byte	0xa8a
 4594 0ad6 00       		.byte	0
 4595 0ad7 0B       		.uleb128 0xb
 4596 0ad8 BF050000 		.4byte	.LASF144
 4597 0adc 0D       		.byte	0xd
 4598 0add B9       		.byte	0xb9
 4599 0ade 8A0A0000 		.4byte	0xa8a
 4600 0ae2 04       		.byte	0x4
 4601 0ae3 00       		.byte	0
 4602 0ae4 04       		.uleb128 0x4
 4603 0ae5 300E0000 		.4byte	.LASF165
 4604 0ae9 0C       		.byte	0xc
 4605 0aea 57       		.byte	0x57
ARM GAS  /tmp/ccigORce.s 			page 82


 4606 0aeb EF0A0000 		.4byte	0xaef
 4607 0aef 1A       		.uleb128 0x1a
 4608 0af0 B70B0000 		.4byte	.LASF166
 4609 0af4 1C       		.byte	0x1c
 4610 0af5 0D       		.byte	0xd
 4611 0af6 9001     		.2byte	0x190
 4612 0af8 4B0B0000 		.4byte	0xb4b
 4613 0afc 17       		.uleb128 0x17
 4614 0afd 41170000 		.4byte	.LASF167
 4615 0b01 0D       		.byte	0xd
 4616 0b02 9101     		.2byte	0x191
 4617 0b04 B40A0000 		.4byte	0xab4
 4618 0b08 00       		.byte	0
 4619 0b09 17       		.uleb128 0x17
 4620 0b0a 61190000 		.4byte	.LASF168
 4621 0b0e 0D       		.byte	0xd
 4622 0b0f 9201     		.2byte	0x192
 4623 0b11 45090000 		.4byte	0x945
 4624 0b15 08       		.byte	0x8
 4625 0b16 17       		.uleb128 0x17
 4626 0b17 C0010000 		.4byte	.LASF169
 4627 0b1b 0D       		.byte	0xd
 4628 0b1c 9401     		.2byte	0x194
 4629 0b1e 0F110000 		.4byte	0x110f
 4630 0b22 0C       		.byte	0xc
 4631 0b23 17       		.uleb128 0x17
 4632 0b24 5A080000 		.4byte	.LASF170
 4633 0b28 0D       		.byte	0xd
 4634 0b29 9701     		.2byte	0x197
 4635 0b2b 8A0A0000 		.4byte	0xa8a
 4636 0b2f 10       		.byte	0x10
 4637 0b30 17       		.uleb128 0x17
 4638 0b31 2A180000 		.4byte	.LASF171
 4639 0b35 0D       		.byte	0xd
 4640 0b36 9801     		.2byte	0x198
 4641 0b38 8A0A0000 		.4byte	0xa8a
 4642 0b3c 14       		.byte	0x14
 4643 0b3d 17       		.uleb128 0x17
 4644 0b3e DA1C0000 		.4byte	.LASF172
 4645 0b42 0D       		.byte	0xd
 4646 0b43 9B01     		.2byte	0x19b
 4647 0b45 8A0A0000 		.4byte	0xa8a
 4648 0b49 18       		.byte	0x18
 4649 0b4a 00       		.byte	0
 4650 0b4b 04       		.uleb128 0x4
 4651 0b4c 26020000 		.4byte	.LASF173
 4652 0b50 0C       		.byte	0xc
 4653 0b51 5C       		.byte	0x5c
 4654 0b52 560B0000 		.4byte	0xb56
 4655 0b56 0D       		.uleb128 0xd
 4656 0b57 04       		.byte	0x4
 4657 0b58 5C0B0000 		.4byte	0xb5c
 4658 0b5c 1F       		.uleb128 0x1f
 4659 0b5d 670B0000 		.4byte	0xb67
 4660 0b61 15       		.uleb128 0x15
 4661 0b62 4A010000 		.4byte	0x14a
 4662 0b66 00       		.byte	0
ARM GAS  /tmp/ccigORce.s 			page 83


 4663 0b67 04       		.uleb128 0x4
 4664 0b68 200E0000 		.4byte	.LASF174
 4665 0b6c 0C       		.byte	0xc
 4666 0b6d 61       		.byte	0x61
 4667 0b6e 720B0000 		.4byte	0xb72
 4668 0b72 1A       		.uleb128 0x1a
 4669 0b73 D3140000 		.4byte	.LASF175
 4670 0b77 14       		.byte	0x14
 4671 0b78 0D       		.byte	0xd
 4672 0b79 6B01     		.2byte	0x16b
 4673 0b7b C10B0000 		.4byte	0xbc1
 4674 0b7f 17       		.uleb128 0x17
 4675 0b80 23100000 		.4byte	.LASF176
 4676 0b84 0D       		.byte	0xd
 4677 0b85 6C01     		.2byte	0x16c
 4678 0b87 A6130000 		.4byte	0x13a6
 4679 0b8b 00       		.byte	0
 4680 0b8c 17       		.uleb128 0x17
 4681 0b8d 68100000 		.4byte	.LASF177
 4682 0b91 0D       		.byte	0xd
 4683 0b92 6D01     		.2byte	0x16d
 4684 0b94 A6130000 		.4byte	0x13a6
 4685 0b98 04       		.byte	0x4
 4686 0b99 17       		.uleb128 0x17
 4687 0b9a B2140000 		.4byte	.LASF178
 4688 0b9e 0D       		.byte	0xd
 4689 0b9f 6E01     		.2byte	0x16e
 4690 0ba1 7C090000 		.4byte	0x97c
 4691 0ba5 08       		.byte	0x8
 4692 0ba6 17       		.uleb128 0x17
 4693 0ba7 650B0000 		.4byte	.LASF179
 4694 0bab 0D       		.byte	0xd
 4695 0bac 6F01     		.2byte	0x16f
 4696 0bae 4B0B0000 		.4byte	0xb4b
 4697 0bb2 0C       		.byte	0xc
 4698 0bb3 17       		.uleb128 0x17
 4699 0bb4 70040000 		.4byte	.LASF180
 4700 0bb8 0D       		.byte	0xd
 4701 0bb9 7101     		.2byte	0x171
 4702 0bbb 4A010000 		.4byte	0x14a
 4703 0bbf 10       		.byte	0x10
 4704 0bc0 00       		.byte	0
 4705 0bc1 04       		.uleb128 0x4
 4706 0bc2 9F0D0000 		.4byte	.LASF181
 4707 0bc6 0C       		.byte	0xc
 4708 0bc7 66       		.byte	0x66
 4709 0bc8 CC0B0000 		.4byte	0xbcc
 4710 0bcc 1A       		.uleb128 0x1a
 4711 0bcd 4B020000 		.4byte	.LASF182
 4712 0bd1 10       		.byte	0x10
 4713 0bd2 0D       		.byte	0xd
 4714 0bd3 7B01     		.2byte	0x17b
 4715 0bd5 0E0C0000 		.4byte	0xc0e
 4716 0bd9 17       		.uleb128 0x17
 4717 0bda 23100000 		.4byte	.LASF176
 4718 0bde 0D       		.byte	0xd
 4719 0bdf 7C01     		.2byte	0x17c
ARM GAS  /tmp/ccigORce.s 			page 84


 4720 0be1 A6130000 		.4byte	0x13a6
 4721 0be5 00       		.byte	0
 4722 0be6 17       		.uleb128 0x17
 4723 0be7 68100000 		.4byte	.LASF177
 4724 0beb 0D       		.byte	0xd
 4725 0bec 7E01     		.2byte	0x17e
 4726 0bee A6130000 		.4byte	0x13a6
 4727 0bf2 04       		.byte	0x4
 4728 0bf3 17       		.uleb128 0x17
 4729 0bf4 B2140000 		.4byte	.LASF178
 4730 0bf8 0D       		.byte	0xd
 4731 0bf9 8001     		.2byte	0x180
 4732 0bfb 7C090000 		.4byte	0x97c
 4733 0bff 08       		.byte	0x8
 4734 0c00 17       		.uleb128 0x17
 4735 0c01 C01B0000 		.4byte	.LASF183
 4736 0c05 0D       		.byte	0xd
 4737 0c06 8801     		.2byte	0x188
 4738 0c08 7C090000 		.4byte	0x97c
 4739 0c0c 0C       		.byte	0xc
 4740 0c0d 00       		.byte	0
 4741 0c0e 04       		.uleb128 0x4
 4742 0c0f 7E080000 		.4byte	.LASF184
 4743 0c13 0C       		.byte	0xc
 4744 0c14 6B       		.byte	0x6b
 4745 0c15 190C0000 		.4byte	0xc19
 4746 0c19 1A       		.uleb128 0x1a
 4747 0c1a 68190000 		.4byte	.LASF185
 4748 0c1e 04       		.byte	0x4
 4749 0c1f 0D       		.byte	0xd
 4750 0c20 A201     		.2byte	0x1a2
 4751 0c22 340C0000 		.4byte	0xc34
 4752 0c26 17       		.uleb128 0x17
 4753 0c27 25080000 		.4byte	.LASF186
 4754 0c2b 0D       		.byte	0xd
 4755 0c2c AA01     		.2byte	0x1aa
 4756 0c2e D0050000 		.4byte	0x5d0
 4757 0c32 00       		.byte	0
 4758 0c33 00       		.byte	0
 4759 0c34 04       		.uleb128 0x4
 4760 0c35 021C0000 		.4byte	.LASF187
 4761 0c39 0C       		.byte	0xc
 4762 0c3a 70       		.byte	0x70
 4763 0c3b 3F0C0000 		.4byte	0xc3f
 4764 0c3f 16       		.uleb128 0x16
 4765 0c40 E21A0000 		.4byte	.LASF188
 4766 0c44 5001     		.2byte	0x150
 4767 0c46 0D       		.byte	0xd
 4768 0c47 C201     		.2byte	0x1c2
 4769 0c49 9B0C0000 		.4byte	0xc9b
 4770 0c4d 17       		.uleb128 0x17
 4771 0c4e BD170000 		.4byte	.LASF189
 4772 0c52 0D       		.byte	0xd
 4773 0c53 C601     		.2byte	0x1c6
 4774 0c55 E40A0000 		.4byte	0xae4
 4775 0c59 00       		.byte	0
 4776 0c5a 17       		.uleb128 0x17
ARM GAS  /tmp/ccigORce.s 			page 85


 4777 0c5b 3B1A0000 		.4byte	.LASF190
 4778 0c5f 0D       		.byte	0xd
 4779 0c60 CA01     		.2byte	0x1ca
 4780 0c62 C10B0000 		.4byte	0xbc1
 4781 0c66 1C       		.byte	0x1c
 4782 0c67 21       		.uleb128 0x21
 4783 0c68 64626700 		.ascii	"dbg\000"
 4784 0c6c 0D       		.byte	0xd
 4785 0c6d CE01     		.2byte	0x1ce
 4786 0c6f 0E0C0000 		.4byte	0xc0e
 4787 0c73 2C       		.byte	0x2c
 4788 0c74 17       		.uleb128 0x17
 4789 0c75 B9160000 		.4byte	.LASF191
 4790 0c79 0D       		.byte	0xd
 4791 0c7a D201     		.2byte	0x1d2
 4792 0c7c 87090000 		.4byte	0x987
 4793 0c80 30       		.byte	0x30
 4794 0c81 21       		.uleb128 0x21
 4795 0c82 746D00   		.ascii	"tm\000"
 4796 0c85 0D       		.byte	0xd
 4797 0c86 D701     		.2byte	0x1d7
 4798 0c88 D6120000 		.4byte	0x12d6
 4799 0c8c 74       		.byte	0x74
 4800 0c8d 17       		.uleb128 0x17
 4801 0c8e AF110000 		.4byte	.LASF192
 4802 0c92 0D       		.byte	0xd
 4803 0c93 E301     		.2byte	0x1e3
 4804 0c95 AC130000 		.4byte	0x13ac
 4805 0c99 78       		.byte	0x78
 4806 0c9a 00       		.byte	0
 4807 0c9b 08       		.uleb128 0x8
 4808 0c9c FE080000 		.4byte	0x8fe
 4809 0ca0 AB0C0000 		.4byte	0xcab
 4810 0ca4 09       		.uleb128 0x9
 4811 0ca5 0C010000 		.4byte	0x10c
 4812 0ca9 01       		.byte	0x1
 4813 0caa 00       		.byte	0
 4814 0cab 20       		.uleb128 0x20
 4815 0cac 13110000 		.4byte	.LASF193
 4816 0cb0 0E       		.byte	0xe
 4817 0cb1 A706     		.2byte	0x6a7
 4818 0cb3 F9080000 		.4byte	0x8f9
 4819 0cb7 22       		.uleb128 0x22
 4820 0cb8 5D0D0000 		.4byte	.LASF194
 4821 0cbc 0F       		.byte	0xf
 4822 0cbd 4C       		.byte	0x4c
 4823 0cbe FE080000 		.4byte	0x8fe
 4824 0cc2 0A       		.uleb128 0xa
 4825 0cc3 50       		.byte	0x50
 4826 0cc4 10       		.byte	0x10
 4827 0cc5 C4       		.byte	0xc4
 4828 0cc6 B90D0000 		.4byte	0xdb9
 4829 0cca 10       		.uleb128 0x10
 4830 0ccb 535200   		.ascii	"SR\000"
 4831 0cce 10       		.byte	0x10
 4832 0ccf C6       		.byte	0xc6
 4833 0cd0 09090000 		.4byte	0x909
ARM GAS  /tmp/ccigORce.s 			page 86


 4834 0cd4 00       		.byte	0
 4835 0cd5 10       		.uleb128 0x10
 4836 0cd6 43523100 		.ascii	"CR1\000"
 4837 0cda 10       		.byte	0x10
 4838 0cdb C7       		.byte	0xc7
 4839 0cdc 09090000 		.4byte	0x909
 4840 0ce0 04       		.byte	0x4
 4841 0ce1 10       		.uleb128 0x10
 4842 0ce2 43523200 		.ascii	"CR2\000"
 4843 0ce6 10       		.byte	0x10
 4844 0ce7 C8       		.byte	0xc8
 4845 0ce8 09090000 		.4byte	0x909
 4846 0cec 08       		.byte	0x8
 4847 0ced 0B       		.uleb128 0xb
 4848 0cee F00D0000 		.4byte	.LASF195
 4849 0cf2 10       		.byte	0x10
 4850 0cf3 C9       		.byte	0xc9
 4851 0cf4 09090000 		.4byte	0x909
 4852 0cf8 0C       		.byte	0xc
 4853 0cf9 0B       		.uleb128 0xb
 4854 0cfa F60D0000 		.4byte	.LASF196
 4855 0cfe 10       		.byte	0x10
 4856 0cff CA       		.byte	0xca
 4857 0d00 09090000 		.4byte	0x909
 4858 0d04 10       		.byte	0x10
 4859 0d05 0B       		.uleb128 0xb
 4860 0d06 1D190000 		.4byte	.LASF197
 4861 0d0a 10       		.byte	0x10
 4862 0d0b CB       		.byte	0xcb
 4863 0d0c 09090000 		.4byte	0x909
 4864 0d10 14       		.byte	0x14
 4865 0d11 0B       		.uleb128 0xb
 4866 0d12 23190000 		.4byte	.LASF198
 4867 0d16 10       		.byte	0x10
 4868 0d17 CC       		.byte	0xcc
 4869 0d18 09090000 		.4byte	0x909
 4870 0d1c 18       		.byte	0x18
 4871 0d1d 0B       		.uleb128 0xb
 4872 0d1e 29190000 		.4byte	.LASF199
 4873 0d22 10       		.byte	0x10
 4874 0d23 CD       		.byte	0xcd
 4875 0d24 09090000 		.4byte	0x909
 4876 0d28 1C       		.byte	0x1c
 4877 0d29 0B       		.uleb128 0xb
 4878 0d2a 2F190000 		.4byte	.LASF200
 4879 0d2e 10       		.byte	0x10
 4880 0d2f CE       		.byte	0xce
 4881 0d30 09090000 		.4byte	0x909
 4882 0d34 20       		.byte	0x20
 4883 0d35 10       		.uleb128 0x10
 4884 0d36 48545200 		.ascii	"HTR\000"
 4885 0d3a 10       		.byte	0x10
 4886 0d3b CF       		.byte	0xcf
 4887 0d3c 09090000 		.4byte	0x909
 4888 0d40 24       		.byte	0x24
 4889 0d41 10       		.uleb128 0x10
 4890 0d42 4C545200 		.ascii	"LTR\000"
ARM GAS  /tmp/ccigORce.s 			page 87


 4891 0d46 10       		.byte	0x10
 4892 0d47 D0       		.byte	0xd0
 4893 0d48 09090000 		.4byte	0x909
 4894 0d4c 28       		.byte	0x28
 4895 0d4d 0B       		.uleb128 0xb
 4896 0d4e BC000000 		.4byte	.LASF201
 4897 0d52 10       		.byte	0x10
 4898 0d53 D1       		.byte	0xd1
 4899 0d54 09090000 		.4byte	0x909
 4900 0d58 2C       		.byte	0x2c
 4901 0d59 0B       		.uleb128 0xb
 4902 0d5a C1000000 		.4byte	.LASF202
 4903 0d5e 10       		.byte	0x10
 4904 0d5f D2       		.byte	0xd2
 4905 0d60 09090000 		.4byte	0x909
 4906 0d64 30       		.byte	0x30
 4907 0d65 0B       		.uleb128 0xb
 4908 0d66 C6000000 		.4byte	.LASF203
 4909 0d6a 10       		.byte	0x10
 4910 0d6b D3       		.byte	0xd3
 4911 0d6c 09090000 		.4byte	0x909
 4912 0d70 34       		.byte	0x34
 4913 0d71 0B       		.uleb128 0xb
 4914 0d72 161A0000 		.4byte	.LASF204
 4915 0d76 10       		.byte	0x10
 4916 0d77 D4       		.byte	0xd4
 4917 0d78 09090000 		.4byte	0x909
 4918 0d7c 38       		.byte	0x38
 4919 0d7d 0B       		.uleb128 0xb
 4920 0d7e F1190000 		.4byte	.LASF205
 4921 0d82 10       		.byte	0x10
 4922 0d83 D5       		.byte	0xd5
 4923 0d84 09090000 		.4byte	0x909
 4924 0d88 3C       		.byte	0x3c
 4925 0d89 0B       		.uleb128 0xb
 4926 0d8a F6190000 		.4byte	.LASF206
 4927 0d8e 10       		.byte	0x10
 4928 0d8f D6       		.byte	0xd6
 4929 0d90 09090000 		.4byte	0x909
 4930 0d94 40       		.byte	0x40
 4931 0d95 0B       		.uleb128 0xb
 4932 0d96 FB190000 		.4byte	.LASF207
 4933 0d9a 10       		.byte	0x10
 4934 0d9b D7       		.byte	0xd7
 4935 0d9c 09090000 		.4byte	0x909
 4936 0da0 44       		.byte	0x44
 4937 0da1 0B       		.uleb128 0xb
 4938 0da2 001A0000 		.4byte	.LASF208
 4939 0da6 10       		.byte	0x10
 4940 0da7 D8       		.byte	0xd8
 4941 0da8 09090000 		.4byte	0x909
 4942 0dac 48       		.byte	0x48
 4943 0dad 10       		.uleb128 0x10
 4944 0dae 445200   		.ascii	"DR\000"
 4945 0db1 10       		.byte	0x10
 4946 0db2 D9       		.byte	0xd9
 4947 0db3 09090000 		.4byte	0x909
ARM GAS  /tmp/ccigORce.s 			page 88


 4948 0db7 4C       		.byte	0x4c
 4949 0db8 00       		.byte	0
 4950 0db9 04       		.uleb128 0x4
 4951 0dba 6D0B0000 		.4byte	.LASF209
 4952 0dbe 10       		.byte	0x10
 4953 0dbf DA       		.byte	0xda
 4954 0dc0 C20C0000 		.4byte	0xcc2
 4955 0dc4 1B       		.uleb128 0x1b
 4956 0dc5 18       		.byte	0x18
 4957 0dc6 10       		.byte	0x10
 4958 0dc7 6B01     		.2byte	0x16b
 4959 0dc9 1B0E0000 		.4byte	0xe1b
 4960 0dcd 21       		.uleb128 0x21
 4961 0dce 435200   		.ascii	"CR\000"
 4962 0dd1 10       		.byte	0x10
 4963 0dd2 6D01     		.2byte	0x16d
 4964 0dd4 09090000 		.4byte	0x909
 4965 0dd8 00       		.byte	0
 4966 0dd9 17       		.uleb128 0x17
 4967 0dda AB1C0000 		.4byte	.LASF210
 4968 0dde 10       		.byte	0x10
 4969 0ddf 6E01     		.2byte	0x16e
 4970 0de1 09090000 		.4byte	0x909
 4971 0de5 04       		.byte	0x4
 4972 0de6 21       		.uleb128 0x21
 4973 0de7 50415200 		.ascii	"PAR\000"
 4974 0deb 10       		.byte	0x10
 4975 0dec 6F01     		.2byte	0x16f
 4976 0dee 09090000 		.4byte	0x909
 4977 0df2 08       		.byte	0x8
 4978 0df3 17       		.uleb128 0x17
 4979 0df4 53180000 		.4byte	.LASF211
 4980 0df8 10       		.byte	0x10
 4981 0df9 7001     		.2byte	0x170
 4982 0dfb 09090000 		.4byte	0x909
 4983 0dff 0C       		.byte	0xc
 4984 0e00 17       		.uleb128 0x17
 4985 0e01 00000000 		.4byte	.LASF212
 4986 0e05 10       		.byte	0x10
 4987 0e06 7101     		.2byte	0x171
 4988 0e08 09090000 		.4byte	0x909
 4989 0e0c 10       		.byte	0x10
 4990 0e0d 21       		.uleb128 0x21
 4991 0e0e 46435200 		.ascii	"FCR\000"
 4992 0e12 10       		.byte	0x10
 4993 0e13 7201     		.2byte	0x172
 4994 0e15 09090000 		.4byte	0x909
 4995 0e19 14       		.byte	0x14
 4996 0e1a 00       		.byte	0
 4997 0e1b 05       		.uleb128 0x5
 4998 0e1c AE130000 		.4byte	.LASF213
 4999 0e20 10       		.byte	0x10
 5000 0e21 7301     		.2byte	0x173
 5001 0e23 C40D0000 		.4byte	0xdc4
 5002 0e27 08       		.uleb128 0x8
 5003 0e28 09090000 		.4byte	0x909
 5004 0e2c 370E0000 		.4byte	0xe37
ARM GAS  /tmp/ccigORce.s 			page 89


 5005 0e30 09       		.uleb128 0x9
 5006 0e31 0C010000 		.4byte	0x10c
 5007 0e35 01       		.byte	0x1
 5008 0e36 00       		.byte	0
 5009 0e37 19       		.uleb128 0x19
 5010 0e38 270E0000 		.4byte	0xe27
 5011 0e3c 08       		.uleb128 0x8
 5012 0e3d 09090000 		.4byte	0x909
 5013 0e41 4C0E0000 		.4byte	0xe4c
 5014 0e45 09       		.uleb128 0x9
 5015 0e46 0C010000 		.4byte	0x10c
 5016 0e4a 03       		.byte	0x3
 5017 0e4b 00       		.byte	0
 5018 0e4c 19       		.uleb128 0x19
 5019 0e4d 3C0E0000 		.4byte	0xe3c
 5020 0e51 1B       		.uleb128 0x1b
 5021 0e52 88       		.byte	0x88
 5022 0e53 10       		.byte	0x10
 5023 0e54 6702     		.2byte	0x267
 5024 0e56 E00F0000 		.4byte	0xfe0
 5025 0e5a 21       		.uleb128 0x21
 5026 0e5b 435200   		.ascii	"CR\000"
 5027 0e5e 10       		.byte	0x10
 5028 0e5f 6902     		.2byte	0x269
 5029 0e61 09090000 		.4byte	0x909
 5030 0e65 00       		.byte	0
 5031 0e66 17       		.uleb128 0x17
 5032 0e67 4D100000 		.4byte	.LASF214
 5033 0e6b 10       		.byte	0x10
 5034 0e6c 6A02     		.2byte	0x26a
 5035 0e6e 09090000 		.4byte	0x909
 5036 0e72 04       		.byte	0x4
 5037 0e73 17       		.uleb128 0x17
 5038 0e74 EB0B0000 		.4byte	.LASF215
 5039 0e78 10       		.byte	0x10
 5040 0e79 6B02     		.2byte	0x26b
 5041 0e7b 09090000 		.4byte	0x909
 5042 0e7f 08       		.byte	0x8
 5043 0e80 21       		.uleb128 0x21
 5044 0e81 43495200 		.ascii	"CIR\000"
 5045 0e85 10       		.byte	0x10
 5046 0e86 6C02     		.2byte	0x26c
 5047 0e88 09090000 		.4byte	0x909
 5048 0e8c 0C       		.byte	0xc
 5049 0e8d 17       		.uleb128 0x17
 5050 0e8e 72090000 		.4byte	.LASF216
 5051 0e92 10       		.byte	0x10
 5052 0e93 6D02     		.2byte	0x26d
 5053 0e95 09090000 		.4byte	0x909
 5054 0e99 10       		.byte	0x10
 5055 0e9a 17       		.uleb128 0x17
 5056 0e9b 43180000 		.4byte	.LASF217
 5057 0e9f 10       		.byte	0x10
 5058 0ea0 6E02     		.2byte	0x26e
 5059 0ea2 09090000 		.4byte	0x909
 5060 0ea6 14       		.byte	0x14
 5061 0ea7 17       		.uleb128 0x17
ARM GAS  /tmp/ccigORce.s 			page 90


 5062 0ea8 3C140000 		.4byte	.LASF218
 5063 0eac 10       		.byte	0x10
 5064 0ead 6F02     		.2byte	0x26f
 5065 0eaf 09090000 		.4byte	0x909
 5066 0eb3 18       		.byte	0x18
 5067 0eb4 17       		.uleb128 0x17
 5068 0eb5 B9070000 		.4byte	.LASF219
 5069 0eb9 10       		.byte	0x10
 5070 0eba 7002     		.2byte	0x270
 5071 0ebc FE080000 		.4byte	0x8fe
 5072 0ec0 1C       		.byte	0x1c
 5073 0ec1 17       		.uleb128 0x17
 5074 0ec2 CA140000 		.4byte	.LASF220
 5075 0ec6 10       		.byte	0x10
 5076 0ec7 7102     		.2byte	0x271
 5077 0ec9 09090000 		.4byte	0x909
 5078 0ecd 20       		.byte	0x20
 5079 0ece 17       		.uleb128 0x17
 5080 0ecf A3100000 		.4byte	.LASF221
 5081 0ed3 10       		.byte	0x10
 5082 0ed4 7202     		.2byte	0x272
 5083 0ed6 09090000 		.4byte	0x909
 5084 0eda 24       		.byte	0x24
 5085 0edb 17       		.uleb128 0x17
 5086 0edc C3070000 		.4byte	.LASF222
 5087 0ee0 10       		.byte	0x10
 5088 0ee1 7302     		.2byte	0x273
 5089 0ee3 9B0C0000 		.4byte	0xc9b
 5090 0ee7 28       		.byte	0x28
 5091 0ee8 17       		.uleb128 0x17
 5092 0ee9 E8170000 		.4byte	.LASF223
 5093 0eed 10       		.byte	0x10
 5094 0eee 7402     		.2byte	0x274
 5095 0ef0 09090000 		.4byte	0x909
 5096 0ef4 30       		.byte	0x30
 5097 0ef5 17       		.uleb128 0x17
 5098 0ef6 B1090000 		.4byte	.LASF224
 5099 0efa 10       		.byte	0x10
 5100 0efb 7502     		.2byte	0x275
 5101 0efd 09090000 		.4byte	0x909
 5102 0f01 34       		.byte	0x34
 5103 0f02 17       		.uleb128 0x17
 5104 0f03 1D180000 		.4byte	.LASF225
 5105 0f07 10       		.byte	0x10
 5106 0f08 7602     		.2byte	0x276
 5107 0f0a 09090000 		.4byte	0x909
 5108 0f0e 38       		.byte	0x38
 5109 0f0f 17       		.uleb128 0x17
 5110 0f10 ED080000 		.4byte	.LASF226
 5111 0f14 10       		.byte	0x10
 5112 0f15 7702     		.2byte	0x277
 5113 0f17 FE080000 		.4byte	0x8fe
 5114 0f1b 3C       		.byte	0x3c
 5115 0f1c 17       		.uleb128 0x17
 5116 0f1d 1A0D0000 		.4byte	.LASF227
 5117 0f21 10       		.byte	0x10
 5118 0f22 7802     		.2byte	0x278
ARM GAS  /tmp/ccigORce.s 			page 91


 5119 0f24 09090000 		.4byte	0x909
 5120 0f28 40       		.byte	0x40
 5121 0f29 17       		.uleb128 0x17
 5122 0f2a A6060000 		.4byte	.LASF228
 5123 0f2e 10       		.byte	0x10
 5124 0f2f 7902     		.2byte	0x279
 5125 0f31 09090000 		.4byte	0x909
 5126 0f35 44       		.byte	0x44
 5127 0f36 17       		.uleb128 0x17
 5128 0f37 DB070000 		.4byte	.LASF229
 5129 0f3b 10       		.byte	0x10
 5130 0f3c 7A02     		.2byte	0x27a
 5131 0f3e 9B0C0000 		.4byte	0xc9b
 5132 0f42 48       		.byte	0x48
 5133 0f43 17       		.uleb128 0x17
 5134 0f44 C8060000 		.4byte	.LASF230
 5135 0f48 10       		.byte	0x10
 5136 0f49 7B02     		.2byte	0x27b
 5137 0f4b 09090000 		.4byte	0x909
 5138 0f4f 50       		.byte	0x50
 5139 0f50 17       		.uleb128 0x17
 5140 0f51 CE040000 		.4byte	.LASF231
 5141 0f55 10       		.byte	0x10
 5142 0f56 7C02     		.2byte	0x27c
 5143 0f58 09090000 		.4byte	0x909
 5144 0f5c 54       		.byte	0x54
 5145 0f5d 17       		.uleb128 0x17
 5146 0f5e F1160000 		.4byte	.LASF232
 5147 0f62 10       		.byte	0x10
 5148 0f63 7D02     		.2byte	0x27d
 5149 0f65 09090000 		.4byte	0x909
 5150 0f69 58       		.byte	0x58
 5151 0f6a 17       		.uleb128 0x17
 5152 0f6b E5070000 		.4byte	.LASF233
 5153 0f6f 10       		.byte	0x10
 5154 0f70 7E02     		.2byte	0x27e
 5155 0f72 FE080000 		.4byte	0x8fe
 5156 0f76 5C       		.byte	0x5c
 5157 0f77 17       		.uleb128 0x17
 5158 0f78 66130000 		.4byte	.LASF234
 5159 0f7c 10       		.byte	0x10
 5160 0f7d 7F02     		.2byte	0x27f
 5161 0f7f 09090000 		.4byte	0x909
 5162 0f83 60       		.byte	0x60
 5163 0f84 17       		.uleb128 0x17
 5164 0f85 48110000 		.4byte	.LASF235
 5165 0f89 10       		.byte	0x10
 5166 0f8a 8002     		.2byte	0x280
 5167 0f8c 09090000 		.4byte	0x909
 5168 0f90 64       		.byte	0x64
 5169 0f91 17       		.uleb128 0x17
 5170 0f92 EF070000 		.4byte	.LASF236
 5171 0f96 10       		.byte	0x10
 5172 0f97 8102     		.2byte	0x281
 5173 0f99 9B0C0000 		.4byte	0xc9b
 5174 0f9d 68       		.byte	0x68
 5175 0f9e 17       		.uleb128 0x17
ARM GAS  /tmp/ccigORce.s 			page 92


 5176 0f9f 130B0000 		.4byte	.LASF237
 5177 0fa3 10       		.byte	0x10
 5178 0fa4 8202     		.2byte	0x282
 5179 0fa6 09090000 		.4byte	0x909
 5180 0faa 70       		.byte	0x70
 5181 0fab 21       		.uleb128 0x21
 5182 0fac 43535200 		.ascii	"CSR\000"
 5183 0fb0 10       		.byte	0x10
 5184 0fb1 8302     		.2byte	0x283
 5185 0fb3 09090000 		.4byte	0x909
 5186 0fb7 74       		.byte	0x74
 5187 0fb8 17       		.uleb128 0x17
 5188 0fb9 F9070000 		.4byte	.LASF238
 5189 0fbd 10       		.byte	0x10
 5190 0fbe 8402     		.2byte	0x284
 5191 0fc0 9B0C0000 		.4byte	0xc9b
 5192 0fc4 78       		.byte	0x78
 5193 0fc5 17       		.uleb128 0x17
 5194 0fc6 1D100000 		.4byte	.LASF239
 5195 0fca 10       		.byte	0x10
 5196 0fcb 8502     		.2byte	0x285
 5197 0fcd 09090000 		.4byte	0x909
 5198 0fd1 80       		.byte	0x80
 5199 0fd2 17       		.uleb128 0x17
 5200 0fd3 81000000 		.4byte	.LASF240
 5201 0fd7 10       		.byte	0x10
 5202 0fd8 8602     		.2byte	0x286
 5203 0fda 09090000 		.4byte	0x909
 5204 0fde 84       		.byte	0x84
 5205 0fdf 00       		.byte	0
 5206 0fe0 05       		.uleb128 0x5
 5207 0fe1 85180000 		.4byte	.LASF241
 5208 0fe5 10       		.byte	0x10
 5209 0fe6 8802     		.2byte	0x288
 5210 0fe8 510E0000 		.4byte	0xe51
 5211 0fec 1B       		.uleb128 0x1b
 5212 0fed 24       		.byte	0x24
 5213 0fee 10       		.byte	0x10
 5214 0fef DB02     		.2byte	0x2db
 5215 0ff1 69100000 		.4byte	0x1069
 5216 0ff5 21       		.uleb128 0x21
 5217 0ff6 43523100 		.ascii	"CR1\000"
 5218 0ffa 10       		.byte	0x10
 5219 0ffb DD02     		.2byte	0x2dd
 5220 0ffd 09090000 		.4byte	0x909
 5221 1001 00       		.byte	0
 5222 1002 21       		.uleb128 0x21
 5223 1003 43523200 		.ascii	"CR2\000"
 5224 1007 10       		.byte	0x10
 5225 1008 DE02     		.2byte	0x2de
 5226 100a 09090000 		.4byte	0x909
 5227 100e 04       		.byte	0x4
 5228 100f 21       		.uleb128 0x21
 5229 1010 535200   		.ascii	"SR\000"
 5230 1013 10       		.byte	0x10
 5231 1014 DF02     		.2byte	0x2df
 5232 1016 09090000 		.4byte	0x909
ARM GAS  /tmp/ccigORce.s 			page 93


 5233 101a 08       		.byte	0x8
 5234 101b 21       		.uleb128 0x21
 5235 101c 445200   		.ascii	"DR\000"
 5236 101f 10       		.byte	0x10
 5237 1020 E002     		.2byte	0x2e0
 5238 1022 09090000 		.4byte	0x909
 5239 1026 0C       		.byte	0xc
 5240 1027 17       		.uleb128 0x17
 5241 1028 CB170000 		.4byte	.LASF242
 5242 102c 10       		.byte	0x10
 5243 102d E102     		.2byte	0x2e1
 5244 102f 09090000 		.4byte	0x909
 5245 1033 10       		.byte	0x10
 5246 1034 17       		.uleb128 0x17
 5247 1035 26110000 		.4byte	.LASF243
 5248 1039 10       		.byte	0x10
 5249 103a E202     		.2byte	0x2e2
 5250 103c 09090000 		.4byte	0x909
 5251 1040 14       		.byte	0x14
 5252 1041 17       		.uleb128 0x17
 5253 1042 AA170000 		.4byte	.LASF244
 5254 1046 10       		.byte	0x10
 5255 1047 E302     		.2byte	0x2e3
 5256 1049 09090000 		.4byte	0x909
 5257 104d 18       		.byte	0x18
 5258 104e 17       		.uleb128 0x17
 5259 104f 8E040000 		.4byte	.LASF245
 5260 1053 10       		.byte	0x10
 5261 1054 E402     		.2byte	0x2e4
 5262 1056 09090000 		.4byte	0x909
 5263 105a 1C       		.byte	0x1c
 5264 105b 17       		.uleb128 0x17
 5265 105c 331B0000 		.4byte	.LASF246
 5266 1060 10       		.byte	0x10
 5267 1061 E502     		.2byte	0x2e5
 5268 1063 09090000 		.4byte	0x909
 5269 1067 20       		.byte	0x20
 5270 1068 00       		.byte	0
 5271 1069 05       		.uleb128 0x5
 5272 106a B1170000 		.4byte	.LASF247
 5273 106e 10       		.byte	0x10
 5274 106f E602     		.2byte	0x2e6
 5275 1071 EC0F0000 		.4byte	0xfec
 5276 1075 1B       		.uleb128 0x1b
 5277 1076 1C       		.byte	0x1c
 5278 1077 10       		.byte	0x10
 5279 1078 0903     		.2byte	0x309
 5280 107a D8100000 		.4byte	0x10d8
 5281 107e 21       		.uleb128 0x21
 5282 107f 535200   		.ascii	"SR\000"
 5283 1082 10       		.byte	0x10
 5284 1083 0B03     		.2byte	0x30b
 5285 1085 09090000 		.4byte	0x909
 5286 1089 00       		.byte	0
 5287 108a 21       		.uleb128 0x21
 5288 108b 445200   		.ascii	"DR\000"
 5289 108e 10       		.byte	0x10
ARM GAS  /tmp/ccigORce.s 			page 94


 5290 108f 0C03     		.2byte	0x30c
 5291 1091 09090000 		.4byte	0x909
 5292 1095 04       		.byte	0x4
 5293 1096 21       		.uleb128 0x21
 5294 1097 42525200 		.ascii	"BRR\000"
 5295 109b 10       		.byte	0x10
 5296 109c 0D03     		.2byte	0x30d
 5297 109e 09090000 		.4byte	0x909
 5298 10a2 08       		.byte	0x8
 5299 10a3 21       		.uleb128 0x21
 5300 10a4 43523100 		.ascii	"CR1\000"
 5301 10a8 10       		.byte	0x10
 5302 10a9 0E03     		.2byte	0x30e
 5303 10ab 09090000 		.4byte	0x909
 5304 10af 0C       		.byte	0xc
 5305 10b0 21       		.uleb128 0x21
 5306 10b1 43523200 		.ascii	"CR2\000"
 5307 10b5 10       		.byte	0x10
 5308 10b6 0F03     		.2byte	0x30f
 5309 10b8 09090000 		.4byte	0x909
 5310 10bc 10       		.byte	0x10
 5311 10bd 21       		.uleb128 0x21
 5312 10be 43523300 		.ascii	"CR3\000"
 5313 10c2 10       		.byte	0x10
 5314 10c3 1003     		.2byte	0x310
 5315 10c5 09090000 		.4byte	0x909
 5316 10c9 14       		.byte	0x14
 5317 10ca 17       		.uleb128 0x17
 5318 10cb 8F100000 		.4byte	.LASF248
 5319 10cf 10       		.byte	0x10
 5320 10d0 1103     		.2byte	0x311
 5321 10d2 09090000 		.4byte	0x909
 5322 10d6 18       		.byte	0x18
 5323 10d7 00       		.byte	0
 5324 10d8 05       		.uleb128 0x5
 5325 10d9 360A0000 		.4byte	.LASF249
 5326 10dd 10       		.byte	0x10
 5327 10de 1203     		.2byte	0x312
 5328 10e0 75100000 		.4byte	0x1075
 5329 10e4 08       		.uleb128 0x8
 5330 10e5 09090000 		.4byte	0x909
 5331 10e9 F4100000 		.4byte	0x10f4
 5332 10ed 09       		.uleb128 0x9
 5333 10ee 0C010000 		.4byte	0x10c
 5334 10f2 0E       		.byte	0xe
 5335 10f3 00       		.byte	0
 5336 10f4 19       		.uleb128 0x19
 5337 10f5 E4100000 		.4byte	0x10e4
 5338 10f9 04       		.uleb128 0x4
 5339 10fa 49060000 		.4byte	.LASF250
 5340 10fe 11       		.byte	0x11
 5341 10ff 65       		.byte	0x65
 5342 1100 4A010000 		.4byte	0x14a
 5343 1104 04       		.uleb128 0x4
 5344 1105 2B0A0000 		.4byte	.LASF251
 5345 1109 11       		.byte	0x11
 5346 110a 6D       		.byte	0x6d
ARM GAS  /tmp/ccigORce.s 			page 95


 5347 110b 0E090000 		.4byte	0x90e
 5348 110f 0F       		.uleb128 0xf
 5349 1110 73070000 		.4byte	.LASF252
 5350 1114 04       		.byte	0x4
 5351 1115 11       		.byte	0x11
 5352 1116 89       		.byte	0x89
 5353 1117 28110000 		.4byte	0x1128
 5354 111b 10       		.uleb128 0x10
 5355 111c 72313300 		.ascii	"r13\000"
 5356 1120 11       		.byte	0x11
 5357 1121 8A       		.byte	0x8a
 5358 1122 A3110000 		.4byte	0x11a3
 5359 1126 00       		.byte	0
 5360 1127 00       		.byte	0
 5361 1128 0F       		.uleb128 0xf
 5362 1129 8F140000 		.4byte	.LASF253
 5363 112d 24       		.byte	0x24
 5364 112e 12       		.byte	0x12
 5365 112f F4       		.byte	0xf4
 5366 1130 A3110000 		.4byte	0x11a3
 5367 1134 21       		.uleb128 0x21
 5368 1135 723400   		.ascii	"r4\000"
 5369 1138 12       		.byte	0x12
 5370 1139 0701     		.2byte	0x107
 5371 113b F9100000 		.4byte	0x10f9
 5372 113f 00       		.byte	0
 5373 1140 21       		.uleb128 0x21
 5374 1141 723500   		.ascii	"r5\000"
 5375 1144 12       		.byte	0x12
 5376 1145 0801     		.2byte	0x108
 5377 1147 F9100000 		.4byte	0x10f9
 5378 114b 04       		.byte	0x4
 5379 114c 21       		.uleb128 0x21
 5380 114d 723600   		.ascii	"r6\000"
 5381 1150 12       		.byte	0x12
 5382 1151 0901     		.2byte	0x109
 5383 1153 F9100000 		.4byte	0x10f9
 5384 1157 08       		.byte	0x8
 5385 1158 21       		.uleb128 0x21
 5386 1159 723700   		.ascii	"r7\000"
 5387 115c 12       		.byte	0x12
 5388 115d 0A01     		.2byte	0x10a
 5389 115f F9100000 		.4byte	0x10f9
 5390 1163 0C       		.byte	0xc
 5391 1164 21       		.uleb128 0x21
 5392 1165 723800   		.ascii	"r8\000"
 5393 1168 12       		.byte	0x12
 5394 1169 0B01     		.2byte	0x10b
 5395 116b F9100000 		.4byte	0x10f9
 5396 116f 10       		.byte	0x10
 5397 1170 21       		.uleb128 0x21
 5398 1171 723900   		.ascii	"r9\000"
 5399 1174 12       		.byte	0x12
 5400 1175 0C01     		.2byte	0x10c
 5401 1177 F9100000 		.4byte	0x10f9
 5402 117b 14       		.byte	0x14
 5403 117c 21       		.uleb128 0x21
ARM GAS  /tmp/ccigORce.s 			page 96


 5404 117d 72313000 		.ascii	"r10\000"
 5405 1181 12       		.byte	0x12
 5406 1182 0D01     		.2byte	0x10d
 5407 1184 F9100000 		.4byte	0x10f9
 5408 1188 18       		.byte	0x18
 5409 1189 21       		.uleb128 0x21
 5410 118a 72313100 		.ascii	"r11\000"
 5411 118e 12       		.byte	0x12
 5412 118f 0E01     		.2byte	0x10e
 5413 1191 F9100000 		.4byte	0x10f9
 5414 1195 1C       		.byte	0x1c
 5415 1196 21       		.uleb128 0x21
 5416 1197 6C7200   		.ascii	"lr\000"
 5417 119a 12       		.byte	0x12
 5418 119b 0F01     		.2byte	0x10f
 5419 119d F9100000 		.4byte	0x10f9
 5420 11a1 20       		.byte	0x20
 5421 11a2 00       		.byte	0
 5422 11a3 0D       		.uleb128 0xd
 5423 11a4 04       		.byte	0x4
 5424 11a5 28110000 		.4byte	0x1128
 5425 11a9 1B       		.uleb128 0x1b
 5426 11aa 60       		.byte	0x60
 5427 11ab 13       		.byte	0x13
 5428 11ac 9E01     		.2byte	0x19e
 5429 11ae B5120000 		.4byte	0x12b5
 5430 11b2 21       		.uleb128 0x21
 5431 11b3 43523100 		.ascii	"CR1\000"
 5432 11b7 13       		.byte	0x13
 5433 11b8 9F01     		.2byte	0x19f
 5434 11ba 09090000 		.4byte	0x909
 5435 11be 00       		.byte	0
 5436 11bf 21       		.uleb128 0x21
 5437 11c0 43523200 		.ascii	"CR2\000"
 5438 11c4 13       		.byte	0x13
 5439 11c5 A001     		.2byte	0x1a0
 5440 11c7 09090000 		.4byte	0x909
 5441 11cb 04       		.byte	0x4
 5442 11cc 17       		.uleb128 0x17
 5443 11cd 22070000 		.4byte	.LASF254
 5444 11d1 13       		.byte	0x13
 5445 11d2 A101     		.2byte	0x1a1
 5446 11d4 09090000 		.4byte	0x909
 5447 11d8 08       		.byte	0x8
 5448 11d9 17       		.uleb128 0x17
 5449 11da 3D0C0000 		.4byte	.LASF255
 5450 11de 13       		.byte	0x13
 5451 11df A201     		.2byte	0x1a2
 5452 11e1 09090000 		.4byte	0x909
 5453 11e5 0C       		.byte	0xc
 5454 11e6 21       		.uleb128 0x21
 5455 11e7 535200   		.ascii	"SR\000"
 5456 11ea 13       		.byte	0x13
 5457 11eb A301     		.2byte	0x1a3
 5458 11ed 09090000 		.4byte	0x909
 5459 11f1 10       		.byte	0x10
 5460 11f2 21       		.uleb128 0x21
ARM GAS  /tmp/ccigORce.s 			page 97


 5461 11f3 45475200 		.ascii	"EGR\000"
 5462 11f7 13       		.byte	0x13
 5463 11f8 A401     		.2byte	0x1a4
 5464 11fa 09090000 		.4byte	0x909
 5465 11fe 14       		.byte	0x14
 5466 11ff 17       		.uleb128 0x17
 5467 1200 0F090000 		.4byte	.LASF256
 5468 1204 13       		.byte	0x13
 5469 1205 A501     		.2byte	0x1a5
 5470 1207 09090000 		.4byte	0x909
 5471 120b 18       		.byte	0x18
 5472 120c 17       		.uleb128 0x17
 5473 120d 15090000 		.4byte	.LASF257
 5474 1211 13       		.byte	0x13
 5475 1212 A601     		.2byte	0x1a6
 5476 1214 09090000 		.4byte	0x909
 5477 1218 1C       		.byte	0x1c
 5478 1219 17       		.uleb128 0x17
 5479 121a 05160000 		.4byte	.LASF258
 5480 121e 13       		.byte	0x13
 5481 121f A701     		.2byte	0x1a7
 5482 1221 09090000 		.4byte	0x909
 5483 1225 20       		.byte	0x20
 5484 1226 21       		.uleb128 0x21
 5485 1227 434E5400 		.ascii	"CNT\000"
 5486 122b 13       		.byte	0x13
 5487 122c A801     		.2byte	0x1a8
 5488 122e 09090000 		.4byte	0x909
 5489 1232 24       		.byte	0x24
 5490 1233 21       		.uleb128 0x21
 5491 1234 50534300 		.ascii	"PSC\000"
 5492 1238 13       		.byte	0x13
 5493 1239 A901     		.2byte	0x1a9
 5494 123b 09090000 		.4byte	0x909
 5495 123f 28       		.byte	0x28
 5496 1240 21       		.uleb128 0x21
 5497 1241 41525200 		.ascii	"ARR\000"
 5498 1245 13       		.byte	0x13
 5499 1246 AA01     		.2byte	0x1aa
 5500 1248 09090000 		.4byte	0x909
 5501 124c 2C       		.byte	0x2c
 5502 124d 21       		.uleb128 0x21
 5503 124e 52435200 		.ascii	"RCR\000"
 5504 1252 13       		.byte	0x13
 5505 1253 AB01     		.2byte	0x1ab
 5506 1255 09090000 		.4byte	0x909
 5507 1259 30       		.byte	0x30
 5508 125a 21       		.uleb128 0x21
 5509 125b 43435200 		.ascii	"CCR\000"
 5510 125f 13       		.byte	0x13
 5511 1260 AC01     		.2byte	0x1ac
 5512 1262 4C0E0000 		.4byte	0xe4c
 5513 1266 34       		.byte	0x34
 5514 1267 17       		.uleb128 0x17
 5515 1268 0F1B0000 		.4byte	.LASF259
 5516 126c 13       		.byte	0x13
 5517 126d AD01     		.2byte	0x1ad
ARM GAS  /tmp/ccigORce.s 			page 98


 5518 126f 09090000 		.4byte	0x909
 5519 1273 44       		.byte	0x44
 5520 1274 21       		.uleb128 0x21
 5521 1275 44435200 		.ascii	"DCR\000"
 5522 1279 13       		.byte	0x13
 5523 127a AE01     		.2byte	0x1ae
 5524 127c 09090000 		.4byte	0x909
 5525 1280 48       		.byte	0x48
 5526 1281 17       		.uleb128 0x17
 5527 1282 D0030000 		.4byte	.LASF260
 5528 1286 13       		.byte	0x13
 5529 1287 AF01     		.2byte	0x1af
 5530 1289 09090000 		.4byte	0x909
 5531 128d 4C       		.byte	0x4c
 5532 128e 21       		.uleb128 0x21
 5533 128f 4F5200   		.ascii	"OR\000"
 5534 1292 13       		.byte	0x13
 5535 1293 B001     		.2byte	0x1b0
 5536 1295 09090000 		.4byte	0x909
 5537 1299 50       		.byte	0x50
 5538 129a 17       		.uleb128 0x17
 5539 129b 1B090000 		.4byte	.LASF261
 5540 129f 13       		.byte	0x13
 5541 12a0 B101     		.2byte	0x1b1
 5542 12a2 09090000 		.4byte	0x909
 5543 12a6 54       		.byte	0x54
 5544 12a7 17       		.uleb128 0x17
 5545 12a8 D70A0000 		.4byte	.LASF262
 5546 12ac 13       		.byte	0x13
 5547 12ad B201     		.2byte	0x1b2
 5548 12af 370E0000 		.4byte	0xe37
 5549 12b3 58       		.byte	0x58
 5550 12b4 00       		.byte	0
 5551 12b5 05       		.uleb128 0x5
 5552 12b6 5F0E0000 		.4byte	.LASF263
 5553 12ba 13       		.byte	0x13
 5554 12bb B301     		.2byte	0x1b3
 5555 12bd A9110000 		.4byte	0x11a9
 5556 12c1 0A       		.uleb128 0xa
 5557 12c2 04       		.byte	0x4
 5558 12c3 14       		.byte	0x14
 5559 12c4 38       		.byte	0x38
 5560 12c5 D6120000 		.4byte	0x12d6
 5561 12c9 0B       		.uleb128 0xb
 5562 12ca 5F130000 		.4byte	.LASF264
 5563 12ce 14       		.byte	0x14
 5564 12cf 3C       		.byte	0x3c
 5565 12d0 19090000 		.4byte	0x919
 5566 12d4 00       		.byte	0
 5567 12d5 00       		.byte	0
 5568 12d6 04       		.uleb128 0x4
 5569 12d7 32180000 		.4byte	.LASF265
 5570 12db 14       		.byte	0x14
 5571 12dc 3D       		.byte	0x3d
 5572 12dd C1120000 		.4byte	0x12c1
 5573 12e1 06       		.uleb128 0x6
 5574 12e2 04       		.byte	0x4
ARM GAS  /tmp/ccigORce.s 			page 99


 5575 12e3 0D       		.byte	0xd
 5576 12e4 FA       		.byte	0xfa
 5577 12e5 3E130000 		.4byte	0x133e
 5578 12e9 1D       		.uleb128 0x1d
 5579 12ea B41B0000 		.4byte	.LASF266
 5580 12ee 0D       		.byte	0xd
 5581 12ef 0101     		.2byte	0x101
 5582 12f1 50090000 		.4byte	0x950
 5583 12f5 1D       		.uleb128 0x1d
 5584 12f6 85040000 		.4byte	.LASF267
 5585 12fa 0D       		.byte	0xd
 5586 12fb 0801     		.2byte	0x108
 5587 12fd 50090000 		.4byte	0x950
 5588 1301 1D       		.uleb128 0x1d
 5589 1302 CA090000 		.4byte	.LASF268
 5590 1306 0D       		.byte	0xd
 5591 1307 0F01     		.2byte	0x10f
 5592 1309 4A010000 		.4byte	0x14a
 5593 130d 1D       		.uleb128 0x1d
 5594 130e 8C070000 		.4byte	.LASF269
 5595 1312 0D       		.byte	0xd
 5596 1313 1601     		.2byte	0x116
 5597 1315 3E130000 		.4byte	0x133e
 5598 1319 1D       		.uleb128 0x1d
 5599 131a 821D0000 		.4byte	.LASF270
 5600 131e 0D       		.byte	0xd
 5601 131f 1E01     		.2byte	0x11e
 5602 1321 69130000 		.4byte	0x1369
 5603 1325 1D       		.uleb128 0x1d
 5604 1326 A00B0000 		.4byte	.LASF271
 5605 132a 0D       		.byte	0xd
 5606 132b 2701     		.2byte	0x127
 5607 132d A0130000 		.4byte	0x13a0
 5608 1331 1D       		.uleb128 0x1d
 5609 1332 13070000 		.4byte	.LASF272
 5610 1336 0D       		.byte	0xd
 5611 1337 2F01     		.2byte	0x12f
 5612 1339 5B090000 		.4byte	0x95b
 5613 133d 00       		.byte	0
 5614 133e 0D       		.uleb128 0xd
 5615 133f 04       		.byte	0x4
 5616 1340 7F0A0000 		.4byte	0xa7f
 5617 1344 0F       		.uleb128 0xf
 5618 1345 6D0D0000 		.4byte	.LASF273
 5619 1349 0C       		.byte	0xc
 5620 134a 15       		.byte	0x15
 5621 134b 34       		.byte	0x34
 5622 134c 69130000 		.4byte	0x1369
 5623 1350 0B       		.uleb128 0xb
 5624 1351 73180000 		.4byte	.LASF274
 5625 1355 15       		.byte	0x15
 5626 1356 35       		.byte	0x35
 5627 1357 B40A0000 		.4byte	0xab4
 5628 135b 00       		.byte	0
 5629 135c 0B       		.uleb128 0xb
 5630 135d E4140000 		.4byte	.LASF275
 5631 1361 15       		.byte	0x15
ARM GAS  /tmp/ccigORce.s 			page 100


 5632 1362 37       		.byte	0x37
 5633 1363 71090000 		.4byte	0x971
 5634 1367 08       		.byte	0x8
 5635 1368 00       		.byte	0
 5636 1369 0D       		.uleb128 0xd
 5637 136a 04       		.byte	0x4
 5638 136b 44130000 		.4byte	0x1344
 5639 136f 0F       		.uleb128 0xf
 5640 1370 D9180000 		.4byte	.LASF276
 5641 1374 10       		.byte	0x10
 5642 1375 16       		.byte	0x16
 5643 1376 39       		.byte	0x39
 5644 1377 A0130000 		.4byte	0x13a0
 5645 137b 0B       		.uleb128 0xb
 5646 137c F10F0000 		.4byte	.LASF277
 5647 1380 16       		.byte	0x16
 5648 1381 3A       		.byte	0x3a
 5649 1382 B40A0000 		.4byte	0xab4
 5650 1386 00       		.byte	0
 5651 1387 0B       		.uleb128 0xb
 5652 1388 68040000 		.4byte	.LASF278
 5653 138c 16       		.byte	0x16
 5654 138d 3C       		.byte	0x3c
 5655 138e 8A0A0000 		.4byte	0xa8a
 5656 1392 08       		.byte	0x8
 5657 1393 0B       		.uleb128 0xb
 5658 1394 1C1D0000 		.4byte	.LASF279
 5659 1398 16       		.byte	0x16
 5660 1399 3E       		.byte	0x3e
 5661 139a DE140000 		.4byte	0x14de
 5662 139e 0C       		.byte	0xc
 5663 139f 00       		.byte	0
 5664 13a0 0D       		.uleb128 0xd
 5665 13a1 04       		.byte	0x4
 5666 13a2 6F130000 		.4byte	0x136f
 5667 13a6 0D       		.uleb128 0xd
 5668 13a7 04       		.byte	0x4
 5669 13a8 670B0000 		.4byte	0xb67
 5670 13ac 08       		.uleb128 0x8
 5671 13ad 04110000 		.4byte	0x1104
 5672 13b1 BC130000 		.4byte	0x13bc
 5673 13b5 09       		.uleb128 0x9
 5674 13b6 0C010000 		.4byte	0x10c
 5675 13ba 1A       		.byte	0x1a
 5676 13bb 00       		.byte	0
 5677 13bc 23       		.uleb128 0x23
 5678 13bd 636800   		.ascii	"ch\000"
 5679 13c0 0D       		.byte	0xd
 5680 13c1 0902     		.2byte	0x209
 5681 13c3 340C0000 		.4byte	0xc34
 5682 13c7 0A       		.uleb128 0xa
 5683 13c8 16       		.byte	0x16
 5684 13c9 17       		.byte	0x17
 5685 13ca 34       		.byte	0x34
 5686 13cb A8140000 		.4byte	0x14a8
 5687 13cf 0B       		.uleb128 0xb
 5688 13d0 8C000000 		.4byte	.LASF280
ARM GAS  /tmp/ccigORce.s 			page 101


 5689 13d4 17       		.byte	0x17
 5690 13d5 35       		.byte	0x35
 5691 13d6 A8140000 		.4byte	0x14a8
 5692 13da 00       		.byte	0
 5693 13db 0B       		.uleb128 0xb
 5694 13dc B1160000 		.4byte	.LASF281
 5695 13e0 17       		.byte	0x17
 5696 13e1 36       		.byte	0x36
 5697 13e2 D3080000 		.4byte	0x8d3
 5698 13e6 04       		.byte	0x4
 5699 13e7 0B       		.uleb128 0xb
 5700 13e8 351C0000 		.4byte	.LASF282
 5701 13ec 17       		.byte	0x17
 5702 13ed 37       		.byte	0x37
 5703 13ee D3080000 		.4byte	0x8d3
 5704 13f2 05       		.byte	0x5
 5705 13f3 0B       		.uleb128 0xb
 5706 13f4 E60F0000 		.4byte	.LASF283
 5707 13f8 17       		.byte	0x17
 5708 13f9 38       		.byte	0x38
 5709 13fa E3080000 		.4byte	0x8e3
 5710 13fe 06       		.byte	0x6
 5711 13ff 0B       		.uleb128 0xb
 5712 1400 A9030000 		.4byte	.LASF284
 5713 1404 17       		.byte	0x17
 5714 1405 39       		.byte	0x39
 5715 1406 D3080000 		.4byte	0x8d3
 5716 140a 08       		.byte	0x8
 5717 140b 0B       		.uleb128 0xb
 5718 140c 84120000 		.4byte	.LASF285
 5719 1410 17       		.byte	0x17
 5720 1411 3A       		.byte	0x3a
 5721 1412 D3080000 		.4byte	0x8d3
 5722 1416 09       		.byte	0x9
 5723 1417 0B       		.uleb128 0xb
 5724 1418 BA040000 		.4byte	.LASF286
 5725 141c 17       		.byte	0x17
 5726 141d 3B       		.byte	0x3b
 5727 141e D3080000 		.4byte	0x8d3
 5728 1422 0A       		.byte	0xa
 5729 1423 0B       		.uleb128 0xb
 5730 1424 910A0000 		.4byte	.LASF287
 5731 1428 17       		.byte	0x17
 5732 1429 3C       		.byte	0x3c
 5733 142a D3080000 		.4byte	0x8d3
 5734 142e 0B       		.byte	0xb
 5735 142f 0B       		.uleb128 0xb
 5736 1430 1B020000 		.4byte	.LASF288
 5737 1434 17       		.byte	0x17
 5738 1435 3D       		.byte	0x3d
 5739 1436 D3080000 		.4byte	0x8d3
 5740 143a 0C       		.byte	0xc
 5741 143b 0B       		.uleb128 0xb
 5742 143c EE090000 		.4byte	.LASF289
 5743 1440 17       		.byte	0x17
 5744 1441 3E       		.byte	0x3e
 5745 1442 D3080000 		.4byte	0x8d3
ARM GAS  /tmp/ccigORce.s 			page 102


 5746 1446 0D       		.byte	0xd
 5747 1447 0B       		.uleb128 0xb
 5748 1448 B2190000 		.4byte	.LASF290
 5749 144c 17       		.byte	0x17
 5750 144d 3F       		.byte	0x3f
 5751 144e D3080000 		.4byte	0x8d3
 5752 1452 0E       		.byte	0xe
 5753 1453 0B       		.uleb128 0xb
 5754 1454 66000000 		.4byte	.LASF291
 5755 1458 17       		.byte	0x17
 5756 1459 40       		.byte	0x40
 5757 145a D3080000 		.4byte	0x8d3
 5758 145e 0F       		.byte	0xf
 5759 145f 0B       		.uleb128 0xb
 5760 1460 9E1A0000 		.4byte	.LASF292
 5761 1464 17       		.byte	0x17
 5762 1465 41       		.byte	0x41
 5763 1466 D3080000 		.4byte	0x8d3
 5764 146a 10       		.byte	0x10
 5765 146b 0B       		.uleb128 0xb
 5766 146c AC050000 		.4byte	.LASF293
 5767 1470 17       		.byte	0x17
 5768 1471 43       		.byte	0x43
 5769 1472 D3080000 		.4byte	0x8d3
 5770 1476 11       		.byte	0x11
 5771 1477 0B       		.uleb128 0xb
 5772 1478 F8150000 		.4byte	.LASF294
 5773 147c 17       		.byte	0x17
 5774 147d 44       		.byte	0x44
 5775 147e D3080000 		.4byte	0x8d3
 5776 1482 12       		.byte	0x12
 5777 1483 0B       		.uleb128 0xb
 5778 1484 C1130000 		.4byte	.LASF295
 5779 1488 17       		.byte	0x17
 5780 1489 45       		.byte	0x45
 5781 148a D3080000 		.4byte	0x8d3
 5782 148e 13       		.byte	0x13
 5783 148f 0B       		.uleb128 0xb
 5784 1490 340F0000 		.4byte	.LASF296
 5785 1494 17       		.byte	0x17
 5786 1495 46       		.byte	0x46
 5787 1496 D3080000 		.4byte	0x8d3
 5788 149a 14       		.byte	0x14
 5789 149b 0B       		.uleb128 0xb
 5790 149c D1090000 		.4byte	.LASF297
 5791 14a0 17       		.byte	0x17
 5792 14a1 48       		.byte	0x48
 5793 14a2 D3080000 		.4byte	0x8d3
 5794 14a6 15       		.byte	0x15
 5795 14a7 00       		.byte	0
 5796 14a8 08       		.uleb128 0x8
 5797 14a9 52010000 		.4byte	0x152
 5798 14ad B8140000 		.4byte	0x14b8
 5799 14b1 09       		.uleb128 0x9
 5800 14b2 0C010000 		.4byte	0x10c
 5801 14b6 03       		.byte	0x3
 5802 14b7 00       		.byte	0
ARM GAS  /tmp/ccigORce.s 			page 103


 5803 14b8 04       		.uleb128 0x4
 5804 14b9 0E1C0000 		.4byte	.LASF298
 5805 14bd 17       		.byte	0x17
 5806 14be 49       		.byte	0x49
 5807 14bf C7130000 		.4byte	0x13c7
 5808 14c3 0E       		.uleb128 0xe
 5809 14c4 B8140000 		.4byte	0x14b8
 5810 14c8 22       		.uleb128 0x22
 5811 14c9 CB000000 		.4byte	.LASF299
 5812 14cd 17       		.byte	0x17
 5813 14ce 82       		.byte	0x82
 5814 14cf C3140000 		.4byte	0x14c3
 5815 14d3 04       		.uleb128 0x4
 5816 14d4 871A0000 		.4byte	.LASF300
 5817 14d8 16       		.byte	0x16
 5818 14d9 34       		.byte	0x34
 5819 14da 6F130000 		.4byte	0x136f
 5820 14de 0D       		.uleb128 0xd
 5821 14df 04       		.byte	0x4
 5822 14e0 D3140000 		.4byte	0x14d3
 5823 14e4 04       		.uleb128 0x4
 5824 14e5 B90A0000 		.4byte	.LASF301
 5825 14e9 18       		.byte	0x18
 5826 14ea 34       		.byte	0x34
 5827 14eb EF140000 		.4byte	0x14ef
 5828 14ef 0F       		.uleb128 0xf
 5829 14f0 8E1B0000 		.4byte	.LASF302
 5830 14f4 14       		.byte	0x14
 5831 14f5 18       		.byte	0x18
 5832 14f6 39       		.byte	0x39
 5833 14f7 38150000 		.4byte	0x1538
 5834 14fb 0B       		.uleb128 0xb
 5835 14fc E80D0000 		.4byte	.LASF303
 5836 1500 18       		.byte	0x18
 5837 1501 3A       		.byte	0x3a
 5838 1502 38150000 		.4byte	0x1538
 5839 1506 00       		.byte	0
 5840 1507 0B       		.uleb128 0xb
 5841 1508 8F1D0000 		.4byte	.LASF304
 5842 150c 18       		.byte	0x18
 5843 150d 3D       		.byte	0x3d
 5844 150e 8A0A0000 		.4byte	0xa8a
 5845 1512 04       		.byte	0x4
 5846 1513 0B       		.uleb128 0xb
 5847 1514 F8120000 		.4byte	.LASF305
 5848 1518 18       		.byte	0x18
 5849 1519 3F       		.byte	0x3f
 5850 151a 5B090000 		.4byte	0x95b
 5851 151e 08       		.byte	0x8
 5852 151f 0B       		.uleb128 0xb
 5853 1520 51030000 		.4byte	.LASF306
 5854 1524 18       		.byte	0x18
 5855 1525 41       		.byte	0x41
 5856 1526 66090000 		.4byte	0x966
 5857 152a 0C       		.byte	0xc
 5858 152b 0B       		.uleb128 0xb
 5859 152c BC120000 		.4byte	.LASF307
ARM GAS  /tmp/ccigORce.s 			page 104


 5860 1530 18       		.byte	0x18
 5861 1531 43       		.byte	0x43
 5862 1532 66090000 		.4byte	0x966
 5863 1536 10       		.byte	0x10
 5864 1537 00       		.byte	0
 5865 1538 0D       		.uleb128 0xd
 5866 1539 04       		.byte	0x4
 5867 153a E4140000 		.4byte	0x14e4
 5868 153e 0F       		.uleb128 0xf
 5869 153f B1180000 		.4byte	.LASF308
 5870 1543 04       		.byte	0x4
 5871 1544 18       		.byte	0x18
 5872 1545 4A       		.byte	0x4a
 5873 1546 57150000 		.4byte	0x1557
 5874 154a 0B       		.uleb128 0xb
 5875 154b AD0C0000 		.4byte	.LASF309
 5876 154f 18       		.byte	0x18
 5877 1550 4B       		.byte	0x4b
 5878 1551 38150000 		.4byte	0x1538
 5879 1555 00       		.byte	0
 5880 1556 00       		.byte	0
 5881 1557 04       		.uleb128 0x4
 5882 1558 BF100000 		.4byte	.LASF310
 5883 155c 18       		.byte	0x18
 5884 155d 4E       		.byte	0x4e
 5885 155e 3E150000 		.4byte	0x153e
 5886 1562 04       		.uleb128 0x4
 5887 1563 C7190000 		.4byte	.LASF311
 5888 1567 19       		.byte	0x19
 5889 1568 3F       		.byte	0x3f
 5890 1569 6D150000 		.4byte	0x156d
 5891 156d 0F       		.uleb128 0xf
 5892 156e BF060000 		.4byte	.LASF312
 5893 1572 24       		.byte	0x24
 5894 1573 19       		.byte	0x19
 5895 1574 4D       		.byte	0x4d
 5896 1575 DA150000 		.4byte	0x15da
 5897 1579 0B       		.uleb128 0xb
 5898 157a A0170000 		.4byte	.LASF313
 5899 157e 19       		.byte	0x19
 5900 157f 4E       		.byte	0x4e
 5901 1580 B40A0000 		.4byte	0xab4
 5902 1584 00       		.byte	0
 5903 1585 0B       		.uleb128 0xb
 5904 1586 B50C0000 		.4byte	.LASF314
 5905 158a 19       		.byte	0x19
 5906 158b 4F       		.byte	0x4f
 5907 158c 2F000000 		.4byte	0x2f
 5908 1590 08       		.byte	0x8
 5909 1591 0B       		.uleb128 0xb
 5910 1592 08050000 		.4byte	.LASF315
 5911 1596 19       		.byte	0x19
 5912 1597 50       		.byte	0x50
 5913 1598 FC150000 		.4byte	0x15fc
 5914 159c 0C       		.byte	0xc
 5915 159d 0B       		.uleb128 0xb
 5916 159e AE040000 		.4byte	.LASF316
ARM GAS  /tmp/ccigORce.s 			page 105


 5917 15a2 19       		.byte	0x19
 5918 15a3 51       		.byte	0x51
 5919 15a4 FC150000 		.4byte	0x15fc
 5920 15a8 10       		.byte	0x10
 5921 15a9 0B       		.uleb128 0xb
 5922 15aa 3D0E0000 		.4byte	.LASF317
 5923 15ae 19       		.byte	0x19
 5924 15af 53       		.byte	0x53
 5925 15b0 FC150000 		.4byte	0x15fc
 5926 15b4 14       		.byte	0x14
 5927 15b5 0B       		.uleb128 0xb
 5928 15b6 9A050000 		.4byte	.LASF318
 5929 15ba 19       		.byte	0x19
 5930 15bb 54       		.byte	0x54
 5931 15bc FC150000 		.4byte	0x15fc
 5932 15c0 18       		.byte	0x18
 5933 15c1 0B       		.uleb128 0xb
 5934 15c2 2C050000 		.4byte	.LASF319
 5935 15c6 19       		.byte	0x19
 5936 15c7 55       		.byte	0x55
 5937 15c8 DA150000 		.4byte	0x15da
 5938 15cc 1C       		.byte	0x1c
 5939 15cd 0B       		.uleb128 0xb
 5940 15ce 00070000 		.4byte	.LASF320
 5941 15d2 19       		.byte	0x19
 5942 15d3 56       		.byte	0x56
 5943 15d4 4A010000 		.4byte	0x14a
 5944 15d8 20       		.byte	0x20
 5945 15d9 00       		.byte	0
 5946 15da 04       		.uleb128 0x4
 5947 15db 57110000 		.4byte	.LASF321
 5948 15df 19       		.byte	0x19
 5949 15e0 42       		.byte	0x42
 5950 15e1 E5150000 		.4byte	0x15e5
 5951 15e5 0D       		.uleb128 0xd
 5952 15e6 04       		.byte	0x4
 5953 15e7 EB150000 		.4byte	0x15eb
 5954 15eb 1F       		.uleb128 0x1f
 5955 15ec F6150000 		.4byte	0x15f6
 5956 15f0 15       		.uleb128 0x15
 5957 15f1 F6150000 		.4byte	0x15f6
 5958 15f5 00       		.byte	0
 5959 15f6 0D       		.uleb128 0xd
 5960 15f7 04       		.byte	0x4
 5961 15f8 62150000 		.4byte	0x1562
 5962 15fc 0D       		.uleb128 0xd
 5963 15fd 04       		.byte	0x4
 5964 15fe D3080000 		.4byte	0x8d3
 5965 1602 04       		.uleb128 0x4
 5966 1603 411B0000 		.4byte	.LASF322
 5967 1607 19       		.byte	0x19
 5968 1608 64       		.byte	0x64
 5969 1609 62150000 		.4byte	0x1562
 5970 160d 04       		.uleb128 0x4
 5971 160e 4E1C0000 		.4byte	.LASF323
 5972 1612 19       		.byte	0x19
 5973 1613 71       		.byte	0x71
ARM GAS  /tmp/ccigORce.s 			page 106


 5974 1614 62150000 		.4byte	0x1562
 5975 1618 14       		.uleb128 0x14
 5976 1619 2F000000 		.4byte	0x2f
 5977 161d 31160000 		.4byte	0x1631
 5978 1621 15       		.uleb128 0x15
 5979 1622 4A010000 		.4byte	0x14a
 5980 1626 15       		.uleb128 0x15
 5981 1627 31160000 		.4byte	0x1631
 5982 162b 15       		.uleb128 0x15
 5983 162c 2F000000 		.4byte	0x2f
 5984 1630 00       		.byte	0
 5985 1631 0D       		.uleb128 0xd
 5986 1632 04       		.byte	0x4
 5987 1633 DE080000 		.4byte	0x8de
 5988 1637 0D       		.uleb128 0xd
 5989 1638 04       		.byte	0x4
 5990 1639 18160000 		.4byte	0x1618
 5991 163d 14       		.uleb128 0x14
 5992 163e 2F000000 		.4byte	0x2f
 5993 1642 56160000 		.4byte	0x1656
 5994 1646 15       		.uleb128 0x15
 5995 1647 4A010000 		.4byte	0x14a
 5996 164b 15       		.uleb128 0x15
 5997 164c FC150000 		.4byte	0x15fc
 5998 1650 15       		.uleb128 0x15
 5999 1651 2F000000 		.4byte	0x2f
 6000 1655 00       		.byte	0
 6001 1656 0D       		.uleb128 0xd
 6002 1657 04       		.byte	0x4
 6003 1658 3D160000 		.4byte	0x163d
 6004 165c 14       		.uleb128 0x14
 6005 165d 50090000 		.4byte	0x950
 6006 1661 70160000 		.4byte	0x1670
 6007 1665 15       		.uleb128 0x15
 6008 1666 4A010000 		.4byte	0x14a
 6009 166a 15       		.uleb128 0x15
 6010 166b D3080000 		.4byte	0x8d3
 6011 166f 00       		.byte	0
 6012 1670 0D       		.uleb128 0xd
 6013 1671 04       		.byte	0x4
 6014 1672 5C160000 		.4byte	0x165c
 6015 1676 14       		.uleb128 0x14
 6016 1677 50090000 		.4byte	0x950
 6017 167b 85160000 		.4byte	0x1685
 6018 167f 15       		.uleb128 0x15
 6019 1680 4A010000 		.4byte	0x14a
 6020 1684 00       		.byte	0
 6021 1685 0D       		.uleb128 0xd
 6022 1686 04       		.byte	0x4
 6023 1687 76160000 		.4byte	0x1676
 6024 168b 0A       		.uleb128 0xa
 6025 168c 0C       		.byte	0xc
 6026 168d 1A       		.byte	0x1a
 6027 168e DA       		.byte	0xda
 6028 168f D0160000 		.4byte	0x16d0
 6029 1693 0B       		.uleb128 0xb
 6030 1694 9D0A0000 		.4byte	.LASF324
ARM GAS  /tmp/ccigORce.s 			page 107


 6031 1698 1A       		.byte	0x1a
 6032 1699 DB       		.byte	0xdb
 6033 169a D0160000 		.4byte	0x16d0
 6034 169e 00       		.byte	0
 6035 169f 0B       		.uleb128 0xb
 6036 16a0 B01C0000 		.4byte	.LASF325
 6037 16a4 1A       		.byte	0x1a
 6038 16a5 DC       		.byte	0xdc
 6039 16a6 D6160000 		.4byte	0x16d6
 6040 16aa 04       		.byte	0x4
 6041 16ab 0B       		.uleb128 0xb
 6042 16ac 5F090000 		.4byte	.LASF326
 6043 16b0 1A       		.byte	0x1a
 6044 16b1 DD       		.byte	0xdd
 6045 16b2 D3080000 		.4byte	0x8d3
 6046 16b6 08       		.byte	0x8
 6047 16b7 0B       		.uleb128 0xb
 6048 16b8 F8140000 		.4byte	.LASF327
 6049 16bc 1A       		.byte	0x1a
 6050 16bd DF       		.byte	0xdf
 6051 16be D3080000 		.4byte	0x8d3
 6052 16c2 09       		.byte	0x9
 6053 16c3 0B       		.uleb128 0xb
 6054 16c4 75160000 		.4byte	.LASF328
 6055 16c8 1A       		.byte	0x1a
 6056 16c9 E0       		.byte	0xe0
 6057 16ca D3080000 		.4byte	0x8d3
 6058 16ce 0A       		.byte	0xa
 6059 16cf 00       		.byte	0
 6060 16d0 0D       		.uleb128 0xd
 6061 16d1 04       		.byte	0x4
 6062 16d2 1B0E0000 		.4byte	0xe1b
 6063 16d6 0D       		.uleb128 0xd
 6064 16d7 04       		.byte	0x4
 6065 16d8 09090000 		.4byte	0x909
 6066 16dc 04       		.uleb128 0x4
 6067 16dd 17000000 		.4byte	.LASF329
 6068 16e1 1A       		.byte	0x1a
 6069 16e2 E1       		.byte	0xe1
 6070 16e3 8B160000 		.4byte	0x168b
 6071 16e7 0E       		.uleb128 0xe
 6072 16e8 DC160000 		.4byte	0x16dc
 6073 16ec 08       		.uleb128 0x8
 6074 16ed E7160000 		.4byte	0x16e7
 6075 16f1 FC160000 		.4byte	0x16fc
 6076 16f5 09       		.uleb128 0x9
 6077 16f6 0C010000 		.4byte	0x10c
 6078 16fa 0F       		.byte	0xf
 6079 16fb 00       		.byte	0
 6080 16fc 0E       		.uleb128 0xe
 6081 16fd EC160000 		.4byte	0x16ec
 6082 1701 20       		.uleb128 0x20
 6083 1702 D50D0000 		.4byte	.LASF330
 6084 1706 1A       		.byte	0x1a
 6085 1707 BB01     		.2byte	0x1bb
 6086 1709 FC160000 		.4byte	0x16fc
 6087 170d 14       		.uleb128 0x14
ARM GAS  /tmp/ccigORce.s 			page 108


 6088 170e 50090000 		.4byte	0x950
 6089 1712 26170000 		.4byte	0x1726
 6090 1716 15       		.uleb128 0x15
 6091 1717 4A010000 		.4byte	0x14a
 6092 171b 15       		.uleb128 0x15
 6093 171c D3080000 		.4byte	0x8d3
 6094 1720 15       		.uleb128 0x15
 6095 1721 7C090000 		.4byte	0x97c
 6096 1725 00       		.byte	0
 6097 1726 0D       		.uleb128 0xd
 6098 1727 04       		.byte	0x4
 6099 1728 0D170000 		.4byte	0x170d
 6100 172c 14       		.uleb128 0x14
 6101 172d 50090000 		.4byte	0x950
 6102 1731 40170000 		.4byte	0x1740
 6103 1735 15       		.uleb128 0x15
 6104 1736 4A010000 		.4byte	0x14a
 6105 173a 15       		.uleb128 0x15
 6106 173b 7C090000 		.4byte	0x97c
 6107 173f 00       		.byte	0
 6108 1740 0D       		.uleb128 0xd
 6109 1741 04       		.byte	0x4
 6110 1742 2C170000 		.4byte	0x172c
 6111 1746 14       		.uleb128 0x14
 6112 1747 2F000000 		.4byte	0x2f
 6113 174b 64170000 		.4byte	0x1764
 6114 174f 15       		.uleb128 0x15
 6115 1750 4A010000 		.4byte	0x14a
 6116 1754 15       		.uleb128 0x15
 6117 1755 31160000 		.4byte	0x1631
 6118 1759 15       		.uleb128 0x15
 6119 175a 2F000000 		.4byte	0x2f
 6120 175e 15       		.uleb128 0x15
 6121 175f 7C090000 		.4byte	0x97c
 6122 1763 00       		.byte	0
 6123 1764 0D       		.uleb128 0xd
 6124 1765 04       		.byte	0x4
 6125 1766 46170000 		.4byte	0x1746
 6126 176a 14       		.uleb128 0x14
 6127 176b 2F000000 		.4byte	0x2f
 6128 176f 88170000 		.4byte	0x1788
 6129 1773 15       		.uleb128 0x15
 6130 1774 4A010000 		.4byte	0x14a
 6131 1778 15       		.uleb128 0x15
 6132 1779 FC150000 		.4byte	0x15fc
 6133 177d 15       		.uleb128 0x15
 6134 177e 2F000000 		.4byte	0x2f
 6135 1782 15       		.uleb128 0x15
 6136 1783 7C090000 		.4byte	0x97c
 6137 1787 00       		.byte	0
 6138 1788 0D       		.uleb128 0xd
 6139 1789 04       		.byte	0x4
 6140 178a 6A170000 		.4byte	0x176a
 6141 178e 02       		.uleb128 0x2
 6142 178f 01       		.byte	0x1
 6143 1790 02       		.byte	0x2
 6144 1791 CC080000 		.4byte	.LASF331
ARM GAS  /tmp/ccigORce.s 			page 109


 6145 1795 0A       		.uleb128 0xa
 6146 1796 04       		.byte	0x4
 6147 1797 1B       		.byte	0x1b
 6148 1798 B3       		.byte	0xb3
 6149 1799 B6170000 		.4byte	0x17b6
 6150 179d 10       		.uleb128 0x10
 6151 179e 73657400 		.ascii	"set\000"
 6152 17a2 1B       		.byte	0x1b
 6153 17a3 B4       		.byte	0xb4
 6154 17a4 E3080000 		.4byte	0x8e3
 6155 17a8 00       		.byte	0
 6156 17a9 0B       		.uleb128 0xb
 6157 17aa E50B0000 		.4byte	.LASF332
 6158 17ae 1B       		.byte	0x1b
 6159 17af B5       		.byte	0xb5
 6160 17b0 E3080000 		.4byte	0x8e3
 6161 17b4 02       		.byte	0x2
 6162 17b5 00       		.byte	0
 6163 17b6 06       		.uleb128 0x6
 6164 17b7 04       		.byte	0x4
 6165 17b8 1B       		.byte	0x1b
 6166 17b9 B1       		.byte	0xb1
 6167 17ba D1170000 		.4byte	0x17d1
 6168 17be 24       		.uleb128 0x24
 6169 17bf 5700     		.ascii	"W\000"
 6170 17c1 1B       		.byte	0x1b
 6171 17c2 B2       		.byte	0xb2
 6172 17c3 FE080000 		.4byte	0x8fe
 6173 17c7 24       		.uleb128 0x24
 6174 17c8 4800     		.ascii	"H\000"
 6175 17ca 1B       		.byte	0x1b
 6176 17cb B6       		.byte	0xb6
 6177 17cc 95170000 		.4byte	0x1795
 6178 17d0 00       		.byte	0
 6179 17d1 19       		.uleb128 0x19
 6180 17d2 B6170000 		.4byte	0x17b6
 6181 17d6 0A       		.uleb128 0xa
 6182 17d7 2C       		.byte	0x2c
 6183 17d8 1B       		.byte	0x1b
 6184 17d9 A9       		.byte	0xa9
 6185 17da 63180000 		.4byte	0x1863
 6186 17de 0B       		.uleb128 0xb
 6187 17df 83110000 		.4byte	.LASF333
 6188 17e3 1B       		.byte	0x1b
 6189 17e4 AB       		.byte	0xab
 6190 17e5 09090000 		.4byte	0x909
 6191 17e9 00       		.byte	0
 6192 17ea 0B       		.uleb128 0xb
 6193 17eb 87170000 		.4byte	.LASF334
 6194 17ef 1B       		.byte	0x1b
 6195 17f0 AC       		.byte	0xac
 6196 17f1 09090000 		.4byte	0x909
 6197 17f5 04       		.byte	0x4
 6198 17f6 0B       		.uleb128 0xb
 6199 17f7 F2110000 		.4byte	.LASF335
 6200 17fb 1B       		.byte	0x1b
 6201 17fc AD       		.byte	0xad
ARM GAS  /tmp/ccigORce.s 			page 110


 6202 17fd 09090000 		.4byte	0x909
 6203 1801 08       		.byte	0x8
 6204 1802 0B       		.uleb128 0xb
 6205 1803 C8040000 		.4byte	.LASF336
 6206 1807 1B       		.byte	0x1b
 6207 1808 AE       		.byte	0xae
 6208 1809 09090000 		.4byte	0x909
 6209 180d 0C       		.byte	0xc
 6210 180e 10       		.uleb128 0x10
 6211 180f 49445200 		.ascii	"IDR\000"
 6212 1813 1B       		.byte	0x1b
 6213 1814 AF       		.byte	0xaf
 6214 1815 09090000 		.4byte	0x909
 6215 1819 10       		.byte	0x10
 6216 181a 10       		.uleb128 0x10
 6217 181b 4F445200 		.ascii	"ODR\000"
 6218 181f 1B       		.byte	0x1b
 6219 1820 B0       		.byte	0xb0
 6220 1821 09090000 		.4byte	0x909
 6221 1825 14       		.byte	0x14
 6222 1826 0B       		.uleb128 0xb
 6223 1827 E2190000 		.4byte	.LASF337
 6224 182b 1B       		.byte	0x1b
 6225 182c B7       		.byte	0xb7
 6226 182d D1170000 		.4byte	0x17d1
 6227 1831 18       		.byte	0x18
 6228 1832 0B       		.uleb128 0xb
 6229 1833 510E0000 		.4byte	.LASF338
 6230 1837 1B       		.byte	0x1b
 6231 1838 B8       		.byte	0xb8
 6232 1839 09090000 		.4byte	0x909
 6233 183d 1C       		.byte	0x1c
 6234 183e 0B       		.uleb128 0xb
 6235 183f 70160000 		.4byte	.LASF339
 6236 1843 1B       		.byte	0x1b
 6237 1844 B9       		.byte	0xb9
 6238 1845 09090000 		.4byte	0x909
 6239 1849 20       		.byte	0x20
 6240 184a 0B       		.uleb128 0xb
 6241 184b 65160000 		.4byte	.LASF340
 6242 184f 1B       		.byte	0x1b
 6243 1850 BA       		.byte	0xba
 6244 1851 09090000 		.4byte	0x909
 6245 1855 24       		.byte	0x24
 6246 1856 10       		.uleb128 0x10
 6247 1857 42525200 		.ascii	"BRR\000"
 6248 185b 1B       		.byte	0x1b
 6249 185c BB       		.byte	0xbb
 6250 185d 09090000 		.4byte	0x909
 6251 1861 28       		.byte	0x28
 6252 1862 00       		.byte	0
 6253 1863 04       		.uleb128 0x4
 6254 1864 03080000 		.4byte	.LASF341
 6255 1868 1B       		.byte	0x1b
 6256 1869 BC       		.byte	0xbc
 6257 186a D6170000 		.4byte	0x17d6
 6258 186e 0A       		.uleb128 0xa
ARM GAS  /tmp/ccigORce.s 			page 111


 6259 186f 1C       		.byte	0x1c
 6260 1870 1B       		.byte	0x1b
 6261 1871 C1       		.byte	0xc1
 6262 1872 CB180000 		.4byte	0x18cb
 6263 1876 0B       		.uleb128 0xb
 6264 1877 59090000 		.4byte	.LASF342
 6265 187b 1B       		.byte	0x1b
 6266 187c C3       		.byte	0xc3
 6267 187d FE080000 		.4byte	0x8fe
 6268 1881 00       		.byte	0
 6269 1882 0B       		.uleb128 0xb
 6270 1883 560D0000 		.4byte	.LASF343
 6271 1887 1B       		.byte	0x1b
 6272 1888 C5       		.byte	0xc5
 6273 1889 FE080000 		.4byte	0x8fe
 6274 188d 04       		.byte	0x4
 6275 188e 0B       		.uleb128 0xb
 6276 188f F00B0000 		.4byte	.LASF344
 6277 1893 1B       		.byte	0x1b
 6278 1894 C7       		.byte	0xc7
 6279 1895 FE080000 		.4byte	0x8fe
 6280 1899 08       		.byte	0x8
 6281 189a 0B       		.uleb128 0xb
 6282 189b 010F0000 		.4byte	.LASF345
 6283 189f 1B       		.byte	0x1b
 6284 18a0 C9       		.byte	0xc9
 6285 18a1 FE080000 		.4byte	0x8fe
 6286 18a5 0C       		.byte	0xc
 6287 18a6 10       		.uleb128 0x10
 6288 18a7 6F647200 		.ascii	"odr\000"
 6289 18ab 1B       		.byte	0x1b
 6290 18ac CB       		.byte	0xcb
 6291 18ad FE080000 		.4byte	0x8fe
 6292 18b1 10       		.byte	0x10
 6293 18b2 0B       		.uleb128 0xb
 6294 18b3 DF130000 		.4byte	.LASF346
 6295 18b7 1B       		.byte	0x1b
 6296 18b8 CD       		.byte	0xcd
 6297 18b9 FE080000 		.4byte	0x8fe
 6298 18bd 14       		.byte	0x14
 6299 18be 0B       		.uleb128 0xb
 6300 18bf DF0C0000 		.4byte	.LASF347
 6301 18c3 1B       		.byte	0x1b
 6302 18c4 CF       		.byte	0xcf
 6303 18c5 FE080000 		.4byte	0x8fe
 6304 18c9 18       		.byte	0x18
 6305 18ca 00       		.byte	0
 6306 18cb 04       		.uleb128 0x4
 6307 18cc 43040000 		.4byte	.LASF348
 6308 18d0 1B       		.byte	0x1b
 6309 18d1 D0       		.byte	0xd0
 6310 18d2 6E180000 		.4byte	0x186e
 6311 18d6 0A       		.uleb128 0xa
 6312 18d7 FC       		.byte	0xfc
 6313 18d8 1B       		.byte	0x1b
 6314 18d9 D9       		.byte	0xd9
 6315 18da 4B190000 		.4byte	0x194b
ARM GAS  /tmp/ccigORce.s 			page 112


 6316 18de 0B       		.uleb128 0xb
 6317 18df 64150000 		.4byte	.LASF349
 6318 18e3 1B       		.byte	0x1b
 6319 18e4 DC       		.byte	0xdc
 6320 18e5 CB180000 		.4byte	0x18cb
 6321 18e9 00       		.byte	0
 6322 18ea 0B       		.uleb128 0xb
 6323 18eb 37110000 		.4byte	.LASF350
 6324 18ef 1B       		.byte	0x1b
 6325 18f0 E0       		.byte	0xe0
 6326 18f1 CB180000 		.4byte	0x18cb
 6327 18f5 1C       		.byte	0x1c
 6328 18f6 0B       		.uleb128 0xb
 6329 18f7 280C0000 		.4byte	.LASF351
 6330 18fb 1B       		.byte	0x1b
 6331 18fc E4       		.byte	0xe4
 6332 18fd CB180000 		.4byte	0x18cb
 6333 1901 38       		.byte	0x38
 6334 1902 0B       		.uleb128 0xb
 6335 1903 1E080000 		.4byte	.LASF352
 6336 1907 1B       		.byte	0x1b
 6337 1908 E8       		.byte	0xe8
 6338 1909 CB180000 		.4byte	0x18cb
 6339 190d 54       		.byte	0x54
 6340 190e 0B       		.uleb128 0xb
 6341 190f 80030000 		.4byte	.LASF353
 6342 1913 1B       		.byte	0x1b
 6343 1914 EC       		.byte	0xec
 6344 1915 CB180000 		.4byte	0x18cb
 6345 1919 70       		.byte	0x70
 6346 191a 0B       		.uleb128 0xb
 6347 191b 7A1B0000 		.4byte	.LASF354
 6348 191f 1B       		.byte	0x1b
 6349 1920 F0       		.byte	0xf0
 6350 1921 CB180000 		.4byte	0x18cb
 6351 1925 8C       		.byte	0x8c
 6352 1926 0B       		.uleb128 0xb
 6353 1927 9B1D0000 		.4byte	.LASF355
 6354 192b 1B       		.byte	0x1b
 6355 192c F4       		.byte	0xf4
 6356 192d CB180000 		.4byte	0x18cb
 6357 1931 A8       		.byte	0xa8
 6358 1932 0B       		.uleb128 0xb
 6359 1933 94130000 		.4byte	.LASF356
 6360 1937 1B       		.byte	0x1b
 6361 1938 F8       		.byte	0xf8
 6362 1939 CB180000 		.4byte	0x18cb
 6363 193d C4       		.byte	0xc4
 6364 193e 0B       		.uleb128 0xb
 6365 193f 6B0E0000 		.4byte	.LASF357
 6366 1943 1B       		.byte	0x1b
 6367 1944 FC       		.byte	0xfc
 6368 1945 CB180000 		.4byte	0x18cb
 6369 1949 E0       		.byte	0xe0
 6370 194a 00       		.byte	0
 6371 194b 04       		.uleb128 0x4
 6372 194c E7190000 		.4byte	.LASF358
ARM GAS  /tmp/ccigORce.s 			page 113


 6373 1950 1B       		.byte	0x1b
 6374 1951 FE       		.byte	0xfe
 6375 1952 D6180000 		.4byte	0x18d6
 6376 1956 0E       		.uleb128 0xe
 6377 1957 4B190000 		.4byte	0x194b
 6378 195b 05       		.uleb128 0x5
 6379 195c 02060000 		.4byte	.LASF359
 6380 1960 1B       		.byte	0x1b
 6381 1961 1B01     		.2byte	0x11b
 6382 1963 67190000 		.4byte	0x1967
 6383 1967 0D       		.uleb128 0xd
 6384 1968 04       		.byte	0x4
 6385 1969 63180000 		.4byte	0x1863
 6386 196d 20       		.uleb128 0x20
 6387 196e E0060000 		.4byte	.LASF360
 6388 1972 1B       		.byte	0x1b
 6389 1973 DA01     		.2byte	0x1da
 6390 1975 56190000 		.4byte	0x1956
 6391 1979 25       		.uleb128 0x25
 6392 197a 01       		.byte	0x1
 6393 197b 5A000000 		.4byte	0x5a
 6394 197f 1C       		.byte	0x1c
 6395 1980 46       		.byte	0x46
 6396 1981 AA190000 		.4byte	0x19aa
 6397 1985 26       		.uleb128 0x26
 6398 1986 F71B0000 		.4byte	.LASF361
 6399 198a 00       		.byte	0
 6400 198b 26       		.uleb128 0x26
 6401 198c D7170000 		.4byte	.LASF362
 6402 1990 01       		.byte	0x1
 6403 1991 26       		.uleb128 0x26
 6404 1992 AC080000 		.4byte	.LASF363
 6405 1996 02       		.byte	0x2
 6406 1997 26       		.uleb128 0x26
 6407 1998 A1140000 		.4byte	.LASF364
 6408 199c 03       		.byte	0x3
 6409 199d 26       		.uleb128 0x26
 6410 199e A90E0000 		.4byte	.LASF365
 6411 19a2 04       		.byte	0x4
 6412 19a3 26       		.uleb128 0x26
 6413 19a4 E4090000 		.4byte	.LASF366
 6414 19a8 05       		.byte	0x5
 6415 19a9 00       		.byte	0
 6416 19aa 04       		.uleb128 0x4
 6417 19ab D6010000 		.4byte	.LASF367
 6418 19af 1C       		.byte	0x1c
 6419 19b0 4D       		.byte	0x4d
 6420 19b1 79190000 		.4byte	0x1979
 6421 19b5 05       		.uleb128 0x5
 6422 19b6 03090000 		.4byte	.LASF368
 6423 19ba 1D       		.byte	0x1d
 6424 19bb 2701     		.2byte	0x127
 6425 19bd E3080000 		.4byte	0x8e3
 6426 19c1 05       		.uleb128 0x5
 6427 19c2 150C0000 		.4byte	.LASF369
 6428 19c6 1D       		.byte	0x1d
 6429 19c7 2C01     		.2byte	0x12c
ARM GAS  /tmp/ccigORce.s 			page 114


 6430 19c9 E3080000 		.4byte	0x8e3
 6431 19cd 27       		.uleb128 0x27
 6432 19ce 01       		.byte	0x1
 6433 19cf 5A000000 		.4byte	0x5a
 6434 19d3 1D       		.byte	0x1d
 6435 19d4 3301     		.2byte	0x133
 6436 19d6 E7190000 		.4byte	0x19e7
 6437 19da 26       		.uleb128 0x26
 6438 19db 38020000 		.4byte	.LASF370
 6439 19df 00       		.byte	0
 6440 19e0 26       		.uleb128 0x26
 6441 19e1 A0160000 		.4byte	.LASF371
 6442 19e5 01       		.byte	0x1
 6443 19e6 00       		.byte	0
 6444 19e7 05       		.uleb128 0x5
 6445 19e8 48080000 		.4byte	.LASF372
 6446 19ec 1D       		.byte	0x1d
 6447 19ed 3601     		.2byte	0x136
 6448 19ef CD190000 		.4byte	0x19cd
 6449 19f3 05       		.uleb128 0x5
 6450 19f4 5B160000 		.4byte	.LASF373
 6451 19f8 1D       		.byte	0x1d
 6452 19f9 3B01     		.2byte	0x13b
 6453 19fb FF190000 		.4byte	0x19ff
 6454 19ff 1A       		.uleb128 0x1a
 6455 1a00 5B160000 		.4byte	.LASF373
 6456 1a04 34       		.byte	0x34
 6457 1a05 1D       		.byte	0x1d
 6458 1a06 9F01     		.2byte	0x19f
 6459 1a08 8F1A0000 		.4byte	0x1a8f
 6460 1a0c 17       		.uleb128 0x17
 6461 1a0d 72030000 		.4byte	.LASF374
 6462 1a11 1D       		.byte	0x1d
 6463 1a12 A301     		.2byte	0x1a3
 6464 1a14 AA190000 		.4byte	0x19aa
 6465 1a18 00       		.byte	0
 6466 1a19 17       		.uleb128 0x17
 6467 1a1a 6B030000 		.4byte	.LASF375
 6468 1a1e 1D       		.byte	0x1d
 6469 1a1f A701     		.2byte	0x1a7
 6470 1a21 B61B0000 		.4byte	0x1bb6
 6471 1a25 04       		.byte	0x4
 6472 1a26 17       		.uleb128 0x17
 6473 1a27 230B0000 		.4byte	.LASF376
 6474 1a2b 1D       		.byte	0x1d
 6475 1a2c AB01     		.2byte	0x1ab
 6476 1a2e BC1A0000 		.4byte	0x1abc
 6477 1a32 08       		.byte	0x8
 6478 1a33 17       		.uleb128 0x17
 6479 1a34 570A0000 		.4byte	.LASF377
 6480 1a38 1D       		.byte	0x1d
 6481 1a39 AF01     		.2byte	0x1af
 6482 1a3b 2F000000 		.4byte	0x2f
 6483 1a3f 0C       		.byte	0xc
 6484 1a40 17       		.uleb128 0x17
 6485 1a41 25180000 		.4byte	.LASF378
 6486 1a45 1D       		.byte	0x1d
ARM GAS  /tmp/ccigORce.s 			page 115


 6487 1a46 B301     		.2byte	0x1b3
 6488 1a48 BC1B0000 		.4byte	0x1bbc
 6489 1a4c 10       		.byte	0x10
 6490 1a4d 17       		.uleb128 0x17
 6491 1a4e 4C180000 		.4byte	.LASF379
 6492 1a52 1D       		.byte	0x1d
 6493 1a53 B801     		.2byte	0x1b8
 6494 1a55 7F0A0000 		.4byte	0xa7f
 6495 1a59 14       		.byte	0x14
 6496 1a5a 17       		.uleb128 0x17
 6497 1a5b 07110000 		.4byte	.LASF380
 6498 1a5f 1D       		.byte	0x1d
 6499 1a60 BE01     		.2byte	0x1be
 6500 1a62 D3140000 		.4byte	0x14d3
 6501 1a66 18       		.byte	0x18
 6502 1a67 21       		.uleb128 0x21
 6503 1a68 61646300 		.ascii	"adc\000"
 6504 1a6c 1D       		.byte	0x1d
 6505 1a6d C701     		.2byte	0x1c7
 6506 1a6f C21B0000 		.4byte	0x1bc2
 6507 1a73 28       		.byte	0x28
 6508 1a74 17       		.uleb128 0x17
 6509 1a75 2C0D0000 		.4byte	.LASF381
 6510 1a79 1D       		.byte	0x1d
 6511 1a7a CB01     		.2byte	0x1cb
 6512 1a7c C81B0000 		.4byte	0x1bc8
 6513 1a80 2C       		.byte	0x2c
 6514 1a81 17       		.uleb128 0x17
 6515 1a82 E0170000 		.4byte	.LASF382
 6516 1a86 1D       		.byte	0x1d
 6517 1a87 CF01     		.2byte	0x1cf
 6518 1a89 FE080000 		.4byte	0x8fe
 6519 1a8d 30       		.byte	0x30
 6520 1a8e 00       		.byte	0
 6521 1a8f 05       		.uleb128 0x5
 6522 1a90 AE000000 		.4byte	.LASF383
 6523 1a94 1D       		.byte	0x1d
 6524 1a95 4501     		.2byte	0x145
 6525 1a97 9B1A0000 		.4byte	0x1a9b
 6526 1a9b 0D       		.uleb128 0xd
 6527 1a9c 04       		.byte	0x4
 6528 1a9d A11A0000 		.4byte	0x1aa1
 6529 1aa1 1F       		.uleb128 0x1f
 6530 1aa2 B61A0000 		.4byte	0x1ab6
 6531 1aa6 15       		.uleb128 0x15
 6532 1aa7 B61A0000 		.4byte	0x1ab6
 6533 1aab 15       		.uleb128 0x15
 6534 1aac BC1A0000 		.4byte	0x1abc
 6535 1ab0 15       		.uleb128 0x15
 6536 1ab1 2F000000 		.4byte	0x2f
 6537 1ab5 00       		.byte	0
 6538 1ab6 0D       		.uleb128 0xd
 6539 1ab7 04       		.byte	0x4
 6540 1ab8 F3190000 		.4byte	0x19f3
 6541 1abc 0D       		.uleb128 0xd
 6542 1abd 04       		.byte	0x4
 6543 1abe B5190000 		.4byte	0x19b5
ARM GAS  /tmp/ccigORce.s 			page 116


 6544 1ac2 05       		.uleb128 0x5
 6545 1ac3 7C100000 		.4byte	.LASF384
 6546 1ac7 1D       		.byte	0x1d
 6547 1ac8 4E01     		.2byte	0x14e
 6548 1aca CE1A0000 		.4byte	0x1ace
 6549 1ace 0D       		.uleb128 0xd
 6550 1acf 04       		.byte	0x4
 6551 1ad0 D41A0000 		.4byte	0x1ad4
 6552 1ad4 1F       		.uleb128 0x1f
 6553 1ad5 E41A0000 		.4byte	0x1ae4
 6554 1ad9 15       		.uleb128 0x15
 6555 1ada B61A0000 		.4byte	0x1ab6
 6556 1ade 15       		.uleb128 0x15
 6557 1adf E7190000 		.4byte	0x19e7
 6558 1ae3 00       		.byte	0
 6559 1ae4 1B       		.uleb128 0x1b
 6560 1ae5 28       		.byte	0x28
 6561 1ae6 1D       		.byte	0x1d
 6562 1ae7 5801     		.2byte	0x158
 6563 1ae9 7D1B0000 		.4byte	0x1b7d
 6564 1aed 17       		.uleb128 0x17
 6565 1aee 620A0000 		.4byte	.LASF385
 6566 1af2 1D       		.byte	0x1d
 6567 1af3 5C01     		.2byte	0x15c
 6568 1af5 8E170000 		.4byte	0x178e
 6569 1af9 00       		.byte	0
 6570 1afa 17       		.uleb128 0x17
 6571 1afb 130E0000 		.4byte	.LASF386
 6572 1aff 1D       		.byte	0x1d
 6573 1b00 6001     		.2byte	0x160
 6574 1b02 C1190000 		.4byte	0x19c1
 6575 1b06 02       		.byte	0x2
 6576 1b07 17       		.uleb128 0x17
 6577 1b08 6B0A0000 		.4byte	.LASF387
 6578 1b0c 1D       		.byte	0x1d
 6579 1b0d 6401     		.2byte	0x164
 6580 1b0f 8F1A0000 		.4byte	0x1a8f
 6581 1b13 04       		.byte	0x4
 6582 1b14 17       		.uleb128 0x17
 6583 1b15 05040000 		.4byte	.LASF388
 6584 1b19 1D       		.byte	0x1d
 6585 1b1a 6801     		.2byte	0x168
 6586 1b1c C21A0000 		.4byte	0x1ac2
 6587 1b20 08       		.byte	0x8
 6588 1b21 21       		.uleb128 0x21
 6589 1b22 63723100 		.ascii	"cr1\000"
 6590 1b26 1D       		.byte	0x1d
 6591 1b27 6F01     		.2byte	0x16f
 6592 1b29 FE080000 		.4byte	0x8fe
 6593 1b2d 0C       		.byte	0xc
 6594 1b2e 21       		.uleb128 0x21
 6595 1b2f 63723200 		.ascii	"cr2\000"
 6596 1b33 1D       		.byte	0x1d
 6597 1b34 7601     		.2byte	0x176
 6598 1b36 FE080000 		.4byte	0x8fe
 6599 1b3a 10       		.byte	0x10
 6600 1b3b 17       		.uleb128 0x17
ARM GAS  /tmp/ccigORce.s 			page 117


 6601 1b3c D70E0000 		.4byte	.LASF389
 6602 1b40 1D       		.byte	0x1d
 6603 1b41 7C01     		.2byte	0x17c
 6604 1b43 FE080000 		.4byte	0x8fe
 6605 1b47 14       		.byte	0x14
 6606 1b48 17       		.uleb128 0x17
 6607 1b49 DD0E0000 		.4byte	.LASF390
 6608 1b4d 1D       		.byte	0x1d
 6609 1b4e 8201     		.2byte	0x182
 6610 1b50 FE080000 		.4byte	0x8fe
 6611 1b54 18       		.byte	0x18
 6612 1b55 17       		.uleb128 0x17
 6613 1b56 40000000 		.4byte	.LASF391
 6614 1b5a 1D       		.byte	0x1d
 6615 1b5b 8701     		.2byte	0x187
 6616 1b5d FE080000 		.4byte	0x8fe
 6617 1b61 1C       		.byte	0x1c
 6618 1b62 17       		.uleb128 0x17
 6619 1b63 45000000 		.4byte	.LASF392
 6620 1b67 1D       		.byte	0x1d
 6621 1b68 8C01     		.2byte	0x18c
 6622 1b6a FE080000 		.4byte	0x8fe
 6623 1b6e 20       		.byte	0x20
 6624 1b6f 17       		.uleb128 0x17
 6625 1b70 5D0A0000 		.4byte	.LASF393
 6626 1b74 1D       		.byte	0x1d
 6627 1b75 9101     		.2byte	0x191
 6628 1b77 FE080000 		.4byte	0x8fe
 6629 1b7b 24       		.byte	0x24
 6630 1b7c 00       		.byte	0
 6631 1b7d 05       		.uleb128 0x5
 6632 1b7e 960E0000 		.4byte	.LASF394
 6633 1b82 1D       		.byte	0x1d
 6634 1b83 9201     		.2byte	0x192
 6635 1b85 E41A0000 		.4byte	0x1ae4
 6636 1b89 0E       		.uleb128 0xe
 6637 1b8a 7D1B0000 		.4byte	0x1b7d
 6638 1b8e 1B       		.uleb128 0x1b
 6639 1b8f 04       		.byte	0x4
 6640 1b90 1D       		.byte	0x1d
 6641 1b91 9801     		.2byte	0x198
 6642 1b93 A51B0000 		.4byte	0x1ba5
 6643 1b97 17       		.uleb128 0x17
 6644 1b98 D1170000 		.4byte	.LASF395
 6645 1b9c 1D       		.byte	0x1d
 6646 1b9d 9901     		.2byte	0x199
 6647 1b9f FE080000 		.4byte	0x8fe
 6648 1ba3 00       		.byte	0
 6649 1ba4 00       		.byte	0
 6650 1ba5 05       		.uleb128 0x5
 6651 1ba6 A21D0000 		.4byte	.LASF396
 6652 1baa 1D       		.byte	0x1d
 6653 1bab 9A01     		.2byte	0x19a
 6654 1bad 8E1B0000 		.4byte	0x1b8e
 6655 1bb1 0E       		.uleb128 0xe
 6656 1bb2 A51B0000 		.4byte	0x1ba5
 6657 1bb6 0D       		.uleb128 0xd
ARM GAS  /tmp/ccigORce.s 			page 118


 6658 1bb7 04       		.byte	0x4
 6659 1bb8 B11B0000 		.4byte	0x1bb1
 6660 1bbc 0D       		.uleb128 0xd
 6661 1bbd 04       		.byte	0x4
 6662 1bbe 891B0000 		.4byte	0x1b89
 6663 1bc2 0D       		.uleb128 0xd
 6664 1bc3 04       		.byte	0x4
 6665 1bc4 B90D0000 		.4byte	0xdb9
 6666 1bc8 0D       		.uleb128 0xd
 6667 1bc9 04       		.byte	0x4
 6668 1bca E7160000 		.4byte	0x16e7
 6669 1bce 20       		.uleb128 0x20
 6670 1bcf 59130000 		.4byte	.LASF397
 6671 1bd3 1D       		.byte	0x1d
 6672 1bd4 1402     		.2byte	0x214
 6673 1bd6 F3190000 		.4byte	0x19f3
 6674 1bda 25       		.uleb128 0x25
 6675 1bdb 01       		.byte	0x1
 6676 1bdc 5A000000 		.4byte	0x5a
 6677 1be0 1E       		.byte	0x1e
 6678 1be1 31       		.byte	0x31
 6679 1be2 051C0000 		.4byte	0x1c05
 6680 1be6 26       		.uleb128 0x26
 6681 1be7 7B090000 		.4byte	.LASF398
 6682 1beb 00       		.byte	0
 6683 1bec 26       		.uleb128 0x26
 6684 1bed CC1B0000 		.4byte	.LASF399
 6685 1bf1 01       		.byte	0x1
 6686 1bf2 26       		.uleb128 0x26
 6687 1bf3 21160000 		.4byte	.LASF400
 6688 1bf7 02       		.byte	0x2
 6689 1bf8 26       		.uleb128 0x26
 6690 1bf9 2B160000 		.4byte	.LASF401
 6691 1bfd 03       		.byte	0x3
 6692 1bfe 26       		.uleb128 0x26
 6693 1bff 61110000 		.4byte	.LASF402
 6694 1c03 04       		.byte	0x4
 6695 1c04 00       		.byte	0
 6696 1c05 04       		.uleb128 0x4
 6697 1c06 60030000 		.4byte	.LASF403
 6698 1c0a 1E       		.byte	0x1e
 6699 1c0b 37       		.byte	0x37
 6700 1c0c DA1B0000 		.4byte	0x1bda
 6701 1c10 04       		.uleb128 0x4
 6702 1c11 F90F0000 		.4byte	.LASF404
 6703 1c15 1E       		.byte	0x1e
 6704 1c16 3C       		.byte	0x3c
 6705 1c17 1B1C0000 		.4byte	0x1c1b
 6706 1c1b 1A       		.uleb128 0x1a
 6707 1c1c F90F0000 		.4byte	.LASF404
 6708 1c20 10       		.byte	0x10
 6709 1c21 1F       		.byte	0x1f
 6710 1c22 9701     		.2byte	0x197
 6711 1c24 5D1C0000 		.4byte	0x1c5d
 6712 1c28 17       		.uleb128 0x17
 6713 1c29 72030000 		.4byte	.LASF374
 6714 1c2d 1F       		.byte	0x1f
ARM GAS  /tmp/ccigORce.s 			page 119


 6715 1c2e 9B01     		.2byte	0x19b
 6716 1c30 051C0000 		.4byte	0x1c05
 6717 1c34 00       		.byte	0
 6718 1c35 17       		.uleb128 0x17
 6719 1c36 6B030000 		.4byte	.LASF375
 6720 1c3a 1F       		.byte	0x1f
 6721 1c3b 9F01     		.2byte	0x19f
 6722 1c3d DA1C0000 		.4byte	0x1cda
 6723 1c41 04       		.byte	0x4
 6724 1c42 17       		.uleb128 0x17
 6725 1c43 720E0000 		.4byte	.LASF405
 6726 1c47 1F       		.byte	0x1f
 6727 1c48 A701     		.2byte	0x1a7
 6728 1c4a FE080000 		.4byte	0x8fe
 6729 1c4e 08       		.byte	0x8
 6730 1c4f 21       		.uleb128 0x21
 6731 1c50 74696D00 		.ascii	"tim\000"
 6732 1c54 1F       		.byte	0x1f
 6733 1c55 AB01     		.2byte	0x1ab
 6734 1c57 E01C0000 		.4byte	0x1ce0
 6735 1c5b 0C       		.byte	0xc
 6736 1c5c 00       		.byte	0
 6737 1c5d 04       		.uleb128 0x4
 6738 1c5e 601D0000 		.4byte	.LASF406
 6739 1c62 1E       		.byte	0x1e
 6740 1c63 43       		.byte	0x43
 6741 1c64 681C0000 		.4byte	0x1c68
 6742 1c68 0D       		.uleb128 0xd
 6743 1c69 04       		.byte	0x4
 6744 1c6a 6E1C0000 		.4byte	0x1c6e
 6745 1c6e 1F       		.uleb128 0x1f
 6746 1c6f 791C0000 		.4byte	0x1c79
 6747 1c73 15       		.uleb128 0x15
 6748 1c74 791C0000 		.4byte	0x1c79
 6749 1c78 00       		.byte	0
 6750 1c79 0D       		.uleb128 0xd
 6751 1c7a 04       		.byte	0x4
 6752 1c7b 101C0000 		.4byte	0x1c10
 6753 1c7f 05       		.uleb128 0x5
 6754 1c80 7A0D0000 		.4byte	.LASF407
 6755 1c84 1F       		.byte	0x1f
 6756 1c85 6D01     		.2byte	0x16d
 6757 1c87 FE080000 		.4byte	0x8fe
 6758 1c8b 1B       		.uleb128 0x1b
 6759 1c8c 10       		.byte	0x10
 6760 1c8d 1F       		.byte	0x1f
 6761 1c8e 7801     		.2byte	0x178
 6762 1c90 C91C0000 		.4byte	0x1cc9
 6763 1c94 17       		.uleb128 0x17
 6764 1c95 2D110000 		.4byte	.LASF408
 6765 1c99 1F       		.byte	0x1f
 6766 1c9a 7E01     		.2byte	0x17e
 6767 1c9c 7F1C0000 		.4byte	0x1c7f
 6768 1ca0 00       		.byte	0
 6769 1ca1 17       		.uleb128 0x17
 6770 1ca2 1E040000 		.4byte	.LASF409
 6771 1ca6 1F       		.byte	0x1f
ARM GAS  /tmp/ccigORce.s 			page 120


 6772 1ca7 8501     		.2byte	0x185
 6773 1ca9 5D1C0000 		.4byte	0x1c5d
 6774 1cad 04       		.byte	0x4
 6775 1cae 21       		.uleb128 0x21
 6776 1caf 63723200 		.ascii	"cr2\000"
 6777 1cb3 1F       		.byte	0x1f
 6778 1cb4 8B01     		.2byte	0x18b
 6779 1cb6 FE080000 		.4byte	0x8fe
 6780 1cba 08       		.byte	0x8
 6781 1cbb 17       		.uleb128 0x17
 6782 1cbc 0E040000 		.4byte	.LASF410
 6783 1cc0 1F       		.byte	0x1f
 6784 1cc1 9101     		.2byte	0x191
 6785 1cc3 FE080000 		.4byte	0x8fe
 6786 1cc7 0C       		.byte	0xc
 6787 1cc8 00       		.byte	0
 6788 1cc9 05       		.uleb128 0x5
 6789 1cca 780E0000 		.4byte	.LASF411
 6790 1cce 1F       		.byte	0x1f
 6791 1ccf 9201     		.2byte	0x192
 6792 1cd1 8B1C0000 		.4byte	0x1c8b
 6793 1cd5 0E       		.uleb128 0xe
 6794 1cd6 C91C0000 		.4byte	0x1cc9
 6795 1cda 0D       		.uleb128 0xd
 6796 1cdb 04       		.byte	0x4
 6797 1cdc D51C0000 		.4byte	0x1cd5
 6798 1ce0 0D       		.uleb128 0xd
 6799 1ce1 04       		.byte	0x4
 6800 1ce2 B5120000 		.4byte	0x12b5
 6801 1ce6 20       		.uleb128 0x20
 6802 1ce7 FC050000 		.4byte	.LASF412
 6803 1ceb 1F       		.byte	0x1f
 6804 1cec E601     		.2byte	0x1e6
 6805 1cee 101C0000 		.4byte	0x1c10
 6806 1cf2 25       		.uleb128 0x25
 6807 1cf3 01       		.byte	0x1
 6808 1cf4 5A000000 		.4byte	0x5a
 6809 1cf8 20       		.byte	0x20
 6810 1cf9 4A       		.byte	0x4a
 6811 1cfa 111D0000 		.4byte	0x1d11
 6812 1cfe 26       		.uleb128 0x26
 6813 1cff 13040000 		.4byte	.LASF413
 6814 1d03 00       		.byte	0
 6815 1d04 26       		.uleb128 0x26
 6816 1d05 5B150000 		.4byte	.LASF414
 6817 1d09 01       		.byte	0x1
 6818 1d0a 26       		.uleb128 0x26
 6819 1d0b 7B180000 		.4byte	.LASF415
 6820 1d0f 02       		.byte	0x2
 6821 1d10 00       		.byte	0
 6822 1d11 04       		.uleb128 0x4
 6823 1d12 041B0000 		.4byte	.LASF416
 6824 1d16 20       		.byte	0x20
 6825 1d17 4E       		.byte	0x4e
 6826 1d18 F21C0000 		.4byte	0x1cf2
 6827 1d1c 04       		.uleb128 0x4
 6828 1d1d 36130000 		.4byte	.LASF417
ARM GAS  /tmp/ccigORce.s 			page 121


 6829 1d21 20       		.byte	0x20
 6830 1d22 53       		.byte	0x53
 6831 1d23 271D0000 		.4byte	0x1d27
 6832 1d27 1A       		.uleb128 0x1a
 6833 1d28 36130000 		.4byte	.LASF417
 6834 1d2c 1C       		.byte	0x1c
 6835 1d2d 21       		.byte	0x21
 6836 1d2e 7901     		.2byte	0x179
 6837 1d30 901D0000 		.4byte	0x1d90
 6838 1d34 17       		.uleb128 0x17
 6839 1d35 72030000 		.4byte	.LASF374
 6840 1d39 21       		.byte	0x21
 6841 1d3a 7D01     		.2byte	0x17d
 6842 1d3c 111D0000 		.4byte	0x1d11
 6843 1d40 00       		.byte	0
 6844 1d41 17       		.uleb128 0x17
 6845 1d42 6B030000 		.4byte	.LASF375
 6846 1d46 21       		.byte	0x21
 6847 1d47 8101     		.2byte	0x181
 6848 1d49 8B1E0000 		.4byte	0x1e8b
 6849 1d4d 04       		.byte	0x4
 6850 1d4e 17       		.uleb128 0x17
 6851 1d4f D6160000 		.4byte	.LASF418
 6852 1d53 21       		.byte	0x21
 6853 1d54 8501     		.2byte	0x185
 6854 1d56 D61D0000 		.4byte	0x1dd6
 6855 1d5a 08       		.byte	0x8
 6856 1d5b 17       		.uleb128 0x17
 6857 1d5c D70C0000 		.4byte	.LASF419
 6858 1d60 21       		.byte	0x21
 6859 1d61 8901     		.2byte	0x189
 6860 1d63 CA1D0000 		.4byte	0x1dca
 6861 1d67 0C       		.byte	0xc
 6862 1d68 17       		.uleb128 0x17
 6863 1d69 31120000 		.4byte	.LASF420
 6864 1d6d 21       		.byte	0x21
 6865 1d6e 8D01     		.2byte	0x18d
 6866 1d70 BE1D0000 		.4byte	0x1dbe
 6867 1d74 10       		.byte	0x10
 6868 1d75 17       		.uleb128 0x17
 6869 1d76 720E0000 		.4byte	.LASF405
 6870 1d7a 21       		.byte	0x21
 6871 1d7b 9501     		.2byte	0x195
 6872 1d7d FE080000 		.4byte	0x8fe
 6873 1d81 14       		.byte	0x14
 6874 1d82 21       		.uleb128 0x21
 6875 1d83 74696D00 		.ascii	"tim\000"
 6876 1d87 21       		.byte	0x21
 6877 1d88 9901     		.2byte	0x199
 6878 1d8a E01C0000 		.4byte	0x1ce0
 6879 1d8e 18       		.byte	0x18
 6880 1d8f 00       		.byte	0
 6881 1d90 04       		.uleb128 0x4
 6882 1d91 EA120000 		.4byte	.LASF421
 6883 1d95 20       		.byte	0x20
 6884 1d96 5A       		.byte	0x5a
 6885 1d97 9B1D0000 		.4byte	0x1d9b
ARM GAS  /tmp/ccigORce.s 			page 122


 6886 1d9b 0D       		.uleb128 0xd
 6887 1d9c 04       		.byte	0x4
 6888 1d9d A11D0000 		.4byte	0x1da1
 6889 1da1 1F       		.uleb128 0x1f
 6890 1da2 AC1D0000 		.4byte	0x1dac
 6891 1da6 15       		.uleb128 0x15
 6892 1da7 AC1D0000 		.4byte	0x1dac
 6893 1dab 00       		.byte	0
 6894 1dac 0D       		.uleb128 0xd
 6895 1dad 04       		.byte	0x4
 6896 1dae 1C1D0000 		.4byte	0x1d1c
 6897 1db2 05       		.uleb128 0x5
 6898 1db3 360B0000 		.4byte	.LASF422
 6899 1db7 21       		.byte	0x21
 6900 1db8 2501     		.2byte	0x125
 6901 1dba FE080000 		.4byte	0x8fe
 6902 1dbe 05       		.uleb128 0x5
 6903 1dbf 99060000 		.4byte	.LASF423
 6904 1dc3 21       		.byte	0x21
 6905 1dc4 2A01     		.2byte	0x12a
 6906 1dc6 D3080000 		.4byte	0x8d3
 6907 1dca 05       		.uleb128 0x5
 6908 1dcb 3C030000 		.4byte	.LASF424
 6909 1dcf 21       		.byte	0x21
 6910 1dd0 2F01     		.2byte	0x12f
 6911 1dd2 FE080000 		.4byte	0x8fe
 6912 1dd6 05       		.uleb128 0x5
 6913 1dd7 92070000 		.4byte	.LASF425
 6914 1ddb 21       		.byte	0x21
 6915 1ddc 3401     		.2byte	0x134
 6916 1dde FE080000 		.4byte	0x8fe
 6917 1de2 1B       		.uleb128 0x1b
 6918 1de3 08       		.byte	0x8
 6919 1de4 21       		.byte	0x21
 6920 1de5 3901     		.2byte	0x139
 6921 1de7 061E0000 		.4byte	0x1e06
 6922 1deb 17       		.uleb128 0x17
 6923 1dec D4180000 		.4byte	.LASF426
 6924 1df0 21       		.byte	0x21
 6925 1df1 3D01     		.2byte	0x13d
 6926 1df3 B21D0000 		.4byte	0x1db2
 6927 1df7 00       		.byte	0
 6928 1df8 17       		.uleb128 0x17
 6929 1df9 1E040000 		.4byte	.LASF409
 6930 1dfd 21       		.byte	0x21
 6931 1dfe 4301     		.2byte	0x143
 6932 1e00 901D0000 		.4byte	0x1d90
 6933 1e04 04       		.byte	0x4
 6934 1e05 00       		.byte	0
 6935 1e06 05       		.uleb128 0x5
 6936 1e07 98030000 		.4byte	.LASF427
 6937 1e0b 21       		.byte	0x21
 6938 1e0c 4501     		.2byte	0x145
 6939 1e0e E21D0000 		.4byte	0x1de2
 6940 1e12 1B       		.uleb128 0x1b
 6941 1e13 34       		.byte	0x34
 6942 1e14 21       		.byte	0x21
ARM GAS  /tmp/ccigORce.s 			page 123


 6943 1e15 4A01     		.2byte	0x14a
 6944 1e17 6A1E0000 		.4byte	0x1e6a
 6945 1e1b 17       		.uleb128 0x17
 6946 1e1c 2D110000 		.4byte	.LASF408
 6947 1e20 21       		.byte	0x21
 6948 1e21 5001     		.2byte	0x150
 6949 1e23 FE080000 		.4byte	0x8fe
 6950 1e27 00       		.byte	0
 6951 1e28 17       		.uleb128 0x17
 6952 1e29 D6160000 		.4byte	.LASF418
 6953 1e2d 21       		.byte	0x21
 6954 1e2e 5601     		.2byte	0x156
 6955 1e30 D61D0000 		.4byte	0x1dd6
 6956 1e34 04       		.byte	0x4
 6957 1e35 17       		.uleb128 0x17
 6958 1e36 1E040000 		.4byte	.LASF409
 6959 1e3a 21       		.byte	0x21
 6960 1e3b 5C01     		.2byte	0x15c
 6961 1e3d 901D0000 		.4byte	0x1d90
 6962 1e41 08       		.byte	0x8
 6963 1e42 17       		.uleb128 0x17
 6964 1e43 31120000 		.4byte	.LASF420
 6965 1e47 21       		.byte	0x21
 6966 1e48 6001     		.2byte	0x160
 6967 1e4a 6A1E0000 		.4byte	0x1e6a
 6968 1e4e 0C       		.byte	0xc
 6969 1e4f 21       		.uleb128 0x21
 6970 1e50 63723200 		.ascii	"cr2\000"
 6971 1e54 21       		.byte	0x21
 6972 1e55 6601     		.2byte	0x166
 6973 1e57 FE080000 		.4byte	0x8fe
 6974 1e5b 2C       		.byte	0x2c
 6975 1e5c 17       		.uleb128 0x17
 6976 1e5d 0E040000 		.4byte	.LASF410
 6977 1e61 21       		.byte	0x21
 6978 1e62 7301     		.2byte	0x173
 6979 1e64 FE080000 		.4byte	0x8fe
 6980 1e68 30       		.byte	0x30
 6981 1e69 00       		.byte	0
 6982 1e6a 08       		.uleb128 0x8
 6983 1e6b 061E0000 		.4byte	0x1e06
 6984 1e6f 7A1E0000 		.4byte	0x1e7a
 6985 1e73 09       		.uleb128 0x9
 6986 1e74 0C010000 		.4byte	0x10c
 6987 1e78 03       		.byte	0x3
 6988 1e79 00       		.byte	0
 6989 1e7a 05       		.uleb128 0x5
 6990 1e7b 6E1A0000 		.4byte	.LASF428
 6991 1e7f 21       		.byte	0x21
 6992 1e80 7401     		.2byte	0x174
 6993 1e82 121E0000 		.4byte	0x1e12
 6994 1e86 0E       		.uleb128 0xe
 6995 1e87 7A1E0000 		.4byte	0x1e7a
 6996 1e8b 0D       		.uleb128 0xd
 6997 1e8c 04       		.byte	0x4
 6998 1e8d 861E0000 		.4byte	0x1e86
 6999 1e91 20       		.uleb128 0x20
ARM GAS  /tmp/ccigORce.s 			page 124


 7000 1e92 DC1A0000 		.4byte	.LASF429
 7001 1e96 21       		.byte	0x21
 7002 1e97 C401     		.2byte	0x1c4
 7003 1e99 1C1D0000 		.4byte	0x1d1c
 7004 1e9d 25       		.uleb128 0x25
 7005 1e9e 01       		.byte	0x1
 7006 1e9f 5A000000 		.4byte	0x5a
 7007 1ea3 22       		.byte	0x22
 7008 1ea4 55       		.byte	0x55
 7009 1ea5 BC1E0000 		.4byte	0x1ebc
 7010 1ea9 26       		.uleb128 0x26
 7011 1eaa A2080000 		.4byte	.LASF430
 7012 1eae 00       		.byte	0
 7013 1eaf 26       		.uleb128 0x26
 7014 1eb0 8C1C0000 		.4byte	.LASF431
 7015 1eb4 01       		.byte	0x1
 7016 1eb5 26       		.uleb128 0x26
 7017 1eb6 14180000 		.4byte	.LASF432
 7018 1eba 02       		.byte	0x2
 7019 1ebb 00       		.byte	0
 7020 1ebc 04       		.uleb128 0x4
 7021 1ebd 97110000 		.4byte	.LASF433
 7022 1ec1 22       		.byte	0x22
 7023 1ec2 59       		.byte	0x59
 7024 1ec3 9D1E0000 		.4byte	0x1e9d
 7025 1ec7 04       		.uleb128 0x4
 7026 1ec8 60170000 		.4byte	.LASF434
 7027 1ecc 22       		.byte	0x22
 7028 1ecd 5E       		.byte	0x5e
 7029 1ece D21E0000 		.4byte	0x1ed2
 7030 1ed2 0F       		.uleb128 0xf
 7031 1ed3 60170000 		.4byte	.LASF434
 7032 1ed7 78       		.byte	0x78
 7033 1ed8 22       		.byte	0x22
 7034 1ed9 78       		.byte	0x78
 7035 1eda 3D1F0000 		.4byte	0x1f3d
 7036 1ede 10       		.uleb128 0x10
 7037 1edf 766D7400 		.ascii	"vmt\000"
 7038 1ee3 22       		.byte	0x22
 7039 1ee4 7A       		.byte	0x7a
 7040 1ee5 BB1F0000 		.4byte	0x1fbb
 7041 1ee9 00       		.byte	0
 7042 1eea 0B       		.uleb128 0xb
 7043 1eeb 77110000 		.4byte	.LASF435
 7044 1eef 22       		.byte	0x22
 7045 1ef0 7B       		.byte	0x7b
 7046 1ef1 57150000 		.4byte	0x1557
 7047 1ef5 04       		.byte	0x4
 7048 1ef6 0B       		.uleb128 0xb
 7049 1ef7 72030000 		.4byte	.LASF374
 7050 1efb 22       		.byte	0x22
 7051 1efc 7B       		.byte	0x7b
 7052 1efd BC1E0000 		.4byte	0x1ebc
 7053 1f01 08       		.byte	0x8
 7054 1f02 0B       		.uleb128 0xb
 7055 1f03 75100000 		.4byte	.LASF436
 7056 1f07 22       		.byte	0x22
ARM GAS  /tmp/ccigORce.s 			page 125


 7057 1f08 7B       		.byte	0x7b
 7058 1f09 02160000 		.4byte	0x1602
 7059 1f0d 0C       		.byte	0xc
 7060 1f0e 0B       		.uleb128 0xb
 7061 1f0f 3C060000 		.4byte	.LASF437
 7062 1f13 22       		.byte	0x22
 7063 1f14 7B       		.byte	0x7b
 7064 1f15 0D160000 		.4byte	0x160d
 7065 1f19 30       		.byte	0x30
 7066 1f1a 10       		.uleb128 0x10
 7067 1f1b 696200   		.ascii	"ib\000"
 7068 1f1e 22       		.byte	0x22
 7069 1f1f 7B       		.byte	0x7b
 7070 1f20 C11F0000 		.4byte	0x1fc1
 7071 1f24 54       		.byte	0x54
 7072 1f25 10       		.uleb128 0x10
 7073 1f26 6F6200   		.ascii	"ob\000"
 7074 1f29 22       		.byte	0x22
 7075 1f2a 7B       		.byte	0x7b
 7076 1f2b C11F0000 		.4byte	0x1fc1
 7077 1f2f 64       		.byte	0x64
 7078 1f30 0B       		.uleb128 0xb
 7079 1f31 DA060000 		.4byte	.LASF438
 7080 1f35 22       		.byte	0x22
 7081 1f36 7B       		.byte	0x7b
 7082 1f37 D11F0000 		.4byte	0x1fd1
 7083 1f3b 74       		.byte	0x74
 7084 1f3c 00       		.byte	0
 7085 1f3d 23       		.uleb128 0x23
 7086 1f3e 53443200 		.ascii	"SD2\000"
 7087 1f42 23       		.byte	0x23
 7088 1f43 1201     		.2byte	0x112
 7089 1f45 C71E0000 		.4byte	0x1ec7
 7090 1f49 0F       		.uleb128 0xf
 7091 1f4a F1100000 		.4byte	.LASF439
 7092 1f4e 20       		.byte	0x20
 7093 1f4f 22       		.byte	0x22
 7094 1f50 6D       		.byte	0x6d
 7095 1f51 B61F0000 		.4byte	0x1fb6
 7096 1f55 0B       		.uleb128 0xb
 7097 1f56 820E0000 		.4byte	.LASF440
 7098 1f5a 22       		.byte	0x22
 7099 1f5b 6E       		.byte	0x6e
 7100 1f5c 37160000 		.4byte	0x1637
 7101 1f60 00       		.byte	0
 7102 1f61 0B       		.uleb128 0xb
 7103 1f62 92110000 		.4byte	.LASF441
 7104 1f66 22       		.byte	0x22
 7105 1f67 6E       		.byte	0x6e
 7106 1f68 56160000 		.4byte	0x1656
 7107 1f6c 04       		.byte	0x4
 7108 1f6d 10       		.uleb128 0x10
 7109 1f6e 70757400 		.ascii	"put\000"
 7110 1f72 22       		.byte	0x22
 7111 1f73 6E       		.byte	0x6e
 7112 1f74 70160000 		.4byte	0x1670
 7113 1f78 08       		.byte	0x8
ARM GAS  /tmp/ccigORce.s 			page 126


 7114 1f79 10       		.uleb128 0x10
 7115 1f7a 67657400 		.ascii	"get\000"
 7116 1f7e 22       		.byte	0x22
 7117 1f7f 6E       		.byte	0x6e
 7118 1f80 85160000 		.4byte	0x1685
 7119 1f84 0C       		.byte	0xc
 7120 1f85 0B       		.uleb128 0xb
 7121 1f86 8D030000 		.4byte	.LASF442
 7122 1f8a 22       		.byte	0x22
 7123 1f8b 6E       		.byte	0x6e
 7124 1f8c 26170000 		.4byte	0x1726
 7125 1f90 10       		.byte	0x10
 7126 1f91 0B       		.uleb128 0xb
 7127 1f92 260A0000 		.4byte	.LASF443
 7128 1f96 22       		.byte	0x22
 7129 1f97 6E       		.byte	0x6e
 7130 1f98 40170000 		.4byte	0x1740
 7131 1f9c 14       		.byte	0x14
 7132 1f9d 0B       		.uleb128 0xb
 7133 1f9e 60070000 		.4byte	.LASF444
 7134 1fa2 22       		.byte	0x22
 7135 1fa3 6E       		.byte	0x6e
 7136 1fa4 64170000 		.4byte	0x1764
 7137 1fa8 18       		.byte	0x18
 7138 1fa9 0B       		.uleb128 0xb
 7139 1faa E6040000 		.4byte	.LASF445
 7140 1fae 22       		.byte	0x22
 7141 1faf 6E       		.byte	0x6e
 7142 1fb0 88170000 		.4byte	0x1788
 7143 1fb4 1C       		.byte	0x1c
 7144 1fb5 00       		.byte	0
 7145 1fb6 0E       		.uleb128 0xe
 7146 1fb7 491F0000 		.4byte	0x1f49
 7147 1fbb 0D       		.uleb128 0xd
 7148 1fbc 04       		.byte	0x4
 7149 1fbd B61F0000 		.4byte	0x1fb6
 7150 1fc1 08       		.uleb128 0x8
 7151 1fc2 D3080000 		.4byte	0x8d3
 7152 1fc6 D11F0000 		.4byte	0x1fd1
 7153 1fca 09       		.uleb128 0x9
 7154 1fcb 0C010000 		.4byte	0x10c
 7155 1fcf 0F       		.byte	0xf
 7156 1fd0 00       		.byte	0
 7157 1fd1 0D       		.uleb128 0xd
 7158 1fd2 04       		.byte	0x4
 7159 1fd3 D8100000 		.4byte	0x10d8
 7160 1fd7 25       		.uleb128 0x25
 7161 1fd8 01       		.byte	0x1
 7162 1fd9 5A000000 		.4byte	0x5a
 7163 1fdd 24       		.byte	0x24
 7164 1fde 46       		.byte	0x46
 7165 1fdf 02200000 		.4byte	0x2002
 7166 1fe3 26       		.uleb128 0x26
 7167 1fe4 70050000 		.4byte	.LASF446
 7168 1fe8 00       		.byte	0
 7169 1fe9 26       		.uleb128 0x26
 7170 1fea 3D050000 		.4byte	.LASF447
ARM GAS  /tmp/ccigORce.s 			page 127


 7171 1fee 01       		.byte	0x1
 7172 1fef 26       		.uleb128 0x26
 7173 1ff0 BC0F0000 		.4byte	.LASF448
 7174 1ff4 02       		.byte	0x2
 7175 1ff5 26       		.uleb128 0x26
 7176 1ff6 FA110000 		.4byte	.LASF449
 7177 1ffa 03       		.byte	0x3
 7178 1ffb 26       		.uleb128 0x26
 7179 1ffc 641B0000 		.4byte	.LASF450
 7180 2000 04       		.byte	0x4
 7181 2001 00       		.byte	0
 7182 2002 04       		.uleb128 0x4
 7183 2003 181C0000 		.4byte	.LASF451
 7184 2007 24       		.byte	0x24
 7185 2008 4C       		.byte	0x4c
 7186 2009 D71F0000 		.4byte	0x1fd7
 7187 200d 05       		.uleb128 0x5
 7188 200e 9C090000 		.4byte	.LASF452
 7189 2012 25       		.byte	0x25
 7190 2013 9601     		.2byte	0x196
 7191 2015 19200000 		.4byte	0x2019
 7192 2019 1A       		.uleb128 0x1a
 7193 201a 9C090000 		.4byte	.LASF452
 7194 201e 30       		.byte	0x30
 7195 201f 25       		.byte	0x25
 7196 2020 BA01     		.2byte	0x1ba
 7197 2022 9C200000 		.4byte	0x209c
 7198 2026 17       		.uleb128 0x17
 7199 2027 72030000 		.4byte	.LASF374
 7200 202b 25       		.byte	0x25
 7201 202c BE01     		.2byte	0x1be
 7202 202e 02200000 		.4byte	0x2002
 7203 2032 00       		.byte	0
 7204 2033 17       		.uleb128 0x17
 7205 2034 6B030000 		.4byte	.LASF375
 7206 2038 25       		.byte	0x25
 7207 2039 C201     		.2byte	0x1c2
 7208 203b 0E210000 		.4byte	0x210e
 7209 203f 04       		.byte	0x4
 7210 2040 17       		.uleb128 0x17
 7211 2041 4C180000 		.4byte	.LASF379
 7212 2045 25       		.byte	0x25
 7213 2046 C701     		.2byte	0x1c7
 7214 2048 7F0A0000 		.4byte	0xa7f
 7215 204c 08       		.byte	0x8
 7216 204d 17       		.uleb128 0x17
 7217 204e 07110000 		.4byte	.LASF380
 7218 2052 25       		.byte	0x25
 7219 2053 CD01     		.2byte	0x1cd
 7220 2055 D3140000 		.4byte	0x14d3
 7221 2059 0C       		.byte	0xc
 7222 205a 21       		.uleb128 0x21
 7223 205b 73706900 		.ascii	"spi\000"
 7224 205f 25       		.byte	0x25
 7225 2060 D601     		.2byte	0x1d6
 7226 2062 14210000 		.4byte	0x2114
 7227 2066 1C       		.byte	0x1c
ARM GAS  /tmp/ccigORce.s 			page 128


 7228 2067 17       		.uleb128 0x17
 7229 2068 430F0000 		.4byte	.LASF453
 7230 206c 25       		.byte	0x25
 7231 206d DA01     		.2byte	0x1da
 7232 206f C81B0000 		.4byte	0x1bc8
 7233 2073 20       		.byte	0x20
 7234 2074 17       		.uleb128 0x17
 7235 2075 7D110000 		.4byte	.LASF454
 7236 2079 25       		.byte	0x25
 7237 207a DE01     		.2byte	0x1de
 7238 207c C81B0000 		.4byte	0x1bc8
 7239 2080 24       		.byte	0x24
 7240 2081 17       		.uleb128 0x17
 7241 2082 3E110000 		.4byte	.LASF455
 7242 2086 25       		.byte	0x25
 7243 2087 E201     		.2byte	0x1e2
 7244 2089 FE080000 		.4byte	0x8fe
 7245 208d 28       		.byte	0x28
 7246 208e 17       		.uleb128 0x17
 7247 208f 411D0000 		.4byte	.LASF456
 7248 2093 25       		.byte	0x25
 7249 2094 E601     		.2byte	0x1e6
 7250 2096 FE080000 		.4byte	0x8fe
 7251 209a 2C       		.byte	0x2c
 7252 209b 00       		.byte	0
 7253 209c 05       		.uleb128 0x5
 7254 209d 10080000 		.4byte	.LASF457
 7255 20a1 25       		.byte	0x25
 7256 20a2 9E01     		.2byte	0x19e
 7257 20a4 A8200000 		.4byte	0x20a8
 7258 20a8 0D       		.uleb128 0xd
 7259 20a9 04       		.byte	0x4
 7260 20aa AE200000 		.4byte	0x20ae
 7261 20ae 1F       		.uleb128 0x1f
 7262 20af B9200000 		.4byte	0x20b9
 7263 20b3 15       		.uleb128 0x15
 7264 20b4 B9200000 		.4byte	0x20b9
 7265 20b8 00       		.byte	0
 7266 20b9 0D       		.uleb128 0xd
 7267 20ba 04       		.byte	0x4
 7268 20bb 0D200000 		.4byte	0x200d
 7269 20bf 1B       		.uleb128 0x1b
 7270 20c0 0C       		.byte	0xc
 7271 20c1 25       		.byte	0x25
 7272 20c2 A301     		.2byte	0x1a3
 7273 20c4 FD200000 		.4byte	0x20fd
 7274 20c8 17       		.uleb128 0x17
 7275 20c9 6B0A0000 		.4byte	.LASF387
 7276 20cd 25       		.byte	0x25
 7277 20ce A701     		.2byte	0x1a7
 7278 20d0 9C200000 		.4byte	0x209c
 7279 20d4 00       		.byte	0
 7280 20d5 17       		.uleb128 0x17
 7281 20d6 7D020000 		.4byte	.LASF458
 7282 20da 25       		.byte	0x25
 7283 20db AC01     		.2byte	0x1ac
 7284 20dd 5B190000 		.4byte	0x195b
ARM GAS  /tmp/ccigORce.s 			page 129


 7285 20e1 04       		.byte	0x4
 7286 20e2 17       		.uleb128 0x17
 7287 20e3 E4130000 		.4byte	.LASF459
 7288 20e7 25       		.byte	0x25
 7289 20e8 B001     		.2byte	0x1b0
 7290 20ea E3080000 		.4byte	0x8e3
 7291 20ee 08       		.byte	0x8
 7292 20ef 21       		.uleb128 0x21
 7293 20f0 63723100 		.ascii	"cr1\000"
 7294 20f4 25       		.byte	0x25
 7295 20f5 B401     		.2byte	0x1b4
 7296 20f7 E3080000 		.4byte	0x8e3
 7297 20fb 0A       		.byte	0xa
 7298 20fc 00       		.byte	0
 7299 20fd 05       		.uleb128 0x5
 7300 20fe D1110000 		.4byte	.LASF460
 7301 2102 25       		.byte	0x25
 7302 2103 B501     		.2byte	0x1b5
 7303 2105 BF200000 		.4byte	0x20bf
 7304 2109 0E       		.uleb128 0xe
 7305 210a FD200000 		.4byte	0x20fd
 7306 210e 0D       		.uleb128 0xd
 7307 210f 04       		.byte	0x4
 7308 2110 09210000 		.4byte	0x2109
 7309 2114 0D       		.uleb128 0xd
 7310 2115 04       		.byte	0x4
 7311 2116 69100000 		.4byte	0x1069
 7312 211a 20       		.uleb128 0x20
 7313 211b 92030000 		.4byte	.LASF461
 7314 211f 25       		.byte	0x25
 7315 2120 F201     		.2byte	0x1f2
 7316 2122 0D200000 		.4byte	0x200d
 7317 2126 20       		.uleb128 0x20
 7318 2127 5F0B0000 		.4byte	.LASF462
 7319 212b 25       		.byte	0x25
 7320 212c F601     		.2byte	0x1f6
 7321 212e 0D200000 		.4byte	0x200d
 7322 2132 04       		.uleb128 0x4
 7323 2133 B9090000 		.4byte	.LASF463
 7324 2137 26       		.byte	0x26
 7325 2138 FA       		.byte	0xfa
 7326 2139 3D210000 		.4byte	0x213d
 7327 213d 16       		.uleb128 0x16
 7328 213e B9090000 		.4byte	.LASF463
 7329 2142 B001     		.2byte	0x1b0
 7330 2144 27       		.byte	0x27
 7331 2145 7701     		.2byte	0x177
 7332 2147 69220000 		.4byte	0x2269
 7333 214b 17       		.uleb128 0x17
 7334 214c 72030000 		.4byte	.LASF374
 7335 2150 27       		.byte	0x27
 7336 2151 7B01     		.2byte	0x17b
 7337 2153 A0220000 		.4byte	0x22a0
 7338 2157 00       		.byte	0
 7339 2158 17       		.uleb128 0x17
 7340 2159 6B030000 		.4byte	.LASF375
 7341 215d 27       		.byte	0x27
ARM GAS  /tmp/ccigORce.s 			page 130


 7342 215e 7F01     		.2byte	0x17f
 7343 2160 ED2B0000 		.4byte	0x2bed
 7344 2164 04       		.byte	0x4
 7345 2165 17       		.uleb128 0x17
 7346 2166 CA0A0000 		.4byte	.LASF464
 7347 216a 27       		.byte	0x27
 7348 216b 8301     		.2byte	0x183
 7349 216d E3080000 		.4byte	0x8e3
 7350 2171 08       		.byte	0x8
 7351 2172 17       		.uleb128 0x17
 7352 2173 92090000 		.4byte	.LASF465
 7353 2177 27       		.byte	0x27
 7354 2178 8701     		.2byte	0x187
 7355 217a E3080000 		.4byte	0x8e3
 7356 217e 0A       		.byte	0xa
 7357 217f 21       		.uleb128 0x21
 7358 2180 65706300 		.ascii	"epc\000"
 7359 2184 27       		.byte	0x27
 7360 2185 8B01     		.2byte	0x18b
 7361 2187 F32B0000 		.4byte	0x2bf3
 7362 218b 0C       		.byte	0xc
 7363 218c 17       		.uleb128 0x17
 7364 218d 84020000 		.4byte	.LASF466
 7365 2191 27       		.byte	0x27
 7366 2192 9201     		.2byte	0x192
 7367 2194 092C0000 		.4byte	0x2c09
 7368 2198 1C       		.byte	0x1c
 7369 2199 17       		.uleb128 0x17
 7370 219a 5D1C0000 		.4byte	.LASF467
 7371 219e 27       		.byte	0x27
 7372 219f 9901     		.2byte	0x199
 7373 21a1 092C0000 		.4byte	0x2c09
 7374 21a5 28       		.byte	0x28
 7375 21a6 17       		.uleb128 0x17
 7376 21a7 75080000 		.4byte	.LASF468
 7377 21ab 27       		.byte	0x27
 7378 21ac 9D01     		.2byte	0x19d
 7379 21ae 10230000 		.4byte	0x2310
 7380 21b2 34       		.byte	0x34
 7381 21b3 17       		.uleb128 0x17
 7382 21b4 45100000 		.4byte	.LASF469
 7383 21b8 27       		.byte	0x27
 7384 21b9 A101     		.2byte	0x1a1
 7385 21bb FC150000 		.4byte	0x15fc
 7386 21bf 38       		.byte	0x38
 7387 21c0 17       		.uleb128 0x17
 7388 21c1 6D090000 		.4byte	.LASF470
 7389 21c5 27       		.byte	0x27
 7390 21c6 A501     		.2byte	0x1a5
 7391 21c8 2F000000 		.4byte	0x2f
 7392 21cc 3C       		.byte	0x3c
 7393 21cd 17       		.uleb128 0x17
 7394 21ce 840D0000 		.4byte	.LASF471
 7395 21d2 27       		.byte	0x27
 7396 21d3 A901     		.2byte	0x1a9
 7397 21d5 8F230000 		.4byte	0x238f
 7398 21d9 40       		.byte	0x40
ARM GAS  /tmp/ccigORce.s 			page 131


 7399 21da 17       		.uleb128 0x17
 7400 21db 8F0B0000 		.4byte	.LASF472
 7401 21df 27       		.byte	0x27
 7402 21e0 AD01     		.2byte	0x1ad
 7403 21e2 192C0000 		.4byte	0x2c19
 7404 21e6 44       		.byte	0x44
 7405 21e7 17       		.uleb128 0x17
 7406 21e8 C41A0000 		.4byte	.LASF473
 7407 21ec 27       		.byte	0x27
 7408 21ed B101     		.2byte	0x1b1
 7409 21ef E3080000 		.4byte	0x8e3
 7410 21f3 4C       		.byte	0x4c
 7411 21f4 17       		.uleb128 0x17
 7412 21f5 4E0D0000 		.4byte	.LASF474
 7413 21f9 27       		.byte	0x27
 7414 21fa B501     		.2byte	0x1b5
 7415 21fc D3080000 		.4byte	0x8d3
 7416 2200 4E       		.byte	0x4e
 7417 2201 17       		.uleb128 0x17
 7418 2202 2F0C0000 		.4byte	.LASF475
 7419 2206 27       		.byte	0x27
 7420 2207 B901     		.2byte	0x1b9
 7421 2209 D3080000 		.4byte	0x8d3
 7422 220d 4F       		.byte	0x4f
 7423 220e 21       		.uleb128 0x21
 7424 220f 6F746700 		.ascii	"otg\000"
 7425 2213 27       		.byte	0x27
 7426 2214 C101     		.2byte	0x1c1
 7427 2216 292C0000 		.4byte	0x2c29
 7428 221a 50       		.byte	0x50
 7429 221b 17       		.uleb128 0x17
 7430 221c 55100000 		.4byte	.LASF476
 7431 2220 27       		.byte	0x27
 7432 2221 C501     		.2byte	0x1c5
 7433 2223 2F2C0000 		.4byte	0x2c2f
 7434 2227 54       		.byte	0x54
 7435 2228 17       		.uleb128 0x17
 7436 2229 231D0000 		.4byte	.LASF477
 7437 222d 27       		.byte	0x27
 7438 222e C901     		.2byte	0x1c9
 7439 2230 FE080000 		.4byte	0x8fe
 7440 2234 58       		.byte	0x58
 7441 2235 17       		.uleb128 0x17
 7442 2236 16120000 		.4byte	.LASF478
 7443 223a 27       		.byte	0x27
 7444 223b CD01     		.2byte	0x1cd
 7445 223d FE080000 		.4byte	0x8fe
 7446 2241 5C       		.byte	0x5c
 7447 2242 17       		.uleb128 0x17
 7448 2243 52110000 		.4byte	.LASF479
 7449 2247 27       		.byte	0x27
 7450 2248 D101     		.2byte	0x1d1
 7451 224a 7F0A0000 		.4byte	0xa7f
 7452 224e 60       		.byte	0x60
 7453 224f 21       		.uleb128 0x21
 7454 2250 747200   		.ascii	"tr\000"
 7455 2253 27       		.byte	0x27
ARM GAS  /tmp/ccigORce.s 			page 132


 7456 2254 D601     		.2byte	0x1d6
 7457 2256 7F0A0000 		.4byte	0xa7f
 7458 225a 64       		.byte	0x64
 7459 225b 17       		.uleb128 0x17
 7460 225c 0C180000 		.4byte	.LASF480
 7461 2260 27       		.byte	0x27
 7462 2261 DA01     		.2byte	0x1da
 7463 2263 352C0000 		.4byte	0x2c35
 7464 2267 68       		.byte	0x68
 7465 2268 00       		.byte	0
 7466 2269 04       		.uleb128 0x4
 7467 226a 2B1B0000 		.4byte	.LASF481
 7468 226e 26       		.byte	0x26
 7469 226f FF       		.byte	0xff
 7470 2270 D3080000 		.4byte	0x8d3
 7471 2274 27       		.uleb128 0x27
 7472 2275 01       		.byte	0x1
 7473 2276 5A000000 		.4byte	0x5a
 7474 227a 26       		.byte	0x26
 7475 227b 0401     		.2byte	0x104
 7476 227d A0220000 		.4byte	0x22a0
 7477 2281 26       		.uleb128 0x26
 7478 2282 2B0B0000 		.4byte	.LASF482
 7479 2286 00       		.byte	0
 7480 2287 26       		.uleb128 0x26
 7481 2288 560E0000 		.4byte	.LASF483
 7482 228c 01       		.byte	0x1
 7483 228d 26       		.uleb128 0x26
 7484 228e D40F0000 		.4byte	.LASF484
 7485 2292 02       		.byte	0x2
 7486 2293 26       		.uleb128 0x26
 7487 2294 000C0000 		.4byte	.LASF485
 7488 2298 03       		.byte	0x3
 7489 2299 26       		.uleb128 0x26
 7490 229a 080E0000 		.4byte	.LASF486
 7491 229e 04       		.byte	0x4
 7492 229f 00       		.byte	0
 7493 22a0 05       		.uleb128 0x5
 7494 22a1 4E170000 		.4byte	.LASF487
 7495 22a5 26       		.byte	0x26
 7496 22a6 0A01     		.2byte	0x10a
 7497 22a8 74220000 		.4byte	0x2274
 7498 22ac 27       		.uleb128 0x27
 7499 22ad 01       		.byte	0x1
 7500 22ae 5A000000 		.4byte	0x5a
 7501 22b2 26       		.byte	0x26
 7502 22b3 0F01     		.2byte	0x10f
 7503 22b5 CC220000 		.4byte	0x22cc
 7504 22b9 26       		.uleb128 0x26
 7505 22ba 6F1C0000 		.4byte	.LASF488
 7506 22be 00       		.byte	0
 7507 22bf 26       		.uleb128 0x26
 7508 22c0 520C0000 		.4byte	.LASF489
 7509 22c4 01       		.byte	0x1
 7510 22c5 26       		.uleb128 0x26
 7511 22c6 47070000 		.4byte	.LASF490
 7512 22ca 02       		.byte	0x2
ARM GAS  /tmp/ccigORce.s 			page 133


 7513 22cb 00       		.byte	0
 7514 22cc 05       		.uleb128 0x5
 7515 22cd FA040000 		.4byte	.LASF491
 7516 22d1 26       		.byte	0x26
 7517 22d2 1301     		.2byte	0x113
 7518 22d4 AC220000 		.4byte	0x22ac
 7519 22d8 27       		.uleb128 0x27
 7520 22d9 01       		.byte	0x1
 7521 22da 5A000000 		.4byte	0x5a
 7522 22de 26       		.byte	0x26
 7523 22df 1801     		.2byte	0x118
 7524 22e1 10230000 		.4byte	0x2310
 7525 22e5 26       		.uleb128 0x26
 7526 22e6 72060000 		.4byte	.LASF492
 7527 22ea 00       		.byte	0
 7528 22eb 26       		.uleb128 0x26
 7529 22ec 73150000 		.4byte	.LASF493
 7530 22f0 01       		.byte	0x1
 7531 22f1 26       		.uleb128 0x26
 7532 22f2 7B140000 		.4byte	.LASF494
 7533 22f6 02       		.byte	0x2
 7534 22f7 26       		.uleb128 0x26
 7535 22f8 FC1C0000 		.4byte	.LASF495
 7536 22fc 03       		.byte	0x3
 7537 22fd 26       		.uleb128 0x26
 7538 22fe 6E1D0000 		.4byte	.LASF496
 7539 2302 04       		.byte	0x4
 7540 2303 26       		.uleb128 0x26
 7541 2304 BD1C0000 		.4byte	.LASF497
 7542 2308 05       		.byte	0x5
 7543 2309 26       		.uleb128 0x26
 7544 230a EA0E0000 		.4byte	.LASF498
 7545 230e 06       		.byte	0x6
 7546 230f 00       		.byte	0
 7547 2310 05       		.uleb128 0x5
 7548 2311 96040000 		.4byte	.LASF499
 7549 2315 26       		.byte	0x26
 7550 2316 2001     		.2byte	0x120
 7551 2318 D8220000 		.4byte	0x22d8
 7552 231c 27       		.uleb128 0x27
 7553 231d 01       		.byte	0x1
 7554 231e 5A000000 		.4byte	0x5a
 7555 2322 26       		.byte	0x26
 7556 2323 2501     		.2byte	0x125
 7557 2325 4E230000 		.4byte	0x234e
 7558 2329 26       		.uleb128 0x26
 7559 232a 05190000 		.4byte	.LASF500
 7560 232e 00       		.byte	0
 7561 232f 26       		.uleb128 0x26
 7562 2330 11050000 		.4byte	.LASF501
 7563 2334 01       		.byte	0x1
 7564 2335 26       		.uleb128 0x26
 7565 2336 6D170000 		.4byte	.LASF502
 7566 233a 02       		.byte	0x2
 7567 233b 26       		.uleb128 0x26
 7568 233c 231C0000 		.4byte	.LASF503
 7569 2340 03       		.byte	0x3
ARM GAS  /tmp/ccigORce.s 			page 134


 7570 2341 26       		.uleb128 0x26
 7571 2342 5A0F0000 		.4byte	.LASF504
 7572 2346 04       		.byte	0x4
 7573 2347 26       		.uleb128 0x26
 7574 2348 35070000 		.4byte	.LASF505
 7575 234c 05       		.byte	0x5
 7576 234d 00       		.byte	0
 7577 234e 05       		.uleb128 0x5
 7578 234f AC0B0000 		.4byte	.LASF506
 7579 2353 26       		.byte	0x26
 7580 2354 2C01     		.2byte	0x12c
 7581 2356 1C230000 		.4byte	0x231c
 7582 235a 1B       		.uleb128 0x1b
 7583 235b 08       		.byte	0x8
 7584 235c 26       		.byte	0x26
 7585 235d 3101     		.2byte	0x131
 7586 235f 7E230000 		.4byte	0x237e
 7587 2363 17       		.uleb128 0x17
 7588 2364 DD0B0000 		.4byte	.LASF507
 7589 2368 26       		.byte	0x26
 7590 2369 3501     		.2byte	0x135
 7591 236b 2F000000 		.4byte	0x2f
 7592 236f 00       		.byte	0
 7593 2370 17       		.uleb128 0x17
 7594 2371 040A0000 		.4byte	.LASF508
 7595 2375 26       		.byte	0x26
 7596 2376 3901     		.2byte	0x139
 7597 2378 31160000 		.4byte	0x1631
 7598 237c 04       		.byte	0x4
 7599 237d 00       		.byte	0
 7600 237e 05       		.uleb128 0x5
 7601 237f 790B0000 		.4byte	.LASF509
 7602 2383 26       		.byte	0x26
 7603 2384 3A01     		.2byte	0x13a
 7604 2386 5A230000 		.4byte	0x235a
 7605 238a 0E       		.uleb128 0xe
 7606 238b 7E230000 		.4byte	0x237e
 7607 238f 05       		.uleb128 0x5
 7608 2390 CF0B0000 		.4byte	.LASF510
 7609 2394 26       		.byte	0x26
 7610 2395 4201     		.2byte	0x142
 7611 2397 9B230000 		.4byte	0x239b
 7612 239b 0D       		.uleb128 0xd
 7613 239c 04       		.byte	0x4
 7614 239d A1230000 		.4byte	0x23a1
 7615 23a1 1F       		.uleb128 0x1f
 7616 23a2 AC230000 		.4byte	0x23ac
 7617 23a6 15       		.uleb128 0x15
 7618 23a7 AC230000 		.4byte	0x23ac
 7619 23ab 00       		.byte	0
 7620 23ac 0D       		.uleb128 0xd
 7621 23ad 04       		.byte	0x4
 7622 23ae 32210000 		.4byte	0x2132
 7623 23b2 05       		.uleb128 0x5
 7624 23b3 D7100000 		.4byte	.LASF511
 7625 23b7 26       		.byte	0x26
 7626 23b8 4B01     		.2byte	0x14b
ARM GAS  /tmp/ccigORce.s 			page 135


 7627 23ba BE230000 		.4byte	0x23be
 7628 23be 0D       		.uleb128 0xd
 7629 23bf 04       		.byte	0x4
 7630 23c0 C4230000 		.4byte	0x23c4
 7631 23c4 1F       		.uleb128 0x1f
 7632 23c5 D4230000 		.4byte	0x23d4
 7633 23c9 15       		.uleb128 0x15
 7634 23ca AC230000 		.4byte	0x23ac
 7635 23ce 15       		.uleb128 0x15
 7636 23cf 69220000 		.4byte	0x2269
 7637 23d3 00       		.byte	0
 7638 23d4 05       		.uleb128 0x5
 7639 23d5 720A0000 		.4byte	.LASF512
 7640 23d9 26       		.byte	0x26
 7641 23da 5401     		.2byte	0x154
 7642 23dc E0230000 		.4byte	0x23e0
 7643 23e0 0D       		.uleb128 0xd
 7644 23e1 04       		.byte	0x4
 7645 23e2 E6230000 		.4byte	0x23e6
 7646 23e6 1F       		.uleb128 0x1f
 7647 23e7 F6230000 		.4byte	0x23f6
 7648 23eb 15       		.uleb128 0x15
 7649 23ec AC230000 		.4byte	0x23ac
 7650 23f0 15       		.uleb128 0x15
 7651 23f1 4E230000 		.4byte	0x234e
 7652 23f5 00       		.byte	0
 7653 23f6 05       		.uleb128 0x5
 7654 23f7 D2190000 		.4byte	.LASF513
 7655 23fb 26       		.byte	0x26
 7656 23fc 6001     		.2byte	0x160
 7657 23fe 02240000 		.4byte	0x2402
 7658 2402 0D       		.uleb128 0xd
 7659 2403 04       		.byte	0x4
 7660 2404 08240000 		.4byte	0x2408
 7661 2408 14       		.uleb128 0x14
 7662 2409 8E170000 		.4byte	0x178e
 7663 240d 17240000 		.4byte	0x2417
 7664 2411 15       		.uleb128 0x15
 7665 2412 AC230000 		.4byte	0x23ac
 7666 2416 00       		.byte	0
 7667 2417 05       		.uleb128 0x5
 7668 2418 F9170000 		.4byte	.LASF514
 7669 241c 26       		.byte	0x26
 7670 241d 6501     		.2byte	0x165
 7671 241f 23240000 		.4byte	0x2423
 7672 2423 0D       		.uleb128 0xd
 7673 2424 04       		.byte	0x4
 7674 2425 29240000 		.4byte	0x2429
 7675 2429 14       		.uleb128 0x14
 7676 242a 47240000 		.4byte	0x2447
 7677 242e 47240000 		.4byte	0x2447
 7678 2432 15       		.uleb128 0x15
 7679 2433 AC230000 		.4byte	0x23ac
 7680 2437 15       		.uleb128 0x15
 7681 2438 D3080000 		.4byte	0x8d3
 7682 243c 15       		.uleb128 0x15
 7683 243d D3080000 		.4byte	0x8d3
ARM GAS  /tmp/ccigORce.s 			page 136


 7684 2441 15       		.uleb128 0x15
 7685 2442 E3080000 		.4byte	0x8e3
 7686 2446 00       		.byte	0
 7687 2447 0D       		.uleb128 0xd
 7688 2448 04       		.byte	0x4
 7689 2449 8A230000 		.4byte	0x238a
 7690 244d 0A       		.uleb128 0xa
 7691 244e 20       		.byte	0x20
 7692 244f 28       		.byte	0x28
 7693 2450 35       		.byte	0x35
 7694 2451 B6240000 		.4byte	0x24b6
 7695 2455 0B       		.uleb128 0xb
 7696 2456 FC080000 		.4byte	.LASF515
 7697 245a 28       		.byte	0x28
 7698 245b 36       		.byte	0x36
 7699 245c 09090000 		.4byte	0x909
 7700 2460 00       		.byte	0
 7701 2461 0B       		.uleb128 0xb
 7702 2462 14020000 		.4byte	.LASF516
 7703 2466 28       		.byte	0x28
 7704 2467 38       		.byte	0x38
 7705 2468 09090000 		.4byte	0x909
 7706 246c 04       		.byte	0x4
 7707 246d 0B       		.uleb128 0xb
 7708 246e 93150000 		.4byte	.LASF517
 7709 2472 28       		.byte	0x28
 7710 2473 39       		.byte	0x39
 7711 2474 09090000 		.4byte	0x909
 7712 2478 08       		.byte	0x8
 7713 2479 0B       		.uleb128 0xb
 7714 247a EF150000 		.4byte	.LASF518
 7715 247e 28       		.byte	0x28
 7716 247f 3A       		.byte	0x3a
 7717 2480 09090000 		.4byte	0x909
 7718 2484 0C       		.byte	0xc
 7719 2485 0B       		.uleb128 0xb
 7720 2486 E10A0000 		.4byte	.LASF519
 7721 248a 28       		.byte	0x28
 7722 248b 3C       		.byte	0x3c
 7723 248c 09090000 		.4byte	0x909
 7724 2490 10       		.byte	0x10
 7725 2491 0B       		.uleb128 0xb
 7726 2492 15190000 		.4byte	.LASF520
 7727 2496 28       		.byte	0x28
 7728 2497 3E       		.byte	0x3e
 7729 2498 09090000 		.4byte	0x909
 7730 249c 14       		.byte	0x14
 7731 249d 0B       		.uleb128 0xb
 7732 249e C6010000 		.4byte	.LASF521
 7733 24a2 28       		.byte	0x28
 7734 24a3 3F       		.byte	0x3f
 7735 24a4 09090000 		.4byte	0x909
 7736 24a8 18       		.byte	0x18
 7737 24a9 0B       		.uleb128 0xb
 7738 24aa BF190000 		.4byte	.LASF522
 7739 24ae 28       		.byte	0x28
 7740 24af 40       		.byte	0x40
ARM GAS  /tmp/ccigORce.s 			page 137


 7741 24b0 09090000 		.4byte	0x909
 7742 24b4 1C       		.byte	0x1c
 7743 24b5 00       		.byte	0
 7744 24b6 04       		.uleb128 0x4
 7745 24b7 A40A0000 		.4byte	.LASF523
 7746 24bb 28       		.byte	0x28
 7747 24bc 41       		.byte	0x41
 7748 24bd 4D240000 		.4byte	0x244d
 7749 24c1 0A       		.uleb128 0xa
 7750 24c2 20       		.byte	0x20
 7751 24c3 28       		.byte	0x28
 7752 24c4 46       		.byte	0x46
 7753 24c5 2A250000 		.4byte	0x252a
 7754 24c9 0B       		.uleb128 0xb
 7755 24ca 4C090000 		.4byte	.LASF524
 7756 24ce 28       		.byte	0x28
 7757 24cf 47       		.byte	0x47
 7758 24d0 09090000 		.4byte	0x909
 7759 24d4 00       		.byte	0
 7760 24d5 0B       		.uleb128 0xb
 7761 24d6 1B030000 		.4byte	.LASF525
 7762 24da 28       		.byte	0x28
 7763 24db 49       		.byte	0x49
 7764 24dc 09090000 		.4byte	0x909
 7765 24e0 04       		.byte	0x4
 7766 24e1 0B       		.uleb128 0xb
 7767 24e2 5D1A0000 		.4byte	.LASF526
 7768 24e6 28       		.byte	0x28
 7769 24e7 4A       		.byte	0x4a
 7770 24e8 09090000 		.4byte	0x909
 7771 24ec 08       		.byte	0x8
 7772 24ed 0B       		.uleb128 0xb
 7773 24ee E9030000 		.4byte	.LASF527
 7774 24f2 28       		.byte	0x28
 7775 24f3 4C       		.byte	0x4c
 7776 24f4 09090000 		.4byte	0x909
 7777 24f8 0C       		.byte	0xc
 7778 24f9 0B       		.uleb128 0xb
 7779 24fa 5B1B0000 		.4byte	.LASF528
 7780 24fe 28       		.byte	0x28
 7781 24ff 4D       		.byte	0x4d
 7782 2500 09090000 		.4byte	0x909
 7783 2504 10       		.byte	0x10
 7784 2505 0B       		.uleb128 0xb
 7785 2506 15190000 		.4byte	.LASF520
 7786 250a 28       		.byte	0x28
 7787 250b 4F       		.byte	0x4f
 7788 250c 09090000 		.4byte	0x909
 7789 2510 14       		.byte	0x14
 7790 2511 0B       		.uleb128 0xb
 7791 2512 35190000 		.4byte	.LASF529
 7792 2516 28       		.byte	0x28
 7793 2517 50       		.byte	0x50
 7794 2518 09090000 		.4byte	0x909
 7795 251c 18       		.byte	0x18
 7796 251d 0B       		.uleb128 0xb
 7797 251e 50190000 		.4byte	.LASF530
ARM GAS  /tmp/ccigORce.s 			page 138


 7798 2522 28       		.byte	0x28
 7799 2523 52       		.byte	0x52
 7800 2524 09090000 		.4byte	0x909
 7801 2528 1C       		.byte	0x1c
 7802 2529 00       		.byte	0
 7803 252a 04       		.uleb128 0x4
 7804 252b 04170000 		.4byte	.LASF531
 7805 252f 28       		.byte	0x28
 7806 2530 53       		.byte	0x53
 7807 2531 C1240000 		.4byte	0x24c1
 7808 2535 0A       		.uleb128 0xa
 7809 2536 20       		.byte	0x20
 7810 2537 28       		.byte	0x28
 7811 2538 58       		.byte	0x58
 7812 2539 9E250000 		.4byte	0x259e
 7813 253d 0B       		.uleb128 0xb
 7814 253e D2060000 		.4byte	.LASF532
 7815 2542 28       		.byte	0x28
 7816 2543 59       		.byte	0x59
 7817 2544 09090000 		.4byte	0x909
 7818 2548 00       		.byte	0
 7819 2549 0B       		.uleb128 0xb
 7820 254a 1B030000 		.4byte	.LASF525
 7821 254e 28       		.byte	0x28
 7822 254f 5B       		.byte	0x5b
 7823 2550 09090000 		.4byte	0x909
 7824 2554 04       		.byte	0x4
 7825 2555 0B       		.uleb128 0xb
 7826 2556 58070000 		.4byte	.LASF533
 7827 255a 28       		.byte	0x28
 7828 255b 5C       		.byte	0x5c
 7829 255c 09090000 		.4byte	0x909
 7830 2560 08       		.byte	0x8
 7831 2561 0B       		.uleb128 0xb
 7832 2562 E9030000 		.4byte	.LASF527
 7833 2566 28       		.byte	0x28
 7834 2567 5E       		.byte	0x5e
 7835 2568 09090000 		.4byte	0x909
 7836 256c 0C       		.byte	0xc
 7837 256d 0B       		.uleb128 0xb
 7838 256e 89110000 		.4byte	.LASF534
 7839 2572 28       		.byte	0x28
 7840 2573 5F       		.byte	0x5f
 7841 2574 09090000 		.4byte	0x909
 7842 2578 10       		.byte	0x10
 7843 2579 0B       		.uleb128 0xb
 7844 257a 15190000 		.4byte	.LASF520
 7845 257e 28       		.byte	0x28
 7846 257f 61       		.byte	0x61
 7847 2580 09090000 		.4byte	0x909
 7848 2584 14       		.byte	0x14
 7849 2585 0B       		.uleb128 0xb
 7850 2586 C6010000 		.4byte	.LASF521
 7851 258a 28       		.byte	0x28
 7852 258b 62       		.byte	0x62
 7853 258c 09090000 		.4byte	0x909
 7854 2590 18       		.byte	0x18
ARM GAS  /tmp/ccigORce.s 			page 139


 7855 2591 0B       		.uleb128 0xb
 7856 2592 50190000 		.4byte	.LASF530
 7857 2596 28       		.byte	0x28
 7858 2597 63       		.byte	0x63
 7859 2598 09090000 		.4byte	0x909
 7860 259c 1C       		.byte	0x1c
 7861 259d 00       		.byte	0
 7862 259e 04       		.uleb128 0x4
 7863 259f 34090000 		.4byte	.LASF535
 7864 25a3 28       		.byte	0x28
 7865 25a4 64       		.byte	0x64
 7866 25a5 35250000 		.4byte	0x2535
 7867 25a9 28       		.uleb128 0x28
 7868 25aa 00100100 		.4byte	0x11000
 7869 25ae 28       		.byte	0x28
 7870 25af 69       		.byte	0x69
 7871 25b0 86280000 		.4byte	0x2886
 7872 25b4 0B       		.uleb128 0xb
 7873 25b5 110F0000 		.4byte	.LASF536
 7874 25b9 28       		.byte	0x28
 7875 25ba 6A       		.byte	0x6a
 7876 25bb 09090000 		.4byte	0x909
 7877 25bf 00       		.byte	0
 7878 25c0 0B       		.uleb128 0xb
 7879 25c1 B40F0000 		.4byte	.LASF537
 7880 25c5 28       		.byte	0x28
 7881 25c6 6B       		.byte	0x6b
 7882 25c7 09090000 		.4byte	0x909
 7883 25cb 04       		.byte	0x4
 7884 25cc 0B       		.uleb128 0xb
 7885 25cd 970D0000 		.4byte	.LASF538
 7886 25d1 28       		.byte	0x28
 7887 25d2 6C       		.byte	0x6c
 7888 25d3 09090000 		.4byte	0x909
 7889 25d7 08       		.byte	0x8
 7890 25d8 0B       		.uleb128 0xb
 7891 25d9 4B1D0000 		.4byte	.LASF539
 7892 25dd 28       		.byte	0x28
 7893 25de 6D       		.byte	0x6d
 7894 25df 09090000 		.4byte	0x909
 7895 25e3 0C       		.byte	0xc
 7896 25e4 0B       		.uleb128 0xb
 7897 25e5 4A0B0000 		.4byte	.LASF540
 7898 25e9 28       		.byte	0x28
 7899 25ea 6E       		.byte	0x6e
 7900 25eb 09090000 		.4byte	0x909
 7901 25ef 10       		.byte	0x10
 7902 25f0 0B       		.uleb128 0xb
 7903 25f1 0E1A0000 		.4byte	.LASF541
 7904 25f5 28       		.byte	0x28
 7905 25f6 6F       		.byte	0x6f
 7906 25f7 09090000 		.4byte	0x909
 7907 25fb 14       		.byte	0x14
 7908 25fc 0B       		.uleb128 0xb
 7909 25fd A6130000 		.4byte	.LASF542
 7910 2601 28       		.byte	0x28
 7911 2602 70       		.byte	0x70
ARM GAS  /tmp/ccigORce.s 			page 140


 7912 2603 09090000 		.4byte	0x909
 7913 2607 18       		.byte	0x18
 7914 2608 0B       		.uleb128 0xb
 7915 2609 520F0000 		.4byte	.LASF543
 7916 260d 28       		.byte	0x28
 7917 260e 71       		.byte	0x71
 7918 260f 09090000 		.4byte	0x909
 7919 2613 1C       		.byte	0x1c
 7920 2614 0B       		.uleb128 0xb
 7921 2615 DE0F0000 		.4byte	.LASF544
 7922 2619 28       		.byte	0x28
 7923 261a 73       		.byte	0x73
 7924 261b 09090000 		.4byte	0x909
 7925 261f 20       		.byte	0x20
 7926 2620 0B       		.uleb128 0xb
 7927 2621 4A0C0000 		.4byte	.LASF545
 7928 2625 28       		.byte	0x28
 7929 2626 75       		.byte	0x75
 7930 2627 09090000 		.4byte	0x909
 7931 262b 24       		.byte	0x24
 7932 262c 0B       		.uleb128 0xb
 7933 262d 23050000 		.4byte	.LASF546
 7934 2631 28       		.byte	0x28
 7935 2632 76       		.byte	0x76
 7936 2633 09090000 		.4byte	0x909
 7937 2637 28       		.byte	0x28
 7938 2638 0B       		.uleb128 0xb
 7939 2639 651A0000 		.4byte	.LASF547
 7940 263d 28       		.byte	0x28
 7941 263e 78       		.byte	0x78
 7942 263f 09090000 		.4byte	0x909
 7943 2643 2C       		.byte	0x2c
 7944 2644 0B       		.uleb128 0xb
 7945 2645 D41A0000 		.4byte	.LASF548
 7946 2649 28       		.byte	0x28
 7947 264a 7A       		.byte	0x7a
 7948 264b 09090000 		.4byte	0x909
 7949 264f 30       		.byte	0x30
 7950 2650 0B       		.uleb128 0xb
 7951 2651 EC1A0000 		.4byte	.LASF549
 7952 2655 28       		.byte	0x28
 7953 2656 7B       		.byte	0x7b
 7954 2657 09090000 		.4byte	0x909
 7955 265b 34       		.byte	0x34
 7956 265c 0B       		.uleb128 0xb
 7957 265d FB0A0000 		.4byte	.LASF550
 7958 2661 28       		.byte	0x28
 7959 2662 7C       		.byte	0x7c
 7960 2663 09090000 		.4byte	0x909
 7961 2667 38       		.byte	0x38
 7962 2668 10       		.uleb128 0x10
 7963 2669 43494400 		.ascii	"CID\000"
 7964 266d 28       		.byte	0x28
 7965 266e 7D       		.byte	0x7d
 7966 266f 09090000 		.4byte	0x909
 7967 2673 3C       		.byte	0x3c
 7968 2674 0B       		.uleb128 0xb
ARM GAS  /tmp/ccigORce.s 			page 141


 7969 2675 B51C0000 		.4byte	.LASF551
 7970 2679 28       		.byte	0x28
 7971 267a 7E       		.byte	0x7e
 7972 267b 96280000 		.4byte	0x2896
 7973 267f 40       		.byte	0x40
 7974 2680 12       		.uleb128 0x12
 7975 2681 38150000 		.4byte	.LASF552
 7976 2685 28       		.byte	0x28
 7977 2686 7F       		.byte	0x7f
 7978 2687 09090000 		.4byte	0x909
 7979 268b 0001     		.2byte	0x100
 7980 268d 12       		.uleb128 0x12
 7981 268e EF0C0000 		.4byte	.LASF553
 7982 2692 28       		.byte	0x28
 7983 2693 81       		.byte	0x81
 7984 2694 F4100000 		.4byte	0x10f4
 7985 2698 0401     		.2byte	0x104
 7986 269a 12       		.uleb128 0x12
 7987 269b 791D0000 		.4byte	.LASF554
 7988 269f 28       		.byte	0x28
 7989 26a0 83       		.byte	0x83
 7990 26a1 AB280000 		.4byte	0x28ab
 7991 26a5 4001     		.2byte	0x140
 7992 26a7 12       		.uleb128 0x12
 7993 26a8 F7080000 		.4byte	.LASF555
 7994 26ac 28       		.byte	0x28
 7995 26ad 84       		.byte	0x84
 7996 26ae 09090000 		.4byte	0x909
 7997 26b2 0004     		.2byte	0x400
 7998 26b4 12       		.uleb128 0x12
 7999 26b5 EC1C0000 		.4byte	.LASF556
 8000 26b9 28       		.byte	0x28
 8001 26ba 85       		.byte	0x85
 8002 26bb 09090000 		.4byte	0x909
 8003 26bf 0404     		.2byte	0x404
 8004 26c1 12       		.uleb128 0x12
 8005 26c2 4E140000 		.4byte	.LASF557
 8006 26c6 28       		.byte	0x28
 8007 26c7 86       		.byte	0x86
 8008 26c8 09090000 		.4byte	0x909
 8009 26cc 0804     		.2byte	0x408
 8010 26ce 12       		.uleb128 0x12
 8011 26cf F80E0000 		.4byte	.LASF558
 8012 26d3 28       		.byte	0x28
 8013 26d4 88       		.byte	0x88
 8014 26d5 09090000 		.4byte	0x909
 8015 26d9 0C04     		.2byte	0x40c
 8016 26db 12       		.uleb128 0x12
 8017 26dc A31C0000 		.4byte	.LASF559
 8018 26e0 28       		.byte	0x28
 8019 26e1 89       		.byte	0x89
 8020 26e2 09090000 		.4byte	0x909
 8021 26e6 1004     		.2byte	0x410
 8022 26e8 12       		.uleb128 0x12
 8023 26e9 BE110000 		.4byte	.LASF560
 8024 26ed 28       		.byte	0x28
 8025 26ee 8B       		.byte	0x8b
ARM GAS  /tmp/ccigORce.s 			page 142


 8026 26ef 09090000 		.4byte	0x909
 8027 26f3 1404     		.2byte	0x414
 8028 26f5 12       		.uleb128 0x12
 8029 26f6 70130000 		.4byte	.LASF561
 8030 26fa 28       		.byte	0x28
 8031 26fb 8D       		.byte	0x8d
 8032 26fc 09090000 		.4byte	0x909
 8033 2700 1804     		.2byte	0x418
 8034 2702 12       		.uleb128 0x12
 8035 2703 F0170000 		.4byte	.LASF562
 8036 2707 28       		.byte	0x28
 8037 2708 8F       		.byte	0x8f
 8038 2709 C0280000 		.4byte	0x28c0
 8039 270d 1C04     		.2byte	0x41c
 8040 270f 12       		.uleb128 0x12
 8041 2710 86090000 		.4byte	.LASF563
 8042 2714 28       		.byte	0x28
 8043 2715 90       		.byte	0x90
 8044 2716 09090000 		.4byte	0x909
 8045 271a 4004     		.2byte	0x440
 8046 271c 12       		.uleb128 0x12
 8047 271d D11C0000 		.4byte	.LASF564
 8048 2721 28       		.byte	0x28
 8049 2722 92       		.byte	0x92
 8050 2723 D5280000 		.4byte	0x28d5
 8051 2727 4404     		.2byte	0x444
 8052 2729 29       		.uleb128 0x29
 8053 272a 686300   		.ascii	"hc\000"
 8054 272d 28       		.byte	0x28
 8055 272e 93       		.byte	0x93
 8056 272f DA280000 		.4byte	0x28da
 8057 2733 0005     		.2byte	0x500
 8058 2735 12       		.uleb128 0x12
 8059 2736 48030000 		.4byte	.LASF565
 8060 273a 28       		.byte	0x28
 8061 273b 94       		.byte	0x94
 8062 273c FA280000 		.4byte	0x28fa
 8063 2740 0007     		.2byte	0x700
 8064 2742 12       		.uleb128 0x12
 8065 2743 850A0000 		.4byte	.LASF566
 8066 2747 28       		.byte	0x28
 8067 2748 95       		.byte	0x95
 8068 2749 09090000 		.4byte	0x909
 8069 274d 0008     		.2byte	0x800
 8070 274f 12       		.uleb128 0x12
 8071 2750 B2150000 		.4byte	.LASF567
 8072 2754 28       		.byte	0x28
 8073 2755 96       		.byte	0x96
 8074 2756 09090000 		.4byte	0x909
 8075 275a 0408     		.2byte	0x804
 8076 275c 12       		.uleb128 0x12
 8077 275d F21B0000 		.4byte	.LASF568
 8078 2761 28       		.byte	0x28
 8079 2762 97       		.byte	0x97
 8080 2763 09090000 		.4byte	0x909
 8081 2767 0808     		.2byte	0x808
 8082 2769 12       		.uleb128 0x12
ARM GAS  /tmp/ccigORce.s 			page 143


 8083 276a 0A0B0000 		.4byte	.LASF569
 8084 276e 28       		.byte	0x28
 8085 276f 98       		.byte	0x98
 8086 2770 09090000 		.4byte	0x909
 8087 2774 0C08     		.2byte	0x80c
 8088 2776 12       		.uleb128 0x12
 8089 2777 D2080000 		.4byte	.LASF570
 8090 277b 28       		.byte	0x28
 8091 277c 99       		.byte	0x99
 8092 277d 09090000 		.4byte	0x909
 8093 2781 1008     		.2byte	0x810
 8094 2783 12       		.uleb128 0x12
 8095 2784 88060000 		.4byte	.LASF571
 8096 2788 28       		.byte	0x28
 8097 2789 9B       		.byte	0x9b
 8098 278a 09090000 		.4byte	0x909
 8099 278e 1408     		.2byte	0x814
 8100 2790 12       		.uleb128 0x12
 8101 2791 6C060000 		.4byte	.LASF572
 8102 2795 28       		.byte	0x28
 8103 2796 9D       		.byte	0x9d
 8104 2797 09090000 		.4byte	0x909
 8105 279b 1808     		.2byte	0x818
 8106 279d 12       		.uleb128 0x12
 8107 279e C4160000 		.4byte	.LASF573
 8108 27a2 28       		.byte	0x28
 8109 27a3 9F       		.byte	0x9f
 8110 27a4 09090000 		.4byte	0x909
 8111 27a8 1C08     		.2byte	0x81c
 8112 27aa 12       		.uleb128 0x12
 8113 27ab 05120000 		.4byte	.LASF574
 8114 27af 28       		.byte	0x28
 8115 27b0 A1       		.byte	0xa1
 8116 27b1 09090000 		.4byte	0x909
 8117 27b5 2008     		.2byte	0x820
 8118 27b7 12       		.uleb128 0x12
 8119 27b8 010B0000 		.4byte	.LASF575
 8120 27bc 28       		.byte	0x28
 8121 27bd A2       		.byte	0xa2
 8122 27be 09090000 		.4byte	0x909
 8123 27c2 2408     		.2byte	0x824
 8124 27c4 12       		.uleb128 0x12
 8125 27c5 FB160000 		.4byte	.LASF576
 8126 27c9 28       		.byte	0x28
 8127 27ca A3       		.byte	0xa3
 8128 27cb 09090000 		.4byte	0x909
 8129 27cf 2808     		.2byte	0x828
 8130 27d1 12       		.uleb128 0x12
 8131 27d2 180B0000 		.4byte	.LASF577
 8132 27d6 28       		.byte	0x28
 8133 27d7 A5       		.byte	0xa5
 8134 27d8 09090000 		.4byte	0x909
 8135 27dc 2C08     		.2byte	0x82c
 8136 27de 12       		.uleb128 0x12
 8137 27df 9E180000 		.4byte	.LASF578
 8138 27e3 28       		.byte	0x28
 8139 27e4 A7       		.byte	0xa7
ARM GAS  /tmp/ccigORce.s 			page 144


 8140 27e5 09090000 		.4byte	0x909
 8141 27e9 3008     		.2byte	0x830
 8142 27eb 12       		.uleb128 0x12
 8143 27ec A7190000 		.4byte	.LASF579
 8144 27f0 28       		.byte	0x28
 8145 27f1 A8       		.byte	0xa8
 8146 27f2 09090000 		.4byte	0x909
 8147 27f6 3408     		.2byte	0x834
 8148 27f8 12       		.uleb128 0x12
 8149 27f9 CE100000 		.4byte	.LASF580
 8150 27fd 28       		.byte	0x28
 8151 27fe AA       		.byte	0xaa
 8152 27ff 09090000 		.4byte	0x909
 8153 2803 3808     		.2byte	0x838
 8154 2805 12       		.uleb128 0x12
 8155 2806 30000000 		.4byte	.LASF581
 8156 280a 28       		.byte	0x28
 8157 280b AB       		.byte	0xab
 8158 280c 09090000 		.4byte	0x909
 8159 2810 3C08     		.2byte	0x83c
 8160 2812 12       		.uleb128 0x12
 8161 2813 9F120000 		.4byte	.LASF582
 8162 2817 28       		.byte	0x28
 8163 2818 AC       		.byte	0xac
 8164 2819 0F290000 		.4byte	0x290f
 8165 281d 4008     		.2byte	0x840
 8166 281f 12       		.uleb128 0x12
 8167 2820 C6050000 		.4byte	.LASF583
 8168 2824 28       		.byte	0x28
 8169 2825 AD       		.byte	0xad
 8170 2826 0F290000 		.4byte	0x290f
 8171 282a 8008     		.2byte	0x880
 8172 282c 12       		.uleb128 0x12
 8173 282d 711B0000 		.4byte	.LASF584
 8174 2831 28       		.byte	0x28
 8175 2832 AE       		.byte	0xae
 8176 2833 0F290000 		.4byte	0x290f
 8177 2837 C008     		.2byte	0x8c0
 8178 2839 29       		.uleb128 0x29
 8179 283a 696500   		.ascii	"ie\000"
 8180 283d 28       		.byte	0x28
 8181 283e AF       		.byte	0xaf
 8182 283f 14290000 		.4byte	0x2914
 8183 2843 0009     		.2byte	0x900
 8184 2845 29       		.uleb128 0x29
 8185 2846 6F6500   		.ascii	"oe\000"
 8186 2849 28       		.byte	0x28
 8187 284a B0       		.byte	0xb0
 8188 284b 24290000 		.4byte	0x2924
 8189 284f 000B     		.2byte	0xb00
 8190 2851 12       		.uleb128 0x12
 8191 2852 18150000 		.4byte	.LASF585
 8192 2856 28       		.byte	0x28
 8193 2857 B1       		.byte	0xb1
 8194 2858 FA280000 		.4byte	0x28fa
 8195 285c 000D     		.2byte	0xd00
 8196 285e 12       		.uleb128 0x12
ARM GAS  /tmp/ccigORce.s 			page 145


 8197 285f 810F0000 		.4byte	.LASF586
 8198 2863 28       		.byte	0x28
 8199 2864 B2       		.byte	0xb2
 8200 2865 09090000 		.4byte	0x909
 8201 2869 000E     		.2byte	0xe00
 8202 286b 12       		.uleb128 0x12
 8203 286c CB1A0000 		.4byte	.LASF587
 8204 2870 28       		.byte	0x28
 8205 2871 B4       		.byte	0xb4
 8206 2872 44290000 		.4byte	0x2944
 8207 2876 040E     		.2byte	0xe04
 8208 2878 12       		.uleb128 0x12
 8209 2879 82170000 		.4byte	.LASF588
 8210 287d 28       		.byte	0x28
 8211 287e B5       		.byte	0xb5
 8212 287f 60290000 		.4byte	0x2960
 8213 2883 0010     		.2byte	0x1000
 8214 2885 00       		.byte	0
 8215 2886 08       		.uleb128 0x8
 8216 2887 09090000 		.4byte	0x909
 8217 288b 96280000 		.4byte	0x2896
 8218 288f 09       		.uleb128 0x9
 8219 2890 0C010000 		.4byte	0x10c
 8220 2894 2F       		.byte	0x2f
 8221 2895 00       		.byte	0
 8222 2896 19       		.uleb128 0x19
 8223 2897 86280000 		.4byte	0x2886
 8224 289b 08       		.uleb128 0x8
 8225 289c 09090000 		.4byte	0x909
 8226 28a0 AB280000 		.4byte	0x28ab
 8227 28a4 09       		.uleb128 0x9
 8228 28a5 0C010000 		.4byte	0x10c
 8229 28a9 AF       		.byte	0xaf
 8230 28aa 00       		.byte	0
 8231 28ab 19       		.uleb128 0x19
 8232 28ac 9B280000 		.4byte	0x289b
 8233 28b0 08       		.uleb128 0x8
 8234 28b1 09090000 		.4byte	0x909
 8235 28b5 C0280000 		.4byte	0x28c0
 8236 28b9 09       		.uleb128 0x9
 8237 28ba 0C010000 		.4byte	0x10c
 8238 28be 08       		.byte	0x8
 8239 28bf 00       		.byte	0
 8240 28c0 19       		.uleb128 0x19
 8241 28c1 B0280000 		.4byte	0x28b0
 8242 28c5 08       		.uleb128 0x8
 8243 28c6 09090000 		.4byte	0x909
 8244 28ca D5280000 		.4byte	0x28d5
 8245 28ce 09       		.uleb128 0x9
 8246 28cf 0C010000 		.4byte	0x10c
 8247 28d3 2E       		.byte	0x2e
 8248 28d4 00       		.byte	0
 8249 28d5 19       		.uleb128 0x19
 8250 28d6 C5280000 		.4byte	0x28c5
 8251 28da 08       		.uleb128 0x8
 8252 28db B6240000 		.4byte	0x24b6
 8253 28df EA280000 		.4byte	0x28ea
ARM GAS  /tmp/ccigORce.s 			page 146


 8254 28e3 09       		.uleb128 0x9
 8255 28e4 0C010000 		.4byte	0x10c
 8256 28e8 0F       		.byte	0xf
 8257 28e9 00       		.byte	0
 8258 28ea 08       		.uleb128 0x8
 8259 28eb 09090000 		.4byte	0x909
 8260 28ef FA280000 		.4byte	0x28fa
 8261 28f3 09       		.uleb128 0x9
 8262 28f4 0C010000 		.4byte	0x10c
 8263 28f8 3F       		.byte	0x3f
 8264 28f9 00       		.byte	0
 8265 28fa 19       		.uleb128 0x19
 8266 28fb EA280000 		.4byte	0x28ea
 8267 28ff 08       		.uleb128 0x8
 8268 2900 09090000 		.4byte	0x909
 8269 2904 0F290000 		.4byte	0x290f
 8270 2908 09       		.uleb128 0x9
 8271 2909 0C010000 		.4byte	0x10c
 8272 290d 0F       		.byte	0xf
 8273 290e 00       		.byte	0
 8274 290f 19       		.uleb128 0x19
 8275 2910 FF280000 		.4byte	0x28ff
 8276 2914 08       		.uleb128 0x8
 8277 2915 2A250000 		.4byte	0x252a
 8278 2919 24290000 		.4byte	0x2924
 8279 291d 09       		.uleb128 0x9
 8280 291e 0C010000 		.4byte	0x10c
 8281 2922 0F       		.byte	0xf
 8282 2923 00       		.byte	0
 8283 2924 08       		.uleb128 0x8
 8284 2925 9E250000 		.4byte	0x259e
 8285 2929 34290000 		.4byte	0x2934
 8286 292d 09       		.uleb128 0x9
 8287 292e 0C010000 		.4byte	0x10c
 8288 2932 0F       		.byte	0xf
 8289 2933 00       		.byte	0
 8290 2934 08       		.uleb128 0x8
 8291 2935 09090000 		.4byte	0x909
 8292 2939 44290000 		.4byte	0x2944
 8293 293d 09       		.uleb128 0x9
 8294 293e 0C010000 		.4byte	0x10c
 8295 2942 7E       		.byte	0x7e
 8296 2943 00       		.byte	0
 8297 2944 19       		.uleb128 0x19
 8298 2945 34290000 		.4byte	0x2934
 8299 2949 08       		.uleb128 0x8
 8300 294a 09090000 		.4byte	0x909
 8301 294e 60290000 		.4byte	0x2960
 8302 2952 09       		.uleb128 0x9
 8303 2953 0C010000 		.4byte	0x10c
 8304 2957 0F       		.byte	0xf
 8305 2958 2A       		.uleb128 0x2a
 8306 2959 0C010000 		.4byte	0x10c
 8307 295d FF03     		.2byte	0x3ff
 8308 295f 00       		.byte	0
 8309 2960 19       		.uleb128 0x19
 8310 2961 49290000 		.4byte	0x2949
ARM GAS  /tmp/ccigORce.s 			page 147


 8311 2965 04       		.uleb128 0x4
 8312 2966 5F120000 		.4byte	.LASF589
 8313 296a 28       		.byte	0x28
 8314 296b B6       		.byte	0xb6
 8315 296c A9250000 		.4byte	0x25a9
 8316 2970 0A       		.uleb128 0xa
 8317 2971 0C       		.byte	0xc
 8318 2972 27       		.byte	0x27
 8319 2973 C6       		.byte	0xc6
 8320 2974 9D290000 		.4byte	0x299d
 8321 2978 0B       		.uleb128 0xb
 8322 2979 BE180000 		.4byte	.LASF590
 8323 297d 27       		.byte	0x27
 8324 297e C7       		.byte	0xc7
 8325 297f FE080000 		.4byte	0x8fe
 8326 2983 00       		.byte	0
 8327 2984 0B       		.uleb128 0xb
 8328 2985 24170000 		.4byte	.LASF591
 8329 2989 27       		.byte	0x27
 8330 298a C8       		.byte	0xc8
 8331 298b FE080000 		.4byte	0x8fe
 8332 298f 04       		.byte	0x4
 8333 2990 0B       		.uleb128 0xb
 8334 2991 A1110000 		.4byte	.LASF592
 8335 2995 27       		.byte	0x27
 8336 2996 C9       		.byte	0xc9
 8337 2997 FE080000 		.4byte	0x8fe
 8338 299b 08       		.byte	0x8
 8339 299c 00       		.byte	0
 8340 299d 04       		.uleb128 0x4
 8341 299e 46050000 		.4byte	.LASF593
 8342 29a2 27       		.byte	0x27
 8343 29a3 CA       		.byte	0xca
 8344 29a4 70290000 		.4byte	0x2970
 8345 29a8 0E       		.uleb128 0xe
 8346 29a9 9D290000 		.4byte	0x299d
 8347 29ad 0A       		.uleb128 0xa
 8348 29ae 04       		.byte	0x4
 8349 29af 27       		.byte	0x27
 8350 29b0 DD       		.byte	0xdd
 8351 29b1 C2290000 		.4byte	0x29c2
 8352 29b5 0B       		.uleb128 0xb
 8353 29b6 43060000 		.4byte	.LASF594
 8354 29ba 27       		.byte	0x27
 8355 29bb E1       		.byte	0xe1
 8356 29bc 31160000 		.4byte	0x1631
 8357 29c0 00       		.byte	0
 8358 29c1 00       		.byte	0
 8359 29c2 0A       		.uleb128 0xa
 8360 29c3 04       		.byte	0x4
 8361 29c4 27       		.byte	0x27
 8362 29c5 E3       		.byte	0xe3
 8363 29c6 D7290000 		.4byte	0x29d7
 8364 29ca 0B       		.uleb128 0xb
 8365 29cb 3D190000 		.4byte	.LASF595
 8366 29cf 27       		.byte	0x27
 8367 29d0 E7       		.byte	0xe7
ARM GAS  /tmp/ccigORce.s 			page 148


 8368 29d1 D7290000 		.4byte	0x29d7
 8369 29d5 00       		.byte	0
 8370 29d6 00       		.byte	0
 8371 29d7 0D       		.uleb128 0xd
 8372 29d8 04       		.byte	0x4
 8373 29d9 0D160000 		.4byte	0x160d
 8374 29dd 06       		.uleb128 0x6
 8375 29de 04       		.byte	0x4
 8376 29df 27       		.byte	0x27
 8377 29e0 DC       		.byte	0xdc
 8378 29e1 FC290000 		.4byte	0x29fc
 8379 29e5 07       		.uleb128 0x7
 8380 29e6 580B0000 		.4byte	.LASF596
 8381 29ea 27       		.byte	0x27
 8382 29eb E2       		.byte	0xe2
 8383 29ec AD290000 		.4byte	0x29ad
 8384 29f0 07       		.uleb128 0x7
 8385 29f1 2A000000 		.4byte	.LASF597
 8386 29f5 27       		.byte	0x27
 8387 29f6 E8       		.byte	0xe8
 8388 29f7 C2290000 		.4byte	0x29c2
 8389 29fb 00       		.byte	0
 8390 29fc 0A       		.uleb128 0xa
 8391 29fd 14       		.byte	0x14
 8392 29fe 27       		.byte	0x27
 8393 29ff CF       		.byte	0xcf
 8394 2a00 412A0000 		.4byte	0x2a41
 8395 2a04 0B       		.uleb128 0xb
 8396 2a05 051A0000 		.4byte	.LASF598
 8397 2a09 27       		.byte	0x27
 8398 2a0a D3       		.byte	0xd3
 8399 2a0b 8E170000 		.4byte	0x178e
 8400 2a0f 00       		.byte	0
 8401 2a10 0B       		.uleb128 0xb
 8402 2a11 E30E0000 		.4byte	.LASF599
 8403 2a15 27       		.byte	0x27
 8404 2a16 D7       		.byte	0xd7
 8405 2a17 2F000000 		.4byte	0x2f
 8406 2a1b 04       		.byte	0x4
 8407 2a1c 0B       		.uleb128 0xb
 8408 2a1d A70C0000 		.4byte	.LASF600
 8409 2a21 27       		.byte	0x27
 8410 2a22 DB       		.byte	0xdb
 8411 2a23 2F000000 		.4byte	0x2f
 8412 2a27 08       		.byte	0x8
 8413 2a28 0B       		.uleb128 0xb
 8414 2a29 D4180000 		.4byte	.LASF426
 8415 2a2d 27       		.byte	0x27
 8416 2a2e E9       		.byte	0xe9
 8417 2a2f DD290000 		.4byte	0x29dd
 8418 2a33 0C       		.byte	0xc
 8419 2a34 0B       		.uleb128 0xb
 8420 2a35 420C0000 		.4byte	.LASF601
 8421 2a39 27       		.byte	0x27
 8422 2a3a ED       		.byte	0xed
 8423 2a3b 2F000000 		.4byte	0x2f
 8424 2a3f 10       		.byte	0x10
ARM GAS  /tmp/ccigORce.s 			page 149


 8425 2a40 00       		.byte	0
 8426 2a41 04       		.uleb128 0x4
 8427 2a42 E80A0000 		.4byte	.LASF602
 8428 2a46 27       		.byte	0x27
 8429 2a47 EE       		.byte	0xee
 8430 2a48 FC290000 		.4byte	0x29fc
 8431 2a4c 1B       		.uleb128 0x1b
 8432 2a4d 04       		.byte	0x4
 8433 2a4e 27       		.byte	0x27
 8434 2a4f 0101     		.2byte	0x101
 8435 2a51 632A0000 		.4byte	0x2a63
 8436 2a55 17       		.uleb128 0x17
 8437 2a56 75140000 		.4byte	.LASF603
 8438 2a5a 27       		.byte	0x27
 8439 2a5b 0501     		.2byte	0x105
 8440 2a5d FC150000 		.4byte	0x15fc
 8441 2a61 00       		.byte	0
 8442 2a62 00       		.byte	0
 8443 2a63 1B       		.uleb128 0x1b
 8444 2a64 04       		.byte	0x4
 8445 2a65 27       		.byte	0x27
 8446 2a66 0701     		.2byte	0x107
 8447 2a68 7A2A0000 		.4byte	0x2a7a
 8448 2a6c 17       		.uleb128 0x17
 8449 2a6d 89160000 		.4byte	.LASF604
 8450 2a71 27       		.byte	0x27
 8451 2a72 0B01     		.2byte	0x10b
 8452 2a74 7A2A0000 		.4byte	0x2a7a
 8453 2a78 00       		.byte	0
 8454 2a79 00       		.byte	0
 8455 2a7a 0D       		.uleb128 0xd
 8456 2a7b 04       		.byte	0x4
 8457 2a7c 02160000 		.4byte	0x1602
 8458 2a80 1C       		.uleb128 0x1c
 8459 2a81 04       		.byte	0x4
 8460 2a82 27       		.byte	0x27
 8461 2a83 0001     		.2byte	0x100
 8462 2a85 A22A0000 		.4byte	0x2aa2
 8463 2a89 1D       		.uleb128 0x1d
 8464 2a8a 580B0000 		.4byte	.LASF596
 8465 2a8e 27       		.byte	0x27
 8466 2a8f 0601     		.2byte	0x106
 8467 2a91 4C2A0000 		.4byte	0x2a4c
 8468 2a95 1D       		.uleb128 0x1d
 8469 2a96 2A000000 		.4byte	.LASF597
 8470 2a9a 27       		.byte	0x27
 8471 2a9b 0C01     		.2byte	0x10c
 8472 2a9d 632A0000 		.4byte	0x2a63
 8473 2aa1 00       		.byte	0
 8474 2aa2 0A       		.uleb128 0xa
 8475 2aa3 14       		.byte	0x14
 8476 2aa4 27       		.byte	0x27
 8477 2aa5 F3       		.byte	0xf3
 8478 2aa6 E92A0000 		.4byte	0x2ae9
 8479 2aaa 0B       		.uleb128 0xb
 8480 2aab 18160000 		.4byte	.LASF605
 8481 2aaf 27       		.byte	0x27
ARM GAS  /tmp/ccigORce.s 			page 150


 8482 2ab0 F7       		.byte	0xf7
 8483 2ab1 8E170000 		.4byte	0x178e
 8484 2ab5 00       		.byte	0
 8485 2ab6 0B       		.uleb128 0xb
 8486 2ab7 7B070000 		.4byte	.LASF606
 8487 2abb 27       		.byte	0x27
 8488 2abc FB       		.byte	0xfb
 8489 2abd 2F000000 		.4byte	0x2f
 8490 2ac1 04       		.byte	0x4
 8491 2ac2 0B       		.uleb128 0xb
 8492 2ac3 880E0000 		.4byte	.LASF607
 8493 2ac7 27       		.byte	0x27
 8494 2ac8 FF       		.byte	0xff
 8495 2ac9 2F000000 		.4byte	0x2f
 8496 2acd 08       		.byte	0x8
 8497 2ace 17       		.uleb128 0x17
 8498 2acf D4180000 		.4byte	.LASF426
 8499 2ad3 27       		.byte	0x27
 8500 2ad4 0D01     		.2byte	0x10d
 8501 2ad6 802A0000 		.4byte	0x2a80
 8502 2ada 0C       		.byte	0xc
 8503 2adb 17       		.uleb128 0x17
 8504 2adc 420C0000 		.4byte	.LASF601
 8505 2ae0 27       		.byte	0x27
 8506 2ae1 1101     		.2byte	0x111
 8507 2ae3 2F000000 		.4byte	0x2f
 8508 2ae7 10       		.byte	0x10
 8509 2ae8 00       		.byte	0
 8510 2ae9 05       		.uleb128 0x5
 8511 2aea D5030000 		.4byte	.LASF608
 8512 2aee 27       		.byte	0x27
 8513 2aef 1201     		.2byte	0x112
 8514 2af1 A22A0000 		.4byte	0x2aa2
 8515 2af5 1B       		.uleb128 0x1b
 8516 2af6 24       		.byte	0x24
 8517 2af7 27       		.byte	0x27
 8518 2af8 1801     		.2byte	0x118
 8519 2afa 812B0000 		.4byte	0x2b81
 8520 2afe 17       		.uleb128 0x17
 8521 2aff 78030000 		.4byte	.LASF609
 8522 2b03 27       		.byte	0x27
 8523 2b04 1C01     		.2byte	0x11c
 8524 2b06 FE080000 		.4byte	0x8fe
 8525 2b0a 00       		.byte	0
 8526 2b0b 17       		.uleb128 0x17
 8527 2b0c FB090000 		.4byte	.LASF610
 8528 2b10 27       		.byte	0x27
 8529 2b11 2701     		.2byte	0x127
 8530 2b13 B2230000 		.4byte	0x23b2
 8531 2b17 04       		.byte	0x4
 8532 2b18 17       		.uleb128 0x17
 8533 2b19 200A0000 		.4byte	.LASF611
 8534 2b1d 27       		.byte	0x27
 8535 2b1e 2D01     		.2byte	0x12d
 8536 2b20 B2230000 		.4byte	0x23b2
 8537 2b24 08       		.byte	0x8
 8538 2b25 17       		.uleb128 0x17
ARM GAS  /tmp/ccigORce.s 			page 151


 8539 2b26 4B130000 		.4byte	.LASF612
 8540 2b2a 27       		.byte	0x27
 8541 2b2b 3301     		.2byte	0x133
 8542 2b2d B2230000 		.4byte	0x23b2
 8543 2b31 0C       		.byte	0xc
 8544 2b32 17       		.uleb128 0x17
 8545 2b33 9B130000 		.4byte	.LASF613
 8546 2b37 27       		.byte	0x27
 8547 2b38 3901     		.2byte	0x139
 8548 2b3a E3080000 		.4byte	0x8e3
 8549 2b3e 10       		.byte	0x10
 8550 2b3f 17       		.uleb128 0x17
 8551 2b40 4F1B0000 		.4byte	.LASF614
 8552 2b44 27       		.byte	0x27
 8553 2b45 3F01     		.2byte	0x13f
 8554 2b47 E3080000 		.4byte	0x8e3
 8555 2b4b 12       		.byte	0x12
 8556 2b4c 17       		.uleb128 0x17
 8557 2b4d 490F0000 		.4byte	.LASF615
 8558 2b51 27       		.byte	0x27
 8559 2b52 4401     		.2byte	0x144
 8560 2b54 812B0000 		.4byte	0x2b81
 8561 2b58 14       		.byte	0x14
 8562 2b59 17       		.uleb128 0x17
 8563 2b5a D5130000 		.4byte	.LASF616
 8564 2b5e 27       		.byte	0x27
 8565 2b5f 4901     		.2byte	0x149
 8566 2b61 872B0000 		.4byte	0x2b87
 8567 2b65 18       		.byte	0x18
 8568 2b66 17       		.uleb128 0x17
 8569 2b67 C70D0000 		.4byte	.LASF617
 8570 2b6b 27       		.byte	0x27
 8571 2b6c 5001     		.2byte	0x150
 8572 2b6e E3080000 		.4byte	0x8e3
 8573 2b72 1C       		.byte	0x1c
 8574 2b73 17       		.uleb128 0x17
 8575 2b74 A8120000 		.4byte	.LASF618
 8576 2b78 27       		.byte	0x27
 8577 2b79 5601     		.2byte	0x156
 8578 2b7b FC150000 		.4byte	0x15fc
 8579 2b7f 20       		.byte	0x20
 8580 2b80 00       		.byte	0
 8581 2b81 0D       		.uleb128 0xd
 8582 2b82 04       		.byte	0x4
 8583 2b83 412A0000 		.4byte	0x2a41
 8584 2b87 0D       		.uleb128 0xd
 8585 2b88 04       		.byte	0x4
 8586 2b89 E92A0000 		.4byte	0x2ae9
 8587 2b8d 05       		.uleb128 0x5
 8588 2b8e C8150000 		.4byte	.LASF619
 8589 2b92 27       		.byte	0x27
 8590 2b93 5701     		.2byte	0x157
 8591 2b95 F52A0000 		.4byte	0x2af5
 8592 2b99 0E       		.uleb128 0xe
 8593 2b9a 8D2B0000 		.4byte	0x2b8d
 8594 2b9e 1B       		.uleb128 0x1b
 8595 2b9f 10       		.byte	0x10
ARM GAS  /tmp/ccigORce.s 			page 152


 8596 2ba0 27       		.byte	0x27
 8597 2ba1 5C01     		.2byte	0x15c
 8598 2ba3 DC2B0000 		.4byte	0x2bdc
 8599 2ba7 17       		.uleb128 0x17
 8600 2ba8 AB0F0000 		.4byte	.LASF620
 8601 2bac 27       		.byte	0x27
 8602 2bad 6101     		.2byte	0x161
 8603 2baf D4230000 		.4byte	0x23d4
 8604 2bb3 00       		.byte	0
 8605 2bb4 17       		.uleb128 0x17
 8606 2bb5 33100000 		.4byte	.LASF621
 8607 2bb9 27       		.byte	0x27
 8608 2bba 6601     		.2byte	0x166
 8609 2bbc 17240000 		.4byte	0x2417
 8610 2bc0 04       		.byte	0x4
 8611 2bc1 17       		.uleb128 0x17
 8612 2bc2 B6080000 		.4byte	.LASF622
 8613 2bc6 27       		.byte	0x27
 8614 2bc7 6C01     		.2byte	0x16c
 8615 2bc9 F6230000 		.4byte	0x23f6
 8616 2bcd 08       		.byte	0x8
 8617 2bce 17       		.uleb128 0x17
 8618 2bcf BD1A0000 		.4byte	.LASF623
 8619 2bd3 27       		.byte	0x27
 8620 2bd4 7001     		.2byte	0x170
 8621 2bd6 8F230000 		.4byte	0x238f
 8622 2bda 0C       		.byte	0xc
 8623 2bdb 00       		.byte	0
 8624 2bdc 05       		.uleb128 0x5
 8625 2bdd E8110000 		.4byte	.LASF624
 8626 2be1 27       		.byte	0x27
 8627 2be2 7201     		.2byte	0x172
 8628 2be4 9E2B0000 		.4byte	0x2b9e
 8629 2be8 0E       		.uleb128 0xe
 8630 2be9 DC2B0000 		.4byte	0x2bdc
 8631 2bed 0D       		.uleb128 0xd
 8632 2bee 04       		.byte	0x4
 8633 2bef E82B0000 		.4byte	0x2be8
 8634 2bf3 08       		.uleb128 0x8
 8635 2bf4 032C0000 		.4byte	0x2c03
 8636 2bf8 032C0000 		.4byte	0x2c03
 8637 2bfc 09       		.uleb128 0x9
 8638 2bfd 0C010000 		.4byte	0x10c
 8639 2c01 03       		.byte	0x3
 8640 2c02 00       		.byte	0
 8641 2c03 0D       		.uleb128 0xd
 8642 2c04 04       		.byte	0x4
 8643 2c05 992B0000 		.4byte	0x2b99
 8644 2c09 08       		.uleb128 0x8
 8645 2c0a 4A010000 		.4byte	0x14a
 8646 2c0e 192C0000 		.4byte	0x2c19
 8647 2c12 09       		.uleb128 0x9
 8648 2c13 0C010000 		.4byte	0x10c
 8649 2c17 02       		.byte	0x2
 8650 2c18 00       		.byte	0
 8651 2c19 08       		.uleb128 0x8
 8652 2c1a D3080000 		.4byte	0x8d3
ARM GAS  /tmp/ccigORce.s 			page 153


 8653 2c1e 292C0000 		.4byte	0x2c29
 8654 2c22 09       		.uleb128 0x9
 8655 2c23 0C010000 		.4byte	0x10c
 8656 2c27 07       		.byte	0x7
 8657 2c28 00       		.byte	0
 8658 2c29 0D       		.uleb128 0xd
 8659 2c2a 04       		.byte	0x4
 8660 2c2b 65290000 		.4byte	0x2965
 8661 2c2f 0D       		.uleb128 0xd
 8662 2c30 04       		.byte	0x4
 8663 2c31 A8290000 		.4byte	0x29a8
 8664 2c35 08       		.uleb128 0x8
 8665 2c36 04110000 		.4byte	0x1104
 8666 2c3a 452C0000 		.4byte	0x2c45
 8667 2c3e 09       		.uleb128 0x9
 8668 2c3f 0C010000 		.4byte	0x10c
 8669 2c43 28       		.byte	0x28
 8670 2c44 00       		.byte	0
 8671 2c45 20       		.uleb128 0x20
 8672 2c46 94170000 		.4byte	.LASF625
 8673 2c4a 27       		.byte	0x27
 8674 2c4b 0602     		.2byte	0x206
 8675 2c4d 32210000 		.4byte	0x2132
 8676 2c51 2B       		.uleb128 0x2b
 8677 2c52 452C0000 		.4byte	0x2c45
 8678 2c56 01       		.byte	0x1
 8679 2c57 2E       		.byte	0x2e
 8680 2c58 05       		.uleb128 0x5
 8681 2c59 03       		.byte	0x3
 8682 2c5a 00000000 		.4byte	USBD1
 8683 2c5e 06       		.uleb128 0x6
 8684 2c5f 14       		.byte	0x14
 8685 2c60 01       		.byte	0x1
 8686 2c61 3F       		.byte	0x3f
 8687 2c62 7C2C0000 		.4byte	0x2c7c
 8688 2c66 24       		.uleb128 0x24
 8689 2c67 696E00   		.ascii	"in\000"
 8690 2c6a 01       		.byte	0x1
 8691 2c6b 43       		.byte	0x43
 8692 2c6c 412A0000 		.4byte	0x2a41
 8693 2c70 24       		.uleb128 0x24
 8694 2c71 6F757400 		.ascii	"out\000"
 8695 2c75 01       		.byte	0x1
 8696 2c76 47       		.byte	0x47
 8697 2c77 E92A0000 		.4byte	0x2ae9
 8698 2c7b 00       		.byte	0
 8699 2c7c 2C       		.uleb128 0x2c
 8700 2c7d 82070000 		.4byte	.LASF626
 8701 2c81 01       		.byte	0x1
 8702 2c82 48       		.byte	0x48
 8703 2c83 5E2C0000 		.4byte	0x2c5e
 8704 2c87 05       		.uleb128 0x5
 8705 2c88 03       		.byte	0x3
 8706 2c89 00000000 		.4byte	ep0_state
 8707 2c8d 2C       		.uleb128 0x2c
 8708 2c8e 2C030000 		.4byte	.LASF627
 8709 2c92 01       		.byte	0x1
ARM GAS  /tmp/ccigORce.s 			page 154


 8710 2c93 4D       		.byte	0x4d
 8711 2c94 192C0000 		.4byte	0x2c19
 8712 2c98 05       		.uleb128 0x5
 8713 2c99 03       		.byte	0x3
 8714 2c9a 00000000 		.4byte	ep0setup_buffer
 8715 2c9e 2C       		.uleb128 0x2c
 8716 2c9f 2C130000 		.4byte	.LASF628
 8717 2ca3 01       		.byte	0x1
 8718 2ca4 52       		.byte	0x52
 8719 2ca5 992B0000 		.4byte	0x2b99
 8720 2ca9 05       		.uleb128 0x5
 8721 2caa 03       		.byte	0x3
 8722 2cab 00000000 		.4byte	ep0config
 8723 2caf 2C       		.uleb128 0x2c
 8724 2cb0 C60E0000 		.4byte	.LASF629
 8725 2cb4 01       		.byte	0x1
 8726 2cb5 60       		.byte	0x60
 8727 2cb6 A8290000 		.4byte	0x29a8
 8728 2cba 05       		.uleb128 0x5
 8729 2cbb 03       		.byte	0x3
 8730 2cbc 00000000 		.4byte	fsparams
 8731 2cc0 2D       		.uleb128 0x2d
 8732 2cc1 2F140000 		.4byte	.LASF633
 8733 2cc5 01       		.byte	0x1
 8734 2cc6 0E05     		.2byte	0x50e
 8735 2cc8 00000000 		.4byte	.LFB294
 8736 2ccc 8E030000 		.4byte	.LFE294-.LFB294
 8737 2cd0 01       		.uleb128 0x1
 8738 2cd1 9C       		.byte	0x9c
 8739 2cd2 52340000 		.4byte	0x3452
 8740 2cd6 2E       		.uleb128 0x2e
 8741 2cd7 7000     		.ascii	"p\000"
 8742 2cd9 01       		.byte	0x1
 8743 2cda 0E05     		.2byte	0x50e
 8744 2cdc 4A010000 		.4byte	0x14a
 8745 2ce0 00000000 		.4byte	.LLST0
 8746 2ce4 2F       		.uleb128 0x2f
 8747 2ce5 030E0000 		.4byte	.LASF630
 8748 2ce9 01       		.byte	0x1
 8749 2cea 0F05     		.2byte	0x50f
 8750 2cec AC230000 		.4byte	0x23ac
 8751 2cf0 1E000000 		.4byte	.LLST1
 8752 2cf4 2F       		.uleb128 0x2f
 8753 2cf5 3C170000 		.4byte	.LASF631
 8754 2cf9 01       		.byte	0x1
 8755 2cfa 1005     		.2byte	0x510
 8756 2cfc 292C0000 		.4byte	0x2c29
 8757 2d00 3C000000 		.4byte	.LLST2
 8758 2d04 30       		.uleb128 0x30
 8759 2d05 20000000 		.4byte	.LBB423
 8760 2d09 6E030000 		.4byte	.LBE423-.LBB423
 8761 2d0d 04340000 		.4byte	0x3404
 8762 2d11 31       		.uleb128 0x31
 8763 2d12 657000   		.ascii	"ep\000"
 8764 2d15 01       		.byte	0x1
 8765 2d16 1705     		.2byte	0x517
 8766 2d18 69220000 		.4byte	0x2269
ARM GAS  /tmp/ccigORce.s 			page 155


 8767 2d1c 5A000000 		.4byte	.LLST4
 8768 2d20 2F       		.uleb128 0x2f
 8769 2d21 C3090000 		.4byte	.LASF632
 8770 2d25 01       		.byte	0x1
 8771 2d26 1805     		.2byte	0x518
 8772 2d28 FE080000 		.4byte	0x8fe
 8773 2d2c 79000000 		.4byte	.LLST5
 8774 2d30 30       		.uleb128 0x30
 8775 2d31 C0010000 		.4byte	.LBB478
 8776 2d35 CE010000 		.4byte	.LBE478-.LBB478
 8777 2d39 DB300000 		.4byte	0x30db
 8778 2d3d 32       		.uleb128 0x32
 8779 2d3e DC0A0000 		.4byte	.LASF655
 8780 2d42 01       		.byte	0x1
 8781 2d43 2C05     		.2byte	0x52c
 8782 2d45 8E170000 		.4byte	0x178e
 8783 2d49 33       		.uleb128 0x33
 8784 2d4a 1B430000 		.4byte	0x431b
 8785 2d4e C0010000 		.4byte	.LBB479
 8786 2d52 06000000 		.4byte	.LBE479-.LBB479
 8787 2d56 01       		.byte	0x1
 8788 2d57 2E05     		.2byte	0x52e
 8789 2d59 9A2D0000 		.4byte	0x2d9a
 8790 2d5d 34       		.uleb128 0x34
 8791 2d5e 8E430000 		.4byte	0x438e
 8792 2d62 C0010000 		.4byte	.LBB480
 8793 2d66 06000000 		.4byte	.LBE480-.LBB480
 8794 2d6a 03       		.byte	0x3
 8795 2d6b BF01     		.2byte	0x1bf
 8796 2d6d 34       		.uleb128 0x34
 8797 2d6e B2430000 		.4byte	0x43b2
 8798 2d72 C0010000 		.4byte	.LBB481
 8799 2d76 06000000 		.4byte	.LBE481-.LBB481
 8800 2d7a 29       		.byte	0x29
 8801 2d7b 5C01     		.2byte	0x15c
 8802 2d7d 34       		.uleb128 0x34
 8803 2d7e BB430000 		.4byte	0x43bb
 8804 2d82 C0010000 		.4byte	.LBB482
 8805 2d86 06000000 		.4byte	.LBE482-.LBB482
 8806 2d8a 12       		.byte	0x12
 8807 2d8b BF01     		.2byte	0x1bf
 8808 2d8d 35       		.uleb128 0x35
 8809 2d8e C8430000 		.4byte	0x43c8
 8810 2d92 AF000000 		.4byte	.LLST34
 8811 2d96 00       		.byte	0
 8812 2d97 00       		.byte	0
 8813 2d98 00       		.byte	0
 8814 2d99 00       		.byte	0
 8815 2d9a 33       		.uleb128 0x33
 8816 2d9b 12430000 		.4byte	0x4312
 8817 2d9f E0010000 		.4byte	.LBB484
 8818 2da3 08000000 		.4byte	.LBE484-.LBB484
 8819 2da7 01       		.byte	0x1
 8820 2da8 3805     		.2byte	0x538
 8821 2daa FA2D0000 		.4byte	0x2dfa
 8822 2dae 34       		.uleb128 0x34
 8823 2daf 73430000 		.4byte	0x4373
ARM GAS  /tmp/ccigORce.s 			page 156


 8824 2db3 E0010000 		.4byte	.LBB485
 8825 2db7 08000000 		.4byte	.LBE485-.LBB485
 8826 2dbb 03       		.byte	0x3
 8827 2dbc CA01     		.2byte	0x1ca
 8828 2dbe 36       		.uleb128 0x36
 8829 2dbf E0010000 		.4byte	.LBB486
 8830 2dc3 08000000 		.4byte	.LBE486-.LBB486
 8831 2dc7 37       		.uleb128 0x37
 8832 2dc8 80430000 		.4byte	0x4380
 8833 2dcc 34       		.uleb128 0x34
 8834 2dcd A9430000 		.4byte	0x43a9
 8835 2dd1 E0010000 		.4byte	.LBB487
 8836 2dd5 08000000 		.4byte	.LBE487-.LBB487
 8837 2dd9 29       		.byte	0x29
 8838 2dda 7301     		.2byte	0x173
 8839 2ddc 34       		.uleb128 0x34
 8840 2ddd BB430000 		.4byte	0x43bb
 8841 2de1 E0010000 		.4byte	.LBB488
 8842 2de5 08000000 		.4byte	.LBE488-.LBB488
 8843 2de9 12       		.byte	0x12
 8844 2dea CD01     		.2byte	0x1cd
 8845 2dec 35       		.uleb128 0x35
 8846 2ded C8430000 		.4byte	0x43c8
 8847 2df1 C4000000 		.4byte	.LLST35
 8848 2df5 00       		.byte	0
 8849 2df6 00       		.byte	0
 8850 2df7 00       		.byte	0
 8851 2df8 00       		.byte	0
 8852 2df9 00       		.byte	0
 8853 2dfa 38       		.uleb128 0x38
 8854 2dfb 1D3F0000 		.4byte	0x3f1d
 8855 2dff E8010000 		.4byte	.LBB490
 8856 2e03 A8000000 		.4byte	.Ldebug_ranges0+0xa8
 8857 2e07 01       		.byte	0x1
 8858 2e08 3A05     		.2byte	0x53a
 8859 2e0a 2D300000 		.4byte	0x302d
 8860 2e0e 35       		.uleb128 0x35
 8861 2e0f 3A3F0000 		.4byte	0x3f3a
 8862 2e13 D8000000 		.4byte	.LLST36
 8863 2e17 35       		.uleb128 0x35
 8864 2e18 2E3F0000 		.4byte	0x3f2e
 8865 2e1c F6000000 		.4byte	.LLST37
 8866 2e20 39       		.uleb128 0x39
 8867 2e21 A8000000 		.4byte	.Ldebug_ranges0+0xa8
 8868 2e25 3A       		.uleb128 0x3a
 8869 2e26 463F0000 		.4byte	0x3f46
 8870 2e2a 14010000 		.4byte	.LLST38
 8871 2e2e 38       		.uleb128 0x38
 8872 2e2f 8E400000 		.4byte	0x408e
 8873 2e33 22020000 		.4byte	.LBB492
 8874 2e37 C0000000 		.4byte	.Ldebug_ranges0+0xc0
 8875 2e3b 01       		.byte	0x1
 8876 2e3c FB01     		.2byte	0x1fb
 8877 2e3e D32F0000 		.4byte	0x2fd3
 8878 2e42 35       		.uleb128 0x35
 8879 2e43 B3400000 		.4byte	0x40b3
 8880 2e47 48010000 		.4byte	.LLST39
ARM GAS  /tmp/ccigORce.s 			page 157


 8881 2e4b 35       		.uleb128 0x35
 8882 2e4c A7400000 		.4byte	0x40a7
 8883 2e50 5B010000 		.4byte	.LLST40
 8884 2e54 35       		.uleb128 0x35
 8885 2e55 9B400000 		.4byte	0x409b
 8886 2e59 79010000 		.4byte	.LLST41
 8887 2e5d 39       		.uleb128 0x39
 8888 2e5e C0000000 		.4byte	.Ldebug_ranges0+0xc0
 8889 2e62 3A       		.uleb128 0x3a
 8890 2e63 BD400000 		.4byte	0x40bd
 8891 2e67 8C010000 		.4byte	.LLST42
 8892 2e6b 38       		.uleb128 0x38
 8893 2e6c 6D420000 		.4byte	0x426d
 8894 2e70 22020000 		.4byte	.LBB494
 8895 2e74 D8000000 		.4byte	.Ldebug_ranges0+0xd8
 8896 2e78 01       		.byte	0x1
 8897 2e79 3701     		.2byte	0x137
 8898 2e7b A12E0000 		.4byte	0x2ea1
 8899 2e7f 35       		.uleb128 0x35
 8900 2e80 86420000 		.4byte	0x4286
 8901 2e84 CD010000 		.4byte	.LLST43
 8902 2e88 35       		.uleb128 0x35
 8903 2e89 7A420000 		.4byte	0x427a
 8904 2e8d E1010000 		.4byte	.LLST44
 8905 2e91 3B       		.uleb128 0x3b
 8906 2e92 08030000 		.4byte	.LVL104
 8907 2e96 02480000 		.4byte	0x4802
 8908 2e9a 3C       		.uleb128 0x3c
 8909 2e9b 01       		.uleb128 0x1
 8910 2e9c 51       		.byte	0x51
 8911 2e9d 01       		.uleb128 0x1
 8912 2e9e 30       		.byte	0x30
 8913 2e9f 00       		.byte	0
 8914 2ea0 00       		.byte	0
 8915 2ea1 3D       		.uleb128 0x3d
 8916 2ea2 F0000000 		.4byte	.Ldebug_ranges0+0xf0
 8917 2ea6 062F0000 		.4byte	0x2f06
 8918 2eaa 3A       		.uleb128 0x3a
 8919 2eab CA400000 		.4byte	0x40ca
 8920 2eaf F4010000 		.4byte	.LLST45
 8921 2eb3 3A       		.uleb128 0x3a
 8922 2eb4 D4400000 		.4byte	0x40d4
 8923 2eb8 29020000 		.4byte	.LLST46
 8924 2ebc 3A       		.uleb128 0x3a
 8925 2ebd DE400000 		.4byte	0x40de
 8926 2ec1 3D020000 		.4byte	.LLST47
 8927 2ec5 39       		.uleb128 0x39
 8928 2ec6 08010000 		.4byte	.Ldebug_ranges0+0x108
 8929 2eca 3A       		.uleb128 0x3a
 8930 2ecb EA400000 		.4byte	0x40ea
 8931 2ecf 80020000 		.4byte	.LLST48
 8932 2ed3 3A       		.uleb128 0x3a
 8933 2ed4 F6400000 		.4byte	0x40f6
 8934 2ed8 F5020000 		.4byte	.LLST49
 8935 2edc 3E       		.uleb128 0x3e
 8936 2edd 31410000 		.4byte	0x4131
 8937 2ee1 D8020000 		.4byte	.LBB499
ARM GAS  /tmp/ccigORce.s 			page 158


 8938 2ee5 28010000 		.4byte	.Ldebug_ranges0+0x128
 8939 2ee9 01       		.byte	0x1
 8940 2eea 1B01     		.2byte	0x11b
 8941 2eec 35       		.uleb128 0x35
 8942 2eed 57410000 		.4byte	0x4157
 8943 2ef1 34030000 		.4byte	.LLST50
 8944 2ef5 35       		.uleb128 0x35
 8945 2ef6 4C410000 		.4byte	0x414c
 8946 2efa 52030000 		.4byte	.LLST51
 8947 2efe 3F       		.uleb128 0x3f
 8948 2eff 41410000 		.4byte	0x4141
 8949 2f03 00       		.byte	0
 8950 2f04 00       		.byte	0
 8951 2f05 00       		.byte	0
 8952 2f06 33       		.uleb128 0x33
 8953 2f07 1B430000 		.4byte	0x431b
 8954 2f0b F6020000 		.4byte	.LBB507
 8955 2f0f 06000000 		.4byte	.LBE507-.LBB507
 8956 2f13 01       		.byte	0x1
 8957 2f14 3501     		.2byte	0x135
 8958 2f16 572F0000 		.4byte	0x2f57
 8959 2f1a 34       		.uleb128 0x34
 8960 2f1b 8E430000 		.4byte	0x438e
 8961 2f1f F6020000 		.4byte	.LBB508
 8962 2f23 06000000 		.4byte	.LBE508-.LBB508
 8963 2f27 03       		.byte	0x3
 8964 2f28 BF01     		.2byte	0x1bf
 8965 2f2a 34       		.uleb128 0x34
 8966 2f2b B2430000 		.4byte	0x43b2
 8967 2f2f F6020000 		.4byte	.LBB509
 8968 2f33 06000000 		.4byte	.LBE509-.LBB509
 8969 2f37 29       		.byte	0x29
 8970 2f38 5C01     		.2byte	0x15c
 8971 2f3a 34       		.uleb128 0x34
 8972 2f3b BB430000 		.4byte	0x43bb
 8973 2f3f F6020000 		.4byte	.LBB510
 8974 2f43 06000000 		.4byte	.LBE510-.LBB510
 8975 2f47 12       		.byte	0x12
 8976 2f48 BF01     		.2byte	0x1bf
 8977 2f4a 35       		.uleb128 0x35
 8978 2f4b C8430000 		.4byte	0x43c8
 8979 2f4f 88030000 		.4byte	.LLST52
 8980 2f53 00       		.byte	0
 8981 2f54 00       		.byte	0
 8982 2f55 00       		.byte	0
 8983 2f56 00       		.byte	0
 8984 2f57 33       		.uleb128 0x33
 8985 2f58 DD420000 		.4byte	0x42dd
 8986 2f5c 08030000 		.4byte	.LBB513
 8987 2f60 04000000 		.4byte	.LBE513-.LBB513
 8988 2f64 01       		.byte	0x1
 8989 2f65 3801     		.2byte	0x138
 8990 2f67 752F0000 		.4byte	0x2f75
 8991 2f6b 40       		.uleb128 0x40
 8992 2f6c 0C030000 		.4byte	.LVL105
 8993 2f70 0D480000 		.4byte	0x480d
 8994 2f74 00       		.byte	0
ARM GAS  /tmp/ccigORce.s 			page 159


 8995 2f75 34       		.uleb128 0x34
 8996 2f76 12430000 		.4byte	0x4312
 8997 2f7a 0C030000 		.4byte	.LBB515
 8998 2f7e 0A000000 		.4byte	.LBE515-.LBB515
 8999 2f82 01       		.byte	0x1
 9000 2f83 3901     		.2byte	0x139
 9001 2f85 34       		.uleb128 0x34
 9002 2f86 73430000 		.4byte	0x4373
 9003 2f8a 0C030000 		.4byte	.LBB516
 9004 2f8e 0A000000 		.4byte	.LBE516-.LBB516
 9005 2f92 03       		.byte	0x3
 9006 2f93 CA01     		.2byte	0x1ca
 9007 2f95 36       		.uleb128 0x36
 9008 2f96 0C030000 		.4byte	.LBB517
 9009 2f9a 0A000000 		.4byte	.LBE517-.LBB517
 9010 2f9e 37       		.uleb128 0x37
 9011 2f9f 80430000 		.4byte	0x4380
 9012 2fa3 34       		.uleb128 0x34
 9013 2fa4 A9430000 		.4byte	0x43a9
 9014 2fa8 0C030000 		.4byte	.LBB518
 9015 2fac 0A000000 		.4byte	.LBE518-.LBB518
 9016 2fb0 29       		.byte	0x29
 9017 2fb1 7301     		.2byte	0x173
 9018 2fb3 34       		.uleb128 0x34
 9019 2fb4 BB430000 		.4byte	0x43bb
 9020 2fb8 0C030000 		.4byte	.LBB519
 9021 2fbc 0A000000 		.4byte	.LBE519-.LBB519
 9022 2fc0 12       		.byte	0x12
 9023 2fc1 CD01     		.2byte	0x1cd
 9024 2fc3 35       		.uleb128 0x35
 9025 2fc4 C8430000 		.4byte	0x43c8
 9026 2fc8 9D030000 		.4byte	.LLST53
 9027 2fcc 00       		.byte	0
 9028 2fcd 00       		.byte	0
 9029 2fce 00       		.byte	0
 9030 2fcf 00       		.byte	0
 9031 2fd0 00       		.byte	0
 9032 2fd1 00       		.byte	0
 9033 2fd2 00       		.byte	0
 9034 2fd3 3E       		.uleb128 0x3e
 9035 2fd4 05410000 		.4byte	0x4105
 9036 2fd8 2E020000 		.4byte	.LBB523
 9037 2fdc 48010000 		.4byte	.Ldebug_ranges0+0x148
 9038 2fe0 01       		.byte	0x1
 9039 2fe1 0102     		.2byte	0x201
 9040 2fe3 35       		.uleb128 0x35
 9041 2fe4 27410000 		.4byte	0x4127
 9042 2fe8 B1030000 		.4byte	.LLST54
 9043 2fec 35       		.uleb128 0x35
 9044 2fed 1C410000 		.4byte	0x411c
 9045 2ff1 C4030000 		.4byte	.LLST55
 9046 2ff5 35       		.uleb128 0x35
 9047 2ff6 11410000 		.4byte	0x4111
 9048 2ffa D7030000 		.4byte	.LLST56
 9049 2ffe 3E       		.uleb128 0x3e
 9050 2fff 31410000 		.4byte	0x4131
 9051 3003 34020000 		.4byte	.LBB525
ARM GAS  /tmp/ccigORce.s 			page 160


 9052 3007 68010000 		.4byte	.Ldebug_ranges0+0x168
 9053 300b 01       		.byte	0x1
 9054 300c 0001     		.2byte	0x100
 9055 300e 35       		.uleb128 0x35
 9056 300f 57410000 		.4byte	0x4157
 9057 3013 EA030000 		.4byte	.LLST57
 9058 3017 35       		.uleb128 0x35
 9059 3018 4C410000 		.4byte	0x414c
 9060 301c 15040000 		.4byte	.LLST58
 9061 3020 35       		.uleb128 0x35
 9062 3021 41410000 		.4byte	0x4141
 9063 3025 D7030000 		.4byte	.LLST56
 9064 3029 00       		.byte	0
 9065 302a 00       		.byte	0
 9066 302b 00       		.byte	0
 9067 302c 00       		.byte	0
 9068 302d 38       		.uleb128 0x38
 9069 302e 1B430000 		.4byte	0x431b
 9070 3032 80020000 		.4byte	.LBB535
 9071 3036 80010000 		.4byte	.Ldebug_ranges0+0x180
 9072 303a 01       		.byte	0x1
 9073 303b 3C05     		.2byte	0x53c
 9074 303d 7E300000 		.4byte	0x307e
 9075 3041 3E       		.uleb128 0x3e
 9076 3042 8E430000 		.4byte	0x438e
 9077 3046 80020000 		.4byte	.LBB536
 9078 304a 80010000 		.4byte	.Ldebug_ranges0+0x180
 9079 304e 03       		.byte	0x3
 9080 304f BF01     		.2byte	0x1bf
 9081 3051 3E       		.uleb128 0x3e
 9082 3052 B2430000 		.4byte	0x43b2
 9083 3056 80020000 		.4byte	.LBB537
 9084 305a 80010000 		.4byte	.Ldebug_ranges0+0x180
 9085 305e 29       		.byte	0x29
 9086 305f 5C01     		.2byte	0x15c
 9087 3061 3E       		.uleb128 0x3e
 9088 3062 BB430000 		.4byte	0x43bb
 9089 3066 80020000 		.4byte	.LBB538
 9090 306a 80010000 		.4byte	.Ldebug_ranges0+0x180
 9091 306e 12       		.byte	0x12
 9092 306f BF01     		.2byte	0x1bf
 9093 3071 35       		.uleb128 0x35
 9094 3072 C8430000 		.4byte	0x43c8
 9095 3076 4B040000 		.4byte	.LLST60
 9096 307a 00       		.byte	0
 9097 307b 00       		.byte	0
 9098 307c 00       		.byte	0
 9099 307d 00       		.byte	0
 9100 307e 34       		.uleb128 0x34
 9101 307f 12430000 		.4byte	0x4312
 9102 3083 A0020000 		.4byte	.LBB548
 9103 3087 10000000 		.4byte	.LBE548-.LBB548
 9104 308b 01       		.byte	0x1
 9105 308c 4005     		.2byte	0x540
 9106 308e 34       		.uleb128 0x34
 9107 308f 73430000 		.4byte	0x4373
 9108 3093 A0020000 		.4byte	.LBB549
ARM GAS  /tmp/ccigORce.s 			page 161


 9109 3097 10000000 		.4byte	.LBE549-.LBB549
 9110 309b 03       		.byte	0x3
 9111 309c CA01     		.2byte	0x1ca
 9112 309e 36       		.uleb128 0x36
 9113 309f A0020000 		.4byte	.LBB550
 9114 30a3 10000000 		.4byte	.LBE550-.LBB550
 9115 30a7 37       		.uleb128 0x37
 9116 30a8 80430000 		.4byte	0x4380
 9117 30ac 34       		.uleb128 0x34
 9118 30ad A9430000 		.4byte	0x43a9
 9119 30b1 A0020000 		.4byte	.LBB551
 9120 30b5 10000000 		.4byte	.LBE551-.LBB551
 9121 30b9 29       		.byte	0x29
 9122 30ba 7301     		.2byte	0x173
 9123 30bc 34       		.uleb128 0x34
 9124 30bd BB430000 		.4byte	0x43bb
 9125 30c1 A0020000 		.4byte	.LBB552
 9126 30c5 10000000 		.4byte	.LBE552-.LBB552
 9127 30c9 12       		.byte	0x12
 9128 30ca CD01     		.2byte	0x1cd
 9129 30cc 35       		.uleb128 0x35
 9130 30cd C8430000 		.4byte	0x43c8
 9131 30d1 7A040000 		.4byte	.LLST61
 9132 30d5 00       		.byte	0
 9133 30d6 00       		.byte	0
 9134 30d7 00       		.byte	0
 9135 30d8 00       		.byte	0
 9136 30d9 00       		.byte	0
 9137 30da 00       		.byte	0
 9138 30db 38       		.uleb128 0x38
 9139 30dc BF420000 		.4byte	0x42bf
 9140 30e0 3A000000 		.4byte	.LBB424
 9141 30e4 00000000 		.4byte	.Ldebug_ranges0+0
 9142 30e8 01       		.byte	0x1
 9143 30e9 1E05     		.2byte	0x51e
 9144 30eb 06310000 		.4byte	0x3106
 9145 30ef 3F       		.uleb128 0x3f
 9146 30f0 D0420000 		.4byte	0x42d0
 9147 30f4 3B       		.uleb128 0x3b
 9148 30f5 48000000 		.4byte	.LVL6
 9149 30f9 19480000 		.4byte	0x4819
 9150 30fd 3C       		.uleb128 0x3c
 9151 30fe 01       		.uleb128 0x1
 9152 30ff 50       		.byte	0x50
 9153 3100 03       		.uleb128 0x3
 9154 3101 91       		.byte	0x91
 9155 3102 54       		.sleb128 -44
 9156 3103 06       		.byte	0x6
 9157 3104 00       		.byte	0
 9158 3105 00       		.byte	0
 9159 3106 33       		.uleb128 0x33
 9160 3107 12430000 		.4byte	0x4312
 9161 310b 48000000 		.4byte	.LBB428
 9162 310f 08000000 		.4byte	.LBE428-.LBB428
 9163 3113 01       		.byte	0x1
 9164 3114 2005     		.2byte	0x520
 9165 3116 66310000 		.4byte	0x3166
ARM GAS  /tmp/ccigORce.s 			page 162


 9166 311a 34       		.uleb128 0x34
 9167 311b 73430000 		.4byte	0x4373
 9168 311f 48000000 		.4byte	.LBB429
 9169 3123 08000000 		.4byte	.LBE429-.LBB429
 9170 3127 03       		.byte	0x3
 9171 3128 CA01     		.2byte	0x1ca
 9172 312a 36       		.uleb128 0x36
 9173 312b 48000000 		.4byte	.LBB430
 9174 312f 08000000 		.4byte	.LBE430-.LBB430
 9175 3133 37       		.uleb128 0x37
 9176 3134 80430000 		.4byte	0x4380
 9177 3138 34       		.uleb128 0x34
 9178 3139 A9430000 		.4byte	0x43a9
 9179 313d 48000000 		.4byte	.LBB431
 9180 3141 08000000 		.4byte	.LBE431-.LBB431
 9181 3145 29       		.byte	0x29
 9182 3146 7301     		.2byte	0x173
 9183 3148 34       		.uleb128 0x34
 9184 3149 BB430000 		.4byte	0x43bb
 9185 314d 48000000 		.4byte	.LBB432
 9186 3151 08000000 		.4byte	.LBE432-.LBB432
 9187 3155 12       		.byte	0x12
 9188 3156 CD01     		.2byte	0x1cd
 9189 3158 35       		.uleb128 0x35
 9190 3159 C8430000 		.4byte	0x43c8
 9191 315d 8E040000 		.4byte	.LLST6
 9192 3161 00       		.byte	0
 9193 3162 00       		.byte	0
 9194 3163 00       		.byte	0
 9195 3164 00       		.byte	0
 9196 3165 00       		.byte	0
 9197 3166 38       		.uleb128 0x38
 9198 3167 523F0000 		.4byte	0x3f52
 9199 316b 5A000000 		.4byte	.LBB434
 9200 316f 18000000 		.4byte	.Ldebug_ranges0+0x18
 9201 3173 01       		.byte	0x1
 9202 3174 2705     		.2byte	0x527
 9203 3176 B6330000 		.4byte	0x33b6
 9204 317a 35       		.uleb128 0x35
 9205 317b 5F3F0000 		.4byte	0x3f5f
 9206 317f A2040000 		.4byte	.LLST7
 9207 3183 39       		.uleb128 0x39
 9208 3184 18000000 		.4byte	.Ldebug_ranges0+0x18
 9209 3188 3A       		.uleb128 0x3a
 9210 3189 6B3F0000 		.4byte	0x3f6b
 9211 318d C0040000 		.4byte	.LLST8
 9212 3191 3A       		.uleb128 0x3a
 9213 3192 773F0000 		.4byte	0x3f77
 9214 3196 DE040000 		.4byte	.LLST9
 9215 319a 3A       		.uleb128 0x3a
 9216 319b 833F0000 		.4byte	0x3f83
 9217 319f 04050000 		.4byte	.LLST10
 9218 31a3 38       		.uleb128 0x38
 9219 31a4 06400000 		.4byte	0x4006
 9220 31a8 7E000000 		.4byte	.LBB436
 9221 31ac 30000000 		.4byte	.Ldebug_ranges0+0x30
 9222 31b0 01       		.byte	0x1
ARM GAS  /tmp/ccigORce.s 			page 163


 9223 31b1 BC01     		.2byte	0x1bc
 9224 31b3 EB310000 		.4byte	0x31eb
 9225 31b7 35       		.uleb128 0x35
 9226 31b8 35400000 		.4byte	0x4035
 9227 31bc 44050000 		.4byte	.LLST11
 9228 31c0 35       		.uleb128 0x35
 9229 31c1 2B400000 		.4byte	0x402b
 9230 31c5 7D050000 		.4byte	.LLST12
 9231 31c9 35       		.uleb128 0x35
 9232 31ca 1F400000 		.4byte	0x401f
 9233 31ce CB050000 		.4byte	.LLST13
 9234 31d2 35       		.uleb128 0x35
 9235 31d3 13400000 		.4byte	0x4013
 9236 31d7 F6050000 		.4byte	.LLST14
 9237 31db 39       		.uleb128 0x39
 9238 31dc 48000000 		.4byte	.Ldebug_ranges0+0x48
 9239 31e0 3A       		.uleb128 0x3a
 9240 31e1 42400000 		.4byte	0x4042
 9241 31e5 17060000 		.4byte	.LLST15
 9242 31e9 00       		.byte	0
 9243 31ea 00       		.byte	0
 9244 31eb 33       		.uleb128 0x33
 9245 31ec 06400000 		.4byte	0x4006
 9246 31f0 0A010000 		.4byte	.LBB446
 9247 31f4 3A000000 		.4byte	.LBE446-.LBB446
 9248 31f8 01       		.byte	0x1
 9249 31f9 C901     		.2byte	0x1c9
 9250 31fb 2F320000 		.4byte	0x322f
 9251 31ff 35       		.uleb128 0x35
 9252 3200 35400000 		.4byte	0x4035
 9253 3204 2A060000 		.4byte	.LLST16
 9254 3208 35       		.uleb128 0x35
 9255 3209 2B400000 		.4byte	0x402b
 9256 320d 69060000 		.4byte	.LLST17
 9257 3211 35       		.uleb128 0x35
 9258 3212 1F400000 		.4byte	0x401f
 9259 3216 B9060000 		.4byte	.LLST18
 9260 321a 3F       		.uleb128 0x3f
 9261 321b 13400000 		.4byte	0x4013
 9262 321f 39       		.uleb128 0x39
 9263 3220 80000000 		.4byte	.Ldebug_ranges0+0x80
 9264 3224 3A       		.uleb128 0x3a
 9265 3225 42400000 		.4byte	0x4042
 9266 3229 D7060000 		.4byte	.LLST19
 9267 322d 00       		.byte	0
 9268 322e 00       		.byte	0
 9269 322f 34       		.uleb128 0x34
 9270 3230 8F3F0000 		.4byte	0x3f8f
 9271 3234 50010000 		.4byte	.LBB452
 9272 3238 70000000 		.4byte	.LBE452-.LBB452
 9273 323c 01       		.byte	0x1
 9274 323d C401     		.2byte	0x1c4
 9275 323f 35       		.uleb128 0x35
 9276 3240 B43F0000 		.4byte	0x3fb4
 9277 3244 F5060000 		.4byte	.LLST20
 9278 3248 35       		.uleb128 0x35
 9279 3249 A83F0000 		.4byte	0x3fa8
ARM GAS  /tmp/ccigORce.s 			page 164


 9280 324d 08070000 		.4byte	.LLST21
 9281 3251 35       		.uleb128 0x35
 9282 3252 9C3F0000 		.4byte	0x3f9c
 9283 3256 1B070000 		.4byte	.LLST22
 9284 325a 36       		.uleb128 0x36
 9285 325b 50010000 		.4byte	.LBB453
 9286 325f 70000000 		.4byte	.LBE453-.LBB453
 9287 3263 3A       		.uleb128 0x3a
 9288 3264 BE3F0000 		.4byte	0x3fbe
 9289 3268 3C070000 		.4byte	.LLST23
 9290 326c 30       		.uleb128 0x30
 9291 326d 5A010000 		.4byte	.LBB454
 9292 3271 42000000 		.4byte	.LBE454-.LBB454
 9293 3275 B1320000 		.4byte	0x32b1
 9294 3279 3A       		.uleb128 0x3a
 9295 327a CB3F0000 		.4byte	0x3fcb
 9296 327e 72070000 		.4byte	.LLST24
 9297 3282 3A       		.uleb128 0x3a
 9298 3283 D53F0000 		.4byte	0x3fd5
 9299 3287 85070000 		.4byte	.LLST25
 9300 328b 3A       		.uleb128 0x3a
 9301 328c DF3F0000 		.4byte	0x3fdf
 9302 3290 99070000 		.4byte	.LLST26
 9303 3294 36       		.uleb128 0x36
 9304 3295 5E010000 		.4byte	.LBB455
 9305 3299 0A000000 		.4byte	.LBE455-.LBB455
 9306 329d 3A       		.uleb128 0x3a
 9307 329e EB3F0000 		.4byte	0x3feb
 9308 32a2 BF070000 		.4byte	.LLST27
 9309 32a6 3A       		.uleb128 0x3a
 9310 32a7 F73F0000 		.4byte	0x3ff7
 9311 32ab BF070000 		.4byte	.LLST27
 9312 32af 00       		.byte	0
 9313 32b0 00       		.byte	0
 9314 32b1 33       		.uleb128 0x33
 9315 32b2 1B430000 		.4byte	0x431b
 9316 32b6 9C010000 		.4byte	.LBB456
 9317 32ba 06000000 		.4byte	.LBE456-.LBB456
 9318 32be 01       		.byte	0x1
 9319 32bf A401     		.2byte	0x1a4
 9320 32c1 02330000 		.4byte	0x3302
 9321 32c5 34       		.uleb128 0x34
 9322 32c6 8E430000 		.4byte	0x438e
 9323 32ca 9C010000 		.4byte	.LBB457
 9324 32ce 06000000 		.4byte	.LBE457-.LBB457
 9325 32d2 03       		.byte	0x3
 9326 32d3 BF01     		.2byte	0x1bf
 9327 32d5 34       		.uleb128 0x34
 9328 32d6 B2430000 		.4byte	0x43b2
 9329 32da 9C010000 		.4byte	.LBB458
 9330 32de 06000000 		.4byte	.LBE458-.LBB458
 9331 32e2 29       		.byte	0x29
 9332 32e3 5C01     		.2byte	0x15c
 9333 32e5 34       		.uleb128 0x34
 9334 32e6 BB430000 		.4byte	0x43bb
 9335 32ea 9C010000 		.4byte	.LBB459
 9336 32ee 06000000 		.4byte	.LBE459-.LBB459
ARM GAS  /tmp/ccigORce.s 			page 165


 9337 32f2 12       		.byte	0x12
 9338 32f3 BF01     		.2byte	0x1bf
 9339 32f5 35       		.uleb128 0x35
 9340 32f6 C8430000 		.4byte	0x43c8
 9341 32fa D3070000 		.4byte	.LLST29
 9342 32fe 00       		.byte	0
 9343 32ff 00       		.byte	0
 9344 3300 00       		.byte	0
 9345 3301 00       		.byte	0
 9346 3302 33       		.uleb128 0x33
 9347 3303 6D420000 		.4byte	0x426d
 9348 3307 A8010000 		.4byte	.LBB461
 9349 330b 06000000 		.4byte	.LBE461-.LBB461
 9350 330f 01       		.byte	0x1
 9351 3310 A601     		.2byte	0x1a6
 9352 3312 38330000 		.4byte	0x3338
 9353 3316 35       		.uleb128 0x35
 9354 3317 86420000 		.4byte	0x4286
 9355 331b E8070000 		.4byte	.LLST30
 9356 331f 35       		.uleb128 0x35
 9357 3320 7A420000 		.4byte	0x427a
 9358 3324 FC070000 		.4byte	.LLST31
 9359 3328 3B       		.uleb128 0x3b
 9360 3329 AE010000 		.4byte	.LVL66
 9361 332d 02480000 		.4byte	0x4802
 9362 3331 3C       		.uleb128 0x3c
 9363 3332 01       		.uleb128 0x1
 9364 3333 51       		.byte	0x51
 9365 3334 01       		.uleb128 0x1
 9366 3335 30       		.byte	0x30
 9367 3336 00       		.byte	0
 9368 3337 00       		.byte	0
 9369 3338 33       		.uleb128 0x33
 9370 3339 DD420000 		.4byte	0x42dd
 9371 333d AE010000 		.4byte	.LBB463
 9372 3341 04000000 		.4byte	.LBE463-.LBB463
 9373 3345 01       		.byte	0x1
 9374 3346 A701     		.2byte	0x1a7
 9375 3348 56330000 		.4byte	0x3356
 9376 334c 40       		.uleb128 0x40
 9377 334d B2010000 		.4byte	.LVL67
 9378 3351 0D480000 		.4byte	0x480d
 9379 3355 00       		.byte	0
 9380 3356 34       		.uleb128 0x34
 9381 3357 12430000 		.4byte	0x4312
 9382 335b B2010000 		.4byte	.LBB465
 9383 335f 0E000000 		.4byte	.LBE465-.LBB465
 9384 3363 01       		.byte	0x1
 9385 3364 A801     		.2byte	0x1a8
 9386 3366 34       		.uleb128 0x34
 9387 3367 73430000 		.4byte	0x4373
 9388 336b B2010000 		.4byte	.LBB466
 9389 336f 0E000000 		.4byte	.LBE466-.LBB466
 9390 3373 03       		.byte	0x3
 9391 3374 CA01     		.2byte	0x1ca
 9392 3376 36       		.uleb128 0x36
 9393 3377 B2010000 		.4byte	.LBB467
ARM GAS  /tmp/ccigORce.s 			page 166


 9394 337b 0E000000 		.4byte	.LBE467-.LBB467
 9395 337f 37       		.uleb128 0x37
 9396 3380 80430000 		.4byte	0x4380
 9397 3384 34       		.uleb128 0x34
 9398 3385 A9430000 		.4byte	0x43a9
 9399 3389 B2010000 		.4byte	.LBB468
 9400 338d 0E000000 		.4byte	.LBE468-.LBB468
 9401 3391 29       		.byte	0x29
 9402 3392 7301     		.2byte	0x173
 9403 3394 34       		.uleb128 0x34
 9404 3395 BB430000 		.4byte	0x43bb
 9405 3399 B2010000 		.4byte	.LBB469
 9406 339d 0E000000 		.4byte	.LBE469-.LBB469
 9407 33a1 12       		.byte	0x12
 9408 33a2 CD01     		.2byte	0x1cd
 9409 33a4 35       		.uleb128 0x35
 9410 33a5 C8430000 		.4byte	0x43c8
 9411 33a9 0F080000 		.4byte	.LLST32
 9412 33ad 00       		.byte	0
 9413 33ae 00       		.byte	0
 9414 33af 00       		.byte	0
 9415 33b0 00       		.byte	0
 9416 33b1 00       		.byte	0
 9417 33b2 00       		.byte	0
 9418 33b3 00       		.byte	0
 9419 33b4 00       		.byte	0
 9420 33b5 00       		.byte	0
 9421 33b6 34       		.uleb128 0x34
 9422 33b7 1B430000 		.4byte	0x431b
 9423 33bb EA000000 		.4byte	.LBB472
 9424 33bf 08000000 		.4byte	.LBE472-.LBB472
 9425 33c3 01       		.byte	0x1
 9426 33c4 4305     		.2byte	0x543
 9427 33c6 34       		.uleb128 0x34
 9428 33c7 8E430000 		.4byte	0x438e
 9429 33cb EA000000 		.4byte	.LBB473
 9430 33cf 08000000 		.4byte	.LBE473-.LBB473
 9431 33d3 03       		.byte	0x3
 9432 33d4 BF01     		.2byte	0x1bf
 9433 33d6 34       		.uleb128 0x34
 9434 33d7 B2430000 		.4byte	0x43b2
 9435 33db EA000000 		.4byte	.LBB474
 9436 33df 08000000 		.4byte	.LBE474-.LBB474
 9437 33e3 29       		.byte	0x29
 9438 33e4 5C01     		.2byte	0x15c
 9439 33e6 34       		.uleb128 0x34
 9440 33e7 BB430000 		.4byte	0x43bb
 9441 33eb EA000000 		.4byte	.LBB475
 9442 33ef 08000000 		.4byte	.LBE475-.LBB475
 9443 33f3 12       		.byte	0x12
 9444 33f4 BF01     		.2byte	0x1bf
 9445 33f6 35       		.uleb128 0x35
 9446 33f7 C8430000 		.4byte	0x43c8
 9447 33fb 23080000 		.4byte	.LLST33
 9448 33ff 00       		.byte	0
 9449 3400 00       		.byte	0
 9450 3401 00       		.byte	0
ARM GAS  /tmp/ccigORce.s 			page 167


 9451 3402 00       		.byte	0
 9452 3403 00       		.byte	0
 9453 3404 34       		.uleb128 0x34
 9454 3405 1B430000 		.4byte	0x431b
 9455 3409 10000000 		.4byte	.LBB418
 9456 340d 10000000 		.4byte	.LBE418-.LBB418
 9457 3411 01       		.byte	0x1
 9458 3412 1505     		.2byte	0x515
 9459 3414 34       		.uleb128 0x34
 9460 3415 8E430000 		.4byte	0x438e
 9461 3419 10000000 		.4byte	.LBB419
 9462 341d 10000000 		.4byte	.LBE419-.LBB419
 9463 3421 03       		.byte	0x3
 9464 3422 BF01     		.2byte	0x1bf
 9465 3424 34       		.uleb128 0x34
 9466 3425 B2430000 		.4byte	0x43b2
 9467 3429 10000000 		.4byte	.LBB420
 9468 342d 10000000 		.4byte	.LBE420-.LBB420
 9469 3431 29       		.byte	0x29
 9470 3432 5C01     		.2byte	0x15c
 9471 3434 34       		.uleb128 0x34
 9472 3435 BB430000 		.4byte	0x43bb
 9473 3439 10000000 		.4byte	.LBB421
 9474 343d 10000000 		.4byte	.LBE421-.LBB421
 9475 3441 12       		.byte	0x12
 9476 3442 BF01     		.2byte	0x1bf
 9477 3444 35       		.uleb128 0x35
 9478 3445 C8430000 		.4byte	0x43c8
 9479 3449 38080000 		.4byte	.LLST3
 9480 344d 00       		.byte	0
 9481 344e 00       		.byte	0
 9482 344f 00       		.byte	0
 9483 3450 00       		.byte	0
 9484 3451 00       		.byte	0
 9485 3452 2D       		.uleb128 0x2d
 9486 3453 4C1A0000 		.4byte	.LASF634
 9487 3457 01       		.byte	0x1
 9488 3458 FE04     		.2byte	0x4fe
 9489 345a 00000000 		.4byte	.LFB293
 9490 345e 14000000 		.4byte	.LFE293-.LFB293
 9491 3462 01       		.uleb128 0x1
 9492 3463 9C       		.byte	0x9c
 9493 3464 86340000 		.4byte	0x3486
 9494 3468 41       		.uleb128 0x41
 9495 3469 030E0000 		.4byte	.LASF630
 9496 346d 01       		.byte	0x1
 9497 346e FE04     		.2byte	0x4fe
 9498 3470 AC230000 		.4byte	0x23ac
 9499 3474 01       		.uleb128 0x1
 9500 3475 50       		.byte	0x50
 9501 3476 2E       		.uleb128 0x2e
 9502 3477 657000   		.ascii	"ep\000"
 9503 347a 01       		.byte	0x1
 9504 347b FE04     		.2byte	0x4fe
 9505 347d 69220000 		.4byte	0x2269
 9506 3481 4D080000 		.4byte	.LLST151
 9507 3485 00       		.byte	0
ARM GAS  /tmp/ccigORce.s 			page 168


 9508 3486 2D       		.uleb128 0x2d
 9509 3487 B3020000 		.4byte	.LASF635
 9510 348b 01       		.byte	0x1
 9511 348c F104     		.2byte	0x4f1
 9512 348e 00000000 		.4byte	.LFB292
 9513 3492 14000000 		.4byte	.LFE292-.LFB292
 9514 3496 01       		.uleb128 0x1
 9515 3497 9C       		.byte	0x9c
 9516 3498 BA340000 		.4byte	0x34ba
 9517 349c 41       		.uleb128 0x41
 9518 349d 030E0000 		.4byte	.LASF630
 9519 34a1 01       		.byte	0x1
 9520 34a2 F104     		.2byte	0x4f1
 9521 34a4 AC230000 		.4byte	0x23ac
 9522 34a8 01       		.uleb128 0x1
 9523 34a9 50       		.byte	0x50
 9524 34aa 2E       		.uleb128 0x2e
 9525 34ab 657000   		.ascii	"ep\000"
 9526 34ae 01       		.byte	0x1
 9527 34af F104     		.2byte	0x4f1
 9528 34b1 69220000 		.4byte	0x2269
 9529 34b5 6E080000 		.4byte	.LLST150
 9530 34b9 00       		.byte	0
 9531 34ba 2D       		.uleb128 0x2d
 9532 34bb 4E120000 		.4byte	.LASF636
 9533 34bf 01       		.byte	0x1
 9534 34c0 E404     		.2byte	0x4e4
 9535 34c2 00000000 		.4byte	.LFB291
 9536 34c6 14000000 		.4byte	.LFE291-.LFB291
 9537 34ca 01       		.uleb128 0x1
 9538 34cb 9C       		.byte	0x9c
 9539 34cc EE340000 		.4byte	0x34ee
 9540 34d0 41       		.uleb128 0x41
 9541 34d1 030E0000 		.4byte	.LASF630
 9542 34d5 01       		.byte	0x1
 9543 34d6 E404     		.2byte	0x4e4
 9544 34d8 AC230000 		.4byte	0x23ac
 9545 34dc 01       		.uleb128 0x1
 9546 34dd 50       		.byte	0x50
 9547 34de 2E       		.uleb128 0x2e
 9548 34df 657000   		.ascii	"ep\000"
 9549 34e2 01       		.byte	0x1
 9550 34e3 E404     		.2byte	0x4e4
 9551 34e5 69220000 		.4byte	0x2269
 9552 34e9 8F080000 		.4byte	.LLST149
 9553 34ed 00       		.byte	0
 9554 34ee 2D       		.uleb128 0x2d
 9555 34ef 220F0000 		.4byte	.LASF637
 9556 34f3 01       		.byte	0x1
 9557 34f4 D704     		.2byte	0x4d7
 9558 34f6 00000000 		.4byte	.LFB290
 9559 34fa 14000000 		.4byte	.LFE290-.LFB290
 9560 34fe 01       		.uleb128 0x1
 9561 34ff 9C       		.byte	0x9c
 9562 3500 22350000 		.4byte	0x3522
 9563 3504 41       		.uleb128 0x41
 9564 3505 030E0000 		.4byte	.LASF630
ARM GAS  /tmp/ccigORce.s 			page 169


 9565 3509 01       		.byte	0x1
 9566 350a D704     		.2byte	0x4d7
 9567 350c AC230000 		.4byte	0x23ac
 9568 3510 01       		.uleb128 0x1
 9569 3511 50       		.byte	0x50
 9570 3512 2E       		.uleb128 0x2e
 9571 3513 657000   		.ascii	"ep\000"
 9572 3516 01       		.byte	0x1
 9573 3517 D704     		.2byte	0x4d7
 9574 3519 69220000 		.4byte	0x2269
 9575 351d B0080000 		.4byte	.LLST148
 9576 3521 00       		.byte	0
 9577 3522 42       		.uleb128 0x42
 9578 3523 02150000 		.4byte	.LASF638
 9579 3527 01       		.byte	0x1
 9580 3528 C904     		.2byte	0x4c9
 9581 352a 01       		.byte	0x1
 9582 352b 47350000 		.4byte	0x3547
 9583 352f 43       		.uleb128 0x43
 9584 3530 030E0000 		.4byte	.LASF630
 9585 3534 01       		.byte	0x1
 9586 3535 C904     		.2byte	0x4c9
 9587 3537 AC230000 		.4byte	0x23ac
 9588 353b 44       		.uleb128 0x44
 9589 353c 657000   		.ascii	"ep\000"
 9590 353f 01       		.byte	0x1
 9591 3540 C904     		.2byte	0x4c9
 9592 3542 69220000 		.4byte	0x2269
 9593 3546 00       		.byte	0
 9594 3547 42       		.uleb128 0x42
 9595 3548 72120000 		.4byte	.LASF639
 9596 354c 01       		.byte	0x1
 9597 354d BC04     		.2byte	0x4bc
 9598 354f 01       		.byte	0x1
 9599 3550 6C350000 		.4byte	0x356c
 9600 3554 43       		.uleb128 0x43
 9601 3555 030E0000 		.4byte	.LASF630
 9602 3559 01       		.byte	0x1
 9603 355a BC04     		.2byte	0x4bc
 9604 355c AC230000 		.4byte	0x23ac
 9605 3560 44       		.uleb128 0x44
 9606 3561 657000   		.ascii	"ep\000"
 9607 3564 01       		.byte	0x1
 9608 3565 BC04     		.2byte	0x4bc
 9609 3567 69220000 		.4byte	0x2269
 9610 356b 00       		.byte	0
 9611 356c 2D       		.uleb128 0x2d
 9612 356d 8E020000 		.4byte	.LASF640
 9613 3571 01       		.byte	0x1
 9614 3572 9F04     		.2byte	0x49f
 9615 3574 00000000 		.4byte	.LFB287
 9616 3578 4A000000 		.4byte	.LFE287-.LFB287
 9617 357c 01       		.uleb128 0x1
 9618 357d 9C       		.byte	0x9c
 9619 357e C8350000 		.4byte	0x35c8
 9620 3582 45       		.uleb128 0x45
 9621 3583 030E0000 		.4byte	.LASF630
ARM GAS  /tmp/ccigORce.s 			page 170


 9622 3587 01       		.byte	0x1
 9623 3588 9F04     		.2byte	0x49f
 9624 358a AC230000 		.4byte	0x23ac
 9625 358e D1080000 		.4byte	.LLST123
 9626 3592 2E       		.uleb128 0x2e
 9627 3593 657000   		.ascii	"ep\000"
 9628 3596 01       		.byte	0x1
 9629 3597 9F04     		.2byte	0x49f
 9630 3599 69220000 		.4byte	0x2269
 9631 359d FD080000 		.4byte	.LLST124
 9632 35a1 31       		.uleb128 0x31
 9633 35a2 69737000 		.ascii	"isp\000"
 9634 35a6 01       		.byte	0x1
 9635 35a7 A004     		.2byte	0x4a0
 9636 35a9 812B0000 		.4byte	0x2b81
 9637 35ad 37090000 		.4byte	.LLST125
 9638 35b1 39       		.uleb128 0x39
 9639 35b2 A0020000 		.4byte	.Ldebug_ranges0+0x2a0
 9640 35b6 2F       		.uleb128 0x2f
 9641 35b7 C7080000 		.4byte	.LASF641
 9642 35bb 01       		.byte	0x1
 9643 35bc AD04     		.2byte	0x4ad
 9644 35be FE080000 		.4byte	0x8fe
 9645 35c2 6C090000 		.4byte	.LLST126
 9646 35c6 00       		.byte	0
 9647 35c7 00       		.byte	0
 9648 35c8 2D       		.uleb128 0x2d
 9649 35c9 3A160000 		.4byte	.LASF642
 9650 35cd 01       		.byte	0x1
 9651 35ce 8704     		.2byte	0x487
 9652 35d0 00000000 		.4byte	.LFB286
 9653 35d4 40000000 		.4byte	.LFE286-.LFB286
 9654 35d8 01       		.uleb128 0x1
 9655 35d9 9C       		.byte	0x9c
 9656 35da 1E360000 		.4byte	0x361e
 9657 35de 45       		.uleb128 0x45
 9658 35df 030E0000 		.4byte	.LASF630
 9659 35e3 01       		.byte	0x1
 9660 35e4 8704     		.2byte	0x487
 9661 35e6 AC230000 		.4byte	0x23ac
 9662 35ea 8F090000 		.4byte	.LLST111
 9663 35ee 2E       		.uleb128 0x2e
 9664 35ef 657000   		.ascii	"ep\000"
 9665 35f2 01       		.byte	0x1
 9666 35f3 8704     		.2byte	0x487
 9667 35f5 69220000 		.4byte	0x2269
 9668 35f9 B0090000 		.4byte	.LLST112
 9669 35fd 2F       		.uleb128 0x2f
 9670 35fe C7080000 		.4byte	.LASF641
 9671 3602 01       		.byte	0x1
 9672 3603 8804     		.2byte	0x488
 9673 3605 FE080000 		.4byte	0x8fe
 9674 3609 D1090000 		.4byte	.LLST113
 9675 360d 31       		.uleb128 0x31
 9676 360e 6F737000 		.ascii	"osp\000"
 9677 3612 01       		.byte	0x1
 9678 3613 8904     		.2byte	0x489
ARM GAS  /tmp/ccigORce.s 			page 171


 9679 3615 872B0000 		.4byte	0x2b87
 9680 3619 F4090000 		.4byte	.LLST114
 9681 361d 00       		.byte	0
 9682 361e 2D       		.uleb128 0x2d
 9683 361f 21090000 		.4byte	.LASF643
 9684 3623 01       		.byte	0x1
 9685 3624 7A04     		.2byte	0x47a
 9686 3626 00000000 		.4byte	.LFB285
 9687 362a 12000000 		.4byte	.LFE285-.LFB285
 9688 362e 01       		.uleb128 0x1
 9689 362f 9C       		.byte	0x9c
 9690 3630 60360000 		.4byte	0x3660
 9691 3634 41       		.uleb128 0x41
 9692 3635 030E0000 		.4byte	.LASF630
 9693 3639 01       		.byte	0x1
 9694 363a 7A04     		.2byte	0x47a
 9695 363c AC230000 		.4byte	0x23ac
 9696 3640 01       		.uleb128 0x1
 9697 3641 50       		.byte	0x50
 9698 3642 2E       		.uleb128 0x2e
 9699 3643 657000   		.ascii	"ep\000"
 9700 3646 01       		.byte	0x1
 9701 3647 7A04     		.2byte	0x47a
 9702 3649 69220000 		.4byte	0x2269
 9703 364d 130A0000 		.4byte	.LLST110
 9704 3651 46       		.uleb128 0x46
 9705 3652 62756600 		.ascii	"buf\000"
 9706 3656 01       		.byte	0x1
 9707 3657 7A04     		.2byte	0x47a
 9708 3659 FC150000 		.4byte	0x15fc
 9709 365d 01       		.uleb128 0x1
 9710 365e 52       		.byte	0x52
 9711 365f 00       		.byte	0
 9712 3660 47       		.uleb128 0x47
 9713 3661 C5020000 		.4byte	.LASF644
 9714 3665 01       		.byte	0x1
 9715 3666 5F04     		.2byte	0x45f
 9716 3668 CC220000 		.4byte	0x22cc
 9717 366c 00000000 		.4byte	.LFB284
 9718 3670 1A000000 		.4byte	.LFE284-.LFB284
 9719 3674 01       		.uleb128 0x1
 9720 3675 9C       		.byte	0x9c
 9721 3676 A8360000 		.4byte	0x36a8
 9722 367a 45       		.uleb128 0x45
 9723 367b 030E0000 		.4byte	.LASF630
 9724 367f 01       		.byte	0x1
 9725 3680 5F04     		.2byte	0x45f
 9726 3682 AC230000 		.4byte	0x23ac
 9727 3686 340A0000 		.4byte	.LLST108
 9728 368a 2E       		.uleb128 0x2e
 9729 368b 657000   		.ascii	"ep\000"
 9730 368e 01       		.byte	0x1
 9731 368f 5F04     		.2byte	0x45f
 9732 3691 69220000 		.4byte	0x2269
 9733 3695 550A0000 		.4byte	.LLST109
 9734 3699 48       		.uleb128 0x48
 9735 369a 63746C00 		.ascii	"ctl\000"
ARM GAS  /tmp/ccigORce.s 			page 172


 9736 369e 01       		.byte	0x1
 9737 369f 6004     		.2byte	0x460
 9738 36a1 FE080000 		.4byte	0x8fe
 9739 36a5 01       		.uleb128 0x1
 9740 36a6 53       		.byte	0x53
 9741 36a7 00       		.byte	0
 9742 36a8 47       		.uleb128 0x47
 9743 36a9 78190000 		.4byte	.LASF645
 9744 36ad 01       		.byte	0x1
 9745 36ae 4604     		.2byte	0x446
 9746 36b0 CC220000 		.4byte	0x22cc
 9747 36b4 00000000 		.4byte	.LFB283
 9748 36b8 1A000000 		.4byte	.LFE283-.LFB283
 9749 36bc 01       		.uleb128 0x1
 9750 36bd 9C       		.byte	0x9c
 9751 36be F0360000 		.4byte	0x36f0
 9752 36c2 45       		.uleb128 0x45
 9753 36c3 030E0000 		.4byte	.LASF630
 9754 36c7 01       		.byte	0x1
 9755 36c8 4604     		.2byte	0x446
 9756 36ca AC230000 		.4byte	0x23ac
 9757 36ce 760A0000 		.4byte	.LLST106
 9758 36d2 2E       		.uleb128 0x2e
 9759 36d3 657000   		.ascii	"ep\000"
 9760 36d6 01       		.byte	0x1
 9761 36d7 4604     		.2byte	0x446
 9762 36d9 69220000 		.4byte	0x2269
 9763 36dd 970A0000 		.4byte	.LLST107
 9764 36e1 48       		.uleb128 0x48
 9765 36e2 63746C00 		.ascii	"ctl\000"
 9766 36e6 01       		.byte	0x1
 9767 36e7 4704     		.2byte	0x447
 9768 36e9 FE080000 		.4byte	0x8fe
 9769 36ed 01       		.uleb128 0x1
 9770 36ee 53       		.byte	0x53
 9771 36ef 00       		.byte	0
 9772 36f0 2D       		.uleb128 0x2d
 9773 36f1 41150000 		.4byte	.LASF646
 9774 36f5 01       		.byte	0x1
 9775 36f6 3104     		.2byte	0x431
 9776 36f8 00000000 		.4byte	.LFB282
 9777 36fc 0E000000 		.4byte	.LFE282-.LFB282
 9778 3700 01       		.uleb128 0x1
 9779 3701 9C       		.byte	0x9c
 9780 3702 57370000 		.4byte	0x3757
 9781 3706 45       		.uleb128 0x45
 9782 3707 030E0000 		.4byte	.LASF630
 9783 370b 01       		.byte	0x1
 9784 370c 3104     		.2byte	0x431
 9785 370e AC230000 		.4byte	0x23ac
 9786 3712 B80A0000 		.4byte	.LLST103
 9787 3716 38       		.uleb128 0x38
 9788 3717 B5410000 		.4byte	0x41b5
 9789 371b 04000000 		.4byte	.LBB613
 9790 371f 68020000 		.4byte	.Ldebug_ranges0+0x268
 9791 3723 01       		.byte	0x1
 9792 3724 3404     		.2byte	0x434
ARM GAS  /tmp/ccigORce.s 			page 173


 9793 3726 3D370000 		.4byte	0x373d
 9794 372a 35       		.uleb128 0x35
 9795 372b C1410000 		.4byte	0x41c1
 9796 372f E40A0000 		.4byte	.LLST104
 9797 3733 35       		.uleb128 0x35
 9798 3734 C1410000 		.4byte	0x41c1
 9799 3738 100B0000 		.4byte	.LLST105
 9800 373c 00       		.byte	0
 9801 373d 49       		.uleb128 0x49
 9802 373e 0E000000 		.4byte	.LVL189
 9803 3742 D5430000 		.4byte	0x43d5
 9804 3746 3C       		.uleb128 0x3c
 9805 3747 01       		.uleb128 0x1
 9806 3748 50       		.byte	0x50
 9807 3749 02       		.uleb128 0x2
 9808 374a 70       		.byte	0x70
 9809 374b 00       		.sleb128 0
 9810 374c 4A       		.uleb128 0x4a
 9811 374d 2A420000 		.4byte	0x422a
 9812 3751 03       		.uleb128 0x3
 9813 3752 F3       		.byte	0xf3
 9814 3753 01       		.uleb128 0x1
 9815 3754 50       		.byte	0x50
 9816 3755 00       		.byte	0
 9817 3756 00       		.byte	0
 9818 3757 2D       		.uleb128 0x2d
 9819 3758 BA030000 		.4byte	.LASF647
 9820 375c 01       		.byte	0x1
 9821 375d F103     		.2byte	0x3f1
 9822 375f 00000000 		.4byte	.LFB281
 9823 3763 64010000 		.4byte	.LFE281-.LFB281
 9824 3767 01       		.uleb128 0x1
 9825 3768 9C       		.byte	0x9c
 9826 3769 B0380000 		.4byte	0x38b0
 9827 376d 45       		.uleb128 0x45
 9828 376e 030E0000 		.4byte	.LASF630
 9829 3772 01       		.byte	0x1
 9830 3773 F103     		.2byte	0x3f1
 9831 3775 AC230000 		.4byte	0x23ac
 9832 3779 3C0B0000 		.4byte	.LLST87
 9833 377d 2E       		.uleb128 0x2e
 9834 377e 657000   		.ascii	"ep\000"
 9835 3781 01       		.byte	0x1
 9836 3782 F103     		.2byte	0x3f1
 9837 3784 69220000 		.4byte	0x2269
 9838 3788 810B0000 		.4byte	.LLST88
 9839 378c 31       		.uleb128 0x31
 9840 378d 63746C00 		.ascii	"ctl\000"
 9841 3791 01       		.byte	0x1
 9842 3792 F203     		.2byte	0x3f2
 9843 3794 FE080000 		.4byte	0x8fe
 9844 3798 BB0B0000 		.4byte	.LLST89
 9845 379c 2F       		.uleb128 0x2f
 9846 379d 5A030000 		.4byte	.LASF648
 9847 37a1 01       		.byte	0x1
 9848 37a2 F203     		.2byte	0x3f2
 9849 37a4 FE080000 		.4byte	0x8fe
ARM GAS  /tmp/ccigORce.s 			page 174


 9850 37a8 F90B0000 		.4byte	.LLST90
 9851 37ac 2F       		.uleb128 0x2f
 9852 37ad 3C170000 		.4byte	.LASF631
 9853 37b1 01       		.byte	0x1
 9854 37b2 F303     		.2byte	0x3f3
 9855 37b4 292C0000 		.4byte	0x2c29
 9856 37b8 0C0C0000 		.4byte	.LLST91
 9857 37bc 38       		.uleb128 0x38
 9858 37bd 61410000 		.4byte	0x4161
 9859 37c1 84000000 		.4byte	.LBB595
 9860 37c5 18020000 		.4byte	.Ldebug_ranges0+0x218
 9861 37c9 01       		.byte	0x1
 9862 37ca 1A04     		.2byte	0x41a
 9863 37cc F7370000 		.4byte	0x37f7
 9864 37d0 35       		.uleb128 0x35
 9865 37d1 71410000 		.4byte	0x4171
 9866 37d5 590C0000 		.4byte	.LLST92
 9867 37d9 35       		.uleb128 0x35
 9868 37da 7C410000 		.4byte	0x417c
 9869 37de 7A0C0000 		.4byte	.LLST93
 9870 37e2 39       		.uleb128 0x39
 9871 37e3 18020000 		.4byte	.Ldebug_ranges0+0x218
 9872 37e7 3A       		.uleb128 0x3a
 9873 37e8 87410000 		.4byte	0x4187
 9874 37ec 8D0C0000 		.4byte	.LLST94
 9875 37f0 37       		.uleb128 0x37
 9876 37f1 92410000 		.4byte	0x4192
 9877 37f5 00       		.byte	0
 9878 37f6 00       		.byte	0
 9879 37f7 38       		.uleb128 0x38
 9880 37f8 CD410000 		.4byte	0x41cd
 9881 37fc 96000000 		.4byte	.LBB600
 9882 3800 38020000 		.4byte	.Ldebug_ranges0+0x238
 9883 3804 01       		.byte	0x1
 9884 3805 1B04     		.2byte	0x41b
 9885 3807 55380000 		.4byte	0x3855
 9886 380b 35       		.uleb128 0x35
 9887 380c D9410000 		.4byte	0x41d9
 9888 3810 AD0C0000 		.4byte	.LLST95
 9889 3814 35       		.uleb128 0x35
 9890 3815 E4410000 		.4byte	0x41e4
 9891 3819 CE0C0000 		.4byte	.LLST96
 9892 381d 39       		.uleb128 0x39
 9893 381e 38020000 		.4byte	.Ldebug_ranges0+0x238
 9894 3822 3A       		.uleb128 0x3a
 9895 3823 EF410000 		.4byte	0x41ef
 9896 3827 E60C0000 		.4byte	.LLST97
 9897 382b 4B       		.uleb128 0x4b
 9898 382c E6420000 		.4byte	0x42e6
 9899 3830 AA000000 		.4byte	.LBB602
 9900 3834 06000000 		.4byte	.LBE602-.LBB602
 9901 3838 01       		.byte	0x1
 9902 3839 BA       		.byte	0xba
 9903 383a 35       		.uleb128 0x35
 9904 383b F3420000 		.4byte	0x42f3
 9905 383f 0A0D0000 		.4byte	.LLST98
 9906 3843 3B       		.uleb128 0x3b
ARM GAS  /tmp/ccigORce.s 			page 175


 9907 3844 B0000000 		.4byte	.LVL177
 9908 3848 24480000 		.4byte	0x4824
 9909 384c 3C       		.uleb128 0x3c
 9910 384d 01       		.uleb128 0x1
 9911 384e 50       		.byte	0x50
 9912 384f 01       		.uleb128 0x1
 9913 3850 3C       		.byte	0x3c
 9914 3851 00       		.byte	0
 9915 3852 00       		.byte	0
 9916 3853 00       		.byte	0
 9917 3854 00       		.byte	0
 9918 3855 3E       		.uleb128 0x3e
 9919 3856 CD410000 		.4byte	0x41cd
 9920 385a E6000000 		.4byte	.LBB607
 9921 385e 50020000 		.4byte	.Ldebug_ranges0+0x250
 9922 3862 01       		.byte	0x1
 9923 3863 2404     		.2byte	0x424
 9924 3865 35       		.uleb128 0x35
 9925 3866 D9410000 		.4byte	0x41d9
 9926 386a 1E0D0000 		.4byte	.LLST99
 9927 386e 35       		.uleb128 0x35
 9928 386f E4410000 		.4byte	0x41e4
 9929 3873 3F0D0000 		.4byte	.LLST100
 9930 3877 39       		.uleb128 0x39
 9931 3878 50020000 		.4byte	.Ldebug_ranges0+0x250
 9932 387c 3A       		.uleb128 0x3a
 9933 387d EF410000 		.4byte	0x41ef
 9934 3881 570D0000 		.4byte	.LLST101
 9935 3885 4B       		.uleb128 0x4b
 9936 3886 E6420000 		.4byte	0x42e6
 9937 388a FC000000 		.4byte	.LBB609
 9938 388e 06000000 		.4byte	.LBE609-.LBB609
 9939 3892 01       		.byte	0x1
 9940 3893 BA       		.byte	0xba
 9941 3894 35       		.uleb128 0x35
 9942 3895 F3420000 		.4byte	0x42f3
 9943 3899 7B0D0000 		.4byte	.LLST102
 9944 389d 3B       		.uleb128 0x3b
 9945 389e 02010000 		.4byte	.LVL184
 9946 38a2 24480000 		.4byte	0x4824
 9947 38a6 3C       		.uleb128 0x3c
 9948 38a7 01       		.uleb128 0x1
 9949 38a8 50       		.byte	0x50
 9950 38a9 01       		.uleb128 0x1
 9951 38aa 3C       		.byte	0x3c
 9952 38ab 00       		.byte	0
 9953 38ac 00       		.byte	0
 9954 38ad 00       		.byte	0
 9955 38ae 00       		.byte	0
 9956 38af 00       		.byte	0
 9957 38b0 2D       		.uleb128 0x2d
 9958 38b1 F9130000 		.4byte	.LASF649
 9959 38b5 01       		.byte	0x1
 9960 38b6 E303     		.2byte	0x3e3
 9961 38b8 00000000 		.4byte	.LFB280
 9962 38bc 18000000 		.4byte	.LFE280-.LFB280
 9963 38c0 01       		.uleb128 0x1
ARM GAS  /tmp/ccigORce.s 			page 176


 9964 38c1 9C       		.byte	0x9c
 9965 38c2 E3380000 		.4byte	0x38e3
 9966 38c6 41       		.uleb128 0x41
 9967 38c7 030E0000 		.4byte	.LASF630
 9968 38cb 01       		.byte	0x1
 9969 38cc E303     		.2byte	0x3e3
 9970 38ce AC230000 		.4byte	0x23ac
 9971 38d2 01       		.uleb128 0x1
 9972 38d3 50       		.byte	0x50
 9973 38d4 4C       		.uleb128 0x4c
 9974 38d5 3C170000 		.4byte	.LASF631
 9975 38d9 01       		.byte	0x1
 9976 38da E403     		.2byte	0x3e4
 9977 38dc 292C0000 		.4byte	0x2c29
 9978 38e0 01       		.uleb128 0x1
 9979 38e1 52       		.byte	0x52
 9980 38e2 00       		.byte	0
 9981 38e3 2D       		.uleb128 0x2d
 9982 38e4 35040000 		.4byte	.LASF650
 9983 38e8 01       		.byte	0x1
 9984 38e9 AD03     		.2byte	0x3ad
 9985 38eb 00000000 		.4byte	.LFB279
 9986 38ef C4000000 		.4byte	.LFE279-.LFB279
 9987 38f3 01       		.uleb128 0x1
 9988 38f4 9C       		.byte	0x9c
 9989 38f5 3D3A0000 		.4byte	0x3a3d
 9990 38f9 45       		.uleb128 0x45
 9991 38fa 030E0000 		.4byte	.LASF630
 9992 38fe 01       		.byte	0x1
 9993 38ff AD03     		.2byte	0x3ad
 9994 3901 AC230000 		.4byte	0x23ac
 9995 3905 8F0D0000 		.4byte	.LLST72
 9996 3909 31       		.uleb128 0x31
 9997 390a 6900     		.ascii	"i\000"
 9998 390c 01       		.byte	0x1
 9999 390d AE03     		.2byte	0x3ae
 10000 390f 21000000 		.4byte	0x21
 10001 3913 BB0D0000 		.4byte	.LLST73
 10002 3917 2F       		.uleb128 0x2f
 10003 3918 3C170000 		.4byte	.LASF631
 10004 391c 01       		.byte	0x1
 10005 391d AF03     		.2byte	0x3af
 10006 391f 292C0000 		.4byte	0x2c29
 10007 3923 DA0D0000 		.4byte	.LLST74
 10008 3927 38       		.uleb128 0x38
 10009 3928 CD410000 		.4byte	0x41cd
 10010 392c 04000000 		.4byte	.LBB577
 10011 3930 D0010000 		.4byte	.Ldebug_ranges0+0x1d0
 10012 3934 01       		.byte	0x1
 10013 3935 B203     		.2byte	0x3b2
 10014 3937 85390000 		.4byte	0x3985
 10015 393b 35       		.uleb128 0x35
 10016 393c D9410000 		.4byte	0x41d9
 10017 3940 ED0D0000 		.4byte	.LLST75
 10018 3944 35       		.uleb128 0x35
 10019 3945 E4410000 		.4byte	0x41e4
 10020 3949 190E0000 		.4byte	.LLST76
ARM GAS  /tmp/ccigORce.s 			page 177


 10021 394d 39       		.uleb128 0x39
 10022 394e D0010000 		.4byte	.Ldebug_ranges0+0x1d0
 10023 3952 3A       		.uleb128 0x3a
 10024 3953 EF410000 		.4byte	0x41ef
 10025 3957 2D0E0000 		.4byte	.LLST77
 10026 395b 4B       		.uleb128 0x4b
 10027 395c E6420000 		.4byte	0x42e6
 10028 3960 12000000 		.4byte	.LBB579
 10029 3964 06000000 		.4byte	.LBE579-.LBB579
 10030 3968 01       		.byte	0x1
 10031 3969 BA       		.byte	0xba
 10032 396a 35       		.uleb128 0x35
 10033 396b F3420000 		.4byte	0x42f3
 10034 396f 400E0000 		.4byte	.LLST78
 10035 3973 3B       		.uleb128 0x3b
 10036 3974 18000000 		.4byte	.LVL151
 10037 3978 24480000 		.4byte	0x4824
 10038 397c 3C       		.uleb128 0x3c
 10039 397d 01       		.uleb128 0x1
 10040 397e 50       		.byte	0x50
 10041 397f 01       		.uleb128 0x1
 10042 3980 3C       		.byte	0x3c
 10043 3981 00       		.byte	0
 10044 3982 00       		.byte	0
 10045 3983 00       		.byte	0
 10046 3984 00       		.byte	0
 10047 3985 38       		.uleb128 0x38
 10048 3986 B5410000 		.4byte	0x41b5
 10049 398a 42000000 		.4byte	.LBB583
 10050 398e E8010000 		.4byte	.Ldebug_ranges0+0x1e8
 10051 3992 01       		.byte	0x1
 10052 3993 C103     		.2byte	0x3c1
 10053 3995 AC390000 		.4byte	0x39ac
 10054 3999 35       		.uleb128 0x35
 10055 399a C1410000 		.4byte	0x41c1
 10056 399e 540E0000 		.4byte	.LLST79
 10057 39a2 35       		.uleb128 0x35
 10058 39a3 C1410000 		.4byte	0x41c1
 10059 39a7 750E0000 		.4byte	.LLST80
 10060 39ab 00       		.byte	0
 10061 39ac 33       		.uleb128 0x33
 10062 39ad FB410000 		.4byte	0x41fb
 10063 39b1 60000000 		.4byte	.LBB587
 10064 39b5 12000000 		.4byte	.LBE587-.LBB587
 10065 39b9 01       		.byte	0x1
 10066 39ba C503     		.2byte	0x3c5
 10067 39bc 053A0000 		.4byte	0x3a05
 10068 39c0 35       		.uleb128 0x35
 10069 39c1 07420000 		.4byte	0x4207
 10070 39c5 960E0000 		.4byte	.LLST81
 10071 39c9 36       		.uleb128 0x36
 10072 39ca 60000000 		.4byte	.LBB588
 10073 39ce 12000000 		.4byte	.LBE588-.LBB588
 10074 39d2 3A       		.uleb128 0x3a
 10075 39d3 12420000 		.4byte	0x4212
 10076 39d7 B70E0000 		.4byte	.LLST82
 10077 39db 4B       		.uleb128 0x4b
ARM GAS  /tmp/ccigORce.s 			page 178


 10078 39dc E6420000 		.4byte	0x42e6
 10079 39e0 6C000000 		.4byte	.LBB589
 10080 39e4 06000000 		.4byte	.LBE589-.LBB589
 10081 39e8 01       		.byte	0x1
 10082 39e9 B0       		.byte	0xb0
 10083 39ea 35       		.uleb128 0x35
 10084 39eb F3420000 		.4byte	0x42f3
 10085 39ef CA0E0000 		.4byte	.LLST83
 10086 39f3 3B       		.uleb128 0x3b
 10087 39f4 72000000 		.4byte	.LVL157
 10088 39f8 24480000 		.4byte	0x4824
 10089 39fc 3C       		.uleb128 0x3c
 10090 39fd 01       		.uleb128 0x1
 10091 39fe 50       		.byte	0x50
 10092 39ff 01       		.uleb128 0x1
 10093 3a00 3C       		.byte	0x3c
 10094 3a01 00       		.byte	0
 10095 3a02 00       		.byte	0
 10096 3a03 00       		.byte	0
 10097 3a04 00       		.byte	0
 10098 3a05 3E       		.uleb128 0x3e
 10099 3a06 61410000 		.4byte	0x4161
 10100 3a0a AA000000 		.4byte	.LBB591
 10101 3a0e 00020000 		.4byte	.Ldebug_ranges0+0x200
 10102 3a12 01       		.byte	0x1
 10103 3a13 D803     		.2byte	0x3d8
 10104 3a15 35       		.uleb128 0x35
 10105 3a16 71410000 		.4byte	0x4171
 10106 3a1a DE0E0000 		.4byte	.LLST84
 10107 3a1e 35       		.uleb128 0x35
 10108 3a1f 7C410000 		.4byte	0x417c
 10109 3a23 FF0E0000 		.4byte	.LLST85
 10110 3a27 39       		.uleb128 0x39
 10111 3a28 00020000 		.4byte	.Ldebug_ranges0+0x200
 10112 3a2c 3A       		.uleb128 0x3a
 10113 3a2d 87410000 		.4byte	0x4187
 10114 3a31 130F0000 		.4byte	.LLST86
 10115 3a35 37       		.uleb128 0x37
 10116 3a36 92410000 		.4byte	0x4192
 10117 3a3a 00       		.byte	0
 10118 3a3b 00       		.byte	0
 10119 3a3c 00       		.byte	0
 10120 3a3d 2D       		.uleb128 0x2d
 10121 3a3e E0050000 		.4byte	.LASF651
 10122 3a42 01       		.byte	0x1
 10123 3a43 8603     		.2byte	0x386
 10124 3a45 00000000 		.4byte	.LFB278
 10125 3a49 22000000 		.4byte	.LFE278-.LFB278
 10126 3a4d 01       		.uleb128 0x1
 10127 3a4e 9C       		.byte	0x9c
 10128 3a4f 8C3A0000 		.4byte	0x3a8c
 10129 3a53 45       		.uleb128 0x45
 10130 3a54 030E0000 		.4byte	.LASF630
 10131 3a58 01       		.byte	0x1
 10132 3a59 8603     		.2byte	0x386
 10133 3a5b AC230000 		.4byte	0x23ac
 10134 3a5f 330F0000 		.4byte	.LLST70
ARM GAS  /tmp/ccigORce.s 			page 179


 10135 3a63 2F       		.uleb128 0x2f
 10136 3a64 3C170000 		.4byte	.LASF631
 10137 3a68 01       		.byte	0x1
 10138 3a69 8703     		.2byte	0x387
 10139 3a6b 292C0000 		.4byte	0x2c29
 10140 3a6f 5F0F0000 		.4byte	.LLST71
 10141 3a73 3B       		.uleb128 0x3b
 10142 3a74 14000000 		.4byte	.LVL144
 10143 3a78 D5430000 		.4byte	0x43d5
 10144 3a7c 3C       		.uleb128 0x3c
 10145 3a7d 01       		.uleb128 0x1
 10146 3a7e 50       		.byte	0x50
 10147 3a7f 02       		.uleb128 0x2
 10148 3a80 70       		.byte	0x70
 10149 3a81 00       		.sleb128 0
 10150 3a82 4A       		.uleb128 0x4a
 10151 3a83 2A420000 		.4byte	0x422a
 10152 3a87 02       		.uleb128 0x2
 10153 3a88 74       		.byte	0x74
 10154 3a89 00       		.sleb128 0
 10155 3a8a 00       		.byte	0
 10156 3a8b 00       		.byte	0
 10157 3a8c 2D       		.uleb128 0x2d
 10158 3a8d 99190000 		.4byte	.LASF652
 10159 3a91 01       		.byte	0x1
 10160 3a92 2603     		.2byte	0x326
 10161 3a94 00000000 		.4byte	.LFB277
 10162 3a98 E4000000 		.4byte	.LFE277-.LFB277
 10163 3a9c 01       		.uleb128 0x1
 10164 3a9d 9C       		.byte	0x9c
 10165 3a9e EA3B0000 		.4byte	0x3bea
 10166 3aa2 45       		.uleb128 0x45
 10167 3aa3 030E0000 		.4byte	.LASF630
 10168 3aa7 01       		.byte	0x1
 10169 3aa8 2603     		.2byte	0x326
 10170 3aaa AC230000 		.4byte	0x23ac
 10171 3aae 810F0000 		.4byte	.LLST63
 10172 3ab2 2F       		.uleb128 0x2f
 10173 3ab3 3C170000 		.4byte	.LASF631
 10174 3ab7 01       		.byte	0x1
 10175 3ab8 2703     		.2byte	0x327
 10176 3aba 292C0000 		.4byte	0x2c29
 10177 3abe B50F0000 		.4byte	.LLST64
 10178 3ac2 38       		.uleb128 0x38
 10179 3ac3 4A420000 		.4byte	0x424a
 10180 3ac7 2C000000 		.4byte	.LBB565
 10181 3acb A0010000 		.4byte	.Ldebug_ranges0+0x1a0
 10182 3acf 01       		.byte	0x1
 10183 3ad0 5A03     		.2byte	0x35a
 10184 3ad2 443B0000 		.4byte	0x3b44
 10185 3ad6 35       		.uleb128 0x35
 10186 3ad7 56420000 		.4byte	0x4256
 10187 3adb E40F0000 		.4byte	.LLST65
 10188 3adf 39       		.uleb128 0x39
 10189 3ae0 A0010000 		.4byte	.Ldebug_ranges0+0x1a0
 10190 3ae4 3A       		.uleb128 0x3a
 10191 3ae5 61420000 		.4byte	0x4261
ARM GAS  /tmp/ccigORce.s 			page 180


 10192 3ae9 02100000 		.4byte	.LLST66
 10193 3aed 4D       		.uleb128 0x4d
 10194 3aee E6420000 		.4byte	0x42e6
 10195 3af2 2C000000 		.4byte	.LBB567
 10196 3af6 B8010000 		.4byte	.Ldebug_ranges0+0x1b8
 10197 3afa 01       		.byte	0x1
 10198 3afb 76       		.byte	0x76
 10199 3afc 1A3B0000 		.4byte	0x3b1a
 10200 3b00 35       		.uleb128 0x35
 10201 3b01 F3420000 		.4byte	0x42f3
 10202 3b05 17100000 		.4byte	.LLST67
 10203 3b09 3B       		.uleb128 0x3b
 10204 3b0a 38000000 		.4byte	.LVL129
 10205 3b0e 24480000 		.4byte	0x4824
 10206 3b12 3C       		.uleb128 0x3c
 10207 3b13 01       		.uleb128 0x1
 10208 3b14 50       		.byte	0x50
 10209 3b15 02       		.uleb128 0x2
 10210 3b16 08       		.byte	0x8
 10211 3b17 20       		.byte	0x20
 10212 3b18 00       		.byte	0
 10213 3b19 00       		.byte	0
 10214 3b1a 4B       		.uleb128 0x4b
 10215 3b1b E6420000 		.4byte	0x42e6
 10216 3b1f 42000000 		.4byte	.LBB571
 10217 3b23 06000000 		.4byte	.LBE571-.LBB571
 10218 3b27 01       		.byte	0x1
 10219 3b28 7D       		.byte	0x7d
 10220 3b29 35       		.uleb128 0x35
 10221 3b2a F3420000 		.4byte	0x42f3
 10222 3b2e 2C100000 		.4byte	.LLST68
 10223 3b32 3B       		.uleb128 0x3b
 10224 3b33 48000000 		.4byte	.LVL131
 10225 3b37 24480000 		.4byte	0x4824
 10226 3b3b 3C       		.uleb128 0x3c
 10227 3b3c 01       		.uleb128 0x1
 10228 3b3d 50       		.byte	0x50
 10229 3b3e 01       		.uleb128 0x1
 10230 3b3f 3C       		.byte	0x3c
 10231 3b40 00       		.byte	0
 10232 3b41 00       		.byte	0
 10233 3b42 00       		.byte	0
 10234 3b43 00       		.byte	0
 10235 3b44 33       		.uleb128 0x33
 10236 3b45 24430000 		.4byte	0x4324
 10237 3b49 C6000000 		.4byte	.LBB575
 10238 3b4d 04000000 		.4byte	.LBE575-.LBB575
 10239 3b51 01       		.byte	0x1
 10240 3b52 7503     		.2byte	0x375
 10241 3b54 7A3B0000 		.4byte	0x3b7a
 10242 3b58 35       		.uleb128 0x35
 10243 3b59 34430000 		.4byte	0x4334
 10244 3b5d 4C100000 		.4byte	.LLST69
 10245 3b61 36       		.uleb128 0x36
 10246 3b62 C6000000 		.4byte	.LBB576
 10247 3b66 04000000 		.4byte	.LBE576-.LBB576
 10248 3b6a 37       		.uleb128 0x37
ARM GAS  /tmp/ccigORce.s 			page 181


 10249 3b6b 3E430000 		.4byte	0x433e
 10250 3b6f 40       		.uleb128 0x40
 10251 3b70 CA000000 		.4byte	.LVL140
 10252 3b74 30480000 		.4byte	0x4830
 10253 3b78 00       		.byte	0
 10254 3b79 00       		.byte	0
 10255 3b7a 4E       		.uleb128 0x4e
 10256 3b7b 5A000000 		.4byte	.LVL132
 10257 3b7f D5430000 		.4byte	0x43d5
 10258 3b83 963B0000 		.4byte	0x3b96
 10259 3b87 3C       		.uleb128 0x3c
 10260 3b88 01       		.uleb128 0x1
 10261 3b89 50       		.byte	0x50
 10262 3b8a 02       		.uleb128 0x2
 10263 3b8b 70       		.byte	0x70
 10264 3b8c 00       		.sleb128 0
 10265 3b8d 4A       		.uleb128 0x4a
 10266 3b8e 2A420000 		.4byte	0x422a
 10267 3b92 02       		.uleb128 0x2
 10268 3b93 75       		.byte	0x75
 10269 3b94 00       		.sleb128 0
 10270 3b95 00       		.byte	0
 10271 3b96 4E       		.uleb128 0x4e
 10272 3b97 AE000000 		.4byte	.LVL136
 10273 3b9b 3C480000 		.4byte	0x483c
 10274 3b9f AF3B0000 		.4byte	0x3baf
 10275 3ba3 3C       		.uleb128 0x3c
 10276 3ba4 01       		.uleb128 0x1
 10277 3ba5 50       		.byte	0x50
 10278 3ba6 02       		.uleb128 0x2
 10279 3ba7 08       		.byte	0x8
 10280 3ba8 43       		.byte	0x43
 10281 3ba9 3C       		.uleb128 0x3c
 10282 3baa 01       		.uleb128 0x1
 10283 3bab 51       		.byte	0x51
 10284 3bac 01       		.uleb128 0x1
 10285 3bad 3E       		.byte	0x3e
 10286 3bae 00       		.byte	0
 10287 3baf 4E       		.uleb128 0x4e
 10288 3bb0 C4000000 		.4byte	.LVL138
 10289 3bb4 47480000 		.4byte	0x4847
 10290 3bb8 E03B0000 		.4byte	0x3be0
 10291 3bbc 3C       		.uleb128 0x3c
 10292 3bbd 01       		.uleb128 0x1
 10293 3bbe 50       		.byte	0x50
 10294 3bbf 03       		.uleb128 0x3
 10295 3bc0 75       		.byte	0x75
 10296 3bc1 E800     		.sleb128 104
 10297 3bc3 3C       		.uleb128 0x3c
 10298 3bc4 01       		.uleb128 0x1
 10299 3bc5 51       		.byte	0x51
 10300 3bc6 03       		.uleb128 0x3
 10301 3bc7 0A       		.byte	0xa
 10302 3bc8 4801     		.2byte	0x148
 10303 3bca 3C       		.uleb128 0x3c
 10304 3bcb 01       		.uleb128 0x1
 10305 3bcc 52       		.byte	0x52
ARM GAS  /tmp/ccigORce.s 			page 182


 10306 3bcd 01       		.uleb128 0x1
 10307 3bce 32       		.byte	0x32
 10308 3bcf 3C       		.uleb128 0x3c
 10309 3bd0 01       		.uleb128 0x1
 10310 3bd1 53       		.byte	0x53
 10311 3bd2 05       		.uleb128 0x5
 10312 3bd3 03       		.byte	0x3
 10313 3bd4 00000000 		.4byte	usb_lld_pump
 10314 3bd8 3C       		.uleb128 0x3c
 10315 3bd9 02       		.uleb128 0x2
 10316 3bda 7D       		.byte	0x7d
 10317 3bdb 00       		.sleb128 0
 10318 3bdc 02       		.uleb128 0x2
 10319 3bdd 75       		.byte	0x75
 10320 3bde 00       		.sleb128 0
 10321 3bdf 00       		.byte	0
 10322 3be0 40       		.uleb128 0x40
 10323 3be1 CE000000 		.4byte	.LVL141
 10324 3be5 0D480000 		.4byte	0x480d
 10325 3be9 00       		.byte	0
 10326 3bea 2D       		.uleb128 0x2d
 10327 3beb DB110000 		.4byte	.LASF653
 10328 3bef 01       		.byte	0x1
 10329 3bf0 E802     		.2byte	0x2e8
 10330 3bf2 00000000 		.4byte	.LFB276
 10331 3bf6 24000000 		.4byte	.LFE276-.LFB276
 10332 3bfa 01       		.uleb128 0x1
 10333 3bfb 9C       		.byte	0x9c
 10334 3bfc 113C0000 		.4byte	0x3c11
 10335 3c00 3B       		.uleb128 0x3b
 10336 3c01 0A000000 		.4byte	.LVL125
 10337 3c05 52480000 		.4byte	0x4852
 10338 3c09 3C       		.uleb128 0x3c
 10339 3c0a 01       		.uleb128 0x1
 10340 3c0b 50       		.byte	0x50
 10341 3c0c 02       		.uleb128 0x2
 10342 3c0d 74       		.byte	0x74
 10343 3c0e 00       		.sleb128 0
 10344 3c0f 00       		.byte	0
 10345 3c10 00       		.byte	0
 10346 3c11 2D       		.uleb128 0x2d
 10347 3c12 400B0000 		.4byte	.LASF654
 10348 3c16 01       		.byte	0x1
 10349 3c17 C202     		.2byte	0x2c2
 10350 3c19 00000000 		.4byte	.LFB275
 10351 3c1d F4000000 		.4byte	.LFE275-.LFB275
 10352 3c21 01       		.uleb128 0x1
 10353 3c22 9C       		.byte	0x9c
 10354 3c23 493E0000 		.4byte	0x3e49
 10355 3c27 38       		.uleb128 0x38
 10356 3c28 493E0000 		.4byte	0x3e49
 10357 3c2c 02000000 		.4byte	.LBB684
 10358 3c30 F0020000 		.4byte	.Ldebug_ranges0+0x2f0
 10359 3c34 01       		.byte	0x1
 10360 3c35 C602     		.2byte	0x2c6
 10361 3c37 363E0000 		.4byte	0x3e36
 10362 3c3b 35       		.uleb128 0x35
ARM GAS  /tmp/ccigORce.s 			page 183


 10363 3c3c 563E0000 		.4byte	0x3e56
 10364 3c40 5F100000 		.4byte	.LLST137
 10365 3c44 39       		.uleb128 0x39
 10366 3c45 F0020000 		.4byte	.Ldebug_ranges0+0x2f0
 10367 3c49 3A       		.uleb128 0x3a
 10368 3c4a 623E0000 		.4byte	0x3e62
 10369 3c4e 97100000 		.4byte	.LLST138
 10370 3c52 3A       		.uleb128 0x3a
 10371 3c53 6E3E0000 		.4byte	0x3e6e
 10372 3c57 C0100000 		.4byte	.LLST139
 10373 3c5b 3A       		.uleb128 0x3a
 10374 3c5c 7A3E0000 		.4byte	0x3e7a
 10375 3c60 E9100000 		.4byte	.LLST140
 10376 3c64 33       		.uleb128 0x33
 10377 3c65 09430000 		.4byte	0x4309
 10378 3c69 84000000 		.4byte	.LBB686
 10379 3c6d 06000000 		.4byte	.LBE686-.LBB686
 10380 3c71 01       		.byte	0x1
 10381 3c72 8B02     		.2byte	0x28b
 10382 3c74 C63C0000 		.4byte	0x3cc6
 10383 3c78 34       		.uleb128 0x34
 10384 3c79 6A430000 		.4byte	0x436a
 10385 3c7d 84000000 		.4byte	.LBB687
 10386 3c81 06000000 		.4byte	.LBE687-.LBB687
 10387 3c85 03       		.byte	0x3
 10388 3c86 D501     		.2byte	0x1d5
 10389 3c88 34       		.uleb128 0x34
 10390 3c89 A0430000 		.4byte	0x43a0
 10391 3c8d 84000000 		.4byte	.LBB688
 10392 3c91 06000000 		.4byte	.LBE688-.LBB688
 10393 3c95 29       		.byte	0x29
 10394 3c96 8401     		.2byte	0x184
 10395 3c98 34       		.uleb128 0x34
 10396 3c99 B2430000 		.4byte	0x43b2
 10397 3c9d 84000000 		.4byte	.LBB689
 10398 3ca1 06000000 		.4byte	.LBE689-.LBB689
 10399 3ca5 12       		.byte	0x12
 10400 3ca6 DB01     		.2byte	0x1db
 10401 3ca8 34       		.uleb128 0x34
 10402 3ca9 BB430000 		.4byte	0x43bb
 10403 3cad 84000000 		.4byte	.LBB690
 10404 3cb1 06000000 		.4byte	.LBE690-.LBB690
 10405 3cb5 12       		.byte	0x12
 10406 3cb6 BF01     		.2byte	0x1bf
 10407 3cb8 35       		.uleb128 0x35
 10408 3cb9 C8430000 		.4byte	0x43c8
 10409 3cbd 12110000 		.4byte	.LLST141
 10410 3cc1 00       		.byte	0
 10411 3cc2 00       		.byte	0
 10412 3cc3 00       		.byte	0
 10413 3cc4 00       		.byte	0
 10414 3cc5 00       		.byte	0
 10415 3cc6 38       		.uleb128 0x38
 10416 3cc7 99420000 		.4byte	0x4299
 10417 3ccb 8C000000 		.4byte	.LBB692
 10418 3ccf 10030000 		.4byte	.Ldebug_ranges0+0x310
 10419 3cd3 01       		.byte	0x1
ARM GAS  /tmp/ccigORce.s 			page 184


 10420 3cd4 8D02     		.2byte	0x28d
 10421 3cd6 053D0000 		.4byte	0x3d05
 10422 3cda 35       		.uleb128 0x35
 10423 3cdb B2420000 		.4byte	0x42b2
 10424 3cdf 27110000 		.4byte	.LLST142
 10425 3ce3 35       		.uleb128 0x35
 10426 3ce4 A6420000 		.4byte	0x42a6
 10427 3ce8 3B110000 		.4byte	.LLST143
 10428 3cec 3B       		.uleb128 0x3b
 10429 3ced 9A000000 		.4byte	.LVL272
 10430 3cf1 5E480000 		.4byte	0x485e
 10431 3cf5 3C       		.uleb128 0x3c
 10432 3cf6 01       		.uleb128 0x1
 10433 3cf7 50       		.byte	0x50
 10434 3cf8 05       		.uleb128 0x5
 10435 3cf9 03       		.byte	0x3
 10436 3cfa 60000000 		.4byte	.LANCHOR0+96
 10437 3cfe 3C       		.uleb128 0x3c
 10438 3cff 01       		.uleb128 0x1
 10439 3d00 51       		.byte	0x51
 10440 3d01 01       		.uleb128 0x1
 10441 3d02 30       		.byte	0x30
 10442 3d03 00       		.byte	0
 10443 3d04 00       		.byte	0
 10444 3d05 33       		.uleb128 0x33
 10445 3d06 00430000 		.4byte	0x4300
 10446 3d0a 9A000000 		.4byte	.LBB696
 10447 3d0e 08000000 		.4byte	.LBE696-.LBB696
 10448 3d12 01       		.byte	0x1
 10449 3d13 8E02     		.2byte	0x28e
 10450 3d15 673D0000 		.4byte	0x3d67
 10451 3d19 34       		.uleb128 0x34
 10452 3d1a 61430000 		.4byte	0x4361
 10453 3d1e 9A000000 		.4byte	.LBB697
 10454 3d22 08000000 		.4byte	.LBE697-.LBB697
 10455 3d26 03       		.byte	0x3
 10456 3d27 E001     		.2byte	0x1e0
 10457 3d29 34       		.uleb128 0x34
 10458 3d2a 97430000 		.4byte	0x4397
 10459 3d2e 9A000000 		.4byte	.LBB698
 10460 3d32 08000000 		.4byte	.LBE698-.LBB698
 10461 3d36 29       		.byte	0x29
 10462 3d37 9A01     		.2byte	0x19a
 10463 3d39 34       		.uleb128 0x34
 10464 3d3a A9430000 		.4byte	0x43a9
 10465 3d3e 9A000000 		.4byte	.LBB699
 10466 3d42 08000000 		.4byte	.LBE699-.LBB699
 10467 3d46 12       		.byte	0x12
 10468 3d47 E601     		.2byte	0x1e6
 10469 3d49 34       		.uleb128 0x34
 10470 3d4a BB430000 		.4byte	0x43bb
 10471 3d4e 9A000000 		.4byte	.LBB700
 10472 3d52 08000000 		.4byte	.LBE700-.LBB700
 10473 3d56 12       		.byte	0x12
 10474 3d57 CD01     		.2byte	0x1cd
 10475 3d59 35       		.uleb128 0x35
 10476 3d5a C8430000 		.4byte	0x43c8
ARM GAS  /tmp/ccigORce.s 			page 185


 10477 3d5e 53110000 		.4byte	.LLST144
 10478 3d62 00       		.byte	0
 10479 3d63 00       		.byte	0
 10480 3d64 00       		.byte	0
 10481 3d65 00       		.byte	0
 10482 3d66 00       		.byte	0
 10483 3d67 4F       		.uleb128 0x4f
 10484 3d68 28000000 		.4byte	.LVL259
 10485 3d6c 773D0000 		.4byte	0x3d77
 10486 3d70 3C       		.uleb128 0x3c
 10487 3d71 01       		.uleb128 0x1
 10488 3d72 50       		.byte	0x50
 10489 3d73 02       		.uleb128 0x2
 10490 3d74 75       		.byte	0x75
 10491 3d75 00       		.sleb128 0
 10492 3d76 00       		.byte	0
 10493 3d77 4E       		.uleb128 0x4e
 10494 3d78 66000000 		.4byte	.LVL265
 10495 3d7c 03440000 		.4byte	0x4403
 10496 3d80 8A3D0000 		.4byte	0x3d8a
 10497 3d84 3C       		.uleb128 0x3c
 10498 3d85 01       		.uleb128 0x1
 10499 3d86 50       		.byte	0x50
 10500 3d87 01       		.uleb128 0x1
 10501 3d88 33       		.byte	0x33
 10502 3d89 00       		.byte	0
 10503 3d8a 4E       		.uleb128 0x4e
 10504 3d8b 74000000 		.4byte	.LVL267
 10505 3d8f 69480000 		.4byte	0x4869
 10506 3d93 9E3D0000 		.4byte	0x3d9e
 10507 3d97 3C       		.uleb128 0x3c
 10508 3d98 01       		.uleb128 0x1
 10509 3d99 50       		.byte	0x50
 10510 3d9a 02       		.uleb128 0x2
 10511 3d9b 75       		.byte	0x75
 10512 3d9c 00       		.sleb128 0
 10513 3d9d 00       		.byte	0
 10514 3d9e 4F       		.uleb128 0x4f
 10515 3d9f 82000000 		.4byte	.LVL268
 10516 3da3 B33D0000 		.4byte	0x3db3
 10517 3da7 3C       		.uleb128 0x3c
 10518 3da8 01       		.uleb128 0x1
 10519 3da9 50       		.byte	0x50
 10520 3daa 02       		.uleb128 0x2
 10521 3dab 75       		.byte	0x75
 10522 3dac 00       		.sleb128 0
 10523 3dad 3C       		.uleb128 0x3c
 10524 3dae 01       		.uleb128 0x1
 10525 3daf 51       		.byte	0x51
 10526 3db0 01       		.uleb128 0x1
 10527 3db1 30       		.byte	0x30
 10528 3db2 00       		.byte	0
 10529 3db3 4E       		.uleb128 0x4e
 10530 3db4 A8000000 		.4byte	.LVL275
 10531 3db8 03440000 		.4byte	0x4403
 10532 3dbc C63D0000 		.4byte	0x3dc6
 10533 3dc0 3C       		.uleb128 0x3c
ARM GAS  /tmp/ccigORce.s 			page 186


 10534 3dc1 01       		.uleb128 0x1
 10535 3dc2 50       		.byte	0x50
 10536 3dc3 01       		.uleb128 0x1
 10537 3dc4 32       		.byte	0x32
 10538 3dc5 00       		.byte	0
 10539 3dc6 4E       		.uleb128 0x4e
 10540 3dc7 B4000000 		.4byte	.LVL276
 10541 3dcb 03440000 		.4byte	0x4403
 10542 3dcf D93D0000 		.4byte	0x3dd9
 10543 3dd3 3C       		.uleb128 0x3c
 10544 3dd4 01       		.uleb128 0x1
 10545 3dd5 50       		.byte	0x50
 10546 3dd6 01       		.uleb128 0x1
 10547 3dd7 30       		.byte	0x30
 10548 3dd8 00       		.byte	0
 10549 3dd9 4E       		.uleb128 0x4e
 10550 3dda BE000000 		.4byte	.LVL277
 10551 3dde 03440000 		.4byte	0x4403
 10552 3de2 EC3D0000 		.4byte	0x3dec
 10553 3de6 3C       		.uleb128 0x3c
 10554 3de7 01       		.uleb128 0x1
 10555 3de8 50       		.byte	0x50
 10556 3de9 01       		.uleb128 0x1
 10557 3dea 31       		.byte	0x31
 10558 3deb 00       		.byte	0
 10559 3dec 4E       		.uleb128 0x4e
 10560 3ded CA000000 		.4byte	.LVL279
 10561 3df1 55450000 		.4byte	0x4555
 10562 3df5 FF3D0000 		.4byte	0x3dff
 10563 3df9 3C       		.uleb128 0x3c
 10564 3dfa 01       		.uleb128 0x1
 10565 3dfb 50       		.byte	0x50
 10566 3dfc 01       		.uleb128 0x1
 10567 3dfd 30       		.byte	0x30
 10568 3dfe 00       		.byte	0
 10569 3dff 4E       		.uleb128 0x4e
 10570 3e00 D4000000 		.4byte	.LVL280
 10571 3e04 55450000 		.4byte	0x4555
 10572 3e08 123E0000 		.4byte	0x3e12
 10573 3e0c 3C       		.uleb128 0x3c
 10574 3e0d 01       		.uleb128 0x1
 10575 3e0e 50       		.byte	0x50
 10576 3e0f 01       		.uleb128 0x1
 10577 3e10 31       		.byte	0x31
 10578 3e11 00       		.byte	0
 10579 3e12 4E       		.uleb128 0x4e
 10580 3e13 DE000000 		.4byte	.LVL281
 10581 3e17 55450000 		.4byte	0x4555
 10582 3e1b 253E0000 		.4byte	0x3e25
 10583 3e1f 3C       		.uleb128 0x3c
 10584 3e20 01       		.uleb128 0x1
 10585 3e21 50       		.byte	0x50
 10586 3e22 01       		.uleb128 0x1
 10587 3e23 32       		.byte	0x32
 10588 3e24 00       		.byte	0
 10589 3e25 3B       		.uleb128 0x3b
 10590 3e26 E8000000 		.4byte	.LVL283
ARM GAS  /tmp/ccigORce.s 			page 187


 10591 3e2a 55450000 		.4byte	0x4555
 10592 3e2e 3C       		.uleb128 0x3c
 10593 3e2f 01       		.uleb128 0x1
 10594 3e30 50       		.byte	0x50
 10595 3e31 01       		.uleb128 0x1
 10596 3e32 33       		.byte	0x33
 10597 3e33 00       		.byte	0
 10598 3e34 00       		.byte	0
 10599 3e35 00       		.byte	0
 10600 3e36 50       		.uleb128 0x50
 10601 3e37 60000000 		.4byte	.LVL264
 10602 3e3b 75480000 		.4byte	0x4875
 10603 3e3f 50       		.uleb128 0x50
 10604 3e40 6E000000 		.4byte	.LVL266
 10605 3e44 75480000 		.4byte	0x4875
 10606 3e48 00       		.byte	0
 10607 3e49 51       		.uleb128 0x51
 10608 3e4a BF0C0000 		.4byte	.LASF656
 10609 3e4e 01       		.byte	0x1
 10610 3e4f 6F02     		.2byte	0x26f
 10611 3e51 01       		.byte	0x1
 10612 3e52 873E0000 		.4byte	0x3e87
 10613 3e56 43       		.uleb128 0x43
 10614 3e57 030E0000 		.4byte	.LASF630
 10615 3e5b 01       		.byte	0x1
 10616 3e5c 6F02     		.2byte	0x26f
 10617 3e5e AC230000 		.4byte	0x23ac
 10618 3e62 32       		.uleb128 0x32
 10619 3e63 3C170000 		.4byte	.LASF631
 10620 3e67 01       		.byte	0x1
 10621 3e68 7002     		.2byte	0x270
 10622 3e6a 292C0000 		.4byte	0x2c29
 10623 3e6e 52       		.uleb128 0x52
 10624 3e6f 73747300 		.ascii	"sts\000"
 10625 3e73 01       		.byte	0x1
 10626 3e74 7102     		.2byte	0x271
 10627 3e76 FE080000 		.4byte	0x8fe
 10628 3e7a 52       		.uleb128 0x52
 10629 3e7b 73726300 		.ascii	"src\000"
 10630 3e7f 01       		.byte	0x1
 10631 3e80 7102     		.2byte	0x271
 10632 3e82 FE080000 		.4byte	0x8fe
 10633 3e86 00       		.byte	0
 10634 3e87 51       		.uleb128 0x51
 10635 3e88 0E0A0000 		.4byte	.LASF657
 10636 3e8c 01       		.byte	0x1
 10637 3e8d 4502     		.2byte	0x245
 10638 3e8f 01       		.byte	0x1
 10639 3e90 D23E0000 		.4byte	0x3ed2
 10640 3e94 43       		.uleb128 0x43
 10641 3e95 030E0000 		.4byte	.LASF630
 10642 3e99 01       		.byte	0x1
 10643 3e9a 4502     		.2byte	0x245
 10644 3e9c AC230000 		.4byte	0x23ac
 10645 3ea0 44       		.uleb128 0x44
 10646 3ea1 657000   		.ascii	"ep\000"
 10647 3ea4 01       		.byte	0x1
ARM GAS  /tmp/ccigORce.s 			page 188


 10648 3ea5 4502     		.2byte	0x245
 10649 3ea7 69220000 		.4byte	0x2269
 10650 3eab 32       		.uleb128 0x32
 10651 3eac 3C170000 		.4byte	.LASF631
 10652 3eb0 01       		.byte	0x1
 10653 3eb1 4602     		.2byte	0x246
 10654 3eb3 292C0000 		.4byte	0x2c29
 10655 3eb7 32       		.uleb128 0x32
 10656 3eb8 7F0A0000 		.4byte	.LASF658
 10657 3ebc 01       		.byte	0x1
 10658 3ebd 4702     		.2byte	0x247
 10659 3ebf FE080000 		.4byte	0x8fe
 10660 3ec3 53       		.uleb128 0x53
 10661 3ec4 52       		.uleb128 0x52
 10662 3ec5 6F737000 		.ascii	"osp\000"
 10663 3ec9 01       		.byte	0x1
 10664 3eca 5402     		.2byte	0x254
 10665 3ecc 872B0000 		.4byte	0x2b87
 10666 3ed0 00       		.byte	0
 10667 3ed1 00       		.byte	0
 10668 3ed2 51       		.uleb128 0x51
 10669 3ed3 9D1B0000 		.4byte	.LASF659
 10670 3ed7 01       		.byte	0x1
 10671 3ed8 1502     		.2byte	0x215
 10672 3eda 01       		.byte	0x1
 10673 3edb 1D3F0000 		.4byte	0x3f1d
 10674 3edf 43       		.uleb128 0x43
 10675 3ee0 030E0000 		.4byte	.LASF630
 10676 3ee4 01       		.byte	0x1
 10677 3ee5 1502     		.2byte	0x215
 10678 3ee7 AC230000 		.4byte	0x23ac
 10679 3eeb 44       		.uleb128 0x44
 10680 3eec 657000   		.ascii	"ep\000"
 10681 3eef 01       		.byte	0x1
 10682 3ef0 1502     		.2byte	0x215
 10683 3ef2 69220000 		.4byte	0x2269
 10684 3ef6 32       		.uleb128 0x32
 10685 3ef7 3C170000 		.4byte	.LASF631
 10686 3efb 01       		.byte	0x1
 10687 3efc 1602     		.2byte	0x216
 10688 3efe 292C0000 		.4byte	0x2c29
 10689 3f02 32       		.uleb128 0x32
 10690 3f03 7F0A0000 		.4byte	.LASF658
 10691 3f07 01       		.byte	0x1
 10692 3f08 1702     		.2byte	0x217
 10693 3f0a FE080000 		.4byte	0x8fe
 10694 3f0e 53       		.uleb128 0x53
 10695 3f0f 52       		.uleb128 0x52
 10696 3f10 69737000 		.ascii	"isp\000"
 10697 3f14 01       		.byte	0x1
 10698 3f15 2002     		.2byte	0x220
 10699 3f17 812B0000 		.4byte	0x2b81
 10700 3f1b 00       		.byte	0
 10701 3f1c 00       		.byte	0
 10702 3f1d 54       		.uleb128 0x54
 10703 3f1e 440A0000 		.4byte	.LASF667
 10704 3f22 01       		.byte	0x1
ARM GAS  /tmp/ccigORce.s 			page 189


 10705 3f23 E101     		.2byte	0x1e1
 10706 3f25 8E170000 		.4byte	0x178e
 10707 3f29 01       		.byte	0x1
 10708 3f2a 523F0000 		.4byte	0x3f52
 10709 3f2e 43       		.uleb128 0x43
 10710 3f2f 030E0000 		.4byte	.LASF630
 10711 3f33 01       		.byte	0x1
 10712 3f34 E101     		.2byte	0x1e1
 10713 3f36 AC230000 		.4byte	0x23ac
 10714 3f3a 44       		.uleb128 0x44
 10715 3f3b 657000   		.ascii	"ep\000"
 10716 3f3e 01       		.byte	0x1
 10717 3f3f E101     		.2byte	0x1e1
 10718 3f41 69220000 		.4byte	0x2269
 10719 3f45 53       		.uleb128 0x53
 10720 3f46 52       		.uleb128 0x52
 10721 3f47 6E00     		.ascii	"n\000"
 10722 3f49 01       		.byte	0x1
 10723 3f4a E501     		.2byte	0x1e5
 10724 3f4c FE080000 		.4byte	0x8fe
 10725 3f50 00       		.byte	0
 10726 3f51 00       		.byte	0
 10727 3f52 51       		.uleb128 0x51
 10728 3f53 DA080000 		.4byte	.LASF660
 10729 3f57 01       		.byte	0x1
 10730 3f58 B201     		.2byte	0x1b2
 10731 3f5a 01       		.byte	0x1
 10732 3f5b 8F3F0000 		.4byte	0x3f8f
 10733 3f5f 43       		.uleb128 0x43
 10734 3f60 030E0000 		.4byte	.LASF630
 10735 3f64 01       		.byte	0x1
 10736 3f65 B201     		.2byte	0x1b2
 10737 3f67 AC230000 		.4byte	0x23ac
 10738 3f6b 52       		.uleb128 0x52
 10739 3f6c 73747300 		.ascii	"sts\000"
 10740 3f70 01       		.byte	0x1
 10741 3f71 B301     		.2byte	0x1b3
 10742 3f73 FE080000 		.4byte	0x8fe
 10743 3f77 52       		.uleb128 0x52
 10744 3f78 636E7400 		.ascii	"cnt\000"
 10745 3f7c 01       		.byte	0x1
 10746 3f7d B301     		.2byte	0x1b3
 10747 3f7f FE080000 		.4byte	0x8fe
 10748 3f83 52       		.uleb128 0x52
 10749 3f84 657000   		.ascii	"ep\000"
 10750 3f87 01       		.byte	0x1
 10751 3f88 B301     		.2byte	0x1b3
 10752 3f8a FE080000 		.4byte	0x8fe
 10753 3f8e 00       		.byte	0
 10754 3f8f 51       		.uleb128 0x51
 10755 3f90 241A0000 		.4byte	.LASF661
 10756 3f94 01       		.byte	0x1
 10757 3f95 7C01     		.2byte	0x17c
 10758 3f97 01       		.byte	0x1
 10759 3f98 06400000 		.4byte	0x4006
 10760 3f9c 43       		.uleb128 0x43
 10761 3f9d 881B0000 		.4byte	.LASF662
ARM GAS  /tmp/ccigORce.s 			page 190


 10762 3fa1 01       		.byte	0x1
 10763 3fa2 7C01     		.2byte	0x17c
 10764 3fa4 D6160000 		.4byte	0x16d6
 10765 3fa8 44       		.uleb128 0x44
 10766 3fa9 69717000 		.ascii	"iqp\000"
 10767 3fad 01       		.byte	0x1
 10768 3fae 7D01     		.2byte	0x17d
 10769 3fb0 7A2A0000 		.4byte	0x2a7a
 10770 3fb4 44       		.uleb128 0x44
 10771 3fb5 6E00     		.ascii	"n\000"
 10772 3fb7 01       		.byte	0x1
 10773 3fb8 7E01     		.2byte	0x17e
 10774 3fba 2F000000 		.4byte	0x2f
 10775 3fbe 32       		.uleb128 0x32
 10776 3fbf AE1B0000 		.4byte	.LASF663
 10777 3fc3 01       		.byte	0x1
 10778 3fc4 7F01     		.2byte	0x17f
 10779 3fc6 2F000000 		.4byte	0x2f
 10780 3fca 53       		.uleb128 0x53
 10781 3fcb 52       		.uleb128 0x52
 10782 3fcc 7700     		.ascii	"w\000"
 10783 3fce 01       		.byte	0x1
 10784 3fcf 8301     		.2byte	0x183
 10785 3fd1 FE080000 		.4byte	0x8fe
 10786 3fd5 52       		.uleb128 0x52
 10787 3fd6 6900     		.ascii	"i\000"
 10788 3fd8 01       		.byte	0x1
 10789 3fd9 8301     		.2byte	0x183
 10790 3fdb FE080000 		.4byte	0x8fe
 10791 3fdf 52       		.uleb128 0x52
 10792 3fe0 6E7700   		.ascii	"nw\000"
 10793 3fe3 01       		.byte	0x1
 10794 3fe4 8401     		.2byte	0x184
 10795 3fe6 2F000000 		.4byte	0x2f
 10796 3fea 53       		.uleb128 0x53
 10797 3feb 32       		.uleb128 0x32
 10798 3fec 8A0A0000 		.4byte	.LASF664
 10799 3ff0 01       		.byte	0x1
 10800 3ff1 8701     		.2byte	0x187
 10801 3ff3 2F000000 		.4byte	0x2f
 10802 3ff7 32       		.uleb128 0x32
 10803 3ff8 681C0000 		.4byte	.LASF665
 10804 3ffc 01       		.byte	0x1
 10805 3ffd 8801     		.2byte	0x188
 10806 3fff FE080000 		.4byte	0x8fe
 10807 4003 00       		.byte	0
 10808 4004 00       		.byte	0
 10809 4005 00       		.byte	0
 10810 4006 51       		.uleb128 0x51
 10811 4007 17140000 		.4byte	.LASF666
 10812 400b 01       		.byte	0x1
 10813 400c 5F01     		.2byte	0x15f
 10814 400e 01       		.byte	0x1
 10815 400f 4E400000 		.4byte	0x404e
 10816 4013 43       		.uleb128 0x43
 10817 4014 881B0000 		.4byte	.LASF662
 10818 4018 01       		.byte	0x1
ARM GAS  /tmp/ccigORce.s 			page 191


 10819 4019 5F01     		.2byte	0x15f
 10820 401b D6160000 		.4byte	0x16d6
 10821 401f 44       		.uleb128 0x44
 10822 4020 62756600 		.ascii	"buf\000"
 10823 4024 01       		.byte	0x1
 10824 4025 6001     		.2byte	0x160
 10825 4027 FC150000 		.4byte	0x15fc
 10826 402b 44       		.uleb128 0x44
 10827 402c 6E00     		.ascii	"n\000"
 10828 402e 01       		.byte	0x1
 10829 402f 6101     		.2byte	0x161
 10830 4031 2F000000 		.4byte	0x2f
 10831 4035 44       		.uleb128 0x44
 10832 4036 6D617800 		.ascii	"max\000"
 10833 403a 01       		.byte	0x1
 10834 403b 6201     		.2byte	0x162
 10835 403d 2F000000 		.4byte	0x2f
 10836 4041 53       		.uleb128 0x53
 10837 4042 52       		.uleb128 0x52
 10838 4043 7700     		.ascii	"w\000"
 10839 4045 01       		.byte	0x1
 10840 4046 6701     		.2byte	0x167
 10841 4048 FE080000 		.4byte	0x8fe
 10842 404c 00       		.byte	0
 10843 404d 00       		.byte	0
 10844 404e 54       		.uleb128 0x54
 10845 404f 45190000 		.4byte	.LASF668
 10846 4053 01       		.byte	0x1
 10847 4054 4801     		.2byte	0x148
 10848 4056 FC150000 		.4byte	0x15fc
 10849 405a 01       		.byte	0x1
 10850 405b 8E400000 		.4byte	0x408e
 10851 405f 43       		.uleb128 0x43
 10852 4060 881B0000 		.4byte	.LASF662
 10853 4064 01       		.byte	0x1
 10854 4065 4801     		.2byte	0x148
 10855 4067 D6160000 		.4byte	0x16d6
 10856 406b 44       		.uleb128 0x44
 10857 406c 62756600 		.ascii	"buf\000"
 10858 4070 01       		.byte	0x1
 10859 4071 4801     		.2byte	0x148
 10860 4073 FC150000 		.4byte	0x15fc
 10861 4077 44       		.uleb128 0x44
 10862 4078 6E00     		.ascii	"n\000"
 10863 407a 01       		.byte	0x1
 10864 407b 4801     		.2byte	0x148
 10865 407d 2F000000 		.4byte	0x2f
 10866 4081 53       		.uleb128 0x53
 10867 4082 52       		.uleb128 0x52
 10868 4083 7700     		.ascii	"w\000"
 10869 4085 01       		.byte	0x1
 10870 4086 4B01     		.2byte	0x14b
 10871 4088 FE080000 		.4byte	0x8fe
 10872 408c 00       		.byte	0
 10873 408d 00       		.byte	0
 10874 408e 51       		.uleb128 0x51
 10875 408f 52060000 		.4byte	.LASF669
ARM GAS  /tmp/ccigORce.s 			page 192


 10876 4093 01       		.byte	0x1
 10877 4094 0C01     		.2byte	0x10c
 10878 4096 01       		.byte	0x1
 10879 4097 05410000 		.4byte	0x4105
 10880 409b 43       		.uleb128 0x43
 10881 409c 881B0000 		.4byte	.LASF662
 10882 40a0 01       		.byte	0x1
 10883 40a1 0C01     		.2byte	0x10c
 10884 40a3 D6160000 		.4byte	0x16d6
 10885 40a7 44       		.uleb128 0x44
 10886 40a8 6F717000 		.ascii	"oqp\000"
 10887 40ac 01       		.byte	0x1
 10888 40ad 0D01     		.2byte	0x10d
 10889 40af D7290000 		.4byte	0x29d7
 10890 40b3 44       		.uleb128 0x44
 10891 40b4 6E00     		.ascii	"n\000"
 10892 40b6 01       		.byte	0x1
 10893 40b7 0E01     		.2byte	0x10e
 10894 40b9 2F000000 		.4byte	0x2f
 10895 40bd 32       		.uleb128 0x32
 10896 40be AE1B0000 		.4byte	.LASF663
 10897 40c2 01       		.byte	0x1
 10898 40c3 0F01     		.2byte	0x10f
 10899 40c5 2F000000 		.4byte	0x2f
 10900 40c9 53       		.uleb128 0x53
 10901 40ca 52       		.uleb128 0x52
 10902 40cb 7700     		.ascii	"w\000"
 10903 40cd 01       		.byte	0x1
 10904 40ce 1301     		.2byte	0x113
 10905 40d0 FE080000 		.4byte	0x8fe
 10906 40d4 52       		.uleb128 0x52
 10907 40d5 6900     		.ascii	"i\000"
 10908 40d7 01       		.byte	0x1
 10909 40d8 1301     		.2byte	0x113
 10910 40da FE080000 		.4byte	0x8fe
 10911 40de 52       		.uleb128 0x52
 10912 40df 6E7700   		.ascii	"nw\000"
 10913 40e2 01       		.byte	0x1
 10914 40e3 1401     		.2byte	0x114
 10915 40e5 2F000000 		.4byte	0x2f
 10916 40e9 53       		.uleb128 0x53
 10917 40ea 32       		.uleb128 0x32
 10918 40eb 8A0A0000 		.4byte	.LASF664
 10919 40ef 01       		.byte	0x1
 10920 40f0 1701     		.2byte	0x117
 10921 40f2 2F000000 		.4byte	0x2f
 10922 40f6 32       		.uleb128 0x32
 10923 40f7 681C0000 		.4byte	.LASF665
 10924 40fb 01       		.byte	0x1
 10925 40fc 1801     		.2byte	0x118
 10926 40fe FE080000 		.4byte	0x8fe
 10927 4102 00       		.byte	0
 10928 4103 00       		.byte	0
 10929 4104 00       		.byte	0
 10930 4105 55       		.uleb128 0x55
 10931 4106 62020000 		.4byte	.LASF670
 10932 410a 01       		.byte	0x1
ARM GAS  /tmp/ccigORce.s 			page 193


 10933 410b FC       		.byte	0xfc
 10934 410c 01       		.byte	0x1
 10935 410d 31410000 		.4byte	0x4131
 10936 4111 56       		.uleb128 0x56
 10937 4112 881B0000 		.4byte	.LASF662
 10938 4116 01       		.byte	0x1
 10939 4117 FC       		.byte	0xfc
 10940 4118 D6160000 		.4byte	0x16d6
 10941 411c 57       		.uleb128 0x57
 10942 411d 62756600 		.ascii	"buf\000"
 10943 4121 01       		.byte	0x1
 10944 4122 FD       		.byte	0xfd
 10945 4123 31160000 		.4byte	0x1631
 10946 4127 57       		.uleb128 0x57
 10947 4128 6E00     		.ascii	"n\000"
 10948 412a 01       		.byte	0x1
 10949 412b FE       		.byte	0xfe
 10950 412c 2F000000 		.4byte	0x2f
 10951 4130 00       		.byte	0
 10952 4131 58       		.uleb128 0x58
 10953 4132 890F0000 		.4byte	.LASF671
 10954 4136 01       		.byte	0x1
 10955 4137 E7       		.byte	0xe7
 10956 4138 FC150000 		.4byte	0x15fc
 10957 413c 01       		.byte	0x1
 10958 413d 61410000 		.4byte	0x4161
 10959 4141 56       		.uleb128 0x56
 10960 4142 881B0000 		.4byte	.LASF662
 10961 4146 01       		.byte	0x1
 10962 4147 E7       		.byte	0xe7
 10963 4148 D6160000 		.4byte	0x16d6
 10964 414c 57       		.uleb128 0x57
 10965 414d 62756600 		.ascii	"buf\000"
 10966 4151 01       		.byte	0x1
 10967 4152 E7       		.byte	0xe7
 10968 4153 FC150000 		.4byte	0x15fc
 10969 4157 57       		.uleb128 0x57
 10970 4158 6E00     		.ascii	"n\000"
 10971 415a 01       		.byte	0x1
 10972 415b E7       		.byte	0xe7
 10973 415c 2F000000 		.4byte	0x2f
 10974 4160 00       		.byte	0
 10975 4161 58       		.uleb128 0x58
 10976 4162 2A1D0000 		.4byte	.LASF672
 10977 4166 01       		.byte	0x1
 10978 4167 D1       		.byte	0xd1
 10979 4168 FE080000 		.4byte	0x8fe
 10980 416c 01       		.byte	0x1
 10981 416d A0410000 		.4byte	0x41a0
 10982 4171 56       		.uleb128 0x56
 10983 4172 030E0000 		.4byte	.LASF630
 10984 4176 01       		.byte	0x1
 10985 4177 D1       		.byte	0xd1
 10986 4178 AC230000 		.4byte	0x23ac
 10987 417c 56       		.uleb128 0x56
 10988 417d 13150000 		.4byte	.LASF673
 10989 4181 01       		.byte	0x1
ARM GAS  /tmp/ccigORce.s 			page 194


 10990 4182 D1       		.byte	0xd1
 10991 4183 2F000000 		.4byte	0x2f
 10992 4187 59       		.uleb128 0x59
 10993 4188 171D0000 		.4byte	.LASF674
 10994 418c 01       		.byte	0x1
 10995 418d D2       		.byte	0xd2
 10996 418e FE080000 		.4byte	0x8fe
 10997 4192 5A       		.uleb128 0x5a
 10998 4193 2F020000 		.4byte	.LASF675
 10999 4197 B0410000 		.4byte	0x41b0
 11000 419b 2A1D0000 		.4byte	.LASF672
 11001 419f 00       		.byte	0
 11002 41a0 08       		.uleb128 0x8
 11003 41a1 59010000 		.4byte	0x159
 11004 41a5 B0410000 		.4byte	0x41b0
 11005 41a9 09       		.uleb128 0x9
 11006 41aa 0C010000 		.4byte	0x10c
 11007 41ae 0D       		.byte	0xd
 11008 41af 00       		.byte	0
 11009 41b0 0E       		.uleb128 0xe
 11010 41b1 A0410000 		.4byte	0x41a0
 11011 41b5 55       		.uleb128 0x55
 11012 41b6 141B0000 		.4byte	.LASF676
 11013 41ba 01       		.byte	0x1
 11014 41bb C4       		.byte	0xc4
 11015 41bc 01       		.byte	0x1
 11016 41bd CD410000 		.4byte	0x41cd
 11017 41c1 56       		.uleb128 0x56
 11018 41c2 030E0000 		.4byte	.LASF630
 11019 41c6 01       		.byte	0x1
 11020 41c7 C4       		.byte	0xc4
 11021 41c8 AC230000 		.4byte	0x23ac
 11022 41cc 00       		.byte	0
 11023 41cd 55       		.uleb128 0x55
 11024 41ce 58180000 		.4byte	.LASF677
 11025 41d2 01       		.byte	0x1
 11026 41d3 B3       		.byte	0xb3
 11027 41d4 01       		.byte	0x1
 11028 41d5 FB410000 		.4byte	0x41fb
 11029 41d9 56       		.uleb128 0x56
 11030 41da 030E0000 		.4byte	.LASF630
 11031 41de 01       		.byte	0x1
 11032 41df B3       		.byte	0xb3
 11033 41e0 AC230000 		.4byte	0x23ac
 11034 41e4 56       		.uleb128 0x56
 11035 41e5 70100000 		.4byte	.LASF678
 11036 41e9 01       		.byte	0x1
 11037 41ea B3       		.byte	0xb3
 11038 41eb FE080000 		.4byte	0x8fe
 11039 41ef 59       		.uleb128 0x59
 11040 41f0 3C170000 		.4byte	.LASF631
 11041 41f4 01       		.byte	0x1
 11042 41f5 B4       		.byte	0xb4
 11043 41f6 292C0000 		.4byte	0x2c29
 11044 41fa 00       		.byte	0
 11045 41fb 55       		.uleb128 0x55
 11046 41fc D1120000 		.4byte	.LASF679
ARM GAS  /tmp/ccigORce.s 			page 195


 11047 4200 01       		.byte	0x1
 11048 4201 A9       		.byte	0xa9
 11049 4202 01       		.byte	0x1
 11050 4203 1E420000 		.4byte	0x421e
 11051 4207 56       		.uleb128 0x56
 11052 4208 030E0000 		.4byte	.LASF630
 11053 420c 01       		.byte	0x1
 11054 420d A9       		.byte	0xa9
 11055 420e AC230000 		.4byte	0x23ac
 11056 4212 59       		.uleb128 0x59
 11057 4213 3C170000 		.4byte	.LASF631
 11058 4217 01       		.byte	0x1
 11059 4218 AA       		.byte	0xaa
 11060 4219 292C0000 		.4byte	0x2c29
 11061 421d 00       		.byte	0
 11062 421e 55       		.uleb128 0x55
 11063 421f 941C0000 		.4byte	.LASF680
 11064 4223 01       		.byte	0x1
 11065 4224 84       		.byte	0x84
 11066 4225 01       		.byte	0x1
 11067 4226 4A420000 		.4byte	0x424a
 11068 422a 56       		.uleb128 0x56
 11069 422b 030E0000 		.4byte	.LASF630
 11070 422f 01       		.byte	0x1
 11071 4230 84       		.byte	0x84
 11072 4231 AC230000 		.4byte	0x23ac
 11073 4235 59       		.uleb128 0x59
 11074 4236 3C170000 		.4byte	.LASF631
 11075 423a 01       		.byte	0x1
 11076 423b 85       		.byte	0x85
 11077 423c 292C0000 		.4byte	0x2c29
 11078 4240 5B       		.uleb128 0x5b
 11079 4241 6900     		.ascii	"i\000"
 11080 4243 01       		.byte	0x1
 11081 4244 86       		.byte	0x86
 11082 4245 21000000 		.4byte	0x21
 11083 4249 00       		.byte	0
 11084 424a 55       		.uleb128 0x55
 11085 424b EA130000 		.4byte	.LASF681
 11086 424f 01       		.byte	0x1
 11087 4250 73       		.byte	0x73
 11088 4251 01       		.byte	0x1
 11089 4252 6D420000 		.4byte	0x426d
 11090 4256 56       		.uleb128 0x56
 11091 4257 030E0000 		.4byte	.LASF630
 11092 425b 01       		.byte	0x1
 11093 425c 73       		.byte	0x73
 11094 425d AC230000 		.4byte	0x23ac
 11095 4261 59       		.uleb128 0x59
 11096 4262 3C170000 		.4byte	.LASF631
 11097 4266 01       		.byte	0x1
 11098 4267 74       		.byte	0x74
 11099 4268 292C0000 		.4byte	0x2c29
 11100 426c 00       		.byte	0
 11101 426d 51       		.uleb128 0x51
 11102 426e 6B0F0000 		.4byte	.LASF682
 11103 4272 03       		.byte	0x3
ARM GAS  /tmp/ccigORce.s 			page 196


 11104 4273 FA02     		.2byte	0x2fa
 11105 4275 03       		.byte	0x3
 11106 4276 93420000 		.4byte	0x4293
 11107 427a 44       		.uleb128 0x44
 11108 427b 74717000 		.ascii	"tqp\000"
 11109 427f 03       		.byte	0x3
 11110 4280 FA02     		.2byte	0x2fa
 11111 4282 93420000 		.4byte	0x4293
 11112 4286 44       		.uleb128 0x44
 11113 4287 6D736700 		.ascii	"msg\000"
 11114 428b 03       		.byte	0x3
 11115 428c FA02     		.2byte	0x2fa
 11116 428e 50090000 		.4byte	0x950
 11117 4292 00       		.byte	0
 11118 4293 0D       		.uleb128 0xd
 11119 4294 04       		.byte	0x4
 11120 4295 B40A0000 		.4byte	0xab4
 11121 4299 51       		.uleb128 0x51
 11122 429a 56040000 		.4byte	.LASF683
 11123 429e 03       		.byte	0x3
 11124 429f A802     		.2byte	0x2a8
 11125 42a1 03       		.byte	0x3
 11126 42a2 BF420000 		.4byte	0x42bf
 11127 42a6 44       		.uleb128 0x44
 11128 42a7 74727000 		.ascii	"trp\000"
 11129 42ab 03       		.byte	0x3
 11130 42ac A802     		.2byte	0x2a8
 11131 42ae 3E130000 		.4byte	0x133e
 11132 42b2 44       		.uleb128 0x44
 11133 42b3 6D736700 		.ascii	"msg\000"
 11134 42b7 03       		.byte	0x3
 11135 42b8 A802     		.2byte	0x2a8
 11136 42ba 50090000 		.4byte	0x950
 11137 42be 00       		.byte	0
 11138 42bf 54       		.uleb128 0x54
 11139 42c0 08030000 		.4byte	.LASF684
 11140 42c4 03       		.byte	0x3
 11141 42c5 8002     		.2byte	0x280
 11142 42c7 50090000 		.4byte	0x950
 11143 42cb 03       		.byte	0x3
 11144 42cc DD420000 		.4byte	0x42dd
 11145 42d0 44       		.uleb128 0x44
 11146 42d1 74727000 		.ascii	"trp\000"
 11147 42d5 03       		.byte	0x3
 11148 42d6 8002     		.2byte	0x280
 11149 42d8 3E130000 		.4byte	0x133e
 11150 42dc 00       		.byte	0
 11151 42dd 5C       		.uleb128 0x5c
 11152 42de F3180000 		.4byte	.LASF687
 11153 42e2 03       		.byte	0x3
 11154 42e3 2802     		.2byte	0x228
 11155 42e5 03       		.byte	0x3
 11156 42e6 51       		.uleb128 0x51
 11157 42e7 3A120000 		.4byte	.LASF685
 11158 42eb 03       		.byte	0x3
 11159 42ec 0D02     		.2byte	0x20d
 11160 42ee 03       		.byte	0x3
ARM GAS  /tmp/ccigORce.s 			page 197


 11161 42ef 00430000 		.4byte	0x4300
 11162 42f3 43       		.uleb128 0x43
 11163 42f4 99150000 		.4byte	.LASF686
 11164 42f8 03       		.byte	0x3
 11165 42f9 0D02     		.2byte	0x20d
 11166 42fb 19090000 		.4byte	0x919
 11167 42ff 00       		.byte	0
 11168 4300 5C       		.uleb128 0x5c
 11169 4301 F0030000 		.4byte	.LASF688
 11170 4305 03       		.byte	0x3
 11171 4306 DE01     		.2byte	0x1de
 11172 4308 03       		.byte	0x3
 11173 4309 5C       		.uleb128 0x5c
 11174 430a AC100000 		.4byte	.LASF689
 11175 430e 03       		.byte	0x3
 11176 430f D301     		.2byte	0x1d3
 11177 4311 03       		.byte	0x3
 11178 4312 5C       		.uleb128 0x5c
 11179 4313 27040000 		.4byte	.LASF690
 11180 4317 03       		.byte	0x3
 11181 4318 C801     		.2byte	0x1c8
 11182 431a 03       		.byte	0x3
 11183 431b 5C       		.uleb128 0x5c
 11184 431c 16060000 		.4byte	.LASF691
 11185 4320 03       		.byte	0x3
 11186 4321 BD01     		.2byte	0x1bd
 11187 4323 03       		.byte	0x3
 11188 4324 58       		.uleb128 0x58
 11189 4325 7E150000 		.4byte	.LASF692
 11190 4329 04       		.byte	0x4
 11191 432a F5       		.byte	0xf5
 11192 432b 8A0A0000 		.4byte	0xa8a
 11193 432f 03       		.byte	0x3
 11194 4330 4C430000 		.4byte	0x434c
 11195 4334 57       		.uleb128 0x57
 11196 4335 747000   		.ascii	"tp\000"
 11197 4338 04       		.byte	0x4
 11198 4339 F5       		.byte	0xf5
 11199 433a 8A0A0000 		.4byte	0xa8a
 11200 433e 5A       		.uleb128 0x5a
 11201 433f 2F020000 		.4byte	.LASF675
 11202 4343 5C430000 		.4byte	0x435c
 11203 4347 7E150000 		.4byte	.LASF692
 11204 434b 00       		.byte	0
 11205 434c 08       		.uleb128 0x8
 11206 434d 59010000 		.4byte	0x159
 11207 4351 5C430000 		.4byte	0x435c
 11208 4355 09       		.uleb128 0x9
 11209 4356 0C010000 		.4byte	0x10c
 11210 435a 0B       		.byte	0xb
 11211 435b 00       		.byte	0
 11212 435c 0E       		.uleb128 0xe
 11213 435d 4C430000 		.4byte	0x434c
 11214 4361 5C       		.uleb128 0x5c
 11215 4362 9B070000 		.4byte	.LASF693
 11216 4366 29       		.byte	0x29
 11217 4367 9601     		.2byte	0x196
ARM GAS  /tmp/ccigORce.s 			page 198


 11218 4369 03       		.byte	0x3
 11219 436a 5C       		.uleb128 0x5c
 11220 436b CF050000 		.4byte	.LASF694
 11221 436f 29       		.byte	0x29
 11222 4370 8201     		.2byte	0x182
 11223 4372 03       		.byte	0x3
 11224 4373 51       		.uleb128 0x51
 11225 4374 F70C0000 		.4byte	.LASF695
 11226 4378 29       		.byte	0x29
 11227 4379 6601     		.2byte	0x166
 11228 437b 03       		.byte	0x3
 11229 437c 8E430000 		.4byte	0x438e
 11230 4380 5A       		.uleb128 0x5a
 11231 4381 2F020000 		.4byte	.LASF675
 11232 4385 5C430000 		.4byte	0x435c
 11233 4389 F70C0000 		.4byte	.LASF695
 11234 438d 00       		.byte	0
 11235 438e 5C       		.uleb128 0x5c
 11236 438f 220D0000 		.4byte	.LASF696
 11237 4393 29       		.byte	0x29
 11238 4394 5A01     		.2byte	0x15a
 11239 4396 03       		.byte	0x3
 11240 4397 5C       		.uleb128 0x5c
 11241 4398 8D080000 		.4byte	.LASF697
 11242 439c 12       		.byte	0x12
 11243 439d E401     		.2byte	0x1e4
 11244 439f 03       		.byte	0x3
 11245 43a0 5C       		.uleb128 0x5c
 11246 43a1 0A100000 		.4byte	.LASF698
 11247 43a5 12       		.byte	0x12
 11248 43a6 D901     		.2byte	0x1d9
 11249 43a8 03       		.byte	0x3
 11250 43a9 5C       		.uleb128 0x5c
 11251 43aa 82050000 		.4byte	.LASF699
 11252 43ae 12       		.byte	0x12
 11253 43af CA01     		.2byte	0x1ca
 11254 43b1 03       		.byte	0x3
 11255 43b2 5C       		.uleb128 0x5c
 11256 43b3 69180000 		.4byte	.LASF700
 11257 43b7 12       		.byte	0x12
 11258 43b8 BC01     		.2byte	0x1bc
 11259 43ba 03       		.byte	0x3
 11260 43bb 51       		.uleb128 0x51
 11261 43bc 16170000 		.4byte	.LASF701
 11262 43c0 02       		.byte	0x2
 11263 43c1 2002     		.2byte	0x220
 11264 43c3 03       		.byte	0x3
 11265 43c4 D5430000 		.4byte	0x43d5
 11266 43c8 43       		.uleb128 0x43
 11267 43c9 12160000 		.4byte	.LASF702
 11268 43cd 02       		.byte	0x2
 11269 43ce 2002     		.2byte	0x220
 11270 43d0 FE080000 		.4byte	0x8fe
 11271 43d4 00       		.byte	0
 11272 43d5 5D       		.uleb128 0x5d
 11273 43d6 1E420000 		.4byte	0x421e
 11274 43da 00000000 		.4byte	.LFB295
ARM GAS  /tmp/ccigORce.s 			page 199


 11275 43de 72000000 		.4byte	.LFE295-.LFB295
 11276 43e2 01       		.uleb128 0x1
 11277 43e3 9C       		.byte	0x9c
 11278 43e4 03440000 		.4byte	0x4403
 11279 43e8 3F       		.uleb128 0x3f
 11280 43e9 2A420000 		.4byte	0x422a
 11281 43ed 3F       		.uleb128 0x3f
 11282 43ee 2A420000 		.4byte	0x422a
 11283 43f2 5E       		.uleb128 0x5e
 11284 43f3 35420000 		.4byte	0x4235
 11285 43f7 01       		.uleb128 0x1
 11286 43f8 50       		.byte	0x50
 11287 43f9 3A       		.uleb128 0x3a
 11288 43fa 40420000 		.4byte	0x4240
 11289 43fe 67110000 		.4byte	.LLST62
 11290 4402 00       		.byte	0
 11291 4403 5D       		.uleb128 0x5d
 11292 4404 873E0000 		.4byte	0x3e87
 11293 4408 00000000 		.4byte	.LFB302
 11294 440c A0000000 		.4byte	.LFE302-.LFB302
 11295 4410 01       		.uleb128 0x1
 11296 4411 9C       		.byte	0x9c
 11297 4412 55450000 		.4byte	0x4555
 11298 4416 35       		.uleb128 0x35
 11299 4417 A03E0000 		.4byte	0x3ea0
 11300 441b 86110000 		.4byte	.LLST115
 11301 441f 3A       		.uleb128 0x3a
 11302 4420 AB3E0000 		.4byte	0x3eab
 11303 4424 A7110000 		.4byte	.LLST116
 11304 4428 3A       		.uleb128 0x3a
 11305 4429 B73E0000 		.4byte	0x3eb7
 11306 442d C5110000 		.4byte	.LLST117
 11307 4431 5F       		.uleb128 0x5f
 11308 4432 943E0000 		.4byte	0x3e94
 11309 4436 06       		.uleb128 0x6
 11310 4437 03       		.byte	0x3
 11311 4438 00000000 		.4byte	USBD1
 11312 443c 9F       		.byte	0x9f
 11313 443d 3D       		.uleb128 0x3d
 11314 443e 80020000 		.4byte	.Ldebug_ranges0+0x280
 11315 4442 42450000 		.4byte	0x4542
 11316 4446 3A       		.uleb128 0x3a
 11317 4447 C43E0000 		.4byte	0x3ec4
 11318 444b E3110000 		.4byte	.LLST118
 11319 444f 33       		.uleb128 0x33
 11320 4450 6A430000 		.4byte	0x436a
 11321 4454 7C000000 		.4byte	.LBB618
 11322 4458 0C000000 		.4byte	.LBE618-.LBB618
 11323 445c 01       		.byte	0x1
 11324 445d 5D02     		.2byte	0x25d
 11325 445f A0440000 		.4byte	0x44a0
 11326 4463 34       		.uleb128 0x34
 11327 4464 A0430000 		.4byte	0x43a0
 11328 4468 7C000000 		.4byte	.LBB619
 11329 446c 0C000000 		.4byte	.LBE619-.LBB619
 11330 4470 29       		.byte	0x29
 11331 4471 8401     		.2byte	0x184
ARM GAS  /tmp/ccigORce.s 			page 200


 11332 4473 34       		.uleb128 0x34
 11333 4474 B2430000 		.4byte	0x43b2
 11334 4478 7C000000 		.4byte	.LBB620
 11335 447c 0C000000 		.4byte	.LBE620-.LBB620
 11336 4480 12       		.byte	0x12
 11337 4481 DB01     		.2byte	0x1db
 11338 4483 34       		.uleb128 0x34
 11339 4484 BB430000 		.4byte	0x43bb
 11340 4488 7C000000 		.4byte	.LBB621
 11341 448c 0C000000 		.4byte	.LBE621-.LBB621
 11342 4490 12       		.byte	0x12
 11343 4491 BF01     		.2byte	0x1bf
 11344 4493 35       		.uleb128 0x35
 11345 4494 C8430000 		.4byte	0x43c8
 11346 4498 23120000 		.4byte	.LLST119
 11347 449c 00       		.byte	0
 11348 449d 00       		.byte	0
 11349 449e 00       		.byte	0
 11350 449f 00       		.byte	0
 11351 44a0 33       		.uleb128 0x33
 11352 44a1 47350000 		.4byte	0x3547
 11353 44a5 88000000 		.4byte	.LBB623
 11354 44a9 0C000000 		.4byte	.LBE623-.LBB623
 11355 44ad 01       		.byte	0x1
 11356 44ae 5E02     		.2byte	0x25e
 11357 44b0 C7440000 		.4byte	0x44c7
 11358 44b4 35       		.uleb128 0x35
 11359 44b5 60350000 		.4byte	0x3560
 11360 44b9 38120000 		.4byte	.LLST120
 11361 44bd 35       		.uleb128 0x35
 11362 44be 54350000 		.4byte	0x3554
 11363 44c2 4B120000 		.4byte	.LLST121
 11364 44c6 00       		.byte	0
 11365 44c7 33       		.uleb128 0x33
 11366 44c8 61430000 		.4byte	0x4361
 11367 44cc 94000000 		.4byte	.LBB625
 11368 44d0 0C000000 		.4byte	.LBE625-.LBB625
 11369 44d4 01       		.byte	0x1
 11370 44d5 5F02     		.2byte	0x25f
 11371 44d7 18450000 		.4byte	0x4518
 11372 44db 34       		.uleb128 0x34
 11373 44dc 97430000 		.4byte	0x4397
 11374 44e0 94000000 		.4byte	.LBB626
 11375 44e4 0C000000 		.4byte	.LBE626-.LBB626
 11376 44e8 29       		.byte	0x29
 11377 44e9 9A01     		.2byte	0x19a
 11378 44eb 34       		.uleb128 0x34
 11379 44ec A9430000 		.4byte	0x43a9
 11380 44f0 94000000 		.4byte	.LBB627
 11381 44f4 0C000000 		.4byte	.LBE627-.LBB627
 11382 44f8 12       		.byte	0x12
 11383 44f9 E601     		.2byte	0x1e6
 11384 44fb 34       		.uleb128 0x34
 11385 44fc BB430000 		.4byte	0x43bb
 11386 4500 94000000 		.4byte	.LBB628
 11387 4504 0C000000 		.4byte	.LBE628-.LBB628
 11388 4508 12       		.byte	0x12
ARM GAS  /tmp/ccigORce.s 			page 201


 11389 4509 CD01     		.2byte	0x1cd
 11390 450b 35       		.uleb128 0x35
 11391 450c C8430000 		.4byte	0x43c8
 11392 4510 63120000 		.4byte	.LLST122
 11393 4514 00       		.byte	0
 11394 4515 00       		.byte	0
 11395 4516 00       		.byte	0
 11396 4517 00       		.byte	0
 11397 4518 60       		.uleb128 0x60
 11398 4519 58000000 		.4byte	.LVL215
 11399 451d 2B450000 		.4byte	0x452b
 11400 4521 3C       		.uleb128 0x3c
 11401 4522 01       		.uleb128 0x1
 11402 4523 50       		.byte	0x50
 11403 4524 05       		.uleb128 0x5
 11404 4525 03       		.byte	0x3
 11405 4526 00000000 		.4byte	.LANCHOR0
 11406 452a 00       		.byte	0
 11407 452b 3B       		.uleb128 0x3b
 11408 452c 7C000000 		.4byte	.LVL220
 11409 4530 C8350000 		.4byte	0x35c8
 11410 4534 3C       		.uleb128 0x3c
 11411 4535 01       		.uleb128 0x1
 11412 4536 50       		.byte	0x50
 11413 4537 02       		.uleb128 0x2
 11414 4538 76       		.byte	0x76
 11415 4539 00       		.sleb128 0
 11416 453a 3C       		.uleb128 0x3c
 11417 453b 01       		.uleb128 0x1
 11418 453c 51       		.byte	0x51
 11419 453d 02       		.uleb128 0x2
 11420 453e 75       		.byte	0x75
 11421 453f 00       		.sleb128 0
 11422 4540 00       		.byte	0
 11423 4541 00       		.byte	0
 11424 4542 61       		.uleb128 0x61
 11425 4543 6A000000 		.4byte	.LVL217
 11426 4547 3C       		.uleb128 0x3c
 11427 4548 01       		.uleb128 0x1
 11428 4549 50       		.byte	0x50
 11429 454a 02       		.uleb128 0x2
 11430 454b 76       		.byte	0x76
 11431 454c 00       		.sleb128 0
 11432 454d 3C       		.uleb128 0x3c
 11433 454e 01       		.uleb128 0x1
 11434 454f 51       		.byte	0x51
 11435 4550 02       		.uleb128 0x2
 11436 4551 75       		.byte	0x75
 11437 4552 00       		.sleb128 0
 11438 4553 00       		.byte	0
 11439 4554 00       		.byte	0
 11440 4555 5D       		.uleb128 0x5d
 11441 4556 D23E0000 		.4byte	0x3ed2
 11442 455a 00000000 		.4byte	.LFB301
 11443 455e D4000000 		.4byte	.LFE301-.LFB301
 11444 4562 01       		.uleb128 0x1
 11445 4563 9C       		.byte	0x9c
ARM GAS  /tmp/ccigORce.s 			page 202


 11446 4564 B8470000 		.4byte	0x47b8
 11447 4568 35       		.uleb128 0x35
 11448 4569 EB3E0000 		.4byte	0x3eeb
 11449 456d 77120000 		.4byte	.LLST127
 11450 4571 5E       		.uleb128 0x5e
 11451 4572 F63E0000 		.4byte	0x3ef6
 11452 4576 01       		.uleb128 0x1
 11453 4577 55       		.byte	0x55
 11454 4578 5E       		.uleb128 0x5e
 11455 4579 023F0000 		.4byte	0x3f02
 11456 457d 01       		.uleb128 0x1
 11457 457e 54       		.byte	0x54
 11458 457f 5F       		.uleb128 0x5f
 11459 4580 DF3E0000 		.4byte	0x3edf
 11460 4584 06       		.uleb128 0x6
 11461 4585 03       		.byte	0x3
 11462 4586 00000000 		.4byte	USBD1
 11463 458a 9F       		.byte	0x9f
 11464 458b 3D       		.uleb128 0x3d
 11465 458c B8020000 		.4byte	.Ldebug_ranges0+0x2b8
 11466 4590 B8460000 		.4byte	0x46b8
 11467 4594 3A       		.uleb128 0x3a
 11468 4595 0F3F0000 		.4byte	0x3f0f
 11469 4599 B1120000 		.4byte	.LLST128
 11470 459d 33       		.uleb128 0x33
 11471 459e 09430000 		.4byte	0x4309
 11472 45a2 5C000000 		.4byte	.LBB635
 11473 45a6 06000000 		.4byte	.LBE635-.LBB635
 11474 45aa 01       		.byte	0x1
 11475 45ab 2902     		.2byte	0x229
 11476 45ad FF450000 		.4byte	0x45ff
 11477 45b1 34       		.uleb128 0x34
 11478 45b2 6A430000 		.4byte	0x436a
 11479 45b6 5C000000 		.4byte	.LBB636
 11480 45ba 06000000 		.4byte	.LBE636-.LBB636
 11481 45be 03       		.byte	0x3
 11482 45bf D501     		.2byte	0x1d5
 11483 45c1 34       		.uleb128 0x34
 11484 45c2 A0430000 		.4byte	0x43a0
 11485 45c6 5C000000 		.4byte	.LBB637
 11486 45ca 06000000 		.4byte	.LBE637-.LBB637
 11487 45ce 29       		.byte	0x29
 11488 45cf 8401     		.2byte	0x184
 11489 45d1 34       		.uleb128 0x34
 11490 45d2 B2430000 		.4byte	0x43b2
 11491 45d6 5C000000 		.4byte	.LBB638
 11492 45da 06000000 		.4byte	.LBE638-.LBB638
 11493 45de 12       		.byte	0x12
 11494 45df DB01     		.2byte	0x1db
 11495 45e1 34       		.uleb128 0x34
 11496 45e2 BB430000 		.4byte	0x43bb
 11497 45e6 5C000000 		.4byte	.LBB639
 11498 45ea 06000000 		.4byte	.LBE639-.LBB639
 11499 45ee 12       		.byte	0x12
 11500 45ef BF01     		.2byte	0x1bf
 11501 45f1 35       		.uleb128 0x35
 11502 45f2 C8430000 		.4byte	0x43c8
ARM GAS  /tmp/ccigORce.s 			page 203


 11503 45f6 F1120000 		.4byte	.LLST129
 11504 45fa 00       		.byte	0
 11505 45fb 00       		.byte	0
 11506 45fc 00       		.byte	0
 11507 45fd 00       		.byte	0
 11508 45fe 00       		.byte	0
 11509 45ff 33       		.uleb128 0x33
 11510 4600 22350000 		.4byte	0x3522
 11511 4604 62000000 		.4byte	.LBB641
 11512 4608 20000000 		.4byte	.LBE641-.LBB641
 11513 460c 01       		.byte	0x1
 11514 460d 2A02     		.2byte	0x22a
 11515 460f 26460000 		.4byte	0x4626
 11516 4613 35       		.uleb128 0x35
 11517 4614 3B350000 		.4byte	0x353b
 11518 4618 06130000 		.4byte	.LLST130
 11519 461c 35       		.uleb128 0x35
 11520 461d 2F350000 		.4byte	0x352f
 11521 4621 19130000 		.4byte	.LLST131
 11522 4625 00       		.byte	0
 11523 4626 33       		.uleb128 0x33
 11524 4627 00430000 		.4byte	0x4300
 11525 462b 82000000 		.4byte	.LBB643
 11526 462f 06000000 		.4byte	.LBE643-.LBB643
 11527 4633 01       		.byte	0x1
 11528 4634 2B02     		.2byte	0x22b
 11529 4636 88460000 		.4byte	0x4688
 11530 463a 34       		.uleb128 0x34
 11531 463b 61430000 		.4byte	0x4361
 11532 463f 82000000 		.4byte	.LBB644
 11533 4643 06000000 		.4byte	.LBE644-.LBB644
 11534 4647 03       		.byte	0x3
 11535 4648 E001     		.2byte	0x1e0
 11536 464a 34       		.uleb128 0x34
 11537 464b 97430000 		.4byte	0x4397
 11538 464f 82000000 		.4byte	.LBB645
 11539 4653 06000000 		.4byte	.LBE645-.LBB645
 11540 4657 29       		.byte	0x29
 11541 4658 9A01     		.2byte	0x19a
 11542 465a 34       		.uleb128 0x34
 11543 465b A9430000 		.4byte	0x43a9
 11544 465f 82000000 		.4byte	.LBB646
 11545 4663 06000000 		.4byte	.LBE646-.LBB646
 11546 4667 12       		.byte	0x12
 11547 4668 E601     		.2byte	0x1e6
 11548 466a 34       		.uleb128 0x34
 11549 466b BB430000 		.4byte	0x43bb
 11550 466f 82000000 		.4byte	.LBB647
 11551 4673 06000000 		.4byte	.LBE647-.LBB647
 11552 4677 12       		.byte	0x12
 11553 4678 CD01     		.2byte	0x1cd
 11554 467a 35       		.uleb128 0x35
 11555 467b C8430000 		.4byte	0x43c8
 11556 467f 31130000 		.4byte	.LLST132
 11557 4683 00       		.byte	0
 11558 4684 00       		.byte	0
 11559 4685 00       		.byte	0
ARM GAS  /tmp/ccigORce.s 			page 204


 11560 4686 00       		.byte	0
 11561 4687 00       		.byte	0
 11562 4688 4E       		.uleb128 0x4e
 11563 4689 5C000000 		.4byte	.LVL242
 11564 468d 6C350000 		.4byte	0x356c
 11565 4691 A2460000 		.4byte	0x46a2
 11566 4695 3C       		.uleb128 0x3c
 11567 4696 01       		.uleb128 0x1
 11568 4697 50       		.byte	0x50
 11569 4698 02       		.uleb128 0x2
 11570 4699 77       		.byte	0x77
 11571 469a 00       		.sleb128 0
 11572 469b 3C       		.uleb128 0x3c
 11573 469c 01       		.uleb128 0x1
 11574 469d 51       		.byte	0x51
 11575 469e 02       		.uleb128 0x2
 11576 469f 76       		.byte	0x76
 11577 46a0 00       		.sleb128 0
 11578 46a1 00       		.byte	0
 11579 46a2 62       		.uleb128 0x62
 11580 46a3 C8000000 		.4byte	.LVL254
 11581 46a7 02       		.uleb128 0x2
 11582 46a8 78       		.byte	0x78
 11583 46a9 00       		.sleb128 0
 11584 46aa 3C       		.uleb128 0x3c
 11585 46ab 01       		.uleb128 0x1
 11586 46ac 50       		.byte	0x50
 11587 46ad 02       		.uleb128 0x2
 11588 46ae 77       		.byte	0x77
 11589 46af 00       		.sleb128 0
 11590 46b0 3C       		.uleb128 0x3c
 11591 46b1 01       		.uleb128 0x1
 11592 46b2 51       		.byte	0x51
 11593 46b3 02       		.uleb128 0x2
 11594 46b4 76       		.byte	0x76
 11595 46b5 00       		.sleb128 0
 11596 46b6 00       		.byte	0
 11597 46b7 00       		.byte	0
 11598 46b8 33       		.uleb128 0x33
 11599 46b9 09430000 		.4byte	0x4309
 11600 46bd 88000000 		.4byte	.LBB649
 11601 46c1 06000000 		.4byte	.LBE649-.LBB649
 11602 46c5 01       		.byte	0x1
 11603 46c6 3502     		.2byte	0x235
 11604 46c8 1A470000 		.4byte	0x471a
 11605 46cc 34       		.uleb128 0x34
 11606 46cd 6A430000 		.4byte	0x436a
 11607 46d1 88000000 		.4byte	.LBB650
 11608 46d5 06000000 		.4byte	.LBE650-.LBB650
 11609 46d9 03       		.byte	0x3
 11610 46da D501     		.2byte	0x1d5
 11611 46dc 34       		.uleb128 0x34
 11612 46dd A0430000 		.4byte	0x43a0
 11613 46e1 88000000 		.4byte	.LBB651
 11614 46e5 06000000 		.4byte	.LBE651-.LBB651
 11615 46e9 29       		.byte	0x29
 11616 46ea 8401     		.2byte	0x184
ARM GAS  /tmp/ccigORce.s 			page 205


 11617 46ec 34       		.uleb128 0x34
 11618 46ed B2430000 		.4byte	0x43b2
 11619 46f1 88000000 		.4byte	.LBB652
 11620 46f5 06000000 		.4byte	.LBE652-.LBB652
 11621 46f9 12       		.byte	0x12
 11622 46fa DB01     		.2byte	0x1db
 11623 46fc 34       		.uleb128 0x34
 11624 46fd BB430000 		.4byte	0x43bb
 11625 4701 88000000 		.4byte	.LBB653
 11626 4705 06000000 		.4byte	.LBE653-.LBB653
 11627 4709 12       		.byte	0x12
 11628 470a BF01     		.2byte	0x1bf
 11629 470c 35       		.uleb128 0x35
 11630 470d C8430000 		.4byte	0x43c8
 11631 4711 45130000 		.4byte	.LLST133
 11632 4715 00       		.byte	0
 11633 4716 00       		.byte	0
 11634 4717 00       		.byte	0
 11635 4718 00       		.byte	0
 11636 4719 00       		.byte	0
 11637 471a 38       		.uleb128 0x38
 11638 471b 99420000 		.4byte	0x4299
 11639 471f 94000000 		.4byte	.LBB655
 11640 4723 D0020000 		.4byte	.Ldebug_ranges0+0x2d0
 11641 4727 01       		.byte	0x1
 11642 4728 3802     		.2byte	0x238
 11643 472a 59470000 		.4byte	0x4759
 11644 472e 35       		.uleb128 0x35
 11645 472f B2420000 		.4byte	0x42b2
 11646 4733 5A130000 		.4byte	.LLST134
 11647 4737 35       		.uleb128 0x35
 11648 4738 A6420000 		.4byte	0x42a6
 11649 473c 6E130000 		.4byte	.LLST135
 11650 4740 3B       		.uleb128 0x3b
 11651 4741 A8000000 		.4byte	.LVL249
 11652 4745 5E480000 		.4byte	0x485e
 11653 4749 3C       		.uleb128 0x3c
 11654 474a 01       		.uleb128 0x1
 11655 474b 50       		.byte	0x50
 11656 474c 05       		.uleb128 0x5
 11657 474d 03       		.byte	0x3
 11658 474e 60000000 		.4byte	.LANCHOR0+96
 11659 4752 3C       		.uleb128 0x3c
 11660 4753 01       		.uleb128 0x1
 11661 4754 51       		.byte	0x51
 11662 4755 01       		.uleb128 0x1
 11663 4756 30       		.byte	0x30
 11664 4757 00       		.byte	0
 11665 4758 00       		.byte	0
 11666 4759 34       		.uleb128 0x34
 11667 475a 00430000 		.4byte	0x4300
 11668 475e A8000000 		.4byte	.LBB661
 11669 4762 0A000000 		.4byte	.LBE661-.LBB661
 11670 4766 01       		.byte	0x1
 11671 4767 3902     		.2byte	0x239
 11672 4769 34       		.uleb128 0x34
 11673 476a 61430000 		.4byte	0x4361
ARM GAS  /tmp/ccigORce.s 			page 206


 11674 476e A8000000 		.4byte	.LBB662
 11675 4772 0A000000 		.4byte	.LBE662-.LBB662
 11676 4776 03       		.byte	0x3
 11677 4777 E001     		.2byte	0x1e0
 11678 4779 34       		.uleb128 0x34
 11679 477a 97430000 		.4byte	0x4397
 11680 477e A8000000 		.4byte	.LBB663
 11681 4782 0A000000 		.4byte	.LBE663-.LBB663
 11682 4786 29       		.byte	0x29
 11683 4787 9A01     		.2byte	0x19a
 11684 4789 34       		.uleb128 0x34
 11685 478a A9430000 		.4byte	0x43a9
 11686 478e A8000000 		.4byte	.LBB664
 11687 4792 0A000000 		.4byte	.LBE664-.LBB664
 11688 4796 12       		.byte	0x12
 11689 4797 E601     		.2byte	0x1e6
 11690 4799 34       		.uleb128 0x34
 11691 479a BB430000 		.4byte	0x43bb
 11692 479e A8000000 		.4byte	.LBB665
 11693 47a2 0A000000 		.4byte	.LBE665-.LBB665
 11694 47a6 12       		.byte	0x12
 11695 47a7 CD01     		.2byte	0x1cd
 11696 47a9 35       		.uleb128 0x35
 11697 47aa C8430000 		.4byte	0x43c8
 11698 47ae 86130000 		.4byte	.LLST136
 11699 47b2 00       		.byte	0
 11700 47b3 00       		.byte	0
 11701 47b4 00       		.byte	0
 11702 47b5 00       		.byte	0
 11703 47b6 00       		.byte	0
 11704 47b7 00       		.byte	0
 11705 47b8 5D       		.uleb128 0x5d
 11706 47b9 47350000 		.4byte	0x3547
 11707 47bd 00000000 		.4byte	.LFB288
 11708 47c1 14000000 		.4byte	.LFE288-.LFB288
 11709 47c5 01       		.uleb128 0x1
 11710 47c6 9C       		.byte	0x9c
 11711 47c7 DC470000 		.4byte	0x47dc
 11712 47cb 5F       		.uleb128 0x5f
 11713 47cc 54350000 		.4byte	0x3554
 11714 47d0 01       		.uleb128 0x1
 11715 47d1 50       		.byte	0x50
 11716 47d2 35       		.uleb128 0x35
 11717 47d3 60350000 		.4byte	0x3560
 11718 47d7 9A130000 		.4byte	.LLST145
 11719 47db 00       		.byte	0
 11720 47dc 5D       		.uleb128 0x5d
 11721 47dd 22350000 		.4byte	0x3522
 11722 47e1 00000000 		.4byte	.LFB289
 11723 47e5 28000000 		.4byte	.LFE289-.LFB289
 11724 47e9 01       		.uleb128 0x1
 11725 47ea 9C       		.byte	0x9c
 11726 47eb 02480000 		.4byte	0x4802
 11727 47ef 35       		.uleb128 0x35
 11728 47f0 2F350000 		.4byte	0x352f
 11729 47f4 BB130000 		.4byte	.LLST146
 11730 47f8 35       		.uleb128 0x35
ARM GAS  /tmp/ccigORce.s 			page 207


 11731 47f9 3B350000 		.4byte	0x353b
 11732 47fd DC130000 		.4byte	.LLST147
 11733 4801 00       		.byte	0
 11734 4802 63       		.uleb128 0x63
 11735 4803 E1010000 		.4byte	.LASF703
 11736 4807 E1010000 		.4byte	.LASF703
 11737 480b 04       		.byte	0x4
 11738 480c 94       		.byte	0x94
 11739 480d 64       		.uleb128 0x64
 11740 480e E2180000 		.4byte	.LASF704
 11741 4812 E2180000 		.4byte	.LASF704
 11742 4816 0D       		.byte	0xd
 11743 4817 1702     		.2byte	0x217
 11744 4819 63       		.uleb128 0x63
 11745 481a EC040000 		.4byte	.LASF705
 11746 481e EC040000 		.4byte	.LASF705
 11747 4822 04       		.byte	0x4
 11748 4823 8D       		.byte	0x8d
 11749 4824 64       		.uleb128 0x64
 11750 4825 05000000 		.4byte	.LASF706
 11751 4829 05000000 		.4byte	.LASF706
 11752 482d 29       		.byte	0x29
 11753 482e 1D01     		.2byte	0x11d
 11754 4830 64       		.uleb128 0x64
 11755 4831 A7020000 		.4byte	.LASF707
 11756 4835 A7020000 		.4byte	.LASF707
 11757 4839 0D       		.byte	0xd
 11758 483a 1302     		.2byte	0x213
 11759 483c 63       		.uleb128 0x63
 11760 483d AE060000 		.4byte	.LASF708
 11761 4841 AE060000 		.4byte	.LASF708
 11762 4845 2A       		.byte	0x2a
 11763 4846 4E       		.byte	0x4e
 11764 4847 63       		.uleb128 0x63
 11765 4848 DD160000 		.4byte	.LASF709
 11766 484c DD160000 		.4byte	.LASF709
 11767 4850 04       		.byte	0x4
 11768 4851 87       		.byte	0x87
 11769 4852 64       		.uleb128 0x64
 11770 4853 27070000 		.4byte	.LASF710
 11771 4857 27070000 		.4byte	.LASF710
 11772 485b 26       		.byte	0x26
 11773 485c 3602     		.2byte	0x236
 11774 485e 63       		.uleb128 0x63
 11775 485f FF010000 		.4byte	.LASF711
 11776 4863 FF010000 		.4byte	.LASF711
 11777 4867 04       		.byte	0x4
 11778 4868 8F       		.byte	0x8f
 11779 4869 64       		.uleb128 0x64
 11780 486a AE070000 		.4byte	.LASF712
 11781 486e AE070000 		.4byte	.LASF712
 11782 4872 26       		.byte	0x26
 11783 4873 4902     		.2byte	0x249
 11784 4875 64       		.uleb128 0x64
 11785 4876 02130000 		.4byte	.LASF713
 11786 487a 02130000 		.4byte	.LASF713
 11787 487e 12       		.byte	0x12
ARM GAS  /tmp/ccigORce.s 			page 208


 11788 487f 6601     		.2byte	0x166
 11789 4881 00       		.byte	0
 11790              		.section	.debug_abbrev,"",%progbits
 11791              	.Ldebug_abbrev0:
 11792 0000 01       		.uleb128 0x1
 11793 0001 11       		.uleb128 0x11
 11794 0002 01       		.byte	0x1
 11795 0003 25       		.uleb128 0x25
 11796 0004 0E       		.uleb128 0xe
 11797 0005 13       		.uleb128 0x13
 11798 0006 0B       		.uleb128 0xb
 11799 0007 03       		.uleb128 0x3
 11800 0008 0E       		.uleb128 0xe
 11801 0009 55       		.uleb128 0x55
 11802 000a 17       		.uleb128 0x17
 11803 000b 11       		.uleb128 0x11
 11804 000c 01       		.uleb128 0x1
 11805 000d 10       		.uleb128 0x10
 11806 000e 17       		.uleb128 0x17
 11807 000f 00       		.byte	0
 11808 0010 00       		.byte	0
 11809 0011 02       		.uleb128 0x2
 11810 0012 24       		.uleb128 0x24
 11811 0013 00       		.byte	0
 11812 0014 0B       		.uleb128 0xb
 11813 0015 0B       		.uleb128 0xb
 11814 0016 3E       		.uleb128 0x3e
 11815 0017 0B       		.uleb128 0xb
 11816 0018 03       		.uleb128 0x3
 11817 0019 0E       		.uleb128 0xe
 11818 001a 00       		.byte	0
 11819 001b 00       		.byte	0
 11820 001c 03       		.uleb128 0x3
 11821 001d 24       		.uleb128 0x24
 11822 001e 00       		.byte	0
 11823 001f 0B       		.uleb128 0xb
 11824 0020 0B       		.uleb128 0xb
 11825 0021 3E       		.uleb128 0x3e
 11826 0022 0B       		.uleb128 0xb
 11827 0023 03       		.uleb128 0x3
 11828 0024 08       		.uleb128 0x8
 11829 0025 00       		.byte	0
 11830 0026 00       		.byte	0
 11831 0027 04       		.uleb128 0x4
 11832 0028 16       		.uleb128 0x16
 11833 0029 00       		.byte	0
 11834 002a 03       		.uleb128 0x3
 11835 002b 0E       		.uleb128 0xe
 11836 002c 3A       		.uleb128 0x3a
 11837 002d 0B       		.uleb128 0xb
 11838 002e 3B       		.uleb128 0x3b
 11839 002f 0B       		.uleb128 0xb
 11840 0030 49       		.uleb128 0x49
 11841 0031 13       		.uleb128 0x13
 11842 0032 00       		.byte	0
 11843 0033 00       		.byte	0
 11844 0034 05       		.uleb128 0x5
ARM GAS  /tmp/ccigORce.s 			page 209


 11845 0035 16       		.uleb128 0x16
 11846 0036 00       		.byte	0
 11847 0037 03       		.uleb128 0x3
 11848 0038 0E       		.uleb128 0xe
 11849 0039 3A       		.uleb128 0x3a
 11850 003a 0B       		.uleb128 0xb
 11851 003b 3B       		.uleb128 0x3b
 11852 003c 05       		.uleb128 0x5
 11853 003d 49       		.uleb128 0x49
 11854 003e 13       		.uleb128 0x13
 11855 003f 00       		.byte	0
 11856 0040 00       		.byte	0
 11857 0041 06       		.uleb128 0x6
 11858 0042 17       		.uleb128 0x17
 11859 0043 01       		.byte	0x1
 11860 0044 0B       		.uleb128 0xb
 11861 0045 0B       		.uleb128 0xb
 11862 0046 3A       		.uleb128 0x3a
 11863 0047 0B       		.uleb128 0xb
 11864 0048 3B       		.uleb128 0x3b
 11865 0049 0B       		.uleb128 0xb
 11866 004a 01       		.uleb128 0x1
 11867 004b 13       		.uleb128 0x13
 11868 004c 00       		.byte	0
 11869 004d 00       		.byte	0
 11870 004e 07       		.uleb128 0x7
 11871 004f 0D       		.uleb128 0xd
 11872 0050 00       		.byte	0
 11873 0051 03       		.uleb128 0x3
 11874 0052 0E       		.uleb128 0xe
 11875 0053 3A       		.uleb128 0x3a
 11876 0054 0B       		.uleb128 0xb
 11877 0055 3B       		.uleb128 0x3b
 11878 0056 0B       		.uleb128 0xb
 11879 0057 49       		.uleb128 0x49
 11880 0058 13       		.uleb128 0x13
 11881 0059 00       		.byte	0
 11882 005a 00       		.byte	0
 11883 005b 08       		.uleb128 0x8
 11884 005c 01       		.uleb128 0x1
 11885 005d 01       		.byte	0x1
 11886 005e 49       		.uleb128 0x49
 11887 005f 13       		.uleb128 0x13
 11888 0060 01       		.uleb128 0x1
 11889 0061 13       		.uleb128 0x13
 11890 0062 00       		.byte	0
 11891 0063 00       		.byte	0
 11892 0064 09       		.uleb128 0x9
 11893 0065 21       		.uleb128 0x21
 11894 0066 00       		.byte	0
 11895 0067 49       		.uleb128 0x49
 11896 0068 13       		.uleb128 0x13
 11897 0069 2F       		.uleb128 0x2f
 11898 006a 0B       		.uleb128 0xb
 11899 006b 00       		.byte	0
 11900 006c 00       		.byte	0
 11901 006d 0A       		.uleb128 0xa
ARM GAS  /tmp/ccigORce.s 			page 210


 11902 006e 13       		.uleb128 0x13
 11903 006f 01       		.byte	0x1
 11904 0070 0B       		.uleb128 0xb
 11905 0071 0B       		.uleb128 0xb
 11906 0072 3A       		.uleb128 0x3a
 11907 0073 0B       		.uleb128 0xb
 11908 0074 3B       		.uleb128 0x3b
 11909 0075 0B       		.uleb128 0xb
 11910 0076 01       		.uleb128 0x1
 11911 0077 13       		.uleb128 0x13
 11912 0078 00       		.byte	0
 11913 0079 00       		.byte	0
 11914 007a 0B       		.uleb128 0xb
 11915 007b 0D       		.uleb128 0xd
 11916 007c 00       		.byte	0
 11917 007d 03       		.uleb128 0x3
 11918 007e 0E       		.uleb128 0xe
 11919 007f 3A       		.uleb128 0x3a
 11920 0080 0B       		.uleb128 0xb
 11921 0081 3B       		.uleb128 0x3b
 11922 0082 0B       		.uleb128 0xb
 11923 0083 49       		.uleb128 0x49
 11924 0084 13       		.uleb128 0x13
 11925 0085 38       		.uleb128 0x38
 11926 0086 0B       		.uleb128 0xb
 11927 0087 00       		.byte	0
 11928 0088 00       		.byte	0
 11929 0089 0C       		.uleb128 0xc
 11930 008a 0F       		.uleb128 0xf
 11931 008b 00       		.byte	0
 11932 008c 0B       		.uleb128 0xb
 11933 008d 0B       		.uleb128 0xb
 11934 008e 00       		.byte	0
 11935 008f 00       		.byte	0
 11936 0090 0D       		.uleb128 0xd
 11937 0091 0F       		.uleb128 0xf
 11938 0092 00       		.byte	0
 11939 0093 0B       		.uleb128 0xb
 11940 0094 0B       		.uleb128 0xb
 11941 0095 49       		.uleb128 0x49
 11942 0096 13       		.uleb128 0x13
 11943 0097 00       		.byte	0
 11944 0098 00       		.byte	0
 11945 0099 0E       		.uleb128 0xe
 11946 009a 26       		.uleb128 0x26
 11947 009b 00       		.byte	0
 11948 009c 49       		.uleb128 0x49
 11949 009d 13       		.uleb128 0x13
 11950 009e 00       		.byte	0
 11951 009f 00       		.byte	0
 11952 00a0 0F       		.uleb128 0xf
 11953 00a1 13       		.uleb128 0x13
 11954 00a2 01       		.byte	0x1
 11955 00a3 03       		.uleb128 0x3
 11956 00a4 0E       		.uleb128 0xe
 11957 00a5 0B       		.uleb128 0xb
 11958 00a6 0B       		.uleb128 0xb
ARM GAS  /tmp/ccigORce.s 			page 211


 11959 00a7 3A       		.uleb128 0x3a
 11960 00a8 0B       		.uleb128 0xb
 11961 00a9 3B       		.uleb128 0x3b
 11962 00aa 0B       		.uleb128 0xb
 11963 00ab 01       		.uleb128 0x1
 11964 00ac 13       		.uleb128 0x13
 11965 00ad 00       		.byte	0
 11966 00ae 00       		.byte	0
 11967 00af 10       		.uleb128 0x10
 11968 00b0 0D       		.uleb128 0xd
 11969 00b1 00       		.byte	0
 11970 00b2 03       		.uleb128 0x3
 11971 00b3 08       		.uleb128 0x8
 11972 00b4 3A       		.uleb128 0x3a
 11973 00b5 0B       		.uleb128 0xb
 11974 00b6 3B       		.uleb128 0x3b
 11975 00b7 0B       		.uleb128 0xb
 11976 00b8 49       		.uleb128 0x49
 11977 00b9 13       		.uleb128 0x13
 11978 00ba 38       		.uleb128 0x38
 11979 00bb 0B       		.uleb128 0xb
 11980 00bc 00       		.byte	0
 11981 00bd 00       		.byte	0
 11982 00be 11       		.uleb128 0x11
 11983 00bf 13       		.uleb128 0x13
 11984 00c0 01       		.byte	0x1
 11985 00c1 03       		.uleb128 0x3
 11986 00c2 0E       		.uleb128 0xe
 11987 00c3 0B       		.uleb128 0xb
 11988 00c4 05       		.uleb128 0x5
 11989 00c5 3A       		.uleb128 0x3a
 11990 00c6 0B       		.uleb128 0xb
 11991 00c7 3B       		.uleb128 0x3b
 11992 00c8 0B       		.uleb128 0xb
 11993 00c9 01       		.uleb128 0x1
 11994 00ca 13       		.uleb128 0x13
 11995 00cb 00       		.byte	0
 11996 00cc 00       		.byte	0
 11997 00cd 12       		.uleb128 0x12
 11998 00ce 0D       		.uleb128 0xd
 11999 00cf 00       		.byte	0
 12000 00d0 03       		.uleb128 0x3
 12001 00d1 0E       		.uleb128 0xe
 12002 00d2 3A       		.uleb128 0x3a
 12003 00d3 0B       		.uleb128 0xb
 12004 00d4 3B       		.uleb128 0x3b
 12005 00d5 0B       		.uleb128 0xb
 12006 00d6 49       		.uleb128 0x49
 12007 00d7 13       		.uleb128 0x13
 12008 00d8 38       		.uleb128 0x38
 12009 00d9 05       		.uleb128 0x5
 12010 00da 00       		.byte	0
 12011 00db 00       		.byte	0
 12012 00dc 13       		.uleb128 0x13
 12013 00dd 15       		.uleb128 0x15
 12014 00de 00       		.byte	0
 12015 00df 27       		.uleb128 0x27
ARM GAS  /tmp/ccigORce.s 			page 212


 12016 00e0 19       		.uleb128 0x19
 12017 00e1 00       		.byte	0
 12018 00e2 00       		.byte	0
 12019 00e3 14       		.uleb128 0x14
 12020 00e4 15       		.uleb128 0x15
 12021 00e5 01       		.byte	0x1
 12022 00e6 27       		.uleb128 0x27
 12023 00e7 19       		.uleb128 0x19
 12024 00e8 49       		.uleb128 0x49
 12025 00e9 13       		.uleb128 0x13
 12026 00ea 01       		.uleb128 0x1
 12027 00eb 13       		.uleb128 0x13
 12028 00ec 00       		.byte	0
 12029 00ed 00       		.byte	0
 12030 00ee 15       		.uleb128 0x15
 12031 00ef 05       		.uleb128 0x5
 12032 00f0 00       		.byte	0
 12033 00f1 49       		.uleb128 0x49
 12034 00f2 13       		.uleb128 0x13
 12035 00f3 00       		.byte	0
 12036 00f4 00       		.byte	0
 12037 00f5 16       		.uleb128 0x16
 12038 00f6 13       		.uleb128 0x13
 12039 00f7 01       		.byte	0x1
 12040 00f8 03       		.uleb128 0x3
 12041 00f9 0E       		.uleb128 0xe
 12042 00fa 0B       		.uleb128 0xb
 12043 00fb 05       		.uleb128 0x5
 12044 00fc 3A       		.uleb128 0x3a
 12045 00fd 0B       		.uleb128 0xb
 12046 00fe 3B       		.uleb128 0x3b
 12047 00ff 05       		.uleb128 0x5
 12048 0100 01       		.uleb128 0x1
 12049 0101 13       		.uleb128 0x13
 12050 0102 00       		.byte	0
 12051 0103 00       		.byte	0
 12052 0104 17       		.uleb128 0x17
 12053 0105 0D       		.uleb128 0xd
 12054 0106 00       		.byte	0
 12055 0107 03       		.uleb128 0x3
 12056 0108 0E       		.uleb128 0xe
 12057 0109 3A       		.uleb128 0x3a
 12058 010a 0B       		.uleb128 0xb
 12059 010b 3B       		.uleb128 0x3b
 12060 010c 05       		.uleb128 0x5
 12061 010d 49       		.uleb128 0x49
 12062 010e 13       		.uleb128 0x13
 12063 010f 38       		.uleb128 0x38
 12064 0110 0B       		.uleb128 0xb
 12065 0111 00       		.byte	0
 12066 0112 00       		.byte	0
 12067 0113 18       		.uleb128 0x18
 12068 0114 0D       		.uleb128 0xd
 12069 0115 00       		.byte	0
 12070 0116 03       		.uleb128 0x3
 12071 0117 0E       		.uleb128 0xe
 12072 0118 3A       		.uleb128 0x3a
ARM GAS  /tmp/ccigORce.s 			page 213


 12073 0119 0B       		.uleb128 0xb
 12074 011a 3B       		.uleb128 0x3b
 12075 011b 05       		.uleb128 0x5
 12076 011c 49       		.uleb128 0x49
 12077 011d 13       		.uleb128 0x13
 12078 011e 38       		.uleb128 0x38
 12079 011f 05       		.uleb128 0x5
 12080 0120 00       		.byte	0
 12081 0121 00       		.byte	0
 12082 0122 19       		.uleb128 0x19
 12083 0123 35       		.uleb128 0x35
 12084 0124 00       		.byte	0
 12085 0125 49       		.uleb128 0x49
 12086 0126 13       		.uleb128 0x13
 12087 0127 00       		.byte	0
 12088 0128 00       		.byte	0
 12089 0129 1A       		.uleb128 0x1a
 12090 012a 13       		.uleb128 0x13
 12091 012b 01       		.byte	0x1
 12092 012c 03       		.uleb128 0x3
 12093 012d 0E       		.uleb128 0xe
 12094 012e 0B       		.uleb128 0xb
 12095 012f 0B       		.uleb128 0xb
 12096 0130 3A       		.uleb128 0x3a
 12097 0131 0B       		.uleb128 0xb
 12098 0132 3B       		.uleb128 0x3b
 12099 0133 05       		.uleb128 0x5
 12100 0134 01       		.uleb128 0x1
 12101 0135 13       		.uleb128 0x13
 12102 0136 00       		.byte	0
 12103 0137 00       		.byte	0
 12104 0138 1B       		.uleb128 0x1b
 12105 0139 13       		.uleb128 0x13
 12106 013a 01       		.byte	0x1
 12107 013b 0B       		.uleb128 0xb
 12108 013c 0B       		.uleb128 0xb
 12109 013d 3A       		.uleb128 0x3a
 12110 013e 0B       		.uleb128 0xb
 12111 013f 3B       		.uleb128 0x3b
 12112 0140 05       		.uleb128 0x5
 12113 0141 01       		.uleb128 0x1
 12114 0142 13       		.uleb128 0x13
 12115 0143 00       		.byte	0
 12116 0144 00       		.byte	0
 12117 0145 1C       		.uleb128 0x1c
 12118 0146 17       		.uleb128 0x17
 12119 0147 01       		.byte	0x1
 12120 0148 0B       		.uleb128 0xb
 12121 0149 0B       		.uleb128 0xb
 12122 014a 3A       		.uleb128 0x3a
 12123 014b 0B       		.uleb128 0xb
 12124 014c 3B       		.uleb128 0x3b
 12125 014d 05       		.uleb128 0x5
 12126 014e 01       		.uleb128 0x1
 12127 014f 13       		.uleb128 0x13
 12128 0150 00       		.byte	0
 12129 0151 00       		.byte	0
ARM GAS  /tmp/ccigORce.s 			page 214


 12130 0152 1D       		.uleb128 0x1d
 12131 0153 0D       		.uleb128 0xd
 12132 0154 00       		.byte	0
 12133 0155 03       		.uleb128 0x3
 12134 0156 0E       		.uleb128 0xe
 12135 0157 3A       		.uleb128 0x3a
 12136 0158 0B       		.uleb128 0xb
 12137 0159 3B       		.uleb128 0x3b
 12138 015a 05       		.uleb128 0x5
 12139 015b 49       		.uleb128 0x49
 12140 015c 13       		.uleb128 0x13
 12141 015d 00       		.byte	0
 12142 015e 00       		.byte	0
 12143 015f 1E       		.uleb128 0x1e
 12144 0160 13       		.uleb128 0x13
 12145 0161 00       		.byte	0
 12146 0162 03       		.uleb128 0x3
 12147 0163 0E       		.uleb128 0xe
 12148 0164 3C       		.uleb128 0x3c
 12149 0165 19       		.uleb128 0x19
 12150 0166 00       		.byte	0
 12151 0167 00       		.byte	0
 12152 0168 1F       		.uleb128 0x1f
 12153 0169 15       		.uleb128 0x15
 12154 016a 01       		.byte	0x1
 12155 016b 27       		.uleb128 0x27
 12156 016c 19       		.uleb128 0x19
 12157 016d 01       		.uleb128 0x1
 12158 016e 13       		.uleb128 0x13
 12159 016f 00       		.byte	0
 12160 0170 00       		.byte	0
 12161 0171 20       		.uleb128 0x20
 12162 0172 34       		.uleb128 0x34
 12163 0173 00       		.byte	0
 12164 0174 03       		.uleb128 0x3
 12165 0175 0E       		.uleb128 0xe
 12166 0176 3A       		.uleb128 0x3a
 12167 0177 0B       		.uleb128 0xb
 12168 0178 3B       		.uleb128 0x3b
 12169 0179 05       		.uleb128 0x5
 12170 017a 49       		.uleb128 0x49
 12171 017b 13       		.uleb128 0x13
 12172 017c 3F       		.uleb128 0x3f
 12173 017d 19       		.uleb128 0x19
 12174 017e 3C       		.uleb128 0x3c
 12175 017f 19       		.uleb128 0x19
 12176 0180 00       		.byte	0
 12177 0181 00       		.byte	0
 12178 0182 21       		.uleb128 0x21
 12179 0183 0D       		.uleb128 0xd
 12180 0184 00       		.byte	0
 12181 0185 03       		.uleb128 0x3
 12182 0186 08       		.uleb128 0x8
 12183 0187 3A       		.uleb128 0x3a
 12184 0188 0B       		.uleb128 0xb
 12185 0189 3B       		.uleb128 0x3b
 12186 018a 05       		.uleb128 0x5
ARM GAS  /tmp/ccigORce.s 			page 215


 12187 018b 49       		.uleb128 0x49
 12188 018c 13       		.uleb128 0x13
 12189 018d 38       		.uleb128 0x38
 12190 018e 0B       		.uleb128 0xb
 12191 018f 00       		.byte	0
 12192 0190 00       		.byte	0
 12193 0191 22       		.uleb128 0x22
 12194 0192 34       		.uleb128 0x34
 12195 0193 00       		.byte	0
 12196 0194 03       		.uleb128 0x3
 12197 0195 0E       		.uleb128 0xe
 12198 0196 3A       		.uleb128 0x3a
 12199 0197 0B       		.uleb128 0xb
 12200 0198 3B       		.uleb128 0x3b
 12201 0199 0B       		.uleb128 0xb
 12202 019a 49       		.uleb128 0x49
 12203 019b 13       		.uleb128 0x13
 12204 019c 3F       		.uleb128 0x3f
 12205 019d 19       		.uleb128 0x19
 12206 019e 3C       		.uleb128 0x3c
 12207 019f 19       		.uleb128 0x19
 12208 01a0 00       		.byte	0
 12209 01a1 00       		.byte	0
 12210 01a2 23       		.uleb128 0x23
 12211 01a3 34       		.uleb128 0x34
 12212 01a4 00       		.byte	0
 12213 01a5 03       		.uleb128 0x3
 12214 01a6 08       		.uleb128 0x8
 12215 01a7 3A       		.uleb128 0x3a
 12216 01a8 0B       		.uleb128 0xb
 12217 01a9 3B       		.uleb128 0x3b
 12218 01aa 05       		.uleb128 0x5
 12219 01ab 49       		.uleb128 0x49
 12220 01ac 13       		.uleb128 0x13
 12221 01ad 3F       		.uleb128 0x3f
 12222 01ae 19       		.uleb128 0x19
 12223 01af 3C       		.uleb128 0x3c
 12224 01b0 19       		.uleb128 0x19
 12225 01b1 00       		.byte	0
 12226 01b2 00       		.byte	0
 12227 01b3 24       		.uleb128 0x24
 12228 01b4 0D       		.uleb128 0xd
 12229 01b5 00       		.byte	0
 12230 01b6 03       		.uleb128 0x3
 12231 01b7 08       		.uleb128 0x8
 12232 01b8 3A       		.uleb128 0x3a
 12233 01b9 0B       		.uleb128 0xb
 12234 01ba 3B       		.uleb128 0x3b
 12235 01bb 0B       		.uleb128 0xb
 12236 01bc 49       		.uleb128 0x49
 12237 01bd 13       		.uleb128 0x13
 12238 01be 00       		.byte	0
 12239 01bf 00       		.byte	0
 12240 01c0 25       		.uleb128 0x25
 12241 01c1 04       		.uleb128 0x4
 12242 01c2 01       		.byte	0x1
 12243 01c3 0B       		.uleb128 0xb
ARM GAS  /tmp/ccigORce.s 			page 216


 12244 01c4 0B       		.uleb128 0xb
 12245 01c5 49       		.uleb128 0x49
 12246 01c6 13       		.uleb128 0x13
 12247 01c7 3A       		.uleb128 0x3a
 12248 01c8 0B       		.uleb128 0xb
 12249 01c9 3B       		.uleb128 0x3b
 12250 01ca 0B       		.uleb128 0xb
 12251 01cb 01       		.uleb128 0x1
 12252 01cc 13       		.uleb128 0x13
 12253 01cd 00       		.byte	0
 12254 01ce 00       		.byte	0
 12255 01cf 26       		.uleb128 0x26
 12256 01d0 28       		.uleb128 0x28
 12257 01d1 00       		.byte	0
 12258 01d2 03       		.uleb128 0x3
 12259 01d3 0E       		.uleb128 0xe
 12260 01d4 1C       		.uleb128 0x1c
 12261 01d5 0B       		.uleb128 0xb
 12262 01d6 00       		.byte	0
 12263 01d7 00       		.byte	0
 12264 01d8 27       		.uleb128 0x27
 12265 01d9 04       		.uleb128 0x4
 12266 01da 01       		.byte	0x1
 12267 01db 0B       		.uleb128 0xb
 12268 01dc 0B       		.uleb128 0xb
 12269 01dd 49       		.uleb128 0x49
 12270 01de 13       		.uleb128 0x13
 12271 01df 3A       		.uleb128 0x3a
 12272 01e0 0B       		.uleb128 0xb
 12273 01e1 3B       		.uleb128 0x3b
 12274 01e2 05       		.uleb128 0x5
 12275 01e3 01       		.uleb128 0x1
 12276 01e4 13       		.uleb128 0x13
 12277 01e5 00       		.byte	0
 12278 01e6 00       		.byte	0
 12279 01e7 28       		.uleb128 0x28
 12280 01e8 13       		.uleb128 0x13
 12281 01e9 01       		.byte	0x1
 12282 01ea 0B       		.uleb128 0xb
 12283 01eb 06       		.uleb128 0x6
 12284 01ec 3A       		.uleb128 0x3a
 12285 01ed 0B       		.uleb128 0xb
 12286 01ee 3B       		.uleb128 0x3b
 12287 01ef 0B       		.uleb128 0xb
 12288 01f0 01       		.uleb128 0x1
 12289 01f1 13       		.uleb128 0x13
 12290 01f2 00       		.byte	0
 12291 01f3 00       		.byte	0
 12292 01f4 29       		.uleb128 0x29
 12293 01f5 0D       		.uleb128 0xd
 12294 01f6 00       		.byte	0
 12295 01f7 03       		.uleb128 0x3
 12296 01f8 08       		.uleb128 0x8
 12297 01f9 3A       		.uleb128 0x3a
 12298 01fa 0B       		.uleb128 0xb
 12299 01fb 3B       		.uleb128 0x3b
 12300 01fc 0B       		.uleb128 0xb
ARM GAS  /tmp/ccigORce.s 			page 217


 12301 01fd 49       		.uleb128 0x49
 12302 01fe 13       		.uleb128 0x13
 12303 01ff 38       		.uleb128 0x38
 12304 0200 05       		.uleb128 0x5
 12305 0201 00       		.byte	0
 12306 0202 00       		.byte	0
 12307 0203 2A       		.uleb128 0x2a
 12308 0204 21       		.uleb128 0x21
 12309 0205 00       		.byte	0
 12310 0206 49       		.uleb128 0x49
 12311 0207 13       		.uleb128 0x13
 12312 0208 2F       		.uleb128 0x2f
 12313 0209 05       		.uleb128 0x5
 12314 020a 00       		.byte	0
 12315 020b 00       		.byte	0
 12316 020c 2B       		.uleb128 0x2b
 12317 020d 34       		.uleb128 0x34
 12318 020e 00       		.byte	0
 12319 020f 47       		.uleb128 0x47
 12320 0210 13       		.uleb128 0x13
 12321 0211 3A       		.uleb128 0x3a
 12322 0212 0B       		.uleb128 0xb
 12323 0213 3B       		.uleb128 0x3b
 12324 0214 0B       		.uleb128 0xb
 12325 0215 02       		.uleb128 0x2
 12326 0216 18       		.uleb128 0x18
 12327 0217 00       		.byte	0
 12328 0218 00       		.byte	0
 12329 0219 2C       		.uleb128 0x2c
 12330 021a 34       		.uleb128 0x34
 12331 021b 00       		.byte	0
 12332 021c 03       		.uleb128 0x3
 12333 021d 0E       		.uleb128 0xe
 12334 021e 3A       		.uleb128 0x3a
 12335 021f 0B       		.uleb128 0xb
 12336 0220 3B       		.uleb128 0x3b
 12337 0221 0B       		.uleb128 0xb
 12338 0222 49       		.uleb128 0x49
 12339 0223 13       		.uleb128 0x13
 12340 0224 02       		.uleb128 0x2
 12341 0225 18       		.uleb128 0x18
 12342 0226 00       		.byte	0
 12343 0227 00       		.byte	0
 12344 0228 2D       		.uleb128 0x2d
 12345 0229 2E       		.uleb128 0x2e
 12346 022a 01       		.byte	0x1
 12347 022b 3F       		.uleb128 0x3f
 12348 022c 19       		.uleb128 0x19
 12349 022d 03       		.uleb128 0x3
 12350 022e 0E       		.uleb128 0xe
 12351 022f 3A       		.uleb128 0x3a
 12352 0230 0B       		.uleb128 0xb
 12353 0231 3B       		.uleb128 0x3b
 12354 0232 05       		.uleb128 0x5
 12355 0233 27       		.uleb128 0x27
 12356 0234 19       		.uleb128 0x19
 12357 0235 11       		.uleb128 0x11
ARM GAS  /tmp/ccigORce.s 			page 218


 12358 0236 01       		.uleb128 0x1
 12359 0237 12       		.uleb128 0x12
 12360 0238 06       		.uleb128 0x6
 12361 0239 40       		.uleb128 0x40
 12362 023a 18       		.uleb128 0x18
 12363 023b 9742     		.uleb128 0x2117
 12364 023d 19       		.uleb128 0x19
 12365 023e 01       		.uleb128 0x1
 12366 023f 13       		.uleb128 0x13
 12367 0240 00       		.byte	0
 12368 0241 00       		.byte	0
 12369 0242 2E       		.uleb128 0x2e
 12370 0243 05       		.uleb128 0x5
 12371 0244 00       		.byte	0
 12372 0245 03       		.uleb128 0x3
 12373 0246 08       		.uleb128 0x8
 12374 0247 3A       		.uleb128 0x3a
 12375 0248 0B       		.uleb128 0xb
 12376 0249 3B       		.uleb128 0x3b
 12377 024a 05       		.uleb128 0x5
 12378 024b 49       		.uleb128 0x49
 12379 024c 13       		.uleb128 0x13
 12380 024d 02       		.uleb128 0x2
 12381 024e 17       		.uleb128 0x17
 12382 024f 00       		.byte	0
 12383 0250 00       		.byte	0
 12384 0251 2F       		.uleb128 0x2f
 12385 0252 34       		.uleb128 0x34
 12386 0253 00       		.byte	0
 12387 0254 03       		.uleb128 0x3
 12388 0255 0E       		.uleb128 0xe
 12389 0256 3A       		.uleb128 0x3a
 12390 0257 0B       		.uleb128 0xb
 12391 0258 3B       		.uleb128 0x3b
 12392 0259 05       		.uleb128 0x5
 12393 025a 49       		.uleb128 0x49
 12394 025b 13       		.uleb128 0x13
 12395 025c 02       		.uleb128 0x2
 12396 025d 17       		.uleb128 0x17
 12397 025e 00       		.byte	0
 12398 025f 00       		.byte	0
 12399 0260 30       		.uleb128 0x30
 12400 0261 0B       		.uleb128 0xb
 12401 0262 01       		.byte	0x1
 12402 0263 11       		.uleb128 0x11
 12403 0264 01       		.uleb128 0x1
 12404 0265 12       		.uleb128 0x12
 12405 0266 06       		.uleb128 0x6
 12406 0267 01       		.uleb128 0x1
 12407 0268 13       		.uleb128 0x13
 12408 0269 00       		.byte	0
 12409 026a 00       		.byte	0
 12410 026b 31       		.uleb128 0x31
 12411 026c 34       		.uleb128 0x34
 12412 026d 00       		.byte	0
 12413 026e 03       		.uleb128 0x3
 12414 026f 08       		.uleb128 0x8
ARM GAS  /tmp/ccigORce.s 			page 219


 12415 0270 3A       		.uleb128 0x3a
 12416 0271 0B       		.uleb128 0xb
 12417 0272 3B       		.uleb128 0x3b
 12418 0273 05       		.uleb128 0x5
 12419 0274 49       		.uleb128 0x49
 12420 0275 13       		.uleb128 0x13
 12421 0276 02       		.uleb128 0x2
 12422 0277 17       		.uleb128 0x17
 12423 0278 00       		.byte	0
 12424 0279 00       		.byte	0
 12425 027a 32       		.uleb128 0x32
 12426 027b 34       		.uleb128 0x34
 12427 027c 00       		.byte	0
 12428 027d 03       		.uleb128 0x3
 12429 027e 0E       		.uleb128 0xe
 12430 027f 3A       		.uleb128 0x3a
 12431 0280 0B       		.uleb128 0xb
 12432 0281 3B       		.uleb128 0x3b
 12433 0282 05       		.uleb128 0x5
 12434 0283 49       		.uleb128 0x49
 12435 0284 13       		.uleb128 0x13
 12436 0285 00       		.byte	0
 12437 0286 00       		.byte	0
 12438 0287 33       		.uleb128 0x33
 12439 0288 1D       		.uleb128 0x1d
 12440 0289 01       		.byte	0x1
 12441 028a 31       		.uleb128 0x31
 12442 028b 13       		.uleb128 0x13
 12443 028c 11       		.uleb128 0x11
 12444 028d 01       		.uleb128 0x1
 12445 028e 12       		.uleb128 0x12
 12446 028f 06       		.uleb128 0x6
 12447 0290 58       		.uleb128 0x58
 12448 0291 0B       		.uleb128 0xb
 12449 0292 59       		.uleb128 0x59
 12450 0293 05       		.uleb128 0x5
 12451 0294 01       		.uleb128 0x1
 12452 0295 13       		.uleb128 0x13
 12453 0296 00       		.byte	0
 12454 0297 00       		.byte	0
 12455 0298 34       		.uleb128 0x34
 12456 0299 1D       		.uleb128 0x1d
 12457 029a 01       		.byte	0x1
 12458 029b 31       		.uleb128 0x31
 12459 029c 13       		.uleb128 0x13
 12460 029d 11       		.uleb128 0x11
 12461 029e 01       		.uleb128 0x1
 12462 029f 12       		.uleb128 0x12
 12463 02a0 06       		.uleb128 0x6
 12464 02a1 58       		.uleb128 0x58
 12465 02a2 0B       		.uleb128 0xb
 12466 02a3 59       		.uleb128 0x59
 12467 02a4 05       		.uleb128 0x5
 12468 02a5 00       		.byte	0
 12469 02a6 00       		.byte	0
 12470 02a7 35       		.uleb128 0x35
 12471 02a8 05       		.uleb128 0x5
ARM GAS  /tmp/ccigORce.s 			page 220


 12472 02a9 00       		.byte	0
 12473 02aa 31       		.uleb128 0x31
 12474 02ab 13       		.uleb128 0x13
 12475 02ac 02       		.uleb128 0x2
 12476 02ad 17       		.uleb128 0x17
 12477 02ae 00       		.byte	0
 12478 02af 00       		.byte	0
 12479 02b0 36       		.uleb128 0x36
 12480 02b1 0B       		.uleb128 0xb
 12481 02b2 01       		.byte	0x1
 12482 02b3 11       		.uleb128 0x11
 12483 02b4 01       		.uleb128 0x1
 12484 02b5 12       		.uleb128 0x12
 12485 02b6 06       		.uleb128 0x6
 12486 02b7 00       		.byte	0
 12487 02b8 00       		.byte	0
 12488 02b9 37       		.uleb128 0x37
 12489 02ba 34       		.uleb128 0x34
 12490 02bb 00       		.byte	0
 12491 02bc 31       		.uleb128 0x31
 12492 02bd 13       		.uleb128 0x13
 12493 02be 00       		.byte	0
 12494 02bf 00       		.byte	0
 12495 02c0 38       		.uleb128 0x38
 12496 02c1 1D       		.uleb128 0x1d
 12497 02c2 01       		.byte	0x1
 12498 02c3 31       		.uleb128 0x31
 12499 02c4 13       		.uleb128 0x13
 12500 02c5 52       		.uleb128 0x52
 12501 02c6 01       		.uleb128 0x1
 12502 02c7 55       		.uleb128 0x55
 12503 02c8 17       		.uleb128 0x17
 12504 02c9 58       		.uleb128 0x58
 12505 02ca 0B       		.uleb128 0xb
 12506 02cb 59       		.uleb128 0x59
 12507 02cc 05       		.uleb128 0x5
 12508 02cd 01       		.uleb128 0x1
 12509 02ce 13       		.uleb128 0x13
 12510 02cf 00       		.byte	0
 12511 02d0 00       		.byte	0
 12512 02d1 39       		.uleb128 0x39
 12513 02d2 0B       		.uleb128 0xb
 12514 02d3 01       		.byte	0x1
 12515 02d4 55       		.uleb128 0x55
 12516 02d5 17       		.uleb128 0x17
 12517 02d6 00       		.byte	0
 12518 02d7 00       		.byte	0
 12519 02d8 3A       		.uleb128 0x3a
 12520 02d9 34       		.uleb128 0x34
 12521 02da 00       		.byte	0
 12522 02db 31       		.uleb128 0x31
 12523 02dc 13       		.uleb128 0x13
 12524 02dd 02       		.uleb128 0x2
 12525 02de 17       		.uleb128 0x17
 12526 02df 00       		.byte	0
 12527 02e0 00       		.byte	0
 12528 02e1 3B       		.uleb128 0x3b
ARM GAS  /tmp/ccigORce.s 			page 221


 12529 02e2 898201   		.uleb128 0x4109
 12530 02e5 01       		.byte	0x1
 12531 02e6 11       		.uleb128 0x11
 12532 02e7 01       		.uleb128 0x1
 12533 02e8 31       		.uleb128 0x31
 12534 02e9 13       		.uleb128 0x13
 12535 02ea 00       		.byte	0
 12536 02eb 00       		.byte	0
 12537 02ec 3C       		.uleb128 0x3c
 12538 02ed 8A8201   		.uleb128 0x410a
 12539 02f0 00       		.byte	0
 12540 02f1 02       		.uleb128 0x2
 12541 02f2 18       		.uleb128 0x18
 12542 02f3 9142     		.uleb128 0x2111
 12543 02f5 18       		.uleb128 0x18
 12544 02f6 00       		.byte	0
 12545 02f7 00       		.byte	0
 12546 02f8 3D       		.uleb128 0x3d
 12547 02f9 0B       		.uleb128 0xb
 12548 02fa 01       		.byte	0x1
 12549 02fb 55       		.uleb128 0x55
 12550 02fc 17       		.uleb128 0x17
 12551 02fd 01       		.uleb128 0x1
 12552 02fe 13       		.uleb128 0x13
 12553 02ff 00       		.byte	0
 12554 0300 00       		.byte	0
 12555 0301 3E       		.uleb128 0x3e
 12556 0302 1D       		.uleb128 0x1d
 12557 0303 01       		.byte	0x1
 12558 0304 31       		.uleb128 0x31
 12559 0305 13       		.uleb128 0x13
 12560 0306 52       		.uleb128 0x52
 12561 0307 01       		.uleb128 0x1
 12562 0308 55       		.uleb128 0x55
 12563 0309 17       		.uleb128 0x17
 12564 030a 58       		.uleb128 0x58
 12565 030b 0B       		.uleb128 0xb
 12566 030c 59       		.uleb128 0x59
 12567 030d 05       		.uleb128 0x5
 12568 030e 00       		.byte	0
 12569 030f 00       		.byte	0
 12570 0310 3F       		.uleb128 0x3f
 12571 0311 05       		.uleb128 0x5
 12572 0312 00       		.byte	0
 12573 0313 31       		.uleb128 0x31
 12574 0314 13       		.uleb128 0x13
 12575 0315 00       		.byte	0
 12576 0316 00       		.byte	0
 12577 0317 40       		.uleb128 0x40
 12578 0318 898201   		.uleb128 0x4109
 12579 031b 00       		.byte	0
 12580 031c 11       		.uleb128 0x11
 12581 031d 01       		.uleb128 0x1
 12582 031e 31       		.uleb128 0x31
 12583 031f 13       		.uleb128 0x13
 12584 0320 00       		.byte	0
 12585 0321 00       		.byte	0
ARM GAS  /tmp/ccigORce.s 			page 222


 12586 0322 41       		.uleb128 0x41
 12587 0323 05       		.uleb128 0x5
 12588 0324 00       		.byte	0
 12589 0325 03       		.uleb128 0x3
 12590 0326 0E       		.uleb128 0xe
 12591 0327 3A       		.uleb128 0x3a
 12592 0328 0B       		.uleb128 0xb
 12593 0329 3B       		.uleb128 0x3b
 12594 032a 05       		.uleb128 0x5
 12595 032b 49       		.uleb128 0x49
 12596 032c 13       		.uleb128 0x13
 12597 032d 02       		.uleb128 0x2
 12598 032e 18       		.uleb128 0x18
 12599 032f 00       		.byte	0
 12600 0330 00       		.byte	0
 12601 0331 42       		.uleb128 0x42
 12602 0332 2E       		.uleb128 0x2e
 12603 0333 01       		.byte	0x1
 12604 0334 3F       		.uleb128 0x3f
 12605 0335 19       		.uleb128 0x19
 12606 0336 03       		.uleb128 0x3
 12607 0337 0E       		.uleb128 0xe
 12608 0338 3A       		.uleb128 0x3a
 12609 0339 0B       		.uleb128 0xb
 12610 033a 3B       		.uleb128 0x3b
 12611 033b 05       		.uleb128 0x5
 12612 033c 27       		.uleb128 0x27
 12613 033d 19       		.uleb128 0x19
 12614 033e 20       		.uleb128 0x20
 12615 033f 0B       		.uleb128 0xb
 12616 0340 01       		.uleb128 0x1
 12617 0341 13       		.uleb128 0x13
 12618 0342 00       		.byte	0
 12619 0343 00       		.byte	0
 12620 0344 43       		.uleb128 0x43
 12621 0345 05       		.uleb128 0x5
 12622 0346 00       		.byte	0
 12623 0347 03       		.uleb128 0x3
 12624 0348 0E       		.uleb128 0xe
 12625 0349 3A       		.uleb128 0x3a
 12626 034a 0B       		.uleb128 0xb
 12627 034b 3B       		.uleb128 0x3b
 12628 034c 05       		.uleb128 0x5
 12629 034d 49       		.uleb128 0x49
 12630 034e 13       		.uleb128 0x13
 12631 034f 00       		.byte	0
 12632 0350 00       		.byte	0
 12633 0351 44       		.uleb128 0x44
 12634 0352 05       		.uleb128 0x5
 12635 0353 00       		.byte	0
 12636 0354 03       		.uleb128 0x3
 12637 0355 08       		.uleb128 0x8
 12638 0356 3A       		.uleb128 0x3a
 12639 0357 0B       		.uleb128 0xb
 12640 0358 3B       		.uleb128 0x3b
 12641 0359 05       		.uleb128 0x5
 12642 035a 49       		.uleb128 0x49
ARM GAS  /tmp/ccigORce.s 			page 223


 12643 035b 13       		.uleb128 0x13
 12644 035c 00       		.byte	0
 12645 035d 00       		.byte	0
 12646 035e 45       		.uleb128 0x45
 12647 035f 05       		.uleb128 0x5
 12648 0360 00       		.byte	0
 12649 0361 03       		.uleb128 0x3
 12650 0362 0E       		.uleb128 0xe
 12651 0363 3A       		.uleb128 0x3a
 12652 0364 0B       		.uleb128 0xb
 12653 0365 3B       		.uleb128 0x3b
 12654 0366 05       		.uleb128 0x5
 12655 0367 49       		.uleb128 0x49
 12656 0368 13       		.uleb128 0x13
 12657 0369 02       		.uleb128 0x2
 12658 036a 17       		.uleb128 0x17
 12659 036b 00       		.byte	0
 12660 036c 00       		.byte	0
 12661 036d 46       		.uleb128 0x46
 12662 036e 05       		.uleb128 0x5
 12663 036f 00       		.byte	0
 12664 0370 03       		.uleb128 0x3
 12665 0371 08       		.uleb128 0x8
 12666 0372 3A       		.uleb128 0x3a
 12667 0373 0B       		.uleb128 0xb
 12668 0374 3B       		.uleb128 0x3b
 12669 0375 05       		.uleb128 0x5
 12670 0376 49       		.uleb128 0x49
 12671 0377 13       		.uleb128 0x13
 12672 0378 02       		.uleb128 0x2
 12673 0379 18       		.uleb128 0x18
 12674 037a 00       		.byte	0
 12675 037b 00       		.byte	0
 12676 037c 47       		.uleb128 0x47
 12677 037d 2E       		.uleb128 0x2e
 12678 037e 01       		.byte	0x1
 12679 037f 3F       		.uleb128 0x3f
 12680 0380 19       		.uleb128 0x19
 12681 0381 03       		.uleb128 0x3
 12682 0382 0E       		.uleb128 0xe
 12683 0383 3A       		.uleb128 0x3a
 12684 0384 0B       		.uleb128 0xb
 12685 0385 3B       		.uleb128 0x3b
 12686 0386 05       		.uleb128 0x5
 12687 0387 27       		.uleb128 0x27
 12688 0388 19       		.uleb128 0x19
 12689 0389 49       		.uleb128 0x49
 12690 038a 13       		.uleb128 0x13
 12691 038b 11       		.uleb128 0x11
 12692 038c 01       		.uleb128 0x1
 12693 038d 12       		.uleb128 0x12
 12694 038e 06       		.uleb128 0x6
 12695 038f 40       		.uleb128 0x40
 12696 0390 18       		.uleb128 0x18
 12697 0391 9742     		.uleb128 0x2117
 12698 0393 19       		.uleb128 0x19
 12699 0394 01       		.uleb128 0x1
ARM GAS  /tmp/ccigORce.s 			page 224


 12700 0395 13       		.uleb128 0x13
 12701 0396 00       		.byte	0
 12702 0397 00       		.byte	0
 12703 0398 48       		.uleb128 0x48
 12704 0399 34       		.uleb128 0x34
 12705 039a 00       		.byte	0
 12706 039b 03       		.uleb128 0x3
 12707 039c 08       		.uleb128 0x8
 12708 039d 3A       		.uleb128 0x3a
 12709 039e 0B       		.uleb128 0xb
 12710 039f 3B       		.uleb128 0x3b
 12711 03a0 05       		.uleb128 0x5
 12712 03a1 49       		.uleb128 0x49
 12713 03a2 13       		.uleb128 0x13
 12714 03a3 02       		.uleb128 0x2
 12715 03a4 18       		.uleb128 0x18
 12716 03a5 00       		.byte	0
 12717 03a6 00       		.byte	0
 12718 03a7 49       		.uleb128 0x49
 12719 03a8 898201   		.uleb128 0x4109
 12720 03ab 01       		.byte	0x1
 12721 03ac 11       		.uleb128 0x11
 12722 03ad 01       		.uleb128 0x1
 12723 03ae 9542     		.uleb128 0x2115
 12724 03b0 19       		.uleb128 0x19
 12725 03b1 31       		.uleb128 0x31
 12726 03b2 13       		.uleb128 0x13
 12727 03b3 00       		.byte	0
 12728 03b4 00       		.byte	0
 12729 03b5 4A       		.uleb128 0x4a
 12730 03b6 8A8201   		.uleb128 0x410a
 12731 03b9 00       		.byte	0
 12732 03ba 31       		.uleb128 0x31
 12733 03bb 13       		.uleb128 0x13
 12734 03bc 9142     		.uleb128 0x2111
 12735 03be 18       		.uleb128 0x18
 12736 03bf 00       		.byte	0
 12737 03c0 00       		.byte	0
 12738 03c1 4B       		.uleb128 0x4b
 12739 03c2 1D       		.uleb128 0x1d
 12740 03c3 01       		.byte	0x1
 12741 03c4 31       		.uleb128 0x31
 12742 03c5 13       		.uleb128 0x13
 12743 03c6 11       		.uleb128 0x11
 12744 03c7 01       		.uleb128 0x1
 12745 03c8 12       		.uleb128 0x12
 12746 03c9 06       		.uleb128 0x6
 12747 03ca 58       		.uleb128 0x58
 12748 03cb 0B       		.uleb128 0xb
 12749 03cc 59       		.uleb128 0x59
 12750 03cd 0B       		.uleb128 0xb
 12751 03ce 00       		.byte	0
 12752 03cf 00       		.byte	0
 12753 03d0 4C       		.uleb128 0x4c
 12754 03d1 34       		.uleb128 0x34
 12755 03d2 00       		.byte	0
 12756 03d3 03       		.uleb128 0x3
ARM GAS  /tmp/ccigORce.s 			page 225


 12757 03d4 0E       		.uleb128 0xe
 12758 03d5 3A       		.uleb128 0x3a
 12759 03d6 0B       		.uleb128 0xb
 12760 03d7 3B       		.uleb128 0x3b
 12761 03d8 05       		.uleb128 0x5
 12762 03d9 49       		.uleb128 0x49
 12763 03da 13       		.uleb128 0x13
 12764 03db 02       		.uleb128 0x2
 12765 03dc 18       		.uleb128 0x18
 12766 03dd 00       		.byte	0
 12767 03de 00       		.byte	0
 12768 03df 4D       		.uleb128 0x4d
 12769 03e0 1D       		.uleb128 0x1d
 12770 03e1 01       		.byte	0x1
 12771 03e2 31       		.uleb128 0x31
 12772 03e3 13       		.uleb128 0x13
 12773 03e4 52       		.uleb128 0x52
 12774 03e5 01       		.uleb128 0x1
 12775 03e6 55       		.uleb128 0x55
 12776 03e7 17       		.uleb128 0x17
 12777 03e8 58       		.uleb128 0x58
 12778 03e9 0B       		.uleb128 0xb
 12779 03ea 59       		.uleb128 0x59
 12780 03eb 0B       		.uleb128 0xb
 12781 03ec 01       		.uleb128 0x1
 12782 03ed 13       		.uleb128 0x13
 12783 03ee 00       		.byte	0
 12784 03ef 00       		.byte	0
 12785 03f0 4E       		.uleb128 0x4e
 12786 03f1 898201   		.uleb128 0x4109
 12787 03f4 01       		.byte	0x1
 12788 03f5 11       		.uleb128 0x11
 12789 03f6 01       		.uleb128 0x1
 12790 03f7 31       		.uleb128 0x31
 12791 03f8 13       		.uleb128 0x13
 12792 03f9 01       		.uleb128 0x1
 12793 03fa 13       		.uleb128 0x13
 12794 03fb 00       		.byte	0
 12795 03fc 00       		.byte	0
 12796 03fd 4F       		.uleb128 0x4f
 12797 03fe 898201   		.uleb128 0x4109
 12798 0401 01       		.byte	0x1
 12799 0402 11       		.uleb128 0x11
 12800 0403 01       		.uleb128 0x1
 12801 0404 01       		.uleb128 0x1
 12802 0405 13       		.uleb128 0x13
 12803 0406 00       		.byte	0
 12804 0407 00       		.byte	0
 12805 0408 50       		.uleb128 0x50
 12806 0409 898201   		.uleb128 0x4109
 12807 040c 00       		.byte	0
 12808 040d 11       		.uleb128 0x11
 12809 040e 01       		.uleb128 0x1
 12810 040f 9542     		.uleb128 0x2115
 12811 0411 19       		.uleb128 0x19
 12812 0412 31       		.uleb128 0x31
 12813 0413 13       		.uleb128 0x13
ARM GAS  /tmp/ccigORce.s 			page 226


 12814 0414 00       		.byte	0
 12815 0415 00       		.byte	0
 12816 0416 51       		.uleb128 0x51
 12817 0417 2E       		.uleb128 0x2e
 12818 0418 01       		.byte	0x1
 12819 0419 03       		.uleb128 0x3
 12820 041a 0E       		.uleb128 0xe
 12821 041b 3A       		.uleb128 0x3a
 12822 041c 0B       		.uleb128 0xb
 12823 041d 3B       		.uleb128 0x3b
 12824 041e 05       		.uleb128 0x5
 12825 041f 27       		.uleb128 0x27
 12826 0420 19       		.uleb128 0x19
 12827 0421 20       		.uleb128 0x20
 12828 0422 0B       		.uleb128 0xb
 12829 0423 01       		.uleb128 0x1
 12830 0424 13       		.uleb128 0x13
 12831 0425 00       		.byte	0
 12832 0426 00       		.byte	0
 12833 0427 52       		.uleb128 0x52
 12834 0428 34       		.uleb128 0x34
 12835 0429 00       		.byte	0
 12836 042a 03       		.uleb128 0x3
 12837 042b 08       		.uleb128 0x8
 12838 042c 3A       		.uleb128 0x3a
 12839 042d 0B       		.uleb128 0xb
 12840 042e 3B       		.uleb128 0x3b
 12841 042f 05       		.uleb128 0x5
 12842 0430 49       		.uleb128 0x49
 12843 0431 13       		.uleb128 0x13
 12844 0432 00       		.byte	0
 12845 0433 00       		.byte	0
 12846 0434 53       		.uleb128 0x53
 12847 0435 0B       		.uleb128 0xb
 12848 0436 01       		.byte	0x1
 12849 0437 00       		.byte	0
 12850 0438 00       		.byte	0
 12851 0439 54       		.uleb128 0x54
 12852 043a 2E       		.uleb128 0x2e
 12853 043b 01       		.byte	0x1
 12854 043c 03       		.uleb128 0x3
 12855 043d 0E       		.uleb128 0xe
 12856 043e 3A       		.uleb128 0x3a
 12857 043f 0B       		.uleb128 0xb
 12858 0440 3B       		.uleb128 0x3b
 12859 0441 05       		.uleb128 0x5
 12860 0442 27       		.uleb128 0x27
 12861 0443 19       		.uleb128 0x19
 12862 0444 49       		.uleb128 0x49
 12863 0445 13       		.uleb128 0x13
 12864 0446 20       		.uleb128 0x20
 12865 0447 0B       		.uleb128 0xb
 12866 0448 01       		.uleb128 0x1
 12867 0449 13       		.uleb128 0x13
 12868 044a 00       		.byte	0
 12869 044b 00       		.byte	0
 12870 044c 55       		.uleb128 0x55
ARM GAS  /tmp/ccigORce.s 			page 227


 12871 044d 2E       		.uleb128 0x2e
 12872 044e 01       		.byte	0x1
 12873 044f 03       		.uleb128 0x3
 12874 0450 0E       		.uleb128 0xe
 12875 0451 3A       		.uleb128 0x3a
 12876 0452 0B       		.uleb128 0xb
 12877 0453 3B       		.uleb128 0x3b
 12878 0454 0B       		.uleb128 0xb
 12879 0455 27       		.uleb128 0x27
 12880 0456 19       		.uleb128 0x19
 12881 0457 20       		.uleb128 0x20
 12882 0458 0B       		.uleb128 0xb
 12883 0459 01       		.uleb128 0x1
 12884 045a 13       		.uleb128 0x13
 12885 045b 00       		.byte	0
 12886 045c 00       		.byte	0
 12887 045d 56       		.uleb128 0x56
 12888 045e 05       		.uleb128 0x5
 12889 045f 00       		.byte	0
 12890 0460 03       		.uleb128 0x3
 12891 0461 0E       		.uleb128 0xe
 12892 0462 3A       		.uleb128 0x3a
 12893 0463 0B       		.uleb128 0xb
 12894 0464 3B       		.uleb128 0x3b
 12895 0465 0B       		.uleb128 0xb
 12896 0466 49       		.uleb128 0x49
 12897 0467 13       		.uleb128 0x13
 12898 0468 00       		.byte	0
 12899 0469 00       		.byte	0
 12900 046a 57       		.uleb128 0x57
 12901 046b 05       		.uleb128 0x5
 12902 046c 00       		.byte	0
 12903 046d 03       		.uleb128 0x3
 12904 046e 08       		.uleb128 0x8
 12905 046f 3A       		.uleb128 0x3a
 12906 0470 0B       		.uleb128 0xb
 12907 0471 3B       		.uleb128 0x3b
 12908 0472 0B       		.uleb128 0xb
 12909 0473 49       		.uleb128 0x49
 12910 0474 13       		.uleb128 0x13
 12911 0475 00       		.byte	0
 12912 0476 00       		.byte	0
 12913 0477 58       		.uleb128 0x58
 12914 0478 2E       		.uleb128 0x2e
 12915 0479 01       		.byte	0x1
 12916 047a 03       		.uleb128 0x3
 12917 047b 0E       		.uleb128 0xe
 12918 047c 3A       		.uleb128 0x3a
 12919 047d 0B       		.uleb128 0xb
 12920 047e 3B       		.uleb128 0x3b
 12921 047f 0B       		.uleb128 0xb
 12922 0480 27       		.uleb128 0x27
 12923 0481 19       		.uleb128 0x19
 12924 0482 49       		.uleb128 0x49
 12925 0483 13       		.uleb128 0x13
 12926 0484 20       		.uleb128 0x20
 12927 0485 0B       		.uleb128 0xb
ARM GAS  /tmp/ccigORce.s 			page 228


 12928 0486 01       		.uleb128 0x1
 12929 0487 13       		.uleb128 0x13
 12930 0488 00       		.byte	0
 12931 0489 00       		.byte	0
 12932 048a 59       		.uleb128 0x59
 12933 048b 34       		.uleb128 0x34
 12934 048c 00       		.byte	0
 12935 048d 03       		.uleb128 0x3
 12936 048e 0E       		.uleb128 0xe
 12937 048f 3A       		.uleb128 0x3a
 12938 0490 0B       		.uleb128 0xb
 12939 0491 3B       		.uleb128 0x3b
 12940 0492 0B       		.uleb128 0xb
 12941 0493 49       		.uleb128 0x49
 12942 0494 13       		.uleb128 0x13
 12943 0495 00       		.byte	0
 12944 0496 00       		.byte	0
 12945 0497 5A       		.uleb128 0x5a
 12946 0498 34       		.uleb128 0x34
 12947 0499 00       		.byte	0
 12948 049a 03       		.uleb128 0x3
 12949 049b 0E       		.uleb128 0xe
 12950 049c 49       		.uleb128 0x49
 12951 049d 13       		.uleb128 0x13
 12952 049e 34       		.uleb128 0x34
 12953 049f 19       		.uleb128 0x19
 12954 04a0 1C       		.uleb128 0x1c
 12955 04a1 0E       		.uleb128 0xe
 12956 04a2 00       		.byte	0
 12957 04a3 00       		.byte	0
 12958 04a4 5B       		.uleb128 0x5b
 12959 04a5 34       		.uleb128 0x34
 12960 04a6 00       		.byte	0
 12961 04a7 03       		.uleb128 0x3
 12962 04a8 08       		.uleb128 0x8
 12963 04a9 3A       		.uleb128 0x3a
 12964 04aa 0B       		.uleb128 0xb
 12965 04ab 3B       		.uleb128 0x3b
 12966 04ac 0B       		.uleb128 0xb
 12967 04ad 49       		.uleb128 0x49
 12968 04ae 13       		.uleb128 0x13
 12969 04af 00       		.byte	0
 12970 04b0 00       		.byte	0
 12971 04b1 5C       		.uleb128 0x5c
 12972 04b2 2E       		.uleb128 0x2e
 12973 04b3 00       		.byte	0
 12974 04b4 03       		.uleb128 0x3
 12975 04b5 0E       		.uleb128 0xe
 12976 04b6 3A       		.uleb128 0x3a
 12977 04b7 0B       		.uleb128 0xb
 12978 04b8 3B       		.uleb128 0x3b
 12979 04b9 05       		.uleb128 0x5
 12980 04ba 27       		.uleb128 0x27
 12981 04bb 19       		.uleb128 0x19
 12982 04bc 20       		.uleb128 0x20
 12983 04bd 0B       		.uleb128 0xb
 12984 04be 00       		.byte	0
ARM GAS  /tmp/ccigORce.s 			page 229


 12985 04bf 00       		.byte	0
 12986 04c0 5D       		.uleb128 0x5d
 12987 04c1 2E       		.uleb128 0x2e
 12988 04c2 01       		.byte	0x1
 12989 04c3 31       		.uleb128 0x31
 12990 04c4 13       		.uleb128 0x13
 12991 04c5 11       		.uleb128 0x11
 12992 04c6 01       		.uleb128 0x1
 12993 04c7 12       		.uleb128 0x12
 12994 04c8 06       		.uleb128 0x6
 12995 04c9 40       		.uleb128 0x40
 12996 04ca 18       		.uleb128 0x18
 12997 04cb 9742     		.uleb128 0x2117
 12998 04cd 19       		.uleb128 0x19
 12999 04ce 01       		.uleb128 0x1
 13000 04cf 13       		.uleb128 0x13
 13001 04d0 00       		.byte	0
 13002 04d1 00       		.byte	0
 13003 04d2 5E       		.uleb128 0x5e
 13004 04d3 34       		.uleb128 0x34
 13005 04d4 00       		.byte	0
 13006 04d5 31       		.uleb128 0x31
 13007 04d6 13       		.uleb128 0x13
 13008 04d7 02       		.uleb128 0x2
 13009 04d8 18       		.uleb128 0x18
 13010 04d9 00       		.byte	0
 13011 04da 00       		.byte	0
 13012 04db 5F       		.uleb128 0x5f
 13013 04dc 05       		.uleb128 0x5
 13014 04dd 00       		.byte	0
 13015 04de 31       		.uleb128 0x31
 13016 04df 13       		.uleb128 0x13
 13017 04e0 02       		.uleb128 0x2
 13018 04e1 18       		.uleb128 0x18
 13019 04e2 00       		.byte	0
 13020 04e3 00       		.byte	0
 13021 04e4 60       		.uleb128 0x60
 13022 04e5 898201   		.uleb128 0x4109
 13023 04e8 01       		.byte	0x1
 13024 04e9 11       		.uleb128 0x11
 13025 04ea 01       		.uleb128 0x1
 13026 04eb 9542     		.uleb128 0x2115
 13027 04ed 19       		.uleb128 0x19
 13028 04ee 01       		.uleb128 0x1
 13029 04ef 13       		.uleb128 0x13
 13030 04f0 00       		.byte	0
 13031 04f1 00       		.byte	0
 13032 04f2 61       		.uleb128 0x61
 13033 04f3 898201   		.uleb128 0x4109
 13034 04f6 01       		.byte	0x1
 13035 04f7 11       		.uleb128 0x11
 13036 04f8 01       		.uleb128 0x1
 13037 04f9 00       		.byte	0
 13038 04fa 00       		.byte	0
 13039 04fb 62       		.uleb128 0x62
 13040 04fc 898201   		.uleb128 0x4109
 13041 04ff 01       		.byte	0x1
ARM GAS  /tmp/ccigORce.s 			page 230


 13042 0500 11       		.uleb128 0x11
 13043 0501 01       		.uleb128 0x1
 13044 0502 9342     		.uleb128 0x2113
 13045 0504 18       		.uleb128 0x18
 13046 0505 00       		.byte	0
 13047 0506 00       		.byte	0
 13048 0507 63       		.uleb128 0x63
 13049 0508 2E       		.uleb128 0x2e
 13050 0509 00       		.byte	0
 13051 050a 3F       		.uleb128 0x3f
 13052 050b 19       		.uleb128 0x19
 13053 050c 3C       		.uleb128 0x3c
 13054 050d 19       		.uleb128 0x19
 13055 050e 6E       		.uleb128 0x6e
 13056 050f 0E       		.uleb128 0xe
 13057 0510 03       		.uleb128 0x3
 13058 0511 0E       		.uleb128 0xe
 13059 0512 3A       		.uleb128 0x3a
 13060 0513 0B       		.uleb128 0xb
 13061 0514 3B       		.uleb128 0x3b
 13062 0515 0B       		.uleb128 0xb
 13063 0516 00       		.byte	0
 13064 0517 00       		.byte	0
 13065 0518 64       		.uleb128 0x64
 13066 0519 2E       		.uleb128 0x2e
 13067 051a 00       		.byte	0
 13068 051b 3F       		.uleb128 0x3f
 13069 051c 19       		.uleb128 0x19
 13070 051d 3C       		.uleb128 0x3c
 13071 051e 19       		.uleb128 0x19
 13072 051f 6E       		.uleb128 0x6e
 13073 0520 0E       		.uleb128 0xe
 13074 0521 03       		.uleb128 0x3
 13075 0522 0E       		.uleb128 0xe
 13076 0523 3A       		.uleb128 0x3a
 13077 0524 0B       		.uleb128 0xb
 13078 0525 3B       		.uleb128 0x3b
 13079 0526 05       		.uleb128 0x5
 13080 0527 00       		.byte	0
 13081 0528 00       		.byte	0
 13082 0529 00       		.byte	0
 13083              		.section	.debug_loc,"",%progbits
 13084              	.Ldebug_loc0:
 13085              	.LLST0:
 13086 0000 00000000 		.4byte	.LVL0
 13087 0004 20000000 		.4byte	.LVL5
 13088 0008 0100     		.2byte	0x1
 13089 000a 50       		.byte	0x50
 13090 000b 20000000 		.4byte	.LVL5
 13091 000f 8E030000 		.4byte	.LFE294
 13092 0013 0100     		.2byte	0x1
 13093 0015 59       		.byte	0x59
 13094 0016 00000000 		.4byte	0
 13095 001a 00000000 		.4byte	0
 13096              	.LLST1:
 13097 001e 0A000000 		.4byte	.LVL1
 13098 0022 20000000 		.4byte	.LVL5
ARM GAS  /tmp/ccigORce.s 			page 231


 13099 0026 0100     		.2byte	0x1
 13100 0028 50       		.byte	0x50
 13101 0029 20000000 		.4byte	.LVL5
 13102 002d 8E030000 		.4byte	.LFE294
 13103 0031 0100     		.2byte	0x1
 13104 0033 59       		.byte	0x59
 13105 0034 00000000 		.4byte	0
 13106 0038 00000000 		.4byte	0
 13107              	.LLST2:
 13108 003c 0C000000 		.4byte	.LVL2
 13109 0040 20000000 		.4byte	.LVL5
 13110 0044 0100     		.2byte	0x1
 13111 0046 57       		.byte	0x57
 13112 0047 20000000 		.4byte	.LVL5
 13113 004b 8E030000 		.4byte	.LFE294
 13114 004f 0100     		.2byte	0x1
 13115 0051 5A       		.byte	0x5a
 13116 0052 00000000 		.4byte	0
 13117 0056 00000000 		.4byte	0
 13118              	.LLST4:
 13119 005a 4E000000 		.4byte	.LVL7
 13120 005e 50000000 		.4byte	.LVL8
 13121 0062 0200     		.2byte	0x2
 13122 0064 30       		.byte	0x30
 13123 0065 9F       		.byte	0x9f
 13124 0066 E4000000 		.4byte	.LVL34
 13125 006a F2000000 		.4byte	.LVL37
 13126 006e 0100     		.2byte	0x1
 13127 0070 5B       		.byte	0x5b
 13128 0071 00000000 		.4byte	0
 13129 0075 00000000 		.4byte	0
 13130              	.LLST5:
 13131 0079 D4000000 		.4byte	.LVL32
 13132 007d DC000000 		.4byte	.LVL33
 13133 0081 0100     		.2byte	0x1
 13134 0083 51       		.byte	0x51
 13135 0084 DC000000 		.4byte	.LVL33
 13136 0088 F2000000 		.4byte	.LVL37
 13137 008c 0200     		.2byte	0x2
 13138 008e 91       		.byte	0x91
 13139 008f 4C       		.sleb128 -52
 13140 0090 C0010000 		.4byte	.LVL69
 13141 0094 CA010000 		.4byte	.LVL71
 13142 0098 0100     		.2byte	0x1
 13143 009a 51       		.byte	0x51
 13144 009b CA010000 		.4byte	.LVL71
 13145 009f 8E030000 		.4byte	.LFE294
 13146 00a3 0200     		.2byte	0x2
 13147 00a5 91       		.byte	0x91
 13148 00a6 4C       		.sleb128 -52
 13149 00a7 00000000 		.4byte	0
 13150 00ab 00000000 		.4byte	0
 13151              	.LLST34:
 13152 00af C0010000 		.4byte	.LVL69
 13153 00b3 C6010000 		.4byte	.LVL70
 13154 00b7 0300     		.2byte	0x3
 13155 00b9 08       		.byte	0x8
ARM GAS  /tmp/ccigORce.s 			page 232


 13156 00ba 20       		.byte	0x20
 13157 00bb 9F       		.byte	0x9f
 13158 00bc 00000000 		.4byte	0
 13159 00c0 00000000 		.4byte	0
 13160              	.LLST35:
 13161 00c4 E0010000 		.4byte	.LVL72
 13162 00c8 E4010000 		.4byte	.LVL73
 13163 00cc 0200     		.2byte	0x2
 13164 00ce 30       		.byte	0x30
 13165 00cf 9F       		.byte	0x9f
 13166 00d0 00000000 		.4byte	0
 13167 00d4 00000000 		.4byte	0
 13168              	.LLST36:
 13169 00d8 E4010000 		.4byte	.LVL73
 13170 00dc 80020000 		.4byte	.LVL85
 13171 00e0 0100     		.2byte	0x1
 13172 00e2 5B       		.byte	0x5b
 13173 00e3 B0020000 		.4byte	.LVL89
 13174 00e7 5A030000 		.4byte	.LVL117
 13175 00eb 0100     		.2byte	0x1
 13176 00ed 5B       		.byte	0x5b
 13177 00ee 00000000 		.4byte	0
 13178 00f2 00000000 		.4byte	0
 13179              	.LLST37:
 13180 00f6 E4010000 		.4byte	.LVL73
 13181 00fa 80020000 		.4byte	.LVL85
 13182 00fe 0100     		.2byte	0x1
 13183 0100 59       		.byte	0x59
 13184 0101 B0020000 		.4byte	.LVL89
 13185 0105 5A030000 		.4byte	.LVL117
 13186 0109 0100     		.2byte	0x1
 13187 010b 59       		.byte	0x59
 13188 010c 00000000 		.4byte	0
 13189 0110 00000000 		.4byte	0
 13190              	.LLST38:
 13191 0114 06020000 		.4byte	.LVL74
 13192 0118 12020000 		.4byte	.LVL75
 13193 011c 0100     		.2byte	0x1
 13194 011e 52       		.byte	0x52
 13195 011f 12020000 		.4byte	.LVL75
 13196 0123 58020000 		.4byte	.LVL82
 13197 0127 0100     		.2byte	0x1
 13198 0129 55       		.byte	0x55
 13199 012a 6C020000 		.4byte	.LVL83
 13200 012e 80020000 		.4byte	.LVL85
 13201 0132 0100     		.2byte	0x1
 13202 0134 55       		.byte	0x55
 13203 0135 B0020000 		.4byte	.LVL89
 13204 0139 56030000 		.4byte	.LVL116
 13205 013d 0100     		.2byte	0x1
 13206 013f 55       		.byte	0x55
 13207 0140 00000000 		.4byte	0
 13208 0144 00000000 		.4byte	0
 13209              	.LLST39:
 13210 0148 B4020000 		.4byte	.LVL90
 13211 014c 56030000 		.4byte	.LVL116
 13212 0150 0100     		.2byte	0x1
ARM GAS  /tmp/ccigORce.s 			page 233


 13213 0152 55       		.byte	0x55
 13214 0153 00000000 		.4byte	0
 13215 0157 00000000 		.4byte	0
 13216              	.LLST40:
 13217 015b B4020000 		.4byte	.LVL90
 13218 015f 07030000 		.4byte	.LVL104-1
 13219 0163 0100     		.2byte	0x1
 13220 0165 50       		.byte	0x50
 13221 0166 14030000 		.4byte	.LVL107
 13222 016a 56030000 		.4byte	.LVL116
 13223 016e 0100     		.2byte	0x1
 13224 0170 50       		.byte	0x50
 13225 0171 00000000 		.4byte	0
 13226 0175 00000000 		.4byte	0
 13227              	.LLST41:
 13228 0179 B4020000 		.4byte	.LVL90
 13229 017d 56030000 		.4byte	.LVL116
 13230 0181 0100     		.2byte	0x1
 13231 0183 54       		.byte	0x54
 13232 0184 00000000 		.4byte	0
 13233 0188 00000000 		.4byte	0
 13234              	.LLST42:
 13235 018c B4020000 		.4byte	.LVL90
 13236 0190 BC020000 		.4byte	.LVL91
 13237 0194 0100     		.2byte	0x1
 13238 0196 55       		.byte	0x55
 13239 0197 BC020000 		.4byte	.LVL91
 13240 019b F6020000 		.4byte	.LVL101
 13241 019f 0100     		.2byte	0x1
 13242 01a1 51       		.byte	0x51
 13243 01a2 14030000 		.4byte	.LVL107
 13244 01a6 36030000 		.4byte	.LVL111
 13245 01aa 0100     		.2byte	0x1
 13246 01ac 51       		.byte	0x51
 13247 01ad 36030000 		.4byte	.LVL111
 13248 01b1 3A030000 		.4byte	.LVL112
 13249 01b5 0300     		.2byte	0x3
 13250 01b7 71       		.byte	0x71
 13251 01b8 01       		.sleb128 1
 13252 01b9 9F       		.byte	0x9f
 13253 01ba 3A030000 		.4byte	.LVL112
 13254 01be 56030000 		.4byte	.LVL116
 13255 01c2 0100     		.2byte	0x1
 13256 01c4 51       		.byte	0x51
 13257 01c5 00000000 		.4byte	0
 13258 01c9 00000000 		.4byte	0
 13259              	.LLST43:
 13260 01cd 02030000 		.4byte	.LVL103
 13261 01d1 08030000 		.4byte	.LVL104
 13262 01d5 0200     		.2byte	0x2
 13263 01d7 30       		.byte	0x30
 13264 01d8 9F       		.byte	0x9f
 13265 01d9 00000000 		.4byte	0
 13266 01dd 00000000 		.4byte	0
 13267              	.LLST44:
 13268 01e1 02030000 		.4byte	.LVL103
 13269 01e5 07030000 		.4byte	.LVL104-1
ARM GAS  /tmp/ccigORce.s 			page 234


 13270 01e9 0100     		.2byte	0x1
 13271 01eb 50       		.byte	0x50
 13272 01ec 00000000 		.4byte	0
 13273 01f0 00000000 		.4byte	0
 13274              	.LLST45:
 13275 01f4 16030000 		.4byte	.LVL108
 13276 01f8 1A030000 		.4byte	.LVL109
 13277 01fc 0200     		.2byte	0x2
 13278 01fe 30       		.byte	0x30
 13279 01ff 9F       		.byte	0x9f
 13280 0200 1A030000 		.4byte	.LVL109
 13281 0204 2E030000 		.4byte	.LVL110
 13282 0208 0100     		.2byte	0x1
 13283 020a 57       		.byte	0x57
 13284 020b 3A030000 		.4byte	.LVL112
 13285 020f 48030000 		.4byte	.LVL113
 13286 0213 0100     		.2byte	0x1
 13287 0215 57       		.byte	0x57
 13288 0216 4E030000 		.4byte	.LVL114
 13289 021a 52030000 		.4byte	.LVL115
 13290 021e 0100     		.2byte	0x1
 13291 0220 57       		.byte	0x57
 13292 0221 00000000 		.4byte	0
 13293 0225 00000000 		.4byte	0
 13294              	.LLST46:
 13295 0229 16030000 		.4byte	.LVL108
 13296 022d 1A030000 		.4byte	.LVL109
 13297 0231 0200     		.2byte	0x2
 13298 0233 30       		.byte	0x30
 13299 0234 9F       		.byte	0x9f
 13300 0235 00000000 		.4byte	0
 13301 0239 00000000 		.4byte	0
 13302              	.LLST47:
 13303 023d BC020000 		.4byte	.LVL91
 13304 0241 C0020000 		.4byte	.LVL92
 13305 0245 0500     		.2byte	0x5
 13306 0247 71       		.byte	0x71
 13307 0248 00       		.sleb128 0
 13308 0249 32       		.byte	0x32
 13309 024a 25       		.byte	0x25
 13310 024b 9F       		.byte	0x9f
 13311 024c C0020000 		.4byte	.LVL92
 13312 0250 F6020000 		.4byte	.LVL101
 13313 0254 0100     		.2byte	0x1
 13314 0256 5C       		.byte	0x5c
 13315 0257 14030000 		.4byte	.LVL107
 13316 025b 1A030000 		.4byte	.LVL109
 13317 025f 0100     		.2byte	0x1
 13318 0261 5C       		.byte	0x5c
 13319 0262 48030000 		.4byte	.LVL113
 13320 0266 4E030000 		.4byte	.LVL114
 13321 026a 0100     		.2byte	0x1
 13322 026c 5C       		.byte	0x5c
 13323 026d 52030000 		.4byte	.LVL115
 13324 0271 56030000 		.4byte	.LVL116
 13325 0275 0100     		.2byte	0x1
 13326 0277 5C       		.byte	0x5c
ARM GAS  /tmp/ccigORce.s 			page 235


 13327 0278 00000000 		.4byte	0
 13328 027c 00000000 		.4byte	0
 13329              	.LLST48:
 13330 0280 D4020000 		.4byte	.LVL94
 13331 0284 DE020000 		.4byte	.LVL96
 13332 0288 0100     		.2byte	0x1
 13333 028a 57       		.byte	0x57
 13334 028b DE020000 		.4byte	.LVL96
 13335 028f EC020000 		.4byte	.LVL100
 13336 0293 4D00     		.2byte	0x4d
 13337 0295 7C       		.byte	0x7c
 13338 0296 00       		.sleb128 0
 13339 0297 7E       		.byte	0x7e
 13340 0298 00       		.sleb128 0
 13341 0299 70       		.byte	0x70
 13342 029a 18       		.sleb128 24
 13343 029b 06       		.byte	0x6
 13344 029c 1C       		.byte	0x1c
 13345 029d 23       		.byte	0x23
 13346 029e 03       		.uleb128 0x3
 13347 029f 7E       		.byte	0x7e
 13348 02a0 00       		.sleb128 0
 13349 02a1 70       		.byte	0x70
 13350 02a2 18       		.sleb128 24
 13351 02a3 06       		.byte	0x6
 13352 02a4 1C       		.byte	0x1c
 13353 02a5 7E       		.byte	0x7e
 13354 02a6 00       		.sleb128 0
 13355 02a7 70       		.byte	0x70
 13356 02a8 18       		.sleb128 24
 13357 02a9 06       		.byte	0x6
 13358 02aa 1C       		.byte	0x1c
 13359 02ab 30       		.byte	0x30
 13360 02ac 2D       		.byte	0x2d
 13361 02ad 28       		.byte	0x28
 13362 02ae 0100     		.2byte	0x1
 13363 02b0 16       		.byte	0x16
 13364 02b1 13       		.byte	0x13
 13365 02b2 32       		.byte	0x32
 13366 02b3 26       		.byte	0x26
 13367 02b4 7E       		.byte	0x7e
 13368 02b5 00       		.sleb128 0
 13369 02b6 70       		.byte	0x70
 13370 02b7 18       		.sleb128 24
 13371 02b8 06       		.byte	0x6
 13372 02b9 1C       		.byte	0x1c
 13373 02ba 23       		.byte	0x23
 13374 02bb 03       		.uleb128 0x3
 13375 02bc 7E       		.byte	0x7e
 13376 02bd 00       		.sleb128 0
 13377 02be 70       		.byte	0x70
 13378 02bf 18       		.sleb128 24
 13379 02c0 06       		.byte	0x6
 13380 02c1 1C       		.byte	0x1c
 13381 02c2 7E       		.byte	0x7e
 13382 02c3 00       		.sleb128 0
 13383 02c4 70       		.byte	0x70
ARM GAS  /tmp/ccigORce.s 			page 236


 13384 02c5 18       		.sleb128 24
 13385 02c6 06       		.byte	0x6
 13386 02c7 1C       		.byte	0x1c
 13387 02c8 30       		.byte	0x30
 13388 02c9 2D       		.byte	0x2d
 13389 02ca 28       		.byte	0x28
 13390 02cb 0100     		.2byte	0x1
 13391 02cd 16       		.byte	0x16
 13392 02ce 13       		.byte	0x13
 13393 02cf 32       		.byte	0x32
 13394 02d0 26       		.byte	0x26
 13395 02d1 40       		.byte	0x40
 13396 02d2 4B       		.byte	0x4b
 13397 02d3 24       		.byte	0x24
 13398 02d4 22       		.byte	0x22
 13399 02d5 7C       		.byte	0x7c
 13400 02d6 00       		.sleb128 0
 13401 02d7 40       		.byte	0x40
 13402 02d8 4B       		.byte	0x4b
 13403 02d9 24       		.byte	0x24
 13404 02da 22       		.byte	0x22
 13405 02db 2A       		.byte	0x2a
 13406 02dc 28       		.byte	0x28
 13407 02dd 0100     		.2byte	0x1
 13408 02df 16       		.byte	0x16
 13409 02e0 13       		.byte	0x13
 13410 02e1 9F       		.byte	0x9f
 13411 02e2 52030000 		.4byte	.LVL115
 13412 02e6 56030000 		.4byte	.LVL116
 13413 02ea 0100     		.2byte	0x1
 13414 02ec 57       		.byte	0x57
 13415 02ed 00000000 		.4byte	0
 13416 02f1 00000000 		.4byte	0
 13417              	.LLST49:
 13418 02f5 C4020000 		.4byte	.LVL93
 13419 02f9 DE020000 		.4byte	.LVL96
 13420 02fd 0800     		.2byte	0x8
 13421 02ff 7E       		.byte	0x7e
 13422 0300 00       		.sleb128 0
 13423 0301 73       		.byte	0x73
 13424 0302 00       		.sleb128 0
 13425 0303 1C       		.byte	0x1c
 13426 0304 34       		.byte	0x34
 13427 0305 1B       		.byte	0x1b
 13428 0306 9F       		.byte	0x9f
 13429 0307 DE020000 		.4byte	.LVL96
 13430 030b EC020000 		.4byte	.LVL100
 13431 030f 0900     		.2byte	0x9
 13432 0311 7E       		.byte	0x7e
 13433 0312 00       		.sleb128 0
 13434 0313 70       		.byte	0x70
 13435 0314 18       		.sleb128 24
 13436 0315 06       		.byte	0x6
 13437 0316 1C       		.byte	0x1c
 13438 0317 34       		.byte	0x34
 13439 0318 1B       		.byte	0x1b
 13440 0319 9F       		.byte	0x9f
ARM GAS  /tmp/ccigORce.s 			page 237


 13441 031a 52030000 		.4byte	.LVL115
 13442 031e 56030000 		.4byte	.LVL116
 13443 0322 0800     		.2byte	0x8
 13444 0324 7E       		.byte	0x7e
 13445 0325 00       		.sleb128 0
 13446 0326 73       		.byte	0x73
 13447 0327 00       		.sleb128 0
 13448 0328 1C       		.byte	0x1c
 13449 0329 34       		.byte	0x34
 13450 032a 1B       		.byte	0x1b
 13451 032b 9F       		.byte	0x9f
 13452 032c 00000000 		.4byte	0
 13453 0330 00000000 		.4byte	0
 13454              	.LLST50:
 13455 0334 D8020000 		.4byte	.LVL95
 13456 0338 DE020000 		.4byte	.LVL96
 13457 033c 0100     		.2byte	0x1
 13458 033e 57       		.byte	0x57
 13459 033f 52030000 		.4byte	.LVL115
 13460 0343 56030000 		.4byte	.LVL116
 13461 0347 0100     		.2byte	0x1
 13462 0349 57       		.byte	0x57
 13463 034a 00000000 		.4byte	0
 13464 034e 00000000 		.4byte	0
 13465              	.LLST51:
 13466 0352 D8020000 		.4byte	.LVL95
 13467 0356 E2020000 		.4byte	.LVL97
 13468 035a 0100     		.2byte	0x1
 13469 035c 53       		.byte	0x53
 13470 035d E2020000 		.4byte	.LVL97
 13471 0361 E4020000 		.4byte	.LVL98
 13472 0365 0300     		.2byte	0x3
 13473 0367 73       		.byte	0x73
 13474 0368 7C       		.sleb128 -4
 13475 0369 9F       		.byte	0x9f
 13476 036a E4020000 		.4byte	.LVL98
 13477 036e E8020000 		.4byte	.LVL99
 13478 0372 0100     		.2byte	0x1
 13479 0374 53       		.byte	0x53
 13480 0375 52030000 		.4byte	.LVL115
 13481 0379 56030000 		.4byte	.LVL116
 13482 037d 0100     		.2byte	0x1
 13483 037f 53       		.byte	0x53
 13484 0380 00000000 		.4byte	0
 13485 0384 00000000 		.4byte	0
 13486              	.LLST52:
 13487 0388 F6020000 		.4byte	.LVL101
 13488 038c FC020000 		.4byte	.LVL102
 13489 0390 0300     		.2byte	0x3
 13490 0392 08       		.byte	0x8
 13491 0393 20       		.byte	0x20
 13492 0394 9F       		.byte	0x9f
 13493 0395 00000000 		.4byte	0
 13494 0399 00000000 		.4byte	0
 13495              	.LLST53:
 13496 039d 0C030000 		.4byte	.LVL105
 13497 03a1 12030000 		.4byte	.LVL106
ARM GAS  /tmp/ccigORce.s 			page 238


 13498 03a5 0200     		.2byte	0x2
 13499 03a7 30       		.byte	0x30
 13500 03a8 9F       		.byte	0x9f
 13501 03a9 00000000 		.4byte	0
 13502 03ad 00000000 		.4byte	0
 13503              	.LLST54:
 13504 03b1 38020000 		.4byte	.LVL76
 13505 03b5 48020000 		.4byte	.LVL81
 13506 03b9 0100     		.2byte	0x1
 13507 03bb 55       		.byte	0x55
 13508 03bc 00000000 		.4byte	0
 13509 03c0 00000000 		.4byte	0
 13510              	.LLST55:
 13511 03c4 38020000 		.4byte	.LVL76
 13512 03c8 48020000 		.4byte	.LVL81
 13513 03cc 0100     		.2byte	0x1
 13514 03ce 5E       		.byte	0x5e
 13515 03cf 00000000 		.4byte	0
 13516 03d3 00000000 		.4byte	0
 13517              	.LLST56:
 13518 03d7 38020000 		.4byte	.LVL76
 13519 03db 48020000 		.4byte	.LVL81
 13520 03df 0100     		.2byte	0x1
 13521 03e1 54       		.byte	0x54
 13522 03e2 00000000 		.4byte	0
 13523 03e6 00000000 		.4byte	0
 13524              	.LLST57:
 13525 03ea 3E020000 		.4byte	.LVL77
 13526 03ee 44020000 		.4byte	.LVL79
 13527 03f2 0100     		.2byte	0x1
 13528 03f4 53       		.byte	0x53
 13529 03f5 44020000 		.4byte	.LVL79
 13530 03f9 46020000 		.4byte	.LVL80
 13531 03fd 0300     		.2byte	0x3
 13532 03ff 73       		.byte	0x73
 13533 0400 7F       		.sleb128 -1
 13534 0401 9F       		.byte	0x9f
 13535 0402 46020000 		.4byte	.LVL80
 13536 0406 48020000 		.4byte	.LVL81
 13537 040a 0100     		.2byte	0x1
 13538 040c 53       		.byte	0x53
 13539 040d 00000000 		.4byte	0
 13540 0411 00000000 		.4byte	0
 13541              	.LLST58:
 13542 0415 38020000 		.4byte	.LVL76
 13543 0419 3E020000 		.4byte	.LVL77
 13544 041d 0100     		.2byte	0x1
 13545 041f 5E       		.byte	0x5e
 13546 0420 3E020000 		.4byte	.LVL77
 13547 0424 42020000 		.4byte	.LVL78
 13548 0428 0100     		.2byte	0x1
 13549 042a 52       		.byte	0x52
 13550 042b 42020000 		.4byte	.LVL78
 13551 042f 44020000 		.4byte	.LVL79
 13552 0433 0300     		.2byte	0x3
 13553 0435 72       		.byte	0x72
 13554 0436 7C       		.sleb128 -4
ARM GAS  /tmp/ccigORce.s 			page 239


 13555 0437 9F       		.byte	0x9f
 13556 0438 44020000 		.4byte	.LVL79
 13557 043c 48020000 		.4byte	.LVL81
 13558 0440 0100     		.2byte	0x1
 13559 0442 52       		.byte	0x52
 13560 0443 00000000 		.4byte	0
 13561 0447 00000000 		.4byte	0
 13562              	.LLST60:
 13563 044b 80020000 		.4byte	.LVL85
 13564 044f 86020000 		.4byte	.LVL86
 13565 0453 0300     		.2byte	0x3
 13566 0455 08       		.byte	0x8
 13567 0456 20       		.byte	0x20
 13568 0457 9F       		.byte	0x9f
 13569 0458 5A030000 		.4byte	.LVL117
 13570 045c 60030000 		.4byte	.LVL118
 13571 0460 0300     		.2byte	0x3
 13572 0462 08       		.byte	0x8
 13573 0463 20       		.byte	0x20
 13574 0464 9F       		.byte	0x9f
 13575 0465 74030000 		.4byte	.LVL119
 13576 0469 7A030000 		.4byte	.LVL120
 13577 046d 0300     		.2byte	0x3
 13578 046f 08       		.byte	0x8
 13579 0470 20       		.byte	0x20
 13580 0471 9F       		.byte	0x9f
 13581 0472 00000000 		.4byte	0
 13582 0476 00000000 		.4byte	0
 13583              	.LLST61:
 13584 047a A0020000 		.4byte	.LVL87
 13585 047e A6020000 		.4byte	.LVL88
 13586 0482 0200     		.2byte	0x2
 13587 0484 30       		.byte	0x30
 13588 0485 9F       		.byte	0x9f
 13589 0486 00000000 		.4byte	0
 13590 048a 00000000 		.4byte	0
 13591              	.LLST6:
 13592 048e 48000000 		.4byte	.LVL6
 13593 0492 4E000000 		.4byte	.LVL7
 13594 0496 0200     		.2byte	0x2
 13595 0498 30       		.byte	0x30
 13596 0499 9F       		.byte	0x9f
 13597 049a 00000000 		.4byte	0
 13598 049e 00000000 		.4byte	0
 13599              	.LLST7:
 13600 04a2 5A000000 		.4byte	.LVL9
 13601 04a6 C6000000 		.4byte	.LVL31
 13602 04aa 0100     		.2byte	0x1
 13603 04ac 59       		.byte	0x59
 13604 04ad F2000000 		.4byte	.LVL37
 13605 04b1 C0010000 		.4byte	.LVL69
 13606 04b5 0100     		.2byte	0x1
 13607 04b7 59       		.byte	0x59
 13608 04b8 00000000 		.4byte	0
 13609 04bc 00000000 		.4byte	0
 13610              	.LLST8:
 13611 04c0 60000000 		.4byte	.LVL10
ARM GAS  /tmp/ccigORce.s 			page 240


 13612 04c4 7C000000 		.4byte	.LVL14
 13613 04c8 0100     		.2byte	0x1
 13614 04ca 53       		.byte	0x53
 13615 04cb F2000000 		.4byte	.LVL37
 13616 04cf 00010000 		.4byte	.LVL39
 13617 04d3 0100     		.2byte	0x1
 13618 04d5 53       		.byte	0x53
 13619 04d6 00000000 		.4byte	0
 13620 04da 00000000 		.4byte	0
 13621              	.LLST9:
 13622 04de 70000000 		.4byte	.LVL11
 13623 04e2 7C000000 		.4byte	.LVL14
 13624 04e6 0900     		.2byte	0x9
 13625 04e8 73       		.byte	0x73
 13626 04e9 00       		.sleb128 0
 13627 04ea 34       		.byte	0x34
 13628 04eb 25       		.byte	0x25
 13629 04ec 0A       		.byte	0xa
 13630 04ed FF07     		.2byte	0x7ff
 13631 04ef 1A       		.byte	0x1a
 13632 04f0 9F       		.byte	0x9f
 13633 04f1 FE000000 		.4byte	.LVL38
 13634 04f5 C0010000 		.4byte	.LVL69
 13635 04f9 0100     		.2byte	0x1
 13636 04fb 54       		.byte	0x54
 13637 04fc 00000000 		.4byte	0
 13638 0500 00000000 		.4byte	0
 13639              	.LLST10:
 13640 0504 70000000 		.4byte	.LVL11
 13641 0508 74000000 		.4byte	.LVL12
 13642 050c 0500     		.2byte	0x5
 13643 050e 73       		.byte	0x73
 13644 050f 00       		.sleb128 0
 13645 0510 3F       		.byte	0x3f
 13646 0511 1A       		.byte	0x1a
 13647 0512 9F       		.byte	0x9f
 13648 0513 74000000 		.4byte	.LVL12
 13649 0517 78000000 		.4byte	.LVL13
 13650 051b 0100     		.2byte	0x1
 13651 051d 52       		.byte	0x52
 13652 051e 78000000 		.4byte	.LVL13
 13653 0522 7C000000 		.4byte	.LVL14
 13654 0526 0500     		.2byte	0x5
 13655 0528 73       		.byte	0x73
 13656 0529 00       		.sleb128 0
 13657 052a 3F       		.byte	0x3f
 13658 052b 1A       		.byte	0x1a
 13659 052c 9F       		.byte	0x9f
 13660 052d FE000000 		.4byte	.LVL38
 13661 0531 00010000 		.4byte	.LVL39
 13662 0535 0500     		.2byte	0x5
 13663 0537 73       		.byte	0x73
 13664 0538 00       		.sleb128 0
 13665 0539 3F       		.byte	0x3f
 13666 053a 1A       		.byte	0x1a
 13667 053b 9F       		.byte	0x9f
 13668 053c 00000000 		.4byte	0
ARM GAS  /tmp/ccigORce.s 			page 241


 13669 0540 00000000 		.4byte	0
 13670              	.LLST11:
 13671 0544 84000000 		.4byte	.LVL15
 13672 0548 96000000 		.4byte	.LVL19
 13673 054c 0200     		.2byte	0x2
 13674 054e 32       		.byte	0x32
 13675 054f 9F       		.byte	0x9f
 13676 0550 96000000 		.4byte	.LVL19
 13677 0554 9E000000 		.4byte	.LVL21
 13678 0558 0300     		.2byte	0x3
 13679 055a 75       		.byte	0x75
 13680 055b 7F       		.sleb128 -1
 13681 055c 9F       		.byte	0x9f
 13682 055d A6000000 		.4byte	.LVL23
 13683 0561 AA000000 		.4byte	.LVL24
 13684 0565 0100     		.2byte	0x1
 13685 0567 55       		.byte	0x55
 13686 0568 AA000000 		.4byte	.LVL24
 13687 056c B2000000 		.4byte	.LVL26
 13688 0570 0300     		.2byte	0x3
 13689 0572 75       		.byte	0x75
 13690 0573 7F       		.sleb128 -1
 13691 0574 9F       		.byte	0x9f
 13692 0575 00000000 		.4byte	0
 13693 0579 00000000 		.4byte	0
 13694              	.LLST12:
 13695 057d 96000000 		.4byte	.LVL19
 13696 0581 A2000000 		.4byte	.LVL22
 13697 0585 0100     		.2byte	0x1
 13698 0587 54       		.byte	0x54
 13699 0588 A2000000 		.4byte	.LVL22
 13700 058c AA000000 		.4byte	.LVL24
 13701 0590 0100     		.2byte	0x1
 13702 0592 53       		.byte	0x53
 13703 0593 AA000000 		.4byte	.LVL24
 13704 0597 B2000000 		.4byte	.LVL26
 13705 059b 0100     		.2byte	0x1
 13706 059d 54       		.byte	0x54
 13707 059e B2000000 		.4byte	.LVL26
 13708 05a2 B4000000 		.4byte	.LVL27
 13709 05a6 0300     		.2byte	0x3
 13710 05a8 73       		.byte	0x73
 13711 05a9 7E       		.sleb128 -2
 13712 05aa 9F       		.byte	0x9f
 13713 05ab B4000000 		.4byte	.LVL27
 13714 05af B8000000 		.4byte	.LVL29
 13715 05b3 0100     		.2byte	0x1
 13716 05b5 53       		.byte	0x53
 13717 05b6 B8000000 		.4byte	.LVL29
 13718 05ba BA000000 		.4byte	.LVL30
 13719 05be 0300     		.2byte	0x3
 13720 05c0 73       		.byte	0x73
 13721 05c1 01       		.sleb128 1
 13722 05c2 9F       		.byte	0x9f
 13723 05c3 00000000 		.4byte	0
 13724 05c7 00000000 		.4byte	0
 13725              	.LLST13:
ARM GAS  /tmp/ccigORce.s 			page 242


 13726 05cb 84000000 		.4byte	.LVL15
 13727 05cf 92000000 		.4byte	.LVL18
 13728 05d3 0100     		.2byte	0x1
 13729 05d5 52       		.byte	0x52
 13730 05d6 92000000 		.4byte	.LVL18
 13731 05da 96000000 		.4byte	.LVL19
 13732 05de 0300     		.2byte	0x3
 13733 05e0 72       		.byte	0x72
 13734 05e1 7C       		.sleb128 -4
 13735 05e2 9F       		.byte	0x9f
 13736 05e3 96000000 		.4byte	.LVL19
 13737 05e7 B2000000 		.4byte	.LVL26
 13738 05eb 0100     		.2byte	0x1
 13739 05ed 52       		.byte	0x52
 13740 05ee 00000000 		.4byte	0
 13741 05f2 00000000 		.4byte	0
 13742              	.LLST14:
 13743 05f6 84000000 		.4byte	.LVL15
 13744 05fa 8A000000 		.4byte	.LVL16
 13745 05fe 0400     		.2byte	0x4
 13746 0600 71       		.byte	0x71
 13747 0601 8020     		.sleb128 4096
 13748 0603 9F       		.byte	0x9f
 13749 0604 8A000000 		.4byte	.LVL16
 13750 0608 C6000000 		.4byte	.LVL31
 13751 060c 0100     		.2byte	0x1
 13752 060e 51       		.byte	0x51
 13753 060f 00000000 		.4byte	0
 13754 0613 00000000 		.4byte	0
 13755              	.LLST15:
 13756 0617 8E000000 		.4byte	.LVL17
 13757 061b B6000000 		.4byte	.LVL28
 13758 061f 0100     		.2byte	0x1
 13759 0621 50       		.byte	0x50
 13760 0622 00000000 		.4byte	0
 13761 0626 00000000 		.4byte	0
 13762              	.LLST16:
 13763 062a 16010000 		.4byte	.LVL42
 13764 062e 24010000 		.4byte	.LVL44
 13765 0632 0100     		.2byte	0x1
 13766 0634 56       		.byte	0x56
 13767 0635 24010000 		.4byte	.LVL44
 13768 0639 32010000 		.4byte	.LVL47
 13769 063d 0B00     		.2byte	0xb
 13770 063f 70       		.byte	0x70
 13771 0640 04       		.sleb128 4
 13772 0641 06       		.byte	0x6
 13773 0642 73       		.byte	0x73
 13774 0643 00       		.sleb128 0
 13775 0644 1C       		.byte	0x1c
 13776 0645 23       		.byte	0x23
 13777 0646 03       		.uleb128 0x3
 13778 0647 32       		.byte	0x32
 13779 0648 25       		.byte	0x25
 13780 0649 9F       		.byte	0x9f
 13781 064a 32010000 		.4byte	.LVL47
 13782 064e 3A010000 		.4byte	.LVL49
ARM GAS  /tmp/ccigORce.s 			page 243


 13783 0652 0D00     		.2byte	0xd
 13784 0654 70       		.byte	0x70
 13785 0655 04       		.sleb128 4
 13786 0656 06       		.byte	0x6
 13787 0657 73       		.byte	0x73
 13788 0658 00       		.sleb128 0
 13789 0659 1C       		.byte	0x1c
 13790 065a 23       		.byte	0x23
 13791 065b 03       		.uleb128 0x3
 13792 065c 32       		.byte	0x32
 13793 065d 25       		.byte	0x25
 13794 065e 31       		.byte	0x31
 13795 065f 1C       		.byte	0x1c
 13796 0660 9F       		.byte	0x9f
 13797 0661 00000000 		.4byte	0
 13798 0665 00000000 		.4byte	0
 13799              	.LLST17:
 13800 0669 0A010000 		.4byte	.LVL40
 13801 066d 0E010000 		.4byte	.LVL41
 13802 0671 0100     		.2byte	0x1
 13803 0673 54       		.byte	0x54
 13804 0674 2C010000 		.4byte	.LVL45
 13805 0678 2E010000 		.4byte	.LVL46
 13806 067c 0100     		.2byte	0x1
 13807 067e 52       		.byte	0x52
 13808 067f 2E010000 		.4byte	.LVL46
 13809 0683 32010000 		.4byte	.LVL47
 13810 0687 0300     		.2byte	0x3
 13811 0689 72       		.byte	0x72
 13812 068a 01       		.sleb128 1
 13813 068b 9F       		.byte	0x9f
 13814 068c 3A010000 		.4byte	.LVL49
 13815 0690 3C010000 		.4byte	.LVL50
 13816 0694 0300     		.2byte	0x3
 13817 0696 72       		.byte	0x72
 13818 0697 7F       		.sleb128 -1
 13819 0698 9F       		.byte	0x9f
 13820 0699 3C010000 		.4byte	.LVL50
 13821 069d 40010000 		.4byte	.LVL52
 13822 06a1 0100     		.2byte	0x1
 13823 06a3 52       		.byte	0x52
 13824 06a4 40010000 		.4byte	.LVL52
 13825 06a8 42010000 		.4byte	.LVL53
 13826 06ac 0300     		.2byte	0x3
 13827 06ae 72       		.byte	0x72
 13828 06af 01       		.sleb128 1
 13829 06b0 9F       		.byte	0x9f
 13830 06b1 00000000 		.4byte	0
 13831 06b5 00000000 		.4byte	0
 13832              	.LLST18:
 13833 06b9 0A010000 		.4byte	.LVL40
 13834 06bd 2C010000 		.4byte	.LVL45
 13835 06c1 0100     		.2byte	0x1
 13836 06c3 55       		.byte	0x55
 13837 06c4 2C010000 		.4byte	.LVL45
 13838 06c8 3A010000 		.4byte	.LVL49
 13839 06cc 0100     		.2byte	0x1
ARM GAS  /tmp/ccigORce.s 			page 244


 13840 06ce 57       		.byte	0x57
 13841 06cf 00000000 		.4byte	0
 13842 06d3 00000000 		.4byte	0
 13843              	.LLST19:
 13844 06d7 20010000 		.4byte	.LVL43
 13845 06db 2C010000 		.4byte	.LVL45
 13846 06df 0100     		.2byte	0x1
 13847 06e1 5E       		.byte	0x5e
 13848 06e2 2C010000 		.4byte	.LVL45
 13849 06e6 3A010000 		.4byte	.LVL49
 13850 06ea 0100     		.2byte	0x1
 13851 06ec 56       		.byte	0x56
 13852 06ed 00000000 		.4byte	0
 13853 06f1 00000000 		.4byte	0
 13854              	.LLST20:
 13855 06f5 50010000 		.4byte	.LVL54
 13856 06f9 C0010000 		.4byte	.LVL69
 13857 06fd 0100     		.2byte	0x1
 13858 06ff 54       		.byte	0x54
 13859 0700 00000000 		.4byte	0
 13860 0704 00000000 		.4byte	0
 13861              	.LLST21:
 13862 0708 50010000 		.4byte	.LVL54
 13863 070c AD010000 		.4byte	.LVL66-1
 13864 0710 0100     		.2byte	0x1
 13865 0712 50       		.byte	0x50
 13866 0713 00000000 		.4byte	0
 13867 0717 00000000 		.4byte	0
 13868              	.LLST22:
 13869 071b 50010000 		.4byte	.LVL54
 13870 071f 58010000 		.4byte	.LVL55
 13871 0723 0400     		.2byte	0x4
 13872 0725 71       		.byte	0x71
 13873 0726 8020     		.sleb128 4096
 13874 0728 9F       		.byte	0x9f
 13875 0729 58010000 		.4byte	.LVL55
 13876 072d 9C010000 		.4byte	.LVL63
 13877 0731 0100     		.2byte	0x1
 13878 0733 51       		.byte	0x51
 13879 0734 00000000 		.4byte	0
 13880 0738 00000000 		.4byte	0
 13881              	.LLST23:
 13882 073c 50010000 		.4byte	.LVL54
 13883 0740 5A010000 		.4byte	.LVL56
 13884 0744 0100     		.2byte	0x1
 13885 0746 54       		.byte	0x54
 13886 0747 5A010000 		.4byte	.LVL56
 13887 074b 72010000 		.4byte	.LVL61
 13888 074f 0100     		.2byte	0x1
 13889 0751 57       		.byte	0x57
 13890 0752 72010000 		.4byte	.LVL61
 13891 0756 8E010000 		.4byte	.LVL62
 13892 075a 0300     		.2byte	0x3
 13893 075c 77       		.byte	0x77
 13894 075d 7F       		.sleb128 -1
 13895 075e 9F       		.byte	0x9f
 13896 075f 8E010000 		.4byte	.LVL62
ARM GAS  /tmp/ccigORce.s 			page 245


 13897 0763 9C010000 		.4byte	.LVL63
 13898 0767 0100     		.2byte	0x1
 13899 0769 57       		.byte	0x57
 13900 076a 00000000 		.4byte	0
 13901 076e 00000000 		.4byte	0
 13902              	.LLST24:
 13903 0772 70010000 		.4byte	.LVL60
 13904 0776 9C010000 		.4byte	.LVL63
 13905 077a 0100     		.2byte	0x1
 13906 077c 5E       		.byte	0x5e
 13907 077d 00000000 		.4byte	0
 13908 0781 00000000 		.4byte	0
 13909              	.LLST25:
 13910 0785 70010000 		.4byte	.LVL60
 13911 0789 72010000 		.4byte	.LVL61
 13912 078d 0200     		.2byte	0x2
 13913 078f 30       		.byte	0x30
 13914 0790 9F       		.byte	0x9f
 13915 0791 00000000 		.4byte	0
 13916 0795 00000000 		.4byte	0
 13917              	.LLST26:
 13918 0799 5A010000 		.4byte	.LVL56
 13919 079d 5E010000 		.4byte	.LVL57
 13920 07a1 0500     		.2byte	0x5
 13921 07a3 77       		.byte	0x77
 13922 07a4 00       		.sleb128 0
 13923 07a5 32       		.byte	0x32
 13924 07a6 25       		.byte	0x25
 13925 07a7 9F       		.byte	0x9f
 13926 07a8 68010000 		.4byte	.LVL58
 13927 07ac 6C010000 		.4byte	.LVL59
 13928 07b0 0500     		.2byte	0x5
 13929 07b2 77       		.byte	0x77
 13930 07b3 00       		.sleb128 0
 13931 07b4 32       		.byte	0x32
 13932 07b5 25       		.byte	0x25
 13933 07b6 9F       		.byte	0x9f
 13934 07b7 00000000 		.4byte	0
 13935 07bb 00000000 		.4byte	0
 13936              	.LLST27:
 13937 07bf 5E010000 		.4byte	.LVL57
 13938 07c3 6C010000 		.4byte	.LVL59
 13939 07c7 0200     		.2byte	0x2
 13940 07c9 30       		.byte	0x30
 13941 07ca 9F       		.byte	0x9f
 13942 07cb 00000000 		.4byte	0
 13943 07cf 00000000 		.4byte	0
 13944              	.LLST29:
 13945 07d3 9C010000 		.4byte	.LVL63
 13946 07d7 A2010000 		.4byte	.LVL64
 13947 07db 0300     		.2byte	0x3
 13948 07dd 08       		.byte	0x8
 13949 07de 20       		.byte	0x20
 13950 07df 9F       		.byte	0x9f
 13951 07e0 00000000 		.4byte	0
 13952 07e4 00000000 		.4byte	0
 13953              	.LLST30:
ARM GAS  /tmp/ccigORce.s 			page 246


 13954 07e8 A8010000 		.4byte	.LVL65
 13955 07ec AE010000 		.4byte	.LVL66
 13956 07f0 0200     		.2byte	0x2
 13957 07f2 30       		.byte	0x30
 13958 07f3 9F       		.byte	0x9f
 13959 07f4 00000000 		.4byte	0
 13960 07f8 00000000 		.4byte	0
 13961              	.LLST31:
 13962 07fc A8010000 		.4byte	.LVL65
 13963 0800 AD010000 		.4byte	.LVL66-1
 13964 0804 0100     		.2byte	0x1
 13965 0806 50       		.byte	0x50
 13966 0807 00000000 		.4byte	0
 13967 080b 00000000 		.4byte	0
 13968              	.LLST32:
 13969 080f B2010000 		.4byte	.LVL67
 13970 0813 B8010000 		.4byte	.LVL68
 13971 0817 0200     		.2byte	0x2
 13972 0819 30       		.byte	0x30
 13973 081a 9F       		.byte	0x9f
 13974 081b 00000000 		.4byte	0
 13975 081f 00000000 		.4byte	0
 13976              	.LLST33:
 13977 0823 EA000000 		.4byte	.LVL35
 13978 0827 F0000000 		.4byte	.LVL36
 13979 082b 0300     		.2byte	0x3
 13980 082d 08       		.byte	0x8
 13981 082e 20       		.byte	0x20
 13982 082f 9F       		.byte	0x9f
 13983 0830 00000000 		.4byte	0
 13984 0834 00000000 		.4byte	0
 13985              	.LLST3:
 13986 0838 0E000000 		.4byte	.LVL3
 13987 083c 16000000 		.4byte	.LVL4
 13988 0840 0300     		.2byte	0x3
 13989 0842 08       		.byte	0x8
 13990 0843 20       		.byte	0x20
 13991 0844 9F       		.byte	0x9f
 13992 0845 00000000 		.4byte	0
 13993 0849 00000000 		.4byte	0
 13994              	.LLST151:
 13995 084d 00000000 		.4byte	.LVL295
 13996 0851 06000000 		.4byte	.LVL296
 13997 0855 0100     		.2byte	0x1
 13998 0857 51       		.byte	0x51
 13999 0858 06000000 		.4byte	.LVL296
 14000 085c 14000000 		.4byte	.LFE293
 14001 0860 0400     		.2byte	0x4
 14002 0862 F3       		.byte	0xf3
 14003 0863 01       		.uleb128 0x1
 14004 0864 51       		.byte	0x51
 14005 0865 9F       		.byte	0x9f
 14006 0866 00000000 		.4byte	0
 14007 086a 00000000 		.4byte	0
 14008              	.LLST150:
 14009 086e 00000000 		.4byte	.LVL293
 14010 0872 06000000 		.4byte	.LVL294
ARM GAS  /tmp/ccigORce.s 			page 247


 14011 0876 0100     		.2byte	0x1
 14012 0878 51       		.byte	0x51
 14013 0879 06000000 		.4byte	.LVL294
 14014 087d 14000000 		.4byte	.LFE292
 14015 0881 0400     		.2byte	0x4
 14016 0883 F3       		.byte	0xf3
 14017 0884 01       		.uleb128 0x1
 14018 0885 51       		.byte	0x51
 14019 0886 9F       		.byte	0x9f
 14020 0887 00000000 		.4byte	0
 14021 088b 00000000 		.4byte	0
 14022              	.LLST149:
 14023 088f 00000000 		.4byte	.LVL291
 14024 0893 06000000 		.4byte	.LVL292
 14025 0897 0100     		.2byte	0x1
 14026 0899 51       		.byte	0x51
 14027 089a 06000000 		.4byte	.LVL292
 14028 089e 14000000 		.4byte	.LFE291
 14029 08a2 0400     		.2byte	0x4
 14030 08a4 F3       		.byte	0xf3
 14031 08a5 01       		.uleb128 0x1
 14032 08a6 51       		.byte	0x51
 14033 08a7 9F       		.byte	0x9f
 14034 08a8 00000000 		.4byte	0
 14035 08ac 00000000 		.4byte	0
 14036              	.LLST148:
 14037 08b0 00000000 		.4byte	.LVL289
 14038 08b4 06000000 		.4byte	.LVL290
 14039 08b8 0100     		.2byte	0x1
 14040 08ba 51       		.byte	0x51
 14041 08bb 06000000 		.4byte	.LVL290
 14042 08bf 14000000 		.4byte	.LFE290
 14043 08c3 0400     		.2byte	0x4
 14044 08c5 F3       		.byte	0xf3
 14045 08c6 01       		.uleb128 0x1
 14046 08c7 51       		.byte	0x51
 14047 08c8 9F       		.byte	0x9f
 14048 08c9 00000000 		.4byte	0
 14049 08cd 00000000 		.4byte	0
 14050              	.LLST123:
 14051 08d1 00000000 		.4byte	.LVL226
 14052 08d5 16000000 		.4byte	.LVL229
 14053 08d9 0100     		.2byte	0x1
 14054 08db 50       		.byte	0x50
 14055 08dc 16000000 		.4byte	.LVL229
 14056 08e0 2E000000 		.4byte	.LVL233
 14057 08e4 0400     		.2byte	0x4
 14058 08e6 F3       		.byte	0xf3
 14059 08e7 01       		.uleb128 0x1
 14060 08e8 50       		.byte	0x50
 14061 08e9 9F       		.byte	0x9f
 14062 08ea 2E000000 		.4byte	.LVL233
 14063 08ee 4A000000 		.4byte	.LFE287
 14064 08f2 0100     		.2byte	0x1
 14065 08f4 50       		.byte	0x50
 14066 08f5 00000000 		.4byte	0
 14067 08f9 00000000 		.4byte	0
ARM GAS  /tmp/ccigORce.s 			page 248


 14068              	.LLST124:
 14069 08fd 00000000 		.4byte	.LVL226
 14070 0901 1C000000 		.4byte	.LVL231
 14071 0905 0100     		.2byte	0x1
 14072 0907 51       		.byte	0x51
 14073 0908 1C000000 		.4byte	.LVL231
 14074 090c 2E000000 		.4byte	.LVL233
 14075 0910 0400     		.2byte	0x4
 14076 0912 F3       		.byte	0xf3
 14077 0913 01       		.uleb128 0x1
 14078 0914 51       		.byte	0x51
 14079 0915 9F       		.byte	0x9f
 14080 0916 2E000000 		.4byte	.LVL233
 14081 091a 40000000 		.4byte	.LVL234
 14082 091e 0100     		.2byte	0x1
 14083 0920 51       		.byte	0x51
 14084 0921 40000000 		.4byte	.LVL234
 14085 0925 4A000000 		.4byte	.LFE287
 14086 0929 0400     		.2byte	0x4
 14087 092b F3       		.byte	0xf3
 14088 092c 01       		.uleb128 0x1
 14089 092d 51       		.byte	0x51
 14090 092e 9F       		.byte	0x9f
 14091 092f 00000000 		.4byte	0
 14092 0933 00000000 		.4byte	0
 14093              	.LLST125:
 14094 0937 0A000000 		.4byte	.LVL227
 14095 093b 18000000 		.4byte	.LVL230
 14096 093f 0100     		.2byte	0x1
 14097 0941 52       		.byte	0x52
 14098 0942 18000000 		.4byte	.LVL230
 14099 0946 1C000000 		.4byte	.LVL231
 14100 094a 0D00     		.2byte	0xd
 14101 094c 71       		.byte	0x71
 14102 094d 00       		.sleb128 0
 14103 094e 32       		.byte	0x32
 14104 094f 24       		.byte	0x24
 14105 0950 F3       		.byte	0xf3
 14106 0951 01       		.uleb128 0x1
 14107 0952 50       		.byte	0x50
 14108 0953 22       		.byte	0x22
 14109 0954 23       		.byte	0x23
 14110 0955 0C       		.uleb128 0xc
 14111 0956 06       		.byte	0x6
 14112 0957 23       		.byte	0x23
 14113 0958 14       		.uleb128 0x14
 14114 0959 2E000000 		.4byte	.LVL233
 14115 095d 4A000000 		.4byte	.LFE287
 14116 0961 0100     		.2byte	0x1
 14117 0963 52       		.byte	0x52
 14118 0964 00000000 		.4byte	0
 14119 0968 00000000 		.4byte	0
 14120              	.LLST126:
 14121 096c 14000000 		.4byte	.LVL228
 14122 0970 26000000 		.4byte	.LVL232
 14123 0974 1100     		.2byte	0x11
 14124 0976 73       		.byte	0x73
ARM GAS  /tmp/ccigORce.s 			page 249


 14125 0977 00       		.sleb128 0
 14126 0978 74       		.byte	0x74
 14127 0979 00       		.sleb128 0
 14128 097a 22       		.byte	0x22
 14129 097b 31       		.byte	0x31
 14130 097c 1C       		.byte	0x1c
 14131 097d F7       		.byte	0xf7
 14132 097e 21       		.uleb128 0x21
 14133 097f 74       		.byte	0x74
 14134 0980 00       		.sleb128 0
 14135 0981 F7       		.byte	0xf7
 14136 0982 21       		.uleb128 0x21
 14137 0983 1B       		.byte	0x1b
 14138 0984 F7       		.byte	0xf7
 14139 0985 00       		.uleb128 0
 14140 0986 9F       		.byte	0x9f
 14141 0987 00000000 		.4byte	0
 14142 098b 00000000 		.4byte	0
 14143              	.LLST111:
 14144 098f 00000000 		.4byte	.LVL200
 14145 0993 24000000 		.4byte	.LVL203
 14146 0997 0100     		.2byte	0x1
 14147 0999 50       		.byte	0x50
 14148 099a 24000000 		.4byte	.LVL203
 14149 099e 40000000 		.4byte	.LFE286
 14150 09a2 0400     		.2byte	0x4
 14151 09a4 F3       		.byte	0xf3
 14152 09a5 01       		.uleb128 0x1
 14153 09a6 50       		.byte	0x50
 14154 09a7 9F       		.byte	0x9f
 14155 09a8 00000000 		.4byte	0
 14156 09ac 00000000 		.4byte	0
 14157              	.LLST112:
 14158 09b0 00000000 		.4byte	.LVL200
 14159 09b4 2A000000 		.4byte	.LVL204
 14160 09b8 0100     		.2byte	0x1
 14161 09ba 51       		.byte	0x51
 14162 09bb 2A000000 		.4byte	.LVL204
 14163 09bf 40000000 		.4byte	.LFE286
 14164 09c3 0400     		.2byte	0x4
 14165 09c5 F3       		.byte	0xf3
 14166 09c6 01       		.uleb128 0x1
 14167 09c7 51       		.byte	0x51
 14168 09c8 9F       		.byte	0x9f
 14169 09c9 00000000 		.4byte	0
 14170 09cd 00000000 		.4byte	0
 14171              	.LLST113:
 14172 09d1 22000000 		.4byte	.LVL202
 14173 09d5 3A000000 		.4byte	.LVL205
 14174 09d9 1100     		.2byte	0x11
 14175 09db 72       		.byte	0x72
 14176 09dc 00       		.sleb128 0
 14177 09dd 75       		.byte	0x75
 14178 09de 00       		.sleb128 0
 14179 09df 22       		.byte	0x22
 14180 09e0 31       		.byte	0x31
 14181 09e1 1C       		.byte	0x1c
ARM GAS  /tmp/ccigORce.s 			page 250


 14182 09e2 F7       		.byte	0xf7
 14183 09e3 21       		.uleb128 0x21
 14184 09e4 75       		.byte	0x75
 14185 09e5 00       		.sleb128 0
 14186 09e6 F7       		.byte	0xf7
 14187 09e7 21       		.uleb128 0x21
 14188 09e8 1B       		.byte	0x1b
 14189 09e9 F7       		.byte	0xf7
 14190 09ea 00       		.uleb128 0
 14191 09eb 9F       		.byte	0x9f
 14192 09ec 00000000 		.4byte	0
 14193 09f0 00000000 		.4byte	0
 14194              	.LLST114:
 14195 09f4 0A000000 		.4byte	.LVL201
 14196 09f8 22000000 		.4byte	.LVL202
 14197 09fc 0100     		.2byte	0x1
 14198 09fe 55       		.byte	0x55
 14199 09ff 22000000 		.4byte	.LVL202
 14200 0a03 3A000000 		.4byte	.LVL205
 14201 0a07 0200     		.2byte	0x2
 14202 0a09 76       		.byte	0x76
 14203 0a0a 18       		.sleb128 24
 14204 0a0b 00000000 		.4byte	0
 14205 0a0f 00000000 		.4byte	0
 14206              	.LLST110:
 14207 0a13 00000000 		.4byte	.LVL198
 14208 0a17 04000000 		.4byte	.LVL199
 14209 0a1b 0100     		.2byte	0x1
 14210 0a1d 51       		.byte	0x51
 14211 0a1e 04000000 		.4byte	.LVL199
 14212 0a22 12000000 		.4byte	.LFE285
 14213 0a26 0400     		.2byte	0x4
 14214 0a28 F3       		.byte	0xf3
 14215 0a29 01       		.uleb128 0x1
 14216 0a2a 51       		.byte	0x51
 14217 0a2b 9F       		.byte	0x9f
 14218 0a2c 00000000 		.4byte	0
 14219 0a30 00000000 		.4byte	0
 14220              	.LLST108:
 14221 0a34 00000000 		.4byte	.LVL194
 14222 0a38 0C000000 		.4byte	.LVL197
 14223 0a3c 0100     		.2byte	0x1
 14224 0a3e 50       		.byte	0x50
 14225 0a3f 0C000000 		.4byte	.LVL197
 14226 0a43 1A000000 		.4byte	.LFE284
 14227 0a47 0400     		.2byte	0x4
 14228 0a49 F3       		.byte	0xf3
 14229 0a4a 01       		.uleb128 0x1
 14230 0a4b 50       		.byte	0x50
 14231 0a4c 9F       		.byte	0x9f
 14232 0a4d 00000000 		.4byte	0
 14233 0a51 00000000 		.4byte	0
 14234              	.LLST109:
 14235 0a55 00000000 		.4byte	.LVL194
 14236 0a59 02000000 		.4byte	.LVL195
 14237 0a5d 0100     		.2byte	0x1
 14238 0a5f 51       		.byte	0x51
ARM GAS  /tmp/ccigORce.s 			page 251


 14239 0a60 02000000 		.4byte	.LVL195
 14240 0a64 1A000000 		.4byte	.LFE284
 14241 0a68 0400     		.2byte	0x4
 14242 0a6a F3       		.byte	0xf3
 14243 0a6b 01       		.uleb128 0x1
 14244 0a6c 51       		.byte	0x51
 14245 0a6d 9F       		.byte	0x9f
 14246 0a6e 00000000 		.4byte	0
 14247 0a72 00000000 		.4byte	0
 14248              	.LLST106:
 14249 0a76 00000000 		.4byte	.LVL190
 14250 0a7a 0C000000 		.4byte	.LVL193
 14251 0a7e 0100     		.2byte	0x1
 14252 0a80 50       		.byte	0x50
 14253 0a81 0C000000 		.4byte	.LVL193
 14254 0a85 1A000000 		.4byte	.LFE283
 14255 0a89 0400     		.2byte	0x4
 14256 0a8b F3       		.byte	0xf3
 14257 0a8c 01       		.uleb128 0x1
 14258 0a8d 50       		.byte	0x50
 14259 0a8e 9F       		.byte	0x9f
 14260 0a8f 00000000 		.4byte	0
 14261 0a93 00000000 		.4byte	0
 14262              	.LLST107:
 14263 0a97 00000000 		.4byte	.LVL190
 14264 0a9b 02000000 		.4byte	.LVL191
 14265 0a9f 0100     		.2byte	0x1
 14266 0aa1 51       		.byte	0x51
 14267 0aa2 02000000 		.4byte	.LVL191
 14268 0aa6 1A000000 		.4byte	.LFE283
 14269 0aaa 0400     		.2byte	0x4
 14270 0aac F3       		.byte	0xf3
 14271 0aad 01       		.uleb128 0x1
 14272 0aae 51       		.byte	0x51
 14273 0aaf 9F       		.byte	0x9f
 14274 0ab0 00000000 		.4byte	0
 14275 0ab4 00000000 		.4byte	0
 14276              	.LLST103:
 14277 0ab8 00000000 		.4byte	.LVL186
 14278 0abc 08000000 		.4byte	.LVL188
 14279 0ac0 0100     		.2byte	0x1
 14280 0ac2 50       		.byte	0x50
 14281 0ac3 08000000 		.4byte	.LVL188
 14282 0ac7 0D000000 		.4byte	.LVL189-1
 14283 0acb 0100     		.2byte	0x1
 14284 0acd 53       		.byte	0x53
 14285 0ace 0D000000 		.4byte	.LVL189-1
 14286 0ad2 0E000000 		.4byte	.LFE282
 14287 0ad6 0400     		.2byte	0x4
 14288 0ad8 F3       		.byte	0xf3
 14289 0ad9 01       		.uleb128 0x1
 14290 0ada 50       		.byte	0x50
 14291 0adb 9F       		.byte	0x9f
 14292 0adc 00000000 		.4byte	0
 14293 0ae0 00000000 		.4byte	0
 14294              	.LLST104:
 14295 0ae4 02000000 		.4byte	.LVL187
ARM GAS  /tmp/ccigORce.s 			page 252


 14296 0ae8 08000000 		.4byte	.LVL188
 14297 0aec 0100     		.2byte	0x1
 14298 0aee 50       		.byte	0x50
 14299 0aef 08000000 		.4byte	.LVL188
 14300 0af3 0D000000 		.4byte	.LVL189-1
 14301 0af7 0100     		.2byte	0x1
 14302 0af9 53       		.byte	0x53
 14303 0afa 0D000000 		.4byte	.LVL189-1
 14304 0afe 0E000000 		.4byte	.LFE282
 14305 0b02 0400     		.2byte	0x4
 14306 0b04 F3       		.byte	0xf3
 14307 0b05 01       		.uleb128 0x1
 14308 0b06 50       		.byte	0x50
 14309 0b07 9F       		.byte	0x9f
 14310 0b08 00000000 		.4byte	0
 14311 0b0c 00000000 		.4byte	0
 14312              	.LLST105:
 14313 0b10 02000000 		.4byte	.LVL187
 14314 0b14 08000000 		.4byte	.LVL188
 14315 0b18 0100     		.2byte	0x1
 14316 0b1a 50       		.byte	0x50
 14317 0b1b 08000000 		.4byte	.LVL188
 14318 0b1f 0D000000 		.4byte	.LVL189-1
 14319 0b23 0100     		.2byte	0x1
 14320 0b25 53       		.byte	0x53
 14321 0b26 0D000000 		.4byte	.LVL189-1
 14322 0b2a 0E000000 		.4byte	.LFE282
 14323 0b2e 0400     		.2byte	0x4
 14324 0b30 F3       		.byte	0xf3
 14325 0b31 01       		.uleb128 0x1
 14326 0b32 50       		.byte	0x50
 14327 0b33 9F       		.byte	0x9f
 14328 0b34 00000000 		.4byte	0
 14329 0b38 00000000 		.4byte	0
 14330              	.LLST87:
 14331 0b3c 00000000 		.4byte	.LVL165
 14332 0b40 AC000000 		.4byte	.LVL176
 14333 0b44 0100     		.2byte	0x1
 14334 0b46 50       		.byte	0x50
 14335 0b47 AC000000 		.4byte	.LVL176
 14336 0b4b D6000000 		.4byte	.LVL178
 14337 0b4f 0400     		.2byte	0x4
 14338 0b51 F3       		.byte	0xf3
 14339 0b52 01       		.uleb128 0x1
 14340 0b53 50       		.byte	0x50
 14341 0b54 9F       		.byte	0x9f
 14342 0b55 D6000000 		.4byte	.LVL178
 14343 0b59 FE000000 		.4byte	.LVL183
 14344 0b5d 0100     		.2byte	0x1
 14345 0b5f 50       		.byte	0x50
 14346 0b60 FE000000 		.4byte	.LVL183
 14347 0b64 24010000 		.4byte	.LVL185
 14348 0b68 0400     		.2byte	0x4
 14349 0b6a F3       		.byte	0xf3
 14350 0b6b 01       		.uleb128 0x1
 14351 0b6c 50       		.byte	0x50
 14352 0b6d 9F       		.byte	0x9f
ARM GAS  /tmp/ccigORce.s 			page 253


 14353 0b6e 24010000 		.4byte	.LVL185
 14354 0b72 64010000 		.4byte	.LFE281
 14355 0b76 0100     		.2byte	0x1
 14356 0b78 50       		.byte	0x50
 14357 0b79 00000000 		.4byte	0
 14358 0b7d 00000000 		.4byte	0
 14359              	.LLST88:
 14360 0b81 00000000 		.4byte	.LVL165
 14361 0b85 22000000 		.4byte	.LVL166
 14362 0b89 0100     		.2byte	0x1
 14363 0b8b 51       		.byte	0x51
 14364 0b8c 22000000 		.4byte	.LVL166
 14365 0b90 D6000000 		.4byte	.LVL178
 14366 0b94 0400     		.2byte	0x4
 14367 0b96 F3       		.byte	0xf3
 14368 0b97 01       		.uleb128 0x1
 14369 0b98 51       		.byte	0x51
 14370 0b99 9F       		.byte	0x9f
 14371 0b9a D6000000 		.4byte	.LVL178
 14372 0b9e DE000000 		.4byte	.LVL180
 14373 0ba2 0100     		.2byte	0x1
 14374 0ba4 51       		.byte	0x51
 14375 0ba5 DE000000 		.4byte	.LVL180
 14376 0ba9 64010000 		.4byte	.LFE281
 14377 0bad 0400     		.2byte	0x4
 14378 0baf F3       		.byte	0xf3
 14379 0bb0 01       		.uleb128 0x1
 14380 0bb1 51       		.byte	0x51
 14381 0bb2 9F       		.byte	0x9f
 14382 0bb3 00000000 		.4byte	0
 14383 0bb7 00000000 		.4byte	0
 14384              	.LLST89:
 14385 0bbb 2A000000 		.4byte	.LVL167
 14386 0bbf D6000000 		.4byte	.LVL178
 14387 0bc3 0100     		.2byte	0x1
 14388 0bc5 56       		.byte	0x56
 14389 0bc6 D6000000 		.4byte	.LVL178
 14390 0bca DA000000 		.4byte	.LVL179
 14391 0bce 0600     		.2byte	0x6
 14392 0bd0 0C       		.byte	0xc
 14393 0bd1 00800810 		.4byte	0x10088000
 14394 0bd5 9F       		.byte	0x9f
 14395 0bd6 DA000000 		.4byte	.LVL179
 14396 0bda DE000000 		.4byte	.LVL180
 14397 0bde 0600     		.2byte	0x6
 14398 0be0 0C       		.byte	0xc
 14399 0be1 00800C10 		.4byte	0x100c8000
 14400 0be5 9F       		.byte	0x9f
 14401 0be6 DE000000 		.4byte	.LVL180
 14402 0bea 64010000 		.4byte	.LFE281
 14403 0bee 0100     		.2byte	0x1
 14404 0bf0 56       		.byte	0x56
 14405 0bf1 00000000 		.4byte	0
 14406 0bf5 00000000 		.4byte	0
 14407              	.LLST90:
 14408 0bf9 80000000 		.4byte	.LVL168
 14409 0bfd 96000000 		.4byte	.LVL171
ARM GAS  /tmp/ccigORce.s 			page 254


 14410 0c01 0100     		.2byte	0x1
 14411 0c03 53       		.byte	0x53
 14412 0c04 00000000 		.4byte	0
 14413 0c08 00000000 		.4byte	0
 14414              	.LLST91:
 14415 0c0c 00000000 		.4byte	.LVL165
 14416 0c10 AC000000 		.4byte	.LVL176
 14417 0c14 0300     		.2byte	0x3
 14418 0c16 70       		.byte	0x70
 14419 0c17 D000     		.sleb128 80
 14420 0c19 AC000000 		.4byte	.LVL176
 14421 0c1d AF000000 		.4byte	.LVL177-1
 14422 0c21 0500     		.2byte	0x5
 14423 0c23 F3       		.byte	0xf3
 14424 0c24 01       		.uleb128 0x1
 14425 0c25 50       		.byte	0x50
 14426 0c26 23       		.byte	0x23
 14427 0c27 50       		.uleb128 0x50
 14428 0c28 D6000000 		.4byte	.LVL178
 14429 0c2c FE000000 		.4byte	.LVL183
 14430 0c30 0300     		.2byte	0x3
 14431 0c32 70       		.byte	0x70
 14432 0c33 D000     		.sleb128 80
 14433 0c35 FE000000 		.4byte	.LVL183
 14434 0c39 01010000 		.4byte	.LVL184-1
 14435 0c3d 0500     		.2byte	0x5
 14436 0c3f F3       		.byte	0xf3
 14437 0c40 01       		.uleb128 0x1
 14438 0c41 50       		.byte	0x50
 14439 0c42 23       		.byte	0x23
 14440 0c43 50       		.uleb128 0x50
 14441 0c44 24010000 		.4byte	.LVL185
 14442 0c48 64010000 		.4byte	.LFE281
 14443 0c4c 0300     		.2byte	0x3
 14444 0c4e 70       		.byte	0x70
 14445 0c4f D000     		.sleb128 80
 14446 0c51 00000000 		.4byte	0
 14447 0c55 00000000 		.4byte	0
 14448              	.LLST92:
 14449 0c59 84000000 		.4byte	.LVL169
 14450 0c5d AC000000 		.4byte	.LVL176
 14451 0c61 0100     		.2byte	0x1
 14452 0c63 50       		.byte	0x50
 14453 0c64 AC000000 		.4byte	.LVL176
 14454 0c68 D6000000 		.4byte	.LVL178
 14455 0c6c 0400     		.2byte	0x4
 14456 0c6e F3       		.byte	0xf3
 14457 0c6f 01       		.uleb128 0x1
 14458 0c70 50       		.byte	0x50
 14459 0c71 9F       		.byte	0x9f
 14460 0c72 00000000 		.4byte	0
 14461 0c76 00000000 		.4byte	0
 14462              	.LLST93:
 14463 0c7a 84000000 		.4byte	.LVL169
 14464 0c7e 96000000 		.4byte	.LVL171
 14465 0c82 0100     		.2byte	0x1
 14466 0c84 53       		.byte	0x53
ARM GAS  /tmp/ccigORce.s 			page 255


 14467 0c85 00000000 		.4byte	0
 14468 0c89 00000000 		.4byte	0
 14469              	.LLST94:
 14470 0c8d 86000000 		.4byte	.LVL170
 14471 0c91 98000000 		.4byte	.LVL172
 14472 0c95 0100     		.2byte	0x1
 14473 0c97 52       		.byte	0x52
 14474 0c98 98000000 		.4byte	.LVL172
 14475 0c9c A0000000 		.4byte	.LVL173
 14476 0ca0 0300     		.2byte	0x3
 14477 0ca2 70       		.byte	0x70
 14478 0ca3 D800     		.sleb128 88
 14479 0ca5 00000000 		.4byte	0
 14480 0ca9 00000000 		.4byte	0
 14481              	.LLST95:
 14482 0cad A2000000 		.4byte	.LVL174
 14483 0cb1 AC000000 		.4byte	.LVL176
 14484 0cb5 0100     		.2byte	0x1
 14485 0cb7 50       		.byte	0x50
 14486 0cb8 AC000000 		.4byte	.LVL176
 14487 0cbc D6000000 		.4byte	.LVL178
 14488 0cc0 0400     		.2byte	0x4
 14489 0cc2 F3       		.byte	0xf3
 14490 0cc3 01       		.uleb128 0x1
 14491 0cc4 50       		.byte	0x50
 14492 0cc5 9F       		.byte	0x9f
 14493 0cc6 00000000 		.4byte	0
 14494 0cca 00000000 		.4byte	0
 14495              	.LLST96:
 14496 0cce A2000000 		.4byte	.LVL174
 14497 0cd2 B0000000 		.4byte	.LVL177
 14498 0cd6 0600     		.2byte	0x6
 14499 0cd8 75       		.byte	0x75
 14500 0cd9 00       		.sleb128 0
 14501 0cda 08       		.byte	0x8
 14502 0cdb FF       		.byte	0xff
 14503 0cdc 1A       		.byte	0x1a
 14504 0cdd 9F       		.byte	0x9f
 14505 0cde 00000000 		.4byte	0
 14506 0ce2 00000000 		.4byte	0
 14507              	.LLST97:
 14508 0ce6 A2000000 		.4byte	.LVL174
 14509 0cea AC000000 		.4byte	.LVL176
 14510 0cee 0300     		.2byte	0x3
 14511 0cf0 70       		.byte	0x70
 14512 0cf1 D000     		.sleb128 80
 14513 0cf3 AC000000 		.4byte	.LVL176
 14514 0cf7 AF000000 		.4byte	.LVL177-1
 14515 0cfb 0500     		.2byte	0x5
 14516 0cfd F3       		.byte	0xf3
 14517 0cfe 01       		.uleb128 0x1
 14518 0cff 50       		.byte	0x50
 14519 0d00 23       		.byte	0x23
 14520 0d01 50       		.uleb128 0x50
 14521 0d02 00000000 		.4byte	0
 14522 0d06 00000000 		.4byte	0
 14523              	.LLST98:
ARM GAS  /tmp/ccigORce.s 			page 256


 14524 0d0a AA000000 		.4byte	.LVL175
 14525 0d0e B0000000 		.4byte	.LVL177
 14526 0d12 0200     		.2byte	0x2
 14527 0d14 3C       		.byte	0x3c
 14528 0d15 9F       		.byte	0x9f
 14529 0d16 00000000 		.4byte	0
 14530 0d1a 00000000 		.4byte	0
 14531              	.LLST99:
 14532 0d1e EC000000 		.4byte	.LVL181
 14533 0d22 FE000000 		.4byte	.LVL183
 14534 0d26 0100     		.2byte	0x1
 14535 0d28 50       		.byte	0x50
 14536 0d29 FE000000 		.4byte	.LVL183
 14537 0d2d 24010000 		.4byte	.LVL185
 14538 0d31 0400     		.2byte	0x4
 14539 0d33 F3       		.byte	0xf3
 14540 0d34 01       		.uleb128 0x1
 14541 0d35 50       		.byte	0x50
 14542 0d36 9F       		.byte	0x9f
 14543 0d37 00000000 		.4byte	0
 14544 0d3b 00000000 		.4byte	0
 14545              	.LLST100:
 14546 0d3f EC000000 		.4byte	.LVL181
 14547 0d43 02010000 		.4byte	.LVL184
 14548 0d47 0600     		.2byte	0x6
 14549 0d49 75       		.byte	0x75
 14550 0d4a 00       		.sleb128 0
 14551 0d4b 08       		.byte	0x8
 14552 0d4c FF       		.byte	0xff
 14553 0d4d 1A       		.byte	0x1a
 14554 0d4e 9F       		.byte	0x9f
 14555 0d4f 00000000 		.4byte	0
 14556 0d53 00000000 		.4byte	0
 14557              	.LLST101:
 14558 0d57 EC000000 		.4byte	.LVL181
 14559 0d5b FE000000 		.4byte	.LVL183
 14560 0d5f 0300     		.2byte	0x3
 14561 0d61 70       		.byte	0x70
 14562 0d62 D000     		.sleb128 80
 14563 0d64 FE000000 		.4byte	.LVL183
 14564 0d68 01010000 		.4byte	.LVL184-1
 14565 0d6c 0500     		.2byte	0x5
 14566 0d6e F3       		.byte	0xf3
 14567 0d6f 01       		.uleb128 0x1
 14568 0d70 50       		.byte	0x50
 14569 0d71 23       		.byte	0x23
 14570 0d72 50       		.uleb128 0x50
 14571 0d73 00000000 		.4byte	0
 14572 0d77 00000000 		.4byte	0
 14573              	.LLST102:
 14574 0d7b F8000000 		.4byte	.LVL182
 14575 0d7f 02010000 		.4byte	.LVL184
 14576 0d83 0200     		.2byte	0x2
 14577 0d85 3C       		.byte	0x3c
 14578 0d86 9F       		.byte	0x9f
 14579 0d87 00000000 		.4byte	0
 14580 0d8b 00000000 		.4byte	0
ARM GAS  /tmp/ccigORce.s 			page 257


 14581              	.LLST72:
 14582 0d8f 00000000 		.4byte	.LVL146
 14583 0d93 14000000 		.4byte	.LVL150
 14584 0d97 0100     		.2byte	0x1
 14585 0d99 50       		.byte	0x50
 14586 0d9a 14000000 		.4byte	.LVL150
 14587 0d9e BA000000 		.4byte	.LVL162
 14588 0da2 0100     		.2byte	0x1
 14589 0da4 57       		.byte	0x57
 14590 0da5 BA000000 		.4byte	.LVL162
 14591 0da9 C4000000 		.4byte	.LFE279
 14592 0dad 0400     		.2byte	0x4
 14593 0daf F3       		.byte	0xf3
 14594 0db0 01       		.uleb128 0x1
 14595 0db1 50       		.byte	0x50
 14596 0db2 9F       		.byte	0x9f
 14597 0db3 00000000 		.4byte	0
 14598 0db7 00000000 		.4byte	0
 14599              	.LLST73:
 14600 0dbb 18000000 		.4byte	.LVL151
 14601 0dbf 28000000 		.4byte	.LVL152
 14602 0dc3 0200     		.2byte	0x2
 14603 0dc5 30       		.byte	0x30
 14604 0dc6 9F       		.byte	0x9f
 14605 0dc7 28000000 		.4byte	.LVL152
 14606 0dcb 46000000 		.4byte	.LVL154
 14607 0dcf 0100     		.2byte	0x1
 14608 0dd1 53       		.byte	0x53
 14609 0dd2 00000000 		.4byte	0
 14610 0dd6 00000000 		.4byte	0
 14611              	.LLST74:
 14612 0dda 04000000 		.4byte	.LVL147
 14613 0dde BA000000 		.4byte	.LVL162
 14614 0de2 0100     		.2byte	0x1
 14615 0de4 55       		.byte	0x55
 14616 0de5 00000000 		.4byte	0
 14617 0de9 00000000 		.4byte	0
 14618              	.LLST75:
 14619 0ded 08000000 		.4byte	.LVL148
 14620 0df1 14000000 		.4byte	.LVL150
 14621 0df5 0100     		.2byte	0x1
 14622 0df7 50       		.byte	0x50
 14623 0df8 14000000 		.4byte	.LVL150
 14624 0dfc BA000000 		.4byte	.LVL162
 14625 0e00 0100     		.2byte	0x1
 14626 0e02 57       		.byte	0x57
 14627 0e03 BA000000 		.4byte	.LVL162
 14628 0e07 C4000000 		.4byte	.LFE279
 14629 0e0b 0400     		.2byte	0x4
 14630 0e0d F3       		.byte	0xf3
 14631 0e0e 01       		.uleb128 0x1
 14632 0e0f 50       		.byte	0x50
 14633 0e10 9F       		.byte	0x9f
 14634 0e11 00000000 		.4byte	0
 14635 0e15 00000000 		.4byte	0
 14636              	.LLST76:
 14637 0e19 08000000 		.4byte	.LVL148
ARM GAS  /tmp/ccigORce.s 			page 258


 14638 0e1d 18000000 		.4byte	.LVL151
 14639 0e21 0200     		.2byte	0x2
 14640 0e23 30       		.byte	0x30
 14641 0e24 9F       		.byte	0x9f
 14642 0e25 00000000 		.4byte	0
 14643 0e29 00000000 		.4byte	0
 14644              	.LLST77:
 14645 0e2d 08000000 		.4byte	.LVL148
 14646 0e31 18000000 		.4byte	.LVL151
 14647 0e35 0100     		.2byte	0x1
 14648 0e37 55       		.byte	0x55
 14649 0e38 00000000 		.4byte	0
 14650 0e3c 00000000 		.4byte	0
 14651              	.LLST78:
 14652 0e40 12000000 		.4byte	.LVL149
 14653 0e44 18000000 		.4byte	.LVL151
 14654 0e48 0200     		.2byte	0x2
 14655 0e4a 3C       		.byte	0x3c
 14656 0e4b 9F       		.byte	0x9f
 14657 0e4c 00000000 		.4byte	0
 14658 0e50 00000000 		.4byte	0
 14659              	.LLST79:
 14660 0e54 58000000 		.4byte	.LVL155
 14661 0e58 BA000000 		.4byte	.LVL162
 14662 0e5c 0100     		.2byte	0x1
 14663 0e5e 57       		.byte	0x57
 14664 0e5f BA000000 		.4byte	.LVL162
 14665 0e63 C4000000 		.4byte	.LFE279
 14666 0e67 0400     		.2byte	0x4
 14667 0e69 F3       		.byte	0xf3
 14668 0e6a 01       		.uleb128 0x1
 14669 0e6b 50       		.byte	0x50
 14670 0e6c 9F       		.byte	0x9f
 14671 0e6d 00000000 		.4byte	0
 14672 0e71 00000000 		.4byte	0
 14673              	.LLST80:
 14674 0e75 58000000 		.4byte	.LVL155
 14675 0e79 BA000000 		.4byte	.LVL162
 14676 0e7d 0100     		.2byte	0x1
 14677 0e7f 57       		.byte	0x57
 14678 0e80 BA000000 		.4byte	.LVL162
 14679 0e84 C4000000 		.4byte	.LFE279
 14680 0e88 0400     		.2byte	0x4
 14681 0e8a F3       		.byte	0xf3
 14682 0e8b 01       		.uleb128 0x1
 14683 0e8c 50       		.byte	0x50
 14684 0e8d 9F       		.byte	0x9f
 14685 0e8e 00000000 		.4byte	0
 14686 0e92 00000000 		.4byte	0
 14687              	.LLST81:
 14688 0e96 58000000 		.4byte	.LVL155
 14689 0e9a BA000000 		.4byte	.LVL162
 14690 0e9e 0100     		.2byte	0x1
 14691 0ea0 57       		.byte	0x57
 14692 0ea1 BA000000 		.4byte	.LVL162
 14693 0ea5 C4000000 		.4byte	.LFE279
 14694 0ea9 0400     		.2byte	0x4
ARM GAS  /tmp/ccigORce.s 			page 259


 14695 0eab F3       		.byte	0xf3
 14696 0eac 01       		.uleb128 0x1
 14697 0ead 50       		.byte	0x50
 14698 0eae 9F       		.byte	0x9f
 14699 0eaf 00000000 		.4byte	0
 14700 0eb3 00000000 		.4byte	0
 14701              	.LLST82:
 14702 0eb7 58000000 		.4byte	.LVL155
 14703 0ebb 71000000 		.4byte	.LVL157-1
 14704 0ebf 0100     		.2byte	0x1
 14705 0ec1 52       		.byte	0x52
 14706 0ec2 00000000 		.4byte	0
 14707 0ec6 00000000 		.4byte	0
 14708              	.LLST83:
 14709 0eca 6C000000 		.4byte	.LVL156
 14710 0ece 72000000 		.4byte	.LVL157
 14711 0ed2 0200     		.2byte	0x2
 14712 0ed4 3C       		.byte	0x3c
 14713 0ed5 9F       		.byte	0x9f
 14714 0ed6 00000000 		.4byte	0
 14715 0eda 00000000 		.4byte	0
 14716              	.LLST84:
 14717 0ede AA000000 		.4byte	.LVL158
 14718 0ee2 BA000000 		.4byte	.LVL162
 14719 0ee6 0100     		.2byte	0x1
 14720 0ee8 57       		.byte	0x57
 14721 0ee9 BA000000 		.4byte	.LVL162
 14722 0eed C4000000 		.4byte	.LFE279
 14723 0ef1 0400     		.2byte	0x4
 14724 0ef3 F3       		.byte	0xf3
 14725 0ef4 01       		.uleb128 0x1
 14726 0ef5 50       		.byte	0x50
 14727 0ef6 9F       		.byte	0x9f
 14728 0ef7 00000000 		.4byte	0
 14729 0efb 00000000 		.4byte	0
 14730              	.LLST85:
 14731 0eff AA000000 		.4byte	.LVL158
 14732 0f03 B6000000 		.4byte	.LVL161
 14733 0f07 0200     		.2byte	0x2
 14734 0f09 40       		.byte	0x40
 14735 0f0a 9F       		.byte	0x9f
 14736 0f0b 00000000 		.4byte	0
 14737 0f0f 00000000 		.4byte	0
 14738              	.LLST86:
 14739 0f13 AC000000 		.4byte	.LVL159
 14740 0f17 B4000000 		.4byte	.LVL160
 14741 0f1b 0100     		.2byte	0x1
 14742 0f1d 53       		.byte	0x53
 14743 0f1e B4000000 		.4byte	.LVL160
 14744 0f22 B6000000 		.4byte	.LVL161
 14745 0f26 0300     		.2byte	0x3
 14746 0f28 77       		.byte	0x77
 14747 0f29 D800     		.sleb128 88
 14748 0f2b 00000000 		.4byte	0
 14749 0f2f 00000000 		.4byte	0
 14750              	.LLST70:
 14751 0f33 00000000 		.4byte	.LVL142
ARM GAS  /tmp/ccigORce.s 			page 260


 14752 0f37 10000000 		.4byte	.LVL143
 14753 0f3b 0100     		.2byte	0x1
 14754 0f3d 50       		.byte	0x50
 14755 0f3e 10000000 		.4byte	.LVL143
 14756 0f42 20000000 		.4byte	.LVL145
 14757 0f46 0100     		.2byte	0x1
 14758 0f48 54       		.byte	0x54
 14759 0f49 20000000 		.4byte	.LVL145
 14760 0f4d 22000000 		.4byte	.LFE278
 14761 0f51 0400     		.2byte	0x4
 14762 0f53 F3       		.byte	0xf3
 14763 0f54 01       		.uleb128 0x1
 14764 0f55 50       		.byte	0x50
 14765 0f56 9F       		.byte	0x9f
 14766 0f57 00000000 		.4byte	0
 14767 0f5b 00000000 		.4byte	0
 14768              	.LLST71:
 14769 0f5f 00000000 		.4byte	.LVL142
 14770 0f63 10000000 		.4byte	.LVL143
 14771 0f67 0300     		.2byte	0x3
 14772 0f69 70       		.byte	0x70
 14773 0f6a D000     		.sleb128 80
 14774 0f6c 10000000 		.4byte	.LVL143
 14775 0f70 13000000 		.4byte	.LVL144-1
 14776 0f74 0300     		.2byte	0x3
 14777 0f76 74       		.byte	0x74
 14778 0f77 D000     		.sleb128 80
 14779 0f79 00000000 		.4byte	0
 14780 0f7d 00000000 		.4byte	0
 14781              	.LLST63:
 14782 0f81 00000000 		.4byte	.LVL126
 14783 0f85 1A000000 		.4byte	.LVL127
 14784 0f89 0100     		.2byte	0x1
 14785 0f8b 50       		.byte	0x50
 14786 0f8c 1A000000 		.4byte	.LVL127
 14787 0f90 90000000 		.4byte	.LVL134
 14788 0f94 0100     		.2byte	0x1
 14789 0f96 55       		.byte	0x55
 14790 0f97 90000000 		.4byte	.LVL134
 14791 0f9b 9E000000 		.4byte	.LVL135
 14792 0f9f 0100     		.2byte	0x1
 14793 0fa1 50       		.byte	0x50
 14794 0fa2 9E000000 		.4byte	.LVL135
 14795 0fa6 E4000000 		.4byte	.LFE277
 14796 0faa 0100     		.2byte	0x1
 14797 0fac 55       		.byte	0x55
 14798 0fad 00000000 		.4byte	0
 14799 0fb1 00000000 		.4byte	0
 14800              	.LLST64:
 14801 0fb5 00000000 		.4byte	.LVL126
 14802 0fb9 1A000000 		.4byte	.LVL127
 14803 0fbd 0300     		.2byte	0x3
 14804 0fbf 70       		.byte	0x70
 14805 0fc0 D000     		.sleb128 80
 14806 0fc2 90000000 		.4byte	.LVL134
 14807 0fc6 9E000000 		.4byte	.LVL135
 14808 0fca 0300     		.2byte	0x3
ARM GAS  /tmp/ccigORce.s 			page 261


 14809 0fcc 70       		.byte	0x70
 14810 0fcd D000     		.sleb128 80
 14811 0fcf 9E000000 		.4byte	.LVL135
 14812 0fd3 AD000000 		.4byte	.LVL136-1
 14813 0fd7 0300     		.2byte	0x3
 14814 0fd9 75       		.byte	0x75
 14815 0fda D000     		.sleb128 80
 14816 0fdc 00000000 		.4byte	0
 14817 0fe0 00000000 		.4byte	0
 14818              	.LLST65:
 14819 0fe4 34000000 		.4byte	.LVL128
 14820 0fe8 90000000 		.4byte	.LVL134
 14821 0fec 0100     		.2byte	0x1
 14822 0fee 55       		.byte	0x55
 14823 0fef B2000000 		.4byte	.LVL137
 14824 0ff3 E4000000 		.4byte	.LFE277
 14825 0ff7 0100     		.2byte	0x1
 14826 0ff9 55       		.byte	0x55
 14827 0ffa 00000000 		.4byte	0
 14828 0ffe 00000000 		.4byte	0
 14829              	.LLST66:
 14830 1002 34000000 		.4byte	.LVL128
 14831 1006 37000000 		.4byte	.LVL129-1
 14832 100a 0300     		.2byte	0x3
 14833 100c 75       		.byte	0x75
 14834 100d D000     		.sleb128 80
 14835 100f 00000000 		.4byte	0
 14836 1013 00000000 		.4byte	0
 14837              	.LLST67:
 14838 1017 34000000 		.4byte	.LVL128
 14839 101b 38000000 		.4byte	.LVL129
 14840 101f 0300     		.2byte	0x3
 14841 1021 08       		.byte	0x8
 14842 1022 20       		.byte	0x20
 14843 1023 9F       		.byte	0x9f
 14844 1024 00000000 		.4byte	0
 14845 1028 00000000 		.4byte	0
 14846              	.LLST68:
 14847 102c 42000000 		.4byte	.LVL130
 14848 1030 90000000 		.4byte	.LVL134
 14849 1034 0200     		.2byte	0x2
 14850 1036 3C       		.byte	0x3c
 14851 1037 9F       		.byte	0x9f
 14852 1038 B2000000 		.4byte	.LVL137
 14853 103c E4000000 		.4byte	.LFE277
 14854 1040 0200     		.2byte	0x2
 14855 1042 3C       		.byte	0x3c
 14856 1043 9F       		.byte	0x9f
 14857 1044 00000000 		.4byte	0
 14858 1048 00000000 		.4byte	0
 14859              	.LLST69:
 14860 104c C6000000 		.4byte	.LVL139
 14861 1050 C9000000 		.4byte	.LVL140-1
 14862 1054 0100     		.2byte	0x1
 14863 1056 50       		.byte	0x50
 14864 1057 00000000 		.4byte	0
 14865 105b 00000000 		.4byte	0
ARM GAS  /tmp/ccigORce.s 			page 262


 14866              	.LLST137:
 14867 105f 00000000 		.4byte	.LVL255
 14868 1063 58000000 		.4byte	.LVL263
 14869 1067 0600     		.2byte	0x6
 14870 1069 03       		.byte	0x3
 14871 106a 00000000 		.4byte	USBD1
 14872 106e 9F       		.byte	0x9f
 14873 106f 60000000 		.4byte	.LVL264
 14874 1073 66000000 		.4byte	.LVL265
 14875 1077 0600     		.2byte	0x6
 14876 1079 03       		.byte	0x3
 14877 107a 00000000 		.4byte	USBD1
 14878 107e 9F       		.byte	0x9f
 14879 107f 6E000000 		.4byte	.LVL266
 14880 1083 F4000000 		.4byte	.LFE275
 14881 1087 0600     		.2byte	0x6
 14882 1089 03       		.byte	0x3
 14883 108a 00000000 		.4byte	USBD1
 14884 108e 9F       		.byte	0x9f
 14885 108f 00000000 		.4byte	0
 14886 1093 00000000 		.4byte	0
 14887              	.LLST138:
 14888 1097 06000000 		.4byte	.LVL256
 14889 109b 42000000 		.4byte	.LVL261
 14890 109f 0100     		.2byte	0x1
 14891 10a1 56       		.byte	0x56
 14892 10a2 6E000000 		.4byte	.LVL266
 14893 10a6 A2000000 		.4byte	.LVL274
 14894 10aa 0100     		.2byte	0x1
 14895 10ac 56       		.byte	0x56
 14896 10ad C4000000 		.4byte	.LVL278
 14897 10b1 E0000000 		.4byte	.LVL282
 14898 10b5 0100     		.2byte	0x1
 14899 10b7 56       		.byte	0x56
 14900 10b8 00000000 		.4byte	0
 14901 10bc 00000000 		.4byte	0
 14902              	.LLST139:
 14903 10c0 08000000 		.4byte	.LVL257
 14904 10c4 46000000 		.4byte	.LVL262
 14905 10c8 0100     		.2byte	0x1
 14906 10ca 54       		.byte	0x54
 14907 10cb 6E000000 		.4byte	.LVL266
 14908 10cf A2000000 		.4byte	.LVL274
 14909 10d3 0100     		.2byte	0x1
 14910 10d5 54       		.byte	0x54
 14911 10d6 C4000000 		.4byte	.LVL278
 14912 10da F4000000 		.4byte	.LFE275
 14913 10de 0100     		.2byte	0x1
 14914 10e0 54       		.byte	0x54
 14915 10e1 00000000 		.4byte	0
 14916 10e5 00000000 		.4byte	0
 14917              	.LLST140:
 14918 10e9 32000000 		.4byte	.LVL260
 14919 10ed 58000000 		.4byte	.LVL263
 14920 10f1 0100     		.2byte	0x1
 14921 10f3 55       		.byte	0x55
 14922 10f4 60000000 		.4byte	.LVL264
ARM GAS  /tmp/ccigORce.s 			page 263


 14923 10f8 66000000 		.4byte	.LVL265
 14924 10fc 0100     		.2byte	0x1
 14925 10fe 55       		.byte	0x55
 14926 10ff A2000000 		.4byte	.LVL274
 14927 1103 F4000000 		.4byte	.LFE275
 14928 1107 0100     		.2byte	0x1
 14929 1109 55       		.byte	0x55
 14930 110a 00000000 		.4byte	0
 14931 110e 00000000 		.4byte	0
 14932              	.LLST141:
 14933 1112 84000000 		.4byte	.LVL269
 14934 1116 8A000000 		.4byte	.LVL270
 14935 111a 0300     		.2byte	0x3
 14936 111c 08       		.byte	0x8
 14937 111d 20       		.byte	0x20
 14938 111e 9F       		.byte	0x9f
 14939 111f 00000000 		.4byte	0
 14940 1123 00000000 		.4byte	0
 14941              	.LLST142:
 14942 1127 94000000 		.4byte	.LVL271
 14943 112b 9A000000 		.4byte	.LVL272
 14944 112f 0200     		.2byte	0x2
 14945 1131 30       		.byte	0x30
 14946 1132 9F       		.byte	0x9f
 14947 1133 00000000 		.4byte	0
 14948 1137 00000000 		.4byte	0
 14949              	.LLST143:
 14950 113b 94000000 		.4byte	.LVL271
 14951 113f 9A000000 		.4byte	.LVL272
 14952 1143 0600     		.2byte	0x6
 14953 1145 03       		.byte	0x3
 14954 1146 60000000 		.4byte	USBD1+96
 14955 114a 9F       		.byte	0x9f
 14956 114b 00000000 		.4byte	0
 14957 114f 00000000 		.4byte	0
 14958              	.LLST144:
 14959 1153 9A000000 		.4byte	.LVL272
 14960 1157 A0000000 		.4byte	.LVL273
 14961 115b 0200     		.2byte	0x2
 14962 115d 30       		.byte	0x30
 14963 115e 9F       		.byte	0x9f
 14964 115f 00000000 		.4byte	0
 14965 1163 00000000 		.4byte	0
 14966              	.LLST62:
 14967 1167 04000000 		.4byte	.LVL121
 14968 116b 14000000 		.4byte	.LVL122
 14969 116f 0200     		.2byte	0x2
 14970 1171 30       		.byte	0x30
 14971 1172 9F       		.byte	0x9f
 14972 1173 14000000 		.4byte	.LVL122
 14973 1177 72000000 		.4byte	.LFE295
 14974 117b 0100     		.2byte	0x1
 14975 117d 54       		.byte	0x54
 14976 117e 00000000 		.4byte	0
 14977 1182 00000000 		.4byte	0
 14978              	.LLST115:
 14979 1186 00000000 		.4byte	.LVL206
ARM GAS  /tmp/ccigORce.s 			page 264


 14980 118a 18000000 		.4byte	.LVL209
 14981 118e 0100     		.2byte	0x1
 14982 1190 50       		.byte	0x50
 14983 1191 18000000 		.4byte	.LVL209
 14984 1195 A0000000 		.4byte	.LFE302
 14985 1199 0400     		.2byte	0x4
 14986 119b F3       		.byte	0xf3
 14987 119c 01       		.uleb128 0x1
 14988 119d 50       		.byte	0x50
 14989 119e 9F       		.byte	0x9f
 14990 119f 00000000 		.4byte	0
 14991 11a3 00000000 		.4byte	0
 14992              	.LLST116:
 14993 11a7 08000000 		.4byte	.LVL207
 14994 11ab 56000000 		.4byte	.LVL214
 14995 11af 0100     		.2byte	0x1
 14996 11b1 57       		.byte	0x57
 14997 11b2 58000000 		.4byte	.LVL215
 14998 11b6 9C000000 		.4byte	.LVL225
 14999 11ba 0100     		.2byte	0x1
 15000 11bc 57       		.byte	0x57
 15001 11bd 00000000 		.4byte	0
 15002 11c1 00000000 		.4byte	0
 15003              	.LLST117:
 15004 11c5 12000000 		.4byte	.LVL208
 15005 11c9 42000000 		.4byte	.LVL212
 15006 11cd 0100     		.2byte	0x1
 15007 11cf 54       		.byte	0x54
 15008 11d0 58000000 		.4byte	.LVL215
 15009 11d4 70000000 		.4byte	.LVL219
 15010 11d8 0100     		.2byte	0x1
 15011 11da 54       		.byte	0x54
 15012 11db 00000000 		.4byte	0
 15013 11df 00000000 		.4byte	0
 15014              	.LLST118:
 15015 11e3 36000000 		.4byte	.LVL210
 15016 11e7 40000000 		.4byte	.LVL211
 15017 11eb 0100     		.2byte	0x1
 15018 11ed 53       		.byte	0x53
 15019 11ee 40000000 		.4byte	.LVL211
 15020 11f2 50000000 		.4byte	.LVL213
 15021 11f6 0200     		.2byte	0x2
 15022 11f8 71       		.byte	0x71
 15023 11f9 18       		.sleb128 24
 15024 11fa 50000000 		.4byte	.LVL213
 15025 11fe 57000000 		.4byte	.LVL215-1
 15026 1202 0C00     		.2byte	0xc
 15027 1204 71       		.byte	0x71
 15028 1205 00       		.sleb128 0
 15029 1206 32       		.byte	0x32
 15030 1207 24       		.byte	0x24
 15031 1208 70       		.byte	0x70
 15032 1209 00       		.sleb128 0
 15033 120a 22       		.byte	0x22
 15034 120b 23       		.byte	0x23
 15035 120c 0C       		.uleb128 0xc
 15036 120d 06       		.byte	0x6
ARM GAS  /tmp/ccigORce.s 			page 265


 15037 120e 23       		.byte	0x23
 15038 120f 18       		.uleb128 0x18
 15039 1210 6C000000 		.4byte	.LVL218
 15040 1214 7B000000 		.4byte	.LVL220-1
 15041 1218 0100     		.2byte	0x1
 15042 121a 53       		.byte	0x53
 15043 121b 00000000 		.4byte	0
 15044 121f 00000000 		.4byte	0
 15045              	.LLST119:
 15046 1223 7C000000 		.4byte	.LVL220
 15047 1227 82000000 		.4byte	.LVL221
 15048 122b 0300     		.2byte	0x3
 15049 122d 08       		.byte	0x8
 15050 122e 20       		.byte	0x20
 15051 122f 9F       		.byte	0x9f
 15052 1230 00000000 		.4byte	0
 15053 1234 00000000 		.4byte	0
 15054              	.LLST120:
 15055 1238 82000000 		.4byte	.LVL221
 15056 123c 88000000 		.4byte	.LVL222
 15057 1240 0100     		.2byte	0x1
 15058 1242 55       		.byte	0x55
 15059 1243 00000000 		.4byte	0
 15060 1247 00000000 		.4byte	0
 15061              	.LLST121:
 15062 124b 82000000 		.4byte	.LVL221
 15063 124f 94000000 		.4byte	.LVL223
 15064 1253 0600     		.2byte	0x6
 15065 1255 03       		.byte	0x3
 15066 1256 00000000 		.4byte	USBD1
 15067 125a 9F       		.byte	0x9f
 15068 125b 00000000 		.4byte	0
 15069 125f 00000000 		.4byte	0
 15070              	.LLST122:
 15071 1263 94000000 		.4byte	.LVL223
 15072 1267 98000000 		.4byte	.LVL224
 15073 126b 0200     		.2byte	0x2
 15074 126d 30       		.byte	0x30
 15075 126e 9F       		.byte	0x9f
 15076 126f 00000000 		.4byte	0
 15077 1273 00000000 		.4byte	0
 15078              	.LLST127:
 15079 1277 00000000 		.4byte	.LVL235
 15080 127b 22000000 		.4byte	.LVL238
 15081 127f 0100     		.2byte	0x1
 15082 1281 50       		.byte	0x50
 15083 1282 22000000 		.4byte	.LVL238
 15084 1286 38000000 		.4byte	.LVL239
 15085 128a 0400     		.2byte	0x4
 15086 128c F3       		.byte	0xf3
 15087 128d 01       		.uleb128 0x1
 15088 128e 50       		.byte	0x50
 15089 128f 9F       		.byte	0x9f
 15090 1290 38000000 		.4byte	.LVL239
 15091 1294 42000000 		.4byte	.LVL241
 15092 1298 0100     		.2byte	0x1
 15093 129a 50       		.byte	0x50
ARM GAS  /tmp/ccigORce.s 			page 266


 15094 129b 42000000 		.4byte	.LVL241
 15095 129f D4000000 		.4byte	.LFE301
 15096 12a3 0400     		.2byte	0x4
 15097 12a5 F3       		.byte	0xf3
 15098 12a6 01       		.uleb128 0x1
 15099 12a7 50       		.byte	0x50
 15100 12a8 9F       		.byte	0x9f
 15101 12a9 00000000 		.4byte	0
 15102 12ad 00000000 		.4byte	0
 15103              	.LLST128:
 15104 12b1 40000000 		.4byte	.LVL240
 15105 12b5 5B000000 		.4byte	.LVL242-1
 15106 12b9 0100     		.2byte	0x1
 15107 12bb 53       		.byte	0x53
 15108 12bc B2000000 		.4byte	.LVL251
 15109 12c0 B4000000 		.4byte	.LVL252
 15110 12c4 0100     		.2byte	0x1
 15111 12c6 53       		.byte	0x53
 15112 12c7 B4000000 		.4byte	.LVL252
 15113 12cb C4000000 		.4byte	.LVL253
 15114 12cf 0200     		.2byte	0x2
 15115 12d1 71       		.byte	0x71
 15116 12d2 14       		.sleb128 20
 15117 12d3 C4000000 		.4byte	.LVL253
 15118 12d7 C7000000 		.4byte	.LVL254-1
 15119 12db 0C00     		.2byte	0xc
 15120 12dd 76       		.byte	0x76
 15121 12de 00       		.sleb128 0
 15122 12df 32       		.byte	0x32
 15123 12e0 24       		.byte	0x24
 15124 12e1 77       		.byte	0x77
 15125 12e2 00       		.sleb128 0
 15126 12e3 22       		.byte	0x22
 15127 12e4 23       		.byte	0x23
 15128 12e5 0C       		.uleb128 0xc
 15129 12e6 06       		.byte	0x6
 15130 12e7 23       		.byte	0x23
 15131 12e8 14       		.uleb128 0x14
 15132 12e9 00000000 		.4byte	0
 15133 12ed 00000000 		.4byte	0
 15134              	.LLST129:
 15135 12f1 5C000000 		.4byte	.LVL242
 15136 12f5 62000000 		.4byte	.LVL243
 15137 12f9 0300     		.2byte	0x3
 15138 12fb 08       		.byte	0x8
 15139 12fc 20       		.byte	0x20
 15140 12fd 9F       		.byte	0x9f
 15141 12fe 00000000 		.4byte	0
 15142 1302 00000000 		.4byte	0
 15143              	.LLST130:
 15144 1306 62000000 		.4byte	.LVL243
 15145 130a 82000000 		.4byte	.LVL244
 15146 130e 0100     		.2byte	0x1
 15147 1310 56       		.byte	0x56
 15148 1311 00000000 		.4byte	0
 15149 1315 00000000 		.4byte	0
 15150              	.LLST131:
ARM GAS  /tmp/ccigORce.s 			page 267


 15151 1319 62000000 		.4byte	.LVL243
 15152 131d 82000000 		.4byte	.LVL244
 15153 1321 0600     		.2byte	0x6
 15154 1323 03       		.byte	0x3
 15155 1324 00000000 		.4byte	USBD1
 15156 1328 9F       		.byte	0x9f
 15157 1329 00000000 		.4byte	0
 15158 132d 00000000 		.4byte	0
 15159              	.LLST132:
 15160 1331 82000000 		.4byte	.LVL244
 15161 1335 86000000 		.4byte	.LVL245
 15162 1339 0200     		.2byte	0x2
 15163 133b 30       		.byte	0x30
 15164 133c 9F       		.byte	0x9f
 15165 133d 00000000 		.4byte	0
 15166 1341 00000000 		.4byte	0
 15167              	.LLST133:
 15168 1345 88000000 		.4byte	.LVL246
 15169 1349 8E000000 		.4byte	.LVL247
 15170 134d 0300     		.2byte	0x3
 15171 134f 08       		.byte	0x8
 15172 1350 20       		.byte	0x20
 15173 1351 9F       		.byte	0x9f
 15174 1352 00000000 		.4byte	0
 15175 1356 00000000 		.4byte	0
 15176              	.LLST134:
 15177 135a 9E000000 		.4byte	.LVL248
 15178 135e A8000000 		.4byte	.LVL249
 15179 1362 0200     		.2byte	0x2
 15180 1364 30       		.byte	0x30
 15181 1365 9F       		.byte	0x9f
 15182 1366 00000000 		.4byte	0
 15183 136a 00000000 		.4byte	0
 15184              	.LLST135:
 15185 136e 9E000000 		.4byte	.LVL248
 15186 1372 A8000000 		.4byte	.LVL249
 15187 1376 0600     		.2byte	0x6
 15188 1378 03       		.byte	0x3
 15189 1379 60000000 		.4byte	USBD1+96
 15190 137d 9F       		.byte	0x9f
 15191 137e 00000000 		.4byte	0
 15192 1382 00000000 		.4byte	0
 15193              	.LLST136:
 15194 1386 A8000000 		.4byte	.LVL249
 15195 138a AE000000 		.4byte	.LVL250
 15196 138e 0200     		.2byte	0x2
 15197 1390 30       		.byte	0x30
 15198 1391 9F       		.byte	0x9f
 15199 1392 00000000 		.4byte	0
 15200 1396 00000000 		.4byte	0
 15201              	.LLST145:
 15202 139a 00000000 		.4byte	.LVL284
 15203 139e 06000000 		.4byte	.LVL285
 15204 13a2 0100     		.2byte	0x1
 15205 13a4 51       		.byte	0x51
 15206 13a5 06000000 		.4byte	.LVL285
 15207 13a9 14000000 		.4byte	.LFE288
ARM GAS  /tmp/ccigORce.s 			page 268


 15208 13ad 0400     		.2byte	0x4
 15209 13af F3       		.byte	0xf3
 15210 13b0 01       		.uleb128 0x1
 15211 13b1 51       		.byte	0x51
 15212 13b2 9F       		.byte	0x9f
 15213 13b3 00000000 		.4byte	0
 15214 13b7 00000000 		.4byte	0
 15215              	.LLST146:
 15216 13bb 00000000 		.4byte	.LVL286
 15217 13bf 0E000000 		.4byte	.LVL287
 15218 13c3 0100     		.2byte	0x1
 15219 13c5 50       		.byte	0x50
 15220 13c6 0E000000 		.4byte	.LVL287
 15221 13ca 28000000 		.4byte	.LFE289
 15222 13ce 0400     		.2byte	0x4
 15223 13d0 F3       		.byte	0xf3
 15224 13d1 01       		.uleb128 0x1
 15225 13d2 50       		.byte	0x50
 15226 13d3 9F       		.byte	0x9f
 15227 13d4 00000000 		.4byte	0
 15228 13d8 00000000 		.4byte	0
 15229              	.LLST147:
 15230 13dc 00000000 		.4byte	.LVL286
 15231 13e0 20000000 		.4byte	.LVL288
 15232 13e4 0100     		.2byte	0x1
 15233 13e6 51       		.byte	0x51
 15234 13e7 20000000 		.4byte	.LVL288
 15235 13eb 28000000 		.4byte	.LFE289
 15236 13ef 0400     		.2byte	0x4
 15237 13f1 F3       		.byte	0xf3
 15238 13f2 01       		.uleb128 0x1
 15239 13f3 51       		.byte	0x51
 15240 13f4 9F       		.byte	0x9f
 15241 13f5 00000000 		.4byte	0
 15242 13f9 00000000 		.4byte	0
 15243              		.section	.debug_aranges,"",%progbits
 15244 0000 CC000000 		.4byte	0xcc
 15245 0004 0200     		.2byte	0x2
 15246 0006 00000000 		.4byte	.Ldebug_info0
 15247 000a 04       		.byte	0x4
 15248 000b 00       		.byte	0
 15249 000c 0000     		.2byte	0
 15250 000e 0000     		.2byte	0
 15251 0010 00000000 		.4byte	.LFB294
 15252 0014 8E030000 		.4byte	.LFE294-.LFB294
 15253 0018 00000000 		.4byte	.LFB295
 15254 001c 72000000 		.4byte	.LFE295-.LFB295
 15255 0020 00000000 		.4byte	.LFB276
 15256 0024 24000000 		.4byte	.LFE276-.LFB276
 15257 0028 00000000 		.4byte	.LFB277
 15258 002c E4000000 		.4byte	.LFE277-.LFB277
 15259 0030 00000000 		.4byte	.LFB278
 15260 0034 22000000 		.4byte	.LFE278-.LFB278
 15261 0038 00000000 		.4byte	.LFB279
 15262 003c C4000000 		.4byte	.LFE279-.LFB279
 15263 0040 00000000 		.4byte	.LFB280
 15264 0044 18000000 		.4byte	.LFE280-.LFB280
ARM GAS  /tmp/ccigORce.s 			page 269


 15265 0048 00000000 		.4byte	.LFB281
 15266 004c 64010000 		.4byte	.LFE281-.LFB281
 15267 0050 00000000 		.4byte	.LFB282
 15268 0054 0E000000 		.4byte	.LFE282-.LFB282
 15269 0058 00000000 		.4byte	.LFB283
 15270 005c 1A000000 		.4byte	.LFE283-.LFB283
 15271 0060 00000000 		.4byte	.LFB284
 15272 0064 1A000000 		.4byte	.LFE284-.LFB284
 15273 0068 00000000 		.4byte	.LFB285
 15274 006c 12000000 		.4byte	.LFE285-.LFB285
 15275 0070 00000000 		.4byte	.LFB286
 15276 0074 40000000 		.4byte	.LFE286-.LFB286
 15277 0078 00000000 		.4byte	.LFB302
 15278 007c A0000000 		.4byte	.LFE302-.LFB302
 15279 0080 00000000 		.4byte	.LFB287
 15280 0084 4A000000 		.4byte	.LFE287-.LFB287
 15281 0088 00000000 		.4byte	.LFB301
 15282 008c D4000000 		.4byte	.LFE301-.LFB301
 15283 0090 00000000 		.4byte	.LFB275
 15284 0094 F4000000 		.4byte	.LFE275-.LFB275
 15285 0098 00000000 		.4byte	.LFB288
 15286 009c 14000000 		.4byte	.LFE288-.LFB288
 15287 00a0 00000000 		.4byte	.LFB289
 15288 00a4 28000000 		.4byte	.LFE289-.LFB289
 15289 00a8 00000000 		.4byte	.LFB290
 15290 00ac 14000000 		.4byte	.LFE290-.LFB290
 15291 00b0 00000000 		.4byte	.LFB291
 15292 00b4 14000000 		.4byte	.LFE291-.LFB291
 15293 00b8 00000000 		.4byte	.LFB292
 15294 00bc 14000000 		.4byte	.LFE292-.LFB292
 15295 00c0 00000000 		.4byte	.LFB293
 15296 00c4 14000000 		.4byte	.LFE293-.LFB293
 15297 00c8 00000000 		.4byte	0
 15298 00cc 00000000 		.4byte	0
 15299              		.section	.debug_ranges,"",%progbits
 15300              	.Ldebug_ranges0:
 15301 0000 3A000000 		.4byte	.LBB424
 15302 0004 3C000000 		.4byte	.LBE424
 15303 0008 44000000 		.4byte	.LBB427
 15304 000c 48000000 		.4byte	.LBE427
 15305 0010 00000000 		.4byte	0
 15306 0014 00000000 		.4byte	0
 15307 0018 5A000000 		.4byte	.LBB434
 15308 001c BC000000 		.4byte	.LBE434
 15309 0020 F2000000 		.4byte	.LBB477
 15310 0024 C0010000 		.4byte	.LBE477
 15311 0028 00000000 		.4byte	0
 15312 002c 00000000 		.4byte	0
 15313 0030 7E000000 		.4byte	.LBB436
 15314 0034 82000000 		.4byte	.LBE436
 15315 0038 84000000 		.4byte	.LBB445
 15316 003c BC000000 		.4byte	.LBE445
 15317 0040 00000000 		.4byte	0
 15318 0044 00000000 		.4byte	0
 15319 0048 86000000 		.4byte	.LBB438
 15320 004c 8A000000 		.4byte	.LBE438
 15321 0050 8C000000 		.4byte	.LBB439
ARM GAS  /tmp/ccigORce.s 			page 270


 15322 0054 92000000 		.4byte	.LBE439
 15323 0058 98000000 		.4byte	.LBB440
 15324 005c A0000000 		.4byte	.LBE440
 15325 0060 A2000000 		.4byte	.LBB441
 15326 0064 AA000000 		.4byte	.LBE441
 15327 0068 AC000000 		.4byte	.LBB442
 15328 006c B2000000 		.4byte	.LBE442
 15329 0070 B8000000 		.4byte	.LBB443
 15330 0074 BA000000 		.4byte	.LBE443
 15331 0078 00000000 		.4byte	0
 15332 007c 00000000 		.4byte	0
 15333 0080 18010000 		.4byte	.LBB448
 15334 0084 2C010000 		.4byte	.LBE448
 15335 0088 2E010000 		.4byte	.LBB449
 15336 008c 32010000 		.4byte	.LBE449
 15337 0090 34010000 		.4byte	.LBB450
 15338 0094 3A010000 		.4byte	.LBE450
 15339 0098 40010000 		.4byte	.LBB451
 15340 009c 42010000 		.4byte	.LBE451
 15341 00a0 00000000 		.4byte	0
 15342 00a4 00000000 		.4byte	0
 15343 00a8 E8010000 		.4byte	.LBB490
 15344 00ac 80020000 		.4byte	.LBE490
 15345 00b0 B0020000 		.4byte	.LBB554
 15346 00b4 5A030000 		.4byte	.LBE554
 15347 00b8 00000000 		.4byte	0
 15348 00bc 00000000 		.4byte	0
 15349 00c0 22020000 		.4byte	.LBB492
 15350 00c4 28020000 		.4byte	.LBE492
 15351 00c8 B4020000 		.4byte	.LBB533
 15352 00cc 56030000 		.4byte	.LBE533
 15353 00d0 00000000 		.4byte	0
 15354 00d4 00000000 		.4byte	0
 15355 00d8 22020000 		.4byte	.LBB494
 15356 00dc 28020000 		.4byte	.LBE494
 15357 00e0 02030000 		.4byte	.LBB512
 15358 00e4 08030000 		.4byte	.LBE512
 15359 00e8 00000000 		.4byte	0
 15360 00ec 00000000 		.4byte	0
 15361 00f0 BC020000 		.4byte	.LBB497
 15362 00f4 F2020000 		.4byte	.LBE497
 15363 00f8 16030000 		.4byte	.LBB521
 15364 00fc 56030000 		.4byte	.LBE521
 15365 0100 00000000 		.4byte	0
 15366 0104 00000000 		.4byte	0
 15367 0108 C2020000 		.4byte	.LBB498
 15368 010c F2020000 		.4byte	.LBE498
 15369 0110 16030000 		.4byte	.LBB505
 15370 0114 1A030000 		.4byte	.LBE505
 15371 0118 52030000 		.4byte	.LBB506
 15372 011c 56030000 		.4byte	.LBE506
 15373 0120 00000000 		.4byte	0
 15374 0124 00000000 		.4byte	0
 15375 0128 D8020000 		.4byte	.LBB499
 15376 012c E8020000 		.4byte	.LBE499
 15377 0130 16030000 		.4byte	.LBB503
 15378 0134 1A030000 		.4byte	.LBE503
ARM GAS  /tmp/ccigORce.s 			page 271


 15379 0138 52030000 		.4byte	.LBB504
 15380 013c 56030000 		.4byte	.LBE504
 15381 0140 00000000 		.4byte	0
 15382 0144 00000000 		.4byte	0
 15383 0148 2E020000 		.4byte	.LBB523
 15384 014c 30020000 		.4byte	.LBE523
 15385 0150 34020000 		.4byte	.LBB531
 15386 0154 36020000 		.4byte	.LBE531
 15387 0158 38020000 		.4byte	.LBB532
 15388 015c 48020000 		.4byte	.LBE532
 15389 0160 00000000 		.4byte	0
 15390 0164 00000000 		.4byte	0
 15391 0168 34020000 		.4byte	.LBB525
 15392 016c 36020000 		.4byte	.LBE525
 15393 0170 38020000 		.4byte	.LBB528
 15394 0174 48020000 		.4byte	.LBE528
 15395 0178 00000000 		.4byte	0
 15396 017c 00000000 		.4byte	0
 15397 0180 80020000 		.4byte	.LBB535
 15398 0184 86020000 		.4byte	.LBE535
 15399 0188 5A030000 		.4byte	.LBB555
 15400 018c 60030000 		.4byte	.LBE555
 15401 0190 74030000 		.4byte	.LBB556
 15402 0194 7A030000 		.4byte	.LBE556
 15403 0198 00000000 		.4byte	0
 15404 019c 00000000 		.4byte	0
 15405 01a0 2C000000 		.4byte	.LBB565
 15406 01a4 2E000000 		.4byte	.LBE565
 15407 01a8 34000000 		.4byte	.LBB574
 15408 01ac 4E000000 		.4byte	.LBE574
 15409 01b0 00000000 		.4byte	0
 15410 01b4 00000000 		.4byte	0
 15411 01b8 2C000000 		.4byte	.LBB567
 15412 01bc 2E000000 		.4byte	.LBE567
 15413 01c0 34000000 		.4byte	.LBB570
 15414 01c4 38000000 		.4byte	.LBE570
 15415 01c8 00000000 		.4byte	0
 15416 01cc 00000000 		.4byte	0
 15417 01d0 04000000 		.4byte	.LBB577
 15418 01d4 06000000 		.4byte	.LBE577
 15419 01d8 08000000 		.4byte	.LBB582
 15420 01dc 18000000 		.4byte	.LBE582
 15421 01e0 00000000 		.4byte	0
 15422 01e4 00000000 		.4byte	0
 15423 01e8 42000000 		.4byte	.LBB583
 15424 01ec 46000000 		.4byte	.LBE583
 15425 01f0 58000000 		.4byte	.LBB586
 15426 01f4 5A000000 		.4byte	.LBE586
 15427 01f8 00000000 		.4byte	0
 15428 01fc 00000000 		.4byte	0
 15429 0200 AA000000 		.4byte	.LBB591
 15430 0204 B0000000 		.4byte	.LBE591
 15431 0208 B4000000 		.4byte	.LBB594
 15432 020c B6000000 		.4byte	.LBE594
 15433 0210 00000000 		.4byte	0
 15434 0214 00000000 		.4byte	0
 15435 0218 84000000 		.4byte	.LBB595
ARM GAS  /tmp/ccigORce.s 			page 272


 15436 021c 86000000 		.4byte	.LBE595
 15437 0220 8A000000 		.4byte	.LBB599
 15438 0224 8E000000 		.4byte	.LBE599
 15439 0228 9C000000 		.4byte	.LBB605
 15440 022c A0000000 		.4byte	.LBE605
 15441 0230 00000000 		.4byte	0
 15442 0234 00000000 		.4byte	0
 15443 0238 96000000 		.4byte	.LBB600
 15444 023c 9C000000 		.4byte	.LBE600
 15445 0240 A2000000 		.4byte	.LBB606
 15446 0244 B0000000 		.4byte	.LBE606
 15447 0248 00000000 		.4byte	0
 15448 024c 00000000 		.4byte	0
 15449 0250 E6000000 		.4byte	.LBB607
 15450 0254 E8000000 		.4byte	.LBE607
 15451 0258 EC000000 		.4byte	.LBB612
 15452 025c 02010000 		.4byte	.LBE612
 15453 0260 00000000 		.4byte	0
 15454 0264 00000000 		.4byte	0
 15455 0268 04000000 		.4byte	.LBB613
 15456 026c 06000000 		.4byte	.LBE613
 15457 0270 08000000 		.4byte	.LBB616
 15458 0274 0A000000 		.4byte	.LBE616
 15459 0278 00000000 		.4byte	0
 15460 027c 00000000 		.4byte	0
 15461 0280 2E000000 		.4byte	.LBB617
 15462 0284 52000000 		.4byte	.LBE617
 15463 0288 56000000 		.4byte	.LBB630
 15464 028c 5C000000 		.4byte	.LBE630
 15465 0290 6C000000 		.4byte	.LBB631
 15466 0294 A0000000 		.4byte	.LBE631
 15467 0298 00000000 		.4byte	0
 15468 029c 00000000 		.4byte	0
 15469 02a0 10000000 		.4byte	.LBB632
 15470 02a4 2A000000 		.4byte	.LBE632
 15471 02a8 2E000000 		.4byte	.LBB633
 15472 02ac 38000000 		.4byte	.LBE633
 15473 02b0 00000000 		.4byte	0
 15474 02b4 00000000 		.4byte	0
 15475 02b8 38000000 		.4byte	.LBB634
 15476 02bc 88000000 		.4byte	.LBE634
 15477 02c0 B2000000 		.4byte	.LBB667
 15478 02c4 D4000000 		.4byte	.LBE667
 15479 02c8 00000000 		.4byte	0
 15480 02cc 00000000 		.4byte	0
 15481 02d0 94000000 		.4byte	.LBB655
 15482 02d4 96000000 		.4byte	.LBE655
 15483 02d8 A0000000 		.4byte	.LBB659
 15484 02dc A2000000 		.4byte	.LBE659
 15485 02e0 A4000000 		.4byte	.LBB660
 15486 02e4 A8000000 		.4byte	.LBE660
 15487 02e8 00000000 		.4byte	0
 15488 02ec 00000000 		.4byte	0
 15489 02f0 02000000 		.4byte	.LBB684
 15490 02f4 58000000 		.4byte	.LBE684
 15491 02f8 60000000 		.4byte	.LBB704
 15492 02fc 66000000 		.4byte	.LBE704
ARM GAS  /tmp/ccigORce.s 			page 273


 15493 0300 6E000000 		.4byte	.LBB705
 15494 0304 F4000000 		.4byte	.LBE705
 15495 0308 00000000 		.4byte	0
 15496 030c 00000000 		.4byte	0
 15497 0310 8C000000 		.4byte	.LBB692
 15498 0314 8E000000 		.4byte	.LBE692
 15499 0318 94000000 		.4byte	.LBB695
 15500 031c 9A000000 		.4byte	.LBE695
 15501 0320 00000000 		.4byte	0
 15502 0324 00000000 		.4byte	0
 15503 0328 00000000 		.4byte	.LFB294
 15504 032c 8E030000 		.4byte	.LFE294
 15505 0330 00000000 		.4byte	.LFB295
 15506 0334 72000000 		.4byte	.LFE295
 15507 0338 00000000 		.4byte	.LFB276
 15508 033c 24000000 		.4byte	.LFE276
 15509 0340 00000000 		.4byte	.LFB277
 15510 0344 E4000000 		.4byte	.LFE277
 15511 0348 00000000 		.4byte	.LFB278
 15512 034c 22000000 		.4byte	.LFE278
 15513 0350 00000000 		.4byte	.LFB279
 15514 0354 C4000000 		.4byte	.LFE279
 15515 0358 00000000 		.4byte	.LFB280
 15516 035c 18000000 		.4byte	.LFE280
 15517 0360 00000000 		.4byte	.LFB281
 15518 0364 64010000 		.4byte	.LFE281
 15519 0368 00000000 		.4byte	.LFB282
 15520 036c 0E000000 		.4byte	.LFE282
 15521 0370 00000000 		.4byte	.LFB283
 15522 0374 1A000000 		.4byte	.LFE283
 15523 0378 00000000 		.4byte	.LFB284
 15524 037c 1A000000 		.4byte	.LFE284
 15525 0380 00000000 		.4byte	.LFB285
 15526 0384 12000000 		.4byte	.LFE285
 15527 0388 00000000 		.4byte	.LFB286
 15528 038c 40000000 		.4byte	.LFE286
 15529 0390 00000000 		.4byte	.LFB302
 15530 0394 A0000000 		.4byte	.LFE302
 15531 0398 00000000 		.4byte	.LFB287
 15532 039c 4A000000 		.4byte	.LFE287
 15533 03a0 00000000 		.4byte	.LFB301
 15534 03a4 D4000000 		.4byte	.LFE301
 15535 03a8 00000000 		.4byte	.LFB275
 15536 03ac F4000000 		.4byte	.LFE275
 15537 03b0 00000000 		.4byte	.LFB288
 15538 03b4 14000000 		.4byte	.LFE288
 15539 03b8 00000000 		.4byte	.LFB289
 15540 03bc 28000000 		.4byte	.LFE289
 15541 03c0 00000000 		.4byte	.LFB290
 15542 03c4 14000000 		.4byte	.LFE290
 15543 03c8 00000000 		.4byte	.LFB291
 15544 03cc 14000000 		.4byte	.LFE291
 15545 03d0 00000000 		.4byte	.LFB292
 15546 03d4 14000000 		.4byte	.LFE292
 15547 03d8 00000000 		.4byte	.LFB293
 15548 03dc 14000000 		.4byte	.LFE293
 15549 03e0 00000000 		.4byte	0
ARM GAS  /tmp/ccigORce.s 			page 274


 15550 03e4 00000000 		.4byte	0
 15551              		.section	.debug_line,"",%progbits
 15552              	.Ldebug_line0:
 15553 0000 650B0000 		.section	.debug_str,"MS",%progbits,1
 15553      02007B05 
 15553      00000201 
 15553      FB0E0D00 
 15553      01010101 
 15554              	.LASF212:
 15555 0000 4D314152 		.ascii	"M1AR\000"
 15555      00
 15556              	.LASF706:
 15557 0005 63685379 		.ascii	"chSysPolledDelayX\000"
 15557      73506F6C 
 15557      6C656444 
 15557      656C6179 
 15557      5800
 15558              	.LASF329:
 15559 0017 73746D33 		.ascii	"stm32_dma_stream_t\000"
 15559      325F646D 
 15559      615F7374 
 15559      7265616D 
 15559      5F7400
 15560              	.LASF597:
 15561 002a 71756575 		.ascii	"queue\000"
 15561      6500
 15562              	.LASF581:
 15563 0030 72657376 		.ascii	"resvd83C\000"
 15563      64383343 
 15563      00
 15564              	.LASF4:
 15565 0039 73697A65 		.ascii	"size_t\000"
 15565      5F7400
 15566              	.LASF391:
 15567 0040 73717231 		.ascii	"sqr1\000"
 15567      00
 15568              	.LASF392:
 15569 0045 73717232 		.ascii	"sqr2\000"
 15569      00
 15570              	.LASF22:
 15571 004a 73697A65 		.ascii	"sizetype\000"
 15571      74797065 
 15571      00
 15572              	.LASF716:
 15573 0053 5F5F6C6F 		.ascii	"__locale_t\000"
 15573      63616C65 
 15573      5F7400
 15574              	.LASF24:
 15575 005e 5F5F7661 		.ascii	"__value\000"
 15575      6C756500 
 15576              	.LASF291:
 15577 0066 63665F6F 		.ascii	"cf_off_name\000"
 15577      66665F6E 
 15577      616D6500 
 15578              	.LASF140:
 15579 0072 73797374 		.ascii	"systime_t\000"
 15579      696D655F 
ARM GAS  /tmp/ccigORce.s 			page 275


 15579      7400
 15580              	.LASF93:
 15581 007c 5F5F7366 		.ascii	"__sf\000"
 15581      00
 15582              	.LASF240:
 15583 0081 504C4C49 		.ascii	"PLLI2SCFGR\000"
 15583      32534346 
 15583      475200
 15584              	.LASF280:
 15585 008c 63685F69 		.ascii	"ch_identifier\000"
 15585      64656E74 
 15585      69666965 
 15585      7200
 15586              	.LASF146:
 15587 009a 705F6374 		.ascii	"p_ctx\000"
 15587      7800
 15588              	.LASF60:
 15589 00a0 5F726561 		.ascii	"_read\000"
 15589      6400
 15590              	.LASF135:
 15591 00a6 74707269 		.ascii	"tprio_t\000"
 15591      6F5F7400 
 15592              	.LASF383:
 15593 00ae 61646363 		.ascii	"adccallback_t\000"
 15593      616C6C62 
 15593      61636B5F 
 15593      7400
 15594              	.LASF201:
 15595 00bc 53515231 		.ascii	"SQR1\000"
 15595      00
 15596              	.LASF202:
 15597 00c1 53515232 		.ascii	"SQR2\000"
 15597      00
 15598              	.LASF203:
 15599 00c6 53515233 		.ascii	"SQR3\000"
 15599      00
 15600              	.LASF299:
 15601 00cb 63685F64 		.ascii	"ch_debug\000"
 15601      65627567 
 15601      00
 15602              	.LASF154:
 15603 00d4 705F6D73 		.ascii	"p_msgqueue\000"
 15603      67717565 
 15603      756500
 15604              	.LASF714:
 15605 00df 474E5520 		.ascii	"GNU C11 6.2.1 20161205 (release) [ARM/embedded-6-br"
 15605      43313120 
 15605      362E322E 
 15605      31203230 
 15605      31363132 
 15606 0112 616E6368 		.ascii	"anch revision 243739] -mcpu=cortex-m4 -mno-thumb-in"
 15606      20726576 
 15606      6973696F 
 15606      6E203234 
 15606      33373339 
 15607 0145 74657277 		.ascii	"terwork -mthumb -ggdb -O2 -fomit-frame-pointer -fal"
 15607      6F726B20 
ARM GAS  /tmp/ccigORce.s 			page 276


 15607      2D6D7468 
 15607      756D6220 
 15607      2D676764 
 15608 0178 69676E2D 		.ascii	"ign-functions=16 -ffunction-sections -fdata-section"
 15608      66756E63 
 15608      74696F6E 
 15608      733D3136 
 15608      202D6666 
 15609 01ab 73202D66 		.ascii	"s -fno-common\000"
 15609      6E6F2D63 
 15609      6F6D6D6F 
 15609      6E00
 15610              	.LASF61:
 15611 01b9 5F777269 		.ascii	"_write\000"
 15611      746500
 15612              	.LASF169:
 15613 01c0 725F6374 		.ascii	"r_ctx\000"
 15613      7800
 15614              	.LASF521:
 15615 01c6 72657376 		.ascii	"resvd18\000"
 15615      64313800 
 15616              	.LASF128:
 15617 01ce 696E7433 		.ascii	"int32_t\000"
 15617      325F7400 
 15618              	.LASF367:
 15619 01d6 61646373 		.ascii	"adcstate_t\000"
 15619      74617465 
 15619      5F7400
 15620              	.LASF703:
 15621 01e1 63685468 		.ascii	"chThdDequeueAllI\000"
 15621      64446571 
 15621      75657565 
 15621      416C6C49 
 15621      00
 15622              	.LASF104:
 15623 01f2 5F617363 		.ascii	"_asctime_buf\000"
 15623      74696D65 
 15623      5F627566 
 15623      00
 15624              	.LASF711:
 15625 01ff 63685468 		.ascii	"chThdResumeI\000"
 15625      64526573 
 15625      756D6549 
 15625      00
 15626              	.LASF87:
 15627 020c 5F637674 		.ascii	"_cvtlen\000"
 15627      6C656E00 
 15628              	.LASF516:
 15629 0214 72657376 		.ascii	"resvd8\000"
 15629      643800
 15630              	.LASF288:
 15631 021b 63665F6F 		.ascii	"cf_off_ctx\000"
 15631      66665F63 
 15631      747800
 15632              	.LASF173:
 15633 0226 76746675 		.ascii	"vtfunc_t\000"
 15633      6E635F74 
ARM GAS  /tmp/ccigORce.s 			page 277


 15633      00
 15634              	.LASF675:
 15635 022f 5F5F6675 		.ascii	"__func__\000"
 15635      6E635F5F 
 15635      00
 15636              	.LASF370:
 15637 0238 4144435F 		.ascii	"ADC_ERR_DMAFAILURE\000"
 15637      4552525F 
 15637      444D4146 
 15637      41494C55 
 15637      524500
 15638              	.LASF182:
 15639 024b 63685F76 		.ascii	"ch_virtual_timers_list\000"
 15639      69727475 
 15639      616C5F74 
 15639      696D6572 
 15639      735F6C69 
 15640              	.LASF670:
 15641 0262 6F74675F 		.ascii	"otg_fifo_write_from_buffer\000"
 15641      6669666F 
 15641      5F777269 
 15641      74655F66 
 15641      726F6D5F 
 15642              	.LASF458:
 15643 027d 7373706F 		.ascii	"ssport\000"
 15643      727400
 15644              	.LASF466:
 15645 0284 696E5F70 		.ascii	"in_params\000"
 15645      6172616D 
 15645      7300
 15646              	.LASF640:
 15647 028e 7573625F 		.ascii	"usb_lld_prepare_transmit\000"
 15647      6C6C645F 
 15647      70726570 
 15647      6172655F 
 15647      7472616E 
 15648              	.LASF707:
 15649 02a7 63685363 		.ascii	"chSchReadyI\000"
 15649      68526561 
 15649      64794900 
 15650              	.LASF635:
 15651 02b3 7573625F 		.ascii	"usb_lld_clear_out\000"
 15651      6C6C645F 
 15651      636C6561 
 15651      725F6F75 
 15651      7400
 15652              	.LASF644:
 15653 02c5 7573625F 		.ascii	"usb_lld_get_status_in\000"
 15653      6C6C645F 
 15653      6765745F 
 15653      73746174 
 15653      75735F69 
 15654              	.LASF123:
 15655 02db 5F756E75 		.ascii	"_unused\000"
 15655      73656400 
 15656              	.LASF34:
 15657 02e3 5F5F746D 		.ascii	"__tm\000"
ARM GAS  /tmp/ccigORce.s 			page 278


 15657      00
 15658              	.LASF119:
 15659 02e8 5F776373 		.ascii	"_wcsrtombs_state\000"
 15659      72746F6D 
 15659      62735F73 
 15659      74617465 
 15659      00
 15660              	.LASF65:
 15661 02f9 5F6E6275 		.ascii	"_nbuf\000"
 15661      6600
 15662              	.LASF35:
 15663 02ff 5F5F746D 		.ascii	"__tm_sec\000"
 15663      5F736563 
 15663      00
 15664              	.LASF684:
 15665 0308 6F73616C 		.ascii	"osalThreadSuspendS\000"
 15665      54687265 
 15665      61645375 
 15665      7370656E 
 15665      645300
 15666              	.LASF525:
 15667 031b 72657376 		.ascii	"resvd4\000"
 15667      643400
 15668              	.LASF112:
 15669 0322 5F6C3634 		.ascii	"_l64a_buf\000"
 15669      615F6275 
 15669      6600
 15670              	.LASF627:
 15671 032c 65703073 		.ascii	"ep0setup_buffer\000"
 15671      65747570 
 15671      5F627566 
 15671      66657200 
 15672              	.LASF424:
 15673 033c 70776D63 		.ascii	"pwmchnmsk_t\000"
 15673      686E6D73 
 15673      6B5F7400 
 15674              	.LASF565:
 15675 0348 72657376 		.ascii	"resvd700\000"
 15675      64373030 
 15675      00
 15676              	.LASF306:
 15677 0351 656C5F66 		.ascii	"el_flags\000"
 15677      6C616773 
 15677      00
 15678              	.LASF648:
 15679 035a 6673697A 		.ascii	"fsize\000"
 15679      6500
 15680              	.LASF403:
 15681 0360 67707473 		.ascii	"gptstate_t\000"
 15681      74617465 
 15681      5F7400
 15682              	.LASF375:
 15683 036b 636F6E66 		.ascii	"config\000"
 15683      696700
 15684              	.LASF374:
 15685 0372 73746174 		.ascii	"state\000"
 15685      6500
ARM GAS  /tmp/ccigORce.s 			page 279


 15686              	.LASF609:
 15687 0378 65705F6D 		.ascii	"ep_mode\000"
 15687      6F646500 
 15688              	.LASF353:
 15689 0380 50454461 		.ascii	"PEData\000"
 15689      746100
 15690              	.LASF69:
 15691 0387 5F6C6F63 		.ascii	"_lock\000"
 15691      6B00
 15692              	.LASF442:
 15693 038d 70757474 		.ascii	"putt\000"
 15693      00
 15694              	.LASF461:
 15695 0392 53504944 		.ascii	"SPID1\000"
 15695      3100
 15696              	.LASF427:
 15697 0398 50574D43 		.ascii	"PWMChannelConfig\000"
 15697      68616E6E 
 15697      656C436F 
 15697      6E666967 
 15697      00
 15698              	.LASF284:
 15699 03a9 63685F70 		.ascii	"ch_ptrsize\000"
 15699      74727369 
 15699      7A6500
 15700              	.LASF100:
 15701 03b4 5F6D756C 		.ascii	"_mult\000"
 15701      7400
 15702              	.LASF647:
 15703 03ba 7573625F 		.ascii	"usb_lld_init_endpoint\000"
 15703      6C6C645F 
 15703      696E6974 
 15703      5F656E64 
 15703      706F696E 
 15704              	.LASF260:
 15705 03d0 444D4152 		.ascii	"DMAR\000"
 15705      00
 15706              	.LASF608:
 15707 03d5 5553424F 		.ascii	"USBOutEndpointState\000"
 15707      7574456E 
 15707      64706F69 
 15707      6E745374 
 15707      61746500 
 15708              	.LASF527:
 15709 03e9 72657376 		.ascii	"resvdC\000"
 15709      644300
 15710              	.LASF688:
 15711 03f0 6F73616C 		.ascii	"osalSysUnlockFromISR\000"
 15711      53797355 
 15711      6E6C6F63 
 15711      6B46726F 
 15711      6D495352 
 15712              	.LASF388:
 15713 0405 6572726F 		.ascii	"error_cb\000"
 15713      725F6362 
 15713      00
 15714              	.LASF410:
ARM GAS  /tmp/ccigORce.s 			page 280


 15715 040e 64696572 		.ascii	"dier\000"
 15715      00
 15716              	.LASF413:
 15717 0413 50574D5F 		.ascii	"PWM_UNINIT\000"
 15717      554E494E 
 15717      495400
 15718              	.LASF409:
 15719 041e 63616C6C 		.ascii	"callback\000"
 15719      6261636B 
 15719      00
 15720              	.LASF690:
 15721 0427 6F73616C 		.ascii	"osalSysUnlock\000"
 15721      53797355 
 15721      6E6C6F63 
 15721      6B00
 15722              	.LASF650:
 15723 0435 7573625F 		.ascii	"usb_lld_reset\000"
 15723      6C6C645F 
 15723      72657365 
 15723      7400
 15724              	.LASF348:
 15725 0443 73746D33 		.ascii	"stm32_gpio_setup_t\000"
 15725      325F6770 
 15725      696F5F73 
 15725      65747570 
 15725      5F7400
 15726              	.LASF683:
 15727 0456 6F73616C 		.ascii	"osalThreadResumeI\000"
 15727      54687265 
 15727      61645265 
 15727      73756D65 
 15727      4900
 15728              	.LASF278:
 15729 0468 6D5F6F77 		.ascii	"m_owner\000"
 15729      6E657200 
 15730              	.LASF180:
 15731 0470 76745F70 		.ascii	"vt_par\000"
 15731      617200
 15732              	.LASF151:
 15733 0477 705F666C 		.ascii	"p_flags\000"
 15733      61677300 
 15734              	.LASF20:
 15735 047f 5F5F7763 		.ascii	"__wch\000"
 15735      6800
 15736              	.LASF267:
 15737 0485 65786974 		.ascii	"exitcode\000"
 15737      636F6465 
 15737      00
 15738              	.LASF245:
 15739 048e 49325343 		.ascii	"I2SCFGR\000"
 15739      46475200 
 15740              	.LASF499:
 15741 0496 75736265 		.ascii	"usbep0state_t\000"
 15741      70307374 
 15741      6174655F 
 15741      7400
 15742              	.LASF5:
ARM GAS  /tmp/ccigORce.s 			page 281


 15743 04a4 5F5F7569 		.ascii	"__uint8_t\000"
 15743      6E74385F 
 15743      7400
 15744              	.LASF316:
 15745 04ae 715F746F 		.ascii	"q_top\000"
 15745      7000
 15746              	.LASF57:
 15747 04b4 5F66696C 		.ascii	"_file\000"
 15747      6500
 15748              	.LASF286:
 15749 04ba 63685F74 		.ascii	"ch_threadsize\000"
 15749      68726561 
 15749      6473697A 
 15749      6500
 15750              	.LASF336:
 15751 04c8 50555044 		.ascii	"PUPDR\000"
 15751      5200
 15752              	.LASF231:
 15753 04ce 41484232 		.ascii	"AHB2LPENR\000"
 15753      4C50454E 
 15753      5200
 15754              	.LASF44:
 15755 04d8 5F6F6E5F 		.ascii	"_on_exit_args\000"
 15755      65786974 
 15755      5F617267 
 15755      7300
 15756              	.LASF445:
 15757 04e6 72656164 		.ascii	"readt\000"
 15757      7400
 15758              	.LASF705:
 15759 04ec 63685468 		.ascii	"chThdSuspendS\000"
 15759      64537573 
 15759      70656E64 
 15759      5300
 15760              	.LASF491:
 15761 04fa 75736265 		.ascii	"usbepstatus_t\000"
 15761      70737461 
 15761      7475735F 
 15761      7400
 15762              	.LASF315:
 15763 0508 715F6275 		.ascii	"q_buffer\000"
 15763      66666572 
 15763      00
 15764              	.LASF501:
 15765 0511 5553425F 		.ascii	"USB_EVENT_ADDRESS\000"
 15765      4556454E 
 15765      545F4144 
 15765      44524553 
 15765      5300
 15766              	.LASF546:
 15767 0523 44494550 		.ascii	"DIEPTXF0\000"
 15767      54584630 
 15767      00
 15768              	.LASF319:
 15769 052c 715F6E6F 		.ascii	"q_notify\000"
 15769      74696679 
 15769      00
ARM GAS  /tmp/ccigORce.s 			page 282


 15770              	.LASF147:
 15771 0535 705F6E65 		.ascii	"p_newer\000"
 15771      77657200 
 15772              	.LASF447:
 15773 053d 5350495F 		.ascii	"SPI_STOP\000"
 15773      53544F50 
 15773      00
 15774              	.LASF593:
 15775 0546 73746D33 		.ascii	"stm32_otg_params_t\000"
 15775      325F6F74 
 15775      675F7061 
 15775      72616D73 
 15775      5F7400
 15776              	.LASF115:
 15777 0559 5F6D6272 		.ascii	"_mbrlen_state\000"
 15777      6C656E5F 
 15777      73746174 
 15777      6500
 15778              	.LASF11:
 15779 0567 6C6F6E67 		.ascii	"long int\000"
 15779      20696E74 
 15779      00
 15780              	.LASF446:
 15781 0570 5350495F 		.ascii	"SPI_UNINIT\000"
 15781      554E494E 
 15781      495400
 15782              	.LASF143:
 15783 057b 705F6E65 		.ascii	"p_next\000"
 15783      787400
 15784              	.LASF699:
 15785 0582 706F7274 		.ascii	"port_unlock\000"
 15785      5F756E6C 
 15785      6F636B00 
 15786              	.LASF124:
 15787 058e 5F696D70 		.ascii	"_impure_ptr\000"
 15787      7572655F 
 15787      70747200 
 15788              	.LASF318:
 15789 059a 715F7264 		.ascii	"q_rdptr\000"
 15789      70747200 
 15790              	.LASF84:
 15791 05a2 5F726573 		.ascii	"_result_k\000"
 15791      756C745F 
 15791      6B00
 15792              	.LASF293:
 15793 05ac 63665F6F 		.ascii	"cf_off_state\000"
 15793      66665F73 
 15793      74617465 
 15793      00
 15794              	.LASF54:
 15795 05b9 5F73697A 		.ascii	"_size\000"
 15795      6500
 15796              	.LASF144:
 15797 05bf 705F7072 		.ascii	"p_prev\000"
 15797      657600
 15798              	.LASF583:
 15799 05c6 72657376 		.ascii	"resvd880\000"
ARM GAS  /tmp/ccigORce.s 			page 283


 15799      64383830 
 15799      00
 15800              	.LASF694:
 15801 05cf 63685379 		.ascii	"chSysLockFromISR\000"
 15801      734C6F63 
 15801      6B46726F 
 15801      6D495352 
 15801      00
 15802              	.LASF651:
 15803 05e0 7573625F 		.ascii	"usb_lld_stop\000"
 15803      6C6C645F 
 15803      73746F70 
 15803      00
 15804              	.LASF105:
 15805 05ed 5F6C6F63 		.ascii	"_localtime_buf\000"
 15805      616C7469 
 15805      6D655F62 
 15805      756600
 15806              	.LASF412:
 15807 05fc 47505444 		.ascii	"GPTD3\000"
 15807      3300
 15808              	.LASF359:
 15809 0602 696F706F 		.ascii	"ioportid_t\000"
 15809      72746964 
 15809      5F7400
 15810              	.LASF133:
 15811 060d 74737461 		.ascii	"tstate_t\000"
 15811      74655F74 
 15811      00
 15812              	.LASF691:
 15813 0616 6F73616C 		.ascii	"osalSysLock\000"
 15813      5379734C 
 15813      6F636B00 
 15814              	.LASF163:
 15815 0622 74687265 		.ascii	"threads_queue_t\000"
 15815      6164735F 
 15815      71756575 
 15815      655F7400 
 15816              	.LASF157:
 15817 0632 705F6D74 		.ascii	"p_mtxlist\000"
 15817      786C6973 
 15817      7400
 15818              	.LASF437:
 15819 063c 6F717565 		.ascii	"oqueue\000"
 15819      756500
 15820              	.LASF594:
 15821 0643 74786275 		.ascii	"txbuf\000"
 15821      6600
 15822              	.LASF250:
 15823 0649 72656761 		.ascii	"regarm_t\000"
 15823      726D5F74 
 15823      00
 15824              	.LASF669:
 15825 0652 6F74675F 		.ascii	"otg_fifo_write_from_queue\000"
 15825      6669666F 
 15825      5F777269 
 15825      74655F66 
ARM GAS  /tmp/ccigORce.s 			page 284


 15825      726F6D5F 
 15826              	.LASF572:
 15827 066c 4441494E 		.ascii	"DAINT\000"
 15827      5400
 15828              	.LASF492:
 15829 0672 5553425F 		.ascii	"USB_EP0_WAITING_SETUP\000"
 15829      4550305F 
 15829      57414954 
 15829      494E475F 
 15829      53455455 
 15830              	.LASF571:
 15831 0688 444F4550 		.ascii	"DOEPMSK\000"
 15831      4D534B00 
 15832              	.LASF39:
 15833 0690 5F5F746D 		.ascii	"__tm_mon\000"
 15833      5F6D6F6E 
 15833      00
 15834              	.LASF423:
 15835 0699 70776D63 		.ascii	"pwmchannel_t\000"
 15835      68616E6E 
 15835      656C5F74 
 15835      00
 15836              	.LASF228:
 15837 06a6 41504232 		.ascii	"APB2ENR\000"
 15837      454E5200 
 15838              	.LASF708:
 15839 06ae 6E766963 		.ascii	"nvicEnableVector\000"
 15839      456E6162 
 15839      6C655665 
 15839      63746F72 
 15839      00
 15840              	.LASF312:
 15841 06bf 696F5F71 		.ascii	"io_queue\000"
 15841      75657565 
 15841      00
 15842              	.LASF230:
 15843 06c8 41484231 		.ascii	"AHB1LPENR\000"
 15843      4C50454E 
 15843      5200
 15844              	.LASF532:
 15845 06d2 444F4550 		.ascii	"DOEPCTL\000"
 15845      43544C00 
 15846              	.LASF438:
 15847 06da 75736172 		.ascii	"usart\000"
 15847      7400
 15848              	.LASF360:
 15849 06e0 70616C5F 		.ascii	"pal_default_config\000"
 15849      64656661 
 15849      756C745F 
 15849      636F6E66 
 15849      696700
 15850              	.LASF102:
 15851 06f3 5F756E75 		.ascii	"_unused_rand\000"
 15851      7365645F 
 15851      72616E64 
 15851      00
 15852              	.LASF320:
ARM GAS  /tmp/ccigORce.s 			page 285


 15853 0700 715F6C69 		.ascii	"q_link\000"
 15853      6E6B00
 15854              	.LASF3:
 15855 0707 7369676E 		.ascii	"signed char\000"
 15855      65642063 
 15855      68617200 
 15856              	.LASF272:
 15857 0713 65776D61 		.ascii	"ewmask\000"
 15857      736B00
 15858              	.LASF126:
 15859 071a 75696E74 		.ascii	"uint8_t\000"
 15859      385F7400 
 15860              	.LASF254:
 15861 0722 534D4352 		.ascii	"SMCR\000"
 15861      00
 15862              	.LASF710:
 15863 0727 7573624F 		.ascii	"usbObjectInit\000"
 15863      626A6563 
 15863      74496E69 
 15863      7400
 15864              	.LASF505:
 15865 0735 5553425F 		.ascii	"USB_EVENT_STALLED\000"
 15865      4556454E 
 15865      545F5354 
 15865      414C4C45 
 15865      4400
 15866              	.LASF490:
 15867 0747 45505F53 		.ascii	"EP_STATUS_ACTIVE\000"
 15867      54415455 
 15867      535F4143 
 15867      54495645 
 15867      00
 15868              	.LASF533:
 15869 0758 444F4550 		.ascii	"DOEPINT\000"
 15869      494E5400 
 15870              	.LASF444:
 15871 0760 77726974 		.ascii	"writet\000"
 15871      657400
 15872              	.LASF137:
 15873 0767 6576656E 		.ascii	"eventmask_t\000"
 15873      746D6173 
 15873      6B5F7400 
 15874              	.LASF252:
 15875 0773 636F6E74 		.ascii	"context\000"
 15875      65787400 
 15876              	.LASF606:
 15877 077b 72787369 		.ascii	"rxsize\000"
 15877      7A6500
 15878              	.LASF626:
 15879 0782 6570305F 		.ascii	"ep0_state\000"
 15879      73746174 
 15879      6500
 15880              	.LASF269:
 15881 078c 77747472 		.ascii	"wttrp\000"
 15881      7000
 15882              	.LASF425:
 15883 0792 70776D63 		.ascii	"pwmcnt_t\000"
ARM GAS  /tmp/ccigORce.s 			page 286


 15883      6E745F74 
 15883      00
 15884              	.LASF693:
 15885 079b 63685379 		.ascii	"chSysUnlockFromISR\000"
 15885      73556E6C 
 15885      6F636B46 
 15885      726F6D49 
 15885      535200
 15886              	.LASF712:
 15887 07ae 5F757362 		.ascii	"_usb_reset\000"
 15887      5F726573 
 15887      657400
 15888              	.LASF219:
 15889 07b9 52455345 		.ascii	"RESERVED0\000"
 15889      52564544 
 15889      3000
 15890              	.LASF222:
 15891 07c3 52455345 		.ascii	"RESERVED1\000"
 15891      52564544 
 15891      3100
 15892              	.LASF6:
 15893 07cd 756E7369 		.ascii	"unsigned char\000"
 15893      676E6564 
 15893      20636861 
 15893      7200
 15894              	.LASF229:
 15895 07db 52455345 		.ascii	"RESERVED3\000"
 15895      52564544 
 15895      3300
 15896              	.LASF233:
 15897 07e5 52455345 		.ascii	"RESERVED4\000"
 15897      52564544 
 15897      3400
 15898              	.LASF236:
 15899 07ef 52455345 		.ascii	"RESERVED5\000"
 15899      52564544 
 15899      3500
 15900              	.LASF238:
 15901 07f9 52455345 		.ascii	"RESERVED6\000"
 15901      52564544 
 15901      3600
 15902              	.LASF341:
 15903 0803 73746D33 		.ascii	"stm32_gpio_t\000"
 15903      325F6770 
 15903      696F5F74 
 15903      00
 15904              	.LASF457:
 15905 0810 73706963 		.ascii	"spicallback_t\000"
 15905      616C6C62 
 15905      61636B5F 
 15905      7400
 15906              	.LASF352:
 15907 081e 50444461 		.ascii	"PDData\000"
 15907      746100
 15908              	.LASF186:
 15909 0825 70616E69 		.ascii	"panic_msg\000"
 15909      635F6D73 
ARM GAS  /tmp/ccigORce.s 			page 287


 15909      6700
 15910              	.LASF79:
 15911 082f 5F756E73 		.ascii	"_unspecified_locale_info\000"
 15911      70656369 
 15911      66696564 
 15911      5F6C6F63 
 15911      616C655F 
 15912              	.LASF372:
 15913 0848 61646365 		.ascii	"adcerror_t\000"
 15913      72726F72 
 15913      5F7400
 15914              	.LASF72:
 15915 0853 5F726565 		.ascii	"_reent\000"
 15915      6E7400
 15916              	.LASF170:
 15917 085a 725F6E65 		.ascii	"r_newer\000"
 15917      77657200 
 15918              	.LASF125:
 15919 0862 5F676C6F 		.ascii	"_global_impure_ptr\000"
 15919      62616C5F 
 15919      696D7075 
 15919      72655F70 
 15919      747200
 15920              	.LASF468:
 15921 0875 65703073 		.ascii	"ep0state\000"
 15921      74617465 
 15921      00
 15922              	.LASF184:
 15923 087e 73797374 		.ascii	"system_debug_t\000"
 15923      656D5F64 
 15923      65627567 
 15923      5F7400
 15924              	.LASF697:
 15925 088d 706F7274 		.ascii	"port_unlock_from_isr\000"
 15925      5F756E6C 
 15925      6F636B5F 
 15925      66726F6D 
 15925      5F697372 
 15926              	.LASF430:
 15927 08a2 53445F55 		.ascii	"SD_UNINIT\000"
 15927      4E494E49 
 15927      5400
 15928              	.LASF363:
 15929 08ac 4144435F 		.ascii	"ADC_READY\000"
 15929      52454144 
 15929      5900
 15930              	.LASF622:
 15931 08b6 72657175 		.ascii	"requests_hook_cb\000"
 15931      65737473 
 15931      5F686F6F 
 15931      6B5F6362 
 15931      00
 15932              	.LASF641:
 15933 08c7 70636E74 		.ascii	"pcnt\000"
 15933      00
 15934              	.LASF331:
 15935 08cc 5F426F6F 		.ascii	"_Bool\000"
ARM GAS  /tmp/ccigORce.s 			page 288


 15935      6C00
 15936              	.LASF570:
 15937 08d2 44494550 		.ascii	"DIEPMSK\000"
 15937      4D534B00 
 15938              	.LASF660:
 15939 08da 6F74675F 		.ascii	"otg_rxfifo_handler\000"
 15939      72786669 
 15939      666F5F68 
 15939      616E646C 
 15939      657200
 15940              	.LASF226:
 15941 08ed 52455345 		.ascii	"RESERVED2\000"
 15941      52564544 
 15941      3200
 15942              	.LASF555:
 15943 08f7 48434647 		.ascii	"HCFG\000"
 15943      00
 15944              	.LASF515:
 15945 08fc 48434348 		.ascii	"HCCHAR\000"
 15945      415200
 15946              	.LASF368:
 15947 0903 61646373 		.ascii	"adcsample_t\000"
 15947      616D706C 
 15947      655F7400 
 15948              	.LASF256:
 15949 090f 43434D52 		.ascii	"CCMR1\000"
 15949      3100
 15950              	.LASF257:
 15951 0915 43434D52 		.ascii	"CCMR2\000"
 15951      3200
 15952              	.LASF261:
 15953 091b 43434D52 		.ascii	"CCMR3\000"
 15953      3300
 15954              	.LASF643:
 15955 0921 7573625F 		.ascii	"usb_lld_read_setup\000"
 15955      6C6C645F 
 15955      72656164 
 15955      5F736574 
 15955      757000
 15956              	.LASF535:
 15957 0934 73746D33 		.ascii	"stm32_otg_out_ep_t\000"
 15957      325F6F74 
 15957      675F6F75 
 15957      745F6570 
 15957      5F7400
 15958              	.LASF27:
 15959 0947 63686172 		.ascii	"char\000"
 15959      00
 15960              	.LASF524:
 15961 094c 44494550 		.ascii	"DIEPCTL\000"
 15961      43544C00 
 15962              	.LASF51:
 15963 0954 5F666E73 		.ascii	"_fns\000"
 15963      00
 15964              	.LASF342:
 15965 0959 6D6F6465 		.ascii	"moder\000"
 15965      7200
ARM GAS  /tmp/ccigORce.s 			page 289


 15966              	.LASF326:
 15967 095f 69736869 		.ascii	"ishift\000"
 15967      667400
 15968              	.LASF63:
 15969 0966 5F636C6F 		.ascii	"_close\000"
 15969      736500
 15970              	.LASF470:
 15971 096d 6570306E 		.ascii	"ep0n\000"
 15971      00
 15972              	.LASF216:
 15973 0972 41484231 		.ascii	"AHB1RSTR\000"
 15973      52535452 
 15973      00
 15974              	.LASF398:
 15975 097b 4750545F 		.ascii	"GPT_UNINIT\000"
 15975      554E494E 
 15975      495400
 15976              	.LASF563:
 15977 0986 48505254 		.ascii	"HPRT\000"
 15977      00
 15978              	.LASF145:
 15979 098b 705F7072 		.ascii	"p_prio\000"
 15979      696F00
 15980              	.LASF465:
 15981 0992 72656365 		.ascii	"receiving\000"
 15981      6976696E 
 15981      6700
 15982              	.LASF452:
 15983 099c 53504944 		.ascii	"SPIDriver\000"
 15983      72697665 
 15983      7200
 15984              	.LASF8:
 15985 09a6 5F5F7569 		.ascii	"__uint16_t\000"
 15985      6E743136 
 15985      5F7400
 15986              	.LASF224:
 15987 09b1 41484232 		.ascii	"AHB2ENR\000"
 15987      454E5200 
 15988              	.LASF463:
 15989 09b9 55534244 		.ascii	"USBDriver\000"
 15989      72697665 
 15989      7200
 15990              	.LASF632:
 15991 09c3 65706D61 		.ascii	"epmask\000"
 15991      736B00
 15992              	.LASF268:
 15993 09ca 77746F62 		.ascii	"wtobjp\000"
 15993      6A7000
 15994              	.LASF297:
 15995 09d1 63665F6F 		.ascii	"cf_off_time\000"
 15995      66665F74 
 15995      696D6500 
 15996              	.LASF74:
 15997 09dd 5F737464 		.ascii	"_stdin\000"
 15997      696E00
 15998              	.LASF366:
 15999 09e4 4144435F 		.ascii	"ADC_ERROR\000"
ARM GAS  /tmp/ccigORce.s 			page 290


 15999      4552524F 
 15999      5200
 16000              	.LASF289:
 16001 09ee 63665F6F 		.ascii	"cf_off_newer\000"
 16001      66665F6E 
 16001      65776572 
 16001      00
 16002              	.LASF610:
 16003 09fb 73657475 		.ascii	"setup_cb\000"
 16003      705F6362 
 16003      00
 16004              	.LASF508:
 16005 0a04 75645F73 		.ascii	"ud_string\000"
 16005      7472696E 
 16005      6700
 16006              	.LASF657:
 16007 0a0e 6F74675F 		.ascii	"otg_epout_handler\000"
 16007      65706F75 
 16007      745F6861 
 16007      6E646C65 
 16007      7200
 16008              	.LASF611:
 16009 0a20 696E5F63 		.ascii	"in_cb\000"
 16009      6200
 16010              	.LASF443:
 16011 0a26 67657474 		.ascii	"gett\000"
 16011      00
 16012              	.LASF251:
 16013 0a2b 73746B61 		.ascii	"stkalign_t\000"
 16013      6C69676E 
 16013      5F7400
 16014              	.LASF249:
 16015 0a36 55534152 		.ascii	"USART_TypeDef\000"
 16015      545F5479 
 16015      70654465 
 16015      6600
 16016              	.LASF667:
 16017 0a44 6F74675F 		.ascii	"otg_txfifo_handler\000"
 16017      74786669 
 16017      666F5F68 
 16017      616E646C 
 16017      657200
 16018              	.LASF377:
 16019 0a57 64657074 		.ascii	"depth\000"
 16019      6800
 16020              	.LASF393:
 16021 0a5d 73717233 		.ascii	"sqr3\000"
 16021      00
 16022              	.LASF385:
 16023 0a62 63697263 		.ascii	"circular\000"
 16023      756C6172 
 16023      00
 16024              	.LASF387:
 16025 0a6b 656E645F 		.ascii	"end_cb\000"
 16025      636200
 16026              	.LASF512:
 16027 0a72 75736265 		.ascii	"usbeventcb_t\000"
ARM GAS  /tmp/ccigORce.s 			page 291


 16027      76656E74 
 16027      63625F74 
 16027      00
 16028              	.LASF658:
 16029 0a7f 6570696E 		.ascii	"epint\000"
 16029      7400
 16030              	.LASF566:
 16031 0a85 44434647 		.ascii	"DCFG\000"
 16031      00
 16032              	.LASF664:
 16033 0a8a 73747265 		.ascii	"streak\000"
 16033      616B00
 16034              	.LASF287:
 16035 0a91 63665F6F 		.ascii	"cf_off_prio\000"
 16035      66665F70 
 16035      72696F00 
 16036              	.LASF324:
 16037 0a9d 73747265 		.ascii	"stream\000"
 16037      616D00
 16038              	.LASF523:
 16039 0aa4 73746D33 		.ascii	"stm32_otg_host_chn_t\000"
 16039      325F6F74 
 16039      675F686F 
 16039      73745F63 
 16039      686E5F74 
 16040              	.LASF301:
 16041 0ab9 6576656E 		.ascii	"event_listener_t\000"
 16041      745F6C69 
 16041      7374656E 
 16041      65725F74 
 16041      00
 16042              	.LASF464:
 16043 0aca 7472616E 		.ascii	"transmitting\000"
 16043      736D6974 
 16043      74696E67 
 16043      00
 16044              	.LASF262:
 16045 0ad7 43435852 		.ascii	"CCXR\000"
 16045      00
 16046              	.LASF655:
 16047 0adc 646F6E65 		.ascii	"done\000"
 16047      00
 16048              	.LASF519:
 16049 0ae1 48435453 		.ascii	"HCTSIZ\000"
 16049      495A00
 16050              	.LASF602:
 16051 0ae8 55534249 		.ascii	"USBInEndpointState\000"
 16051      6E456E64 
 16051      706F696E 
 16051      74537461 
 16051      746500
 16052              	.LASF550:
 16053 0afb 47434346 		.ascii	"GCCFG\000"
 16053      4700
 16054              	.LASF575:
 16055 0b01 72657376 		.ascii	"resvd824\000"
 16055      64383234 
ARM GAS  /tmp/ccigORce.s 			page 292


 16055      00
 16056              	.LASF569:
 16057 0b0a 72657376 		.ascii	"resvd80C\000"
 16057      64383043 
 16057      00
 16058              	.LASF237:
 16059 0b13 42444352 		.ascii	"BDCR\000"
 16059      00
 16060              	.LASF577:
 16061 0b18 44564255 		.ascii	"DVBUSPULSE\000"
 16061      5350554C 
 16061      534500
 16062              	.LASF376:
 16063 0b23 73616D70 		.ascii	"samples\000"
 16063      6C657300 
 16064              	.LASF482:
 16065 0b2b 5553425F 		.ascii	"USB_UNINIT\000"
 16065      554E494E 
 16065      495400
 16066              	.LASF422:
 16067 0b36 70776D6D 		.ascii	"pwmmode_t\000"
 16067      6F64655F 
 16067      7400
 16068              	.LASF654:
 16069 0b40 56656374 		.ascii	"Vector14C\000"
 16069      6F723134 
 16069      4300
 16070              	.LASF540:
 16071 0b4a 47525354 		.ascii	"GRSTCTL\000"
 16071      43544C00 
 16072              	.LASF139:
 16073 0b52 636E745F 		.ascii	"cnt_t\000"
 16073      7400
 16074              	.LASF596:
 16075 0b58 6C696E65 		.ascii	"linear\000"
 16075      617200
 16076              	.LASF462:
 16077 0b5f 53504944 		.ascii	"SPID2\000"
 16077      3200
 16078              	.LASF179:
 16079 0b65 76745F66 		.ascii	"vt_func\000"
 16079      756E6300 
 16080              	.LASF209:
 16081 0b6d 4144435F 		.ascii	"ADC_TypeDef\000"
 16081      54797065 
 16081      44656600 
 16082              	.LASF509:
 16083 0b79 55534244 		.ascii	"USBDescriptor\000"
 16083      65736372 
 16083      6970746F 
 16083      7200
 16084              	.LASF59:
 16085 0b87 5F636F6F 		.ascii	"_cookie\000"
 16085      6B696500 
 16086              	.LASF472:
 16087 0b8f 73657475 		.ascii	"setup\000"
 16087      7000
ARM GAS  /tmp/ccigORce.s 			page 293


 16088              	.LASF156:
 16089 0b95 705F6570 		.ascii	"p_epending\000"
 16089      656E6469 
 16089      6E6700
 16090              	.LASF271:
 16091 0ba0 77746D74 		.ascii	"wtmtxp\000"
 16091      787000
 16092              	.LASF32:
 16093 0ba7 5F776473 		.ascii	"_wds\000"
 16093      00
 16094              	.LASF506:
 16095 0bac 75736265 		.ascii	"usbevent_t\000"
 16095      76656E74 
 16095      5F7400
 16096              	.LASF166:
 16097 0bb7 63685F72 		.ascii	"ch_ready_list\000"
 16097      65616479 
 16097      5F6C6973 
 16097      7400
 16098              	.LASF91:
 16099 0bc5 5F736967 		.ascii	"_sig_func\000"
 16099      5F66756E 
 16099      6300
 16100              	.LASF510:
 16101 0bcf 75736263 		.ascii	"usbcallback_t\000"
 16101      616C6C62 
 16101      61636B5F 
 16101      7400
 16102              	.LASF507:
 16103 0bdd 75645F73 		.ascii	"ud_size\000"
 16103      697A6500 
 16104              	.LASF332:
 16105 0be5 636C6561 		.ascii	"clear\000"
 16105      7200
 16106              	.LASF215:
 16107 0beb 43464752 		.ascii	"CFGR\000"
 16107      00
 16108              	.LASF344:
 16109 0bf0 6F737065 		.ascii	"ospeedr\000"
 16109      65647200 
 16110              	.LASF67:
 16111 0bf8 5F6F6666 		.ascii	"_offset\000"
 16111      73657400 
 16112              	.LASF485:
 16113 0c00 5553425F 		.ascii	"USB_SELECTED\000"
 16113      53454C45 
 16113      43544544 
 16113      00
 16114              	.LASF88:
 16115 0c0d 5F637674 		.ascii	"_cvtbuf\000"
 16115      62756600 
 16116              	.LASF369:
 16117 0c15 6164635F 		.ascii	"adc_channels_num_t\000"
 16117      6368616E 
 16117      6E656C73 
 16117      5F6E756D 
 16117      5F7400
ARM GAS  /tmp/ccigORce.s 			page 294


 16118              	.LASF351:
 16119 0c28 50434461 		.ascii	"PCData\000"
 16119      746100
 16120              	.LASF475:
 16121 0c2f 636F6E66 		.ascii	"configuration\000"
 16121      69677572 
 16121      6174696F 
 16121      6E00
 16122              	.LASF255:
 16123 0c3d 44494552 		.ascii	"DIER\000"
 16123      00
 16124              	.LASF601:
 16125 0c42 746F7473 		.ascii	"totsize\000"
 16125      697A6500 
 16126              	.LASF545:
 16127 0c4a 47525846 		.ascii	"GRXFSIZ\000"
 16127      53495A00 
 16128              	.LASF489:
 16129 0c52 45505F53 		.ascii	"EP_STATUS_STALLED\000"
 16129      54415455 
 16129      535F5354 
 16129      414C4C45 
 16129      4400
 16130              	.LASF715:
 16131 0c64 2F686F6D 		.ascii	"/home/selim/working/ChibiOS/os/hal/ports/STM32/LLD/"
 16131      652F7365 
 16131      6C696D2F 
 16131      776F726B 
 16131      696E672F 
 16132 0c97 4F544776 		.ascii	"OTGv1/usb_lld.c\000"
 16132      312F7573 
 16132      625F6C6C 
 16132      642E6300 
 16133              	.LASF600:
 16134 0ca7 7478636E 		.ascii	"txcnt\000"
 16134      7400
 16135              	.LASF309:
 16136 0cad 65735F6E 		.ascii	"es_next\000"
 16136      65787400 
 16137              	.LASF314:
 16138 0cb5 715F636F 		.ascii	"q_counter\000"
 16138      756E7465 
 16138      7200
 16139              	.LASF656:
 16140 0cbf 7573625F 		.ascii	"usb_lld_serve_interrupt\000"
 16140      6C6C645F 
 16140      73657276 
 16140      655F696E 
 16140      74657272 
 16141              	.LASF419:
 16142 0cd7 656E6162 		.ascii	"enabled\000"
 16142      6C656400 
 16143              	.LASF347:
 16144 0cdf 61667268 		.ascii	"afrh\000"
 16144      00
 16145              	.LASF14:
 16146 0ce4 5F5F7569 		.ascii	"__uint64_t\000"
ARM GAS  /tmp/ccigORce.s 			page 295


 16146      6E743634 
 16146      5F7400
 16147              	.LASF553:
 16148 0cef 44494550 		.ascii	"DIEPTXF\000"
 16148      54584600 
 16149              	.LASF695:
 16150 0cf7 63685379 		.ascii	"chSysUnlock\000"
 16150      73556E6C 
 16150      6F636B00 
 16151              	.LASF85:
 16152 0d03 5F703573 		.ascii	"_p5s\000"
 16152      00
 16153              	.LASF13:
 16154 0d08 6C6F6E67 		.ascii	"long unsigned int\000"
 16154      20756E73 
 16154      69676E65 
 16154      6420696E 
 16154      7400
 16155              	.LASF227:
 16156 0d1a 41504231 		.ascii	"APB1ENR\000"
 16156      454E5200 
 16157              	.LASF696:
 16158 0d22 63685379 		.ascii	"chSysLock\000"
 16158      734C6F63 
 16158      6B00
 16159              	.LASF381:
 16160 0d2c 646D6173 		.ascii	"dmastp\000"
 16160      747000
 16161              	.LASF55:
 16162 0d33 5F5F7346 		.ascii	"__sFILE\000"
 16162      494C4500 
 16163              	.LASF81:
 16164 0d3b 5F5F7364 		.ascii	"__sdidinit\000"
 16164      6964696E 
 16164      697400
 16165              	.LASF71:
 16166 0d46 5F666C61 		.ascii	"_flags2\000"
 16166      67733200 
 16167              	.LASF474:
 16168 0d4e 61646472 		.ascii	"address\000"
 16168      65737300 
 16169              	.LASF343:
 16170 0d56 6F747970 		.ascii	"otyper\000"
 16170      657200
 16171              	.LASF194:
 16172 0d5d 53797374 		.ascii	"SystemCoreClock\000"
 16172      656D436F 
 16172      7265436C 
 16172      6F636B00 
 16173              	.LASF273:
 16174 0d6d 63685F73 		.ascii	"ch_semaphore\000"
 16174      656D6170 
 16174      686F7265 
 16174      00
 16175              	.LASF407:
 16176 0d7a 67707466 		.ascii	"gptfreq_t\000"
 16176      7265715F 
ARM GAS  /tmp/ccigORce.s 			page 296


 16176      7400
 16177              	.LASF471:
 16178 0d84 65703065 		.ascii	"ep0endcb\000"
 16178      6E646362 
 16178      00
 16179              	.LASF142:
 16180 0d8d 63685F74 		.ascii	"ch_thread\000"
 16180      68726561 
 16180      6400
 16181              	.LASF538:
 16182 0d97 47414842 		.ascii	"GAHBCFG\000"
 16182      43464700 
 16183              	.LASF181:
 16184 0d9f 76697274 		.ascii	"virtual_timers_list_t\000"
 16184      75616C5F 
 16184      74696D65 
 16184      72735F6C 
 16184      6973745F 
 16185              	.LASF16:
 16186 0db5 5F4C4F43 		.ascii	"_LOCK_RECURSIVE_T\000"
 16186      4B5F5245 
 16186      43555253 
 16186      4956455F 
 16186      5400
 16187              	.LASF617:
 16188 0dc7 696E5F6D 		.ascii	"in_multiplier\000"
 16188      756C7469 
 16188      706C6965 
 16188      7200
 16189              	.LASF330:
 16190 0dd5 5F73746D 		.ascii	"_stm32_dma_streams\000"
 16190      33325F64 
 16190      6D615F73 
 16190      74726561 
 16190      6D7300
 16191              	.LASF303:
 16192 0de8 656C5F6E 		.ascii	"el_next\000"
 16192      65787400 
 16193              	.LASF195:
 16194 0df0 534D5052 		.ascii	"SMPR1\000"
 16194      3100
 16195              	.LASF196:
 16196 0df6 534D5052 		.ascii	"SMPR2\000"
 16196      3200
 16197              	.LASF73:
 16198 0dfc 5F657272 		.ascii	"_errno\000"
 16198      6E6F00
 16199              	.LASF630:
 16200 0e03 75736270 		.ascii	"usbp\000"
 16200      00
 16201              	.LASF486:
 16202 0e08 5553425F 		.ascii	"USB_ACTIVE\000"
 16202      41435449 
 16202      564500
 16203              	.LASF386:
 16204 0e13 6E756D5F 		.ascii	"num_channels\000"
 16204      6368616E 
ARM GAS  /tmp/ccigORce.s 			page 297


 16204      6E656C73 
 16204      00
 16205              	.LASF174:
 16206 0e20 76697274 		.ascii	"virtual_timer_t\000"
 16206      75616C5F 
 16206      74696D65 
 16206      725F7400 
 16207              	.LASF165:
 16208 0e30 72656164 		.ascii	"ready_list_t\000"
 16208      795F6C69 
 16208      73745F74 
 16208      00
 16209              	.LASF317:
 16210 0e3d 715F7772 		.ascii	"q_wrptr\000"
 16210      70747200 
 16211              	.LASF113:
 16212 0e45 5F736967 		.ascii	"_signal_buf\000"
 16212      6E616C5F 
 16212      62756600 
 16213              	.LASF338:
 16214 0e51 4C434B52 		.ascii	"LCKR\000"
 16214      00
 16215              	.LASF483:
 16216 0e56 5553425F 		.ascii	"USB_STOP\000"
 16216      53544F50 
 16216      00
 16217              	.LASF263:
 16218 0e5f 73746D33 		.ascii	"stm32_tim_t\000"
 16218      325F7469 
 16218      6D5F7400 
 16219              	.LASF357:
 16220 0e6b 50494461 		.ascii	"PIData\000"
 16220      746100
 16221              	.LASF405:
 16222 0e72 636C6F63 		.ascii	"clock\000"
 16222      6B00
 16223              	.LASF411:
 16224 0e78 47505443 		.ascii	"GPTConfig\000"
 16224      6F6E6669 
 16224      6700
 16225              	.LASF440:
 16226 0e82 77726974 		.ascii	"write\000"
 16226      6500
 16227              	.LASF607:
 16228 0e88 7278636E 		.ascii	"rxcnt\000"
 16228      7400
 16229              	.LASF33:
 16230 0e8e 5F426967 		.ascii	"_Bigint\000"
 16230      696E7400 
 16231              	.LASF394:
 16232 0e96 41444343 		.ascii	"ADCConversionGroup\000"
 16232      6F6E7665 
 16232      7273696F 
 16232      6E47726F 
 16232      757000
 16233              	.LASF365:
 16234 0ea9 4144435F 		.ascii	"ADC_COMPLETE\000"
ARM GAS  /tmp/ccigORce.s 			page 298


 16234      434F4D50 
 16234      4C455445 
 16234      00
 16235              	.LASF162:
 16236 0eb6 63685F74 		.ascii	"ch_threads_list\000"
 16236      68726561 
 16236      64735F6C 
 16236      69737400 
 16237              	.LASF629:
 16238 0ec6 66737061 		.ascii	"fsparams\000"
 16238      72616D73 
 16238      00
 16239              	.LASF30:
 16240 0ecf 5F6D6178 		.ascii	"_maxwds\000"
 16240      77647300 
 16241              	.LASF389:
 16242 0ed7 736D7072 		.ascii	"smpr1\000"
 16242      3100
 16243              	.LASF390:
 16244 0edd 736D7072 		.ascii	"smpr2\000"
 16244      3200
 16245              	.LASF599:
 16246 0ee3 74787369 		.ascii	"txsize\000"
 16246      7A6500
 16247              	.LASF498:
 16248 0eea 5553425F 		.ascii	"USB_EP0_ERROR\000"
 16248      4550305F 
 16248      4552524F 
 16248      5200
 16249              	.LASF558:
 16250 0ef8 72657376 		.ascii	"resvd40C\000"
 16250      64343043 
 16250      00
 16251              	.LASF345:
 16252 0f01 70757064 		.ascii	"pupdr\000"
 16252      7200
 16253              	.LASF82:
 16254 0f07 5F5F636C 		.ascii	"__cleanup\000"
 16254      65616E75 
 16254      7000
 16255              	.LASF536:
 16256 0f11 474F5447 		.ascii	"GOTGCTL\000"
 16256      43544C00 
 16257              	.LASF90:
 16258 0f19 5F617465 		.ascii	"_atexit0\000"
 16258      78697430 
 16258      00
 16259              	.LASF637:
 16260 0f22 7573625F 		.ascii	"usb_lld_stall_out\000"
 16260      6C6C645F 
 16260      7374616C 
 16260      6C5F6F75 
 16260      7400
 16261              	.LASF296:
 16262 0f34 63665F6F 		.ascii	"cf_off_preempt\000"
 16262      66665F70 
 16262      7265656D 
ARM GAS  /tmp/ccigORce.s 			page 299


 16262      707400
 16263              	.LASF453:
 16264 0f43 646D6172 		.ascii	"dmarx\000"
 16264      7800
 16265              	.LASF615:
 16266 0f49 696E5F73 		.ascii	"in_state\000"
 16266      74617465 
 16266      00
 16267              	.LASF543:
 16268 0f52 47525853 		.ascii	"GRXSTSR\000"
 16268      54535200 
 16269              	.LASF504:
 16270 0f5a 5553425F 		.ascii	"USB_EVENT_WAKEUP\000"
 16270      4556454E 
 16270      545F5741 
 16270      4B455550 
 16270      00
 16271              	.LASF682:
 16272 0f6b 6F73616C 		.ascii	"osalThreadDequeueAllI\000"
 16272      54687265 
 16272      61644465 
 16272      71756575 
 16272      65416C6C 
 16273              	.LASF586:
 16274 0f81 50434743 		.ascii	"PCGCCTL\000"
 16274      43544C00 
 16275              	.LASF671:
 16276 0f89 6F74675F 		.ascii	"otg_do_push\000"
 16276      646F5F70 
 16276      75736800 
 16277              	.LASF12:
 16278 0f95 5F5F7569 		.ascii	"__uint32_t\000"
 16278      6E743332 
 16278      5F7400
 16279              	.LASF78:
 16280 0fa0 5F656D65 		.ascii	"_emergency\000"
 16280      7267656E 
 16280      637900
 16281              	.LASF620:
 16282 0fab 6576656E 		.ascii	"event_cb\000"
 16282      745F6362 
 16282      00
 16283              	.LASF537:
 16284 0fb4 474F5447 		.ascii	"GOTGINT\000"
 16284      494E5400 
 16285              	.LASF448:
 16286 0fbc 5350495F 		.ascii	"SPI_READY\000"
 16286      52454144 
 16286      5900
 16287              	.LASF1:
 16288 0fc6 6C6F6E67 		.ascii	"long long int\000"
 16288      206C6F6E 
 16288      6720696E 
 16288      7400
 16289              	.LASF484:
 16290 0fd4 5553425F 		.ascii	"USB_READY\000"
 16290      52454144 
ARM GAS  /tmp/ccigORce.s 			page 300


 16290      5900
 16291              	.LASF544:
 16292 0fde 47525853 		.ascii	"GRXSTSP\000"
 16292      54535000 
 16293              	.LASF283:
 16294 0fe6 63685F76 		.ascii	"ch_version\000"
 16294      65727369 
 16294      6F6E00
 16295              	.LASF277:
 16296 0ff1 6D5F7175 		.ascii	"m_queue\000"
 16296      65756500 
 16297              	.LASF404:
 16298 0ff9 47505444 		.ascii	"GPTDriver\000"
 16298      72697665 
 16298      7200
 16299              	.LASF96:
 16300 1003 5F6E696F 		.ascii	"_niobs\000"
 16300      627300
 16301              	.LASF698:
 16302 100a 706F7274 		.ascii	"port_lock_from_isr\000"
 16302      5F6C6F63 
 16302      6B5F6672 
 16302      6F6D5F69 
 16302      737200
 16303              	.LASF239:
 16304 101d 53534347 		.ascii	"SSCGR\000"
 16304      5200
 16305              	.LASF176:
 16306 1023 76745F6E 		.ascii	"vt_next\000"
 16306      65787400 
 16307              	.LASF92:
 16308 102b 5F5F7367 		.ascii	"__sglue\000"
 16308      6C756500 
 16309              	.LASF621:
 16310 1033 6765745F 		.ascii	"get_descriptor_cb\000"
 16310      64657363 
 16310      72697074 
 16310      6F725F63 
 16310      6200
 16311              	.LASF469:
 16312 1045 6570306E 		.ascii	"ep0next\000"
 16312      65787400 
 16313              	.LASF214:
 16314 104d 504C4C43 		.ascii	"PLLCFGR\000"
 16314      46475200 
 16315              	.LASF476:
 16316 1055 6F746770 		.ascii	"otgparams\000"
 16316      6172616D 
 16316      7300
 16317              	.LASF122:
 16318 105f 5F6E6D61 		.ascii	"_nmalloc\000"
 16318      6C6C6F63 
 16318      00
 16319              	.LASF177:
 16320 1068 76745F70 		.ascii	"vt_prev\000"
 16320      72657600 
 16321              	.LASF678:
ARM GAS  /tmp/ccigORce.s 			page 301


 16322 1070 6669666F 		.ascii	"fifo\000"
 16322      00
 16323              	.LASF436:
 16324 1075 69717565 		.ascii	"iqueue\000"
 16324      756500
 16325              	.LASF384:
 16326 107c 61646365 		.ascii	"adcerrorcallback_t\000"
 16326      72726F72 
 16326      63616C6C 
 16326      6261636B 
 16326      5F7400
 16327              	.LASF248:
 16328 108f 47545052 		.ascii	"GTPR\000"
 16328      00
 16329              	.LASF106:
 16330 1094 5F67616D 		.ascii	"_gamma_signgam\000"
 16330      6D615F73 
 16330      69676E67 
 16330      616D00
 16331              	.LASF221:
 16332 10a3 41504232 		.ascii	"APB2RSTR\000"
 16332      52535452 
 16332      00
 16333              	.LASF689:
 16334 10ac 6F73616C 		.ascii	"osalSysLockFromISR\000"
 16334      5379734C 
 16334      6F636B46 
 16334      726F6D49 
 16334      535200
 16335              	.LASF310:
 16336 10bf 6576656E 		.ascii	"event_source_t\000"
 16336      745F736F 
 16336      75726365 
 16336      5F7400
 16337              	.LASF580:
 16338 10ce 72657376 		.ascii	"resvd838\000"
 16338      64383338 
 16338      00
 16339              	.LASF511:
 16340 10d7 75736265 		.ascii	"usbepcallback_t\000"
 16340      7063616C 
 16340      6C626163 
 16340      6B5F7400 
 16341              	.LASF86:
 16342 10e7 5F667265 		.ascii	"_freelist\000"
 16342      656C6973 
 16342      7400
 16343              	.LASF439:
 16344 10f1 53657269 		.ascii	"SerialDriverVMT\000"
 16344      616C4472 
 16344      69766572 
 16344      564D5400 
 16345              	.LASF97:
 16346 1101 5F696F62 		.ascii	"_iobs\000"
 16346      7300
 16347              	.LASF380:
 16348 1107 6D757465 		.ascii	"mutex\000"
ARM GAS  /tmp/ccigORce.s 			page 302


 16348      7800
 16349              	.LASF95:
 16350 110d 5F676C75 		.ascii	"_glue\000"
 16350      6500
 16351              	.LASF193:
 16352 1113 49544D5F 		.ascii	"ITM_RxBuffer\000"
 16352      52784275 
 16352      66666572 
 16352      00
 16353              	.LASF31:
 16354 1120 5F736967 		.ascii	"_sign\000"
 16354      6E00
 16355              	.LASF243:
 16356 1126 52584352 		.ascii	"RXCRCR\000"
 16356      435200
 16357              	.LASF408:
 16358 112d 66726571 		.ascii	"frequency\000"
 16358      75656E63 
 16358      7900
 16359              	.LASF350:
 16360 1137 50424461 		.ascii	"PBData\000"
 16360      746100
 16361              	.LASF455:
 16362 113e 7278646D 		.ascii	"rxdmamode\000"
 16362      616D6F64 
 16362      6500
 16363              	.LASF235:
 16364 1148 41504232 		.ascii	"APB2LPENR\000"
 16364      4C50454E 
 16364      5200
 16365              	.LASF479:
 16366 1152 77616974 		.ascii	"wait\000"
 16366      00
 16367              	.LASF321:
 16368 1157 716E6F74 		.ascii	"qnotify_t\000"
 16368      6966795F 
 16368      7400
 16369              	.LASF402:
 16370 1161 4750545F 		.ascii	"GPT_ONESHOT\000"
 16370      4F4E4553 
 16370      484F5400 
 16371              	.LASF153:
 16372 116d 705F7761 		.ascii	"p_waiting\000"
 16372      6974696E 
 16372      6700
 16373              	.LASF435:
 16374 1177 6576656E 		.ascii	"event\000"
 16374      7400
 16375              	.LASF454:
 16376 117d 646D6174 		.ascii	"dmatx\000"
 16376      7800
 16377              	.LASF333:
 16378 1183 4D4F4445 		.ascii	"MODER\000"
 16378      5200
 16379              	.LASF534:
 16380 1189 444F4550 		.ascii	"DOEPTSIZ\000"
 16380      5453495A 
ARM GAS  /tmp/ccigORce.s 			page 303


 16380      00
 16381              	.LASF441:
 16382 1192 72656164 		.ascii	"read\000"
 16382      00
 16383              	.LASF433:
 16384 1197 73647374 		.ascii	"sdstate_t\000"
 16384      6174655F 
 16384      7400
 16385              	.LASF592:
 16386 11a1 6E756D5F 		.ascii	"num_endpoints\000"
 16386      656E6470 
 16386      6F696E74 
 16386      7300
 16387              	.LASF192:
 16388 11af 69646C65 		.ascii	"idle_thread_wa\000"
 16388      5F746872 
 16388      6561645F 
 16388      776100
 16389              	.LASF560:
 16390 11be 4841494E 		.ascii	"HAINT\000"
 16390      5400
 16391              	.LASF0:
 16392 11c4 756E7369 		.ascii	"unsigned int\000"
 16392      676E6564 
 16392      20696E74 
 16392      00
 16393              	.LASF460:
 16394 11d1 53504943 		.ascii	"SPIConfig\000"
 16394      6F6E6669 
 16394      6700
 16395              	.LASF653:
 16396 11db 7573625F 		.ascii	"usb_lld_init\000"
 16396      6C6C645F 
 16396      696E6974 
 16396      00
 16397              	.LASF624:
 16398 11e8 55534243 		.ascii	"USBConfig\000"
 16398      6F6E6669 
 16398      6700
 16399              	.LASF335:
 16400 11f2 4F535045 		.ascii	"OSPEEDR\000"
 16400      45445200 
 16401              	.LASF449:
 16402 11fa 5350495F 		.ascii	"SPI_ACTIVE\000"
 16402      41435449 
 16402      564500
 16403              	.LASF574:
 16404 1205 72657376 		.ascii	"resvd820\000"
 16404      64383230 
 16404      00
 16405              	.LASF131:
 16406 120e 7274636E 		.ascii	"rtcnt_t\000"
 16406      745F7400 
 16407              	.LASF478:
 16408 1216 74787065 		.ascii	"txpending\000"
 16408      6E64696E 
 16408      6700
ARM GAS  /tmp/ccigORce.s 			page 304


 16409              	.LASF159:
 16410 1220 705F6D70 		.ascii	"p_mpool\000"
 16410      6F6F6C00 
 16411              	.LASF120:
 16412 1228 5F685F65 		.ascii	"_h_errno\000"
 16412      72726E6F 
 16412      00
 16413              	.LASF420:
 16414 1231 6368616E 		.ascii	"channels\000"
 16414      6E656C73 
 16414      00
 16415              	.LASF685:
 16416 123a 6F73616C 		.ascii	"osalSysPolledDelayX\000"
 16416      53797350 
 16416      6F6C6C65 
 16416      6444656C 
 16416      61795800 
 16417              	.LASF636:
 16418 124e 7573625F 		.ascii	"usb_lld_stall_in\000"
 16418      6C6C645F 
 16418      7374616C 
 16418      6C5F696E 
 16418      00
 16419              	.LASF589:
 16420 125f 73746D33 		.ascii	"stm32_otg_t\000"
 16420      325F6F74 
 16420      675F7400 
 16421              	.LASF152:
 16422 126b 705F7265 		.ascii	"p_refs\000"
 16422      667300
 16423              	.LASF639:
 16424 1272 7573625F 		.ascii	"usb_lld_start_out\000"
 16424      6C6C645F 
 16424      73746172 
 16424      745F6F75 
 16424      7400
 16425              	.LASF285:
 16426 1284 63685F74 		.ascii	"ch_timesize\000"
 16426      696D6573 
 16426      697A6500 
 16427              	.LASF118:
 16428 1290 5F776372 		.ascii	"_wcrtomb_state\000"
 16428      746F6D62 
 16428      5F737461 
 16428      746500
 16429              	.LASF582:
 16430 129f 72657376 		.ascii	"resvd840\000"
 16430      64383430 
 16430      00
 16431              	.LASF618:
 16432 12a8 73657475 		.ascii	"setup_buf\000"
 16432      705F6275 
 16432      6600
 16433              	.LASF38:
 16434 12b2 5F5F746D 		.ascii	"__tm_mday\000"
 16434      5F6D6461 
 16434      7900
ARM GAS  /tmp/ccigORce.s 			page 305


 16435              	.LASF307:
 16436 12bc 656C5F77 		.ascii	"el_wflags\000"
 16436      666C6167 
 16436      7300
 16437              	.LASF89:
 16438 12c6 5F6E6577 		.ascii	"_new\000"
 16438      00
 16439              	.LASF64:
 16440 12cb 5F756275 		.ascii	"_ubuf\000"
 16440      6600
 16441              	.LASF679:
 16442 12d1 6F74675F 		.ascii	"otg_rxfifo_flush\000"
 16442      72786669 
 16442      666F5F66 
 16442      6C757368 
 16442      00
 16443              	.LASF76:
 16444 12e2 5F737464 		.ascii	"_stderr\000"
 16444      65727200 
 16445              	.LASF421:
 16446 12ea 70776D63 		.ascii	"pwmcallback_t\000"
 16446      616C6C62 
 16446      61636B5F 
 16446      7400
 16447              	.LASF305:
 16448 12f8 656C5F65 		.ascii	"el_events\000"
 16448      76656E74 
 16448      7300
 16449              	.LASF713:
 16450 1302 5F706F72 		.ascii	"_port_irq_epilogue\000"
 16450      745F6972 
 16450      715F6570 
 16450      696C6F67 
 16450      756500
 16451              	.LASF111:
 16452 1315 5F776374 		.ascii	"_wctomb_state\000"
 16452      6F6D625F 
 16452      73746174 
 16452      6500
 16453              	.LASF70:
 16454 1323 5F6D6273 		.ascii	"_mbstate\000"
 16454      74617465 
 16454      00
 16455              	.LASF628:
 16456 132c 65703063 		.ascii	"ep0config\000"
 16456      6F6E6669 
 16456      6700
 16457              	.LASF417:
 16458 1336 50574D44 		.ascii	"PWMDriver\000"
 16458      72697665 
 16458      7200
 16459              	.LASF107:
 16460 1340 5F72616E 		.ascii	"_rand_next\000"
 16460      645F6E65 
 16460      787400
 16461              	.LASF612:
 16462 134b 6F75745F 		.ascii	"out_cb\000"
ARM GAS  /tmp/ccigORce.s 			page 306


 16462      636200
 16463              	.LASF56:
 16464 1352 5F666C61 		.ascii	"_flags\000"
 16464      677300
 16465              	.LASF397:
 16466 1359 41444344 		.ascii	"ADCD1\000"
 16466      3100
 16467              	.LASF264:
 16468 135f 6F666673 		.ascii	"offset\000"
 16468      657400
 16469              	.LASF234:
 16470 1366 41504231 		.ascii	"APB1LPENR\000"
 16470      4C50454E 
 16470      5200
 16471              	.LASF561:
 16472 1370 4841494E 		.ascii	"HAINTMSK\000"
 16472      544D534B 
 16472      00
 16473              	.LASF160:
 16474 1379 74687265 		.ascii	"thread_reference_t\000"
 16474      61645F72 
 16474      65666572 
 16474      656E6365 
 16474      5F7400
 16475              	.LASF49:
 16476 138c 5F617465 		.ascii	"_atexit\000"
 16476      78697400 
 16477              	.LASF356:
 16478 1394 50484461 		.ascii	"PHData\000"
 16478      746100
 16479              	.LASF613:
 16480 139b 696E5F6D 		.ascii	"in_maxsize\000"
 16480      61787369 
 16480      7A6500
 16481              	.LASF542:
 16482 13a6 47494E54 		.ascii	"GINTMSK\000"
 16482      4D534B00 
 16483              	.LASF213:
 16484 13ae 444D415F 		.ascii	"DMA_Stream_TypeDef\000"
 16484      53747265 
 16484      616D5F54 
 16484      79706544 
 16484      656600
 16485              	.LASF295:
 16486 13c1 63665F6F 		.ascii	"cf_off_refs\000"
 16486      66665F72 
 16486      65667300 
 16487              	.LASF23:
 16488 13cd 5F5F636F 		.ascii	"__count\000"
 16488      756E7400 
 16489              	.LASF616:
 16490 13d5 6F75745F 		.ascii	"out_state\000"
 16490      73746174 
 16490      6500
 16491              	.LASF346:
 16492 13df 6166726C 		.ascii	"afrl\000"
 16492      00
ARM GAS  /tmp/ccigORce.s 			page 307


 16493              	.LASF459:
 16494 13e4 73737061 		.ascii	"sspad\000"
 16494      6400
 16495              	.LASF681:
 16496 13ea 6F74675F 		.ascii	"otg_core_reset\000"
 16496      636F7265 
 16496      5F726573 
 16496      657400
 16497              	.LASF649:
 16498 13f9 7573625F 		.ascii	"usb_lld_set_address\000"
 16498      6C6C645F 
 16498      7365745F 
 16498      61646472 
 16498      65737300 
 16499              	.LASF41:
 16500 140d 5F5F746D 		.ascii	"__tm_wday\000"
 16500      5F776461 
 16500      7900
 16501              	.LASF666:
 16502 1417 6F74675F 		.ascii	"otg_fifo_read_to_buffer\000"
 16502      6669666F 
 16502      5F726561 
 16502      645F746F 
 16502      5F627566 
 16503              	.LASF633:
 16504 142f 7573625F 		.ascii	"usb_lld_pump\000"
 16504      6C6C645F 
 16504      70756D70 
 16504      00
 16505              	.LASF218:
 16506 143c 41484233 		.ascii	"AHB3RSTR\000"
 16506      52535452 
 16506      00
 16507              	.LASF141:
 16508 1445 74687265 		.ascii	"thread_t\000"
 16508      61645F74 
 16508      00
 16509              	.LASF557:
 16510 144e 48464E55 		.ascii	"HFNUM\000"
 16510      4D00
 16511              	.LASF2:
 16512 1454 6C6F6E67 		.ascii	"long double\000"
 16512      20646F75 
 16512      626C6500 
 16513              	.LASF42:
 16514 1460 5F5F746D 		.ascii	"__tm_yday\000"
 16514      5F796461 
 16514      7900
 16515              	.LASF158:
 16516 146a 705F7265 		.ascii	"p_realprio\000"
 16516      616C7072 
 16516      696F00
 16517              	.LASF603:
 16518 1475 72786275 		.ascii	"rxbuf\000"
 16518      6600
 16519              	.LASF494:
 16520 147b 5553425F 		.ascii	"USB_EP0_WAITING_TX0\000"
ARM GAS  /tmp/ccigORce.s 			page 308


 16520      4550305F 
 16520      57414954 
 16520      494E475F 
 16520      54583000 
 16521              	.LASF253:
 16522 148f 706F7274 		.ascii	"port_intctx\000"
 16522      5F696E74 
 16522      63747800 
 16523              	.LASF99:
 16524 149b 5F736565 		.ascii	"_seed\000"
 16524      6400
 16525              	.LASF364:
 16526 14a1 4144435F 		.ascii	"ADC_ACTIVE\000"
 16526      41435449 
 16526      564500
 16527              	.LASF62:
 16528 14ac 5F736565 		.ascii	"_seek\000"
 16528      6B00
 16529              	.LASF178:
 16530 14b2 76745F64 		.ascii	"vt_delta\000"
 16530      656C7461 
 16530      00
 16531              	.LASF18:
 16532 14bb 5F66706F 		.ascii	"_fpos_t\000"
 16532      735F7400 
 16533              	.LASF21:
 16534 14c3 5F5F7763 		.ascii	"__wchb\000"
 16534      686200
 16535              	.LASF220:
 16536 14ca 41504231 		.ascii	"APB1RSTR\000"
 16536      52535452 
 16536      00
 16537              	.LASF175:
 16538 14d3 63685F76 		.ascii	"ch_virtual_timer\000"
 16538      69727475 
 16538      616C5F74 
 16538      696D6572 
 16538      00
 16539              	.LASF275:
 16540 14e4 735F636E 		.ascii	"s_cnt\000"
 16540      7400
 16541              	.LASF110:
 16542 14ea 5F6D6274 		.ascii	"_mbtowc_state\000"
 16542      6F77635F 
 16542      73746174 
 16542      6500
 16543              	.LASF327:
 16544 14f8 73656C66 		.ascii	"selfindex\000"
 16544      696E6465 
 16544      7800
 16545              	.LASF638:
 16546 1502 7573625F 		.ascii	"usb_lld_start_in\000"
 16546      6C6C645F 
 16546      73746172 
 16546      745F696E 
 16546      00
 16547              	.LASF673:
ARM GAS  /tmp/ccigORce.s 			page 309


 16548 1513 73697A65 		.ascii	"size\000"
 16548      00
 16549              	.LASF585:
 16550 1518 72657376 		.ascii	"resvdD00\000"
 16550      64443030 
 16550      00
 16551              	.LASF15:
 16552 1521 6C6F6E67 		.ascii	"long long unsigned int\000"
 16552      206C6F6E 
 16552      6720756E 
 16552      7369676E 
 16552      65642069 
 16553              	.LASF552:
 16554 1538 48505458 		.ascii	"HPTXFSIZ\000"
 16554      4653495A 
 16554      00
 16555              	.LASF646:
 16556 1541 7573625F 		.ascii	"usb_lld_disable_endpoints\000"
 16556      6C6C645F 
 16556      64697361 
 16556      626C655F 
 16556      656E6470 
 16557              	.LASF414:
 16558 155b 50574D5F 		.ascii	"PWM_STOP\000"
 16558      53544F50 
 16558      00
 16559              	.LASF349:
 16560 1564 50414461 		.ascii	"PAData\000"
 16560      746100
 16561              	.LASF148:
 16562 156b 705F6F6C 		.ascii	"p_older\000"
 16562      64657200 
 16563              	.LASF493:
 16564 1573 5553425F 		.ascii	"USB_EP0_TX\000"
 16564      4550305F 
 16564      545800
 16565              	.LASF692:
 16566 157e 63685468 		.ascii	"chThdStartI\000"
 16566      64537461 
 16566      72744900 
 16567              	.LASF127:
 16568 158a 75696E74 		.ascii	"uint16_t\000"
 16568      31365F74 
 16568      00
 16569              	.LASF517:
 16570 1593 4843494E 		.ascii	"HCINT\000"
 16570      5400
 16571              	.LASF686:
 16572 1599 6379636C 		.ascii	"cycles\000"
 16572      657300
 16573              	.LASF46:
 16574 15a0 5F64736F 		.ascii	"_dso_handle\000"
 16574      5F68616E 
 16574      646C6500 
 16575              	.LASF136:
 16576 15ac 6D73675F 		.ascii	"msg_t\000"
 16576      7400
ARM GAS  /tmp/ccigORce.s 			page 310


 16577              	.LASF567:
 16578 15b2 4443544C 		.ascii	"DCTL\000"
 16578      00
 16579              	.LASF164:
 16580 15b7 63685F74 		.ascii	"ch_threads_queue\000"
 16580      68726561 
 16580      64735F71 
 16580      75657565 
 16580      00
 16581              	.LASF619:
 16582 15c8 55534245 		.ascii	"USBEndpointConfig\000"
 16582      6E64706F 
 16582      696E7443 
 16582      6F6E6669 
 16582      6700
 16583              	.LASF98:
 16584 15da 5F72616E 		.ascii	"_rand48\000"
 16584      64343800 
 16585              	.LASF138:
 16586 15e2 6576656E 		.ascii	"eventflags_t\000"
 16586      74666C61 
 16586      67735F74 
 16586      00
 16587              	.LASF518:
 16588 15ef 4843494E 		.ascii	"HCINTMSK\000"
 16588      544D534B 
 16588      00
 16589              	.LASF294:
 16590 15f8 63665F6F 		.ascii	"cf_off_flags\000"
 16590      66665F66 
 16590      6C616773 
 16590      00
 16591              	.LASF258:
 16592 1605 43434552 		.ascii	"CCER\000"
 16592      00
 16593              	.LASF75:
 16594 160a 5F737464 		.ascii	"_stdout\000"
 16594      6F757400 
 16595              	.LASF702:
 16596 1612 76616C75 		.ascii	"value\000"
 16596      6500
 16597              	.LASF605:
 16598 1618 72787175 		.ascii	"rxqueued\000"
 16598      65756564 
 16598      00
 16599              	.LASF400:
 16600 1621 4750545F 		.ascii	"GPT_READY\000"
 16600      52454144 
 16600      5900
 16601              	.LASF401:
 16602 162b 4750545F 		.ascii	"GPT_CONTINUOUS\000"
 16602      434F4E54 
 16602      494E554F 
 16602      555300
 16603              	.LASF642:
 16604 163a 7573625F 		.ascii	"usb_lld_prepare_receive\000"
 16604      6C6C645F 
ARM GAS  /tmp/ccigORce.s 			page 311


 16604      70726570 
 16604      6172655F 
 16604      72656365 
 16605              	.LASF66:
 16606 1652 5F626C6B 		.ascii	"_blksize\000"
 16606      73697A65 
 16606      00
 16607              	.LASF373:
 16608 165b 41444344 		.ascii	"ADCDriver\000"
 16608      72697665 
 16608      7200
 16609              	.LASF340:
 16610 1665 41465248 		.ascii	"AFRH\000"
 16610      00
 16611              	.LASF53:
 16612 166a 5F626173 		.ascii	"_base\000"
 16612      6500
 16613              	.LASF339:
 16614 1670 4146524C 		.ascii	"AFRL\000"
 16614      00
 16615              	.LASF328:
 16616 1675 76656374 		.ascii	"vector\000"
 16616      6F7200
 16617              	.LASF103:
 16618 167c 5F737472 		.ascii	"_strtok_last\000"
 16618      746F6B5F 
 16618      6C617374 
 16618      00
 16619              	.LASF604:
 16620 1689 72787175 		.ascii	"rxqueue\000"
 16620      65756500 
 16621              	.LASF116:
 16622 1691 5F6D6272 		.ascii	"_mbrtowc_state\000"
 16622      746F7763 
 16622      5F737461 
 16622      746500
 16623              	.LASF371:
 16624 16a0 4144435F 		.ascii	"ADC_ERR_OVERFLOW\000"
 16624      4552525F 
 16624      4F564552 
 16624      464C4F57 
 16624      00
 16625              	.LASF281:
 16626 16b1 63685F7A 		.ascii	"ch_zero\000"
 16626      65726F00 
 16627              	.LASF191:
 16628 16b9 6D61696E 		.ascii	"mainthread\000"
 16628      74687265 
 16628      616400
 16629              	.LASF573:
 16630 16c4 4441494E 		.ascii	"DAINTMSK\000"
 16630      544D534B 
 16630      00
 16631              	.LASF26:
 16632 16cd 5F666C6F 		.ascii	"_flock_t\000"
 16632      636B5F74 
 16632      00
ARM GAS  /tmp/ccigORce.s 			page 312


 16633              	.LASF418:
 16634 16d6 70657269 		.ascii	"period\000"
 16634      6F6400
 16635              	.LASF709:
 16636 16dd 63685468 		.ascii	"chThdCreateI\000"
 16636      64437265 
 16636      61746549 
 16636      00
 16637              	.LASF94:
 16638 16ea 5F5F4649 		.ascii	"__FILE\000"
 16638      4C4500
 16639              	.LASF232:
 16640 16f1 41484233 		.ascii	"AHB3LPENR\000"
 16640      4C50454E 
 16640      5200
 16641              	.LASF576:
 16642 16fb 44564255 		.ascii	"DVBUSDIS\000"
 16642      53444953 
 16642      00
 16643              	.LASF531:
 16644 1704 73746D33 		.ascii	"stm32_otg_in_ep_t\000"
 16644      325F6F74 
 16644      675F696E 
 16644      5F65705F 
 16644      7400
 16645              	.LASF701:
 16646 1716 5F5F7365 		.ascii	"__set_BASEPRI\000"
 16646      745F4241 
 16646      53455052 
 16646      4900
 16647              	.LASF591:
 16648 1724 6F74675F 		.ascii	"otg_ram_size\000"
 16648      72616D5F 
 16648      73697A65 
 16648      00
 16649              	.LASF25:
 16650 1731 5F6D6273 		.ascii	"_mbstate_t\000"
 16650      74617465 
 16650      5F7400
 16651              	.LASF631:
 16652 173c 6F746770 		.ascii	"otgp\000"
 16652      00
 16653              	.LASF167:
 16654 1741 725F7175 		.ascii	"r_queue\000"
 16654      65756500 
 16655              	.LASF108:
 16656 1749 5F723438 		.ascii	"_r48\000"
 16656      00
 16657              	.LASF487:
 16658 174e 75736273 		.ascii	"usbstate_t\000"
 16658      74617465 
 16658      5F7400
 16659              	.LASF19:
 16660 1759 77696E74 		.ascii	"wint_t\000"
 16660      5F7400
 16661              	.LASF434:
 16662 1760 53657269 		.ascii	"SerialDriver\000"
ARM GAS  /tmp/ccigORce.s 			page 313


 16662      616C4472 
 16662      69766572 
 16662      00
 16663              	.LASF502:
 16664 176d 5553425F 		.ascii	"USB_EVENT_CONFIGURED\000"
 16664      4556454E 
 16664      545F434F 
 16664      4E464947 
 16664      55524544 
 16665              	.LASF588:
 16666 1782 4649464F 		.ascii	"FIFO\000"
 16666      00
 16667              	.LASF334:
 16668 1787 4F545950 		.ascii	"OTYPER\000"
 16668      455200
 16669              	.LASF29:
 16670 178e 5F6E6578 		.ascii	"_next\000"
 16670      7400
 16671              	.LASF625:
 16672 1794 55534244 		.ascii	"USBD1\000"
 16672      3100
 16673              	.LASF68:
 16674 179a 5F646174 		.ascii	"_data\000"
 16674      6100
 16675              	.LASF313:
 16676 17a0 715F7761 		.ascii	"q_waiting\000"
 16676      6974696E 
 16676      6700
 16677              	.LASF244:
 16678 17aa 54584352 		.ascii	"TXCRCR\000"
 16678      435200
 16679              	.LASF247:
 16680 17b1 5350495F 		.ascii	"SPI_TypeDef\000"
 16680      54797065 
 16680      44656600 
 16681              	.LASF189:
 16682 17bd 726C6973 		.ascii	"rlist\000"
 16682      7400
 16683              	.LASF132:
 16684 17c3 746D6F64 		.ascii	"tmode_t\000"
 16684      655F7400 
 16685              	.LASF242:
 16686 17cb 43524350 		.ascii	"CRCPR\000"
 16686      5200
 16687              	.LASF395:
 16688 17d1 64756D6D 		.ascii	"dummy\000"
 16688      7900
 16689              	.LASF362:
 16690 17d7 4144435F 		.ascii	"ADC_STOP\000"
 16690      53544F50 
 16690      00
 16691              	.LASF382:
 16692 17e0 646D616D 		.ascii	"dmamode\000"
 16692      6F646500 
 16693              	.LASF223:
 16694 17e8 41484231 		.ascii	"AHB1ENR\000"
 16694      454E5200 
ARM GAS  /tmp/ccigORce.s 			page 314


 16695              	.LASF562:
 16696 17f0 72657376 		.ascii	"resvd41C\000"
 16696      64343143 
 16696      00
 16697              	.LASF514:
 16698 17f9 75736267 		.ascii	"usbgetdescriptor_t\000"
 16698      65746465 
 16698      73637269 
 16698      70746F72 
 16698      5F7400
 16699              	.LASF480:
 16700 180c 77615F70 		.ascii	"wa_pump\000"
 16700      756D7000 
 16701              	.LASF432:
 16702 1814 53445F52 		.ascii	"SD_READY\000"
 16702      45414459 
 16702      00
 16703              	.LASF225:
 16704 181d 41484233 		.ascii	"AHB3ENR\000"
 16704      454E5200 
 16705              	.LASF378:
 16706 1825 67727070 		.ascii	"grpp\000"
 16706      00
 16707              	.LASF171:
 16708 182a 725F6F6C 		.ascii	"r_older\000"
 16708      64657200 
 16709              	.LASF265:
 16710 1832 746D5F63 		.ascii	"tm_calibration_t\000"
 16710      616C6962 
 16710      72617469 
 16710      6F6E5F74 
 16710      00
 16711              	.LASF217:
 16712 1843 41484232 		.ascii	"AHB2RSTR\000"
 16712      52535452 
 16712      00
 16713              	.LASF379:
 16714 184c 74687265 		.ascii	"thread\000"
 16714      616400
 16715              	.LASF211:
 16716 1853 4D304152 		.ascii	"M0AR\000"
 16716      00
 16717              	.LASF677:
 16718 1858 6F74675F 		.ascii	"otg_txfifo_flush\000"
 16718      74786669 
 16718      666F5F66 
 16718      6C757368 
 16718      00
 16719              	.LASF700:
 16720 1869 706F7274 		.ascii	"port_lock\000"
 16720      5F6C6F63 
 16720      6B00
 16721              	.LASF274:
 16722 1873 735F7175 		.ascii	"s_queue\000"
 16722      65756500 
 16723              	.LASF415:
 16724 187b 50574D5F 		.ascii	"PWM_READY\000"
ARM GAS  /tmp/ccigORce.s 			page 315


 16724      52454144 
 16724      5900
 16725              	.LASF241:
 16726 1885 5243435F 		.ascii	"RCC_TypeDef\000"
 16726      54797065 
 16726      44656600 
 16727              	.LASF109:
 16728 1891 5F6D626C 		.ascii	"_mblen_state\000"
 16728      656E5F73 
 16728      74617465 
 16728      00
 16729              	.LASF578:
 16730 189e 72657376 		.ascii	"resvd830\000"
 16730      64383330 
 16730      00
 16731              	.LASF7:
 16732 18a7 73686F72 		.ascii	"short int\000"
 16732      7420696E 
 16732      7400
 16733              	.LASF308:
 16734 18b1 6576656E 		.ascii	"event_source\000"
 16734      745F736F 
 16734      75726365 
 16734      00
 16735              	.LASF590:
 16736 18be 72785F66 		.ascii	"rx_fifo_size\000"
 16736      69666F5F 
 16736      73697A65 
 16736      00
 16737              	.LASF130:
 16738 18cb 75696E74 		.ascii	"uint64_t\000"
 16738      36345F74 
 16738      00
 16739              	.LASF426:
 16740 18d4 6D6F6465 		.ascii	"mode\000"
 16740      00
 16741              	.LASF276:
 16742 18d9 63685F6D 		.ascii	"ch_mutex\000"
 16742      75746578 
 16742      00
 16743              	.LASF704:
 16744 18e2 63685363 		.ascii	"chSchRescheduleS\000"
 16744      68526573 
 16744      63686564 
 16744      756C6553 
 16744      00
 16745              	.LASF687:
 16746 18f3 6F73616C 		.ascii	"osalOsRescheduleS\000"
 16746      4F735265 
 16746      73636865 
 16746      64756C65 
 16746      5300
 16747              	.LASF500:
 16748 1905 5553425F 		.ascii	"USB_EVENT_RESET\000"
 16748      4556454E 
 16748      545F5245 
 16748      53455400 
ARM GAS  /tmp/ccigORce.s 			page 316


 16749              	.LASF520:
 16750 1915 72657376 		.ascii	"resvd14\000"
 16750      64313400 
 16751              	.LASF197:
 16752 191d 4A4F4652 		.ascii	"JOFR1\000"
 16752      3100
 16753              	.LASF198:
 16754 1923 4A4F4652 		.ascii	"JOFR2\000"
 16754      3200
 16755              	.LASF199:
 16756 1929 4A4F4652 		.ascii	"JOFR3\000"
 16756      3300
 16757              	.LASF200:
 16758 192f 4A4F4652 		.ascii	"JOFR4\000"
 16758      3400
 16759              	.LASF529:
 16760 1935 44545846 		.ascii	"DTXFSTS\000"
 16760      53545300 
 16761              	.LASF595:
 16762 193d 74787175 		.ascii	"txqueue\000"
 16762      65756500 
 16763              	.LASF668:
 16764 1945 6F74675F 		.ascii	"otg_do_pop\000"
 16764      646F5F70 
 16764      6F7000
 16765              	.LASF530:
 16766 1950 72657376 		.ascii	"resvd1C\000"
 16766      64314300 
 16767              	.LASF47:
 16768 1958 5F666E74 		.ascii	"_fntypes\000"
 16768      79706573 
 16768      00
 16769              	.LASF168:
 16770 1961 725F7072 		.ascii	"r_prio\000"
 16770      696F00
 16771              	.LASF185:
 16772 1968 63685F73 		.ascii	"ch_system_debug\000"
 16772      79737465 
 16772      6D5F6465 
 16772      62756700 
 16773              	.LASF645:
 16774 1978 7573625F 		.ascii	"usb_lld_get_status_out\000"
 16774      6C6C645F 
 16774      6765745F 
 16774      73746174 
 16774      75735F6F 
 16775              	.LASF40:
 16776 198f 5F5F746D 		.ascii	"__tm_year\000"
 16776      5F796561 
 16776      7200
 16777              	.LASF652:
 16778 1999 7573625F 		.ascii	"usb_lld_start\000"
 16778      6C6C645F 
 16778      73746172 
 16778      7400
 16779              	.LASF579:
 16780 19a7 44494550 		.ascii	"DIEPEMPMSK\000"
ARM GAS  /tmp/ccigORce.s 			page 317


 16780      454D504D 
 16780      534B00
 16781              	.LASF290:
 16782 19b2 63665F6F 		.ascii	"cf_off_older\000"
 16782      66665F6F 
 16782      6C646572 
 16782      00
 16783              	.LASF522:
 16784 19bf 72657376 		.ascii	"resvd1c\000"
 16784      64316300 
 16785              	.LASF311:
 16786 19c7 696F5F71 		.ascii	"io_queue_t\000"
 16786      75657565 
 16786      5F7400
 16787              	.LASF513:
 16788 19d2 75736272 		.ascii	"usbreqhandler_t\000"
 16788      65716861 
 16788      6E646C65 
 16788      725F7400 
 16789              	.LASF337:
 16790 19e2 42535252 		.ascii	"BSRR\000"
 16790      00
 16791              	.LASF358:
 16792 19e7 50414C43 		.ascii	"PALConfig\000"
 16792      6F6E6669 
 16792      6700
 16793              	.LASF205:
 16794 19f1 4A445231 		.ascii	"JDR1\000"
 16794      00
 16795              	.LASF206:
 16796 19f6 4A445232 		.ascii	"JDR2\000"
 16796      00
 16797              	.LASF207:
 16798 19fb 4A445233 		.ascii	"JDR3\000"
 16798      00
 16799              	.LASF208:
 16800 1a00 4A445234 		.ascii	"JDR4\000"
 16800      00
 16801              	.LASF598:
 16802 1a05 74787175 		.ascii	"txqueued\000"
 16802      65756564 
 16802      00
 16803              	.LASF541:
 16804 1a0e 47494E54 		.ascii	"GINTSTS\000"
 16804      53545300 
 16805              	.LASF204:
 16806 1a16 4A535152 		.ascii	"JSQR\000"
 16806      00
 16807              	.LASF58:
 16808 1a1b 5F6C6266 		.ascii	"_lbfsize\000"
 16808      73697A65 
 16808      00
 16809              	.LASF661:
 16810 1a24 6F74675F 		.ascii	"otg_fifo_read_to_queue\000"
 16810      6669666F 
 16810      5F726561 
 16810      645F746F 
ARM GAS  /tmp/ccigORce.s 			page 318


 16810      5F717565 
 16811              	.LASF190:
 16812 1a3b 76746C69 		.ascii	"vtlist\000"
 16812      737400
 16813              	.LASF77:
 16814 1a42 5F696E63 		.ascii	"_inc\000"
 16814      00
 16815              	.LASF50:
 16816 1a47 5F696E64 		.ascii	"_ind\000"
 16816      00
 16817              	.LASF634:
 16818 1a4c 7573625F 		.ascii	"usb_lld_clear_in\000"
 16818      6C6C645F 
 16818      636C6561 
 16818      725F696E 
 16818      00
 16819              	.LASF526:
 16820 1a5d 44494550 		.ascii	"DIEPINT\000"
 16820      494E5400 
 16821              	.LASF547:
 16822 1a65 484E5054 		.ascii	"HNPTXSTS\000"
 16822      58535453 
 16822      00
 16823              	.LASF428:
 16824 1a6e 50574D43 		.ascii	"PWMConfig\000"
 16824      6F6E6669 
 16824      6700
 16825              	.LASF52:
 16826 1a78 5F5F7362 		.ascii	"__sbuf\000"
 16826      756600
 16827              	.LASF48:
 16828 1a7f 5F69735F 		.ascii	"_is_cxa\000"
 16828      63786100 
 16829              	.LASF300:
 16830 1a87 6D757465 		.ascii	"mutex_t\000"
 16830      785F7400 
 16831              	.LASF134:
 16832 1a8f 74726566 		.ascii	"trefs_t\000"
 16832      735F7400 
 16833              	.LASF121:
 16834 1a97 5F6E6578 		.ascii	"_nextf\000"
 16834      746600
 16835              	.LASF292:
 16836 1a9e 63665F6F 		.ascii	"cf_off_stklimit\000"
 16836      66665F73 
 16836      746B6C69 
 16836      6D697400 
 16837              	.LASF161:
 16838 1aae 74687265 		.ascii	"threads_list_t\000"
 16838      6164735F 
 16838      6C697374 
 16838      5F7400
 16839              	.LASF623:
 16840 1abd 736F665F 		.ascii	"sof_cb\000"
 16840      636200
 16841              	.LASF473:
 16842 1ac4 73746174 		.ascii	"status\000"
ARM GAS  /tmp/ccigORce.s 			page 319


 16842      757300
 16843              	.LASF587:
 16844 1acb 72657376 		.ascii	"resvdE04\000"
 16844      64453034 
 16844      00
 16845              	.LASF548:
 16846 1ad4 72657376 		.ascii	"resvd30\000"
 16846      64333000 
 16847              	.LASF429:
 16848 1adc 50574D44 		.ascii	"PWMD4\000"
 16848      3400
 16849              	.LASF188:
 16850 1ae2 63685F73 		.ascii	"ch_system\000"
 16850      79737465 
 16850      6D00
 16851              	.LASF549:
 16852 1aec 72657376 		.ascii	"resvd34\000"
 16852      64333400 
 16853              	.LASF80:
 16854 1af4 5F6C6F63 		.ascii	"_locale\000"
 16854      616C6500 
 16855              	.LASF28:
 16856 1afc 5F5F554C 		.ascii	"__ULong\000"
 16856      6F6E6700 
 16857              	.LASF416:
 16858 1b04 70776D73 		.ascii	"pwmstate_t\000"
 16858      74617465 
 16858      5F7400
 16859              	.LASF259:
 16860 1b0f 42445452 		.ascii	"BDTR\000"
 16860      00
 16861              	.LASF676:
 16862 1b14 6F74675F 		.ascii	"otg_ram_reset\000"
 16862      72616D5F 
 16862      72657365 
 16862      7400
 16863              	.LASF129:
 16864 1b22 75696E74 		.ascii	"uint32_t\000"
 16864      33325F74 
 16864      00
 16865              	.LASF481:
 16866 1b2b 75736265 		.ascii	"usbep_t\000"
 16866      705F7400 
 16867              	.LASF246:
 16868 1b33 49325350 		.ascii	"I2SPR\000"
 16868      5200
 16869              	.LASF83:
 16870 1b39 5F726573 		.ascii	"_result\000"
 16870      756C7400 
 16871              	.LASF322:
 16872 1b41 696E7075 		.ascii	"input_queue_t\000"
 16872      745F7175 
 16872      6575655F 
 16872      7400
 16873              	.LASF614:
 16874 1b4f 6F75745F 		.ascii	"out_maxsize\000"
 16874      6D617873 
ARM GAS  /tmp/ccigORce.s 			page 320


 16874      697A6500 
 16875              	.LASF528:
 16876 1b5b 44494550 		.ascii	"DIEPTSIZ\000"
 16876      5453495A 
 16876      00
 16877              	.LASF450:
 16878 1b64 5350495F 		.ascii	"SPI_COMPLETE\000"
 16878      434F4D50 
 16878      4C455445 
 16878      00
 16879              	.LASF584:
 16880 1b71 72657376 		.ascii	"resvd8C0\000"
 16880      64384330 
 16880      00
 16881              	.LASF354:
 16882 1b7a 50464461 		.ascii	"PFData\000"
 16882      746100
 16883              	.LASF17:
 16884 1b81 5F6F6666 		.ascii	"_off_t\000"
 16884      5F7400
 16885              	.LASF662:
 16886 1b88 6669666F 		.ascii	"fifop\000"
 16886      7000
 16887              	.LASF302:
 16888 1b8e 6576656E 		.ascii	"event_listener\000"
 16888      745F6C69 
 16888      7374656E 
 16888      657200
 16889              	.LASF659:
 16890 1b9d 6F74675F 		.ascii	"otg_epin_handler\000"
 16890      6570696E 
 16890      5F68616E 
 16890      646C6572 
 16890      00
 16891              	.LASF663:
 16892 1bae 6E746F67 		.ascii	"ntogo\000"
 16892      6F00
 16893              	.LASF266:
 16894 1bb4 7264796D 		.ascii	"rdymsg\000"
 16894      736700
 16895              	.LASF101:
 16896 1bbb 5F616464 		.ascii	"_add\000"
 16896      00
 16897              	.LASF183:
 16898 1bc0 76745F6C 		.ascii	"vt_lasttime\000"
 16898      61737474 
 16898      696D6500 
 16899              	.LASF399:
 16900 1bcc 4750545F 		.ascii	"GPT_STOP\000"
 16900      53544F50 
 16900      00
 16901              	.LASF9:
 16902 1bd5 73686F72 		.ascii	"short unsigned int\000"
 16902      7420756E 
 16902      7369676E 
 16902      65642069 
 16902      6E7400
ARM GAS  /tmp/ccigORce.s 			page 321


 16903              	.LASF37:
 16904 1be8 5F5F746D 		.ascii	"__tm_hour\000"
 16904      5F686F75 
 16904      7200
 16905              	.LASF568:
 16906 1bf2 44535453 		.ascii	"DSTS\000"
 16906      00
 16907              	.LASF361:
 16908 1bf7 4144435F 		.ascii	"ADC_UNINIT\000"
 16908      554E494E 
 16908      495400
 16909              	.LASF187:
 16910 1c02 63685F73 		.ascii	"ch_system_t\000"
 16910      79737465 
 16910      6D5F7400 
 16911              	.LASF298:
 16912 1c0e 63686465 		.ascii	"chdebug_t\000"
 16912      6275675F 
 16912      7400
 16913              	.LASF451:
 16914 1c18 73706973 		.ascii	"spistate_t\000"
 16914      74617465 
 16914      5F7400
 16915              	.LASF503:
 16916 1c23 5553425F 		.ascii	"USB_EVENT_SUSPEND\000"
 16916      4556454E 
 16916      545F5355 
 16916      5350454E 
 16916      4400
 16917              	.LASF282:
 16918 1c35 63685F73 		.ascii	"ch_size\000"
 16918      697A6500 
 16919              	.LASF117:
 16920 1c3d 5F6D6273 		.ascii	"_mbsrtowcs_state\000"
 16920      72746F77 
 16920      63735F73 
 16920      74617465 
 16920      00
 16921              	.LASF323:
 16922 1c4e 6F757470 		.ascii	"output_queue_t\000"
 16922      75745F71 
 16922      75657565 
 16922      5F7400
 16923              	.LASF467:
 16924 1c5d 6F75745F 		.ascii	"out_params\000"
 16924      70617261 
 16924      6D7300
 16925              	.LASF665:
 16926 1c68 6E773265 		.ascii	"nw2end\000"
 16926      6E6400
 16927              	.LASF488:
 16928 1c6f 45505F53 		.ascii	"EP_STATUS_DISABLED\000"
 16928      54415455 
 16928      535F4449 
 16928      5341424C 
 16928      454400
 16929              	.LASF10:
ARM GAS  /tmp/ccigORce.s 			page 322


 16930 1c82 5F5F696E 		.ascii	"__int32_t\000"
 16930      7433325F 
 16930      7400
 16931              	.LASF431:
 16932 1c8c 53445F53 		.ascii	"SD_STOP\000"
 16932      544F5000 
 16933              	.LASF680:
 16934 1c94 6F74675F 		.ascii	"otg_disable_ep\000"
 16934      64697361 
 16934      626C655F 
 16934      657000
 16935              	.LASF559:
 16936 1ca3 48505458 		.ascii	"HPTXSTS\000"
 16936      53545300 
 16937              	.LASF210:
 16938 1cab 4E445452 		.ascii	"NDTR\000"
 16938      00
 16939              	.LASF325:
 16940 1cb0 69666372 		.ascii	"ifcr\000"
 16940      00
 16941              	.LASF551:
 16942 1cb5 72657376 		.ascii	"resvd58\000"
 16942      64353800 
 16943              	.LASF497:
 16944 1cbd 5553425F 		.ascii	"USB_EP0_SENDING_STS\000"
 16944      4550305F 
 16944      53454E44 
 16944      494E475F 
 16944      53545300 
 16945              	.LASF564:
 16946 1cd1 72657376 		.ascii	"resvd444\000"
 16946      64343434 
 16946      00
 16947              	.LASF172:
 16948 1cda 725F6375 		.ascii	"r_current\000"
 16948      7272656E 
 16948      7400
 16949              	.LASF45:
 16950 1ce4 5F666E61 		.ascii	"_fnargs\000"
 16950      72677300 
 16951              	.LASF556:
 16952 1cec 48464952 		.ascii	"HFIR\000"
 16952      00
 16953              	.LASF43:
 16954 1cf1 5F5F746D 		.ascii	"__tm_isdst\000"
 16954      5F697364 
 16954      737400
 16955              	.LASF495:
 16956 1cfc 5553425F 		.ascii	"USB_EP0_WAITING_STS\000"
 16956      4550305F 
 16956      57414954 
 16956      494E475F 
 16956      53545300 
 16957              	.LASF149:
 16958 1d10 705F6E61 		.ascii	"p_name\000"
 16958      6D6500
 16959              	.LASF674:
ARM GAS  /tmp/ccigORce.s 			page 323


 16960 1d17 6E657874 		.ascii	"next\000"
 16960      00
 16961              	.LASF279:
 16962 1d1c 6D5F6E65 		.ascii	"m_next\000"
 16962      787400
 16963              	.LASF477:
 16964 1d23 706D6E65 		.ascii	"pmnext\000"
 16964      787400
 16965              	.LASF672:
 16966 1d2a 6F74675F 		.ascii	"otg_ram_alloc\000"
 16966      72616D5F 
 16966      616C6C6F 
 16966      6300
 16967              	.LASF36:
 16968 1d38 5F5F746D 		.ascii	"__tm_min\000"
 16968      5F6D696E 
 16968      00
 16969              	.LASF456:
 16970 1d41 7478646D 		.ascii	"txdmamode\000"
 16970      616D6F64 
 16970      6500
 16971              	.LASF539:
 16972 1d4b 47555342 		.ascii	"GUSBCFG\000"
 16972      43464700 
 16973              	.LASF114:
 16974 1d53 5F676574 		.ascii	"_getdate_err\000"
 16974      64617465 
 16974      5F657272 
 16974      00
 16975              	.LASF406:
 16976 1d60 67707463 		.ascii	"gptcallback_t\000"
 16976      616C6C62 
 16976      61636B5F 
 16976      7400
 16977              	.LASF496:
 16978 1d6e 5553425F 		.ascii	"USB_EP0_RX\000"
 16978      4550305F 
 16978      525800
 16979              	.LASF554:
 16980 1d79 72657376 		.ascii	"resvd140\000"
 16980      64313430 
 16980      00
 16981              	.LASF270:
 16982 1d82 77747365 		.ascii	"wtsemp\000"
 16982      6D7000
 16983              	.LASF155:
 16984 1d89 705F6D73 		.ascii	"p_msg\000"
 16984      6700
 16985              	.LASF304:
 16986 1d8f 656C5F6C 		.ascii	"el_listener\000"
 16986      69737465 
 16986      6E657200 
 16987              	.LASF355:
 16988 1d9b 50474461 		.ascii	"PGData\000"
 16988      746100
 16989              	.LASF396:
 16990 1da2 41444343 		.ascii	"ADCConfig\000"
ARM GAS  /tmp/ccigORce.s 			page 324


 16990      6F6E6669 
 16990      6700
 16991              	.LASF150:
 16992 1dac 705F7374 		.ascii	"p_state\000"
 16992      61746500 
 16993              		.ident	"GCC: (GNU Tools for ARM Embedded Processors) 6.2.1 20161205 (release) [ARM/embedded-6-bran
ARM GAS  /tmp/ccigORce.s 			page 325


DEFINED SYMBOLS
                            *ABS*:0000000000000000 usb_lld.c
     /tmp/ccigORce.s:16     .text.usb_lld_pump:0000000000000000 $t
     /tmp/ccigORce.s:24     .text.usb_lld_pump:0000000000000000 usb_lld_pump
     /tmp/ccigORce.s:789    .text.usb_lld_pump:00000000000002a8 $d
     /tmp/ccigORce.s:802    .text.usb_lld_pump:00000000000002b0 $t
     /tmp/ccigORce.s:1073   .text.otg_disable_ep.isra.0:0000000000000000 $t
     /tmp/ccigORce.s:1080   .text.otg_disable_ep.isra.0:0000000000000000 otg_disable_ep.isra.0
     /tmp/ccigORce.s:1168   .text.usb_lld_init:0000000000000000 $t
     /tmp/ccigORce.s:1176   .text.usb_lld_init:0000000000000000 usb_lld_init
     /tmp/ccigORce.s:1209   .text.usb_lld_init:000000000000001c $d
     /tmp/ccigORce.s:1215   .text.usb_lld_start:0000000000000000 $t
     /tmp/ccigORce.s:1223   .text.usb_lld_start:0000000000000000 usb_lld_start
     /tmp/ccigORce.s:1421   .text.usb_lld_start:00000000000000d0 $d
     /tmp/ccigORce.s:1430   .text.usb_lld_stop:0000000000000000 $t
     /tmp/ccigORce.s:1438   .text.usb_lld_stop:0000000000000000 usb_lld_stop
     /tmp/ccigORce.s:1480   .text.usb_lld_reset:0000000000000000 $t
     /tmp/ccigORce.s:1488   .text.usb_lld_reset:0000000000000000 usb_lld_reset
     /tmp/ccigORce.s:1666   .text.usb_lld_reset:00000000000000bc $d
     /tmp/ccigORce.s:1672   .text.usb_lld_set_address:0000000000000000 $t
     /tmp/ccigORce.s:1680   .text.usb_lld_set_address:0000000000000000 usb_lld_set_address
     /tmp/ccigORce.s:1702   .text.usb_lld_init_endpoint:0000000000000000 $t
     /tmp/ccigORce.s:1710   .text.usb_lld_init_endpoint:0000000000000000 usb_lld_init_endpoint
     /tmp/ccigORce.s:1953   .text.usb_lld_init_endpoint:0000000000000150 $d
     /tmp/ccigORce.s:1962   .text.usb_lld_disable_endpoints:0000000000000000 $t
     /tmp/ccigORce.s:1970   .text.usb_lld_disable_endpoints:0000000000000000 usb_lld_disable_endpoints
     /tmp/ccigORce.s:2004   .text.usb_lld_get_status_out:0000000000000000 $t
     /tmp/ccigORce.s:2012   .text.usb_lld_get_status_out:0000000000000000 usb_lld_get_status_out
     /tmp/ccigORce.s:2044   .text.usb_lld_get_status_in:0000000000000000 $t
     /tmp/ccigORce.s:2052   .text.usb_lld_get_status_in:0000000000000000 usb_lld_get_status_in
     /tmp/ccigORce.s:2084   .text.usb_lld_read_setup:0000000000000000 $t
     /tmp/ccigORce.s:2092   .text.usb_lld_read_setup:0000000000000000 usb_lld_read_setup
     /tmp/ccigORce.s:2114   .text.usb_lld_prepare_receive:0000000000000000 $t
     /tmp/ccigORce.s:2122   .text.usb_lld_prepare_receive:0000000000000000 usb_lld_prepare_receive
     /tmp/ccigORce.s:2186   .text.usb_lld_prepare_receive:000000000000003c $d
     /tmp/ccigORce.s:2191   .text.otg_epout_handler.constprop.7:0000000000000000 $t
     /tmp/ccigORce.s:2198   .text.otg_epout_handler.constprop.7:0000000000000000 otg_epout_handler.constprop.7
     /tmp/ccigORce.s:2361   .text.otg_epout_handler.constprop.7:000000000000009c $d
     /tmp/ccigORce.s:2372   .text.usb_lld_prepare_transmit:0000000000000000 $t
     /tmp/ccigORce.s:2380   .text.usb_lld_prepare_transmit:0000000000000000 usb_lld_prepare_transmit
     /tmp/ccigORce.s:2463   .text.otg_epin_handler.constprop.8:0000000000000000 $t
     /tmp/ccigORce.s:2470   .text.otg_epin_handler.constprop.8:0000000000000000 otg_epin_handler.constprop.8
     /tmp/ccigORce.s:2702   .text.otg_epin_handler.constprop.8:00000000000000cc $d
     /tmp/ccigORce.s:2709   .text.Vector14C:0000000000000000 $t
     /tmp/ccigORce.s:2717   .text.Vector14C:0000000000000000 Vector14C
     /tmp/ccigORce.s:2992   .text.Vector14C:00000000000000ec $d
     /tmp/ccigORce.s:3000   .text.usb_lld_start_out:0000000000000000 $t
     /tmp/ccigORce.s:3008   .text.usb_lld_start_out:0000000000000000 usb_lld_start_out
     /tmp/ccigORce.s:3028   .text.usb_lld_start_in:0000000000000000 $t
     /tmp/ccigORce.s:3036   .text.usb_lld_start_in:0000000000000000 usb_lld_start_in
     /tmp/ccigORce.s:3075   .text.usb_lld_stall_out:0000000000000000 $t
     /tmp/ccigORce.s:3083   .text.usb_lld_stall_out:0000000000000000 usb_lld_stall_out
     /tmp/ccigORce.s:3103   .text.usb_lld_stall_in:0000000000000000 $t
     /tmp/ccigORce.s:3111   .text.usb_lld_stall_in:0000000000000000 usb_lld_stall_in
     /tmp/ccigORce.s:3131   .text.usb_lld_clear_out:0000000000000000 $t
     /tmp/ccigORce.s:3139   .text.usb_lld_clear_out:0000000000000000 usb_lld_clear_out
     /tmp/ccigORce.s:3159   .text.usb_lld_clear_in:0000000000000000 $t
ARM GAS  /tmp/ccigORce.s 			page 326


     /tmp/ccigORce.s:3167   .text.usb_lld_clear_in:0000000000000000 usb_lld_clear_in
     /tmp/ccigORce.s:3192   .bss.USBD1:0000000000000000 USBD1
     /tmp/ccigORce.s:3188   .bss.USBD1:0000000000000000 $d
     /tmp/ccigORce.s:3195   .bss.ep0_state:0000000000000000 $d
     /tmp/ccigORce.s:3198   .bss.ep0_state:0000000000000000 ep0_state
     /tmp/ccigORce.s:3201   .bss.ep0setup_buffer:0000000000000000 $d
     /tmp/ccigORce.s:3204   .bss.ep0setup_buffer:0000000000000000 ep0setup_buffer
     /tmp/ccigORce.s:3207   .rodata.ep0config:0000000000000000 $d
     /tmp/ccigORce.s:3211   .rodata.ep0config:0000000000000000 ep0config
     /tmp/ccigORce.s:3224   .rodata.fsparams:0000000000000000 $d
     /tmp/ccigORce.s:3228   .rodata.fsparams:0000000000000000 fsparams
     /tmp/ccigORce.s:3233   .rodata.usb_lld_pump.str1.4:0000000000000000 $d
                     .debug_frame:0000000000000010 $d

UNDEFINED SYMBOLS
chThdSuspendS
chThdDequeueAllI
chSchRescheduleS
ch
usbObjectInit
chSysPolledDelayX
nvicEnableVector
chThdCreateI
chSchReadyI
chThdResumeI
_port_irq_epilogue
_usb_reset
_usb_ep0setup
_usb_ep0in
_usb_ep0out
