ARM GAS  /tmp/ccSmHcO3.s 			page 1


   1              		.cpu cortex-m4
   2              		.eabi_attribute 20, 1
   3              		.eabi_attribute 21, 1
   4              		.eabi_attribute 23, 3
   5              		.eabi_attribute 24, 1
   6              		.eabi_attribute 25, 1
   7              		.eabi_attribute 26, 1
   8              		.eabi_attribute 30, 2
   9              		.eabi_attribute 34, 1
  10              		.eabi_attribute 18, 4
  11              		.file	"usbcfg.c"
  12              		.text
  13              	.Ltext0:
  14              		.cfi_sections	.debug_frame
  15              		.section	.text.get_descriptor,"ax",%progbits
  16              		.align	1
  17              		.p2align 4,,15
  18              		.syntax unified
  19              		.thumb
  20              		.thumb_func
  21              		.fpu softvfp
  22              		.type	get_descriptor, %function
  23              	get_descriptor:
  24              	.LFB258:
  25              		.file 1 "usbcfg.c"
  26              		.loc 1 198 0
  27              		.cfi_startproc
  28              		@ args = 0, pretend = 0, frame = 0
  29              		@ frame_needed = 0, uses_anonymous_args = 0
  30              		@ link register save eliminated.
  31              	.LVL0:
  32              		.loc 1 202 0
  33 0000 0229     		cmp	r1, #2
  34 0002 06D0     		beq	.L3
  35 0004 0329     		cmp	r1, #3
  36 0006 06D0     		beq	.L4
  37 0008 0129     		cmp	r1, #1
  38              		.loc 1 211 0
  39 000a 0648     		ldr	r0, .L9
  40              	.LVL1:
  41 000c 18BF     		it	ne
  42 000e 0020     		movne	r0, #0
  43 0010 7047     		bx	lr
  44              	.LVL2:
  45              	.L3:
  46              		.loc 1 206 0
  47 0012 0548     		ldr	r0, .L9+4
  48              	.LVL3:
  49 0014 7047     		bx	lr
  50              	.LVL4:
  51              	.L4:
  52              		.loc 1 208 0
  53 0016 032A     		cmp	r2, #3
  54              		.loc 1 209 0
  55 0018 9ABF     		itte	ls
  56 001a 0448     		ldrls	r0, .L9+8
  57              	.LVL5:
ARM GAS  /tmp/ccSmHcO3.s 			page 2


  58 001c 00EBC200 		addls	r0, r0, r2, lsl #3
  59              		.loc 1 211 0
  60 0020 0020     		movhi	r0, #0
  61              		.loc 1 212 0
  62 0022 7047     		bx	lr
  63              	.L10:
  64              		.align	2
  65              	.L9:
  66 0024 00000000 		.word	.LANCHOR0
  67 0028 00000000 		.word	.LANCHOR1
  68 002c 00000000 		.word	.LANCHOR2
  69              		.cfi_endproc
  70              	.LFE258:
  71              		.size	get_descriptor, .-get_descriptor
  72              		.section	.text.usb_event,"ax",%progbits
  73              		.align	1
  74              		.p2align 4,,15
  75              		.syntax unified
  76              		.thumb
  77              		.thumb_func
  78              		.fpu softvfp
  79              		.type	usb_event, %function
  80              	usb_event:
  81              	.LFB259:
  82              		.loc 1 264 0
  83              		.cfi_startproc
  84              		@ args = 0, pretend = 0, frame = 0
  85              		@ frame_needed = 0, uses_anonymous_args = 0
  86              	.LVL6:
  87              		.loc 1 267 0
  88 0000 0229     		cmp	r1, #2
  89 0002 15D1     		bne	.L15
  90              		.loc 1 264 0
  91 0004 38B5     		push	{r3, r4, r5, lr}
  92              		.cfi_def_cfa_offset 16
  93              		.cfi_offset 3, -16
  94              		.cfi_offset 4, -12
  95              		.cfi_offset 5, -8
  96              		.cfi_offset 14, -4
  97 0006 0546     		mov	r5, r0
  98 0008 0C46     		mov	r4, r1
  99              	.LVL7:
 100              	.LBB58:
 101              	.LBB59:
 102              	.LBB60:
 103              	.LBB61:
 104              	.LBB62:
 105              	.LBB63:
 106              	.LBB64:
 107              		.file 2 "/home/selim/working/ChibiOS/os/ext/CMSIS/include/core_cmFunc.h"
 108              		.loc 2 546 0
 109 000a 2023     		movs	r3, #32
 110              		.syntax unified
 111              	@ 546 "/home/selim/working/ChibiOS/os/ext/CMSIS/include/core_cmFunc.h" 1
 112 000c 83F31188 		MSR basepri, r3
 113              	@ 0 "" 2
 114              	.LVL8:
ARM GAS  /tmp/ccSmHcO3.s 			page 3


 115              		.thumb
 116              		.syntax unified
 117              	.LBE64:
 118              	.LBE63:
 119              	.LBE62:
 120              	.LBE61:
 121              	.LBE60:
 122              		.loc 1 278 0
 123 0010 084A     		ldr	r2, .L18
 124 0012 0121     		movs	r1, #1
 125              	.LVL9:
 126 0014 FFF7FEFF 		bl	usbInitEndpointI
 127              	.LVL10:
 128              		.loc 1 279 0
 129 0018 2146     		mov	r1, r4
 130 001a 2846     		mov	r0, r5
 131 001c 064A     		ldr	r2, .L18+4
 132 001e FFF7FEFF 		bl	usbInitEndpointI
 133              	.LVL11:
 134              		.loc 1 282 0
 135 0022 0648     		ldr	r0, .L18+8
 136 0024 FFF7FEFF 		bl	sduConfigureHookI
 137              	.LVL12:
 138              	.LBB65:
 139              	.LBB66:
 140              	.LBB67:
 141              	.LBB68:
 142              	.LBB69:
 143              		.loc 2 546 0
 144 0028 0023     		movs	r3, #0
 145              		.syntax unified
 146              	@ 546 "/home/selim/working/ChibiOS/os/ext/CMSIS/include/core_cmFunc.h" 1
 147 002a 83F31188 		MSR basepri, r3
 148              	@ 0 "" 2
 149              	.LVL13:
 150              		.thumb
 151              		.syntax unified
 152 002e 38BD     		pop	{r3, r4, r5, pc}
 153              	.LVL14:
 154              	.L15:
 155              		.cfi_def_cfa_offset 0
 156              		.cfi_restore 3
 157              		.cfi_restore 4
 158              		.cfi_restore 5
 159              		.cfi_restore 14
 160 0030 7047     		bx	lr
 161              	.L19:
 162 0032 00BF     		.align	2
 163              	.L18:
 164 0034 00000000 		.word	.LANCHOR3
 165 0038 00000000 		.word	.LANCHOR4
 166 003c 00000000 		.word	SDU1
 167              	.LBE69:
 168              	.LBE68:
 169              	.LBE67:
 170              	.LBE66:
 171              	.LBE65:
ARM GAS  /tmp/ccSmHcO3.s 			page 4


 172              	.LBE59:
 173              	.LBE58:
 174              		.cfi_endproc
 175              	.LFE259:
 176              		.size	usb_event, .-usb_event
 177              		.global	serusbcfg
 178              		.global	usbcfg
 179              		.section	.bss.ep1instate,"aw",%nobits
 180              		.align	2
 181              		.type	ep1instate, %object
 182              		.size	ep1instate, 20
 183              	ep1instate:
 184 0000 00000000 		.space	20
 184      00000000 
 184      00000000 
 184      00000000 
 184      00000000 
 185              		.section	.bss.ep1outstate,"aw",%nobits
 186              		.align	2
 187              		.type	ep1outstate, %object
 188              		.size	ep1outstate, 20
 189              	ep1outstate:
 190 0000 00000000 		.space	20
 190      00000000 
 190      00000000 
 190      00000000 
 190      00000000 
 191              		.section	.bss.ep2instate,"aw",%nobits
 192              		.align	2
 193              		.type	ep2instate, %object
 194              		.size	ep2instate, 20
 195              	ep2instate:
 196 0000 00000000 		.space	20
 196      00000000 
 196      00000000 
 196      00000000 
 196      00000000 
 197              		.section	.rodata.ep1config,"a",%progbits
 198              		.align	2
 199              		.set	.LANCHOR3,. + 0
 200              		.type	ep1config, %object
 201              		.size	ep1config, 36
 202              	ep1config:
 203 0000 02000000 		.word	2
 204 0004 00000000 		.word	0
 205 0008 00000000 		.word	sduDataTransmitted
 206 000c 00000000 		.word	sduDataReceived
 207 0010 4000     		.short	64
 208 0012 4000     		.short	64
 209 0014 00000000 		.word	ep1instate
 210 0018 00000000 		.word	ep1outstate
 211 001c 0200     		.short	2
 212 001e 0000     		.space	2
 213 0020 00000000 		.word	0
 214              		.section	.rodata.ep2config,"a",%progbits
 215              		.align	2
 216              		.set	.LANCHOR4,. + 0
ARM GAS  /tmp/ccSmHcO3.s 			page 5


 217              		.type	ep2config, %object
 218              		.size	ep2config, 36
 219              	ep2config:
 220 0000 03000000 		.word	3
 221 0004 00000000 		.word	0
 222 0008 00000000 		.word	sduInterruptTransmitted
 223 000c 00000000 		.word	0
 224 0010 1000     		.short	16
 225 0012 0000     		.short	0
 226 0014 00000000 		.word	ep2instate
 227 0018 00000000 		.word	0
 228 001c 0100     		.short	1
 229 001e 0000     		.space	2
 230 0020 00000000 		.word	0
 231              		.section	.rodata.serusbcfg,"a",%progbits
 232              		.align	2
 233              		.type	serusbcfg, %object
 234              		.size	serusbcfg, 8
 235              	serusbcfg:
 236 0000 00000000 		.word	USBD1
 237 0004 01       		.byte	1
 238 0005 01       		.byte	1
 239 0006 02       		.byte	2
 240 0007 00       		.space	1
 241              		.section	.rodata.usbcfg,"a",%progbits
 242              		.align	2
 243              		.type	usbcfg, %object
 244              		.size	usbcfg, 16
 245              	usbcfg:
 246 0000 00000000 		.word	usb_event
 247 0004 00000000 		.word	get_descriptor
 248 0008 00000000 		.word	sduRequestsHook
 249 000c 00000000 		.word	0
 250              		.section	.rodata.vcom_configuration_descriptor,"a",%progbits
 251              		.align	2
 252              		.set	.LANCHOR1,. + 0
 253              		.type	vcom_configuration_descriptor, %object
 254              		.size	vcom_configuration_descriptor, 8
 255              	vcom_configuration_descriptor:
 256 0000 43000000 		.word	67
 257 0004 00000000 		.word	vcom_configuration_descriptor_data
 258              		.section	.rodata.vcom_configuration_descriptor_data,"a",%progbits
 259              		.align	2
 260              		.type	vcom_configuration_descriptor_data, %object
 261              		.size	vcom_configuration_descriptor_data, 67
 262              	vcom_configuration_descriptor_data:
 263 0000 09       		.byte	9
 264 0001 02       		.byte	2
 265 0002 43       		.byte	67
 266 0003 00       		.byte	0
 267 0004 02       		.byte	2
 268 0005 01       		.byte	1
 269 0006 00       		.byte	0
 270 0007 C0       		.byte	-64
 271 0008 32       		.byte	50
 272 0009 09       		.byte	9
 273 000a 04       		.byte	4
ARM GAS  /tmp/ccSmHcO3.s 			page 6


 274 000b 00       		.byte	0
 275 000c 00       		.byte	0
 276 000d 01       		.byte	1
 277 000e 02       		.byte	2
 278 000f 02       		.byte	2
 279 0010 01       		.byte	1
 280 0011 00       		.byte	0
 281 0012 05       		.byte	5
 282 0013 24       		.byte	36
 283 0014 00       		.byte	0
 284 0015 10       		.byte	16
 285 0016 01       		.byte	1
 286 0017 05       		.byte	5
 287 0018 24       		.byte	36
 288 0019 01       		.byte	1
 289 001a 00       		.byte	0
 290 001b 01       		.byte	1
 291 001c 04       		.byte	4
 292 001d 24       		.byte	36
 293 001e 02       		.byte	2
 294 001f 02       		.byte	2
 295 0020 05       		.byte	5
 296 0021 24       		.byte	36
 297 0022 06       		.byte	6
 298 0023 00       		.byte	0
 299 0024 01       		.byte	1
 300 0025 07       		.byte	7
 301 0026 05       		.byte	5
 302 0027 82       		.byte	-126
 303 0028 03       		.byte	3
 304 0029 08       		.byte	8
 305 002a 00       		.byte	0
 306 002b FF       		.byte	-1
 307 002c 09       		.byte	9
 308 002d 04       		.byte	4
 309 002e 01       		.byte	1
 310 002f 00       		.byte	0
 311 0030 02       		.byte	2
 312 0031 0A       		.byte	10
 313 0032 00       		.byte	0
 314 0033 00       		.byte	0
 315 0034 00       		.byte	0
 316 0035 07       		.byte	7
 317 0036 05       		.byte	5
 318 0037 01       		.byte	1
 319 0038 02       		.byte	2
 320 0039 40       		.byte	64
 321 003a 00       		.byte	0
 322 003b 00       		.byte	0
 323 003c 07       		.byte	7
 324 003d 05       		.byte	5
 325 003e 81       		.byte	-127
 326 003f 02       		.byte	2
 327 0040 40       		.byte	64
 328 0041 00       		.byte	0
 329 0042 00       		.byte	0
 330              		.section	.rodata.vcom_device_descriptor,"a",%progbits
ARM GAS  /tmp/ccSmHcO3.s 			page 7


 331              		.align	2
 332              		.set	.LANCHOR0,. + 0
 333              		.type	vcom_device_descriptor, %object
 334              		.size	vcom_device_descriptor, 8
 335              	vcom_device_descriptor:
 336 0000 12000000 		.word	18
 337 0004 00000000 		.word	vcom_device_descriptor_data
 338              		.section	.rodata.vcom_device_descriptor_data,"a",%progbits
 339              		.align	2
 340              		.type	vcom_device_descriptor_data, %object
 341              		.size	vcom_device_descriptor_data, 18
 342              	vcom_device_descriptor_data:
 343 0000 12       		.byte	18
 344 0001 01       		.byte	1
 345 0002 10       		.byte	16
 346 0003 01       		.byte	1
 347 0004 02       		.byte	2
 348 0005 00       		.byte	0
 349 0006 00       		.byte	0
 350 0007 40       		.byte	64
 351 0008 83       		.byte	-125
 352 0009 04       		.byte	4
 353 000a 40       		.byte	64
 354 000b 57       		.byte	87
 355 000c 00       		.byte	0
 356 000d 02       		.byte	2
 357 000e 01       		.byte	1
 358 000f 02       		.byte	2
 359 0010 03       		.byte	3
 360 0011 01       		.byte	1
 361              		.section	.rodata.vcom_string0,"a",%progbits
 362              		.align	2
 363              		.type	vcom_string0, %object
 364              		.size	vcom_string0, 4
 365              	vcom_string0:
 366 0000 04       		.byte	4
 367 0001 03       		.byte	3
 368 0002 09       		.byte	9
 369 0003 04       		.byte	4
 370              		.section	.rodata.vcom_string1,"a",%progbits
 371              		.align	2
 372              		.type	vcom_string1, %object
 373              		.size	vcom_string1, 38
 374              	vcom_string1:
 375 0000 26       		.byte	38
 376 0001 03       		.byte	3
 377 0002 53       		.byte	83
 378 0003 00       		.byte	0
 379 0004 54       		.byte	84
 380 0005 00       		.byte	0
 381 0006 4D       		.byte	77
 382 0007 00       		.byte	0
 383 0008 69       		.byte	105
 384 0009 00       		.byte	0
 385 000a 63       		.byte	99
 386 000b 00       		.byte	0
 387 000c 72       		.byte	114
ARM GAS  /tmp/ccSmHcO3.s 			page 8


 388 000d 00       		.byte	0
 389 000e 6F       		.byte	111
 390 000f 00       		.byte	0
 391 0010 65       		.byte	101
 392 0011 00       		.byte	0
 393 0012 6C       		.byte	108
 394 0013 00       		.byte	0
 395 0014 65       		.byte	101
 396 0015 00       		.byte	0
 397 0016 63       		.byte	99
 398 0017 00       		.byte	0
 399 0018 74       		.byte	116
 400 0019 00       		.byte	0
 401 001a 72       		.byte	114
 402 001b 00       		.byte	0
 403 001c 6F       		.byte	111
 404 001d 00       		.byte	0
 405 001e 6E       		.byte	110
 406 001f 00       		.byte	0
 407 0020 69       		.byte	105
 408 0021 00       		.byte	0
 409 0022 63       		.byte	99
 410 0023 00       		.byte	0
 411 0024 73       		.byte	115
 412 0025 00       		.byte	0
 413              		.section	.rodata.vcom_string2,"a",%progbits
 414              		.align	2
 415              		.type	vcom_string2, %object
 416              		.size	vcom_string2, 56
 417              	vcom_string2:
 418 0000 38       		.byte	56
 419 0001 03       		.byte	3
 420 0002 43       		.byte	67
 421 0003 00       		.byte	0
 422 0004 68       		.byte	104
 423 0005 00       		.byte	0
 424 0006 69       		.byte	105
 425 0007 00       		.byte	0
 426 0008 62       		.byte	98
 427 0009 00       		.byte	0
 428 000a 69       		.byte	105
 429 000b 00       		.byte	0
 430 000c 4F       		.byte	79
 431 000d 00       		.byte	0
 432 000e 53       		.byte	83
 433 000f 00       		.byte	0
 434 0010 2F       		.byte	47
 435 0011 00       		.byte	0
 436 0012 52       		.byte	82
 437 0013 00       		.byte	0
 438 0014 54       		.byte	84
 439 0015 00       		.byte	0
 440 0016 20       		.byte	32
 441 0017 00       		.byte	0
 442 0018 56       		.byte	86
 443 0019 00       		.byte	0
 444 001a 69       		.byte	105
ARM GAS  /tmp/ccSmHcO3.s 			page 9


 445 001b 00       		.byte	0
 446 001c 72       		.byte	114
 447 001d 00       		.byte	0
 448 001e 74       		.byte	116
 449 001f 00       		.byte	0
 450 0020 75       		.byte	117
 451 0021 00       		.byte	0
 452 0022 61       		.byte	97
 453 0023 00       		.byte	0
 454 0024 6C       		.byte	108
 455 0025 00       		.byte	0
 456 0026 20       		.byte	32
 457 0027 00       		.byte	0
 458 0028 43       		.byte	67
 459 0029 00       		.byte	0
 460 002a 4F       		.byte	79
 461 002b 00       		.byte	0
 462 002c 4D       		.byte	77
 463 002d 00       		.byte	0
 464 002e 20       		.byte	32
 465 002f 00       		.byte	0
 466 0030 50       		.byte	80
 467 0031 00       		.byte	0
 468 0032 6F       		.byte	111
 469 0033 00       		.byte	0
 470 0034 72       		.byte	114
 471 0035 00       		.byte	0
 472 0036 74       		.byte	116
 473 0037 00       		.byte	0
 474              		.section	.rodata.vcom_string3,"a",%progbits
 475              		.align	2
 476              		.type	vcom_string3, %object
 477              		.size	vcom_string3, 8
 478              	vcom_string3:
 479 0000 08       		.byte	8
 480 0001 03       		.byte	3
 481 0002 33       		.byte	51
 482 0003 00       		.byte	0
 483 0004 30       		.byte	48
 484 0005 00       		.byte	0
 485 0006 30       		.byte	48
 486 0007 00       		.byte	0
 487              		.section	.rodata.vcom_strings,"a",%progbits
 488              		.align	2
 489              		.set	.LANCHOR2,. + 0
 490              		.type	vcom_strings, %object
 491              		.size	vcom_strings, 32
 492              	vcom_strings:
 493 0000 04000000 		.word	4
 494 0004 00000000 		.word	vcom_string0
 495 0008 26000000 		.word	38
 496 000c 00000000 		.word	vcom_string1
 497 0010 38000000 		.word	56
 498 0014 00000000 		.word	vcom_string2
 499 0018 08000000 		.word	8
 500 001c 00000000 		.word	vcom_string3
 501              		.text
ARM GAS  /tmp/ccSmHcO3.s 			page 10


 502              	.Letext0:
 503              		.file 3 "/usr/lib/gcc/arm-none-eabi/6.2.1/include/stddef.h"
 504              		.file 4 "/usr/arm-none-eabi/include/machine/_default_types.h"
 505              		.file 5 "/usr/arm-none-eabi/include/sys/_stdint.h"
 506              		.file 6 "/home/selim/working/ChibiOS/os/rt/ports/ARMCMx/compilers/GCC/chtypes.h"
 507              		.file 7 "/home/selim/working/ChibiOS/os/rt/include/chsystypes.h"
 508              		.file 8 "/home/selim/working/ChibiOS/os/rt/include/chschd.h"
 509              		.file 9 "/home/selim/working/ChibiOS/os/ext/CMSIS/include/core_cm4.h"
 510              		.file 10 "/home/selim/working/ChibiOS/os/ext/CMSIS/ST/system_stm32f4xx.h"
 511              		.file 11 "/home/selim/working/ChibiOS/os/ext/CMSIS/ST/stm32f407xx.h"
 512              		.file 12 "/home/selim/working/ChibiOS/os/rt/ports/ARMCMx/chcore.h"
 513              		.file 13 "/home/selim/working/ChibiOS/os/rt/ports/ARMCMx/chcore_v7m.h"
 514              		.file 14 "/home/selim/working/ChibiOS/os/hal/ports/STM32/LLD/TIMv1/stm32_tim.h"
 515              		.file 15 "/home/selim/working/ChibiOS/os/rt/include/chtm.h"
 516              		.file 16 "/home/selim/working/ChibiOS/os/rt/include/chsem.h"
 517              		.file 17 "/home/selim/working/ChibiOS/os/rt/include/chmtx.h"
 518              		.file 18 "/home/selim/working/ChibiOS/os/rt/include/chregistry.h"
 519              		.file 19 "/home/selim/working/ChibiOS/os/rt/include/chevents.h"
 520              		.file 20 "/home/selim/working/ChibiOS/os/rt/include/chqueues.h"
 521              		.file 21 "/home/selim/working/ChibiOS/os/hal/ports/STM32/STM32F4xx/stm32_dma.h"
 522              		.file 22 "/home/selim/working/ChibiOS/os/hal/ports/STM32/LLD/GPIOv2/pal_lld.h"
 523              		.file 23 "/home/selim/working/ChibiOS/os/hal/include/adc.h"
 524              		.file 24 "/home/selim/working/ChibiOS/os/hal/ports/STM32/STM32F4xx/adc_lld.h"
 525              		.file 25 "/home/selim/working/ChibiOS/os/hal/include/gpt.h"
 526              		.file 26 "/home/selim/working/ChibiOS/os/hal/ports/STM32/LLD/TIMv1/gpt_lld.h"
 527              		.file 27 "/home/selim/working/ChibiOS/os/hal/include/pwm.h"
 528              		.file 28 "/home/selim/working/ChibiOS/os/hal/ports/STM32/LLD/TIMv1/pwm_lld.h"
 529              		.file 29 "/home/selim/working/ChibiOS/os/hal/include/serial.h"
 530              		.file 30 "/home/selim/working/ChibiOS/os/hal/ports/STM32/LLD/USARTv1/serial_lld.h"
 531              		.file 31 "/home/selim/working/ChibiOS/os/hal/include/spi.h"
 532              		.file 32 "/home/selim/working/ChibiOS/os/hal/ports/STM32/LLD/SPIv1/spi_lld.h"
 533              		.file 33 "/home/selim/working/ChibiOS/os/hal/include/usb.h"
 534              		.file 34 "/home/selim/working/ChibiOS/os/hal/ports/STM32/LLD/OTGv1/usb_lld.h"
 535              		.file 35 "/home/selim/working/ChibiOS/os/hal/ports/STM32/LLD/OTGv1/stm32_otg.h"
 536              		.file 36 "/home/selim/working/ChibiOS/os/hal/include/serial_usb.h"
 537              		.file 37 "/home/selim/working/ChibiOS/os/rt/include/chsys.h"