ARM GAS  /tmp/ccmXtELX.s 			page 1


   1              		.syntax unified
   2              		.cpu cortex-m4
   3              		.fpu softvfp
   4              		.eabi_attribute 20, 1
   5              		.eabi_attribute 21, 1
   6              		.eabi_attribute 23, 3
   7              		.eabi_attribute 24, 1
   8              		.eabi_attribute 25, 1
   9              		.eabi_attribute 26, 1
  10              		.eabi_attribute 30, 2
  11              		.eabi_attribute 34, 1
  12              		.eabi_attribute 18, 4
  13              		.thumb
  14              		.syntax unified
  15              		.file	"chmempools.c"
  16              		.text
  17              	.Ltext0:
  18              		.cfi_sections	.debug_frame
  19              		.section	.text.chPoolObjectInit,"ax",%progbits
  20              		.align	2
  21              		.p2align 4,,15
  22              		.global	chPoolObjectInit
  23              		.thumb
  24              		.thumb_func
  25              		.type	chPoolObjectInit, %function
  26              	chPoolObjectInit:
  27              	.LFB227:
  28              		.file 1 "/home/selim/working/ChibiOS/os/rt/src/chmempools.c"
  29              		.loc 1 75 0
  30              		.cfi_startproc
  31              		@ args = 0, pretend = 0, frame = 0
  32              		@ frame_needed = 0, uses_anonymous_args = 0
  33              		@ link register save eliminated.
  34              	.LVL0:
  35              		.loc 1 79 0
  36 0000 0023     		movs	r3, #0
  37              		.loc 1 80 0
  38 0002 4160     		str	r1, [r0, #4]
  39              		.loc 1 81 0
  40 0004 8260     		str	r2, [r0, #8]
  41              		.loc 1 79 0
  42 0006 0360     		str	r3, [r0]
  43 0008 7047     		bx	lr
  44              		.cfi_endproc
  45              	.LFE227:
  46              		.size	chPoolObjectInit, .-chPoolObjectInit
  47 000a 00BF     		.section	.text.chPoolLoadArray,"ax",%progbits
  48              		.align	2
  49              		.p2align 4,,15
  50              		.global	chPoolLoadArray
  51              		.thumb
  52              		.thumb_func
  53              		.type	chPoolLoadArray, %function
  54              	chPoolLoadArray:
  55              	.LFB228:
  56              		.loc 1 97 0
  57              		.cfi_startproc
ARM GAS  /tmp/ccmXtELX.s 			page 2


  58              		@ args = 0, pretend = 0, frame = 0
  59              		@ frame_needed = 0, uses_anonymous_args = 0
  60              		@ link register save eliminated.
  61              	.LVL1:
  62              		.loc 1 101 0
  63 0000 72B1     		cbz	r2, .L9
  64              		.loc 1 97 0
  65 0002 30B4     		push	{r4, r5}
  66              		.cfi_def_cfa_offset 8
  67              		.cfi_offset 4, -8
  68              		.cfi_offset 5, -4
  69              	.LBB77:
  70              	.LBB78:
  71              	.LBB79:
  72              	.LBB80:
  73              	.LBB81:
  74              	.LBB82:
  75              		.file 2 "/home/selim/working/ChibiOS/os/ext/CMSIS/include/core_cmFunc.h"
  76              		.loc 2 546 0
  77 0004 2025     		movs	r5, #32
  78              	.LBE82:
  79              	.LBE81:
  80              	.LBE80:
  81              	.LBE79:
  82              	.LBB86:
  83              	.LBB87:
  84              	.LBB88:
  85              	.LBB89:
  86              	.LBB90:
  87 0006 0024     		movs	r4, #0
  88              	.LVL2:
  89              	.L4:
  90              	.LBE90:
  91              	.LBE89:
  92              	.LBE88:
  93              	.LBE87:
  94              	.LBE86:
  95              	.LBB95:
  96              	.LBB85:
  97              	.LBB84:
  98              	.LBB83:
  99              		.syntax unified
 100              	@ 546 "/home/selim/working/ChibiOS/os/ext/CMSIS/include/core_cmFunc.h" 1
 101 0008 85F31188 		MSR basepri, r5
 102              	@ 0 "" 2
 103              	.LVL3:
 104              		.thumb
 105              		.syntax unified
 106              	.LBE83:
 107              	.LBE84:
 108              	.LBE85:
 109              	.LBE95:
 110              	.LBB96:
 111              	.LBB97:
 112              		.loc 1 177 0
 113 000c 0368     		ldr	r3, [r0]
 114 000e 0B60     		str	r3, [r1]
ARM GAS  /tmp/ccmXtELX.s 			page 3


 115              		.loc 1 178 0
 116 0010 0160     		str	r1, [r0]
 117              	.LVL4:
 118              	.LBE97:
 119              	.LBE96:
 120              	.LBB98:
 121              	.LBB94:
 122              	.LBB93:
 123              	.LBB92:
 124              	.LBB91:
 125              		.loc 2 546 0
 126              		.syntax unified
 127              	@ 546 "/home/selim/working/ChibiOS/os/ext/CMSIS/include/core_cmFunc.h" 1
 128 0012 84F31188 		MSR basepri, r4
 129              	@ 0 "" 2
 130              	.LVL5:
 131              		.thumb
 132              		.syntax unified
 133              	.LBE91:
 134              	.LBE92:
 135              	.LBE93:
 136              	.LBE94:
 137              	.LBE98:
 138              	.LBE78:
 139              	.LBE77:
 140              		.loc 1 104 0
 141 0016 4368     		ldr	r3, [r0, #4]
 142              		.loc 1 101 0
 143 0018 013A     		subs	r2, r2, #1
 144              	.LVL6:
 145              		.loc 1 104 0
 146 001a 1944     		add	r1, r1, r3
 147              	.LVL7:
 148              		.loc 1 101 0
 149 001c F4D1     		bne	.L4
 150              		.loc 1 108 0
 151 001e 30BC     		pop	{r4, r5}
 152              		.cfi_restore 5
 153              		.cfi_restore 4
 154              		.cfi_def_cfa_offset 0
 155              	.LVL8:
 156              	.L9:
 157 0020 7047     		bx	lr
 158              		.cfi_endproc
 159              	.LFE228:
 160              		.size	chPoolLoadArray, .-chPoolLoadArray
 161 0022 00BF     		.section	.text.chPoolAllocI,"ax",%progbits
 162              		.align	2
 163              		.p2align 4,,15
 164              		.global	chPoolAllocI
 165              		.thumb
 166              		.thumb_func
 167              		.type	chPoolAllocI, %function
 168              	chPoolAllocI:
 169              	.LFB229:
 170              		.loc 1 120 0
 171              		.cfi_startproc
ARM GAS  /tmp/ccmXtELX.s 			page 4


 172              		@ args = 0, pretend = 0, frame = 0
 173              		@ frame_needed = 0, uses_anonymous_args = 0
 174              		@ link register save eliminated.
 175              	.LVL9:
 176              		.loc 1 126 0
 177 0000 0368     		ldr	r3, [r0]
 178              	.LVL10:
 179              		.loc 1 128 0
 180 0002 1BB1     		cbz	r3, .L12
 181              		.loc 1 129 0
 182 0004 1A68     		ldr	r2, [r3]
 183 0006 0260     		str	r2, [r0]
 184              	.L13:
 185              		.loc 1 137 0
 186 0008 1846     		mov	r0, r3
 187              	.LVL11:
 188 000a 7047     		bx	lr
 189              	.LVL12:
 190              	.L12:
 191              		.loc 1 131 0
 192 000c 8268     		ldr	r2, [r0, #8]
 193 000e 002A     		cmp	r2, #0
 194 0010 FAD0     		beq	.L13
 195              		.loc 1 132 0
 196 0012 4068     		ldr	r0, [r0, #4]
 197              	.LVL13:
 198 0014 1047     		bx	r2
 199              	.LVL14:
 200              		.cfi_endproc
 201              	.LFE229:
 202              		.size	chPoolAllocI, .-chPoolAllocI
 203 0016 00BF     		.section	.text.chPoolAlloc,"ax",%progbits
 204              		.align	2
 205              		.p2align 4,,15
 206              		.global	chPoolAlloc
 207              		.thumb
 208              		.thumb_func
 209              		.type	chPoolAlloc, %function
 210              	chPoolAlloc:
 211              	.LFB230:
 212              		.loc 1 149 0
 213              		.cfi_startproc
 214              		@ args = 0, pretend = 0, frame = 0
 215              		@ frame_needed = 0, uses_anonymous_args = 0
 216              	.LVL15:
 217 0000 08B5     		push	{r3, lr}
 218              		.cfi_def_cfa_offset 8
 219              		.cfi_offset 3, -8
 220              		.cfi_offset 14, -4
 221              	.LBB99:
 222              	.LBB100:
 223              	.LBB101:
 224              	.LBB102:
 225              		.loc 2 546 0
 226 0002 2022     		movs	r2, #32
 227              	.LBE102:
 228              	.LBE101:
ARM GAS  /tmp/ccmXtELX.s 			page 5


 229              	.LBE100:
 230              	.LBE99:
 231              		.loc 1 149 0
 232 0004 0346     		mov	r3, r0
 233              	.LBB106:
 234              	.LBB105:
 235              	.LBB104:
 236              	.LBB103:
 237              		.loc 2 546 0
 238              		.syntax unified
 239              	@ 546 "/home/selim/working/ChibiOS/os/ext/CMSIS/include/core_cmFunc.h" 1
 240 0006 82F31188 		MSR basepri, r2
 241              	@ 0 "" 2
 242              	.LVL16:
 243              		.thumb
 244              		.syntax unified
 245              	.LBE103:
 246              	.LBE104:
 247              	.LBE105:
 248              	.LBE106:
 249              	.LBB107:
 250              	.LBB108:
 251              		.loc 1 126 0
 252 000a 0068     		ldr	r0, [r0]
 253              	.LVL17:
 254              		.loc 1 128 0
 255 000c 28B1     		cbz	r0, .L18
 256              		.loc 1 129 0
 257 000e 0268     		ldr	r2, [r0]
 258 0010 1A60     		str	r2, [r3]
 259              	.L19:
 260              	.LVL18:
 261              	.LBE108:
 262              	.LBE107:
 263              	.LBB110:
 264              	.LBB111:
 265              	.LBB112:
 266              	.LBB113:
 267              	.LBB114:
 268              		.loc 2 546 0
 269 0012 0023     		movs	r3, #0
 270              	.LVL19:
 271              		.syntax unified
 272              	@ 546 "/home/selim/working/ChibiOS/os/ext/CMSIS/include/core_cmFunc.h" 1
 273 0014 83F31188 		MSR basepri, r3
 274              	@ 0 "" 2
 275              	.LVL20:
 276              		.thumb
 277              		.syntax unified
 278              	.LBE114:
 279              	.LBE113:
 280              	.LBE112:
 281              	.LBE111:
 282              	.LBE110:
 283              		.loc 1 157 0
 284 0018 08BD     		pop	{r3, pc}
 285              	.LVL21:
ARM GAS  /tmp/ccmXtELX.s 			page 6


 286              	.L18:
 287              	.LBB119:
 288              	.LBB109:
 289              		.loc 1 131 0
 290 001a 9A68     		ldr	r2, [r3, #8]
 291 001c 002A     		cmp	r2, #0
 292 001e F8D0     		beq	.L19
 293              		.loc 1 132 0
 294 0020 5868     		ldr	r0, [r3, #4]
 295              	.LVL22:
 296 0022 9047     		blx	r2
 297              	.LVL23:
 298              	.LBE109:
 299              	.LBE119:
 300              	.LBB120:
 301              	.LBB118:
 302              	.LBB117:
 303              	.LBB116:
 304              	.LBB115:
 305              		.loc 2 546 0
 306 0024 0023     		movs	r3, #0
 307              		.syntax unified
 308              	@ 546 "/home/selim/working/ChibiOS/os/ext/CMSIS/include/core_cmFunc.h" 1
 309 0026 83F31188 		MSR basepri, r3
 310              	@ 0 "" 2
 311              	.LVL24:
 312              		.thumb
 313              		.syntax unified
 314              	.LBE115:
 315              	.LBE116:
 316              	.LBE117:
 317              	.LBE118:
 318              	.LBE120:
 319              		.loc 1 157 0
 320 002a 08BD     		pop	{r3, pc}
 321              		.cfi_endproc
 322              	.LFE230:
 323              		.size	chPoolAlloc, .-chPoolAlloc
 324              		.section	.text.chPoolFreeI,"ax",%progbits
 325              		.align	2
 326              		.p2align 4,,15
 327              		.global	chPoolFreeI
 328              		.thumb
 329              		.thumb_func
 330              		.type	chPoolFreeI, %function
 331              	chPoolFreeI:
 332              	.LFB231:
 333              		.loc 1 171 0
 334              		.cfi_startproc
 335              		@ args = 0, pretend = 0, frame = 0
 336              		@ frame_needed = 0, uses_anonymous_args = 0
 337              		@ link register save eliminated.
 338              	.LVL25:
 339              		.loc 1 177 0
 340 0000 0368     		ldr	r3, [r0]
 341 0002 0B60     		str	r3, [r1]
 342              		.loc 1 178 0
ARM GAS  /tmp/ccmXtELX.s 			page 7


 343 0004 0160     		str	r1, [r0]
 344 0006 7047     		bx	lr
 345              		.cfi_endproc
 346              	.LFE231:
 347              		.size	chPoolFreeI, .-chPoolFreeI
 348              		.section	.text.chPoolFree,"ax",%progbits
 349              		.align	2
 350              		.p2align 4,,15
 351              		.global	chPoolFree
 352              		.thumb
 353              		.thumb_func
 354              		.type	chPoolFree, %function
 355              	chPoolFree:
 356              	.LFB232:
 357              		.loc 1 193 0
 358              		.cfi_startproc
 359              		@ args = 0, pretend = 0, frame = 0
 360              		@ frame_needed = 0, uses_anonymous_args = 0
 361              		@ link register save eliminated.
 362              	.LVL26:
 363              	.LBB121:
 364              	.LBB122:
 365              	.LBB123:
 366              	.LBB124:
 367              		.loc 2 546 0
 368 0000 2023     		movs	r3, #32
 369              		.syntax unified
 370              	@ 546 "/home/selim/working/ChibiOS/os/ext/CMSIS/include/core_cmFunc.h" 1
 371 0002 83F31188 		MSR basepri, r3
 372              	@ 0 "" 2
 373              	.LVL27:
 374              		.thumb
 375              		.syntax unified
 376              	.LBE124:
 377              	.LBE123:
 378              	.LBE122:
 379              	.LBE121:
 380              	.LBB125:
 381              	.LBB126:
 382              		.loc 1 177 0
 383 0006 0368     		ldr	r3, [r0]
 384 0008 0B60     		str	r3, [r1]
 385              	.LBE126:
 386              	.LBE125:
 387              	.LBB128:
 388              	.LBB129:
 389              	.LBB130:
 390              	.LBB131:
 391              	.LBB132:
 392              		.loc 2 546 0
 393 000a 0023     		movs	r3, #0
 394              	.LBE132:
 395              	.LBE131:
 396              	.LBE130:
 397              	.LBE129:
 398              	.LBE128:
 399              	.LBB137:
ARM GAS  /tmp/ccmXtELX.s 			page 8


 400              	.LBB127:
 401              		.loc 1 178 0
 402 000c 0160     		str	r1, [r0]
 403              	.LVL28:
 404              	.LBE127:
 405              	.LBE137:
 406              	.LBB138:
 407              	.LBB136:
 408              	.LBB135:
 409              	.LBB134:
 410              	.LBB133:
 411              		.loc 2 546 0
 412              		.syntax unified
 413              	@ 546 "/home/selim/working/ChibiOS/os/ext/CMSIS/include/core_cmFunc.h" 1
 414 000e 83F31188 		MSR basepri, r3
 415              	@ 0 "" 2
 416              	.LVL29:
 417              		.thumb
 418              		.syntax unified
 419 0012 7047     		bx	lr
 420              	.LBE133:
 421              	.LBE134:
 422              	.LBE135:
 423              	.LBE136:
 424              	.LBE138:
 425              		.cfi_endproc
 426              	.LFE232:
 427              		.size	chPoolFree, .-chPoolFree
 428              		.text
 429              	.Letext0:
 430              		.file 3 "/usr/lib/gcc/arm-none-eabi/5.4.1/include/stddef.h"
 431              		.file 4 "/usr/arm-none-eabi/include/machine/_default_types.h"
 432              		.file 5 "/usr/arm-none-eabi/include/sys/_stdint.h"
 433              		.file 6 "/home/selim/working/ChibiOS/os/rt/ports/ARMCMx/compilers/GCC/chtypes.h"
 434              		.file 7 "/home/selim/working/ChibiOS/os/rt/include/chsystypes.h"
 435              		.file 8 "/home/selim/working/ChibiOS/os/rt/include/chschd.h"
 436              		.file 9 "/home/selim/working/ChibiOS/os/rt/ports/ARMCMx/chcore.h"
 437              		.file 10 "/home/selim/working/ChibiOS/os/rt/ports/ARMCMx/chcore_v7m.h"
 438              		.file 11 "/home/selim/working/ChibiOS/os/rt/include/chtm.h"
 439              		.file 12 "/home/selim/working/ChibiOS/os/rt/include/chsem.h"
 440              		.file 13 "/home/selim/working/ChibiOS/os/rt/include/chmtx.h"
 441              		.file 14 "/home/selim/working/ChibiOS/os/rt/include/chmemcore.h"
 442              		.file 15 "/home/selim/working/ChibiOS/os/rt/include/chmempools.h"
 443              		.file 16 "/home/selim/working/ChibiOS/os/rt/include/chsys.h"
 444              		.file 17 "/home/selim/working/ChibiOS/os/ext/CMSIS/include/core_cm4.h"