ARM GAS  /tmp/ccmXtELX.s 			page 1


   1              		.syntax unified
   2              		.cpu cortex-m4
   3              		.fpu softvfp
   4              		.eabi_attribute 20, 1
   5              		.eabi_attribute 21, 1
   6              		.eabi_attribute 23, 3
   7              		.eabi_attribute 24, 1
   8              		.eabi_attribute 25, 1
   9              		.eabi_attribute 26, 1
  10              		.eabi_attribute 30, 2
  11              		.eabi_attribute 34, 1
  12              		.eabi_attribute 18, 4
  13              		.thumb
  14              		.syntax unified
  15              		.file	"chmempools.c"
  16              		.text
  17              	.Ltext0:
  18              		.cfi_sections	.debug_frame
  19              		.section	.text.chPoolObjectInit,"ax",%progbits
  20              		.align	2
  21              		.p2align 4,,15
  22              		.global	chPoolObjectInit
  23              		.thumb
  24              		.thumb_func
  25              		.type	chPoolObjectInit, %function
  26              	chPoolObjectInit:
  27              	.LFB227:
  28              		.file 1 "/home/selim/working/ChibiOS/os/rt/src/chmempools.c"
  29              		.loc 1 75 0
  30              		.cfi_startproc
  31              		@ args = 0, pretend = 0, frame = 0
  32              		@ frame_needed = 0, uses_anonymous_args = 0
  33              		@ link register save eliminated.
  34              	.LVL0:
  35              		.loc 1 79 0
  36 0000 0023     		movs	r3, #0
  37              		.loc 1 80 0
  38 0002 4160     		str	r1, [r0, #4]
  39              		.loc 1 81 0
  40 0004 8260     		str	r2, [r0, #8]
  41              		.loc 1 79 0
  42 0006 0360     		str	r3, [r0]
  43 0008 7047     		bx	lr
  44              		.cfi_endproc
  45              	.LFE227:
  46              		.size	chPoolObjectInit, .-chPoolObjectInit
  47 000a 00BF     		.section	.text.chPoolLoadArray,"ax",%progbits
  48              		.align	2
  49              		.p2align 4,,15
  50              		.global	chPoolLoadArray
  51              		.thumb
  52              		.thumb_func
  53              		.type	chPoolLoadArray, %function
  54              	chPoolLoadArray:
  55              	.LFB228:
  56              		.loc 1 97 0
  57              		.cfi_startproc
ARM GAS  /tmp/ccmXtELX.s 			page 2


  58              		@ args = 0, pretend = 0, frame = 0
  59              		@ frame_needed = 0, uses_anonymous_args = 0
  60              		@ link register save eliminated.
  61              	.LVL1:
  62              		.loc 1 101 0
  63 0000 72B1     		cbz	r2, .L9
  64              		.loc 1 97 0
  65 0002 30B4     		push	{r4, r5}
  66              		.cfi_def_cfa_offset 8
  67              		.cfi_offset 4, -8
  68              		.cfi_offset 5, -4
  69              	.LBB77:
  70              	.LBB78:
  71              	.LBB79:
  72              	.LBB80:
  73              	.LBB81:
  74              	.LBB82:
  75              		.file 2 "/home/selim/working/ChibiOS/os/ext/CMSIS/include/core_cmFunc.h"
  76              		.loc 2 546 0
  77 0004 2025     		movs	r5, #32
  78              	.LBE82:
  79              	.LBE81:
  80              	.LBE80:
  81              	.LBE79:
  82              	.LBB86:
  83              	.LBB87:
  84              	.LBB88:
  85              	.LBB89:
  86              	.LBB90:
  87 0006 0024     		movs	r4, #0
  88              	.LVL2:
  89              	.L4:
  90              	.LBE90:
  91              	.LBE89:
  92              	.LBE88:
  93              	.LBE87:
  94              	.LBE86:
  95              	.LBB95:
  96              	.LBB85:
  97              	.LBB84:
  98              	.LBB83:
  99              		.syntax unified
 100              	@ 546 "/home/selim/working/ChibiOS/os/ext/CMSIS/include/core_cmFunc.h" 1
 101 0008 85F31188 		MSR basepri, r5
 102              	@ 0 "" 2
 103              	.LVL3:
 104              		.thumb
 105              		.syntax unified
 106              	.LBE83:
 107              	.LBE84:
 108              	.LBE85:
 109              	.LBE95:
 110              	.LBB96:
 111              	.LBB97:
 112              		.loc 1 177 0
 113 000c 0368     		ldr	r3, [r0]
 114 000e 0B60     		str	r3, [r1]
ARM GAS  /tmp/ccmXtELX.s 			page 3


 115              		.loc 1 178 0
 116 0010 0160     		str	r1, [r0]
 117              	.LVL4:
 118              	.LBE97:
 119              	.LBE96:
 120              	.LBB98:
 121              	.LBB94:
 122              	.LBB93:
 123              	.LBB92:
 124              	.LBB91:
 125              		.loc 2 546 0
 126              		.syntax unified
 127              	@ 546 "/home/selim/working/ChibiOS/os/ext/CMSIS/include/core_cmFunc.h" 1
 128 0012 84F31188 		MSR basepri, r4
 129              	@ 0 "" 2
 130              	.LVL5:
 131              		.thumb
 132              		.syntax unified
 133              	.LBE91:
 134              	.LBE92:
 135              	.LBE93:
 136              	.LBE94:
 137              	.LBE98:
 138              	.LBE78:
 139              	.LBE77:
 140              		.loc 1 104 0
 141 0016 4368     		ldr	r3, [r0, #4]
 142              		.loc 1 101 0
 143 0018 013A     		subs	r2, r2, #1
 144              	.LVL6:
 145              		.loc 1 104 0
 146 001a 1944     		add	r1, r1, r3
 147              	.LVL7:
 148              		.loc 1 101 0
 149 001c F4D1     		bne	.L4
 150              		.loc 1 108 0
 151 001e 30BC     		pop	{r4, r5}
 152              		.cfi_restore 5
 153              		.cfi_restore 4
 154              		.cfi_def_cfa_offset 0
 155              	.LVL8:
 156              	.L9:
 157 0020 7047     		bx	lr
 158              		.cfi_endproc
 159              	.LFE228:
 160              		.size	chPoolLoadArray, .-chPoolLoadArray
 161 0022 00BF     		.section	.text.chPoolAllocI,"ax",%progbits
 162              		.align	2
 163              		.p2align 4,,15
 164              		.global	chPoolAllocI
 165              		.thumb
 166              		.thumb_func
 167              		.type	chPoolAllocI, %function
 168              	chPoolAllocI:
 169              	.LFB229:
 170              		.loc 1 120 0
 171              		.cfi_startproc
ARM GAS  /tmp/ccmXtELX.s 			page 4


 172              		@ args = 0, pretend = 0, frame = 0
 173              		@ frame_needed = 0, uses_anonymous_args = 0
 174              		@ link register save eliminated.
 175              	.LVL9:
 176              		.loc 1 126 0
 177 0000 0368     		ldr	r3, [r0]
 178              	.LVL10:
 179              		.loc 1 128 0
 180 0002 1BB1     		cbz	r3, .L12
 181              		.loc 1 129 0
 182 0004 1A68     		ldr	r2, [r3]
 183 0006 0260     		str	r2, [r0]
 184              	.L13:
 185              		.loc 1 137 0
 186 0008 1846     		mov	r0, r3
 187              	.LVL11:
 188 000a 7047     		bx	lr
 189              	.LVL12:
 190              	.L12:
 191              		.loc 1 131 0
 192 000c 8268     		ldr	r2, [r0, #8]
 193 000e 002A     		cmp	r2, #0
 194 0010 FAD0     		beq	.L13
 195              		.loc 1 132 0
 196 0012 4068     		ldr	r0, [r0, #4]
 197              	.LVL13:
 198 0014 1047     		bx	r2
 199              	.LVL14:
 200              		.cfi_endproc
 201              	.LFE229:
 202              		.size	chPoolAllocI, .-chPoolAllocI
 203 0016 00BF     		.section	.text.chPoolAlloc,"ax",%progbits
 204              		.align	2
 205              		.p2align 4,,15
 206              		.global	chPoolAlloc
 207              		.thumb
 208              		.thumb_func
 209              		.type	chPoolAlloc, %function
 210              	chPoolAlloc:
 211              	.LFB230:
 212              		.loc 1 149 0
 213              		.cfi_startproc
 214              		@ args = 0, pretend = 0, frame = 0
 215              		@ frame_needed = 0, uses_anonymous_args = 0
 216              	.LVL15:
 217 0000 08B5     		push	{r3, lr}
 218              		.cfi_def_cfa_offset 8
 219              		.cfi_offset 3, -8
 220              		.cfi_offset 14, -4
 221              	.LBB99:
 222              	.LBB100:
 223              	.LBB101:
 224              	.LBB102:
 225              		.loc 2 546 0
 226 0002 2022     		movs	r2, #32
 227              	.LBE102:
 228              	.LBE101:
ARM GAS  /tmp/ccmXtELX.s 			page 5


 229              	.LBE100:
 230              	.LBE99:
 231              		.loc 1 149 0
 232 0004 0346     		mov	r3, r0
 233              	.LBB106:
 234              	.LBB105:
 235              	.LBB104:
 236              	.LBB103:
 237              		.loc 2 546 0
 238              		.syntax unified
 239              	@ 546 "/home/selim/working/ChibiOS/os/ext/CMSIS/include/core_cmFunc.h" 1
 240 0006 82F31188 		MSR basepri, r2
 241              	@ 0 "" 2
 242              	.LVL16:
 243              		.thumb
 244              		.syntax unified
 245              	.LBE103:
 246              	.LBE104:
 247              	.LBE105:
 248              	.LBE106:
 249              	.LBB107:
 250              	.LBB108:
 251              		.loc 1 126 0
 252 000a 0068     		ldr	r0, [r0]
 253              	.LVL17:
 254              		.loc 1 128 0
 255 000c 28B1     		cbz	r0, .L18
 256              		.loc 1 129 0
 257 000e 0268     		ldr	r2, [r0]
 258 0010 1A60     		str	r2, [r3]
 259              	.L19:
 260              	.LVL18:
 261              	.LBE108:
 262              	.LBE107:
 263              	.LBB110:
 264              	.LBB111:
 265              	.LBB112:
 266              	.LBB113:
 267              	.LBB114:
 268              		.loc 2 546 0
 269 0012 0023     		movs	r3, #0
 270              	.LVL19:
 271              		.syntax unified
 272              	@ 546 "/home/selim/working/ChibiOS/os/ext/CMSIS/include/core_cmFunc.h" 1
 273 0014 83F31188 		MSR basepri, r3
 274              	@ 0 "" 2
 275              	.LVL20:
 276              		.thumb
 277              		.syntax unified
 278              	.LBE114:
 279              	.LBE113:
 280              	.LBE112:
 281              	.LBE111:
 282              	.LBE110:
 283              		.loc 1 157 0
 284 0018 08BD     		pop	{r3, pc}
 285              	.LVL21:
ARM GAS  /tmp/ccmXtELX.s 			page 6


 286              	.L18:
 287              	.LBB119:
 288              	.LBB109:
 289              		.loc 1 131 0
 290 001a 9A68     		ldr	r2, [r3, #8]
 291 001c 002A     		cmp	r2, #0
 292 001e F8D0     		beq	.L19
 293              		.loc 1 132 0
 294 0020 5868     		ldr	r0, [r3, #4]
 295              	.LVL22:
 296 0022 9047     		blx	r2
 297              	.LVL23:
 298              	.LBE109:
 299              	.LBE119:
 300              	.LBB120:
 301              	.LBB118:
 302              	.LBB117:
 303              	.LBB116:
 304              	.LBB115:
 305              		.loc 2 546 0
 306 0024 0023     		movs	r3, #0
 307              		.syntax unified
 308              	@ 546 "/home/selim/working/ChibiOS/os/ext/CMSIS/include/core_cmFunc.h" 1
 309 0026 83F31188 		MSR basepri, r3
 310              	@ 0 "" 2
 311              	.LVL24:
 312              		.thumb
 313              		.syntax unified
 314              	.LBE115:
 315              	.LBE116:
 316              	.LBE117:
 317              	.LBE118:
 318              	.LBE120:
 319              		.loc 1 157 0
 320 002a 08BD     		pop	{r3, pc}
 321              		.cfi_endproc
 322              	.LFE230:
 323              		.size	chPoolAlloc, .-chPoolAlloc
 324              		.section	.text.chPoolFreeI,"ax",%progbits
 325              		.align	2
 326              		.p2align 4,,15
 327              		.global	chPoolFreeI
 328              		.thumb
 329              		.thumb_func
 330              		.type	chPoolFreeI, %function
 331              	chPoolFreeI:
 332              	.LFB231:
 333              		.loc 1 171 0
 334              		.cfi_startproc
 335              		@ args = 0, pretend = 0, frame = 0
 336              		@ frame_needed = 0, uses_anonymous_args = 0
 337              		@ link register save eliminated.
 338              	.LVL25:
 339              		.loc 1 177 0
 340 0000 0368     		ldr	r3, [r0]
 341 0002 0B60     		str	r3, [r1]
 342              		.loc 1 178 0
ARM GAS  /tmp/ccmXtELX.s 			page 7


 343 0004 0160     		str	r1, [r0]
 344 0006 7047     		bx	lr
 345              		.cfi_endproc
 346              	.LFE231:
 347              		.size	chPoolFreeI, .-chPoolFreeI
 348              		.section	.text.chPoolFree,"ax",%progbits
 349              		.align	2
 350              		.p2align 4,,15
 351              		.global	chPoolFree
 352              		.thumb
 353              		.thumb_func
 354              		.type	chPoolFree, %function
 355              	chPoolFree:
 356              	.LFB232:
 357              		.loc 1 193 0
 358              		.cfi_startproc
 359              		@ args = 0, pretend = 0, frame = 0
 360              		@ frame_needed = 0, uses_anonymous_args = 0
 361              		@ link register save eliminated.
 362              	.LVL26:
 363              	.LBB121:
 364              	.LBB122:
 365              	.LBB123:
 366              	.LBB124:
 367              		.loc 2 546 0
 368 0000 2023     		movs	r3, #32
 369              		.syntax unified
 370              	@ 546 "/home/selim/working/ChibiOS/os/ext/CMSIS/include/core_cmFunc.h" 1
 371 0002 83F31188 		MSR basepri, r3
 372              	@ 0 "" 2
 373              	.LVL27:
 374              		.thumb
 375              		.syntax unified
 376              	.LBE124:
 377              	.LBE123:
 378              	.LBE122:
 379              	.LBE121:
 380              	.LBB125:
 381              	.LBB126:
 382              		.loc 1 177 0
 383 0006 0368     		ldr	r3, [r0]
 384 0008 0B60     		str	r3, [r1]
 385              	.LBE126:
 386              	.LBE125:
 387              	.LBB128:
 388              	.LBB129:
 389              	.LBB130:
 390              	.LBB131:
 391              	.LBB132:
 392              		.loc 2 546 0
 393 000a 0023     		movs	r3, #0
 394              	.LBE132:
 395              	.LBE131:
 396              	.LBE130:
 397              	.LBE129:
 398              	.LBE128:
 399              	.LBB137:
ARM GAS  /tmp/ccmXtELX.s 			page 8


 400              	.LBB127:
 401              		.loc 1 178 0
 402 000c 0160     		str	r1, [r0]
 403              	.LVL28:
 404              	.LBE127:
 405              	.LBE137:
 406              	.LBB138:
 407              	.LBB136:
 408              	.LBB135:
 409              	.LBB134:
 410              	.LBB133:
 411              		.loc 2 546 0
 412              		.syntax unified
 413              	@ 546 "/home/selim/working/ChibiOS/os/ext/CMSIS/include/core_cmFunc.h" 1
 414 000e 83F31188 		MSR basepri, r3
 415              	@ 0 "" 2
 416              	.LVL29:
 417              		.thumb
 418              		.syntax unified
 419 0012 7047     		bx	lr
 420              	.LBE133:
 421              	.LBE134:
 422              	.LBE135:
 423              	.LBE136:
 424              	.LBE138:
 425              		.cfi_endproc
 426              	.LFE232:
 427              		.size	chPoolFree, .-chPoolFree
 428              		.text
 429              	.Letext0:
 430              		.file 3 "/usr/lib/gcc/arm-none-eabi/5.4.1/include/stddef.h"
 431              		.file 4 "/usr/arm-none-eabi/include/machine/_default_types.h"
 432              		.file 5 "/usr/arm-none-eabi/include/sys/_stdint.h"
 433              		.file 6 "/home/selim/working/ChibiOS/os/rt/ports/ARMCMx/compilers/GCC/chtypes.h"
 434              		.file 7 "/home/selim/working/ChibiOS/os/rt/include/chsystypes.h"
 435              		.file 8 "/home/selim/working/ChibiOS/os/rt/include/chschd.h"
 436              		.file 9 "/home/selim/working/ChibiOS/os/rt/ports/ARMCMx/chcore.h"
 437              		.file 10 "/home/selim/working/ChibiOS/os/rt/ports/ARMCMx/chcore_v7m.h"
 438              		.file 11 "/home/selim/working/ChibiOS/os/rt/include/chtm.h"
 439              		.file 12 "/home/selim/working/ChibiOS/os/rt/include/chsem.h"
 440              		.file 13 "/home/selim/working/ChibiOS/os/rt/include/chmtx.h"
 441              		.file 14 "/home/selim/working/ChibiOS/os/rt/include/chmemcore.h"
 442              		.file 15 "/home/selim/working/ChibiOS/os/rt/include/chmempools.h"
 443              		.file 16 "/home/selim/working/ChibiOS/os/rt/include/chsys.h"
 444              		.file 17 "/home/selim/working/ChibiOS/os/ext/CMSIS/include/core_cm4.h"
 445              		.section	.debug_info,"",%progbits
 446              	.Ldebug_info0:
 447 0000 C80B0000 		.4byte	0xbc8
 448 0004 0400     		.2byte	0x4
 449 0006 00000000 		.4byte	.Ldebug_abbrev0
 450 000a 04       		.byte	0x4
 451 000b 01       		.uleb128 0x1
 452 000c 5C000000 		.4byte	.LASF127
 453 0010 0C       		.byte	0xc
 454 0011 F8050000 		.4byte	.LASF128
 455 0015 A8000000 		.4byte	.Ldebug_ranges0+0xa8
 456 0019 00000000 		.4byte	0
ARM GAS  /tmp/ccmXtELX.s 			page 9


 457 001d 00000000 		.4byte	.Ldebug_line0
 458 0021 02       		.uleb128 0x2
 459 0022 04       		.byte	0x4
 460 0023 05       		.byte	0x5
 461 0024 696E7400 		.ascii	"int\000"
 462 0028 03       		.uleb128 0x3
 463 0029 0D000000 		.4byte	.LASF4
 464 002d 03       		.byte	0x3
 465 002e D8       		.byte	0xd8
 466 002f 33000000 		.4byte	0x33
 467 0033 04       		.uleb128 0x4
 468 0034 04       		.byte	0x4
 469 0035 07       		.byte	0x7
 470 0036 68020000 		.4byte	.LASF0
 471 003a 04       		.uleb128 0x4
 472 003b 08       		.byte	0x8
 473 003c 05       		.byte	0x5
 474 003d A9010000 		.4byte	.LASF1
 475 0041 04       		.uleb128 0x4
 476 0042 08       		.byte	0x8
 477 0043 04       		.byte	0x4
 478 0044 61030000 		.4byte	.LASF2
 479 0048 04       		.uleb128 0x4
 480 0049 01       		.byte	0x1
 481 004a 06       		.byte	0x6
 482 004b B7010000 		.4byte	.LASF3
 483 004f 03       		.uleb128 0x3
 484 0050 24000000 		.4byte	.LASF5
 485 0054 04       		.byte	0x4
 486 0055 1D       		.byte	0x1d
 487 0056 5A000000 		.4byte	0x5a
 488 005a 04       		.uleb128 0x4
 489 005b 01       		.byte	0x1
 490 005c 08       		.byte	0x8
 491 005d 24040000 		.4byte	.LASF6
 492 0061 04       		.uleb128 0x4
 493 0062 02       		.byte	0x2
 494 0063 05       		.byte	0x5
 495 0064 3C040000 		.4byte	.LASF7
 496 0068 04       		.uleb128 0x4
 497 0069 02       		.byte	0x2
 498 006a 07       		.byte	0x7
 499 006b A3020000 		.4byte	.LASF8
 500 006f 03       		.uleb128 0x3
 501 0070 0F030000 		.4byte	.LASF9
 502 0074 04       		.byte	0x4
 503 0075 3F       		.byte	0x3f
 504 0076 7A000000 		.4byte	0x7a
 505 007a 04       		.uleb128 0x4
 506 007b 04       		.byte	0x4
 507 007c 05       		.byte	0x5
 508 007d F6010000 		.4byte	.LASF10
 509 0081 03       		.uleb128 0x3
 510 0082 1A050000 		.4byte	.LASF11
 511 0086 04       		.byte	0x4
 512 0087 41       		.byte	0x41
 513 0088 8C000000 		.4byte	0x8c
ARM GAS  /tmp/ccmXtELX.s 			page 10


 514 008c 04       		.uleb128 0x4
 515 008d 04       		.byte	0x4
 516 008e 07       		.byte	0x7
 517 008f D5040000 		.4byte	.LASF12
 518 0093 03       		.uleb128 0x3
 519 0094 D2030000 		.4byte	.LASF13
 520 0098 04       		.byte	0x4
 521 0099 5B       		.byte	0x5b
 522 009a 9E000000 		.4byte	0x9e
 523 009e 04       		.uleb128 0x4
 524 009f 08       		.byte	0x8
 525 00a0 07       		.byte	0x7
 526 00a1 43010000 		.4byte	.LASF14
 527 00a5 03       		.uleb128 0x3
 528 00a6 93050000 		.4byte	.LASF15
 529 00aa 05       		.byte	0x5
 530 00ab 18       		.byte	0x18
 531 00ac 4F000000 		.4byte	0x4f
 532 00b0 03       		.uleb128 0x3
 533 00b1 1C040000 		.4byte	.LASF16
 534 00b5 05       		.byte	0x5
 535 00b6 2C       		.byte	0x2c
 536 00b7 6F000000 		.4byte	0x6f
 537 00bb 03       		.uleb128 0x3
 538 00bc A4040000 		.4byte	.LASF17
 539 00c0 05       		.byte	0x5
 540 00c1 30       		.byte	0x30
 541 00c2 81000000 		.4byte	0x81
 542 00c6 03       		.uleb128 0x3
 543 00c7 1B000000 		.4byte	.LASF18
 544 00cb 05       		.byte	0x5
 545 00cc 3C       		.byte	0x3c
 546 00cd 93000000 		.4byte	0x93
 547 00d1 05       		.uleb128 0x5
 548 00d2 B0000000 		.4byte	0xb0
 549 00d6 03       		.uleb128 0x3
 550 00d7 5B050000 		.4byte	.LASF19
 551 00db 06       		.byte	0x6
 552 00dc 46       		.byte	0x46
 553 00dd BB000000 		.4byte	0xbb
 554 00e1 03       		.uleb128 0x3
 555 00e2 DC020000 		.4byte	.LASF20
 556 00e6 06       		.byte	0x6
 557 00e7 49       		.byte	0x49
 558 00e8 A5000000 		.4byte	0xa5
 559 00ec 03       		.uleb128 0x3
 560 00ed FF010000 		.4byte	.LASF21
 561 00f1 06       		.byte	0x6
 562 00f2 4A       		.byte	0x4a
 563 00f3 A5000000 		.4byte	0xa5
 564 00f7 03       		.uleb128 0x3
 565 00f8 E5030000 		.4byte	.LASF22
 566 00fc 06       		.byte	0x6
 567 00fd 4B       		.byte	0x4b
 568 00fe A5000000 		.4byte	0xa5
 569 0102 03       		.uleb128 0x3
 570 0103 04040000 		.4byte	.LASF23
ARM GAS  /tmp/ccmXtELX.s 			page 11


 571 0107 06       		.byte	0x6
 572 0108 4D       		.byte	0x4d
 573 0109 BB000000 		.4byte	0xbb
 574 010d 03       		.uleb128 0x3
 575 010e C0020000 		.4byte	.LASF24
 576 0112 06       		.byte	0x6
 577 0113 4E       		.byte	0x4e
 578 0114 B0000000 		.4byte	0xb0
 579 0118 03       		.uleb128 0x3
 580 0119 03030000 		.4byte	.LASF25
 581 011d 06       		.byte	0x6
 582 011e 50       		.byte	0x50
 583 011f BB000000 		.4byte	0xbb
 584 0123 03       		.uleb128 0x3
 585 0124 62020000 		.4byte	.LASF26
 586 0128 06       		.byte	0x6
 587 0129 52       		.byte	0x52
 588 012a B0000000 		.4byte	0xb0
 589 012e 03       		.uleb128 0x3
 590 012f FC040000 		.4byte	.LASF27
 591 0133 07       		.byte	0x7
 592 0134 33       		.byte	0x33
 593 0135 BB000000 		.4byte	0xbb
 594 0139 03       		.uleb128 0x3
 595 013a EC040000 		.4byte	.LASF28
 596 013e 07       		.byte	0x7
 597 013f 3F       		.byte	0x3f
 598 0140 44010000 		.4byte	0x144
 599 0144 06       		.uleb128 0x6
 600 0145 B6020000 		.4byte	.LASF48
 601 0149 44       		.byte	0x44
 602 014a 08       		.byte	0x8
 603 014b C2       		.byte	0xc2
 604 014c 31020000 		.4byte	0x231
 605 0150 07       		.uleb128 0x7
 606 0151 5C040000 		.4byte	.LASF29
 607 0155 08       		.byte	0x8
 608 0156 C3       		.byte	0xc3
 609 0157 3C020000 		.4byte	0x23c
 610 015b 00       		.byte	0
 611 015c 07       		.uleb128 0x7
 612 015d FD030000 		.4byte	.LASF30
 613 0161 08       		.byte	0x8
 614 0162 C5       		.byte	0xc5
 615 0163 3C020000 		.4byte	0x23c
 616 0167 04       		.byte	0x4
 617 0168 07       		.uleb128 0x7
 618 0169 A2010000 		.4byte	.LASF31
 619 016d 08       		.byte	0x8
 620 016e C7       		.byte	0xc7
 621 016f 02010000 		.4byte	0x102
 622 0173 08       		.byte	0x8
 623 0174 07       		.uleb128 0x7
 624 0175 33060000 		.4byte	.LASF32
 625 0179 08       		.byte	0x8
 626 017a C8       		.byte	0xc8
 627 017b 6C040000 		.4byte	0x46c
ARM GAS  /tmp/ccmXtELX.s 			page 12


 628 017f 0C       		.byte	0xc
 629 0180 07       		.uleb128 0x7
 630 0181 10020000 		.4byte	.LASF33
 631 0185 08       		.byte	0x8
 632 0186 CA       		.byte	0xca
 633 0187 3C020000 		.4byte	0x23c
 634 018b 10       		.byte	0x10
 635 018c 07       		.uleb128 0x7
 636 018d 92030000 		.4byte	.LASF34
 637 0191 08       		.byte	0x8
 638 0192 CB       		.byte	0xcb
 639 0193 3C020000 		.4byte	0x23c
 640 0197 14       		.byte	0x14
 641 0198 07       		.uleb128 0x7
 642 0199 B9050000 		.4byte	.LASF35
 643 019d 08       		.byte	0x8
 644 019e D2       		.byte	0xd2
 645 019f EB050000 		.4byte	0x5eb
 646 01a3 18       		.byte	0x18
 647 01a4 07       		.uleb128 0x7
 648 01a5 46040000 		.4byte	.LASF36
 649 01a9 08       		.byte	0x8
 650 01aa DD       		.byte	0xdd
 651 01ab EC000000 		.4byte	0xec
 652 01af 1C       		.byte	0x1c
 653 01b0 07       		.uleb128 0x7
 654 01b1 D4050000 		.4byte	.LASF37
 655 01b5 08       		.byte	0x8
 656 01b6 E1       		.byte	0xe1
 657 01b7 E1000000 		.4byte	0xe1
 658 01bb 1D       		.byte	0x1d
 659 01bc 07       		.uleb128 0x7
 660 01bd 86050000 		.4byte	.LASF38
 661 01c1 08       		.byte	0x8
 662 01c2 E6       		.byte	0xe6
 663 01c3 F7000000 		.4byte	0xf7
 664 01c7 1E       		.byte	0x1e
 665 01c8 08       		.uleb128 0x8
 666 01c9 705F7500 		.ascii	"p_u\000"
 667 01cd 08       		.byte	0x8
 668 01ce 3101     		.2byte	0x131
 669 01d0 26050000 		.4byte	0x526
 670 01d4 20       		.byte	0x20
 671 01d5 09       		.uleb128 0x9
 672 01d6 24030000 		.4byte	.LASF39
 673 01da 08       		.byte	0x8
 674 01db 3601     		.2byte	0x136
 675 01dd 42020000 		.4byte	0x242
 676 01e1 24       		.byte	0x24
 677 01e2 09       		.uleb128 0x9
 678 01e3 84020000 		.4byte	.LASF40
 679 01e7 08       		.byte	0x8
 680 01e8 3C01     		.2byte	0x13c
 681 01ea 66020000 		.4byte	0x266
 682 01ee 28       		.byte	0x28
 683 01ef 09       		.uleb128 0x9
 684 01f0 55050000 		.4byte	.LASF41
ARM GAS  /tmp/ccmXtELX.s 			page 13


 685 01f4 08       		.byte	0x8
 686 01f5 4001     		.2byte	0x140
 687 01f7 0D010000 		.4byte	0x10d
 688 01fb 30       		.byte	0x30
 689 01fc 09       		.uleb128 0x9
 690 01fd 99040000 		.4byte	.LASF42
 691 0201 08       		.byte	0x8
 692 0202 4601     		.2byte	0x146
 693 0204 18010000 		.4byte	0x118
 694 0208 34       		.byte	0x34
 695 0209 09       		.uleb128 0x9
 696 020a 32040000 		.4byte	.LASF43
 697 020e 08       		.byte	0x8
 698 020f 4D01     		.2byte	0x14d
 699 0211 E5050000 		.4byte	0x5e5
 700 0215 38       		.byte	0x38
 701 0216 09       		.uleb128 0x9
 702 0217 06050000 		.4byte	.LASF44
 703 021b 08       		.byte	0x8
 704 021c 5101     		.2byte	0x151
 705 021e 02010000 		.4byte	0x102
 706 0222 3C       		.byte	0x3c
 707 0223 09       		.uleb128 0x9
 708 0224 C3010000 		.4byte	.LASF45
 709 0228 08       		.byte	0x8
 710 0229 5801     		.2byte	0x158
 711 022b 19030000 		.4byte	0x319
 712 022f 40       		.byte	0x40
 713 0230 00       		.byte	0
 714 0231 03       		.uleb128 0x3
 715 0232 37030000 		.4byte	.LASF46
 716 0236 07       		.byte	0x7
 717 0237 44       		.byte	0x44
 718 0238 3C020000 		.4byte	0x23c
 719 023c 0A       		.uleb128 0xa
 720 023d 04       		.byte	0x4
 721 023e 39010000 		.4byte	0x139
 722 0242 03       		.uleb128 0x3
 723 0243 C5050000 		.4byte	.LASF47
 724 0247 07       		.byte	0x7
 725 0248 49       		.byte	0x49
 726 0249 4D020000 		.4byte	0x24d
 727 024d 06       		.uleb128 0x6
 728 024e C5040000 		.4byte	.LASF49
 729 0252 04       		.byte	0x4
 730 0253 08       		.byte	0x8
 731 0254 B0       		.byte	0xb0
 732 0255 66020000 		.4byte	0x266
 733 0259 07       		.uleb128 0x7
 734 025a 5C040000 		.4byte	.LASF29
 735 025e 08       		.byte	0x8
 736 025f B1       		.byte	0xb1
 737 0260 3C020000 		.4byte	0x23c
 738 0264 00       		.byte	0
 739 0265 00       		.byte	0
 740 0266 03       		.uleb128 0x3
 741 0267 6A050000 		.4byte	.LASF50
ARM GAS  /tmp/ccmXtELX.s 			page 14


 742 026b 07       		.byte	0x7
 743 026c 50       		.byte	0x50
 744 026d 71020000 		.4byte	0x271
 745 0271 06       		.uleb128 0x6
 746 0272 91010000 		.4byte	.LASF51
 747 0276 08       		.byte	0x8
 748 0277 08       		.byte	0x8
 749 0278 B7       		.byte	0xb7
 750 0279 96020000 		.4byte	0x296
 751 027d 07       		.uleb128 0x7
 752 027e 5C040000 		.4byte	.LASF29
 753 0282 08       		.byte	0x8
 754 0283 B8       		.byte	0xb8
 755 0284 3C020000 		.4byte	0x23c
 756 0288 00       		.byte	0
 757 0289 07       		.uleb128 0x7
 758 028a FD030000 		.4byte	.LASF30
 759 028e 08       		.byte	0x8
 760 028f B9       		.byte	0xb9
 761 0290 3C020000 		.4byte	0x23c
 762 0294 04       		.byte	0x4
 763 0295 00       		.byte	0
 764 0296 03       		.uleb128 0x3
 765 0297 00000000 		.4byte	.LASF52
 766 029b 07       		.byte	0x7
 767 029c 57       		.byte	0x57
 768 029d A1020000 		.4byte	0x2a1
 769 02a1 0B       		.uleb128 0xb
 770 02a2 F5020000 		.4byte	.LASF53
 771 02a6 1C       		.byte	0x1c
 772 02a7 08       		.byte	0x8
 773 02a8 9001     		.2byte	0x190
 774 02aa FD020000 		.4byte	0x2fd
 775 02ae 09       		.uleb128 0x9
 776 02af B4040000 		.4byte	.LASF54
 777 02b3 08       		.byte	0x8
 778 02b4 9101     		.2byte	0x191
 779 02b6 66020000 		.4byte	0x266
 780 02ba 00       		.byte	0
 781 02bb 09       		.uleb128 0x9
 782 02bc 4E040000 		.4byte	.LASF55
 783 02c0 08       		.byte	0x8
 784 02c1 9201     		.2byte	0x192
 785 02c3 02010000 		.4byte	0x102
 786 02c7 08       		.byte	0x8
 787 02c8 09       		.uleb128 0x9
 788 02c9 9A030000 		.4byte	.LASF56
 789 02cd 08       		.byte	0x8
 790 02ce 9401     		.2byte	0x194
 791 02d0 6C040000 		.4byte	0x46c
 792 02d4 0C       		.byte	0xc
 793 02d5 09       		.uleb128 0x9
 794 02d6 20020000 		.4byte	.LASF57
 795 02da 08       		.byte	0x8
 796 02db 9701     		.2byte	0x197
 797 02dd 3C020000 		.4byte	0x23c
 798 02e1 10       		.byte	0x10
ARM GAS  /tmp/ccmXtELX.s 			page 15


 799 02e2 09       		.uleb128 0x9
 800 02e3 CA030000 		.4byte	.LASF58
 801 02e7 08       		.byte	0x8
 802 02e8 9801     		.2byte	0x198
 803 02ea 3C020000 		.4byte	0x23c
 804 02ee 14       		.byte	0x14
 805 02ef 09       		.uleb128 0x9
 806 02f0 C0030000 		.4byte	.LASF59
 807 02f4 08       		.byte	0x8
 808 02f5 9B01     		.2byte	0x19b
 809 02f7 3C020000 		.4byte	0x23c
 810 02fb 18       		.byte	0x18
 811 02fc 00       		.byte	0
 812 02fd 03       		.uleb128 0x3
 813 02fe 11050000 		.4byte	.LASF60
 814 0302 07       		.byte	0x7
 815 0303 5C       		.byte	0x5c
 816 0304 08030000 		.4byte	0x308
 817 0308 0A       		.uleb128 0xa
 818 0309 04       		.byte	0x4
 819 030a 0E030000 		.4byte	0x30e
 820 030e 0C       		.uleb128 0xc
 821 030f 19030000 		.4byte	0x319
 822 0313 0D       		.uleb128 0xd
 823 0314 19030000 		.4byte	0x319
 824 0318 00       		.byte	0
 825 0319 0E       		.uleb128 0xe
 826 031a 04       		.byte	0x4
 827 031b 03       		.uleb128 0x3
 828 031c ED030000 		.4byte	.LASF61
 829 0320 07       		.byte	0x7
 830 0321 61       		.byte	0x61
 831 0322 26030000 		.4byte	0x326
 832 0326 0B       		.uleb128 0xb
 833 0327 7B040000 		.4byte	.LASF62
 834 032b 14       		.byte	0x14
 835 032c 08       		.byte	0x8
 836 032d 6B01     		.2byte	0x16b
 837 032f 75030000 		.4byte	0x375
 838 0333 09       		.uleb128 0x9
 839 0334 75020000 		.4byte	.LASF63
 840 0338 08       		.byte	0x8
 841 0339 6C01     		.2byte	0x16c
 842 033b FD050000 		.4byte	0x5fd
 843 033f 00       		.byte	0
 844 0340 09       		.uleb128 0x9
 845 0341 3D020000 		.4byte	.LASF64
 846 0345 08       		.byte	0x8
 847 0346 6D01     		.2byte	0x16d
 848 0348 FD050000 		.4byte	0x5fd
 849 034c 04       		.byte	0x4
 850 034d 09       		.uleb128 0x9
 851 034e BC040000 		.4byte	.LASF65
 852 0352 08       		.byte	0x8
 853 0353 6E01     		.2byte	0x16e
 854 0355 2E010000 		.4byte	0x12e
 855 0359 08       		.byte	0x8
ARM GAS  /tmp/ccmXtELX.s 			page 16


 856 035a 09       		.uleb128 0x9
 857 035b 39060000 		.4byte	.LASF66
 858 035f 08       		.byte	0x8
 859 0360 6F01     		.2byte	0x16f
 860 0362 FD020000 		.4byte	0x2fd
 861 0366 0C       		.byte	0xc
 862 0367 09       		.uleb128 0x9
 863 0368 63050000 		.4byte	.LASF67
 864 036c 08       		.byte	0x8
 865 036d 7101     		.2byte	0x171
 866 036f 19030000 		.4byte	0x319
 867 0373 10       		.byte	0x10
 868 0374 00       		.byte	0
 869 0375 03       		.uleb128 0x3
 870 0376 6E010000 		.4byte	.LASF68
 871 037a 07       		.byte	0x7
 872 037b 66       		.byte	0x66
 873 037c 80030000 		.4byte	0x380
 874 0380 0B       		.uleb128 0xb
 875 0381 4A030000 		.4byte	.LASF69
 876 0385 10       		.byte	0x10
 877 0386 08       		.byte	0x8
 878 0387 7B01     		.2byte	0x17b
 879 0389 C2030000 		.4byte	0x3c2
 880 038d 09       		.uleb128 0x9
 881 038e 75020000 		.4byte	.LASF63
 882 0392 08       		.byte	0x8
 883 0393 7C01     		.2byte	0x17c
 884 0395 FD050000 		.4byte	0x5fd
 885 0399 00       		.byte	0
 886 039a 09       		.uleb128 0x9
 887 039b 3D020000 		.4byte	.LASF64
 888 039f 08       		.byte	0x8
 889 03a0 7E01     		.2byte	0x17e
 890 03a2 FD050000 		.4byte	0x5fd
 891 03a6 04       		.byte	0x4
 892 03a7 09       		.uleb128 0x9
 893 03a8 BC040000 		.4byte	.LASF65
 894 03ac 08       		.byte	0x8
 895 03ad 8001     		.2byte	0x180
 896 03af 2E010000 		.4byte	0x12e
 897 03b3 08       		.byte	0x8
 898 03b4 09       		.uleb128 0x9
 899 03b5 86030000 		.4byte	.LASF70
 900 03b9 08       		.byte	0x8
 901 03ba 8801     		.2byte	0x188
 902 03bc 2E010000 		.4byte	0x12e
 903 03c0 0C       		.byte	0xc
 904 03c1 00       		.byte	0
 905 03c2 03       		.uleb128 0x3
 906 03c3 3A000000 		.4byte	.LASF71
 907 03c7 07       		.byte	0x7
 908 03c8 6B       		.byte	0x6b
 909 03c9 CD030000 		.4byte	0x3cd
 910 03cd 0B       		.uleb128 0xb
 911 03ce 0C040000 		.4byte	.LASF72
 912 03d2 04       		.byte	0x4
ARM GAS  /tmp/ccmXtELX.s 			page 17


 913 03d3 08       		.byte	0x8
 914 03d4 A201     		.2byte	0x1a2
 915 03d6 E8030000 		.4byte	0x3e8
 916 03da 09       		.uleb128 0x9
 917 03db 33050000 		.4byte	.LASF73
 918 03df 08       		.byte	0x8
 919 03e0 AA01     		.2byte	0x1aa
 920 03e2 03060000 		.4byte	0x603
 921 03e6 00       		.byte	0
 922 03e7 00       		.byte	0
 923 03e8 03       		.uleb128 0x3
 924 03e9 C6020000 		.4byte	.LASF74
 925 03ed 07       		.byte	0x7
 926 03ee 70       		.byte	0x70
 927 03ef F3030000 		.4byte	0x3f3
 928 03f3 0F       		.uleb128 0xf
 929 03f4 EC010000 		.4byte	.LASF75
 930 03f8 5001     		.2byte	0x150
 931 03fa 08       		.byte	0x8
 932 03fb C201     		.2byte	0x1c2
 933 03fd 4F040000 		.4byte	0x44f
 934 0401 09       		.uleb128 0x9
 935 0402 8D050000 		.4byte	.LASF76
 936 0406 08       		.byte	0x8
 937 0407 C601     		.2byte	0x1c6
 938 0409 96020000 		.4byte	0x296
 939 040d 00       		.byte	0
 940 040e 09       		.uleb128 0x9
 941 040f D3010000 		.4byte	.LASF77
 942 0413 08       		.byte	0x8
 943 0414 CA01     		.2byte	0x1ca
 944 0416 75030000 		.4byte	0x375
 945 041a 1C       		.byte	0x1c
 946 041b 08       		.uleb128 0x8
 947 041c 64626700 		.ascii	"dbg\000"
 948 0420 08       		.byte	0x8
 949 0421 CE01     		.2byte	0x1ce
 950 0423 C2030000 		.4byte	0x3c2
 951 0427 2C       		.byte	0x2c
 952 0428 09       		.uleb128 0x9
 953 0429 63010000 		.4byte	.LASF78
 954 042d 08       		.byte	0x8
 955 042e D201     		.2byte	0x1d2
 956 0430 39010000 		.4byte	0x139
 957 0434 30       		.byte	0x30
 958 0435 08       		.uleb128 0x8
 959 0436 746D00   		.ascii	"tm\000"
 960 0439 08       		.byte	0x8
 961 043a D701     		.2byte	0x1d7
 962 043c 1B050000 		.4byte	0x51b
 963 0440 74       		.byte	0x74
 964 0441 09       		.uleb128 0x9
 965 0442 53020000 		.4byte	.LASF79
 966 0446 08       		.byte	0x8
 967 0447 E301     		.2byte	0x1e3
 968 0449 08060000 		.4byte	0x608
 969 044d 78       		.byte	0x78
ARM GAS  /tmp/ccmXtELX.s 			page 18


 970 044e 00       		.byte	0
 971 044f 04       		.uleb128 0x4
 972 0450 04       		.byte	0x4
 973 0451 07       		.byte	0x7
 974 0452 2E030000 		.4byte	.LASF80
 975 0456 03       		.uleb128 0x3
 976 0457 34020000 		.4byte	.LASF81
 977 045b 09       		.byte	0x9
 978 045c 65       		.byte	0x65
 979 045d 19030000 		.4byte	0x319
 980 0461 03       		.uleb128 0x3
 981 0462 19030000 		.4byte	.LASF82
 982 0466 09       		.byte	0x9
 983 0467 6D       		.byte	0x6d
 984 0468 C6000000 		.4byte	0xc6
 985 046c 06       		.uleb128 0x6
 986 046d 4D050000 		.4byte	.LASF83
 987 0471 04       		.byte	0x4
 988 0472 09       		.byte	0x9
 989 0473 89       		.byte	0x89
 990 0474 85040000 		.4byte	0x485
 991 0478 10       		.uleb128 0x10
 992 0479 72313300 		.ascii	"r13\000"
 993 047d 09       		.byte	0x9
 994 047e 8A       		.byte	0x8a
 995 047f 00050000 		.4byte	0x500
 996 0483 00       		.byte	0
 997 0484 00       		.byte	0
 998 0485 06       		.uleb128 0x6
 999 0486 2E000000 		.4byte	.LASF84
 1000 048a 24       		.byte	0x24
 1001 048b 0A       		.byte	0xa
 1002 048c F4       		.byte	0xf4
 1003 048d 00050000 		.4byte	0x500
 1004 0491 08       		.uleb128 0x8
 1005 0492 723400   		.ascii	"r4\000"
 1006 0495 0A       		.byte	0xa
 1007 0496 0701     		.2byte	0x107
 1008 0498 56040000 		.4byte	0x456
 1009 049c 00       		.byte	0
 1010 049d 08       		.uleb128 0x8
 1011 049e 723500   		.ascii	"r5\000"
 1012 04a1 0A       		.byte	0xa
 1013 04a2 0801     		.2byte	0x108
 1014 04a4 56040000 		.4byte	0x456
 1015 04a8 04       		.byte	0x4
 1016 04a9 08       		.uleb128 0x8
 1017 04aa 723600   		.ascii	"r6\000"
 1018 04ad 0A       		.byte	0xa
 1019 04ae 0901     		.2byte	0x109
 1020 04b0 56040000 		.4byte	0x456
 1021 04b4 08       		.byte	0x8
 1022 04b5 08       		.uleb128 0x8
 1023 04b6 723700   		.ascii	"r7\000"
 1024 04b9 0A       		.byte	0xa
 1025 04ba 0A01     		.2byte	0x10a
 1026 04bc 56040000 		.4byte	0x456
ARM GAS  /tmp/ccmXtELX.s 			page 19


 1027 04c0 0C       		.byte	0xc
 1028 04c1 08       		.uleb128 0x8
 1029 04c2 723800   		.ascii	"r8\000"
 1030 04c5 0A       		.byte	0xa
 1031 04c6 0B01     		.2byte	0x10b
 1032 04c8 56040000 		.4byte	0x456
 1033 04cc 10       		.byte	0x10
 1034 04cd 08       		.uleb128 0x8
 1035 04ce 723900   		.ascii	"r9\000"
 1036 04d1 0A       		.byte	0xa
 1037 04d2 0C01     		.2byte	0x10c
 1038 04d4 56040000 		.4byte	0x456
 1039 04d8 14       		.byte	0x14
 1040 04d9 08       		.uleb128 0x8
 1041 04da 72313000 		.ascii	"r10\000"
 1042 04de 0A       		.byte	0xa
 1043 04df 0D01     		.2byte	0x10d
 1044 04e1 56040000 		.4byte	0x456
 1045 04e5 18       		.byte	0x18
 1046 04e6 08       		.uleb128 0x8
 1047 04e7 72313100 		.ascii	"r11\000"
 1048 04eb 0A       		.byte	0xa
 1049 04ec 0E01     		.2byte	0x10e
 1050 04ee 56040000 		.4byte	0x456
 1051 04f2 1C       		.byte	0x1c
 1052 04f3 08       		.uleb128 0x8
 1053 04f4 6C7200   		.ascii	"lr\000"
 1054 04f7 0A       		.byte	0xa
 1055 04f8 0F01     		.2byte	0x10f
 1056 04fa 56040000 		.4byte	0x456
 1057 04fe 20       		.byte	0x20
 1058 04ff 00       		.byte	0
 1059 0500 0A       		.uleb128 0xa
 1060 0501 04       		.byte	0x4
 1061 0502 85040000 		.4byte	0x485
 1062 0506 11       		.uleb128 0x11
 1063 0507 04       		.byte	0x4
 1064 0508 0B       		.byte	0xb
 1065 0509 38       		.byte	0x38
 1066 050a 1B050000 		.4byte	0x51b
 1067 050e 07       		.uleb128 0x7
 1068 050f 3D050000 		.4byte	.LASF85
 1069 0513 0B       		.byte	0xb
 1070 0514 3C       		.byte	0x3c
 1071 0515 D6000000 		.4byte	0xd6
 1072 0519 00       		.byte	0
 1073 051a 00       		.byte	0
 1074 051b 03       		.uleb128 0x3
 1075 051c AF030000 		.4byte	.LASF86
 1076 0520 0B       		.byte	0xb
 1077 0521 3D       		.byte	0x3d
 1078 0522 06050000 		.4byte	0x506
 1079 0526 12       		.uleb128 0x12
 1080 0527 04       		.byte	0x4
 1081 0528 08       		.byte	0x8
 1082 0529 FA       		.byte	0xfa
 1083 052a 83050000 		.4byte	0x583
ARM GAS  /tmp/ccmXtELX.s 			page 20


 1084 052e 13       		.uleb128 0x13
 1085 052f 14000000 		.4byte	.LASF87
 1086 0533 08       		.byte	0x8
 1087 0534 0101     		.2byte	0x101
 1088 0536 0D010000 		.4byte	0x10d
 1089 053a 13       		.uleb128 0x13
 1090 053b 5A010000 		.4byte	.LASF88
 1091 053f 08       		.byte	0x8
 1092 0540 0801     		.2byte	0x108
 1093 0542 0D010000 		.4byte	0x10d
 1094 0546 13       		.uleb128 0x13
 1095 0547 B2050000 		.4byte	.LASF89
 1096 054b 08       		.byte	0x8
 1097 054c 0F01     		.2byte	0x10f
 1098 054e 19030000 		.4byte	0x319
 1099 0552 13       		.uleb128 0x13
 1100 0553 E6010000 		.4byte	.LASF90
 1101 0557 08       		.byte	0x8
 1102 0558 1601     		.2byte	0x116
 1103 055a 83050000 		.4byte	0x583
 1104 055e 13       		.uleb128 0x13
 1105 055f 7D020000 		.4byte	.LASF91
 1106 0563 08       		.byte	0x8
 1107 0564 1E01     		.2byte	0x11e
 1108 0566 AE050000 		.4byte	0x5ae
 1109 056a 13       		.uleb128 0x13
 1110 056b AD040000 		.4byte	.LASF92
 1111 056f 08       		.byte	0x8
 1112 0570 2701     		.2byte	0x127
 1113 0572 E5050000 		.4byte	0x5e5
 1114 0576 13       		.uleb128 0x13
 1115 0577 55040000 		.4byte	.LASF93
 1116 057b 08       		.byte	0x8
 1117 057c 2F01     		.2byte	0x12f
 1118 057e 18010000 		.4byte	0x118
 1119 0582 00       		.byte	0
 1120 0583 0A       		.uleb128 0xa
 1121 0584 04       		.byte	0x4
 1122 0585 31020000 		.4byte	0x231
 1123 0589 06       		.uleb128 0x6
 1124 058a 8C040000 		.4byte	.LASF94
 1125 058e 0C       		.byte	0xc
 1126 058f 0C       		.byte	0xc
 1127 0590 34       		.byte	0x34
 1128 0591 AE050000 		.4byte	0x5ae
 1129 0595 07       		.uleb128 0x7
 1130 0596 18020000 		.4byte	.LASF95
 1131 059a 0C       		.byte	0xc
 1132 059b 35       		.byte	0x35
 1133 059c 66020000 		.4byte	0x266
 1134 05a0 00       		.byte	0
 1135 05a1 07       		.uleb128 0x7
 1136 05a2 9D020000 		.4byte	.LASF96
 1137 05a6 0C       		.byte	0xc
 1138 05a7 37       		.byte	0x37
 1139 05a8 23010000 		.4byte	0x123
 1140 05ac 08       		.byte	0x8
ARM GAS  /tmp/ccmXtELX.s 			page 21


 1141 05ad 00       		.byte	0
 1142 05ae 0A       		.uleb128 0xa
 1143 05af 04       		.byte	0x4
 1144 05b0 89050000 		.4byte	0x589
 1145 05b4 06       		.uleb128 0x6
 1146 05b5 44050000 		.4byte	.LASF97
 1147 05b9 10       		.byte	0x10
 1148 05ba 0D       		.byte	0xd
 1149 05bb 39       		.byte	0x39
 1150 05bc E5050000 		.4byte	0x5e5
 1151 05c0 07       		.uleb128 0x7
 1152 05c1 CB010000 		.4byte	.LASF98
 1153 05c5 0D       		.byte	0xd
 1154 05c6 3A       		.byte	0x3a
 1155 05c7 66020000 		.4byte	0x266
 1156 05cb 00       		.byte	0
 1157 05cc 07       		.uleb128 0x7
 1158 05cd 2B060000 		.4byte	.LASF99
 1159 05d1 0D       		.byte	0xd
 1160 05d2 3C       		.byte	0x3c
 1161 05d3 3C020000 		.4byte	0x23c
 1162 05d7 08       		.byte	0x8
 1163 05d8 07       		.uleb128 0x7
 1164 05d9 F5040000 		.4byte	.LASF100
 1165 05dd 0D       		.byte	0xd
 1166 05de 3E       		.byte	0x3e
 1167 05df 23060000 		.4byte	0x623
 1168 05e3 0C       		.byte	0xc
 1169 05e4 00       		.byte	0
 1170 05e5 0A       		.uleb128 0xa
 1171 05e6 04       		.byte	0x4
 1172 05e7 B4050000 		.4byte	0x5b4
 1173 05eb 0A       		.uleb128 0xa
 1174 05ec 04       		.byte	0x4
 1175 05ed F8050000 		.4byte	0x5f8
 1176 05f1 04       		.uleb128 0x4
 1177 05f2 01       		.byte	0x1
 1178 05f3 08       		.byte	0x8
 1179 05f4 E7040000 		.4byte	.LASF101
 1180 05f8 14       		.uleb128 0x14
 1181 05f9 F1050000 		.4byte	0x5f1
 1182 05fd 0A       		.uleb128 0xa
 1183 05fe 04       		.byte	0x4
 1184 05ff 1B030000 		.4byte	0x31b
 1185 0603 05       		.uleb128 0x5
 1186 0604 EB050000 		.4byte	0x5eb
 1187 0608 15       		.uleb128 0x15
 1188 0609 61040000 		.4byte	0x461
 1189 060d 18060000 		.4byte	0x618
 1190 0611 16       		.uleb128 0x16
 1191 0612 4F040000 		.4byte	0x44f
 1192 0616 1A       		.byte	0x1a
 1193 0617 00       		.byte	0
 1194 0618 03       		.uleb128 0x3
 1195 0619 45020000 		.4byte	.LASF102
 1196 061d 0D       		.byte	0xd
 1197 061e 34       		.byte	0x34
ARM GAS  /tmp/ccmXtELX.s 			page 22


 1198 061f B4050000 		.4byte	0x5b4
 1199 0623 0A       		.uleb128 0xa
 1200 0624 04       		.byte	0x4
 1201 0625 18060000 		.4byte	0x618
 1202 0629 03       		.uleb128 0x3
 1203 062a 36010000 		.4byte	.LASF103
 1204 062e 0E       		.byte	0xe
 1205 062f 36       		.byte	0x36
 1206 0630 34060000 		.4byte	0x634
 1207 0634 0A       		.uleb128 0xa
 1208 0635 04       		.byte	0x4
 1209 0636 3A060000 		.4byte	0x63a
 1210 063a 17       		.uleb128 0x17
 1211 063b 19030000 		.4byte	0x319
 1212 063f 49060000 		.4byte	0x649
 1213 0643 0D       		.uleb128 0xd
 1214 0644 28000000 		.4byte	0x28
 1215 0648 00       		.byte	0
 1216 0649 06       		.uleb128 0x6
 1217 064a 7A050000 		.4byte	.LASF104
 1218 064e 04       		.byte	0x4
 1219 064f 0F       		.byte	0xf
 1220 0650 38       		.byte	0x38
 1221 0651 62060000 		.4byte	0x662
 1222 0655 07       		.uleb128 0x7
 1223 0656 DD030000 		.4byte	.LASF105
 1224 065a 0F       		.byte	0xf
 1225 065b 39       		.byte	0x39
 1226 065c 62060000 		.4byte	0x662
 1227 0660 00       		.byte	0
 1228 0661 00       		.byte	0
 1229 0662 0A       		.uleb128 0xa
 1230 0663 04       		.byte	0x4
 1231 0664 49060000 		.4byte	0x649
 1232 0668 11       		.uleb128 0x11
 1233 0669 0C       		.byte	0xc
 1234 066a 0F       		.byte	0xf
 1235 066b 40       		.byte	0x40
 1236 066c 95060000 		.4byte	0x695
 1237 0670 07       		.uleb128 0x7
 1238 0671 08020000 		.4byte	.LASF106
 1239 0675 0F       		.byte	0xf
 1240 0676 41       		.byte	0x41
 1241 0677 62060000 		.4byte	0x662
 1242 067b 00       		.byte	0
 1243 067c 07       		.uleb128 0x7
 1244 067d A0030000 		.4byte	.LASF107
 1245 0681 0F       		.byte	0xf
 1246 0682 42       		.byte	0x42
 1247 0683 28000000 		.4byte	0x28
 1248 0687 04       		.byte	0x4
 1249 0688 07       		.uleb128 0x7
 1250 0689 28020000 		.4byte	.LASF108
 1251 068d 0F       		.byte	0xf
 1252 068e 44       		.byte	0x44
 1253 068f 29060000 		.4byte	0x629
 1254 0693 08       		.byte	0x8
ARM GAS  /tmp/ccmXtELX.s 			page 23


 1255 0694 00       		.byte	0
 1256 0695 03       		.uleb128 0x3
 1257 0696 8F020000 		.4byte	.LASF109
 1258 069a 0F       		.byte	0xf
 1259 069b 46       		.byte	0x46
 1260 069c 68060000 		.4byte	0x668
 1261 06a0 18       		.uleb128 0x18
 1262 06a1 25050000 		.4byte	.LASF112
 1263 06a5 02       		.byte	0x2
 1264 06a6 2002     		.2byte	0x220
 1265 06a8 03       		.byte	0x3
 1266 06a9 BA060000 		.4byte	0x6ba
 1267 06ad 19       		.uleb128 0x19
 1268 06ae 4D020000 		.4byte	.LASF114
 1269 06b2 02       		.byte	0x2
 1270 06b3 2002     		.2byte	0x220
 1271 06b5 BB000000 		.4byte	0xbb
 1272 06b9 00       		.byte	0
 1273 06ba 1A       		.uleb128 0x1a
 1274 06bb 52000000 		.4byte	.LASF110
 1275 06bf 0A       		.byte	0xa
 1276 06c0 BC01     		.2byte	0x1bc
 1277 06c2 03       		.byte	0x3
 1278 06c3 1A       		.uleb128 0x1a
 1279 06c4 DA010000 		.4byte	.LASF111
 1280 06c8 0A       		.byte	0xa
 1281 06c9 CA01     		.2byte	0x1ca
 1282 06cb 03       		.byte	0x3
 1283 06cc 18       		.uleb128 0x18
 1284 06cd DC050000 		.4byte	.LASF113
 1285 06d1 10       		.byte	0x10
 1286 06d2 6601     		.2byte	0x166
 1287 06d4 03       		.byte	0x3
 1288 06d5 E7060000 		.4byte	0x6e7
 1289 06d9 1B       		.uleb128 0x1b
 1290 06da 63040000 		.4byte	.LASF115
 1291 06de F7060000 		.4byte	0x6f7
 1292 06e2 DC050000 		.4byte	.LASF113
 1293 06e6 00       		.byte	0
 1294 06e7 15       		.uleb128 0x15
 1295 06e8 F8050000 		.4byte	0x5f8
 1296 06ec F7060000 		.4byte	0x6f7
 1297 06f0 16       		.uleb128 0x16
 1298 06f1 4F040000 		.4byte	0x44f
 1299 06f5 0B       		.byte	0xb
 1300 06f6 00       		.byte	0
 1301 06f7 14       		.uleb128 0x14
 1302 06f8 E7060000 		.4byte	0x6e7
 1303 06fc 1C       		.uleb128 0x1c
 1304 06fd 6D030000 		.4byte	.LASF117
 1305 0701 01       		.byte	0x1
 1306 0702 78       		.byte	0x78
 1307 0703 19030000 		.4byte	0x319
 1308 0707 01       		.byte	0x1
 1309 0708 2F070000 		.4byte	0x72f
 1310 070c 1D       		.uleb128 0x1d
 1311 070d 6D7000   		.ascii	"mp\000"
ARM GAS  /tmp/ccmXtELX.s 			page 24


 1312 0710 01       		.byte	0x1
 1313 0711 78       		.byte	0x78
 1314 0712 2F070000 		.4byte	0x72f
 1315 0716 1E       		.uleb128 0x1e
 1316 0717 76040000 		.4byte	.LASF116
 1317 071b 01       		.byte	0x1
 1318 071c 79       		.byte	0x79
 1319 071d 19030000 		.4byte	0x319
 1320 0721 1B       		.uleb128 0x1b
 1321 0722 63040000 		.4byte	.LASF115
 1322 0726 45070000 		.4byte	0x745
 1323 072a 6D030000 		.4byte	.LASF117
 1324 072e 00       		.byte	0
 1325 072f 0A       		.uleb128 0xa
 1326 0730 04       		.byte	0x4
 1327 0731 95060000 		.4byte	0x695
 1328 0735 15       		.uleb128 0x15
 1329 0736 F8050000 		.4byte	0x5f8
 1330 073a 45070000 		.4byte	0x745
 1331 073e 16       		.uleb128 0x16
 1332 073f 4F040000 		.4byte	0x44f
 1333 0743 0C       		.byte	0xc
 1334 0744 00       		.byte	0
 1335 0745 14       		.uleb128 0x14
 1336 0746 35070000 		.4byte	0x735
 1337 074a 1A       		.uleb128 0x1a
 1338 074b 6C040000 		.4byte	.LASF118
 1339 074f 10       		.byte	0x10
 1340 0750 5A01     		.2byte	0x15a
 1341 0752 03       		.byte	0x3
 1342 0753 1F       		.uleb128 0x1f
 1343 0754 7A030000 		.4byte	.LASF119
 1344 0758 01       		.byte	0x1
 1345 0759 AB       		.byte	0xab
 1346 075a 01       		.byte	0x1
 1347 075b 8D070000 		.4byte	0x78d
 1348 075f 1D       		.uleb128 0x1d
 1349 0760 6D7000   		.ascii	"mp\000"
 1350 0763 01       		.byte	0x1
 1351 0764 AB       		.byte	0xab
 1352 0765 2F070000 		.4byte	0x72f
 1353 0769 20       		.uleb128 0x20
 1354 076a 76040000 		.4byte	.LASF116
 1355 076e 01       		.byte	0x1
 1356 076f AB       		.byte	0xab
 1357 0770 19030000 		.4byte	0x319
 1358 0774 21       		.uleb128 0x21
 1359 0775 70687000 		.ascii	"php\000"
 1360 0779 01       		.byte	0x1
 1361 077a AC       		.byte	0xac
 1362 077b 62060000 		.4byte	0x662
 1363 077f 1B       		.uleb128 0x1b
 1364 0780 63040000 		.4byte	.LASF115
 1365 0784 8D070000 		.4byte	0x78d
 1366 0788 7A030000 		.4byte	.LASF119
 1367 078c 00       		.byte	0
 1368 078d 14       		.uleb128 0x14
ARM GAS  /tmp/ccmXtELX.s 			page 25


 1369 078e E7060000 		.4byte	0x6e7
 1370 0792 1F       		.uleb128 0x1f
 1371 0793 A7050000 		.4byte	.LASF120
 1372 0797 01       		.byte	0x1
 1373 0798 C1       		.byte	0xc1
 1374 0799 01       		.byte	0x1
 1375 079a B4070000 		.4byte	0x7b4
 1376 079e 1D       		.uleb128 0x1d
 1377 079f 6D7000   		.ascii	"mp\000"
 1378 07a2 01       		.byte	0x1
 1379 07a3 C1       		.byte	0xc1
 1380 07a4 2F070000 		.4byte	0x72f
 1381 07a8 20       		.uleb128 0x20
 1382 07a9 76040000 		.4byte	.LASF116
 1383 07ad 01       		.byte	0x1
 1384 07ae C1       		.byte	0xc1
 1385 07af 19030000 		.4byte	0x319
 1386 07b3 00       		.byte	0
 1387 07b4 22       		.uleb128 0x22
 1388 07b5 D2020000 		.4byte	.LASF121
 1389 07b9 0F       		.byte	0xf
 1390 07ba 89       		.byte	0x89
 1391 07bb 03       		.byte	0x3
 1392 07bc D6070000 		.4byte	0x7d6
 1393 07c0 1D       		.uleb128 0x1d
 1394 07c1 6D7000   		.ascii	"mp\000"
 1395 07c4 0F       		.byte	0xf
 1396 07c5 89       		.byte	0x89
 1397 07c6 2F070000 		.4byte	0x72f
 1398 07ca 20       		.uleb128 0x20
 1399 07cb 76040000 		.4byte	.LASF116
 1400 07cf 0F       		.byte	0xf
 1401 07d0 89       		.byte	0x89
 1402 07d1 19030000 		.4byte	0x319
 1403 07d5 00       		.byte	0
 1404 07d6 23       		.uleb128 0x23
 1405 07d7 E4020000 		.4byte	.LASF124
 1406 07db 01       		.byte	0x1
 1407 07dc 4B       		.byte	0x4b
 1408 07dd 00000000 		.4byte	.LFB227
 1409 07e1 0A000000 		.4byte	.LFE227-.LFB227
 1410 07e5 01       		.uleb128 0x1
 1411 07e6 9C       		.byte	0x9c
 1412 07e7 1B080000 		.4byte	0x81b
 1413 07eb 24       		.uleb128 0x24
 1414 07ec 6D7000   		.ascii	"mp\000"
 1415 07ef 01       		.byte	0x1
 1416 07f0 4B       		.byte	0x4b
 1417 07f1 2F070000 		.4byte	0x72f
 1418 07f5 01       		.uleb128 0x1
 1419 07f6 50       		.byte	0x50
 1420 07f7 25       		.uleb128 0x25
 1421 07f8 C0050000 		.4byte	.LASF122
 1422 07fc 01       		.byte	0x1
 1423 07fd 4B       		.byte	0x4b
 1424 07fe 28000000 		.4byte	0x28
 1425 0802 01       		.uleb128 0x1
ARM GAS  /tmp/ccmXtELX.s 			page 26


 1426 0803 51       		.byte	0x51
 1427 0804 25       		.uleb128 0x25
 1428 0805 49000000 		.4byte	.LASF123
 1429 0809 01       		.byte	0x1
 1430 080a 4B       		.byte	0x4b
 1431 080b 29060000 		.4byte	0x629
 1432 080f 01       		.uleb128 0x1
 1433 0810 52       		.byte	0x52
 1434 0811 26       		.uleb128 0x26
 1435 0812 63040000 		.4byte	.LASF115
 1436 0816 2B080000 		.4byte	0x82b
 1437 081a 00       		.byte	0
 1438 081b 15       		.uleb128 0x15
 1439 081c F8050000 		.4byte	0x5f8
 1440 0820 2B080000 		.4byte	0x82b
 1441 0824 16       		.uleb128 0x16
 1442 0825 4F040000 		.4byte	0x44f
 1443 0829 10       		.byte	0x10
 1444 082a 00       		.byte	0
 1445 082b 14       		.uleb128 0x14
 1446 082c 1B080000 		.4byte	0x81b
 1447 0830 23       		.uleb128 0x23
 1448 0831 E8050000 		.4byte	.LASF125
 1449 0835 01       		.byte	0x1
 1450 0836 61       		.byte	0x61
 1451 0837 00000000 		.4byte	.LFB228
 1452 083b 22000000 		.4byte	.LFE228-.LFB228
 1453 083f 01       		.uleb128 0x1
 1454 0840 9C       		.byte	0x9c
 1455 0841 7C090000 		.4byte	0x97c
 1456 0845 24       		.uleb128 0x24
 1457 0846 6D7000   		.ascii	"mp\000"
 1458 0849 01       		.byte	0x1
 1459 084a 61       		.byte	0x61
 1460 084b 2F070000 		.4byte	0x72f
 1461 084f 01       		.uleb128 0x1
 1462 0850 50       		.byte	0x50
 1463 0851 27       		.uleb128 0x27
 1464 0852 7000     		.ascii	"p\000"
 1465 0854 01       		.byte	0x1
 1466 0855 61       		.byte	0x61
 1467 0856 19030000 		.4byte	0x319
 1468 085a 00000000 		.4byte	.LLST0
 1469 085e 27       		.uleb128 0x27
 1470 085f 6E00     		.ascii	"n\000"
 1471 0861 01       		.byte	0x1
 1472 0862 61       		.byte	0x61
 1473 0863 28000000 		.4byte	0x28
 1474 0867 1E000000 		.4byte	.LLST1
 1475 086b 26       		.uleb128 0x26
 1476 086c 63040000 		.4byte	.LASF115
 1477 0870 8C090000 		.4byte	0x98c
 1478 0874 28       		.uleb128 0x28
 1479 0875 B4070000 		.4byte	0x7b4
 1480 0879 04000000 		.4byte	.LBB77
 1481 087d 12000000 		.4byte	.LBE77-.LBB77
 1482 0881 01       		.byte	0x1
ARM GAS  /tmp/ccmXtELX.s 			page 27


 1483 0882 66       		.byte	0x66
 1484 0883 29       		.uleb128 0x29
 1485 0884 C0070000 		.4byte	0x7c0
 1486 0888 49000000 		.4byte	.LLST2
 1487 088c 29       		.uleb128 0x29
 1488 088d CA070000 		.4byte	0x7ca
 1489 0891 5C000000 		.4byte	.LLST3
 1490 0895 28       		.uleb128 0x28
 1491 0896 92070000 		.4byte	0x792
 1492 089a 04000000 		.4byte	.LBB78
 1493 089e 12000000 		.4byte	.LBE78-.LBB78
 1494 08a2 0F       		.byte	0xf
 1495 08a3 8B       		.byte	0x8b
 1496 08a4 29       		.uleb128 0x29
 1497 08a5 A8070000 		.4byte	0x7a8
 1498 08a9 5C000000 		.4byte	.LLST3
 1499 08ad 29       		.uleb128 0x29
 1500 08ae 9E070000 		.4byte	0x79e
 1501 08b2 6F000000 		.4byte	.LLST5
 1502 08b6 2A       		.uleb128 0x2a
 1503 08b7 4A070000 		.4byte	0x74a
 1504 08bb 04000000 		.4byte	.LBB79
 1505 08bf 00000000 		.4byte	.Ldebug_ranges0+0
 1506 08c3 01       		.byte	0x1
 1507 08c4 C3       		.byte	0xc3
 1508 08c5 F5080000 		.4byte	0x8f5
 1509 08c9 2B       		.uleb128 0x2b
 1510 08ca BA060000 		.4byte	0x6ba
 1511 08ce 04000000 		.4byte	.LBB80
 1512 08d2 00000000 		.4byte	.Ldebug_ranges0+0
 1513 08d6 10       		.byte	0x10
 1514 08d7 5C01     		.2byte	0x15c
 1515 08d9 2B       		.uleb128 0x2b
 1516 08da A0060000 		.4byte	0x6a0
 1517 08de 04000000 		.4byte	.LBB81
 1518 08e2 00000000 		.4byte	.Ldebug_ranges0+0
 1519 08e6 0A       		.byte	0xa
 1520 08e7 BF01     		.2byte	0x1bf
 1521 08e9 29       		.uleb128 0x29
 1522 08ea AD060000 		.4byte	0x6ad
 1523 08ee 82000000 		.4byte	.LLST6
 1524 08f2 00       		.byte	0
 1525 08f3 00       		.byte	0
 1526 08f4 00       		.byte	0
 1527 08f5 2A       		.uleb128 0x2a
 1528 08f6 CC060000 		.4byte	0x6cc
 1529 08fa 06000000 		.4byte	.LBB86
 1530 08fe 18000000 		.4byte	.Ldebug_ranges0+0x18
 1531 0902 01       		.byte	0x1
 1532 0903 C5       		.byte	0xc5
 1533 0904 3F090000 		.4byte	0x93f
 1534 0908 2C       		.uleb128 0x2c
 1535 0909 18000000 		.4byte	.Ldebug_ranges0+0x18
 1536 090d 2D       		.uleb128 0x2d
 1537 090e D9060000 		.4byte	0x6d9
 1538 0912 2B       		.uleb128 0x2b
 1539 0913 C3060000 		.4byte	0x6c3
ARM GAS  /tmp/ccmXtELX.s 			page 28


 1540 0917 06000000 		.4byte	.LBB88
 1541 091b 18000000 		.4byte	.Ldebug_ranges0+0x18
 1542 091f 10       		.byte	0x10
 1543 0920 7301     		.2byte	0x173
 1544 0922 2B       		.uleb128 0x2b
 1545 0923 A0060000 		.4byte	0x6a0
 1546 0927 06000000 		.4byte	.LBB89
 1547 092b 18000000 		.4byte	.Ldebug_ranges0+0x18
 1548 092f 0A       		.byte	0xa
 1549 0930 CD01     		.2byte	0x1cd
 1550 0932 29       		.uleb128 0x29
 1551 0933 AD060000 		.4byte	0x6ad
 1552 0937 97000000 		.4byte	.LLST7
 1553 093b 00       		.byte	0
 1554 093c 00       		.byte	0
 1555 093d 00       		.byte	0
 1556 093e 00       		.byte	0
 1557 093f 28       		.uleb128 0x28
 1558 0940 53070000 		.4byte	0x753
 1559 0944 0C000000 		.4byte	.LBB96
 1560 0948 06000000 		.4byte	.LBE96-.LBB96
 1561 094c 01       		.byte	0x1
 1562 094d C4       		.byte	0xc4
 1563 094e 29       		.uleb128 0x29
 1564 094f 69070000 		.4byte	0x769
 1565 0953 AB000000 		.4byte	.LLST8
 1566 0957 29       		.uleb128 0x29
 1567 0958 5F070000 		.4byte	0x75f
 1568 095c BE000000 		.4byte	.LLST9
 1569 0960 2E       		.uleb128 0x2e
 1570 0961 0C000000 		.4byte	.LBB97
 1571 0965 06000000 		.4byte	.LBE97-.LBB97
 1572 0969 2F       		.uleb128 0x2f
 1573 096a 74070000 		.4byte	0x774
 1574 096e D1000000 		.4byte	.LLST10
 1575 0972 2D       		.uleb128 0x2d
 1576 0973 7F070000 		.4byte	0x77f
 1577 0977 00       		.byte	0
 1578 0978 00       		.byte	0
 1579 0979 00       		.byte	0
 1580 097a 00       		.byte	0
 1581 097b 00       		.byte	0
 1582 097c 15       		.uleb128 0x15
 1583 097d F8050000 		.4byte	0x5f8
 1584 0981 8C090000 		.4byte	0x98c
 1585 0985 16       		.uleb128 0x16
 1586 0986 4F040000 		.4byte	0x44f
 1587 098a 0F       		.byte	0xf
 1588 098b 00       		.byte	0
 1589 098c 14       		.uleb128 0x14
 1590 098d 7C090000 		.4byte	0x97c
 1591 0991 30       		.uleb128 0x30
 1592 0992 FC060000 		.4byte	0x6fc
 1593 0996 00000000 		.4byte	.LFB229
 1594 099a 16000000 		.4byte	.LFE229-.LFB229
 1595 099e 01       		.uleb128 0x1
 1596 099f 9C       		.byte	0x9c
ARM GAS  /tmp/ccmXtELX.s 			page 29


 1597 09a0 BC090000 		.4byte	0x9bc
 1598 09a4 29       		.uleb128 0x29
 1599 09a5 0C070000 		.4byte	0x70c
 1600 09a9 F0000000 		.4byte	.LLST11
 1601 09ad 2F       		.uleb128 0x2f
 1602 09ae 16070000 		.4byte	0x716
 1603 09b2 2A010000 		.4byte	.LLST12
 1604 09b6 2D       		.uleb128 0x2d
 1605 09b7 21070000 		.4byte	0x721
 1606 09bb 00       		.byte	0
 1607 09bc 31       		.uleb128 0x31
 1608 09bd 9B050000 		.4byte	.LASF129
 1609 09c1 01       		.byte	0x1
 1610 09c2 95       		.byte	0x95
 1611 09c3 19030000 		.4byte	0x319
 1612 09c7 00000000 		.4byte	.LFB230
 1613 09cb 2C000000 		.4byte	.LFE230-.LFB230
 1614 09cf 01       		.uleb128 0x1
 1615 09d0 9C       		.byte	0x9c
 1616 09d1 A70A0000 		.4byte	0xaa7
 1617 09d5 27       		.uleb128 0x27
 1618 09d6 6D7000   		.ascii	"mp\000"
 1619 09d9 01       		.byte	0x1
 1620 09da 95       		.byte	0x95
 1621 09db 2F070000 		.4byte	0x72f
 1622 09df 3D010000 		.4byte	.LLST13
 1623 09e3 32       		.uleb128 0x32
 1624 09e4 76040000 		.4byte	.LASF116
 1625 09e8 01       		.byte	0x1
 1626 09e9 96       		.byte	0x96
 1627 09ea 19030000 		.4byte	0x319
 1628 09ee 01       		.uleb128 0x1
 1629 09ef 50       		.byte	0x50
 1630 09f0 2A       		.uleb128 0x2a
 1631 09f1 4A070000 		.4byte	0x74a
 1632 09f5 02000000 		.4byte	.LBB99
 1633 09f9 30000000 		.4byte	.Ldebug_ranges0+0x30
 1634 09fd 01       		.byte	0x1
 1635 09fe 98       		.byte	0x98
 1636 09ff 2F0A0000 		.4byte	0xa2f
 1637 0a03 2B       		.uleb128 0x2b
 1638 0a04 BA060000 		.4byte	0x6ba
 1639 0a08 02000000 		.4byte	.LBB100
 1640 0a0c 30000000 		.4byte	.Ldebug_ranges0+0x30
 1641 0a10 10       		.byte	0x10
 1642 0a11 5C01     		.2byte	0x15c
 1643 0a13 2B       		.uleb128 0x2b
 1644 0a14 A0060000 		.4byte	0x6a0
 1645 0a18 02000000 		.4byte	.LBB101
 1646 0a1c 30000000 		.4byte	.Ldebug_ranges0+0x30
 1647 0a20 0A       		.byte	0xa
 1648 0a21 BF01     		.2byte	0x1bf
 1649 0a23 29       		.uleb128 0x29
 1650 0a24 AD060000 		.4byte	0x6ad
 1651 0a28 82010000 		.4byte	.LLST14
 1652 0a2c 00       		.byte	0
 1653 0a2d 00       		.byte	0
ARM GAS  /tmp/ccmXtELX.s 			page 30


 1654 0a2e 00       		.byte	0
 1655 0a2f 2A       		.uleb128 0x2a
 1656 0a30 FC060000 		.4byte	0x6fc
 1657 0a34 0A000000 		.4byte	.LBB107
 1658 0a38 48000000 		.4byte	.Ldebug_ranges0+0x48
 1659 0a3c 01       		.byte	0x1
 1660 0a3d 99       		.byte	0x99
 1661 0a3e 600A0000 		.4byte	0xa60
 1662 0a42 29       		.uleb128 0x29
 1663 0a43 0C070000 		.4byte	0x70c
 1664 0a47 97010000 		.4byte	.LLST15
 1665 0a4b 2C       		.uleb128 0x2c
 1666 0a4c 48000000 		.4byte	.Ldebug_ranges0+0x48
 1667 0a50 2F       		.uleb128 0x2f
 1668 0a51 16070000 		.4byte	0x716
 1669 0a55 CE010000 		.4byte	.LLST16
 1670 0a59 2D       		.uleb128 0x2d
 1671 0a5a 21070000 		.4byte	0x721
 1672 0a5e 00       		.byte	0
 1673 0a5f 00       		.byte	0
 1674 0a60 33       		.uleb128 0x33
 1675 0a61 CC060000 		.4byte	0x6cc
 1676 0a65 12000000 		.4byte	.LBB110
 1677 0a69 60000000 		.4byte	.Ldebug_ranges0+0x60
 1678 0a6d 01       		.byte	0x1
 1679 0a6e 9A       		.byte	0x9a
 1680 0a6f 2C       		.uleb128 0x2c
 1681 0a70 60000000 		.4byte	.Ldebug_ranges0+0x60
 1682 0a74 2D       		.uleb128 0x2d
 1683 0a75 D9060000 		.4byte	0x6d9
 1684 0a79 2B       		.uleb128 0x2b
 1685 0a7a C3060000 		.4byte	0x6c3
 1686 0a7e 12000000 		.4byte	.LBB112
 1687 0a82 60000000 		.4byte	.Ldebug_ranges0+0x60
 1688 0a86 10       		.byte	0x10
 1689 0a87 7301     		.2byte	0x173
 1690 0a89 2B       		.uleb128 0x2b
 1691 0a8a A0060000 		.4byte	0x6a0
 1692 0a8e 12000000 		.4byte	.LBB113
 1693 0a92 60000000 		.4byte	.Ldebug_ranges0+0x60
 1694 0a96 0A       		.byte	0xa
 1695 0a97 CD01     		.2byte	0x1cd
 1696 0a99 29       		.uleb128 0x29
 1697 0a9a AD060000 		.4byte	0x6ad
 1698 0a9e F8010000 		.4byte	.LLST17
 1699 0aa2 00       		.byte	0
 1700 0aa3 00       		.byte	0
 1701 0aa4 00       		.byte	0
 1702 0aa5 00       		.byte	0
 1703 0aa6 00       		.byte	0
 1704 0aa7 34       		.uleb128 0x34
 1705 0aa8 53070000 		.4byte	0x753
 1706 0aac 00000000 		.4byte	.LFB231
 1707 0ab0 08000000 		.4byte	.LFE231-.LFB231
 1708 0ab4 01       		.uleb128 0x1
 1709 0ab5 9C       		.byte	0x9c
 1710 0ab6 D50A0000 		.4byte	0xad5
ARM GAS  /tmp/ccmXtELX.s 			page 31


 1711 0aba 35       		.uleb128 0x35
 1712 0abb 5F070000 		.4byte	0x75f
 1713 0abf 01       		.uleb128 0x1
 1714 0ac0 50       		.byte	0x50
 1715 0ac1 35       		.uleb128 0x35
 1716 0ac2 69070000 		.4byte	0x769
 1717 0ac6 01       		.uleb128 0x1
 1718 0ac7 51       		.byte	0x51
 1719 0ac8 36       		.uleb128 0x36
 1720 0ac9 74070000 		.4byte	0x774
 1721 0acd 01       		.uleb128 0x1
 1722 0ace 51       		.byte	0x51
 1723 0acf 2D       		.uleb128 0x2d
 1724 0ad0 7F070000 		.4byte	0x77f
 1725 0ad4 00       		.byte	0
 1726 0ad5 34       		.uleb128 0x34
 1727 0ad6 92070000 		.4byte	0x792
 1728 0ada 00000000 		.4byte	.LFB232
 1729 0ade 14000000 		.4byte	.LFE232-.LFB232
 1730 0ae2 01       		.uleb128 0x1
 1731 0ae3 9C       		.byte	0x9c
 1732 0ae4 B40B0000 		.4byte	0xbb4
 1733 0ae8 35       		.uleb128 0x35
 1734 0ae9 9E070000 		.4byte	0x79e
 1735 0aed 01       		.uleb128 0x1
 1736 0aee 50       		.byte	0x50
 1737 0aef 35       		.uleb128 0x35
 1738 0af0 A8070000 		.4byte	0x7a8
 1739 0af4 01       		.uleb128 0x1
 1740 0af5 51       		.byte	0x51
 1741 0af6 37       		.uleb128 0x37
 1742 0af7 4A070000 		.4byte	0x74a
 1743 0afb 00000000 		.4byte	.LBB121
 1744 0aff 06000000 		.4byte	.LBE121-.LBB121
 1745 0b03 01       		.byte	0x1
 1746 0b04 C3       		.byte	0xc3
 1747 0b05 350B0000 		.4byte	0xb35
 1748 0b09 38       		.uleb128 0x38
 1749 0b0a BA060000 		.4byte	0x6ba
 1750 0b0e 00000000 		.4byte	.LBB122
 1751 0b12 06000000 		.4byte	.LBE122-.LBB122
 1752 0b16 10       		.byte	0x10
 1753 0b17 5C01     		.2byte	0x15c
 1754 0b19 38       		.uleb128 0x38
 1755 0b1a A0060000 		.4byte	0x6a0
 1756 0b1e 00000000 		.4byte	.LBB123
 1757 0b22 06000000 		.4byte	.LBE123-.LBB123
 1758 0b26 0A       		.byte	0xa
 1759 0b27 BF01     		.2byte	0x1bf
 1760 0b29 29       		.uleb128 0x29
 1761 0b2a AD060000 		.4byte	0x6ad
 1762 0b2e 18020000 		.4byte	.LLST18
 1763 0b32 00       		.byte	0
 1764 0b33 00       		.byte	0
 1765 0b34 00       		.byte	0
 1766 0b35 2A       		.uleb128 0x2a
 1767 0b36 53070000 		.4byte	0x753
ARM GAS  /tmp/ccmXtELX.s 			page 32


 1768 0b3a 06000000 		.4byte	.LBB125
 1769 0b3e 78000000 		.4byte	.Ldebug_ranges0+0x78
 1770 0b42 01       		.byte	0x1
 1771 0b43 C4       		.byte	0xc4
 1772 0b44 6D0B0000 		.4byte	0xb6d
 1773 0b48 29       		.uleb128 0x29
 1774 0b49 69070000 		.4byte	0x769
 1775 0b4d 2D020000 		.4byte	.LLST19
 1776 0b51 29       		.uleb128 0x29
 1777 0b52 5F070000 		.4byte	0x75f
 1778 0b56 40020000 		.4byte	.LLST20
 1779 0b5a 2C       		.uleb128 0x2c
 1780 0b5b 78000000 		.4byte	.Ldebug_ranges0+0x78
 1781 0b5f 36       		.uleb128 0x36
 1782 0b60 74070000 		.4byte	0x774
 1783 0b64 01       		.uleb128 0x1
 1784 0b65 51       		.byte	0x51
 1785 0b66 2D       		.uleb128 0x2d
 1786 0b67 7F070000 		.4byte	0x77f
 1787 0b6b 00       		.byte	0
 1788 0b6c 00       		.byte	0
 1789 0b6d 33       		.uleb128 0x33
 1790 0b6e CC060000 		.4byte	0x6cc
 1791 0b72 0A000000 		.4byte	.LBB128
 1792 0b76 90000000 		.4byte	.Ldebug_ranges0+0x90
 1793 0b7a 01       		.byte	0x1
 1794 0b7b C5       		.byte	0xc5
 1795 0b7c 2C       		.uleb128 0x2c
 1796 0b7d 90000000 		.4byte	.Ldebug_ranges0+0x90
 1797 0b81 2D       		.uleb128 0x2d
 1798 0b82 D9060000 		.4byte	0x6d9
 1799 0b86 2B       		.uleb128 0x2b
 1800 0b87 C3060000 		.4byte	0x6c3
 1801 0b8b 0A000000 		.4byte	.LBB130
 1802 0b8f 90000000 		.4byte	.Ldebug_ranges0+0x90
 1803 0b93 10       		.byte	0x10
 1804 0b94 7301     		.2byte	0x173
 1805 0b96 2B       		.uleb128 0x2b
 1806 0b97 A0060000 		.4byte	0x6a0
 1807 0b9b 0A000000 		.4byte	.LBB131
 1808 0b9f 90000000 		.4byte	.Ldebug_ranges0+0x90
 1809 0ba3 0A       		.byte	0xa
 1810 0ba4 CD01     		.2byte	0x1cd
 1811 0ba6 29       		.uleb128 0x29
 1812 0ba7 AD060000 		.4byte	0x6ad
 1813 0bab 53020000 		.4byte	.LLST21
 1814 0baf 00       		.byte	0
 1815 0bb0 00       		.byte	0
 1816 0bb1 00       		.byte	0
 1817 0bb2 00       		.byte	0
 1818 0bb3 00       		.byte	0
 1819 0bb4 39       		.uleb128 0x39
 1820 0bb5 84010000 		.4byte	.LASF126
 1821 0bb9 11       		.byte	0x11
 1822 0bba A706     		.2byte	0x6a7
 1823 0bbc D1000000 		.4byte	0xd1
 1824 0bc0 3A       		.uleb128 0x3a
ARM GAS  /tmp/ccmXtELX.s 			page 33


 1825 0bc1 636800   		.ascii	"ch\000"
 1826 0bc4 08       		.byte	0x8
 1827 0bc5 0902     		.2byte	0x209
 1828 0bc7 E8030000 		.4byte	0x3e8
 1829 0bcb 00       		.byte	0
 1830              		.section	.debug_abbrev,"",%progbits
 1831              	.Ldebug_abbrev0:
 1832 0000 01       		.uleb128 0x1
 1833 0001 11       		.uleb128 0x11
 1834 0002 01       		.byte	0x1
 1835 0003 25       		.uleb128 0x25
 1836 0004 0E       		.uleb128 0xe
 1837 0005 13       		.uleb128 0x13
 1838 0006 0B       		.uleb128 0xb
 1839 0007 03       		.uleb128 0x3
 1840 0008 0E       		.uleb128 0xe
 1841 0009 55       		.uleb128 0x55
 1842 000a 17       		.uleb128 0x17
 1843 000b 11       		.uleb128 0x11
 1844 000c 01       		.uleb128 0x1
 1845 000d 10       		.uleb128 0x10
 1846 000e 17       		.uleb128 0x17
 1847 000f 00       		.byte	0
 1848 0010 00       		.byte	0
 1849 0011 02       		.uleb128 0x2
 1850 0012 24       		.uleb128 0x24
 1851 0013 00       		.byte	0
 1852 0014 0B       		.uleb128 0xb
 1853 0015 0B       		.uleb128 0xb
 1854 0016 3E       		.uleb128 0x3e
 1855 0017 0B       		.uleb128 0xb
 1856 0018 03       		.uleb128 0x3
 1857 0019 08       		.uleb128 0x8
 1858 001a 00       		.byte	0
 1859 001b 00       		.byte	0
 1860 001c 03       		.uleb128 0x3
 1861 001d 16       		.uleb128 0x16
 1862 001e 00       		.byte	0
 1863 001f 03       		.uleb128 0x3
 1864 0020 0E       		.uleb128 0xe
 1865 0021 3A       		.uleb128 0x3a
 1866 0022 0B       		.uleb128 0xb
 1867 0023 3B       		.uleb128 0x3b
 1868 0024 0B       		.uleb128 0xb
 1869 0025 49       		.uleb128 0x49
 1870 0026 13       		.uleb128 0x13
 1871 0027 00       		.byte	0
 1872 0028 00       		.byte	0
 1873 0029 04       		.uleb128 0x4
 1874 002a 24       		.uleb128 0x24
 1875 002b 00       		.byte	0
 1876 002c 0B       		.uleb128 0xb
 1877 002d 0B       		.uleb128 0xb
 1878 002e 3E       		.uleb128 0x3e
 1879 002f 0B       		.uleb128 0xb
 1880 0030 03       		.uleb128 0x3
 1881 0031 0E       		.uleb128 0xe
ARM GAS  /tmp/ccmXtELX.s 			page 34


 1882 0032 00       		.byte	0
 1883 0033 00       		.byte	0
 1884 0034 05       		.uleb128 0x5
 1885 0035 35       		.uleb128 0x35
 1886 0036 00       		.byte	0
 1887 0037 49       		.uleb128 0x49
 1888 0038 13       		.uleb128 0x13
 1889 0039 00       		.byte	0
 1890 003a 00       		.byte	0
 1891 003b 06       		.uleb128 0x6
 1892 003c 13       		.uleb128 0x13
 1893 003d 01       		.byte	0x1
 1894 003e 03       		.uleb128 0x3
 1895 003f 0E       		.uleb128 0xe
 1896 0040 0B       		.uleb128 0xb
 1897 0041 0B       		.uleb128 0xb
 1898 0042 3A       		.uleb128 0x3a
 1899 0043 0B       		.uleb128 0xb
 1900 0044 3B       		.uleb128 0x3b
 1901 0045 0B       		.uleb128 0xb
 1902 0046 01       		.uleb128 0x1
 1903 0047 13       		.uleb128 0x13
 1904 0048 00       		.byte	0
 1905 0049 00       		.byte	0
 1906 004a 07       		.uleb128 0x7
 1907 004b 0D       		.uleb128 0xd
 1908 004c 00       		.byte	0
 1909 004d 03       		.uleb128 0x3
 1910 004e 0E       		.uleb128 0xe
 1911 004f 3A       		.uleb128 0x3a
 1912 0050 0B       		.uleb128 0xb
 1913 0051 3B       		.uleb128 0x3b
 1914 0052 0B       		.uleb128 0xb
 1915 0053 49       		.uleb128 0x49
 1916 0054 13       		.uleb128 0x13
 1917 0055 38       		.uleb128 0x38
 1918 0056 0B       		.uleb128 0xb
 1919 0057 00       		.byte	0
 1920 0058 00       		.byte	0
 1921 0059 08       		.uleb128 0x8
 1922 005a 0D       		.uleb128 0xd
 1923 005b 00       		.byte	0
 1924 005c 03       		.uleb128 0x3
 1925 005d 08       		.uleb128 0x8
 1926 005e 3A       		.uleb128 0x3a
 1927 005f 0B       		.uleb128 0xb
 1928 0060 3B       		.uleb128 0x3b
 1929 0061 05       		.uleb128 0x5
 1930 0062 49       		.uleb128 0x49
 1931 0063 13       		.uleb128 0x13
 1932 0064 38       		.uleb128 0x38
 1933 0065 0B       		.uleb128 0xb
 1934 0066 00       		.byte	0
 1935 0067 00       		.byte	0
 1936 0068 09       		.uleb128 0x9
 1937 0069 0D       		.uleb128 0xd
 1938 006a 00       		.byte	0
ARM GAS  /tmp/ccmXtELX.s 			page 35


 1939 006b 03       		.uleb128 0x3
 1940 006c 0E       		.uleb128 0xe
 1941 006d 3A       		.uleb128 0x3a
 1942 006e 0B       		.uleb128 0xb
 1943 006f 3B       		.uleb128 0x3b
 1944 0070 05       		.uleb128 0x5
 1945 0071 49       		.uleb128 0x49
 1946 0072 13       		.uleb128 0x13
 1947 0073 38       		.uleb128 0x38
 1948 0074 0B       		.uleb128 0xb
 1949 0075 00       		.byte	0
 1950 0076 00       		.byte	0
 1951 0077 0A       		.uleb128 0xa
 1952 0078 0F       		.uleb128 0xf
 1953 0079 00       		.byte	0
 1954 007a 0B       		.uleb128 0xb
 1955 007b 0B       		.uleb128 0xb
 1956 007c 49       		.uleb128 0x49
 1957 007d 13       		.uleb128 0x13
 1958 007e 00       		.byte	0
 1959 007f 00       		.byte	0
 1960 0080 0B       		.uleb128 0xb
 1961 0081 13       		.uleb128 0x13
 1962 0082 01       		.byte	0x1
 1963 0083 03       		.uleb128 0x3
 1964 0084 0E       		.uleb128 0xe
 1965 0085 0B       		.uleb128 0xb
 1966 0086 0B       		.uleb128 0xb
 1967 0087 3A       		.uleb128 0x3a
 1968 0088 0B       		.uleb128 0xb
 1969 0089 3B       		.uleb128 0x3b
 1970 008a 05       		.uleb128 0x5
 1971 008b 01       		.uleb128 0x1
 1972 008c 13       		.uleb128 0x13
 1973 008d 00       		.byte	0
 1974 008e 00       		.byte	0
 1975 008f 0C       		.uleb128 0xc
 1976 0090 15       		.uleb128 0x15
 1977 0091 01       		.byte	0x1
 1978 0092 27       		.uleb128 0x27
 1979 0093 19       		.uleb128 0x19
 1980 0094 01       		.uleb128 0x1
 1981 0095 13       		.uleb128 0x13
 1982 0096 00       		.byte	0
 1983 0097 00       		.byte	0
 1984 0098 0D       		.uleb128 0xd
 1985 0099 05       		.uleb128 0x5
 1986 009a 00       		.byte	0
 1987 009b 49       		.uleb128 0x49
 1988 009c 13       		.uleb128 0x13
 1989 009d 00       		.byte	0
 1990 009e 00       		.byte	0
 1991 009f 0E       		.uleb128 0xe
 1992 00a0 0F       		.uleb128 0xf
 1993 00a1 00       		.byte	0
 1994 00a2 0B       		.uleb128 0xb
 1995 00a3 0B       		.uleb128 0xb
ARM GAS  /tmp/ccmXtELX.s 			page 36


 1996 00a4 00       		.byte	0
 1997 00a5 00       		.byte	0
 1998 00a6 0F       		.uleb128 0xf
 1999 00a7 13       		.uleb128 0x13
 2000 00a8 01       		.byte	0x1
 2001 00a9 03       		.uleb128 0x3
 2002 00aa 0E       		.uleb128 0xe
 2003 00ab 0B       		.uleb128 0xb
 2004 00ac 05       		.uleb128 0x5
 2005 00ad 3A       		.uleb128 0x3a
 2006 00ae 0B       		.uleb128 0xb
 2007 00af 3B       		.uleb128 0x3b
 2008 00b0 05       		.uleb128 0x5
 2009 00b1 01       		.uleb128 0x1
 2010 00b2 13       		.uleb128 0x13
 2011 00b3 00       		.byte	0
 2012 00b4 00       		.byte	0
 2013 00b5 10       		.uleb128 0x10
 2014 00b6 0D       		.uleb128 0xd
 2015 00b7 00       		.byte	0
 2016 00b8 03       		.uleb128 0x3
 2017 00b9 08       		.uleb128 0x8
 2018 00ba 3A       		.uleb128 0x3a
 2019 00bb 0B       		.uleb128 0xb
 2020 00bc 3B       		.uleb128 0x3b
 2021 00bd 0B       		.uleb128 0xb
 2022 00be 49       		.uleb128 0x49
 2023 00bf 13       		.uleb128 0x13
 2024 00c0 38       		.uleb128 0x38
 2025 00c1 0B       		.uleb128 0xb
 2026 00c2 00       		.byte	0
 2027 00c3 00       		.byte	0
 2028 00c4 11       		.uleb128 0x11
 2029 00c5 13       		.uleb128 0x13
 2030 00c6 01       		.byte	0x1
 2031 00c7 0B       		.uleb128 0xb
 2032 00c8 0B       		.uleb128 0xb
 2033 00c9 3A       		.uleb128 0x3a
 2034 00ca 0B       		.uleb128 0xb
 2035 00cb 3B       		.uleb128 0x3b
 2036 00cc 0B       		.uleb128 0xb
 2037 00cd 01       		.uleb128 0x1
 2038 00ce 13       		.uleb128 0x13
 2039 00cf 00       		.byte	0
 2040 00d0 00       		.byte	0
 2041 00d1 12       		.uleb128 0x12
 2042 00d2 17       		.uleb128 0x17
 2043 00d3 01       		.byte	0x1
 2044 00d4 0B       		.uleb128 0xb
 2045 00d5 0B       		.uleb128 0xb
 2046 00d6 3A       		.uleb128 0x3a
 2047 00d7 0B       		.uleb128 0xb
 2048 00d8 3B       		.uleb128 0x3b
 2049 00d9 0B       		.uleb128 0xb
 2050 00da 01       		.uleb128 0x1
 2051 00db 13       		.uleb128 0x13
 2052 00dc 00       		.byte	0
ARM GAS  /tmp/ccmXtELX.s 			page 37


 2053 00dd 00       		.byte	0
 2054 00de 13       		.uleb128 0x13
 2055 00df 0D       		.uleb128 0xd
 2056 00e0 00       		.byte	0
 2057 00e1 03       		.uleb128 0x3
 2058 00e2 0E       		.uleb128 0xe
 2059 00e3 3A       		.uleb128 0x3a
 2060 00e4 0B       		.uleb128 0xb
 2061 00e5 3B       		.uleb128 0x3b
 2062 00e6 05       		.uleb128 0x5
 2063 00e7 49       		.uleb128 0x49
 2064 00e8 13       		.uleb128 0x13
 2065 00e9 00       		.byte	0
 2066 00ea 00       		.byte	0
 2067 00eb 14       		.uleb128 0x14
 2068 00ec 26       		.uleb128 0x26
 2069 00ed 00       		.byte	0
 2070 00ee 49       		.uleb128 0x49
 2071 00ef 13       		.uleb128 0x13
 2072 00f0 00       		.byte	0
 2073 00f1 00       		.byte	0
 2074 00f2 15       		.uleb128 0x15
 2075 00f3 01       		.uleb128 0x1
 2076 00f4 01       		.byte	0x1
 2077 00f5 49       		.uleb128 0x49
 2078 00f6 13       		.uleb128 0x13
 2079 00f7 01       		.uleb128 0x1
 2080 00f8 13       		.uleb128 0x13
 2081 00f9 00       		.byte	0
 2082 00fa 00       		.byte	0
 2083 00fb 16       		.uleb128 0x16
 2084 00fc 21       		.uleb128 0x21
 2085 00fd 00       		.byte	0
 2086 00fe 49       		.uleb128 0x49
 2087 00ff 13       		.uleb128 0x13
 2088 0100 2F       		.uleb128 0x2f
 2089 0101 0B       		.uleb128 0xb
 2090 0102 00       		.byte	0
 2091 0103 00       		.byte	0
 2092 0104 17       		.uleb128 0x17
 2093 0105 15       		.uleb128 0x15
 2094 0106 01       		.byte	0x1
 2095 0107 27       		.uleb128 0x27
 2096 0108 19       		.uleb128 0x19
 2097 0109 49       		.uleb128 0x49
 2098 010a 13       		.uleb128 0x13
 2099 010b 01       		.uleb128 0x1
 2100 010c 13       		.uleb128 0x13
 2101 010d 00       		.byte	0
 2102 010e 00       		.byte	0
 2103 010f 18       		.uleb128 0x18
 2104 0110 2E       		.uleb128 0x2e
 2105 0111 01       		.byte	0x1
 2106 0112 03       		.uleb128 0x3
 2107 0113 0E       		.uleb128 0xe
 2108 0114 3A       		.uleb128 0x3a
 2109 0115 0B       		.uleb128 0xb
ARM GAS  /tmp/ccmXtELX.s 			page 38


 2110 0116 3B       		.uleb128 0x3b
 2111 0117 05       		.uleb128 0x5
 2112 0118 27       		.uleb128 0x27
 2113 0119 19       		.uleb128 0x19
 2114 011a 20       		.uleb128 0x20
 2115 011b 0B       		.uleb128 0xb
 2116 011c 01       		.uleb128 0x1
 2117 011d 13       		.uleb128 0x13
 2118 011e 00       		.byte	0
 2119 011f 00       		.byte	0
 2120 0120 19       		.uleb128 0x19
 2121 0121 05       		.uleb128 0x5
 2122 0122 00       		.byte	0
 2123 0123 03       		.uleb128 0x3
 2124 0124 0E       		.uleb128 0xe
 2125 0125 3A       		.uleb128 0x3a
 2126 0126 0B       		.uleb128 0xb
 2127 0127 3B       		.uleb128 0x3b
 2128 0128 05       		.uleb128 0x5
 2129 0129 49       		.uleb128 0x49
 2130 012a 13       		.uleb128 0x13
 2131 012b 00       		.byte	0
 2132 012c 00       		.byte	0
 2133 012d 1A       		.uleb128 0x1a
 2134 012e 2E       		.uleb128 0x2e
 2135 012f 00       		.byte	0
 2136 0130 03       		.uleb128 0x3
 2137 0131 0E       		.uleb128 0xe
 2138 0132 3A       		.uleb128 0x3a
 2139 0133 0B       		.uleb128 0xb
 2140 0134 3B       		.uleb128 0x3b
 2141 0135 05       		.uleb128 0x5
 2142 0136 27       		.uleb128 0x27
 2143 0137 19       		.uleb128 0x19
 2144 0138 20       		.uleb128 0x20
 2145 0139 0B       		.uleb128 0xb
 2146 013a 00       		.byte	0
 2147 013b 00       		.byte	0
 2148 013c 1B       		.uleb128 0x1b
 2149 013d 34       		.uleb128 0x34
 2150 013e 00       		.byte	0
 2151 013f 03       		.uleb128 0x3
 2152 0140 0E       		.uleb128 0xe
 2153 0141 49       		.uleb128 0x49
 2154 0142 13       		.uleb128 0x13
 2155 0143 34       		.uleb128 0x34
 2156 0144 19       		.uleb128 0x19
 2157 0145 1C       		.uleb128 0x1c
 2158 0146 0E       		.uleb128 0xe
 2159 0147 00       		.byte	0
 2160 0148 00       		.byte	0
 2161 0149 1C       		.uleb128 0x1c
 2162 014a 2E       		.uleb128 0x2e
 2163 014b 01       		.byte	0x1
 2164 014c 3F       		.uleb128 0x3f
 2165 014d 19       		.uleb128 0x19
 2166 014e 03       		.uleb128 0x3
ARM GAS  /tmp/ccmXtELX.s 			page 39


 2167 014f 0E       		.uleb128 0xe
 2168 0150 3A       		.uleb128 0x3a
 2169 0151 0B       		.uleb128 0xb
 2170 0152 3B       		.uleb128 0x3b
 2171 0153 0B       		.uleb128 0xb
 2172 0154 27       		.uleb128 0x27
 2173 0155 19       		.uleb128 0x19
 2174 0156 49       		.uleb128 0x49
 2175 0157 13       		.uleb128 0x13
 2176 0158 20       		.uleb128 0x20
 2177 0159 0B       		.uleb128 0xb
 2178 015a 01       		.uleb128 0x1
 2179 015b 13       		.uleb128 0x13
 2180 015c 00       		.byte	0
 2181 015d 00       		.byte	0
 2182 015e 1D       		.uleb128 0x1d
 2183 015f 05       		.uleb128 0x5
 2184 0160 00       		.byte	0
 2185 0161 03       		.uleb128 0x3
 2186 0162 08       		.uleb128 0x8
 2187 0163 3A       		.uleb128 0x3a
 2188 0164 0B       		.uleb128 0xb
 2189 0165 3B       		.uleb128 0x3b
 2190 0166 0B       		.uleb128 0xb
 2191 0167 49       		.uleb128 0x49
 2192 0168 13       		.uleb128 0x13
 2193 0169 00       		.byte	0
 2194 016a 00       		.byte	0
 2195 016b 1E       		.uleb128 0x1e
 2196 016c 34       		.uleb128 0x34
 2197 016d 00       		.byte	0
 2198 016e 03       		.uleb128 0x3
 2199 016f 0E       		.uleb128 0xe
 2200 0170 3A       		.uleb128 0x3a
 2201 0171 0B       		.uleb128 0xb
 2202 0172 3B       		.uleb128 0x3b
 2203 0173 0B       		.uleb128 0xb
 2204 0174 49       		.uleb128 0x49
 2205 0175 13       		.uleb128 0x13
 2206 0176 00       		.byte	0
 2207 0177 00       		.byte	0
 2208 0178 1F       		.uleb128 0x1f
 2209 0179 2E       		.uleb128 0x2e
 2210 017a 01       		.byte	0x1
 2211 017b 3F       		.uleb128 0x3f
 2212 017c 19       		.uleb128 0x19
 2213 017d 03       		.uleb128 0x3
 2214 017e 0E       		.uleb128 0xe
 2215 017f 3A       		.uleb128 0x3a
 2216 0180 0B       		.uleb128 0xb
 2217 0181 3B       		.uleb128 0x3b
 2218 0182 0B       		.uleb128 0xb
 2219 0183 27       		.uleb128 0x27
 2220 0184 19       		.uleb128 0x19
 2221 0185 20       		.uleb128 0x20
 2222 0186 0B       		.uleb128 0xb
 2223 0187 01       		.uleb128 0x1
ARM GAS  /tmp/ccmXtELX.s 			page 40


 2224 0188 13       		.uleb128 0x13
 2225 0189 00       		.byte	0
 2226 018a 00       		.byte	0
 2227 018b 20       		.uleb128 0x20
 2228 018c 05       		.uleb128 0x5
 2229 018d 00       		.byte	0
 2230 018e 03       		.uleb128 0x3
 2231 018f 0E       		.uleb128 0xe
 2232 0190 3A       		.uleb128 0x3a
 2233 0191 0B       		.uleb128 0xb
 2234 0192 3B       		.uleb128 0x3b
 2235 0193 0B       		.uleb128 0xb
 2236 0194 49       		.uleb128 0x49
 2237 0195 13       		.uleb128 0x13
 2238 0196 00       		.byte	0
 2239 0197 00       		.byte	0
 2240 0198 21       		.uleb128 0x21
 2241 0199 34       		.uleb128 0x34
 2242 019a 00       		.byte	0
 2243 019b 03       		.uleb128 0x3
 2244 019c 08       		.uleb128 0x8
 2245 019d 3A       		.uleb128 0x3a
 2246 019e 0B       		.uleb128 0xb
 2247 019f 3B       		.uleb128 0x3b
 2248 01a0 0B       		.uleb128 0xb
 2249 01a1 49       		.uleb128 0x49
 2250 01a2 13       		.uleb128 0x13
 2251 01a3 00       		.byte	0
 2252 01a4 00       		.byte	0
 2253 01a5 22       		.uleb128 0x22
 2254 01a6 2E       		.uleb128 0x2e
 2255 01a7 01       		.byte	0x1
 2256 01a8 03       		.uleb128 0x3
 2257 01a9 0E       		.uleb128 0xe
 2258 01aa 3A       		.uleb128 0x3a
 2259 01ab 0B       		.uleb128 0xb
 2260 01ac 3B       		.uleb128 0x3b
 2261 01ad 0B       		.uleb128 0xb
 2262 01ae 27       		.uleb128 0x27
 2263 01af 19       		.uleb128 0x19
 2264 01b0 20       		.uleb128 0x20
 2265 01b1 0B       		.uleb128 0xb
 2266 01b2 01       		.uleb128 0x1
 2267 01b3 13       		.uleb128 0x13
 2268 01b4 00       		.byte	0
 2269 01b5 00       		.byte	0
 2270 01b6 23       		.uleb128 0x23
 2271 01b7 2E       		.uleb128 0x2e
 2272 01b8 01       		.byte	0x1
 2273 01b9 3F       		.uleb128 0x3f
 2274 01ba 19       		.uleb128 0x19
 2275 01bb 03       		.uleb128 0x3
 2276 01bc 0E       		.uleb128 0xe
 2277 01bd 3A       		.uleb128 0x3a
 2278 01be 0B       		.uleb128 0xb
 2279 01bf 3B       		.uleb128 0x3b
 2280 01c0 0B       		.uleb128 0xb
ARM GAS  /tmp/ccmXtELX.s 			page 41


 2281 01c1 27       		.uleb128 0x27
 2282 01c2 19       		.uleb128 0x19
 2283 01c3 11       		.uleb128 0x11
 2284 01c4 01       		.uleb128 0x1
 2285 01c5 12       		.uleb128 0x12
 2286 01c6 06       		.uleb128 0x6
 2287 01c7 40       		.uleb128 0x40
 2288 01c8 18       		.uleb128 0x18
 2289 01c9 9742     		.uleb128 0x2117
 2290 01cb 19       		.uleb128 0x19
 2291 01cc 01       		.uleb128 0x1
 2292 01cd 13       		.uleb128 0x13
 2293 01ce 00       		.byte	0
 2294 01cf 00       		.byte	0
 2295 01d0 24       		.uleb128 0x24
 2296 01d1 05       		.uleb128 0x5
 2297 01d2 00       		.byte	0
 2298 01d3 03       		.uleb128 0x3
 2299 01d4 08       		.uleb128 0x8
 2300 01d5 3A       		.uleb128 0x3a
 2301 01d6 0B       		.uleb128 0xb
 2302 01d7 3B       		.uleb128 0x3b
 2303 01d8 0B       		.uleb128 0xb
 2304 01d9 49       		.uleb128 0x49
 2305 01da 13       		.uleb128 0x13
 2306 01db 02       		.uleb128 0x2
 2307 01dc 18       		.uleb128 0x18
 2308 01dd 00       		.byte	0
 2309 01de 00       		.byte	0
 2310 01df 25       		.uleb128 0x25
 2311 01e0 05       		.uleb128 0x5
 2312 01e1 00       		.byte	0
 2313 01e2 03       		.uleb128 0x3
 2314 01e3 0E       		.uleb128 0xe
 2315 01e4 3A       		.uleb128 0x3a
 2316 01e5 0B       		.uleb128 0xb
 2317 01e6 3B       		.uleb128 0x3b
 2318 01e7 0B       		.uleb128 0xb
 2319 01e8 49       		.uleb128 0x49
 2320 01e9 13       		.uleb128 0x13
 2321 01ea 02       		.uleb128 0x2
 2322 01eb 18       		.uleb128 0x18
 2323 01ec 00       		.byte	0
 2324 01ed 00       		.byte	0
 2325 01ee 26       		.uleb128 0x26
 2326 01ef 34       		.uleb128 0x34
 2327 01f0 00       		.byte	0
 2328 01f1 03       		.uleb128 0x3
 2329 01f2 0E       		.uleb128 0xe
 2330 01f3 49       		.uleb128 0x49
 2331 01f4 13       		.uleb128 0x13
 2332 01f5 34       		.uleb128 0x34
 2333 01f6 19       		.uleb128 0x19
 2334 01f7 00       		.byte	0
 2335 01f8 00       		.byte	0
 2336 01f9 27       		.uleb128 0x27
 2337 01fa 05       		.uleb128 0x5
ARM GAS  /tmp/ccmXtELX.s 			page 42


 2338 01fb 00       		.byte	0
 2339 01fc 03       		.uleb128 0x3
 2340 01fd 08       		.uleb128 0x8
 2341 01fe 3A       		.uleb128 0x3a
 2342 01ff 0B       		.uleb128 0xb
 2343 0200 3B       		.uleb128 0x3b
 2344 0201 0B       		.uleb128 0xb
 2345 0202 49       		.uleb128 0x49
 2346 0203 13       		.uleb128 0x13
 2347 0204 02       		.uleb128 0x2
 2348 0205 17       		.uleb128 0x17
 2349 0206 00       		.byte	0
 2350 0207 00       		.byte	0
 2351 0208 28       		.uleb128 0x28
 2352 0209 1D       		.uleb128 0x1d
 2353 020a 01       		.byte	0x1
 2354 020b 31       		.uleb128 0x31
 2355 020c 13       		.uleb128 0x13
 2356 020d 11       		.uleb128 0x11
 2357 020e 01       		.uleb128 0x1
 2358 020f 12       		.uleb128 0x12
 2359 0210 06       		.uleb128 0x6
 2360 0211 58       		.uleb128 0x58
 2361 0212 0B       		.uleb128 0xb
 2362 0213 59       		.uleb128 0x59
 2363 0214 0B       		.uleb128 0xb
 2364 0215 00       		.byte	0
 2365 0216 00       		.byte	0
 2366 0217 29       		.uleb128 0x29
 2367 0218 05       		.uleb128 0x5
 2368 0219 00       		.byte	0
 2369 021a 31       		.uleb128 0x31
 2370 021b 13       		.uleb128 0x13
 2371 021c 02       		.uleb128 0x2
 2372 021d 17       		.uleb128 0x17
 2373 021e 00       		.byte	0
 2374 021f 00       		.byte	0
 2375 0220 2A       		.uleb128 0x2a
 2376 0221 1D       		.uleb128 0x1d
 2377 0222 01       		.byte	0x1
 2378 0223 31       		.uleb128 0x31
 2379 0224 13       		.uleb128 0x13
 2380 0225 52       		.uleb128 0x52
 2381 0226 01       		.uleb128 0x1
 2382 0227 55       		.uleb128 0x55
 2383 0228 17       		.uleb128 0x17
 2384 0229 58       		.uleb128 0x58
 2385 022a 0B       		.uleb128 0xb
 2386 022b 59       		.uleb128 0x59
 2387 022c 0B       		.uleb128 0xb
 2388 022d 01       		.uleb128 0x1
 2389 022e 13       		.uleb128 0x13
 2390 022f 00       		.byte	0
 2391 0230 00       		.byte	0
 2392 0231 2B       		.uleb128 0x2b
 2393 0232 1D       		.uleb128 0x1d
 2394 0233 01       		.byte	0x1
ARM GAS  /tmp/ccmXtELX.s 			page 43


 2395 0234 31       		.uleb128 0x31
 2396 0235 13       		.uleb128 0x13
 2397 0236 52       		.uleb128 0x52
 2398 0237 01       		.uleb128 0x1
 2399 0238 55       		.uleb128 0x55
 2400 0239 17       		.uleb128 0x17
 2401 023a 58       		.uleb128 0x58
 2402 023b 0B       		.uleb128 0xb
 2403 023c 59       		.uleb128 0x59
 2404 023d 05       		.uleb128 0x5
 2405 023e 00       		.byte	0
 2406 023f 00       		.byte	0
 2407 0240 2C       		.uleb128 0x2c
 2408 0241 0B       		.uleb128 0xb
 2409 0242 01       		.byte	0x1
 2410 0243 55       		.uleb128 0x55
 2411 0244 17       		.uleb128 0x17
 2412 0245 00       		.byte	0
 2413 0246 00       		.byte	0
 2414 0247 2D       		.uleb128 0x2d
 2415 0248 34       		.uleb128 0x34
 2416 0249 00       		.byte	0
 2417 024a 31       		.uleb128 0x31
 2418 024b 13       		.uleb128 0x13
 2419 024c 00       		.byte	0
 2420 024d 00       		.byte	0
 2421 024e 2E       		.uleb128 0x2e
 2422 024f 0B       		.uleb128 0xb
 2423 0250 01       		.byte	0x1
 2424 0251 11       		.uleb128 0x11
 2425 0252 01       		.uleb128 0x1
 2426 0253 12       		.uleb128 0x12
 2427 0254 06       		.uleb128 0x6
 2428 0255 00       		.byte	0
 2429 0256 00       		.byte	0
 2430 0257 2F       		.uleb128 0x2f
 2431 0258 34       		.uleb128 0x34
 2432 0259 00       		.byte	0
 2433 025a 31       		.uleb128 0x31
 2434 025b 13       		.uleb128 0x13
 2435 025c 02       		.uleb128 0x2
 2436 025d 17       		.uleb128 0x17
 2437 025e 00       		.byte	0
 2438 025f 00       		.byte	0
 2439 0260 30       		.uleb128 0x30
 2440 0261 2E       		.uleb128 0x2e
 2441 0262 01       		.byte	0x1
 2442 0263 31       		.uleb128 0x31
 2443 0264 13       		.uleb128 0x13
 2444 0265 11       		.uleb128 0x11
 2445 0266 01       		.uleb128 0x1
 2446 0267 12       		.uleb128 0x12
 2447 0268 06       		.uleb128 0x6
 2448 0269 40       		.uleb128 0x40
 2449 026a 18       		.uleb128 0x18
 2450 026b 01       		.uleb128 0x1
 2451 026c 13       		.uleb128 0x13
ARM GAS  /tmp/ccmXtELX.s 			page 44


 2452 026d 00       		.byte	0
 2453 026e 00       		.byte	0
 2454 026f 31       		.uleb128 0x31
 2455 0270 2E       		.uleb128 0x2e
 2456 0271 01       		.byte	0x1
 2457 0272 3F       		.uleb128 0x3f
 2458 0273 19       		.uleb128 0x19
 2459 0274 03       		.uleb128 0x3
 2460 0275 0E       		.uleb128 0xe
 2461 0276 3A       		.uleb128 0x3a
 2462 0277 0B       		.uleb128 0xb
 2463 0278 3B       		.uleb128 0x3b
 2464 0279 0B       		.uleb128 0xb
 2465 027a 27       		.uleb128 0x27
 2466 027b 19       		.uleb128 0x19
 2467 027c 49       		.uleb128 0x49
 2468 027d 13       		.uleb128 0x13
 2469 027e 11       		.uleb128 0x11
 2470 027f 01       		.uleb128 0x1
 2471 0280 12       		.uleb128 0x12
 2472 0281 06       		.uleb128 0x6
 2473 0282 40       		.uleb128 0x40
 2474 0283 18       		.uleb128 0x18
 2475 0284 9642     		.uleb128 0x2116
 2476 0286 19       		.uleb128 0x19
 2477 0287 01       		.uleb128 0x1
 2478 0288 13       		.uleb128 0x13
 2479 0289 00       		.byte	0
 2480 028a 00       		.byte	0
 2481 028b 32       		.uleb128 0x32
 2482 028c 34       		.uleb128 0x34
 2483 028d 00       		.byte	0
 2484 028e 03       		.uleb128 0x3
 2485 028f 0E       		.uleb128 0xe
 2486 0290 3A       		.uleb128 0x3a
 2487 0291 0B       		.uleb128 0xb
 2488 0292 3B       		.uleb128 0x3b
 2489 0293 0B       		.uleb128 0xb
 2490 0294 49       		.uleb128 0x49
 2491 0295 13       		.uleb128 0x13
 2492 0296 02       		.uleb128 0x2
 2493 0297 18       		.uleb128 0x18
 2494 0298 00       		.byte	0
 2495 0299 00       		.byte	0
 2496 029a 33       		.uleb128 0x33
 2497 029b 1D       		.uleb128 0x1d
 2498 029c 01       		.byte	0x1
 2499 029d 31       		.uleb128 0x31
 2500 029e 13       		.uleb128 0x13
 2501 029f 52       		.uleb128 0x52
 2502 02a0 01       		.uleb128 0x1
 2503 02a1 55       		.uleb128 0x55
 2504 02a2 17       		.uleb128 0x17
 2505 02a3 58       		.uleb128 0x58
 2506 02a4 0B       		.uleb128 0xb
 2507 02a5 59       		.uleb128 0x59
 2508 02a6 0B       		.uleb128 0xb
ARM GAS  /tmp/ccmXtELX.s 			page 45


 2509 02a7 00       		.byte	0
 2510 02a8 00       		.byte	0
 2511 02a9 34       		.uleb128 0x34
 2512 02aa 2E       		.uleb128 0x2e
 2513 02ab 01       		.byte	0x1
 2514 02ac 31       		.uleb128 0x31
 2515 02ad 13       		.uleb128 0x13
 2516 02ae 11       		.uleb128 0x11
 2517 02af 01       		.uleb128 0x1
 2518 02b0 12       		.uleb128 0x12
 2519 02b1 06       		.uleb128 0x6
 2520 02b2 40       		.uleb128 0x40
 2521 02b3 18       		.uleb128 0x18
 2522 02b4 9742     		.uleb128 0x2117
 2523 02b6 19       		.uleb128 0x19
 2524 02b7 01       		.uleb128 0x1
 2525 02b8 13       		.uleb128 0x13
 2526 02b9 00       		.byte	0
 2527 02ba 00       		.byte	0
 2528 02bb 35       		.uleb128 0x35
 2529 02bc 05       		.uleb128 0x5
 2530 02bd 00       		.byte	0
 2531 02be 31       		.uleb128 0x31
 2532 02bf 13       		.uleb128 0x13
 2533 02c0 02       		.uleb128 0x2
 2534 02c1 18       		.uleb128 0x18
 2535 02c2 00       		.byte	0
 2536 02c3 00       		.byte	0
 2537 02c4 36       		.uleb128 0x36
 2538 02c5 34       		.uleb128 0x34
 2539 02c6 00       		.byte	0
 2540 02c7 31       		.uleb128 0x31
 2541 02c8 13       		.uleb128 0x13
 2542 02c9 02       		.uleb128 0x2
 2543 02ca 18       		.uleb128 0x18
 2544 02cb 00       		.byte	0
 2545 02cc 00       		.byte	0
 2546 02cd 37       		.uleb128 0x37
 2547 02ce 1D       		.uleb128 0x1d
 2548 02cf 01       		.byte	0x1
 2549 02d0 31       		.uleb128 0x31
 2550 02d1 13       		.uleb128 0x13
 2551 02d2 11       		.uleb128 0x11
 2552 02d3 01       		.uleb128 0x1
 2553 02d4 12       		.uleb128 0x12
 2554 02d5 06       		.uleb128 0x6
 2555 02d6 58       		.uleb128 0x58
 2556 02d7 0B       		.uleb128 0xb
 2557 02d8 59       		.uleb128 0x59
 2558 02d9 0B       		.uleb128 0xb
 2559 02da 01       		.uleb128 0x1
 2560 02db 13       		.uleb128 0x13
 2561 02dc 00       		.byte	0
 2562 02dd 00       		.byte	0
 2563 02de 38       		.uleb128 0x38
 2564 02df 1D       		.uleb128 0x1d
 2565 02e0 01       		.byte	0x1
ARM GAS  /tmp/ccmXtELX.s 			page 46


 2566 02e1 31       		.uleb128 0x31
 2567 02e2 13       		.uleb128 0x13
 2568 02e3 11       		.uleb128 0x11
 2569 02e4 01       		.uleb128 0x1
 2570 02e5 12       		.uleb128 0x12
 2571 02e6 06       		.uleb128 0x6
 2572 02e7 58       		.uleb128 0x58
 2573 02e8 0B       		.uleb128 0xb
 2574 02e9 59       		.uleb128 0x59
 2575 02ea 05       		.uleb128 0x5
 2576 02eb 00       		.byte	0
 2577 02ec 00       		.byte	0
 2578 02ed 39       		.uleb128 0x39
 2579 02ee 34       		.uleb128 0x34
 2580 02ef 00       		.byte	0
 2581 02f0 03       		.uleb128 0x3
 2582 02f1 0E       		.uleb128 0xe
 2583 02f2 3A       		.uleb128 0x3a
 2584 02f3 0B       		.uleb128 0xb
 2585 02f4 3B       		.uleb128 0x3b
 2586 02f5 05       		.uleb128 0x5
 2587 02f6 49       		.uleb128 0x49
 2588 02f7 13       		.uleb128 0x13
 2589 02f8 3F       		.uleb128 0x3f
 2590 02f9 19       		.uleb128 0x19
 2591 02fa 3C       		.uleb128 0x3c
 2592 02fb 19       		.uleb128 0x19
 2593 02fc 00       		.byte	0
 2594 02fd 00       		.byte	0
 2595 02fe 3A       		.uleb128 0x3a
 2596 02ff 34       		.uleb128 0x34
 2597 0300 00       		.byte	0
 2598 0301 03       		.uleb128 0x3
 2599 0302 08       		.uleb128 0x8
 2600 0303 3A       		.uleb128 0x3a
 2601 0304 0B       		.uleb128 0xb
 2602 0305 3B       		.uleb128 0x3b
 2603 0306 05       		.uleb128 0x5
 2604 0307 49       		.uleb128 0x49
 2605 0308 13       		.uleb128 0x13
 2606 0309 3F       		.uleb128 0x3f
 2607 030a 19       		.uleb128 0x19
 2608 030b 3C       		.uleb128 0x3c
 2609 030c 19       		.uleb128 0x19
 2610 030d 00       		.byte	0
 2611 030e 00       		.byte	0
 2612 030f 00       		.byte	0
 2613              		.section	.debug_loc,"",%progbits
 2614              	.Ldebug_loc0:
 2615              	.LLST0:
 2616 0000 00000000 		.4byte	.LVL1
 2617 0004 1C000000 		.4byte	.LVL7
 2618 0008 0100     		.2byte	0x1
 2619 000a 51       		.byte	0x51
 2620 000b 1C000000 		.4byte	.LVL7
 2621 000f 22000000 		.4byte	.LFE228
 2622 0013 0100     		.2byte	0x1
ARM GAS  /tmp/ccmXtELX.s 			page 47


 2623 0015 51       		.byte	0x51
 2624 0016 00000000 		.4byte	0
 2625 001a 00000000 		.4byte	0
 2626              	.LLST1:
 2627 001e 00000000 		.4byte	.LVL1
 2628 0022 08000000 		.4byte	.LVL2
 2629 0026 0100     		.2byte	0x1
 2630 0028 52       		.byte	0x52
 2631 0029 08000000 		.4byte	.LVL2
 2632 002d 1A000000 		.4byte	.LVL6
 2633 0031 0100     		.2byte	0x1
 2634 0033 52       		.byte	0x52
 2635 0034 1A000000 		.4byte	.LVL6
 2636 0038 1C000000 		.4byte	.LVL7
 2637 003c 0300     		.2byte	0x3
 2638 003e 72       		.byte	0x72
 2639 003f 01       		.sleb128 1
 2640 0040 9F       		.byte	0x9f
 2641 0041 00000000 		.4byte	0
 2642 0045 00000000 		.4byte	0
 2643              	.LLST2:
 2644 0049 08000000 		.4byte	.LVL2
 2645 004d 20000000 		.4byte	.LVL8
 2646 0051 0100     		.2byte	0x1
 2647 0053 50       		.byte	0x50
 2648 0054 00000000 		.4byte	0
 2649 0058 00000000 		.4byte	0
 2650              	.LLST3:
 2651 005c 08000000 		.4byte	.LVL2
 2652 0060 16000000 		.4byte	.LVL5
 2653 0064 0100     		.2byte	0x1
 2654 0066 51       		.byte	0x51
 2655 0067 00000000 		.4byte	0
 2656 006b 00000000 		.4byte	0
 2657              	.LLST5:
 2658 006f 08000000 		.4byte	.LVL2
 2659 0073 16000000 		.4byte	.LVL5
 2660 0077 0100     		.2byte	0x1
 2661 0079 50       		.byte	0x50
 2662 007a 00000000 		.4byte	0
 2663 007e 00000000 		.4byte	0
 2664              	.LLST6:
 2665 0082 08000000 		.4byte	.LVL2
 2666 0086 0C000000 		.4byte	.LVL3
 2667 008a 0300     		.2byte	0x3
 2668 008c 08       		.byte	0x8
 2669 008d 20       		.byte	0x20
 2670 008e 9F       		.byte	0x9f
 2671 008f 00000000 		.4byte	0
 2672 0093 00000000 		.4byte	0
 2673              	.LLST7:
 2674 0097 12000000 		.4byte	.LVL4
 2675 009b 16000000 		.4byte	.LVL5
 2676 009f 0200     		.2byte	0x2
 2677 00a1 30       		.byte	0x30
 2678 00a2 9F       		.byte	0x9f
 2679 00a3 00000000 		.4byte	0
ARM GAS  /tmp/ccmXtELX.s 			page 48


 2680 00a7 00000000 		.4byte	0
 2681              	.LLST8:
 2682 00ab 0C000000 		.4byte	.LVL3
 2683 00af 12000000 		.4byte	.LVL4
 2684 00b3 0100     		.2byte	0x1
 2685 00b5 51       		.byte	0x51
 2686 00b6 00000000 		.4byte	0
 2687 00ba 00000000 		.4byte	0
 2688              	.LLST9:
 2689 00be 0C000000 		.4byte	.LVL3
 2690 00c2 12000000 		.4byte	.LVL4
 2691 00c6 0100     		.2byte	0x1
 2692 00c8 50       		.byte	0x50
 2693 00c9 00000000 		.4byte	0
 2694 00cd 00000000 		.4byte	0
 2695              	.LLST10:
 2696 00d1 0C000000 		.4byte	.LVL3
 2697 00d5 1C000000 		.4byte	.LVL7
 2698 00d9 0100     		.2byte	0x1
 2699 00db 51       		.byte	0x51
 2700 00dc 1C000000 		.4byte	.LVL7
 2701 00e0 20000000 		.4byte	.LVL8
 2702 00e4 0200     		.2byte	0x2
 2703 00e6 70       		.byte	0x70
 2704 00e7 00       		.sleb128 0
 2705 00e8 00000000 		.4byte	0
 2706 00ec 00000000 		.4byte	0
 2707              	.LLST11:
 2708 00f0 00000000 		.4byte	.LVL9
 2709 00f4 0A000000 		.4byte	.LVL11
 2710 00f8 0100     		.2byte	0x1
 2711 00fa 50       		.byte	0x50
 2712 00fb 0A000000 		.4byte	.LVL11
 2713 00ff 0C000000 		.4byte	.LVL12
 2714 0103 0400     		.2byte	0x4
 2715 0105 F3       		.byte	0xf3
 2716 0106 01       		.uleb128 0x1
 2717 0107 50       		.byte	0x50
 2718 0108 9F       		.byte	0x9f
 2719 0109 0C000000 		.4byte	.LVL12
 2720 010d 14000000 		.4byte	.LVL13
 2721 0111 0100     		.2byte	0x1
 2722 0113 50       		.byte	0x50
 2723 0114 14000000 		.4byte	.LVL13
 2724 0118 16000000 		.4byte	.LFE229
 2725 011c 0400     		.2byte	0x4
 2726 011e F3       		.byte	0xf3
 2727 011f 01       		.uleb128 0x1
 2728 0120 50       		.byte	0x50
 2729 0121 9F       		.byte	0x9f
 2730 0122 00000000 		.4byte	0
 2731 0126 00000000 		.4byte	0
 2732              	.LLST12:
 2733 012a 02000000 		.4byte	.LVL10
 2734 012e 15000000 		.4byte	.LVL14-1
 2735 0132 0100     		.2byte	0x1
 2736 0134 53       		.byte	0x53
ARM GAS  /tmp/ccmXtELX.s 			page 49


 2737 0135 00000000 		.4byte	0
 2738 0139 00000000 		.4byte	0
 2739              	.LLST13:
 2740 013d 00000000 		.4byte	.LVL15
 2741 0141 0C000000 		.4byte	.LVL17
 2742 0145 0100     		.2byte	0x1
 2743 0147 50       		.byte	0x50
 2744 0148 0C000000 		.4byte	.LVL17
 2745 014c 14000000 		.4byte	.LVL19
 2746 0150 0100     		.2byte	0x1
 2747 0152 53       		.byte	0x53
 2748 0153 14000000 		.4byte	.LVL19
 2749 0157 1A000000 		.4byte	.LVL21
 2750 015b 0400     		.2byte	0x4
 2751 015d F3       		.byte	0xf3
 2752 015e 01       		.uleb128 0x1
 2753 015f 50       		.byte	0x50
 2754 0160 9F       		.byte	0x9f
 2755 0161 1A000000 		.4byte	.LVL21
 2756 0165 23000000 		.4byte	.LVL23-1
 2757 0169 0100     		.2byte	0x1
 2758 016b 53       		.byte	0x53
 2759 016c 23000000 		.4byte	.LVL23-1
 2760 0170 2C000000 		.4byte	.LFE230
 2761 0174 0400     		.2byte	0x4
 2762 0176 F3       		.byte	0xf3
 2763 0177 01       		.uleb128 0x1
 2764 0178 50       		.byte	0x50
 2765 0179 9F       		.byte	0x9f
 2766 017a 00000000 		.4byte	0
 2767 017e 00000000 		.4byte	0
 2768              	.LLST14:
 2769 0182 00000000 		.4byte	.LVL15
 2770 0186 0A000000 		.4byte	.LVL16
 2771 018a 0300     		.2byte	0x3
 2772 018c 08       		.byte	0x8
 2773 018d 20       		.byte	0x20
 2774 018e 9F       		.byte	0x9f
 2775 018f 00000000 		.4byte	0
 2776 0193 00000000 		.4byte	0
 2777              	.LLST15:
 2778 0197 0A000000 		.4byte	.LVL16
 2779 019b 0C000000 		.4byte	.LVL17
 2780 019f 0100     		.2byte	0x1
 2781 01a1 50       		.byte	0x50
 2782 01a2 0C000000 		.4byte	.LVL17
 2783 01a6 12000000 		.4byte	.LVL18
 2784 01aa 0100     		.2byte	0x1
 2785 01ac 53       		.byte	0x53
 2786 01ad 1A000000 		.4byte	.LVL21
 2787 01b1 23000000 		.4byte	.LVL23-1
 2788 01b5 0100     		.2byte	0x1
 2789 01b7 53       		.byte	0x53
 2790 01b8 23000000 		.4byte	.LVL23-1
 2791 01bc 24000000 		.4byte	.LVL23
 2792 01c0 0400     		.2byte	0x4
 2793 01c2 F3       		.byte	0xf3
ARM GAS  /tmp/ccmXtELX.s 			page 50


 2794 01c3 01       		.uleb128 0x1
 2795 01c4 50       		.byte	0x50
 2796 01c5 9F       		.byte	0x9f
 2797 01c6 00000000 		.4byte	0
 2798 01ca 00000000 		.4byte	0
 2799              	.LLST16:
 2800 01ce 0C000000 		.4byte	.LVL17
 2801 01d2 12000000 		.4byte	.LVL18
 2802 01d6 0100     		.2byte	0x1
 2803 01d8 50       		.byte	0x50
 2804 01d9 1A000000 		.4byte	.LVL21
 2805 01dd 22000000 		.4byte	.LVL22
 2806 01e1 0100     		.2byte	0x1
 2807 01e3 50       		.byte	0x50
 2808 01e4 22000000 		.4byte	.LVL22
 2809 01e8 23000000 		.4byte	.LVL23-1
 2810 01ec 0200     		.2byte	0x2
 2811 01ee 73       		.byte	0x73
 2812 01ef 00       		.sleb128 0
 2813 01f0 00000000 		.4byte	0
 2814 01f4 00000000 		.4byte	0
 2815              	.LLST17:
 2816 01f8 12000000 		.4byte	.LVL18
 2817 01fc 18000000 		.4byte	.LVL20
 2818 0200 0200     		.2byte	0x2
 2819 0202 30       		.byte	0x30
 2820 0203 9F       		.byte	0x9f
 2821 0204 24000000 		.4byte	.LVL23
 2822 0208 2A000000 		.4byte	.LVL24
 2823 020c 0200     		.2byte	0x2
 2824 020e 30       		.byte	0x30
 2825 020f 9F       		.byte	0x9f
 2826 0210 00000000 		.4byte	0
 2827 0214 00000000 		.4byte	0
 2828              	.LLST18:
 2829 0218 00000000 		.4byte	.LVL26
 2830 021c 06000000 		.4byte	.LVL27
 2831 0220 0300     		.2byte	0x3
 2832 0222 08       		.byte	0x8
 2833 0223 20       		.byte	0x20
 2834 0224 9F       		.byte	0x9f
 2835 0225 00000000 		.4byte	0
 2836 0229 00000000 		.4byte	0
 2837              	.LLST19:
 2838 022d 06000000 		.4byte	.LVL27
 2839 0231 0E000000 		.4byte	.LVL28
 2840 0235 0100     		.2byte	0x1
 2841 0237 51       		.byte	0x51
 2842 0238 00000000 		.4byte	0
 2843 023c 00000000 		.4byte	0
 2844              	.LLST20:
 2845 0240 06000000 		.4byte	.LVL27
 2846 0244 0E000000 		.4byte	.LVL28
 2847 0248 0100     		.2byte	0x1
 2848 024a 50       		.byte	0x50
 2849 024b 00000000 		.4byte	0
 2850 024f 00000000 		.4byte	0
ARM GAS  /tmp/ccmXtELX.s 			page 51


 2851              	.LLST21:
 2852 0253 0E000000 		.4byte	.LVL28
 2853 0257 12000000 		.4byte	.LVL29
 2854 025b 0200     		.2byte	0x2
 2855 025d 30       		.byte	0x30
 2856 025e 9F       		.byte	0x9f
 2857 025f 00000000 		.4byte	0
 2858 0263 00000000 		.4byte	0
 2859              		.section	.debug_aranges,"",%progbits
 2860 0000 44000000 		.4byte	0x44
 2861 0004 0200     		.2byte	0x2
 2862 0006 00000000 		.4byte	.Ldebug_info0
 2863 000a 04       		.byte	0x4
 2864 000b 00       		.byte	0
 2865 000c 0000     		.2byte	0
 2866 000e 0000     		.2byte	0
 2867 0010 00000000 		.4byte	.LFB227
 2868 0014 0A000000 		.4byte	.LFE227-.LFB227
 2869 0018 00000000 		.4byte	.LFB228
 2870 001c 22000000 		.4byte	.LFE228-.LFB228
 2871 0020 00000000 		.4byte	.LFB229
 2872 0024 16000000 		.4byte	.LFE229-.LFB229
 2873 0028 00000000 		.4byte	.LFB230
 2874 002c 2C000000 		.4byte	.LFE230-.LFB230
 2875 0030 00000000 		.4byte	.LFB231
 2876 0034 08000000 		.4byte	.LFE231-.LFB231
 2877 0038 00000000 		.4byte	.LFB232
 2878 003c 14000000 		.4byte	.LFE232-.LFB232
 2879 0040 00000000 		.4byte	0
 2880 0044 00000000 		.4byte	0
 2881              		.section	.debug_ranges,"",%progbits
 2882              	.Ldebug_ranges0:
 2883 0000 04000000 		.4byte	.LBB79
 2884 0004 06000000 		.4byte	.LBE79
 2885 0008 08000000 		.4byte	.LBB95
 2886 000c 0C000000 		.4byte	.LBE95
 2887 0010 00000000 		.4byte	0
 2888 0014 00000000 		.4byte	0
 2889 0018 06000000 		.4byte	.LBB86
 2890 001c 08000000 		.4byte	.LBE86
 2891 0020 12000000 		.4byte	.LBB98
 2892 0024 16000000 		.4byte	.LBE98
 2893 0028 00000000 		.4byte	0
 2894 002c 00000000 		.4byte	0
 2895 0030 02000000 		.4byte	.LBB99
 2896 0034 04000000 		.4byte	.LBE99
 2897 0038 06000000 		.4byte	.LBB106
 2898 003c 0A000000 		.4byte	.LBE106
 2899 0040 00000000 		.4byte	0
 2900 0044 00000000 		.4byte	0
 2901 0048 0A000000 		.4byte	.LBB107
 2902 004c 12000000 		.4byte	.LBE107
 2903 0050 1A000000 		.4byte	.LBB119
 2904 0054 24000000 		.4byte	.LBE119
 2905 0058 00000000 		.4byte	0
 2906 005c 00000000 		.4byte	0
 2907 0060 12000000 		.4byte	.LBB110
ARM GAS  /tmp/ccmXtELX.s 			page 52


 2908 0064 18000000 		.4byte	.LBE110
 2909 0068 24000000 		.4byte	.LBB120
 2910 006c 2A000000 		.4byte	.LBE120
 2911 0070 00000000 		.4byte	0
 2912 0074 00000000 		.4byte	0
 2913 0078 06000000 		.4byte	.LBB125
 2914 007c 0A000000 		.4byte	.LBE125
 2915 0080 0C000000 		.4byte	.LBB137
 2916 0084 0E000000 		.4byte	.LBE137
 2917 0088 00000000 		.4byte	0
 2918 008c 00000000 		.4byte	0
 2919 0090 0A000000 		.4byte	.LBB128
 2920 0094 0C000000 		.4byte	.LBE128
 2921 0098 0E000000 		.4byte	.LBB138
 2922 009c 14000000 		.4byte	.LBE138
 2923 00a0 00000000 		.4byte	0
 2924 00a4 00000000 		.4byte	0
 2925 00a8 00000000 		.4byte	.LFB227
 2926 00ac 0A000000 		.4byte	.LFE227
 2927 00b0 00000000 		.4byte	.LFB228
 2928 00b4 22000000 		.4byte	.LFE228
 2929 00b8 00000000 		.4byte	.LFB229
 2930 00bc 16000000 		.4byte	.LFE229
 2931 00c0 00000000 		.4byte	.LFB230
 2932 00c4 2C000000 		.4byte	.LFE230
 2933 00c8 00000000 		.4byte	.LFB231
 2934 00cc 08000000 		.4byte	.LFE231
 2935 00d0 00000000 		.4byte	.LFB232
 2936 00d4 14000000 		.4byte	.LFE232
 2937 00d8 00000000 		.4byte	0
 2938 00dc 00000000 		.4byte	0
 2939              		.section	.debug_line,"",%progbits
 2940              	.Ldebug_line0:
 2941 0000 3D030000 		.section	.debug_str,"MS",%progbits,1
 2941      02005602 
 2941      00000201 
 2941      FB0E0D00 
 2941      01010101 
 2942              	.LASF52:
 2943 0000 72656164 		.ascii	"ready_list_t\000"
 2943      795F6C69 
 2943      73745F74 
 2943      00
 2944              	.LASF4:
 2945 000d 73697A65 		.ascii	"size_t\000"
 2945      5F7400
 2946              	.LASF87:
 2947 0014 7264796D 		.ascii	"rdymsg\000"
 2947      736700
 2948              	.LASF18:
 2949 001b 75696E74 		.ascii	"uint64_t\000"
 2949      36345F74 
 2949      00
 2950              	.LASF5:
 2951 0024 5F5F7569 		.ascii	"__uint8_t\000"
 2951      6E74385F 
 2951      7400
ARM GAS  /tmp/ccmXtELX.s 			page 53


 2952              	.LASF84:
 2953 002e 706F7274 		.ascii	"port_intctx\000"
 2953      5F696E74 
 2953      63747800 
 2954              	.LASF71:
 2955 003a 73797374 		.ascii	"system_debug_t\000"
 2955      656D5F64 
 2955      65627567 
 2955      5F7400
 2956              	.LASF123:
 2957 0049 70726F76 		.ascii	"provider\000"
 2957      69646572 
 2957      00
 2958              	.LASF110:
 2959 0052 706F7274 		.ascii	"port_lock\000"
 2959      5F6C6F63 
 2959      6B00
 2960              	.LASF127:
 2961 005c 474E5520 		.ascii	"GNU C11 5.4.1 20160919 (release) [ARM/embedded-5-br"
 2961      43313120 
 2961      352E342E 
 2961      31203230 
 2961      31363039 
 2962 008f 616E6368 		.ascii	"anch revision 240496] -mcpu=cortex-m4 -mno-thumb-in"
 2962      20726576 
 2962      6973696F 
 2962      6E203234 
 2962      30343936 
 2963 00c2 74657277 		.ascii	"terwork -mthumb -ggdb -O2 -fomit-frame-pointer -fal"
 2963      6F726B20 
 2963      2D6D7468 
 2963      756D6220 
 2963      2D676764 
 2964 00f5 69676E2D 		.ascii	"ign-functions=16 -ffunction-sections -fdata-section"
 2964      66756E63 
 2964      74696F6E 
 2964      733D3136 
 2964      202D6666 
 2965 0128 73202D66 		.ascii	"s -fno-common\000"
 2965      6E6F2D63 
 2965      6F6D6D6F 
 2965      6E00
 2966              	.LASF103:
 2967 0136 6D656D67 		.ascii	"memgetfunc_t\000"
 2967      65746675 
 2967      6E635F74 
 2967      00
 2968              	.LASF14:
 2969 0143 6C6F6E67 		.ascii	"long long unsigned int\000"
 2969      206C6F6E 
 2969      6720756E 
 2969      7369676E 
 2969      65642069 
 2970              	.LASF88:
 2971 015a 65786974 		.ascii	"exitcode\000"
 2971      636F6465 
 2971      00
ARM GAS  /tmp/ccmXtELX.s 			page 54


 2972              	.LASF78:
 2973 0163 6D61696E 		.ascii	"mainthread\000"
 2973      74687265 
 2973      616400
 2974              	.LASF68:
 2975 016e 76697274 		.ascii	"virtual_timers_list_t\000"
 2975      75616C5F 
 2975      74696D65 
 2975      72735F6C 
 2975      6973745F 
 2976              	.LASF126:
 2977 0184 49544D5F 		.ascii	"ITM_RxBuffer\000"
 2977      52784275 
 2977      66666572 
 2977      00
 2978              	.LASF51:
 2979 0191 63685F74 		.ascii	"ch_threads_queue\000"
 2979      68726561 
 2979      64735F71 
 2979      75657565 
 2979      00
 2980              	.LASF31:
 2981 01a2 705F7072 		.ascii	"p_prio\000"
 2981      696F00
 2982              	.LASF1:
 2983 01a9 6C6F6E67 		.ascii	"long long int\000"
 2983      206C6F6E 
 2983      6720696E 
 2983      7400
 2984              	.LASF3:
 2985 01b7 7369676E 		.ascii	"signed char\000"
 2985      65642063 
 2985      68617200 
 2986              	.LASF45:
 2987 01c3 705F6D70 		.ascii	"p_mpool\000"
 2987      6F6F6C00 
 2988              	.LASF98:
 2989 01cb 6D5F7175 		.ascii	"m_queue\000"
 2989      65756500 
 2990              	.LASF77:
 2991 01d3 76746C69 		.ascii	"vtlist\000"
 2991      737400
 2992              	.LASF111:
 2993 01da 706F7274 		.ascii	"port_unlock\000"
 2993      5F756E6C 
 2993      6F636B00 
 2994              	.LASF90:
 2995 01e6 77747472 		.ascii	"wttrp\000"
 2995      7000
 2996              	.LASF75:
 2997 01ec 63685F73 		.ascii	"ch_system\000"
 2997      79737465 
 2997      6D00
 2998              	.LASF10:
 2999 01f6 6C6F6E67 		.ascii	"long int\000"
 2999      20696E74 
 2999      00
ARM GAS  /tmp/ccmXtELX.s 			page 55


 3000              	.LASF21:
 3001 01ff 74737461 		.ascii	"tstate_t\000"
 3001      74655F74 
 3001      00
 3002              	.LASF106:
 3003 0208 6D705F6E 		.ascii	"mp_next\000"
 3003      65787400 
 3004              	.LASF33:
 3005 0210 705F6E65 		.ascii	"p_newer\000"
 3005      77657200 
 3006              	.LASF95:
 3007 0218 735F7175 		.ascii	"s_queue\000"
 3007      65756500 
 3008              	.LASF57:
 3009 0220 725F6E65 		.ascii	"r_newer\000"
 3009      77657200 
 3010              	.LASF108:
 3011 0228 6D705F70 		.ascii	"mp_provider\000"
 3011      726F7669 
 3011      64657200 
 3012              	.LASF81:
 3013 0234 72656761 		.ascii	"regarm_t\000"
 3013      726D5F74 
 3013      00
 3014              	.LASF64:
 3015 023d 76745F70 		.ascii	"vt_prev\000"
 3015      72657600 
 3016              	.LASF102:
 3017 0245 6D757465 		.ascii	"mutex_t\000"
 3017      785F7400 
 3018              	.LASF114:
 3019 024d 76616C75 		.ascii	"value\000"
 3019      6500
 3020              	.LASF79:
 3021 0253 69646C65 		.ascii	"idle_thread_wa\000"
 3021      5F746872 
 3021      6561645F 
 3021      776100
 3022              	.LASF26:
 3023 0262 636E745F 		.ascii	"cnt_t\000"
 3023      7400
 3024              	.LASF0:
 3025 0268 756E7369 		.ascii	"unsigned int\000"
 3025      676E6564 
 3025      20696E74 
 3025      00
 3026              	.LASF63:
 3027 0275 76745F6E 		.ascii	"vt_next\000"
 3027      65787400 
 3028              	.LASF91:
 3029 027d 77747365 		.ascii	"wtsemp\000"
 3029      6D7000
 3030              	.LASF40:
 3031 0284 705F6D73 		.ascii	"p_msgqueue\000"
 3031      67717565 
 3031      756500
 3032              	.LASF109:
ARM GAS  /tmp/ccmXtELX.s 			page 56


 3033 028f 6D656D6F 		.ascii	"memory_pool_t\000"
 3033      72795F70 
 3033      6F6F6C5F 
 3033      7400
 3034              	.LASF96:
 3035 029d 735F636E 		.ascii	"s_cnt\000"
 3035      7400
 3036              	.LASF8:
 3037 02a3 73686F72 		.ascii	"short unsigned int\000"
 3037      7420756E 
 3037      7369676E 
 3037      65642069 
 3037      6E7400
 3038              	.LASF48:
 3039 02b6 63685F74 		.ascii	"ch_thread\000"
 3039      68726561 
 3039      6400
 3040              	.LASF24:
 3041 02c0 6D73675F 		.ascii	"msg_t\000"
 3041      7400
 3042              	.LASF74:
 3043 02c6 63685F73 		.ascii	"ch_system_t\000"
 3043      79737465 
 3043      6D5F7400 
 3044              	.LASF121:
 3045 02d2 6368506F 		.ascii	"chPoolAdd\000"
 3045      6F6C4164 
 3045      6400
 3046              	.LASF20:
 3047 02dc 746D6F64 		.ascii	"tmode_t\000"
 3047      655F7400 
 3048              	.LASF124:
 3049 02e4 6368506F 		.ascii	"chPoolObjectInit\000"
 3049      6F6C4F62 
 3049      6A656374 
 3049      496E6974 
 3049      00
 3050              	.LASF53:
 3051 02f5 63685F72 		.ascii	"ch_ready_list\000"
 3051      65616479 
 3051      5F6C6973 
 3051      7400
 3052              	.LASF25:
 3053 0303 6576656E 		.ascii	"eventmask_t\000"
 3053      746D6173 
 3053      6B5F7400 
 3054              	.LASF9:
 3055 030f 5F5F696E 		.ascii	"__int32_t\000"
 3055      7433325F 
 3055      7400
 3056              	.LASF82:
 3057 0319 73746B61 		.ascii	"stkalign_t\000"
 3057      6C69676E 
 3057      5F7400
 3058              	.LASF39:
 3059 0324 705F7761 		.ascii	"p_waiting\000"
 3059      6974696E 
ARM GAS  /tmp/ccmXtELX.s 			page 57


 3059      6700
 3060              	.LASF80:
 3061 032e 73697A65 		.ascii	"sizetype\000"
 3061      74797065 
 3061      00
 3062              	.LASF46:
 3063 0337 74687265 		.ascii	"thread_reference_t\000"
 3063      61645F72 
 3063      65666572 
 3063      656E6365 
 3063      5F7400
 3064              	.LASF69:
 3065 034a 63685F76 		.ascii	"ch_virtual_timers_list\000"
 3065      69727475 
 3065      616C5F74 
 3065      696D6572 
 3065      735F6C69 
 3066              	.LASF2:
 3067 0361 6C6F6E67 		.ascii	"long double\000"
 3067      20646F75 
 3067      626C6500 
 3068              	.LASF117:
 3069 036d 6368506F 		.ascii	"chPoolAllocI\000"
 3069      6F6C416C 
 3069      6C6F6349 
 3069      00
 3070              	.LASF119:
 3071 037a 6368506F 		.ascii	"chPoolFreeI\000"
 3071      6F6C4672 
 3071      65654900 
 3072              	.LASF70:
 3073 0386 76745F6C 		.ascii	"vt_lasttime\000"
 3073      61737474 
 3073      696D6500 
 3074              	.LASF34:
 3075 0392 705F6F6C 		.ascii	"p_older\000"
 3075      64657200 
 3076              	.LASF56:
 3077 039a 725F6374 		.ascii	"r_ctx\000"
 3077      7800
 3078              	.LASF107:
 3079 03a0 6D705F6F 		.ascii	"mp_object_size\000"
 3079      626A6563 
 3079      745F7369 
 3079      7A6500
 3080              	.LASF86:
 3081 03af 746D5F63 		.ascii	"tm_calibration_t\000"
 3081      616C6962 
 3081      72617469 
 3081      6F6E5F74 
 3081      00
 3082              	.LASF59:
 3083 03c0 725F6375 		.ascii	"r_current\000"
 3083      7272656E 
 3083      7400
 3084              	.LASF58:
 3085 03ca 725F6F6C 		.ascii	"r_older\000"
ARM GAS  /tmp/ccmXtELX.s 			page 58


 3085      64657200 
 3086              	.LASF13:
 3087 03d2 5F5F7569 		.ascii	"__uint64_t\000"
 3087      6E743634 
 3087      5F7400
 3088              	.LASF105:
 3089 03dd 70685F6E 		.ascii	"ph_next\000"
 3089      65787400 
 3090              	.LASF22:
 3091 03e5 74726566 		.ascii	"trefs_t\000"
 3091      735F7400 
 3092              	.LASF61:
 3093 03ed 76697274 		.ascii	"virtual_timer_t\000"
 3093      75616C5F 
 3093      74696D65 
 3093      725F7400 
 3094              	.LASF30:
 3095 03fd 705F7072 		.ascii	"p_prev\000"
 3095      657600
 3096              	.LASF23:
 3097 0404 74707269 		.ascii	"tprio_t\000"
 3097      6F5F7400 
 3098              	.LASF72:
 3099 040c 63685F73 		.ascii	"ch_system_debug\000"
 3099      79737465 
 3099      6D5F6465 
 3099      62756700 
 3100              	.LASF16:
 3101 041c 696E7433 		.ascii	"int32_t\000"
 3101      325F7400 
 3102              	.LASF6:
 3103 0424 756E7369 		.ascii	"unsigned char\000"
 3103      676E6564 
 3103      20636861 
 3103      7200
 3104              	.LASF43:
 3105 0432 705F6D74 		.ascii	"p_mtxlist\000"
 3105      786C6973 
 3105      7400
 3106              	.LASF7:
 3107 043c 73686F72 		.ascii	"short int\000"
 3107      7420696E 
 3107      7400
 3108              	.LASF36:
 3109 0446 705F7374 		.ascii	"p_state\000"
 3109      61746500 
 3110              	.LASF55:
 3111 044e 725F7072 		.ascii	"r_prio\000"
 3111      696F00
 3112              	.LASF93:
 3113 0455 65776D61 		.ascii	"ewmask\000"
 3113      736B00
 3114              	.LASF29:
 3115 045c 705F6E65 		.ascii	"p_next\000"
 3115      787400
 3116              	.LASF115:
 3117 0463 5F5F6675 		.ascii	"__func__\000"
ARM GAS  /tmp/ccmXtELX.s 			page 59


 3117      6E635F5F 
 3117      00
 3118              	.LASF118:
 3119 046c 63685379 		.ascii	"chSysLock\000"
 3119      734C6F63 
 3119      6B00
 3120              	.LASF116:
 3121 0476 6F626A70 		.ascii	"objp\000"
 3121      00
 3122              	.LASF62:
 3123 047b 63685F76 		.ascii	"ch_virtual_timer\000"
 3123      69727475 
 3123      616C5F74 
 3123      696D6572 
 3123      00
 3124              	.LASF94:
 3125 048c 63685F73 		.ascii	"ch_semaphore\000"
 3125      656D6170 
 3125      686F7265 
 3125      00
 3126              	.LASF42:
 3127 0499 705F6570 		.ascii	"p_epending\000"
 3127      656E6469 
 3127      6E6700
 3128              	.LASF17:
 3129 04a4 75696E74 		.ascii	"uint32_t\000"
 3129      33325F74 
 3129      00
 3130              	.LASF92:
 3131 04ad 77746D74 		.ascii	"wtmtxp\000"
 3131      787000
 3132              	.LASF54:
 3133 04b4 725F7175 		.ascii	"r_queue\000"
 3133      65756500 
 3134              	.LASF65:
 3135 04bc 76745F64 		.ascii	"vt_delta\000"
 3135      656C7461 
 3135      00
 3136              	.LASF49:
 3137 04c5 63685F74 		.ascii	"ch_threads_list\000"
 3137      68726561 
 3137      64735F6C 
 3137      69737400 
 3138              	.LASF12:
 3139 04d5 6C6F6E67 		.ascii	"long unsigned int\000"
 3139      20756E73 
 3139      69676E65 
 3139      6420696E 
 3139      7400
 3140              	.LASF101:
 3141 04e7 63686172 		.ascii	"char\000"
 3141      00
 3142              	.LASF28:
 3143 04ec 74687265 		.ascii	"thread_t\000"
 3143      61645F74 
 3143      00
 3144              	.LASF100:
ARM GAS  /tmp/ccmXtELX.s 			page 60


 3145 04f5 6D5F6E65 		.ascii	"m_next\000"
 3145      787400
 3146              	.LASF27:
 3147 04fc 73797374 		.ascii	"systime_t\000"
 3147      696D655F 
 3147      7400
 3148              	.LASF44:
 3149 0506 705F7265 		.ascii	"p_realprio\000"
 3149      616C7072 
 3149      696F00
 3150              	.LASF60:
 3151 0511 76746675 		.ascii	"vtfunc_t\000"
 3151      6E635F74 
 3151      00
 3152              	.LASF11:
 3153 051a 5F5F7569 		.ascii	"__uint32_t\000"
 3153      6E743332 
 3153      5F7400
 3154              	.LASF112:
 3155 0525 5F5F7365 		.ascii	"__set_BASEPRI\000"
 3155      745F4241 
 3155      53455052 
 3155      4900
 3156              	.LASF73:
 3157 0533 70616E69 		.ascii	"panic_msg\000"
 3157      635F6D73 
 3157      6700
 3158              	.LASF85:
 3159 053d 6F666673 		.ascii	"offset\000"
 3159      657400
 3160              	.LASF97:
 3161 0544 63685F6D 		.ascii	"ch_mutex\000"
 3161      75746578 
 3161      00
 3162              	.LASF83:
 3163 054d 636F6E74 		.ascii	"context\000"
 3163      65787400 
 3164              	.LASF41:
 3165 0555 705F6D73 		.ascii	"p_msg\000"
 3165      6700
 3166              	.LASF19:
 3167 055b 7274636E 		.ascii	"rtcnt_t\000"
 3167      745F7400 
 3168              	.LASF67:
 3169 0563 76745F70 		.ascii	"vt_par\000"
 3169      617200
 3170              	.LASF50:
 3171 056a 74687265 		.ascii	"threads_queue_t\000"
 3171      6164735F 
 3171      71756575 
 3171      655F7400 
 3172              	.LASF104:
 3173 057a 706F6F6C 		.ascii	"pool_header\000"
 3173      5F686561 
 3173      64657200 
 3174              	.LASF38:
 3175 0586 705F7265 		.ascii	"p_refs\000"
ARM GAS  /tmp/ccmXtELX.s 			page 61


 3175      667300
 3176              	.LASF76:
 3177 058d 726C6973 		.ascii	"rlist\000"
 3177      7400
 3178              	.LASF15:
 3179 0593 75696E74 		.ascii	"uint8_t\000"
 3179      385F7400 
 3180              	.LASF129:
 3181 059b 6368506F 		.ascii	"chPoolAlloc\000"
 3181      6F6C416C 
 3181      6C6F6300 
 3182              	.LASF120:
 3183 05a7 6368506F 		.ascii	"chPoolFree\000"
 3183      6F6C4672 
 3183      656500
 3184              	.LASF89:
 3185 05b2 77746F62 		.ascii	"wtobjp\000"
 3185      6A7000
 3186              	.LASF35:
 3187 05b9 705F6E61 		.ascii	"p_name\000"
 3187      6D6500
 3188              	.LASF122:
 3189 05c0 73697A65 		.ascii	"size\000"
 3189      00
 3190              	.LASF47:
 3191 05c5 74687265 		.ascii	"threads_list_t\000"
 3191      6164735F 
 3191      6C697374 
 3191      5F7400
 3192              	.LASF37:
 3193 05d4 705F666C 		.ascii	"p_flags\000"
 3193      61677300 
 3194              	.LASF113:
 3195 05dc 63685379 		.ascii	"chSysUnlock\000"
 3195      73556E6C 
 3195      6F636B00 
 3196              	.LASF125:
 3197 05e8 6368506F 		.ascii	"chPoolLoadArray\000"
 3197      6F6C4C6F 
 3197      61644172 
 3197      72617900 
 3198              	.LASF128:
 3199 05f8 2F686F6D 		.ascii	"/home/selim/working/ChibiOS/os/rt/src/chmempools.c\000"
 3199      652F7365 
 3199      6C696D2F 
 3199      776F726B 
 3199      696E672F 
 3200              	.LASF99:
 3201 062b 6D5F6F77 		.ascii	"m_owner\000"
 3201      6E657200 
 3202              	.LASF32:
 3203 0633 705F6374 		.ascii	"p_ctx\000"
 3203      7800
 3204              	.LASF66:
 3205 0639 76745F66 		.ascii	"vt_func\000"
 3205      756E6300 
 3206              		.ident	"GCC: (GNU Tools for ARM Embedded Processors) 5.4.1 20160919 (release) [ARM/embedded-5-bran
ARM GAS  /tmp/ccmXtELX.s 			page 62


ARM GAS  /tmp/ccmXtELX.s 			page 63


DEFINED SYMBOLS
                            *ABS*:0000000000000000 chmempools.c
     /tmp/ccmXtELX.s:20     .text.chPoolObjectInit:0000000000000000 $t
     /tmp/ccmXtELX.s:26     .text.chPoolObjectInit:0000000000000000 chPoolObjectInit
     /tmp/ccmXtELX.s:48     .text.chPoolLoadArray:0000000000000000 $t
     /tmp/ccmXtELX.s:54     .text.chPoolLoadArray:0000000000000000 chPoolLoadArray
     /tmp/ccmXtELX.s:162    .text.chPoolAllocI:0000000000000000 $t
     /tmp/ccmXtELX.s:168    .text.chPoolAllocI:0000000000000000 chPoolAllocI
     /tmp/ccmXtELX.s:204    .text.chPoolAlloc:0000000000000000 $t
     /tmp/ccmXtELX.s:210    .text.chPoolAlloc:0000000000000000 chPoolAlloc
     /tmp/ccmXtELX.s:325    .text.chPoolFreeI:0000000000000000 $t
     /tmp/ccmXtELX.s:331    .text.chPoolFreeI:0000000000000000 chPoolFreeI
     /tmp/ccmXtELX.s:349    .text.chPoolFree:0000000000000000 $t
     /tmp/ccmXtELX.s:355    .text.chPoolFree:0000000000000000 chPoolFree
                     .debug_frame:0000000000000010 $d

NO UNDEFINED SYMBOLS
