ARM GAS  /tmp/cc0Dkj7G.s 			page 1


   1              		.syntax unified
   2              		.cpu cortex-m4
   3              		.fpu softvfp
   4              		.eabi_attribute 20, 1
   5              		.eabi_attribute 21, 1
   6              		.eabi_attribute 23, 3
   7              		.eabi_attribute 24, 1
   8              		.eabi_attribute 25, 1
   9              		.eabi_attribute 26, 1
  10              		.eabi_attribute 30, 2
  11              		.eabi_attribute 34, 1
  12              		.eabi_attribute 18, 4
  13              		.thumb
  14              		.syntax unified
  15              		.file	"main.c"
  16              		.text
  17              	.Ltext0:
  18              		.cfi_sections	.debug_frame
  19              		.section	.text.adcerrorcallback,"ax",%progbits
  20              		.align	2
  21              		.p2align 4,,15
  22              		.thumb
  23              		.thumb_func
  24              		.type	adcerrorcallback, %function
  25              	adcerrorcallback:
  26              	.LFB259:
  27              		.file 1 "main.c"
  28              		.loc 1 39 0
  29              		.cfi_startproc
  30              		@ args = 0, pretend = 0, frame = 0
  31              		@ frame_needed = 0, uses_anonymous_args = 0
  32              		@ link register save eliminated.
  33              	.LVL0:
  34 0000 7047     		bx	lr
  35              		.cfi_endproc
  36              	.LFE259:
  37              		.size	adcerrorcallback, .-adcerrorcallback
  38 0002 00BF     		.section	.text.chprintf,"ax",%progbits
  39              		.align	2
  40              		.p2align 4,,15
  41              		.thumb
  42              		.thumb_func
  43              		.type	chprintf, %function
  44              	chprintf:
  45              	.LFB258:
  46              		.file 2 "/home/selim/working/ChibiOS/os/hal/lib/streams/chprintf.h"
  47              		.loc 2 69 0
  48              		.cfi_startproc
  49              		@ args = 4, pretend = 12, frame = 8
  50              		@ frame_needed = 0, uses_anonymous_args = 1
  51              	.LVL1:
  52              		.loc 2 69 0
  53 0000 0EB4     		push	{r1, r2, r3}
  54              		.cfi_def_cfa_offset 12
  55              		.cfi_offset 1, -12
  56              		.cfi_offset 2, -8
  57              		.cfi_offset 3, -4
ARM GAS  /tmp/cc0Dkj7G.s 			page 2


  58 0002 00B5     		push	{lr}
  59              		.cfi_def_cfa_offset 16
  60              		.cfi_offset 14, -16
  61 0004 82B0     		sub	sp, sp, #8
  62              		.cfi_def_cfa_offset 24
  63              		.loc 2 69 0
  64 0006 03AA     		add	r2, sp, #12
  65 0008 52F8041B 		ldr	r1, [r2], #4
  66              		.loc 2 73 0
  67 000c 0192     		str	r2, [sp, #4]
  68              		.loc 2 74 0
  69 000e FFF7FEFF 		bl	chvprintf
  70              	.LVL2:
  71              		.loc 2 78 0
  72 0012 02B0     		add	sp, sp, #8
  73              		.cfi_def_cfa_offset 16
  74              		@ sp needed
  75 0014 5DF804EB 		ldr	lr, [sp], #4
  76              		.cfi_restore 14
  77              		.cfi_def_cfa_offset 12
  78 0018 03B0     		add	sp, sp, #12
  79              		.cfi_restore 3
  80              		.cfi_restore 2
  81              		.cfi_restore 1
  82              		.cfi_def_cfa_offset 0
  83 001a 7047     		bx	lr
  84              		.cfi_endproc
  85              	.LFE258:
  86              		.size	chprintf, .-chprintf
  87              		.section	.text.Thread1,"ax",%progbits
  88              		.align	2
  89              		.p2align 4,,15
  90              		.thumb
  91              		.thumb_func
  92              		.type	Thread1, %function
  93              	Thread1:
  94              	.LFB272:
  95              		.loc 1 313 0
  96              		.cfi_startproc
  97              		@ args = 0, pretend = 0, frame = 0
  98              		@ frame_needed = 0, uses_anonymous_args = 0
  99              	.LVL3:
 100 0000 F8B5     		push	{r3, r4, r5, r6, r7, lr}
 101              		.cfi_def_cfa_offset 24
 102              		.cfi_offset 3, -24
 103              		.cfi_offset 4, -20
 104              		.cfi_offset 5, -16
 105              		.cfi_offset 6, -12
 106              		.cfi_offset 7, -8
 107              		.cfi_offset 14, -4
 108              		.loc 1 318 0
 109 0002 4C4B     		ldr	r3, .L18
 110 0004 4C4A     		ldr	r2, .L18+4
 111 0006 9B69     		ldr	r3, [r3, #24]
 112              		.loc 1 321 0
 113 0008 4C48     		ldr	r0, .L18+8
 114              	.LVL4:
ARM GAS  /tmp/cc0Dkj7G.s 			page 3


 115              		.loc 1 318 0
 116 000a 9A61     		str	r2, [r3, #24]
 117              		.loc 1 321 0
 118 000c 2021     		movs	r1, #32
 119 000e 4322     		movs	r2, #67
 120 0010 FFF7FEFF 		bl	lis302dlWriteRegister
 121              	.LVL5:
 122              		.loc 1 322 0
 123 0014 0022     		movs	r2, #0
 124 0016 2121     		movs	r1, #33
 125 0018 4848     		ldr	r0, .L18+8
 126 001a FFF7FEFF 		bl	lis302dlWriteRegister
 127              	.LVL6:
 128              		.loc 1 323 0
 129 001e 0022     		movs	r2, #0
 130 0020 2221     		movs	r1, #34
 131 0022 4648     		ldr	r0, .L18+8
 132 0024 FFF7FEFF 		bl	lis302dlWriteRegister
 133              	.LVL7:
 134              	.LBB69:
 135              	.LBB70:
 136              	.LBB71:
 137              	.LBB72:
 138              	.LBB73:
 139              	.LBB74:
 140              		.file 3 "/home/selim/working/ChibiOS/os/ext/CMSIS/include/core_cmFunc.h"
 141              		.loc 3 546 0
 142 0028 2023     		movs	r3, #32
 143              		.syntax unified
 144              	@ 546 "/home/selim/working/ChibiOS/os/ext/CMSIS/include/core_cmFunc.h" 1
 145 002a 83F31188 		MSR basepri, r3
 146              	@ 0 "" 2
 147              	.LVL8:
 148              		.thumb
 149              		.syntax unified
 150              	.LBE74:
 151              	.LBE73:
 152              	.LBE72:
 153              	.LBE71:
 154              	.LBB75:
 155              	.LBB76:
 156              	.LBB77:
 157              	.LBB78:
 158              		.file 4 "/home/selim/working/ChibiOS/os/hal/ports/STM32/LLD/TIMv1/st_lld.h"
 159              		.loc 4 129 0
 160 002e 4FF08042 		mov	r2, #1073741824
 161              	.LBE78:
 162              	.LBE77:
 163              	.LBE76:
 164              	.LBE75:
 165              	.LBB82:
 166              	.LBB83:
 167              	.LBB84:
 168              	.LBB85:
 169              	.LBB86:
 170              		.loc 3 546 0
 171 0032 0023     		movs	r3, #0
ARM GAS  /tmp/cc0Dkj7G.s 			page 4


 172              	.LBE86:
 173              	.LBE85:
 174              	.LBE84:
 175              	.LBE83:
 176              	.LBE82:
 177              	.LBB91:
 178              	.LBB81:
 179              	.LBB80:
 180              	.LBB79:
 181              		.loc 4 129 0
 182 0034 576A     		ldr	r7, [r2, #36]
 183              	.LVL9:
 184              	.LBE79:
 185              	.LBE80:
 186              	.LBE81:
 187              	.LBE91:
 188              	.LBB92:
 189              	.LBB90:
 190              	.LBB89:
 191              	.LBB88:
 192              	.LBB87:
 193              		.loc 3 546 0
 194              		.syntax unified
 195              	@ 546 "/home/selim/working/ChibiOS/os/ext/CMSIS/include/core_cmFunc.h" 1
 196 0036 83F31188 		MSR basepri, r3
 197              	@ 0 "" 2
 198              	.LVL10:
 199              		.thumb
 200              		.syntax unified
 201 003a 414E     		ldr	r6, .L18+12
 202 003c 414D     		ldr	r5, .L18+16
 203              	.L12:
 204              	.LVL11:
 205 003e 4249     		ldr	r1, .L18+20
 206 0040 424A     		ldr	r2, .L18+24
 207 0042 4C1C     		adds	r4, r1, #1
 208 0044 501C     		adds	r0, r2, #1
 209              	.LBE87:
 210              	.LBE88:
 211              	.LBE89:
 212              	.LBE90:
 213              	.LBE92:
 214              	.LBE70:
 215              	.LBE69:
 216              	.LBB93:
 217              		.loc 1 332 0
 218 0046 0323     		movs	r3, #3
 219              	.LVL12:
 220              	.L5:
 221              		.loc 1 333 0 discriminator 3
 222 0048 11F901CD 		ldrsb	ip, [r1, #-1]!
 223              		.loc 1 334 0 discriminator 3
 224 004c 12F901ED 		ldrsb	lr, [r2, #-1]!
 225              		.loc 1 333 0 discriminator 3
 226 0050 04F801CD 		strb	ip, [r4, #-1]!
 227              		.loc 1 332 0 discriminator 3
 228 0054 013B     		subs	r3, r3, #1
ARM GAS  /tmp/cc0Dkj7G.s 			page 5


 229              	.LVL13:
 230              		.loc 1 334 0 discriminator 3
 231 0056 00F801ED 		strb	lr, [r0, #-1]!
 232              	.LVL14:
 233              		.loc 1 332 0 discriminator 3
 234 005a F5D1     		bne	.L5
 235              		.loc 1 338 0
 236 005c 2921     		movs	r1, #41
 237 005e 3748     		ldr	r0, .L18+8
 238 0060 FFF7FEFF 		bl	lis302dlReadRegister
 239              	.LVL15:
 240              		.loc 1 339 0
 241 0064 2B21     		movs	r1, #43
 242              		.loc 1 338 0
 243 0066 3070     		strb	r0, [r6]
 244              		.loc 1 339 0
 245 0068 3448     		ldr	r0, .L18+8
 246 006a FFF7FEFF 		bl	lis302dlReadRegister
 247              	.LVL16:
 248 006e 2870     		strb	r0, [r5]
 249              		.loc 1 342 0
 250 0070 3748     		ldr	r0, .L18+28
 251 0072 FFF7FEFF 		bl	spiSelect
 252              	.LVL17:
 253              		.loc 1 343 0
 254 0076 324A     		ldr	r2, .L18+12
 255 0078 3548     		ldr	r0, .L18+28
 256 007a 0421     		movs	r1, #4
 257 007c FFF7FEFF 		bl	spiSend
 258              	.LVL18:
 259              		.loc 1 344 0
 260 0080 304A     		ldr	r2, .L18+16
 261 0082 3348     		ldr	r0, .L18+28
 262 0084 0421     		movs	r1, #4
 263 0086 FFF7FEFF 		bl	spiSend
 264              	.LVL19:
 265              		.loc 1 345 0
 266 008a 3148     		ldr	r0, .L18+28
 267 008c FFF7FEFF 		bl	spiUnselect
 268              	.LVL20:
 269              		.loc 1 348 0
 270 0090 96F90030 		ldrsb	r3, [r6]
 271 0094 96F90110 		ldrsb	r1, [r6, #1]
 272 0098 96F90220 		ldrsb	r2, [r6, #2]
 273              		.loc 1 350 0
 274 009c 95F90100 		ldrsb	r0, [r5, #1]
 275              		.loc 1 348 0
 276 00a0 96F90340 		ldrsb	r4, [r6, #3]
 277              		.loc 1 350 0
 278 00a4 95F903E0 		ldrsb	lr, [r5, #3]
 279              		.loc 1 348 0
 280 00a8 1944     		add	r1, r1, r3
 281 00aa 8B18     		adds	r3, r1, r2
 282              		.loc 1 350 0
 283 00ac 95F90020 		ldrsb	r2, [r5]
 284 00b0 95F90210 		ldrsb	r1, [r5, #2]
 285 00b4 0244     		add	r2, r2, r0
ARM GAS  /tmp/cc0Dkj7G.s 			page 6


 286              		.loc 1 348 0
 287 00b6 1B19     		adds	r3, r3, r4
 288              		.loc 1 350 0
 289 00b8 0A44     		add	r2, r2, r1
 290              		.loc 1 348 0
 291 00ba 48BF     		it	mi
 292 00bc 0333     		addmi	r3, r3, #3
 293              		.loc 1 350 0
 294 00be 12EB0E02 		adds	r2, r2, lr
 295 00c2 48BF     		it	mi
 296 00c4 0332     		addmi	r2, r2, #3
 297              		.loc 1 354 0
 298 00c6 9210     		asrs	r2, r2, #2
 299              		.loc 1 348 0
 300 00c8 4FEAA304 		asr	r4, r3, #2
 301              	.LVL21:
 302              		.loc 1 354 0
 303 00cc 1AD4     		bmi	.L16
 304              		.loc 1 359 0
 305 00ce 0221     		movs	r1, #2
 306 00d0 2048     		ldr	r0, .L18+32
 307 00d2 FFF7FEFF 		bl	pwmEnableChannel
 308              	.LVL22:
 309              		.loc 1 360 0
 310 00d6 0022     		movs	r2, #0
 311 00d8 1146     		mov	r1, r2
 312 00da 1E48     		ldr	r0, .L18+32
 313 00dc FFF7FEFF 		bl	pwmEnableChannel
 314              	.LVL23:
 315              		.loc 1 362 0
 316 00e0 002C     		cmp	r4, #0
 317 00e2 1BDB     		blt	.L17
 318              	.L10:
 319              		.loc 1 367 0
 320 00e4 2246     		mov	r2, r4
 321 00e6 0321     		movs	r1, #3
 322 00e8 1A48     		ldr	r0, .L18+32
 323 00ea FFF7FEFF 		bl	pwmEnableChannel
 324              	.LVL24:
 325              		.loc 1 368 0
 326 00ee 0022     		movs	r2, #0
 327 00f0 0121     		movs	r1, #1
 328 00f2 1848     		ldr	r0, .L18+32
 329 00f4 FFF7FEFF 		bl	pwmEnableChannel
 330              	.LVL25:
 331              	.L11:
 332              		.loc 1 372 0
 333 00f8 07F57A77 		add	r7, r7, #1000
 334              	.LVL26:
 335 00fc 3846     		mov	r0, r7
 336 00fe FFF7FEFF 		bl	chThdSleepUntil
 337              	.LVL27:
 338              	.LBE93:
 339              		.loc 1 373 0
 340 0102 9CE7     		b	.L12
 341              	.L16:
 342              	.LBB94:
ARM GAS  /tmp/cc0Dkj7G.s 			page 7


 343              		.loc 1 355 0
 344 0104 5242     		negs	r2, r2
 345 0106 0021     		movs	r1, #0
 346 0108 1248     		ldr	r0, .L18+32
 347 010a FFF7FEFF 		bl	pwmEnableChannel
 348              	.LVL28:
 349              		.loc 1 356 0
 350 010e 0022     		movs	r2, #0
 351 0110 0221     		movs	r1, #2
 352 0112 1048     		ldr	r0, .L18+32
 353 0114 FFF7FEFF 		bl	pwmEnableChannel
 354              	.LVL29:
 355              		.loc 1 362 0
 356 0118 002C     		cmp	r4, #0
 357 011a E3DA     		bge	.L10
 358              	.L17:
 359              		.loc 1 363 0
 360 011c 6242     		negs	r2, r4
 361 011e 0121     		movs	r1, #1
 362 0120 0C48     		ldr	r0, .L18+32
 363 0122 FFF7FEFF 		bl	pwmEnableChannel
 364              	.LVL30:
 365              		.loc 1 364 0
 366 0126 0022     		movs	r2, #0
 367 0128 0321     		movs	r1, #3
 368 012a 0A48     		ldr	r0, .L18+32
 369 012c FFF7FEFF 		bl	pwmEnableChannel
 370              	.LVL31:
 371 0130 E2E7     		b	.L11
 372              	.L19:
 373 0132 00BF     		.align	2
 374              	.L18:
 375 0134 00000000 		.word	ch
 376 0138 00000000 		.word	.LC4
 377 013c 00000000 		.word	SPID1
 378 0140 00000000 		.word	.LANCHOR0
 379 0144 00000000 		.word	.LANCHOR1
 380 0148 03000000 		.word	.LANCHOR0+3
 381 014c 03000000 		.word	.LANCHOR1+3
 382 0150 00000000 		.word	SPID2
 383 0154 00000000 		.word	PWMD4
 384              	.LBE94:
 385              		.cfi_endproc
 386              	.LFE272:
 387              		.size	Thread1, .-Thread1
 388              		.section	.text.cmd_test,"ax",%progbits
 389              		.align	2
 390              		.p2align 4,,15
 391              		.thumb
 392              		.thumb_func
 393              		.type	cmd_test, %function
 394              	cmd_test:
 395              	.LFB271:
 396              		.loc 1 229 0
 397              		.cfi_startproc
 398              		@ args = 0, pretend = 0, frame = 0
 399              		@ frame_needed = 0, uses_anonymous_args = 0
ARM GAS  /tmp/cc0Dkj7G.s 			page 8


 400              	.LVL32:
 401              		.loc 1 233 0
 402 0000 0029     		cmp	r1, #0
 403 0002 02DD     		ble	.L21
 404              		.loc 1 234 0
 405 0004 0E49     		ldr	r1, .L25
 406              	.LVL33:
 407 0006 FFF7FEBF 		b	chprintf
 408              	.LVL34:
 409              	.L21:
 410              		.loc 1 229 0
 411 000a 10B5     		push	{r4, lr}
 412              		.cfi_def_cfa_offset 8
 413              		.cfi_offset 4, -8
 414              		.cfi_offset 14, -4
 415              	.LBB101:
 416              	.LBB102:
 417              	.LBB103:
 418              	.LBB104:
 419              	.LBB105:
 420              	.LBB106:
 421              		.file 5 "/home/selim/working/ChibiOS/os/rt/include/chthreads.h"
 422              		.loc 5 176 0
 423 000c 0D4A     		ldr	r2, .L25+4
 424              	.LVL35:
 425              	.LBE106:
 426              	.LBE105:
 427              	.LBE104:
 428              	.LBE103:
 429              		.loc 1 237 0
 430 000e 0E4B     		ldr	r3, .L25+8
 431              	.LBB108:
 432              	.LBB107:
 433              		.loc 5 189 0
 434 0010 9269     		ldr	r2, [r2, #24]
 435              	.LBE107:
 436              	.LBE108:
 437              	.LBE102:
 438              	.LBE101:
 439              		.loc 1 229 0
 440 0012 82B0     		sub	sp, sp, #8
 441              		.cfi_def_cfa_offset 16
 442 0014 0446     		mov	r4, r0
 443              	.LBB112:
 444              	.LBB109:
 445              		.loc 1 237 0
 446 0016 9268     		ldr	r2, [r2, #8]
 447 0018 0090     		str	r0, [sp]
 448 001a 4FF4E471 		mov	r1, #456
 449              	.LVL36:
 450 001e 0020     		movs	r0, #0
 451              	.LVL37:
 452 0020 FFF7FEFF 		bl	chThdCreateFromHeap
 453              	.LVL38:
 454              		.loc 1 239 0
 455 0024 20B1     		cbz	r0, .L24
 456              	.LBE109:
ARM GAS  /tmp/cc0Dkj7G.s 			page 9


 457              	.LBE112:
 458              		.loc 1 244 0
 459 0026 02B0     		add	sp, sp, #8
 460              		.cfi_remember_state
 461              		.cfi_def_cfa_offset 8
 462              		@ sp needed
 463 0028 BDE81040 		pop	{r4, lr}
 464              		.cfi_restore 14
 465              		.cfi_restore 4
 466              		.cfi_def_cfa_offset 0
 467              	.LVL39:
 468              	.LBB113:
 469              	.LBB110:
 470              		.loc 1 243 0
 471 002c FFF7FEBF 		b	chThdWait
 472              	.LVL40:
 473              	.L24:
 474              		.cfi_restore_state
 475              		.loc 1 240 0
 476 0030 0649     		ldr	r1, .L25+12
 477 0032 2046     		mov	r0, r4
 478              	.LVL41:
 479              	.LBE110:
 480              	.LBE113:
 481              		.loc 1 244 0
 482 0034 02B0     		add	sp, sp, #8
 483              		.cfi_def_cfa_offset 8
 484              		@ sp needed
 485 0036 BDE81040 		pop	{r4, lr}
 486              		.cfi_restore 14
 487              		.cfi_restore 4
 488              		.cfi_def_cfa_offset 0
 489              	.LVL42:
 490              	.LBB114:
 491              	.LBB111:
 492              		.loc 1 240 0
 493 003a FFF7FEBF 		b	chprintf
 494              	.LVL43:
 495              	.L26:
 496 003e 00BF     		.align	2
 497              	.L25:
 498 0040 08000000 		.word	.LC5
 499 0044 00000000 		.word	ch
 500 0048 00000000 		.word	TestThread
 501 004c 18000000 		.word	.LC6
 502              	.LBE111:
 503              	.LBE114:
 504              		.cfi_endproc
 505              	.LFE271:
 506              		.size	cmd_test, .-cmd_test
 507              		.section	.text.cmd_threads,"ax",%progbits
 508              		.align	2
 509              		.p2align 4,,15
 510              		.thumb
 511              		.thumb_func
 512              		.type	cmd_threads, %function
 513              	cmd_threads:
ARM GAS  /tmp/cc0Dkj7G.s 			page 10


 514              	.LFB270:
 515              		.loc 1 209 0
 516              		.cfi_startproc
 517              		@ args = 0, pretend = 0, frame = 0
 518              		@ frame_needed = 0, uses_anonymous_args = 0
 519              	.LVL44:
 520              		.loc 1 214 0
 521 0000 0029     		cmp	r1, #0
 522 0002 02DD     		ble	.L28
 523              		.loc 1 215 0
 524 0004 1149     		ldr	r1, .L32
 525              	.LVL45:
 526 0006 FFF7FEBF 		b	chprintf
 527              	.LVL46:
 528              	.L28:
 529              		.loc 1 209 0
 530 000a 70B5     		push	{r4, r5, r6, lr}
 531              		.cfi_def_cfa_offset 16
 532              		.cfi_offset 4, -16
 533              		.cfi_offset 5, -12
 534              		.cfi_offset 6, -8
 535              		.cfi_offset 14, -4
 536              	.LBB117:
 537              	.LBB118:
 538              		.loc 1 218 0
 539 000c 1049     		ldr	r1, .L32+4
 540              	.LVL47:
 541 000e 114E     		ldr	r6, .L32+8
 542              	.LBE118:
 543              	.LBE117:
 544              		.loc 1 209 0
 545 0010 84B0     		sub	sp, sp, #16
 546              		.cfi_def_cfa_offset 32
 547 0012 0546     		mov	r5, r0
 548              	.LVL48:
 549              	.LBB120:
 550              	.LBB119:
 551              		.loc 1 218 0
 552 0014 FFF7FEFF 		bl	chprintf
 553              	.LVL49:
 554              		.loc 1 219 0
 555 0018 FFF7FEFF 		bl	chRegFirstThread
 556              	.LVL50:
 557 001c 0446     		mov	r4, r0
 558              	.LVL51:
 559              	.L29:
 560              		.loc 1 221 0
 561 001e 227F     		ldrb	r2, [r4, #28]	@ zero_extendqisi2
 562 0020 E368     		ldr	r3, [r4, #12]
 563 0022 56F82220 		ldr	r2, [r6, r2, lsl #2]
 564 0026 0292     		str	r2, [sp, #8]
 565 0028 A27F     		ldrb	r2, [r4, #30]	@ zero_extendqisi2
 566 002a 0B49     		ldr	r1, .L32+12
 567 002c 013A     		subs	r2, r2, #1
 568 002e 0192     		str	r2, [sp, #4]
 569 0030 A268     		ldr	r2, [r4, #8]
 570 0032 0092     		str	r2, [sp]
ARM GAS  /tmp/cc0Dkj7G.s 			page 11


 571 0034 2846     		mov	r0, r5
 572              	.LVL52:
 573 0036 2246     		mov	r2, r4
 574 0038 FFF7FEFF 		bl	chprintf
 575              	.LVL53:
 576              		.loc 1 225 0
 577 003c 2046     		mov	r0, r4
 578 003e FFF7FEFF 		bl	chRegNextThread
 579              	.LVL54:
 580              		.loc 1 226 0
 581 0042 0446     		mov	r4, r0
 582 0044 0028     		cmp	r0, #0
 583 0046 EAD1     		bne	.L29
 584              	.LBE119:
 585              	.LBE120:
 586              		.loc 1 227 0
 587 0048 04B0     		add	sp, sp, #16
 588              		.cfi_def_cfa_offset 16
 589              		@ sp needed
 590 004a 70BD     		pop	{r4, r5, r6, pc}
 591              	.LVL55:
 592              	.L33:
 593              		.align	2
 594              	.L32:
 595 004c 28000000 		.word	.LC7
 596 0050 3C000000 		.word	.LC8
 597 0054 00000000 		.word	.LANCHOR2
 598 0058 64000000 		.word	.LC9
 599              		.cfi_endproc
 600              	.LFE270:
 601              		.size	cmd_threads, .-cmd_threads
 602              		.section	.text.cmd_mem,"ax",%progbits
 603              		.align	2
 604              		.p2align 4,,15
 605              		.thumb
 606              		.thumb_func
 607              		.type	cmd_mem, %function
 608              	cmd_mem:
 609              	.LFB269:
 610              		.loc 1 196 0
 611              		.cfi_startproc
 612              		@ args = 0, pretend = 0, frame = 8
 613              		@ frame_needed = 0, uses_anonymous_args = 0
 614              	.LVL56:
 615 0000 30B5     		push	{r4, r5, lr}
 616              		.cfi_def_cfa_offset 12
 617              		.cfi_offset 4, -12
 618              		.cfi_offset 5, -8
 619              		.cfi_offset 14, -4
 620              		.loc 1 199 0
 621 0002 0029     		cmp	r1, #0
 622              		.loc 1 196 0
 623 0004 83B0     		sub	sp, sp, #12
 624              		.cfi_def_cfa_offset 24
 625              		.loc 1 199 0
 626 0006 04DD     		ble	.L35
 627              		.loc 1 200 0
ARM GAS  /tmp/cc0Dkj7G.s 			page 12


 628 0008 0E49     		ldr	r1, .L38
 629              	.LVL57:
 630 000a FFF7FEFF 		bl	chprintf
 631              	.LVL58:
 632              		.loc 1 207 0
 633 000e 03B0     		add	sp, sp, #12
 634              		.cfi_remember_state
 635              		.cfi_def_cfa_offset 12
 636              		@ sp needed
 637 0010 30BD     		pop	{r4, r5, pc}
 638              	.LVL59:
 639              	.L35:
 640              		.cfi_restore_state
 641 0012 0446     		mov	r4, r0
 642              	.LVL60:
 643              	.LBB123:
 644              	.LBB124:
 645              		.loc 1 203 0
 646 0014 01A9     		add	r1, sp, #4
 647              	.LVL61:
 648 0016 0020     		movs	r0, #0
 649              	.LVL62:
 650 0018 FFF7FEFF 		bl	chHeapStatus
 651              	.LVL63:
 652 001c 0546     		mov	r5, r0
 653              	.LVL64:
 654              		.loc 1 204 0
 655 001e FFF7FEFF 		bl	chCoreGetStatusX
 656              	.LVL65:
 657 0022 0949     		ldr	r1, .L38+4
 658 0024 0246     		mov	r2, r0
 659 0026 2046     		mov	r0, r4
 660 0028 FFF7FEFF 		bl	chprintf
 661              	.LVL66:
 662              		.loc 1 205 0
 663 002c 2A46     		mov	r2, r5
 664 002e 0749     		ldr	r1, .L38+8
 665 0030 2046     		mov	r0, r4
 666 0032 FFF7FEFF 		bl	chprintf
 667              	.LVL67:
 668              		.loc 1 206 0
 669 0036 2046     		mov	r0, r4
 670 0038 019A     		ldr	r2, [sp, #4]
 671 003a 0549     		ldr	r1, .L38+12
 672 003c FFF7FEFF 		bl	chprintf
 673              	.LVL68:
 674              	.LBE124:
 675              	.LBE123:
 676              		.loc 1 207 0
 677 0040 03B0     		add	sp, sp, #12
 678              		.cfi_def_cfa_offset 12
 679              		@ sp needed
 680 0042 30BD     		pop	{r4, r5, pc}
 681              	.LVL69:
 682              	.L39:
 683              		.align	2
 684              	.L38:
ARM GAS  /tmp/cc0Dkj7G.s 			page 13


 685 0044 80000000 		.word	.LC10
 686 0048 90000000 		.word	.LC11
 687 004c B0000000 		.word	.LC12
 688 0050 C8000000 		.word	.LC13
 689              		.cfi_endproc
 690              	.LFE269:
 691              		.size	cmd_mem, .-cmd_mem
 692              		.section	.text.rb_get_element,"ax",%progbits
 693              		.align	2
 694              		.p2align 4,,15
 695              		.global	rb_get_element
 696              		.thumb
 697              		.thumb_func
 698              		.type	rb_get_element, %function
 699              	rb_get_element:
 700              	.LFB260:
 701              		.loc 1 76 0
 702              		.cfi_startproc
 703              		@ args = 0, pretend = 0, frame = 0
 704              		@ frame_needed = 0, uses_anonymous_args = 0
 705              		@ link register save eliminated.
 706              	.LVL70:
 707              		.loc 1 77 0
 708 0000 044B     		ldr	r3, .L42
 709 0002 1B68     		ldr	r3, [r3]
 710 0004 1844     		add	r0, r0, r3
 711              	.LVL71:
 712              		.loc 1 78 0
 713 0006 1D28     		cmp	r0, #29
 714              		.loc 1 79 0
 715 0008 C8BF     		it	gt
 716 000a 1E38     		subgt	r0, r0, #30
 717              	.LVL72:
 718              		.loc 1 81 0
 719 000c 024B     		ldr	r3, .L42+4
 720              		.loc 1 82 0
 721 000e 53F82000 		ldr	r0, [r3, r0, lsl #2]	@ float
 722              	.LVL73:
 723 0012 7047     		bx	lr
 724              	.L43:
 725              		.align	2
 726              	.L42:
 727 0014 00000000 		.word	.LANCHOR3
 728 0018 00000000 		.word	.LANCHOR4
 729              		.cfi_endproc
 730              	.LFE260:
 731              		.size	rb_get_element, .-rb_get_element
 732              		.section	.text.rb_put_element,"ax",%progbits
 733              		.align	2
 734              		.p2align 4,,15
 735              		.global	rb_put_element
 736              		.thumb
 737              		.thumb_func
 738              		.type	rb_put_element, %function
 739              	rb_put_element:
 740              	.LFB261:
 741              		.loc 1 84 0
ARM GAS  /tmp/cc0Dkj7G.s 			page 14


 742              		.cfi_startproc
 743              		@ args = 0, pretend = 0, frame = 0
 744              		@ frame_needed = 0, uses_anonymous_args = 0
 745              		@ link register save eliminated.
 746              	.LVL74:
 747 0000 10B4     		push	{r4}
 748              		.cfi_def_cfa_offset 4
 749              		.cfi_offset 4, -4
 750              	.LBB125:
 751              	.LBB126:
 752              		.loc 1 77 0
 753 0002 0B4C     		ldr	r4, .L51
 754              		.loc 1 81 0
 755 0004 0B49     		ldr	r1, .L51+4
 756              		.loc 1 77 0
 757 0006 2368     		ldr	r3, [r4]
 758 0008 03F11D02 		add	r2, r3, #29
 759              	.LVL75:
 760              		.loc 1 78 0
 761 000c 1D2A     		cmp	r2, #29
 762              		.loc 1 79 0
 763 000e C6BF     		itte	gt
 764 0010 03F1FF32 		addgt	r2, r3, #-1
 765              	.LVL76:
 766 0014 1346     		movgt	r3, r2
 767 0016 03F1FF33 		addle	r3, r3, #-1
 768              	.LBE126:
 769              	.LBE125:
 770              		.loc 1 87 0
 771 001a 002B     		cmp	r3, #0
 772              	.LBB128:
 773              	.LBB127:
 774              		.loc 1 81 0
 775 001c 51F82220 		ldr	r2, [r1, r2, lsl #2]	@ float
 776              	.LVL77:
 777              	.LBE127:
 778              	.LBE128:
 779              		.loc 1 88 0
 780 0020 B8BF     		it	lt
 781 0022 1D23     		movlt	r3, #29
 782 0024 2360     		str	r3, [r4]
 783              		.loc 1 90 0
 784 0026 41F82300 		str	r0, [r1, r3, lsl #2]	@ float
 785              		.loc 1 92 0
 786 002a 10BC     		pop	{r4}
 787              		.cfi_restore 4
 788              		.cfi_def_cfa_offset 0
 789 002c 1046     		mov	r0, r2
 790              	.LVL78:
 791 002e 7047     		bx	lr
 792              	.L52:
 793              		.align	2
 794              	.L51:
 795 0030 00000000 		.word	.LANCHOR3
 796 0034 00000000 		.word	.LANCHOR4
 797              		.cfi_endproc
 798              	.LFE261:
ARM GAS  /tmp/cc0Dkj7G.s 			page 15


 799              		.size	rb_put_element, .-rb_put_element
 800              		.global	__aeabi_fdiv
 801              		.global	__aeabi_fadd
 802              		.global	__aeabi_fsub
 803              		.section	.text.calc_mean,"ax",%progbits
 804              		.align	2
 805              		.p2align 4,,15
 806              		.global	calc_mean
 807              		.thumb
 808              		.thumb_func
 809              		.type	calc_mean, %function
 810              	calc_mean:
 811              	.LFB262:
 812              		.loc 1 97 0
 813              		.cfi_startproc
 814              		@ args = 0, pretend = 0, frame = 0
 815              		@ frame_needed = 0, uses_anonymous_args = 0
 816              	.LVL79:
 817              	.LBB129:
 818              	.LBB130:
 819              	.LBB131:
 820              	.LBB132:
 821              		.loc 1 77 0
 822 0000 1349     		ldr	r1, .L60
 823 0002 0B68     		ldr	r3, [r1]
 824 0004 03F11D02 		add	r2, r3, #29
 825              	.LVL80:
 826              		.loc 1 78 0
 827 0008 1D2A     		cmp	r2, #29
 828              		.loc 1 79 0
 829 000a CABF     		itet	gt
 830 000c 03F1FF32 		addgt	r2, r3, #-1
 831              	.LVL81:
 832 0010 03F1FF33 		addle	r3, r3, #-1
 833 0014 1346     		movgt	r3, r2
 834              	.LBE132:
 835              	.LBE131:
 836              		.loc 1 87 0
 837 0016 002B     		cmp	r3, #0
 838              	.LBE130:
 839              	.LBE129:
 840              		.loc 1 97 0
 841 0018 70B5     		push	{r4, r5, r6, lr}
 842              		.cfi_def_cfa_offset 16
 843              		.cfi_offset 4, -16
 844              		.cfi_offset 5, -12
 845              		.cfi_offset 6, -8
 846              		.cfi_offset 14, -4
 847              	.LBB139:
 848              	.LBB137:
 849              		.loc 1 88 0
 850 001a B8BF     		it	lt
 851 001c 1D23     		movlt	r3, #29
 852              	.LBB135:
 853              	.LBB133:
 854              		.loc 1 81 0
 855 001e 0D4D     		ldr	r5, .L60+4
ARM GAS  /tmp/cc0Dkj7G.s 			page 16


 856              	.LBE133:
 857              	.LBE135:
 858              	.LBE137:
 859              	.LBE139:
 860              		.loc 1 102 0
 861 0020 0D4C     		ldr	r4, .L60+8
 862              	.LBB140:
 863              	.LBB138:
 864              	.LBB136:
 865              	.LBB134:
 866              		.loc 1 81 0
 867 0022 55F82260 		ldr	r6, [r5, r2, lsl #2]	@ float
 868              	.LVL82:
 869              	.LBE134:
 870              	.LBE136:
 871              		.loc 1 88 0
 872 0026 0B60     		str	r3, [r1]
 873              		.loc 1 90 0
 874 0028 45F82300 		str	r0, [r5, r3, lsl #2]	@ float
 875              	.LVL83:
 876              	.LBE138:
 877              	.LBE140:
 878              		.loc 1 102 0
 879 002c 0B49     		ldr	r1, .L60+12
 880 002e FFF7FEFF 		bl	__aeabi_fdiv
 881              	.LVL84:
 882 0032 2168     		ldr	r1, [r4]	@ float
 883 0034 FFF7FEFF 		bl	__aeabi_fadd
 884              	.LVL85:
 885 0038 0849     		ldr	r1, .L60+12
 886 003a 0546     		mov	r5, r0
 887 003c 3046     		mov	r0, r6
 888 003e FFF7FEFF 		bl	__aeabi_fdiv
 889              	.LVL86:
 890 0042 0146     		mov	r1, r0
 891 0044 2846     		mov	r0, r5
 892 0046 FFF7FEFF 		bl	__aeabi_fsub
 893              	.LVL87:
 894 004a 2060     		str	r0, [r4]	@ float
 895              		.loc 1 104 0
 896 004c 70BD     		pop	{r4, r5, r6, pc}
 897              	.L61:
 898 004e 00BF     		.align	2
 899              	.L60:
 900 0050 00000000 		.word	.LANCHOR3
 901 0054 00000000 		.word	.LANCHOR4
 902 0058 00000000 		.word	.LANCHOR5
 903 005c 0000F041 		.word	1106247680
 904              		.cfi_endproc
 905              	.LFE262:
 906              		.size	calc_mean, .-calc_mean
 907              		.global	__aeabi_i2d
 908              		.global	__aeabi_dmul
 909              		.global	__aeabi_ddiv
 910              		.global	__aeabi_d2f
 911              		.section	.text.getTemperature,"ax",%progbits
 912              		.align	2
ARM GAS  /tmp/cc0Dkj7G.s 			page 17


 913              		.p2align 4,,15
 914              		.global	getTemperature
 915              		.thumb
 916              		.thumb_func
 917              		.type	getTemperature, %function
 918              	getTemperature:
 919              	.LFB263:
 920              		.loc 1 107 0
 921              		.cfi_startproc
 922              		@ args = 0, pretend = 0, frame = 8
 923              		@ frame_needed = 0, uses_anonymous_args = 0
 924 0000 10B5     		push	{r4, lr}
 925              		.cfi_def_cfa_offset 8
 926              		.cfi_offset 4, -8
 927              		.cfi_offset 14, -4
 928              		.loc 1 109 0
 929 0002 154C     		ldr	r4, .L64+8
 930              		.loc 1 107 0
 931 0004 82B0     		sub	sp, sp, #8
 932              		.cfi_def_cfa_offset 16
 933              		.loc 1 109 0
 934 0006 2046     		mov	r0, r4
 935 0008 0021     		movs	r1, #0
 936 000a FFF7FEFF 		bl	adcStart
 937              	.LVL88:
 938              		.loc 1 110 0
 939 000e FFF7FEFF 		bl	adcSTM32EnableTSVREFE
 940              	.LVL89:
 941              		.loc 1 112 0
 942 0012 01AA     		add	r2, sp, #4
 943 0014 0123     		movs	r3, #1
 944 0016 2046     		mov	r0, r4
 945 0018 1049     		ldr	r1, .L64+12
 946 001a FFF7FEFF 		bl	adcConvert
 947              	.LVL90:
 948              		.loc 1 113 0
 949 001e BDF80400 		ldrh	r0, [sp, #4]
 950 0022 FFF7FEFF 		bl	__aeabi_i2d
 951              	.LVL91:
 952 0026 0022     		movs	r2, #0
 953 0028 0D4B     		ldr	r3, .L64+16
 954 002a FFF7FEFF 		bl	__aeabi_dmul
 955              	.LVL92:
 956 002e 0022     		movs	r2, #0
 957 0030 0C4B     		ldr	r3, .L64+20
 958 0032 FFF7FEFF 		bl	__aeabi_dmul
 959              	.LVL93:
 960 0036 06A3     		adr	r3, .L64
 961 0038 D3E90023 		ldrd	r2, [r3]
 962 003c FFF7FEFF 		bl	__aeabi_ddiv
 963              	.LVL94:
 964 0040 FFF7FEFF 		bl	__aeabi_d2f
 965              	.LVL95:
 966 0044 084B     		ldr	r3, .L64+24
 967 0046 1860     		str	r0, [r3]	@ float
 968              		.loc 1 116 0
 969 0048 02B0     		add	sp, sp, #8
ARM GAS  /tmp/cc0Dkj7G.s 			page 18


 970              		.cfi_def_cfa_offset 8
 971              		@ sp needed
 972 004a 10BD     		pop	{r4, pc}
 973              	.L65:
 974 004c AFF30080 		.align	3
 975              	.L64:
 976 0050 7B14AE47 		.word	1202590843
 977 0054 E17A843F 		.word	1065646817
 978 0058 00000000 		.word	ADCD1
 979 005c 00000000 		.word	.LANCHOR6
 980 0060 00000840 		.word	1074266112
 981 0064 0000303F 		.word	1060110336
 982 0068 00000000 		.word	.LANCHOR7
 983              		.cfi_endproc
 984              	.LFE263:
 985              		.size	getTemperature, .-getTemperature
 986              		.section	.text.led_on_local,"ax",%progbits
 987              		.align	2
 988              		.p2align 4,,15
 989              		.global	led_on_local
 990              		.thumb
 991              		.thumb_func
 992              		.type	led_on_local, %function
 993              	led_on_local:
 994              	.LFB264:
 995              		.loc 1 119 0
 996              		.cfi_startproc
 997              		@ args = 0, pretend = 0, frame = 16
 998              		@ frame_needed = 0, uses_anonymous_args = 0
 999 0000 30B5     		push	{r4, r5, lr}
 1000              		.cfi_def_cfa_offset 12
 1001              		.cfi_offset 4, -12
 1002              		.cfi_offset 5, -8
 1003              		.cfi_offset 14, -4
 1004              		.loc 1 121 0
 1005 0002 084B     		ldr	r3, .L68
 1006              		.loc 1 122 0
 1007 0004 084A     		ldr	r2, .L68+4
 1008              		.loc 1 121 0
 1009 0006 1868     		ldr	r0, [r3]	@ unaligned
 1010 0008 5968     		ldr	r1, [r3, #4]	@ unaligned
 1011 000a 1D7A     		ldrb	r5, [r3, #8]	@ zero_extendqisi2
 1012              		.loc 1 122 0
 1013 000c 1468     		ldr	r4, [r2]
 1014              		.loc 1 119 0
 1015 000e 85B0     		sub	sp, sp, #20
 1016              		.cfi_def_cfa_offset 32
 1017              		.loc 1 121 0
 1018 0010 01AB     		add	r3, sp, #4
 1019 0012 03C3     		stmia	r3!, {r0, r1}
 1020 0014 1D70     		strb	r5, [r3]
 1021              		.loc 1 122 0
 1022 0016 2368     		ldr	r3, [r4]
 1023 0018 1046     		mov	r0, r2
 1024 001a 01A9     		add	r1, sp, #4
 1025 001c 0922     		movs	r2, #9
 1026 001e 9847     		blx	r3
ARM GAS  /tmp/cc0Dkj7G.s 			page 19


 1027              	.LVL96:
 1028              		.loc 1 123 0
 1029 0020 05B0     		add	sp, sp, #20
 1030              		.cfi_def_cfa_offset 12
 1031              		@ sp needed
 1032 0022 30BD     		pop	{r4, r5, pc}
 1033              	.L69:
 1034              		.align	2
 1035              	.L68:
 1036 0024 00000000 		.word	.LANCHOR8
 1037 0028 00000000 		.word	SD2
 1038              		.cfi_endproc
 1039              	.LFE264:
 1040              		.size	led_on_local, .-led_on_local
 1041              		.section	.text.led_off_local,"ax",%progbits
 1042              		.align	2
 1043              		.p2align 4,,15
 1044              		.global	led_off_local
 1045              		.thumb
 1046              		.thumb_func
 1047              		.type	led_off_local, %function
 1048              	led_off_local:
 1049              	.LFB265:
 1050              		.loc 1 126 0
 1051              		.cfi_startproc
 1052              		@ args = 0, pretend = 0, frame = 16
 1053              		@ frame_needed = 0, uses_anonymous_args = 0
 1054 0000 30B5     		push	{r4, r5, lr}
 1055              		.cfi_def_cfa_offset 12
 1056              		.cfi_offset 4, -12
 1057              		.cfi_offset 5, -8
 1058              		.cfi_offset 14, -4
 1059              		.loc 1 128 0
 1060 0002 094B     		ldr	r3, .L72
 1061              		.loc 1 129 0
 1062 0004 094A     		ldr	r2, .L72+4
 1063              		.loc 1 128 0
 1064 0006 53F80C0F 		ldr	r0, [r3, #12]!	@ unaligned
 1065              		.loc 1 129 0
 1066 000a 1468     		ldr	r4, [r2]
 1067              		.loc 1 128 0
 1068 000c 5968     		ldr	r1, [r3, #4]	@ unaligned
 1069 000e 1D7A     		ldrb	r5, [r3, #8]	@ zero_extendqisi2
 1070              		.loc 1 126 0
 1071 0010 85B0     		sub	sp, sp, #20
 1072              		.cfi_def_cfa_offset 32
 1073              		.loc 1 128 0
 1074 0012 01AB     		add	r3, sp, #4
 1075 0014 03C3     		stmia	r3!, {r0, r1}
 1076 0016 1D70     		strb	r5, [r3]
 1077              		.loc 1 129 0
 1078 0018 2368     		ldr	r3, [r4]
 1079 001a 1046     		mov	r0, r2
 1080 001c 01A9     		add	r1, sp, #4
 1081 001e 0922     		movs	r2, #9
 1082 0020 9847     		blx	r3
 1083              	.LVL97:
ARM GAS  /tmp/cc0Dkj7G.s 			page 20


 1084              		.loc 1 130 0
 1085 0022 05B0     		add	sp, sp, #20
 1086              		.cfi_def_cfa_offset 12
 1087              		@ sp needed
 1088 0024 30BD     		pop	{r4, r5, pc}
 1089              	.L73:
 1090 0026 00BF     		.align	2
 1091              	.L72:
 1092 0028 00000000 		.word	.LANCHOR8
 1093 002c 00000000 		.word	SD2
 1094              		.cfi_endproc
 1095              	.LFE265:
 1096              		.size	led_off_local, .-led_off_local
 1097              		.section	.text.pin_on_remote,"ax",%progbits
 1098              		.align	2
 1099              		.p2align 4,,15
 1100              		.global	pin_on_remote
 1101              		.thumb
 1102              		.thumb_func
 1103              		.type	pin_on_remote, %function
 1104              	pin_on_remote:
 1105              	.LFB266:
 1106              		.loc 1 133 0
 1107              		.cfi_startproc
 1108              		@ args = 0, pretend = 0, frame = 24
 1109              		@ frame_needed = 0, uses_anonymous_args = 0
 1110 0000 F0B5     		push	{r4, r5, r6, r7, lr}
 1111              		.cfi_def_cfa_offset 20
 1112              		.cfi_offset 4, -20
 1113              		.cfi_offset 5, -16
 1114              		.cfi_offset 6, -12
 1115              		.cfi_offset 7, -8
 1116              		.cfi_offset 14, -4
 1117              		.loc 1 135 0
 1118 0002 0A4D     		ldr	r5, .L76
 1119              		.loc 1 136 0
 1120 0004 0A4E     		ldr	r6, .L76+4
 1121              		.loc 1 135 0
 1122 0006 55F8180F 		ldr	r0, [r5, #24]!	@ unaligned
 1123              		.loc 1 136 0
 1124 000a 3768     		ldr	r7, [r6]
 1125              		.loc 1 135 0
 1126 000c 6968     		ldr	r1, [r5, #4]	@ unaligned
 1127 000e AA68     		ldr	r2, [r5, #8]	@ unaligned
 1128 0010 EB68     		ldr	r3, [r5, #12]	@ unaligned
 1129              		.loc 1 133 0
 1130 0012 87B0     		sub	sp, sp, #28
 1131              		.cfi_def_cfa_offset 48
 1132              		.loc 1 135 0
 1133 0014 01AC     		add	r4, sp, #4
 1134 0016 0FC4     		stmia	r4!, {r0, r1, r2, r3}
 1135 0018 2869     		ldr	r0, [r5, #16]	@ unaligned
 1136 001a 2060     		str	r0, [r4]	@ unaligned
 1137              		.loc 1 136 0
 1138 001c 3B68     		ldr	r3, [r7]
 1139 001e 3046     		mov	r0, r6
 1140 0020 1422     		movs	r2, #20
ARM GAS  /tmp/cc0Dkj7G.s 			page 21


 1141 0022 01A9     		add	r1, sp, #4
 1142 0024 9847     		blx	r3
 1143              	.LVL98:
 1144              		.loc 1 137 0
 1145 0026 07B0     		add	sp, sp, #28
 1146              		.cfi_def_cfa_offset 20
 1147              		@ sp needed
 1148 0028 F0BD     		pop	{r4, r5, r6, r7, pc}
 1149              	.L77:
 1150 002a 00BF     		.align	2
 1151              	.L76:
 1152 002c 00000000 		.word	.LANCHOR8
 1153 0030 00000000 		.word	SD2
 1154              		.cfi_endproc
 1155              	.LFE266:
 1156              		.size	pin_on_remote, .-pin_on_remote
 1157              		.section	.text.pin_off_remote,"ax",%progbits
 1158              		.align	2
 1159              		.p2align 4,,15
 1160              		.global	pin_off_remote
 1161              		.thumb
 1162              		.thumb_func
 1163              		.type	pin_off_remote, %function
 1164              	pin_off_remote:
 1165              	.LFB267:
 1166              		.loc 1 139 0
 1167              		.cfi_startproc
 1168              		@ args = 0, pretend = 0, frame = 24
 1169              		@ frame_needed = 0, uses_anonymous_args = 0
 1170 0000 F0B5     		push	{r4, r5, r6, r7, lr}
 1171              		.cfi_def_cfa_offset 20
 1172              		.cfi_offset 4, -20
 1173              		.cfi_offset 5, -16
 1174              		.cfi_offset 6, -12
 1175              		.cfi_offset 7, -8
 1176              		.cfi_offset 14, -4
 1177              		.loc 1 141 0
 1178 0002 0A4D     		ldr	r5, .L80
 1179              		.loc 1 142 0
 1180 0004 0A4E     		ldr	r6, .L80+4
 1181              		.loc 1 141 0
 1182 0006 55F82C0F 		ldr	r0, [r5, #44]!	@ unaligned
 1183              		.loc 1 142 0
 1184 000a 3768     		ldr	r7, [r6]
 1185              		.loc 1 141 0
 1186 000c 6968     		ldr	r1, [r5, #4]	@ unaligned
 1187 000e AA68     		ldr	r2, [r5, #8]	@ unaligned
 1188 0010 EB68     		ldr	r3, [r5, #12]	@ unaligned
 1189              		.loc 1 139 0
 1190 0012 87B0     		sub	sp, sp, #28
 1191              		.cfi_def_cfa_offset 48
 1192              		.loc 1 141 0
 1193 0014 01AC     		add	r4, sp, #4
 1194 0016 0FC4     		stmia	r4!, {r0, r1, r2, r3}
 1195 0018 2869     		ldr	r0, [r5, #16]	@ unaligned
 1196 001a 2060     		str	r0, [r4]	@ unaligned
 1197              		.loc 1 142 0
ARM GAS  /tmp/cc0Dkj7G.s 			page 22


 1198 001c 3B68     		ldr	r3, [r7]
 1199 001e 3046     		mov	r0, r6
 1200 0020 1422     		movs	r2, #20
 1201 0022 01A9     		add	r1, sp, #4
 1202 0024 9847     		blx	r3
 1203              	.LVL99:
 1204              		.loc 1 144 0
 1205 0026 07B0     		add	sp, sp, #28
 1206              		.cfi_def_cfa_offset 20
 1207              		@ sp needed
 1208 0028 F0BD     		pop	{r4, r5, r6, r7, pc}
 1209              	.L81:
 1210 002a 00BF     		.align	2
 1211              	.L80:
 1212 002c 00000000 		.word	.LANCHOR8
 1213 0030 00000000 		.word	SD2
 1214              		.cfi_endproc
 1215              	.LFE267:
 1216              		.size	pin_off_remote, .-pin_off_remote
 1217              		.global	__aeabi_f2d
 1218              		.global	__aeabi_fcmpgt
 1219              		.global	__aeabi_fcmplt
 1220              		.section	.text.Thread2,"ax",%progbits
 1221              		.align	2
 1222              		.p2align 4,,15
 1223              		.thumb
 1224              		.thumb_func
 1225              		.type	Thread2, %function
 1226              	Thread2:
 1227              	.LFB268:
 1228              		.loc 1 148 0
 1229              		.cfi_startproc
 1230              		@ args = 0, pretend = 0, frame = 8
 1231              		@ frame_needed = 0, uses_anonymous_args = 0
 1232              	.LVL100:
 1233 0000 2DE9F047 		push	{r4, r5, r6, r7, r8, r9, r10, lr}
 1234              		.cfi_def_cfa_offset 32
 1235              		.cfi_offset 4, -32
 1236              		.cfi_offset 5, -28
 1237              		.cfi_offset 6, -24
 1238              		.cfi_offset 7, -20
 1239              		.cfi_offset 8, -16
 1240              		.cfi_offset 9, -12
 1241              		.cfi_offset 10, -8
 1242              		.cfi_offset 14, -4
 1243 0004 DFF8E090 		ldr	r9, .L106+8
 1244 0008 DFF8E0A0 		ldr	r10, .L106+12
 1245 000c 86B0     		sub	sp, sp, #24
 1246              		.cfi_def_cfa_offset 56
 1247              		.loc 1 153 0
 1248 000e 1E27     		movs	r7, #30
 1249              		.loc 1 152 0
 1250 0010 0024     		movs	r4, #0
 1251              		.loc 1 151 0
 1252 0012 4FF00008 		mov	r8, #0
 1253              	.LVL101:
 1254              	.L83:
ARM GAS  /tmp/cc0Dkj7G.s 			page 23


 1255              	.LBB141:
 1256              		.loc 1 157 0
 1257 0016 FFF7FEFF 		bl	getTemperature
 1258              	.LVL102:
 1259 001a 0646     		mov	r6, r0
 1260              	.LVL103:
 1261              		.loc 1 158 0
 1262 001c FFF7FEFF 		bl	calc_mean
 1263              	.LVL104:
 1264 0020 0546     		mov	r5, r0
 1265              	.LVL105:
 1266              		.loc 1 160 0
 1267 0022 42F21070 		movw	r0, #10000
 1268              	.LVL106:
 1269 0026 FFF7FEFF 		bl	chThdSleep
 1270              	.LVL107:
 1271              		.loc 1 162 0
 1272 002a D9F85432 		ldr	r3, [r9, #596]
 1273 002e 1B68     		ldr	r3, [r3]
 1274 0030 1B78     		ldrb	r3, [r3]	@ zero_extendqisi2
 1275 0032 042B     		cmp	r3, #4
 1276 0034 18D0     		beq	.L103
 1277              	.LVL108:
 1278              		.loc 1 168 0
 1279 0036 002C     		cmp	r4, #0
 1280 0038 33D1     		bne	.L85
 1281              	.L104:
 1282              	.LVL109:
 1283              		.loc 1 171 0
 1284 003a 013F     		subs	r7, r7, #1
 1285              	.LVL110:
 1286 003c 12D1     		bne	.L87
 1287              	.L86:
 1288              	.LVL111:
 1289              		.loc 1 175 0
 1290 003e 2849     		ldr	r1, .L106
 1291 0040 3046     		mov	r0, r6
 1292 0042 FFF7FEFF 		bl	__aeabi_fcmpgt
 1293              	.LVL112:
 1294 0046 0028     		cmp	r0, #0
 1295 0048 48D0     		beq	.L101
 1296              		.loc 1 175 0 is_stmt 0 discriminator 1
 1297 004a DAF80010 		ldr	r1, [r10]	@ float
 1298 004e 3046     		mov	r0, r6
 1299 0050 FFF7FEFF 		bl	__aeabi_fsub
 1300              	.LVL113:
 1301 0054 4FF07F51 		mov	r1, #1069547520
 1302 0058 FFF7FEFF 		bl	__aeabi_fcmpgt
 1303              	.LVL114:
 1304 005c 0028     		cmp	r0, #0
 1305 005e 14BF     		ite	ne
 1306 0060 0224     		movne	r4, #2
 1307 0062 0124     		moveq	r4, #1
 1308              	.L87:
 1309 0064 A846     		mov	r8, r5
 1310              	.LVL115:
 1311 0066 D6E7     		b	.L83
ARM GAS  /tmp/cc0Dkj7G.s 			page 24


 1312              	.LVL116:
 1313              	.L103:
 1314              		.loc 1 163 0 is_stmt 1
 1315 0068 DAF80000 		ldr	r0, [r10]	@ float
 1316 006c FFF7FEFF 		bl	__aeabi_f2d
 1317              	.LVL117:
 1318 0070 0246     		mov	r2, r0
 1319 0072 0B46     		mov	r3, r1
 1320 0074 2846     		mov	r0, r5
 1321 0076 4146     		mov	r1, r8
 1322 0078 CDE90423 		strd	r2, [sp, #16]
 1323 007c FFF7FEFF 		bl	__aeabi_fsub
 1324              	.LVL118:
 1325 0080 FFF7FEFF 		bl	__aeabi_f2d
 1326              	.LVL119:
 1327 0084 CDE90201 		strd	r0, [sp, #8]
 1328 0088 3046     		mov	r0, r6
 1329 008a FFF7FEFF 		bl	__aeabi_f2d
 1330              	.LVL120:
 1331 008e DDE90423 		ldrd	r2, [sp, #16]
 1332 0092 CDE90001 		strd	r0, [sp]
 1333 0096 1349     		ldr	r1, .L106+4
 1334 0098 1348     		ldr	r0, .L106+8
 1335 009a FFF7FEFF 		bl	chprintf
 1336              	.LVL121:
 1337              		.loc 1 168 0
 1338 009e 002C     		cmp	r4, #0
 1339 00a0 CBD0     		beq	.L104
 1340              	.L85:
 1341              		.loc 1 173 0
 1342 00a2 012C     		cmp	r4, #1
 1343 00a4 CBD0     		beq	.L86
 1344              		.loc 1 178 0
 1345 00a6 022C     		cmp	r4, #2
 1346 00a8 0BD0     		beq	.L105
 1347              		.loc 1 182 0
 1348 00aa 032C     		cmp	r4, #3
 1349 00ac DAD1     		bne	.L87
 1350              		.loc 1 184 0
 1351 00ae FFF7FEFF 		bl	pin_on_remote
 1352              	.LVL122:
 1353              		.loc 1 185 0
 1354 00b2 49F64040 		movw	r0, #40000
 1355 00b6 FFF7FEFF 		bl	chThdSleep
 1356              	.LVL123:
 1357              		.loc 1 188 0
 1358 00ba 0024     		movs	r4, #0
 1359              	.LVL124:
 1360              		.loc 1 186 0
 1361 00bc FFF7FEFF 		bl	pin_off_remote
 1362              	.LVL125:
 1363 00c0 D0E7     		b	.L87
 1364              	.LVL126:
 1365              	.L105:
 1366              		.loc 1 180 0
 1367 00c2 DAF80010 		ldr	r1, [r10]	@ float
 1368 00c6 3046     		mov	r0, r6
ARM GAS  /tmp/cc0Dkj7G.s 			page 25


 1369 00c8 FFF7FEFF 		bl	__aeabi_fsub
 1370              	.LVL127:
 1371 00cc 4FF07C51 		mov	r1, #1056964608
 1372 00d0 FFF7FEFF 		bl	__aeabi_fcmplt
 1373              	.LVL128:
 1374 00d4 0028     		cmp	r0, #0
 1375 00d6 18BF     		it	ne
 1376 00d8 0324     		movne	r4, #3
 1377              	.LVL129:
 1378 00da C3E7     		b	.L87
 1379              	.L101:
 1380 00dc 0124     		movs	r4, #1
 1381 00de C1E7     		b	.L87
 1382              	.L107:
 1383              		.align	2
 1384              	.L106:
 1385 00e0 00007042 		.word	1114636288
 1386 00e4 E8000000 		.word	.LC14
 1387 00e8 00000000 		.word	.LANCHOR9
 1388 00ec 00000000 		.word	.LANCHOR5
 1389              	.LBE141:
 1390              		.cfi_endproc
 1391              	.LFE268:
 1392              		.size	Thread2, .-Thread2
 1393              		.section	.text.startup.main,"ax",%progbits
 1394              		.align	2
 1395              		.p2align 4,,15
 1396              		.global	main
 1397              		.thumb
 1398              		.thumb_func
 1399              		.type	main, %function
 1400              	main:
 1401              	.LFB273:
 1402              		.loc 1 384 0
 1403              		.cfi_startproc
 1404              		@ args = 0, pretend = 0, frame = 0
 1405              		@ frame_needed = 0, uses_anonymous_args = 0
 1406              	.LVL130:
 1407 0000 70B5     		push	{r4, r5, r6, lr}
 1408              		.cfi_def_cfa_offset 16
 1409              		.cfi_offset 4, -16
 1410              		.cfi_offset 5, -12
 1411              		.cfi_offset 6, -8
 1412              		.cfi_offset 14, -4
 1413 0002 82B0     		sub	sp, sp, #8
 1414              		.cfi_def_cfa_offset 24
 1415              		.loc 1 394 0
 1416 0004 FFF7FEFF 		bl	halInit
 1417              	.LVL131:
 1418 0008 494D     		ldr	r5, .L115
 1419              		.loc 1 417 0
 1420 000a 4A4E     		ldr	r6, .L115+4
 1421              		.loc 1 464 0
 1422 000c 4A4C     		ldr	r4, .L115+8
 1423              		.loc 1 395 0
 1424 000e FFF7FEFF 		bl	chSysInit
 1425              	.LVL132:
ARM GAS  /tmp/cc0Dkj7G.s 			page 26


 1426              		.loc 1 400 0
 1427 0012 0322     		movs	r2, #3
 1428 0014 0621     		movs	r1, #6
 1429 0016 4948     		ldr	r0, .L115+12
 1430 0018 FFF7FEFF 		bl	_pal_lld_setgroupmode
 1431              	.LVL133:
 1432              		.loc 1 403 0
 1433 001c 0122     		movs	r2, #1
 1434 001e 0821     		movs	r1, #8
 1435 0020 4748     		ldr	r0, .L115+16
 1436 0022 FFF7FEFF 		bl	_pal_lld_setgroupmode
 1437              	.LVL134:
 1438              		.loc 1 410 0
 1439 0026 FFF7FEFF 		bl	shellInit
 1440              	.LVL135:
 1441              		.loc 1 416 0
 1442 002a 2846     		mov	r0, r5
 1443 002c FFF7FEFF 		bl	sduObjectInit
 1444              	.LVL136:
 1445              		.loc 1 417 0
 1446 0030 3146     		mov	r1, r6
 1447 0032 2846     		mov	r0, r5
 1448 0034 FFF7FEFF 		bl	sduStart
 1449              	.LVL137:
 1450              		.loc 1 424 0
 1451 0038 3368     		ldr	r3, [r6]
 1452 003a 1A6D     		ldr	r2, [r3, #80]
 1453 003c 936B     		ldr	r3, [r2, #56]
 1454 003e 23F40023 		bic	r3, r3, #524288
 1455 0042 9363     		str	r3, [r2, #56]
 1456              		.loc 1 425 0
 1457 0044 42F21070 		movw	r0, #10000
 1458 0048 FFF7FEFF 		bl	chThdSleep
 1459              	.LVL138:
 1460              		.loc 1 426 0
 1461 004c 3068     		ldr	r0, [r6]
 1462 004e 3D49     		ldr	r1, .L115+20
 1463 0050 FFF7FEFF 		bl	usbStart
 1464              	.LVL139:
 1465              		.loc 1 427 0
 1466 0054 3368     		ldr	r3, [r6]
 1467              		.loc 1 433 0
 1468 0056 3C49     		ldr	r1, .L115+24
 1469              		.loc 1 427 0
 1470 0058 1A6D     		ldr	r2, [r3, #80]
 1471              		.loc 1 433 0
 1472 005a 3C48     		ldr	r0, .L115+28
 1473              		.loc 1 427 0
 1474 005c 936B     		ldr	r3, [r2, #56]
 1475 005e 43F40023 		orr	r3, r3, #524288
 1476 0062 9363     		str	r3, [r2, #56]
 1477              		.loc 1 433 0
 1478 0064 FFF7FEFF 		bl	sdStart
 1479              	.LVL140:
 1480              		.loc 1 434 0
 1481 0068 40F28232 		movw	r2, #898
 1482 006c 0421     		movs	r1, #4
ARM GAS  /tmp/cc0Dkj7G.s 			page 27


 1483 006e 3848     		ldr	r0, .L115+32
 1484 0070 FFF7FEFF 		bl	_pal_lld_setgroupmode
 1485              	.LVL141:
 1486              		.loc 1 435 0
 1487 0074 40F28232 		movw	r2, #898
 1488 0078 0821     		movs	r1, #8
 1489 007a 3548     		ldr	r0, .L115+32
 1490 007c FFF7FEFF 		bl	_pal_lld_setgroupmode
 1491              	.LVL142:
 1492              		.loc 1 436 0
 1493 0080 FFF7FEFF 		bl	pin_off_remote
 1494              	.LVL143:
 1495              		.loc 1 454 0
 1496 0084 3349     		ldr	r1, .L115+36
 1497 0086 3448     		ldr	r0, .L115+40
 1498 0088 FFF7FEFF 		bl	spiStart
 1499              	.LVL144:
 1500              		.loc 1 463 0
 1501 008c 3349     		ldr	r1, .L115+44
 1502 008e 3448     		ldr	r0, .L115+48
 1503 0090 FFF7FEFF 		bl	spiStart
 1504              	.LVL145:
 1505              		.loc 1 464 0
 1506 0094 4FF48051 		mov	r1, #4096
 1507 0098 2183     		strh	r1, [r4, #24]	@ movhi
 1508              		.loc 1 465 0
 1509 009a 2046     		mov	r0, r4
 1510 009c 1922     		movs	r2, #25
 1511 009e FFF7FEFF 		bl	_pal_lld_setgroupmode
 1512              	.LVL146:
 1513              		.loc 1 467 0
 1514 00a2 2046     		mov	r0, r4
 1515 00a4 40F29A22 		movw	r2, #666
 1516 00a8 4FF40051 		mov	r1, #8192
 1517 00ac FFF7FEFF 		bl	_pal_lld_setgroupmode
 1518              	.LVL147:
 1519              		.loc 1 469 0
 1520 00b0 2046     		mov	r0, r4
 1521 00b2 40F28222 		movw	r2, #642
 1522 00b6 4FF48041 		mov	r1, #16384
 1523 00ba FFF7FEFF 		bl	_pal_lld_setgroupmode
 1524              	.LVL148:
 1525              		.loc 1 470 0
 1526 00be 2046     		mov	r0, r4
 1527 00c0 40F29A22 		movw	r2, #666
 1528 00c4 4FF40041 		mov	r1, #32768
 1529 00c8 FFF7FEFF 		bl	_pal_lld_setgroupmode
 1530              	.LVL149:
 1531              		.loc 1 486 0
 1532 00cc 0024     		movs	r4, #0
 1533              		.loc 1 476 0
 1534 00ce 2549     		ldr	r1, .L115+52
 1535 00d0 2548     		ldr	r0, .L115+56
 1536 00d2 FFF7FEFF 		bl	pwmStart
 1537              	.LVL150:
 1538              		.loc 1 486 0
 1539 00d6 254B     		ldr	r3, .L115+60
ARM GAS  /tmp/cc0Dkj7G.s 			page 28


 1540 00d8 0094     		str	r4, [sp]
 1541 00da 4A22     		movs	r2, #74
 1542 00dc 4FF4A471 		mov	r1, #328
 1543 00e0 2348     		ldr	r0, .L115+64
 1544 00e2 FFF7FEFF 		bl	chThdCreateStatic
 1545              	.LVL151:
 1546              		.loc 1 490 0
 1547 00e6 0094     		str	r4, [sp]
 1548 00e8 224B     		ldr	r3, .L115+68
 1549 00ea 2348     		ldr	r0, .L115+72
 1550 00ec 4A22     		movs	r2, #74
 1551 00ee 4FF4A471 		mov	r1, #328
 1552 00f2 FFF7FEFF 		bl	chThdCreateStatic
 1553              	.LVL152:
 1554              		.loc 1 499 0
 1555 00f6 44B1     		cbz	r4, .L113
 1556              	.L109:
 1557              		.loc 1 507 0
 1558 00f8 237F     		ldrb	r3, [r4, #28]	@ zero_extendqisi2
 1559 00fa 0F2B     		cmp	r3, #15
 1560 00fc 13D0     		beq	.L114
 1561              	.LVL153:
 1562              	.L110:
 1563              		.loc 1 513 0
 1564 00fe 41F28830 		movw	r0, #5000
 1565 0102 FFF7FEFF 		bl	chThdSleep
 1566              	.LVL154:
 1567              		.loc 1 499 0
 1568 0106 002C     		cmp	r4, #0
 1569 0108 F6D1     		bne	.L109
 1570              	.L113:
 1571              	.LVL155:
 1572              		.loc 1 500 0
 1573 010a D5F85432 		ldr	r3, [r5, #596]
 1574 010e 1B68     		ldr	r3, [r3]
 1575 0110 1B78     		ldrb	r3, [r3]	@ zero_extendqisi2
 1576 0112 042B     		cmp	r3, #4
 1577 0114 F3D1     		bne	.L110
 1578              		.loc 1 502 0
 1579 0116 4022     		movs	r2, #64
 1580 0118 40F6C801 		movw	r1, #2248
 1581 011c 1748     		ldr	r0, .L115+76
 1582 011e FFF7FEFF 		bl	shellCreate
 1583              	.LVL156:
 1584 0122 0446     		mov	r4, r0
 1585              	.LVL157:
 1586 0124 EBE7     		b	.L110
 1587              	.LVL158:
 1588              	.L114:
 1589              		.loc 1 509 0
 1590 0126 2046     		mov	r0, r4
 1591 0128 FFF7FEFF 		bl	chThdRelease
 1592              	.LVL159:
 1593              		.loc 1 510 0
 1594 012c 0024     		movs	r4, #0
 1595              	.LVL160:
 1596 012e E6E7     		b	.L110
ARM GAS  /tmp/cc0Dkj7G.s 			page 29


 1597              	.L116:
 1598              		.align	2
 1599              	.L115:
 1600 0130 00000000 		.word	.LANCHOR9
 1601 0134 00000000 		.word	serusbcfg
 1602 0138 00040240 		.word	1073873920
 1603 013c 00080240 		.word	1073874944
 1604 0140 000C0240 		.word	1073875968
 1605 0144 00000000 		.word	usbcfg
 1606 0148 00000000 		.word	.LANCHOR10
 1607 014c 00000000 		.word	SD2
 1608 0150 00000240 		.word	1073872896
 1609 0154 00000000 		.word	.LANCHOR11
 1610 0158 00000000 		.word	SPID1
 1611 015c 00000000 		.word	.LANCHOR12
 1612 0160 00000000 		.word	SPID2
 1613 0164 00000000 		.word	.LANCHOR13
 1614 0168 00000000 		.word	PWMD4
 1615 016c 00000000 		.word	Thread1
 1616 0170 00000000 		.word	.LANCHOR14
 1617 0174 00000000 		.word	Thread2
 1618 0178 00000000 		.word	.LANCHOR15
 1619 017c 00000000 		.word	.LANCHOR16
 1620              		.cfi_endproc
 1621              	.LFE273:
 1622              		.size	main, .-main
 1623              		.global	mean
 1624              		.global	tempOflm35
 1625              		.global	rb_data
 1626              		.global	rb_i
 1627              		.global	SDU1
 1628              		.section	.rodata
 1629              		.align	2
 1630              		.set	.LANCHOR8,. + 0
 1631              	.LC0:
 1632 0000 7E       		.byte	126
 1633 0001 00       		.byte	0
 1634 0002 05       		.byte	5
 1635 0003 08       		.byte	8
 1636 0004 01       		.byte	1
 1637 0005 44       		.byte	68
 1638 0006 35       		.byte	53
 1639 0007 05       		.byte	5
 1640 0008 78       		.byte	120
 1641 0009 000000   		.space	3
 1642              	.LC1:
 1643 000c 7E       		.byte	126
 1644 000d 00       		.byte	0
 1645 000e 05       		.byte	5
 1646 000f 08       		.byte	8
 1647 0010 01       		.byte	1
 1648 0011 44       		.byte	68
 1649 0012 35       		.byte	53
 1650 0013 04       		.byte	4
 1651 0014 79       		.byte	121
 1652 0015 000000   		.space	3
 1653              	.LC2:
ARM GAS  /tmp/cc0Dkj7G.s 			page 30


 1654 0018 7E       		.byte	126
 1655 0019 00       		.byte	0
 1656 001a 10       		.byte	16
 1657 001b 17       		.byte	23
 1658 001c 01       		.byte	1
 1659 001d 00       		.byte	0
 1660 001e 00       		.byte	0
 1661 001f 00       		.byte	0
 1662 0020 00       		.byte	0
 1663 0021 00       		.byte	0
 1664 0022 00       		.byte	0
 1665 0023 FF       		.byte	-1
 1666 0024 FF       		.byte	-1
 1667 0025 FF       		.byte	-1
 1668 0026 FE       		.byte	-2
 1669 0027 02       		.byte	2
 1670 0028 44       		.byte	68
 1671 0029 35       		.byte	53
 1672 002a 05       		.byte	5
 1673 002b 6C       		.byte	108
 1674              	.LC3:
 1675 002c 7E       		.byte	126
 1676 002d 00       		.byte	0
 1677 002e 10       		.byte	16
 1678 002f 17       		.byte	23
 1679 0030 01       		.byte	1
 1680 0031 00       		.byte	0
 1681 0032 00       		.byte	0
 1682 0033 00       		.byte	0
 1683 0034 00       		.byte	0
 1684 0035 00       		.byte	0
 1685 0036 00       		.byte	0
 1686 0037 FF       		.byte	-1
 1687 0038 FF       		.byte	-1
 1688 0039 FF       		.byte	-1
 1689 003a FE       		.byte	-2
 1690 003b 02       		.byte	2
 1691 003c 44       		.byte	68
 1692 003d 35       		.byte	53
 1693 003e 04       		.byte	4
 1694 003f 6D       		.byte	109
 1695              		.section	.rodata.spi2cfg,"a",%progbits
 1696              		.align	2
 1697              		.set	.LANCHOR12,. + 0
 1698              		.type	spi2cfg, %object
 1699              		.size	spi2cfg, 12
 1700              	spi2cfg:
 1701 0000 00000000 		.word	0
 1702 0004 00040240 		.word	1073873920
 1703 0008 0C00     		.short	12
 1704 000a 0000     		.short	0
 1705              		.section	.bss.waThread1,"aw",%nobits
 1706              		.align	3
 1707              		.set	.LANCHOR14,. + 0
 1708              		.type	waThread1, %object
 1709              		.size	waThread1, 328
 1710              	waThread1:
ARM GAS  /tmp/cc0Dkj7G.s 			page 31


 1711 0000 00000000 		.space	328
 1711      00000000 
 1711      00000000 
 1711      00000000 
 1711      00000000 
 1712              		.section	.bss.waThread2,"aw",%nobits
 1713              		.align	3
 1714              		.set	.LANCHOR15,. + 0
 1715              		.type	waThread2, %object
 1716              		.size	waThread2, 328
 1717              	waThread2:
 1718 0000 00000000 		.space	328
 1718      00000000 
 1718      00000000 
 1718      00000000 
 1718      00000000 
 1719              		.section	.bss.SDU1,"aw",%nobits
 1720              		.align	2
 1721              		.set	.LANCHOR9,. + 0
 1722              		.type	SDU1, %object
 1723              		.size	SDU1, 600
 1724              	SDU1:
 1725 0000 00000000 		.space	600
 1725      00000000 
 1725      00000000 
 1725      00000000 
 1725      00000000 
 1726              		.section	.bss.xbuf.7895,"aw",%nobits
 1727              		.align	2
 1728              		.set	.LANCHOR0,. + 0
 1729              		.type	xbuf.7895, %object
 1730              		.size	xbuf.7895, 4
 1731              	xbuf.7895:
 1732 0000 00000000 		.space	4
 1733              		.section	.rodata.spi1cfg,"a",%progbits
 1734              		.align	2
 1735              		.set	.LANCHOR11,. + 0
 1736              		.type	spi1cfg, %object
 1737              		.size	spi1cfg, 12
 1738              	spi1cfg:
 1739 0000 00000000 		.word	0
 1740 0004 00100240 		.word	1073876992
 1741 0008 0300     		.short	3
 1742 000a 1B00     		.short	27
 1743              		.section	.bss.rb_data,"aw",%nobits
 1744              		.align	2
 1745              		.set	.LANCHOR4,. + 0
 1746              		.type	rb_data, %object
 1747              		.size	rb_data, 120
 1748              	rb_data:
 1749 0000 00000000 		.space	120
 1749      00000000 
 1749      00000000 
 1749      00000000 
 1749      00000000 
 1750              		.section	.bss.tempOflm35,"aw",%nobits
 1751              		.align	2
ARM GAS  /tmp/cc0Dkj7G.s 			page 32


 1752              		.set	.LANCHOR7,. + 0
 1753              		.type	tempOflm35, %object
 1754              		.size	tempOflm35, 4
 1755              	tempOflm35:
 1756 0000 00000000 		.space	4
 1757              		.section	.rodata.commands,"a",%progbits
 1758              		.align	2
 1759              		.type	commands, %object
 1760              		.size	commands, 32
 1761              	commands:
 1762 0000 80010000 		.word	.LC31
 1763 0004 00000000 		.word	cmd_mem
 1764 0008 84010000 		.word	.LC32
 1765 000c 00000000 		.word	cmd_threads
 1766 0010 8C010000 		.word	.LC33
 1767 0014 00000000 		.word	cmd_test
 1768 0018 00000000 		.word	0
 1769 001c 00000000 		.word	0
 1770              		.section	.rodata.usart_cfg,"a",%progbits
 1771              		.align	2
 1772              		.set	.LANCHOR10,. + 0
 1773              		.type	usart_cfg, %object
 1774              		.size	usart_cfg, 12
 1775              	usart_cfg:
 1776 0000 80250000 		.word	9600
 1777 0004 0000     		.short	0
 1778 0006 0040     		.short	16384
 1779 0008 0000     		.short	0
 1780 000a 0000     		.space	2
 1781              		.section	.bss.mean,"aw",%nobits
 1782              		.align	2
 1783              		.set	.LANCHOR5,. + 0
 1784              		.type	mean, %object
 1785              		.size	mean, 4
 1786              	mean:
 1787 0000 00000000 		.space	4
 1788              		.section	.rodata.str1.4,"aMS",%progbits,1
 1789              		.align	2
 1790              	.LC4:
 1791 0000 72656164 		.ascii	"reader\000"
 1791      657200
 1792 0007 00       		.space	1
 1793              	.LC5:
 1794 0008 55736167 		.ascii	"Usage: test\015\012\000"
 1794      653A2074 
 1794      6573740D 
 1794      0A00
 1795 0016 0000     		.space	2
 1796              	.LC6:
 1797 0018 6F757420 		.ascii	"out of memory\015\012\000"
 1797      6F66206D 
 1797      656D6F72 
 1797      790D0A00 
 1798              	.LC7:
 1799 0028 55736167 		.ascii	"Usage: threads\015\012\000"
 1799      653A2074 
 1799      68726561 
ARM GAS  /tmp/cc0Dkj7G.s 			page 33


 1799      64730D0A 
 1799      00
 1800 0039 000000   		.space	3
 1801              	.LC8:
 1802 003c 20202020 		.ascii	"    addr    stack prio refs     state\015\012\000"
 1802      61646472 
 1802      20202020 
 1802      73746163 
 1802      6B207072 
 1803              	.LC9:
 1804 0064 2530386C 		.ascii	"%08lx %08lx %4lu %4lu %9s\015\012\000"
 1804      78202530 
 1804      386C7820 
 1804      25346C75 
 1804      2025346C 
 1805              	.LC10:
 1806 0080 55736167 		.ascii	"Usage: mem\015\012\000"
 1806      653A206D 
 1806      656D0D0A 
 1806      00
 1807 008d 000000   		.space	3
 1808              	.LC11:
 1809 0090 636F7265 		.ascii	"core free memory : %u bytes\015\012\000"
 1809      20667265 
 1809      65206D65 
 1809      6D6F7279 
 1809      203A2025 
 1810 00ae 0000     		.space	2
 1811              	.LC12:
 1812 00b0 68656170 		.ascii	"heap fragments   : %u\015\012\000"
 1812      20667261 
 1812      676D656E 
 1812      74732020 
 1812      203A2025 
 1813              	.LC13:
 1814 00c8 68656170 		.ascii	"heap free total  : %u bytes\015\012\000"
 1814      20667265 
 1814      6520746F 
 1814      74616C20 
 1814      203A2025 
 1815 00e6 0000     		.space	2
 1816              	.LC14:
 1817 00e8 25662C25 		.ascii	"%f,%f,%f\015\012\000"
 1817      662C2566 
 1817      0D0A00
 1818 00f3 00       		.space	1
 1819              	.LC15:
 1820 00f4 52454144 		.ascii	"READY\000"
 1820      5900
 1821 00fa 0000     		.space	2
 1822              	.LC16:
 1823 00fc 43555252 		.ascii	"CURRENT\000"
 1823      454E5400 
 1824              	.LC17:
 1825 0104 57545354 		.ascii	"WTSTART\000"
 1825      41525400 
 1826              	.LC18:
ARM GAS  /tmp/cc0Dkj7G.s 			page 34


 1827 010c 53555350 		.ascii	"SUSPENDED\000"
 1827      454E4445 
 1827      4400
 1828 0116 0000     		.space	2
 1829              	.LC19:
 1830 0118 51554555 		.ascii	"QUEUED\000"
 1830      454400
 1831 011f 00       		.space	1
 1832              	.LC20:
 1833 0120 57545345 		.ascii	"WTSEM\000"
 1833      4D00
 1834 0126 0000     		.space	2
 1835              	.LC21:
 1836 0128 57544D54 		.ascii	"WTMTX\000"
 1836      5800
 1837 012e 0000     		.space	2
 1838              	.LC22:
 1839 0130 5754434F 		.ascii	"WTCOND\000"
 1839      4E4400
 1840 0137 00       		.space	1
 1841              	.LC23:
 1842 0138 534C4545 		.ascii	"SLEEPING\000"
 1842      50494E47 
 1842      00
 1843 0141 000000   		.space	3
 1844              	.LC24:
 1845 0144 57544558 		.ascii	"WTEXIT\000"
 1845      495400
 1846 014b 00       		.space	1
 1847              	.LC25:
 1848 014c 57544F52 		.ascii	"WTOREVT\000"
 1848      45565400 
 1849              	.LC26:
 1850 0154 5754414E 		.ascii	"WTANDEVT\000"
 1850      44455654 
 1850      00
 1851 015d 000000   		.space	3
 1852              	.LC27:
 1853 0160 534E444D 		.ascii	"SNDMSGQ\000"
 1853      53475100 
 1854              	.LC28:
 1855 0168 534E444D 		.ascii	"SNDMSG\000"
 1855      534700
 1856 016f 00       		.space	1
 1857              	.LC29:
 1858 0170 57544D53 		.ascii	"WTMSG\000"
 1858      4700
 1859 0176 0000     		.space	2
 1860              	.LC30:
 1861 0178 46494E41 		.ascii	"FINAL\000"
 1861      4C00
 1862 017e 0000     		.space	2
 1863              	.LC31:
 1864 0180 6D656D00 		.ascii	"mem\000"
 1865              	.LC32:
 1866 0184 74687265 		.ascii	"threads\000"
 1866      61647300 
ARM GAS  /tmp/cc0Dkj7G.s 			page 35


 1867              	.LC33:
 1868 018c 74657374 		.ascii	"test\000"
 1868      00
 1869              		.section	.rodata.pwmcfg,"a",%progbits
 1870              		.align	2
 1871              		.set	.LANCHOR13,. + 0
 1872              		.type	pwmcfg, %object
 1873              		.size	pwmcfg, 52
 1874              	pwmcfg:
 1875 0000 A0860100 		.word	100000
 1876 0004 80000000 		.word	128
 1877 0008 00000000 		.word	0
 1878 000c 01000000 		.word	1
 1879 0010 00000000 		.word	0
 1880 0014 01000000 		.word	1
 1881 0018 00000000 		.word	0
 1882 001c 01000000 		.word	1
 1883 0020 00000000 		.word	0
 1884 0024 01000000 		.word	1
 1885 0028 00000000 		.word	0
 1886 002c 00000000 		.word	0
 1887 0030 00000000 		.word	0
 1888              		.section	.rodata.adcgrpcfg1,"a",%progbits
 1889              		.align	2
 1890              		.set	.LANCHOR6,. + 0
 1891              		.type	adcgrpcfg1, %object
 1892              		.size	adcgrpcfg1, 40
 1893              	adcgrpcfg1:
 1894 0000 00       		.byte	0
 1895 0001 00       		.space	1
 1896 0002 0200     		.short	2
 1897 0004 00000000 		.word	0
 1898 0008 00000000 		.word	adcerrorcallback
 1899 000c 00000000 		.word	0
 1900 0010 00000040 		.word	1073741824
 1901 0014 38000000 		.word	56
 1902 0018 00000000 		.word	0
 1903 001c 00001000 		.word	1048576
 1904 0020 00000000 		.word	0
 1905 0024 0B000000 		.word	11
 1906              		.section	.bss.ybuf.7896,"aw",%nobits
 1907              		.align	2
 1908              		.set	.LANCHOR1,. + 0
 1909              		.type	ybuf.7896, %object
 1910              		.size	ybuf.7896, 4
 1911              	ybuf.7896:
 1912 0000 00000000 		.space	4
 1913              		.section	.rodata.shell_cfg1,"a",%progbits
 1914              		.align	2
 1915              		.set	.LANCHOR16,. + 0
 1916              		.type	shell_cfg1, %object
 1917              		.size	shell_cfg1, 8
 1918              	shell_cfg1:
 1919 0000 00000000 		.word	SDU1
 1920 0004 00000000 		.word	commands
 1921              		.section	.bss.rb_i,"aw",%nobits
 1922              		.align	2
ARM GAS  /tmp/cc0Dkj7G.s 			page 36


 1923              		.set	.LANCHOR3,. + 0
 1924              		.type	rb_i, %object
 1925              		.size	rb_i, 4
 1926              	rb_i:
 1927 0000 00000000 		.space	4
 1928              		.section	.rodata.states.7876,"a",%progbits
 1929              		.align	2
 1930              		.set	.LANCHOR2,. + 0
 1931              		.type	states.7876, %object
 1932              		.size	states.7876, 64
 1933              	states.7876:
 1934 0000 F4000000 		.word	.LC15
 1935 0004 FC000000 		.word	.LC16
 1936 0008 04010000 		.word	.LC17
 1937 000c 0C010000 		.word	.LC18
 1938 0010 18010000 		.word	.LC19
 1939 0014 20010000 		.word	.LC20
 1940 0018 28010000 		.word	.LC21
 1941 001c 30010000 		.word	.LC22
 1942 0020 38010000 		.word	.LC23
 1943 0024 44010000 		.word	.LC24
 1944 0028 4C010000 		.word	.LC25
 1945 002c 54010000 		.word	.LC26
 1946 0030 60010000 		.word	.LC27
 1947 0034 68010000 		.word	.LC28
 1948 0038 70010000 		.word	.LC29
 1949 003c 78010000 		.word	.LC30
 1950              		.text
 1951              	.Letext0:
 1952              		.file 6 "/usr/lib/gcc/arm-none-eabi/5.4.1/include/stddef.h"
 1953              		.file 7 "/usr/arm-none-eabi/include/machine/_default_types.h"
 1954              		.file 8 "/usr/arm-none-eabi/include/sys/_stdint.h"
 1955              		.file 9 "/home/selim/working/ChibiOS/os/rt/ports/ARMCMx/compilers/GCC/chtypes.h"
 1956              		.file 10 "/home/selim/working/ChibiOS/os/rt/include/chsystypes.h"
 1957              		.file 11 "/home/selim/working/ChibiOS/os/rt/include/chschd.h"
 1958              		.file 12 "/home/selim/working/ChibiOS/os/ext/CMSIS/ST/stm32f407xx.h"
 1959              		.file 13 "/home/selim/working/ChibiOS/os/rt/ports/ARMCMx/chcore.h"
 1960              		.file 14 "/home/selim/working/ChibiOS/os/rt/ports/ARMCMx/chcore_v7m.h"
 1961              		.file 15 "/home/selim/working/ChibiOS/os/hal/ports/STM32/LLD/TIMv1/stm32_tim.h"
 1962              		.file 16 "/home/selim/working/ChibiOS/os/rt/include/chtm.h"
 1963              		.file 17 "/home/selim/working/ChibiOS/os/rt/include/chsem.h"
 1964              		.file 18 "/home/selim/working/ChibiOS/os/rt/include/chmtx.h"
 1965              		.file 19 "/home/selim/working/ChibiOS/os/rt/include/chevents.h"
 1966              		.file 20 "/home/selim/working/ChibiOS/os/rt/include/chqueues.h"
 1967              		.file 21 "/home/selim/working/ChibiOS/os/rt/include/chstreams.h"
 1968              		.file 22 "/home/selim/working/ChibiOS/os/hal/ports/STM32/STM32F4xx/stm32_dma.h"
 1969              		.file 23 "/home/selim/working/ChibiOS/os/hal/ports/STM32/LLD/GPIOv2/pal_lld.h"
 1970              		.file 24 "/home/selim/working/ChibiOS/os/hal/include/adc.h"
 1971              		.file 25 "/home/selim/working/ChibiOS/os/hal/ports/STM32/STM32F4xx/adc_lld.h"
 1972              		.file 26 "/home/selim/working/ChibiOS/os/hal/include/pwm.h"
 1973              		.file 27 "/home/selim/working/ChibiOS/os/hal/ports/STM32/LLD/TIMv1/pwm_lld.h"
 1974              		.file 28 "/home/selim/working/ChibiOS/os/hal/include/serial.h"
 1975              		.file 29 "/home/selim/working/ChibiOS/os/hal/ports/STM32/LLD/USARTv1/serial_lld.h"
 1976              		.file 30 "/home/selim/working/ChibiOS/os/hal/include/spi.h"
 1977              		.file 31 "/home/selim/working/ChibiOS/os/hal/ports/STM32/LLD/SPIv1/spi_lld.h"
 1978              		.file 32 "/home/selim/working/ChibiOS/os/hal/include/usb.h"
 1979              		.file 33 "/home/selim/working/ChibiOS/os/hal/ports/STM32/LLD/OTGv1/usb_lld.h"
ARM GAS  /tmp/cc0Dkj7G.s 			page 37


 1980              		.file 34 "/home/selim/working/ChibiOS/os/hal/ports/STM32/LLD/OTGv1/stm32_otg.h"
 1981              		.file 35 "/home/selim/working/ChibiOS/os/hal/include/serial_usb.h"
 1982              		.file 36 "/usr/lib/gcc/arm-none-eabi/5.4.1/include/stdarg.h"
 1983              		.file 37 "<built-in>"
 1984              		.file 38 "/home/selim/working/ChibiOS/os/various/shell.h"
 1985              		.file 39 "/home/selim/working/ChibiOS/os/rt/ports/ARMCMx/chcore_timer.h"
 1986              		.file 40 "/home/selim/working/ChibiOS/os/rt/include/chsys.h"
 1987              		.file 41 "/home/selim/working/ChibiOS/os/rt/include/chvt.h"
 1988              		.file 42 "/home/selim/working/ChibiOS/os/ext/CMSIS/include/core_cm4.h"
 1989              		.file 43 "usbcfg.h"
 1990              		.file 44 "/home/selim/working/ChibiOS/os/various/devices_lib/accel/lis302dl.h"
 1991              		.file 45 "/home/selim/working/ChibiOS/os/rt/include/chdynamic.h"
 1992              		.file 46 "/home/selim/working/ChibiOS/os/rt/include/chregistry.h"
 1993              		.file 47 "/home/selim/working/ChibiOS/os/rt/include/chheap.h"
 1994              		.file 48 "/home/selim/working/ChibiOS/os/rt/include/chmemcore.h"
 1995              		.file 49 "/home/selim/working/ChibiOS/os/hal/include/hal.h"