ARM GAS  /tmp/ccZJB1xg.s 			page 1


   1              		.syntax unified
   2              		.cpu cortex-m4
   3              		.fpu softvfp
   4              		.eabi_attribute 20, 1
   5              		.eabi_attribute 21, 1
   6              		.eabi_attribute 23, 3
   7              		.eabi_attribute 24, 1
   8              		.eabi_attribute 25, 1
   9              		.eabi_attribute 26, 1
  10              		.eabi_attribute 30, 2
  11              		.eabi_attribute 34, 1
  12              		.eabi_attribute 18, 4
  13              		.thumb
  14              		.syntax unified
  15              		.file	"memstreams.c"
  16              		.text
  17              	.Ltext0:
  18              		.cfi_sections	.debug_frame
  19              		.section	.text.put,"ax",%progbits
  20              		.align	2
  21              		.p2align 4,,15
  22              		.thumb
  23              		.thumb_func
  24              		.type	put, %function
  25              	put:
  26              	.LFB260:
  27              		.file 1 "/home/selim/working/ChibiOS/os/hal/lib/streams/memstreams.c"
  28              		.loc 1 66 0
  29              		.cfi_startproc
  30              		@ args = 0, pretend = 0, frame = 0
  31              		@ frame_needed = 0, uses_anonymous_args = 0
  32              		@ link register save eliminated.
  33              	.LVL0:
  34              		.loc 1 69 0
  35 0000 C368     		ldr	r3, [r0, #12]
  36 0002 8268     		ldr	r2, [r0, #8]
  37 0004 9A42     		cmp	r2, r3
  38 0006 06D0     		beq	.L3
  39              		.loc 1 71 0
  40 0008 4268     		ldr	r2, [r0, #4]
  41 000a D154     		strb	r1, [r2, r3]
  42              		.loc 1 72 0
  43 000c C368     		ldr	r3, [r0, #12]
  44 000e 0133     		adds	r3, r3, #1
  45 0010 C360     		str	r3, [r0, #12]
  46              		.loc 1 73 0
  47 0012 0020     		movs	r0, #0
  48              	.LVL1:
  49 0014 7047     		bx	lr
  50              	.LVL2:
  51              	.L3:
  52              		.loc 1 70 0
  53 0016 6FF00100 		mvn	r0, #1
  54              	.LVL3:
  55              		.loc 1 74 0
  56 001a 7047     		bx	lr
  57              		.cfi_endproc
ARM GAS  /tmp/ccZJB1xg.s 			page 2


  58              	.LFE260:
  59              		.size	put, .-put
  60              		.section	.text.get,"ax",%progbits
  61              		.align	2
  62              		.p2align 4,,15
  63              		.thumb
  64              		.thumb_func
  65              		.type	get, %function
  66              	get:
  67              	.LFB261:
  68              		.loc 1 76 0
  69              		.cfi_startproc
  70              		@ args = 0, pretend = 0, frame = 0
  71              		@ frame_needed = 0, uses_anonymous_args = 0
  72              		@ link register save eliminated.
  73              	.LVL4:
  74              		.loc 1 80 0
  75 0000 0369     		ldr	r3, [r0, #16]
  76 0002 C168     		ldr	r1, [r0, #12]
  77 0004 9942     		cmp	r1, r3
  78              		.loc 1 76 0
  79 0006 0246     		mov	r2, r0
  80              	.LVL5:
  81              		.loc 1 80 0
  82 0008 04D0     		beq	.L7
  83              		.loc 1 82 0
  84 000a 4168     		ldr	r1, [r0, #4]
  85 000c C85C     		ldrb	r0, [r1, r3]	@ zero_extendqisi2
  86              	.LVL6:
  87              		.loc 1 83 0
  88 000e 0133     		adds	r3, r3, #1
  89 0010 1361     		str	r3, [r2, #16]
  90              		.loc 1 84 0
  91 0012 7047     		bx	lr
  92              	.LVL7:
  93              	.L7:
  94              		.loc 1 81 0
  95 0014 6FF00100 		mvn	r0, #1
  96              	.LVL8:
  97              		.loc 1 85 0
  98 0018 7047     		bx	lr
  99              		.cfi_endproc
 100              	.LFE261:
 101              		.size	get, .-get
 102 001a 00BF     		.section	.text.reads,"ax",%progbits
 103              		.align	2
 104              		.p2align 4,,15
 105              		.thumb
 106              		.thumb_func
 107              		.type	reads, %function
 108              	reads:
 109              	.LFB259:
 110              		.loc 1 56 0
 111              		.cfi_startproc
 112              		@ args = 0, pretend = 0, frame = 0
 113              		@ frame_needed = 0, uses_anonymous_args = 0
 114              	.LVL9:
ARM GAS  /tmp/ccZJB1xg.s 			page 3


 115 0000 70B5     		push	{r4, r5, r6, lr}
 116              		.cfi_def_cfa_offset 16
 117              		.cfi_offset 4, -16
 118              		.cfi_offset 5, -12
 119              		.cfi_offset 6, -8
 120              		.cfi_offset 14, -4
 121              		.loc 1 59 0
 122 0002 0369     		ldr	r3, [r0, #16]
 123 0004 C468     		ldr	r4, [r0, #12]
 124              		.loc 1 61 0
 125 0006 4668     		ldr	r6, [r0, #4]
 126              		.loc 1 59 0
 127 0008 E41A     		subs	r4, r4, r3
 128 000a 9442     		cmp	r4, r2
 129 000c 28BF     		it	cs
 130 000e 1446     		movcs	r4, r2
 131              		.loc 1 56 0
 132 0010 0546     		mov	r5, r0
 133              	.LVL10:
 134              		.loc 1 61 0
 135 0012 2246     		mov	r2, r4
 136 0014 0846     		mov	r0, r1
 137              	.LVL11:
 138 0016 F118     		adds	r1, r6, r3
 139              	.LVL12:
 140 0018 FFF7FEFF 		bl	memcpy
 141              	.LVL13:
 142              		.loc 1 62 0
 143 001c 2B69     		ldr	r3, [r5, #16]
 144 001e 2344     		add	r3, r3, r4
 145 0020 2B61     		str	r3, [r5, #16]
 146              		.loc 1 64 0
 147 0022 2046     		mov	r0, r4
 148 0024 70BD     		pop	{r4, r5, r6, pc}
 149              		.cfi_endproc
 150              	.LFE259:
 151              		.size	reads, .-reads
 152 0026 00BF     		.section	.text.writes,"ax",%progbits
 153              		.align	2
 154              		.p2align 4,,15
 155              		.thumb
 156              		.thumb_func
 157              		.type	writes, %function
 158              	writes:
 159              	.LFB258:
 160              		.loc 1 46 0
 161              		.cfi_startproc
 162              		@ args = 0, pretend = 0, frame = 0
 163              		@ frame_needed = 0, uses_anonymous_args = 0
 164              	.LVL14:
 165 0000 38B5     		push	{r3, r4, r5, lr}
 166              		.cfi_def_cfa_offset 16
 167              		.cfi_offset 3, -16
 168              		.cfi_offset 4, -12
 169              		.cfi_offset 5, -8
 170              		.cfi_offset 14, -4
 171              		.loc 1 49 0
ARM GAS  /tmp/ccZJB1xg.s 			page 4


 172 0002 C368     		ldr	r3, [r0, #12]
 173 0004 8468     		ldr	r4, [r0, #8]
 174 0006 E41A     		subs	r4, r4, r3
 175              		.loc 1 46 0
 176 0008 0546     		mov	r5, r0
 177              	.LVL15:
 178 000a 9442     		cmp	r4, r2
 179              		.loc 1 51 0
 180 000c 4068     		ldr	r0, [r0, #4]
 181              	.LVL16:
 182 000e 28BF     		it	cs
 183 0010 1446     		movcs	r4, r2
 184              	.LVL17:
 185 0012 1844     		add	r0, r0, r3
 186 0014 2246     		mov	r2, r4
 187 0016 FFF7FEFF 		bl	memcpy
 188              	.LVL18:
 189              		.loc 1 52 0
 190 001a EB68     		ldr	r3, [r5, #12]
 191 001c 2344     		add	r3, r3, r4
 192 001e EB60     		str	r3, [r5, #12]
 193              		.loc 1 54 0
 194 0020 2046     		mov	r0, r4
 195 0022 38BD     		pop	{r3, r4, r5, pc}
 196              		.cfi_endproc
 197              	.LFE258:
 198              		.size	writes, .-writes
 199              		.section	.text.msObjectInit,"ax",%progbits
 200              		.align	2
 201              		.p2align 4,,15
 202              		.global	msObjectInit
 203              		.thumb
 204              		.thumb_func
 205              		.type	msObjectInit, %function
 206              	msObjectInit:
 207              	.LFB262:
 208              		.loc 1 104 0
 209              		.cfi_startproc
 210              		@ args = 0, pretend = 0, frame = 0
 211              		@ frame_needed = 0, uses_anonymous_args = 0
 212              		@ link register save eliminated.
 213              	.LVL19:
 214 0000 10B4     		push	{r4}
 215              		.cfi_def_cfa_offset 4
 216              		.cfi_offset 4, -4
 217              		.loc 1 107 0
 218 0002 4160     		str	r1, [r0, #4]
 219              		.loc 1 106 0
 220 0004 034C     		ldr	r4, .L14
 221 0006 0460     		str	r4, [r0]
 222              		.loc 1 110 0
 223 0008 0021     		movs	r1, #0
 224              	.LVL20:
 225              		.loc 1 108 0
 226 000a 8260     		str	r2, [r0, #8]
 227              		.loc 1 109 0
 228 000c C360     		str	r3, [r0, #12]
ARM GAS  /tmp/ccZJB1xg.s 			page 5


 229              		.loc 1 110 0
 230 000e 0161     		str	r1, [r0, #16]
 231              		.loc 1 111 0
 232 0010 10BC     		pop	{r4}
 233              		.cfi_restore 4
 234              		.cfi_def_cfa_offset 0
 235 0012 7047     		bx	lr
 236              	.L15:
 237              		.align	2
 238              	.L14:
 239 0014 00000000 		.word	.LANCHOR0
 240              		.cfi_endproc
 241              	.LFE262:
 242              		.size	msObjectInit, .-msObjectInit
 243              		.section	.rodata.vmt,"a",%progbits
 244              		.align	2
 245              		.set	.LANCHOR0,. + 0
 246              		.type	vmt, %object
 247              		.size	vmt, 16
 248              	vmt:
 249 0000 00000000 		.word	writes
 250 0004 00000000 		.word	reads
 251 0008 00000000 		.word	put
 252 000c 00000000 		.word	get
 253              		.text
 254              	.Letext0:
 255              		.file 2 "/usr/lib/gcc/arm-none-eabi/5.4.1/include/stddef.h"
 256              		.file 3 "/usr/arm-none-eabi/include/machine/_default_types.h"
 257              		.file 4 "/usr/arm-none-eabi/include/sys/_stdint.h"
 258              		.file 5 "/home/selim/working/ChibiOS/os/rt/ports/ARMCMx/compilers/GCC/chtypes.h"
 259              		.file 6 "/home/selim/working/ChibiOS/os/rt/include/chsystypes.h"
 260              		.file 7 "/home/selim/working/ChibiOS/os/rt/include/chschd.h"
 261              		.file 8 "/home/selim/working/ChibiOS/os/rt/ports/ARMCMx/chcore.h"
 262              		.file 9 "/home/selim/working/ChibiOS/os/rt/ports/ARMCMx/chcore_v7m.h"
 263              		.file 10 "/home/selim/working/ChibiOS/os/rt/include/chtm.h"
 264              		.file 11 "/home/selim/working/ChibiOS/os/rt/include/chsem.h"
 265              		.file 12 "/home/selim/working/ChibiOS/os/rt/include/chmtx.h"
 266              		.file 13 "/home/selim/working/ChibiOS/os/hal/lib/streams/memstreams.h"
 267              		.file 14 "/home/selim/working/ChibiOS/os/ext/CMSIS/include/core_cm4.h"