ARM GAS  /tmp/ccojrVRM.s 			page 1


   1              		.syntax unified
   2              		.cpu cortex-m4
   3              		.fpu softvfp
   4              		.eabi_attribute 20, 1
   5              		.eabi_attribute 21, 1
   6              		.eabi_attribute 23, 3
   7              		.eabi_attribute 24, 1
   8              		.eabi_attribute 25, 1
   9              		.eabi_attribute 26, 1
  10              		.eabi_attribute 30, 2
  11              		.eabi_attribute 34, 1
  12              		.eabi_attribute 18, 4
  13              		.thumb
  14              		.syntax unified
  15              		.file	"serial_lld.c"
  16              		.text
  17              	.Ltext0:
  18              		.cfi_sections	.debug_frame
  19              		.section	.text.notify2,"ax",%progbits
  20              		.align	2
  21              		.p2align 4,,15
  22              		.thumb
  23              		.thumb_func
  24              		.type	notify2, %function
  25              	notify2:
  26              	.LFB262:
  27              		.file 1 "/home/selim/working/ChibiOS/os/hal/ports/STM32/LLD/USARTv1/serial_lld.c"
  28              		.loc 1 216 0
  29              		.cfi_startproc
  30              		@ args = 0, pretend = 0, frame = 0
  31              		@ frame_needed = 0, uses_anonymous_args = 0
  32              		@ link register save eliminated.
  33              	.LVL0:
  34              		.loc 1 219 0
  35 0000 024A     		ldr	r2, .L2
  36 0002 D368     		ldr	r3, [r2, #12]
  37 0004 43F08003 		orr	r3, r3, #128
  38 0008 D360     		str	r3, [r2, #12]
  39 000a 7047     		bx	lr
  40              	.L3:
  41              		.align	2
  42              	.L2:
  43 000c 00440040 		.word	1073759232
  44              		.cfi_endproc
  45              	.LFE262:
  46              		.size	notify2, .-notify2
  47              		.section	.text.VectorD8,"ax",%progbits
  48              		.align	2
  49              		.p2align 4,,15
  50              		.global	VectorD8
  51              		.thumb
  52              		.thumb_func
  53              		.type	VectorD8, %function
  54              	VectorD8:
  55              	.LFB263:
  56              		.loc 1 287 0
  57              		.cfi_startproc
ARM GAS  /tmp/ccojrVRM.s 			page 2


  58              		@ args = 0, pretend = 0, frame = 0
  59              		@ frame_needed = 0, uses_anonymous_args = 0
  60              	.LVL1:
  61 0000 F8B5     		push	{r3, r4, r5, r6, r7, lr}
  62              		.cfi_def_cfa_offset 24
  63              		.cfi_offset 3, -24
  64              		.cfi_offset 4, -20
  65              		.cfi_offset 5, -16
  66              		.cfi_offset 6, -12
  67              		.cfi_offset 7, -8
  68              		.cfi_offset 14, -4
  69              	.LBB232:
  70              	.LBB233:
  71              		.loc 1 154 0
  72 0002 434E     		ldr	r6, .L59
  73 0004 756F     		ldr	r5, [r6, #116]
  74              	.LVL2:
  75              		.loc 1 155 0
  76 0006 EF68     		ldr	r7, [r5, #12]
  77              	.LVL3:
  78              		.loc 1 156 0
  79 0008 2B68     		ldr	r3, [r5]
  80              		.loc 1 159 0
  81 000a DA05     		lsls	r2, r3, #23
  82              		.loc 1 156 0
  83 000c 9CB2     		uxth	r4, r3
  84              	.LVL4:
  85              		.loc 1 159 0
  86 000e 4FD4     		bmi	.L54
  87              	.L5:
  88              	.LVL5:
  89              	.LBB234:
  90              	.LBB235:
  91              	.LBB236:
  92              	.LBB237:
  93              	.LBB238:
  94              	.LBB239:
  95              		.file 2 "/home/selim/working/ChibiOS/os/ext/CMSIS/include/core_cmFunc.h"
  96              		.loc 2 546 0
  97 0010 2023     		movs	r3, #32
  98              		.syntax unified
  99              	@ 546 "/home/selim/working/ChibiOS/os/ext/CMSIS/include/core_cmFunc.h" 1
 100 0012 83F31188 		MSR basepri, r3
 101              	@ 0 "" 2
 102              	.LVL6:
 103              		.thumb
 104              		.syntax unified
 105              	.LBE239:
 106              	.LBE238:
 107              	.LBE237:
 108              	.LBE236:
 109              	.LBE235:
 110              	.LBE234:
 111              		.loc 1 168 0
 112 0016 14F02F0F 		tst	r4, #47
 113 001a 08D1     		bne	.L13
 114 001c 29E0     		b	.L6
ARM GAS  /tmp/ccojrVRM.s 			page 3


 115              	.L7:
 116              	.LBB240:
 117              		.loc 1 176 0
 118 001e A006     		lsls	r0, r4, #26
 119              		.loc 1 175 0
 120 0020 6968     		ldr	r1, [r5, #4]
 121              	.LVL7:
 122              		.loc 1 176 0
 123 0022 1DD4     		bmi	.L55
 124              	.L12:
 125              		.loc 1 178 0
 126 0024 2C68     		ldr	r4, [r5]
 127              	.LVL8:
 128 0026 A4B2     		uxth	r4, r4
 129              	.LVL9:
 130              	.LBE240:
 131              		.loc 1 168 0
 132 0028 14F02F0F 		tst	r4, #47
 133 002c 21D0     		beq	.L6
 134              	.LVL10:
 135              	.L13:
 136              	.LBB245:
 137              		.loc 1 173 0
 138 002e 2307     		lsls	r3, r4, #28
 139 0030 F5D0     		beq	.L7
 140              	.LVL11:
 141              	.LBB241:
 142              	.LBB242:
 143              		.loc 1 138 0
 144 0032 14F0080F 		tst	r4, #8
 145 0036 0CBF     		ite	eq
 146 0038 0021     		moveq	r1, #0
 147 003a 8021     		movne	r1, #128
 148              	.LVL12:
 149              		.loc 1 139 0
 150 003c E007     		lsls	r0, r4, #31
 151              		.loc 1 140 0
 152 003e 48BF     		it	mi
 153 0040 41F02001 		orrmi	r1, r1, #32
 154              	.LVL13:
 155              		.loc 1 141 0
 156 0044 A207     		lsls	r2, r4, #30
 157              		.loc 1 142 0
 158 0046 48BF     		it	mi
 159 0048 41F04001 		orrmi	r1, r1, #64
 160              	.LVL14:
 161              		.loc 1 143 0
 162 004c 6307     		lsls	r3, r4, #29
 163              		.loc 1 144 0
 164 004e 48BF     		it	mi
 165 0050 41F48071 		orrmi	r1, r1, #256
 166              	.LVL15:
 167              	.LBB243:
 168              	.LBB244:
 169              		.file 3 "/home/selim/working/ChibiOS/os/hal/osal/rt/osal.h"
 170              		.loc 3 798 0
 171 0054 2F48     		ldr	r0, .L59+4
ARM GAS  /tmp/ccojrVRM.s 			page 4


 172 0056 FFF7FEFF 		bl	chEvtBroadcastFlagsI
 173              	.LVL16:
 174              	.LBE244:
 175              	.LBE243:
 176              	.LBE242:
 177              	.LBE241:
 178              		.loc 1 176 0
 179 005a A006     		lsls	r0, r4, #26
 180              		.loc 1 175 0
 181 005c 6968     		ldr	r1, [r5, #4]
 182              	.LVL17:
 183              		.loc 1 176 0
 184 005e E1D5     		bpl	.L12
 185              	.LVL18:
 186              	.L55:
 187              		.loc 1 177 0
 188 0060 C9B2     		uxtb	r1, r1
 189 0062 2B48     		ldr	r0, .L59
 190 0064 FFF7FEFF 		bl	sdIncomingDataI
 191              	.LVL19:
 192              		.loc 1 178 0
 193 0068 2C68     		ldr	r4, [r5]
 194              	.LVL20:
 195 006a A4B2     		uxth	r4, r4
 196              	.LVL21:
 197              	.LBE245:
 198              		.loc 1 168 0
 199 006c 14F02F0F 		tst	r4, #47
 200 0070 DDD1     		bne	.L13
 201              	.L6:
 202              	.LVL22:
 203              	.LBB246:
 204              	.LBB247:
 205              	.LBB248:
 206              	.LBB249:
 207              	.LBB250:
 208              	.LBB251:
 209              		.loc 2 546 0
 210 0072 0023     		movs	r3, #0
 211              		.syntax unified
 212              	@ 546 "/home/selim/working/ChibiOS/os/ext/CMSIS/include/core_cmFunc.h" 1
 213 0074 83F31188 		MSR basepri, r3
 214              	@ 0 "" 2
 215              	.LVL23:
 216              		.thumb
 217              		.syntax unified
 218              	.LBE251:
 219              	.LBE250:
 220              	.LBE249:
 221              	.LBE248:
 222              	.LBE247:
 223              	.LBE246:
 224              		.loc 1 183 0
 225 0078 3906     		lsls	r1, r7, #24
 226 007a 01D5     		bpl	.L14
 227 007c 2206     		lsls	r2, r4, #24
 228 007e 26D4     		bmi	.L56
ARM GAS  /tmp/ccojrVRM.s 			page 5


 229              	.L14:
 230              		.loc 1 197 0
 231 0080 6306     		lsls	r3, r4, #25
 232 0082 11D5     		bpl	.L17
 233              	.LVL24:
 234              	.LBB252:
 235              	.LBB253:
 236              	.LBB254:
 237              	.LBB255:
 238              	.LBB256:
 239              	.LBB257:
 240              		.loc 2 546 0
 241 0084 2023     		movs	r3, #32
 242              		.syntax unified
 243              	@ 546 "/home/selim/working/ChibiOS/os/ext/CMSIS/include/core_cmFunc.h" 1
 244 0086 83F31188 		MSR basepri, r3
 245              	@ 0 "" 2
 246              	.LVL25:
 247              		.thumb
 248              		.syntax unified
 249              	.LBE257:
 250              	.LBE256:
 251              	.LBE255:
 252              	.LBE254:
 253              	.LBE253:
 254              	.LBE252:
 255              	.LBB258:
 256              	.LBB259:
 257              		.file 4 "/home/selim/working/ChibiOS/os/rt/include/chqueues.h"
 258              		.loc 4 390 0
 259 008a 726C     		ldr	r2, [r6, #68]
 260 008c B36C     		ldr	r3, [r6, #72]
 261 008e 2048     		ldr	r0, .L59
 262 0090 9A42     		cmp	r2, r3
 263 0092 29D0     		beq	.L57
 264              	.LVL26:
 265              	.L18:
 266              	.LBE259:
 267              	.LBE258:
 268              		.loc 1 201 0
 269 0094 4FF6BF73 		movw	r3, #65471
 270 0098 3B40     		ands	r3, r3, r7
 271              		.loc 1 202 0
 272 009a 6FF04002 		mvn	r2, #64
 273              		.loc 1 201 0
 274 009e EB60     		str	r3, [r5, #12]
 275              	.LBB261:
 276              	.LBB262:
 277              	.LBB263:
 278              	.LBB264:
 279              	.LBB265:
 280              	.LBB266:
 281              		.loc 2 546 0
 282 00a0 0023     		movs	r3, #0
 283              	.LBE266:
 284              	.LBE265:
 285              	.LBE264:
ARM GAS  /tmp/ccojrVRM.s 			page 6


 286              	.LBE263:
 287              	.LBE262:
 288              	.LBE261:
 289              		.loc 1 202 0
 290 00a2 2A60     		str	r2, [r5]
 291              	.LVL27:
 292              	.LBB272:
 293              	.LBB271:
 294              	.LBB270:
 295              	.LBB269:
 296              	.LBB268:
 297              	.LBB267:
 298              		.loc 2 546 0
 299              		.syntax unified
 300              	@ 546 "/home/selim/working/ChibiOS/os/ext/CMSIS/include/core_cmFunc.h" 1
 301 00a4 83F31188 		MSR basepri, r3
 302              	@ 0 "" 2
 303              	.LVL28:
 304              		.thumb
 305              		.syntax unified
 306              	.L17:
 307              	.LBE267:
 308              	.LBE268:
 309              	.LBE269:
 310              	.LBE270:
 311              	.LBE271:
 312              	.LBE272:
 313              	.LBE233:
 314              	.LBE232:
 315              		.loc 1 294 0
 316 00a8 BDE8F840 		pop	{r3, r4, r5, r6, r7, lr}
 317              		.cfi_remember_state
 318              		.cfi_restore 14
 319              		.cfi_restore 7
 320              		.cfi_restore 6
 321              		.cfi_restore 5
 322              		.cfi_restore 4
 323              		.cfi_restore 3
 324              		.cfi_def_cfa_offset 0
 325              	.LVL29:
 326              		.loc 1 293 0
 327 00ac FFF7FEBF 		b	_port_irq_epilogue
 328              	.LVL30:
 329              	.L54:
 330              		.cfi_restore_state
 331              	.LBB307:
 332              	.LBB306:
 333              	.LBB273:
 334              	.LBB274:
 335              	.LBB275:
 336              	.LBB276:
 337              	.LBB277:
 338              	.LBB278:
 339              		.loc 2 546 0
 340 00b0 2023     		movs	r3, #32
 341              		.syntax unified
 342              	@ 546 "/home/selim/working/ChibiOS/os/ext/CMSIS/include/core_cmFunc.h" 1
ARM GAS  /tmp/ccojrVRM.s 			page 7


 343 00b2 83F31188 		MSR basepri, r3
 344              	@ 0 "" 2
 345              	.LVL31:
 346              		.thumb
 347              		.syntax unified
 348              	.LBE278:
 349              	.LBE277:
 350              	.LBE276:
 351              	.LBE275:
 352              	.LBE274:
 353              	.LBE273:
 354              	.LBB279:
 355              	.LBB280:
 356              		.loc 3 798 0
 357 00b6 4FF40071 		mov	r1, #512
 358 00ba 301D     		adds	r0, r6, #4
 359 00bc FFF7FEFF 		bl	chEvtBroadcastFlagsI
 360              	.LVL32:
 361              	.LBE280:
 362              	.LBE279:
 363              		.loc 1 162 0
 364 00c0 6FF48073 		mvn	r3, #256
 365 00c4 2B60     		str	r3, [r5]
 366              	.LVL33:
 367              	.LBB281:
 368              	.LBB282:
 369              	.LBB283:
 370              	.LBB284:
 371              	.LBB285:
 372              	.LBB286:
 373              		.loc 2 546 0
 374 00c6 0023     		movs	r3, #0
 375              		.syntax unified
 376              	@ 546 "/home/selim/working/ChibiOS/os/ext/CMSIS/include/core_cmFunc.h" 1
 377 00c8 83F31188 		MSR basepri, r3
 378              	@ 0 "" 2
 379              	.LVL34:
 380              		.thumb
 381              		.syntax unified
 382 00cc A0E7     		b	.L5
 383              	.L56:
 384              	.LVL35:
 385              	.LBE286:
 386              	.LBE285:
 387              	.LBE284:
 388              	.LBE283:
 389              	.LBE282:
 390              	.LBE281:
 391              	.LBB287:
 392              	.LBB288:
 393              	.LBB289:
 394              	.LBB290:
 395              	.LBB291:
 396              	.LBB292:
 397              	.LBB293:
 398 00ce 2023     		movs	r3, #32
 399              		.syntax unified
ARM GAS  /tmp/ccojrVRM.s 			page 8


 400              	@ 546 "/home/selim/working/ChibiOS/os/ext/CMSIS/include/core_cmFunc.h" 1
 401 00d0 83F31188 		MSR basepri, r3
 402              	@ 0 "" 2
 403              	.LVL36:
 404              		.thumb
 405              		.syntax unified
 406              	.LBE293:
 407              	.LBE292:
 408              	.LBE291:
 409              	.LBE290:
 410              	.LBE289:
 411              	.LBE288:
 412              		.loc 1 186 0
 413 00d4 1048     		ldr	r0, .L59+8
 414 00d6 FFF7FEFF 		bl	chOQGetI
 415              	.LVL37:
 416              		.loc 1 187 0
 417 00da 0028     		cmp	r0, #0
 418 00dc 0CDB     		blt	.L58
 419              		.loc 1 192 0
 420 00de 6860     		str	r0, [r5, #4]
 421              	.LVL38:
 422              	.L16:
 423              	.LBB294:
 424              	.LBB295:
 425              	.LBB296:
 426              	.LBB297:
 427              	.LBB298:
 428              	.LBB299:
 429              		.loc 2 546 0
 430 00e0 0023     		movs	r3, #0
 431              		.syntax unified
 432              	@ 546 "/home/selim/working/ChibiOS/os/ext/CMSIS/include/core_cmFunc.h" 1
 433 00e2 83F31188 		MSR basepri, r3
 434              	@ 0 "" 2
 435              	.LVL39:
 436              		.thumb
 437              		.syntax unified
 438 00e6 CBE7     		b	.L14
 439              	.LVL40:
 440              	.L57:
 441              	.LBE299:
 442              	.LBE298:
 443              	.LBE297:
 444              	.LBE296:
 445              	.LBE295:
 446              	.LBE294:
 447              	.LBE287:
 448              	.LBB302:
 449              	.LBB260:
 450              		.loc 4 390 0
 451 00e8 836B     		ldr	r3, [r0, #56]
 452 00ea 002B     		cmp	r3, #0
 453 00ec D2D0     		beq	.L18
 454              	.LVL41:
 455              	.LBE260:
 456              	.LBE302:
ARM GAS  /tmp/ccojrVRM.s 			page 9


 457              	.LBB303:
 458              	.LBB304:
 459              		.loc 3 798 0
 460 00ee 0430     		adds	r0, r0, #4
 461 00f0 1021     		movs	r1, #16
 462 00f2 FFF7FEFF 		bl	chEvtBroadcastFlagsI
 463              	.LVL42:
 464 00f6 CDE7     		b	.L18
 465              	.LVL43:
 466              	.L58:
 467              	.LBE304:
 468              	.LBE303:
 469              	.LBB305:
 470              	.LBB300:
 471              	.LBB301:
 472 00f8 0821     		movs	r1, #8
 473 00fa 0648     		ldr	r0, .L59+4
 474              	.LVL44:
 475 00fc FFF7FEFF 		bl	chEvtBroadcastFlagsI
 476              	.LVL45:
 477              	.LBE301:
 478              	.LBE300:
 479              		.loc 1 189 0
 480 0100 4FF63F73 		movw	r3, #65343
 481 0104 3B40     		ands	r3, r3, r7
 482 0106 43F04003 		orr	r3, r3, #64
 483 010a EB60     		str	r3, [r5, #12]
 484 010c E8E7     		b	.L16
 485              	.L60:
 486 010e 00BF     		.align	2
 487              	.L59:
 488 0110 00000000 		.word	.LANCHOR0
 489 0114 04000000 		.word	.LANCHOR0+4
 490 0118 30000000 		.word	.LANCHOR0+48
 491              	.LBE305:
 492              	.LBE306:
 493              	.LBE307:
 494              		.cfi_endproc
 495              	.LFE263:
 496              		.size	VectorD8, .-VectorD8
 497              		.section	.text.sd_lld_init,"ax",%progbits
 498              		.align	2
 499              		.p2align 4,,15
 500              		.global	sd_lld_init
 501              		.thumb
 502              		.thumb_func
 503              		.type	sd_lld_init, %function
 504              	sd_lld_init:
 505              	.LFB264:
 506              		.loc 1 382 0
 507              		.cfi_startproc
 508              		@ args = 0, pretend = 0, frame = 0
 509              		@ frame_needed = 0, uses_anonymous_args = 0
 510 0000 10B5     		push	{r4, lr}
 511              		.cfi_def_cfa_offset 8
 512              		.cfi_offset 4, -8
 513              		.cfi_offset 14, -4
ARM GAS  /tmp/ccojrVRM.s 			page 10


 514              		.loc 1 390 0
 515 0002 044C     		ldr	r4, .L63
 516 0004 044A     		ldr	r2, .L63+4
 517 0006 2046     		mov	r0, r4
 518 0008 0021     		movs	r1, #0
 519 000a FFF7FEFF 		bl	sdObjectInit
 520              	.LVL46:
 521              		.loc 1 391 0
 522 000e 034B     		ldr	r3, .L63+8
 523 0010 6367     		str	r3, [r4, #116]
 524 0012 10BD     		pop	{r4, pc}
 525              	.L64:
 526              		.align	2
 527              	.L63:
 528 0014 00000000 		.word	.LANCHOR0
 529 0018 00000000 		.word	notify2
 530 001c 00440040 		.word	1073759232
 531              		.cfi_endproc
 532              	.LFE264:
 533              		.size	sd_lld_init, .-sd_lld_init
 534              		.section	.text.sd_lld_start,"ax",%progbits
 535              		.align	2
 536              		.p2align 4,,15
 537              		.global	sd_lld_start
 538              		.thumb
 539              		.thumb_func
 540              		.type	sd_lld_start, %function
 541              	sd_lld_start:
 542              	.LFB265:
 543              		.loc 1 425 0
 544              		.cfi_startproc
 545              		@ args = 0, pretend = 0, frame = 0
 546              		@ frame_needed = 0, uses_anonymous_args = 0
 547              	.LVL47:
 548 0000 38B5     		push	{r3, r4, r5, lr}
 549              		.cfi_def_cfa_offset 16
 550              		.cfi_offset 3, -16
 551              		.cfi_offset 4, -12
 552              		.cfi_offset 5, -8
 553              		.cfi_offset 14, -4
 554              		.loc 1 428 0
 555 0002 1F4C     		ldr	r4, .L73
 556              		.loc 1 430 0
 557 0004 037A     		ldrb	r3, [r0, #8]	@ zero_extendqisi2
 558              		.loc 1 428 0
 559 0006 0029     		cmp	r1, #0
 560 0008 18BF     		it	ne
 561 000a 0C46     		movne	r4, r1
 562              	.LVL48:
 563              		.loc 1 430 0
 564 000c 012B     		cmp	r3, #1
 565              		.loc 1 425 0
 566 000e 0546     		mov	r5, r0
 567              		.loc 1 430 0
 568 0010 22D0     		beq	.L72
 569              	.LVL49:
 570              	.L67:
ARM GAS  /tmp/ccojrVRM.s 			page 11


 571 0012 6B6F     		ldr	r3, [r5, #116]
 572              	.LVL50:
 573              	.LBB308:
 574              	.LBB309:
 575              		.loc 1 96 0
 576 0014 1B4A     		ldr	r2, .L73+4
 577 0016 9342     		cmp	r3, r2
 578 0018 2BD0     		beq	.L68
 579 001a 02F58062 		add	r2, r2, #1024
 580 001e 9342     		cmp	r3, r2
 581 0020 27D0     		beq	.L68
 582              		.loc 1 102 0
 583 0022 2168     		ldr	r1, [r4]
 584 0024 184A     		ldr	r2, .L73+8
 585 0026 B2FBF1F2 		udiv	r2, r2, r1
 586 002a 9A60     		str	r2, [r3, #8]
 587              	.L70:
 588              		.loc 1 108 0
 589 002c A288     		ldrh	r2, [r4, #4]
 590              		.loc 1 105 0
 591 002e E088     		ldrh	r0, [r4, #6]
 592              		.loc 1 106 0
 593 0030 2189     		ldrh	r1, [r4, #8]
 594              		.loc 1 108 0
 595 0032 42F40452 		orr	r2, r2, #8448
 596              		.loc 1 105 0
 597 0036 40F04000 		orr	r0, r0, #64
 598              		.loc 1 108 0
 599 003a 42F02C02 		orr	r2, r2, #44
 600              		.loc 1 106 0
 601 003e 41F00101 		orr	r1, r1, #1
 602              		.loc 1 108 0
 603 0042 92B2     		uxth	r2, r2
 604              		.loc 1 105 0
 605 0044 80B2     		uxth	r0, r0
 606              		.loc 1 106 0
 607 0046 89B2     		uxth	r1, r1
 608              		.loc 1 110 0
 609 0048 0024     		movs	r4, #0
 610              	.LVL51:
 611              		.loc 1 105 0
 612 004a 1861     		str	r0, [r3, #16]
 613              		.loc 1 106 0
 614 004c 5961     		str	r1, [r3, #20]
 615              		.loc 1 107 0
 616 004e DA60     		str	r2, [r3, #12]
 617              		.loc 1 110 0
 618 0050 1C60     		str	r4, [r3]
 619              		.loc 1 111 0
 620 0052 1A68     		ldr	r2, [r3]
 621              		.loc 1 112 0
 622 0054 5B68     		ldr	r3, [r3, #4]
 623              	.LVL52:
 624 0056 38BD     		pop	{r3, r4, r5, pc}
 625              	.LVL53:
 626              	.L72:
 627              	.LBE309:
ARM GAS  /tmp/ccojrVRM.s 			page 12


 628              	.LBE308:
 629              		.loc 1 438 0
 630 0058 0C4B     		ldr	r3, .L73+12
 631 005a 9842     		cmp	r0, r3
 632 005c D9D1     		bne	.L67
 633              		.loc 1 439 0
 634 005e 0C4A     		ldr	r2, .L73+16
 635 0060 136C     		ldr	r3, [r2, #64]
 636 0062 43F40033 		orr	r3, r3, #131072
 637 0066 1364     		str	r3, [r2, #64]
 638              		.loc 1 440 0
 639 0068 0C21     		movs	r1, #12
 640 006a 2620     		movs	r0, #38
 641              	.LVL54:
 642 006c FFF7FEFF 		bl	nvicEnableVector
 643              	.LVL55:
 644 0070 CFE7     		b	.L67
 645              	.LVL56:
 646              	.L68:
 647              	.LBB311:
 648              	.LBB310:
 649              		.loc 1 100 0
 650 0072 2168     		ldr	r1, [r4]
 651 0074 074A     		ldr	r2, .L73+20
 652 0076 B2FBF1F2 		udiv	r2, r2, r1
 653 007a 9A60     		str	r2, [r3, #8]
 654 007c D6E7     		b	.L70
 655              	.L74:
 656 007e 00BF     		.align	2
 657              	.L73:
 658 0080 00000000 		.word	.LANCHOR1
 659 0084 00100140 		.word	1073811456
 660 0088 80DE8002 		.word	42000000
 661 008c 00000000 		.word	.LANCHOR0
 662 0090 00380240 		.word	1073887232
 663 0094 00BD0105 		.word	84000000
 664              	.LBE310:
 665              	.LBE311:
 666              		.cfi_endproc
 667              	.LFE265:
 668              		.size	sd_lld_start, .-sd_lld_start
 669              		.section	.text.sd_lld_stop,"ax",%progbits
 670              		.align	2
 671              		.p2align 4,,15
 672              		.global	sd_lld_stop
 673              		.thumb
 674              		.thumb_func
 675              		.type	sd_lld_stop, %function
 676              	sd_lld_stop:
 677              	.LFB266:
 678              		.loc 1 480 0
 679              		.cfi_startproc
 680              		@ args = 0, pretend = 0, frame = 0
 681              		@ frame_needed = 0, uses_anonymous_args = 0
 682              		@ link register save eliminated.
 683              	.LVL57:
 684              		.loc 1 482 0
ARM GAS  /tmp/ccojrVRM.s 			page 13


 685 0000 037A     		ldrb	r3, [r0, #8]	@ zero_extendqisi2
 686 0002 022B     		cmp	r3, #2
 687 0004 00D0     		beq	.L79
 688              	.L75:
 689 0006 7047     		bx	lr
 690              	.L79:
 691              		.loc 1 492 0
 692 0008 0749     		ldr	r1, .L80
 693              		.loc 1 483 0
 694 000a 436F     		ldr	r3, [r0, #116]
 695              	.LVL58:
 696              	.LBB312:
 697              	.LBB313:
 698              		.loc 1 123 0
 699 000c 0022     		movs	r2, #0
 700              	.LBE313:
 701              	.LBE312:
 702              		.loc 1 492 0
 703 000e 8842     		cmp	r0, r1
 704              	.LBB315:
 705              	.LBB314:
 706              		.loc 1 123 0
 707 0010 DA60     		str	r2, [r3, #12]
 708              		.loc 1 124 0
 709 0012 1A61     		str	r2, [r3, #16]
 710              		.loc 1 125 0
 711 0014 5A61     		str	r2, [r3, #20]
 712              	.LVL59:
 713              	.LBE314:
 714              	.LBE315:
 715              		.loc 1 492 0
 716 0016 F6D1     		bne	.L75
 717              		.loc 1 493 0
 718 0018 044A     		ldr	r2, .L80+4
 719 001a 136C     		ldr	r3, [r2, #64]
 720 001c 23F40033 		bic	r3, r3, #131072
 721 0020 1364     		str	r3, [r2, #64]
 722              		.loc 1 494 0
 723 0022 2620     		movs	r0, #38
 724              	.LVL60:
 725 0024 FFF7FEBF 		b	nvicDisableVector
 726              	.LVL61:
 727              	.L81:
 728              		.align	2
 729              	.L80:
 730 0028 00000000 		.word	.LANCHOR0
 731 002c 00380240 		.word	1073887232
 732              		.cfi_endproc
 733              	.LFE266:
 734              		.size	sd_lld_stop, .-sd_lld_stop
 735              		.global	SD2
 736              		.section	.rodata.default_config,"a",%progbits
 737              		.align	2
 738              		.set	.LANCHOR1,. + 0
 739              		.type	default_config, %object
 740              		.size	default_config, 12
 741              	default_config:
ARM GAS  /tmp/ccojrVRM.s 			page 14


 742 0000 00960000 		.word	38400
 743 0004 0000     		.short	0
 744 0006 0040     		.short	16384
 745 0008 0000     		.short	0
 746 000a 0000     		.space	2
 747              		.section	.bss.SD2,"aw",%nobits
 748              		.align	2
 749              		.set	.LANCHOR0,. + 0
 750              		.type	SD2, %object
 751              		.size	SD2, 120
 752              	SD2:
 753 0000 00000000 		.space	120
 753      00000000 
 753      00000000 
 753      00000000 
 753      00000000 
 754              		.text
 755              	.Letext0:
 756              		.file 5 "/usr/lib/gcc/arm-none-eabi/5.4.1/include/stddef.h"
 757              		.file 6 "/usr/arm-none-eabi/include/machine/_default_types.h"
 758              		.file 7 "/usr/arm-none-eabi/include/sys/_stdint.h"
 759              		.file 8 "/home/selim/working/ChibiOS/os/rt/ports/ARMCMx/compilers/GCC/chtypes.h"
 760              		.file 9 "/home/selim/working/ChibiOS/os/rt/include/chsystypes.h"
 761              		.file 10 "/home/selim/working/ChibiOS/os/rt/include/chschd.h"
 762              		.file 11 "/home/selim/working/ChibiOS/os/ext/CMSIS/ST/stm32f407xx.h"
 763              		.file 12 "/home/selim/working/ChibiOS/os/rt/ports/ARMCMx/chcore.h"
 764              		.file 13 "/home/selim/working/ChibiOS/os/rt/ports/ARMCMx/chcore_v7m.h"
 765              		.file 14 "/home/selim/working/ChibiOS/os/rt/include/chtm.h"
 766              		.file 15 "/home/selim/working/ChibiOS/os/rt/include/chsem.h"
 767              		.file 16 "/home/selim/working/ChibiOS/os/rt/include/chmtx.h"
 768              		.file 17 "/home/selim/working/ChibiOS/os/rt/include/chevents.h"
 769              		.file 18 "/home/selim/working/ChibiOS/os/hal/include/serial.h"
 770              		.file 19 "/home/selim/working/ChibiOS/os/hal/ports/STM32/LLD/USARTv1/serial_lld.h"
 771              		.file 20 "/home/selim/working/ChibiOS/os/rt/include/chsys.h"
 772              		.file 21 "/home/selim/working/ChibiOS/os/hal/ports/common/ARMCMx/nvic.h"
 773              		.file 22 "/home/selim/working/ChibiOS/os/ext/CMSIS/include/core_cm4.h"