ARM GAS  /tmp/ccojrVRM.s 			page 1


   1              		.syntax unified
   2              		.cpu cortex-m4
   3              		.fpu softvfp
   4              		.eabi_attribute 20, 1
   5              		.eabi_attribute 21, 1
   6              		.eabi_attribute 23, 3
   7              		.eabi_attribute 24, 1
   8              		.eabi_attribute 25, 1
   9              		.eabi_attribute 26, 1
  10              		.eabi_attribute 30, 2
  11              		.eabi_attribute 34, 1
  12              		.eabi_attribute 18, 4
  13              		.thumb
  14              		.syntax unified
  15              		.file	"serial_lld.c"
  16              		.text
  17              	.Ltext0:
  18              		.cfi_sections	.debug_frame
  19              		.section	.text.notify2,"ax",%progbits
  20              		.align	2
  21              		.p2align 4,,15
  22              		.thumb
  23              		.thumb_func
  24              		.type	notify2, %function
  25              	notify2:
  26              	.LFB262:
  27              		.file 1 "/home/selim/working/ChibiOS/os/hal/ports/STM32/LLD/USARTv1/serial_lld.c"
  28              		.loc 1 216 0
  29              		.cfi_startproc
  30              		@ args = 0, pretend = 0, frame = 0
  31              		@ frame_needed = 0, uses_anonymous_args = 0
  32              		@ link register save eliminated.
  33              	.LVL0:
  34              		.loc 1 219 0
  35 0000 024A     		ldr	r2, .L2
  36 0002 D368     		ldr	r3, [r2, #12]
  37 0004 43F08003 		orr	r3, r3, #128
  38 0008 D360     		str	r3, [r2, #12]
  39 000a 7047     		bx	lr
  40              	.L3:
  41              		.align	2
  42              	.L2:
  43 000c 00440040 		.word	1073759232
  44              		.cfi_endproc
  45              	.LFE262:
  46              		.size	notify2, .-notify2
  47              		.section	.text.VectorD8,"ax",%progbits
  48              		.align	2
  49              		.p2align 4,,15
  50              		.global	VectorD8
  51              		.thumb
  52              		.thumb_func
  53              		.type	VectorD8, %function
  54              	VectorD8:
  55              	.LFB263:
  56              		.loc 1 287 0
  57              		.cfi_startproc
ARM GAS  /tmp/ccojrVRM.s 			page 2


  58              		@ args = 0, pretend = 0, frame = 0
  59              		@ frame_needed = 0, uses_anonymous_args = 0
  60              	.LVL1:
  61 0000 F8B5     		push	{r3, r4, r5, r6, r7, lr}
  62              		.cfi_def_cfa_offset 24
  63              		.cfi_offset 3, -24
  64              		.cfi_offset 4, -20
  65              		.cfi_offset 5, -16
  66              		.cfi_offset 6, -12
  67              		.cfi_offset 7, -8
  68              		.cfi_offset 14, -4
  69              	.LBB232:
  70              	.LBB233:
  71              		.loc 1 154 0
  72 0002 434E     		ldr	r6, .L59
  73 0004 756F     		ldr	r5, [r6, #116]
  74              	.LVL2:
  75              		.loc 1 155 0
  76 0006 EF68     		ldr	r7, [r5, #12]
  77              	.LVL3:
  78              		.loc 1 156 0
  79 0008 2B68     		ldr	r3, [r5]
  80              		.loc 1 159 0
  81 000a DA05     		lsls	r2, r3, #23
  82              		.loc 1 156 0
  83 000c 9CB2     		uxth	r4, r3
  84              	.LVL4:
  85              		.loc 1 159 0
  86 000e 4FD4     		bmi	.L54
  87              	.L5:
  88              	.LVL5:
  89              	.LBB234:
  90              	.LBB235:
  91              	.LBB236:
  92              	.LBB237:
  93              	.LBB238:
  94              	.LBB239:
  95              		.file 2 "/home/selim/working/ChibiOS/os/ext/CMSIS/include/core_cmFunc.h"
  96              		.loc 2 546 0
  97 0010 2023     		movs	r3, #32
  98              		.syntax unified
  99              	@ 546 "/home/selim/working/ChibiOS/os/ext/CMSIS/include/core_cmFunc.h" 1
 100 0012 83F31188 		MSR basepri, r3
 101              	@ 0 "" 2
 102              	.LVL6:
 103              		.thumb
 104              		.syntax unified
 105              	.LBE239:
 106              	.LBE238:
 107              	.LBE237:
 108              	.LBE236:
 109              	.LBE235:
 110              	.LBE234:
 111              		.loc 1 168 0
 112 0016 14F02F0F 		tst	r4, #47
 113 001a 08D1     		bne	.L13
 114 001c 29E0     		b	.L6
ARM GAS  /tmp/ccojrVRM.s 			page 3


 115              	.L7:
 116              	.LBB240:
 117              		.loc 1 176 0
 118 001e A006     		lsls	r0, r4, #26
 119              		.loc 1 175 0
 120 0020 6968     		ldr	r1, [r5, #4]
 121              	.LVL7:
 122              		.loc 1 176 0
 123 0022 1DD4     		bmi	.L55
 124              	.L12:
 125              		.loc 1 178 0
 126 0024 2C68     		ldr	r4, [r5]
 127              	.LVL8:
 128 0026 A4B2     		uxth	r4, r4
 129              	.LVL9:
 130              	.LBE240:
 131              		.loc 1 168 0
 132 0028 14F02F0F 		tst	r4, #47
 133 002c 21D0     		beq	.L6
 134              	.LVL10:
 135              	.L13:
 136              	.LBB245:
 137              		.loc 1 173 0
 138 002e 2307     		lsls	r3, r4, #28
 139 0030 F5D0     		beq	.L7
 140              	.LVL11:
 141              	.LBB241:
 142              	.LBB242:
 143              		.loc 1 138 0
 144 0032 14F0080F 		tst	r4, #8
 145 0036 0CBF     		ite	eq
 146 0038 0021     		moveq	r1, #0
 147 003a 8021     		movne	r1, #128
 148              	.LVL12:
 149              		.loc 1 139 0
 150 003c E007     		lsls	r0, r4, #31
 151              		.loc 1 140 0
 152 003e 48BF     		it	mi
 153 0040 41F02001 		orrmi	r1, r1, #32
 154              	.LVL13:
 155              		.loc 1 141 0
 156 0044 A207     		lsls	r2, r4, #30
 157              		.loc 1 142 0
 158 0046 48BF     		it	mi
 159 0048 41F04001 		orrmi	r1, r1, #64
 160              	.LVL14:
 161              		.loc 1 143 0
 162 004c 6307     		lsls	r3, r4, #29
 163              		.loc 1 144 0
 164 004e 48BF     		it	mi
 165 0050 41F48071 		orrmi	r1, r1, #256
 166              	.LVL15:
 167              	.LBB243:
 168              	.LBB244:
 169              		.file 3 "/home/selim/working/ChibiOS/os/hal/osal/rt/osal.h"
 170              		.loc 3 798 0
 171 0054 2F48     		ldr	r0, .L59+4
ARM GAS  /tmp/ccojrVRM.s 			page 4


 172 0056 FFF7FEFF 		bl	chEvtBroadcastFlagsI
 173              	.LVL16:
 174              	.LBE244:
 175              	.LBE243:
 176              	.LBE242:
 177              	.LBE241:
 178              		.loc 1 176 0
 179 005a A006     		lsls	r0, r4, #26
 180              		.loc 1 175 0
 181 005c 6968     		ldr	r1, [r5, #4]
 182              	.LVL17:
 183              		.loc 1 176 0
 184 005e E1D5     		bpl	.L12
 185              	.LVL18:
 186              	.L55:
 187              		.loc 1 177 0
 188 0060 C9B2     		uxtb	r1, r1
 189 0062 2B48     		ldr	r0, .L59
 190 0064 FFF7FEFF 		bl	sdIncomingDataI
 191              	.LVL19:
 192              		.loc 1 178 0
 193 0068 2C68     		ldr	r4, [r5]
 194              	.LVL20:
 195 006a A4B2     		uxth	r4, r4
 196              	.LVL21:
 197              	.LBE245:
 198              		.loc 1 168 0
 199 006c 14F02F0F 		tst	r4, #47
 200 0070 DDD1     		bne	.L13
 201              	.L6:
 202              	.LVL22:
 203              	.LBB246:
 204              	.LBB247:
 205              	.LBB248:
 206              	.LBB249:
 207              	.LBB250:
 208              	.LBB251:
 209              		.loc 2 546 0
 210 0072 0023     		movs	r3, #0
 211              		.syntax unified
 212              	@ 546 "/home/selim/working/ChibiOS/os/ext/CMSIS/include/core_cmFunc.h" 1
 213 0074 83F31188 		MSR basepri, r3
 214              	@ 0 "" 2
 215              	.LVL23:
 216              		.thumb
 217              		.syntax unified
 218              	.LBE251:
 219              	.LBE250:
 220              	.LBE249:
 221              	.LBE248:
 222              	.LBE247:
 223              	.LBE246:
 224              		.loc 1 183 0
 225 0078 3906     		lsls	r1, r7, #24
 226 007a 01D5     		bpl	.L14
 227 007c 2206     		lsls	r2, r4, #24
 228 007e 26D4     		bmi	.L56
ARM GAS  /tmp/ccojrVRM.s 			page 5


 229              	.L14:
 230              		.loc 1 197 0
 231 0080 6306     		lsls	r3, r4, #25
 232 0082 11D5     		bpl	.L17
 233              	.LVL24:
 234              	.LBB252:
 235              	.LBB253:
 236              	.LBB254:
 237              	.LBB255:
 238              	.LBB256:
 239              	.LBB257:
 240              		.loc 2 546 0
 241 0084 2023     		movs	r3, #32
 242              		.syntax unified
 243              	@ 546 "/home/selim/working/ChibiOS/os/ext/CMSIS/include/core_cmFunc.h" 1
 244 0086 83F31188 		MSR basepri, r3
 245              	@ 0 "" 2
 246              	.LVL25:
 247              		.thumb
 248              		.syntax unified
 249              	.LBE257:
 250              	.LBE256:
 251              	.LBE255:
 252              	.LBE254:
 253              	.LBE253:
 254              	.LBE252:
 255              	.LBB258:
 256              	.LBB259:
 257              		.file 4 "/home/selim/working/ChibiOS/os/rt/include/chqueues.h"
 258              		.loc 4 390 0
 259 008a 726C     		ldr	r2, [r6, #68]
 260 008c B36C     		ldr	r3, [r6, #72]
 261 008e 2048     		ldr	r0, .L59
 262 0090 9A42     		cmp	r2, r3
 263 0092 29D0     		beq	.L57
 264              	.LVL26:
 265              	.L18:
 266              	.LBE259:
 267              	.LBE258:
 268              		.loc 1 201 0
 269 0094 4FF6BF73 		movw	r3, #65471
 270 0098 3B40     		ands	r3, r3, r7
 271              		.loc 1 202 0
 272 009a 6FF04002 		mvn	r2, #64
 273              		.loc 1 201 0
 274 009e EB60     		str	r3, [r5, #12]
 275              	.LBB261:
 276              	.LBB262:
 277              	.LBB263:
 278              	.LBB264:
 279              	.LBB265:
 280              	.LBB266:
 281              		.loc 2 546 0
 282 00a0 0023     		movs	r3, #0
 283              	.LBE266:
 284              	.LBE265:
 285              	.LBE264:
ARM GAS  /tmp/ccojrVRM.s 			page 6


 286              	.LBE263:
 287              	.LBE262:
 288              	.LBE261:
 289              		.loc 1 202 0
 290 00a2 2A60     		str	r2, [r5]
 291              	.LVL27:
 292              	.LBB272:
 293              	.LBB271:
 294              	.LBB270:
 295              	.LBB269:
 296              	.LBB268:
 297              	.LBB267:
 298              		.loc 2 546 0
 299              		.syntax unified
 300              	@ 546 "/home/selim/working/ChibiOS/os/ext/CMSIS/include/core_cmFunc.h" 1
 301 00a4 83F31188 		MSR basepri, r3
 302              	@ 0 "" 2
 303              	.LVL28:
 304              		.thumb
 305              		.syntax unified
 306              	.L17:
 307              	.LBE267:
 308              	.LBE268:
 309              	.LBE269:
 310              	.LBE270:
 311              	.LBE271:
 312              	.LBE272:
 313              	.LBE233:
 314              	.LBE232:
 315              		.loc 1 294 0
 316 00a8 BDE8F840 		pop	{r3, r4, r5, r6, r7, lr}
 317              		.cfi_remember_state
 318              		.cfi_restore 14
 319              		.cfi_restore 7
 320              		.cfi_restore 6
 321              		.cfi_restore 5
 322              		.cfi_restore 4
 323              		.cfi_restore 3
 324              		.cfi_def_cfa_offset 0
 325              	.LVL29:
 326              		.loc 1 293 0
 327 00ac FFF7FEBF 		b	_port_irq_epilogue
 328              	.LVL30:
 329              	.L54:
 330              		.cfi_restore_state
 331              	.LBB307:
 332              	.LBB306:
 333              	.LBB273:
 334              	.LBB274:
 335              	.LBB275:
 336              	.LBB276:
 337              	.LBB277:
 338              	.LBB278:
 339              		.loc 2 546 0
 340 00b0 2023     		movs	r3, #32
 341              		.syntax unified
 342              	@ 546 "/home/selim/working/ChibiOS/os/ext/CMSIS/include/core_cmFunc.h" 1
ARM GAS  /tmp/ccojrVRM.s 			page 7


 343 00b2 83F31188 		MSR basepri, r3
 344              	@ 0 "" 2
 345              	.LVL31:
 346              		.thumb
 347              		.syntax unified
 348              	.LBE278:
 349              	.LBE277:
 350              	.LBE276:
 351              	.LBE275:
 352              	.LBE274:
 353              	.LBE273:
 354              	.LBB279:
 355              	.LBB280:
 356              		.loc 3 798 0
 357 00b6 4FF40071 		mov	r1, #512
 358 00ba 301D     		adds	r0, r6, #4
 359 00bc FFF7FEFF 		bl	chEvtBroadcastFlagsI
 360              	.LVL32:
 361              	.LBE280:
 362              	.LBE279:
 363              		.loc 1 162 0
 364 00c0 6FF48073 		mvn	r3, #256
 365 00c4 2B60     		str	r3, [r5]
 366              	.LVL33:
 367              	.LBB281:
 368              	.LBB282:
 369              	.LBB283:
 370              	.LBB284:
 371              	.LBB285:
 372              	.LBB286:
 373              		.loc 2 546 0
 374 00c6 0023     		movs	r3, #0
 375              		.syntax unified
 376              	@ 546 "/home/selim/working/ChibiOS/os/ext/CMSIS/include/core_cmFunc.h" 1
 377 00c8 83F31188 		MSR basepri, r3
 378              	@ 0 "" 2
 379              	.LVL34:
 380              		.thumb
 381              		.syntax unified
 382 00cc A0E7     		b	.L5
 383              	.L56:
 384              	.LVL35:
 385              	.LBE286:
 386              	.LBE285:
 387              	.LBE284:
 388              	.LBE283:
 389              	.LBE282:
 390              	.LBE281:
 391              	.LBB287:
 392              	.LBB288:
 393              	.LBB289:
 394              	.LBB290:
 395              	.LBB291:
 396              	.LBB292:
 397              	.LBB293:
 398 00ce 2023     		movs	r3, #32
 399              		.syntax unified
ARM GAS  /tmp/ccojrVRM.s 			page 8


 400              	@ 546 "/home/selim/working/ChibiOS/os/ext/CMSIS/include/core_cmFunc.h" 1
 401 00d0 83F31188 		MSR basepri, r3
 402              	@ 0 "" 2
 403              	.LVL36:
 404              		.thumb
 405              		.syntax unified
 406              	.LBE293:
 407              	.LBE292:
 408              	.LBE291:
 409              	.LBE290:
 410              	.LBE289:
 411              	.LBE288:
 412              		.loc 1 186 0
 413 00d4 1048     		ldr	r0, .L59+8
 414 00d6 FFF7FEFF 		bl	chOQGetI
 415              	.LVL37:
 416              		.loc 1 187 0
 417 00da 0028     		cmp	r0, #0
 418 00dc 0CDB     		blt	.L58
 419              		.loc 1 192 0
 420 00de 6860     		str	r0, [r5, #4]
 421              	.LVL38:
 422              	.L16:
 423              	.LBB294:
 424              	.LBB295:
 425              	.LBB296:
 426              	.LBB297:
 427              	.LBB298:
 428              	.LBB299:
 429              		.loc 2 546 0
 430 00e0 0023     		movs	r3, #0
 431              		.syntax unified
 432              	@ 546 "/home/selim/working/ChibiOS/os/ext/CMSIS/include/core_cmFunc.h" 1
 433 00e2 83F31188 		MSR basepri, r3
 434              	@ 0 "" 2
 435              	.LVL39:
 436              		.thumb
 437              		.syntax unified
 438 00e6 CBE7     		b	.L14
 439              	.LVL40:
 440              	.L57:
 441              	.LBE299:
 442              	.LBE298:
 443              	.LBE297:
 444              	.LBE296:
 445              	.LBE295:
 446              	.LBE294:
 447              	.LBE287:
 448              	.LBB302:
 449              	.LBB260:
 450              		.loc 4 390 0
 451 00e8 836B     		ldr	r3, [r0, #56]
 452 00ea 002B     		cmp	r3, #0
 453 00ec D2D0     		beq	.L18
 454              	.LVL41:
 455              	.LBE260:
 456              	.LBE302:
ARM GAS  /tmp/ccojrVRM.s 			page 9


 457              	.LBB303:
 458              	.LBB304:
 459              		.loc 3 798 0
 460 00ee 0430     		adds	r0, r0, #4
 461 00f0 1021     		movs	r1, #16
 462 00f2 FFF7FEFF 		bl	chEvtBroadcastFlagsI
 463              	.LVL42:
 464 00f6 CDE7     		b	.L18
 465              	.LVL43:
 466              	.L58:
 467              	.LBE304:
 468              	.LBE303:
 469              	.LBB305:
 470              	.LBB300:
 471              	.LBB301:
 472 00f8 0821     		movs	r1, #8
 473 00fa 0648     		ldr	r0, .L59+4
 474              	.LVL44:
 475 00fc FFF7FEFF 		bl	chEvtBroadcastFlagsI
 476              	.LVL45:
 477              	.LBE301:
 478              	.LBE300:
 479              		.loc 1 189 0
 480 0100 4FF63F73 		movw	r3, #65343
 481 0104 3B40     		ands	r3, r3, r7
 482 0106 43F04003 		orr	r3, r3, #64
 483 010a EB60     		str	r3, [r5, #12]
 484 010c E8E7     		b	.L16
 485              	.L60:
 486 010e 00BF     		.align	2
 487              	.L59:
 488 0110 00000000 		.word	.LANCHOR0
 489 0114 04000000 		.word	.LANCHOR0+4
 490 0118 30000000 		.word	.LANCHOR0+48
 491              	.LBE305:
 492              	.LBE306:
 493              	.LBE307:
 494              		.cfi_endproc
 495              	.LFE263:
 496              		.size	VectorD8, .-VectorD8
 497              		.section	.text.sd_lld_init,"ax",%progbits
 498              		.align	2
 499              		.p2align 4,,15
 500              		.global	sd_lld_init
 501              		.thumb
 502              		.thumb_func
 503              		.type	sd_lld_init, %function
 504              	sd_lld_init:
 505              	.LFB264:
 506              		.loc 1 382 0
 507              		.cfi_startproc
 508              		@ args = 0, pretend = 0, frame = 0
 509              		@ frame_needed = 0, uses_anonymous_args = 0
 510 0000 10B5     		push	{r4, lr}
 511              		.cfi_def_cfa_offset 8
 512              		.cfi_offset 4, -8
 513              		.cfi_offset 14, -4
ARM GAS  /tmp/ccojrVRM.s 			page 10


 514              		.loc 1 390 0
 515 0002 044C     		ldr	r4, .L63
 516 0004 044A     		ldr	r2, .L63+4
 517 0006 2046     		mov	r0, r4
 518 0008 0021     		movs	r1, #0
 519 000a FFF7FEFF 		bl	sdObjectInit
 520              	.LVL46:
 521              		.loc 1 391 0
 522 000e 034B     		ldr	r3, .L63+8
 523 0010 6367     		str	r3, [r4, #116]
 524 0012 10BD     		pop	{r4, pc}
 525              	.L64:
 526              		.align	2
 527              	.L63:
 528 0014 00000000 		.word	.LANCHOR0
 529 0018 00000000 		.word	notify2
 530 001c 00440040 		.word	1073759232
 531              		.cfi_endproc
 532              	.LFE264:
 533              		.size	sd_lld_init, .-sd_lld_init
 534              		.section	.text.sd_lld_start,"ax",%progbits
 535              		.align	2
 536              		.p2align 4,,15
 537              		.global	sd_lld_start
 538              		.thumb
 539              		.thumb_func
 540              		.type	sd_lld_start, %function
 541              	sd_lld_start:
 542              	.LFB265:
 543              		.loc 1 425 0
 544              		.cfi_startproc
 545              		@ args = 0, pretend = 0, frame = 0
 546              		@ frame_needed = 0, uses_anonymous_args = 0
 547              	.LVL47:
 548 0000 38B5     		push	{r3, r4, r5, lr}
 549              		.cfi_def_cfa_offset 16
 550              		.cfi_offset 3, -16
 551              		.cfi_offset 4, -12
 552              		.cfi_offset 5, -8
 553              		.cfi_offset 14, -4
 554              		.loc 1 428 0
 555 0002 1F4C     		ldr	r4, .L73
 556              		.loc 1 430 0
 557 0004 037A     		ldrb	r3, [r0, #8]	@ zero_extendqisi2
 558              		.loc 1 428 0
 559 0006 0029     		cmp	r1, #0
 560 0008 18BF     		it	ne
 561 000a 0C46     		movne	r4, r1
 562              	.LVL48:
 563              		.loc 1 430 0
 564 000c 012B     		cmp	r3, #1
 565              		.loc 1 425 0
 566 000e 0546     		mov	r5, r0
 567              		.loc 1 430 0
 568 0010 22D0     		beq	.L72
 569              	.LVL49:
 570              	.L67:
ARM GAS  /tmp/ccojrVRM.s 			page 11


 571 0012 6B6F     		ldr	r3, [r5, #116]
 572              	.LVL50:
 573              	.LBB308:
 574              	.LBB309:
 575              		.loc 1 96 0
 576 0014 1B4A     		ldr	r2, .L73+4
 577 0016 9342     		cmp	r3, r2
 578 0018 2BD0     		beq	.L68
 579 001a 02F58062 		add	r2, r2, #1024
 580 001e 9342     		cmp	r3, r2
 581 0020 27D0     		beq	.L68
 582              		.loc 1 102 0
 583 0022 2168     		ldr	r1, [r4]
 584 0024 184A     		ldr	r2, .L73+8
 585 0026 B2FBF1F2 		udiv	r2, r2, r1
 586 002a 9A60     		str	r2, [r3, #8]
 587              	.L70:
 588              		.loc 1 108 0
 589 002c A288     		ldrh	r2, [r4, #4]
 590              		.loc 1 105 0
 591 002e E088     		ldrh	r0, [r4, #6]
 592              		.loc 1 106 0
 593 0030 2189     		ldrh	r1, [r4, #8]
 594              		.loc 1 108 0
 595 0032 42F40452 		orr	r2, r2, #8448
 596              		.loc 1 105 0
 597 0036 40F04000 		orr	r0, r0, #64
 598              		.loc 1 108 0
 599 003a 42F02C02 		orr	r2, r2, #44
 600              		.loc 1 106 0
 601 003e 41F00101 		orr	r1, r1, #1
 602              		.loc 1 108 0
 603 0042 92B2     		uxth	r2, r2
 604              		.loc 1 105 0
 605 0044 80B2     		uxth	r0, r0
 606              		.loc 1 106 0
 607 0046 89B2     		uxth	r1, r1
 608              		.loc 1 110 0
 609 0048 0024     		movs	r4, #0
 610              	.LVL51:
 611              		.loc 1 105 0
 612 004a 1861     		str	r0, [r3, #16]
 613              		.loc 1 106 0
 614 004c 5961     		str	r1, [r3, #20]
 615              		.loc 1 107 0
 616 004e DA60     		str	r2, [r3, #12]
 617              		.loc 1 110 0
 618 0050 1C60     		str	r4, [r3]
 619              		.loc 1 111 0
 620 0052 1A68     		ldr	r2, [r3]
 621              		.loc 1 112 0
 622 0054 5B68     		ldr	r3, [r3, #4]
 623              	.LVL52:
 624 0056 38BD     		pop	{r3, r4, r5, pc}
 625              	.LVL53:
 626              	.L72:
 627              	.LBE309:
ARM GAS  /tmp/ccojrVRM.s 			page 12


 628              	.LBE308:
 629              		.loc 1 438 0
 630 0058 0C4B     		ldr	r3, .L73+12
 631 005a 9842     		cmp	r0, r3
 632 005c D9D1     		bne	.L67
 633              		.loc 1 439 0
 634 005e 0C4A     		ldr	r2, .L73+16
 635 0060 136C     		ldr	r3, [r2, #64]
 636 0062 43F40033 		orr	r3, r3, #131072
 637 0066 1364     		str	r3, [r2, #64]
 638              		.loc 1 440 0
 639 0068 0C21     		movs	r1, #12
 640 006a 2620     		movs	r0, #38
 641              	.LVL54:
 642 006c FFF7FEFF 		bl	nvicEnableVector
 643              	.LVL55:
 644 0070 CFE7     		b	.L67
 645              	.LVL56:
 646              	.L68:
 647              	.LBB311:
 648              	.LBB310:
 649              		.loc 1 100 0
 650 0072 2168     		ldr	r1, [r4]
 651 0074 074A     		ldr	r2, .L73+20
 652 0076 B2FBF1F2 		udiv	r2, r2, r1
 653 007a 9A60     		str	r2, [r3, #8]
 654 007c D6E7     		b	.L70
 655              	.L74:
 656 007e 00BF     		.align	2
 657              	.L73:
 658 0080 00000000 		.word	.LANCHOR1
 659 0084 00100140 		.word	1073811456
 660 0088 80DE8002 		.word	42000000
 661 008c 00000000 		.word	.LANCHOR0
 662 0090 00380240 		.word	1073887232
 663 0094 00BD0105 		.word	84000000
 664              	.LBE310:
 665              	.LBE311:
 666              		.cfi_endproc
 667              	.LFE265:
 668              		.size	sd_lld_start, .-sd_lld_start
 669              		.section	.text.sd_lld_stop,"ax",%progbits
 670              		.align	2
 671              		.p2align 4,,15
 672              		.global	sd_lld_stop
 673              		.thumb
 674              		.thumb_func
 675              		.type	sd_lld_stop, %function
 676              	sd_lld_stop:
 677              	.LFB266:
 678              		.loc 1 480 0
 679              		.cfi_startproc
 680              		@ args = 0, pretend = 0, frame = 0
 681              		@ frame_needed = 0, uses_anonymous_args = 0
 682              		@ link register save eliminated.
 683              	.LVL57:
 684              		.loc 1 482 0
ARM GAS  /tmp/ccojrVRM.s 			page 13


 685 0000 037A     		ldrb	r3, [r0, #8]	@ zero_extendqisi2
 686 0002 022B     		cmp	r3, #2
 687 0004 00D0     		beq	.L79
 688              	.L75:
 689 0006 7047     		bx	lr
 690              	.L79:
 691              		.loc 1 492 0
 692 0008 0749     		ldr	r1, .L80
 693              		.loc 1 483 0
 694 000a 436F     		ldr	r3, [r0, #116]
 695              	.LVL58:
 696              	.LBB312:
 697              	.LBB313:
 698              		.loc 1 123 0
 699 000c 0022     		movs	r2, #0
 700              	.LBE313:
 701              	.LBE312:
 702              		.loc 1 492 0
 703 000e 8842     		cmp	r0, r1
 704              	.LBB315:
 705              	.LBB314:
 706              		.loc 1 123 0
 707 0010 DA60     		str	r2, [r3, #12]
 708              		.loc 1 124 0
 709 0012 1A61     		str	r2, [r3, #16]
 710              		.loc 1 125 0
 711 0014 5A61     		str	r2, [r3, #20]
 712              	.LVL59:
 713              	.LBE314:
 714              	.LBE315:
 715              		.loc 1 492 0
 716 0016 F6D1     		bne	.L75
 717              		.loc 1 493 0
 718 0018 044A     		ldr	r2, .L80+4
 719 001a 136C     		ldr	r3, [r2, #64]
 720 001c 23F40033 		bic	r3, r3, #131072
 721 0020 1364     		str	r3, [r2, #64]
 722              		.loc 1 494 0
 723 0022 2620     		movs	r0, #38
 724              	.LVL60:
 725 0024 FFF7FEBF 		b	nvicDisableVector
 726              	.LVL61:
 727              	.L81:
 728              		.align	2
 729              	.L80:
 730 0028 00000000 		.word	.LANCHOR0
 731 002c 00380240 		.word	1073887232
 732              		.cfi_endproc
 733              	.LFE266:
 734              		.size	sd_lld_stop, .-sd_lld_stop
 735              		.global	SD2
 736              		.section	.rodata.default_config,"a",%progbits
 737              		.align	2
 738              		.set	.LANCHOR1,. + 0
 739              		.type	default_config, %object
 740              		.size	default_config, 12
 741              	default_config:
ARM GAS  /tmp/ccojrVRM.s 			page 14


 742 0000 00960000 		.word	38400
 743 0004 0000     		.short	0
 744 0006 0040     		.short	16384
 745 0008 0000     		.short	0
 746 000a 0000     		.space	2
 747              		.section	.bss.SD2,"aw",%nobits
 748              		.align	2
 749              		.set	.LANCHOR0,. + 0
 750              		.type	SD2, %object
 751              		.size	SD2, 120
 752              	SD2:
 753 0000 00000000 		.space	120
 753      00000000 
 753      00000000 
 753      00000000 
 753      00000000 
 754              		.text
 755              	.Letext0:
 756              		.file 5 "/usr/lib/gcc/arm-none-eabi/5.4.1/include/stddef.h"
 757              		.file 6 "/usr/arm-none-eabi/include/machine/_default_types.h"
 758              		.file 7 "/usr/arm-none-eabi/include/sys/_stdint.h"
 759              		.file 8 "/home/selim/working/ChibiOS/os/rt/ports/ARMCMx/compilers/GCC/chtypes.h"
 760              		.file 9 "/home/selim/working/ChibiOS/os/rt/include/chsystypes.h"
 761              		.file 10 "/home/selim/working/ChibiOS/os/rt/include/chschd.h"
 762              		.file 11 "/home/selim/working/ChibiOS/os/ext/CMSIS/ST/stm32f407xx.h"
 763              		.file 12 "/home/selim/working/ChibiOS/os/rt/ports/ARMCMx/chcore.h"
 764              		.file 13 "/home/selim/working/ChibiOS/os/rt/ports/ARMCMx/chcore_v7m.h"
 765              		.file 14 "/home/selim/working/ChibiOS/os/rt/include/chtm.h"
 766              		.file 15 "/home/selim/working/ChibiOS/os/rt/include/chsem.h"
 767              		.file 16 "/home/selim/working/ChibiOS/os/rt/include/chmtx.h"
 768              		.file 17 "/home/selim/working/ChibiOS/os/rt/include/chevents.h"
 769              		.file 18 "/home/selim/working/ChibiOS/os/hal/include/serial.h"
 770              		.file 19 "/home/selim/working/ChibiOS/os/hal/ports/STM32/LLD/USARTv1/serial_lld.h"
 771              		.file 20 "/home/selim/working/ChibiOS/os/rt/include/chsys.h"
 772              		.file 21 "/home/selim/working/ChibiOS/os/hal/ports/common/ARMCMx/nvic.h"
 773              		.file 22 "/home/selim/working/ChibiOS/os/ext/CMSIS/include/core_cm4.h"
 774              		.section	.debug_info,"",%progbits
 775              	.Ldebug_info0:
 776 0000 32140000 		.4byte	0x1432
 777 0004 0400     		.2byte	0x4
 778 0006 00000000 		.4byte	.Ldebug_abbrev0
 779 000a 04       		.byte	0x4
 780 000b 01       		.uleb128 0x1
 781 000c 7C000000 		.4byte	.LASF208
 782 0010 0C       		.byte	0xc
 783 0011 AD050000 		.4byte	.LASF209
 784 0015 A8000000 		.4byte	.Ldebug_ranges0+0xa8
 785 0019 00000000 		.4byte	0
 786 001d 00000000 		.4byte	.Ldebug_line0
 787 0021 02       		.uleb128 0x2
 788 0022 04       		.byte	0x4
 789 0023 05       		.byte	0x5
 790 0024 696E7400 		.ascii	"int\000"
 791 0028 03       		.uleb128 0x3
 792 0029 1E000000 		.4byte	.LASF4
 793 002d 05       		.byte	0x5
 794 002e D8       		.byte	0xd8
ARM GAS  /tmp/ccojrVRM.s 			page 15


 795 002f 33000000 		.4byte	0x33
 796 0033 04       		.uleb128 0x4
 797 0034 04       		.byte	0x4
 798 0035 07       		.byte	0x7
 799 0036 90030000 		.4byte	.LASF0
 800 003a 04       		.uleb128 0x4
 801 003b 08       		.byte	0x8
 802 003c 05       		.byte	0x5
 803 003d 22020000 		.4byte	.LASF1
 804 0041 04       		.uleb128 0x4
 805 0042 08       		.byte	0x8
 806 0043 04       		.byte	0x4
 807 0044 12030000 		.4byte	.LASF2
 808 0048 04       		.uleb128 0x4
 809 0049 01       		.byte	0x1
 810 004a 06       		.byte	0x6
 811 004b 30020000 		.4byte	.LASF3
 812 004f 03       		.uleb128 0x3
 813 0050 35000000 		.4byte	.LASF5
 814 0054 06       		.byte	0x6
 815 0055 1D       		.byte	0x1d
 816 0056 5A000000 		.4byte	0x5a
 817 005a 04       		.uleb128 0x4
 818 005b 01       		.byte	0x1
 819 005c 08       		.byte	0x8
 820 005d 75060000 		.4byte	.LASF6
 821 0061 04       		.uleb128 0x4
 822 0062 02       		.byte	0x2
 823 0063 05       		.byte	0x5
 824 0064 C8060000 		.4byte	.LASF7
 825 0068 03       		.uleb128 0x3
 826 0069 E2070000 		.4byte	.LASF8
 827 006d 06       		.byte	0x6
 828 006e 2B       		.byte	0x2b
 829 006f 73000000 		.4byte	0x73
 830 0073 04       		.uleb128 0x4
 831 0074 02       		.byte	0x2
 832 0075 07       		.byte	0x7
 833 0076 F4030000 		.4byte	.LASF9
 834 007a 03       		.uleb128 0x3
 835 007b A2010000 		.4byte	.LASF10
 836 007f 06       		.byte	0x6
 837 0080 3F       		.byte	0x3f
 838 0081 85000000 		.4byte	0x85
 839 0085 04       		.uleb128 0x4
 840 0086 04       		.byte	0x4
 841 0087 05       		.byte	0x5
 842 0088 94020000 		.4byte	.LASF11
 843 008c 03       		.uleb128 0x3
 844 008d 39080000 		.4byte	.LASF12
 845 0091 06       		.byte	0x6
 846 0092 41       		.byte	0x41
 847 0093 97000000 		.4byte	0x97
 848 0097 04       		.uleb128 0x4
 849 0098 04       		.byte	0x4
 850 0099 07       		.byte	0x7
 851 009a AF070000 		.4byte	.LASF13
ARM GAS  /tmp/ccojrVRM.s 			page 16


 852 009e 03       		.uleb128 0x3
 853 009f 9A050000 		.4byte	.LASF14
 854 00a3 06       		.byte	0x6
 855 00a4 5B       		.byte	0x5b
 856 00a5 A9000000 		.4byte	0xa9
 857 00a9 04       		.uleb128 0x4
 858 00aa 08       		.byte	0x8
 859 00ab 07       		.byte	0x7
 860 00ac 56010000 		.4byte	.LASF15
 861 00b0 03       		.uleb128 0x3
 862 00b1 36090000 		.4byte	.LASF16
 863 00b5 07       		.byte	0x7
 864 00b6 18       		.byte	0x18
 865 00b7 4F000000 		.4byte	0x4f
 866 00bb 03       		.uleb128 0x3
 867 00bc A5030000 		.4byte	.LASF17
 868 00c0 07       		.byte	0x7
 869 00c1 24       		.byte	0x24
 870 00c2 68000000 		.4byte	0x68
 871 00c6 03       		.uleb128 0x3
 872 00c7 6D060000 		.4byte	.LASF18
 873 00cb 07       		.byte	0x7
 874 00cc 2C       		.byte	0x2c
 875 00cd 7A000000 		.4byte	0x7a
 876 00d1 03       		.uleb128 0x3
 877 00d2 5F070000 		.4byte	.LASF19
 878 00d6 07       		.byte	0x7
 879 00d7 30       		.byte	0x30
 880 00d8 8C000000 		.4byte	0x8c
 881 00dc 03       		.uleb128 0x3
 882 00dd 2C000000 		.4byte	.LASF20
 883 00e1 07       		.byte	0x7
 884 00e2 3C       		.byte	0x3c
 885 00e3 9E000000 		.4byte	0x9e
 886 00e7 05       		.uleb128 0x5
 887 00e8 C6000000 		.4byte	0xc6
 888 00ec 05       		.uleb128 0x5
 889 00ed D1000000 		.4byte	0xd1
 890 00f1 03       		.uleb128 0x3
 891 00f2 B1080000 		.4byte	.LASF21
 892 00f6 08       		.byte	0x8
 893 00f7 46       		.byte	0x46
 894 00f8 D1000000 		.4byte	0xd1
 895 00fc 03       		.uleb128 0x3
 896 00fd 76090000 		.4byte	.LASF22
 897 0101 08       		.byte	0x8
 898 0102 49       		.byte	0x49
 899 0103 B0000000 		.4byte	0xb0
 900 0107 03       		.uleb128 0x3
 901 0108 B0020000 		.4byte	.LASF23
 902 010c 08       		.byte	0x8
 903 010d 4A       		.byte	0x4a
 904 010e B0000000 		.4byte	0xb0
 905 0112 03       		.uleb128 0x3
 906 0113 F5050000 		.4byte	.LASF24
 907 0117 08       		.byte	0x8
 908 0118 4B       		.byte	0x4b
ARM GAS  /tmp/ccojrVRM.s 			page 17


 909 0119 B0000000 		.4byte	0xb0
 910 011d 03       		.uleb128 0x3
 911 011e 40060000 		.4byte	.LASF25
 912 0122 08       		.byte	0x8
 913 0123 4D       		.byte	0x4d
 914 0124 D1000000 		.4byte	0xd1
 915 0128 03       		.uleb128 0x3
 916 0129 26040000 		.4byte	.LASF26
 917 012d 08       		.byte	0x8
 918 012e 4E       		.byte	0x4e
 919 012f C6000000 		.4byte	0xc6
 920 0133 03       		.uleb128 0x3
 921 0134 7A040000 		.4byte	.LASF27
 922 0138 08       		.byte	0x8
 923 0139 50       		.byte	0x50
 924 013a D1000000 		.4byte	0xd1
 925 013e 03       		.uleb128 0x3
 926 013f DC080000 		.4byte	.LASF28
 927 0143 08       		.byte	0x8
 928 0144 51       		.byte	0x51
 929 0145 D1000000 		.4byte	0xd1
 930 0149 03       		.uleb128 0x3
 931 014a 84030000 		.4byte	.LASF29
 932 014e 08       		.byte	0x8
 933 014f 52       		.byte	0x52
 934 0150 C6000000 		.4byte	0xc6
 935 0154 03       		.uleb128 0x3
 936 0155 1B080000 		.4byte	.LASF30
 937 0159 09       		.byte	0x9
 938 015a 33       		.byte	0x33
 939 015b D1000000 		.4byte	0xd1
 940 015f 03       		.uleb128 0x3
 941 0160 0B080000 		.4byte	.LASF31
 942 0164 09       		.byte	0x9
 943 0165 3F       		.byte	0x3f
 944 0166 6A010000 		.4byte	0x16a
 945 016a 06       		.uleb128 0x6
 946 016b 07040000 		.4byte	.LASF51
 947 016f 44       		.byte	0x44
 948 0170 0A       		.byte	0xa
 949 0171 C2       		.byte	0xc2
 950 0172 57020000 		.4byte	0x257
 951 0176 07       		.uleb128 0x7
 952 0177 2C050000 		.4byte	.LASF32
 953 017b 0A       		.byte	0xa
 954 017c C3       		.byte	0xc3
 955 017d 62020000 		.4byte	0x262
 956 0181 00       		.byte	0
 957 0182 07       		.uleb128 0x7
 958 0183 2F060000 		.4byte	.LASF33
 959 0187 0A       		.byte	0xa
 960 0188 C5       		.byte	0xc5
 961 0189 62020000 		.4byte	0x262
 962 018d 04       		.byte	0x4
 963 018e 07       		.uleb128 0x7
 964 018f 44090000 		.4byte	.LASF34
 965 0193 0A       		.byte	0xa
ARM GAS  /tmp/ccojrVRM.s 			page 18


 966 0194 C7       		.byte	0xc7
 967 0195 1D010000 		.4byte	0x11d
 968 0199 08       		.byte	0x8
 969 019a 07       		.uleb128 0x7
 970 019b A9090000 		.4byte	.LASF35
 971 019f 0A       		.byte	0xa
 972 01a0 C8       		.byte	0xc8
 973 01a1 AC060000 		.4byte	0x6ac
 974 01a5 0C       		.byte	0xc
 975 01a6 07       		.uleb128 0x7
 976 01a7 EF020000 		.4byte	.LASF36
 977 01ab 0A       		.byte	0xa
 978 01ac CA       		.byte	0xca
 979 01ad 62020000 		.4byte	0x262
 980 01b1 10       		.byte	0x10
 981 01b2 07       		.uleb128 0x7
 982 01b3 47050000 		.4byte	.LASF37
 983 01b7 0A       		.byte	0xa
 984 01b8 CB       		.byte	0xcb
 985 01b9 62020000 		.4byte	0x262
 986 01bd 14       		.byte	0x14
 987 01be 07       		.uleb128 0x7
 988 01bf 50060000 		.4byte	.LASF38
 989 01c3 0A       		.byte	0xa
 990 01c4 D2       		.byte	0xd2
 991 01c5 2B080000 		.4byte	0x82b
 992 01c9 18       		.byte	0x18
 993 01ca 07       		.uleb128 0x7
 994 01cb 4A020000 		.4byte	.LASF39
 995 01cf 0A       		.byte	0xa
 996 01d0 DD       		.byte	0xdd
 997 01d1 07010000 		.4byte	0x107
 998 01d5 1C       		.byte	0x1c
 999 01d6 07       		.uleb128 0x7
 1000 01d7 EA060000 		.4byte	.LASF40
 1001 01db 0A       		.byte	0xa
 1002 01dc E1       		.byte	0xe1
 1003 01dd FC000000 		.4byte	0xfc
 1004 01e1 1D       		.byte	0x1d
 1005 01e2 07       		.uleb128 0x7
 1006 01e3 C2020000 		.4byte	.LASF41
 1007 01e7 0A       		.byte	0xa
 1008 01e8 E6       		.byte	0xe6
 1009 01e9 12010000 		.4byte	0x112
 1010 01ed 1E       		.byte	0x1e
 1011 01ee 08       		.uleb128 0x8
 1012 01ef 705F7500 		.ascii	"p_u\000"
 1013 01f3 0A       		.byte	0xa
 1014 01f4 3101     		.2byte	0x131
 1015 01f6 66070000 		.4byte	0x766
 1016 01fa 20       		.byte	0x20
 1017 01fb 09       		.uleb128 0x9
 1018 01fc DF040000 		.4byte	.LASF42
 1019 0200 0A       		.byte	0xa
 1020 0201 3601     		.2byte	0x136
 1021 0203 68020000 		.4byte	0x268
 1022 0207 24       		.byte	0x24
ARM GAS  /tmp/ccojrVRM.s 			page 19


 1023 0208 09       		.uleb128 0x9
 1024 0209 CC030000 		.4byte	.LASF43
 1025 020d 0A       		.byte	0xa
 1026 020e 3C01     		.2byte	0x13c
 1027 0210 8C020000 		.4byte	0x28c
 1028 0214 28       		.byte	0x28
 1029 0215 09       		.uleb128 0x9
 1030 0216 7E090000 		.4byte	.LASF44
 1031 021a 0A       		.byte	0xa
 1032 021b 4001     		.2byte	0x140
 1033 021d 28010000 		.4byte	0x128
 1034 0221 30       		.byte	0x30
 1035 0222 09       		.uleb128 0x9
 1036 0223 40070000 		.4byte	.LASF45
 1037 0227 0A       		.byte	0xa
 1038 0228 4601     		.2byte	0x146
 1039 022a 33010000 		.4byte	0x133
 1040 022e 34       		.byte	0x34
 1041 022f 09       		.uleb128 0x9
 1042 0230 BE060000 		.4byte	.LASF46
 1043 0234 0A       		.byte	0xa
 1044 0235 4D01     		.2byte	0x14d
 1045 0237 25080000 		.4byte	0x825
 1046 023b 38       		.byte	0x38
 1047 023c 09       		.uleb128 0x9
 1048 023d 25080000 		.4byte	.LASF47
 1049 0241 0A       		.byte	0xa
 1050 0242 5101     		.2byte	0x151
 1051 0244 1D010000 		.4byte	0x11d
 1052 0248 3C       		.byte	0x3c
 1053 0249 09       		.uleb128 0x9
 1054 024a 52020000 		.4byte	.LASF48
 1055 024e 0A       		.byte	0xa
 1056 024f 5801     		.2byte	0x158
 1057 0251 3F030000 		.4byte	0x33f
 1058 0255 40       		.byte	0x40
 1059 0256 00       		.byte	0
 1060 0257 03       		.uleb128 0x3
 1061 0258 F2040000 		.4byte	.LASF49
 1062 025c 09       		.byte	0x9
 1063 025d 44       		.byte	0x44
 1064 025e 62020000 		.4byte	0x262
 1065 0262 0A       		.uleb128 0xa
 1066 0263 04       		.byte	0x4
 1067 0264 5F010000 		.4byte	0x15f
 1068 0268 03       		.uleb128 0x3
 1069 0269 AA040000 		.4byte	.LASF50
 1070 026d 09       		.byte	0x9
 1071 026e 49       		.byte	0x49
 1072 026f 73020000 		.4byte	0x273
 1073 0273 06       		.uleb128 0x6
 1074 0274 80070000 		.4byte	.LASF52
 1075 0278 04       		.byte	0x4
 1076 0279 0A       		.byte	0xa
 1077 027a B0       		.byte	0xb0
 1078 027b 8C020000 		.4byte	0x28c
 1079 027f 07       		.uleb128 0x7
ARM GAS  /tmp/ccojrVRM.s 			page 20


 1080 0280 2C050000 		.4byte	.LASF32
 1081 0284 0A       		.byte	0xa
 1082 0285 B1       		.byte	0xb1
 1083 0286 62020000 		.4byte	0x262
 1084 028a 00       		.byte	0
 1085 028b 00       		.byte	0
 1086 028c 03       		.uleb128 0x3
 1087 028d 13070000 		.4byte	.LASF53
 1088 0291 09       		.byte	0x9
 1089 0292 50       		.byte	0x50
 1090 0293 97020000 		.4byte	0x297
 1091 0297 06       		.uleb128 0x6
 1092 0298 E2010000 		.4byte	.LASF54
 1093 029c 08       		.byte	0x8
 1094 029d 0A       		.byte	0xa
 1095 029e B7       		.byte	0xb7
 1096 029f BC020000 		.4byte	0x2bc
 1097 02a3 07       		.uleb128 0x7
 1098 02a4 2C050000 		.4byte	.LASF32
 1099 02a8 0A       		.byte	0xa
 1100 02a9 B8       		.byte	0xb8
 1101 02aa 62020000 		.4byte	0x262
 1102 02ae 00       		.byte	0
 1103 02af 07       		.uleb128 0x7
 1104 02b0 2F060000 		.4byte	.LASF33
 1105 02b4 0A       		.byte	0xa
 1106 02b5 B9       		.byte	0xb9
 1107 02b6 62020000 		.4byte	0x262
 1108 02ba 04       		.byte	0x4
 1109 02bb 00       		.byte	0
 1110 02bc 03       		.uleb128 0x3
 1111 02bd 11000000 		.4byte	.LASF55
 1112 02c1 09       		.byte	0x9
 1113 02c2 57       		.byte	0x57
 1114 02c3 C7020000 		.4byte	0x2c7
 1115 02c7 0B       		.uleb128 0xb
 1116 02c8 6C040000 		.4byte	.LASF56
 1117 02cc 1C       		.byte	0x1c
 1118 02cd 0A       		.byte	0xa
 1119 02ce 9001     		.2byte	0x190
 1120 02d0 23030000 		.4byte	0x323
 1121 02d4 09       		.uleb128 0x9
 1122 02d5 6F070000 		.4byte	.LASF57
 1123 02d9 0A       		.byte	0xa
 1124 02da 9101     		.2byte	0x191
 1125 02dc 8C020000 		.4byte	0x28c
 1126 02e0 00       		.byte	0
 1127 02e1 09       		.uleb128 0x9
 1128 02e2 DC060000 		.4byte	.LASF58
 1129 02e6 0A       		.byte	0xa
 1130 02e7 9201     		.2byte	0x192
 1131 02e9 1D010000 		.4byte	0x11d
 1132 02ed 08       		.byte	0x8
 1133 02ee 09       		.uleb128 0x9
 1134 02ef 4F050000 		.4byte	.LASF59
 1135 02f3 0A       		.byte	0xa
 1136 02f4 9401     		.2byte	0x194
ARM GAS  /tmp/ccojrVRM.s 			page 21


 1137 02f6 AC060000 		.4byte	0x6ac
 1138 02fa 0C       		.byte	0xc
 1139 02fb 09       		.uleb128 0x9
 1140 02fc 1E030000 		.4byte	.LASF60
 1141 0300 0A       		.byte	0xa
 1142 0301 9701     		.2byte	0x197
 1143 0303 62020000 		.4byte	0x262
 1144 0307 10       		.byte	0x10
 1145 0308 09       		.uleb128 0x9
 1146 0309 8C080000 		.4byte	.LASF61
 1147 030d 0A       		.byte	0xa
 1148 030e 9801     		.2byte	0x198
 1149 0310 62020000 		.4byte	0x262
 1150 0314 14       		.byte	0x14
 1151 0315 09       		.uleb128 0x9
 1152 0316 70050000 		.4byte	.LASF62
 1153 031a 0A       		.byte	0xa
 1154 031b 9B01     		.2byte	0x19b
 1155 031d 62020000 		.4byte	0x262
 1156 0321 18       		.byte	0x18
 1157 0322 00       		.byte	0
 1158 0323 03       		.uleb128 0x3
 1159 0324 30080000 		.4byte	.LASF63
 1160 0328 09       		.byte	0x9
 1161 0329 5C       		.byte	0x5c
 1162 032a 2E030000 		.4byte	0x32e
 1163 032e 0A       		.uleb128 0xa
 1164 032f 04       		.byte	0x4
 1165 0330 34030000 		.4byte	0x334
 1166 0334 0C       		.uleb128 0xc
 1167 0335 3F030000 		.4byte	0x33f
 1168 0339 0D       		.uleb128 0xd
 1169 033a 3F030000 		.4byte	0x33f
 1170 033e 00       		.byte	0
 1171 033f 0E       		.uleb128 0xe
 1172 0340 04       		.byte	0x4
 1173 0341 03       		.uleb128 0x3
 1174 0342 BF040000 		.4byte	.LASF64
 1175 0346 09       		.byte	0x9
 1176 0347 61       		.byte	0x61
 1177 0348 4C030000 		.4byte	0x34c
 1178 034c 0B       		.uleb128 0xb
 1179 034d A0080000 		.4byte	.LASF65
 1180 0351 14       		.byte	0x14
 1181 0352 0A       		.byte	0xa
 1182 0353 6B01     		.2byte	0x16b
 1183 0355 9B030000 		.4byte	0x39b
 1184 0359 09       		.uleb128 0x9
 1185 035a 9D030000 		.4byte	.LASF66
 1186 035e 0A       		.byte	0xa
 1187 035f 6C01     		.2byte	0x16c
 1188 0361 3D080000 		.4byte	0x83d
 1189 0365 00       		.byte	0
 1190 0366 09       		.uleb128 0x9
 1191 0367 2F030000 		.4byte	.LASF67
 1192 036b 0A       		.byte	0xa
 1193 036c 6D01     		.2byte	0x16d
ARM GAS  /tmp/ccojrVRM.s 			page 22


 1194 036e 3D080000 		.4byte	0x83d
 1195 0372 04       		.byte	0x4
 1196 0373 09       		.uleb128 0x9
 1197 0374 77070000 		.4byte	.LASF68
 1198 0378 0A       		.byte	0xa
 1199 0379 6E01     		.2byte	0x16e
 1200 037b 54010000 		.4byte	0x154
 1201 037f 08       		.byte	0x8
 1202 0380 09       		.uleb128 0x9
 1203 0381 AF090000 		.4byte	.LASF69
 1204 0385 0A       		.byte	0xa
 1205 0386 6F01     		.2byte	0x16f
 1206 0388 23030000 		.4byte	0x323
 1207 038c 0C       		.byte	0xc
 1208 038d 09       		.uleb128 0x9
 1209 038e D5080000 		.4byte	.LASF70
 1210 0392 0A       		.byte	0xa
 1211 0393 7101     		.2byte	0x171
 1212 0395 3F030000 		.4byte	0x33f
 1213 0399 10       		.byte	0x10
 1214 039a 00       		.byte	0
 1215 039b 03       		.uleb128 0x3
 1216 039c AC010000 		.4byte	.LASF71
 1217 03a0 09       		.byte	0x9
 1218 03a1 66       		.byte	0x66
 1219 03a2 A6030000 		.4byte	0x3a6
 1220 03a6 0B       		.uleb128 0xb
 1221 03a7 05050000 		.4byte	.LASF72
 1222 03ab 10       		.byte	0x10
 1223 03ac 0A       		.byte	0xa
 1224 03ad 7B01     		.2byte	0x17b
 1225 03af E8030000 		.4byte	0x3e8
 1226 03b3 09       		.uleb128 0x9
 1227 03b4 9D030000 		.4byte	.LASF66
 1228 03b8 0A       		.byte	0xa
 1229 03b9 7C01     		.2byte	0x17c
 1230 03bb 3D080000 		.4byte	0x83d
 1231 03bf 00       		.byte	0
 1232 03c0 09       		.uleb128 0x9
 1233 03c1 2F030000 		.4byte	.LASF67
 1234 03c5 0A       		.byte	0xa
 1235 03c6 7E01     		.2byte	0x17e
 1236 03c8 3D080000 		.4byte	0x83d
 1237 03cc 04       		.byte	0x4
 1238 03cd 09       		.uleb128 0x9
 1239 03ce 77070000 		.4byte	.LASF68
 1240 03d2 0A       		.byte	0xa
 1241 03d3 8001     		.2byte	0x180
 1242 03d5 54010000 		.4byte	0x154
 1243 03d9 08       		.byte	0x8
 1244 03da 09       		.uleb128 0x9
 1245 03db 3B050000 		.4byte	.LASF73
 1246 03df 0A       		.byte	0xa
 1247 03e0 8801     		.2byte	0x188
 1248 03e2 54010000 		.4byte	0x154
 1249 03e6 0C       		.byte	0xc
 1250 03e7 00       		.byte	0
ARM GAS  /tmp/ccojrVRM.s 			page 23


 1251 03e8 03       		.uleb128 0x3
 1252 03e9 4B000000 		.4byte	.LASF74
 1253 03ed 09       		.byte	0x9
 1254 03ee 6B       		.byte	0x6b
 1255 03ef F3030000 		.4byte	0x3f3
 1256 03f3 0B       		.uleb128 0xb
 1257 03f4 57060000 		.4byte	.LASF75
 1258 03f8 04       		.byte	0x4
 1259 03f9 0A       		.byte	0xa
 1260 03fa A201     		.2byte	0x1a2
 1261 03fc 0E040000 		.4byte	0x40e
 1262 0400 09       		.uleb128 0x9
 1263 0401 52080000 		.4byte	.LASF76
 1264 0405 0A       		.byte	0xa
 1265 0406 AA01     		.2byte	0x1aa
 1266 0408 43080000 		.4byte	0x843
 1267 040c 00       		.byte	0
 1268 040d 00       		.byte	0
 1269 040e 03       		.uleb128 0x3
 1270 040f 94080000 		.4byte	.LASF77
 1271 0413 09       		.byte	0x9
 1272 0414 70       		.byte	0x70
 1273 0415 19040000 		.4byte	0x419
 1274 0419 0F       		.uleb128 0xf
 1275 041a 8A020000 		.4byte	.LASF78
 1276 041e 5001     		.2byte	0x150
 1277 0420 0A       		.byte	0xa
 1278 0421 C201     		.2byte	0x1c2
 1279 0423 75040000 		.4byte	0x475
 1280 0427 09       		.uleb128 0x9
 1281 0428 23090000 		.4byte	.LASF79
 1282 042c 0A       		.byte	0xa
 1283 042d C601     		.2byte	0x1c6
 1284 042f BC020000 		.4byte	0x2bc
 1285 0433 00       		.byte	0
 1286 0434 09       		.uleb128 0x9
 1287 0435 62020000 		.4byte	.LASF80
 1288 0439 0A       		.byte	0xa
 1289 043a CA01     		.2byte	0x1ca
 1290 043c 9B030000 		.4byte	0x39b
 1291 0440 1C       		.byte	0x1c
 1292 0441 08       		.uleb128 0x8
 1293 0442 64626700 		.ascii	"dbg\000"
 1294 0446 0A       		.byte	0xa
 1295 0447 CE01     		.2byte	0x1ce
 1296 0449 E8030000 		.4byte	0x3e8
 1297 044d 2C       		.byte	0x2c
 1298 044e 09       		.uleb128 0x9
 1299 044f 97010000 		.4byte	.LASF81
 1300 0453 0A       		.byte	0xa
 1301 0454 D201     		.2byte	0x1d2
 1302 0456 5F010000 		.4byte	0x15f
 1303 045a 30       		.byte	0x30
 1304 045b 08       		.uleb128 0x8
 1305 045c 746D00   		.ascii	"tm\000"
 1306 045f 0A       		.byte	0xa
 1307 0460 D701     		.2byte	0x1d7
ARM GAS  /tmp/ccojrVRM.s 			page 24


 1308 0462 5B070000 		.4byte	0x75b
 1309 0466 74       		.byte	0x74
 1310 0467 09       		.uleb128 0x9
 1311 0468 75030000 		.4byte	.LASF82
 1312 046c 0A       		.byte	0xa
 1313 046d E301     		.2byte	0x1e3
 1314 046f 48080000 		.4byte	0x848
 1315 0473 78       		.byte	0x78
 1316 0474 00       		.byte	0
 1317 0475 04       		.uleb128 0x4
 1318 0476 04       		.byte	0x4
 1319 0477 07       		.byte	0x7
 1320 0478 E9040000 		.4byte	.LASF83
 1321 047c 10       		.uleb128 0x10
 1322 047d D1000000 		.4byte	0xd1
 1323 0481 8C040000 		.4byte	0x48c
 1324 0485 11       		.uleb128 0x11
 1325 0486 75040000 		.4byte	0x475
 1326 048a 01       		.byte	0x1
 1327 048b 00       		.byte	0
 1328 048c 12       		.uleb128 0x12
 1329 048d 88       		.byte	0x88
 1330 048e 0B       		.byte	0xb
 1331 048f 6702     		.2byte	0x267
 1332 0491 1B060000 		.4byte	0x61b
 1333 0495 08       		.uleb128 0x8
 1334 0496 435200   		.ascii	"CR\000"
 1335 0499 0B       		.byte	0xb
 1336 049a 6902     		.2byte	0x269
 1337 049c EC000000 		.4byte	0xec
 1338 04a0 00       		.byte	0
 1339 04a1 09       		.uleb128 0x9
 1340 04a2 F7020000 		.4byte	.LASF84
 1341 04a6 0B       		.byte	0xb
 1342 04a7 6A02     		.2byte	0x26a
 1343 04a9 EC000000 		.4byte	0xec
 1344 04ad 04       		.byte	0x4
 1345 04ae 09       		.uleb128 0x9
 1346 04af 71090000 		.4byte	.LASF85
 1347 04b3 0B       		.byte	0xb
 1348 04b4 6B02     		.2byte	0x26b
 1349 04b6 EC000000 		.4byte	0xec
 1350 04ba 08       		.byte	0x8
 1351 04bb 08       		.uleb128 0x8
 1352 04bc 43495200 		.ascii	"CIR\000"
 1353 04c0 0B       		.byte	0xb
 1354 04c1 6C02     		.2byte	0x26c
 1355 04c3 EC000000 		.4byte	0xec
 1356 04c7 0C       		.byte	0xc
 1357 04c8 09       		.uleb128 0x9
 1358 04c9 3C020000 		.4byte	.LASF86
 1359 04cd 0B       		.byte	0xb
 1360 04ce 6D02     		.2byte	0x26d
 1361 04d0 EC000000 		.4byte	0xec
 1362 04d4 10       		.byte	0x10
 1363 04d5 09       		.uleb128 0x9
 1364 04d6 ED070000 		.4byte	.LASF87
ARM GAS  /tmp/ccojrVRM.s 			page 25


 1365 04da 0B       		.byte	0xb
 1366 04db 6E02     		.2byte	0x26e
 1367 04dd EC000000 		.4byte	0xec
 1368 04e1 14       		.byte	0x14
 1369 04e2 09       		.uleb128 0x9
 1370 04e3 0A070000 		.4byte	.LASF88
 1371 04e7 0B       		.byte	0xb
 1372 04e8 6F02     		.2byte	0x26f
 1373 04ea EC000000 		.4byte	0xec
 1374 04ee 18       		.byte	0x18
 1375 04ef 09       		.uleb128 0x9
 1376 04f0 FD050000 		.4byte	.LASF89
 1377 04f4 0B       		.byte	0xb
 1378 04f5 7002     		.2byte	0x270
 1379 04f7 D1000000 		.4byte	0xd1
 1380 04fb 1C       		.byte	0x1c
 1381 04fc 09       		.uleb128 0x9
 1382 04fd 7A050000 		.4byte	.LASF90
 1383 0501 0B       		.byte	0xb
 1384 0502 7102     		.2byte	0x271
 1385 0504 EC000000 		.4byte	0xec
 1386 0508 20       		.byte	0x20
 1387 0509 09       		.uleb128 0x9
 1388 050a 9D020000 		.4byte	.LASF91
 1389 050e 0B       		.byte	0xb
 1390 050f 7202     		.2byte	0x272
 1391 0511 EC000000 		.4byte	0xec
 1392 0515 24       		.byte	0x24
 1393 0516 09       		.uleb128 0x9
 1394 0517 07060000 		.4byte	.LASF92
 1395 051b 0B       		.byte	0xb
 1396 051c 7302     		.2byte	0x273
 1397 051e 7C040000 		.4byte	0x47c
 1398 0522 28       		.byte	0x28
 1399 0523 09       		.uleb128 0x9
 1400 0524 5C090000 		.4byte	.LASF93
 1401 0528 0B       		.byte	0xb
 1402 0529 7402     		.2byte	0x274
 1403 052b EC000000 		.4byte	0xec
 1404 052f 30       		.byte	0x30
 1405 0530 09       		.uleb128 0x9
 1406 0531 7C080000 		.4byte	.LASF94
 1407 0535 0B       		.byte	0xb
 1408 0536 7502     		.2byte	0x275
 1409 0538 EC000000 		.4byte	0xec
 1410 053c 34       		.byte	0x34
 1411 053d 09       		.uleb128 0x9
 1412 053e 33050000 		.4byte	.LASF95
 1413 0542 0B       		.byte	0xb
 1414 0543 7602     		.2byte	0x276
 1415 0545 EC000000 		.4byte	0xec
 1416 0549 38       		.byte	0x38
 1417 054a 09       		.uleb128 0x9
 1418 054b 11060000 		.4byte	.LASF96
 1419 054f 0B       		.byte	0xb
 1420 0550 7702     		.2byte	0x277
 1421 0552 D1000000 		.4byte	0xd1
ARM GAS  /tmp/ccojrVRM.s 			page 26


 1422 0556 3C       		.byte	0x3c
 1423 0557 09       		.uleb128 0x9
 1424 0558 63080000 		.4byte	.LASF97
 1425 055c 0B       		.byte	0xb
 1426 055d 7802     		.2byte	0x278
 1427 055f EC000000 		.4byte	0xec
 1428 0563 40       		.byte	0x40
 1429 0564 09       		.uleb128 0x9
 1430 0565 02070000 		.4byte	.LASF98
 1431 0569 0B       		.byte	0xb
 1432 056a 7902     		.2byte	0x279
 1433 056c EC000000 		.4byte	0xec
 1434 0570 44       		.byte	0x44
 1435 0571 09       		.uleb128 0x9
 1436 0572 1B060000 		.4byte	.LASF99
 1437 0576 0B       		.byte	0xb
 1438 0577 7A02     		.2byte	0x27a
 1439 0579 7C040000 		.4byte	0x47c
 1440 057d 48       		.byte	0x48
 1441 057e 09       		.uleb128 0x9
 1442 057f F3010000 		.4byte	.LASF100
 1443 0583 0B       		.byte	0xb
 1444 0584 7B02     		.2byte	0x27b
 1445 0586 EC000000 		.4byte	0xec
 1446 058a 50       		.byte	0x50
 1447 058b 09       		.uleb128 0x9
 1448 058c 55050000 		.4byte	.LASF101
 1449 0590 0B       		.byte	0xb
 1450 0591 7C02     		.2byte	0x27c
 1451 0593 EC000000 		.4byte	0xec
 1452 0597 54       		.byte	0x54
 1453 0598 09       		.uleb128 0x9
 1454 0599 D2060000 		.4byte	.LASF102
 1455 059d 0B       		.byte	0xb
 1456 059e 7D02     		.2byte	0x27d
 1457 05a0 EC000000 		.4byte	0xec
 1458 05a4 58       		.byte	0x58
 1459 05a5 09       		.uleb128 0x9
 1460 05a6 25060000 		.4byte	.LASF103
 1461 05aa 0B       		.byte	0xb
 1462 05ab 7E02     		.2byte	0x27e
 1463 05ad D1000000 		.4byte	0xd1
 1464 05b1 5C       		.byte	0x5c
 1465 05b2 09       		.uleb128 0x9
 1466 05b3 A6020000 		.4byte	.LASF104
 1467 05b7 0B       		.byte	0xb
 1468 05b8 7F02     		.2byte	0x27f
 1469 05ba EC000000 		.4byte	0xec
 1470 05be 60       		.byte	0x60
 1471 05bf 09       		.uleb128 0x9
 1472 05c0 62040000 		.4byte	.LASF105
 1473 05c4 0B       		.byte	0xb
 1474 05c5 8002     		.2byte	0x280
 1475 05c7 EC000000 		.4byte	0xec
 1476 05cb 64       		.byte	0x64
 1477 05cc 09       		.uleb128 0x9
 1478 05cd 55070000 		.4byte	.LASF106
ARM GAS  /tmp/ccojrVRM.s 			page 27


 1479 05d1 0B       		.byte	0xb
 1480 05d2 8102     		.2byte	0x281
 1481 05d4 7C040000 		.4byte	0x47c
 1482 05d8 68       		.byte	0x68
 1483 05d9 09       		.uleb128 0x9
 1484 05da 15090000 		.4byte	.LASF107
 1485 05de 0B       		.byte	0xb
 1486 05df 8202     		.2byte	0x282
 1487 05e1 EC000000 		.4byte	0xec
 1488 05e5 70       		.byte	0x70
 1489 05e6 08       		.uleb128 0x8
 1490 05e7 43535200 		.ascii	"CSR\000"
 1491 05eb 0B       		.byte	0xb
 1492 05ec 8302     		.2byte	0x283
 1493 05ee EC000000 		.4byte	0xec
 1494 05f2 74       		.byte	0x74
 1495 05f3 09       		.uleb128 0x9
 1496 05f4 36060000 		.4byte	.LASF108
 1497 05f8 0B       		.byte	0xb
 1498 05f9 8402     		.2byte	0x284
 1499 05fb 7C040000 		.4byte	0x47c
 1500 05ff 78       		.byte	0x78
 1501 0600 09       		.uleb128 0x9
 1502 0601 F8080000 		.4byte	.LASF109
 1503 0605 0B       		.byte	0xb
 1504 0606 8502     		.2byte	0x285
 1505 0608 EC000000 		.4byte	0xec
 1506 060c 80       		.byte	0x80
 1507 060d 09       		.uleb128 0x9
 1508 060e 11040000 		.4byte	.LASF110
 1509 0612 0B       		.byte	0xb
 1510 0613 8602     		.2byte	0x286
 1511 0615 EC000000 		.4byte	0xec
 1512 0619 84       		.byte	0x84
 1513 061a 00       		.byte	0
 1514 061b 13       		.uleb128 0x13
 1515 061c B2060000 		.4byte	.LASF111
 1516 0620 0B       		.byte	0xb
 1517 0621 8802     		.2byte	0x288
 1518 0623 8C040000 		.4byte	0x48c
 1519 0627 12       		.uleb128 0x12
 1520 0628 1C       		.byte	0x1c
 1521 0629 0B       		.byte	0xb
 1522 062a 0903     		.2byte	0x309
 1523 062c 8A060000 		.4byte	0x68a
 1524 0630 08       		.uleb128 0x8
 1525 0631 535200   		.ascii	"SR\000"
 1526 0634 0B       		.byte	0xb
 1527 0635 0B03     		.2byte	0x30b
 1528 0637 EC000000 		.4byte	0xec
 1529 063b 00       		.byte	0
 1530 063c 08       		.uleb128 0x8
 1531 063d 445200   		.ascii	"DR\000"
 1532 0640 0B       		.byte	0xb
 1533 0641 0C03     		.2byte	0x30c
 1534 0643 EC000000 		.4byte	0xec
 1535 0647 04       		.byte	0x4
ARM GAS  /tmp/ccojrVRM.s 			page 28


 1536 0648 08       		.uleb128 0x8
 1537 0649 42525200 		.ascii	"BRR\000"
 1538 064d 0B       		.byte	0xb
 1539 064e 0D03     		.2byte	0x30d
 1540 0650 EC000000 		.4byte	0xec
 1541 0654 08       		.byte	0x8
 1542 0655 08       		.uleb128 0x8
 1543 0656 43523100 		.ascii	"CR1\000"
 1544 065a 0B       		.byte	0xb
 1545 065b 0E03     		.2byte	0x30e
 1546 065d EC000000 		.4byte	0xec
 1547 0661 0C       		.byte	0xc
 1548 0662 08       		.uleb128 0x8
 1549 0663 43523200 		.ascii	"CR2\000"
 1550 0667 0B       		.byte	0xb
 1551 0668 0F03     		.2byte	0x30f
 1552 066a EC000000 		.4byte	0xec
 1553 066e 10       		.byte	0x10
 1554 066f 08       		.uleb128 0x8
 1555 0670 43523300 		.ascii	"CR3\000"
 1556 0674 0B       		.byte	0xb
 1557 0675 1003     		.2byte	0x310
 1558 0677 EC000000 		.4byte	0xec
 1559 067b 14       		.byte	0x14
 1560 067c 09       		.uleb128 0x9
 1561 067d 45020000 		.4byte	.LASF112
 1562 0681 0B       		.byte	0xb
 1563 0682 1103     		.2byte	0x311
 1564 0684 EC000000 		.4byte	0xec
 1565 0688 18       		.byte	0x18
 1566 0689 00       		.byte	0
 1567 068a 13       		.uleb128 0x13
 1568 068b 46040000 		.4byte	.LASF113
 1569 068f 0B       		.byte	0xb
 1570 0690 1203     		.2byte	0x312
 1571 0692 27060000 		.4byte	0x627
 1572 0696 03       		.uleb128 0x3
 1573 0697 26030000 		.4byte	.LASF114
 1574 069b 0C       		.byte	0xc
 1575 069c 65       		.byte	0x65
 1576 069d 3F030000 		.4byte	0x33f
 1577 06a1 03       		.uleb128 0x3
 1578 06a2 9F040000 		.4byte	.LASF115
 1579 06a6 0C       		.byte	0xc
 1580 06a7 6D       		.byte	0x6d
 1581 06a8 DC000000 		.4byte	0xdc
 1582 06ac 06       		.uleb128 0x6
 1583 06ad 84080000 		.4byte	.LASF116
 1584 06b1 04       		.byte	0x4
 1585 06b2 0C       		.byte	0xc
 1586 06b3 89       		.byte	0x89
 1587 06b4 C5060000 		.4byte	0x6c5
 1588 06b8 14       		.uleb128 0x14
 1589 06b9 72313300 		.ascii	"r13\000"
 1590 06bd 0C       		.byte	0xc
 1591 06be 8A       		.byte	0x8a
 1592 06bf 40070000 		.4byte	0x740
ARM GAS  /tmp/ccojrVRM.s 			page 29


 1593 06c3 00       		.byte	0
 1594 06c4 00       		.byte	0
 1595 06c5 06       		.uleb128 0x6
 1596 06c6 3F000000 		.4byte	.LASF117
 1597 06ca 24       		.byte	0x24
 1598 06cb 0D       		.byte	0xd
 1599 06cc F4       		.byte	0xf4
 1600 06cd 40070000 		.4byte	0x740
 1601 06d1 08       		.uleb128 0x8
 1602 06d2 723400   		.ascii	"r4\000"
 1603 06d5 0D       		.byte	0xd
 1604 06d6 0701     		.2byte	0x107
 1605 06d8 96060000 		.4byte	0x696
 1606 06dc 00       		.byte	0
 1607 06dd 08       		.uleb128 0x8
 1608 06de 723500   		.ascii	"r5\000"
 1609 06e1 0D       		.byte	0xd
 1610 06e2 0801     		.2byte	0x108
 1611 06e4 96060000 		.4byte	0x696
 1612 06e8 04       		.byte	0x4
 1613 06e9 08       		.uleb128 0x8
 1614 06ea 723600   		.ascii	"r6\000"
 1615 06ed 0D       		.byte	0xd
 1616 06ee 0901     		.2byte	0x109
 1617 06f0 96060000 		.4byte	0x696
 1618 06f4 08       		.byte	0x8
 1619 06f5 08       		.uleb128 0x8
 1620 06f6 723700   		.ascii	"r7\000"
 1621 06f9 0D       		.byte	0xd
 1622 06fa 0A01     		.2byte	0x10a
 1623 06fc 96060000 		.4byte	0x696
 1624 0700 0C       		.byte	0xc
 1625 0701 08       		.uleb128 0x8
 1626 0702 723800   		.ascii	"r8\000"
 1627 0705 0D       		.byte	0xd
 1628 0706 0B01     		.2byte	0x10b
 1629 0708 96060000 		.4byte	0x696
 1630 070c 10       		.byte	0x10
 1631 070d 08       		.uleb128 0x8
 1632 070e 723900   		.ascii	"r9\000"
 1633 0711 0D       		.byte	0xd
 1634 0712 0C01     		.2byte	0x10c
 1635 0714 96060000 		.4byte	0x696
 1636 0718 14       		.byte	0x14
 1637 0719 08       		.uleb128 0x8
 1638 071a 72313000 		.ascii	"r10\000"
 1639 071e 0D       		.byte	0xd
 1640 071f 0D01     		.2byte	0x10d
 1641 0721 96060000 		.4byte	0x696
 1642 0725 18       		.byte	0x18
 1643 0726 08       		.uleb128 0x8
 1644 0727 72313100 		.ascii	"r11\000"
 1645 072b 0D       		.byte	0xd
 1646 072c 0E01     		.2byte	0x10e
 1647 072e 96060000 		.4byte	0x696
 1648 0732 1C       		.byte	0x1c
 1649 0733 08       		.uleb128 0x8
ARM GAS  /tmp/ccojrVRM.s 			page 30


 1650 0734 6C7200   		.ascii	"lr\000"
 1651 0737 0D       		.byte	0xd
 1652 0738 0F01     		.2byte	0x10f
 1653 073a 96060000 		.4byte	0x696
 1654 073e 20       		.byte	0x20
 1655 073f 00       		.byte	0
 1656 0740 0A       		.uleb128 0xa
 1657 0741 04       		.byte	0x4
 1658 0742 C5060000 		.4byte	0x6c5
 1659 0746 15       		.uleb128 0x15
 1660 0747 04       		.byte	0x4
 1661 0748 0E       		.byte	0xe
 1662 0749 38       		.byte	0x38
 1663 074a 5B070000 		.4byte	0x75b
 1664 074e 07       		.uleb128 0x7
 1665 074f 5C080000 		.4byte	.LASF118
 1666 0753 0E       		.byte	0xe
 1667 0754 3C       		.byte	0x3c
 1668 0755 F1000000 		.4byte	0xf1
 1669 0759 00       		.byte	0
 1670 075a 00       		.byte	0
 1671 075b 03       		.uleb128 0x3
 1672 075c 5F050000 		.4byte	.LASF119
 1673 0760 0E       		.byte	0xe
 1674 0761 3D       		.byte	0x3d
 1675 0762 46070000 		.4byte	0x746
 1676 0766 16       		.uleb128 0x16
 1677 0767 04       		.byte	0x4
 1678 0768 0A       		.byte	0xa
 1679 0769 FA       		.byte	0xfa
 1680 076a C3070000 		.4byte	0x7c3
 1681 076e 17       		.uleb128 0x17
 1682 076f 25000000 		.4byte	.LASF120
 1683 0773 0A       		.byte	0xa
 1684 0774 0101     		.2byte	0x101
 1685 0776 28010000 		.4byte	0x128
 1686 077a 17       		.uleb128 0x17
 1687 077b 8E010000 		.4byte	.LASF121
 1688 077f 0A       		.byte	0xa
 1689 0780 0801     		.2byte	0x108
 1690 0782 28010000 		.4byte	0x128
 1691 0786 17       		.uleb128 0x17
 1692 0787 5B040000 		.4byte	.LASF122
 1693 078b 0A       		.byte	0xa
 1694 078c 0F01     		.2byte	0x10f
 1695 078e 3F030000 		.4byte	0x33f
 1696 0792 17       		.uleb128 0x17
 1697 0793 26050000 		.4byte	.LASF123
 1698 0797 0A       		.byte	0xa
 1699 0798 1601     		.2byte	0x116
 1700 079a C3070000 		.4byte	0x7c3
 1701 079e 17       		.uleb128 0x17
 1702 079f BE030000 		.4byte	.LASF124
 1703 07a3 0A       		.byte	0xa
 1704 07a4 1E01     		.2byte	0x11e
 1705 07a6 EE070000 		.4byte	0x7ee
 1706 07aa 17       		.uleb128 0x17
ARM GAS  /tmp/ccojrVRM.s 			page 31


 1707 07ab 68070000 		.4byte	.LASF125
 1708 07af 0A       		.byte	0xa
 1709 07b0 2701     		.2byte	0x127
 1710 07b2 25080000 		.4byte	0x825
 1711 07b6 17       		.uleb128 0x17
 1712 07b7 E3060000 		.4byte	.LASF126
 1713 07bb 0A       		.byte	0xa
 1714 07bc 2F01     		.2byte	0x12f
 1715 07be 33010000 		.4byte	0x133
 1716 07c2 00       		.byte	0
 1717 07c3 0A       		.uleb128 0xa
 1718 07c4 04       		.byte	0x4
 1719 07c5 57020000 		.4byte	0x257
 1720 07c9 06       		.uleb128 0x6
 1721 07ca 33070000 		.4byte	.LASF127
 1722 07ce 0C       		.byte	0xc
 1723 07cf 0F       		.byte	0xf
 1724 07d0 34       		.byte	0x34
 1725 07d1 EE070000 		.4byte	0x7ee
 1726 07d5 07       		.uleb128 0x7
 1727 07d6 86010000 		.4byte	.LASF128
 1728 07da 0F       		.byte	0xf
 1729 07db 35       		.byte	0x35
 1730 07dc 8C020000 		.4byte	0x28c
 1731 07e0 00       		.byte	0
 1732 07e1 07       		.uleb128 0x7
 1733 07e2 E8030000 		.4byte	.LASF129
 1734 07e6 0F       		.byte	0xf
 1735 07e7 37       		.byte	0x37
 1736 07e8 49010000 		.4byte	0x149
 1737 07ec 08       		.byte	0x8
 1738 07ed 00       		.byte	0
 1739 07ee 0A       		.uleb128 0xa
 1740 07ef 04       		.byte	0x4
 1741 07f0 C9070000 		.4byte	0x7c9
 1742 07f4 06       		.uleb128 0x6
 1743 07f5 04090000 		.4byte	.LASF130
 1744 07f9 10       		.byte	0x10
 1745 07fa 10       		.byte	0x10
 1746 07fb 39       		.byte	0x39
 1747 07fc 25080000 		.4byte	0x825
 1748 0800 07       		.uleb128 0x7
 1749 0801 5A020000 		.4byte	.LASF131
 1750 0805 10       		.byte	0x10
 1751 0806 3A       		.byte	0x3a
 1752 0807 8C020000 		.4byte	0x28c
 1753 080b 00       		.byte	0
 1754 080c 07       		.uleb128 0x7
 1755 080d 97090000 		.4byte	.LASF132
 1756 0811 10       		.byte	0x10
 1757 0812 3C       		.byte	0x3c
 1758 0813 62020000 		.4byte	0x262
 1759 0817 08       		.byte	0x8
 1760 0818 07       		.uleb128 0x7
 1761 0819 14080000 		.4byte	.LASF133
 1762 081d 10       		.byte	0x10
 1763 081e 3E       		.byte	0x3e
ARM GAS  /tmp/ccojrVRM.s 			page 32


 1764 081f 63080000 		.4byte	0x863
 1765 0823 0C       		.byte	0xc
 1766 0824 00       		.byte	0
 1767 0825 0A       		.uleb128 0xa
 1768 0826 04       		.byte	0x4
 1769 0827 F4070000 		.4byte	0x7f4
 1770 082b 0A       		.uleb128 0xa
 1771 082c 04       		.byte	0x4
 1772 082d 38080000 		.4byte	0x838
 1773 0831 04       		.uleb128 0x4
 1774 0832 01       		.byte	0x1
 1775 0833 08       		.byte	0x8
 1776 0834 C6070000 		.4byte	.LASF134
 1777 0838 18       		.uleb128 0x18
 1778 0839 31080000 		.4byte	0x831
 1779 083d 0A       		.uleb128 0xa
 1780 083e 04       		.byte	0x4
 1781 083f 41030000 		.4byte	0x341
 1782 0843 05       		.uleb128 0x5
 1783 0844 2B080000 		.4byte	0x82b
 1784 0848 10       		.uleb128 0x10
 1785 0849 A1060000 		.4byte	0x6a1
 1786 084d 58080000 		.4byte	0x858
 1787 0851 11       		.uleb128 0x11
 1788 0852 75040000 		.4byte	0x475
 1789 0856 1A       		.byte	0x1a
 1790 0857 00       		.byte	0
 1791 0858 03       		.uleb128 0x3
 1792 0859 1A020000 		.4byte	.LASF135
 1793 085d 10       		.byte	0x10
 1794 085e 34       		.byte	0x34
 1795 085f F4070000 		.4byte	0x7f4
 1796 0863 0A       		.uleb128 0xa
 1797 0864 04       		.byte	0x4
 1798 0865 58080000 		.4byte	0x858
 1799 0869 03       		.uleb128 0x3
 1800 086a 6B080000 		.4byte	.LASF136
 1801 086e 11       		.byte	0x11
 1802 086f 34       		.byte	0x34
 1803 0870 74080000 		.4byte	0x874
 1804 0874 06       		.uleb128 0x6
 1805 0875 B7090000 		.4byte	.LASF137
 1806 0879 14       		.byte	0x14
 1807 087a 11       		.byte	0x11
 1808 087b 39       		.byte	0x39
 1809 087c BD080000 		.4byte	0x8bd
 1810 0880 07       		.uleb128 0x7
 1811 0881 F2060000 		.4byte	.LASF138
 1812 0885 11       		.byte	0x11
 1813 0886 3A       		.byte	0x3a
 1814 0887 BD080000 		.4byte	0x8bd
 1815 088b 00       		.byte	0
 1816 088c 07       		.uleb128 0x7
 1817 088d 90060000 		.4byte	.LASF139
 1818 0891 11       		.byte	0x11
 1819 0892 3D       		.byte	0x3d
 1820 0893 62020000 		.4byte	0x262
ARM GAS  /tmp/ccojrVRM.s 			page 33


 1821 0897 04       		.byte	0x4
 1822 0898 07       		.uleb128 0x7
 1823 0899 83050000 		.4byte	.LASF140
 1824 089d 11       		.byte	0x11
 1825 089e 3F       		.byte	0x3f
 1826 089f 33010000 		.4byte	0x133
 1827 08a3 08       		.byte	0x8
 1828 08a4 07       		.uleb128 0x7
 1829 08a5 A9060000 		.4byte	.LASF141
 1830 08a9 11       		.byte	0x11
 1831 08aa 41       		.byte	0x41
 1832 08ab 3E010000 		.4byte	0x13e
 1833 08af 0C       		.byte	0xc
 1834 08b0 07       		.uleb128 0x7
 1835 08b1 1C040000 		.4byte	.LASF142
 1836 08b5 11       		.byte	0x11
 1837 08b6 43       		.byte	0x43
 1838 08b7 3E010000 		.4byte	0x13e
 1839 08bb 10       		.byte	0x10
 1840 08bc 00       		.byte	0
 1841 08bd 0A       		.uleb128 0xa
 1842 08be 04       		.byte	0x4
 1843 08bf 69080000 		.4byte	0x869
 1844 08c3 06       		.uleb128 0x6
 1845 08c4 29090000 		.4byte	.LASF143
 1846 08c8 04       		.byte	0x4
 1847 08c9 11       		.byte	0x11
 1848 08ca 4A       		.byte	0x4a
 1849 08cb DC080000 		.4byte	0x8dc
 1850 08cf 07       		.uleb128 0x7
 1851 08d0 0D090000 		.4byte	.LASF144
 1852 08d4 11       		.byte	0x11
 1853 08d5 4B       		.byte	0x4b
 1854 08d6 BD080000 		.4byte	0x8bd
 1855 08da 00       		.byte	0
 1856 08db 00       		.byte	0
 1857 08dc 03       		.uleb128 0x3
 1858 08dd 66030000 		.4byte	.LASF145
 1859 08e1 11       		.byte	0x11
 1860 08e2 4E       		.byte	0x4e
 1861 08e3 C3080000 		.4byte	0x8c3
 1862 08e7 03       		.uleb128 0x3
 1863 08e8 D7010000 		.4byte	.LASF146
 1864 08ec 04       		.byte	0x4
 1865 08ed 3F       		.byte	0x3f
 1866 08ee F2080000 		.4byte	0x8f2
 1867 08f2 06       		.uleb128 0x6
 1868 08f3 5D030000 		.4byte	.LASF147
 1869 08f7 24       		.byte	0x24
 1870 08f8 04       		.byte	0x4
 1871 08f9 4D       		.byte	0x4d
 1872 08fa 5F090000 		.4byte	0x95f
 1873 08fe 07       		.uleb128 0x7
 1874 08ff 10020000 		.4byte	.LASF148
 1875 0903 04       		.byte	0x4
 1876 0904 4E       		.byte	0x4e
 1877 0905 8C020000 		.4byte	0x28c
ARM GAS  /tmp/ccojrVRM.s 			page 34


 1878 0909 00       		.byte	0
 1879 090a 07       		.uleb128 0x7
 1880 090b 1C050000 		.4byte	.LASF149
 1881 090f 04       		.byte	0x4
 1882 0910 4F       		.byte	0x4f
 1883 0911 28000000 		.4byte	0x28
 1884 0915 08       		.byte	0x8
 1885 0916 07       		.uleb128 0x7
 1886 0917 C9020000 		.4byte	.LASF150
 1887 091b 04       		.byte	0x4
 1888 091c 50       		.byte	0x50
 1889 091d 81090000 		.4byte	0x981
 1890 0921 0C       		.byte	0xc
 1891 0922 07       		.uleb128 0x7
 1892 0923 FE080000 		.4byte	.LASF151
 1893 0927 04       		.byte	0x4
 1894 0928 51       		.byte	0x51
 1895 0929 81090000 		.4byte	0x981
 1896 092d 10       		.byte	0x10
 1897 092e 07       		.uleb128 0x7
 1898 092f D2020000 		.4byte	.LASF152
 1899 0933 04       		.byte	0x4
 1900 0934 53       		.byte	0x53
 1901 0935 81090000 		.4byte	0x981
 1902 0939 14       		.byte	0x14
 1903 093a 07       		.uleb128 0x7
 1904 093b 48060000 		.4byte	.LASF153
 1905 093f 04       		.byte	0x4
 1906 0940 54       		.byte	0x54
 1907 0941 81090000 		.4byte	0x981
 1908 0945 18       		.byte	0x18
 1909 0946 07       		.uleb128 0x7
 1910 0947 1A090000 		.4byte	.LASF154
 1911 094b 04       		.byte	0x4
 1912 094c 55       		.byte	0x55
 1913 094d 5F090000 		.4byte	0x95f
 1914 0951 1C       		.byte	0x1c
 1915 0952 07       		.uleb128 0x7
 1916 0953 90090000 		.4byte	.LASF155
 1917 0957 04       		.byte	0x4
 1918 0958 56       		.byte	0x56
 1919 0959 3F030000 		.4byte	0x33f
 1920 095d 20       		.byte	0x20
 1921 095e 00       		.byte	0
 1922 095f 03       		.uleb128 0x3
 1923 0960 95040000 		.4byte	.LASF156
 1924 0964 04       		.byte	0x4
 1925 0965 42       		.byte	0x42
 1926 0966 6A090000 		.4byte	0x96a
 1927 096a 0A       		.uleb128 0xa
 1928 096b 04       		.byte	0x4
 1929 096c 70090000 		.4byte	0x970
 1930 0970 0C       		.uleb128 0xc
 1931 0971 7B090000 		.4byte	0x97b
 1932 0975 0D       		.uleb128 0xd
 1933 0976 7B090000 		.4byte	0x97b
 1934 097a 00       		.byte	0
ARM GAS  /tmp/ccojrVRM.s 			page 35


 1935 097b 0A       		.uleb128 0xa
 1936 097c 04       		.byte	0x4
 1937 097d E7080000 		.4byte	0x8e7
 1938 0981 0A       		.uleb128 0xa
 1939 0982 04       		.byte	0x4
 1940 0983 B0000000 		.4byte	0xb0
 1941 0987 03       		.uleb128 0x3
 1942 0988 64000000 		.4byte	.LASF157
 1943 098c 04       		.byte	0x4
 1944 098d 64       		.byte	0x64
 1945 098e E7080000 		.4byte	0x8e7
 1946 0992 03       		.uleb128 0x3
 1947 0993 E9080000 		.4byte	.LASF158
 1948 0997 04       		.byte	0x4
 1949 0998 71       		.byte	0x71
 1950 0999 E7080000 		.4byte	0x8e7
 1951 099d 19       		.uleb128 0x19
 1952 099e 28000000 		.4byte	0x28
 1953 09a2 B6090000 		.4byte	0x9b6
 1954 09a6 0D       		.uleb128 0xd
 1955 09a7 3F030000 		.4byte	0x33f
 1956 09ab 0D       		.uleb128 0xd
 1957 09ac B6090000 		.4byte	0x9b6
 1958 09b0 0D       		.uleb128 0xd
 1959 09b1 28000000 		.4byte	0x28
 1960 09b5 00       		.byte	0
 1961 09b6 0A       		.uleb128 0xa
 1962 09b7 04       		.byte	0x4
 1963 09b8 BC090000 		.4byte	0x9bc
 1964 09bc 18       		.uleb128 0x18
 1965 09bd B0000000 		.4byte	0xb0
 1966 09c1 0A       		.uleb128 0xa
 1967 09c2 04       		.byte	0x4
 1968 09c3 9D090000 		.4byte	0x99d
 1969 09c7 19       		.uleb128 0x19
 1970 09c8 28000000 		.4byte	0x28
 1971 09cc E0090000 		.4byte	0x9e0
 1972 09d0 0D       		.uleb128 0xd
 1973 09d1 3F030000 		.4byte	0x33f
 1974 09d5 0D       		.uleb128 0xd
 1975 09d6 81090000 		.4byte	0x981
 1976 09da 0D       		.uleb128 0xd
 1977 09db 28000000 		.4byte	0x28
 1978 09df 00       		.byte	0
 1979 09e0 0A       		.uleb128 0xa
 1980 09e1 04       		.byte	0x4
 1981 09e2 C7090000 		.4byte	0x9c7
 1982 09e6 19       		.uleb128 0x19
 1983 09e7 28010000 		.4byte	0x128
 1984 09eb FA090000 		.4byte	0x9fa
 1985 09ef 0D       		.uleb128 0xd
 1986 09f0 3F030000 		.4byte	0x33f
 1987 09f4 0D       		.uleb128 0xd
 1988 09f5 B0000000 		.4byte	0xb0
 1989 09f9 00       		.byte	0
 1990 09fa 0A       		.uleb128 0xa
 1991 09fb 04       		.byte	0x4
ARM GAS  /tmp/ccojrVRM.s 			page 36


 1992 09fc E6090000 		.4byte	0x9e6
 1993 0a00 19       		.uleb128 0x19
 1994 0a01 28010000 		.4byte	0x128
 1995 0a05 0F0A0000 		.4byte	0xa0f
 1996 0a09 0D       		.uleb128 0xd
 1997 0a0a 3F030000 		.4byte	0x33f
 1998 0a0e 00       		.byte	0
 1999 0a0f 0A       		.uleb128 0xa
 2000 0a10 04       		.byte	0x4
 2001 0a11 000A0000 		.4byte	0xa00
 2002 0a15 19       		.uleb128 0x19
 2003 0a16 28010000 		.4byte	0x128
 2004 0a1a 2E0A0000 		.4byte	0xa2e
 2005 0a1e 0D       		.uleb128 0xd
 2006 0a1f 3F030000 		.4byte	0x33f
 2007 0a23 0D       		.uleb128 0xd
 2008 0a24 B0000000 		.4byte	0xb0
 2009 0a28 0D       		.uleb128 0xd
 2010 0a29 54010000 		.4byte	0x154
 2011 0a2d 00       		.byte	0
 2012 0a2e 0A       		.uleb128 0xa
 2013 0a2f 04       		.byte	0x4
 2014 0a30 150A0000 		.4byte	0xa15
 2015 0a34 19       		.uleb128 0x19
 2016 0a35 28010000 		.4byte	0x128
 2017 0a39 480A0000 		.4byte	0xa48
 2018 0a3d 0D       		.uleb128 0xd
 2019 0a3e 3F030000 		.4byte	0x33f
 2020 0a42 0D       		.uleb128 0xd
 2021 0a43 54010000 		.4byte	0x154
 2022 0a47 00       		.byte	0
 2023 0a48 0A       		.uleb128 0xa
 2024 0a49 04       		.byte	0x4
 2025 0a4a 340A0000 		.4byte	0xa34
 2026 0a4e 19       		.uleb128 0x19
 2027 0a4f 28000000 		.4byte	0x28
 2028 0a53 6C0A0000 		.4byte	0xa6c
 2029 0a57 0D       		.uleb128 0xd
 2030 0a58 3F030000 		.4byte	0x33f
 2031 0a5c 0D       		.uleb128 0xd
 2032 0a5d B6090000 		.4byte	0x9b6
 2033 0a61 0D       		.uleb128 0xd
 2034 0a62 28000000 		.4byte	0x28
 2035 0a66 0D       		.uleb128 0xd
 2036 0a67 54010000 		.4byte	0x154
 2037 0a6b 00       		.byte	0
 2038 0a6c 0A       		.uleb128 0xa
 2039 0a6d 04       		.byte	0x4
 2040 0a6e 4E0A0000 		.4byte	0xa4e
 2041 0a72 19       		.uleb128 0x19
 2042 0a73 28000000 		.4byte	0x28
 2043 0a77 900A0000 		.4byte	0xa90
 2044 0a7b 0D       		.uleb128 0xd
 2045 0a7c 3F030000 		.4byte	0x33f
 2046 0a80 0D       		.uleb128 0xd
 2047 0a81 81090000 		.4byte	0x981
 2048 0a85 0D       		.uleb128 0xd
ARM GAS  /tmp/ccojrVRM.s 			page 37


 2049 0a86 28000000 		.4byte	0x28
 2050 0a8a 0D       		.uleb128 0xd
 2051 0a8b 54010000 		.4byte	0x154
 2052 0a8f 00       		.byte	0
 2053 0a90 0A       		.uleb128 0xa
 2054 0a91 04       		.byte	0x4
 2055 0a92 720A0000 		.4byte	0xa72
 2056 0a96 04       		.uleb128 0x4
 2057 0a97 01       		.byte	0x1
 2058 0a98 02       		.byte	0x2
 2059 0a99 67060000 		.4byte	.LASF159
 2060 0a9d 1A       		.uleb128 0x1a
 2061 0a9e 01       		.byte	0x1
 2062 0a9f 5A000000 		.4byte	0x5a
 2063 0aa3 12       		.byte	0x12
 2064 0aa4 55       		.byte	0x55
 2065 0aa5 BC0A0000 		.4byte	0xabc
 2066 0aa9 1B       		.uleb128 0x1b
 2067 0aaa 4B070000 		.4byte	.LASF160
 2068 0aae 00       		.byte	0
 2069 0aaf 1B       		.uleb128 0x1b
 2070 0ab0 FA060000 		.4byte	.LASF161
 2071 0ab4 01       		.byte	0x1
 2072 0ab5 1B       		.uleb128 0x1b
 2073 0ab6 CC080000 		.4byte	.LASF162
 2074 0aba 02       		.byte	0x2
 2075 0abb 00       		.byte	0
 2076 0abc 03       		.uleb128 0x3
 2077 0abd 9F090000 		.4byte	.LASF163
 2078 0ac1 12       		.byte	0x12
 2079 0ac2 59       		.byte	0x59
 2080 0ac3 9D0A0000 		.4byte	0xa9d
 2081 0ac7 03       		.uleb128 0x3
 2082 0ac8 90070000 		.4byte	.LASF164
 2083 0acc 12       		.byte	0x12
 2084 0acd 5E       		.byte	0x5e
 2085 0ace D20A0000 		.4byte	0xad2
 2086 0ad2 06       		.uleb128 0x6
 2087 0ad3 90070000 		.4byte	.LASF164
 2088 0ad7 78       		.byte	0x78
 2089 0ad8 12       		.byte	0x12
 2090 0ad9 78       		.byte	0x78
 2091 0ada 3D0B0000 		.4byte	0xb3d
 2092 0ade 14       		.uleb128 0x14
 2093 0adf 766D7400 		.ascii	"vmt\000"
 2094 0ae3 12       		.byte	0x12
 2095 0ae4 7A       		.byte	0x7a
 2096 0ae5 EE0B0000 		.4byte	0xbee
 2097 0ae9 00       		.byte	0
 2098 0aea 07       		.uleb128 0x7
 2099 0aeb EE030000 		.4byte	.LASF165
 2100 0aef 12       		.byte	0x12
 2101 0af0 7B       		.byte	0x7b
 2102 0af1 DC080000 		.4byte	0x8dc
 2103 0af5 04       		.byte	0x4
 2104 0af6 07       		.uleb128 0x7
 2105 0af7 84020000 		.4byte	.LASF166
ARM GAS  /tmp/ccojrVRM.s 			page 38


 2106 0afb 12       		.byte	0x12
 2107 0afc 7B       		.byte	0x7b
 2108 0afd BC0A0000 		.4byte	0xabc
 2109 0b01 08       		.byte	0x8
 2110 0b02 07       		.uleb128 0x7
 2111 0b03 C5030000 		.4byte	.LASF167
 2112 0b07 12       		.byte	0x12
 2113 0b08 7B       		.byte	0x7b
 2114 0b09 87090000 		.4byte	0x987
 2115 0b0d 0C       		.byte	0xc
 2116 0b0e 07       		.uleb128 0x7
 2117 0b0f 2C040000 		.4byte	.LASF168
 2118 0b13 12       		.byte	0x12
 2119 0b14 7B       		.byte	0x7b
 2120 0b15 92090000 		.4byte	0x992
 2121 0b19 30       		.byte	0x30
 2122 0b1a 14       		.uleb128 0x14
 2123 0b1b 696200   		.ascii	"ib\000"
 2124 0b1e 12       		.byte	0x12
 2125 0b1f 7B       		.byte	0x7b
 2126 0b20 F90B0000 		.4byte	0xbf9
 2127 0b24 54       		.byte	0x54
 2128 0b25 14       		.uleb128 0x14
 2129 0b26 6F6200   		.ascii	"ob\000"
 2130 0b29 12       		.byte	0x12
 2131 0b2a 7B       		.byte	0x7b
 2132 0b2b F90B0000 		.4byte	0xbf9
 2133 0b2f 64       		.byte	0x64
 2134 0b30 07       		.uleb128 0x7
 2135 0b31 8A030000 		.4byte	.LASF169
 2136 0b35 12       		.byte	0x12
 2137 0b36 7B       		.byte	0x7b
 2138 0b37 090C0000 		.4byte	0xc09
 2139 0b3b 74       		.byte	0x74
 2140 0b3c 00       		.byte	0
 2141 0b3d 15       		.uleb128 0x15
 2142 0b3e 0C       		.byte	0xc
 2143 0b3f 13       		.byte	0x13
 2144 0b40 D7       		.byte	0xd7
 2145 0b41 760B0000 		.4byte	0xb76
 2146 0b45 07       		.uleb128 0x7
 2147 0b46 86040000 		.4byte	.LASF170
 2148 0b4a 13       		.byte	0x13
 2149 0b4b DB       		.byte	0xdb
 2150 0b4c D1000000 		.4byte	0xd1
 2151 0b50 00       		.byte	0
 2152 0b51 14       		.uleb128 0x14
 2153 0b52 63723100 		.ascii	"cr1\000"
 2154 0b56 13       		.byte	0x13
 2155 0b57 E0       		.byte	0xe0
 2156 0b58 BB000000 		.4byte	0xbb
 2157 0b5c 04       		.byte	0x4
 2158 0b5d 14       		.uleb128 0x14
 2159 0b5e 63723200 		.ascii	"cr2\000"
 2160 0b62 13       		.byte	0x13
 2161 0b63 E4       		.byte	0xe4
 2162 0b64 BB000000 		.4byte	0xbb
ARM GAS  /tmp/ccojrVRM.s 			page 39


 2163 0b68 06       		.byte	0x6
 2164 0b69 14       		.uleb128 0x14
 2165 0b6a 63723300 		.ascii	"cr3\000"
 2166 0b6e 13       		.byte	0x13
 2167 0b6f E8       		.byte	0xe8
 2168 0b70 BB000000 		.4byte	0xbb
 2169 0b74 08       		.byte	0x8
 2170 0b75 00       		.byte	0
 2171 0b76 03       		.uleb128 0x3
 2172 0b77 8D050000 		.4byte	.LASF171
 2173 0b7b 13       		.byte	0x13
 2174 0b7c E9       		.byte	0xe9
 2175 0b7d 3D0B0000 		.4byte	0xb3d
 2176 0b81 06       		.uleb128 0x6
 2177 0b82 AE030000 		.4byte	.LASF172
 2178 0b86 20       		.byte	0x20
 2179 0b87 12       		.byte	0x12
 2180 0b88 6D       		.byte	0x6d
 2181 0b89 EE0B0000 		.4byte	0xbee
 2182 0b8d 07       		.uleb128 0x7
 2183 0b8e B9040000 		.4byte	.LASF173
 2184 0b92 12       		.byte	0x12
 2185 0b93 6E       		.byte	0x6e
 2186 0b94 C1090000 		.4byte	0x9c1
 2187 0b98 00       		.byte	0
 2188 0b99 07       		.uleb128 0x7
 2189 0b9a C1070000 		.4byte	.LASF174
 2190 0b9e 12       		.byte	0x12
 2191 0b9f 6E       		.byte	0x6e
 2192 0ba0 E0090000 		.4byte	0x9e0
 2193 0ba4 04       		.byte	0x4
 2194 0ba5 14       		.uleb128 0x14
 2195 0ba6 70757400 		.ascii	"put\000"
 2196 0baa 12       		.byte	0x12
 2197 0bab 6E       		.byte	0x6e
 2198 0bac FA090000 		.4byte	0x9fa
 2199 0bb0 08       		.byte	0x8
 2200 0bb1 14       		.uleb128 0x14
 2201 0bb2 67657400 		.ascii	"get\000"
 2202 0bb6 12       		.byte	0x12
 2203 0bb7 6E       		.byte	0x6e
 2204 0bb8 0F0A0000 		.4byte	0xa0f
 2205 0bbc 0C       		.byte	0xc
 2206 0bbd 07       		.uleb128 0x7
 2207 0bbe CF040000 		.4byte	.LASF175
 2208 0bc2 12       		.byte	0x12
 2209 0bc3 6E       		.byte	0x6e
 2210 0bc4 2E0A0000 		.4byte	0xa2e
 2211 0bc8 10       		.byte	0x10
 2212 0bc9 07       		.uleb128 0x7
 2213 0bca E3030000 		.4byte	.LASF176
 2214 0bce 12       		.byte	0x12
 2215 0bcf 6E       		.byte	0x6e
 2216 0bd0 480A0000 		.4byte	0xa48
 2217 0bd4 14       		.byte	0x14
 2218 0bd5 07       		.uleb128 0x7
 2219 0bd6 54040000 		.4byte	.LASF177
ARM GAS  /tmp/ccojrVRM.s 			page 40


 2220 0bda 12       		.byte	0x12
 2221 0bdb 6E       		.byte	0x6e
 2222 0bdc 6C0A0000 		.4byte	0xa6c
 2223 0be0 18       		.byte	0x18
 2224 0be1 07       		.uleb128 0x7
 2225 0be2 0A020000 		.4byte	.LASF178
 2226 0be6 12       		.byte	0x12
 2227 0be7 6E       		.byte	0x6e
 2228 0be8 900A0000 		.4byte	0xa90
 2229 0bec 1C       		.byte	0x1c
 2230 0bed 00       		.byte	0
 2231 0bee 0A       		.uleb128 0xa
 2232 0bef 04       		.byte	0x4
 2233 0bf0 F40B0000 		.4byte	0xbf4
 2234 0bf4 18       		.uleb128 0x18
 2235 0bf5 810B0000 		.4byte	0xb81
 2236 0bf9 10       		.uleb128 0x10
 2237 0bfa B0000000 		.4byte	0xb0
 2238 0bfe 090C0000 		.4byte	0xc09
 2239 0c02 11       		.uleb128 0x11
 2240 0c03 75040000 		.4byte	0x475
 2241 0c07 0F       		.byte	0xf
 2242 0c08 00       		.byte	0
 2243 0c09 0A       		.uleb128 0xa
 2244 0c0a 04       		.byte	0x4
 2245 0c0b 8A060000 		.4byte	0x68a
 2246 0c0f 0A       		.uleb128 0xa
 2247 0c10 04       		.byte	0x4
 2248 0c11 92090000 		.4byte	0x992
 2249 0c15 1C       		.uleb128 0x1c
 2250 0c16 44080000 		.4byte	.LASF185
 2251 0c1a 02       		.byte	0x2
 2252 0c1b 2002     		.2byte	0x220
 2253 0c1d 03       		.byte	0x3
 2254 0c1e 2F0C0000 		.4byte	0xc2f
 2255 0c22 1D       		.uleb128 0x1d
 2256 0c23 57030000 		.4byte	.LASF187
 2257 0c27 02       		.byte	0x2
 2258 0c28 2002     		.2byte	0x220
 2259 0c2a D1000000 		.4byte	0xd1
 2260 0c2e 00       		.byte	0
 2261 0c2f 1E       		.uleb128 0x1e
 2262 0c30 72000000 		.4byte	.LASF179
 2263 0c34 0D       		.byte	0xd
 2264 0c35 BC01     		.2byte	0x1bc
 2265 0c37 03       		.byte	0x3
 2266 0c38 1E       		.uleb128 0x1e
 2267 0c39 69020000 		.4byte	.LASF180
 2268 0c3d 0D       		.byte	0xd
 2269 0c3e CA01     		.2byte	0x1ca
 2270 0c40 03       		.byte	0x3
 2271 0c41 1E       		.uleb128 0x1e
 2272 0c42 B9080000 		.4byte	.LASF181
 2273 0c46 0D       		.byte	0xd
 2274 0c47 D901     		.2byte	0x1d9
 2275 0c49 03       		.byte	0x3
 2276 0c4a 1E       		.uleb128 0x1e
ARM GAS  /tmp/ccojrVRM.s 			page 41


 2277 0c4b F6070000 		.4byte	.LASF182
 2278 0c4f 0D       		.byte	0xd
 2279 0c50 E401     		.2byte	0x1e4
 2280 0c52 03       		.byte	0x3
 2281 0c53 1E       		.uleb128 0x1e
 2282 0c54 4B090000 		.4byte	.LASF183
 2283 0c58 14       		.byte	0x14
 2284 0c59 8201     		.2byte	0x182
 2285 0c5b 03       		.byte	0x3
 2286 0c5c 1E       		.uleb128 0x1e
 2287 0c5d FF020000 		.4byte	.LASF184
 2288 0c61 14       		.byte	0x14
 2289 0c62 9601     		.2byte	0x196
 2290 0c64 03       		.byte	0x3
 2291 0c65 1F       		.uleb128 0x1f
 2292 0c66 D4040000 		.4byte	.LASF186
 2293 0c6a 01       		.byte	0x1
 2294 0c6b 5B       		.byte	0x5b
 2295 0c6c 01       		.byte	0x1
 2296 0c6d 910C0000 		.4byte	0xc91
 2297 0c71 20       		.uleb128 0x20
 2298 0c72 73647000 		.ascii	"sdp\000"
 2299 0c76 01       		.byte	0x1
 2300 0c77 5B       		.byte	0x5b
 2301 0c78 910C0000 		.4byte	0xc91
 2302 0c7c 21       		.uleb128 0x21
 2303 0c7d DB070000 		.4byte	.LASF188
 2304 0c81 01       		.byte	0x1
 2305 0c82 5B       		.byte	0x5b
 2306 0c83 970C0000 		.4byte	0xc97
 2307 0c87 22       		.uleb128 0x22
 2308 0c88 7500     		.ascii	"u\000"
 2309 0c8a 01       		.byte	0x1
 2310 0c8b 5C       		.byte	0x5c
 2311 0c8c 090C0000 		.4byte	0xc09
 2312 0c90 00       		.byte	0
 2313 0c91 0A       		.uleb128 0xa
 2314 0c92 04       		.byte	0x4
 2315 0c93 C70A0000 		.4byte	0xac7
 2316 0c97 0A       		.uleb128 0xa
 2317 0c98 04       		.byte	0x4
 2318 0c99 9D0C0000 		.4byte	0xc9d
 2319 0c9d 18       		.uleb128 0x18
 2320 0c9e 760B0000 		.4byte	0xb76
 2321 0ca2 1C       		.uleb128 0x1c
 2322 0ca3 6D010000 		.4byte	.LASF189
 2323 0ca7 03       		.byte	0x3
 2324 0ca8 1B03     		.2byte	0x31b
 2325 0caa 03       		.byte	0x3
 2326 0cab C80C0000 		.4byte	0xcc8
 2327 0caf 23       		.uleb128 0x23
 2328 0cb0 65737000 		.ascii	"esp\000"
 2329 0cb4 03       		.byte	0x3
 2330 0cb5 1B03     		.2byte	0x31b
 2331 0cb7 C80C0000 		.4byte	0xcc8
 2332 0cbb 1D       		.uleb128 0x1d
 2333 0cbc 3E090000 		.4byte	.LASF190
ARM GAS  /tmp/ccojrVRM.s 			page 42


 2334 0cc0 03       		.byte	0x3
 2335 0cc1 1C03     		.2byte	0x31c
 2336 0cc3 3E010000 		.4byte	0x13e
 2337 0cc7 00       		.byte	0
 2338 0cc8 0A       		.uleb128 0xa
 2339 0cc9 04       		.byte	0x4
 2340 0cca DC080000 		.4byte	0x8dc
 2341 0cce 1E       		.uleb128 0x1e
 2342 0ccf C2010000 		.4byte	.LASF191
 2343 0cd3 03       		.byte	0x3
 2344 0cd4 DE01     		.2byte	0x1de
 2345 0cd6 03       		.byte	0x3
 2346 0cd7 1E       		.uleb128 0x1e
 2347 0cd8 37030000 		.4byte	.LASF192
 2348 0cdc 03       		.byte	0x3
 2349 0cdd D301     		.2byte	0x1d3
 2350 0cdf 03       		.byte	0x3
 2351 0ce0 24       		.uleb128 0x24
 2352 0ce1 64090000 		.4byte	.LASF210
 2353 0ce5 04       		.byte	0x4
 2354 0ce6 8201     		.2byte	0x182
 2355 0ce8 960A0000 		.4byte	0xa96
 2356 0cec 03       		.byte	0x3
 2357 0ced FE0C0000 		.4byte	0xcfe
 2358 0cf1 23       		.uleb128 0x23
 2359 0cf2 6F717000 		.ascii	"oqp\000"
 2360 0cf6 04       		.byte	0x4
 2361 0cf7 8201     		.2byte	0x182
 2362 0cf9 0F0C0000 		.4byte	0xc0f
 2363 0cfd 00       		.byte	0
 2364 0cfe 1F       		.uleb128 0x1f
 2365 0cff 4A030000 		.4byte	.LASF193
 2366 0d03 01       		.byte	0x1
 2367 0d04 79       		.byte	0x79
 2368 0d05 01       		.byte	0x1
 2369 0d06 140D0000 		.4byte	0xd14
 2370 0d0a 20       		.uleb128 0x20
 2371 0d0b 7500     		.ascii	"u\000"
 2372 0d0d 01       		.byte	0x1
 2373 0d0e 79       		.byte	0x79
 2374 0d0f 090C0000 		.4byte	0xc09
 2375 0d13 00       		.byte	0
 2376 0d14 1F       		.uleb128 0x1f
 2377 0d15 5A000000 		.4byte	.LASF194
 2378 0d19 01       		.byte	0x1
 2379 0d1a 86       		.byte	0x86
 2380 0d1b 01       		.byte	0x1
 2381 0d1c 410D0000 		.4byte	0xd41
 2382 0d20 20       		.uleb128 0x20
 2383 0d21 73647000 		.ascii	"sdp\000"
 2384 0d25 01       		.byte	0x1
 2385 0d26 86       		.byte	0x86
 2386 0d27 910C0000 		.4byte	0xc91
 2387 0d2b 20       		.uleb128 0x20
 2388 0d2c 737200   		.ascii	"sr\000"
 2389 0d2f 01       		.byte	0x1
 2390 0d30 86       		.byte	0x86
ARM GAS  /tmp/ccojrVRM.s 			page 43


 2391 0d31 BB000000 		.4byte	0xbb
 2392 0d35 22       		.uleb128 0x22
 2393 0d36 73747300 		.ascii	"sts\000"
 2394 0d3a 01       		.byte	0x1
 2395 0d3b 87       		.byte	0x87
 2396 0d3c 3E010000 		.4byte	0x13e
 2397 0d40 00       		.byte	0
 2398 0d41 1F       		.uleb128 0x1f
 2399 0d42 23070000 		.4byte	.LASF195
 2400 0d46 01       		.byte	0x1
 2401 0d47 99       		.byte	0x99
 2402 0d48 01       		.byte	0x1
 2403 0d49 910D0000 		.4byte	0xd91
 2404 0d4d 20       		.uleb128 0x20
 2405 0d4e 73647000 		.ascii	"sdp\000"
 2406 0d52 01       		.byte	0x1
 2407 0d53 99       		.byte	0x99
 2408 0d54 910C0000 		.4byte	0xc91
 2409 0d58 22       		.uleb128 0x22
 2410 0d59 7500     		.ascii	"u\000"
 2411 0d5b 01       		.byte	0x1
 2412 0d5c 9A       		.byte	0x9a
 2413 0d5d 090C0000 		.4byte	0xc09
 2414 0d61 22       		.uleb128 0x22
 2415 0d62 63723100 		.ascii	"cr1\000"
 2416 0d66 01       		.byte	0x1
 2417 0d67 9B       		.byte	0x9b
 2418 0d68 BB000000 		.4byte	0xbb
 2419 0d6c 22       		.uleb128 0x22
 2420 0d6d 737200   		.ascii	"sr\000"
 2421 0d70 01       		.byte	0x1
 2422 0d71 9C       		.byte	0x9c
 2423 0d72 BB000000 		.4byte	0xbb
 2424 0d76 25       		.uleb128 0x25
 2425 0d77 850D0000 		.4byte	0xd85
 2426 0d7b 22       		.uleb128 0x22
 2427 0d7c 6200     		.ascii	"b\000"
 2428 0d7e 01       		.byte	0x1
 2429 0d7f AA       		.byte	0xaa
 2430 0d80 B0000000 		.4byte	0xb0
 2431 0d84 00       		.byte	0
 2432 0d85 26       		.uleb128 0x26
 2433 0d86 22       		.uleb128 0x22
 2434 0d87 6200     		.ascii	"b\000"
 2435 0d89 01       		.byte	0x1
 2436 0d8a B8       		.byte	0xb8
 2437 0d8b 28010000 		.4byte	0x128
 2438 0d8f 00       		.byte	0
 2439 0d90 00       		.byte	0
 2440 0d91 27       		.uleb128 0x27
 2441 0d92 A5050000 		.4byte	.LASF211
 2442 0d96 01       		.byte	0x1
 2443 0d97 D8       		.byte	0xd8
 2444 0d98 00000000 		.4byte	.LFB262
 2445 0d9c 10000000 		.4byte	.LFE262-.LFB262
 2446 0da0 01       		.uleb128 0x1
 2447 0da1 9C       		.byte	0x9c
ARM GAS  /tmp/ccojrVRM.s 			page 44


 2448 0da2 B30D0000 		.4byte	0xdb3
 2449 0da6 28       		.uleb128 0x28
 2450 0da7 717000   		.ascii	"qp\000"
 2451 0daa 01       		.byte	0x1
 2452 0dab D8       		.byte	0xd8
 2453 0dac 7B090000 		.4byte	0x97b
 2454 0db0 01       		.uleb128 0x1
 2455 0db1 50       		.byte	0x50
 2456 0db2 00       		.byte	0
 2457 0db3 29       		.uleb128 0x29
 2458 0db4 8C040000 		.4byte	.LASF196
 2459 0db8 01       		.byte	0x1
 2460 0db9 1F01     		.2byte	0x11f
 2461 0dbb 00000000 		.4byte	.LFB263
 2462 0dbf 1C010000 		.4byte	.LFE263-.LFB263
 2463 0dc3 01       		.uleb128 0x1
 2464 0dc4 9C       		.byte	0x9c
 2465 0dc5 A0120000 		.4byte	0x12a0
 2466 0dc9 2A       		.uleb128 0x2a
 2467 0dca 410D0000 		.4byte	0xd41
 2468 0dce 02000000 		.4byte	.LBB232
 2469 0dd2 00000000 		.4byte	.Ldebug_ranges0+0
 2470 0dd6 01       		.byte	0x1
 2471 0dd7 2301     		.2byte	0x123
 2472 0dd9 96120000 		.4byte	0x1296
 2473 0ddd 2B       		.uleb128 0x2b
 2474 0dde 4D0D0000 		.4byte	0xd4d
 2475 0de2 00000000 		.4byte	.LLST0
 2476 0de6 2C       		.uleb128 0x2c
 2477 0de7 00000000 		.4byte	.Ldebug_ranges0+0
 2478 0deb 2D       		.uleb128 0x2d
 2479 0dec 580D0000 		.4byte	0xd58
 2480 0df0 28000000 		.4byte	.LLST1
 2481 0df4 2D       		.uleb128 0x2d
 2482 0df5 610D0000 		.4byte	0xd61
 2483 0df9 46000000 		.4byte	.LLST2
 2484 0dfd 2D       		.uleb128 0x2d
 2485 0dfe 6C0D0000 		.4byte	0xd6c
 2486 0e02 64000000 		.4byte	.LLST3
 2487 0e06 2E       		.uleb128 0x2e
 2488 0e07 D70C0000 		.4byte	0xcd7
 2489 0e0b 10000000 		.4byte	.LBB234
 2490 0e0f 06000000 		.4byte	.LBE234-.LBB234
 2491 0e13 01       		.byte	0x1
 2492 0e14 A7       		.byte	0xa7
 2493 0e15 670E0000 		.4byte	0xe67
 2494 0e19 2F       		.uleb128 0x2f
 2495 0e1a 530C0000 		.4byte	0xc53
 2496 0e1e 10000000 		.4byte	.LBB235
 2497 0e22 06000000 		.4byte	.LBE235-.LBB235
 2498 0e26 03       		.byte	0x3
 2499 0e27 D501     		.2byte	0x1d5
 2500 0e29 2F       		.uleb128 0x2f
 2501 0e2a 410C0000 		.4byte	0xc41
 2502 0e2e 10000000 		.4byte	.LBB236
 2503 0e32 06000000 		.4byte	.LBE236-.LBB236
 2504 0e36 14       		.byte	0x14
ARM GAS  /tmp/ccojrVRM.s 			page 45


 2505 0e37 8401     		.2byte	0x184
 2506 0e39 2F       		.uleb128 0x2f
 2507 0e3a 2F0C0000 		.4byte	0xc2f
 2508 0e3e 10000000 		.4byte	.LBB237
 2509 0e42 06000000 		.4byte	.LBE237-.LBB237
 2510 0e46 0D       		.byte	0xd
 2511 0e47 DB01     		.2byte	0x1db
 2512 0e49 2F       		.uleb128 0x2f
 2513 0e4a 150C0000 		.4byte	0xc15
 2514 0e4e 10000000 		.4byte	.LBB238
 2515 0e52 06000000 		.4byte	.LBE238-.LBB238
 2516 0e56 0D       		.byte	0xd
 2517 0e57 BF01     		.2byte	0x1bf
 2518 0e59 2B       		.uleb128 0x2b
 2519 0e5a 220C0000 		.4byte	0xc22
 2520 0e5e 98000000 		.4byte	.LLST4
 2521 0e62 00       		.byte	0
 2522 0e63 00       		.byte	0
 2523 0e64 00       		.byte	0
 2524 0e65 00       		.byte	0
 2525 0e66 00       		.byte	0
 2526 0e67 30       		.uleb128 0x30
 2527 0e68 18000000 		.4byte	.Ldebug_ranges0+0x18
 2528 0e6c F80E0000 		.4byte	0xef8
 2529 0e70 2D       		.uleb128 0x2d
 2530 0e71 7B0D0000 		.4byte	0xd7b
 2531 0e75 AD000000 		.4byte	.LLST5
 2532 0e79 2E       		.uleb128 0x2e
 2533 0e7a 140D0000 		.4byte	0xd14
 2534 0e7e 32000000 		.4byte	.LBB241
 2535 0e82 28000000 		.4byte	.LBE241-.LBB241
 2536 0e86 01       		.byte	0x1
 2537 0e87 AE       		.byte	0xae
 2538 0e88 E70E0000 		.4byte	0xee7
 2539 0e8c 2B       		.uleb128 0x2b
 2540 0e8d 200D0000 		.4byte	0xd20
 2541 0e91 CB000000 		.4byte	.LLST6
 2542 0e95 2B       		.uleb128 0x2b
 2543 0e96 2B0D0000 		.4byte	0xd2b
 2544 0e9a E3000000 		.4byte	.LLST7
 2545 0e9e 31       		.uleb128 0x31
 2546 0e9f 32000000 		.4byte	.LBB242
 2547 0ea3 28000000 		.4byte	.LBE242-.LBB242
 2548 0ea7 2D       		.uleb128 0x2d
 2549 0ea8 350D0000 		.4byte	0xd35
 2550 0eac F6000000 		.4byte	.LLST8
 2551 0eb0 32       		.uleb128 0x32
 2552 0eb1 A20C0000 		.4byte	0xca2
 2553 0eb5 54000000 		.4byte	.LBB243
 2554 0eb9 06000000 		.4byte	.LBE243-.LBB243
 2555 0ebd 01       		.byte	0x1
 2556 0ebe 91       		.byte	0x91
 2557 0ebf 2B       		.uleb128 0x2b
 2558 0ec0 BB0C0000 		.4byte	0xcbb
 2559 0ec4 15010000 		.4byte	.LLST9
 2560 0ec8 2B       		.uleb128 0x2b
 2561 0ec9 AF0C0000 		.4byte	0xcaf
ARM GAS  /tmp/ccojrVRM.s 			page 46


 2562 0ecd 28010000 		.4byte	.LLST10
 2563 0ed1 33       		.uleb128 0x33
 2564 0ed2 5A000000 		.4byte	.LVL16
 2565 0ed6 E5130000 		.4byte	0x13e5
 2566 0eda 34       		.uleb128 0x34
 2567 0edb 01       		.uleb128 0x1
 2568 0edc 50       		.byte	0x50
 2569 0edd 05       		.uleb128 0x5
 2570 0ede 03       		.byte	0x3
 2571 0edf 04000000 		.4byte	.LANCHOR0+4
 2572 0ee3 00       		.byte	0
 2573 0ee4 00       		.byte	0
 2574 0ee5 00       		.byte	0
 2575 0ee6 00       		.byte	0
 2576 0ee7 33       		.uleb128 0x33
 2577 0ee8 68000000 		.4byte	.LVL19
 2578 0eec F0130000 		.4byte	0x13f0
 2579 0ef0 34       		.uleb128 0x34
 2580 0ef1 01       		.uleb128 0x1
 2581 0ef2 50       		.byte	0x50
 2582 0ef3 02       		.uleb128 0x2
 2583 0ef4 76       		.byte	0x76
 2584 0ef5 00       		.sleb128 0
 2585 0ef6 00       		.byte	0
 2586 0ef7 00       		.byte	0
 2587 0ef8 2E       		.uleb128 0x2e
 2588 0ef9 CE0C0000 		.4byte	0xcce
 2589 0efd 72000000 		.4byte	.LBB246
 2590 0f01 06000000 		.4byte	.LBE246-.LBB246
 2591 0f05 01       		.byte	0x1
 2592 0f06 B4       		.byte	0xb4
 2593 0f07 590F0000 		.4byte	0xf59
 2594 0f0b 2F       		.uleb128 0x2f
 2595 0f0c 5C0C0000 		.4byte	0xc5c
 2596 0f10 72000000 		.4byte	.LBB247
 2597 0f14 06000000 		.4byte	.LBE247-.LBB247
 2598 0f18 03       		.byte	0x3
 2599 0f19 E001     		.2byte	0x1e0
 2600 0f1b 2F       		.uleb128 0x2f
 2601 0f1c 4A0C0000 		.4byte	0xc4a
 2602 0f20 72000000 		.4byte	.LBB248
 2603 0f24 06000000 		.4byte	.LBE248-.LBB248
 2604 0f28 14       		.byte	0x14
 2605 0f29 9A01     		.2byte	0x19a
 2606 0f2b 2F       		.uleb128 0x2f
 2607 0f2c 380C0000 		.4byte	0xc38
 2608 0f30 72000000 		.4byte	.LBB249
 2609 0f34 06000000 		.4byte	.LBE249-.LBB249
 2610 0f38 0D       		.byte	0xd
 2611 0f39 E601     		.2byte	0x1e6
 2612 0f3b 2F       		.uleb128 0x2f
 2613 0f3c 150C0000 		.4byte	0xc15
 2614 0f40 72000000 		.4byte	.LBB250
 2615 0f44 06000000 		.4byte	.LBE250-.LBB250
 2616 0f48 0D       		.byte	0xd
 2617 0f49 CD01     		.2byte	0x1cd
 2618 0f4b 2B       		.uleb128 0x2b
ARM GAS  /tmp/ccojrVRM.s 			page 47


 2619 0f4c 220C0000 		.4byte	0xc22
 2620 0f50 40010000 		.4byte	.LLST11
 2621 0f54 00       		.byte	0
 2622 0f55 00       		.byte	0
 2623 0f56 00       		.byte	0
 2624 0f57 00       		.byte	0
 2625 0f58 00       		.byte	0
 2626 0f59 2E       		.uleb128 0x2e
 2627 0f5a D70C0000 		.4byte	0xcd7
 2628 0f5e 84000000 		.4byte	.LBB252
 2629 0f62 06000000 		.4byte	.LBE252-.LBB252
 2630 0f66 01       		.byte	0x1
 2631 0f67 C6       		.byte	0xc6
 2632 0f68 BA0F0000 		.4byte	0xfba
 2633 0f6c 2F       		.uleb128 0x2f
 2634 0f6d 530C0000 		.4byte	0xc53
 2635 0f71 84000000 		.4byte	.LBB253
 2636 0f75 06000000 		.4byte	.LBE253-.LBB253
 2637 0f79 03       		.byte	0x3
 2638 0f7a D501     		.2byte	0x1d5
 2639 0f7c 2F       		.uleb128 0x2f
 2640 0f7d 410C0000 		.4byte	0xc41
 2641 0f81 84000000 		.4byte	.LBB254
 2642 0f85 06000000 		.4byte	.LBE254-.LBB254
 2643 0f89 14       		.byte	0x14
 2644 0f8a 8401     		.2byte	0x184
 2645 0f8c 2F       		.uleb128 0x2f
 2646 0f8d 2F0C0000 		.4byte	0xc2f
 2647 0f91 84000000 		.4byte	.LBB255
 2648 0f95 06000000 		.4byte	.LBE255-.LBB255
 2649 0f99 0D       		.byte	0xd
 2650 0f9a DB01     		.2byte	0x1db
 2651 0f9c 2F       		.uleb128 0x2f
 2652 0f9d 150C0000 		.4byte	0xc15
 2653 0fa1 84000000 		.4byte	.LBB256
 2654 0fa5 06000000 		.4byte	.LBE256-.LBB256
 2655 0fa9 0D       		.byte	0xd
 2656 0faa BF01     		.2byte	0x1bf
 2657 0fac 2B       		.uleb128 0x2b
 2658 0fad 220C0000 		.4byte	0xc22
 2659 0fb1 54010000 		.4byte	.LLST12
 2660 0fb5 00       		.byte	0
 2661 0fb6 00       		.byte	0
 2662 0fb7 00       		.byte	0
 2663 0fb8 00       		.byte	0
 2664 0fb9 00       		.byte	0
 2665 0fba 35       		.uleb128 0x35
 2666 0fbb E00C0000 		.4byte	0xce0
 2667 0fbf 8A000000 		.4byte	.LBB258
 2668 0fc3 30000000 		.4byte	.Ldebug_ranges0+0x30
 2669 0fc7 01       		.byte	0x1
 2670 0fc8 C7       		.byte	0xc7
 2671 0fc9 D70F0000 		.4byte	0xfd7
 2672 0fcd 2B       		.uleb128 0x2b
 2673 0fce F10C0000 		.4byte	0xcf1
 2674 0fd2 69010000 		.4byte	.LLST13
 2675 0fd6 00       		.byte	0
ARM GAS  /tmp/ccojrVRM.s 			page 48


 2676 0fd7 35       		.uleb128 0x35
 2677 0fd8 CE0C0000 		.4byte	0xcce
 2678 0fdc A0000000 		.4byte	.LBB261
 2679 0fe0 48000000 		.4byte	.Ldebug_ranges0+0x48
 2680 0fe4 01       		.byte	0x1
 2681 0fe5 CB       		.byte	0xcb
 2682 0fe6 38100000 		.4byte	0x1038
 2683 0fea 36       		.uleb128 0x36
 2684 0feb 5C0C0000 		.4byte	0xc5c
 2685 0fef A0000000 		.4byte	.LBB262
 2686 0ff3 48000000 		.4byte	.Ldebug_ranges0+0x48
 2687 0ff7 03       		.byte	0x3
 2688 0ff8 E001     		.2byte	0x1e0
 2689 0ffa 36       		.uleb128 0x36
 2690 0ffb 4A0C0000 		.4byte	0xc4a
 2691 0fff A0000000 		.4byte	.LBB263
 2692 1003 48000000 		.4byte	.Ldebug_ranges0+0x48
 2693 1007 14       		.byte	0x14
 2694 1008 9A01     		.2byte	0x19a
 2695 100a 36       		.uleb128 0x36
 2696 100b 380C0000 		.4byte	0xc38
 2697 100f A0000000 		.4byte	.LBB264
 2698 1013 48000000 		.4byte	.Ldebug_ranges0+0x48
 2699 1017 0D       		.byte	0xd
 2700 1018 E601     		.2byte	0x1e6
 2701 101a 36       		.uleb128 0x36
 2702 101b 150C0000 		.4byte	0xc15
 2703 101f A0000000 		.4byte	.LBB265
 2704 1023 48000000 		.4byte	.Ldebug_ranges0+0x48
 2705 1027 0D       		.byte	0xd
 2706 1028 CD01     		.2byte	0x1cd
 2707 102a 2B       		.uleb128 0x2b
 2708 102b 220C0000 		.4byte	0xc22
 2709 102f 91010000 		.4byte	.LLST14
 2710 1033 00       		.byte	0
 2711 1034 00       		.byte	0
 2712 1035 00       		.byte	0
 2713 1036 00       		.byte	0
 2714 1037 00       		.byte	0
 2715 1038 2E       		.uleb128 0x2e
 2716 1039 D70C0000 		.4byte	0xcd7
 2717 103d B0000000 		.4byte	.LBB273
 2718 1041 06000000 		.4byte	.LBE273-.LBB273
 2719 1045 01       		.byte	0x1
 2720 1046 A0       		.byte	0xa0
 2721 1047 99100000 		.4byte	0x1099
 2722 104b 2F       		.uleb128 0x2f
 2723 104c 530C0000 		.4byte	0xc53
 2724 1050 B0000000 		.4byte	.LBB274
 2725 1054 06000000 		.4byte	.LBE274-.LBB274
 2726 1058 03       		.byte	0x3
 2727 1059 D501     		.2byte	0x1d5
 2728 105b 2F       		.uleb128 0x2f
 2729 105c 410C0000 		.4byte	0xc41
 2730 1060 B0000000 		.4byte	.LBB275
 2731 1064 06000000 		.4byte	.LBE275-.LBB275
 2732 1068 14       		.byte	0x14
ARM GAS  /tmp/ccojrVRM.s 			page 49


 2733 1069 8401     		.2byte	0x184
 2734 106b 2F       		.uleb128 0x2f
 2735 106c 2F0C0000 		.4byte	0xc2f
 2736 1070 B0000000 		.4byte	.LBB276
 2737 1074 06000000 		.4byte	.LBE276-.LBB276
 2738 1078 0D       		.byte	0xd
 2739 1079 DB01     		.2byte	0x1db
 2740 107b 2F       		.uleb128 0x2f
 2741 107c 150C0000 		.4byte	0xc15
 2742 1080 B0000000 		.4byte	.LBB277
 2743 1084 06000000 		.4byte	.LBE277-.LBB277
 2744 1088 0D       		.byte	0xd
 2745 1089 BF01     		.2byte	0x1bf
 2746 108b 2B       		.uleb128 0x2b
 2747 108c 220C0000 		.4byte	0xc22
 2748 1090 A5010000 		.4byte	.LLST15
 2749 1094 00       		.byte	0
 2750 1095 00       		.byte	0
 2751 1096 00       		.byte	0
 2752 1097 00       		.byte	0
 2753 1098 00       		.byte	0
 2754 1099 2E       		.uleb128 0x2e
 2755 109a A20C0000 		.4byte	0xca2
 2756 109e B6000000 		.4byte	.LBB279
 2757 10a2 0A000000 		.4byte	.LBE279-.LBB279
 2758 10a6 01       		.byte	0x1
 2759 10a7 A1       		.byte	0xa1
 2760 10a8 D6100000 		.4byte	0x10d6
 2761 10ac 2B       		.uleb128 0x2b
 2762 10ad BB0C0000 		.4byte	0xcbb
 2763 10b1 BA010000 		.4byte	.LLST16
 2764 10b5 2B       		.uleb128 0x2b
 2765 10b6 AF0C0000 		.4byte	0xcaf
 2766 10ba D0010000 		.4byte	.LLST17
 2767 10be 33       		.uleb128 0x33
 2768 10bf C0000000 		.4byte	.LVL32
 2769 10c3 E5130000 		.4byte	0x13e5
 2770 10c7 34       		.uleb128 0x34
 2771 10c8 01       		.uleb128 0x1
 2772 10c9 50       		.byte	0x50
 2773 10ca 02       		.uleb128 0x2
 2774 10cb 76       		.byte	0x76
 2775 10cc 04       		.sleb128 4
 2776 10cd 34       		.uleb128 0x34
 2777 10ce 01       		.uleb128 0x1
 2778 10cf 51       		.byte	0x51
 2779 10d0 03       		.uleb128 0x3
 2780 10d1 0A       		.byte	0xa
 2781 10d2 0002     		.2byte	0x200
 2782 10d4 00       		.byte	0
 2783 10d5 00       		.byte	0
 2784 10d6 2E       		.uleb128 0x2e
 2785 10d7 CE0C0000 		.4byte	0xcce
 2786 10db C6000000 		.4byte	.LBB281
 2787 10df 08000000 		.4byte	.LBE281-.LBB281
 2788 10e3 01       		.byte	0x1
 2789 10e4 A3       		.byte	0xa3
ARM GAS  /tmp/ccojrVRM.s 			page 50


 2790 10e5 37110000 		.4byte	0x1137
 2791 10e9 2F       		.uleb128 0x2f
 2792 10ea 5C0C0000 		.4byte	0xc5c
 2793 10ee C6000000 		.4byte	.LBB282
 2794 10f2 08000000 		.4byte	.LBE282-.LBB282
 2795 10f6 03       		.byte	0x3
 2796 10f7 E001     		.2byte	0x1e0
 2797 10f9 2F       		.uleb128 0x2f
 2798 10fa 4A0C0000 		.4byte	0xc4a
 2799 10fe C6000000 		.4byte	.LBB283
 2800 1102 08000000 		.4byte	.LBE283-.LBB283
 2801 1106 14       		.byte	0x14
 2802 1107 9A01     		.2byte	0x19a
 2803 1109 2F       		.uleb128 0x2f
 2804 110a 380C0000 		.4byte	0xc38
 2805 110e C6000000 		.4byte	.LBB284
 2806 1112 08000000 		.4byte	.LBE284-.LBB284
 2807 1116 0D       		.byte	0xd
 2808 1117 E601     		.2byte	0x1e6
 2809 1119 2F       		.uleb128 0x2f
 2810 111a 150C0000 		.4byte	0xc15
 2811 111e C6000000 		.4byte	.LBB285
 2812 1122 08000000 		.4byte	.LBE285-.LBB285
 2813 1126 0D       		.byte	0xd
 2814 1127 CD01     		.2byte	0x1cd
 2815 1129 2B       		.uleb128 0x2b
 2816 112a 220C0000 		.4byte	0xc22
 2817 112e E8010000 		.4byte	.LLST18
 2818 1132 00       		.byte	0
 2819 1133 00       		.byte	0
 2820 1134 00       		.byte	0
 2821 1135 00       		.byte	0
 2822 1136 00       		.byte	0
 2823 1137 30       		.uleb128 0x30
 2824 1138 60000000 		.4byte	.Ldebug_ranges0+0x60
 2825 113c 5D120000 		.4byte	0x125d
 2826 1140 2D       		.uleb128 0x2d
 2827 1141 860D0000 		.4byte	0xd86
 2828 1145 FC010000 		.4byte	.LLST19
 2829 1149 2E       		.uleb128 0x2e
 2830 114a D70C0000 		.4byte	0xcd7
 2831 114e CE000000 		.4byte	.LBB288
 2832 1152 06000000 		.4byte	.LBE288-.LBB288
 2833 1156 01       		.byte	0x1
 2834 1157 B9       		.byte	0xb9
 2835 1158 AA110000 		.4byte	0x11aa
 2836 115c 2F       		.uleb128 0x2f
 2837 115d 530C0000 		.4byte	0xc53
 2838 1161 CE000000 		.4byte	.LBB289
 2839 1165 06000000 		.4byte	.LBE289-.LBB289
 2840 1169 03       		.byte	0x3
 2841 116a D501     		.2byte	0x1d5
 2842 116c 2F       		.uleb128 0x2f
 2843 116d 410C0000 		.4byte	0xc41
 2844 1171 CE000000 		.4byte	.LBB290
 2845 1175 06000000 		.4byte	.LBE290-.LBB290
 2846 1179 14       		.byte	0x14
ARM GAS  /tmp/ccojrVRM.s 			page 51


 2847 117a 8401     		.2byte	0x184
 2848 117c 2F       		.uleb128 0x2f
 2849 117d 2F0C0000 		.4byte	0xc2f
 2850 1181 CE000000 		.4byte	.LBB291
 2851 1185 06000000 		.4byte	.LBE291-.LBB291
 2852 1189 0D       		.byte	0xd
 2853 118a DB01     		.2byte	0x1db
 2854 118c 2F       		.uleb128 0x2f
 2855 118d 150C0000 		.4byte	0xc15
 2856 1191 CE000000 		.4byte	.LBB292
 2857 1195 06000000 		.4byte	.LBE292-.LBB292
 2858 1199 0D       		.byte	0xd
 2859 119a BF01     		.2byte	0x1bf
 2860 119c 2B       		.uleb128 0x2b
 2861 119d 220C0000 		.4byte	0xc22
 2862 11a1 1A020000 		.4byte	.LLST20
 2863 11a5 00       		.byte	0
 2864 11a6 00       		.byte	0
 2865 11a7 00       		.byte	0
 2866 11a8 00       		.byte	0
 2867 11a9 00       		.byte	0
 2868 11aa 2E       		.uleb128 0x2e
 2869 11ab CE0C0000 		.4byte	0xcce
 2870 11af E0000000 		.4byte	.LBB294
 2871 11b3 08000000 		.4byte	.LBE294-.LBB294
 2872 11b7 01       		.byte	0x1
 2873 11b8 C1       		.byte	0xc1
 2874 11b9 0B120000 		.4byte	0x120b
 2875 11bd 2F       		.uleb128 0x2f
 2876 11be 5C0C0000 		.4byte	0xc5c
 2877 11c2 E0000000 		.4byte	.LBB295
 2878 11c6 08000000 		.4byte	.LBE295-.LBB295
 2879 11ca 03       		.byte	0x3
 2880 11cb E001     		.2byte	0x1e0
 2881 11cd 2F       		.uleb128 0x2f
 2882 11ce 4A0C0000 		.4byte	0xc4a
 2883 11d2 E0000000 		.4byte	.LBB296
 2884 11d6 08000000 		.4byte	.LBE296-.LBB296
 2885 11da 14       		.byte	0x14
 2886 11db 9A01     		.2byte	0x19a
 2887 11dd 2F       		.uleb128 0x2f
 2888 11de 380C0000 		.4byte	0xc38
 2889 11e2 E0000000 		.4byte	.LBB297
 2890 11e6 08000000 		.4byte	.LBE297-.LBB297
 2891 11ea 0D       		.byte	0xd
 2892 11eb E601     		.2byte	0x1e6
 2893 11ed 2F       		.uleb128 0x2f
 2894 11ee 150C0000 		.4byte	0xc15
 2895 11f2 E0000000 		.4byte	.LBB298
 2896 11f6 08000000 		.4byte	.LBE298-.LBB298
 2897 11fa 0D       		.byte	0xd
 2898 11fb CD01     		.2byte	0x1cd
 2899 11fd 2B       		.uleb128 0x2b
 2900 11fe 220C0000 		.4byte	0xc22
 2901 1202 2F020000 		.4byte	.LLST21
 2902 1206 00       		.byte	0
 2903 1207 00       		.byte	0
ARM GAS  /tmp/ccojrVRM.s 			page 52


 2904 1208 00       		.byte	0
 2905 1209 00       		.byte	0
 2906 120a 00       		.byte	0
 2907 120b 2E       		.uleb128 0x2e
 2908 120c A20C0000 		.4byte	0xca2
 2909 1210 F8000000 		.4byte	.LBB300
 2910 1214 08000000 		.4byte	.LBE300-.LBB300
 2911 1218 01       		.byte	0x1
 2912 1219 BC       		.byte	0xbc
 2913 121a 49120000 		.4byte	0x1249
 2914 121e 2B       		.uleb128 0x2b
 2915 121f BB0C0000 		.4byte	0xcbb
 2916 1223 43020000 		.4byte	.LLST22
 2917 1227 2B       		.uleb128 0x2b
 2918 1228 AF0C0000 		.4byte	0xcaf
 2919 122c 57020000 		.4byte	.LLST23
 2920 1230 33       		.uleb128 0x33
 2921 1231 00010000 		.4byte	.LVL45
 2922 1235 E5130000 		.4byte	0x13e5
 2923 1239 34       		.uleb128 0x34
 2924 123a 01       		.uleb128 0x1
 2925 123b 50       		.byte	0x50
 2926 123c 05       		.uleb128 0x5
 2927 123d 03       		.byte	0x3
 2928 123e 04000000 		.4byte	.LANCHOR0+4
 2929 1242 34       		.uleb128 0x34
 2930 1243 01       		.uleb128 0x1
 2931 1244 51       		.byte	0x51
 2932 1245 01       		.uleb128 0x1
 2933 1246 38       		.byte	0x38
 2934 1247 00       		.byte	0
 2935 1248 00       		.byte	0
 2936 1249 33       		.uleb128 0x33
 2937 124a DA000000 		.4byte	.LVL37
 2938 124e FC130000 		.4byte	0x13fc
 2939 1252 34       		.uleb128 0x34
 2940 1253 01       		.uleb128 0x1
 2941 1254 50       		.byte	0x50
 2942 1255 05       		.uleb128 0x5
 2943 1256 03       		.byte	0x3
 2944 1257 30000000 		.4byte	.LANCHOR0+48
 2945 125b 00       		.byte	0
 2946 125c 00       		.byte	0
 2947 125d 32       		.uleb128 0x32
 2948 125e A20C0000 		.4byte	0xca2
 2949 1262 EE000000 		.4byte	.LBB303
 2950 1266 0A000000 		.4byte	.LBE303-.LBB303
 2951 126a 01       		.byte	0x1
 2952 126b C8       		.byte	0xc8
 2953 126c 2B       		.uleb128 0x2b
 2954 126d BB0C0000 		.4byte	0xcbb
 2955 1271 6F020000 		.4byte	.LLST24
 2956 1275 2B       		.uleb128 0x2b
 2957 1276 AF0C0000 		.4byte	0xcaf
 2958 127a 83020000 		.4byte	.LLST25
 2959 127e 33       		.uleb128 0x33
 2960 127f F6000000 		.4byte	.LVL42
ARM GAS  /tmp/ccojrVRM.s 			page 53


 2961 1283 E5130000 		.4byte	0x13e5
 2962 1287 34       		.uleb128 0x34
 2963 1288 01       		.uleb128 0x1
 2964 1289 50       		.byte	0x50
 2965 128a 02       		.uleb128 0x2
 2966 128b 76       		.byte	0x76
 2967 128c 04       		.sleb128 4
 2968 128d 34       		.uleb128 0x34
 2969 128e 01       		.uleb128 0x1
 2970 128f 51       		.byte	0x51
 2971 1290 01       		.uleb128 0x1
 2972 1291 40       		.byte	0x40
 2973 1292 00       		.byte	0
 2974 1293 00       		.byte	0
 2975 1294 00       		.byte	0
 2976 1295 00       		.byte	0
 2977 1296 37       		.uleb128 0x37
 2978 1297 B0000000 		.4byte	.LVL30
 2979 129b 07140000 		.4byte	0x1407
 2980 129f 00       		.byte	0
 2981 12a0 29       		.uleb128 0x29
 2982 12a1 D7030000 		.4byte	.LASF197
 2983 12a5 01       		.byte	0x1
 2984 12a6 7E01     		.2byte	0x17e
 2985 12a8 00000000 		.4byte	.LFB264
 2986 12ac 20000000 		.4byte	.LFE264-.LFB264
 2987 12b0 01       		.uleb128 0x1
 2988 12b1 9C       		.byte	0x9c
 2989 12b2 D5120000 		.4byte	0x12d5
 2990 12b6 33       		.uleb128 0x33
 2991 12b7 0E000000 		.4byte	.LVL46
 2992 12bb 13140000 		.4byte	0x1413
 2993 12bf 34       		.uleb128 0x34
 2994 12c0 01       		.uleb128 0x1
 2995 12c1 50       		.byte	0x50
 2996 12c2 02       		.uleb128 0x2
 2997 12c3 74       		.byte	0x74
 2998 12c4 00       		.sleb128 0
 2999 12c5 34       		.uleb128 0x34
 3000 12c6 01       		.uleb128 0x1
 3001 12c7 51       		.byte	0x51
 3002 12c8 01       		.uleb128 0x1
 3003 12c9 30       		.byte	0x30
 3004 12ca 34       		.uleb128 0x34
 3005 12cb 01       		.uleb128 0x1
 3006 12cc 52       		.byte	0x52
 3007 12cd 05       		.uleb128 0x5
 3008 12ce 03       		.byte	0x3
 3009 12cf 00000000 		.4byte	notify2
 3010 12d3 00       		.byte	0
 3011 12d4 00       		.byte	0
 3012 12d5 29       		.uleb128 0x29
 3013 12d6 83060000 		.4byte	.LASF198
 3014 12da 01       		.byte	0x1
 3015 12db A901     		.2byte	0x1a9
 3016 12dd 00000000 		.4byte	.LFB265
 3017 12e1 98000000 		.4byte	.LFE265-.LFB265
ARM GAS  /tmp/ccojrVRM.s 			page 54


 3018 12e5 01       		.uleb128 0x1
 3019 12e6 9C       		.byte	0x9c
 3020 12e7 57130000 		.4byte	0x1357
 3021 12eb 38       		.uleb128 0x38
 3022 12ec 73647000 		.ascii	"sdp\000"
 3023 12f0 01       		.byte	0x1
 3024 12f1 A901     		.2byte	0x1a9
 3025 12f3 910C0000 		.4byte	0xc91
 3026 12f7 9B020000 		.4byte	.LLST26
 3027 12fb 39       		.uleb128 0x39
 3028 12fc DB070000 		.4byte	.LASF188
 3029 1300 01       		.byte	0x1
 3030 1301 A901     		.2byte	0x1a9
 3031 1303 970C0000 		.4byte	0xc97
 3032 1307 CF020000 		.4byte	.LLST27
 3033 130b 2A       		.uleb128 0x2a
 3034 130c 650C0000 		.4byte	0xc65
 3035 1310 14000000 		.4byte	.LBB308
 3036 1314 78000000 		.4byte	.Ldebug_ranges0+0x78
 3037 1318 01       		.byte	0x1
 3038 1319 D401     		.2byte	0x1d4
 3039 131b 41130000 		.4byte	0x1341
 3040 131f 2B       		.uleb128 0x2b
 3041 1320 710C0000 		.4byte	0xc71
 3042 1324 15030000 		.4byte	.LLST28
 3043 1328 2B       		.uleb128 0x2b
 3044 1329 7C0C0000 		.4byte	0xc7c
 3045 132d 33030000 		.4byte	.LLST29
 3046 1331 2C       		.uleb128 0x2c
 3047 1332 78000000 		.4byte	.Ldebug_ranges0+0x78
 3048 1336 2D       		.uleb128 0x2d
 3049 1337 870C0000 		.4byte	0xc87
 3050 133b 6E030000 		.4byte	.LLST30
 3051 133f 00       		.byte	0
 3052 1340 00       		.byte	0
 3053 1341 33       		.uleb128 0x33
 3054 1342 70000000 		.4byte	.LVL55
 3055 1346 1F140000 		.4byte	0x141f
 3056 134a 34       		.uleb128 0x34
 3057 134b 01       		.uleb128 0x1
 3058 134c 50       		.byte	0x50
 3059 134d 02       		.uleb128 0x2
 3060 134e 08       		.byte	0x8
 3061 134f 26       		.byte	0x26
 3062 1350 34       		.uleb128 0x34
 3063 1351 01       		.uleb128 0x1
 3064 1352 51       		.byte	0x51
 3065 1353 01       		.uleb128 0x1
 3066 1354 3C       		.byte	0x3c
 3067 1355 00       		.byte	0
 3068 1356 00       		.byte	0
 3069 1357 29       		.uleb128 0x29
 3070 1358 84090000 		.4byte	.LASF199
 3071 135c 01       		.byte	0x1
 3072 135d E001     		.2byte	0x1e0
 3073 135f 00000000 		.4byte	.LFB266
 3074 1363 30000000 		.4byte	.LFE266-.LFB266
ARM GAS  /tmp/ccojrVRM.s 			page 55


 3075 1367 01       		.uleb128 0x1
 3076 1368 9C       		.byte	0x9c
 3077 1369 AC130000 		.4byte	0x13ac
 3078 136d 38       		.uleb128 0x38
 3079 136e 73647000 		.ascii	"sdp\000"
 3080 1372 01       		.byte	0x1
 3081 1373 E001     		.2byte	0x1e0
 3082 1375 910C0000 		.4byte	0xc91
 3083 1379 8C030000 		.4byte	.LLST31
 3084 137d 2A       		.uleb128 0x2a
 3085 137e FE0C0000 		.4byte	0xcfe
 3086 1382 0C000000 		.4byte	.LBB312
 3087 1386 90000000 		.4byte	.Ldebug_ranges0+0x90
 3088 138a 01       		.byte	0x1
 3089 138b E301     		.2byte	0x1e3
 3090 138d 9B130000 		.4byte	0x139b
 3091 1391 2B       		.uleb128 0x2b
 3092 1392 0A0D0000 		.4byte	0xd0a
 3093 1396 AD030000 		.4byte	.LLST32
 3094 139a 00       		.byte	0
 3095 139b 3A       		.uleb128 0x3a
 3096 139c 28000000 		.4byte	.LVL61
 3097 13a0 2A140000 		.4byte	0x142a
 3098 13a4 34       		.uleb128 0x34
 3099 13a5 01       		.uleb128 0x1
 3100 13a6 50       		.byte	0x50
 3101 13a7 02       		.uleb128 0x2
 3102 13a8 08       		.byte	0x8
 3103 13a9 26       		.byte	0x26
 3104 13aa 00       		.byte	0
 3105 13ab 00       		.byte	0
 3106 13ac 3B       		.uleb128 0x3b
 3107 13ad 75020000 		.4byte	.LASF212
 3108 13b1 01       		.byte	0x1
 3109 13b2 48       		.byte	0x48
 3110 13b3 9D0C0000 		.4byte	0xc9d
 3111 13b7 05       		.uleb128 0x5
 3112 13b8 03       		.byte	0x3
 3113 13b9 00000000 		.4byte	default_config
 3114 13bd 3C       		.uleb128 0x3c
 3115 13be 9C060000 		.4byte	.LASF200
 3116 13c2 16       		.byte	0x16
 3117 13c3 A706     		.2byte	0x6a7
 3118 13c5 E7000000 		.4byte	0xe7
 3119 13c9 3D       		.uleb128 0x3d
 3120 13ca 636800   		.ascii	"ch\000"
 3121 13cd 0A       		.byte	0xa
 3122 13ce 0902     		.2byte	0x209
 3123 13d0 0E040000 		.4byte	0x40e
 3124 13d4 3E       		.uleb128 0x3e
 3125 13d5 53443200 		.ascii	"SD2\000"
 3126 13d9 01       		.byte	0x1
 3127 13da 2C       		.byte	0x2c
 3128 13db C70A0000 		.4byte	0xac7
 3129 13df 05       		.uleb128 0x5
 3130 13e0 03       		.byte	0x3
 3131 13e1 00000000 		.4byte	SD2
ARM GAS  /tmp/ccojrVRM.s 			page 56


 3132 13e5 3F       		.uleb128 0x3f
 3133 13e6 DA020000 		.4byte	.LASF201
 3134 13ea DA020000 		.4byte	.LASF201
 3135 13ee 11       		.byte	0x11
 3136 13ef 87       		.byte	0x87
 3137 13f0 40       		.uleb128 0x40
 3138 13f1 CB070000 		.4byte	.LASF202
 3139 13f5 CB070000 		.4byte	.LASF202
 3140 13f9 12       		.byte	0x12
 3141 13fa 2A01     		.2byte	0x12a
 3142 13fc 3F       		.uleb128 0x3f
 3143 13fd B9020000 		.4byte	.LASF203
 3144 1401 B9020000 		.4byte	.LASF203
 3145 1405 04       		.byte	0x4
 3146 1406 FA       		.byte	0xfa
 3147 1407 40       		.uleb128 0x40
 3148 1408 33040000 		.4byte	.LASF204
 3149 140c 33040000 		.4byte	.LASF204
 3150 1410 0D       		.byte	0xd
 3151 1411 6601     		.2byte	0x166
 3152 1413 40       		.uleb128 0x40
 3153 1414 FD010000 		.4byte	.LASF205
 3154 1418 FD010000 		.4byte	.LASF205
 3155 141c 12       		.byte	0x12
 3156 141d 2701     		.2byte	0x127
 3157 141f 3F       		.uleb128 0x3f
 3158 1420 00000000 		.4byte	.LASF206
 3159 1424 00000000 		.4byte	.LASF206
 3160 1428 15       		.byte	0x15
 3161 1429 4E       		.byte	0x4e
 3162 142a 3F       		.uleb128 0x3f
 3163 142b 9D070000 		.4byte	.LASF207
 3164 142f 9D070000 		.4byte	.LASF207
 3165 1433 15       		.byte	0x15
 3166 1434 4F       		.byte	0x4f
 3167 1435 00       		.byte	0
 3168              		.section	.debug_abbrev,"",%progbits
 3169              	.Ldebug_abbrev0:
 3170 0000 01       		.uleb128 0x1
 3171 0001 11       		.uleb128 0x11
 3172 0002 01       		.byte	0x1
 3173 0003 25       		.uleb128 0x25
 3174 0004 0E       		.uleb128 0xe
 3175 0005 13       		.uleb128 0x13
 3176 0006 0B       		.uleb128 0xb
 3177 0007 03       		.uleb128 0x3
 3178 0008 0E       		.uleb128 0xe
 3179 0009 55       		.uleb128 0x55
 3180 000a 17       		.uleb128 0x17
 3181 000b 11       		.uleb128 0x11
 3182 000c 01       		.uleb128 0x1
 3183 000d 10       		.uleb128 0x10
 3184 000e 17       		.uleb128 0x17
 3185 000f 00       		.byte	0
 3186 0010 00       		.byte	0
 3187 0011 02       		.uleb128 0x2
 3188 0012 24       		.uleb128 0x24
ARM GAS  /tmp/ccojrVRM.s 			page 57


 3189 0013 00       		.byte	0
 3190 0014 0B       		.uleb128 0xb
 3191 0015 0B       		.uleb128 0xb
 3192 0016 3E       		.uleb128 0x3e
 3193 0017 0B       		.uleb128 0xb
 3194 0018 03       		.uleb128 0x3
 3195 0019 08       		.uleb128 0x8
 3196 001a 00       		.byte	0
 3197 001b 00       		.byte	0
 3198 001c 03       		.uleb128 0x3
 3199 001d 16       		.uleb128 0x16
 3200 001e 00       		.byte	0
 3201 001f 03       		.uleb128 0x3
 3202 0020 0E       		.uleb128 0xe
 3203 0021 3A       		.uleb128 0x3a
 3204 0022 0B       		.uleb128 0xb
 3205 0023 3B       		.uleb128 0x3b
 3206 0024 0B       		.uleb128 0xb
 3207 0025 49       		.uleb128 0x49
 3208 0026 13       		.uleb128 0x13
 3209 0027 00       		.byte	0
 3210 0028 00       		.byte	0
 3211 0029 04       		.uleb128 0x4
 3212 002a 24       		.uleb128 0x24
 3213 002b 00       		.byte	0
 3214 002c 0B       		.uleb128 0xb
 3215 002d 0B       		.uleb128 0xb
 3216 002e 3E       		.uleb128 0x3e
 3217 002f 0B       		.uleb128 0xb
 3218 0030 03       		.uleb128 0x3
 3219 0031 0E       		.uleb128 0xe
 3220 0032 00       		.byte	0
 3221 0033 00       		.byte	0
 3222 0034 05       		.uleb128 0x5
 3223 0035 35       		.uleb128 0x35
 3224 0036 00       		.byte	0
 3225 0037 49       		.uleb128 0x49
 3226 0038 13       		.uleb128 0x13
 3227 0039 00       		.byte	0
 3228 003a 00       		.byte	0
 3229 003b 06       		.uleb128 0x6
 3230 003c 13       		.uleb128 0x13
 3231 003d 01       		.byte	0x1
 3232 003e 03       		.uleb128 0x3
 3233 003f 0E       		.uleb128 0xe
 3234 0040 0B       		.uleb128 0xb
 3235 0041 0B       		.uleb128 0xb
 3236 0042 3A       		.uleb128 0x3a
 3237 0043 0B       		.uleb128 0xb
 3238 0044 3B       		.uleb128 0x3b
 3239 0045 0B       		.uleb128 0xb
 3240 0046 01       		.uleb128 0x1
 3241 0047 13       		.uleb128 0x13
 3242 0048 00       		.byte	0
 3243 0049 00       		.byte	0
 3244 004a 07       		.uleb128 0x7
 3245 004b 0D       		.uleb128 0xd
ARM GAS  /tmp/ccojrVRM.s 			page 58


 3246 004c 00       		.byte	0
 3247 004d 03       		.uleb128 0x3
 3248 004e 0E       		.uleb128 0xe
 3249 004f 3A       		.uleb128 0x3a
 3250 0050 0B       		.uleb128 0xb
 3251 0051 3B       		.uleb128 0x3b
 3252 0052 0B       		.uleb128 0xb
 3253 0053 49       		.uleb128 0x49
 3254 0054 13       		.uleb128 0x13
 3255 0055 38       		.uleb128 0x38
 3256 0056 0B       		.uleb128 0xb
 3257 0057 00       		.byte	0
 3258 0058 00       		.byte	0
 3259 0059 08       		.uleb128 0x8
 3260 005a 0D       		.uleb128 0xd
 3261 005b 00       		.byte	0
 3262 005c 03       		.uleb128 0x3
 3263 005d 08       		.uleb128 0x8
 3264 005e 3A       		.uleb128 0x3a
 3265 005f 0B       		.uleb128 0xb
 3266 0060 3B       		.uleb128 0x3b
 3267 0061 05       		.uleb128 0x5
 3268 0062 49       		.uleb128 0x49
 3269 0063 13       		.uleb128 0x13
 3270 0064 38       		.uleb128 0x38
 3271 0065 0B       		.uleb128 0xb
 3272 0066 00       		.byte	0
 3273 0067 00       		.byte	0
 3274 0068 09       		.uleb128 0x9
 3275 0069 0D       		.uleb128 0xd
 3276 006a 00       		.byte	0
 3277 006b 03       		.uleb128 0x3
 3278 006c 0E       		.uleb128 0xe
 3279 006d 3A       		.uleb128 0x3a
 3280 006e 0B       		.uleb128 0xb
 3281 006f 3B       		.uleb128 0x3b
 3282 0070 05       		.uleb128 0x5
 3283 0071 49       		.uleb128 0x49
 3284 0072 13       		.uleb128 0x13
 3285 0073 38       		.uleb128 0x38
 3286 0074 0B       		.uleb128 0xb
 3287 0075 00       		.byte	0
 3288 0076 00       		.byte	0
 3289 0077 0A       		.uleb128 0xa
 3290 0078 0F       		.uleb128 0xf
 3291 0079 00       		.byte	0
 3292 007a 0B       		.uleb128 0xb
 3293 007b 0B       		.uleb128 0xb
 3294 007c 49       		.uleb128 0x49
 3295 007d 13       		.uleb128 0x13
 3296 007e 00       		.byte	0
 3297 007f 00       		.byte	0
 3298 0080 0B       		.uleb128 0xb
 3299 0081 13       		.uleb128 0x13
 3300 0082 01       		.byte	0x1
 3301 0083 03       		.uleb128 0x3
 3302 0084 0E       		.uleb128 0xe
ARM GAS  /tmp/ccojrVRM.s 			page 59


 3303 0085 0B       		.uleb128 0xb
 3304 0086 0B       		.uleb128 0xb
 3305 0087 3A       		.uleb128 0x3a
 3306 0088 0B       		.uleb128 0xb
 3307 0089 3B       		.uleb128 0x3b
 3308 008a 05       		.uleb128 0x5
 3309 008b 01       		.uleb128 0x1
 3310 008c 13       		.uleb128 0x13
 3311 008d 00       		.byte	0
 3312 008e 00       		.byte	0
 3313 008f 0C       		.uleb128 0xc
 3314 0090 15       		.uleb128 0x15
 3315 0091 01       		.byte	0x1
 3316 0092 27       		.uleb128 0x27
 3317 0093 19       		.uleb128 0x19
 3318 0094 01       		.uleb128 0x1
 3319 0095 13       		.uleb128 0x13
 3320 0096 00       		.byte	0
 3321 0097 00       		.byte	0
 3322 0098 0D       		.uleb128 0xd
 3323 0099 05       		.uleb128 0x5
 3324 009a 00       		.byte	0
 3325 009b 49       		.uleb128 0x49
 3326 009c 13       		.uleb128 0x13
 3327 009d 00       		.byte	0
 3328 009e 00       		.byte	0
 3329 009f 0E       		.uleb128 0xe
 3330 00a0 0F       		.uleb128 0xf
 3331 00a1 00       		.byte	0
 3332 00a2 0B       		.uleb128 0xb
 3333 00a3 0B       		.uleb128 0xb
 3334 00a4 00       		.byte	0
 3335 00a5 00       		.byte	0
 3336 00a6 0F       		.uleb128 0xf
 3337 00a7 13       		.uleb128 0x13
 3338 00a8 01       		.byte	0x1
 3339 00a9 03       		.uleb128 0x3
 3340 00aa 0E       		.uleb128 0xe
 3341 00ab 0B       		.uleb128 0xb
 3342 00ac 05       		.uleb128 0x5
 3343 00ad 3A       		.uleb128 0x3a
 3344 00ae 0B       		.uleb128 0xb
 3345 00af 3B       		.uleb128 0x3b
 3346 00b0 05       		.uleb128 0x5
 3347 00b1 01       		.uleb128 0x1
 3348 00b2 13       		.uleb128 0x13
 3349 00b3 00       		.byte	0
 3350 00b4 00       		.byte	0
 3351 00b5 10       		.uleb128 0x10
 3352 00b6 01       		.uleb128 0x1
 3353 00b7 01       		.byte	0x1
 3354 00b8 49       		.uleb128 0x49
 3355 00b9 13       		.uleb128 0x13
 3356 00ba 01       		.uleb128 0x1
 3357 00bb 13       		.uleb128 0x13
 3358 00bc 00       		.byte	0
 3359 00bd 00       		.byte	0
ARM GAS  /tmp/ccojrVRM.s 			page 60


 3360 00be 11       		.uleb128 0x11
 3361 00bf 21       		.uleb128 0x21
 3362 00c0 00       		.byte	0
 3363 00c1 49       		.uleb128 0x49
 3364 00c2 13       		.uleb128 0x13
 3365 00c3 2F       		.uleb128 0x2f
 3366 00c4 0B       		.uleb128 0xb
 3367 00c5 00       		.byte	0
 3368 00c6 00       		.byte	0
 3369 00c7 12       		.uleb128 0x12
 3370 00c8 13       		.uleb128 0x13
 3371 00c9 01       		.byte	0x1
 3372 00ca 0B       		.uleb128 0xb
 3373 00cb 0B       		.uleb128 0xb
 3374 00cc 3A       		.uleb128 0x3a
 3375 00cd 0B       		.uleb128 0xb
 3376 00ce 3B       		.uleb128 0x3b
 3377 00cf 05       		.uleb128 0x5
 3378 00d0 01       		.uleb128 0x1
 3379 00d1 13       		.uleb128 0x13
 3380 00d2 00       		.byte	0
 3381 00d3 00       		.byte	0
 3382 00d4 13       		.uleb128 0x13
 3383 00d5 16       		.uleb128 0x16
 3384 00d6 00       		.byte	0
 3385 00d7 03       		.uleb128 0x3
 3386 00d8 0E       		.uleb128 0xe
 3387 00d9 3A       		.uleb128 0x3a
 3388 00da 0B       		.uleb128 0xb
 3389 00db 3B       		.uleb128 0x3b
 3390 00dc 05       		.uleb128 0x5
 3391 00dd 49       		.uleb128 0x49
 3392 00de 13       		.uleb128 0x13
 3393 00df 00       		.byte	0
 3394 00e0 00       		.byte	0
 3395 00e1 14       		.uleb128 0x14
 3396 00e2 0D       		.uleb128 0xd
 3397 00e3 00       		.byte	0
 3398 00e4 03       		.uleb128 0x3
 3399 00e5 08       		.uleb128 0x8
 3400 00e6 3A       		.uleb128 0x3a
 3401 00e7 0B       		.uleb128 0xb
 3402 00e8 3B       		.uleb128 0x3b
 3403 00e9 0B       		.uleb128 0xb
 3404 00ea 49       		.uleb128 0x49
 3405 00eb 13       		.uleb128 0x13
 3406 00ec 38       		.uleb128 0x38
 3407 00ed 0B       		.uleb128 0xb
 3408 00ee 00       		.byte	0
 3409 00ef 00       		.byte	0
 3410 00f0 15       		.uleb128 0x15
 3411 00f1 13       		.uleb128 0x13
 3412 00f2 01       		.byte	0x1
 3413 00f3 0B       		.uleb128 0xb
 3414 00f4 0B       		.uleb128 0xb
 3415 00f5 3A       		.uleb128 0x3a
 3416 00f6 0B       		.uleb128 0xb
ARM GAS  /tmp/ccojrVRM.s 			page 61


 3417 00f7 3B       		.uleb128 0x3b
 3418 00f8 0B       		.uleb128 0xb
 3419 00f9 01       		.uleb128 0x1
 3420 00fa 13       		.uleb128 0x13
 3421 00fb 00       		.byte	0
 3422 00fc 00       		.byte	0
 3423 00fd 16       		.uleb128 0x16
 3424 00fe 17       		.uleb128 0x17
 3425 00ff 01       		.byte	0x1
 3426 0100 0B       		.uleb128 0xb
 3427 0101 0B       		.uleb128 0xb
 3428 0102 3A       		.uleb128 0x3a
 3429 0103 0B       		.uleb128 0xb
 3430 0104 3B       		.uleb128 0x3b
 3431 0105 0B       		.uleb128 0xb
 3432 0106 01       		.uleb128 0x1
 3433 0107 13       		.uleb128 0x13
 3434 0108 00       		.byte	0
 3435 0109 00       		.byte	0
 3436 010a 17       		.uleb128 0x17
 3437 010b 0D       		.uleb128 0xd
 3438 010c 00       		.byte	0
 3439 010d 03       		.uleb128 0x3
 3440 010e 0E       		.uleb128 0xe
 3441 010f 3A       		.uleb128 0x3a
 3442 0110 0B       		.uleb128 0xb
 3443 0111 3B       		.uleb128 0x3b
 3444 0112 05       		.uleb128 0x5
 3445 0113 49       		.uleb128 0x49
 3446 0114 13       		.uleb128 0x13
 3447 0115 00       		.byte	0
 3448 0116 00       		.byte	0
 3449 0117 18       		.uleb128 0x18
 3450 0118 26       		.uleb128 0x26
 3451 0119 00       		.byte	0
 3452 011a 49       		.uleb128 0x49
 3453 011b 13       		.uleb128 0x13
 3454 011c 00       		.byte	0
 3455 011d 00       		.byte	0
 3456 011e 19       		.uleb128 0x19
 3457 011f 15       		.uleb128 0x15
 3458 0120 01       		.byte	0x1
 3459 0121 27       		.uleb128 0x27
 3460 0122 19       		.uleb128 0x19
 3461 0123 49       		.uleb128 0x49
 3462 0124 13       		.uleb128 0x13
 3463 0125 01       		.uleb128 0x1
 3464 0126 13       		.uleb128 0x13
 3465 0127 00       		.byte	0
 3466 0128 00       		.byte	0
 3467 0129 1A       		.uleb128 0x1a
 3468 012a 04       		.uleb128 0x4
 3469 012b 01       		.byte	0x1
 3470 012c 0B       		.uleb128 0xb
 3471 012d 0B       		.uleb128 0xb
 3472 012e 49       		.uleb128 0x49
 3473 012f 13       		.uleb128 0x13
ARM GAS  /tmp/ccojrVRM.s 			page 62


 3474 0130 3A       		.uleb128 0x3a
 3475 0131 0B       		.uleb128 0xb
 3476 0132 3B       		.uleb128 0x3b
 3477 0133 0B       		.uleb128 0xb
 3478 0134 01       		.uleb128 0x1
 3479 0135 13       		.uleb128 0x13
 3480 0136 00       		.byte	0
 3481 0137 00       		.byte	0
 3482 0138 1B       		.uleb128 0x1b
 3483 0139 28       		.uleb128 0x28
 3484 013a 00       		.byte	0
 3485 013b 03       		.uleb128 0x3
 3486 013c 0E       		.uleb128 0xe
 3487 013d 1C       		.uleb128 0x1c
 3488 013e 0B       		.uleb128 0xb
 3489 013f 00       		.byte	0
 3490 0140 00       		.byte	0
 3491 0141 1C       		.uleb128 0x1c
 3492 0142 2E       		.uleb128 0x2e
 3493 0143 01       		.byte	0x1
 3494 0144 03       		.uleb128 0x3
 3495 0145 0E       		.uleb128 0xe
 3496 0146 3A       		.uleb128 0x3a
 3497 0147 0B       		.uleb128 0xb
 3498 0148 3B       		.uleb128 0x3b
 3499 0149 05       		.uleb128 0x5
 3500 014a 27       		.uleb128 0x27
 3501 014b 19       		.uleb128 0x19
 3502 014c 20       		.uleb128 0x20
 3503 014d 0B       		.uleb128 0xb
 3504 014e 01       		.uleb128 0x1
 3505 014f 13       		.uleb128 0x13
 3506 0150 00       		.byte	0
 3507 0151 00       		.byte	0
 3508 0152 1D       		.uleb128 0x1d
 3509 0153 05       		.uleb128 0x5
 3510 0154 00       		.byte	0
 3511 0155 03       		.uleb128 0x3
 3512 0156 0E       		.uleb128 0xe
 3513 0157 3A       		.uleb128 0x3a
 3514 0158 0B       		.uleb128 0xb
 3515 0159 3B       		.uleb128 0x3b
 3516 015a 05       		.uleb128 0x5
 3517 015b 49       		.uleb128 0x49
 3518 015c 13       		.uleb128 0x13
 3519 015d 00       		.byte	0
 3520 015e 00       		.byte	0
 3521 015f 1E       		.uleb128 0x1e
 3522 0160 2E       		.uleb128 0x2e
 3523 0161 00       		.byte	0
 3524 0162 03       		.uleb128 0x3
 3525 0163 0E       		.uleb128 0xe
 3526 0164 3A       		.uleb128 0x3a
 3527 0165 0B       		.uleb128 0xb
 3528 0166 3B       		.uleb128 0x3b
 3529 0167 05       		.uleb128 0x5
 3530 0168 27       		.uleb128 0x27
ARM GAS  /tmp/ccojrVRM.s 			page 63


 3531 0169 19       		.uleb128 0x19
 3532 016a 20       		.uleb128 0x20
 3533 016b 0B       		.uleb128 0xb
 3534 016c 00       		.byte	0
 3535 016d 00       		.byte	0
 3536 016e 1F       		.uleb128 0x1f
 3537 016f 2E       		.uleb128 0x2e
 3538 0170 01       		.byte	0x1
 3539 0171 03       		.uleb128 0x3
 3540 0172 0E       		.uleb128 0xe
 3541 0173 3A       		.uleb128 0x3a
 3542 0174 0B       		.uleb128 0xb
 3543 0175 3B       		.uleb128 0x3b
 3544 0176 0B       		.uleb128 0xb
 3545 0177 27       		.uleb128 0x27
 3546 0178 19       		.uleb128 0x19
 3547 0179 20       		.uleb128 0x20
 3548 017a 0B       		.uleb128 0xb
 3549 017b 01       		.uleb128 0x1
 3550 017c 13       		.uleb128 0x13
 3551 017d 00       		.byte	0
 3552 017e 00       		.byte	0
 3553 017f 20       		.uleb128 0x20
 3554 0180 05       		.uleb128 0x5
 3555 0181 00       		.byte	0
 3556 0182 03       		.uleb128 0x3
 3557 0183 08       		.uleb128 0x8
 3558 0184 3A       		.uleb128 0x3a
 3559 0185 0B       		.uleb128 0xb
 3560 0186 3B       		.uleb128 0x3b
 3561 0187 0B       		.uleb128 0xb
 3562 0188 49       		.uleb128 0x49
 3563 0189 13       		.uleb128 0x13
 3564 018a 00       		.byte	0
 3565 018b 00       		.byte	0
 3566 018c 21       		.uleb128 0x21
 3567 018d 05       		.uleb128 0x5
 3568 018e 00       		.byte	0
 3569 018f 03       		.uleb128 0x3
 3570 0190 0E       		.uleb128 0xe
 3571 0191 3A       		.uleb128 0x3a
 3572 0192 0B       		.uleb128 0xb
 3573 0193 3B       		.uleb128 0x3b
 3574 0194 0B       		.uleb128 0xb
 3575 0195 49       		.uleb128 0x49
 3576 0196 13       		.uleb128 0x13
 3577 0197 00       		.byte	0
 3578 0198 00       		.byte	0
 3579 0199 22       		.uleb128 0x22
 3580 019a 34       		.uleb128 0x34
 3581 019b 00       		.byte	0
 3582 019c 03       		.uleb128 0x3
 3583 019d 08       		.uleb128 0x8
 3584 019e 3A       		.uleb128 0x3a
 3585 019f 0B       		.uleb128 0xb
 3586 01a0 3B       		.uleb128 0x3b
 3587 01a1 0B       		.uleb128 0xb
ARM GAS  /tmp/ccojrVRM.s 			page 64


 3588 01a2 49       		.uleb128 0x49
 3589 01a3 13       		.uleb128 0x13
 3590 01a4 00       		.byte	0
 3591 01a5 00       		.byte	0
 3592 01a6 23       		.uleb128 0x23
 3593 01a7 05       		.uleb128 0x5
 3594 01a8 00       		.byte	0
 3595 01a9 03       		.uleb128 0x3
 3596 01aa 08       		.uleb128 0x8
 3597 01ab 3A       		.uleb128 0x3a
 3598 01ac 0B       		.uleb128 0xb
 3599 01ad 3B       		.uleb128 0x3b
 3600 01ae 05       		.uleb128 0x5
 3601 01af 49       		.uleb128 0x49
 3602 01b0 13       		.uleb128 0x13
 3603 01b1 00       		.byte	0
 3604 01b2 00       		.byte	0
 3605 01b3 24       		.uleb128 0x24
 3606 01b4 2E       		.uleb128 0x2e
 3607 01b5 01       		.byte	0x1
 3608 01b6 03       		.uleb128 0x3
 3609 01b7 0E       		.uleb128 0xe
 3610 01b8 3A       		.uleb128 0x3a
 3611 01b9 0B       		.uleb128 0xb
 3612 01ba 3B       		.uleb128 0x3b
 3613 01bb 05       		.uleb128 0x5
 3614 01bc 27       		.uleb128 0x27
 3615 01bd 19       		.uleb128 0x19
 3616 01be 49       		.uleb128 0x49
 3617 01bf 13       		.uleb128 0x13
 3618 01c0 20       		.uleb128 0x20
 3619 01c1 0B       		.uleb128 0xb
 3620 01c2 01       		.uleb128 0x1
 3621 01c3 13       		.uleb128 0x13
 3622 01c4 00       		.byte	0
 3623 01c5 00       		.byte	0
 3624 01c6 25       		.uleb128 0x25
 3625 01c7 0B       		.uleb128 0xb
 3626 01c8 01       		.byte	0x1
 3627 01c9 01       		.uleb128 0x1
 3628 01ca 13       		.uleb128 0x13
 3629 01cb 00       		.byte	0
 3630 01cc 00       		.byte	0
 3631 01cd 26       		.uleb128 0x26
 3632 01ce 0B       		.uleb128 0xb
 3633 01cf 01       		.byte	0x1
 3634 01d0 00       		.byte	0
 3635 01d1 00       		.byte	0
 3636 01d2 27       		.uleb128 0x27
 3637 01d3 2E       		.uleb128 0x2e
 3638 01d4 01       		.byte	0x1
 3639 01d5 03       		.uleb128 0x3
 3640 01d6 0E       		.uleb128 0xe
 3641 01d7 3A       		.uleb128 0x3a
 3642 01d8 0B       		.uleb128 0xb
 3643 01d9 3B       		.uleb128 0x3b
 3644 01da 0B       		.uleb128 0xb
ARM GAS  /tmp/ccojrVRM.s 			page 65


 3645 01db 27       		.uleb128 0x27
 3646 01dc 19       		.uleb128 0x19
 3647 01dd 11       		.uleb128 0x11
 3648 01de 01       		.uleb128 0x1
 3649 01df 12       		.uleb128 0x12
 3650 01e0 06       		.uleb128 0x6
 3651 01e1 40       		.uleb128 0x40
 3652 01e2 18       		.uleb128 0x18
 3653 01e3 9742     		.uleb128 0x2117
 3654 01e5 19       		.uleb128 0x19
 3655 01e6 01       		.uleb128 0x1
 3656 01e7 13       		.uleb128 0x13
 3657 01e8 00       		.byte	0
 3658 01e9 00       		.byte	0
 3659 01ea 28       		.uleb128 0x28
 3660 01eb 05       		.uleb128 0x5
 3661 01ec 00       		.byte	0
 3662 01ed 03       		.uleb128 0x3
 3663 01ee 08       		.uleb128 0x8
 3664 01ef 3A       		.uleb128 0x3a
 3665 01f0 0B       		.uleb128 0xb
 3666 01f1 3B       		.uleb128 0x3b
 3667 01f2 0B       		.uleb128 0xb
 3668 01f3 49       		.uleb128 0x49
 3669 01f4 13       		.uleb128 0x13
 3670 01f5 02       		.uleb128 0x2
 3671 01f6 18       		.uleb128 0x18
 3672 01f7 00       		.byte	0
 3673 01f8 00       		.byte	0
 3674 01f9 29       		.uleb128 0x29
 3675 01fa 2E       		.uleb128 0x2e
 3676 01fb 01       		.byte	0x1
 3677 01fc 3F       		.uleb128 0x3f
 3678 01fd 19       		.uleb128 0x19
 3679 01fe 03       		.uleb128 0x3
 3680 01ff 0E       		.uleb128 0xe
 3681 0200 3A       		.uleb128 0x3a
 3682 0201 0B       		.uleb128 0xb
 3683 0202 3B       		.uleb128 0x3b
 3684 0203 05       		.uleb128 0x5
 3685 0204 27       		.uleb128 0x27
 3686 0205 19       		.uleb128 0x19
 3687 0206 11       		.uleb128 0x11
 3688 0207 01       		.uleb128 0x1
 3689 0208 12       		.uleb128 0x12
 3690 0209 06       		.uleb128 0x6
 3691 020a 40       		.uleb128 0x40
 3692 020b 18       		.uleb128 0x18
 3693 020c 9742     		.uleb128 0x2117
 3694 020e 19       		.uleb128 0x19
 3695 020f 01       		.uleb128 0x1
 3696 0210 13       		.uleb128 0x13
 3697 0211 00       		.byte	0
 3698 0212 00       		.byte	0
 3699 0213 2A       		.uleb128 0x2a
 3700 0214 1D       		.uleb128 0x1d
 3701 0215 01       		.byte	0x1
ARM GAS  /tmp/ccojrVRM.s 			page 66


 3702 0216 31       		.uleb128 0x31
 3703 0217 13       		.uleb128 0x13
 3704 0218 52       		.uleb128 0x52
 3705 0219 01       		.uleb128 0x1
 3706 021a 55       		.uleb128 0x55
 3707 021b 17       		.uleb128 0x17
 3708 021c 58       		.uleb128 0x58
 3709 021d 0B       		.uleb128 0xb
 3710 021e 59       		.uleb128 0x59
 3711 021f 05       		.uleb128 0x5
 3712 0220 01       		.uleb128 0x1
 3713 0221 13       		.uleb128 0x13
 3714 0222 00       		.byte	0
 3715 0223 00       		.byte	0
 3716 0224 2B       		.uleb128 0x2b
 3717 0225 05       		.uleb128 0x5
 3718 0226 00       		.byte	0
 3719 0227 31       		.uleb128 0x31
 3720 0228 13       		.uleb128 0x13
 3721 0229 02       		.uleb128 0x2
 3722 022a 17       		.uleb128 0x17
 3723 022b 00       		.byte	0
 3724 022c 00       		.byte	0
 3725 022d 2C       		.uleb128 0x2c
 3726 022e 0B       		.uleb128 0xb
 3727 022f 01       		.byte	0x1
 3728 0230 55       		.uleb128 0x55
 3729 0231 17       		.uleb128 0x17
 3730 0232 00       		.byte	0
 3731 0233 00       		.byte	0
 3732 0234 2D       		.uleb128 0x2d
 3733 0235 34       		.uleb128 0x34
 3734 0236 00       		.byte	0
 3735 0237 31       		.uleb128 0x31
 3736 0238 13       		.uleb128 0x13
 3737 0239 02       		.uleb128 0x2
 3738 023a 17       		.uleb128 0x17
 3739 023b 00       		.byte	0
 3740 023c 00       		.byte	0
 3741 023d 2E       		.uleb128 0x2e
 3742 023e 1D       		.uleb128 0x1d
 3743 023f 01       		.byte	0x1
 3744 0240 31       		.uleb128 0x31
 3745 0241 13       		.uleb128 0x13
 3746 0242 11       		.uleb128 0x11
 3747 0243 01       		.uleb128 0x1
 3748 0244 12       		.uleb128 0x12
 3749 0245 06       		.uleb128 0x6
 3750 0246 58       		.uleb128 0x58
 3751 0247 0B       		.uleb128 0xb
 3752 0248 59       		.uleb128 0x59
 3753 0249 0B       		.uleb128 0xb
 3754 024a 01       		.uleb128 0x1
 3755 024b 13       		.uleb128 0x13
 3756 024c 00       		.byte	0
 3757 024d 00       		.byte	0
 3758 024e 2F       		.uleb128 0x2f
ARM GAS  /tmp/ccojrVRM.s 			page 67


 3759 024f 1D       		.uleb128 0x1d
 3760 0250 01       		.byte	0x1
 3761 0251 31       		.uleb128 0x31
 3762 0252 13       		.uleb128 0x13
 3763 0253 11       		.uleb128 0x11
 3764 0254 01       		.uleb128 0x1
 3765 0255 12       		.uleb128 0x12
 3766 0256 06       		.uleb128 0x6
 3767 0257 58       		.uleb128 0x58
 3768 0258 0B       		.uleb128 0xb
 3769 0259 59       		.uleb128 0x59
 3770 025a 05       		.uleb128 0x5
 3771 025b 00       		.byte	0
 3772 025c 00       		.byte	0
 3773 025d 30       		.uleb128 0x30
 3774 025e 0B       		.uleb128 0xb
 3775 025f 01       		.byte	0x1
 3776 0260 55       		.uleb128 0x55
 3777 0261 17       		.uleb128 0x17
 3778 0262 01       		.uleb128 0x1
 3779 0263 13       		.uleb128 0x13
 3780 0264 00       		.byte	0
 3781 0265 00       		.byte	0
 3782 0266 31       		.uleb128 0x31
 3783 0267 0B       		.uleb128 0xb
 3784 0268 01       		.byte	0x1
 3785 0269 11       		.uleb128 0x11
 3786 026a 01       		.uleb128 0x1
 3787 026b 12       		.uleb128 0x12
 3788 026c 06       		.uleb128 0x6
 3789 026d 00       		.byte	0
 3790 026e 00       		.byte	0
 3791 026f 32       		.uleb128 0x32
 3792 0270 1D       		.uleb128 0x1d
 3793 0271 01       		.byte	0x1
 3794 0272 31       		.uleb128 0x31
 3795 0273 13       		.uleb128 0x13
 3796 0274 11       		.uleb128 0x11
 3797 0275 01       		.uleb128 0x1
 3798 0276 12       		.uleb128 0x12
 3799 0277 06       		.uleb128 0x6
 3800 0278 58       		.uleb128 0x58
 3801 0279 0B       		.uleb128 0xb
 3802 027a 59       		.uleb128 0x59
 3803 027b 0B       		.uleb128 0xb
 3804 027c 00       		.byte	0
 3805 027d 00       		.byte	0
 3806 027e 33       		.uleb128 0x33
 3807 027f 898201   		.uleb128 0x4109
 3808 0282 01       		.byte	0x1
 3809 0283 11       		.uleb128 0x11
 3810 0284 01       		.uleb128 0x1
 3811 0285 31       		.uleb128 0x31
 3812 0286 13       		.uleb128 0x13
 3813 0287 00       		.byte	0
 3814 0288 00       		.byte	0
 3815 0289 34       		.uleb128 0x34
ARM GAS  /tmp/ccojrVRM.s 			page 68


 3816 028a 8A8201   		.uleb128 0x410a
 3817 028d 00       		.byte	0
 3818 028e 02       		.uleb128 0x2
 3819 028f 18       		.uleb128 0x18
 3820 0290 9142     		.uleb128 0x2111
 3821 0292 18       		.uleb128 0x18
 3822 0293 00       		.byte	0
 3823 0294 00       		.byte	0
 3824 0295 35       		.uleb128 0x35
 3825 0296 1D       		.uleb128 0x1d
 3826 0297 01       		.byte	0x1
 3827 0298 31       		.uleb128 0x31
 3828 0299 13       		.uleb128 0x13
 3829 029a 52       		.uleb128 0x52
 3830 029b 01       		.uleb128 0x1
 3831 029c 55       		.uleb128 0x55
 3832 029d 17       		.uleb128 0x17
 3833 029e 58       		.uleb128 0x58
 3834 029f 0B       		.uleb128 0xb
 3835 02a0 59       		.uleb128 0x59
 3836 02a1 0B       		.uleb128 0xb
 3837 02a2 01       		.uleb128 0x1
 3838 02a3 13       		.uleb128 0x13
 3839 02a4 00       		.byte	0
 3840 02a5 00       		.byte	0
 3841 02a6 36       		.uleb128 0x36
 3842 02a7 1D       		.uleb128 0x1d
 3843 02a8 01       		.byte	0x1
 3844 02a9 31       		.uleb128 0x31
 3845 02aa 13       		.uleb128 0x13
 3846 02ab 52       		.uleb128 0x52
 3847 02ac 01       		.uleb128 0x1
 3848 02ad 55       		.uleb128 0x55
 3849 02ae 17       		.uleb128 0x17
 3850 02af 58       		.uleb128 0x58
 3851 02b0 0B       		.uleb128 0xb
 3852 02b1 59       		.uleb128 0x59
 3853 02b2 05       		.uleb128 0x5
 3854 02b3 00       		.byte	0
 3855 02b4 00       		.byte	0
 3856 02b5 37       		.uleb128 0x37
 3857 02b6 898201   		.uleb128 0x4109
 3858 02b9 00       		.byte	0
 3859 02ba 11       		.uleb128 0x11
 3860 02bb 01       		.uleb128 0x1
 3861 02bc 9542     		.uleb128 0x2115
 3862 02be 19       		.uleb128 0x19
 3863 02bf 31       		.uleb128 0x31
 3864 02c0 13       		.uleb128 0x13
 3865 02c1 00       		.byte	0
 3866 02c2 00       		.byte	0
 3867 02c3 38       		.uleb128 0x38
 3868 02c4 05       		.uleb128 0x5
 3869 02c5 00       		.byte	0
 3870 02c6 03       		.uleb128 0x3
 3871 02c7 08       		.uleb128 0x8
 3872 02c8 3A       		.uleb128 0x3a
ARM GAS  /tmp/ccojrVRM.s 			page 69


 3873 02c9 0B       		.uleb128 0xb
 3874 02ca 3B       		.uleb128 0x3b
 3875 02cb 05       		.uleb128 0x5
 3876 02cc 49       		.uleb128 0x49
 3877 02cd 13       		.uleb128 0x13
 3878 02ce 02       		.uleb128 0x2
 3879 02cf 17       		.uleb128 0x17
 3880 02d0 00       		.byte	0
 3881 02d1 00       		.byte	0
 3882 02d2 39       		.uleb128 0x39
 3883 02d3 05       		.uleb128 0x5
 3884 02d4 00       		.byte	0
 3885 02d5 03       		.uleb128 0x3
 3886 02d6 0E       		.uleb128 0xe
 3887 02d7 3A       		.uleb128 0x3a
 3888 02d8 0B       		.uleb128 0xb
 3889 02d9 3B       		.uleb128 0x3b
 3890 02da 05       		.uleb128 0x5
 3891 02db 49       		.uleb128 0x49
 3892 02dc 13       		.uleb128 0x13
 3893 02dd 02       		.uleb128 0x2
 3894 02de 17       		.uleb128 0x17
 3895 02df 00       		.byte	0
 3896 02e0 00       		.byte	0
 3897 02e1 3A       		.uleb128 0x3a
 3898 02e2 898201   		.uleb128 0x4109
 3899 02e5 01       		.byte	0x1
 3900 02e6 11       		.uleb128 0x11
 3901 02e7 01       		.uleb128 0x1
 3902 02e8 9542     		.uleb128 0x2115
 3903 02ea 19       		.uleb128 0x19
 3904 02eb 31       		.uleb128 0x31
 3905 02ec 13       		.uleb128 0x13
 3906 02ed 00       		.byte	0
 3907 02ee 00       		.byte	0
 3908 02ef 3B       		.uleb128 0x3b
 3909 02f0 34       		.uleb128 0x34
 3910 02f1 00       		.byte	0
 3911 02f2 03       		.uleb128 0x3
 3912 02f3 0E       		.uleb128 0xe
 3913 02f4 3A       		.uleb128 0x3a
 3914 02f5 0B       		.uleb128 0xb
 3915 02f6 3B       		.uleb128 0x3b
 3916 02f7 0B       		.uleb128 0xb
 3917 02f8 49       		.uleb128 0x49
 3918 02f9 13       		.uleb128 0x13
 3919 02fa 02       		.uleb128 0x2
 3920 02fb 18       		.uleb128 0x18
 3921 02fc 00       		.byte	0
 3922 02fd 00       		.byte	0
 3923 02fe 3C       		.uleb128 0x3c
 3924 02ff 34       		.uleb128 0x34
 3925 0300 00       		.byte	0
 3926 0301 03       		.uleb128 0x3
 3927 0302 0E       		.uleb128 0xe
 3928 0303 3A       		.uleb128 0x3a
 3929 0304 0B       		.uleb128 0xb
ARM GAS  /tmp/ccojrVRM.s 			page 70


 3930 0305 3B       		.uleb128 0x3b
 3931 0306 05       		.uleb128 0x5
 3932 0307 49       		.uleb128 0x49
 3933 0308 13       		.uleb128 0x13
 3934 0309 3F       		.uleb128 0x3f
 3935 030a 19       		.uleb128 0x19
 3936 030b 3C       		.uleb128 0x3c
 3937 030c 19       		.uleb128 0x19
 3938 030d 00       		.byte	0
 3939 030e 00       		.byte	0
 3940 030f 3D       		.uleb128 0x3d
 3941 0310 34       		.uleb128 0x34
 3942 0311 00       		.byte	0
 3943 0312 03       		.uleb128 0x3
 3944 0313 08       		.uleb128 0x8
 3945 0314 3A       		.uleb128 0x3a
 3946 0315 0B       		.uleb128 0xb
 3947 0316 3B       		.uleb128 0x3b
 3948 0317 05       		.uleb128 0x5
 3949 0318 49       		.uleb128 0x49
 3950 0319 13       		.uleb128 0x13
 3951 031a 3F       		.uleb128 0x3f
 3952 031b 19       		.uleb128 0x19
 3953 031c 3C       		.uleb128 0x3c
 3954 031d 19       		.uleb128 0x19
 3955 031e 00       		.byte	0
 3956 031f 00       		.byte	0
 3957 0320 3E       		.uleb128 0x3e
 3958 0321 34       		.uleb128 0x34
 3959 0322 00       		.byte	0
 3960 0323 03       		.uleb128 0x3
 3961 0324 08       		.uleb128 0x8
 3962 0325 3A       		.uleb128 0x3a
 3963 0326 0B       		.uleb128 0xb
 3964 0327 3B       		.uleb128 0x3b
 3965 0328 0B       		.uleb128 0xb
 3966 0329 49       		.uleb128 0x49
 3967 032a 13       		.uleb128 0x13
 3968 032b 3F       		.uleb128 0x3f
 3969 032c 19       		.uleb128 0x19
 3970 032d 02       		.uleb128 0x2
 3971 032e 18       		.uleb128 0x18
 3972 032f 00       		.byte	0
 3973 0330 00       		.byte	0
 3974 0331 3F       		.uleb128 0x3f
 3975 0332 2E       		.uleb128 0x2e
 3976 0333 00       		.byte	0
 3977 0334 3F       		.uleb128 0x3f
 3978 0335 19       		.uleb128 0x19
 3979 0336 3C       		.uleb128 0x3c
 3980 0337 19       		.uleb128 0x19
 3981 0338 6E       		.uleb128 0x6e
 3982 0339 0E       		.uleb128 0xe
 3983 033a 03       		.uleb128 0x3
 3984 033b 0E       		.uleb128 0xe
 3985 033c 3A       		.uleb128 0x3a
 3986 033d 0B       		.uleb128 0xb
ARM GAS  /tmp/ccojrVRM.s 			page 71


 3987 033e 3B       		.uleb128 0x3b
 3988 033f 0B       		.uleb128 0xb
 3989 0340 00       		.byte	0
 3990 0341 00       		.byte	0
 3991 0342 40       		.uleb128 0x40
 3992 0343 2E       		.uleb128 0x2e
 3993 0344 00       		.byte	0
 3994 0345 3F       		.uleb128 0x3f
 3995 0346 19       		.uleb128 0x19
 3996 0347 3C       		.uleb128 0x3c
 3997 0348 19       		.uleb128 0x19
 3998 0349 6E       		.uleb128 0x6e
 3999 034a 0E       		.uleb128 0xe
 4000 034b 03       		.uleb128 0x3
 4001 034c 0E       		.uleb128 0xe
 4002 034d 3A       		.uleb128 0x3a
 4003 034e 0B       		.uleb128 0xb
 4004 034f 3B       		.uleb128 0x3b
 4005 0350 05       		.uleb128 0x5
 4006 0351 00       		.byte	0
 4007 0352 00       		.byte	0
 4008 0353 00       		.byte	0
 4009              		.section	.debug_loc,"",%progbits
 4010              	.Ldebug_loc0:
 4011              	.LLST0:
 4012 0000 00000000 		.4byte	.LVL1
 4013 0004 A8000000 		.4byte	.LVL28
 4014 0008 0600     		.2byte	0x6
 4015 000a 03       		.byte	0x3
 4016 000b 00000000 		.4byte	SD2
 4017 000f 9F       		.byte	0x9f
 4018 0010 B0000000 		.4byte	.LVL30
 4019 0014 1C010000 		.4byte	.LFE263
 4020 0018 0600     		.2byte	0x6
 4021 001a 03       		.byte	0x3
 4022 001b 00000000 		.4byte	SD2
 4023 001f 9F       		.byte	0x9f
 4024 0020 00000000 		.4byte	0
 4025 0024 00000000 		.4byte	0
 4026              	.LLST1:
 4027 0028 06000000 		.4byte	.LVL2
 4028 002c A8000000 		.4byte	.LVL28
 4029 0030 0100     		.2byte	0x1
 4030 0032 55       		.byte	0x55
 4031 0033 B0000000 		.4byte	.LVL30
 4032 0037 1C010000 		.4byte	.LFE263
 4033 003b 0100     		.2byte	0x1
 4034 003d 55       		.byte	0x55
 4035 003e 00000000 		.4byte	0
 4036 0042 00000000 		.4byte	0
 4037              	.LLST2:
 4038 0046 08000000 		.4byte	.LVL3
 4039 004a AC000000 		.4byte	.LVL29
 4040 004e 0100     		.2byte	0x1
 4041 0050 57       		.byte	0x57
 4042 0051 B0000000 		.4byte	.LVL30
 4043 0055 1C010000 		.4byte	.LFE263
ARM GAS  /tmp/ccojrVRM.s 			page 72


 4044 0059 0100     		.2byte	0x1
 4045 005b 57       		.byte	0x57
 4046 005c 00000000 		.4byte	0
 4047 0060 00000000 		.4byte	0
 4048              	.LLST3:
 4049 0064 0E000000 		.4byte	.LVL4
 4050 0068 26000000 		.4byte	.LVL8
 4051 006c 0100     		.2byte	0x1
 4052 006e 54       		.byte	0x54
 4053 006f 28000000 		.4byte	.LVL9
 4054 0073 6A000000 		.4byte	.LVL20
 4055 0077 0100     		.2byte	0x1
 4056 0079 54       		.byte	0x54
 4057 007a 6C000000 		.4byte	.LVL21
 4058 007e A8000000 		.4byte	.LVL28
 4059 0082 0100     		.2byte	0x1
 4060 0084 54       		.byte	0x54
 4061 0085 B0000000 		.4byte	.LVL30
 4062 0089 1C010000 		.4byte	.LFE263
 4063 008d 0100     		.2byte	0x1
 4064 008f 54       		.byte	0x54
 4065 0090 00000000 		.4byte	0
 4066 0094 00000000 		.4byte	0
 4067              	.LLST4:
 4068 0098 10000000 		.4byte	.LVL5
 4069 009c 16000000 		.4byte	.LVL6
 4070 00a0 0300     		.2byte	0x3
 4071 00a2 08       		.byte	0x8
 4072 00a3 20       		.byte	0x20
 4073 00a4 9F       		.byte	0x9f
 4074 00a5 00000000 		.4byte	0
 4075 00a9 00000000 		.4byte	0
 4076              	.LLST5:
 4077 00ad 22000000 		.4byte	.LVL7
 4078 00b1 2E000000 		.4byte	.LVL10
 4079 00b5 0100     		.2byte	0x1
 4080 00b7 51       		.byte	0x51
 4081 00b8 5E000000 		.4byte	.LVL17
 4082 00bc 67000000 		.4byte	.LVL19-1
 4083 00c0 0100     		.2byte	0x1
 4084 00c2 51       		.byte	0x51
 4085 00c3 00000000 		.4byte	0
 4086 00c7 00000000 		.4byte	0
 4087              	.LLST6:
 4088 00cb 32000000 		.4byte	.LVL11
 4089 00cf 60000000 		.4byte	.LVL18
 4090 00d3 0600     		.2byte	0x6
 4091 00d5 03       		.byte	0x3
 4092 00d6 00000000 		.4byte	SD2
 4093 00da 9F       		.byte	0x9f
 4094 00db 00000000 		.4byte	0
 4095 00df 00000000 		.4byte	0
 4096              	.LLST7:
 4097 00e3 32000000 		.4byte	.LVL11
 4098 00e7 60000000 		.4byte	.LVL18
 4099 00eb 0100     		.2byte	0x1
 4100 00ed 54       		.byte	0x54
ARM GAS  /tmp/ccojrVRM.s 			page 73


 4101 00ee 00000000 		.4byte	0
 4102 00f2 00000000 		.4byte	0
 4103              	.LLST8:
 4104 00f6 32000000 		.4byte	.LVL11
 4105 00fa 3C000000 		.4byte	.LVL12
 4106 00fe 0200     		.2byte	0x2
 4107 0100 30       		.byte	0x30
 4108 0101 9F       		.byte	0x9f
 4109 0102 3C000000 		.4byte	.LVL12
 4110 0106 59000000 		.4byte	.LVL16-1
 4111 010a 0100     		.2byte	0x1
 4112 010c 51       		.byte	0x51
 4113 010d 00000000 		.4byte	0
 4114 0111 00000000 		.4byte	0
 4115              	.LLST9:
 4116 0115 54000000 		.4byte	.LVL15
 4117 0119 59000000 		.4byte	.LVL16-1
 4118 011d 0100     		.2byte	0x1
 4119 011f 51       		.byte	0x51
 4120 0120 00000000 		.4byte	0
 4121 0124 00000000 		.4byte	0
 4122              	.LLST10:
 4123 0128 54000000 		.4byte	.LVL15
 4124 012c 5A000000 		.4byte	.LVL16
 4125 0130 0600     		.2byte	0x6
 4126 0132 03       		.byte	0x3
 4127 0133 04000000 		.4byte	SD2+4
 4128 0137 9F       		.byte	0x9f
 4129 0138 00000000 		.4byte	0
 4130 013c 00000000 		.4byte	0
 4131              	.LLST11:
 4132 0140 72000000 		.4byte	.LVL22
 4133 0144 78000000 		.4byte	.LVL23
 4134 0148 0200     		.2byte	0x2
 4135 014a 30       		.byte	0x30
 4136 014b 9F       		.byte	0x9f
 4137 014c 00000000 		.4byte	0
 4138 0150 00000000 		.4byte	0
 4139              	.LLST12:
 4140 0154 84000000 		.4byte	.LVL24
 4141 0158 8A000000 		.4byte	.LVL25
 4142 015c 0300     		.2byte	0x3
 4143 015e 08       		.byte	0x8
 4144 015f 20       		.byte	0x20
 4145 0160 9F       		.byte	0x9f
 4146 0161 00000000 		.4byte	0
 4147 0165 00000000 		.4byte	0
 4148              	.LLST13:
 4149 0169 8A000000 		.4byte	.LVL25
 4150 016d 94000000 		.4byte	.LVL26
 4151 0171 0600     		.2byte	0x6
 4152 0173 03       		.byte	0x3
 4153 0174 30000000 		.4byte	SD2+48
 4154 0178 9F       		.byte	0x9f
 4155 0179 E8000000 		.4byte	.LVL40
 4156 017d EE000000 		.4byte	.LVL41
 4157 0181 0600     		.2byte	0x6
ARM GAS  /tmp/ccojrVRM.s 			page 74


 4158 0183 03       		.byte	0x3
 4159 0184 30000000 		.4byte	SD2+48
 4160 0188 9F       		.byte	0x9f
 4161 0189 00000000 		.4byte	0
 4162 018d 00000000 		.4byte	0
 4163              	.LLST14:
 4164 0191 A4000000 		.4byte	.LVL27
 4165 0195 A8000000 		.4byte	.LVL28
 4166 0199 0200     		.2byte	0x2
 4167 019b 30       		.byte	0x30
 4168 019c 9F       		.byte	0x9f
 4169 019d 00000000 		.4byte	0
 4170 01a1 00000000 		.4byte	0
 4171              	.LLST15:
 4172 01a5 B0000000 		.4byte	.LVL30
 4173 01a9 B6000000 		.4byte	.LVL31
 4174 01ad 0300     		.2byte	0x3
 4175 01af 08       		.byte	0x8
 4176 01b0 20       		.byte	0x20
 4177 01b1 9F       		.byte	0x9f
 4178 01b2 00000000 		.4byte	0
 4179 01b6 00000000 		.4byte	0
 4180              	.LLST16:
 4181 01ba B6000000 		.4byte	.LVL31
 4182 01be C0000000 		.4byte	.LVL32
 4183 01c2 0400     		.2byte	0x4
 4184 01c4 0A       		.byte	0xa
 4185 01c5 0002     		.2byte	0x200
 4186 01c7 9F       		.byte	0x9f
 4187 01c8 00000000 		.4byte	0
 4188 01cc 00000000 		.4byte	0
 4189              	.LLST17:
 4190 01d0 B6000000 		.4byte	.LVL31
 4191 01d4 C0000000 		.4byte	.LVL32
 4192 01d8 0600     		.2byte	0x6
 4193 01da 03       		.byte	0x3
 4194 01db 04000000 		.4byte	SD2+4
 4195 01df 9F       		.byte	0x9f
 4196 01e0 00000000 		.4byte	0
 4197 01e4 00000000 		.4byte	0
 4198              	.LLST18:
 4199 01e8 C6000000 		.4byte	.LVL33
 4200 01ec CC000000 		.4byte	.LVL34
 4201 01f0 0200     		.2byte	0x2
 4202 01f2 30       		.byte	0x30
 4203 01f3 9F       		.byte	0x9f
 4204 01f4 00000000 		.4byte	0
 4205 01f8 00000000 		.4byte	0
 4206              	.LLST19:
 4207 01fc DA000000 		.4byte	.LVL37
 4208 0200 E0000000 		.4byte	.LVL38
 4209 0204 0100     		.2byte	0x1
 4210 0206 50       		.byte	0x50
 4211 0207 F8000000 		.4byte	.LVL43
 4212 020b FC000000 		.4byte	.LVL44
 4213 020f 0100     		.2byte	0x1
 4214 0211 50       		.byte	0x50
ARM GAS  /tmp/ccojrVRM.s 			page 75


 4215 0212 00000000 		.4byte	0
 4216 0216 00000000 		.4byte	0
 4217              	.LLST20:
 4218 021a CE000000 		.4byte	.LVL35
 4219 021e D4000000 		.4byte	.LVL36
 4220 0222 0300     		.2byte	0x3
 4221 0224 08       		.byte	0x8
 4222 0225 20       		.byte	0x20
 4223 0226 9F       		.byte	0x9f
 4224 0227 00000000 		.4byte	0
 4225 022b 00000000 		.4byte	0
 4226              	.LLST21:
 4227 022f E0000000 		.4byte	.LVL38
 4228 0233 E6000000 		.4byte	.LVL39
 4229 0237 0200     		.2byte	0x2
 4230 0239 30       		.byte	0x30
 4231 023a 9F       		.byte	0x9f
 4232 023b 00000000 		.4byte	0
 4233 023f 00000000 		.4byte	0
 4234              	.LLST22:
 4235 0243 F8000000 		.4byte	.LVL43
 4236 0247 00010000 		.4byte	.LVL45
 4237 024b 0200     		.2byte	0x2
 4238 024d 38       		.byte	0x38
 4239 024e 9F       		.byte	0x9f
 4240 024f 00000000 		.4byte	0
 4241 0253 00000000 		.4byte	0
 4242              	.LLST23:
 4243 0257 F8000000 		.4byte	.LVL43
 4244 025b 00010000 		.4byte	.LVL45
 4245 025f 0600     		.2byte	0x6
 4246 0261 03       		.byte	0x3
 4247 0262 04000000 		.4byte	SD2+4
 4248 0266 9F       		.byte	0x9f
 4249 0267 00000000 		.4byte	0
 4250 026b 00000000 		.4byte	0
 4251              	.LLST24:
 4252 026f EE000000 		.4byte	.LVL41
 4253 0273 F8000000 		.4byte	.LVL43
 4254 0277 0200     		.2byte	0x2
 4255 0279 40       		.byte	0x40
 4256 027a 9F       		.byte	0x9f
 4257 027b 00000000 		.4byte	0
 4258 027f 00000000 		.4byte	0
 4259              	.LLST25:
 4260 0283 EE000000 		.4byte	.LVL41
 4261 0287 F8000000 		.4byte	.LVL43
 4262 028b 0600     		.2byte	0x6
 4263 028d 03       		.byte	0x3
 4264 028e 04000000 		.4byte	SD2+4
 4265 0292 9F       		.byte	0x9f
 4266 0293 00000000 		.4byte	0
 4267 0297 00000000 		.4byte	0
 4268              	.LLST26:
 4269 029b 00000000 		.4byte	.LVL47
 4270 029f 12000000 		.4byte	.LVL49
 4271 02a3 0100     		.2byte	0x1
ARM GAS  /tmp/ccojrVRM.s 			page 76


 4272 02a5 50       		.byte	0x50
 4273 02a6 12000000 		.4byte	.LVL49
 4274 02aa 58000000 		.4byte	.LVL53
 4275 02ae 0100     		.2byte	0x1
 4276 02b0 55       		.byte	0x55
 4277 02b1 58000000 		.4byte	.LVL53
 4278 02b5 6C000000 		.4byte	.LVL54
 4279 02b9 0100     		.2byte	0x1
 4280 02bb 50       		.byte	0x50
 4281 02bc 6C000000 		.4byte	.LVL54
 4282 02c0 98000000 		.4byte	.LFE265
 4283 02c4 0100     		.2byte	0x1
 4284 02c6 55       		.byte	0x55
 4285 02c7 00000000 		.4byte	0
 4286 02cb 00000000 		.4byte	0
 4287              	.LLST27:
 4288 02cf 00000000 		.4byte	.LVL47
 4289 02d3 0C000000 		.4byte	.LVL48
 4290 02d7 0100     		.2byte	0x1
 4291 02d9 51       		.byte	0x51
 4292 02da 0C000000 		.4byte	.LVL48
 4293 02de 4A000000 		.4byte	.LVL51
 4294 02e2 0100     		.2byte	0x1
 4295 02e4 54       		.byte	0x54
 4296 02e5 4A000000 		.4byte	.LVL51
 4297 02e9 58000000 		.4byte	.LVL53
 4298 02ed 1300     		.2byte	0x13
 4299 02ef F3       		.byte	0xf3
 4300 02f0 01       		.uleb128 0x1
 4301 02f1 51       		.byte	0x51
 4302 02f2 03       		.byte	0x3
 4303 02f3 00000000 		.4byte	.LANCHOR1
 4304 02f7 F3       		.byte	0xf3
 4305 02f8 01       		.uleb128 0x1
 4306 02f9 51       		.byte	0x51
 4307 02fa 30       		.byte	0x30
 4308 02fb 2E       		.byte	0x2e
 4309 02fc 28       		.byte	0x28
 4310 02fd 0100     		.2byte	0x1
 4311 02ff 16       		.byte	0x16
 4312 0300 13       		.byte	0x13
 4313 0301 9F       		.byte	0x9f
 4314 0302 58000000 		.4byte	.LVL53
 4315 0306 98000000 		.4byte	.LFE265
 4316 030a 0100     		.2byte	0x1
 4317 030c 54       		.byte	0x54
 4318 030d 00000000 		.4byte	0
 4319 0311 00000000 		.4byte	0
 4320              	.LLST28:
 4321 0315 14000000 		.4byte	.LVL50
 4322 0319 58000000 		.4byte	.LVL53
 4323 031d 0100     		.2byte	0x1
 4324 031f 55       		.byte	0x55
 4325 0320 72000000 		.4byte	.LVL56
 4326 0324 98000000 		.4byte	.LFE265
 4327 0328 0100     		.2byte	0x1
 4328 032a 55       		.byte	0x55
ARM GAS  /tmp/ccojrVRM.s 			page 77


 4329 032b 00000000 		.4byte	0
 4330 032f 00000000 		.4byte	0
 4331              	.LLST29:
 4332 0333 14000000 		.4byte	.LVL50
 4333 0337 4A000000 		.4byte	.LVL51
 4334 033b 0100     		.2byte	0x1
 4335 033d 54       		.byte	0x54
 4336 033e 4A000000 		.4byte	.LVL51
 4337 0342 56000000 		.4byte	.LVL52
 4338 0346 1300     		.2byte	0x13
 4339 0348 F3       		.byte	0xf3
 4340 0349 01       		.uleb128 0x1
 4341 034a 51       		.byte	0x51
 4342 034b 03       		.byte	0x3
 4343 034c 00000000 		.4byte	.LANCHOR1
 4344 0350 F3       		.byte	0xf3
 4345 0351 01       		.uleb128 0x1
 4346 0352 51       		.byte	0x51
 4347 0353 30       		.byte	0x30
 4348 0354 2E       		.byte	0x2e
 4349 0355 28       		.byte	0x28
 4350 0356 0100     		.2byte	0x1
 4351 0358 16       		.byte	0x16
 4352 0359 13       		.byte	0x13
 4353 035a 9F       		.byte	0x9f
 4354 035b 72000000 		.4byte	.LVL56
 4355 035f 98000000 		.4byte	.LFE265
 4356 0363 0100     		.2byte	0x1
 4357 0365 54       		.byte	0x54
 4358 0366 00000000 		.4byte	0
 4359 036a 00000000 		.4byte	0
 4360              	.LLST30:
 4361 036e 14000000 		.4byte	.LVL50
 4362 0372 56000000 		.4byte	.LVL52
 4363 0376 0100     		.2byte	0x1
 4364 0378 53       		.byte	0x53
 4365 0379 72000000 		.4byte	.LVL56
 4366 037d 98000000 		.4byte	.LFE265
 4367 0381 0100     		.2byte	0x1
 4368 0383 53       		.byte	0x53
 4369 0384 00000000 		.4byte	0
 4370 0388 00000000 		.4byte	0
 4371              	.LLST31:
 4372 038c 00000000 		.4byte	.LVL57
 4373 0390 24000000 		.4byte	.LVL60
 4374 0394 0100     		.2byte	0x1
 4375 0396 50       		.byte	0x50
 4376 0397 24000000 		.4byte	.LVL60
 4377 039b 30000000 		.4byte	.LFE266
 4378 039f 0400     		.2byte	0x4
 4379 03a1 F3       		.byte	0xf3
 4380 03a2 01       		.uleb128 0x1
 4381 03a3 50       		.byte	0x50
 4382 03a4 9F       		.byte	0x9f
 4383 03a5 00000000 		.4byte	0
 4384 03a9 00000000 		.4byte	0
 4385              	.LLST32:
ARM GAS  /tmp/ccojrVRM.s 			page 78


 4386 03ad 0C000000 		.4byte	.LVL58
 4387 03b1 16000000 		.4byte	.LVL59
 4388 03b5 0100     		.2byte	0x1
 4389 03b7 53       		.byte	0x53
 4390 03b8 00000000 		.4byte	0
 4391 03bc 00000000 		.4byte	0
 4392              		.section	.debug_aranges,"",%progbits
 4393 0000 3C000000 		.4byte	0x3c
 4394 0004 0200     		.2byte	0x2
 4395 0006 00000000 		.4byte	.Ldebug_info0
 4396 000a 04       		.byte	0x4
 4397 000b 00       		.byte	0
 4398 000c 0000     		.2byte	0
 4399 000e 0000     		.2byte	0
 4400 0010 00000000 		.4byte	.LFB262
 4401 0014 10000000 		.4byte	.LFE262-.LFB262
 4402 0018 00000000 		.4byte	.LFB263
 4403 001c 1C010000 		.4byte	.LFE263-.LFB263
 4404 0020 00000000 		.4byte	.LFB264
 4405 0024 20000000 		.4byte	.LFE264-.LFB264
 4406 0028 00000000 		.4byte	.LFB265
 4407 002c 98000000 		.4byte	.LFE265-.LFB265
 4408 0030 00000000 		.4byte	.LFB266
 4409 0034 30000000 		.4byte	.LFE266-.LFB266
 4410 0038 00000000 		.4byte	0
 4411 003c 00000000 		.4byte	0
 4412              		.section	.debug_ranges,"",%progbits
 4413              	.Ldebug_ranges0:
 4414 0000 02000000 		.4byte	.LBB232
 4415 0004 A8000000 		.4byte	.LBE232
 4416 0008 B0000000 		.4byte	.LBB307
 4417 000c 1C010000 		.4byte	.LBE307
 4418 0010 00000000 		.4byte	0
 4419 0014 00000000 		.4byte	0
 4420 0018 1E000000 		.4byte	.LBB240
 4421 001c 28000000 		.4byte	.LBE240
 4422 0020 2E000000 		.4byte	.LBB245
 4423 0024 6C000000 		.4byte	.LBE245
 4424 0028 00000000 		.4byte	0
 4425 002c 00000000 		.4byte	0
 4426 0030 8A000000 		.4byte	.LBB258
 4427 0034 94000000 		.4byte	.LBE258
 4428 0038 E8000000 		.4byte	.LBB302
 4429 003c EE000000 		.4byte	.LBE302
 4430 0040 00000000 		.4byte	0
 4431 0044 00000000 		.4byte	0
 4432 0048 A0000000 		.4byte	.LBB261
 4433 004c A2000000 		.4byte	.LBE261
 4434 0050 A4000000 		.4byte	.LBB272
 4435 0054 A8000000 		.4byte	.LBE272
 4436 0058 00000000 		.4byte	0
 4437 005c 00000000 		.4byte	0
 4438 0060 CE000000 		.4byte	.LBB287
 4439 0064 E8000000 		.4byte	.LBE287
 4440 0068 F8000000 		.4byte	.LBB305
 4441 006c 1C010000 		.4byte	.LBE305
 4442 0070 00000000 		.4byte	0
ARM GAS  /tmp/ccojrVRM.s 			page 79


 4443 0074 00000000 		.4byte	0
 4444 0078 14000000 		.4byte	.LBB308
 4445 007c 58000000 		.4byte	.LBE308
 4446 0080 72000000 		.4byte	.LBB311
 4447 0084 98000000 		.4byte	.LBE311
 4448 0088 00000000 		.4byte	0
 4449 008c 00000000 		.4byte	0
 4450 0090 0C000000 		.4byte	.LBB312
 4451 0094 0E000000 		.4byte	.LBE312
 4452 0098 10000000 		.4byte	.LBB315
 4453 009c 16000000 		.4byte	.LBE315
 4454 00a0 00000000 		.4byte	0
 4455 00a4 00000000 		.4byte	0
 4456 00a8 00000000 		.4byte	.LFB262
 4457 00ac 10000000 		.4byte	.LFE262
 4458 00b0 00000000 		.4byte	.LFB263
 4459 00b4 1C010000 		.4byte	.LFE263
 4460 00b8 00000000 		.4byte	.LFB264
 4461 00bc 20000000 		.4byte	.LFE264
 4462 00c0 00000000 		.4byte	.LFB265
 4463 00c4 98000000 		.4byte	.LFE265
 4464 00c8 00000000 		.4byte	.LFB266
 4465 00cc 30000000 		.4byte	.LFE266
 4466 00d0 00000000 		.4byte	0
 4467 00d4 00000000 		.4byte	0
 4468              		.section	.debug_line,"",%progbits
 4469              	.Ldebug_line0:
 4470 0000 A9040000 		.section	.debug_str,"MS",%progbits,1
 4470      02006203 
 4470      00000201 
 4470      FB0E0D00 
 4470      01010101 
 4471              	.LASF206:
 4472 0000 6E766963 		.ascii	"nvicEnableVector\000"
 4472      456E6162 
 4472      6C655665 
 4472      63746F72 
 4472      00
 4473              	.LASF55:
 4474 0011 72656164 		.ascii	"ready_list_t\000"
 4474      795F6C69 
 4474      73745F74 
 4474      00
 4475              	.LASF4:
 4476 001e 73697A65 		.ascii	"size_t\000"
 4476      5F7400
 4477              	.LASF120:
 4478 0025 7264796D 		.ascii	"rdymsg\000"
 4478      736700
 4479              	.LASF20:
 4480 002c 75696E74 		.ascii	"uint64_t\000"
 4480      36345F74 
 4480      00
 4481              	.LASF5:
 4482 0035 5F5F7569 		.ascii	"__uint8_t\000"
 4482      6E74385F 
 4482      7400
ARM GAS  /tmp/ccojrVRM.s 			page 80


 4483              	.LASF117:
 4484 003f 706F7274 		.ascii	"port_intctx\000"
 4484      5F696E74 
 4484      63747800 
 4485              	.LASF74:
 4486 004b 73797374 		.ascii	"system_debug_t\000"
 4486      656D5F64 
 4486      65627567 
 4486      5F7400
 4487              	.LASF194:
 4488 005a 7365745F 		.ascii	"set_error\000"
 4488      6572726F 
 4488      7200
 4489              	.LASF157:
 4490 0064 696E7075 		.ascii	"input_queue_t\000"
 4490      745F7175 
 4490      6575655F 
 4490      7400
 4491              	.LASF179:
 4492 0072 706F7274 		.ascii	"port_lock\000"
 4492      5F6C6F63 
 4492      6B00
 4493              	.LASF208:
 4494 007c 474E5520 		.ascii	"GNU C11 5.4.1 20160919 (release) [ARM/embedded-5-br"
 4494      43313120 
 4494      352E342E 
 4494      31203230 
 4494      31363039 
 4495 00af 616E6368 		.ascii	"anch revision 240496] -mcpu=cortex-m4 -mno-thumb-in"
 4495      20726576 
 4495      6973696F 
 4495      6E203234 
 4495      30343936 
 4496 00e2 74657277 		.ascii	"terwork -mthumb -ggdb -O2 -fomit-frame-pointer -fal"
 4496      6F726B20 
 4496      2D6D7468 
 4496      756D6220 
 4496      2D676764 
 4497 0115 69676E2D 		.ascii	"ign-functions=16 -ffunction-sections -fdata-section"
 4497      66756E63 
 4497      74696F6E 
 4497      733D3136 
 4497      202D6666 
 4498 0148 73202D66 		.ascii	"s -fno-common\000"
 4498      6E6F2D63 
 4498      6F6D6D6F 
 4498      6E00
 4499              	.LASF15:
 4500 0156 6C6F6E67 		.ascii	"long long unsigned int\000"
 4500      206C6F6E 
 4500      6720756E 
 4500      7369676E 
 4500      65642069 
 4501              	.LASF189:
 4502 016d 6F73616C 		.ascii	"osalEventBroadcastFlagsI\000"
 4502      4576656E 
 4502      7442726F 
ARM GAS  /tmp/ccojrVRM.s 			page 81


 4502      61646361 
 4502      7374466C 
 4503              	.LASF128:
 4504 0186 735F7175 		.ascii	"s_queue\000"
 4504      65756500 
 4505              	.LASF121:
 4506 018e 65786974 		.ascii	"exitcode\000"
 4506      636F6465 
 4506      00
 4507              	.LASF81:
 4508 0197 6D61696E 		.ascii	"mainthread\000"
 4508      74687265 
 4508      616400
 4509              	.LASF10:
 4510 01a2 5F5F696E 		.ascii	"__int32_t\000"
 4510      7433325F 
 4510      7400
 4511              	.LASF71:
 4512 01ac 76697274 		.ascii	"virtual_timers_list_t\000"
 4512      75616C5F 
 4512      74696D65 
 4512      72735F6C 
 4512      6973745F 
 4513              	.LASF191:
 4514 01c2 6F73616C 		.ascii	"osalSysUnlockFromISR\000"
 4514      53797355 
 4514      6E6C6F63 
 4514      6B46726F 
 4514      6D495352 
 4515              	.LASF146:
 4516 01d7 696F5F71 		.ascii	"io_queue_t\000"
 4516      75657565 
 4516      5F7400
 4517              	.LASF54:
 4518 01e2 63685F74 		.ascii	"ch_threads_queue\000"
 4518      68726561 
 4518      64735F71 
 4518      75657565 
 4518      00
 4519              	.LASF100:
 4520 01f3 41484231 		.ascii	"AHB1LPENR\000"
 4520      4C50454E 
 4520      5200
 4521              	.LASF205:
 4522 01fd 73644F62 		.ascii	"sdObjectInit\000"
 4522      6A656374 
 4522      496E6974 
 4522      00
 4523              	.LASF178:
 4524 020a 72656164 		.ascii	"readt\000"
 4524      7400
 4525              	.LASF148:
 4526 0210 715F7761 		.ascii	"q_waiting\000"
 4526      6974696E 
 4526      6700
 4527              	.LASF135:
 4528 021a 6D757465 		.ascii	"mutex_t\000"
ARM GAS  /tmp/ccojrVRM.s 			page 82


 4528      785F7400 
 4529              	.LASF1:
 4530 0222 6C6F6E67 		.ascii	"long long int\000"
 4530      206C6F6E 
 4530      6720696E 
 4530      7400
 4531              	.LASF3:
 4532 0230 7369676E 		.ascii	"signed char\000"
 4532      65642063 
 4532      68617200 
 4533              	.LASF86:
 4534 023c 41484231 		.ascii	"AHB1RSTR\000"
 4534      52535452 
 4534      00
 4535              	.LASF112:
 4536 0245 47545052 		.ascii	"GTPR\000"
 4536      00
 4537              	.LASF39:
 4538 024a 705F7374 		.ascii	"p_state\000"
 4538      61746500 
 4539              	.LASF48:
 4540 0252 705F6D70 		.ascii	"p_mpool\000"
 4540      6F6F6C00 
 4541              	.LASF131:
 4542 025a 6D5F7175 		.ascii	"m_queue\000"
 4542      65756500 
 4543              	.LASF80:
 4544 0262 76746C69 		.ascii	"vtlist\000"
 4544      737400
 4545              	.LASF180:
 4546 0269 706F7274 		.ascii	"port_unlock\000"
 4546      5F756E6C 
 4546      6F636B00 
 4547              	.LASF212:
 4548 0275 64656661 		.ascii	"default_config\000"
 4548      756C745F 
 4548      636F6E66 
 4548      696700
 4549              	.LASF166:
 4550 0284 73746174 		.ascii	"state\000"
 4550      6500
 4551              	.LASF78:
 4552 028a 63685F73 		.ascii	"ch_system\000"
 4552      79737465 
 4552      6D00
 4553              	.LASF11:
 4554 0294 6C6F6E67 		.ascii	"long int\000"
 4554      20696E74 
 4554      00
 4555              	.LASF91:
 4556 029d 41504232 		.ascii	"APB2RSTR\000"
 4556      52535452 
 4556      00
 4557              	.LASF104:
 4558 02a6 41504231 		.ascii	"APB1LPENR\000"
 4558      4C50454E 
 4558      5200
ARM GAS  /tmp/ccojrVRM.s 			page 83


 4559              	.LASF23:
 4560 02b0 74737461 		.ascii	"tstate_t\000"
 4560      74655F74 
 4560      00
 4561              	.LASF203:
 4562 02b9 63684F51 		.ascii	"chOQGetI\000"
 4562      47657449 
 4562      00
 4563              	.LASF41:
 4564 02c2 705F7265 		.ascii	"p_refs\000"
 4564      667300
 4565              	.LASF150:
 4566 02c9 715F6275 		.ascii	"q_buffer\000"
 4566      66666572 
 4566      00
 4567              	.LASF152:
 4568 02d2 715F7772 		.ascii	"q_wrptr\000"
 4568      70747200 
 4569              	.LASF201:
 4570 02da 63684576 		.ascii	"chEvtBroadcastFlagsI\000"
 4570      7442726F 
 4570      61646361 
 4570      7374466C 
 4570      61677349 
 4571              	.LASF36:
 4572 02ef 705F6E65 		.ascii	"p_newer\000"
 4572      77657200 
 4573              	.LASF84:
 4574 02f7 504C4C43 		.ascii	"PLLCFGR\000"
 4574      46475200 
 4575              	.LASF184:
 4576 02ff 63685379 		.ascii	"chSysUnlockFromISR\000"
 4576      73556E6C 
 4576      6F636B46 
 4576      726F6D49 
 4576      535200
 4577              	.LASF2:
 4578 0312 6C6F6E67 		.ascii	"long double\000"
 4578      20646F75 
 4578      626C6500 
 4579              	.LASF60:
 4580 031e 725F6E65 		.ascii	"r_newer\000"
 4580      77657200 
 4581              	.LASF114:
 4582 0326 72656761 		.ascii	"regarm_t\000"
 4582      726D5F74 
 4582      00
 4583              	.LASF67:
 4584 032f 76745F70 		.ascii	"vt_prev\000"
 4584      72657600 
 4585              	.LASF192:
 4586 0337 6F73616C 		.ascii	"osalSysLockFromISR\000"
 4586      5379734C 
 4586      6F636B46 
 4586      726F6D49 
 4586      535200
 4587              	.LASF193:
ARM GAS  /tmp/ccojrVRM.s 			page 84


 4588 034a 75736172 		.ascii	"usart_deinit\000"
 4588      745F6465 
 4588      696E6974 
 4588      00
 4589              	.LASF187:
 4590 0357 76616C75 		.ascii	"value\000"
 4590      6500
 4591              	.LASF147:
 4592 035d 696F5F71 		.ascii	"io_queue\000"
 4592      75657565 
 4592      00
 4593              	.LASF145:
 4594 0366 6576656E 		.ascii	"event_source_t\000"
 4594      745F736F 
 4594      75726365 
 4594      5F7400
 4595              	.LASF82:
 4596 0375 69646C65 		.ascii	"idle_thread_wa\000"
 4596      5F746872 
 4596      6561645F 
 4596      776100
 4597              	.LASF29:
 4598 0384 636E745F 		.ascii	"cnt_t\000"
 4598      7400
 4599              	.LASF169:
 4600 038a 75736172 		.ascii	"usart\000"
 4600      7400
 4601              	.LASF0:
 4602 0390 756E7369 		.ascii	"unsigned int\000"
 4602      676E6564 
 4602      20696E74 
 4602      00
 4603              	.LASF66:
 4604 039d 76745F6E 		.ascii	"vt_next\000"
 4604      65787400 
 4605              	.LASF17:
 4606 03a5 75696E74 		.ascii	"uint16_t\000"
 4606      31365F74 
 4606      00
 4607              	.LASF172:
 4608 03ae 53657269 		.ascii	"SerialDriverVMT\000"
 4608      616C4472 
 4608      69766572 
 4608      564D5400 
 4609              	.LASF124:
 4610 03be 77747365 		.ascii	"wtsemp\000"
 4610      6D7000
 4611              	.LASF167:
 4612 03c5 69717565 		.ascii	"iqueue\000"
 4612      756500
 4613              	.LASF43:
 4614 03cc 705F6D73 		.ascii	"p_msgqueue\000"
 4614      67717565 
 4614      756500
 4615              	.LASF197:
 4616 03d7 73645F6C 		.ascii	"sd_lld_init\000"
 4616      6C645F69 
ARM GAS  /tmp/ccojrVRM.s 			page 85


 4616      6E697400 
 4617              	.LASF176:
 4618 03e3 67657474 		.ascii	"gett\000"
 4618      00
 4619              	.LASF129:
 4620 03e8 735F636E 		.ascii	"s_cnt\000"
 4620      7400
 4621              	.LASF165:
 4622 03ee 6576656E 		.ascii	"event\000"
 4622      7400
 4623              	.LASF9:
 4624 03f4 73686F72 		.ascii	"short unsigned int\000"
 4624      7420756E 
 4624      7369676E 
 4624      65642069 
 4624      6E7400
 4625              	.LASF51:
 4626 0407 63685F74 		.ascii	"ch_thread\000"
 4626      68726561 
 4626      6400
 4627              	.LASF110:
 4628 0411 504C4C49 		.ascii	"PLLI2SCFGR\000"
 4628      32534346 
 4628      475200
 4629              	.LASF142:
 4630 041c 656C5F77 		.ascii	"el_wflags\000"
 4630      666C6167 
 4630      7300
 4631              	.LASF26:
 4632 0426 6D73675F 		.ascii	"msg_t\000"
 4632      7400
 4633              	.LASF168:
 4634 042c 6F717565 		.ascii	"oqueue\000"
 4634      756500
 4635              	.LASF204:
 4636 0433 5F706F72 		.ascii	"_port_irq_epilogue\000"
 4636      745F6972 
 4636      715F6570 
 4636      696C6F67 
 4636      756500
 4637              	.LASF113:
 4638 0446 55534152 		.ascii	"USART_TypeDef\000"
 4638      545F5479 
 4638      70654465 
 4638      6600
 4639              	.LASF177:
 4640 0454 77726974 		.ascii	"writet\000"
 4640      657400
 4641              	.LASF122:
 4642 045b 77746F62 		.ascii	"wtobjp\000"
 4642      6A7000
 4643              	.LASF105:
 4644 0462 41504232 		.ascii	"APB2LPENR\000"
 4644      4C50454E 
 4644      5200
 4645              	.LASF56:
 4646 046c 63685F72 		.ascii	"ch_ready_list\000"
ARM GAS  /tmp/ccojrVRM.s 			page 86


 4646      65616479 
 4646      5F6C6973 
 4646      7400
 4647              	.LASF27:
 4648 047a 6576656E 		.ascii	"eventmask_t\000"
 4648      746D6173 
 4648      6B5F7400 
 4649              	.LASF170:
 4650 0486 73706565 		.ascii	"speed\000"
 4650      6400
 4651              	.LASF196:
 4652 048c 56656374 		.ascii	"VectorD8\000"
 4652      6F724438 
 4652      00
 4653              	.LASF156:
 4654 0495 716E6F74 		.ascii	"qnotify_t\000"
 4654      6966795F 
 4654      7400
 4655              	.LASF115:
 4656 049f 73746B61 		.ascii	"stkalign_t\000"
 4656      6C69676E 
 4656      5F7400
 4657              	.LASF50:
 4658 04aa 74687265 		.ascii	"threads_list_t\000"
 4658      6164735F 
 4658      6C697374 
 4658      5F7400
 4659              	.LASF173:
 4660 04b9 77726974 		.ascii	"write\000"
 4660      6500
 4661              	.LASF64:
 4662 04bf 76697274 		.ascii	"virtual_timer_t\000"
 4662      75616C5F 
 4662      74696D65 
 4662      725F7400 
 4663              	.LASF175:
 4664 04cf 70757474 		.ascii	"putt\000"
 4664      00
 4665              	.LASF186:
 4666 04d4 75736172 		.ascii	"usart_init\000"
 4666      745F696E 
 4666      697400
 4667              	.LASF42:
 4668 04df 705F7761 		.ascii	"p_waiting\000"
 4668      6974696E 
 4668      6700
 4669              	.LASF83:
 4670 04e9 73697A65 		.ascii	"sizetype\000"
 4670      74797065 
 4670      00
 4671              	.LASF49:
 4672 04f2 74687265 		.ascii	"thread_reference_t\000"
 4672      61645F72 
 4672      65666572 
 4672      656E6365 
 4672      5F7400
 4673              	.LASF72:
ARM GAS  /tmp/ccojrVRM.s 			page 87


 4674 0505 63685F76 		.ascii	"ch_virtual_timers_list\000"
 4674      69727475 
 4674      616C5F74 
 4674      696D6572 
 4674      735F6C69 
 4675              	.LASF149:
 4676 051c 715F636F 		.ascii	"q_counter\000"
 4676      756E7465 
 4676      7200
 4677              	.LASF123:
 4678 0526 77747472 		.ascii	"wttrp\000"
 4678      7000
 4679              	.LASF32:
 4680 052c 705F6E65 		.ascii	"p_next\000"
 4680      787400
 4681              	.LASF95:
 4682 0533 41484233 		.ascii	"AHB3ENR\000"
 4682      454E5200 
 4683              	.LASF73:
 4684 053b 76745F6C 		.ascii	"vt_lasttime\000"
 4684      61737474 
 4684      696D6500 
 4685              	.LASF37:
 4686 0547 705F6F6C 		.ascii	"p_older\000"
 4686      64657200 
 4687              	.LASF59:
 4688 054f 725F6374 		.ascii	"r_ctx\000"
 4688      7800
 4689              	.LASF101:
 4690 0555 41484232 		.ascii	"AHB2LPENR\000"
 4690      4C50454E 
 4690      5200
 4691              	.LASF119:
 4692 055f 746D5F63 		.ascii	"tm_calibration_t\000"
 4692      616C6962 
 4692      72617469 
 4692      6F6E5F74 
 4692      00
 4693              	.LASF62:
 4694 0570 725F6375 		.ascii	"r_current\000"
 4694      7272656E 
 4694      7400
 4695              	.LASF90:
 4696 057a 41504231 		.ascii	"APB1RSTR\000"
 4696      52535452 
 4696      00
 4697              	.LASF140:
 4698 0583 656C5F65 		.ascii	"el_events\000"
 4698      76656E74 
 4698      7300
 4699              	.LASF171:
 4700 058d 53657269 		.ascii	"SerialConfig\000"
 4700      616C436F 
 4700      6E666967 
 4700      00
 4701              	.LASF14:
 4702 059a 5F5F7569 		.ascii	"__uint64_t\000"
ARM GAS  /tmp/ccojrVRM.s 			page 88


 4702      6E743634 
 4702      5F7400
 4703              	.LASF211:
 4704 05a5 6E6F7469 		.ascii	"notify2\000"
 4704      66793200 
 4705              	.LASF209:
 4706 05ad 2F686F6D 		.ascii	"/home/selim/working/ChibiOS/os/hal/ports/STM32/LLD/"
 4706      652F7365 
 4706      6C696D2F 
 4706      776F726B 
 4706      696E672F 
 4707 05e0 55534152 		.ascii	"USARTv1/serial_lld.c\000"
 4707      5476312F 
 4707      73657269 
 4707      616C5F6C 
 4707      6C642E63 
 4708              	.LASF24:
 4709 05f5 74726566 		.ascii	"trefs_t\000"
 4709      735F7400 
 4710              	.LASF89:
 4711 05fd 52455345 		.ascii	"RESERVED0\000"
 4711      52564544 
 4711      3000
 4712              	.LASF92:
 4713 0607 52455345 		.ascii	"RESERVED1\000"
 4713      52564544 
 4713      3100
 4714              	.LASF96:
 4715 0611 52455345 		.ascii	"RESERVED2\000"
 4715      52564544 
 4715      3200
 4716              	.LASF99:
 4717 061b 52455345 		.ascii	"RESERVED3\000"
 4717      52564544 
 4717      3300
 4718              	.LASF103:
 4719 0625 52455345 		.ascii	"RESERVED4\000"
 4719      52564544 
 4719      3400
 4720              	.LASF33:
 4721 062f 705F7072 		.ascii	"p_prev\000"
 4721      657600
 4722              	.LASF108:
 4723 0636 52455345 		.ascii	"RESERVED6\000"
 4723      52564544 
 4723      3600
 4724              	.LASF25:
 4725 0640 74707269 		.ascii	"tprio_t\000"
 4725      6F5F7400 
 4726              	.LASF153:
 4727 0648 715F7264 		.ascii	"q_rdptr\000"
 4727      70747200 
 4728              	.LASF38:
 4729 0650 705F6E61 		.ascii	"p_name\000"
 4729      6D6500
 4730              	.LASF75:
 4731 0657 63685F73 		.ascii	"ch_system_debug\000"
ARM GAS  /tmp/ccojrVRM.s 			page 89


 4731      79737465 
 4731      6D5F6465 
 4731      62756700 
 4732              	.LASF159:
 4733 0667 5F426F6F 		.ascii	"_Bool\000"
 4733      6C00
 4734              	.LASF18:
 4735 066d 696E7433 		.ascii	"int32_t\000"
 4735      325F7400 
 4736              	.LASF6:
 4737 0675 756E7369 		.ascii	"unsigned char\000"
 4737      676E6564 
 4737      20636861 
 4737      7200
 4738              	.LASF198:
 4739 0683 73645F6C 		.ascii	"sd_lld_start\000"
 4739      6C645F73 
 4739      74617274 
 4739      00
 4740              	.LASF139:
 4741 0690 656C5F6C 		.ascii	"el_listener\000"
 4741      69737465 
 4741      6E657200 
 4742              	.LASF200:
 4743 069c 49544D5F 		.ascii	"ITM_RxBuffer\000"
 4743      52784275 
 4743      66666572 
 4743      00
 4744              	.LASF141:
 4745 06a9 656C5F66 		.ascii	"el_flags\000"
 4745      6C616773 
 4745      00
 4746              	.LASF111:
 4747 06b2 5243435F 		.ascii	"RCC_TypeDef\000"
 4747      54797065 
 4747      44656600 
 4748              	.LASF46:
 4749 06be 705F6D74 		.ascii	"p_mtxlist\000"
 4749      786C6973 
 4749      7400
 4750              	.LASF7:
 4751 06c8 73686F72 		.ascii	"short int\000"
 4751      7420696E 
 4751      7400
 4752              	.LASF102:
 4753 06d2 41484233 		.ascii	"AHB3LPENR\000"
 4753      4C50454E 
 4753      5200
 4754              	.LASF58:
 4755 06dc 725F7072 		.ascii	"r_prio\000"
 4755      696F00
 4756              	.LASF126:
 4757 06e3 65776D61 		.ascii	"ewmask\000"
 4757      736B00
 4758              	.LASF40:
 4759 06ea 705F666C 		.ascii	"p_flags\000"
 4759      61677300 
ARM GAS  /tmp/ccojrVRM.s 			page 90


 4760              	.LASF138:
 4761 06f2 656C5F6E 		.ascii	"el_next\000"
 4761      65787400 
 4762              	.LASF161:
 4763 06fa 53445F53 		.ascii	"SD_STOP\000"
 4763      544F5000 
 4764              	.LASF98:
 4765 0702 41504232 		.ascii	"APB2ENR\000"
 4765      454E5200 
 4766              	.LASF88:
 4767 070a 41484233 		.ascii	"AHB3RSTR\000"
 4767      52535452 
 4767      00
 4768              	.LASF53:
 4769 0713 74687265 		.ascii	"threads_queue_t\000"
 4769      6164735F 
 4769      71756575 
 4769      655F7400 
 4770              	.LASF195:
 4771 0723 73657276 		.ascii	"serve_interrupt\000"
 4771      655F696E 
 4771      74657272 
 4771      75707400 
 4772              	.LASF127:
 4773 0733 63685F73 		.ascii	"ch_semaphore\000"
 4773      656D6170 
 4773      686F7265 
 4773      00
 4774              	.LASF45:
 4775 0740 705F6570 		.ascii	"p_epending\000"
 4775      656E6469 
 4775      6E6700
 4776              	.LASF160:
 4777 074b 53445F55 		.ascii	"SD_UNINIT\000"
 4777      4E494E49 
 4777      5400
 4778              	.LASF106:
 4779 0755 52455345 		.ascii	"RESERVED5\000"
 4779      52564544 
 4779      3500
 4780              	.LASF19:
 4781 075f 75696E74 		.ascii	"uint32_t\000"
 4781      33325F74 
 4781      00
 4782              	.LASF125:
 4783 0768 77746D74 		.ascii	"wtmtxp\000"
 4783      787000
 4784              	.LASF57:
 4785 076f 725F7175 		.ascii	"r_queue\000"
 4785      65756500 
 4786              	.LASF68:
 4787 0777 76745F64 		.ascii	"vt_delta\000"
 4787      656C7461 
 4787      00
 4788              	.LASF52:
 4789 0780 63685F74 		.ascii	"ch_threads_list\000"
 4789      68726561 
ARM GAS  /tmp/ccojrVRM.s 			page 91


 4789      64735F6C 
 4789      69737400 
 4790              	.LASF164:
 4791 0790 53657269 		.ascii	"SerialDriver\000"
 4791      616C4472 
 4791      69766572 
 4791      00
 4792              	.LASF207:
 4793 079d 6E766963 		.ascii	"nvicDisableVector\000"
 4793      44697361 
 4793      626C6556 
 4793      6563746F 
 4793      7200
 4794              	.LASF13:
 4795 07af 6C6F6E67 		.ascii	"long unsigned int\000"
 4795      20756E73 
 4795      69676E65 
 4795      6420696E 
 4795      7400
 4796              	.LASF174:
 4797 07c1 72656164 		.ascii	"read\000"
 4797      00
 4798              	.LASF134:
 4799 07c6 63686172 		.ascii	"char\000"
 4799      00
 4800              	.LASF202:
 4801 07cb 7364496E 		.ascii	"sdIncomingDataI\000"
 4801      636F6D69 
 4801      6E674461 
 4801      74614900 
 4802              	.LASF188:
 4803 07db 636F6E66 		.ascii	"config\000"
 4803      696700
 4804              	.LASF8:
 4805 07e2 5F5F7569 		.ascii	"__uint16_t\000"
 4805      6E743136 
 4805      5F7400
 4806              	.LASF87:
 4807 07ed 41484232 		.ascii	"AHB2RSTR\000"
 4807      52535452 
 4807      00
 4808              	.LASF182:
 4809 07f6 706F7274 		.ascii	"port_unlock_from_isr\000"
 4809      5F756E6C 
 4809      6F636B5F 
 4809      66726F6D 
 4809      5F697372 
 4810              	.LASF31:
 4811 080b 74687265 		.ascii	"thread_t\000"
 4811      61645F74 
 4811      00
 4812              	.LASF133:
 4813 0814 6D5F6E65 		.ascii	"m_next\000"
 4813      787400
 4814              	.LASF30:
 4815 081b 73797374 		.ascii	"systime_t\000"
 4815      696D655F 
ARM GAS  /tmp/ccojrVRM.s 			page 92


 4815      7400
 4816              	.LASF47:
 4817 0825 705F7265 		.ascii	"p_realprio\000"
 4817      616C7072 
 4817      696F00
 4818              	.LASF63:
 4819 0830 76746675 		.ascii	"vtfunc_t\000"
 4819      6E635F74 
 4819      00
 4820              	.LASF12:
 4821 0839 5F5F7569 		.ascii	"__uint32_t\000"
 4821      6E743332 
 4821      5F7400
 4822              	.LASF185:
 4823 0844 5F5F7365 		.ascii	"__set_BASEPRI\000"
 4823      745F4241 
 4823      53455052 
 4823      4900
 4824              	.LASF76:
 4825 0852 70616E69 		.ascii	"panic_msg\000"
 4825      635F6D73 
 4825      6700
 4826              	.LASF118:
 4827 085c 6F666673 		.ascii	"offset\000"
 4827      657400
 4828              	.LASF97:
 4829 0863 41504231 		.ascii	"APB1ENR\000"
 4829      454E5200 
 4830              	.LASF136:
 4831 086b 6576656E 		.ascii	"event_listener_t\000"
 4831      745F6C69 
 4831      7374656E 
 4831      65725F74 
 4831      00
 4832              	.LASF94:
 4833 087c 41484232 		.ascii	"AHB2ENR\000"
 4833      454E5200 
 4834              	.LASF116:
 4835 0884 636F6E74 		.ascii	"context\000"
 4835      65787400 
 4836              	.LASF61:
 4837 088c 725F6F6C 		.ascii	"r_older\000"
 4837      64657200 
 4838              	.LASF77:
 4839 0894 63685F73 		.ascii	"ch_system_t\000"
 4839      79737465 
 4839      6D5F7400 
 4840              	.LASF65:
 4841 08a0 63685F76 		.ascii	"ch_virtual_timer\000"
 4841      69727475 
 4841      616C5F74 
 4841      696D6572 
 4841      00
 4842              	.LASF21:
 4843 08b1 7274636E 		.ascii	"rtcnt_t\000"
 4843      745F7400 
 4844              	.LASF181:
ARM GAS  /tmp/ccojrVRM.s 			page 93


 4845 08b9 706F7274 		.ascii	"port_lock_from_isr\000"
 4845      5F6C6F63 
 4845      6B5F6672 
 4845      6F6D5F69 
 4845      737200
 4846              	.LASF162:
 4847 08cc 53445F52 		.ascii	"SD_READY\000"
 4847      45414459 
 4847      00
 4848              	.LASF70:
 4849 08d5 76745F70 		.ascii	"vt_par\000"
 4849      617200
 4850              	.LASF28:
 4851 08dc 6576656E 		.ascii	"eventflags_t\000"
 4851      74666C61 
 4851      67735F74 
 4851      00
 4852              	.LASF158:
 4853 08e9 6F757470 		.ascii	"output_queue_t\000"
 4853      75745F71 
 4853      75657565 
 4853      5F7400
 4854              	.LASF109:
 4855 08f8 53534347 		.ascii	"SSCGR\000"
 4855      5200
 4856              	.LASF151:
 4857 08fe 715F746F 		.ascii	"q_top\000"
 4857      7000
 4858              	.LASF130:
 4859 0904 63685F6D 		.ascii	"ch_mutex\000"
 4859      75746578 
 4859      00
 4860              	.LASF144:
 4861 090d 65735F6E 		.ascii	"es_next\000"
 4861      65787400 
 4862              	.LASF107:
 4863 0915 42444352 		.ascii	"BDCR\000"
 4863      00
 4864              	.LASF154:
 4865 091a 715F6E6F 		.ascii	"q_notify\000"
 4865      74696679 
 4865      00
 4866              	.LASF79:
 4867 0923 726C6973 		.ascii	"rlist\000"
 4867      7400
 4868              	.LASF143:
 4869 0929 6576656E 		.ascii	"event_source\000"
 4869      745F736F 
 4869      75726365 
 4869      00
 4870              	.LASF16:
 4871 0936 75696E74 		.ascii	"uint8_t\000"
 4871      385F7400 
 4872              	.LASF190:
 4873 093e 666C6167 		.ascii	"flags\000"
 4873      7300
 4874              	.LASF34:
ARM GAS  /tmp/ccojrVRM.s 			page 94


 4875 0944 705F7072 		.ascii	"p_prio\000"
 4875      696F00
 4876              	.LASF183:
 4877 094b 63685379 		.ascii	"chSysLockFromISR\000"
 4877      734C6F63 
 4877      6B46726F 
 4877      6D495352 
 4877      00
 4878              	.LASF93:
 4879 095c 41484231 		.ascii	"AHB1ENR\000"
 4879      454E5200 
 4880              	.LASF210:
 4881 0964 63684F51 		.ascii	"chOQIsEmptyI\000"
 4881      4973456D 
 4881      70747949 
 4881      00
 4882              	.LASF85:
 4883 0971 43464752 		.ascii	"CFGR\000"
 4883      00
 4884              	.LASF22:
 4885 0976 746D6F64 		.ascii	"tmode_t\000"
 4885      655F7400 
 4886              	.LASF44:
 4887 097e 705F6D73 		.ascii	"p_msg\000"
 4887      6700
 4888              	.LASF199:
 4889 0984 73645F6C 		.ascii	"sd_lld_stop\000"
 4889      6C645F73 
 4889      746F7000 
 4890              	.LASF155:
 4891 0990 715F6C69 		.ascii	"q_link\000"
 4891      6E6B00
 4892              	.LASF132:
 4893 0997 6D5F6F77 		.ascii	"m_owner\000"
 4893      6E657200 
 4894              	.LASF163:
 4895 099f 73647374 		.ascii	"sdstate_t\000"
 4895      6174655F 
 4895      7400
 4896              	.LASF35:
 4897 09a9 705F6374 		.ascii	"p_ctx\000"
 4897      7800
 4898              	.LASF69:
 4899 09af 76745F66 		.ascii	"vt_func\000"
 4899      756E6300 
 4900              	.LASF137:
 4901 09b7 6576656E 		.ascii	"event_listener\000"
 4901      745F6C69 
 4901      7374656E 
 4901      657200
 4902              		.ident	"GCC: (GNU Tools for ARM Embedded Processors) 5.4.1 20160919 (release) [ARM/embedded-5-bran
ARM GAS  /tmp/ccojrVRM.s 			page 95


DEFINED SYMBOLS
                            *ABS*:0000000000000000 serial_lld.c
     /tmp/ccojrVRM.s:20     .text.notify2:0000000000000000 $t
     /tmp/ccojrVRM.s:25     .text.notify2:0000000000000000 notify2
     /tmp/ccojrVRM.s:43     .text.notify2:000000000000000c $d
     /tmp/ccojrVRM.s:48     .text.VectorD8:0000000000000000 $t
     /tmp/ccojrVRM.s:54     .text.VectorD8:0000000000000000 VectorD8
     /tmp/ccojrVRM.s:488    .text.VectorD8:0000000000000110 $d
     /tmp/ccojrVRM.s:498    .text.sd_lld_init:0000000000000000 $t
     /tmp/ccojrVRM.s:504    .text.sd_lld_init:0000000000000000 sd_lld_init
     /tmp/ccojrVRM.s:528    .text.sd_lld_init:0000000000000014 $d
     /tmp/ccojrVRM.s:535    .text.sd_lld_start:0000000000000000 $t
     /tmp/ccojrVRM.s:541    .text.sd_lld_start:0000000000000000 sd_lld_start
     /tmp/ccojrVRM.s:658    .text.sd_lld_start:0000000000000080 $d
     /tmp/ccojrVRM.s:670    .text.sd_lld_stop:0000000000000000 $t
     /tmp/ccojrVRM.s:676    .text.sd_lld_stop:0000000000000000 sd_lld_stop
     /tmp/ccojrVRM.s:730    .text.sd_lld_stop:0000000000000028 $d
     /tmp/ccojrVRM.s:752    .bss.SD2:0000000000000000 SD2
     /tmp/ccojrVRM.s:737    .rodata.default_config:0000000000000000 $d
     /tmp/ccojrVRM.s:741    .rodata.default_config:0000000000000000 default_config
     /tmp/ccojrVRM.s:748    .bss.SD2:0000000000000000 $d
                     .debug_frame:0000000000000010 $d

UNDEFINED SYMBOLS
chEvtBroadcastFlagsI
sdIncomingDataI
_port_irq_epilogue
chOQGetI
sdObjectInit
nvicEnableVector
nvicDisableVector
