ARM GAS  /tmp/ccgfcGR2.s 			page 1


   1              		.syntax unified
   2              		.cpu cortex-m4
   3              		.fpu softvfp
   4              		.eabi_attribute 20, 1
   5              		.eabi_attribute 21, 1
   6              		.eabi_attribute 23, 3
   7              		.eabi_attribute 24, 1
   8              		.eabi_attribute 25, 1
   9              		.eabi_attribute 26, 1
  10              		.eabi_attribute 30, 2
  11              		.eabi_attribute 34, 1
  12              		.eabi_attribute 18, 4
  13              		.thumb
  14              		.syntax unified
  15              		.file	"shell.c"
  16              		.text
  17              	.Ltext0:
  18              		.cfi_sections	.debug_frame
  19              		.section	.text.chprintf,"ax",%progbits
  20              		.align	2
  21              		.p2align 4,,15
  22              		.thumb
  23              		.thumb_func
  24              		.type	chprintf, %function
  25              	chprintf:
  26              	.LFB258:
  27              		.file 1 "/home/selim/working/ChibiOS/os/hal/lib/streams/chprintf.h"
  28              		.loc 1 69 0
  29              		.cfi_startproc
  30              		@ args = 4, pretend = 12, frame = 8
  31              		@ frame_needed = 0, uses_anonymous_args = 1
  32              	.LVL0:
  33 0000 0EB4     		push	{r1, r2, r3}
  34              		.cfi_def_cfa_offset 12
  35              		.cfi_offset 1, -12
  36              		.cfi_offset 2, -8
  37              		.cfi_offset 3, -4
  38 0002 00B5     		push	{lr}
  39              		.cfi_def_cfa_offset 16
  40              		.cfi_offset 14, -16
  41 0004 82B0     		sub	sp, sp, #8
  42              		.cfi_def_cfa_offset 24
  43              		.loc 1 69 0
  44 0006 03AA     		add	r2, sp, #12
  45 0008 52F8041B 		ldr	r1, [r2], #4
  46              		.loc 1 73 0
  47 000c 0192     		str	r2, [sp, #4]
  48              		.loc 1 74 0
  49 000e FFF7FEFF 		bl	chvprintf
  50              	.LVL1:
  51              		.loc 1 78 0
  52 0012 02B0     		add	sp, sp, #8
  53              		.cfi_def_cfa_offset 16
  54              		@ sp needed
  55 0014 5DF804EB 		ldr	lr, [sp], #4
  56              		.cfi_restore 14
  57              		.cfi_def_cfa_offset 12
ARM GAS  /tmp/ccgfcGR2.s 			page 2


  58 0018 03B0     		add	sp, sp, #12
  59              		.cfi_restore 3
  60              		.cfi_restore 2
  61              		.cfi_restore 1
  62              		.cfi_def_cfa_offset 0
  63 001a 7047     		bx	lr
  64              		.cfi_endproc
  65              	.LFE258:
  66              		.size	chprintf, .-chprintf
  67              		.section	.text.cmd_systime,"ax",%progbits
  68              		.align	2
  69              		.p2align 4,,15
  70              		.thumb
  71              		.thumb_func
  72              		.type	cmd_systime, %function
  73              	cmd_systime:
  74              	.LFB263:
  75              		.file 2 "/home/selim/working/ChibiOS/os/various/shell.c"
  76              		.loc 2 99 0
  77              		.cfi_startproc
  78              		@ args = 0, pretend = 0, frame = 0
  79              		@ frame_needed = 0, uses_anonymous_args = 0
  80              		@ link register save eliminated.
  81              	.LVL2:
  82              		.loc 2 102 0
  83 0000 0029     		cmp	r1, #0
  84 0002 03DD     		ble	.L4
  85              	.LVL3:
  86              	.LBB119:
  87              	.LBB120:
  88              		.loc 2 56 0
  89 0004 074A     		ldr	r2, .L6
  90              	.LVL4:
  91 0006 0849     		ldr	r1, .L6+4
  92              	.LVL5:
  93 0008 FFF7FEBF 		b	chprintf
  94              	.LVL6:
  95              	.L4:
  96              	.LBE120:
  97              	.LBE119:
  98              	.LBB121:
  99              	.LBB122:
 100              	.LBB123:
 101              	.LBB124:
 102              	.LBB125:
 103              	.LBB126:
 104              	.LBB127:
 105              	.LBB128:
 106              		.file 3 "/home/selim/working/ChibiOS/os/ext/CMSIS/include/core_cmFunc.h"
 107              		.loc 3 546 0
 108 000c 2023     		movs	r3, #32
 109              		.syntax unified
 110              	@ 546 "/home/selim/working/ChibiOS/os/ext/CMSIS/include/core_cmFunc.h" 1
 111 000e 83F31188 		MSR basepri, r3
 112              	@ 0 "" 2
 113              	.LVL7:
 114              		.thumb
ARM GAS  /tmp/ccgfcGR2.s 			page 3


 115              		.syntax unified
 116              	.LBE128:
 117              	.LBE127:
 118              	.LBE126:
 119              	.LBE125:
 120              	.LBB129:
 121              	.LBB130:
 122              	.LBB131:
 123              	.LBB132:
 124              		.file 4 "/home/selim/working/ChibiOS/os/hal/ports/STM32/LLD/TIMv1/st_lld.h"
 125              		.loc 4 129 0
 126 0012 4FF08042 		mov	r2, #1073741824
 127              	.LVL8:
 128              	.LBE132:
 129              	.LBE131:
 130              	.LBE130:
 131              	.LBE129:
 132              	.LBB136:
 133              	.LBB137:
 134              	.LBB138:
 135              	.LBB139:
 136              	.LBB140:
 137              		.loc 3 546 0
 138 0016 0023     		movs	r3, #0
 139              	.LBE140:
 140              	.LBE139:
 141              	.LBE138:
 142              	.LBE137:
 143              	.LBE136:
 144              	.LBB145:
 145              	.LBB135:
 146              	.LBB134:
 147              	.LBB133:
 148              		.loc 4 129 0
 149 0018 526A     		ldr	r2, [r2, #36]
 150              	.LVL9:
 151              	.LBE133:
 152              	.LBE134:
 153              	.LBE135:
 154              	.LBE145:
 155              	.LBB146:
 156              	.LBB144:
 157              	.LBB143:
 158              	.LBB142:
 159              	.LBB141:
 160              		.loc 3 546 0
 161              		.syntax unified
 162              	@ 546 "/home/selim/working/ChibiOS/os/ext/CMSIS/include/core_cmFunc.h" 1
 163 001a 83F31188 		MSR basepri, r3
 164              	@ 0 "" 2
 165              	.LVL10:
 166              		.thumb
 167              		.syntax unified
 168              	.LBE141:
 169              	.LBE142:
 170              	.LBE143:
 171              	.LBE144:
ARM GAS  /tmp/ccgfcGR2.s 			page 4


 172              	.LBE146:
 173              	.LBE124:
 174              	.LBE123:
 175              		.loc 2 106 0
 176 001e 0349     		ldr	r1, .L6+8
 177              	.LVL11:
 178 0020 FFF7FEBF 		b	chprintf
 179              	.LVL12:
 180              	.L7:
 181              		.align	2
 182              	.L6:
 183 0024 00000000 		.word	.LC0
 184 0028 08000000 		.word	.LC1
 185 002c 14000000 		.word	.LC2
 186              	.LBE122:
 187              	.LBE121:
 188              		.cfi_endproc
 189              	.LFE263:
 190              		.size	cmd_systime, .-cmd_systime
 191              		.section	.text.cmd_info,"ax",%progbits
 192              		.align	2
 193              		.p2align 4,,15
 194              		.thumb
 195              		.thumb_func
 196              		.type	cmd_info, %function
 197              	cmd_info:
 198              	.LFB262:
 199              		.loc 2 67 0
 200              		.cfi_startproc
 201              		@ args = 0, pretend = 0, frame = 0
 202              		@ frame_needed = 0, uses_anonymous_args = 0
 203              	.LVL13:
 204              		.loc 2 70 0
 205 0000 0029     		cmp	r1, #0
 206 0002 03DD     		ble	.L9
 207              	.LVL14:
 208              	.LBB153:
 209              	.LBB154:
 210              		.loc 2 56 0
 211 0004 194A     		ldr	r2, .L11
 212              	.LVL15:
 213 0006 1A49     		ldr	r1, .L11+4
 214              	.LVL16:
 215 0008 FFF7FEBF 		b	chprintf
 216              	.LVL17:
 217              	.L9:
 218              	.LBE154:
 219              	.LBE153:
 220              		.loc 2 67 0
 221 000c 10B5     		push	{r4, lr}
 222              		.cfi_def_cfa_offset 8
 223              		.cfi_offset 4, -8
 224              		.cfi_offset 14, -4
 225              	.LBB155:
 226              	.LBB156:
 227              		.loc 2 75 0
 228 000e 194A     		ldr	r2, .L11+8
ARM GAS  /tmp/ccgfcGR2.s 			page 5


 229              	.LVL18:
 230 0010 1949     		ldr	r1, .L11+12
 231              	.LVL19:
 232              	.LBE156:
 233              	.LBE155:
 234              		.loc 2 67 0
 235 0012 82B0     		sub	sp, sp, #8
 236              		.cfi_def_cfa_offset 16
 237 0014 0446     		mov	r4, r0
 238              	.LVL20:
 239              	.LBB158:
 240              	.LBB157:
 241              		.loc 2 75 0
 242 0016 FFF7FEFF 		bl	chprintf
 243              	.LVL21:
 244              		.loc 2 77 0
 245 001a 184A     		ldr	r2, .L11+16
 246 001c 1849     		ldr	r1, .L11+20
 247 001e 2046     		mov	r0, r4
 248 0020 FFF7FEFF 		bl	chprintf
 249              	.LVL22:
 250              		.loc 2 79 0
 251 0024 174A     		ldr	r2, .L11+24
 252 0026 1849     		ldr	r1, .L11+28
 253 0028 2046     		mov	r0, r4
 254 002a FFF7FEFF 		bl	chprintf
 255              	.LVL23:
 256              		.loc 2 81 0
 257 002e 174A     		ldr	r2, .L11+32
 258 0030 1749     		ldr	r1, .L11+36
 259 0032 2046     		mov	r0, r4
 260 0034 FFF7FEFF 		bl	chprintf
 261              	.LVL24:
 262              		.loc 2 84 0
 263 0038 164A     		ldr	r2, .L11+40
 264 003a 1749     		ldr	r1, .L11+44
 265 003c 2046     		mov	r0, r4
 266 003e FFF7FEFF 		bl	chprintf
 267              	.LVL25:
 268              		.loc 2 87 0
 269 0042 164A     		ldr	r2, .L11+48
 270 0044 1649     		ldr	r1, .L11+52
 271 0046 2046     		mov	r0, r4
 272 0048 FFF7FEFF 		bl	chprintf
 273              	.LVL26:
 274              		.loc 2 90 0
 275 004c 154A     		ldr	r2, .L11+56
 276 004e 1649     		ldr	r1, .L11+60
 277 0050 2046     		mov	r0, r4
 278 0052 FFF7FEFF 		bl	chprintf
 279              	.LVL27:
 280              		.loc 2 94 0
 281 0056 154B     		ldr	r3, .L11+64
 282 0058 0093     		str	r3, [sp]
 283 005a 2046     		mov	r0, r4
 284 005c 144B     		ldr	r3, .L11+68
 285 005e 154A     		ldr	r2, .L11+72
ARM GAS  /tmp/ccgfcGR2.s 			page 6


 286 0060 1549     		ldr	r1, .L11+76
 287 0062 FFF7FEFF 		bl	chprintf
 288              	.LVL28:
 289              	.LBE157:
 290              	.LBE158:
 291              		.loc 2 97 0
 292 0066 02B0     		add	sp, sp, #8
 293              		.cfi_def_cfa_offset 8
 294              		@ sp needed
 295 0068 10BD     		pop	{r4, pc}
 296              	.LVL29:
 297              	.L12:
 298 006a 00BF     		.align	2
 299              	.L11:
 300 006c 1C000000 		.word	.LC3
 301 0070 08000000 		.word	.LC1
 302 0074 24000000 		.word	.LC4
 303 0078 2C000000 		.word	.LC5
 304 007c 40000000 		.word	.LC6
 305 0080 88000000 		.word	.LC7
 306 0084 9C000000 		.word	.LC8
 307 0088 A8000000 		.word	.LC9
 308 008c BC000000 		.word	.LC10
 309 0090 C8000000 		.word	.LC11
 310 0094 DC000000 		.word	.LC12
 311 0098 F4000000 		.word	.LC13
 312 009c 08010000 		.word	.LC14
 313 00a0 34010000 		.word	.LC15
 314 00a4 48010000 		.word	.LC16
 315 00a8 70010000 		.word	.LC17
 316 00ac AC010000 		.word	.LC21
 317 00b0 84010000 		.word	.LC18
 318 00b4 88010000 		.word	.LC19
 319 00b8 94010000 		.word	.LC20
 320              		.cfi_endproc
 321              	.LFE262:
 322              		.size	cmd_info, .-cmd_info
 323              		.section	.text._strtok.constprop.2,"ax",%progbits
 324              		.align	2
 325              		.p2align 4,,15
 326              		.thumb
 327              		.thumb_func
 328              		.type	_strtok.constprop.2, %function
 329              	_strtok.constprop.2:
 330              	.LFB273:
 331              		.loc 2 37 0
 332              		.cfi_startproc
 333              		@ args = 0, pretend = 0, frame = 0
 334              		@ frame_needed = 0, uses_anonymous_args = 0
 335              	.LVL30:
 336 0000 38B5     		push	{r3, r4, r5, lr}
 337              		.cfi_def_cfa_offset 16
 338              		.cfi_offset 3, -16
 339              		.cfi_offset 4, -12
 340              		.cfi_offset 5, -8
 341              		.cfi_offset 14, -4
 342              		.loc 2 37 0
ARM GAS  /tmp/ccgfcGR2.s 			page 7


 343 0002 0D46     		mov	r5, r1
 344              		.loc 2 39 0
 345 0004 98B1     		cbz	r0, .L14
 346 0006 0446     		mov	r4, r0
 347              		.loc 2 40 0
 348 0008 2860     		str	r0, [r5]
 349              	.LVL31:
 350              	.L15:
 351              		.loc 2 46 0
 352 000a 0C49     		ldr	r1, .L25
 353              	.LVL32:
 354 000c 2046     		mov	r0, r4
 355              	.LVL33:
 356 000e FFF7FEFF 		bl	strspn
 357              	.LVL34:
 358 0012 0444     		add	r4, r4, r0
 359              	.LVL35:
 360              		.loc 2 47 0
 361 0014 2046     		mov	r0, r4
 362 0016 0949     		ldr	r1, .L25
 363 0018 FFF7FEFF 		bl	strpbrk
 364              	.LVL36:
 365              		.loc 2 48 0
 366 001c 60B1     		cbz	r0, .L24
 367              		.loc 2 49 0
 368 001e 421C     		adds	r2, r0, #1
 369 0020 0023     		movs	r3, #0
 370 0022 2A60     		str	r2, [r5]
 371 0024 0370     		strb	r3, [r0]
 372              	.L18:
 373              		.loc 2 51 0
 374 0026 2378     		ldrb	r3, [r4]	@ zero_extendqisi2
 375 0028 23B1     		cbz	r3, .L19
 376 002a 2046     		mov	r0, r4
 377              		.loc 2 52 0
 378 002c 38BD     		pop	{r3, r4, r5, pc}
 379              	.LVL37:
 380              	.L14:
 381              		.loc 2 41 0
 382 002e 0C68     		ldr	r4, [r1]
 383              	.LVL38:
 384              		.loc 2 43 0
 385 0030 002C     		cmp	r4, #0
 386 0032 EAD1     		bne	.L15
 387              	.LVL39:
 388              	.L19:
 389              		.loc 2 44 0
 390 0034 0020     		movs	r0, #0
 391 0036 38BD     		pop	{r3, r4, r5, pc}
 392              	.LVL40:
 393              	.L24:
 394              		.loc 2 47 0
 395 0038 2860     		str	r0, [r5]
 396 003a F4E7     		b	.L18
 397              	.L26:
 398              		.align	2
 399              	.L25:
ARM GAS  /tmp/ccgfcGR2.s 			page 8


 400 003c B8010000 		.word	.LC22
 401              		.cfi_endproc
 402              	.LFE273:
 403              		.size	_strtok.constprop.2, .-_strtok.constprop.2
 404              		.section	.text.shellInit,"ax",%progbits
 405              		.align	2
 406              		.p2align 4,,15
 407              		.global	shellInit
 408              		.thumb
 409              		.thumb_func
 410              		.type	shellInit, %function
 411              	shellInit:
 412              	.LFB266:
 413              		.loc 2 197 0
 414              		.cfi_startproc
 415              		@ args = 0, pretend = 0, frame = 0
 416              		@ frame_needed = 0, uses_anonymous_args = 0
 417              		@ link register save eliminated.
 418              	.LVL41:
 419              	.LBB159:
 420              	.LBB160:
 421              		.file 5 "/home/selim/working/ChibiOS/os/rt/include/chevents.h"
 422              		.loc 5 172 0
 423 0000 014B     		ldr	r3, .L28
 424 0002 1B60     		str	r3, [r3]
 425              	.LVL42:
 426 0004 7047     		bx	lr
 427              	.L29:
 428 0006 00BF     		.align	2
 429              	.L28:
 430 0008 00000000 		.word	.LANCHOR0
 431              	.LBE160:
 432              	.LBE159:
 433              		.cfi_endproc
 434              	.LFE266:
 435              		.size	shellInit, .-shellInit
 436              		.section	.text.shellExit,"ax",%progbits
 437              		.align	2
 438              		.p2align 4,,15
 439              		.global	shellExit
 440              		.thumb
 441              		.thumb_func
 442              		.type	shellExit, %function
 443              	shellExit:
 444              	.LFB267:
 445              		.loc 2 211 0
 446              		.cfi_startproc
 447              		@ args = 0, pretend = 0, frame = 0
 448              		@ frame_needed = 0, uses_anonymous_args = 0
 449              	.LVL43:
 450 0000 10B5     		push	{r4, lr}
 451              		.cfi_def_cfa_offset 8
 452              		.cfi_offset 4, -8
 453              		.cfi_offset 14, -4
 454              	.LBB161:
 455              	.LBB162:
 456              	.LBB163:
ARM GAS  /tmp/ccgfcGR2.s 			page 9


 457              	.LBB164:
 458              		.loc 3 546 0
 459 0002 2023     		movs	r3, #32
 460              	.LBE164:
 461              	.LBE163:
 462              	.LBE162:
 463              	.LBE161:
 464              		.loc 2 211 0
 465 0004 0446     		mov	r4, r0
 466              	.LBB168:
 467              	.LBB167:
 468              	.LBB166:
 469              	.LBB165:
 470              		.loc 3 546 0
 471              		.syntax unified
 472              	@ 546 "/home/selim/working/ChibiOS/os/ext/CMSIS/include/core_cmFunc.h" 1
 473 0006 83F31188 		MSR basepri, r3
 474              	@ 0 "" 2
 475              	.LVL44:
 476              		.thumb
 477              		.syntax unified
 478              	.LBE165:
 479              	.LBE166:
 480              	.LBE167:
 481              	.LBE168:
 482              	.LBB169:
 483              	.LBB170:
 484              		.loc 5 256 0
 485 000a 0448     		ldr	r0, .L32
 486              	.LVL45:
 487 000c 0021     		movs	r1, #0
 488 000e FFF7FEFF 		bl	chEvtBroadcastFlagsI
 489              	.LVL46:
 490              	.LBE170:
 491              	.LBE169:
 492              		.loc 2 217 0
 493 0012 2046     		mov	r0, r4
 494              		.loc 2 218 0
 495 0014 BDE81040 		pop	{r4, lr}
 496              		.cfi_restore 14
 497              		.cfi_restore 4
 498              		.cfi_def_cfa_offset 0
 499              	.LVL47:
 500              		.loc 2 217 0
 501 0018 FFF7FEBF 		b	chThdExitS
 502              	.LVL48:
 503              	.L33:
 504              		.align	2
 505              	.L32:
 506 001c 00000000 		.word	.LANCHOR0
 507              		.cfi_endproc
 508              	.LFE267:
 509              		.size	shellExit, .-shellExit
 510              		.section	.text.shellCreate,"ax",%progbits
 511              		.align	2
 512              		.p2align 4,,15
 513              		.global	shellCreate
ARM GAS  /tmp/ccgfcGR2.s 			page 10


 514              		.thumb
 515              		.thumb_func
 516              		.type	shellCreate, %function
 517              	shellCreate:
 518              	.LFB268:
 519              		.loc 2 233 0
 520              		.cfi_startproc
 521              		@ args = 0, pretend = 0, frame = 0
 522              		@ frame_needed = 0, uses_anonymous_args = 0
 523              	.LVL49:
 524 0000 00B5     		push	{lr}
 525              		.cfi_def_cfa_offset 4
 526              		.cfi_offset 14, -4
 527 0002 83B0     		sub	sp, sp, #12
 528              		.cfi_def_cfa_offset 16
 529              		.loc 2 235 0
 530 0004 034B     		ldr	r3, .L36
 531 0006 0090     		str	r0, [sp]
 532 0008 0020     		movs	r0, #0
 533              	.LVL50:
 534 000a FFF7FEFF 		bl	chThdCreateFromHeap
 535              	.LVL51:
 536              		.loc 2 236 0
 537 000e 03B0     		add	sp, sp, #12
 538              		.cfi_def_cfa_offset 4
 539              		@ sp needed
 540 0010 5DF804FB 		ldr	pc, [sp], #4
 541              	.L37:
 542              		.align	2
 543              	.L36:
 544 0014 00000000 		.word	shell_thread
 545              		.cfi_endproc
 546              	.LFE268:
 547              		.size	shellCreate, .-shellCreate
 548              		.section	.text.shellCreateStatic,"ax",%progbits
 549              		.align	2
 550              		.p2align 4,,15
 551              		.global	shellCreateStatic
 552              		.thumb
 553              		.thumb_func
 554              		.type	shellCreateStatic, %function
 555              	shellCreateStatic:
 556              	.LFB269:
 557              		.loc 2 251 0
 558              		.cfi_startproc
 559              		@ args = 0, pretend = 0, frame = 0
 560              		@ frame_needed = 0, uses_anonymous_args = 0
 561              	.LVL52:
 562 0000 10B5     		push	{r4, lr}
 563              		.cfi_def_cfa_offset 8
 564              		.cfi_offset 4, -8
 565              		.cfi_offset 14, -4
 566 0002 82B0     		sub	sp, sp, #8
 567              		.cfi_def_cfa_offset 16
 568              		.loc 2 251 0
 569 0004 0C46     		mov	r4, r1
 570              		.loc 2 253 0
ARM GAS  /tmp/ccgfcGR2.s 			page 11


 571 0006 0090     		str	r0, [sp]
 572 0008 1146     		mov	r1, r2
 573              	.LVL53:
 574 000a 2046     		mov	r0, r4
 575              	.LVL54:
 576 000c 1A46     		mov	r2, r3
 577              	.LVL55:
 578 000e 024B     		ldr	r3, .L40
 579              	.LVL56:
 580 0010 FFF7FEFF 		bl	chThdCreateStatic
 581              	.LVL57:
 582              		.loc 2 254 0
 583 0014 02B0     		add	sp, sp, #8
 584              		.cfi_def_cfa_offset 8
 585              		@ sp needed
 586 0016 10BD     		pop	{r4, pc}
 587              	.LVL58:
 588              	.L41:
 589              		.align	2
 590              	.L40:
 591 0018 00000000 		.word	shell_thread
 592              		.cfi_endproc
 593              	.LFE269:
 594              		.size	shellCreateStatic, .-shellCreateStatic
 595              		.section	.text.shellGetLine,"ax",%progbits
 596              		.align	2
 597              		.p2align 4,,15
 598              		.global	shellGetLine
 599              		.thumb
 600              		.thumb_func
 601              		.type	shellGetLine, %function
 602              	shellGetLine:
 603              	.LFB270:
 604              		.loc 2 268 0
 605              		.cfi_startproc
 606              		@ args = 0, pretend = 0, frame = 8
 607              		@ frame_needed = 0, uses_anonymous_args = 0
 608              	.LVL59:
 609 0000 F0B5     		push	{r4, r5, r6, r7, lr}
 610              		.cfi_def_cfa_offset 20
 611              		.cfi_offset 4, -20
 612              		.cfi_offset 5, -16
 613              		.cfi_offset 6, -12
 614              		.cfi_offset 7, -8
 615              		.cfi_offset 14, -4
 616              	.LBB171:
 617              		.loc 2 296 0
 618 0002 013A     		subs	r2, r2, #1
 619              	.LVL60:
 620              	.LBE171:
 621              		.loc 2 268 0
 622 0004 83B0     		sub	sp, sp, #12
 623              		.cfi_def_cfa_offset 32
 624              		.loc 2 268 0
 625 0006 0E46     		mov	r6, r1
 626              	.LVL61:
 627              	.LBB172:
ARM GAS  /tmp/ccgfcGR2.s 			page 12


 628              		.loc 2 296 0
 629 0008 8F18     		adds	r7, r1, r2
 630              	.LBE172:
 631              		.loc 2 268 0
 632 000a 0446     		mov	r4, r0
 633 000c 0D46     		mov	r5, r1
 634              	.LVL62:
 635              	.L43:
 636              	.LBB173:
 637              		.loc 2 274 0
 638 000e 2368     		ldr	r3, [r4]
 639 0010 0122     		movs	r2, #1
 640 0012 5B68     		ldr	r3, [r3, #4]
 641 0014 0DF10701 		add	r1, sp, #7
 642 0018 2046     		mov	r0, r4
 643 001a 9847     		blx	r3
 644              	.LVL63:
 645 001c 48B3     		cbz	r0, .L52
 646              		.loc 2 276 0
 647 001e 9DF80710 		ldrb	r1, [sp, #7]	@ zero_extendqisi2
 648 0022 0429     		cmp	r1, #4
 649 0024 28D0     		beq	.L59
 650              		.loc 2 280 0
 651 0026 0829     		cmp	r1, #8
 652 0028 10D0     		beq	.L46
 653              		.loc 2 280 0 is_stmt 0 discriminator 1
 654 002a 7F29     		cmp	r1, #127
 655 002c 0ED0     		beq	.L46
 656              		.loc 2 289 0 is_stmt 1
 657 002e 0D29     		cmp	r1, #13
 658 0030 29D0     		beq	.L60
 659              		.loc 2 294 0
 660 0032 1F29     		cmp	r1, #31
 661 0034 EBD9     		bls	.L43
 662              		.loc 2 296 0
 663 0036 BD42     		cmp	r5, r7
 664 0038 E9D2     		bcs	.L43
 665              		.loc 2 297 0
 666 003a 2368     		ldr	r3, [r4]
 667 003c 2046     		mov	r0, r4
 668 003e 9B68     		ldr	r3, [r3, #8]
 669 0040 9847     		blx	r3
 670              	.LVL64:
 671              		.loc 2 298 0
 672 0042 9DF80730 		ldrb	r3, [sp, #7]	@ zero_extendqisi2
 673 0046 2B70     		strb	r3, [r5]
 674 0048 0135     		adds	r5, r5, #1
 675              	.LVL65:
 676 004a E0E7     		b	.L43
 677              	.L46:
 678              		.loc 2 281 0
 679 004c B542     		cmp	r5, r6
 680              		.loc 2 282 0
 681 004e 2046     		mov	r0, r4
 682              		.loc 2 281 0
 683 0050 DDD0     		beq	.L43
 684              	.LVL66:
ARM GAS  /tmp/ccgfcGR2.s 			page 13


 685              		.loc 2 282 0
 686 0052 2368     		ldr	r3, [r4]
 687 0054 9B68     		ldr	r3, [r3, #8]
 688 0056 9847     		blx	r3
 689              	.LVL67:
 690              		.loc 2 283 0
 691 0058 2368     		ldr	r3, [r4]
 692 005a 2021     		movs	r1, #32
 693 005c 9B68     		ldr	r3, [r3, #8]
 694 005e 2046     		mov	r0, r4
 695 0060 9847     		blx	r3
 696              	.LVL68:
 697              		.loc 2 284 0
 698 0062 2368     		ldr	r3, [r4]
 699 0064 9DF80710 		ldrb	r1, [sp, #7]	@ zero_extendqisi2
 700 0068 9B68     		ldr	r3, [r3, #8]
 701 006a 2046     		mov	r0, r4
 702              		.loc 2 285 0
 703 006c 013D     		subs	r5, r5, #1
 704              	.LVL69:
 705              		.loc 2 284 0
 706 006e 9847     		blx	r3
 707              	.LVL70:
 708 0070 CDE7     		b	.L43
 709              	.L52:
 710              		.loc 2 275 0
 711 0072 0120     		movs	r0, #1
 712              	.LBE173:
 713              		.loc 2 301 0
 714 0074 03B0     		add	sp, sp, #12
 715              		.cfi_remember_state
 716              		.cfi_def_cfa_offset 20
 717              		@ sp needed
 718 0076 F0BD     		pop	{r4, r5, r6, r7, pc}
 719              	.LVL71:
 720              	.L59:
 721              		.cfi_restore_state
 722              	.LBB174:
 723              		.loc 2 277 0
 724 0078 2046     		mov	r0, r4
 725 007a 0749     		ldr	r1, .L61
 726 007c FFF7FEFF 		bl	chprintf
 727              	.LVL72:
 728              		.loc 2 278 0
 729 0080 0120     		movs	r0, #1
 730              	.LBE174:
 731              		.loc 2 301 0
 732 0082 03B0     		add	sp, sp, #12
 733              		.cfi_remember_state
 734              		.cfi_def_cfa_offset 20
 735              		@ sp needed
 736 0084 F0BD     		pop	{r4, r5, r6, r7, pc}
 737              	.LVL73:
 738              	.L60:
 739              		.cfi_restore_state
 740              	.LBB175:
 741              		.loc 2 290 0
ARM GAS  /tmp/ccgfcGR2.s 			page 14


 742 0086 2046     		mov	r0, r4
 743 0088 0449     		ldr	r1, .L61+4
 744 008a FFF7FEFF 		bl	chprintf
 745              	.LVL74:
 746              		.loc 2 291 0
 747 008e 0020     		movs	r0, #0
 748 0090 2870     		strb	r0, [r5]
 749              	.LBE175:
 750              		.loc 2 301 0
 751 0092 03B0     		add	sp, sp, #12
 752              		.cfi_def_cfa_offset 20
 753              		@ sp needed
 754 0094 F0BD     		pop	{r4, r5, r6, r7, pc}
 755              	.LVL75:
 756              	.L62:
 757 0096 00BF     		.align	2
 758              	.L61:
 759 0098 BC010000 		.word	.LC23
 760 009c C0010000 		.word	.LC24
 761              		.cfi_endproc
 762              	.LFE270:
 763              		.size	shellGetLine, .-shellGetLine
 764              		.section	.text.shell_thread,"ax",%progbits
 765              		.align	2
 766              		.p2align 4,,15
 767              		.thumb
 768              		.thumb_func
 769              		.type	shell_thread, %function
 770              	shell_thread:
 771              	.LFB265:
 772              		.loc 2 136 0
 773              		.cfi_startproc
 774              		@ args = 0, pretend = 0, frame = 88
 775              		@ frame_needed = 0, uses_anonymous_args = 0
 776              	.LVL76:
 777 0000 2DE9F041 		push	{r4, r5, r6, r7, r8, lr}
 778              		.cfi_def_cfa_offset 24
 779              		.cfi_offset 4, -24
 780              		.cfi_offset 5, -20
 781              		.cfi_offset 6, -16
 782              		.cfi_offset 7, -12
 783              		.cfi_offset 8, -8
 784              		.cfi_offset 14, -4
 785              		.loc 2 143 0
 786 0004 5A4B     		ldr	r3, .L116
 787              		.loc 2 138 0
 788 0006 0668     		ldr	r6, [r0]
 789              	.LVL77:
 790              		.loc 2 143 0
 791 0008 9B69     		ldr	r3, [r3, #24]
 792 000a 5A4A     		ldr	r2, .L116+4
 793              		.loc 2 139 0
 794 000c D0F80480 		ldr	r8, [r0, #4]
 795              	.LVL78:
 796              		.loc 2 144 0
 797 0010 5949     		ldr	r1, .L116+8
 798              		.loc 2 143 0
ARM GAS  /tmp/ccgfcGR2.s 			page 15


 799 0012 9A61     		str	r2, [r3, #24]
 800              		.loc 2 136 0
 801 0014 96B0     		sub	sp, sp, #88
 802              		.cfi_def_cfa_offset 112
 803              		.loc 2 144 0
 804 0016 3046     		mov	r0, r6
 805              	.LVL79:
 806 0018 FFF7FEFF 		bl	chprintf
 807              	.LVL80:
 808              	.L65:
 809              		.loc 2 146 0
 810 001c 5749     		ldr	r1, .L116+12
 811 001e 3046     		mov	r0, r6
 812 0020 FFF7FEFF 		bl	chprintf
 813              	.LVL81:
 814              		.loc 2 147 0
 815 0024 4022     		movs	r2, #64
 816 0026 06A9     		add	r1, sp, #24
 817 0028 3046     		mov	r0, r6
 818 002a FFF7FEFF 		bl	shellGetLine
 819              	.LVL82:
 820 002e 0446     		mov	r4, r0
 821 0030 78BB     		cbnz	r0, .L111
 822              		.loc 2 151 0
 823 0032 6946     		mov	r1, sp
 824 0034 06A8     		add	r0, sp, #24
 825 0036 FFF7FEFF 		bl	_strtok.constprop.2
 826              	.LVL83:
 827              		.loc 2 154 0
 828 003a 6946     		mov	r1, sp
 829              		.loc 2 151 0
 830 003c 0746     		mov	r7, r0
 831              	.LVL84:
 832              		.loc 2 154 0
 833 003e 0020     		movs	r0, #0
 834              	.LVL85:
 835 0040 01AD     		add	r5, sp, #4
 836 0042 FFF7FEFF 		bl	_strtok.constprop.2
 837              	.LVL86:
 838 0046 50B1     		cbz	r0, .L112
 839              	.L71:
 840              		.loc 2 155 0
 841 0048 042C     		cmp	r4, #4
 842 004a 1BD0     		beq	.L113
 843              		.loc 2 160 0
 844 004c 45F8040B 		str	r0, [r5], #4
 845              		.loc 2 154 0
 846 0050 6946     		mov	r1, sp
 847 0052 0020     		movs	r0, #0
 848              	.LVL87:
 849              		.loc 2 160 0
 850 0054 0134     		adds	r4, r4, #1
 851              	.LVL88:
 852              		.loc 2 154 0
 853 0056 FFF7FEFF 		bl	_strtok.constprop.2
 854              	.LVL89:
 855 005a 0028     		cmp	r0, #0
ARM GAS  /tmp/ccgfcGR2.s 			page 16


 856 005c F4D1     		bne	.L71
 857              	.L112:
 858              		.loc 2 162 0
 859 005e 16AB     		add	r3, sp, #88
 860 0060 03EB8403 		add	r3, r3, r4, lsl #2
 861 0064 43F8540C 		str	r0, [r3, #-84]
 862              		.loc 2 163 0
 863 0068 002F     		cmp	r7, #0
 864 006a D7D0     		beq	.L65
 865              		.loc 2 164 0
 866 006c 4449     		ldr	r1, .L116+16
 867 006e 3846     		mov	r0, r7
 868              	.LVL90:
 869 0070 FFF7FEFF 		bl	strcasecmp
 870              	.LVL91:
 871 0074 F0B9     		cbnz	r0, .L72
 872              		.loc 2 165 0
 873 0076 84B1     		cbz	r4, .L67
 874              	.LVL92:
 875              	.LBB196:
 876              	.LBB197:
 877              		.loc 2 56 0
 878 0078 414A     		ldr	r2, .L116+16
 879 007a 4249     		ldr	r1, .L116+20
 880 007c 3046     		mov	r0, r6
 881 007e FFF7FEFF 		bl	chprintf
 882              	.LVL93:
 883              	.LBE197:
 884              	.LBE196:
 885              		.loc 2 167 0
 886 0082 CBE7     		b	.L65
 887              	.LVL94:
 888              	.L113:
 889              		.loc 2 156 0
 890 0084 4049     		ldr	r1, .L116+24
 891 0086 3046     		mov	r0, r6
 892              	.LVL95:
 893 0088 FFF7FEFF 		bl	chprintf
 894              	.LVL96:
 895              		.loc 2 162 0
 896 008c 0023     		movs	r3, #0
 897 008e 0593     		str	r3, [sp, #20]
 898 0090 C4E7     		b	.L65
 899              	.LVL97:
 900              	.L111:
 901              		.loc 2 148 0
 902 0092 3046     		mov	r0, r6
 903 0094 3D49     		ldr	r1, .L116+28
 904 0096 FFF7FEFF 		bl	chprintf
 905              	.LVL98:
 906              	.L67:
 907              	.LBB198:
 908              	.LBB199:
 909              	.LBB200:
 910              	.LBB201:
 911              	.LBB202:
 912              	.LBB203:
ARM GAS  /tmp/ccgfcGR2.s 			page 17


 913              		.loc 3 546 0
 914 009a 2023     		movs	r3, #32
 915              		.syntax unified
 916              	@ 546 "/home/selim/working/ChibiOS/os/ext/CMSIS/include/core_cmFunc.h" 1
 917 009c 83F31188 		MSR basepri, r3
 918              	@ 0 "" 2
 919              	.LVL99:
 920              		.thumb
 921              		.syntax unified
 922              	.LBE203:
 923              	.LBE202:
 924              	.LBE201:
 925              	.LBE200:
 926              	.LBB204:
 927              	.LBB205:
 928              		.loc 5 256 0
 929 00a0 0021     		movs	r1, #0
 930 00a2 3B48     		ldr	r0, .L116+32
 931 00a4 FFF7FEFF 		bl	chEvtBroadcastFlagsI
 932              	.LVL100:
 933              	.LBE205:
 934              	.LBE204:
 935              		.loc 2 217 0
 936 00a8 0020     		movs	r0, #0
 937 00aa FFF7FEFF 		bl	chThdExitS
 938              	.LVL101:
 939              	.LBE199:
 940              	.LBE198:
 941              		.loc 2 190 0
 942 00ae 16B0     		add	sp, sp, #88
 943              		.cfi_remember_state
 944              		.cfi_def_cfa_offset 24
 945              		@ sp needed
 946 00b0 BDE8F081 		pop	{r4, r5, r6, r7, r8, pc}
 947              	.LVL102:
 948              	.L72:
 949              		.cfi_restore_state
 950              		.loc 2 171 0
 951 00b4 3749     		ldr	r1, .L116+36
 952 00b6 3846     		mov	r0, r7
 953 00b8 FFF7FEFF 		bl	strcasecmp
 954              	.LVL103:
 955 00bc 30B9     		cbnz	r0, .L114
 956              		.loc 2 172 0
 957 00be BCB1     		cbz	r4, .L77
 958              	.LVL104:
 959              	.LBB206:
 960              	.LBB207:
 961              		.loc 2 56 0
 962 00c0 344A     		ldr	r2, .L116+36
 963 00c2 3049     		ldr	r1, .L116+20
 964 00c4 3046     		mov	r0, r6
 965 00c6 FFF7FEFF 		bl	chprintf
 966              	.LVL105:
 967              	.LBE207:
 968              	.LBE206:
 969              		.loc 2 174 0
ARM GAS  /tmp/ccgfcGR2.s 			page 18


 970 00ca A7E7     		b	.L65
 971              	.L114:
 972              	.LVL106:
 973              	.LBB208:
 974              	.LBB209:
 975              		.loc 2 121 0
 976 00cc 324D     		ldr	r5, .L116+40
 977 00ce 2868     		ldr	r0, [r5]
 978 00d0 18B9     		cbnz	r0, .L85
 979 00d2 31E0     		b	.L76
 980              	.LVL107:
 981              	.L115:
 982 00d4 55F8080F 		ldr	r0, [r5, #8]!
 983              	.LVL108:
 984 00d8 70B3     		cbz	r0, .L76
 985              	.LVL109:
 986              	.L85:
 987              		.loc 2 122 0
 988 00da 3946     		mov	r1, r7
 989 00dc FFF7FEFF 		bl	strcasecmp
 990              	.LVL110:
 991 00e0 0028     		cmp	r0, #0
 992 00e2 F7D1     		bne	.L115
 993              	.LVL111:
 994              	.L110:
 995              	.LBE209:
 996              	.LBE208:
 997              	.LBB210:
 998              	.LBB211:
 999              		.loc 2 123 0
 1000 00e4 6B68     		ldr	r3, [r5, #4]
 1001 00e6 01AA     		add	r2, sp, #4
 1002 00e8 2146     		mov	r1, r4
 1003 00ea 3046     		mov	r0, r6
 1004 00ec 9847     		blx	r3
 1005              	.LVL112:
 1006 00ee 95E7     		b	.L65
 1007              	.L77:
 1008              	.LBE211:
 1009              	.LBE210:
 1010              	.LBB213:
 1011              	.LBB214:
 1012              		.loc 2 61 0
 1013 00f0 294D     		ldr	r5, .L116+40
 1014              	.LBE214:
 1015              	.LBE213:
 1016              		.loc 2 176 0
 1017 00f2 2A49     		ldr	r1, .L116+44
 1018 00f4 3046     		mov	r0, r6
 1019 00f6 FFF7FEFF 		bl	chprintf
 1020              	.LVL113:
 1021              	.LBB216:
 1022              	.LBB215:
 1023              		.loc 2 61 0
 1024 00fa 2A68     		ldr	r2, [r5]
 1025 00fc 2C46     		mov	r4, r5
 1026              	.LVL114:
ARM GAS  /tmp/ccgfcGR2.s 			page 19


 1027 00fe 3AB1     		cbz	r2, .L82
 1028              	.LVL115:
 1029              	.L81:
 1030              		.loc 2 62 0
 1031 0100 2749     		ldr	r1, .L116+48
 1032 0102 3046     		mov	r0, r6
 1033 0104 FFF7FEFF 		bl	chprintf
 1034              	.LVL116:
 1035              		.loc 2 61 0
 1036 0108 54F8082F 		ldr	r2, [r4, #8]!
 1037              	.LVL117:
 1038 010c 002A     		cmp	r2, #0
 1039 010e F7D1     		bne	.L81
 1040              	.LVL118:
 1041              	.L82:
 1042              	.LBE215:
 1043              	.LBE216:
 1044              		.loc 2 178 0
 1045 0110 B8F1000F 		cmp	r8, #0
 1046 0114 0BD0     		beq	.L80
 1047              	.LVL119:
 1048              	.LBB217:
 1049              	.LBB218:
 1050              		.loc 2 61 0
 1051 0116 D8F80020 		ldr	r2, [r8]
 1052 011a 42B1     		cbz	r2, .L80
 1053 011c 4446     		mov	r4, r8
 1054              	.LVL120:
 1055              	.L83:
 1056              		.loc 2 62 0
 1057 011e 2049     		ldr	r1, .L116+48
 1058 0120 3046     		mov	r0, r6
 1059 0122 FFF7FEFF 		bl	chprintf
 1060              	.LVL121:
 1061              		.loc 2 61 0
 1062 0126 54F8082F 		ldr	r2, [r4, #8]!
 1063              	.LVL122:
 1064 012a 002A     		cmp	r2, #0
 1065 012c F7D1     		bne	.L83
 1066              	.LVL123:
 1067              	.L80:
 1068              	.LBE218:
 1069              	.LBE217:
 1070              		.loc 2 180 0
 1071 012e 1D49     		ldr	r1, .L116+52
 1072 0130 3046     		mov	r0, r6
 1073 0132 FFF7FEFF 		bl	chprintf
 1074              	.LVL124:
 1075 0136 71E7     		b	.L65
 1076              	.LVL125:
 1077              	.L76:
 1078              		.loc 2 182 0
 1079 0138 B8F1000F 		cmp	r8, #0
 1080 013c 0DD0     		beq	.L88
 1081              	.LVL126:
 1082              	.LBB219:
 1083              	.LBB212:
ARM GAS  /tmp/ccgfcGR2.s 			page 20


 1084              		.loc 2 121 0
 1085 013e D8F80000 		ldr	r0, [r8]
 1086 0142 50B1     		cbz	r0, .L88
 1087 0144 4546     		mov	r5, r8
 1088 0146 02E0     		b	.L87
 1089              	.LVL127:
 1090              	.L86:
 1091 0148 55F8080F 		ldr	r0, [r5, #8]!
 1092              	.LVL128:
 1093 014c 28B1     		cbz	r0, .L88
 1094              	.LVL129:
 1095              	.L87:
 1096              		.loc 2 122 0
 1097 014e 3946     		mov	r1, r7
 1098 0150 FFF7FEFF 		bl	strcasecmp
 1099              	.LVL130:
 1100 0154 0028     		cmp	r0, #0
 1101 0156 F7D1     		bne	.L86
 1102 0158 C4E7     		b	.L110
 1103              	.LVL131:
 1104              	.L88:
 1105              	.LBE212:
 1106              	.LBE219:
 1107              		.loc 2 184 0
 1108 015a 3A46     		mov	r2, r7
 1109 015c 1249     		ldr	r1, .L116+56
 1110 015e 3046     		mov	r0, r6
 1111 0160 FFF7FEFF 		bl	chprintf
 1112              	.LVL132:
 1113              		.loc 2 185 0
 1114 0164 1149     		ldr	r1, .L116+60
 1115 0166 3046     		mov	r0, r6
 1116 0168 FFF7FEFF 		bl	chprintf
 1117              	.LVL133:
 1118 016c 56E7     		b	.L65
 1119              	.L117:
 1120 016e 00BF     		.align	2
 1121              	.L116:
 1122 0170 00000000 		.word	ch
 1123 0174 C4010000 		.word	.LC25
 1124 0178 CC010000 		.word	.LC26
 1125 017c E4010000 		.word	.LC27
 1126 0180 10020000 		.word	.LC30
 1127 0184 08000000 		.word	.LC1
 1128 0188 F8010000 		.word	.LC29
 1129 018c EC010000 		.word	.LC28
 1130 0190 00000000 		.word	.LANCHOR0
 1131 0194 18020000 		.word	.LC31
 1132 0198 00000000 		.word	.LANCHOR1
 1133 019c 20020000 		.word	.LC32
 1134 01a0 38020000 		.word	.LC33
 1135 01a4 C0010000 		.word	.LC24
 1136 01a8 3C020000 		.word	.LC34
 1137 01ac 40020000 		.word	.LC35
 1138              		.cfi_endproc
 1139              	.LFE265:
 1140              		.size	shell_thread, .-shell_thread
ARM GAS  /tmp/ccgfcGR2.s 			page 21


 1141              		.global	shell_terminated
 1142              		.section	.data.local_commands,"aw",%progbits
 1143              		.align	2
 1144              		.set	.LANCHOR1,. + 0
 1145              		.type	local_commands, %object
 1146              		.size	local_commands, 24
 1147              	local_commands:
 1148 0000 1C000000 		.word	.LC3
 1149 0004 00000000 		.word	cmd_info
 1150 0008 00000000 		.word	.LC0
 1151 000c 00000000 		.word	cmd_systime
 1152 0010 00000000 		.word	0
 1153 0014 00000000 		.word	0
 1154              		.section	.rodata.str1.4,"aMS",%progbits,1
 1155              		.align	2
 1156              	.LC0:
 1157 0000 73797374 		.ascii	"systime\000"
 1157      696D6500 
 1158              	.LC1:
 1159 0008 55736167 		.ascii	"Usage: %s\015\012\000"
 1159      653A2025 
 1159      730D0A00 
 1160              	.LC2:
 1161 0014 256C750D 		.ascii	"%lu\015\012\000"
 1161      0A00
 1162 001a 0000     		.space	2
 1163              	.LC3:
 1164 001c 696E666F 		.ascii	"info\000"
 1164      00
 1165 0021 000000   		.space	3
 1166              	.LC4:
 1167 0024 332E302E 		.ascii	"3.0.0p6\000"
 1167      30703600 
 1168              	.LC5:
 1169 002c 4B65726E 		.ascii	"Kernel:       %s\015\012\000"
 1169      656C3A20 
 1169      20202020 
 1169      20202573 
 1169      0D0A00
 1170 003f 00       		.space	1
 1171              	.LC6:
 1172 0040 47434320 		.ascii	"GCC 5.4.1 20160919 (release) [ARM/embedded-5-branch"
 1172      352E342E 
 1172      31203230 
 1172      31363039 
 1172      31392028 
 1173 0073 20726576 		.ascii	" revision 240496]\000"
 1173      6973696F 
 1173      6E203234 
 1173      30343936 
 1173      5D00
 1174 0085 000000   		.space	3
 1175              	.LC7:
 1176 0088 436F6D70 		.ascii	"Compiler:     %s\015\012\000"
 1176      696C6572 
 1176      3A202020 
 1176      20202573 
ARM GAS  /tmp/ccgfcGR2.s 			page 22


 1176      0D0A00
 1177 009b 00       		.space	1
 1178              	.LC8:
 1179 009c 41524D76 		.ascii	"ARMv7-ME\000"
 1179      372D4D45 
 1179      00
 1180 00a5 000000   		.space	3
 1181              	.LC9:
 1182 00a8 41726368 		.ascii	"Architecture: %s\015\012\000"
 1182      69746563 
 1182      74757265 
 1182      3A202573 
 1182      0D0A00
 1183 00bb 00       		.space	1
 1184              	.LC10:
 1185 00bc 436F7274 		.ascii	"Cortex-M4\000"
 1185      65782D4D 
 1185      3400
 1186 00c6 0000     		.space	2
 1187              	.LC11:
 1188 00c8 436F7265 		.ascii	"Core Variant: %s\015\012\000"
 1188      20566172 
 1188      69616E74 
 1188      3A202573 
 1188      0D0A00
 1189 00db 00       		.space	1
 1190              	.LC12:
 1191 00dc 41647661 		.ascii	"Advanced kernel mode\000"
 1191      6E636564 
 1191      206B6572 
 1191      6E656C20 
 1191      6D6F6465 
 1192 00f1 000000   		.space	3
 1193              	.LC13:
 1194 00f4 506F7274 		.ascii	"Port Info:    %s\015\012\000"
 1194      20496E66 
 1194      6F3A2020 
 1194      20202573 
 1194      0D0A00
 1195 0107 00       		.space	1
 1196              	.LC14:
 1197 0108 53544D33 		.ascii	"STM32F407 High Performance with DSP and FPU\000"
 1197      32463430 
 1197      37204869 
 1197      67682050 
 1197      6572666F 
 1198              	.LC15:
 1199 0134 506C6174 		.ascii	"Platform:     %s\015\012\000"
 1199      666F726D 
 1199      3A202020 
 1199      20202573 
 1199      0D0A00
 1200 0147 00       		.space	1
 1201              	.LC16:
 1202 0148 53544D69 		.ascii	"STMicroelectronics STM32F4-Discovery\000"
 1202      63726F65 
 1202      6C656374 
ARM GAS  /tmp/ccgfcGR2.s 			page 23


 1202      726F6E69 
 1202      63732053 
 1203 016d 000000   		.space	3
 1204              	.LC17:
 1205 0170 426F6172 		.ascii	"Board:        %s\015\012\000"
 1205      643A2020 
 1205      20202020 
 1205      20202573 
 1205      0D0A00
 1206 0183 00       		.space	1
 1207              	.LC18:
 1208 0184 202D2000 		.ascii	" - \000"
 1209              	.LC19:
 1210 0188 4A616E20 		.ascii	"Jan  9 2017\000"
 1210      20392032 
 1210      30313700 
 1211              	.LC20:
 1212 0194 4275696C 		.ascii	"Build time:   %s%s%s\015\012\000"
 1212      64207469 
 1212      6D653A20 
 1212      20202573 
 1212      25732573 
 1213 01ab 00       		.space	1
 1214              	.LC21:
 1215 01ac 32323A34 		.ascii	"22:47:20\000"
 1215      373A3230 
 1215      00
 1216 01b5 000000   		.space	3
 1217              	.LC22:
 1218 01b8 200900   		.ascii	" \011\000"
 1219 01bb 00       		.space	1
 1220              	.LC23:
 1221 01bc 5E4400   		.ascii	"^D\000"
 1222 01bf 00       		.space	1
 1223              	.LC24:
 1224 01c0 0D0A00   		.ascii	"\015\012\000"
 1225 01c3 00       		.space	1
 1226              	.LC25:
 1227 01c4 7368656C 		.ascii	"shell\000"
 1227      6C00
 1228 01ca 0000     		.space	2
 1229              	.LC26:
 1230 01cc 0D0A4368 		.ascii	"\015\012ChibiOS/RT Shell\015\012\000"
 1230      6962694F 
 1230      532F5254 
 1230      20536865 
 1230      6C6C0D0A 
 1231 01e1 000000   		.space	3
 1232              	.LC27:
 1233 01e4 63683E20 		.ascii	"ch> \000"
 1233      00
 1234 01e9 000000   		.space	3
 1235              	.LC28:
 1236 01ec 0D0A6C6F 		.ascii	"\015\012logout\000"
 1236      676F7574 
 1236      00
 1237 01f5 000000   		.space	3
ARM GAS  /tmp/ccgfcGR2.s 			page 24


 1238              	.LC29:
 1239 01f8 746F6F20 		.ascii	"too many arguments\015\012\000"
 1239      6D616E79 
 1239      20617267 
 1239      756D656E 
 1239      74730D0A 
 1240 020d 000000   		.space	3
 1241              	.LC30:
 1242 0210 65786974 		.ascii	"exit\000"
 1242      00
 1243 0215 000000   		.space	3
 1244              	.LC31:
 1245 0218 68656C70 		.ascii	"help\000"
 1245      00
 1246 021d 000000   		.space	3
 1247              	.LC32:
 1248 0220 436F6D6D 		.ascii	"Commands: help exit \000"
 1248      616E6473 
 1248      3A206865 
 1248      6C702065 
 1248      78697420 
 1249 0235 000000   		.space	3
 1250              	.LC33:
 1251 0238 25732000 		.ascii	"%s \000"
 1252              	.LC34:
 1253 023c 257300   		.ascii	"%s\000"
 1254 023f 00       		.space	1
 1255              	.LC35:
 1256 0240 203F0D0A 		.ascii	" ?\015\012\000"
 1256      00
 1257              		.section	.bss.shell_terminated,"aw",%nobits
 1258              		.align	2
 1259              		.set	.LANCHOR0,. + 0
 1260              		.type	shell_terminated, %object
 1261              		.size	shell_terminated, 4
 1262              	shell_terminated:
 1263 0000 00000000 		.space	4
 1264              		.text
 1265              	.Letext0:
 1266              		.file 6 "/usr/lib/gcc/arm-none-eabi/5.4.1/include/stddef.h"
 1267              		.file 7 "/usr/arm-none-eabi/include/machine/_default_types.h"
 1268              		.file 8 "/usr/arm-none-eabi/include/sys/_stdint.h"
 1269              		.file 9 "/home/selim/working/ChibiOS/os/rt/ports/ARMCMx/compilers/GCC/chtypes.h"
 1270              		.file 10 "/home/selim/working/ChibiOS/os/rt/include/chsystypes.h"
 1271              		.file 11 "/home/selim/working/ChibiOS/os/rt/include/chschd.h"
 1272              		.file 12 "/home/selim/working/ChibiOS/os/rt/ports/ARMCMx/chcore.h"
 1273              		.file 13 "/home/selim/working/ChibiOS/os/rt/ports/ARMCMx/chcore_v7m.h"
 1274              		.file 14 "/home/selim/working/ChibiOS/os/hal/ports/STM32/LLD/TIMv1/stm32_tim.h"
 1275              		.file 15 "/home/selim/working/ChibiOS/os/rt/include/chtm.h"
 1276              		.file 16 "/home/selim/working/ChibiOS/os/rt/include/chsem.h"
 1277              		.file 17 "/home/selim/working/ChibiOS/os/rt/include/chmtx.h"
 1278              		.file 18 "/home/selim/working/ChibiOS/os/rt/include/chstreams.h"
 1279              		.file 19 "/home/selim/working/ChibiOS/os/various/shell.h"
 1280              		.file 20 "/usr/lib/gcc/arm-none-eabi/5.4.1/include/stdarg.h"
 1281              		.file 21 "<built-in>"
 1282              		.file 22 "/home/selim/working/ChibiOS/os/rt/ports/ARMCMx/chcore_timer.h"
 1283              		.file 23 "/home/selim/working/ChibiOS/os/rt/include/chsys.h"
ARM GAS  /tmp/ccgfcGR2.s 			page 25


 1284              		.file 24 "/home/selim/working/ChibiOS/os/rt/include/chvt.h"
 1285              		.file 25 "/home/selim/working/ChibiOS/os/ext/CMSIS/include/core_cm4.h"
 1286              		.file 26 "/usr/arm-none-eabi/include/string.h"
 1287              		.file 27 "/home/selim/working/ChibiOS/os/rt/include/chthreads.h"
 1288              		.file 28 "/home/selim/working/ChibiOS/os/rt/include/chdynamic.h"