ARM GAS  /tmp/ccMxQxU9.s 			page 1


   1              		.syntax unified
   2              		.cpu cortex-m4
   3              		.fpu softvfp
   4              		.eabi_attribute 20, 1
   5              		.eabi_attribute 21, 1
   6              		.eabi_attribute 23, 3
   7              		.eabi_attribute 24, 1
   8              		.eabi_attribute 25, 1
   9              		.eabi_attribute 26, 1
  10              		.eabi_attribute 30, 2
  11              		.eabi_attribute 34, 1
  12              		.eabi_attribute 18, 4
  13              		.thumb
  14              		.syntax unified
  15              		.file	"testthd.c"
  16              		.text
  17              	.Ltext0:
  18              		.cfi_sections	.debug_frame
  19              		.section	.text.thd1_execute,"ax",%progbits
  20              		.align	2
  21              		.p2align 4,,15
  22              		.thumb
  23              		.thumb_func
  24              		.type	thd1_execute, %function
  25              	thd1_execute:
  26              	.LFB228:
  27              		.file 1 "/home/selim/working/ChibiOS/test/rt/testthd.c"
  28              		.loc 1 65 0
  29              		.cfi_startproc
  30              		@ args = 0, pretend = 0, frame = 0
  31              		@ frame_needed = 0, uses_anonymous_args = 0
  32 0000 F0B5     		push	{r4, r5, r6, r7, lr}
  33              		.cfi_def_cfa_offset 20
  34              		.cfi_offset 4, -20
  35              		.cfi_offset 5, -16
  36              		.cfi_offset 6, -12
  37              		.cfi_offset 7, -8
  38              		.cfi_offset 14, -4
  39              	.LBB257:
  40              	.LBB258:
  41              	.LBB259:
  42              	.LBB260:
  43              		.file 2 "/home/selim/working/ChibiOS/os/rt/include/chthreads.h"
  44              		.loc 2 176 0
  45 0002 274F     		ldr	r7, .L3
  46              	.LBE260:
  47              	.LBE259:
  48              	.LBE258:
  49              	.LBE257:
  50              		.loc 1 67 0
  51 0004 274E     		ldr	r6, .L3+4
  52              	.LBB262:
  53              	.LBB261:
  54              		.loc 2 189 0
  55 0006 BB69     		ldr	r3, [r7, #24]
  56              	.LBE261:
  57              	.LBE262:
ARM GAS  /tmp/ccMxQxU9.s 			page 2


  58              		.loc 1 67 0
  59 0008 274D     		ldr	r5, .L3+8
  60 000a 9A68     		ldr	r2, [r3, #8]
  61 000c 274B     		ldr	r3, .L3+12
  62 000e 3068     		ldr	r0, [r6]
  63 0010 274C     		ldr	r4, .L3+16
  64              		.loc 1 65 0
  65 0012 83B0     		sub	sp, sp, #12
  66              		.cfi_def_cfa_offset 32
  67              		.loc 1 67 0
  68 0014 053A     		subs	r2, r2, #5
  69 0016 0093     		str	r3, [sp]
  70 0018 4FF4A471 		mov	r1, #328
  71 001c 2B46     		mov	r3, r5
  72 001e FFF7FEFF 		bl	chThdCreateStatic
  73              	.LVL0:
  74              	.LBB263:
  75              	.LBB264:
  76              		.loc 2 189 0
  77 0022 BB69     		ldr	r3, [r7, #24]
  78              	.LBE264:
  79              	.LBE263:
  80              		.loc 1 68 0
  81 0024 2349     		ldr	r1, .L3+20
  82 0026 9A68     		ldr	r2, [r3, #8]
  83 0028 7368     		ldr	r3, [r6, #4]
  84              		.loc 1 67 0
  85 002a 2060     		str	r0, [r4]
  86              		.loc 1 68 0
  87 002c 0091     		str	r1, [sp]
  88 002e 043A     		subs	r2, r2, #4
  89 0030 1846     		mov	r0, r3
  90 0032 4FF4A471 		mov	r1, #328
  91 0036 2B46     		mov	r3, r5
  92 0038 FFF7FEFF 		bl	chThdCreateStatic
  93              	.LVL1:
  94              	.LBB265:
  95              	.LBB266:
  96              		.loc 2 189 0
  97 003c BA69     		ldr	r2, [r7, #24]
  98              	.LBE266:
  99              	.LBE265:
 100              		.loc 1 69 0
 101 003e B368     		ldr	r3, [r6, #8]
 102 0040 9268     		ldr	r2, [r2, #8]
 103 0042 1D49     		ldr	r1, .L3+24
 104              		.loc 1 68 0
 105 0044 6060     		str	r0, [r4, #4]
 106              		.loc 1 69 0
 107 0046 0091     		str	r1, [sp]
 108 0048 033A     		subs	r2, r2, #3
 109 004a 1846     		mov	r0, r3
 110 004c 4FF4A471 		mov	r1, #328
 111 0050 2B46     		mov	r3, r5
 112 0052 FFF7FEFF 		bl	chThdCreateStatic
 113              	.LVL2:
 114              	.LBB267:
ARM GAS  /tmp/ccMxQxU9.s 			page 3


 115              	.LBB268:
 116              		.loc 2 189 0
 117 0056 BA69     		ldr	r2, [r7, #24]
 118              	.LBE268:
 119              	.LBE267:
 120              		.loc 1 70 0
 121 0058 F368     		ldr	r3, [r6, #12]
 122 005a 9268     		ldr	r2, [r2, #8]
 123 005c 1749     		ldr	r1, .L3+28
 124              		.loc 1 69 0
 125 005e A060     		str	r0, [r4, #8]
 126              		.loc 1 70 0
 127 0060 0091     		str	r1, [sp]
 128 0062 023A     		subs	r2, r2, #2
 129 0064 1846     		mov	r0, r3
 130 0066 4FF4A471 		mov	r1, #328
 131 006a 2B46     		mov	r3, r5
 132 006c FFF7FEFF 		bl	chThdCreateStatic
 133              	.LVL3:
 134              	.LBB269:
 135              	.LBB270:
 136              		.loc 2 189 0
 137 0070 BA69     		ldr	r2, [r7, #24]
 138              	.LBE270:
 139              	.LBE269:
 140              		.loc 1 71 0
 141 0072 3369     		ldr	r3, [r6, #16]
 142 0074 9268     		ldr	r2, [r2, #8]
 143 0076 1249     		ldr	r1, .L3+32
 144              		.loc 1 70 0
 145 0078 E060     		str	r0, [r4, #12]
 146              		.loc 1 71 0
 147 007a 013A     		subs	r2, r2, #1
 148 007c 0091     		str	r1, [sp]
 149 007e 1846     		mov	r0, r3
 150 0080 4FF4A471 		mov	r1, #328
 151 0084 2B46     		mov	r3, r5
 152 0086 FFF7FEFF 		bl	chThdCreateStatic
 153              	.LVL4:
 154 008a 2061     		str	r0, [r4, #16]
 155              		.loc 1 72 0
 156 008c FFF7FEFF 		bl	test_wait_threads
 157              	.LVL5:
 158              		.loc 1 73 0
 159 0090 0C49     		ldr	r1, .L3+36
 160 0092 0120     		movs	r0, #1
 161              		.loc 1 74 0
 162 0094 03B0     		add	sp, sp, #12
 163              		.cfi_def_cfa_offset 20
 164              		@ sp needed
 165 0096 BDE8F040 		pop	{r4, r5, r6, r7, lr}
 166              		.cfi_restore 14
 167              		.cfi_restore 7
 168              		.cfi_restore 6
 169              		.cfi_restore 5
 170              		.cfi_restore 4
 171              		.cfi_def_cfa_offset 0
ARM GAS  /tmp/ccMxQxU9.s 			page 4


 172              		.loc 1 73 0
 173 009a FFF7FEBF 		b	_test_assert_sequence
 174              	.LVL6:
 175              	.L4:
 176 009e 00BF     		.align	2
 177              	.L3:
 178 00a0 00000000 		.word	ch
 179 00a4 00000000 		.word	wa
 180 00a8 00000000 		.word	thread
 181 00ac 00000000 		.word	.LC0
 182 00b0 00000000 		.word	threads
 183 00b4 04000000 		.word	.LC1
 184 00b8 08000000 		.word	.LC2
 185 00bc 0C000000 		.word	.LC3
 186 00c0 10000000 		.word	.LC4
 187 00c4 14000000 		.word	.LC5
 188              		.cfi_endproc
 189              	.LFE228:
 190              		.size	thd1_execute, .-thd1_execute
 191              		.section	.text.thread,"ax",%progbits
 192              		.align	2
 193              		.p2align 4,,15
 194              		.thumb
 195              		.thumb_func
 196              		.type	thread, %function
 197              	thread:
 198              	.LFB227:
 199              		.loc 1 60 0
 200              		.cfi_startproc
 201              		@ args = 0, pretend = 0, frame = 0
 202              		@ frame_needed = 0, uses_anonymous_args = 0
 203              		@ link register save eliminated.
 204              	.LVL7:
 205              		.loc 1 62 0
 206 0000 0078     		ldrb	r0, [r0]	@ zero_extendqisi2
 207              	.LVL8:
 208 0002 FFF7FEBF 		b	test_emit_token
 209              	.LVL9:
 210              		.cfi_endproc
 211              	.LFE227:
 212              		.size	thread, .-thread
 213 0006 00BF     		.section	.text.thd2_execute,"ax",%progbits
 214              		.align	2
 215              		.p2align 4,,15
 216              		.thumb
 217              		.thumb_func
 218              		.type	thd2_execute, %function
 219              	thd2_execute:
 220              	.LFB229:
 221              		.loc 1 93 0
 222              		.cfi_startproc
 223              		@ args = 0, pretend = 0, frame = 0
 224              		@ frame_needed = 0, uses_anonymous_args = 0
 225 0000 F0B5     		push	{r4, r5, r6, r7, lr}
 226              		.cfi_def_cfa_offset 20
 227              		.cfi_offset 4, -20
 228              		.cfi_offset 5, -16
ARM GAS  /tmp/ccMxQxU9.s 			page 5


 229              		.cfi_offset 6, -12
 230              		.cfi_offset 7, -8
 231              		.cfi_offset 14, -4
 232              	.LBB271:
 233              	.LBB272:
 234              	.LBB273:
 235              	.LBB274:
 236              		.loc 2 176 0
 237 0002 2B4F     		ldr	r7, .L8
 238              	.LBE274:
 239              	.LBE273:
 240              	.LBE272:
 241              	.LBE271:
 242              		.loc 1 95 0
 243 0004 2B4E     		ldr	r6, .L8+4
 244              	.LBB276:
 245              	.LBB275:
 246              		.loc 2 189 0
 247 0006 BB69     		ldr	r3, [r7, #24]
 248              	.LBE275:
 249              	.LBE276:
 250              		.loc 1 95 0
 251 0008 2B4D     		ldr	r5, .L8+8
 252 000a 9A68     		ldr	r2, [r3, #8]
 253 000c 2B4B     		ldr	r3, .L8+12
 254 000e 7068     		ldr	r0, [r6, #4]
 255 0010 2B4C     		ldr	r4, .L8+16
 256              		.loc 1 93 0
 257 0012 83B0     		sub	sp, sp, #12
 258              		.cfi_def_cfa_offset 32
 259              		.loc 1 95 0
 260 0014 043A     		subs	r2, r2, #4
 261 0016 0093     		str	r3, [sp]
 262 0018 4FF4A471 		mov	r1, #328
 263 001c 2B46     		mov	r3, r5
 264 001e FFF7FEFF 		bl	chThdCreateStatic
 265              	.LVL10:
 266              	.LBB277:
 267              	.LBB278:
 268              		.loc 2 189 0
 269 0022 BB69     		ldr	r3, [r7, #24]
 270              	.LBE278:
 271              	.LBE277:
 272              		.loc 1 96 0
 273 0024 2749     		ldr	r1, .L8+20
 274 0026 9A68     		ldr	r2, [r3, #8]
 275 0028 3368     		ldr	r3, [r6]
 276              		.loc 1 95 0
 277 002a 6060     		str	r0, [r4, #4]
 278              		.loc 1 96 0
 279 002c 0091     		str	r1, [sp]
 280 002e 053A     		subs	r2, r2, #5
 281 0030 1846     		mov	r0, r3
 282 0032 4FF4A471 		mov	r1, #328
 283 0036 2B46     		mov	r3, r5
 284 0038 FFF7FEFF 		bl	chThdCreateStatic
 285              	.LVL11:
ARM GAS  /tmp/ccMxQxU9.s 			page 6


 286              	.LBB279:
 287              	.LBB280:
 288              		.loc 2 189 0
 289 003c BA69     		ldr	r2, [r7, #24]
 290              	.LBE280:
 291              	.LBE279:
 292              		.loc 1 97 0
 293 003e 3369     		ldr	r3, [r6, #16]
 294 0040 9268     		ldr	r2, [r2, #8]
 295 0042 2149     		ldr	r1, .L8+24
 296              		.loc 1 96 0
 297 0044 2060     		str	r0, [r4]
 298              		.loc 1 97 0
 299 0046 0091     		str	r1, [sp]
 300 0048 013A     		subs	r2, r2, #1
 301 004a 1846     		mov	r0, r3
 302 004c 4FF4A471 		mov	r1, #328
 303 0050 2B46     		mov	r3, r5
 304 0052 FFF7FEFF 		bl	chThdCreateStatic
 305              	.LVL12:
 306              	.LBB281:
 307              	.LBB282:
 308              		.loc 2 189 0
 309 0056 BA69     		ldr	r2, [r7, #24]
 310              	.LBE282:
 311              	.LBE281:
 312              		.loc 1 98 0
 313 0058 F368     		ldr	r3, [r6, #12]
 314 005a 9268     		ldr	r2, [r2, #8]
 315 005c 1B49     		ldr	r1, .L8+28
 316              		.loc 1 97 0
 317 005e 2061     		str	r0, [r4, #16]
 318              		.loc 1 98 0
 319 0060 0091     		str	r1, [sp]
 320 0062 023A     		subs	r2, r2, #2
 321 0064 1846     		mov	r0, r3
 322 0066 4FF4A471 		mov	r1, #328
 323 006a 2B46     		mov	r3, r5
 324 006c FFF7FEFF 		bl	chThdCreateStatic
 325              	.LVL13:
 326              	.LBB283:
 327              	.LBB284:
 328              	.LBB285:
 329              	.LBB286:
 330              		.file 3 "/home/selim/working/ChibiOS/os/ext/CMSIS/include/core_cmFunc.h"
 331              		.loc 3 546 0
 332 0070 2023     		movs	r3, #32
 333              	.LBE286:
 334              	.LBE285:
 335              	.LBE284:
 336              	.LBE283:
 337              		.loc 1 98 0
 338 0072 E060     		str	r0, [r4, #12]
 339              	.LVL14:
 340              	.LBB290:
 341              	.LBB289:
 342              	.LBB288:
ARM GAS  /tmp/ccMxQxU9.s 			page 7


 343              	.LBB287:
 344              		.loc 3 546 0
 345              		.syntax unified
 346              	@ 546 "/home/selim/working/ChibiOS/os/ext/CMSIS/include/core_cmFunc.h" 1
 347 0074 83F31188 		MSR basepri, r3
 348              	@ 0 "" 2
 349              	.LVL15:
 350              		.thumb
 351              		.syntax unified
 352              	.LBE287:
 353              	.LBE288:
 354              	.LBE289:
 355              	.LBE290:
 356              	.LBB291:
 357              	.LBB292:
 358              		.loc 2 189 0
 359 0078 BB69     		ldr	r3, [r7, #24]
 360              	.LBE292:
 361              	.LBE291:
 362              		.loc 1 101 0
 363 007a B068     		ldr	r0, [r6, #8]
 364 007c 9A68     		ldr	r2, [r3, #8]
 365 007e 144B     		ldr	r3, .L8+32
 366 0080 0093     		str	r3, [sp]
 367 0082 033A     		subs	r2, r2, #3
 368 0084 2B46     		mov	r3, r5
 369 0086 4FF4A471 		mov	r1, #328
 370 008a FFF7FEFF 		bl	chThdCreateI
 371              	.LVL16:
 372              	.LBB293:
 373              	.LBB294:
 374              	.LBB295:
 375              	.LBB296:
 376              	.LBB297:
 377              		.loc 3 546 0
 378 008e 0023     		movs	r3, #0
 379              	.LBE297:
 380              	.LBE296:
 381              	.LBE295:
 382              	.LBE294:
 383              	.LBE293:
 384              		.loc 1 101 0
 385 0090 A060     		str	r0, [r4, #8]
 386              	.LVL17:
 387              	.LBB302:
 388              	.LBB301:
 389              	.LBB300:
 390              	.LBB299:
 391              	.LBB298:
 392              		.loc 3 546 0
 393              		.syntax unified
 394              	@ 546 "/home/selim/working/ChibiOS/os/ext/CMSIS/include/core_cmFunc.h" 1
 395 0092 83F31188 		MSR basepri, r3
 396              	@ 0 "" 2
 397              	.LVL18:
 398              		.thumb
 399              		.syntax unified
ARM GAS  /tmp/ccMxQxU9.s 			page 8


 400              	.LBE298:
 401              	.LBE299:
 402              	.LBE300:
 403              	.LBE301:
 404              	.LBE302:
 405              		.loc 1 103 0
 406 0096 A068     		ldr	r0, [r4, #8]
 407 0098 FFF7FEFF 		bl	chThdStart
 408              	.LVL19:
 409              		.loc 1 104 0
 410 009c FFF7FEFF 		bl	test_wait_threads
 411              	.LVL20:
 412              		.loc 1 105 0
 413 00a0 0C49     		ldr	r1, .L8+36
 414 00a2 0120     		movs	r0, #1
 415              		.loc 1 106 0
 416 00a4 03B0     		add	sp, sp, #12
 417              		.cfi_def_cfa_offset 20
 418              		@ sp needed
 419 00a6 BDE8F040 		pop	{r4, r5, r6, r7, lr}
 420              		.cfi_restore 14
 421              		.cfi_restore 7
 422              		.cfi_restore 6
 423              		.cfi_restore 5
 424              		.cfi_restore 4
 425              		.cfi_def_cfa_offset 0
 426              		.loc 1 105 0
 427 00aa FFF7FEBF 		b	_test_assert_sequence
 428              	.LVL21:
 429              	.L9:
 430 00ae 00BF     		.align	2
 431              	.L8:
 432 00b0 00000000 		.word	ch
 433 00b4 00000000 		.word	wa
 434 00b8 00000000 		.word	thread
 435 00bc 04000000 		.word	.LC1
 436 00c0 00000000 		.word	threads
 437 00c4 00000000 		.word	.LC0
 438 00c8 10000000 		.word	.LC4
 439 00cc 0C000000 		.word	.LC3
 440 00d0 08000000 		.word	.LC2
 441 00d4 14000000 		.word	.LC5
 442              		.cfi_endproc
 443              	.LFE229:
 444              		.size	thd2_execute, .-thd2_execute
 445              		.section	.text.thd3_execute,"ax",%progbits
 446              		.align	2
 447              		.p2align 4,,15
 448              		.thumb
 449              		.thumb_func
 450              		.type	thd3_execute, %function
 451              	thd3_execute:
 452              	.LFB230:
 453              		.loc 1 125 0
 454              		.cfi_startproc
 455              		@ args = 0, pretend = 0, frame = 0
 456              		@ frame_needed = 0, uses_anonymous_args = 0
ARM GAS  /tmp/ccMxQxU9.s 			page 9


 457 0000 F8B5     		push	{r3, r4, r5, r6, r7, lr}
 458              		.cfi_def_cfa_offset 24
 459              		.cfi_offset 3, -24
 460              		.cfi_offset 4, -20
 461              		.cfi_offset 5, -16
 462              		.cfi_offset 6, -12
 463              		.cfi_offset 7, -8
 464              		.cfi_offset 14, -4
 465              	.LBB303:
 466              	.LBB304:
 467              	.LBB305:
 468              	.LBB306:
 469              		.loc 2 176 0
 470 0002 494E     		ldr	r6, .L17
 471              	.LBE306:
 472              	.LBE305:
 473              		.loc 2 189 0
 474 0004 B369     		ldr	r3, [r6, #24]
 475 0006 9C68     		ldr	r4, [r3, #8]
 476              	.LBE304:
 477              	.LBE303:
 478              		.loc 1 129 0
 479 0008 651C     		adds	r5, r4, #1
 480 000a 2846     		mov	r0, r5
 481 000c FFF7FEFF 		bl	chThdSetPriority
 482              	.LVL22:
 483              		.loc 1 130 0
 484 0010 011B     		subs	r1, r0, r4
 485 0012 B1FA81F1 		clz	r1, r1
 486              		.loc 1 129 0
 487 0016 0746     		mov	r7, r0
 488              	.LVL23:
 489              		.loc 1 130 0
 490 0018 4909     		lsrs	r1, r1, #5
 491 001a 0120     		movs	r0, #1
 492              	.LVL24:
 493 001c FFF7FEFF 		bl	_test_assert
 494              	.LVL25:
 495 0020 00B1     		cbz	r0, .L16
 496              	.LVL26:
 497              	.L10:
 498 0022 F8BD     		pop	{r3, r4, r5, r6, r7, pc}
 499              	.LVL27:
 500              	.L16:
 501              	.LBB307:
 502              	.LBB308:
 503              		.loc 2 189 0
 504 0024 B369     		ldr	r3, [r6, #24]
 505              	.LBE308:
 506              	.LBE307:
 507              		.loc 1 132 0
 508 0026 9968     		ldr	r1, [r3, #8]
 509 0028 491B     		subs	r1, r1, r5
 510 002a B1FA81F1 		clz	r1, r1
 511 002e 0220     		movs	r0, #2
 512 0030 4909     		lsrs	r1, r1, #5
 513 0032 FFF7FEFF 		bl	_test_assert
ARM GAS  /tmp/ccMxQxU9.s 			page 10


 514              	.LVL28:
 515 0036 0028     		cmp	r0, #0
 516 0038 F3D1     		bne	.L10
 517              		.loc 1 134 0
 518 003a 3846     		mov	r0, r7
 519 003c FFF7FEFF 		bl	chThdSetPriority
 520              	.LVL29:
 521              		.loc 1 135 0
 522 0040 291A     		subs	r1, r5, r0
 523 0042 B1FA81F1 		clz	r1, r1
 524 0046 4909     		lsrs	r1, r1, #5
 525 0048 0320     		movs	r0, #3
 526              	.LVL30:
 527 004a FFF7FEFF 		bl	_test_assert
 528              	.LVL31:
 529 004e 0028     		cmp	r0, #0
 530 0050 E7D1     		bne	.L10
 531              	.LBB309:
 532              	.LBB310:
 533              		.loc 2 189 0
 534 0052 B369     		ldr	r3, [r6, #24]
 535              	.LBE310:
 536              	.LBE309:
 537              		.loc 1 137 0
 538 0054 9968     		ldr	r1, [r3, #8]
 539 0056 091B     		subs	r1, r1, r4
 540 0058 B1FA81F1 		clz	r1, r1
 541 005c 0420     		movs	r0, #4
 542 005e 4909     		lsrs	r1, r1, #5
 543 0060 FFF7FEFF 		bl	_test_assert
 544              	.LVL32:
 545 0064 0028     		cmp	r0, #0
 546 0066 DCD1     		bne	.L10
 547              	.LVL33:
 548              	.LBB311:
 549              	.LBB312:
 550              	.LBB313:
 551              	.LBB314:
 552              		.loc 3 546 0
 553 0068 2023     		movs	r3, #32
 554              		.syntax unified
 555              	@ 546 "/home/selim/working/ChibiOS/os/ext/CMSIS/include/core_cmFunc.h" 1
 556 006a 83F31188 		MSR basepri, r3
 557              	@ 0 "" 2
 558              	.LVL34:
 559              		.thumb
 560              		.syntax unified
 561              	.LBE314:
 562              	.LBE313:
 563              	.LBE312:
 564              	.LBE311:
 565              	.LBB315:
 566              	.LBB316:
 567              		.loc 2 176 0
 568 006e B269     		ldr	r2, [r6, #24]
 569              	.LBE316:
 570              	.LBE315:
ARM GAS  /tmp/ccMxQxU9.s 			page 11


 571              		.loc 1 143 0
 572 0070 9368     		ldr	r3, [r2, #8]
 573 0072 0233     		adds	r3, r3, #2
 574 0074 9360     		str	r3, [r2, #8]
 575              	.LVL35:
 576              	.LBB317:
 577              	.LBB318:
 578              	.LBB319:
 579              	.LBB320:
 580              	.LBB321:
 581              		.loc 3 546 0
 582              		.syntax unified
 583              	@ 546 "/home/selim/working/ChibiOS/os/ext/CMSIS/include/core_cmFunc.h" 1
 584 0076 80F31188 		MSR basepri, r0
 585              	@ 0 "" 2
 586              	.LVL36:
 587              		.thumb
 588              		.syntax unified
 589              	.LBE321:
 590              	.LBE320:
 591              	.LBE319:
 592              	.LBE318:
 593              	.LBE317:
 594              	.LBB322:
 595              	.LBB323:
 596              		.loc 2 189 0
 597 007a B369     		ldr	r3, [r6, #24]
 598              	.LBE323:
 599              	.LBE322:
 600              		.loc 1 145 0
 601 007c 9968     		ldr	r1, [r3, #8]
 602 007e A71C     		adds	r7, r4, #2
 603 0080 C91B     		subs	r1, r1, r7
 604 0082 B1FA81F1 		clz	r1, r1
 605 0086 4909     		lsrs	r1, r1, #5
 606 0088 0520     		movs	r0, #5
 607 008a FFF7FEFF 		bl	_test_assert
 608              	.LVL37:
 609 008e 0028     		cmp	r0, #0
 610 0090 C7D1     		bne	.L10
 611              		.loc 1 149 0
 612 0092 2846     		mov	r0, r5
 613 0094 FFF7FEFF 		bl	chThdSetPriority
 614              	.LVL38:
 615              		.loc 1 150 0
 616 0098 011B     		subs	r1, r0, r4
 617 009a B1FA81F1 		clz	r1, r1
 618 009e 4909     		lsrs	r1, r1, #5
 619 00a0 0620     		movs	r0, #6
 620              	.LVL39:
 621 00a2 FFF7FEFF 		bl	_test_assert
 622              	.LVL40:
 623 00a6 0028     		cmp	r0, #0
 624 00a8 BBD1     		bne	.L10
 625              		.loc 1 152 0
 626 00aa B369     		ldr	r3, [r6, #24]
 627 00ac 9968     		ldr	r1, [r3, #8]
ARM GAS  /tmp/ccMxQxU9.s 			page 12


 628 00ae C91B     		subs	r1, r1, r7
 629 00b0 B1FA81F1 		clz	r1, r1
 630 00b4 0720     		movs	r0, #7
 631 00b6 4909     		lsrs	r1, r1, #5
 632 00b8 FFF7FEFF 		bl	_test_assert
 633              	.LVL41:
 634 00bc 0028     		cmp	r0, #0
 635 00be B0D1     		bne	.L10
 636              		.loc 1 154 0
 637 00c0 B369     		ldr	r3, [r6, #24]
 638 00c2 D96B     		ldr	r1, [r3, #60]
 639 00c4 491B     		subs	r1, r1, r5
 640 00c6 B1FA81F1 		clz	r1, r1
 641 00ca 0820     		movs	r0, #8
 642 00cc 4909     		lsrs	r1, r1, #5
 643 00ce FFF7FEFF 		bl	_test_assert
 644              	.LVL42:
 645 00d2 0028     		cmp	r0, #0
 646 00d4 A5D1     		bne	.L10
 647              		.loc 1 158 0
 648 00d6 E71C     		adds	r7, r4, #3
 649 00d8 3846     		mov	r0, r7
 650 00da FFF7FEFF 		bl	chThdSetPriority
 651              	.LVL43:
 652              		.loc 1 159 0
 653 00de 281A     		subs	r0, r5, r0
 654              	.LVL44:
 655 00e0 4142     		rsbs	r1, r0, #0
 656 00e2 4141     		adcs	r1, r1, r0
 657 00e4 0920     		movs	r0, #9
 658 00e6 FFF7FEFF 		bl	_test_assert
 659              	.LVL45:
 660 00ea 0028     		cmp	r0, #0
 661 00ec 99D1     		bne	.L10
 662              		.loc 1 161 0
 663 00ee B369     		ldr	r3, [r6, #24]
 664 00f0 9968     		ldr	r1, [r3, #8]
 665 00f2 CA1B     		subs	r2, r1, r7
 666 00f4 5142     		rsbs	r1, r2, #0
 667 00f6 5141     		adcs	r1, r1, r2
 668 00f8 0A20     		movs	r0, #10
 669 00fa FFF7FEFF 		bl	_test_assert
 670              	.LVL46:
 671 00fe 0028     		cmp	r0, #0
 672 0100 8FD1     		bne	.L10
 673              		.loc 1 163 0
 674 0102 B369     		ldr	r3, [r6, #24]
 675 0104 D96B     		ldr	r1, [r3, #60]
 676 0106 CB1B     		subs	r3, r1, r7
 677 0108 5942     		rsbs	r1, r3, #0
 678 010a 5941     		adcs	r1, r1, r3
 679 010c 0B20     		movs	r0, #11
 680 010e FFF7FEFF 		bl	_test_assert
 681              	.LVL47:
 682 0112 0028     		cmp	r0, #0
 683 0114 85D1     		bne	.L10
 684              	.LVL48:
ARM GAS  /tmp/ccMxQxU9.s 			page 13


 685              	.LBB324:
 686              	.LBB325:
 687              	.LBB326:
 688              	.LBB327:
 689              		.loc 3 546 0
 690 0116 2023     		movs	r3, #32
 691              		.syntax unified
 692              	@ 546 "/home/selim/working/ChibiOS/os/ext/CMSIS/include/core_cmFunc.h" 1
 693 0118 83F31188 		MSR basepri, r3
 694              	@ 0 "" 2
 695              	.LVL49:
 696              		.thumb
 697              		.syntax unified
 698              	.LBE327:
 699              	.LBE326:
 700              	.LBE325:
 701              	.LBE324:
 702              	.LBB328:
 703              	.LBB329:
 704              		.loc 2 176 0
 705 011c B369     		ldr	r3, [r6, #24]
 706              	.LBE329:
 707              	.LBE328:
 708              		.loc 1 167 0
 709 011e 9C60     		str	r4, [r3, #8]
 710              		.loc 1 168 0
 711 0120 DC63     		str	r4, [r3, #60]
 712              	.LVL50:
 713              	.LBB330:
 714              	.LBB331:
 715              	.LBB332:
 716              	.LBB333:
 717              	.LBB334:
 718              		.loc 3 546 0
 719              		.syntax unified
 720              	@ 546 "/home/selim/working/ChibiOS/os/ext/CMSIS/include/core_cmFunc.h" 1
 721 0122 80F31188 		MSR basepri, r0
 722              	@ 0 "" 2
 723              	.LVL51:
 724              		.thumb
 725              		.syntax unified
 726 0126 7CE7     		b	.L10
 727              	.L18:
 728              		.align	2
 729              	.L17:
 730 0128 00000000 		.word	ch
 731              	.LBE334:
 732              	.LBE333:
 733              	.LBE332:
 734              	.LBE331:
 735              	.LBE330:
 736              		.cfi_endproc
 737              	.LFE230:
 738              		.size	thd3_execute, .-thd3_execute
 739              		.section	.text.thd4_execute,"ax",%progbits
 740              		.align	2
 741              		.p2align 4,,15
ARM GAS  /tmp/ccMxQxU9.s 			page 14


 742              		.thumb
 743              		.thumb_func
 744              		.type	thd4_execute, %function
 745              	thd4_execute:
 746              	.LFB231:
 747              		.loc 1 188 0
 748              		.cfi_startproc
 749              		@ args = 0, pretend = 0, frame = 0
 750              		@ frame_needed = 0, uses_anonymous_args = 0
 751 0000 70B5     		push	{r4, r5, r6, lr}
 752              		.cfi_def_cfa_offset 16
 753              		.cfi_offset 4, -16
 754              		.cfi_offset 5, -12
 755              		.cfi_offset 6, -8
 756              		.cfi_offset 14, -4
 757              		.loc 1 191 0
 758 0002 FFF7FEFF 		bl	test_wait_tick
 759              	.LVL52:
 760              	.LBB427:
 761              	.LBB428:
 762              	.LBB429:
 763              	.LBB430:
 764              	.LBB431:
 765              	.LBB432:
 766              		.loc 3 546 0
 767 0006 2026     		movs	r6, #32
 768              		.syntax unified
 769              	@ 546 "/home/selim/working/ChibiOS/os/ext/CMSIS/include/core_cmFunc.h" 1
 770 0008 86F31188 		MSR basepri, r6
 771              	@ 0 "" 2
 772              	.LVL53:
 773              		.thumb
 774              		.syntax unified
 775              	.LBE432:
 776              	.LBE431:
 777              	.LBE430:
 778              	.LBE429:
 779              	.LBB433:
 780              	.LBB434:
 781              	.LBB435:
 782              	.LBB436:
 783              		.file 4 "/home/selim/working/ChibiOS/os/hal/ports/STM32/LLD/TIMv1/st_lld.h"
 784              		.loc 4 129 0
 785 000c 4FF08045 		mov	r5, #1073741824
 786              	.LBE436:
 787              	.LBE435:
 788              	.LBE434:
 789              	.LBE433:
 790              	.LBB440:
 791              	.LBB441:
 792              	.LBB442:
 793              	.LBB443:
 794              	.LBB444:
 795              		.loc 3 546 0
 796 0010 0023     		movs	r3, #0
 797              	.LBE444:
 798              	.LBE443:
ARM GAS  /tmp/ccMxQxU9.s 			page 15


 799              	.LBE442:
 800              	.LBE441:
 801              	.LBE440:
 802              	.LBB449:
 803              	.LBB439:
 804              	.LBB438:
 805              	.LBB437:
 806              		.loc 4 129 0
 807 0012 6C6A     		ldr	r4, [r5, #36]
 808              	.LVL54:
 809              	.LBE437:
 810              	.LBE438:
 811              	.LBE439:
 812              	.LBE449:
 813              	.LBB450:
 814              	.LBB448:
 815              	.LBB447:
 816              	.LBB446:
 817              	.LBB445:
 818              		.loc 3 546 0
 819              		.syntax unified
 820              	@ 546 "/home/selim/working/ChibiOS/os/ext/CMSIS/include/core_cmFunc.h" 1
 821 0014 83F31188 		MSR basepri, r3
 822              	@ 0 "" 2
 823              	.LVL55:
 824              		.thumb
 825              		.syntax unified
 826              	.LBE445:
 827              	.LBE446:
 828              	.LBE447:
 829              	.LBE448:
 830              	.LBE450:
 831              	.LBE428:
 832              	.LBE427:
 833              		.loc 1 195 0
 834 0018 4FF47A70 		mov	r0, #1000
 835 001c FFF7FEFF 		bl	chThdSleep
 836              	.LVL56:
 837              		.loc 1 196 0
 838 0020 04F2EB32 		addw	r2, r4, #1003
 839 0024 04F57A71 		add	r1, r4, #1000
 840 0028 0120     		movs	r0, #1
 841 002a FFF7FEFF 		bl	_test_assert_time_window
 842              	.LVL57:
 843 002e 00B1     		cbz	r0, .L24
 844              	.L19:
 845 0030 70BD     		pop	{r4, r5, r6, pc}
 846              	.L24:
 847              	.LVL58:
 848              	.LBB451:
 849              	.LBB452:
 850              	.LBB453:
 851              	.LBB454:
 852              	.LBB455:
 853              	.LBB456:
 854              		.loc 3 546 0
 855              		.syntax unified
ARM GAS  /tmp/ccMxQxU9.s 			page 16


 856              	@ 546 "/home/selim/working/ChibiOS/os/ext/CMSIS/include/core_cmFunc.h" 1
 857 0032 86F31188 		MSR basepri, r6
 858              	@ 0 "" 2
 859              	.LVL59:
 860              		.thumb
 861              		.syntax unified
 862              	.LBE456:
 863              	.LBE455:
 864              	.LBE454:
 865              	.LBE453:
 866              	.LBB457:
 867              	.LBB458:
 868              	.LBB459:
 869              	.LBB460:
 870              		.loc 4 129 0
 871 0036 6C6A     		ldr	r4, [r5, #36]
 872              	.LVL60:
 873              	.LBE460:
 874              	.LBE459:
 875              	.LBE458:
 876              	.LBE457:
 877              	.LBB461:
 878              	.LBB462:
 879              	.LBB463:
 880              	.LBB464:
 881              	.LBB465:
 882              		.loc 3 546 0
 883              		.syntax unified
 884              	@ 546 "/home/selim/working/ChibiOS/os/ext/CMSIS/include/core_cmFunc.h" 1
 885 0038 80F31188 		MSR basepri, r0
 886              	@ 0 "" 2
 887              	.LVL61:
 888              		.thumb
 889              		.syntax unified
 890              	.LBE465:
 891              	.LBE464:
 892              	.LBE463:
 893              	.LBE462:
 894              	.LBE461:
 895              	.LBE452:
 896              	.LBE451:
 897              		.loc 1 202 0
 898 003c 4FF47A70 		mov	r0, #1000
 899 0040 FFF7FEFF 		bl	chThdSleep
 900              	.LVL62:
 901              		.loc 1 203 0
 902 0044 04F2EB32 		addw	r2, r4, #1003
 903 0048 04F57A71 		add	r1, r4, #1000
 904 004c 0220     		movs	r0, #2
 905 004e FFF7FEFF 		bl	_test_assert_time_window
 906              	.LVL63:
 907 0052 0028     		cmp	r0, #0
 908 0054 ECD1     		bne	.L19
 909              	.LVL64:
 910              	.LBB466:
 911              	.LBB467:
 912              	.LBB468:
ARM GAS  /tmp/ccMxQxU9.s 			page 17


 913              	.LBB469:
 914              	.LBB470:
 915              	.LBB471:
 916              	.LBB472:
 917              	.LBB473:
 918              		.loc 3 546 0
 919              		.syntax unified
 920              	@ 546 "/home/selim/working/ChibiOS/os/ext/CMSIS/include/core_cmFunc.h" 1
 921 0056 86F31188 		MSR basepri, r6
 922              	@ 0 "" 2
 923              	.LVL65:
 924              		.thumb
 925              		.syntax unified
 926              	.LBE473:
 927              	.LBE472:
 928              	.LBE471:
 929              	.LBE470:
 930              	.LBB474:
 931              	.LBB475:
 932              	.LBB476:
 933              	.LBB477:
 934              		.loc 4 129 0
 935 005a 6C6A     		ldr	r4, [r5, #36]
 936              	.LVL66:
 937              	.LBE477:
 938              	.LBE476:
 939              	.LBE475:
 940              	.LBE474:
 941              	.LBB478:
 942              	.LBB479:
 943              	.LBB480:
 944              	.LBB481:
 945              	.LBB482:
 946              		.loc 3 546 0
 947              		.syntax unified
 948              	@ 546 "/home/selim/working/ChibiOS/os/ext/CMSIS/include/core_cmFunc.h" 1
 949 005c 80F31188 		MSR basepri, r0
 950              	@ 0 "" 2
 951              	.LVL67:
 952              		.thumb
 953              		.syntax unified
 954              	.LBE482:
 955              	.LBE481:
 956              	.LBE480:
 957              	.LBE479:
 958              	.LBE478:
 959              	.LBE469:
 960              	.LBE468:
 961              		.loc 1 209 0
 962 0060 42F21070 		movw	r0, #10000
 963 0064 FFF7FEFF 		bl	chThdSleep
 964              	.LVL68:
 965              		.loc 1 210 0
 966 0068 04F51C52 		add	r2, r4, #9984
 967 006c 1146     		mov	r1, r2
 968 006e 1031     		adds	r1, r1, #16
 969 0070 1332     		adds	r2, r2, #19
ARM GAS  /tmp/ccMxQxU9.s 			page 18


 970 0072 0320     		movs	r0, #3
 971 0074 FFF7FEFF 		bl	_test_assert_time_window
 972              	.LVL69:
 973 0078 0028     		cmp	r0, #0
 974 007a D9D1     		bne	.L19
 975              	.LVL70:
 976              	.LBB483:
 977              	.LBB484:
 978              	.LBB485:
 979              	.LBB486:
 980              	.LBB487:
 981              	.LBB488:
 982              		.loc 3 546 0
 983              		.syntax unified
 984              	@ 546 "/home/selim/working/ChibiOS/os/ext/CMSIS/include/core_cmFunc.h" 1
 985 007c 86F31188 		MSR basepri, r6
 986              	@ 0 "" 2
 987              	.LVL71:
 988              		.thumb
 989              		.syntax unified
 990              	.LBE488:
 991              	.LBE487:
 992              	.LBE486:
 993              	.LBE485:
 994              	.LBB489:
 995              	.LBB490:
 996              	.LBB491:
 997              	.LBB492:
 998              		.loc 4 129 0
 999 0080 6C6A     		ldr	r4, [r5, #36]
 1000              	.LVL72:
 1001              	.LBE492:
 1002              	.LBE491:
 1003              	.LBE490:
 1004              	.LBE489:
 1005              	.LBB493:
 1006              	.LBB494:
 1007              	.LBB495:
 1008              	.LBB496:
 1009              	.LBB497:
 1010              		.loc 3 546 0
 1011              		.syntax unified
 1012              	@ 546 "/home/selim/working/ChibiOS/os/ext/CMSIS/include/core_cmFunc.h" 1
 1013 0082 80F31188 		MSR basepri, r0
 1014              	@ 0 "" 2
 1015              	.LVL73:
 1016              		.thumb
 1017              		.syntax unified
 1018              	.LBE497:
 1019              	.LBE496:
 1020              	.LBE495:
 1021              	.LBE494:
 1022              	.LBE493:
 1023              	.LBE484:
 1024              	.LBE483:
 1025              		.loc 1 215 0
 1026 0086 04F57A75 		add	r5, r4, #1000
ARM GAS  /tmp/ccMxQxU9.s 			page 19


 1027              	.LVL74:
 1028              		.loc 1 216 0
 1029 008a 2846     		mov	r0, r5
 1030 008c FFF7FEFF 		bl	chThdSleepUntil
 1031              	.LVL75:
 1032              		.loc 1 217 0
 1033 0090 2946     		mov	r1, r5
 1034 0092 04F2EB32 		addw	r2, r4, #1003
 1035 0096 0420     		movs	r0, #4
 1036              	.LBE467:
 1037              	.LBE466:
 1038              		.loc 1 220 0
 1039 0098 BDE87040 		pop	{r4, r5, r6, lr}
 1040              		.cfi_restore 14
 1041              		.cfi_restore 6
 1042              		.cfi_restore 5
 1043              		.cfi_restore 4
 1044              		.cfi_def_cfa_offset 0
 1045              	.LVL76:
 1046              	.LBB499:
 1047              	.LBB498:
 1048              		.loc 1 217 0
 1049 009c FFF7FEBF 		b	_test_assert_time_window
 1050              	.LVL77:
 1051              	.LBE498:
 1052              	.LBE499:
 1053              		.cfi_endproc
 1054              	.LFE231:
 1055              		.size	thd4_execute, .-thd4_execute
 1056              		.global	patternthd
 1057              		.global	testthd4
 1058              		.global	testthd3
 1059              		.global	testthd2
 1060              		.global	testthd1
 1061              		.section	.rodata.testthd1,"a",%progbits
 1062              		.align	2
 1063              		.type	testthd1, %object
 1064              		.size	testthd1, 16
 1065              	testthd1:
 1066 0000 64000000 		.word	.LC9
 1067 0004 00000000 		.word	0
 1068 0008 00000000 		.word	0
 1069 000c 00000000 		.word	thd1_execute
 1070              		.section	.rodata.testthd2,"a",%progbits
 1071              		.align	2
 1072              		.type	testthd2, %object
 1073              		.size	testthd2, 16
 1074              	testthd2:
 1075 0000 48000000 		.word	.LC8
 1076 0004 00000000 		.word	0
 1077 0008 00000000 		.word	0
 1078 000c 00000000 		.word	thd2_execute
 1079              		.section	.rodata.testthd3,"a",%progbits
 1080              		.align	2
 1081              		.type	testthd3, %object
 1082              		.size	testthd3, 16
 1083              	testthd3:
ARM GAS  /tmp/ccMxQxU9.s 			page 20


 1084 0000 2C000000 		.word	.LC7
 1085 0004 00000000 		.word	0
 1086 0008 00000000 		.word	0
 1087 000c 00000000 		.word	thd3_execute
 1088              		.section	.rodata.testthd4,"a",%progbits
 1089              		.align	2
 1090              		.type	testthd4, %object
 1091              		.size	testthd4, 16
 1092              	testthd4:
 1093 0000 1C000000 		.word	.LC6
 1094 0004 00000000 		.word	0
 1095 0008 00000000 		.word	0
 1096 000c 00000000 		.word	thd4_execute
 1097              		.section	.rodata.patternthd,"a",%progbits
 1098              		.align	2
 1099              		.type	patternthd, %object
 1100              		.size	patternthd, 20
 1101              	patternthd:
 1102 0000 00000000 		.word	testthd1
 1103 0004 00000000 		.word	testthd2
 1104 0008 00000000 		.word	testthd3
 1105 000c 00000000 		.word	testthd4
 1106 0010 00000000 		.word	0
 1107              		.section	.rodata.str1.4,"aMS",%progbits,1
 1108              		.align	2
 1109              	.LC0:
 1110 0000 4500     		.ascii	"E\000"
 1111 0002 0000     		.space	2
 1112              	.LC1:
 1113 0004 4400     		.ascii	"D\000"
 1114 0006 0000     		.space	2
 1115              	.LC2:
 1116 0008 4300     		.ascii	"C\000"
 1117 000a 0000     		.space	2
 1118              	.LC3:
 1119 000c 4200     		.ascii	"B\000"
 1120 000e 0000     		.space	2
 1121              	.LC4:
 1122 0010 4100     		.ascii	"A\000"
 1123 0012 0000     		.space	2
 1124              	.LC5:
 1125 0014 41424344 		.ascii	"ABCDE\000"
 1125      4500
 1126 001a 0000     		.space	2
 1127              	.LC6:
 1128 001c 54687265 		.ascii	"Threads, delays\000"
 1128      6164732C 
 1128      2064656C 
 1128      61797300 
 1129              	.LC7:
 1130 002c 54687265 		.ascii	"Threads, priority change\000"
 1130      6164732C 
 1130      20707269 
 1130      6F726974 
 1130      79206368 
 1131 0045 000000   		.space	3
 1132              	.LC8:
ARM GAS  /tmp/ccMxQxU9.s 			page 21


 1133 0048 54687265 		.ascii	"Threads, enqueuing test #2\000"
 1133      6164732C 
 1133      20656E71 
 1133      75657569 
 1133      6E672074 
 1134 0063 00       		.space	1
 1135              	.LC9:
 1136 0064 54687265 		.ascii	"Threads, enqueuing test #1\000"
 1136      6164732C 
 1136      20656E71 
 1136      75657569 
 1136      6E672074 
 1137              		.text
 1138              	.Letext0:
 1139              		.file 5 "/usr/lib/gcc/arm-none-eabi/5.4.1/include/stddef.h"
 1140              		.file 6 "/usr/arm-none-eabi/include/machine/_default_types.h"
 1141              		.file 7 "/usr/arm-none-eabi/include/sys/_stdint.h"
 1142              		.file 8 "/home/selim/working/ChibiOS/os/rt/ports/ARMCMx/compilers/GCC/chtypes.h"
 1143              		.file 9 "/home/selim/working/ChibiOS/os/rt/include/chsystypes.h"
 1144              		.file 10 "/home/selim/working/ChibiOS/os/rt/include/chschd.h"
 1145              		.file 11 "/home/selim/working/ChibiOS/os/rt/ports/ARMCMx/chcore.h"
 1146              		.file 12 "/home/selim/working/ChibiOS/os/rt/ports/ARMCMx/chcore_v7m.h"
 1147              		.file 13 "/home/selim/working/ChibiOS/os/hal/ports/STM32/LLD/TIMv1/stm32_tim.h"
 1148              		.file 14 "/home/selim/working/ChibiOS/os/rt/include/chtm.h"
 1149              		.file 15 "/home/selim/working/ChibiOS/os/rt/include/chsem.h"
 1150              		.file 16 "/home/selim/working/ChibiOS/os/rt/include/chmtx.h"
 1151              		.file 17 "/home/selim/working/ChibiOS/test/rt/test.h"
 1152              		.file 18 "/home/selim/working/ChibiOS/os/rt/ports/ARMCMx/chcore_timer.h"
 1153              		.file 19 "/home/selim/working/ChibiOS/os/rt/include/chsys.h"
 1154              		.file 20 "/home/selim/working/ChibiOS/os/rt/include/chvt.h"
 1155              		.file 21 "/home/selim/working/ChibiOS/os/ext/CMSIS/include/core_cm4.h"
 1156              		.section	.debug_info,"",%progbits
 1157              	.Ldebug_info0:
 1158 0000 C6140000 		.4byte	0x14c6
 1159 0004 0400     		.2byte	0x4
 1160 0006 00000000 		.4byte	.Ldebug_abbrev0
 1161 000a 04       		.byte	0x4
 1162 000b 01       		.uleb128 0x1
 1163 000c 67000000 		.4byte	.LASF156
 1164 0010 0C       		.byte	0xc
 1165 0011 8F010000 		.4byte	.LASF157
 1166 0015 A8000000 		.4byte	.Ldebug_ranges0+0xa8
 1167 0019 00000000 		.4byte	0
 1168 001d 00000000 		.4byte	.Ldebug_line0
 1169 0021 02       		.uleb128 0x2
 1170 0022 04       		.byte	0x4
 1171 0023 05       		.byte	0x5
 1172 0024 696E7400 		.ascii	"int\000"
 1173 0028 03       		.uleb128 0x3
 1174 0029 12000000 		.4byte	.LASF4
 1175 002d 05       		.byte	0x5
 1176 002e D8       		.byte	0xd8
 1177 002f 33000000 		.4byte	0x33
 1178 0033 04       		.uleb128 0x4
 1179 0034 04       		.byte	0x4
 1180 0035 07       		.byte	0x7
 1181 0036 26030000 		.4byte	.LASF0
ARM GAS  /tmp/ccMxQxU9.s 			page 22


 1182 003a 04       		.uleb128 0x4
 1183 003b 08       		.byte	0x8
 1184 003c 05       		.byte	0x5
 1185 003d 70020000 		.4byte	.LASF1
 1186 0041 04       		.uleb128 0x4
 1187 0042 08       		.byte	0x8
 1188 0043 04       		.byte	0x4
 1189 0044 29040000 		.4byte	.LASF2
 1190 0048 04       		.uleb128 0x4
 1191 0049 01       		.byte	0x1
 1192 004a 06       		.byte	0x6
 1193 004b EC010000 		.4byte	.LASF3
 1194 004f 03       		.uleb128 0x3
 1195 0050 29000000 		.4byte	.LASF5
 1196 0054 06       		.byte	0x6
 1197 0055 1D       		.byte	0x1d
 1198 0056 5A000000 		.4byte	0x5a
 1199 005a 04       		.uleb128 0x4
 1200 005b 01       		.byte	0x1
 1201 005c 08       		.byte	0x8
 1202 005d 27050000 		.4byte	.LASF6
 1203 0061 04       		.uleb128 0x4
 1204 0062 02       		.byte	0x2
 1205 0063 05       		.byte	0x5
 1206 0064 56050000 		.4byte	.LASF7
 1207 0068 04       		.uleb128 0x4
 1208 0069 02       		.byte	0x2
 1209 006a 07       		.byte	0x7
 1210 006b 97020000 		.4byte	.LASF8
 1211 006f 03       		.uleb128 0x3
 1212 0070 BD030000 		.4byte	.LASF9
 1213 0074 06       		.byte	0x6
 1214 0075 3F       		.byte	0x3f
 1215 0076 7A000000 		.4byte	0x7a
 1216 007a 04       		.uleb128 0x4
 1217 007b 04       		.byte	0x4
 1218 007c 05       		.byte	0x5
 1219 007d 40020000 		.4byte	.LASF10
 1220 0081 03       		.uleb128 0x3
 1221 0082 92060000 		.4byte	.LASF11
 1222 0086 06       		.byte	0x6
 1223 0087 41       		.byte	0x41
 1224 0088 8C000000 		.4byte	0x8c
 1225 008c 04       		.uleb128 0x4
 1226 008d 04       		.byte	0x4
 1227 008e 07       		.byte	0x7
 1228 008f 26060000 		.4byte	.LASF12
 1229 0093 03       		.uleb128 0x3
 1230 0094 C9040000 		.4byte	.LASF13
 1231 0098 06       		.byte	0x6
 1232 0099 5B       		.byte	0x5b
 1233 009a 9E000000 		.4byte	0x9e
 1234 009e 04       		.uleb128 0x4
 1235 009f 08       		.byte	0x8
 1236 00a0 07       		.byte	0x7
 1237 00a1 41010000 		.4byte	.LASF14
 1238 00a5 03       		.uleb128 0x3
ARM GAS  /tmp/ccMxQxU9.s 			page 23


 1239 00a6 1B070000 		.4byte	.LASF15
 1240 00aa 07       		.byte	0x7
 1241 00ab 18       		.byte	0x18
 1242 00ac 4F000000 		.4byte	0x4f
 1243 00b0 03       		.uleb128 0x3
 1244 00b1 1F050000 		.4byte	.LASF16
 1245 00b5 07       		.byte	0x7
 1246 00b6 2C       		.byte	0x2c
 1247 00b7 6F000000 		.4byte	0x6f
 1248 00bb 03       		.uleb128 0x3
 1249 00bc F5050000 		.4byte	.LASF17
 1250 00c0 07       		.byte	0x7
 1251 00c1 30       		.byte	0x30
 1252 00c2 81000000 		.4byte	0x81
 1253 00c6 03       		.uleb128 0x3
 1254 00c7 20000000 		.4byte	.LASF18
 1255 00cb 07       		.byte	0x7
 1256 00cc 3C       		.byte	0x3c
 1257 00cd 93000000 		.4byte	0x93
 1258 00d1 05       		.uleb128 0x5
 1259 00d2 B0000000 		.4byte	0xb0
 1260 00d6 05       		.uleb128 0x5
 1261 00d7 BB000000 		.4byte	0xbb
 1262 00db 03       		.uleb128 0x3
 1263 00dc D8060000 		.4byte	.LASF19
 1264 00e0 08       		.byte	0x8
 1265 00e1 46       		.byte	0x46
 1266 00e2 BB000000 		.4byte	0xbb
 1267 00e6 03       		.uleb128 0x3
 1268 00e7 60070000 		.4byte	.LASF20
 1269 00eb 08       		.byte	0x8
 1270 00ec 49       		.byte	0x49
 1271 00ed A5000000 		.4byte	0xa5
 1272 00f1 03       		.uleb128 0x3
 1273 00f2 49020000 		.4byte	.LASF21
 1274 00f6 08       		.byte	0x8
 1275 00f7 4A       		.byte	0x4a
 1276 00f8 A5000000 		.4byte	0xa5
 1277 00fc 03       		.uleb128 0x3
 1278 00fd D4040000 		.4byte	.LASF22
 1279 0101 08       		.byte	0x8
 1280 0102 4B       		.byte	0x4b
 1281 0103 A5000000 		.4byte	0xa5
 1282 0107 03       		.uleb128 0x3
 1283 0108 00050000 		.4byte	.LASF23
 1284 010c 08       		.byte	0x8
 1285 010d 4D       		.byte	0x4d
 1286 010e BB000000 		.4byte	0xbb
 1287 0112 03       		.uleb128 0x3
 1288 0113 7D030000 		.4byte	.LASF24
 1289 0117 08       		.byte	0x8
 1290 0118 4E       		.byte	0x4e
 1291 0119 B0000000 		.4byte	0xb0
 1292 011d 03       		.uleb128 0x3
 1293 011e B1030000 		.4byte	.LASF25
 1294 0122 08       		.byte	0x8
 1295 0123 50       		.byte	0x50
ARM GAS  /tmp/ccMxQxU9.s 			page 24


 1296 0124 BB000000 		.4byte	0xbb
 1297 0128 03       		.uleb128 0x3
 1298 0129 0D030000 		.4byte	.LASF26
 1299 012d 08       		.byte	0x8
 1300 012e 52       		.byte	0x52
 1301 012f B0000000 		.4byte	0xb0
 1302 0133 03       		.uleb128 0x3
 1303 0134 74060000 		.4byte	.LASF27
 1304 0138 09       		.byte	0x9
 1305 0139 33       		.byte	0x33
 1306 013a BB000000 		.4byte	0xbb
 1307 013e 03       		.uleb128 0x3
 1308 013f 64060000 		.4byte	.LASF28
 1309 0143 09       		.byte	0x9
 1310 0144 3F       		.byte	0x3f
 1311 0145 49010000 		.4byte	0x149
 1312 0149 06       		.uleb128 0x6
 1313 014a 73030000 		.4byte	.LASF48
 1314 014e 44       		.byte	0x44
 1315 014f 0A       		.byte	0xa
 1316 0150 C2       		.byte	0xc2
 1317 0151 36020000 		.4byte	0x236
 1318 0155 07       		.uleb128 0x7
 1319 0156 7E050000 		.4byte	.LASF29
 1320 015a 0A       		.byte	0xa
 1321 015b C3       		.byte	0xc3
 1322 015c 41020000 		.4byte	0x241
 1323 0160 00       		.byte	0
 1324 0161 07       		.uleb128 0x7
 1325 0162 F9040000 		.4byte	.LASF30
 1326 0166 0A       		.byte	0xa
 1327 0167 C5       		.byte	0xc5
 1328 0168 41020000 		.4byte	0x241
 1329 016c 04       		.byte	0x4
 1330 016d 07       		.uleb128 0x7
 1331 016e D3010000 		.4byte	.LASF31
 1332 0172 0A       		.byte	0xa
 1333 0173 C7       		.byte	0xc7
 1334 0174 07010000 		.4byte	0x107
 1335 0178 08       		.byte	0x8
 1336 0179 07       		.uleb128 0x7
 1337 017a 82070000 		.4byte	.LASF32
 1338 017e 0A       		.byte	0xa
 1339 017f C8       		.byte	0xc8
 1340 0180 91040000 		.4byte	0x491
 1341 0184 0C       		.byte	0xc
 1342 0185 07       		.uleb128 0x7
 1343 0186 87020000 		.4byte	.LASF33
 1344 018a 0A       		.byte	0xa
 1345 018b CA       		.byte	0xca
 1346 018c 41020000 		.4byte	0x241
 1347 0190 10       		.byte	0x10
 1348 0191 07       		.uleb128 0x7
 1349 0192 64040000 		.4byte	.LASF34
 1350 0196 0A       		.byte	0xa
 1351 0197 CB       		.byte	0xcb
 1352 0198 41020000 		.4byte	0x241
ARM GAS  /tmp/ccMxQxU9.s 			page 25


 1353 019c 14       		.byte	0x14
 1354 019d 07       		.uleb128 0x7
 1355 019e 3D070000 		.4byte	.LASF35
 1356 01a2 0A       		.byte	0xa
 1357 01a3 D2       		.byte	0xd2
 1358 01a4 32070000 		.4byte	0x732
 1359 01a8 18       		.byte	0x18
 1360 01a9 07       		.uleb128 0x7
 1361 01aa 60050000 		.4byte	.LASF36
 1362 01ae 0A       		.byte	0xa
 1363 01af DD       		.byte	0xdd
 1364 01b0 F1000000 		.4byte	0xf1
 1365 01b4 1C       		.byte	0x1c
 1366 01b5 07       		.uleb128 0x7
 1367 01b6 85050000 		.4byte	.LASF37
 1368 01ba 0A       		.byte	0xa
 1369 01bb E1       		.byte	0xe1
 1370 01bc E6000000 		.4byte	0xe6
 1371 01c0 1D       		.byte	0x1d
 1372 01c1 07       		.uleb128 0x7
 1373 01c2 00070000 		.4byte	.LASF38
 1374 01c6 0A       		.byte	0xa
 1375 01c7 E6       		.byte	0xe6
 1376 01c8 FC000000 		.4byte	0xfc
 1377 01cc 1E       		.byte	0x1e
 1378 01cd 08       		.uleb128 0x8
 1379 01ce 705F7500 		.ascii	"p_u\000"
 1380 01d2 0A       		.byte	0xa
 1381 01d3 3101     		.2byte	0x131
 1382 01d5 6D060000 		.4byte	0x66d
 1383 01d9 20       		.byte	0x20
 1384 01da 09       		.uleb128 0x9
 1385 01db E4030000 		.4byte	.LASF39
 1386 01df 0A       		.byte	0xa
 1387 01e0 3601     		.2byte	0x136
 1388 01e2 47020000 		.4byte	0x247
 1389 01e6 24       		.byte	0x24
 1390 01e7 09       		.uleb128 0x9
 1391 01e8 4F030000 		.4byte	.LASF40
 1392 01ec 0A       		.byte	0xa
 1393 01ed 3C01     		.2byte	0x13c
 1394 01ef 6B020000 		.4byte	0x26b
 1395 01f3 28       		.byte	0x28
 1396 01f4 09       		.uleb128 0x9
 1397 01f5 74070000 		.4byte	.LASF41
 1398 01f9 0A       		.byte	0xa
 1399 01fa 4001     		.2byte	0x140
 1400 01fc 12010000 		.4byte	0x112
 1401 0200 30       		.byte	0x30
 1402 0201 09       		.uleb128 0x9
 1403 0202 CC050000 		.4byte	.LASF42
 1404 0206 0A       		.byte	0xa
 1405 0207 4601     		.2byte	0x146
 1406 0209 1D010000 		.4byte	0x11d
 1407 020d 34       		.byte	0x34
 1408 020e 09       		.uleb128 0x9
 1409 020f 4C050000 		.4byte	.LASF43
ARM GAS  /tmp/ccMxQxU9.s 			page 26


 1410 0213 0A       		.byte	0xa
 1411 0214 4D01     		.2byte	0x14d
 1412 0216 2C070000 		.4byte	0x72c
 1413 021a 38       		.byte	0x38
 1414 021b 09       		.uleb128 0x9
 1415 021c 7E060000 		.4byte	.LASF44
 1416 0220 0A       		.byte	0xa
 1417 0221 5101     		.2byte	0x151
 1418 0223 07010000 		.4byte	0x107
 1419 0227 3C       		.byte	0x3c
 1420 0228 09       		.uleb128 0x9
 1421 0229 B2020000 		.4byte	.LASF45
 1422 022d 0A       		.byte	0xa
 1423 022e 5801     		.2byte	0x158
 1424 0230 1E030000 		.4byte	0x31e
 1425 0234 40       		.byte	0x40
 1426 0235 00       		.byte	0
 1427 0236 03       		.uleb128 0x3
 1428 0237 23070000 		.4byte	.LASF46
 1429 023b 09       		.byte	0x9
 1430 023c 44       		.byte	0x44
 1431 023d 41020000 		.4byte	0x241
 1432 0241 0A       		.uleb128 0xa
 1433 0242 04       		.byte	0x4
 1434 0243 3E010000 		.4byte	0x13e
 1435 0247 03       		.uleb128 0x3
 1436 0248 51070000 		.4byte	.LASF47
 1437 024c 09       		.byte	0x9
 1438 024d 49       		.byte	0x49
 1439 024e 52020000 		.4byte	0x252
 1440 0252 06       		.uleb128 0x6
 1441 0253 16060000 		.4byte	.LASF49
 1442 0257 04       		.byte	0x4
 1443 0258 0A       		.byte	0xa
 1444 0259 B0       		.byte	0xb0
 1445 025a 6B020000 		.4byte	0x26b
 1446 025e 07       		.uleb128 0x7
 1447 025f 7E050000 		.4byte	.LASF29
 1448 0263 0A       		.byte	0xa
 1449 0264 B1       		.byte	0xb1
 1450 0265 41020000 		.4byte	0x241
 1451 0269 00       		.byte	0
 1452 026a 00       		.byte	0
 1453 026b 03       		.uleb128 0x3
 1454 026c E7060000 		.4byte	.LASF50
 1455 0270 09       		.byte	0x9
 1456 0271 50       		.byte	0x50
 1457 0272 76020000 		.4byte	0x276
 1458 0276 06       		.uleb128 0x6
 1459 0277 C2010000 		.4byte	.LASF51
 1460 027b 08       		.byte	0x8
 1461 027c 0A       		.byte	0xa
 1462 027d B7       		.byte	0xb7
 1463 027e 9B020000 		.4byte	0x29b
 1464 0282 07       		.uleb128 0x7
 1465 0283 7E050000 		.4byte	.LASF29
 1466 0287 0A       		.byte	0xa
ARM GAS  /tmp/ccMxQxU9.s 			page 27


 1467 0288 B8       		.byte	0xb8
 1468 0289 41020000 		.4byte	0x241
 1469 028d 00       		.byte	0
 1470 028e 07       		.uleb128 0x7
 1471 028f F9040000 		.4byte	.LASF30
 1472 0293 0A       		.byte	0xa
 1473 0294 B9       		.byte	0xb9
 1474 0295 41020000 		.4byte	0x241
 1475 0299 04       		.byte	0x4
 1476 029a 00       		.byte	0
 1477 029b 03       		.uleb128 0x3
 1478 029c 00000000 		.4byte	.LASF52
 1479 02a0 09       		.byte	0x9
 1480 02a1 57       		.byte	0x57
 1481 02a2 A6020000 		.4byte	0x2a6
 1482 02a6 0B       		.uleb128 0xb
 1483 02a7 A3030000 		.4byte	.LASF53
 1484 02ab 1C       		.byte	0x1c
 1485 02ac 0A       		.byte	0xa
 1486 02ad 9001     		.2byte	0x190
 1487 02af 02030000 		.4byte	0x302
 1488 02b3 09       		.uleb128 0x9
 1489 02b4 05060000 		.4byte	.LASF54
 1490 02b8 0A       		.byte	0xa
 1491 02b9 9101     		.2byte	0x191
 1492 02bb 6B020000 		.4byte	0x26b
 1493 02bf 00       		.byte	0
 1494 02c0 09       		.uleb128 0x9
 1495 02c1 70050000 		.4byte	.LASF55
 1496 02c5 0A       		.byte	0xa
 1497 02c6 9201     		.2byte	0x192
 1498 02c8 07010000 		.4byte	0x107
 1499 02cc 08       		.byte	0x8
 1500 02cd 09       		.uleb128 0x9
 1501 02ce 6C040000 		.4byte	.LASF56
 1502 02d2 0A       		.byte	0xa
 1503 02d3 9401     		.2byte	0x194
 1504 02d5 91040000 		.4byte	0x491
 1505 02d9 0C       		.byte	0xc
 1506 02da 09       		.uleb128 0x9
 1507 02db AA020000 		.4byte	.LASF57
 1508 02df 0A       		.byte	0xa
 1509 02e0 9701     		.2byte	0x197
 1510 02e2 41020000 		.4byte	0x241
 1511 02e6 10       		.byte	0x10
 1512 02e7 09       		.uleb128 0x9
 1513 02e8 A6040000 		.4byte	.LASF58
 1514 02ec 0A       		.byte	0xa
 1515 02ed 9801     		.2byte	0x198
 1516 02ef 41020000 		.4byte	0x241
 1517 02f3 14       		.byte	0x14
 1518 02f4 09       		.uleb128 0x9
 1519 02f5 38060000 		.4byte	.LASF59
 1520 02f9 0A       		.byte	0xa
 1521 02fa 9B01     		.2byte	0x19b
 1522 02fc 41020000 		.4byte	0x241
 1523 0300 18       		.byte	0x18
ARM GAS  /tmp/ccMxQxU9.s 			page 28


 1524 0301 00       		.byte	0
 1525 0302 03       		.uleb128 0x3
 1526 0303 89060000 		.4byte	.LASF60
 1527 0307 09       		.byte	0x9
 1528 0308 5C       		.byte	0x5c
 1529 0309 0D030000 		.4byte	0x30d
 1530 030d 0A       		.uleb128 0xa
 1531 030e 04       		.byte	0x4
 1532 030f 13030000 		.4byte	0x313
 1533 0313 0C       		.uleb128 0xc
 1534 0314 1E030000 		.4byte	0x31e
 1535 0318 0D       		.uleb128 0xd
 1536 0319 1E030000 		.4byte	0x31e
 1537 031d 00       		.byte	0
 1538 031e 0E       		.uleb128 0xe
 1539 031f 04       		.byte	0x4
 1540 0320 03       		.uleb128 0x3
 1541 0321 E9040000 		.4byte	.LASF61
 1542 0325 09       		.byte	0x9
 1543 0326 61       		.byte	0x61
 1544 0327 2B030000 		.4byte	0x32b
 1545 032b 0B       		.uleb128 0xb
 1546 032c A0050000 		.4byte	.LASF62
 1547 0330 14       		.byte	0x14
 1548 0331 0A       		.byte	0xa
 1549 0332 6B01     		.2byte	0x16b
 1550 0334 7A030000 		.4byte	0x37a
 1551 0338 09       		.uleb128 0x9
 1552 0339 40030000 		.4byte	.LASF63
 1553 033d 0A       		.byte	0xa
 1554 033e 6C01     		.2byte	0x16c
 1555 0340 44070000 		.4byte	0x744
 1556 0344 00       		.byte	0
 1557 0345 09       		.uleb128 0x9
 1558 0346 C3020000 		.4byte	.LASF64
 1559 034a 0A       		.byte	0xa
 1560 034b 6D01     		.2byte	0x16d
 1561 034d 44070000 		.4byte	0x744
 1562 0351 04       		.byte	0x4
 1563 0352 09       		.uleb128 0x9
 1564 0353 0D060000 		.4byte	.LASF65
 1565 0357 0A       		.byte	0xa
 1566 0358 6E01     		.2byte	0x16e
 1567 035a 33010000 		.4byte	0x133
 1568 035e 08       		.byte	0x8
 1569 035f 09       		.uleb128 0x9
 1570 0360 88070000 		.4byte	.LASF66
 1571 0364 0A       		.byte	0xa
 1572 0365 6F01     		.2byte	0x16f
 1573 0367 02030000 		.4byte	0x302
 1574 036b 0C       		.byte	0xc
 1575 036c 09       		.uleb128 0x9
 1576 036d E0060000 		.4byte	.LASF67
 1577 0371 0A       		.byte	0xa
 1578 0372 7101     		.2byte	0x171
 1579 0374 1E030000 		.4byte	0x31e
 1580 0378 10       		.byte	0x10
ARM GAS  /tmp/ccMxQxU9.s 			page 29


 1581 0379 00       		.byte	0
 1582 037a 03       		.uleb128 0x3
 1583 037b 6C010000 		.4byte	.LASF68
 1584 037f 09       		.byte	0x9
 1585 0380 66       		.byte	0x66
 1586 0381 85030000 		.4byte	0x385
 1587 0385 0B       		.uleb128 0xb
 1588 0386 09040000 		.4byte	.LASF69
 1589 038a 10       		.byte	0x10
 1590 038b 0A       		.byte	0xa
 1591 038c 7B01     		.2byte	0x17b
 1592 038e C7030000 		.4byte	0x3c7
 1593 0392 09       		.uleb128 0x9
 1594 0393 40030000 		.4byte	.LASF63
 1595 0397 0A       		.byte	0xa
 1596 0398 7C01     		.2byte	0x17c
 1597 039a 44070000 		.4byte	0x744
 1598 039e 00       		.byte	0
 1599 039f 09       		.uleb128 0x9
 1600 03a0 C3020000 		.4byte	.LASF64
 1601 03a4 0A       		.byte	0xa
 1602 03a5 7E01     		.2byte	0x17e
 1603 03a7 44070000 		.4byte	0x744
 1604 03ab 04       		.byte	0x4
 1605 03ac 09       		.uleb128 0x9
 1606 03ad 0D060000 		.4byte	.LASF65
 1607 03b1 0A       		.byte	0xa
 1608 03b2 8001     		.2byte	0x180
 1609 03b4 33010000 		.4byte	0x133
 1610 03b8 08       		.byte	0x8
 1611 03b9 09       		.uleb128 0x9
 1612 03ba 46040000 		.4byte	.LASF70
 1613 03be 0A       		.byte	0xa
 1614 03bf 8801     		.2byte	0x188
 1615 03c1 33010000 		.4byte	0x133
 1616 03c5 0C       		.byte	0xc
 1617 03c6 00       		.byte	0
 1618 03c7 03       		.uleb128 0x3
 1619 03c8 3F000000 		.4byte	.LASF71
 1620 03cc 09       		.byte	0x9
 1621 03cd 6B       		.byte	0x6b
 1622 03ce D2030000 		.4byte	0x3d2
 1623 03d2 0B       		.uleb128 0xb
 1624 03d3 0F050000 		.4byte	.LASF72
 1625 03d7 04       		.byte	0x4
 1626 03d8 0A       		.byte	0xa
 1627 03d9 A201     		.2byte	0x1a2
 1628 03db ED030000 		.4byte	0x3ed
 1629 03df 09       		.uleb128 0x9
 1630 03e0 AB060000 		.4byte	.LASF73
 1631 03e4 0A       		.byte	0xa
 1632 03e5 AA01     		.2byte	0x1aa
 1633 03e7 4A070000 		.4byte	0x74a
 1634 03eb 00       		.byte	0
 1635 03ec 00       		.byte	0
 1636 03ed 03       		.uleb128 0x3
 1637 03ee 83030000 		.4byte	.LASF74
ARM GAS  /tmp/ccMxQxU9.s 			page 30


 1638 03f2 09       		.byte	0x9
 1639 03f3 70       		.byte	0x70
 1640 03f4 F8030000 		.4byte	0x3f8
 1641 03f8 0F       		.uleb128 0xf
 1642 03f9 36020000 		.4byte	.LASF75
 1643 03fd 5001     		.2byte	0x150
 1644 03ff 0A       		.byte	0xa
 1645 0400 C201     		.2byte	0x1c2
 1646 0402 54040000 		.4byte	0x454
 1647 0406 09       		.uleb128 0x9
 1648 0407 07070000 		.4byte	.LASF76
 1649 040b 0A       		.byte	0xa
 1650 040c C601     		.2byte	0x1c6
 1651 040e 9B020000 		.4byte	0x29b
 1652 0412 00       		.byte	0
 1653 0413 09       		.uleb128 0x9
 1654 0414 10020000 		.4byte	.LASF77
 1655 0418 0A       		.byte	0xa
 1656 0419 CA01     		.2byte	0x1ca
 1657 041b 7A030000 		.4byte	0x37a
 1658 041f 1C       		.byte	0x1c
 1659 0420 08       		.uleb128 0x8
 1660 0421 64626700 		.ascii	"dbg\000"
 1661 0425 0A       		.byte	0xa
 1662 0426 CE01     		.2byte	0x1ce
 1663 0428 C7030000 		.4byte	0x3c7
 1664 042c 2C       		.byte	0x2c
 1665 042d 09       		.uleb128 0x9
 1666 042e 61010000 		.4byte	.LASF78
 1667 0432 0A       		.byte	0xa
 1668 0433 D201     		.2byte	0x1d2
 1669 0435 3E010000 		.4byte	0x13e
 1670 0439 30       		.byte	0x30
 1671 043a 08       		.uleb128 0x8
 1672 043b 746D00   		.ascii	"tm\000"
 1673 043e 0A       		.byte	0xa
 1674 043f D701     		.2byte	0x1d7
 1675 0441 62060000 		.4byte	0x662
 1676 0445 74       		.byte	0x74
 1677 0446 09       		.uleb128 0x9
 1678 0447 4E000000 		.4byte	.LASF79
 1679 044b 0A       		.byte	0xa
 1680 044c E301     		.2byte	0x1e3
 1681 044e 4F070000 		.4byte	0x74f
 1682 0452 78       		.byte	0x78
 1683 0453 00       		.byte	0
 1684 0454 04       		.uleb128 0x4
 1685 0455 04       		.byte	0x4
 1686 0456 07       		.byte	0x7
 1687 0457 EE030000 		.4byte	.LASF80
 1688 045b 10       		.uleb128 0x10
 1689 045c D6000000 		.4byte	0xd6
 1690 0460 6B040000 		.4byte	0x46b
 1691 0464 11       		.uleb128 0x11
 1692 0465 54040000 		.4byte	0x454
 1693 0469 01       		.byte	0x1
 1694 046a 00       		.byte	0
ARM GAS  /tmp/ccMxQxU9.s 			page 31


 1695 046b 10       		.uleb128 0x10
 1696 046c D6000000 		.4byte	0xd6
 1697 0470 7B040000 		.4byte	0x47b
 1698 0474 11       		.uleb128 0x11
 1699 0475 54040000 		.4byte	0x454
 1700 0479 03       		.byte	0x3
 1701 047a 00       		.byte	0
 1702 047b 03       		.uleb128 0x3
 1703 047c BA020000 		.4byte	.LASF81
 1704 0480 0B       		.byte	0xb
 1705 0481 65       		.byte	0x65
 1706 0482 1E030000 		.4byte	0x31e
 1707 0486 03       		.uleb128 0x3
 1708 0487 C7030000 		.4byte	.LASF82
 1709 048b 0B       		.byte	0xb
 1710 048c 6D       		.byte	0x6d
 1711 048d C6000000 		.4byte	0xc6
 1712 0491 06       		.uleb128 0x6
 1713 0492 BC060000 		.4byte	.LASF83
 1714 0496 04       		.byte	0x4
 1715 0497 0B       		.byte	0xb
 1716 0498 89       		.byte	0x89
 1717 0499 AA040000 		.4byte	0x4aa
 1718 049d 12       		.uleb128 0x12
 1719 049e 72313300 		.ascii	"r13\000"
 1720 04a2 0B       		.byte	0xb
 1721 04a3 8A       		.byte	0x8a
 1722 04a4 25050000 		.4byte	0x525
 1723 04a8 00       		.byte	0
 1724 04a9 00       		.byte	0
 1725 04aa 06       		.uleb128 0x6
 1726 04ab 33000000 		.4byte	.LASF84
 1727 04af 24       		.byte	0x24
 1728 04b0 0C       		.byte	0xc
 1729 04b1 F4       		.byte	0xf4
 1730 04b2 25050000 		.4byte	0x525
 1731 04b6 08       		.uleb128 0x8
 1732 04b7 723400   		.ascii	"r4\000"
 1733 04ba 0C       		.byte	0xc
 1734 04bb 0701     		.2byte	0x107
 1735 04bd 7B040000 		.4byte	0x47b
 1736 04c1 00       		.byte	0
 1737 04c2 08       		.uleb128 0x8
 1738 04c3 723500   		.ascii	"r5\000"
 1739 04c6 0C       		.byte	0xc
 1740 04c7 0801     		.2byte	0x108
 1741 04c9 7B040000 		.4byte	0x47b
 1742 04cd 04       		.byte	0x4
 1743 04ce 08       		.uleb128 0x8
 1744 04cf 723600   		.ascii	"r6\000"
 1745 04d2 0C       		.byte	0xc
 1746 04d3 0901     		.2byte	0x109
 1747 04d5 7B040000 		.4byte	0x47b
 1748 04d9 08       		.byte	0x8
 1749 04da 08       		.uleb128 0x8
 1750 04db 723700   		.ascii	"r7\000"
 1751 04de 0C       		.byte	0xc
ARM GAS  /tmp/ccMxQxU9.s 			page 32


 1752 04df 0A01     		.2byte	0x10a
 1753 04e1 7B040000 		.4byte	0x47b
 1754 04e5 0C       		.byte	0xc
 1755 04e6 08       		.uleb128 0x8
 1756 04e7 723800   		.ascii	"r8\000"
 1757 04ea 0C       		.byte	0xc
 1758 04eb 0B01     		.2byte	0x10b
 1759 04ed 7B040000 		.4byte	0x47b
 1760 04f1 10       		.byte	0x10
 1761 04f2 08       		.uleb128 0x8
 1762 04f3 723900   		.ascii	"r9\000"
 1763 04f6 0C       		.byte	0xc
 1764 04f7 0C01     		.2byte	0x10c
 1765 04f9 7B040000 		.4byte	0x47b
 1766 04fd 14       		.byte	0x14
 1767 04fe 08       		.uleb128 0x8
 1768 04ff 72313000 		.ascii	"r10\000"
 1769 0503 0C       		.byte	0xc
 1770 0504 0D01     		.2byte	0x10d
 1771 0506 7B040000 		.4byte	0x47b
 1772 050a 18       		.byte	0x18
 1773 050b 08       		.uleb128 0x8
 1774 050c 72313100 		.ascii	"r11\000"
 1775 0510 0C       		.byte	0xc
 1776 0511 0E01     		.2byte	0x10e
 1777 0513 7B040000 		.4byte	0x47b
 1778 0517 1C       		.byte	0x1c
 1779 0518 08       		.uleb128 0x8
 1780 0519 6C7200   		.ascii	"lr\000"
 1781 051c 0C       		.byte	0xc
 1782 051d 0F01     		.2byte	0x10f
 1783 051f 7B040000 		.4byte	0x47b
 1784 0523 20       		.byte	0x20
 1785 0524 00       		.byte	0
 1786 0525 0A       		.uleb128 0xa
 1787 0526 04       		.byte	0x4
 1788 0527 AA040000 		.4byte	0x4aa
 1789 052b 13       		.uleb128 0x13
 1790 052c 60       		.byte	0x60
 1791 052d 0D       		.byte	0xd
 1792 052e 9E01     		.2byte	0x19e
 1793 0530 37060000 		.4byte	0x637
 1794 0534 08       		.uleb128 0x8
 1795 0535 43523100 		.ascii	"CR1\000"
 1796 0539 0D       		.byte	0xd
 1797 053a 9F01     		.2byte	0x19f
 1798 053c D6000000 		.4byte	0xd6
 1799 0540 00       		.byte	0
 1800 0541 08       		.uleb128 0x8
 1801 0542 43523200 		.ascii	"CR2\000"
 1802 0546 0D       		.byte	0xd
 1803 0547 A001     		.2byte	0x1a0
 1804 0549 D6000000 		.4byte	0xd6
 1805 054d 04       		.byte	0x4
 1806 054e 09       		.uleb128 0x9
 1807 054f 6E030000 		.4byte	.LASF85
 1808 0553 0D       		.byte	0xd
ARM GAS  /tmp/ccMxQxU9.s 			page 33


 1809 0554 A101     		.2byte	0x1a1
 1810 0556 D6000000 		.4byte	0xd6
 1811 055a 08       		.byte	0x8
 1812 055b 09       		.uleb128 0x9
 1813 055c 0D000000 		.4byte	.LASF86
 1814 0560 0D       		.byte	0xd
 1815 0561 A201     		.2byte	0x1a2
 1816 0563 D6000000 		.4byte	0xd6
 1817 0567 0C       		.byte	0xc
 1818 0568 08       		.uleb128 0x8
 1819 0569 535200   		.ascii	"SR\000"
 1820 056c 0D       		.byte	0xd
 1821 056d A301     		.2byte	0x1a3
 1822 056f D6000000 		.4byte	0xd6
 1823 0573 10       		.byte	0x10
 1824 0574 08       		.uleb128 0x8
 1825 0575 45475200 		.ascii	"EGR\000"
 1826 0579 0D       		.byte	0xd
 1827 057a A401     		.2byte	0x1a4
 1828 057c D6000000 		.4byte	0xd6
 1829 0580 14       		.byte	0x14
 1830 0581 09       		.uleb128 0x9
 1831 0582 DA010000 		.4byte	.LASF87
 1832 0586 0D       		.byte	0xd
 1833 0587 A501     		.2byte	0x1a5
 1834 0589 D6000000 		.4byte	0xd6
 1835 058d 18       		.byte	0x18
 1836 058e 09       		.uleb128 0x9
 1837 058f E0010000 		.4byte	.LASF88
 1838 0593 0D       		.byte	0xd
 1839 0594 A601     		.2byte	0x1a6
 1840 0596 D6000000 		.4byte	0xd6
 1841 059a 1C       		.byte	0x1c
 1842 059b 09       		.uleb128 0x9
 1843 059c 6B020000 		.4byte	.LASF89
 1844 05a0 0D       		.byte	0xd
 1845 05a1 A701     		.2byte	0x1a7
 1846 05a3 D6000000 		.4byte	0xd6
 1847 05a7 20       		.byte	0x20
 1848 05a8 08       		.uleb128 0x8
 1849 05a9 434E5400 		.ascii	"CNT\000"
 1850 05ad 0D       		.byte	0xd
 1851 05ae A801     		.2byte	0x1a8
 1852 05b0 D6000000 		.4byte	0xd6
 1853 05b4 24       		.byte	0x24
 1854 05b5 08       		.uleb128 0x8
 1855 05b6 50534300 		.ascii	"PSC\000"
 1856 05ba 0D       		.byte	0xd
 1857 05bb A901     		.2byte	0x1a9
 1858 05bd D6000000 		.4byte	0xd6
 1859 05c1 28       		.byte	0x28
 1860 05c2 08       		.uleb128 0x8
 1861 05c3 41525200 		.ascii	"ARR\000"
 1862 05c7 0D       		.byte	0xd
 1863 05c8 AA01     		.2byte	0x1aa
 1864 05ca D6000000 		.4byte	0xd6
 1865 05ce 2C       		.byte	0x2c
ARM GAS  /tmp/ccMxQxU9.s 			page 34


 1866 05cf 08       		.uleb128 0x8
 1867 05d0 52435200 		.ascii	"RCR\000"
 1868 05d4 0D       		.byte	0xd
 1869 05d5 AB01     		.2byte	0x1ab
 1870 05d7 D6000000 		.4byte	0xd6
 1871 05db 30       		.byte	0x30
 1872 05dc 08       		.uleb128 0x8
 1873 05dd 43435200 		.ascii	"CCR\000"
 1874 05e1 0D       		.byte	0xd
 1875 05e2 AC01     		.2byte	0x1ac
 1876 05e4 37060000 		.4byte	0x637
 1877 05e8 34       		.byte	0x34
 1878 05e9 09       		.uleb128 0x9
 1879 05ea BD010000 		.4byte	.LASF90
 1880 05ee 0D       		.byte	0xd
 1881 05ef AD01     		.2byte	0x1ad
 1882 05f1 D6000000 		.4byte	0xd6
 1883 05f5 44       		.byte	0x44
 1884 05f6 08       		.uleb128 0x8
 1885 05f7 44435200 		.ascii	"DCR\000"
 1886 05fb 0D       		.byte	0xd
 1887 05fc AE01     		.2byte	0x1ae
 1888 05fe D6000000 		.4byte	0xd6
 1889 0602 48       		.byte	0x48
 1890 0603 09       		.uleb128 0x9
 1891 0604 54060000 		.4byte	.LASF91
 1892 0608 0D       		.byte	0xd
 1893 0609 AF01     		.2byte	0x1af
 1894 060b D6000000 		.4byte	0xd6
 1895 060f 4C       		.byte	0x4c
 1896 0610 08       		.uleb128 0x8
 1897 0611 4F5200   		.ascii	"OR\000"
 1898 0614 0D       		.byte	0xd
 1899 0615 B001     		.2byte	0x1b0
 1900 0617 D6000000 		.4byte	0xd6
 1901 061b 50       		.byte	0x50
 1902 061c 09       		.uleb128 0x9
 1903 061d E6010000 		.4byte	.LASF92
 1904 0621 0D       		.byte	0xd
 1905 0622 B101     		.2byte	0x1b1
 1906 0624 D6000000 		.4byte	0xd6
 1907 0628 54       		.byte	0x54
 1908 0629 09       		.uleb128 0x9
 1909 062a C7050000 		.4byte	.LASF93
 1910 062e 0D       		.byte	0xd
 1911 062f B201     		.2byte	0x1b2
 1912 0631 3C060000 		.4byte	0x63c
 1913 0635 58       		.byte	0x58
 1914 0636 00       		.byte	0
 1915 0637 05       		.uleb128 0x5
 1916 0638 6B040000 		.4byte	0x46b
 1917 063c 05       		.uleb128 0x5
 1918 063d 5B040000 		.4byte	0x45b
 1919 0641 14       		.uleb128 0x14
 1920 0642 8F030000 		.4byte	.LASF94
 1921 0646 0D       		.byte	0xd
 1922 0647 B301     		.2byte	0x1b3
ARM GAS  /tmp/ccMxQxU9.s 			page 35


 1923 0649 2B050000 		.4byte	0x52b
 1924 064d 15       		.uleb128 0x15
 1925 064e 04       		.byte	0x4
 1926 064f 0E       		.byte	0xe
 1927 0650 38       		.byte	0x38
 1928 0651 62060000 		.4byte	0x662
 1929 0655 07       		.uleb128 0x7
 1930 0656 B5060000 		.4byte	.LASF95
 1931 065a 0E       		.byte	0xe
 1932 065b 3C       		.byte	0x3c
 1933 065c DB000000 		.4byte	0xdb
 1934 0660 00       		.byte	0
 1935 0661 00       		.byte	0
 1936 0662 03       		.uleb128 0x3
 1937 0663 35040000 		.4byte	.LASF96
 1938 0667 0E       		.byte	0xe
 1939 0668 3D       		.byte	0x3d
 1940 0669 4D060000 		.4byte	0x64d
 1941 066d 16       		.uleb128 0x16
 1942 066e 04       		.byte	0x4
 1943 066f 0A       		.byte	0xa
 1944 0670 FA       		.byte	0xfa
 1945 0671 CA060000 		.4byte	0x6ca
 1946 0675 17       		.uleb128 0x17
 1947 0676 19000000 		.4byte	.LASF97
 1948 067a 0A       		.byte	0xa
 1949 067b 0101     		.2byte	0x101
 1950 067d 12010000 		.4byte	0x112
 1951 0681 17       		.uleb128 0x17
 1952 0682 58010000 		.4byte	.LASF98
 1953 0686 0A       		.byte	0xa
 1954 0687 0801     		.2byte	0x108
 1955 0689 12010000 		.4byte	0x112
 1956 068d 17       		.uleb128 0x17
 1957 068e 36070000 		.4byte	.LASF99
 1958 0692 0A       		.byte	0xa
 1959 0693 0F01     		.2byte	0x10f
 1960 0695 1E030000 		.4byte	0x31e
 1961 0699 17       		.uleb128 0x17
 1962 069a 30020000 		.4byte	.LASF100
 1963 069e 0A       		.byte	0xa
 1964 069f 1601     		.2byte	0x116
 1965 06a1 CA060000 		.4byte	0x6ca
 1966 06a5 17       		.uleb128 0x17
 1967 06a6 48030000 		.4byte	.LASF101
 1968 06aa 0A       		.byte	0xa
 1969 06ab 1E01     		.2byte	0x11e
 1970 06ad F5060000 		.4byte	0x6f5
 1971 06b1 17       		.uleb128 0x17
 1972 06b2 FE050000 		.4byte	.LASF102
 1973 06b6 0A       		.byte	0xa
 1974 06b7 2701     		.2byte	0x127
 1975 06b9 2C070000 		.4byte	0x72c
 1976 06bd 17       		.uleb128 0x17
 1977 06be 77050000 		.4byte	.LASF103
 1978 06c2 0A       		.byte	0xa
 1979 06c3 2F01     		.2byte	0x12f
ARM GAS  /tmp/ccMxQxU9.s 			page 36


 1980 06c5 1D010000 		.4byte	0x11d
 1981 06c9 00       		.byte	0
 1982 06ca 0A       		.uleb128 0xa
 1983 06cb 04       		.byte	0x4
 1984 06cc 36020000 		.4byte	0x236
 1985 06d0 06       		.uleb128 0x6
 1986 06d1 BA050000 		.4byte	.LASF104
 1987 06d5 0C       		.byte	0xc
 1988 06d6 0F       		.byte	0xf
 1989 06d7 34       		.byte	0x34
 1990 06d8 F5060000 		.4byte	0x6f5
 1991 06dc 07       		.uleb128 0x7
 1992 06dd 8F020000 		.4byte	.LASF105
 1993 06e1 0F       		.byte	0xf
 1994 06e2 35       		.byte	0x35
 1995 06e3 6B020000 		.4byte	0x26b
 1996 06e7 00       		.byte	0
 1997 06e8 07       		.uleb128 0x7
 1998 06e9 68030000 		.4byte	.LASF106
 1999 06ed 0F       		.byte	0xf
 2000 06ee 37       		.byte	0x37
 2001 06ef 28010000 		.4byte	0x128
 2002 06f3 08       		.byte	0x8
 2003 06f4 00       		.byte	0
 2004 06f5 0A       		.uleb128 0xa
 2005 06f6 04       		.byte	0x4
 2006 06f7 D0060000 		.4byte	0x6d0
 2007 06fb 06       		.uleb128 0x6
 2008 06fc F7060000 		.4byte	.LASF107
 2009 0700 10       		.byte	0x10
 2010 0701 10       		.byte	0x10
 2011 0702 39       		.byte	0x39
 2012 0703 2C070000 		.4byte	0x72c
 2013 0707 07       		.uleb128 0x7
 2014 0708 F8010000 		.4byte	.LASF108
 2015 070c 10       		.byte	0x10
 2016 070d 3A       		.byte	0x3a
 2017 070e 6B020000 		.4byte	0x26b
 2018 0712 00       		.byte	0
 2019 0713 07       		.uleb128 0x7
 2020 0714 7A070000 		.4byte	.LASF109
 2021 0718 10       		.byte	0x10
 2022 0719 3C       		.byte	0x3c
 2023 071a 41020000 		.4byte	0x241
 2024 071e 08       		.byte	0x8
 2025 071f 07       		.uleb128 0x7
 2026 0720 6D060000 		.4byte	.LASF110
 2027 0724 10       		.byte	0x10
 2028 0725 3E       		.byte	0x3e
 2029 0726 6A070000 		.4byte	0x76a
 2030 072a 0C       		.byte	0xc
 2031 072b 00       		.byte	0
 2032 072c 0A       		.uleb128 0xa
 2033 072d 04       		.byte	0x4
 2034 072e FB060000 		.4byte	0x6fb
 2035 0732 0A       		.uleb128 0xa
 2036 0733 04       		.byte	0x4
ARM GAS  /tmp/ccMxQxU9.s 			page 37


 2037 0734 3F070000 		.4byte	0x73f
 2038 0738 04       		.uleb128 0x4
 2039 0739 01       		.byte	0x1
 2040 073a 08       		.byte	0x8
 2041 073b 42060000 		.4byte	.LASF111
 2042 073f 18       		.uleb128 0x18
 2043 0740 38070000 		.4byte	0x738
 2044 0744 0A       		.uleb128 0xa
 2045 0745 04       		.byte	0x4
 2046 0746 20030000 		.4byte	0x320
 2047 074a 05       		.uleb128 0x5
 2048 074b 32070000 		.4byte	0x732
 2049 074f 10       		.uleb128 0x10
 2050 0750 86040000 		.4byte	0x486
 2051 0754 5F070000 		.4byte	0x75f
 2052 0758 11       		.uleb128 0x11
 2053 0759 54040000 		.4byte	0x454
 2054 075d 1A       		.byte	0x1a
 2055 075e 00       		.byte	0
 2056 075f 03       		.uleb128 0x3
 2057 0760 EE020000 		.4byte	.LASF112
 2058 0764 10       		.byte	0x10
 2059 0765 34       		.byte	0x34
 2060 0766 FB060000 		.4byte	0x6fb
 2061 076a 0A       		.uleb128 0xa
 2062 076b 04       		.byte	0x4
 2063 076c 5F070000 		.4byte	0x75f
 2064 0770 06       		.uleb128 0x6
 2065 0771 B1050000 		.4byte	.LASF113
 2066 0775 10       		.byte	0x10
 2067 0776 11       		.byte	0x11
 2068 0777 3B       		.byte	0x3b
 2069 0778 AD070000 		.4byte	0x7ad
 2070 077c 07       		.uleb128 0x7
 2071 077d 63030000 		.4byte	.LASF114
 2072 0781 11       		.byte	0x11
 2073 0782 3C       		.byte	0x3c
 2074 0783 32070000 		.4byte	0x732
 2075 0787 00       		.byte	0
 2076 0788 07       		.uleb128 0x7
 2077 0789 84040000 		.4byte	.LASF115
 2078 078d 11       		.byte	0x11
 2079 078e 3D       		.byte	0x3d
 2080 078f AE070000 		.4byte	0x7ae
 2081 0793 04       		.byte	0x4
 2082 0794 07       		.uleb128 0x7
 2083 0795 5A030000 		.4byte	.LASF116
 2084 0799 11       		.byte	0x11
 2085 079a 3E       		.byte	0x3e
 2086 079b AE070000 		.4byte	0x7ae
 2087 079f 08       		.byte	0x8
 2088 07a0 07       		.uleb128 0x7
 2089 07a1 44050000 		.4byte	.LASF117
 2090 07a5 11       		.byte	0x11
 2091 07a6 3F       		.byte	0x3f
 2092 07a7 AE070000 		.4byte	0x7ae
 2093 07ab 0C       		.byte	0xc
ARM GAS  /tmp/ccMxQxU9.s 			page 38


 2094 07ac 00       		.byte	0
 2095 07ad 19       		.uleb128 0x19
 2096 07ae 0A       		.uleb128 0xa
 2097 07af 04       		.byte	0x4
 2098 07b0 AD070000 		.4byte	0x7ad
 2099 07b4 1A       		.uleb128 0x1a
 2100 07b5 9D060000 		.4byte	.LASF122
 2101 07b9 03       		.byte	0x3
 2102 07ba 2002     		.2byte	0x220
 2103 07bc 03       		.byte	0x3
 2104 07bd CE070000 		.4byte	0x7ce
 2105 07c1 1B       		.uleb128 0x1b
 2106 07c2 F6020000 		.4byte	.LASF158
 2107 07c6 03       		.byte	0x3
 2108 07c7 2002     		.2byte	0x220
 2109 07c9 BB000000 		.4byte	0xbb
 2110 07cd 00       		.byte	0
 2111 07ce 1C       		.uleb128 0x1c
 2112 07cf E2050000 		.4byte	.LASF120
 2113 07d3 04       		.byte	0x4
 2114 07d4 7F       		.byte	0x7f
 2115 07d5 33010000 		.4byte	0x133
 2116 07d9 03       		.byte	0x3
 2117 07da 1D       		.uleb128 0x1d
 2118 07db 5D000000 		.4byte	.LASF118
 2119 07df 0C       		.byte	0xc
 2120 07e0 BC01     		.2byte	0x1bc
 2121 07e2 03       		.byte	0x3
 2122 07e3 1D       		.uleb128 0x1d
 2123 07e4 17020000 		.4byte	.LASF119
 2124 07e8 0C       		.byte	0xc
 2125 07e9 CA01     		.2byte	0x1ca
 2126 07eb 03       		.byte	0x3
 2127 07ec 1C       		.uleb128 0x1c
 2128 07ed C4060000 		.4byte	.LASF121
 2129 07f1 12       		.byte	0x12
 2130 07f2 69       		.byte	0x69
 2131 07f3 33010000 		.4byte	0x133
 2132 07f7 03       		.byte	0x3
 2133 07f8 1A       		.uleb128 0x1a
 2134 07f9 68070000 		.4byte	.LASF123
 2135 07fd 13       		.byte	0x13
 2136 07fe 6601     		.2byte	0x166
 2137 0800 03       		.byte	0x3
 2138 0801 13080000 		.4byte	0x813
 2139 0805 1E       		.uleb128 0x1e
 2140 0806 8D050000 		.4byte	.LASF128
 2141 080a 23080000 		.4byte	0x823
 2142 080e 68070000 		.4byte	.LASF123
 2143 0812 00       		.byte	0
 2144 0813 10       		.uleb128 0x10
 2145 0814 3F070000 		.4byte	0x73f
 2146 0818 23080000 		.4byte	0x823
 2147 081c 11       		.uleb128 0x11
 2148 081d 54040000 		.4byte	0x454
 2149 0821 0B       		.byte	0xb
 2150 0822 00       		.byte	0
ARM GAS  /tmp/ccMxQxU9.s 			page 39


 2151 0823 18       		.uleb128 0x18
 2152 0824 13080000 		.4byte	0x813
 2153 0828 1C       		.uleb128 0x1c
 2154 0829 13030000 		.4byte	.LASF124
 2155 082d 14       		.byte	0x14
 2156 082e E4       		.byte	0xe4
 2157 082f 33010000 		.4byte	0x133
 2158 0833 03       		.byte	0x3
 2159 0834 1D       		.uleb128 0x1d
 2160 0835 96050000 		.4byte	.LASF125
 2161 0839 13       		.byte	0x13
 2162 083a 5A01     		.2byte	0x15a
 2163 083c 03       		.byte	0x3
 2164 083d 1C       		.uleb128 0x1c
 2165 083e 0D070000 		.4byte	.LASF126
 2166 0842 02       		.byte	0x2
 2167 0843 AE       		.byte	0xae
 2168 0844 41020000 		.4byte	0x241
 2169 0848 03       		.byte	0x3
 2170 0849 1C       		.uleb128 0x1c
 2171 084a 72040000 		.4byte	.LASF127
 2172 084e 02       		.byte	0x2
 2173 084f BB       		.byte	0xbb
 2174 0850 07010000 		.4byte	0x107
 2175 0854 03       		.byte	0x3
 2176 0855 1F       		.uleb128 0x1f
 2177 0856 8A040000 		.4byte	.LASF159
 2178 085a 14       		.byte	0x14
 2179 085b F7       		.byte	0xf7
 2180 085c 33010000 		.4byte	0x133
 2181 0860 03       		.byte	0x3
 2182 0861 71080000 		.4byte	0x871
 2183 0865 20       		.uleb128 0x20
 2184 0866 9B030000 		.4byte	.LASF129
 2185 086a 14       		.byte	0x14
 2186 086b F8       		.byte	0xf8
 2187 086c 33010000 		.4byte	0x133
 2188 0870 00       		.byte	0
 2189 0871 21       		.uleb128 0x21
 2190 0872 47060000 		.4byte	.LASF130
 2191 0876 01       		.byte	0x1
 2192 0877 BC       		.byte	0xbc
 2193 0878 01       		.byte	0x1
 2194 0879 89080000 		.4byte	0x889
 2195 087d 20       		.uleb128 0x20
 2196 087e 9C040000 		.4byte	.LASF131
 2197 0882 01       		.byte	0x1
 2198 0883 BD       		.byte	0xbd
 2199 0884 33010000 		.4byte	0x133
 2200 0888 00       		.byte	0
 2201 0889 22       		.uleb128 0x22
 2202 088a CB020000 		.4byte	.LASF132
 2203 088e 01       		.byte	0x1
 2204 088f 41       		.byte	0x41
 2205 0890 00000000 		.4byte	.LFB228
 2206 0894 C8000000 		.4byte	.LFE228-.LFB228
 2207 0898 01       		.uleb128 0x1
ARM GAS  /tmp/ccMxQxU9.s 			page 40


 2208 0899 9C       		.byte	0x9c
 2209 089a FB090000 		.4byte	0x9fb
 2210 089e 23       		.uleb128 0x23
 2211 089f 49080000 		.4byte	0x849
 2212 08a3 02000000 		.4byte	.LBB257
 2213 08a7 00000000 		.4byte	.Ldebug_ranges0+0
 2214 08ab 01       		.byte	0x1
 2215 08ac 43       		.byte	0x43
 2216 08ad C1080000 		.4byte	0x8c1
 2217 08b1 24       		.uleb128 0x24
 2218 08b2 3D080000 		.4byte	0x83d
 2219 08b6 02000000 		.4byte	.LBB259
 2220 08ba 02000000 		.4byte	.LBE259-.LBB259
 2221 08be 02       		.byte	0x2
 2222 08bf BD       		.byte	0xbd
 2223 08c0 00       		.byte	0
 2224 08c1 24       		.uleb128 0x24
 2225 08c2 49080000 		.4byte	0x849
 2226 08c6 22000000 		.4byte	.LBB263
 2227 08ca 02000000 		.4byte	.LBE263-.LBB263
 2228 08ce 01       		.byte	0x1
 2229 08cf 44       		.byte	0x44
 2230 08d0 24       		.uleb128 0x24
 2231 08d1 49080000 		.4byte	0x849
 2232 08d5 3C000000 		.4byte	.LBB265
 2233 08d9 02000000 		.4byte	.LBE265-.LBB265
 2234 08dd 01       		.byte	0x1
 2235 08de 45       		.byte	0x45
 2236 08df 24       		.uleb128 0x24
 2237 08e0 49080000 		.4byte	0x849
 2238 08e4 56000000 		.4byte	.LBB267
 2239 08e8 02000000 		.4byte	.LBE267-.LBB267
 2240 08ec 01       		.byte	0x1
 2241 08ed 46       		.byte	0x46
 2242 08ee 24       		.uleb128 0x24
 2243 08ef 49080000 		.4byte	0x849
 2244 08f3 70000000 		.4byte	.LBB269
 2245 08f7 02000000 		.4byte	.LBE269-.LBB269
 2246 08fb 01       		.byte	0x1
 2247 08fc 47       		.byte	0x47
 2248 08fd 25       		.uleb128 0x25
 2249 08fe 22000000 		.4byte	.LVL0
 2250 0902 45140000 		.4byte	0x1445
 2251 0906 29090000 		.4byte	0x929
 2252 090a 26       		.uleb128 0x26
 2253 090b 01       		.uleb128 0x1
 2254 090c 50       		.byte	0x50
 2255 090d 03       		.uleb128 0x3
 2256 090e 76       		.byte	0x76
 2257 090f 00       		.sleb128 0
 2258 0910 06       		.byte	0x6
 2259 0911 26       		.uleb128 0x26
 2260 0912 01       		.uleb128 0x1
 2261 0913 51       		.byte	0x51
 2262 0914 03       		.uleb128 0x3
 2263 0915 0A       		.byte	0xa
 2264 0916 4801     		.2byte	0x148
ARM GAS  /tmp/ccMxQxU9.s 			page 41


 2265 0918 26       		.uleb128 0x26
 2266 0919 01       		.uleb128 0x1
 2267 091a 53       		.byte	0x53
 2268 091b 02       		.uleb128 0x2
 2269 091c 75       		.byte	0x75
 2270 091d 00       		.sleb128 0
 2271 091e 26       		.uleb128 0x26
 2272 091f 02       		.uleb128 0x2
 2273 0920 7D       		.byte	0x7d
 2274 0921 00       		.sleb128 0
 2275 0922 05       		.uleb128 0x5
 2276 0923 03       		.byte	0x3
 2277 0924 00000000 		.4byte	.LC0
 2278 0928 00       		.byte	0
 2279 0929 25       		.uleb128 0x25
 2280 092a 3C000000 		.4byte	.LVL1
 2281 092e 45140000 		.4byte	0x1445
 2282 0932 55090000 		.4byte	0x955
 2283 0936 26       		.uleb128 0x26
 2284 0937 01       		.uleb128 0x1
 2285 0938 50       		.byte	0x50
 2286 0939 03       		.uleb128 0x3
 2287 093a 76       		.byte	0x76
 2288 093b 04       		.sleb128 4
 2289 093c 06       		.byte	0x6
 2290 093d 26       		.uleb128 0x26
 2291 093e 01       		.uleb128 0x1
 2292 093f 51       		.byte	0x51
 2293 0940 03       		.uleb128 0x3
 2294 0941 0A       		.byte	0xa
 2295 0942 4801     		.2byte	0x148
 2296 0944 26       		.uleb128 0x26
 2297 0945 01       		.uleb128 0x1
 2298 0946 53       		.byte	0x53
 2299 0947 02       		.uleb128 0x2
 2300 0948 75       		.byte	0x75
 2301 0949 00       		.sleb128 0
 2302 094a 26       		.uleb128 0x26
 2303 094b 02       		.uleb128 0x2
 2304 094c 7D       		.byte	0x7d
 2305 094d 00       		.sleb128 0
 2306 094e 05       		.uleb128 0x5
 2307 094f 03       		.byte	0x3
 2308 0950 04000000 		.4byte	.LC1
 2309 0954 00       		.byte	0
 2310 0955 25       		.uleb128 0x25
 2311 0956 56000000 		.4byte	.LVL2
 2312 095a 45140000 		.4byte	0x1445
 2313 095e 81090000 		.4byte	0x981
 2314 0962 26       		.uleb128 0x26
 2315 0963 01       		.uleb128 0x1
 2316 0964 50       		.byte	0x50
 2317 0965 03       		.uleb128 0x3
 2318 0966 76       		.byte	0x76
 2319 0967 08       		.sleb128 8
 2320 0968 06       		.byte	0x6
 2321 0969 26       		.uleb128 0x26
ARM GAS  /tmp/ccMxQxU9.s 			page 42


 2322 096a 01       		.uleb128 0x1
 2323 096b 51       		.byte	0x51
 2324 096c 03       		.uleb128 0x3
 2325 096d 0A       		.byte	0xa
 2326 096e 4801     		.2byte	0x148
 2327 0970 26       		.uleb128 0x26
 2328 0971 01       		.uleb128 0x1
 2329 0972 53       		.byte	0x53
 2330 0973 02       		.uleb128 0x2
 2331 0974 75       		.byte	0x75
 2332 0975 00       		.sleb128 0
 2333 0976 26       		.uleb128 0x26
 2334 0977 02       		.uleb128 0x2
 2335 0978 7D       		.byte	0x7d
 2336 0979 00       		.sleb128 0
 2337 097a 05       		.uleb128 0x5
 2338 097b 03       		.byte	0x3
 2339 097c 08000000 		.4byte	.LC2
 2340 0980 00       		.byte	0
 2341 0981 25       		.uleb128 0x25
 2342 0982 70000000 		.4byte	.LVL3
 2343 0986 45140000 		.4byte	0x1445
 2344 098a AD090000 		.4byte	0x9ad
 2345 098e 26       		.uleb128 0x26
 2346 098f 01       		.uleb128 0x1
 2347 0990 50       		.byte	0x50
 2348 0991 03       		.uleb128 0x3
 2349 0992 76       		.byte	0x76
 2350 0993 0C       		.sleb128 12
 2351 0994 06       		.byte	0x6
 2352 0995 26       		.uleb128 0x26
 2353 0996 01       		.uleb128 0x1
 2354 0997 51       		.byte	0x51
 2355 0998 03       		.uleb128 0x3
 2356 0999 0A       		.byte	0xa
 2357 099a 4801     		.2byte	0x148
 2358 099c 26       		.uleb128 0x26
 2359 099d 01       		.uleb128 0x1
 2360 099e 53       		.byte	0x53
 2361 099f 02       		.uleb128 0x2
 2362 09a0 75       		.byte	0x75
 2363 09a1 00       		.sleb128 0
 2364 09a2 26       		.uleb128 0x26
 2365 09a3 02       		.uleb128 0x2
 2366 09a4 7D       		.byte	0x7d
 2367 09a5 00       		.sleb128 0
 2368 09a6 05       		.uleb128 0x5
 2369 09a7 03       		.byte	0x3
 2370 09a8 0C000000 		.4byte	.LC3
 2371 09ac 00       		.byte	0
 2372 09ad 25       		.uleb128 0x25
 2373 09ae 8A000000 		.4byte	.LVL4
 2374 09b2 45140000 		.4byte	0x1445
 2375 09b6 D9090000 		.4byte	0x9d9
 2376 09ba 26       		.uleb128 0x26
 2377 09bb 01       		.uleb128 0x1
 2378 09bc 50       		.byte	0x50
ARM GAS  /tmp/ccMxQxU9.s 			page 43


 2379 09bd 03       		.uleb128 0x3
 2380 09be 76       		.byte	0x76
 2381 09bf 10       		.sleb128 16
 2382 09c0 06       		.byte	0x6
 2383 09c1 26       		.uleb128 0x26
 2384 09c2 01       		.uleb128 0x1
 2385 09c3 51       		.byte	0x51
 2386 09c4 03       		.uleb128 0x3
 2387 09c5 0A       		.byte	0xa
 2388 09c6 4801     		.2byte	0x148
 2389 09c8 26       		.uleb128 0x26
 2390 09c9 01       		.uleb128 0x1
 2391 09ca 53       		.byte	0x53
 2392 09cb 02       		.uleb128 0x2
 2393 09cc 75       		.byte	0x75
 2394 09cd 00       		.sleb128 0
 2395 09ce 26       		.uleb128 0x26
 2396 09cf 02       		.uleb128 0x2
 2397 09d0 7D       		.byte	0x7d
 2398 09d1 00       		.sleb128 0
 2399 09d2 05       		.uleb128 0x5
 2400 09d3 03       		.byte	0x3
 2401 09d4 10000000 		.4byte	.LC4
 2402 09d8 00       		.byte	0
 2403 09d9 27       		.uleb128 0x27
 2404 09da 90000000 		.4byte	.LVL5
 2405 09de 50140000 		.4byte	0x1450
 2406 09e2 28       		.uleb128 0x28
 2407 09e3 9E000000 		.4byte	.LVL6
 2408 09e7 5B140000 		.4byte	0x145b
 2409 09eb 26       		.uleb128 0x26
 2410 09ec 01       		.uleb128 0x1
 2411 09ed 50       		.byte	0x50
 2412 09ee 01       		.uleb128 0x1
 2413 09ef 31       		.byte	0x31
 2414 09f0 26       		.uleb128 0x26
 2415 09f1 01       		.uleb128 0x1
 2416 09f2 51       		.byte	0x51
 2417 09f3 05       		.uleb128 0x5
 2418 09f4 03       		.byte	0x3
 2419 09f5 14000000 		.4byte	.LC5
 2420 09f9 00       		.byte	0
 2421 09fa 00       		.byte	0
 2422 09fb 22       		.uleb128 0x22
 2423 09fc 08050000 		.4byte	.LASF133
 2424 0a00 01       		.byte	0x1
 2425 0a01 3C       		.byte	0x3c
 2426 0a02 00000000 		.4byte	.LFB227
 2427 0a06 06000000 		.4byte	.LFE227-.LFB227
 2428 0a0a 01       		.uleb128 0x1
 2429 0a0b 9C       		.byte	0x9c
 2430 0a0c 270A0000 		.4byte	0xa27
 2431 0a10 29       		.uleb128 0x29
 2432 0a11 7000     		.ascii	"p\000"
 2433 0a13 01       		.byte	0x1
 2434 0a14 3C       		.byte	0x3c
 2435 0a15 1E030000 		.4byte	0x31e
ARM GAS  /tmp/ccMxQxU9.s 			page 44


 2436 0a19 00000000 		.4byte	.LLST0
 2437 0a1d 2A       		.uleb128 0x2a
 2438 0a1e 06000000 		.4byte	.LVL9
 2439 0a22 66140000 		.4byte	0x1466
 2440 0a26 00       		.byte	0
 2441 0a27 22       		.uleb128 0x22
 2442 0a28 33030000 		.4byte	.LASF134
 2443 0a2c 01       		.byte	0x1
 2444 0a2d 5D       		.byte	0x5d
 2445 0a2e 00000000 		.4byte	.LFB229
 2446 0a32 D8000000 		.4byte	.LFE229-.LFB229
 2447 0a36 01       		.uleb128 0x1
 2448 0a37 9C       		.byte	0x9c
 2449 0a38 2B0C0000 		.4byte	0xc2b
 2450 0a3c 23       		.uleb128 0x23
 2451 0a3d 49080000 		.4byte	0x849
 2452 0a41 02000000 		.4byte	.LBB271
 2453 0a45 18000000 		.4byte	.Ldebug_ranges0+0x18
 2454 0a49 01       		.byte	0x1
 2455 0a4a 5F       		.byte	0x5f
 2456 0a4b 5F0A0000 		.4byte	0xa5f
 2457 0a4f 24       		.uleb128 0x24
 2458 0a50 3D080000 		.4byte	0x83d
 2459 0a54 02000000 		.4byte	.LBB273
 2460 0a58 02000000 		.4byte	.LBE273-.LBB273
 2461 0a5c 02       		.byte	0x2
 2462 0a5d BD       		.byte	0xbd
 2463 0a5e 00       		.byte	0
 2464 0a5f 24       		.uleb128 0x24
 2465 0a60 49080000 		.4byte	0x849
 2466 0a64 22000000 		.4byte	.LBB277
 2467 0a68 02000000 		.4byte	.LBE277-.LBB277
 2468 0a6c 01       		.byte	0x1
 2469 0a6d 60       		.byte	0x60
 2470 0a6e 24       		.uleb128 0x24
 2471 0a6f 49080000 		.4byte	0x849
 2472 0a73 3C000000 		.4byte	.LBB279
 2473 0a77 02000000 		.4byte	.LBE279-.LBB279
 2474 0a7b 01       		.byte	0x1
 2475 0a7c 61       		.byte	0x61
 2476 0a7d 24       		.uleb128 0x24
 2477 0a7e 49080000 		.4byte	0x849
 2478 0a82 56000000 		.4byte	.LBB281
 2479 0a86 02000000 		.4byte	.LBE281-.LBB281
 2480 0a8a 01       		.byte	0x1
 2481 0a8b 62       		.byte	0x62
 2482 0a8c 23       		.uleb128 0x23
 2483 0a8d 34080000 		.4byte	0x834
 2484 0a91 70000000 		.4byte	.LBB283
 2485 0a95 30000000 		.4byte	.Ldebug_ranges0+0x30
 2486 0a99 01       		.byte	0x1
 2487 0a9a 64       		.byte	0x64
 2488 0a9b CB0A0000 		.4byte	0xacb
 2489 0a9f 2B       		.uleb128 0x2b
 2490 0aa0 DA070000 		.4byte	0x7da
 2491 0aa4 70000000 		.4byte	.LBB284
 2492 0aa8 30000000 		.4byte	.Ldebug_ranges0+0x30
ARM GAS  /tmp/ccMxQxU9.s 			page 45


 2493 0aac 13       		.byte	0x13
 2494 0aad 5C01     		.2byte	0x15c
 2495 0aaf 2B       		.uleb128 0x2b
 2496 0ab0 B4070000 		.4byte	0x7b4
 2497 0ab4 70000000 		.4byte	.LBB285
 2498 0ab8 30000000 		.4byte	.Ldebug_ranges0+0x30
 2499 0abc 0C       		.byte	0xc
 2500 0abd BF01     		.2byte	0x1bf
 2501 0abf 2C       		.uleb128 0x2c
 2502 0ac0 C1070000 		.4byte	0x7c1
 2503 0ac4 21000000 		.4byte	.LLST1
 2504 0ac8 00       		.byte	0
 2505 0ac9 00       		.byte	0
 2506 0aca 00       		.byte	0
 2507 0acb 24       		.uleb128 0x24
 2508 0acc 49080000 		.4byte	0x849
 2509 0ad0 78000000 		.4byte	.LBB291
 2510 0ad4 02000000 		.4byte	.LBE291-.LBB291
 2511 0ad8 01       		.byte	0x1
 2512 0ad9 65       		.byte	0x65
 2513 0ada 23       		.uleb128 0x23
 2514 0adb F8070000 		.4byte	0x7f8
 2515 0adf 8E000000 		.4byte	.LBB293
 2516 0ae3 48000000 		.4byte	.Ldebug_ranges0+0x48
 2517 0ae7 01       		.byte	0x1
 2518 0ae8 66       		.byte	0x66
 2519 0ae9 240B0000 		.4byte	0xb24
 2520 0aed 2D       		.uleb128 0x2d
 2521 0aee 48000000 		.4byte	.Ldebug_ranges0+0x48
 2522 0af2 2E       		.uleb128 0x2e
 2523 0af3 05080000 		.4byte	0x805
 2524 0af7 2B       		.uleb128 0x2b
 2525 0af8 E3070000 		.4byte	0x7e3
 2526 0afc 8E000000 		.4byte	.LBB295
 2527 0b00 48000000 		.4byte	.Ldebug_ranges0+0x48
 2528 0b04 13       		.byte	0x13
 2529 0b05 7301     		.2byte	0x173
 2530 0b07 2B       		.uleb128 0x2b
 2531 0b08 B4070000 		.4byte	0x7b4
 2532 0b0c 8E000000 		.4byte	.LBB296
 2533 0b10 48000000 		.4byte	.Ldebug_ranges0+0x48
 2534 0b14 0C       		.byte	0xc
 2535 0b15 CD01     		.2byte	0x1cd
 2536 0b17 2C       		.uleb128 0x2c
 2537 0b18 C1070000 		.4byte	0x7c1
 2538 0b1c 36000000 		.4byte	.LLST2
 2539 0b20 00       		.byte	0
 2540 0b21 00       		.byte	0
 2541 0b22 00       		.byte	0
 2542 0b23 00       		.byte	0
 2543 0b24 25       		.uleb128 0x25
 2544 0b25 22000000 		.4byte	.LVL10
 2545 0b29 45140000 		.4byte	0x1445
 2546 0b2d 500B0000 		.4byte	0xb50
 2547 0b31 26       		.uleb128 0x26
 2548 0b32 01       		.uleb128 0x1
 2549 0b33 50       		.byte	0x50
ARM GAS  /tmp/ccMxQxU9.s 			page 46


 2550 0b34 03       		.uleb128 0x3
 2551 0b35 76       		.byte	0x76
 2552 0b36 04       		.sleb128 4
 2553 0b37 06       		.byte	0x6
 2554 0b38 26       		.uleb128 0x26
 2555 0b39 01       		.uleb128 0x1
 2556 0b3a 51       		.byte	0x51
 2557 0b3b 03       		.uleb128 0x3
 2558 0b3c 0A       		.byte	0xa
 2559 0b3d 4801     		.2byte	0x148
 2560 0b3f 26       		.uleb128 0x26
 2561 0b40 01       		.uleb128 0x1
 2562 0b41 53       		.byte	0x53
 2563 0b42 02       		.uleb128 0x2
 2564 0b43 75       		.byte	0x75
 2565 0b44 00       		.sleb128 0
 2566 0b45 26       		.uleb128 0x26
 2567 0b46 02       		.uleb128 0x2
 2568 0b47 7D       		.byte	0x7d
 2569 0b48 00       		.sleb128 0
 2570 0b49 05       		.uleb128 0x5
 2571 0b4a 03       		.byte	0x3
 2572 0b4b 04000000 		.4byte	.LC1
 2573 0b4f 00       		.byte	0
 2574 0b50 25       		.uleb128 0x25
 2575 0b51 3C000000 		.4byte	.LVL11
 2576 0b55 45140000 		.4byte	0x1445
 2577 0b59 7C0B0000 		.4byte	0xb7c
 2578 0b5d 26       		.uleb128 0x26
 2579 0b5e 01       		.uleb128 0x1
 2580 0b5f 50       		.byte	0x50
 2581 0b60 03       		.uleb128 0x3
 2582 0b61 76       		.byte	0x76
 2583 0b62 00       		.sleb128 0
 2584 0b63 06       		.byte	0x6
 2585 0b64 26       		.uleb128 0x26
 2586 0b65 01       		.uleb128 0x1
 2587 0b66 51       		.byte	0x51
 2588 0b67 03       		.uleb128 0x3
 2589 0b68 0A       		.byte	0xa
 2590 0b69 4801     		.2byte	0x148
 2591 0b6b 26       		.uleb128 0x26
 2592 0b6c 01       		.uleb128 0x1
 2593 0b6d 53       		.byte	0x53
 2594 0b6e 02       		.uleb128 0x2
 2595 0b6f 75       		.byte	0x75
 2596 0b70 00       		.sleb128 0
 2597 0b71 26       		.uleb128 0x26
 2598 0b72 02       		.uleb128 0x2
 2599 0b73 7D       		.byte	0x7d
 2600 0b74 00       		.sleb128 0
 2601 0b75 05       		.uleb128 0x5
 2602 0b76 03       		.byte	0x3
 2603 0b77 00000000 		.4byte	.LC0
 2604 0b7b 00       		.byte	0
 2605 0b7c 25       		.uleb128 0x25
 2606 0b7d 56000000 		.4byte	.LVL12
ARM GAS  /tmp/ccMxQxU9.s 			page 47


 2607 0b81 45140000 		.4byte	0x1445
 2608 0b85 A80B0000 		.4byte	0xba8
 2609 0b89 26       		.uleb128 0x26
 2610 0b8a 01       		.uleb128 0x1
 2611 0b8b 50       		.byte	0x50
 2612 0b8c 03       		.uleb128 0x3
 2613 0b8d 76       		.byte	0x76
 2614 0b8e 10       		.sleb128 16
 2615 0b8f 06       		.byte	0x6
 2616 0b90 26       		.uleb128 0x26
 2617 0b91 01       		.uleb128 0x1
 2618 0b92 51       		.byte	0x51
 2619 0b93 03       		.uleb128 0x3
 2620 0b94 0A       		.byte	0xa
 2621 0b95 4801     		.2byte	0x148
 2622 0b97 26       		.uleb128 0x26
 2623 0b98 01       		.uleb128 0x1
 2624 0b99 53       		.byte	0x53
 2625 0b9a 02       		.uleb128 0x2
 2626 0b9b 75       		.byte	0x75
 2627 0b9c 00       		.sleb128 0
 2628 0b9d 26       		.uleb128 0x26
 2629 0b9e 02       		.uleb128 0x2
 2630 0b9f 7D       		.byte	0x7d
 2631 0ba0 00       		.sleb128 0
 2632 0ba1 05       		.uleb128 0x5
 2633 0ba2 03       		.byte	0x3
 2634 0ba3 10000000 		.4byte	.LC4
 2635 0ba7 00       		.byte	0
 2636 0ba8 25       		.uleb128 0x25
 2637 0ba9 70000000 		.4byte	.LVL13
 2638 0bad 45140000 		.4byte	0x1445
 2639 0bb1 D40B0000 		.4byte	0xbd4
 2640 0bb5 26       		.uleb128 0x26
 2641 0bb6 01       		.uleb128 0x1
 2642 0bb7 50       		.byte	0x50
 2643 0bb8 03       		.uleb128 0x3
 2644 0bb9 76       		.byte	0x76
 2645 0bba 0C       		.sleb128 12
 2646 0bbb 06       		.byte	0x6
 2647 0bbc 26       		.uleb128 0x26
 2648 0bbd 01       		.uleb128 0x1
 2649 0bbe 51       		.byte	0x51
 2650 0bbf 03       		.uleb128 0x3
 2651 0bc0 0A       		.byte	0xa
 2652 0bc1 4801     		.2byte	0x148
 2653 0bc3 26       		.uleb128 0x26
 2654 0bc4 01       		.uleb128 0x1
 2655 0bc5 53       		.byte	0x53
 2656 0bc6 02       		.uleb128 0x2
 2657 0bc7 75       		.byte	0x75
 2658 0bc8 00       		.sleb128 0
 2659 0bc9 26       		.uleb128 0x26
 2660 0bca 02       		.uleb128 0x2
 2661 0bcb 7D       		.byte	0x7d
 2662 0bcc 00       		.sleb128 0
 2663 0bcd 05       		.uleb128 0x5
ARM GAS  /tmp/ccMxQxU9.s 			page 48


 2664 0bce 03       		.byte	0x3
 2665 0bcf 0C000000 		.4byte	.LC3
 2666 0bd3 00       		.byte	0
 2667 0bd4 25       		.uleb128 0x25
 2668 0bd5 8E000000 		.4byte	.LVL16
 2669 0bd9 71140000 		.4byte	0x1471
 2670 0bdd 000C0000 		.4byte	0xc00
 2671 0be1 26       		.uleb128 0x26
 2672 0be2 01       		.uleb128 0x1
 2673 0be3 50       		.byte	0x50
 2674 0be4 03       		.uleb128 0x3
 2675 0be5 76       		.byte	0x76
 2676 0be6 08       		.sleb128 8
 2677 0be7 06       		.byte	0x6
 2678 0be8 26       		.uleb128 0x26
 2679 0be9 01       		.uleb128 0x1
 2680 0bea 51       		.byte	0x51
 2681 0beb 03       		.uleb128 0x3
 2682 0bec 0A       		.byte	0xa
 2683 0bed 4801     		.2byte	0x148
 2684 0bef 26       		.uleb128 0x26
 2685 0bf0 01       		.uleb128 0x1
 2686 0bf1 53       		.byte	0x53
 2687 0bf2 02       		.uleb128 0x2
 2688 0bf3 75       		.byte	0x75
 2689 0bf4 00       		.sleb128 0
 2690 0bf5 26       		.uleb128 0x26
 2691 0bf6 02       		.uleb128 0x2
 2692 0bf7 7D       		.byte	0x7d
 2693 0bf8 00       		.sleb128 0
 2694 0bf9 05       		.uleb128 0x5
 2695 0bfa 03       		.byte	0x3
 2696 0bfb 08000000 		.4byte	.LC2
 2697 0bff 00       		.byte	0
 2698 0c00 27       		.uleb128 0x27
 2699 0c01 9C000000 		.4byte	.LVL19
 2700 0c05 7C140000 		.4byte	0x147c
 2701 0c09 27       		.uleb128 0x27
 2702 0c0a A0000000 		.4byte	.LVL20
 2703 0c0e 50140000 		.4byte	0x1450
 2704 0c12 28       		.uleb128 0x28
 2705 0c13 AE000000 		.4byte	.LVL21
 2706 0c17 5B140000 		.4byte	0x145b
 2707 0c1b 26       		.uleb128 0x26
 2708 0c1c 01       		.uleb128 0x1
 2709 0c1d 50       		.byte	0x50
 2710 0c1e 01       		.uleb128 0x1
 2711 0c1f 31       		.byte	0x31
 2712 0c20 26       		.uleb128 0x26
 2713 0c21 01       		.uleb128 0x1
 2714 0c22 51       		.byte	0x51
 2715 0c23 05       		.uleb128 0x5
 2716 0c24 03       		.byte	0x3
 2717 0c25 14000000 		.4byte	.LC5
 2718 0c29 00       		.byte	0
 2719 0c2a 00       		.byte	0
 2720 0c2b 22       		.uleb128 0x22
ARM GAS  /tmp/ccMxQxU9.s 			page 49


 2721 0c2c DC040000 		.4byte	.LASF135
 2722 0c30 01       		.byte	0x1
 2723 0c31 7D       		.byte	0x7d
 2724 0c32 00000000 		.4byte	.LFB230
 2725 0c36 2C010000 		.4byte	.LFE230-.LFB230
 2726 0c3a 01       		.uleb128 0x1
 2727 0c3b 9C       		.byte	0x9c
 2728 0c3c 0A0F0000 		.4byte	0xf0a
 2729 0c40 20       		.uleb128 0x20
 2730 0c41 A1040000 		.4byte	.LASF136
 2731 0c45 01       		.byte	0x1
 2732 0c46 7E       		.byte	0x7e
 2733 0c47 07010000 		.4byte	0x107
 2734 0c4b 2F       		.uleb128 0x2f
 2735 0c4c 703100   		.ascii	"p1\000"
 2736 0c4f 01       		.byte	0x1
 2737 0c50 7E       		.byte	0x7e
 2738 0c51 07010000 		.4byte	0x107
 2739 0c55 4A000000 		.4byte	.LLST3
 2740 0c59 30       		.uleb128 0x30
 2741 0c5a 49080000 		.4byte	0x849
 2742 0c5e 02000000 		.4byte	.LBB303
 2743 0c62 06000000 		.4byte	.LBE303-.LBB303
 2744 0c66 01       		.byte	0x1
 2745 0c67 80       		.byte	0x80
 2746 0c68 7C0C0000 		.4byte	0xc7c
 2747 0c6c 24       		.uleb128 0x24
 2748 0c6d 3D080000 		.4byte	0x83d
 2749 0c71 02000000 		.4byte	.LBB305
 2750 0c75 02000000 		.4byte	.LBE305-.LBB305
 2751 0c79 02       		.byte	0x2
 2752 0c7a BD       		.byte	0xbd
 2753 0c7b 00       		.byte	0
 2754 0c7c 24       		.uleb128 0x24
 2755 0c7d 49080000 		.4byte	0x849
 2756 0c81 24000000 		.4byte	.LBB307
 2757 0c85 02000000 		.4byte	.LBE307-.LBB307
 2758 0c89 01       		.byte	0x1
 2759 0c8a 84       		.byte	0x84
 2760 0c8b 24       		.uleb128 0x24
 2761 0c8c 49080000 		.4byte	0x849
 2762 0c90 52000000 		.4byte	.LBB309
 2763 0c94 02000000 		.4byte	.LBE309-.LBB309
 2764 0c98 01       		.byte	0x1
 2765 0c99 89       		.byte	0x89
 2766 0c9a 30       		.uleb128 0x30
 2767 0c9b 34080000 		.4byte	0x834
 2768 0c9f 68000000 		.4byte	.LBB311
 2769 0ca3 06000000 		.4byte	.LBE311-.LBB311
 2770 0ca7 01       		.byte	0x1
 2771 0ca8 8E       		.byte	0x8e
 2772 0ca9 D90C0000 		.4byte	0xcd9
 2773 0cad 31       		.uleb128 0x31
 2774 0cae DA070000 		.4byte	0x7da
 2775 0cb2 68000000 		.4byte	.LBB312
 2776 0cb6 06000000 		.4byte	.LBE312-.LBB312
 2777 0cba 13       		.byte	0x13
ARM GAS  /tmp/ccMxQxU9.s 			page 50


 2778 0cbb 5C01     		.2byte	0x15c
 2779 0cbd 31       		.uleb128 0x31
 2780 0cbe B4070000 		.4byte	0x7b4
 2781 0cc2 68000000 		.4byte	.LBB313
 2782 0cc6 06000000 		.4byte	.LBE313-.LBB313
 2783 0cca 0C       		.byte	0xc
 2784 0ccb BF01     		.2byte	0x1bf
 2785 0ccd 2C       		.uleb128 0x2c
 2786 0cce C1070000 		.4byte	0x7c1
 2787 0cd2 94000000 		.4byte	.LLST4
 2788 0cd6 00       		.byte	0
 2789 0cd7 00       		.byte	0
 2790 0cd8 00       		.byte	0
 2791 0cd9 24       		.uleb128 0x24
 2792 0cda 3D080000 		.4byte	0x83d
 2793 0cde 6E000000 		.4byte	.LBB315
 2794 0ce2 02000000 		.4byte	.LBE315-.LBB315
 2795 0ce6 01       		.byte	0x1
 2796 0ce7 8F       		.byte	0x8f
 2797 0ce8 30       		.uleb128 0x30
 2798 0ce9 F8070000 		.4byte	0x7f8
 2799 0ced 76000000 		.4byte	.LBB317
 2800 0cf1 04000000 		.4byte	.LBE317-.LBB317
 2801 0cf5 01       		.byte	0x1
 2802 0cf6 90       		.byte	0x90
 2803 0cf7 360D0000 		.4byte	0xd36
 2804 0cfb 32       		.uleb128 0x32
 2805 0cfc 76000000 		.4byte	.LBB318
 2806 0d00 04000000 		.4byte	.LBE318-.LBB318
 2807 0d04 2E       		.uleb128 0x2e
 2808 0d05 05080000 		.4byte	0x805
 2809 0d09 31       		.uleb128 0x31
 2810 0d0a E3070000 		.4byte	0x7e3
 2811 0d0e 76000000 		.4byte	.LBB319
 2812 0d12 04000000 		.4byte	.LBE319-.LBB319
 2813 0d16 13       		.byte	0x13
 2814 0d17 7301     		.2byte	0x173
 2815 0d19 31       		.uleb128 0x31
 2816 0d1a B4070000 		.4byte	0x7b4
 2817 0d1e 76000000 		.4byte	.LBB320
 2818 0d22 04000000 		.4byte	.LBE320-.LBB320
 2819 0d26 0C       		.byte	0xc
 2820 0d27 CD01     		.2byte	0x1cd
 2821 0d29 2C       		.uleb128 0x2c
 2822 0d2a C1070000 		.4byte	0x7c1
 2823 0d2e A9000000 		.4byte	.LLST5
 2824 0d32 00       		.byte	0
 2825 0d33 00       		.byte	0
 2826 0d34 00       		.byte	0
 2827 0d35 00       		.byte	0
 2828 0d36 24       		.uleb128 0x24
 2829 0d37 49080000 		.4byte	0x849
 2830 0d3b 7A000000 		.4byte	.LBB322
 2831 0d3f 02000000 		.4byte	.LBE322-.LBB322
 2832 0d43 01       		.byte	0x1
 2833 0d44 91       		.byte	0x91
 2834 0d45 30       		.uleb128 0x30
ARM GAS  /tmp/ccMxQxU9.s 			page 51


 2835 0d46 34080000 		.4byte	0x834
 2836 0d4a 16010000 		.4byte	.LBB324
 2837 0d4e 06000000 		.4byte	.LBE324-.LBB324
 2838 0d52 01       		.byte	0x1
 2839 0d53 A6       		.byte	0xa6
 2840 0d54 840D0000 		.4byte	0xd84
 2841 0d58 31       		.uleb128 0x31
 2842 0d59 DA070000 		.4byte	0x7da
 2843 0d5d 16010000 		.4byte	.LBB325
 2844 0d61 06000000 		.4byte	.LBE325-.LBB325
 2845 0d65 13       		.byte	0x13
 2846 0d66 5C01     		.2byte	0x15c
 2847 0d68 31       		.uleb128 0x31
 2848 0d69 B4070000 		.4byte	0x7b4
 2849 0d6d 16010000 		.4byte	.LBB326
 2850 0d71 06000000 		.4byte	.LBE326-.LBB326
 2851 0d75 0C       		.byte	0xc
 2852 0d76 BF01     		.2byte	0x1bf
 2853 0d78 2C       		.uleb128 0x2c
 2854 0d79 C1070000 		.4byte	0x7c1
 2855 0d7d BD000000 		.4byte	.LLST6
 2856 0d81 00       		.byte	0
 2857 0d82 00       		.byte	0
 2858 0d83 00       		.byte	0
 2859 0d84 24       		.uleb128 0x24
 2860 0d85 3D080000 		.4byte	0x83d
 2861 0d89 1C010000 		.4byte	.LBB328
 2862 0d8d 02000000 		.4byte	.LBE328-.LBB328
 2863 0d91 01       		.byte	0x1
 2864 0d92 A7       		.byte	0xa7
 2865 0d93 30       		.uleb128 0x30
 2866 0d94 F8070000 		.4byte	0x7f8
 2867 0d98 22010000 		.4byte	.LBB330
 2868 0d9c 0A000000 		.4byte	.LBE330-.LBB330
 2869 0da0 01       		.byte	0x1
 2870 0da1 A9       		.byte	0xa9
 2871 0da2 E10D0000 		.4byte	0xde1
 2872 0da6 32       		.uleb128 0x32
 2873 0da7 22010000 		.4byte	.LBB331
 2874 0dab 0A000000 		.4byte	.LBE331-.LBB331
 2875 0daf 2E       		.uleb128 0x2e
 2876 0db0 05080000 		.4byte	0x805
 2877 0db4 31       		.uleb128 0x31
 2878 0db5 E3070000 		.4byte	0x7e3
 2879 0db9 22010000 		.4byte	.LBB332
 2880 0dbd 0A000000 		.4byte	.LBE332-.LBB332
 2881 0dc1 13       		.byte	0x13
 2882 0dc2 7301     		.2byte	0x173
 2883 0dc4 31       		.uleb128 0x31
 2884 0dc5 B4070000 		.4byte	0x7b4
 2885 0dc9 22010000 		.4byte	.LBB333
 2886 0dcd 0A000000 		.4byte	.LBE333-.LBB333
 2887 0dd1 0C       		.byte	0xc
 2888 0dd2 CD01     		.2byte	0x1cd
 2889 0dd4 2C       		.uleb128 0x2c
 2890 0dd5 C1070000 		.4byte	0x7c1
 2891 0dd9 D2000000 		.4byte	.LLST7
ARM GAS  /tmp/ccMxQxU9.s 			page 52


 2892 0ddd 00       		.byte	0
 2893 0dde 00       		.byte	0
 2894 0ddf 00       		.byte	0
 2895 0de0 00       		.byte	0
 2896 0de1 25       		.uleb128 0x25
 2897 0de2 10000000 		.4byte	.LVL22
 2898 0de6 87140000 		.4byte	0x1487
 2899 0dea F50D0000 		.4byte	0xdf5
 2900 0dee 26       		.uleb128 0x26
 2901 0def 01       		.uleb128 0x1
 2902 0df0 50       		.byte	0x50
 2903 0df1 02       		.uleb128 0x2
 2904 0df2 75       		.byte	0x75
 2905 0df3 00       		.sleb128 0
 2906 0df4 00       		.byte	0
 2907 0df5 25       		.uleb128 0x25
 2908 0df6 20000000 		.4byte	.LVL25
 2909 0dfa 92140000 		.4byte	0x1492
 2910 0dfe 130E0000 		.4byte	0xe13
 2911 0e02 26       		.uleb128 0x26
 2912 0e03 01       		.uleb128 0x1
 2913 0e04 50       		.byte	0x50
 2914 0e05 01       		.uleb128 0x1
 2915 0e06 31       		.byte	0x31
 2916 0e07 26       		.uleb128 0x26
 2917 0e08 01       		.uleb128 0x1
 2918 0e09 51       		.byte	0x51
 2919 0e0a 07       		.uleb128 0x7
 2920 0e0b 77       		.byte	0x77
 2921 0e0c 00       		.sleb128 0
 2922 0e0d 74       		.byte	0x74
 2923 0e0e 00       		.sleb128 0
 2924 0e0f 1C       		.byte	0x1c
 2925 0e10 30       		.byte	0x30
 2926 0e11 29       		.byte	0x29
 2927 0e12 00       		.byte	0
 2928 0e13 25       		.uleb128 0x25
 2929 0e14 36000000 		.4byte	.LVL28
 2930 0e18 92140000 		.4byte	0x1492
 2931 0e1c 260E0000 		.4byte	0xe26
 2932 0e20 26       		.uleb128 0x26
 2933 0e21 01       		.uleb128 0x1
 2934 0e22 50       		.byte	0x50
 2935 0e23 01       		.uleb128 0x1
 2936 0e24 32       		.byte	0x32
 2937 0e25 00       		.byte	0
 2938 0e26 25       		.uleb128 0x25
 2939 0e27 40000000 		.4byte	.LVL29
 2940 0e2b 87140000 		.4byte	0x1487
 2941 0e2f 3A0E0000 		.4byte	0xe3a
 2942 0e33 26       		.uleb128 0x26
 2943 0e34 01       		.uleb128 0x1
 2944 0e35 50       		.byte	0x50
 2945 0e36 02       		.uleb128 0x2
 2946 0e37 77       		.byte	0x77
 2947 0e38 00       		.sleb128 0
 2948 0e39 00       		.byte	0
ARM GAS  /tmp/ccMxQxU9.s 			page 53


 2949 0e3a 25       		.uleb128 0x25
 2950 0e3b 4E000000 		.4byte	.LVL31
 2951 0e3f 92140000 		.4byte	0x1492
 2952 0e43 4D0E0000 		.4byte	0xe4d
 2953 0e47 26       		.uleb128 0x26
 2954 0e48 01       		.uleb128 0x1
 2955 0e49 50       		.byte	0x50
 2956 0e4a 01       		.uleb128 0x1
 2957 0e4b 33       		.byte	0x33
 2958 0e4c 00       		.byte	0
 2959 0e4d 25       		.uleb128 0x25
 2960 0e4e 64000000 		.4byte	.LVL32
 2961 0e52 92140000 		.4byte	0x1492
 2962 0e56 600E0000 		.4byte	0xe60
 2963 0e5a 26       		.uleb128 0x26
 2964 0e5b 01       		.uleb128 0x1
 2965 0e5c 50       		.byte	0x50
 2966 0e5d 01       		.uleb128 0x1
 2967 0e5e 34       		.byte	0x34
 2968 0e5f 00       		.byte	0
 2969 0e60 25       		.uleb128 0x25
 2970 0e61 8E000000 		.4byte	.LVL37
 2971 0e65 92140000 		.4byte	0x1492
 2972 0e69 730E0000 		.4byte	0xe73
 2973 0e6d 26       		.uleb128 0x26
 2974 0e6e 01       		.uleb128 0x1
 2975 0e6f 50       		.byte	0x50
 2976 0e70 01       		.uleb128 0x1
 2977 0e71 35       		.byte	0x35
 2978 0e72 00       		.byte	0
 2979 0e73 25       		.uleb128 0x25
 2980 0e74 98000000 		.4byte	.LVL38
 2981 0e78 87140000 		.4byte	0x1487
 2982 0e7c 870E0000 		.4byte	0xe87
 2983 0e80 26       		.uleb128 0x26
 2984 0e81 01       		.uleb128 0x1
 2985 0e82 50       		.byte	0x50
 2986 0e83 02       		.uleb128 0x2
 2987 0e84 75       		.byte	0x75
 2988 0e85 00       		.sleb128 0
 2989 0e86 00       		.byte	0
 2990 0e87 25       		.uleb128 0x25
 2991 0e88 A6000000 		.4byte	.LVL40
 2992 0e8c 92140000 		.4byte	0x1492
 2993 0e90 9A0E0000 		.4byte	0xe9a
 2994 0e94 26       		.uleb128 0x26
 2995 0e95 01       		.uleb128 0x1
 2996 0e96 50       		.byte	0x50
 2997 0e97 01       		.uleb128 0x1
 2998 0e98 36       		.byte	0x36
 2999 0e99 00       		.byte	0
 3000 0e9a 25       		.uleb128 0x25
 3001 0e9b BC000000 		.4byte	.LVL41
 3002 0e9f 92140000 		.4byte	0x1492
 3003 0ea3 AD0E0000 		.4byte	0xead
 3004 0ea7 26       		.uleb128 0x26
 3005 0ea8 01       		.uleb128 0x1
ARM GAS  /tmp/ccMxQxU9.s 			page 54


 3006 0ea9 50       		.byte	0x50
 3007 0eaa 01       		.uleb128 0x1
 3008 0eab 37       		.byte	0x37
 3009 0eac 00       		.byte	0
 3010 0ead 25       		.uleb128 0x25
 3011 0eae D2000000 		.4byte	.LVL42
 3012 0eb2 92140000 		.4byte	0x1492
 3013 0eb6 C00E0000 		.4byte	0xec0
 3014 0eba 26       		.uleb128 0x26
 3015 0ebb 01       		.uleb128 0x1
 3016 0ebc 50       		.byte	0x50
 3017 0ebd 01       		.uleb128 0x1
 3018 0ebe 38       		.byte	0x38
 3019 0ebf 00       		.byte	0
 3020 0ec0 25       		.uleb128 0x25
 3021 0ec1 DE000000 		.4byte	.LVL43
 3022 0ec5 87140000 		.4byte	0x1487
 3023 0ec9 D40E0000 		.4byte	0xed4
 3024 0ecd 26       		.uleb128 0x26
 3025 0ece 01       		.uleb128 0x1
 3026 0ecf 50       		.byte	0x50
 3027 0ed0 02       		.uleb128 0x2
 3028 0ed1 77       		.byte	0x77
 3029 0ed2 00       		.sleb128 0
 3030 0ed3 00       		.byte	0
 3031 0ed4 25       		.uleb128 0x25
 3032 0ed5 EA000000 		.4byte	.LVL45
 3033 0ed9 92140000 		.4byte	0x1492
 3034 0edd E70E0000 		.4byte	0xee7
 3035 0ee1 26       		.uleb128 0x26
 3036 0ee2 01       		.uleb128 0x1
 3037 0ee3 50       		.byte	0x50
 3038 0ee4 01       		.uleb128 0x1
 3039 0ee5 39       		.byte	0x39
 3040 0ee6 00       		.byte	0
 3041 0ee7 25       		.uleb128 0x25
 3042 0ee8 FE000000 		.4byte	.LVL46
 3043 0eec 92140000 		.4byte	0x1492
 3044 0ef0 FA0E0000 		.4byte	0xefa
 3045 0ef4 26       		.uleb128 0x26
 3046 0ef5 01       		.uleb128 0x1
 3047 0ef6 50       		.byte	0x50
 3048 0ef7 01       		.uleb128 0x1
 3049 0ef8 3A       		.byte	0x3a
 3050 0ef9 00       		.byte	0
 3051 0efa 33       		.uleb128 0x33
 3052 0efb 12010000 		.4byte	.LVL47
 3053 0eff 92140000 		.4byte	0x1492
 3054 0f03 26       		.uleb128 0x26
 3055 0f04 01       		.uleb128 0x1
 3056 0f05 50       		.byte	0x50
 3057 0f06 01       		.uleb128 0x1
 3058 0f07 3B       		.byte	0x3b
 3059 0f08 00       		.byte	0
 3060 0f09 00       		.byte	0
 3061 0f0a 34       		.uleb128 0x34
 3062 0f0b 71080000 		.4byte	0x871
ARM GAS  /tmp/ccMxQxU9.s 			page 55


 3063 0f0f 00000000 		.4byte	.LFB231
 3064 0f13 A0000000 		.4byte	.LFE231-.LFB231
 3065 0f17 01       		.uleb128 0x1
 3066 0f18 9C       		.byte	0x9c
 3067 0f19 7A130000 		.4byte	0x137a
 3068 0f1d 2E       		.uleb128 0x2e
 3069 0f1e 7D080000 		.4byte	0x87d
 3070 0f22 30       		.uleb128 0x30
 3071 0f23 55080000 		.4byte	0x855
 3072 0f27 06000000 		.4byte	.LBB427
 3073 0f2b 12000000 		.4byte	.LBE427-.LBB427
 3074 0f2f 01       		.byte	0x1
 3075 0f30 C2       		.byte	0xc2
 3076 0f31 FD0F0000 		.4byte	0xffd
 3077 0f35 32       		.uleb128 0x32
 3078 0f36 06000000 		.4byte	.LBB428
 3079 0f3a 12000000 		.4byte	.LBE428-.LBB428
 3080 0f3e 2E       		.uleb128 0x2e
 3081 0f3f 65080000 		.4byte	0x865
 3082 0f43 30       		.uleb128 0x30
 3083 0f44 34080000 		.4byte	0x834
 3084 0f48 06000000 		.4byte	.LBB429
 3085 0f4c 06000000 		.4byte	.LBE429-.LBB429
 3086 0f50 14       		.byte	0x14
 3087 0f51 FA       		.byte	0xfa
 3088 0f52 820F0000 		.4byte	0xf82
 3089 0f56 31       		.uleb128 0x31
 3090 0f57 DA070000 		.4byte	0x7da
 3091 0f5b 06000000 		.4byte	.LBB430
 3092 0f5f 06000000 		.4byte	.LBE430-.LBB430
 3093 0f63 13       		.byte	0x13
 3094 0f64 5C01     		.2byte	0x15c
 3095 0f66 31       		.uleb128 0x31
 3096 0f67 B4070000 		.4byte	0x7b4
 3097 0f6b 06000000 		.4byte	.LBB431
 3098 0f6f 06000000 		.4byte	.LBE431-.LBB431
 3099 0f73 0C       		.byte	0xc
 3100 0f74 BF01     		.2byte	0x1bf
 3101 0f76 2C       		.uleb128 0x2c
 3102 0f77 C1070000 		.4byte	0x7c1
 3103 0f7b E6000000 		.4byte	.LLST8
 3104 0f7f 00       		.byte	0
 3105 0f80 00       		.byte	0
 3106 0f81 00       		.byte	0
 3107 0f82 23       		.uleb128 0x23
 3108 0f83 28080000 		.4byte	0x828
 3109 0f87 0C000000 		.4byte	.LBB433
 3110 0f8b 60000000 		.4byte	.Ldebug_ranges0+0x60
 3111 0f8f 14       		.byte	0x14
 3112 0f90 FB       		.byte	0xfb
 3113 0f91 B50F0000 		.4byte	0xfb5
 3114 0f95 35       		.uleb128 0x35
 3115 0f96 EC070000 		.4byte	0x7ec
 3116 0f9a 0C000000 		.4byte	.LBB434
 3117 0f9e 60000000 		.4byte	.Ldebug_ranges0+0x60
 3118 0fa2 14       		.byte	0x14
 3119 0fa3 E9       		.byte	0xe9
ARM GAS  /tmp/ccMxQxU9.s 			page 56


 3120 0fa4 36       		.uleb128 0x36
 3121 0fa5 CE070000 		.4byte	0x7ce
 3122 0fa9 0C000000 		.4byte	.LBB435
 3123 0fad 60000000 		.4byte	.Ldebug_ranges0+0x60
 3124 0fb1 12       		.byte	0x12
 3125 0fb2 6B       		.byte	0x6b
 3126 0fb3 00       		.byte	0
 3127 0fb4 00       		.byte	0
 3128 0fb5 35       		.uleb128 0x35
 3129 0fb6 F8070000 		.4byte	0x7f8
 3130 0fba 10000000 		.4byte	.LBB440
 3131 0fbe 78000000 		.4byte	.Ldebug_ranges0+0x78
 3132 0fc2 14       		.byte	0x14
 3133 0fc3 FC       		.byte	0xfc
 3134 0fc4 2D       		.uleb128 0x2d
 3135 0fc5 78000000 		.4byte	.Ldebug_ranges0+0x78
 3136 0fc9 2E       		.uleb128 0x2e
 3137 0fca 05080000 		.4byte	0x805
 3138 0fce 2B       		.uleb128 0x2b
 3139 0fcf E3070000 		.4byte	0x7e3
 3140 0fd3 10000000 		.4byte	.LBB442
 3141 0fd7 78000000 		.4byte	.Ldebug_ranges0+0x78
 3142 0fdb 13       		.byte	0x13
 3143 0fdc 7301     		.2byte	0x173
 3144 0fde 2B       		.uleb128 0x2b
 3145 0fdf B4070000 		.4byte	0x7b4
 3146 0fe3 10000000 		.4byte	.LBB443
 3147 0fe7 78000000 		.4byte	.Ldebug_ranges0+0x78
 3148 0feb 0C       		.byte	0xc
 3149 0fec CD01     		.2byte	0x1cd
 3150 0fee 2C       		.uleb128 0x2c
 3151 0fef C1070000 		.4byte	0x7c1
 3152 0ff3 FB000000 		.4byte	.LLST9
 3153 0ff7 00       		.byte	0
 3154 0ff8 00       		.byte	0
 3155 0ff9 00       		.byte	0
 3156 0ffa 00       		.byte	0
 3157 0ffb 00       		.byte	0
 3158 0ffc 00       		.byte	0
 3159 0ffd 30       		.uleb128 0x30
 3160 0ffe 55080000 		.4byte	0x855
 3161 1002 32000000 		.4byte	.LBB451
 3162 1006 0A000000 		.4byte	.LBE451-.LBB451
 3163 100a 01       		.byte	0x1
 3164 100b C9       		.byte	0xc9
 3165 100c DC100000 		.4byte	0x10dc
 3166 1010 32       		.uleb128 0x32
 3167 1011 32000000 		.4byte	.LBB452
 3168 1015 0A000000 		.4byte	.LBE452-.LBB452
 3169 1019 2E       		.uleb128 0x2e
 3170 101a 65080000 		.4byte	0x865
 3171 101e 30       		.uleb128 0x30
 3172 101f 34080000 		.4byte	0x834
 3173 1023 32000000 		.4byte	.LBB453
 3174 1027 04000000 		.4byte	.LBE453-.LBB453
 3175 102b 14       		.byte	0x14
 3176 102c FA       		.byte	0xfa
ARM GAS  /tmp/ccMxQxU9.s 			page 57


 3177 102d 5D100000 		.4byte	0x105d
 3178 1031 31       		.uleb128 0x31
 3179 1032 DA070000 		.4byte	0x7da
 3180 1036 32000000 		.4byte	.LBB454
 3181 103a 04000000 		.4byte	.LBE454-.LBB454
 3182 103e 13       		.byte	0x13
 3183 103f 5C01     		.2byte	0x15c
 3184 1041 31       		.uleb128 0x31
 3185 1042 B4070000 		.4byte	0x7b4
 3186 1046 32000000 		.4byte	.LBB455
 3187 104a 04000000 		.4byte	.LBE455-.LBB455
 3188 104e 0C       		.byte	0xc
 3189 104f BF01     		.2byte	0x1bf
 3190 1051 2C       		.uleb128 0x2c
 3191 1052 C1070000 		.4byte	0x7c1
 3192 1056 0F010000 		.4byte	.LLST10
 3193 105a 00       		.byte	0
 3194 105b 00       		.byte	0
 3195 105c 00       		.byte	0
 3196 105d 30       		.uleb128 0x30
 3197 105e 28080000 		.4byte	0x828
 3198 1062 36000000 		.4byte	.LBB457
 3199 1066 02000000 		.4byte	.LBE457-.LBB457
 3200 106a 14       		.byte	0x14
 3201 106b FB       		.byte	0xfb
 3202 106c 90100000 		.4byte	0x1090
 3203 1070 37       		.uleb128 0x37
 3204 1071 EC070000 		.4byte	0x7ec
 3205 1075 36000000 		.4byte	.LBB458
 3206 1079 02000000 		.4byte	.LBE458-.LBB458
 3207 107d 14       		.byte	0x14
 3208 107e E9       		.byte	0xe9
 3209 107f 24       		.uleb128 0x24
 3210 1080 CE070000 		.4byte	0x7ce
 3211 1084 36000000 		.4byte	.LBB459
 3212 1088 02000000 		.4byte	.LBE459-.LBB459
 3213 108c 12       		.byte	0x12
 3214 108d 6B       		.byte	0x6b
 3215 108e 00       		.byte	0
 3216 108f 00       		.byte	0
 3217 1090 37       		.uleb128 0x37
 3218 1091 F8070000 		.4byte	0x7f8
 3219 1095 38000000 		.4byte	.LBB461
 3220 1099 04000000 		.4byte	.LBE461-.LBB461
 3221 109d 14       		.byte	0x14
 3222 109e FC       		.byte	0xfc
 3223 109f 32       		.uleb128 0x32
 3224 10a0 38000000 		.4byte	.LBB462
 3225 10a4 04000000 		.4byte	.LBE462-.LBB462
 3226 10a8 2E       		.uleb128 0x2e
 3227 10a9 05080000 		.4byte	0x805
 3228 10ad 31       		.uleb128 0x31
 3229 10ae E3070000 		.4byte	0x7e3
 3230 10b2 38000000 		.4byte	.LBB463
 3231 10b6 04000000 		.4byte	.LBE463-.LBB463
 3232 10ba 13       		.byte	0x13
 3233 10bb 7301     		.2byte	0x173
ARM GAS  /tmp/ccMxQxU9.s 			page 58


 3234 10bd 31       		.uleb128 0x31
 3235 10be B4070000 		.4byte	0x7b4
 3236 10c2 38000000 		.4byte	.LBB464
 3237 10c6 04000000 		.4byte	.LBE464-.LBB464
 3238 10ca 0C       		.byte	0xc
 3239 10cb CD01     		.2byte	0x1cd
 3240 10cd 2C       		.uleb128 0x2c
 3241 10ce C1070000 		.4byte	0x7c1
 3242 10d2 24010000 		.4byte	.LLST11
 3243 10d6 00       		.byte	0
 3244 10d7 00       		.byte	0
 3245 10d8 00       		.byte	0
 3246 10d9 00       		.byte	0
 3247 10da 00       		.byte	0
 3248 10db 00       		.byte	0
 3249 10dc 38       		.uleb128 0x38
 3250 10dd 90000000 		.4byte	.Ldebug_ranges0+0x90
 3251 10e1 08130000 		.4byte	0x1308
 3252 10e5 39       		.uleb128 0x39
 3253 10e6 7D080000 		.4byte	0x87d
 3254 10ea 38010000 		.4byte	.LLST12
 3255 10ee 30       		.uleb128 0x30
 3256 10ef 55080000 		.4byte	0x855
 3257 10f3 56000000 		.4byte	.LBB468
 3258 10f7 0A000000 		.4byte	.LBE468-.LBB468
 3259 10fb 01       		.byte	0x1
 3260 10fc D0       		.byte	0xd0
 3261 10fd CD110000 		.4byte	0x11cd
 3262 1101 32       		.uleb128 0x32
 3263 1102 56000000 		.4byte	.LBB469
 3264 1106 0A000000 		.4byte	.LBE469-.LBB469
 3265 110a 2E       		.uleb128 0x2e
 3266 110b 65080000 		.4byte	0x865
 3267 110f 30       		.uleb128 0x30
 3268 1110 34080000 		.4byte	0x834
 3269 1114 56000000 		.4byte	.LBB470
 3270 1118 04000000 		.4byte	.LBE470-.LBB470
 3271 111c 14       		.byte	0x14
 3272 111d FA       		.byte	0xfa
 3273 111e 4E110000 		.4byte	0x114e
 3274 1122 31       		.uleb128 0x31
 3275 1123 DA070000 		.4byte	0x7da
 3276 1127 56000000 		.4byte	.LBB471
 3277 112b 04000000 		.4byte	.LBE471-.LBB471
 3278 112f 13       		.byte	0x13
 3279 1130 5C01     		.2byte	0x15c
 3280 1132 31       		.uleb128 0x31
 3281 1133 B4070000 		.4byte	0x7b4
 3282 1137 56000000 		.4byte	.LBB472
 3283 113b 04000000 		.4byte	.LBE472-.LBB472
 3284 113f 0C       		.byte	0xc
 3285 1140 BF01     		.2byte	0x1bf
 3286 1142 2C       		.uleb128 0x2c
 3287 1143 C1070000 		.4byte	0x7c1
 3288 1147 56010000 		.4byte	.LLST13
 3289 114b 00       		.byte	0
 3290 114c 00       		.byte	0
ARM GAS  /tmp/ccMxQxU9.s 			page 59


 3291 114d 00       		.byte	0
 3292 114e 30       		.uleb128 0x30
 3293 114f 28080000 		.4byte	0x828
 3294 1153 5A000000 		.4byte	.LBB474
 3295 1157 02000000 		.4byte	.LBE474-.LBB474
 3296 115b 14       		.byte	0x14
 3297 115c FB       		.byte	0xfb
 3298 115d 81110000 		.4byte	0x1181
 3299 1161 37       		.uleb128 0x37
 3300 1162 EC070000 		.4byte	0x7ec
 3301 1166 5A000000 		.4byte	.LBB475
 3302 116a 02000000 		.4byte	.LBE475-.LBB475
 3303 116e 14       		.byte	0x14
 3304 116f E9       		.byte	0xe9
 3305 1170 24       		.uleb128 0x24
 3306 1171 CE070000 		.4byte	0x7ce
 3307 1175 5A000000 		.4byte	.LBB476
 3308 1179 02000000 		.4byte	.LBE476-.LBB476
 3309 117d 12       		.byte	0x12
 3310 117e 6B       		.byte	0x6b
 3311 117f 00       		.byte	0
 3312 1180 00       		.byte	0
 3313 1181 37       		.uleb128 0x37
 3314 1182 F8070000 		.4byte	0x7f8
 3315 1186 5C000000 		.4byte	.LBB478
 3316 118a 04000000 		.4byte	.LBE478-.LBB478
 3317 118e 14       		.byte	0x14
 3318 118f FC       		.byte	0xfc
 3319 1190 32       		.uleb128 0x32
 3320 1191 5C000000 		.4byte	.LBB479
 3321 1195 04000000 		.4byte	.LBE479-.LBB479
 3322 1199 2E       		.uleb128 0x2e
 3323 119a 05080000 		.4byte	0x805
 3324 119e 31       		.uleb128 0x31
 3325 119f E3070000 		.4byte	0x7e3
 3326 11a3 5C000000 		.4byte	.LBB480
 3327 11a7 04000000 		.4byte	.LBE480-.LBB480
 3328 11ab 13       		.byte	0x13
 3329 11ac 7301     		.2byte	0x173
 3330 11ae 31       		.uleb128 0x31
 3331 11af B4070000 		.4byte	0x7b4
 3332 11b3 5C000000 		.4byte	.LBB481
 3333 11b7 04000000 		.4byte	.LBE481-.LBB481
 3334 11bb 0C       		.byte	0xc
 3335 11bc CD01     		.2byte	0x1cd
 3336 11be 2C       		.uleb128 0x2c
 3337 11bf C1070000 		.4byte	0x7c1
 3338 11c3 6B010000 		.4byte	.LLST14
 3339 11c7 00       		.byte	0
 3340 11c8 00       		.byte	0
 3341 11c9 00       		.byte	0
 3342 11ca 00       		.byte	0
 3343 11cb 00       		.byte	0
 3344 11cc 00       		.byte	0
 3345 11cd 30       		.uleb128 0x30
 3346 11ce 55080000 		.4byte	0x855
 3347 11d2 7C000000 		.4byte	.LBB483
ARM GAS  /tmp/ccMxQxU9.s 			page 60


 3348 11d6 0A000000 		.4byte	.LBE483-.LBB483
 3349 11da 01       		.byte	0x1
 3350 11db D7       		.byte	0xd7
 3351 11dc AC120000 		.4byte	0x12ac
 3352 11e0 32       		.uleb128 0x32
 3353 11e1 7C000000 		.4byte	.LBB484
 3354 11e5 0A000000 		.4byte	.LBE484-.LBB484
 3355 11e9 2E       		.uleb128 0x2e
 3356 11ea 65080000 		.4byte	0x865
 3357 11ee 30       		.uleb128 0x30
 3358 11ef 34080000 		.4byte	0x834
 3359 11f3 7C000000 		.4byte	.LBB485
 3360 11f7 04000000 		.4byte	.LBE485-.LBB485
 3361 11fb 14       		.byte	0x14
 3362 11fc FA       		.byte	0xfa
 3363 11fd 2D120000 		.4byte	0x122d
 3364 1201 31       		.uleb128 0x31
 3365 1202 DA070000 		.4byte	0x7da
 3366 1206 7C000000 		.4byte	.LBB486
 3367 120a 04000000 		.4byte	.LBE486-.LBB486
 3368 120e 13       		.byte	0x13
 3369 120f 5C01     		.2byte	0x15c
 3370 1211 31       		.uleb128 0x31
 3371 1212 B4070000 		.4byte	0x7b4
 3372 1216 7C000000 		.4byte	.LBB487
 3373 121a 04000000 		.4byte	.LBE487-.LBB487
 3374 121e 0C       		.byte	0xc
 3375 121f BF01     		.2byte	0x1bf
 3376 1221 2C       		.uleb128 0x2c
 3377 1222 C1070000 		.4byte	0x7c1
 3378 1226 7F010000 		.4byte	.LLST15
 3379 122a 00       		.byte	0
 3380 122b 00       		.byte	0
 3381 122c 00       		.byte	0
 3382 122d 30       		.uleb128 0x30
 3383 122e 28080000 		.4byte	0x828
 3384 1232 80000000 		.4byte	.LBB489
 3385 1236 02000000 		.4byte	.LBE489-.LBB489
 3386 123a 14       		.byte	0x14
 3387 123b FB       		.byte	0xfb
 3388 123c 60120000 		.4byte	0x1260
 3389 1240 37       		.uleb128 0x37
 3390 1241 EC070000 		.4byte	0x7ec
 3391 1245 80000000 		.4byte	.LBB490
 3392 1249 02000000 		.4byte	.LBE490-.LBB490
 3393 124d 14       		.byte	0x14
 3394 124e E9       		.byte	0xe9
 3395 124f 24       		.uleb128 0x24
 3396 1250 CE070000 		.4byte	0x7ce
 3397 1254 80000000 		.4byte	.LBB491
 3398 1258 02000000 		.4byte	.LBE491-.LBB491
 3399 125c 12       		.byte	0x12
 3400 125d 6B       		.byte	0x6b
 3401 125e 00       		.byte	0
 3402 125f 00       		.byte	0
 3403 1260 37       		.uleb128 0x37
 3404 1261 F8070000 		.4byte	0x7f8
ARM GAS  /tmp/ccMxQxU9.s 			page 61


 3405 1265 82000000 		.4byte	.LBB493
 3406 1269 04000000 		.4byte	.LBE493-.LBB493
 3407 126d 14       		.byte	0x14
 3408 126e FC       		.byte	0xfc
 3409 126f 32       		.uleb128 0x32
 3410 1270 82000000 		.4byte	.LBB494
 3411 1274 04000000 		.4byte	.LBE494-.LBB494
 3412 1278 2E       		.uleb128 0x2e
 3413 1279 05080000 		.4byte	0x805
 3414 127d 31       		.uleb128 0x31
 3415 127e E3070000 		.4byte	0x7e3
 3416 1282 82000000 		.4byte	.LBB495
 3417 1286 04000000 		.4byte	.LBE495-.LBB495
 3418 128a 13       		.byte	0x13
 3419 128b 7301     		.2byte	0x173
 3420 128d 31       		.uleb128 0x31
 3421 128e B4070000 		.4byte	0x7b4
 3422 1292 82000000 		.4byte	.LBB496
 3423 1296 04000000 		.4byte	.LBE496-.LBB496
 3424 129a 0C       		.byte	0xc
 3425 129b CD01     		.2byte	0x1cd
 3426 129d 2C       		.uleb128 0x2c
 3427 129e C1070000 		.4byte	0x7c1
 3428 12a2 94010000 		.4byte	.LLST16
 3429 12a6 00       		.byte	0
 3430 12a7 00       		.byte	0
 3431 12a8 00       		.byte	0
 3432 12a9 00       		.byte	0
 3433 12aa 00       		.byte	0
 3434 12ab 00       		.byte	0
 3435 12ac 25       		.uleb128 0x25
 3436 12ad 68000000 		.4byte	.LVL68
 3437 12b1 9D140000 		.4byte	0x149d
 3438 12b5 C1120000 		.4byte	0x12c1
 3439 12b9 26       		.uleb128 0x26
 3440 12ba 01       		.uleb128 0x1
 3441 12bb 50       		.byte	0x50
 3442 12bc 03       		.uleb128 0x3
 3443 12bd 0A       		.byte	0xa
 3444 12be 1027     		.2byte	0x2710
 3445 12c0 00       		.byte	0
 3446 12c1 25       		.uleb128 0x25
 3447 12c2 78000000 		.4byte	.LVL69
 3448 12c6 A8140000 		.4byte	0x14a8
 3449 12ca E4120000 		.4byte	0x12e4
 3450 12ce 26       		.uleb128 0x26
 3451 12cf 01       		.uleb128 0x1
 3452 12d0 50       		.byte	0x50
 3453 12d1 01       		.uleb128 0x1
 3454 12d2 33       		.byte	0x33
 3455 12d3 26       		.uleb128 0x26
 3456 12d4 01       		.uleb128 0x1
 3457 12d5 51       		.byte	0x51
 3458 12d6 04       		.uleb128 0x4
 3459 12d7 74       		.byte	0x74
 3460 12d8 90CE00   		.sleb128 10000
 3461 12db 26       		.uleb128 0x26
ARM GAS  /tmp/ccMxQxU9.s 			page 62


 3462 12dc 01       		.uleb128 0x1
 3463 12dd 52       		.byte	0x52
 3464 12de 04       		.uleb128 0x4
 3465 12df 74       		.byte	0x74
 3466 12e0 93CE00   		.sleb128 10003
 3467 12e3 00       		.byte	0
 3468 12e4 25       		.uleb128 0x25
 3469 12e5 90000000 		.4byte	.LVL75
 3470 12e9 B3140000 		.4byte	0x14b3
 3471 12ed F8120000 		.4byte	0x12f8
 3472 12f1 26       		.uleb128 0x26
 3473 12f2 01       		.uleb128 0x1
 3474 12f3 50       		.byte	0x50
 3475 12f4 02       		.uleb128 0x2
 3476 12f5 75       		.byte	0x75
 3477 12f6 00       		.sleb128 0
 3478 12f7 00       		.byte	0
 3479 12f8 28       		.uleb128 0x28
 3480 12f9 A0000000 		.4byte	.LVL77
 3481 12fd A8140000 		.4byte	0x14a8
 3482 1301 26       		.uleb128 0x26
 3483 1302 01       		.uleb128 0x1
 3484 1303 50       		.byte	0x50
 3485 1304 01       		.uleb128 0x1
 3486 1305 34       		.byte	0x34
 3487 1306 00       		.byte	0
 3488 1307 00       		.byte	0
 3489 1308 27       		.uleb128 0x27
 3490 1309 06000000 		.4byte	.LVL52
 3491 130d BE140000 		.4byte	0x14be
 3492 1311 25       		.uleb128 0x25
 3493 1312 20000000 		.4byte	.LVL56
 3494 1316 9D140000 		.4byte	0x149d
 3495 131a 26130000 		.4byte	0x1326
 3496 131e 26       		.uleb128 0x26
 3497 131f 01       		.uleb128 0x1
 3498 1320 50       		.byte	0x50
 3499 1321 03       		.uleb128 0x3
 3500 1322 0A       		.byte	0xa
 3501 1323 E803     		.2byte	0x3e8
 3502 1325 00       		.byte	0
 3503 1326 25       		.uleb128 0x25
 3504 1327 2E000000 		.4byte	.LVL57
 3505 132b A8140000 		.4byte	0x14a8
 3506 132f 47130000 		.4byte	0x1347
 3507 1333 26       		.uleb128 0x26
 3508 1334 01       		.uleb128 0x1
 3509 1335 50       		.byte	0x50
 3510 1336 01       		.uleb128 0x1
 3511 1337 31       		.byte	0x31
 3512 1338 26       		.uleb128 0x26
 3513 1339 01       		.uleb128 0x1
 3514 133a 51       		.byte	0x51
 3515 133b 03       		.uleb128 0x3
 3516 133c 74       		.byte	0x74
 3517 133d E807     		.sleb128 1000
 3518 133f 26       		.uleb128 0x26
ARM GAS  /tmp/ccMxQxU9.s 			page 63


 3519 1340 01       		.uleb128 0x1
 3520 1341 52       		.byte	0x52
 3521 1342 03       		.uleb128 0x3
 3522 1343 74       		.byte	0x74
 3523 1344 EB07     		.sleb128 1003
 3524 1346 00       		.byte	0
 3525 1347 25       		.uleb128 0x25
 3526 1348 44000000 		.4byte	.LVL62
 3527 134c 9D140000 		.4byte	0x149d
 3528 1350 5C130000 		.4byte	0x135c
 3529 1354 26       		.uleb128 0x26
 3530 1355 01       		.uleb128 0x1
 3531 1356 50       		.byte	0x50
 3532 1357 03       		.uleb128 0x3
 3533 1358 0A       		.byte	0xa
 3534 1359 E803     		.2byte	0x3e8
 3535 135b 00       		.byte	0
 3536 135c 33       		.uleb128 0x33
 3537 135d 52000000 		.4byte	.LVL63
 3538 1361 A8140000 		.4byte	0x14a8
 3539 1365 26       		.uleb128 0x26
 3540 1366 01       		.uleb128 0x1
 3541 1367 50       		.byte	0x50
 3542 1368 01       		.uleb128 0x1
 3543 1369 32       		.byte	0x32
 3544 136a 26       		.uleb128 0x26
 3545 136b 01       		.uleb128 0x1
 3546 136c 51       		.byte	0x51
 3547 136d 03       		.uleb128 0x3
 3548 136e 74       		.byte	0x74
 3549 136f E807     		.sleb128 1000
 3550 1371 26       		.uleb128 0x26
 3551 1372 01       		.uleb128 0x1
 3552 1373 52       		.byte	0x52
 3553 1374 03       		.uleb128 0x3
 3554 1375 74       		.byte	0x74
 3555 1376 EB07     		.sleb128 1003
 3556 1378 00       		.byte	0
 3557 1379 00       		.byte	0
 3558 137a 3A       		.uleb128 0x3a
 3559 137b 82010000 		.4byte	.LASF137
 3560 137f 15       		.byte	0x15
 3561 1380 A706     		.2byte	0x6a7
 3562 1382 D1000000 		.4byte	0xd1
 3563 1386 3B       		.uleb128 0x3b
 3564 1387 636800   		.ascii	"ch\000"
 3565 138a 0A       		.byte	0xa
 3566 138b 0902     		.2byte	0x209
 3567 138d ED030000 		.4byte	0x3ed
 3568 1391 10       		.uleb128 0x10
 3569 1392 41020000 		.4byte	0x241
 3570 1396 A1130000 		.4byte	0x13a1
 3571 139a 11       		.uleb128 0x11
 3572 139b 54040000 		.4byte	0x454
 3573 139f 04       		.byte	0x4
 3574 13a0 00       		.byte	0
 3575 13a1 3C       		.uleb128 0x3c
ARM GAS  /tmp/ccMxQxU9.s 			page 64


 3576 13a2 68050000 		.4byte	.LASF138
 3577 13a6 11       		.byte	0x11
 3578 13a7 A7       		.byte	0xa7
 3579 13a8 91130000 		.4byte	0x1391
 3580 13ac 10       		.uleb128 0x10
 3581 13ad B7130000 		.4byte	0x13b7
 3582 13b1 B7130000 		.4byte	0x13b7
 3583 13b5 3D       		.uleb128 0x3d
 3584 13b6 00       		.byte	0
 3585 13b7 18       		.uleb128 0x18
 3586 13b8 1E030000 		.4byte	0x31e
 3587 13bc 3E       		.uleb128 0x3e
 3588 13bd 776100   		.ascii	"wa\000"
 3589 13c0 11       		.byte	0x11
 3590 13c1 A9       		.byte	0xa9
 3591 13c2 C6130000 		.4byte	0x13c6
 3592 13c6 18       		.uleb128 0x18
 3593 13c7 AC130000 		.4byte	0x13ac
 3594 13cb 3F       		.uleb128 0x3f
 3595 13cc F7030000 		.4byte	.LASF139
 3596 13d0 01       		.byte	0x1
 3597 13d1 4C       		.byte	0x4c
 3598 13d2 DC130000 		.4byte	0x13dc
 3599 13d6 05       		.uleb128 0x5
 3600 13d7 03       		.byte	0x3
 3601 13d8 00000000 		.4byte	testthd1
 3602 13dc 18       		.uleb128 0x18
 3603 13dd 70070000 		.4byte	0x770
 3604 13e1 3F       		.uleb128 0x3f
 3605 13e2 00040000 		.4byte	.LASF140
 3606 13e6 01       		.byte	0x1
 3607 13e7 6C       		.byte	0x6c
 3608 13e8 DC130000 		.4byte	0x13dc
 3609 13ec 05       		.uleb128 0x5
 3610 13ed 03       		.byte	0x3
 3611 13ee 00000000 		.4byte	testthd2
 3612 13f2 3F       		.uleb128 0x3f
 3613 13f3 7E020000 		.4byte	.LASF141
 3614 13f7 01       		.byte	0x1
 3615 13f8 AD       		.byte	0xad
 3616 13f9 DC130000 		.4byte	0x13dc
 3617 13fd 05       		.uleb128 0x5
 3618 13fe 03       		.byte	0x3
 3619 13ff 00000000 		.4byte	testthd3
 3620 1403 3F       		.uleb128 0x3f
 3621 1404 20040000 		.4byte	.LASF142
 3622 1408 01       		.byte	0x1
 3623 1409 DE       		.byte	0xde
 3624 140a DC130000 		.4byte	0x13dc
 3625 140e 05       		.uleb128 0x5
 3626 140f 03       		.byte	0x3
 3627 1410 00000000 		.4byte	testthd4
 3628 1414 10       		.uleb128 0x10
 3629 1415 2A140000 		.4byte	0x142a
 3630 1419 24140000 		.4byte	0x1424
 3631 141d 11       		.uleb128 0x11
 3632 141e 54040000 		.4byte	0x454
ARM GAS  /tmp/ccMxQxU9.s 			page 65


 3633 1422 04       		.byte	0x4
 3634 1423 00       		.byte	0
 3635 1424 0A       		.uleb128 0xa
 3636 1425 04       		.byte	0x4
 3637 1426 DC130000 		.4byte	0x13dc
 3638 142a 18       		.uleb128 0x18
 3639 142b 24140000 		.4byte	0x1424
 3640 142f 3F       		.uleb128 0x3f
 3641 1430 59060000 		.4byte	.LASF143
 3642 1434 01       		.byte	0x1
 3643 1435 E8       		.byte	0xe8
 3644 1436 40140000 		.4byte	0x1440
 3645 143a 05       		.uleb128 0x5
 3646 143b 03       		.byte	0x3
 3647 143c 00000000 		.4byte	patternthd
 3648 1440 18       		.uleb128 0x18
 3649 1441 14140000 		.4byte	0x1414
 3650 1445 40       		.uleb128 0x40
 3651 1446 D2030000 		.4byte	.LASF144
 3652 144a D2030000 		.4byte	.LASF144
 3653 144e 02       		.byte	0x2
 3654 144f 89       		.byte	0x89
 3655 1450 40       		.uleb128 0x40
 3656 1451 52040000 		.4byte	.LASF145
 3657 1455 52040000 		.4byte	.LASF145
 3658 1459 11       		.byte	0x11
 3659 145a 5E       		.byte	0x5e
 3660 145b 40       		.uleb128 0x40
 3661 145c D8020000 		.4byte	.LASF146
 3662 1460 D8020000 		.4byte	.LASF146
 3663 1464 11       		.byte	0x11
 3664 1465 5B       		.byte	0x5b
 3665 1466 40       		.uleb128 0x40
 3666 1467 00020000 		.4byte	.LASF147
 3667 146b 00020000 		.4byte	.LASF147
 3668 146f 11       		.byte	0x11
 3669 1470 58       		.byte	0x58
 3670 1471 40       		.uleb128 0x40
 3671 1472 23020000 		.4byte	.LASF148
 3672 1476 23020000 		.4byte	.LASF148
 3673 147a 02       		.byte	0x2
 3674 147b 87       		.byte	0x87
 3675 147c 40       		.uleb128 0x40
 3676 147d BE040000 		.4byte	.LASF149
 3677 1481 BE040000 		.4byte	.LASF149
 3678 1485 02       		.byte	0x2
 3679 1486 8B       		.byte	0x8b
 3680 1487 40       		.uleb128 0x40
 3681 1488 FC020000 		.4byte	.LASF150
 3682 148c FC020000 		.4byte	.LASF150
 3683 1490 02       		.byte	0x2
 3684 1491 8C       		.byte	0x8c
 3685 1492 40       		.uleb128 0x40
 3686 1493 44070000 		.4byte	.LASF151
 3687 1497 44070000 		.4byte	.LASF151
 3688 149b 11       		.byte	0x11
 3689 149c 5A       		.byte	0x5a
ARM GAS  /tmp/ccMxQxU9.s 			page 66


 3690 149d 40       		.uleb128 0x40
 3691 149e D7050000 		.4byte	.LASF152
 3692 14a2 D7050000 		.4byte	.LASF152
 3693 14a6 02       		.byte	0x2
 3694 14a7 96       		.byte	0x96
 3695 14a8 40       		.uleb128 0x40
 3696 14a9 52020000 		.4byte	.LASF153
 3697 14ad 52020000 		.4byte	.LASF153
 3698 14b1 11       		.byte	0x11
 3699 14b2 5C       		.byte	0x5c
 3700 14b3 40       		.uleb128 0x40
 3701 14b4 AE040000 		.4byte	.LASF154
 3702 14b8 AE040000 		.4byte	.LASF154
 3703 14bc 02       		.byte	0x2
 3704 14bd 97       		.byte	0x97
 3705 14be 40       		.uleb128 0x40
 3706 14bf 35050000 		.4byte	.LASF155
 3707 14c3 35050000 		.4byte	.LASF155
 3708 14c7 11       		.byte	0x11
 3709 14c8 5F       		.byte	0x5f
 3710 14c9 00       		.byte	0
 3711              		.section	.debug_abbrev,"",%progbits
 3712              	.Ldebug_abbrev0:
 3713 0000 01       		.uleb128 0x1
 3714 0001 11       		.uleb128 0x11
 3715 0002 01       		.byte	0x1
 3716 0003 25       		.uleb128 0x25
 3717 0004 0E       		.uleb128 0xe
 3718 0005 13       		.uleb128 0x13
 3719 0006 0B       		.uleb128 0xb
 3720 0007 03       		.uleb128 0x3
 3721 0008 0E       		.uleb128 0xe
 3722 0009 55       		.uleb128 0x55
 3723 000a 17       		.uleb128 0x17
 3724 000b 11       		.uleb128 0x11
 3725 000c 01       		.uleb128 0x1
 3726 000d 10       		.uleb128 0x10
 3727 000e 17       		.uleb128 0x17
 3728 000f 00       		.byte	0
 3729 0010 00       		.byte	0
 3730 0011 02       		.uleb128 0x2
 3731 0012 24       		.uleb128 0x24
 3732 0013 00       		.byte	0
 3733 0014 0B       		.uleb128 0xb
 3734 0015 0B       		.uleb128 0xb
 3735 0016 3E       		.uleb128 0x3e
 3736 0017 0B       		.uleb128 0xb
 3737 0018 03       		.uleb128 0x3
 3738 0019 08       		.uleb128 0x8
 3739 001a 00       		.byte	0
 3740 001b 00       		.byte	0
 3741 001c 03       		.uleb128 0x3
 3742 001d 16       		.uleb128 0x16
 3743 001e 00       		.byte	0
 3744 001f 03       		.uleb128 0x3
 3745 0020 0E       		.uleb128 0xe
 3746 0021 3A       		.uleb128 0x3a
ARM GAS  /tmp/ccMxQxU9.s 			page 67


 3747 0022 0B       		.uleb128 0xb
 3748 0023 3B       		.uleb128 0x3b
 3749 0024 0B       		.uleb128 0xb
 3750 0025 49       		.uleb128 0x49
 3751 0026 13       		.uleb128 0x13
 3752 0027 00       		.byte	0
 3753 0028 00       		.byte	0
 3754 0029 04       		.uleb128 0x4
 3755 002a 24       		.uleb128 0x24
 3756 002b 00       		.byte	0
 3757 002c 0B       		.uleb128 0xb
 3758 002d 0B       		.uleb128 0xb
 3759 002e 3E       		.uleb128 0x3e
 3760 002f 0B       		.uleb128 0xb
 3761 0030 03       		.uleb128 0x3
 3762 0031 0E       		.uleb128 0xe
 3763 0032 00       		.byte	0
 3764 0033 00       		.byte	0
 3765 0034 05       		.uleb128 0x5
 3766 0035 35       		.uleb128 0x35
 3767 0036 00       		.byte	0
 3768 0037 49       		.uleb128 0x49
 3769 0038 13       		.uleb128 0x13
 3770 0039 00       		.byte	0
 3771 003a 00       		.byte	0
 3772 003b 06       		.uleb128 0x6
 3773 003c 13       		.uleb128 0x13
 3774 003d 01       		.byte	0x1
 3775 003e 03       		.uleb128 0x3
 3776 003f 0E       		.uleb128 0xe
 3777 0040 0B       		.uleb128 0xb
 3778 0041 0B       		.uleb128 0xb
 3779 0042 3A       		.uleb128 0x3a
 3780 0043 0B       		.uleb128 0xb
 3781 0044 3B       		.uleb128 0x3b
 3782 0045 0B       		.uleb128 0xb
 3783 0046 01       		.uleb128 0x1
 3784 0047 13       		.uleb128 0x13
 3785 0048 00       		.byte	0
 3786 0049 00       		.byte	0
 3787 004a 07       		.uleb128 0x7
 3788 004b 0D       		.uleb128 0xd
 3789 004c 00       		.byte	0
 3790 004d 03       		.uleb128 0x3
 3791 004e 0E       		.uleb128 0xe
 3792 004f 3A       		.uleb128 0x3a
 3793 0050 0B       		.uleb128 0xb
 3794 0051 3B       		.uleb128 0x3b
 3795 0052 0B       		.uleb128 0xb
 3796 0053 49       		.uleb128 0x49
 3797 0054 13       		.uleb128 0x13
 3798 0055 38       		.uleb128 0x38
 3799 0056 0B       		.uleb128 0xb
 3800 0057 00       		.byte	0
 3801 0058 00       		.byte	0
 3802 0059 08       		.uleb128 0x8
 3803 005a 0D       		.uleb128 0xd
ARM GAS  /tmp/ccMxQxU9.s 			page 68


 3804 005b 00       		.byte	0
 3805 005c 03       		.uleb128 0x3
 3806 005d 08       		.uleb128 0x8
 3807 005e 3A       		.uleb128 0x3a
 3808 005f 0B       		.uleb128 0xb
 3809 0060 3B       		.uleb128 0x3b
 3810 0061 05       		.uleb128 0x5
 3811 0062 49       		.uleb128 0x49
 3812 0063 13       		.uleb128 0x13
 3813 0064 38       		.uleb128 0x38
 3814 0065 0B       		.uleb128 0xb
 3815 0066 00       		.byte	0
 3816 0067 00       		.byte	0
 3817 0068 09       		.uleb128 0x9
 3818 0069 0D       		.uleb128 0xd
 3819 006a 00       		.byte	0
 3820 006b 03       		.uleb128 0x3
 3821 006c 0E       		.uleb128 0xe
 3822 006d 3A       		.uleb128 0x3a
 3823 006e 0B       		.uleb128 0xb
 3824 006f 3B       		.uleb128 0x3b
 3825 0070 05       		.uleb128 0x5
 3826 0071 49       		.uleb128 0x49
 3827 0072 13       		.uleb128 0x13
 3828 0073 38       		.uleb128 0x38
 3829 0074 0B       		.uleb128 0xb
 3830 0075 00       		.byte	0
 3831 0076 00       		.byte	0
 3832 0077 0A       		.uleb128 0xa
 3833 0078 0F       		.uleb128 0xf
 3834 0079 00       		.byte	0
 3835 007a 0B       		.uleb128 0xb
 3836 007b 0B       		.uleb128 0xb
 3837 007c 49       		.uleb128 0x49
 3838 007d 13       		.uleb128 0x13
 3839 007e 00       		.byte	0
 3840 007f 00       		.byte	0
 3841 0080 0B       		.uleb128 0xb
 3842 0081 13       		.uleb128 0x13
 3843 0082 01       		.byte	0x1
 3844 0083 03       		.uleb128 0x3
 3845 0084 0E       		.uleb128 0xe
 3846 0085 0B       		.uleb128 0xb
 3847 0086 0B       		.uleb128 0xb
 3848 0087 3A       		.uleb128 0x3a
 3849 0088 0B       		.uleb128 0xb
 3850 0089 3B       		.uleb128 0x3b
 3851 008a 05       		.uleb128 0x5
 3852 008b 01       		.uleb128 0x1
 3853 008c 13       		.uleb128 0x13
 3854 008d 00       		.byte	0
 3855 008e 00       		.byte	0
 3856 008f 0C       		.uleb128 0xc
 3857 0090 15       		.uleb128 0x15
 3858 0091 01       		.byte	0x1
 3859 0092 27       		.uleb128 0x27
 3860 0093 19       		.uleb128 0x19
ARM GAS  /tmp/ccMxQxU9.s 			page 69


 3861 0094 01       		.uleb128 0x1
 3862 0095 13       		.uleb128 0x13
 3863 0096 00       		.byte	0
 3864 0097 00       		.byte	0
 3865 0098 0D       		.uleb128 0xd
 3866 0099 05       		.uleb128 0x5
 3867 009a 00       		.byte	0
 3868 009b 49       		.uleb128 0x49
 3869 009c 13       		.uleb128 0x13
 3870 009d 00       		.byte	0
 3871 009e 00       		.byte	0
 3872 009f 0E       		.uleb128 0xe
 3873 00a0 0F       		.uleb128 0xf
 3874 00a1 00       		.byte	0
 3875 00a2 0B       		.uleb128 0xb
 3876 00a3 0B       		.uleb128 0xb
 3877 00a4 00       		.byte	0
 3878 00a5 00       		.byte	0
 3879 00a6 0F       		.uleb128 0xf
 3880 00a7 13       		.uleb128 0x13
 3881 00a8 01       		.byte	0x1
 3882 00a9 03       		.uleb128 0x3
 3883 00aa 0E       		.uleb128 0xe
 3884 00ab 0B       		.uleb128 0xb
 3885 00ac 05       		.uleb128 0x5
 3886 00ad 3A       		.uleb128 0x3a
 3887 00ae 0B       		.uleb128 0xb
 3888 00af 3B       		.uleb128 0x3b
 3889 00b0 05       		.uleb128 0x5
 3890 00b1 01       		.uleb128 0x1
 3891 00b2 13       		.uleb128 0x13
 3892 00b3 00       		.byte	0
 3893 00b4 00       		.byte	0
 3894 00b5 10       		.uleb128 0x10
 3895 00b6 01       		.uleb128 0x1
 3896 00b7 01       		.byte	0x1
 3897 00b8 49       		.uleb128 0x49
 3898 00b9 13       		.uleb128 0x13
 3899 00ba 01       		.uleb128 0x1
 3900 00bb 13       		.uleb128 0x13
 3901 00bc 00       		.byte	0
 3902 00bd 00       		.byte	0
 3903 00be 11       		.uleb128 0x11
 3904 00bf 21       		.uleb128 0x21
 3905 00c0 00       		.byte	0
 3906 00c1 49       		.uleb128 0x49
 3907 00c2 13       		.uleb128 0x13
 3908 00c3 2F       		.uleb128 0x2f
 3909 00c4 0B       		.uleb128 0xb
 3910 00c5 00       		.byte	0
 3911 00c6 00       		.byte	0
 3912 00c7 12       		.uleb128 0x12
 3913 00c8 0D       		.uleb128 0xd
 3914 00c9 00       		.byte	0
 3915 00ca 03       		.uleb128 0x3
 3916 00cb 08       		.uleb128 0x8
 3917 00cc 3A       		.uleb128 0x3a
ARM GAS  /tmp/ccMxQxU9.s 			page 70


 3918 00cd 0B       		.uleb128 0xb
 3919 00ce 3B       		.uleb128 0x3b
 3920 00cf 0B       		.uleb128 0xb
 3921 00d0 49       		.uleb128 0x49
 3922 00d1 13       		.uleb128 0x13
 3923 00d2 38       		.uleb128 0x38
 3924 00d3 0B       		.uleb128 0xb
 3925 00d4 00       		.byte	0
 3926 00d5 00       		.byte	0
 3927 00d6 13       		.uleb128 0x13
 3928 00d7 13       		.uleb128 0x13
 3929 00d8 01       		.byte	0x1
 3930 00d9 0B       		.uleb128 0xb
 3931 00da 0B       		.uleb128 0xb
 3932 00db 3A       		.uleb128 0x3a
 3933 00dc 0B       		.uleb128 0xb
 3934 00dd 3B       		.uleb128 0x3b
 3935 00de 05       		.uleb128 0x5
 3936 00df 01       		.uleb128 0x1
 3937 00e0 13       		.uleb128 0x13
 3938 00e1 00       		.byte	0
 3939 00e2 00       		.byte	0
 3940 00e3 14       		.uleb128 0x14
 3941 00e4 16       		.uleb128 0x16
 3942 00e5 00       		.byte	0
 3943 00e6 03       		.uleb128 0x3
 3944 00e7 0E       		.uleb128 0xe
 3945 00e8 3A       		.uleb128 0x3a
 3946 00e9 0B       		.uleb128 0xb
 3947 00ea 3B       		.uleb128 0x3b
 3948 00eb 05       		.uleb128 0x5
 3949 00ec 49       		.uleb128 0x49
 3950 00ed 13       		.uleb128 0x13
 3951 00ee 00       		.byte	0
 3952 00ef 00       		.byte	0
 3953 00f0 15       		.uleb128 0x15
 3954 00f1 13       		.uleb128 0x13
 3955 00f2 01       		.byte	0x1
 3956 00f3 0B       		.uleb128 0xb
 3957 00f4 0B       		.uleb128 0xb
 3958 00f5 3A       		.uleb128 0x3a
 3959 00f6 0B       		.uleb128 0xb
 3960 00f7 3B       		.uleb128 0x3b
 3961 00f8 0B       		.uleb128 0xb
 3962 00f9 01       		.uleb128 0x1
 3963 00fa 13       		.uleb128 0x13
 3964 00fb 00       		.byte	0
 3965 00fc 00       		.byte	0
 3966 00fd 16       		.uleb128 0x16
 3967 00fe 17       		.uleb128 0x17
 3968 00ff 01       		.byte	0x1
 3969 0100 0B       		.uleb128 0xb
 3970 0101 0B       		.uleb128 0xb
 3971 0102 3A       		.uleb128 0x3a
 3972 0103 0B       		.uleb128 0xb
 3973 0104 3B       		.uleb128 0x3b
 3974 0105 0B       		.uleb128 0xb
ARM GAS  /tmp/ccMxQxU9.s 			page 71


 3975 0106 01       		.uleb128 0x1
 3976 0107 13       		.uleb128 0x13
 3977 0108 00       		.byte	0
 3978 0109 00       		.byte	0
 3979 010a 17       		.uleb128 0x17
 3980 010b 0D       		.uleb128 0xd
 3981 010c 00       		.byte	0
 3982 010d 03       		.uleb128 0x3
 3983 010e 0E       		.uleb128 0xe
 3984 010f 3A       		.uleb128 0x3a
 3985 0110 0B       		.uleb128 0xb
 3986 0111 3B       		.uleb128 0x3b
 3987 0112 05       		.uleb128 0x5
 3988 0113 49       		.uleb128 0x49
 3989 0114 13       		.uleb128 0x13
 3990 0115 00       		.byte	0
 3991 0116 00       		.byte	0
 3992 0117 18       		.uleb128 0x18
 3993 0118 26       		.uleb128 0x26
 3994 0119 00       		.byte	0
 3995 011a 49       		.uleb128 0x49
 3996 011b 13       		.uleb128 0x13
 3997 011c 00       		.byte	0
 3998 011d 00       		.byte	0
 3999 011e 19       		.uleb128 0x19
 4000 011f 15       		.uleb128 0x15
 4001 0120 00       		.byte	0
 4002 0121 27       		.uleb128 0x27
 4003 0122 19       		.uleb128 0x19
 4004 0123 00       		.byte	0
 4005 0124 00       		.byte	0
 4006 0125 1A       		.uleb128 0x1a
 4007 0126 2E       		.uleb128 0x2e
 4008 0127 01       		.byte	0x1
 4009 0128 03       		.uleb128 0x3
 4010 0129 0E       		.uleb128 0xe
 4011 012a 3A       		.uleb128 0x3a
 4012 012b 0B       		.uleb128 0xb
 4013 012c 3B       		.uleb128 0x3b
 4014 012d 05       		.uleb128 0x5
 4015 012e 27       		.uleb128 0x27
 4016 012f 19       		.uleb128 0x19
 4017 0130 20       		.uleb128 0x20
 4018 0131 0B       		.uleb128 0xb
 4019 0132 01       		.uleb128 0x1
 4020 0133 13       		.uleb128 0x13
 4021 0134 00       		.byte	0
 4022 0135 00       		.byte	0
 4023 0136 1B       		.uleb128 0x1b
 4024 0137 05       		.uleb128 0x5
 4025 0138 00       		.byte	0
 4026 0139 03       		.uleb128 0x3
 4027 013a 0E       		.uleb128 0xe
 4028 013b 3A       		.uleb128 0x3a
 4029 013c 0B       		.uleb128 0xb
 4030 013d 3B       		.uleb128 0x3b
 4031 013e 05       		.uleb128 0x5
ARM GAS  /tmp/ccMxQxU9.s 			page 72


 4032 013f 49       		.uleb128 0x49
 4033 0140 13       		.uleb128 0x13
 4034 0141 00       		.byte	0
 4035 0142 00       		.byte	0
 4036 0143 1C       		.uleb128 0x1c
 4037 0144 2E       		.uleb128 0x2e
 4038 0145 00       		.byte	0
 4039 0146 03       		.uleb128 0x3
 4040 0147 0E       		.uleb128 0xe
 4041 0148 3A       		.uleb128 0x3a
 4042 0149 0B       		.uleb128 0xb
 4043 014a 3B       		.uleb128 0x3b
 4044 014b 0B       		.uleb128 0xb
 4045 014c 27       		.uleb128 0x27
 4046 014d 19       		.uleb128 0x19
 4047 014e 49       		.uleb128 0x49
 4048 014f 13       		.uleb128 0x13
 4049 0150 20       		.uleb128 0x20
 4050 0151 0B       		.uleb128 0xb
 4051 0152 00       		.byte	0
 4052 0153 00       		.byte	0
 4053 0154 1D       		.uleb128 0x1d
 4054 0155 2E       		.uleb128 0x2e
 4055 0156 00       		.byte	0
 4056 0157 03       		.uleb128 0x3
 4057 0158 0E       		.uleb128 0xe
 4058 0159 3A       		.uleb128 0x3a
 4059 015a 0B       		.uleb128 0xb
 4060 015b 3B       		.uleb128 0x3b
 4061 015c 05       		.uleb128 0x5
 4062 015d 27       		.uleb128 0x27
 4063 015e 19       		.uleb128 0x19
 4064 015f 20       		.uleb128 0x20
 4065 0160 0B       		.uleb128 0xb
 4066 0161 00       		.byte	0
 4067 0162 00       		.byte	0
 4068 0163 1E       		.uleb128 0x1e
 4069 0164 34       		.uleb128 0x34
 4070 0165 00       		.byte	0
 4071 0166 03       		.uleb128 0x3
 4072 0167 0E       		.uleb128 0xe
 4073 0168 49       		.uleb128 0x49
 4074 0169 13       		.uleb128 0x13
 4075 016a 34       		.uleb128 0x34
 4076 016b 19       		.uleb128 0x19
 4077 016c 1C       		.uleb128 0x1c
 4078 016d 0E       		.uleb128 0xe
 4079 016e 00       		.byte	0
 4080 016f 00       		.byte	0
 4081 0170 1F       		.uleb128 0x1f
 4082 0171 2E       		.uleb128 0x2e
 4083 0172 01       		.byte	0x1
 4084 0173 03       		.uleb128 0x3
 4085 0174 0E       		.uleb128 0xe
 4086 0175 3A       		.uleb128 0x3a
 4087 0176 0B       		.uleb128 0xb
 4088 0177 3B       		.uleb128 0x3b
ARM GAS  /tmp/ccMxQxU9.s 			page 73


 4089 0178 0B       		.uleb128 0xb
 4090 0179 27       		.uleb128 0x27
 4091 017a 19       		.uleb128 0x19
 4092 017b 49       		.uleb128 0x49
 4093 017c 13       		.uleb128 0x13
 4094 017d 20       		.uleb128 0x20
 4095 017e 0B       		.uleb128 0xb
 4096 017f 01       		.uleb128 0x1
 4097 0180 13       		.uleb128 0x13
 4098 0181 00       		.byte	0
 4099 0182 00       		.byte	0
 4100 0183 20       		.uleb128 0x20
 4101 0184 34       		.uleb128 0x34
 4102 0185 00       		.byte	0
 4103 0186 03       		.uleb128 0x3
 4104 0187 0E       		.uleb128 0xe
 4105 0188 3A       		.uleb128 0x3a
 4106 0189 0B       		.uleb128 0xb
 4107 018a 3B       		.uleb128 0x3b
 4108 018b 0B       		.uleb128 0xb
 4109 018c 49       		.uleb128 0x49
 4110 018d 13       		.uleb128 0x13
 4111 018e 00       		.byte	0
 4112 018f 00       		.byte	0
 4113 0190 21       		.uleb128 0x21
 4114 0191 2E       		.uleb128 0x2e
 4115 0192 01       		.byte	0x1
 4116 0193 03       		.uleb128 0x3
 4117 0194 0E       		.uleb128 0xe
 4118 0195 3A       		.uleb128 0x3a
 4119 0196 0B       		.uleb128 0xb
 4120 0197 3B       		.uleb128 0x3b
 4121 0198 0B       		.uleb128 0xb
 4122 0199 27       		.uleb128 0x27
 4123 019a 19       		.uleb128 0x19
 4124 019b 20       		.uleb128 0x20
 4125 019c 0B       		.uleb128 0xb
 4126 019d 01       		.uleb128 0x1
 4127 019e 13       		.uleb128 0x13
 4128 019f 00       		.byte	0
 4129 01a0 00       		.byte	0
 4130 01a1 22       		.uleb128 0x22
 4131 01a2 2E       		.uleb128 0x2e
 4132 01a3 01       		.byte	0x1
 4133 01a4 03       		.uleb128 0x3
 4134 01a5 0E       		.uleb128 0xe
 4135 01a6 3A       		.uleb128 0x3a
 4136 01a7 0B       		.uleb128 0xb
 4137 01a8 3B       		.uleb128 0x3b
 4138 01a9 0B       		.uleb128 0xb
 4139 01aa 27       		.uleb128 0x27
 4140 01ab 19       		.uleb128 0x19
 4141 01ac 11       		.uleb128 0x11
 4142 01ad 01       		.uleb128 0x1
 4143 01ae 12       		.uleb128 0x12
 4144 01af 06       		.uleb128 0x6
 4145 01b0 40       		.uleb128 0x40
ARM GAS  /tmp/ccMxQxU9.s 			page 74


 4146 01b1 18       		.uleb128 0x18
 4147 01b2 9742     		.uleb128 0x2117
 4148 01b4 19       		.uleb128 0x19
 4149 01b5 01       		.uleb128 0x1
 4150 01b6 13       		.uleb128 0x13
 4151 01b7 00       		.byte	0
 4152 01b8 00       		.byte	0
 4153 01b9 23       		.uleb128 0x23
 4154 01ba 1D       		.uleb128 0x1d
 4155 01bb 01       		.byte	0x1
 4156 01bc 31       		.uleb128 0x31
 4157 01bd 13       		.uleb128 0x13
 4158 01be 52       		.uleb128 0x52
 4159 01bf 01       		.uleb128 0x1
 4160 01c0 55       		.uleb128 0x55
 4161 01c1 17       		.uleb128 0x17
 4162 01c2 58       		.uleb128 0x58
 4163 01c3 0B       		.uleb128 0xb
 4164 01c4 59       		.uleb128 0x59
 4165 01c5 0B       		.uleb128 0xb
 4166 01c6 01       		.uleb128 0x1
 4167 01c7 13       		.uleb128 0x13
 4168 01c8 00       		.byte	0
 4169 01c9 00       		.byte	0
 4170 01ca 24       		.uleb128 0x24
 4171 01cb 1D       		.uleb128 0x1d
 4172 01cc 00       		.byte	0
 4173 01cd 31       		.uleb128 0x31
 4174 01ce 13       		.uleb128 0x13
 4175 01cf 11       		.uleb128 0x11
 4176 01d0 01       		.uleb128 0x1
 4177 01d1 12       		.uleb128 0x12
 4178 01d2 06       		.uleb128 0x6
 4179 01d3 58       		.uleb128 0x58
 4180 01d4 0B       		.uleb128 0xb
 4181 01d5 59       		.uleb128 0x59
 4182 01d6 0B       		.uleb128 0xb
 4183 01d7 00       		.byte	0
 4184 01d8 00       		.byte	0
 4185 01d9 25       		.uleb128 0x25
 4186 01da 898201   		.uleb128 0x4109
 4187 01dd 01       		.byte	0x1
 4188 01de 11       		.uleb128 0x11
 4189 01df 01       		.uleb128 0x1
 4190 01e0 31       		.uleb128 0x31
 4191 01e1 13       		.uleb128 0x13
 4192 01e2 01       		.uleb128 0x1
 4193 01e3 13       		.uleb128 0x13
 4194 01e4 00       		.byte	0
 4195 01e5 00       		.byte	0
 4196 01e6 26       		.uleb128 0x26
 4197 01e7 8A8201   		.uleb128 0x410a
 4198 01ea 00       		.byte	0
 4199 01eb 02       		.uleb128 0x2
 4200 01ec 18       		.uleb128 0x18
 4201 01ed 9142     		.uleb128 0x2111
 4202 01ef 18       		.uleb128 0x18
ARM GAS  /tmp/ccMxQxU9.s 			page 75


 4203 01f0 00       		.byte	0
 4204 01f1 00       		.byte	0
 4205 01f2 27       		.uleb128 0x27
 4206 01f3 898201   		.uleb128 0x4109
 4207 01f6 00       		.byte	0
 4208 01f7 11       		.uleb128 0x11
 4209 01f8 01       		.uleb128 0x1
 4210 01f9 31       		.uleb128 0x31
 4211 01fa 13       		.uleb128 0x13
 4212 01fb 00       		.byte	0
 4213 01fc 00       		.byte	0
 4214 01fd 28       		.uleb128 0x28
 4215 01fe 898201   		.uleb128 0x4109
 4216 0201 01       		.byte	0x1
 4217 0202 11       		.uleb128 0x11
 4218 0203 01       		.uleb128 0x1
 4219 0204 9542     		.uleb128 0x2115
 4220 0206 19       		.uleb128 0x19
 4221 0207 31       		.uleb128 0x31
 4222 0208 13       		.uleb128 0x13
 4223 0209 00       		.byte	0
 4224 020a 00       		.byte	0
 4225 020b 29       		.uleb128 0x29
 4226 020c 05       		.uleb128 0x5
 4227 020d 00       		.byte	0
 4228 020e 03       		.uleb128 0x3
 4229 020f 08       		.uleb128 0x8
 4230 0210 3A       		.uleb128 0x3a
 4231 0211 0B       		.uleb128 0xb
 4232 0212 3B       		.uleb128 0x3b
 4233 0213 0B       		.uleb128 0xb
 4234 0214 49       		.uleb128 0x49
 4235 0215 13       		.uleb128 0x13
 4236 0216 02       		.uleb128 0x2
 4237 0217 17       		.uleb128 0x17
 4238 0218 00       		.byte	0
 4239 0219 00       		.byte	0
 4240 021a 2A       		.uleb128 0x2a
 4241 021b 898201   		.uleb128 0x4109
 4242 021e 00       		.byte	0
 4243 021f 11       		.uleb128 0x11
 4244 0220 01       		.uleb128 0x1
 4245 0221 9542     		.uleb128 0x2115
 4246 0223 19       		.uleb128 0x19
 4247 0224 31       		.uleb128 0x31
 4248 0225 13       		.uleb128 0x13
 4249 0226 00       		.byte	0
 4250 0227 00       		.byte	0
 4251 0228 2B       		.uleb128 0x2b
 4252 0229 1D       		.uleb128 0x1d
 4253 022a 01       		.byte	0x1
 4254 022b 31       		.uleb128 0x31
 4255 022c 13       		.uleb128 0x13
 4256 022d 52       		.uleb128 0x52
 4257 022e 01       		.uleb128 0x1
 4258 022f 55       		.uleb128 0x55
 4259 0230 17       		.uleb128 0x17
ARM GAS  /tmp/ccMxQxU9.s 			page 76


 4260 0231 58       		.uleb128 0x58
 4261 0232 0B       		.uleb128 0xb
 4262 0233 59       		.uleb128 0x59
 4263 0234 05       		.uleb128 0x5
 4264 0235 00       		.byte	0
 4265 0236 00       		.byte	0
 4266 0237 2C       		.uleb128 0x2c
 4267 0238 05       		.uleb128 0x5
 4268 0239 00       		.byte	0
 4269 023a 31       		.uleb128 0x31
 4270 023b 13       		.uleb128 0x13
 4271 023c 02       		.uleb128 0x2
 4272 023d 17       		.uleb128 0x17
 4273 023e 00       		.byte	0
 4274 023f 00       		.byte	0
 4275 0240 2D       		.uleb128 0x2d
 4276 0241 0B       		.uleb128 0xb
 4277 0242 01       		.byte	0x1
 4278 0243 55       		.uleb128 0x55
 4279 0244 17       		.uleb128 0x17
 4280 0245 00       		.byte	0
 4281 0246 00       		.byte	0
 4282 0247 2E       		.uleb128 0x2e
 4283 0248 34       		.uleb128 0x34
 4284 0249 00       		.byte	0
 4285 024a 31       		.uleb128 0x31
 4286 024b 13       		.uleb128 0x13
 4287 024c 00       		.byte	0
 4288 024d 00       		.byte	0
 4289 024e 2F       		.uleb128 0x2f
 4290 024f 34       		.uleb128 0x34
 4291 0250 00       		.byte	0
 4292 0251 03       		.uleb128 0x3
 4293 0252 08       		.uleb128 0x8
 4294 0253 3A       		.uleb128 0x3a
 4295 0254 0B       		.uleb128 0xb
 4296 0255 3B       		.uleb128 0x3b
 4297 0256 0B       		.uleb128 0xb
 4298 0257 49       		.uleb128 0x49
 4299 0258 13       		.uleb128 0x13
 4300 0259 02       		.uleb128 0x2
 4301 025a 17       		.uleb128 0x17
 4302 025b 00       		.byte	0
 4303 025c 00       		.byte	0
 4304 025d 30       		.uleb128 0x30
 4305 025e 1D       		.uleb128 0x1d
 4306 025f 01       		.byte	0x1
 4307 0260 31       		.uleb128 0x31
 4308 0261 13       		.uleb128 0x13
 4309 0262 11       		.uleb128 0x11
 4310 0263 01       		.uleb128 0x1
 4311 0264 12       		.uleb128 0x12
 4312 0265 06       		.uleb128 0x6
 4313 0266 58       		.uleb128 0x58
 4314 0267 0B       		.uleb128 0xb
 4315 0268 59       		.uleb128 0x59
 4316 0269 0B       		.uleb128 0xb
ARM GAS  /tmp/ccMxQxU9.s 			page 77


 4317 026a 01       		.uleb128 0x1
 4318 026b 13       		.uleb128 0x13
 4319 026c 00       		.byte	0
 4320 026d 00       		.byte	0
 4321 026e 31       		.uleb128 0x31
 4322 026f 1D       		.uleb128 0x1d
 4323 0270 01       		.byte	0x1
 4324 0271 31       		.uleb128 0x31
 4325 0272 13       		.uleb128 0x13
 4326 0273 11       		.uleb128 0x11
 4327 0274 01       		.uleb128 0x1
 4328 0275 12       		.uleb128 0x12
 4329 0276 06       		.uleb128 0x6
 4330 0277 58       		.uleb128 0x58
 4331 0278 0B       		.uleb128 0xb
 4332 0279 59       		.uleb128 0x59
 4333 027a 05       		.uleb128 0x5
 4334 027b 00       		.byte	0
 4335 027c 00       		.byte	0
 4336 027d 32       		.uleb128 0x32
 4337 027e 0B       		.uleb128 0xb
 4338 027f 01       		.byte	0x1
 4339 0280 11       		.uleb128 0x11
 4340 0281 01       		.uleb128 0x1
 4341 0282 12       		.uleb128 0x12
 4342 0283 06       		.uleb128 0x6
 4343 0284 00       		.byte	0
 4344 0285 00       		.byte	0
 4345 0286 33       		.uleb128 0x33
 4346 0287 898201   		.uleb128 0x4109
 4347 028a 01       		.byte	0x1
 4348 028b 11       		.uleb128 0x11
 4349 028c 01       		.uleb128 0x1
 4350 028d 31       		.uleb128 0x31
 4351 028e 13       		.uleb128 0x13
 4352 028f 00       		.byte	0
 4353 0290 00       		.byte	0
 4354 0291 34       		.uleb128 0x34
 4355 0292 2E       		.uleb128 0x2e
 4356 0293 01       		.byte	0x1
 4357 0294 31       		.uleb128 0x31
 4358 0295 13       		.uleb128 0x13
 4359 0296 11       		.uleb128 0x11
 4360 0297 01       		.uleb128 0x1
 4361 0298 12       		.uleb128 0x12
 4362 0299 06       		.uleb128 0x6
 4363 029a 40       		.uleb128 0x40
 4364 029b 18       		.uleb128 0x18
 4365 029c 9742     		.uleb128 0x2117
 4366 029e 19       		.uleb128 0x19
 4367 029f 01       		.uleb128 0x1
 4368 02a0 13       		.uleb128 0x13
 4369 02a1 00       		.byte	0
 4370 02a2 00       		.byte	0
 4371 02a3 35       		.uleb128 0x35
 4372 02a4 1D       		.uleb128 0x1d
 4373 02a5 01       		.byte	0x1
ARM GAS  /tmp/ccMxQxU9.s 			page 78


 4374 02a6 31       		.uleb128 0x31
 4375 02a7 13       		.uleb128 0x13
 4376 02a8 52       		.uleb128 0x52
 4377 02a9 01       		.uleb128 0x1
 4378 02aa 55       		.uleb128 0x55
 4379 02ab 17       		.uleb128 0x17
 4380 02ac 58       		.uleb128 0x58
 4381 02ad 0B       		.uleb128 0xb
 4382 02ae 59       		.uleb128 0x59
 4383 02af 0B       		.uleb128 0xb
 4384 02b0 00       		.byte	0
 4385 02b1 00       		.byte	0
 4386 02b2 36       		.uleb128 0x36
 4387 02b3 1D       		.uleb128 0x1d
 4388 02b4 00       		.byte	0
 4389 02b5 31       		.uleb128 0x31
 4390 02b6 13       		.uleb128 0x13
 4391 02b7 52       		.uleb128 0x52
 4392 02b8 01       		.uleb128 0x1
 4393 02b9 55       		.uleb128 0x55
 4394 02ba 17       		.uleb128 0x17
 4395 02bb 58       		.uleb128 0x58
 4396 02bc 0B       		.uleb128 0xb
 4397 02bd 59       		.uleb128 0x59
 4398 02be 0B       		.uleb128 0xb
 4399 02bf 00       		.byte	0
 4400 02c0 00       		.byte	0
 4401 02c1 37       		.uleb128 0x37
 4402 02c2 1D       		.uleb128 0x1d
 4403 02c3 01       		.byte	0x1
 4404 02c4 31       		.uleb128 0x31
 4405 02c5 13       		.uleb128 0x13
 4406 02c6 11       		.uleb128 0x11
 4407 02c7 01       		.uleb128 0x1
 4408 02c8 12       		.uleb128 0x12
 4409 02c9 06       		.uleb128 0x6
 4410 02ca 58       		.uleb128 0x58
 4411 02cb 0B       		.uleb128 0xb
 4412 02cc 59       		.uleb128 0x59
 4413 02cd 0B       		.uleb128 0xb
 4414 02ce 00       		.byte	0
 4415 02cf 00       		.byte	0
 4416 02d0 38       		.uleb128 0x38
 4417 02d1 0B       		.uleb128 0xb
 4418 02d2 01       		.byte	0x1
 4419 02d3 55       		.uleb128 0x55
 4420 02d4 17       		.uleb128 0x17
 4421 02d5 01       		.uleb128 0x1
 4422 02d6 13       		.uleb128 0x13
 4423 02d7 00       		.byte	0
 4424 02d8 00       		.byte	0
 4425 02d9 39       		.uleb128 0x39
 4426 02da 34       		.uleb128 0x34
 4427 02db 00       		.byte	0
 4428 02dc 31       		.uleb128 0x31
 4429 02dd 13       		.uleb128 0x13
 4430 02de 02       		.uleb128 0x2
ARM GAS  /tmp/ccMxQxU9.s 			page 79


 4431 02df 17       		.uleb128 0x17
 4432 02e0 00       		.byte	0
 4433 02e1 00       		.byte	0
 4434 02e2 3A       		.uleb128 0x3a
 4435 02e3 34       		.uleb128 0x34
 4436 02e4 00       		.byte	0
 4437 02e5 03       		.uleb128 0x3
 4438 02e6 0E       		.uleb128 0xe
 4439 02e7 3A       		.uleb128 0x3a
 4440 02e8 0B       		.uleb128 0xb
 4441 02e9 3B       		.uleb128 0x3b
 4442 02ea 05       		.uleb128 0x5
 4443 02eb 49       		.uleb128 0x49
 4444 02ec 13       		.uleb128 0x13
 4445 02ed 3F       		.uleb128 0x3f
 4446 02ee 19       		.uleb128 0x19
 4447 02ef 3C       		.uleb128 0x3c
 4448 02f0 19       		.uleb128 0x19
 4449 02f1 00       		.byte	0
 4450 02f2 00       		.byte	0
 4451 02f3 3B       		.uleb128 0x3b
 4452 02f4 34       		.uleb128 0x34
 4453 02f5 00       		.byte	0
 4454 02f6 03       		.uleb128 0x3
 4455 02f7 08       		.uleb128 0x8
 4456 02f8 3A       		.uleb128 0x3a
 4457 02f9 0B       		.uleb128 0xb
 4458 02fa 3B       		.uleb128 0x3b
 4459 02fb 05       		.uleb128 0x5
 4460 02fc 49       		.uleb128 0x49
 4461 02fd 13       		.uleb128 0x13
 4462 02fe 3F       		.uleb128 0x3f
 4463 02ff 19       		.uleb128 0x19
 4464 0300 3C       		.uleb128 0x3c
 4465 0301 19       		.uleb128 0x19
 4466 0302 00       		.byte	0
 4467 0303 00       		.byte	0
 4468 0304 3C       		.uleb128 0x3c
 4469 0305 34       		.uleb128 0x34
 4470 0306 00       		.byte	0
 4471 0307 03       		.uleb128 0x3
 4472 0308 0E       		.uleb128 0xe
 4473 0309 3A       		.uleb128 0x3a
 4474 030a 0B       		.uleb128 0xb
 4475 030b 3B       		.uleb128 0x3b
 4476 030c 0B       		.uleb128 0xb
 4477 030d 49       		.uleb128 0x49
 4478 030e 13       		.uleb128 0x13
 4479 030f 3F       		.uleb128 0x3f
 4480 0310 19       		.uleb128 0x19
 4481 0311 3C       		.uleb128 0x3c
 4482 0312 19       		.uleb128 0x19
 4483 0313 00       		.byte	0
 4484 0314 00       		.byte	0
 4485 0315 3D       		.uleb128 0x3d
 4486 0316 21       		.uleb128 0x21
 4487 0317 00       		.byte	0
ARM GAS  /tmp/ccMxQxU9.s 			page 80


 4488 0318 00       		.byte	0
 4489 0319 00       		.byte	0
 4490 031a 3E       		.uleb128 0x3e
 4491 031b 34       		.uleb128 0x34
 4492 031c 00       		.byte	0
 4493 031d 03       		.uleb128 0x3
 4494 031e 08       		.uleb128 0x8
 4495 031f 3A       		.uleb128 0x3a
 4496 0320 0B       		.uleb128 0xb
 4497 0321 3B       		.uleb128 0x3b
 4498 0322 0B       		.uleb128 0xb
 4499 0323 49       		.uleb128 0x49
 4500 0324 13       		.uleb128 0x13
 4501 0325 3F       		.uleb128 0x3f
 4502 0326 19       		.uleb128 0x19
 4503 0327 3C       		.uleb128 0x3c
 4504 0328 19       		.uleb128 0x19
 4505 0329 00       		.byte	0
 4506 032a 00       		.byte	0
 4507 032b 3F       		.uleb128 0x3f
 4508 032c 34       		.uleb128 0x34
 4509 032d 00       		.byte	0
 4510 032e 03       		.uleb128 0x3
 4511 032f 0E       		.uleb128 0xe
 4512 0330 3A       		.uleb128 0x3a
 4513 0331 0B       		.uleb128 0xb
 4514 0332 3B       		.uleb128 0x3b
 4515 0333 0B       		.uleb128 0xb
 4516 0334 49       		.uleb128 0x49
 4517 0335 13       		.uleb128 0x13
 4518 0336 3F       		.uleb128 0x3f
 4519 0337 19       		.uleb128 0x19
 4520 0338 02       		.uleb128 0x2
 4521 0339 18       		.uleb128 0x18
 4522 033a 00       		.byte	0
 4523 033b 00       		.byte	0
 4524 033c 40       		.uleb128 0x40
 4525 033d 2E       		.uleb128 0x2e
 4526 033e 00       		.byte	0
 4527 033f 3F       		.uleb128 0x3f
 4528 0340 19       		.uleb128 0x19
 4529 0341 3C       		.uleb128 0x3c
 4530 0342 19       		.uleb128 0x19
 4531 0343 6E       		.uleb128 0x6e
 4532 0344 0E       		.uleb128 0xe
 4533 0345 03       		.uleb128 0x3
 4534 0346 0E       		.uleb128 0xe
 4535 0347 3A       		.uleb128 0x3a
 4536 0348 0B       		.uleb128 0xb
 4537 0349 3B       		.uleb128 0x3b
 4538 034a 0B       		.uleb128 0xb
 4539 034b 00       		.byte	0
 4540 034c 00       		.byte	0
 4541 034d 00       		.byte	0
 4542              		.section	.debug_loc,"",%progbits
 4543              	.Ldebug_loc0:
 4544              	.LLST0:
ARM GAS  /tmp/ccMxQxU9.s 			page 81


 4545 0000 00000000 		.4byte	.LVL7
 4546 0004 02000000 		.4byte	.LVL8
 4547 0008 0100     		.2byte	0x1
 4548 000a 50       		.byte	0x50
 4549 000b 02000000 		.4byte	.LVL8
 4550 000f 06000000 		.4byte	.LFE227
 4551 0013 0400     		.2byte	0x4
 4552 0015 F3       		.byte	0xf3
 4553 0016 01       		.uleb128 0x1
 4554 0017 50       		.byte	0x50
 4555 0018 9F       		.byte	0x9f
 4556 0019 00000000 		.4byte	0
 4557 001d 00000000 		.4byte	0
 4558              	.LLST1:
 4559 0021 74000000 		.4byte	.LVL14
 4560 0025 78000000 		.4byte	.LVL15
 4561 0029 0300     		.2byte	0x3
 4562 002b 08       		.byte	0x8
 4563 002c 20       		.byte	0x20
 4564 002d 9F       		.byte	0x9f
 4565 002e 00000000 		.4byte	0
 4566 0032 00000000 		.4byte	0
 4567              	.LLST2:
 4568 0036 92000000 		.4byte	.LVL17
 4569 003a 96000000 		.4byte	.LVL18
 4570 003e 0200     		.2byte	0x2
 4571 0040 30       		.byte	0x30
 4572 0041 9F       		.byte	0x9f
 4573 0042 00000000 		.4byte	0
 4574 0046 00000000 		.4byte	0
 4575              	.LLST3:
 4576 004a 18000000 		.4byte	.LVL23
 4577 004e 1C000000 		.4byte	.LVL24
 4578 0052 0100     		.2byte	0x1
 4579 0054 50       		.byte	0x50
 4580 0055 1C000000 		.4byte	.LVL24
 4581 0059 22000000 		.4byte	.LVL26
 4582 005d 0100     		.2byte	0x1
 4583 005f 57       		.byte	0x57
 4584 0060 24000000 		.4byte	.LVL27
 4585 0064 40000000 		.4byte	.LVL29
 4586 0068 0100     		.2byte	0x1
 4587 006a 57       		.byte	0x57
 4588 006b 40000000 		.4byte	.LVL29
 4589 006f 4A000000 		.4byte	.LVL30
 4590 0073 0100     		.2byte	0x1
 4591 0075 50       		.byte	0x50
 4592 0076 98000000 		.4byte	.LVL38
 4593 007a A2000000 		.4byte	.LVL39
 4594 007e 0100     		.2byte	0x1
 4595 0080 50       		.byte	0x50
 4596 0081 DE000000 		.4byte	.LVL43
 4597 0085 E0000000 		.4byte	.LVL44
 4598 0089 0100     		.2byte	0x1
 4599 008b 50       		.byte	0x50
 4600 008c 00000000 		.4byte	0
 4601 0090 00000000 		.4byte	0
ARM GAS  /tmp/ccMxQxU9.s 			page 82


 4602              	.LLST4:
 4603 0094 68000000 		.4byte	.LVL33
 4604 0098 6E000000 		.4byte	.LVL34
 4605 009c 0300     		.2byte	0x3
 4606 009e 08       		.byte	0x8
 4607 009f 20       		.byte	0x20
 4608 00a0 9F       		.byte	0x9f
 4609 00a1 00000000 		.4byte	0
 4610 00a5 00000000 		.4byte	0
 4611              	.LLST5:
 4612 00a9 76000000 		.4byte	.LVL35
 4613 00ad 7A000000 		.4byte	.LVL36
 4614 00b1 0200     		.2byte	0x2
 4615 00b3 30       		.byte	0x30
 4616 00b4 9F       		.byte	0x9f
 4617 00b5 00000000 		.4byte	0
 4618 00b9 00000000 		.4byte	0
 4619              	.LLST6:
 4620 00bd 16010000 		.4byte	.LVL48
 4621 00c1 1C010000 		.4byte	.LVL49
 4622 00c5 0300     		.2byte	0x3
 4623 00c7 08       		.byte	0x8
 4624 00c8 20       		.byte	0x20
 4625 00c9 9F       		.byte	0x9f
 4626 00ca 00000000 		.4byte	0
 4627 00ce 00000000 		.4byte	0
 4628              	.LLST7:
 4629 00d2 22010000 		.4byte	.LVL50
 4630 00d6 26010000 		.4byte	.LVL51
 4631 00da 0200     		.2byte	0x2
 4632 00dc 30       		.byte	0x30
 4633 00dd 9F       		.byte	0x9f
 4634 00de 00000000 		.4byte	0
 4635 00e2 00000000 		.4byte	0
 4636              	.LLST8:
 4637 00e6 06000000 		.4byte	.LVL52
 4638 00ea 0C000000 		.4byte	.LVL53
 4639 00ee 0300     		.2byte	0x3
 4640 00f0 08       		.byte	0x8
 4641 00f1 20       		.byte	0x20
 4642 00f2 9F       		.byte	0x9f
 4643 00f3 00000000 		.4byte	0
 4644 00f7 00000000 		.4byte	0
 4645              	.LLST9:
 4646 00fb 14000000 		.4byte	.LVL54
 4647 00ff 18000000 		.4byte	.LVL55
 4648 0103 0200     		.2byte	0x2
 4649 0105 30       		.byte	0x30
 4650 0106 9F       		.byte	0x9f
 4651 0107 00000000 		.4byte	0
 4652 010b 00000000 		.4byte	0
 4653              	.LLST10:
 4654 010f 32000000 		.4byte	.LVL58
 4655 0113 36000000 		.4byte	.LVL59
 4656 0117 0300     		.2byte	0x3
 4657 0119 08       		.byte	0x8
 4658 011a 20       		.byte	0x20
ARM GAS  /tmp/ccMxQxU9.s 			page 83


 4659 011b 9F       		.byte	0x9f
 4660 011c 00000000 		.4byte	0
 4661 0120 00000000 		.4byte	0
 4662              	.LLST11:
 4663 0124 38000000 		.4byte	.LVL60
 4664 0128 3C000000 		.4byte	.LVL61
 4665 012c 0200     		.2byte	0x2
 4666 012e 30       		.byte	0x30
 4667 012f 9F       		.byte	0x9f
 4668 0130 00000000 		.4byte	0
 4669 0134 00000000 		.4byte	0
 4670              	.LLST12:
 4671 0138 8A000000 		.4byte	.LVL74
 4672 013c 9C000000 		.4byte	.LVL76
 4673 0140 0100     		.2byte	0x1
 4674 0142 55       		.byte	0x55
 4675 0143 9C000000 		.4byte	.LVL76
 4676 0147 9F000000 		.4byte	.LVL77-1
 4677 014b 0100     		.2byte	0x1
 4678 014d 51       		.byte	0x51
 4679 014e 00000000 		.4byte	0
 4680 0152 00000000 		.4byte	0
 4681              	.LLST13:
 4682 0156 56000000 		.4byte	.LVL64
 4683 015a 5A000000 		.4byte	.LVL65
 4684 015e 0300     		.2byte	0x3
 4685 0160 08       		.byte	0x8
 4686 0161 20       		.byte	0x20
 4687 0162 9F       		.byte	0x9f
 4688 0163 00000000 		.4byte	0
 4689 0167 00000000 		.4byte	0
 4690              	.LLST14:
 4691 016b 5C000000 		.4byte	.LVL66
 4692 016f 60000000 		.4byte	.LVL67
 4693 0173 0200     		.2byte	0x2
 4694 0175 30       		.byte	0x30
 4695 0176 9F       		.byte	0x9f
 4696 0177 00000000 		.4byte	0
 4697 017b 00000000 		.4byte	0
 4698              	.LLST15:
 4699 017f 7C000000 		.4byte	.LVL70
 4700 0183 80000000 		.4byte	.LVL71
 4701 0187 0300     		.2byte	0x3
 4702 0189 08       		.byte	0x8
 4703 018a 20       		.byte	0x20
 4704 018b 9F       		.byte	0x9f
 4705 018c 00000000 		.4byte	0
 4706 0190 00000000 		.4byte	0
 4707              	.LLST16:
 4708 0194 82000000 		.4byte	.LVL72
 4709 0198 86000000 		.4byte	.LVL73
 4710 019c 0200     		.2byte	0x2
 4711 019e 30       		.byte	0x30
 4712 019f 9F       		.byte	0x9f
 4713 01a0 00000000 		.4byte	0
 4714 01a4 00000000 		.4byte	0
 4715              		.section	.debug_aranges,"",%progbits
ARM GAS  /tmp/ccMxQxU9.s 			page 84


 4716 0000 3C000000 		.4byte	0x3c
 4717 0004 0200     		.2byte	0x2
 4718 0006 00000000 		.4byte	.Ldebug_info0
 4719 000a 04       		.byte	0x4
 4720 000b 00       		.byte	0
 4721 000c 0000     		.2byte	0
 4722 000e 0000     		.2byte	0
 4723 0010 00000000 		.4byte	.LFB228
 4724 0014 C8000000 		.4byte	.LFE228-.LFB228
 4725 0018 00000000 		.4byte	.LFB227
 4726 001c 06000000 		.4byte	.LFE227-.LFB227
 4727 0020 00000000 		.4byte	.LFB229
 4728 0024 D8000000 		.4byte	.LFE229-.LFB229
 4729 0028 00000000 		.4byte	.LFB230
 4730 002c 2C010000 		.4byte	.LFE230-.LFB230
 4731 0030 00000000 		.4byte	.LFB231
 4732 0034 A0000000 		.4byte	.LFE231-.LFB231
 4733 0038 00000000 		.4byte	0
 4734 003c 00000000 		.4byte	0
 4735              		.section	.debug_ranges,"",%progbits
 4736              	.Ldebug_ranges0:
 4737 0000 02000000 		.4byte	.LBB257
 4738 0004 04000000 		.4byte	.LBE257
 4739 0008 06000000 		.4byte	.LBB262
 4740 000c 08000000 		.4byte	.LBE262
 4741 0010 00000000 		.4byte	0
 4742 0014 00000000 		.4byte	0
 4743 0018 02000000 		.4byte	.LBB271
 4744 001c 04000000 		.4byte	.LBE271
 4745 0020 06000000 		.4byte	.LBB276
 4746 0024 08000000 		.4byte	.LBE276
 4747 0028 00000000 		.4byte	0
 4748 002c 00000000 		.4byte	0
 4749 0030 70000000 		.4byte	.LBB283
 4750 0034 72000000 		.4byte	.LBE283
 4751 0038 74000000 		.4byte	.LBB290
 4752 003c 78000000 		.4byte	.LBE290
 4753 0040 00000000 		.4byte	0
 4754 0044 00000000 		.4byte	0
 4755 0048 8E000000 		.4byte	.LBB293
 4756 004c 90000000 		.4byte	.LBE293
 4757 0050 92000000 		.4byte	.LBB302
 4758 0054 96000000 		.4byte	.LBE302
 4759 0058 00000000 		.4byte	0
 4760 005c 00000000 		.4byte	0
 4761 0060 0C000000 		.4byte	.LBB433
 4762 0064 10000000 		.4byte	.LBE433
 4763 0068 12000000 		.4byte	.LBB449
 4764 006c 14000000 		.4byte	.LBE449
 4765 0070 00000000 		.4byte	0
 4766 0074 00000000 		.4byte	0
 4767 0078 10000000 		.4byte	.LBB440
 4768 007c 12000000 		.4byte	.LBE440
 4769 0080 14000000 		.4byte	.LBB450
 4770 0084 18000000 		.4byte	.LBE450
 4771 0088 00000000 		.4byte	0
 4772 008c 00000000 		.4byte	0
ARM GAS  /tmp/ccMxQxU9.s 			page 85


 4773 0090 56000000 		.4byte	.LBB467
 4774 0094 98000000 		.4byte	.LBE467
 4775 0098 9C000000 		.4byte	.LBB498
 4776 009c A0000000 		.4byte	.LBE498
 4777 00a0 00000000 		.4byte	0
 4778 00a4 00000000 		.4byte	0
 4779 00a8 00000000 		.4byte	.LFB228
 4780 00ac C8000000 		.4byte	.LFE228
 4781 00b0 00000000 		.4byte	.LFB227
 4782 00b4 06000000 		.4byte	.LFE227
 4783 00b8 00000000 		.4byte	.LFB229
 4784 00bc D8000000 		.4byte	.LFE229
 4785 00c0 00000000 		.4byte	.LFB230
 4786 00c4 2C010000 		.4byte	.LFE230
 4787 00c8 00000000 		.4byte	.LFB231
 4788 00cc A0000000 		.4byte	.LFE231
 4789 00d0 00000000 		.4byte	0
 4790 00d4 00000000 		.4byte	0
 4791              		.section	.debug_line,"",%progbits
 4792              	.Ldebug_line0:
 4793 0000 C1040000 		.section	.debug_str,"MS",%progbits,1
 4793      0200BB02 
 4793      00000201 
 4793      FB0E0D00 
 4793      01010101 
 4794              	.LASF52:
 4795 0000 72656164 		.ascii	"ready_list_t\000"
 4795      795F6C69 
 4795      73745F74 
 4795      00
 4796              	.LASF86:
 4797 000d 44494552 		.ascii	"DIER\000"
 4797      00
 4798              	.LASF4:
 4799 0012 73697A65 		.ascii	"size_t\000"
 4799      5F7400
 4800              	.LASF97:
 4801 0019 7264796D 		.ascii	"rdymsg\000"
 4801      736700
 4802              	.LASF18:
 4803 0020 75696E74 		.ascii	"uint64_t\000"
 4803      36345F74 
 4803      00
 4804              	.LASF5:
 4805 0029 5F5F7569 		.ascii	"__uint8_t\000"
 4805      6E74385F 
 4805      7400
 4806              	.LASF84:
 4807 0033 706F7274 		.ascii	"port_intctx\000"
 4807      5F696E74 
 4807      63747800 
 4808              	.LASF71:
 4809 003f 73797374 		.ascii	"system_debug_t\000"
 4809      656D5F64 
 4809      65627567 
 4809      5F7400
 4810              	.LASF79:
ARM GAS  /tmp/ccMxQxU9.s 			page 86


 4811 004e 69646C65 		.ascii	"idle_thread_wa\000"
 4811      5F746872 
 4811      6561645F 
 4811      776100
 4812              	.LASF118:
 4813 005d 706F7274 		.ascii	"port_lock\000"
 4813      5F6C6F63 
 4813      6B00
 4814              	.LASF156:
 4815 0067 474E5520 		.ascii	"GNU C11 5.4.1 20160919 (release) [ARM/embedded-5-br"
 4815      43313120 
 4815      352E342E 
 4815      31203230 
 4815      31363039 
 4816 009a 616E6368 		.ascii	"anch revision 240496] -mcpu=cortex-m4 -mno-thumb-in"
 4816      20726576 
 4816      6973696F 
 4816      6E203234 
 4816      30343936 
 4817 00cd 74657277 		.ascii	"terwork -mthumb -ggdb -O2 -fomit-frame-pointer -fal"
 4817      6F726B20 
 4817      2D6D7468 
 4817      756D6220 
 4817      2D676764 
 4818 0100 69676E2D 		.ascii	"ign-functions=16 -ffunction-sections -fdata-section"
 4818      66756E63 
 4818      74696F6E 
 4818      733D3136 
 4818      202D6666 
 4819 0133 73202D66 		.ascii	"s -fno-common\000"
 4819      6E6F2D63 
 4819      6F6D6D6F 
 4819      6E00
 4820              	.LASF14:
 4821 0141 6C6F6E67 		.ascii	"long long unsigned int\000"
 4821      206C6F6E 
 4821      6720756E 
 4821      7369676E 
 4821      65642069 
 4822              	.LASF98:
 4823 0158 65786974 		.ascii	"exitcode\000"
 4823      636F6465 
 4823      00
 4824              	.LASF78:
 4825 0161 6D61696E 		.ascii	"mainthread\000"
 4825      74687265 
 4825      616400
 4826              	.LASF68:
 4827 016c 76697274 		.ascii	"virtual_timers_list_t\000"
 4827      75616C5F 
 4827      74696D65 
 4827      72735F6C 
 4827      6973745F 
 4828              	.LASF137:
 4829 0182 49544D5F 		.ascii	"ITM_RxBuffer\000"
 4829      52784275 
 4829      66666572 
ARM GAS  /tmp/ccMxQxU9.s 			page 87


 4829      00
 4830              	.LASF157:
 4831 018f 2F686F6D 		.ascii	"/home/selim/working/ChibiOS/test/rt/testthd.c\000"
 4831      652F7365 
 4831      6C696D2F 
 4831      776F726B 
 4831      696E672F 
 4832              	.LASF90:
 4833 01bd 42445452 		.ascii	"BDTR\000"
 4833      00
 4834              	.LASF51:
 4835 01c2 63685F74 		.ascii	"ch_threads_queue\000"
 4835      68726561 
 4835      64735F71 
 4835      75657565 
 4835      00
 4836              	.LASF31:
 4837 01d3 705F7072 		.ascii	"p_prio\000"
 4837      696F00
 4838              	.LASF87:
 4839 01da 43434D52 		.ascii	"CCMR1\000"
 4839      3100
 4840              	.LASF88:
 4841 01e0 43434D52 		.ascii	"CCMR2\000"
 4841      3200
 4842              	.LASF92:
 4843 01e6 43434D52 		.ascii	"CCMR3\000"
 4843      3300
 4844              	.LASF3:
 4845 01ec 7369676E 		.ascii	"signed char\000"
 4845      65642063 
 4845      68617200 
 4846              	.LASF108:
 4847 01f8 6D5F7175 		.ascii	"m_queue\000"
 4847      65756500 
 4848              	.LASF147:
 4849 0200 74657374 		.ascii	"test_emit_token\000"
 4849      5F656D69 
 4849      745F746F 
 4849      6B656E00 
 4850              	.LASF77:
 4851 0210 76746C69 		.ascii	"vtlist\000"
 4851      737400
 4852              	.LASF119:
 4853 0217 706F7274 		.ascii	"port_unlock\000"
 4853      5F756E6C 
 4853      6F636B00 
 4854              	.LASF148:
 4855 0223 63685468 		.ascii	"chThdCreateI\000"
 4855      64437265 
 4855      61746549 
 4855      00
 4856              	.LASF100:
 4857 0230 77747472 		.ascii	"wttrp\000"
 4857      7000
 4858              	.LASF75:
 4859 0236 63685F73 		.ascii	"ch_system\000"
ARM GAS  /tmp/ccMxQxU9.s 			page 88


 4859      79737465 
 4859      6D00
 4860              	.LASF10:
 4861 0240 6C6F6E67 		.ascii	"long int\000"
 4861      20696E74 
 4861      00
 4862              	.LASF21:
 4863 0249 74737461 		.ascii	"tstate_t\000"
 4863      74655F74 
 4863      00
 4864              	.LASF153:
 4865 0252 5F746573 		.ascii	"_test_assert_time_window\000"
 4865      745F6173 
 4865      73657274 
 4865      5F74696D 
 4865      655F7769 
 4866              	.LASF89:
 4867 026b 43434552 		.ascii	"CCER\000"
 4867      00
 4868              	.LASF1:
 4869 0270 6C6F6E67 		.ascii	"long long int\000"
 4869      206C6F6E 
 4869      6720696E 
 4869      7400
 4870              	.LASF141:
 4871 027e 74657374 		.ascii	"testthd3\000"
 4871      74686433 
 4871      00
 4872              	.LASF33:
 4873 0287 705F6E65 		.ascii	"p_newer\000"
 4873      77657200 
 4874              	.LASF105:
 4875 028f 735F7175 		.ascii	"s_queue\000"
 4875      65756500 
 4876              	.LASF8:
 4877 0297 73686F72 		.ascii	"short unsigned int\000"
 4877      7420756E 
 4877      7369676E 
 4877      65642069 
 4877      6E7400
 4878              	.LASF57:
 4879 02aa 725F6E65 		.ascii	"r_newer\000"
 4879      77657200 
 4880              	.LASF45:
 4881 02b2 705F6D70 		.ascii	"p_mpool\000"
 4881      6F6F6C00 
 4882              	.LASF81:
 4883 02ba 72656761 		.ascii	"regarm_t\000"
 4883      726D5F74 
 4883      00
 4884              	.LASF64:
 4885 02c3 76745F70 		.ascii	"vt_prev\000"
 4885      72657600 
 4886              	.LASF132:
 4887 02cb 74686431 		.ascii	"thd1_execute\000"
 4887      5F657865 
 4887      63757465 
ARM GAS  /tmp/ccMxQxU9.s 			page 89


 4887      00
 4888              	.LASF146:
 4889 02d8 5F746573 		.ascii	"_test_assert_sequence\000"
 4889      745F6173 
 4889      73657274 
 4889      5F736571 
 4889      75656E63 
 4890              	.LASF112:
 4891 02ee 6D757465 		.ascii	"mutex_t\000"
 4891      785F7400 
 4892              	.LASF158:
 4893 02f6 76616C75 		.ascii	"value\000"
 4893      6500
 4894              	.LASF150:
 4895 02fc 63685468 		.ascii	"chThdSetPriority\000"
 4895      64536574 
 4895      5072696F 
 4895      72697479 
 4895      00
 4896              	.LASF26:
 4897 030d 636E745F 		.ascii	"cnt_t\000"
 4897      7400
 4898              	.LASF124:
 4899 0313 63685654 		.ascii	"chVTGetSystemTimeX\000"
 4899      47657453 
 4899      79737465 
 4899      6D54696D 
 4899      655800
 4900              	.LASF0:
 4901 0326 756E7369 		.ascii	"unsigned int\000"
 4901      676E6564 
 4901      20696E74 
 4901      00
 4902              	.LASF134:
 4903 0333 74686432 		.ascii	"thd2_execute\000"
 4903      5F657865 
 4903      63757465 
 4903      00
 4904              	.LASF63:
 4905 0340 76745F6E 		.ascii	"vt_next\000"
 4905      65787400 
 4906              	.LASF101:
 4907 0348 77747365 		.ascii	"wtsemp\000"
 4907      6D7000
 4908              	.LASF40:
 4909 034f 705F6D73 		.ascii	"p_msgqueue\000"
 4909      67717565 
 4909      756500
 4910              	.LASF116:
 4911 035a 74656172 		.ascii	"teardown\000"
 4911      646F776E 
 4911      00
 4912              	.LASF114:
 4913 0363 6E616D65 		.ascii	"name\000"
 4913      00
 4914              	.LASF106:
 4915 0368 735F636E 		.ascii	"s_cnt\000"
ARM GAS  /tmp/ccMxQxU9.s 			page 90


 4915      7400
 4916              	.LASF85:
 4917 036e 534D4352 		.ascii	"SMCR\000"
 4917      00
 4918              	.LASF48:
 4919 0373 63685F74 		.ascii	"ch_thread\000"
 4919      68726561 
 4919      6400
 4920              	.LASF24:
 4921 037d 6D73675F 		.ascii	"msg_t\000"
 4921      7400
 4922              	.LASF74:
 4923 0383 63685F73 		.ascii	"ch_system_t\000"
 4923      79737465 
 4923      6D5F7400 
 4924              	.LASF94:
 4925 038f 73746D33 		.ascii	"stm32_tim_t\000"
 4925      325F7469 
 4925      6D5F7400 
 4926              	.LASF129:
 4927 039b 73797374 		.ascii	"systime\000"
 4927      696D6500 
 4928              	.LASF53:
 4929 03a3 63685F72 		.ascii	"ch_ready_list\000"
 4929      65616479 
 4929      5F6C6973 
 4929      7400
 4930              	.LASF25:
 4931 03b1 6576656E 		.ascii	"eventmask_t\000"
 4931      746D6173 
 4931      6B5F7400 
 4932              	.LASF9:
 4933 03bd 5F5F696E 		.ascii	"__int32_t\000"
 4933      7433325F 
 4933      7400
 4934              	.LASF82:
 4935 03c7 73746B61 		.ascii	"stkalign_t\000"
 4935      6C69676E 
 4935      5F7400
 4936              	.LASF144:
 4937 03d2 63685468 		.ascii	"chThdCreateStatic\000"
 4937      64437265 
 4937      61746553 
 4937      74617469 
 4937      6300
 4938              	.LASF39:
 4939 03e4 705F7761 		.ascii	"p_waiting\000"
 4939      6974696E 
 4939      6700
 4940              	.LASF80:
 4941 03ee 73697A65 		.ascii	"sizetype\000"
 4941      74797065 
 4941      00
 4942              	.LASF139:
 4943 03f7 74657374 		.ascii	"testthd1\000"
 4943      74686431 
 4943      00
ARM GAS  /tmp/ccMxQxU9.s 			page 91


 4944              	.LASF140:
 4945 0400 74657374 		.ascii	"testthd2\000"
 4945      74686432 
 4945      00
 4946              	.LASF69:
 4947 0409 63685F76 		.ascii	"ch_virtual_timers_list\000"
 4947      69727475 
 4947      616C5F74 
 4947      696D6572 
 4947      735F6C69 
 4948              	.LASF142:
 4949 0420 74657374 		.ascii	"testthd4\000"
 4949      74686434 
 4949      00
 4950              	.LASF2:
 4951 0429 6C6F6E67 		.ascii	"long double\000"
 4951      20646F75 
 4951      626C6500 
 4952              	.LASF96:
 4953 0435 746D5F63 		.ascii	"tm_calibration_t\000"
 4953      616C6962 
 4953      72617469 
 4953      6F6E5F74 
 4953      00
 4954              	.LASF70:
 4955 0446 76745F6C 		.ascii	"vt_lasttime\000"
 4955      61737474 
 4955      696D6500 
 4956              	.LASF145:
 4957 0452 74657374 		.ascii	"test_wait_threads\000"
 4957      5F776169 
 4957      745F7468 
 4957      72656164 
 4957      7300
 4958              	.LASF34:
 4959 0464 705F6F6C 		.ascii	"p_older\000"
 4959      64657200 
 4960              	.LASF56:
 4961 046c 725F6374 		.ascii	"r_ctx\000"
 4961      7800
 4962              	.LASF127:
 4963 0472 63685468 		.ascii	"chThdGetPriorityX\000"
 4963      64476574 
 4963      5072696F 
 4963      72697479 
 4963      5800
 4964              	.LASF115:
 4965 0484 73657475 		.ascii	"setup\000"
 4965      7000
 4966              	.LASF159:
 4967 048a 63685654 		.ascii	"chVTGetSystemTime\000"
 4967      47657453 
 4967      79737465 
 4967      6D54696D 
 4967      6500
 4968              	.LASF131:
 4969 049c 74696D65 		.ascii	"time\000"
ARM GAS  /tmp/ccMxQxU9.s 			page 92


 4969      00
 4970              	.LASF136:
 4971 04a1 7072696F 		.ascii	"prio\000"
 4971      00
 4972              	.LASF58:
 4973 04a6 725F6F6C 		.ascii	"r_older\000"
 4973      64657200 
 4974              	.LASF154:
 4975 04ae 63685468 		.ascii	"chThdSleepUntil\000"
 4975      64536C65 
 4975      6570556E 
 4975      74696C00 
 4976              	.LASF149:
 4977 04be 63685468 		.ascii	"chThdStart\000"
 4977      64537461 
 4977      727400
 4978              	.LASF13:
 4979 04c9 5F5F7569 		.ascii	"__uint64_t\000"
 4979      6E743634 
 4979      5F7400
 4980              	.LASF22:
 4981 04d4 74726566 		.ascii	"trefs_t\000"
 4981      735F7400 
 4982              	.LASF135:
 4983 04dc 74686433 		.ascii	"thd3_execute\000"
 4983      5F657865 
 4983      63757465 
 4983      00
 4984              	.LASF61:
 4985 04e9 76697274 		.ascii	"virtual_timer_t\000"
 4985      75616C5F 
 4985      74696D65 
 4985      725F7400 
 4986              	.LASF30:
 4987 04f9 705F7072 		.ascii	"p_prev\000"
 4987      657600
 4988              	.LASF23:
 4989 0500 74707269 		.ascii	"tprio_t\000"
 4989      6F5F7400 
 4990              	.LASF133:
 4991 0508 74687265 		.ascii	"thread\000"
 4991      616400
 4992              	.LASF72:
 4993 050f 63685F73 		.ascii	"ch_system_debug\000"
 4993      79737465 
 4993      6D5F6465 
 4993      62756700 
 4994              	.LASF16:
 4995 051f 696E7433 		.ascii	"int32_t\000"
 4995      325F7400 
 4996              	.LASF6:
 4997 0527 756E7369 		.ascii	"unsigned char\000"
 4997      676E6564 
 4997      20636861 
 4997      7200
 4998              	.LASF155:
 4999 0535 74657374 		.ascii	"test_wait_tick\000"
ARM GAS  /tmp/ccMxQxU9.s 			page 93


 4999      5F776169 
 4999      745F7469 
 4999      636B00
 5000              	.LASF117:
 5001 0544 65786563 		.ascii	"execute\000"
 5001      75746500 
 5002              	.LASF43:
 5003 054c 705F6D74 		.ascii	"p_mtxlist\000"
 5003      786C6973 
 5003      7400
 5004              	.LASF7:
 5005 0556 73686F72 		.ascii	"short int\000"
 5005      7420696E 
 5005      7400
 5006              	.LASF36:
 5007 0560 705F7374 		.ascii	"p_state\000"
 5007      61746500 
 5008              	.LASF138:
 5009 0568 74687265 		.ascii	"threads\000"
 5009      61647300 
 5010              	.LASF55:
 5011 0570 725F7072 		.ascii	"r_prio\000"
 5011      696F00
 5012              	.LASF103:
 5013 0577 65776D61 		.ascii	"ewmask\000"
 5013      736B00
 5014              	.LASF29:
 5015 057e 705F6E65 		.ascii	"p_next\000"
 5015      787400
 5016              	.LASF37:
 5017 0585 705F666C 		.ascii	"p_flags\000"
 5017      61677300 
 5018              	.LASF128:
 5019 058d 5F5F6675 		.ascii	"__func__\000"
 5019      6E635F5F 
 5019      00
 5020              	.LASF125:
 5021 0596 63685379 		.ascii	"chSysLock\000"
 5021      734C6F63 
 5021      6B00
 5022              	.LASF62:
 5023 05a0 63685F76 		.ascii	"ch_virtual_timer\000"
 5023      69727475 
 5023      616C5F74 
 5023      696D6572 
 5023      00
 5024              	.LASF113:
 5025 05b1 74657374 		.ascii	"testcase\000"
 5025      63617365 
 5025      00
 5026              	.LASF104:
 5027 05ba 63685F73 		.ascii	"ch_semaphore\000"
 5027      656D6170 
 5027      686F7265 
 5027      00
 5028              	.LASF93:
 5029 05c7 43435852 		.ascii	"CCXR\000"
ARM GAS  /tmp/ccMxQxU9.s 			page 94


 5029      00
 5030              	.LASF42:
 5031 05cc 705F6570 		.ascii	"p_epending\000"
 5031      656E6469 
 5031      6E6700
 5032              	.LASF152:
 5033 05d7 63685468 		.ascii	"chThdSleep\000"
 5033      64536C65 
 5033      657000
 5034              	.LASF120:
 5035 05e2 73745F6C 		.ascii	"st_lld_get_counter\000"
 5035      6C645F67 
 5035      65745F63 
 5035      6F756E74 
 5035      657200
 5036              	.LASF17:
 5037 05f5 75696E74 		.ascii	"uint32_t\000"
 5037      33325F74 
 5037      00
 5038              	.LASF102:
 5039 05fe 77746D74 		.ascii	"wtmtxp\000"
 5039      787000
 5040              	.LASF54:
 5041 0605 725F7175 		.ascii	"r_queue\000"
 5041      65756500 
 5042              	.LASF65:
 5043 060d 76745F64 		.ascii	"vt_delta\000"
 5043      656C7461 
 5043      00
 5044              	.LASF49:
 5045 0616 63685F74 		.ascii	"ch_threads_list\000"
 5045      68726561 
 5045      64735F6C 
 5045      69737400 
 5046              	.LASF12:
 5047 0626 6C6F6E67 		.ascii	"long unsigned int\000"
 5047      20756E73 
 5047      69676E65 
 5047      6420696E 
 5047      7400
 5048              	.LASF59:
 5049 0638 725F6375 		.ascii	"r_current\000"
 5049      7272656E 
 5049      7400
 5050              	.LASF111:
 5051 0642 63686172 		.ascii	"char\000"
 5051      00
 5052              	.LASF130:
 5053 0647 74686434 		.ascii	"thd4_execute\000"
 5053      5F657865 
 5053      63757465 
 5053      00
 5054              	.LASF91:
 5055 0654 444D4152 		.ascii	"DMAR\000"
 5055      00
 5056              	.LASF143:
 5057 0659 70617474 		.ascii	"patternthd\000"
ARM GAS  /tmp/ccMxQxU9.s 			page 95


 5057      65726E74 
 5057      686400
 5058              	.LASF28:
 5059 0664 74687265 		.ascii	"thread_t\000"
 5059      61645F74 
 5059      00
 5060              	.LASF110:
 5061 066d 6D5F6E65 		.ascii	"m_next\000"
 5061      787400
 5062              	.LASF27:
 5063 0674 73797374 		.ascii	"systime_t\000"
 5063      696D655F 
 5063      7400
 5064              	.LASF44:
 5065 067e 705F7265 		.ascii	"p_realprio\000"
 5065      616C7072 
 5065      696F00
 5066              	.LASF60:
 5067 0689 76746675 		.ascii	"vtfunc_t\000"
 5067      6E635F74 
 5067      00
 5068              	.LASF11:
 5069 0692 5F5F7569 		.ascii	"__uint32_t\000"
 5069      6E743332 
 5069      5F7400
 5070              	.LASF122:
 5071 069d 5F5F7365 		.ascii	"__set_BASEPRI\000"
 5071      745F4241 
 5071      53455052 
 5071      4900
 5072              	.LASF73:
 5073 06ab 70616E69 		.ascii	"panic_msg\000"
 5073      635F6D73 
 5073      6700
 5074              	.LASF95:
 5075 06b5 6F666673 		.ascii	"offset\000"
 5075      657400
 5076              	.LASF83:
 5077 06bc 636F6E74 		.ascii	"context\000"
 5077      65787400 
 5078              	.LASF121:
 5079 06c4 706F7274 		.ascii	"port_timer_get_time\000"
 5079      5F74696D 
 5079      65725F67 
 5079      65745F74 
 5079      696D6500 
 5080              	.LASF19:
 5081 06d8 7274636E 		.ascii	"rtcnt_t\000"
 5081      745F7400 
 5082              	.LASF67:
 5083 06e0 76745F70 		.ascii	"vt_par\000"
 5083      617200
 5084              	.LASF50:
 5085 06e7 74687265 		.ascii	"threads_queue_t\000"
 5085      6164735F 
 5085      71756575 
 5085      655F7400 
ARM GAS  /tmp/ccMxQxU9.s 			page 96


 5086              	.LASF107:
 5087 06f7 63685F6D 		.ascii	"ch_mutex\000"
 5087      75746578 
 5087      00
 5088              	.LASF38:
 5089 0700 705F7265 		.ascii	"p_refs\000"
 5089      667300
 5090              	.LASF76:
 5091 0707 726C6973 		.ascii	"rlist\000"
 5091      7400
 5092              	.LASF126:
 5093 070d 63685468 		.ascii	"chThdGetSelfX\000"
 5093      64476574 
 5093      53656C66 
 5093      5800
 5094              	.LASF15:
 5095 071b 75696E74 		.ascii	"uint8_t\000"
 5095      385F7400 
 5096              	.LASF46:
 5097 0723 74687265 		.ascii	"thread_reference_t\000"
 5097      61645F72 
 5097      65666572 
 5097      656E6365 
 5097      5F7400
 5098              	.LASF99:
 5099 0736 77746F62 		.ascii	"wtobjp\000"
 5099      6A7000
 5100              	.LASF35:
 5101 073d 705F6E61 		.ascii	"p_name\000"
 5101      6D6500
 5102              	.LASF151:
 5103 0744 5F746573 		.ascii	"_test_assert\000"
 5103      745F6173 
 5103      73657274 
 5103      00
 5104              	.LASF47:
 5105 0751 74687265 		.ascii	"threads_list_t\000"
 5105      6164735F 
 5105      6C697374 
 5105      5F7400
 5106              	.LASF20:
 5107 0760 746D6F64 		.ascii	"tmode_t\000"
 5107      655F7400 
 5108              	.LASF123:
 5109 0768 63685379 		.ascii	"chSysUnlock\000"
 5109      73556E6C 
 5109      6F636B00 
 5110              	.LASF41:
 5111 0774 705F6D73 		.ascii	"p_msg\000"
 5111      6700
 5112              	.LASF109:
 5113 077a 6D5F6F77 		.ascii	"m_owner\000"
 5113      6E657200 
 5114              	.LASF32:
 5115 0782 705F6374 		.ascii	"p_ctx\000"
 5115      7800
 5116              	.LASF66:
ARM GAS  /tmp/ccMxQxU9.s 			page 97


 5117 0788 76745F66 		.ascii	"vt_func\000"
 5117      756E6300 
 5118              		.ident	"GCC: (GNU Tools for ARM Embedded Processors) 5.4.1 20160919 (release) [ARM/embedded-5-bran
ARM GAS  /tmp/ccMxQxU9.s 			page 98


DEFINED SYMBOLS
                            *ABS*:0000000000000000 testthd.c
     /tmp/ccMxQxU9.s:20     .text.thd1_execute:0000000000000000 $t
     /tmp/ccMxQxU9.s:25     .text.thd1_execute:0000000000000000 thd1_execute
     /tmp/ccMxQxU9.s:178    .text.thd1_execute:00000000000000a0 $d
     /tmp/ccMxQxU9.s:197    .text.thread:0000000000000000 thread
     /tmp/ccMxQxU9.s:192    .text.thread:0000000000000000 $t
     /tmp/ccMxQxU9.s:214    .text.thd2_execute:0000000000000000 $t
     /tmp/ccMxQxU9.s:219    .text.thd2_execute:0000000000000000 thd2_execute
     /tmp/ccMxQxU9.s:432    .text.thd2_execute:00000000000000b0 $d
     /tmp/ccMxQxU9.s:446    .text.thd3_execute:0000000000000000 $t
     /tmp/ccMxQxU9.s:451    .text.thd3_execute:0000000000000000 thd3_execute
     /tmp/ccMxQxU9.s:730    .text.thd3_execute:0000000000000128 $d
     /tmp/ccMxQxU9.s:740    .text.thd4_execute:0000000000000000 $t
     /tmp/ccMxQxU9.s:745    .text.thd4_execute:0000000000000000 thd4_execute
     /tmp/ccMxQxU9.s:1101   .rodata.patternthd:0000000000000000 patternthd
     /tmp/ccMxQxU9.s:1092   .rodata.testthd4:0000000000000000 testthd4
     /tmp/ccMxQxU9.s:1083   .rodata.testthd3:0000000000000000 testthd3
     /tmp/ccMxQxU9.s:1074   .rodata.testthd2:0000000000000000 testthd2
     /tmp/ccMxQxU9.s:1065   .rodata.testthd1:0000000000000000 testthd1
     /tmp/ccMxQxU9.s:1062   .rodata.testthd1:0000000000000000 $d
     /tmp/ccMxQxU9.s:1071   .rodata.testthd2:0000000000000000 $d
     /tmp/ccMxQxU9.s:1080   .rodata.testthd3:0000000000000000 $d
     /tmp/ccMxQxU9.s:1089   .rodata.testthd4:0000000000000000 $d
     /tmp/ccMxQxU9.s:1098   .rodata.patternthd:0000000000000000 $d
     /tmp/ccMxQxU9.s:1108   .rodata.str1.4:0000000000000000 $d
                     .debug_frame:0000000000000010 $d

UNDEFINED SYMBOLS
chThdCreateStatic
test_wait_threads
_test_assert_sequence
ch
wa
threads
test_emit_token
chThdCreateI
chThdStart
chThdSetPriority
_test_assert
test_wait_tick
chThdSleep
_test_assert_time_window
chThdSleepUntil
