ARM GAS  /tmp/ccMxQxU9.s 			page 1


   1              		.syntax unified
   2              		.cpu cortex-m4
   3              		.fpu softvfp
   4              		.eabi_attribute 20, 1
   5              		.eabi_attribute 21, 1
   6              		.eabi_attribute 23, 3
   7              		.eabi_attribute 24, 1
   8              		.eabi_attribute 25, 1
   9              		.eabi_attribute 26, 1
  10              		.eabi_attribute 30, 2
  11              		.eabi_attribute 34, 1
  12              		.eabi_attribute 18, 4
  13              		.thumb
  14              		.syntax unified
  15              		.file	"testthd.c"
  16              		.text
  17              	.Ltext0:
  18              		.cfi_sections	.debug_frame
  19              		.section	.text.thd1_execute,"ax",%progbits
  20              		.align	2
  21              		.p2align 4,,15
  22              		.thumb
  23              		.thumb_func
  24              		.type	thd1_execute, %function
  25              	thd1_execute:
  26              	.LFB228:
  27              		.file 1 "/home/selim/working/ChibiOS/test/rt/testthd.c"
  28              		.loc 1 65 0
  29              		.cfi_startproc
  30              		@ args = 0, pretend = 0, frame = 0
  31              		@ frame_needed = 0, uses_anonymous_args = 0
  32 0000 F0B5     		push	{r4, r5, r6, r7, lr}
  33              		.cfi_def_cfa_offset 20
  34              		.cfi_offset 4, -20
  35              		.cfi_offset 5, -16
  36              		.cfi_offset 6, -12
  37              		.cfi_offset 7, -8
  38              		.cfi_offset 14, -4
  39              	.LBB257:
  40              	.LBB258:
  41              	.LBB259:
  42              	.LBB260:
  43              		.file 2 "/home/selim/working/ChibiOS/os/rt/include/chthreads.h"
  44              		.loc 2 176 0
  45 0002 274F     		ldr	r7, .L3
  46              	.LBE260:
  47              	.LBE259:
  48              	.LBE258:
  49              	.LBE257:
  50              		.loc 1 67 0
  51 0004 274E     		ldr	r6, .L3+4
  52              	.LBB262:
  53              	.LBB261:
  54              		.loc 2 189 0
  55 0006 BB69     		ldr	r3, [r7, #24]
  56              	.LBE261:
  57              	.LBE262:
ARM GAS  /tmp/ccMxQxU9.s 			page 2


  58              		.loc 1 67 0
  59 0008 274D     		ldr	r5, .L3+8
  60 000a 9A68     		ldr	r2, [r3, #8]
  61 000c 274B     		ldr	r3, .L3+12
  62 000e 3068     		ldr	r0, [r6]
  63 0010 274C     		ldr	r4, .L3+16
  64              		.loc 1 65 0
  65 0012 83B0     		sub	sp, sp, #12
  66              		.cfi_def_cfa_offset 32
  67              		.loc 1 67 0
  68 0014 053A     		subs	r2, r2, #5
  69 0016 0093     		str	r3, [sp]
  70 0018 4FF4A471 		mov	r1, #328
  71 001c 2B46     		mov	r3, r5
  72 001e FFF7FEFF 		bl	chThdCreateStatic
  73              	.LVL0:
  74              	.LBB263:
  75              	.LBB264:
  76              		.loc 2 189 0
  77 0022 BB69     		ldr	r3, [r7, #24]
  78              	.LBE264:
  79              	.LBE263:
  80              		.loc 1 68 0
  81 0024 2349     		ldr	r1, .L3+20
  82 0026 9A68     		ldr	r2, [r3, #8]
  83 0028 7368     		ldr	r3, [r6, #4]
  84              		.loc 1 67 0
  85 002a 2060     		str	r0, [r4]
  86              		.loc 1 68 0
  87 002c 0091     		str	r1, [sp]
  88 002e 043A     		subs	r2, r2, #4
  89 0030 1846     		mov	r0, r3
  90 0032 4FF4A471 		mov	r1, #328
  91 0036 2B46     		mov	r3, r5
  92 0038 FFF7FEFF 		bl	chThdCreateStatic
  93              	.LVL1:
  94              	.LBB265:
  95              	.LBB266:
  96              		.loc 2 189 0
  97 003c BA69     		ldr	r2, [r7, #24]
  98              	.LBE266:
  99              	.LBE265:
 100              		.loc 1 69 0
 101 003e B368     		ldr	r3, [r6, #8]
 102 0040 9268     		ldr	r2, [r2, #8]
 103 0042 1D49     		ldr	r1, .L3+24
 104              		.loc 1 68 0
 105 0044 6060     		str	r0, [r4, #4]
 106              		.loc 1 69 0
 107 0046 0091     		str	r1, [sp]
 108 0048 033A     		subs	r2, r2, #3
 109 004a 1846     		mov	r0, r3
 110 004c 4FF4A471 		mov	r1, #328
 111 0050 2B46     		mov	r3, r5
 112 0052 FFF7FEFF 		bl	chThdCreateStatic
 113              	.LVL2:
 114              	.LBB267:
ARM GAS  /tmp/ccMxQxU9.s 			page 3


 115              	.LBB268:
 116              		.loc 2 189 0
 117 0056 BA69     		ldr	r2, [r7, #24]
 118              	.LBE268:
 119              	.LBE267:
 120              		.loc 1 70 0
 121 0058 F368     		ldr	r3, [r6, #12]
 122 005a 9268     		ldr	r2, [r2, #8]
 123 005c 1749     		ldr	r1, .L3+28
 124              		.loc 1 69 0
 125 005e A060     		str	r0, [r4, #8]
 126              		.loc 1 70 0
 127 0060 0091     		str	r1, [sp]
 128 0062 023A     		subs	r2, r2, #2
 129 0064 1846     		mov	r0, r3
 130 0066 4FF4A471 		mov	r1, #328
 131 006a 2B46     		mov	r3, r5
 132 006c FFF7FEFF 		bl	chThdCreateStatic
 133              	.LVL3:
 134              	.LBB269:
 135              	.LBB270:
 136              		.loc 2 189 0
 137 0070 BA69     		ldr	r2, [r7, #24]
 138              	.LBE270:
 139              	.LBE269:
 140              		.loc 1 71 0
 141 0072 3369     		ldr	r3, [r6, #16]
 142 0074 9268     		ldr	r2, [r2, #8]
 143 0076 1249     		ldr	r1, .L3+32
 144              		.loc 1 70 0
 145 0078 E060     		str	r0, [r4, #12]
 146              		.loc 1 71 0
 147 007a 013A     		subs	r2, r2, #1
 148 007c 0091     		str	r1, [sp]
 149 007e 1846     		mov	r0, r3
 150 0080 4FF4A471 		mov	r1, #328
 151 0084 2B46     		mov	r3, r5
 152 0086 FFF7FEFF 		bl	chThdCreateStatic
 153              	.LVL4:
 154 008a 2061     		str	r0, [r4, #16]
 155              		.loc 1 72 0
 156 008c FFF7FEFF 		bl	test_wait_threads
 157              	.LVL5:
 158              		.loc 1 73 0
 159 0090 0C49     		ldr	r1, .L3+36
 160 0092 0120     		movs	r0, #1
 161              		.loc 1 74 0
 162 0094 03B0     		add	sp, sp, #12
 163              		.cfi_def_cfa_offset 20
 164              		@ sp needed
 165 0096 BDE8F040 		pop	{r4, r5, r6, r7, lr}
 166              		.cfi_restore 14
 167              		.cfi_restore 7
 168              		.cfi_restore 6
 169              		.cfi_restore 5
 170              		.cfi_restore 4
 171              		.cfi_def_cfa_offset 0
ARM GAS  /tmp/ccMxQxU9.s 			page 4


 172              		.loc 1 73 0
 173 009a FFF7FEBF 		b	_test_assert_sequence
 174              	.LVL6:
 175              	.L4:
 176 009e 00BF     		.align	2
 177              	.L3:
 178 00a0 00000000 		.word	ch
 179 00a4 00000000 		.word	wa
 180 00a8 00000000 		.word	thread
 181 00ac 00000000 		.word	.LC0
 182 00b0 00000000 		.word	threads
 183 00b4 04000000 		.word	.LC1
 184 00b8 08000000 		.word	.LC2
 185 00bc 0C000000 		.word	.LC3
 186 00c0 10000000 		.word	.LC4
 187 00c4 14000000 		.word	.LC5
 188              		.cfi_endproc
 189              	.LFE228:
 190              		.size	thd1_execute, .-thd1_execute
 191              		.section	.text.thread,"ax",%progbits
 192              		.align	2
 193              		.p2align 4,,15
 194              		.thumb
 195              		.thumb_func
 196              		.type	thread, %function
 197              	thread:
 198              	.LFB227:
 199              		.loc 1 60 0
 200              		.cfi_startproc
 201              		@ args = 0, pretend = 0, frame = 0
 202              		@ frame_needed = 0, uses_anonymous_args = 0
 203              		@ link register save eliminated.
 204              	.LVL7:
 205              		.loc 1 62 0
 206 0000 0078     		ldrb	r0, [r0]	@ zero_extendqisi2
 207              	.LVL8:
 208 0002 FFF7FEBF 		b	test_emit_token
 209              	.LVL9:
 210              		.cfi_endproc
 211              	.LFE227:
 212              		.size	thread, .-thread
 213 0006 00BF     		.section	.text.thd2_execute,"ax",%progbits
 214              		.align	2
 215              		.p2align 4,,15
 216              		.thumb
 217              		.thumb_func
 218              		.type	thd2_execute, %function
 219              	thd2_execute:
 220              	.LFB229:
 221              		.loc 1 93 0
 222              		.cfi_startproc
 223              		@ args = 0, pretend = 0, frame = 0
 224              		@ frame_needed = 0, uses_anonymous_args = 0
 225 0000 F0B5     		push	{r4, r5, r6, r7, lr}
 226              		.cfi_def_cfa_offset 20
 227              		.cfi_offset 4, -20
 228              		.cfi_offset 5, -16
ARM GAS  /tmp/ccMxQxU9.s 			page 5


 229              		.cfi_offset 6, -12
 230              		.cfi_offset 7, -8
 231              		.cfi_offset 14, -4
 232              	.LBB271:
 233              	.LBB272:
 234              	.LBB273:
 235              	.LBB274:
 236              		.loc 2 176 0
 237 0002 2B4F     		ldr	r7, .L8
 238              	.LBE274:
 239              	.LBE273:
 240              	.LBE272:
 241              	.LBE271:
 242              		.loc 1 95 0
 243 0004 2B4E     		ldr	r6, .L8+4
 244              	.LBB276:
 245              	.LBB275:
 246              		.loc 2 189 0
 247 0006 BB69     		ldr	r3, [r7, #24]
 248              	.LBE275:
 249              	.LBE276:
 250              		.loc 1 95 0
 251 0008 2B4D     		ldr	r5, .L8+8
 252 000a 9A68     		ldr	r2, [r3, #8]
 253 000c 2B4B     		ldr	r3, .L8+12
 254 000e 7068     		ldr	r0, [r6, #4]
 255 0010 2B4C     		ldr	r4, .L8+16
 256              		.loc 1 93 0
 257 0012 83B0     		sub	sp, sp, #12
 258              		.cfi_def_cfa_offset 32
 259              		.loc 1 95 0
 260 0014 043A     		subs	r2, r2, #4
 261 0016 0093     		str	r3, [sp]
 262 0018 4FF4A471 		mov	r1, #328
 263 001c 2B46     		mov	r3, r5
 264 001e FFF7FEFF 		bl	chThdCreateStatic
 265              	.LVL10:
 266              	.LBB277:
 267              	.LBB278:
 268              		.loc 2 189 0
 269 0022 BB69     		ldr	r3, [r7, #24]
 270              	.LBE278:
 271              	.LBE277:
 272              		.loc 1 96 0
 273 0024 2749     		ldr	r1, .L8+20
 274 0026 9A68     		ldr	r2, [r3, #8]
 275 0028 3368     		ldr	r3, [r6]
 276              		.loc 1 95 0
 277 002a 6060     		str	r0, [r4, #4]
 278              		.loc 1 96 0
 279 002c 0091     		str	r1, [sp]
 280 002e 053A     		subs	r2, r2, #5
 281 0030 1846     		mov	r0, r3
 282 0032 4FF4A471 		mov	r1, #328
 283 0036 2B46     		mov	r3, r5
 284 0038 FFF7FEFF 		bl	chThdCreateStatic
 285              	.LVL11:
ARM GAS  /tmp/ccMxQxU9.s 			page 6


 286              	.LBB279:
 287              	.LBB280:
 288              		.loc 2 189 0
 289 003c BA69     		ldr	r2, [r7, #24]
 290              	.LBE280:
 291              	.LBE279:
 292              		.loc 1 97 0
 293 003e 3369     		ldr	r3, [r6, #16]
 294 0040 9268     		ldr	r2, [r2, #8]
 295 0042 2149     		ldr	r1, .L8+24
 296              		.loc 1 96 0
 297 0044 2060     		str	r0, [r4]
 298              		.loc 1 97 0
 299 0046 0091     		str	r1, [sp]
 300 0048 013A     		subs	r2, r2, #1
 301 004a 1846     		mov	r0, r3
 302 004c 4FF4A471 		mov	r1, #328
 303 0050 2B46     		mov	r3, r5
 304 0052 FFF7FEFF 		bl	chThdCreateStatic
 305              	.LVL12:
 306              	.LBB281:
 307              	.LBB282:
 308              		.loc 2 189 0
 309 0056 BA69     		ldr	r2, [r7, #24]
 310              	.LBE282:
 311              	.LBE281:
 312              		.loc 1 98 0
 313 0058 F368     		ldr	r3, [r6, #12]
 314 005a 9268     		ldr	r2, [r2, #8]
 315 005c 1B49     		ldr	r1, .L8+28
 316              		.loc 1 97 0
 317 005e 2061     		str	r0, [r4, #16]
 318              		.loc 1 98 0
 319 0060 0091     		str	r1, [sp]
 320 0062 023A     		subs	r2, r2, #2
 321 0064 1846     		mov	r0, r3
 322 0066 4FF4A471 		mov	r1, #328
 323 006a 2B46     		mov	r3, r5
 324 006c FFF7FEFF 		bl	chThdCreateStatic
 325              	.LVL13:
 326              	.LBB283:
 327              	.LBB284:
 328              	.LBB285:
 329              	.LBB286:
 330              		.file 3 "/home/selim/working/ChibiOS/os/ext/CMSIS/include/core_cmFunc.h"
 331              		.loc 3 546 0
 332 0070 2023     		movs	r3, #32
 333              	.LBE286:
 334              	.LBE285:
 335              	.LBE284:
 336              	.LBE283:
 337              		.loc 1 98 0
 338 0072 E060     		str	r0, [r4, #12]
 339              	.LVL14:
 340              	.LBB290:
 341              	.LBB289:
 342              	.LBB288:
ARM GAS  /tmp/ccMxQxU9.s 			page 7


 343              	.LBB287:
 344              		.loc 3 546 0
 345              		.syntax unified
 346              	@ 546 "/home/selim/working/ChibiOS/os/ext/CMSIS/include/core_cmFunc.h" 1
 347 0074 83F31188 		MSR basepri, r3
 348              	@ 0 "" 2
 349              	.LVL15:
 350              		.thumb
 351              		.syntax unified
 352              	.LBE287:
 353              	.LBE288:
 354              	.LBE289:
 355              	.LBE290:
 356              	.LBB291:
 357              	.LBB292:
 358              		.loc 2 189 0
 359 0078 BB69     		ldr	r3, [r7, #24]
 360              	.LBE292:
 361              	.LBE291:
 362              		.loc 1 101 0
 363 007a B068     		ldr	r0, [r6, #8]
 364 007c 9A68     		ldr	r2, [r3, #8]
 365 007e 144B     		ldr	r3, .L8+32
 366 0080 0093     		str	r3, [sp]
 367 0082 033A     		subs	r2, r2, #3
 368 0084 2B46     		mov	r3, r5
 369 0086 4FF4A471 		mov	r1, #328
 370 008a FFF7FEFF 		bl	chThdCreateI
 371              	.LVL16:
 372              	.LBB293:
 373              	.LBB294:
 374              	.LBB295:
 375              	.LBB296:
 376              	.LBB297:
 377              		.loc 3 546 0
 378 008e 0023     		movs	r3, #0
 379              	.LBE297:
 380              	.LBE296:
 381              	.LBE295:
 382              	.LBE294:
 383              	.LBE293:
 384              		.loc 1 101 0
 385 0090 A060     		str	r0, [r4, #8]
 386              	.LVL17:
 387              	.LBB302:
 388              	.LBB301:
 389              	.LBB300:
 390              	.LBB299:
 391              	.LBB298:
 392              		.loc 3 546 0
 393              		.syntax unified
 394              	@ 546 "/home/selim/working/ChibiOS/os/ext/CMSIS/include/core_cmFunc.h" 1
 395 0092 83F31188 		MSR basepri, r3
 396              	@ 0 "" 2
 397              	.LVL18:
 398              		.thumb
 399              		.syntax unified
ARM GAS  /tmp/ccMxQxU9.s 			page 8


 400              	.LBE298:
 401              	.LBE299:
 402              	.LBE300:
 403              	.LBE301:
 404              	.LBE302:
 405              		.loc 1 103 0
 406 0096 A068     		ldr	r0, [r4, #8]
 407 0098 FFF7FEFF 		bl	chThdStart
 408              	.LVL19:
 409              		.loc 1 104 0
 410 009c FFF7FEFF 		bl	test_wait_threads
 411              	.LVL20:
 412              		.loc 1 105 0
 413 00a0 0C49     		ldr	r1, .L8+36
 414 00a2 0120     		movs	r0, #1
 415              		.loc 1 106 0
 416 00a4 03B0     		add	sp, sp, #12
 417              		.cfi_def_cfa_offset 20
 418              		@ sp needed
 419 00a6 BDE8F040 		pop	{r4, r5, r6, r7, lr}
 420              		.cfi_restore 14
 421              		.cfi_restore 7
 422              		.cfi_restore 6
 423              		.cfi_restore 5
 424              		.cfi_restore 4
 425              		.cfi_def_cfa_offset 0
 426              		.loc 1 105 0
 427 00aa FFF7FEBF 		b	_test_assert_sequence
 428              	.LVL21:
 429              	.L9:
 430 00ae 00BF     		.align	2
 431              	.L8:
 432 00b0 00000000 		.word	ch
 433 00b4 00000000 		.word	wa
 434 00b8 00000000 		.word	thread
 435 00bc 04000000 		.word	.LC1
 436 00c0 00000000 		.word	threads
 437 00c4 00000000 		.word	.LC0
 438 00c8 10000000 		.word	.LC4
 439 00cc 0C000000 		.word	.LC3
 440 00d0 08000000 		.word	.LC2
 441 00d4 14000000 		.word	.LC5
 442              		.cfi_endproc
 443              	.LFE229:
 444              		.size	thd2_execute, .-thd2_execute
 445              		.section	.text.thd3_execute,"ax",%progbits
 446              		.align	2
 447              		.p2align 4,,15
 448              		.thumb
 449              		.thumb_func
 450              		.type	thd3_execute, %function
 451              	thd3_execute:
 452              	.LFB230:
 453              		.loc 1 125 0
 454              		.cfi_startproc
 455              		@ args = 0, pretend = 0, frame = 0
 456              		@ frame_needed = 0, uses_anonymous_args = 0
ARM GAS  /tmp/ccMxQxU9.s 			page 9


 457 0000 F8B5     		push	{r3, r4, r5, r6, r7, lr}
 458              		.cfi_def_cfa_offset 24
 459              		.cfi_offset 3, -24
 460              		.cfi_offset 4, -20
 461              		.cfi_offset 5, -16
 462              		.cfi_offset 6, -12
 463              		.cfi_offset 7, -8
 464              		.cfi_offset 14, -4
 465              	.LBB303:
 466              	.LBB304:
 467              	.LBB305:
 468              	.LBB306:
 469              		.loc 2 176 0
 470 0002 494E     		ldr	r6, .L17
 471              	.LBE306:
 472              	.LBE305:
 473              		.loc 2 189 0
 474 0004 B369     		ldr	r3, [r6, #24]
 475 0006 9C68     		ldr	r4, [r3, #8]
 476              	.LBE304:
 477              	.LBE303:
 478              		.loc 1 129 0
 479 0008 651C     		adds	r5, r4, #1
 480 000a 2846     		mov	r0, r5
 481 000c FFF7FEFF 		bl	chThdSetPriority
 482              	.LVL22:
 483              		.loc 1 130 0
 484 0010 011B     		subs	r1, r0, r4
 485 0012 B1FA81F1 		clz	r1, r1
 486              		.loc 1 129 0
 487 0016 0746     		mov	r7, r0
 488              	.LVL23:
 489              		.loc 1 130 0
 490 0018 4909     		lsrs	r1, r1, #5
 491 001a 0120     		movs	r0, #1
 492              	.LVL24:
 493 001c FFF7FEFF 		bl	_test_assert
 494              	.LVL25:
 495 0020 00B1     		cbz	r0, .L16
 496              	.LVL26:
 497              	.L10:
 498 0022 F8BD     		pop	{r3, r4, r5, r6, r7, pc}
 499              	.LVL27:
 500              	.L16:
 501              	.LBB307:
 502              	.LBB308:
 503              		.loc 2 189 0
 504 0024 B369     		ldr	r3, [r6, #24]
 505              	.LBE308:
 506              	.LBE307:
 507              		.loc 1 132 0
 508 0026 9968     		ldr	r1, [r3, #8]
 509 0028 491B     		subs	r1, r1, r5
 510 002a B1FA81F1 		clz	r1, r1
 511 002e 0220     		movs	r0, #2
 512 0030 4909     		lsrs	r1, r1, #5
 513 0032 FFF7FEFF 		bl	_test_assert
ARM GAS  /tmp/ccMxQxU9.s 			page 10


 514              	.LVL28:
 515 0036 0028     		cmp	r0, #0
 516 0038 F3D1     		bne	.L10
 517              		.loc 1 134 0
 518 003a 3846     		mov	r0, r7
 519 003c FFF7FEFF 		bl	chThdSetPriority
 520              	.LVL29:
 521              		.loc 1 135 0
 522 0040 291A     		subs	r1, r5, r0
 523 0042 B1FA81F1 		clz	r1, r1
 524 0046 4909     		lsrs	r1, r1, #5
 525 0048 0320     		movs	r0, #3
 526              	.LVL30:
 527 004a FFF7FEFF 		bl	_test_assert
 528              	.LVL31:
 529 004e 0028     		cmp	r0, #0
 530 0050 E7D1     		bne	.L10
 531              	.LBB309:
 532              	.LBB310:
 533              		.loc 2 189 0
 534 0052 B369     		ldr	r3, [r6, #24]
 535              	.LBE310:
 536              	.LBE309:
 537              		.loc 1 137 0
 538 0054 9968     		ldr	r1, [r3, #8]
 539 0056 091B     		subs	r1, r1, r4
 540 0058 B1FA81F1 		clz	r1, r1
 541 005c 0420     		movs	r0, #4
 542 005e 4909     		lsrs	r1, r1, #5
 543 0060 FFF7FEFF 		bl	_test_assert
 544              	.LVL32:
 545 0064 0028     		cmp	r0, #0
 546 0066 DCD1     		bne	.L10
 547              	.LVL33:
 548              	.LBB311:
 549              	.LBB312:
 550              	.LBB313:
 551              	.LBB314:
 552              		.loc 3 546 0
 553 0068 2023     		movs	r3, #32
 554              		.syntax unified
 555              	@ 546 "/home/selim/working/ChibiOS/os/ext/CMSIS/include/core_cmFunc.h" 1
 556 006a 83F31188 		MSR basepri, r3
 557              	@ 0 "" 2
 558              	.LVL34:
 559              		.thumb
 560              		.syntax unified
 561              	.LBE314:
 562              	.LBE313:
 563              	.LBE312:
 564              	.LBE311:
 565              	.LBB315:
 566              	.LBB316:
 567              		.loc 2 176 0
 568 006e B269     		ldr	r2, [r6, #24]
 569              	.LBE316:
 570              	.LBE315:
ARM GAS  /tmp/ccMxQxU9.s 			page 11


 571              		.loc 1 143 0
 572 0070 9368     		ldr	r3, [r2, #8]
 573 0072 0233     		adds	r3, r3, #2
 574 0074 9360     		str	r3, [r2, #8]
 575              	.LVL35:
 576              	.LBB317:
 577              	.LBB318:
 578              	.LBB319:
 579              	.LBB320:
 580              	.LBB321:
 581              		.loc 3 546 0
 582              		.syntax unified
 583              	@ 546 "/home/selim/working/ChibiOS/os/ext/CMSIS/include/core_cmFunc.h" 1
 584 0076 80F31188 		MSR basepri, r0
 585              	@ 0 "" 2
 586              	.LVL36:
 587              		.thumb
 588              		.syntax unified
 589              	.LBE321:
 590              	.LBE320:
 591              	.LBE319:
 592              	.LBE318:
 593              	.LBE317:
 594              	.LBB322:
 595              	.LBB323:
 596              		.loc 2 189 0
 597 007a B369     		ldr	r3, [r6, #24]
 598              	.LBE323:
 599              	.LBE322:
 600              		.loc 1 145 0
 601 007c 9968     		ldr	r1, [r3, #8]
 602 007e A71C     		adds	r7, r4, #2
 603 0080 C91B     		subs	r1, r1, r7
 604 0082 B1FA81F1 		clz	r1, r1
 605 0086 4909     		lsrs	r1, r1, #5
 606 0088 0520     		movs	r0, #5
 607 008a FFF7FEFF 		bl	_test_assert
 608              	.LVL37:
 609 008e 0028     		cmp	r0, #0
 610 0090 C7D1     		bne	.L10
 611              		.loc 1 149 0
 612 0092 2846     		mov	r0, r5
 613 0094 FFF7FEFF 		bl	chThdSetPriority
 614              	.LVL38:
 615              		.loc 1 150 0
 616 0098 011B     		subs	r1, r0, r4
 617 009a B1FA81F1 		clz	r1, r1
 618 009e 4909     		lsrs	r1, r1, #5
 619 00a0 0620     		movs	r0, #6
 620              	.LVL39:
 621 00a2 FFF7FEFF 		bl	_test_assert
 622              	.LVL40:
 623 00a6 0028     		cmp	r0, #0
 624 00a8 BBD1     		bne	.L10
 625              		.loc 1 152 0
 626 00aa B369     		ldr	r3, [r6, #24]
 627 00ac 9968     		ldr	r1, [r3, #8]
ARM GAS  /tmp/ccMxQxU9.s 			page 12


 628 00ae C91B     		subs	r1, r1, r7
 629 00b0 B1FA81F1 		clz	r1, r1
 630 00b4 0720     		movs	r0, #7
 631 00b6 4909     		lsrs	r1, r1, #5
 632 00b8 FFF7FEFF 		bl	_test_assert
 633              	.LVL41:
 634 00bc 0028     		cmp	r0, #0
 635 00be B0D1     		bne	.L10
 636              		.loc 1 154 0
 637 00c0 B369     		ldr	r3, [r6, #24]
 638 00c2 D96B     		ldr	r1, [r3, #60]
 639 00c4 491B     		subs	r1, r1, r5
 640 00c6 B1FA81F1 		clz	r1, r1
 641 00ca 0820     		movs	r0, #8
 642 00cc 4909     		lsrs	r1, r1, #5
 643 00ce FFF7FEFF 		bl	_test_assert
 644              	.LVL42:
 645 00d2 0028     		cmp	r0, #0
 646 00d4 A5D1     		bne	.L10
 647              		.loc 1 158 0
 648 00d6 E71C     		adds	r7, r4, #3
 649 00d8 3846     		mov	r0, r7
 650 00da FFF7FEFF 		bl	chThdSetPriority
 651              	.LVL43:
 652              		.loc 1 159 0
 653 00de 281A     		subs	r0, r5, r0
 654              	.LVL44:
 655 00e0 4142     		rsbs	r1, r0, #0
 656 00e2 4141     		adcs	r1, r1, r0
 657 00e4 0920     		movs	r0, #9
 658 00e6 FFF7FEFF 		bl	_test_assert
 659              	.LVL45:
 660 00ea 0028     		cmp	r0, #0
 661 00ec 99D1     		bne	.L10
 662              		.loc 1 161 0
 663 00ee B369     		ldr	r3, [r6, #24]
 664 00f0 9968     		ldr	r1, [r3, #8]
 665 00f2 CA1B     		subs	r2, r1, r7
 666 00f4 5142     		rsbs	r1, r2, #0
 667 00f6 5141     		adcs	r1, r1, r2
 668 00f8 0A20     		movs	r0, #10
 669 00fa FFF7FEFF 		bl	_test_assert
 670              	.LVL46:
 671 00fe 0028     		cmp	r0, #0
 672 0100 8FD1     		bne	.L10
 673              		.loc 1 163 0
 674 0102 B369     		ldr	r3, [r6, #24]
 675 0104 D96B     		ldr	r1, [r3, #60]
 676 0106 CB1B     		subs	r3, r1, r7
 677 0108 5942     		rsbs	r1, r3, #0
 678 010a 5941     		adcs	r1, r1, r3
 679 010c 0B20     		movs	r0, #11
 680 010e FFF7FEFF 		bl	_test_assert
 681              	.LVL47:
 682 0112 0028     		cmp	r0, #0
 683 0114 85D1     		bne	.L10
 684              	.LVL48:
ARM GAS  /tmp/ccMxQxU9.s 			page 13


 685              	.LBB324:
 686              	.LBB325:
 687              	.LBB326:
 688              	.LBB327:
 689              		.loc 3 546 0
 690 0116 2023     		movs	r3, #32
 691              		.syntax unified
 692              	@ 546 "/home/selim/working/ChibiOS/os/ext/CMSIS/include/core_cmFunc.h" 1
 693 0118 83F31188 		MSR basepri, r3
 694              	@ 0 "" 2
 695              	.LVL49:
 696              		.thumb
 697              		.syntax unified
 698              	.LBE327:
 699              	.LBE326:
 700              	.LBE325:
 701              	.LBE324:
 702              	.LBB328:
 703              	.LBB329:
 704              		.loc 2 176 0
 705 011c B369     		ldr	r3, [r6, #24]
 706              	.LBE329:
 707              	.LBE328:
 708              		.loc 1 167 0
 709 011e 9C60     		str	r4, [r3, #8]
 710              		.loc 1 168 0
 711 0120 DC63     		str	r4, [r3, #60]
 712              	.LVL50:
 713              	.LBB330:
 714              	.LBB331:
 715              	.LBB332:
 716              	.LBB333:
 717              	.LBB334:
 718              		.loc 3 546 0
 719              		.syntax unified
 720              	@ 546 "/home/selim/working/ChibiOS/os/ext/CMSIS/include/core_cmFunc.h" 1
 721 0122 80F31188 		MSR basepri, r0
 722              	@ 0 "" 2
 723              	.LVL51:
 724              		.thumb
 725              		.syntax unified
 726 0126 7CE7     		b	.L10
 727              	.L18:
 728              		.align	2
 729              	.L17:
 730 0128 00000000 		.word	ch
 731              	.LBE334:
 732              	.LBE333:
 733              	.LBE332:
 734              	.LBE331:
 735              	.LBE330:
 736              		.cfi_endproc
 737              	.LFE230:
 738              		.size	thd3_execute, .-thd3_execute
 739              		.section	.text.thd4_execute,"ax",%progbits
 740              		.align	2
 741              		.p2align 4,,15
ARM GAS  /tmp/ccMxQxU9.s 			page 14


 742              		.thumb
 743              		.thumb_func
 744              		.type	thd4_execute, %function
 745              	thd4_execute:
 746              	.LFB231:
 747              		.loc 1 188 0
 748              		.cfi_startproc
 749              		@ args = 0, pretend = 0, frame = 0
 750              		@ frame_needed = 0, uses_anonymous_args = 0
 751 0000 70B5     		push	{r4, r5, r6, lr}
 752              		.cfi_def_cfa_offset 16
 753              		.cfi_offset 4, -16
 754              		.cfi_offset 5, -12
 755              		.cfi_offset 6, -8
 756              		.cfi_offset 14, -4
 757              		.loc 1 191 0
 758 0002 FFF7FEFF 		bl	test_wait_tick
 759              	.LVL52:
 760              	.LBB427:
 761              	.LBB428:
 762              	.LBB429:
 763              	.LBB430:
 764              	.LBB431:
 765              	.LBB432:
 766              		.loc 3 546 0
 767 0006 2026     		movs	r6, #32
 768              		.syntax unified
 769              	@ 546 "/home/selim/working/ChibiOS/os/ext/CMSIS/include/core_cmFunc.h" 1
 770 0008 86F31188 		MSR basepri, r6
 771              	@ 0 "" 2
 772              	.LVL53:
 773              		.thumb
 774              		.syntax unified
 775              	.LBE432:
 776              	.LBE431:
 777              	.LBE430:
 778              	.LBE429:
 779              	.LBB433:
 780              	.LBB434:
 781              	.LBB435:
 782              	.LBB436:
 783              		.file 4 "/home/selim/working/ChibiOS/os/hal/ports/STM32/LLD/TIMv1/st_lld.h"
 784              		.loc 4 129 0
 785 000c 4FF08045 		mov	r5, #1073741824
 786              	.LBE436:
 787              	.LBE435:
 788              	.LBE434:
 789              	.LBE433:
 790              	.LBB440:
 791              	.LBB441:
 792              	.LBB442:
 793              	.LBB443:
 794              	.LBB444:
 795              		.loc 3 546 0
 796 0010 0023     		movs	r3, #0
 797              	.LBE444:
 798              	.LBE443:
ARM GAS  /tmp/ccMxQxU9.s 			page 15


 799              	.LBE442:
 800              	.LBE441:
 801              	.LBE440:
 802              	.LBB449:
 803              	.LBB439:
 804              	.LBB438:
 805              	.LBB437:
 806              		.loc 4 129 0
 807 0012 6C6A     		ldr	r4, [r5, #36]
 808              	.LVL54:
 809              	.LBE437:
 810              	.LBE438:
 811              	.LBE439:
 812              	.LBE449:
 813              	.LBB450:
 814              	.LBB448:
 815              	.LBB447:
 816              	.LBB446:
 817              	.LBB445:
 818              		.loc 3 546 0
 819              		.syntax unified
 820              	@ 546 "/home/selim/working/ChibiOS/os/ext/CMSIS/include/core_cmFunc.h" 1
 821 0014 83F31188 		MSR basepri, r3
 822              	@ 0 "" 2
 823              	.LVL55:
 824              		.thumb
 825              		.syntax unified
 826              	.LBE445:
 827              	.LBE446:
 828              	.LBE447:
 829              	.LBE448:
 830              	.LBE450:
 831              	.LBE428:
 832              	.LBE427:
 833              		.loc 1 195 0
 834 0018 4FF47A70 		mov	r0, #1000
 835 001c FFF7FEFF 		bl	chThdSleep
 836              	.LVL56:
 837              		.loc 1 196 0
 838 0020 04F2EB32 		addw	r2, r4, #1003
 839 0024 04F57A71 		add	r1, r4, #1000
 840 0028 0120     		movs	r0, #1
 841 002a FFF7FEFF 		bl	_test_assert_time_window
 842              	.LVL57:
 843 002e 00B1     		cbz	r0, .L24
 844              	.L19:
 845 0030 70BD     		pop	{r4, r5, r6, pc}
 846              	.L24:
 847              	.LVL58:
 848              	.LBB451:
 849              	.LBB452:
 850              	.LBB453:
 851              	.LBB454:
 852              	.LBB455:
 853              	.LBB456:
 854              		.loc 3 546 0
 855              		.syntax unified
ARM GAS  /tmp/ccMxQxU9.s 			page 16


 856              	@ 546 "/home/selim/working/ChibiOS/os/ext/CMSIS/include/core_cmFunc.h" 1
 857 0032 86F31188 		MSR basepri, r6
 858              	@ 0 "" 2
 859              	.LVL59:
 860              		.thumb
 861              		.syntax unified
 862              	.LBE456:
 863              	.LBE455:
 864              	.LBE454:
 865              	.LBE453:
 866              	.LBB457:
 867              	.LBB458:
 868              	.LBB459:
 869              	.LBB460:
 870              		.loc 4 129 0
 871 0036 6C6A     		ldr	r4, [r5, #36]
 872              	.LVL60:
 873              	.LBE460:
 874              	.LBE459:
 875              	.LBE458:
 876              	.LBE457:
 877              	.LBB461:
 878              	.LBB462:
 879              	.LBB463:
 880              	.LBB464:
 881              	.LBB465:
 882              		.loc 3 546 0
 883              		.syntax unified
 884              	@ 546 "/home/selim/working/ChibiOS/os/ext/CMSIS/include/core_cmFunc.h" 1
 885 0038 80F31188 		MSR basepri, r0
 886              	@ 0 "" 2
 887              	.LVL61:
 888              		.thumb
 889              		.syntax unified
 890              	.LBE465:
 891              	.LBE464:
 892              	.LBE463:
 893              	.LBE462:
 894              	.LBE461:
 895              	.LBE452:
 896              	.LBE451:
 897              		.loc 1 202 0
 898 003c 4FF47A70 		mov	r0, #1000
 899 0040 FFF7FEFF 		bl	chThdSleep
 900              	.LVL62:
 901              		.loc 1 203 0
 902 0044 04F2EB32 		addw	r2, r4, #1003
 903 0048 04F57A71 		add	r1, r4, #1000
 904 004c 0220     		movs	r0, #2
 905 004e FFF7FEFF 		bl	_test_assert_time_window
 906              	.LVL63:
 907 0052 0028     		cmp	r0, #0
 908 0054 ECD1     		bne	.L19
 909              	.LVL64:
 910              	.LBB466:
 911              	.LBB467:
 912              	.LBB468:
ARM GAS  /tmp/ccMxQxU9.s 			page 17


 913              	.LBB469:
 914              	.LBB470:
 915              	.LBB471:
 916              	.LBB472:
 917              	.LBB473:
 918              		.loc 3 546 0
 919              		.syntax unified
 920              	@ 546 "/home/selim/working/ChibiOS/os/ext/CMSIS/include/core_cmFunc.h" 1
 921 0056 86F31188 		MSR basepri, r6
 922              	@ 0 "" 2
 923              	.LVL65:
 924              		.thumb
 925              		.syntax unified
 926              	.LBE473:
 927              	.LBE472:
 928              	.LBE471:
 929              	.LBE470:
 930              	.LBB474:
 931              	.LBB475:
 932              	.LBB476:
 933              	.LBB477:
 934              		.loc 4 129 0
 935 005a 6C6A     		ldr	r4, [r5, #36]
 936              	.LVL66:
 937              	.LBE477:
 938              	.LBE476:
 939              	.LBE475:
 940              	.LBE474:
 941              	.LBB478:
 942              	.LBB479:
 943              	.LBB480:
 944              	.LBB481:
 945              	.LBB482:
 946              		.loc 3 546 0
 947              		.syntax unified
 948              	@ 546 "/home/selim/working/ChibiOS/os/ext/CMSIS/include/core_cmFunc.h" 1
 949 005c 80F31188 		MSR basepri, r0
 950              	@ 0 "" 2
 951              	.LVL67:
 952              		.thumb
 953              		.syntax unified
 954              	.LBE482:
 955              	.LBE481:
 956              	.LBE480:
 957              	.LBE479:
 958              	.LBE478:
 959              	.LBE469:
 960              	.LBE468:
 961              		.loc 1 209 0
 962 0060 42F21070 		movw	r0, #10000
 963 0064 FFF7FEFF 		bl	chThdSleep
 964              	.LVL68:
 965              		.loc 1 210 0
 966 0068 04F51C52 		add	r2, r4, #9984
 967 006c 1146     		mov	r1, r2
 968 006e 1031     		adds	r1, r1, #16
 969 0070 1332     		adds	r2, r2, #19
ARM GAS  /tmp/ccMxQxU9.s 			page 18


 970 0072 0320     		movs	r0, #3
 971 0074 FFF7FEFF 		bl	_test_assert_time_window
 972              	.LVL69:
 973 0078 0028     		cmp	r0, #0
 974 007a D9D1     		bne	.L19
 975              	.LVL70:
 976              	.LBB483:
 977              	.LBB484:
 978              	.LBB485:
 979              	.LBB486:
 980              	.LBB487:
 981              	.LBB488:
 982              		.loc 3 546 0
 983              		.syntax unified
 984              	@ 546 "/home/selim/working/ChibiOS/os/ext/CMSIS/include/core_cmFunc.h" 1
 985 007c 86F31188 		MSR basepri, r6
 986              	@ 0 "" 2
 987              	.LVL71:
 988              		.thumb
 989              		.syntax unified
 990              	.LBE488:
 991              	.LBE487:
 992              	.LBE486:
 993              	.LBE485:
 994              	.LBB489:
 995              	.LBB490:
 996              	.LBB491:
 997              	.LBB492:
 998              		.loc 4 129 0
 999 0080 6C6A     		ldr	r4, [r5, #36]
 1000              	.LVL72:
 1001              	.LBE492:
 1002              	.LBE491:
 1003              	.LBE490:
 1004              	.LBE489:
 1005              	.LBB493:
 1006              	.LBB494:
 1007              	.LBB495:
 1008              	.LBB496:
 1009              	.LBB497:
 1010              		.loc 3 546 0
 1011              		.syntax unified
 1012              	@ 546 "/home/selim/working/ChibiOS/os/ext/CMSIS/include/core_cmFunc.h" 1
 1013 0082 80F31188 		MSR basepri, r0
 1014              	@ 0 "" 2
 1015              	.LVL73:
 1016              		.thumb
 1017              		.syntax unified
 1018              	.LBE497:
 1019              	.LBE496:
 1020              	.LBE495:
 1021              	.LBE494:
 1022              	.LBE493:
 1023              	.LBE484:
 1024              	.LBE483:
 1025              		.loc 1 215 0
 1026 0086 04F57A75 		add	r5, r4, #1000
ARM GAS  /tmp/ccMxQxU9.s 			page 19


 1027              	.LVL74:
 1028              		.loc 1 216 0
 1029 008a 2846     		mov	r0, r5
 1030 008c FFF7FEFF 		bl	chThdSleepUntil
 1031              	.LVL75:
 1032              		.loc 1 217 0
 1033 0090 2946     		mov	r1, r5
 1034 0092 04F2EB32 		addw	r2, r4, #1003
 1035 0096 0420     		movs	r0, #4
 1036              	.LBE467:
 1037              	.LBE466:
 1038              		.loc 1 220 0
 1039 0098 BDE87040 		pop	{r4, r5, r6, lr}
 1040              		.cfi_restore 14
 1041              		.cfi_restore 6
 1042              		.cfi_restore 5
 1043              		.cfi_restore 4
 1044              		.cfi_def_cfa_offset 0
 1045              	.LVL76:
 1046              	.LBB499:
 1047              	.LBB498:
 1048              		.loc 1 217 0
 1049 009c FFF7FEBF 		b	_test_assert_time_window
 1050              	.LVL77:
 1051              	.LBE498:
 1052              	.LBE499:
 1053              		.cfi_endproc
 1054              	.LFE231:
 1055              		.size	thd4_execute, .-thd4_execute
 1056              		.global	patternthd
 1057              		.global	testthd4
 1058              		.global	testthd3
 1059              		.global	testthd2
 1060              		.global	testthd1
 1061              		.section	.rodata.testthd1,"a",%progbits
 1062              		.align	2
 1063              		.type	testthd1, %object
 1064              		.size	testthd1, 16
 1065              	testthd1:
 1066 0000 64000000 		.word	.LC9
 1067 0004 00000000 		.word	0
 1068 0008 00000000 		.word	0
 1069 000c 00000000 		.word	thd1_execute
 1070              		.section	.rodata.testthd2,"a",%progbits
 1071              		.align	2
 1072              		.type	testthd2, %object
 1073              		.size	testthd2, 16
 1074              	testthd2:
 1075 0000 48000000 		.word	.LC8
 1076 0004 00000000 		.word	0
 1077 0008 00000000 		.word	0
 1078 000c 00000000 		.word	thd2_execute
 1079              		.section	.rodata.testthd3,"a",%progbits
 1080              		.align	2
 1081              		.type	testthd3, %object
 1082              		.size	testthd3, 16
 1083              	testthd3:
ARM GAS  /tmp/ccMxQxU9.s 			page 20


 1084 0000 2C000000 		.word	.LC7
 1085 0004 00000000 		.word	0
 1086 0008 00000000 		.word	0
 1087 000c 00000000 		.word	thd3_execute
 1088              		.section	.rodata.testthd4,"a",%progbits
 1089              		.align	2
 1090              		.type	testthd4, %object
 1091              		.size	testthd4, 16
 1092              	testthd4:
 1093 0000 1C000000 		.word	.LC6
 1094 0004 00000000 		.word	0
 1095 0008 00000000 		.word	0
 1096 000c 00000000 		.word	thd4_execute
 1097              		.section	.rodata.patternthd,"a",%progbits
 1098              		.align	2
 1099              		.type	patternthd, %object
 1100              		.size	patternthd, 20
 1101              	patternthd:
 1102 0000 00000000 		.word	testthd1
 1103 0004 00000000 		.word	testthd2
 1104 0008 00000000 		.word	testthd3
 1105 000c 00000000 		.word	testthd4
 1106 0010 00000000 		.word	0
 1107              		.section	.rodata.str1.4,"aMS",%progbits,1
 1108              		.align	2
 1109              	.LC0:
 1110 0000 4500     		.ascii	"E\000"
 1111 0002 0000     		.space	2
 1112              	.LC1:
 1113 0004 4400     		.ascii	"D\000"
 1114 0006 0000     		.space	2
 1115              	.LC2:
 1116 0008 4300     		.ascii	"C\000"
 1117 000a 0000     		.space	2
 1118              	.LC3:
 1119 000c 4200     		.ascii	"B\000"
 1120 000e 0000     		.space	2
 1121              	.LC4:
 1122 0010 4100     		.ascii	"A\000"
 1123 0012 0000     		.space	2
 1124              	.LC5:
 1125 0014 41424344 		.ascii	"ABCDE\000"
 1125      4500
 1126 001a 0000     		.space	2
 1127              	.LC6:
 1128 001c 54687265 		.ascii	"Threads, delays\000"
 1128      6164732C 
 1128      2064656C 
 1128      61797300 
 1129              	.LC7:
 1130 002c 54687265 		.ascii	"Threads, priority change\000"
 1130      6164732C 
 1130      20707269 
 1130      6F726974 
 1130      79206368 
 1131 0045 000000   		.space	3
 1132              	.LC8:
ARM GAS  /tmp/ccMxQxU9.s 			page 21


 1133 0048 54687265 		.ascii	"Threads, enqueuing test #2\000"
 1133      6164732C 
 1133      20656E71 
 1133      75657569 
 1133      6E672074 
 1134 0063 00       		.space	1
 1135              	.LC9:
 1136 0064 54687265 		.ascii	"Threads, enqueuing test #1\000"
 1136      6164732C 
 1136      20656E71 
 1136      75657569 
 1136      6E672074 
 1137              		.text
 1138              	.Letext0:
 1139              		.file 5 "/usr/lib/gcc/arm-none-eabi/5.4.1/include/stddef.h"
 1140              		.file 6 "/usr/arm-none-eabi/include/machine/_default_types.h"
 1141              		.file 7 "/usr/arm-none-eabi/include/sys/_stdint.h"
 1142              		.file 8 "/home/selim/working/ChibiOS/os/rt/ports/ARMCMx/compilers/GCC/chtypes.h"
 1143              		.file 9 "/home/selim/working/ChibiOS/os/rt/include/chsystypes.h"
 1144              		.file 10 "/home/selim/working/ChibiOS/os/rt/include/chschd.h"
 1145              		.file 11 "/home/selim/working/ChibiOS/os/rt/ports/ARMCMx/chcore.h"
 1146              		.file 12 "/home/selim/working/ChibiOS/os/rt/ports/ARMCMx/chcore_v7m.h"
 1147              		.file 13 "/home/selim/working/ChibiOS/os/hal/ports/STM32/LLD/TIMv1/stm32_tim.h"
 1148              		.file 14 "/home/selim/working/ChibiOS/os/rt/include/chtm.h"
 1149              		.file 15 "/home/selim/working/ChibiOS/os/rt/include/chsem.h"
 1150              		.file 16 "/home/selim/working/ChibiOS/os/rt/include/chmtx.h"
 1151              		.file 17 "/home/selim/working/ChibiOS/test/rt/test.h"
 1152              		.file 18 "/home/selim/working/ChibiOS/os/rt/ports/ARMCMx/chcore_timer.h"
 1153              		.file 19 "/home/selim/working/ChibiOS/os/rt/include/chsys.h"
 1154              		.file 20 "/home/selim/working/ChibiOS/os/rt/include/chvt.h"
 1155              		.file 21 "/home/selim/working/ChibiOS/os/ext/CMSIS/include/core_cm4.h"