ARM GAS  /tmp/ccLyIQGT.s 			page 1


   1              		.syntax unified
   2              		.cpu cortex-m4
   3              		.fpu softvfp
   4              		.eabi_attribute 20, 1
   5              		.eabi_attribute 21, 1
   6              		.eabi_attribute 23, 3
   7              		.eabi_attribute 24, 1
   8              		.eabi_attribute 25, 1
   9              		.eabi_attribute 26, 1
  10              		.eabi_attribute 30, 2
  11              		.eabi_attribute 34, 1
  12              		.eabi_attribute 18, 4
  13              		.thumb
  14              		.syntax unified
  15              		.file	"uart_lld.c"
  16              		.text
  17              	.Ltext0:
  18              		.cfi_sections	.debug_frame
  19              		.section	.text.usart_stop,"ax",%progbits
  20              		.align	2
  21              		.p2align 4,,15
  22              		.thumb
  23              		.thumb_func
  24              		.type	usart_stop, %function
  25              	usart_stop:
  26              	.LFB260:
  27              		.file 1 "/home/selim/working/ChibiOS/os/hal/ports/STM32/LLD/USARTv1/uart_lld.c"
  28              		.loc 1 180 0
  29              		.cfi_startproc
  30              		@ args = 0, pretend = 0, frame = 0
  31              		@ frame_needed = 0, uses_anonymous_args = 0
  32              		@ link register save eliminated.
  33              	.LVL0:
  34              		.loc 1 183 0
  35 0000 0169     		ldr	r1, [r0, #16]
  36 0002 0A68     		ldr	r2, [r1]
  37 0004 1368     		ldr	r3, [r2]
  38 0006 23F01F03 		bic	r3, r3, #31
  39 000a 1360     		str	r3, [r2]
  40              	.L2:
  41              		.loc 1 183 0 is_stmt 0 discriminator 2
  42 000c 1368     		ldr	r3, [r2]
  43 000e DB07     		lsls	r3, r3, #31
  44 0010 FCD4     		bmi	.L2
  45              		.loc 1 180 0 is_stmt 1 discriminator 3
  46 0012 30B4     		push	{r4, r5}
  47              		.cfi_def_cfa_offset 8
  48              		.cfi_offset 4, -8
  49              		.cfi_offset 5, -4
  50              		.loc 1 184 0 discriminator 3
  51 0014 4469     		ldr	r4, [r0, #20]
  52              		.loc 1 183 0 discriminator 3
  53 0016 0D7A     		ldrb	r5, [r1, #8]	@ zero_extendqisi2
  54 0018 4968     		ldr	r1, [r1, #4]
  55              		.loc 1 184 0 discriminator 3
  56 001a 2268     		ldr	r2, [r4]
  57              		.loc 1 183 0 discriminator 3
ARM GAS  /tmp/ccLyIQGT.s 			page 2


  58 001c 3D23     		movs	r3, #61
  59 001e AB40     		lsls	r3, r3, r5
  60 0020 0B60     		str	r3, [r1]
  61              		.loc 1 184 0 discriminator 3
  62 0022 1368     		ldr	r3, [r2]
  63 0024 23F01F03 		bic	r3, r3, #31
  64 0028 1360     		str	r3, [r2]
  65              	.L3:
  66              		.loc 1 184 0 is_stmt 0 discriminator 2
  67 002a 1368     		ldr	r3, [r2]
  68 002c 13F00103 		ands	r3, r3, #1
  69 0030 FBD1     		bne	.L3
  70              		.loc 1 184 0 discriminator 3
  71 0032 257A     		ldrb	r5, [r4, #8]	@ zero_extendqisi2
  72              		.loc 1 187 0 is_stmt 1 discriminator 3
  73 0034 8268     		ldr	r2, [r0, #8]
  74              		.loc 1 184 0 discriminator 3
  75 0036 6068     		ldr	r0, [r4, #4]
  76              	.LVL1:
  77 0038 3D21     		movs	r1, #61
  78 003a A940     		lsls	r1, r1, r5
  79 003c 0160     		str	r1, [r0]
  80              		.loc 1 190 0 discriminator 3
  81 003e 30BC     		pop	{r4, r5}
  82              		.cfi_restore 5
  83              		.cfi_restore 4
  84              		.cfi_def_cfa_offset 0
  85              		.loc 1 187 0 discriminator 3
  86 0040 D360     		str	r3, [r2, #12]
  87              		.loc 1 188 0 discriminator 3
  88 0042 1361     		str	r3, [r2, #16]
  89              		.loc 1 189 0 discriminator 3
  90 0044 5361     		str	r3, [r2, #20]
  91              		.loc 1 190 0 discriminator 3
  92 0046 7047     		bx	lr
  93              		.cfi_endproc
  94              	.LFE260:
  95              		.size	usart_stop, .-usart_stop
  96              		.section	.text.uart_lld_serve_tx_end_irq,"ax",%progbits
  97              		.align	2
  98              		.p2align 4,,15
  99              		.thumb
 100              		.thumb_func
 101              		.type	uart_lld_serve_tx_end_irq, %function
 102              	uart_lld_serve_tx_end_irq:
 103              	.LFB263:
 104              		.loc 1 281 0
 105              		.cfi_startproc
 106              		@ args = 0, pretend = 0, frame = 0
 107              		@ frame_needed = 0, uses_anonymous_args = 0
 108              	.LVL2:
 109              		.loc 1 285 0
 110 0000 11F00C0F 		tst	r1, #12
 111              		.loc 1 281 0
 112 0004 38B5     		push	{r3, r4, r5, lr}
 113              		.cfi_def_cfa_offset 16
 114              		.cfi_offset 3, -16
ARM GAS  /tmp/ccLyIQGT.s 			page 3


 115              		.cfi_offset 4, -12
 116              		.cfi_offset 5, -8
 117              		.cfi_offset 14, -4
 118              		.loc 1 281 0
 119 0006 0446     		mov	r4, r0
 120              		.loc 1 285 0
 121 0008 1BD1     		bne	.L22
 122              	.LVL3:
 123              	.L9:
 124              		.loc 1 292 0
 125 000a 6169     		ldr	r1, [r4, #20]
 126 000c 0A68     		ldr	r2, [r1]
 127 000e 1368     		ldr	r3, [r2]
 128 0010 23F01F03 		bic	r3, r3, #31
 129 0014 1360     		str	r3, [r2]
 130              	.L10:
 131              		.loc 1 292 0 is_stmt 0 discriminator 2
 132 0016 1368     		ldr	r3, [r2]
 133 0018 DB07     		lsls	r3, r3, #31
 134 001a FCD4     		bmi	.L10
 135              		.loc 1 296 0 is_stmt 1 discriminator 3
 136 001c 6368     		ldr	r3, [r4, #4]
 137              		.loc 1 292 0 discriminator 3
 138 001e 0D7A     		ldrb	r5, [r1, #8]	@ zero_extendqisi2
 139 0020 4868     		ldr	r0, [r1, #4]
 140              		.loc 1 296 0 discriminator 3
 141 0022 1A68     		ldr	r2, [r3]
 142              		.loc 1 292 0 discriminator 3
 143 0024 3D23     		movs	r3, #61
 144 0026 AB40     		lsls	r3, r3, r5
 145              		.loc 1 295 0 discriminator 3
 146 0028 0221     		movs	r1, #2
 147              		.loc 1 292 0 discriminator 3
 148 002a 0360     		str	r3, [r0]
 149              		.loc 1 295 0 discriminator 3
 150 002c 6170     		strb	r1, [r4, #1]
 151              		.loc 1 296 0 discriminator 3
 152 002e 2AB1     		cbz	r2, .L13
 153              		.loc 1 297 0
 154 0030 2046     		mov	r0, r4
 155 0032 9047     		blx	r2
 156              	.LVL4:
 157              		.loc 1 301 0
 158 0034 6378     		ldrb	r3, [r4, #1]	@ zero_extendqisi2
 159 0036 022B     		cmp	r3, #2
 160 0038 00D0     		beq	.L13
 161 003a 38BD     		pop	{r3, r4, r5, pc}
 162              	.LVL5:
 163              	.L13:
 164              		.loc 1 302 0
 165 003c 0023     		movs	r3, #0
 166 003e 6370     		strb	r3, [r4, #1]
 167 0040 38BD     		pop	{r3, r4, r5, pc}
 168              	.LVL6:
 169              	.L22:
 170              	.LBB16:
 171              	.LBB17:
ARM GAS  /tmp/ccLyIQGT.s 			page 4


 172              		.file 2 "/home/selim/working/ChibiOS/os/hal/osal/rt/osal.h"
 173              		.loc 2 416 0
 174 0042 0248     		ldr	r0, .L23
 175              	.LVL7:
 176 0044 FFF7FEFF 		bl	chSysHalt
 177              	.LVL8:
 178 0048 DFE7     		b	.L9
 179              	.L24:
 180 004a 00BF     		.align	2
 181              	.L23:
 182 004c 00000000 		.word	.LC0
 183              	.LBE17:
 184              	.LBE16:
 185              		.cfi_endproc
 186              	.LFE263:
 187              		.size	uart_lld_serve_tx_end_irq, .-uart_lld_serve_tx_end_irq
 188              		.section	.text.uart_lld_serve_rx_end_irq,"ax",%progbits
 189              		.align	2
 190              		.p2align 4,,15
 191              		.thumb
 192              		.thumb_func
 193              		.type	uart_lld_serve_rx_end_irq, %function
 194              	uart_lld_serve_rx_end_irq:
 195              	.LFB262:
 196              		.loc 1 241 0
 197              		.cfi_startproc
 198              		@ args = 0, pretend = 0, frame = 0
 199              		@ frame_needed = 0, uses_anonymous_args = 0
 200              	.LVL9:
 201              		.loc 1 245 0
 202 0000 11F00C0F 		tst	r1, #12
 203              		.loc 1 241 0
 204 0004 70B5     		push	{r4, r5, r6, lr}
 205              		.cfi_def_cfa_offset 16
 206              		.cfi_offset 4, -16
 207              		.cfi_offset 5, -12
 208              		.cfi_offset 6, -8
 209              		.cfi_offset 14, -4
 210              		.loc 1 241 0
 211 0006 0446     		mov	r4, r0
 212              		.loc 1 245 0
 213 0008 3BD1     		bne	.L41
 214              	.LVL10:
 215              	.L26:
 216              		.loc 1 252 0
 217 000a A378     		ldrb	r3, [r4, #2]	@ zero_extendqisi2
 218 000c 4BB9     		cbnz	r3, .L27
 219              		.loc 1 255 0
 220 000e 6368     		ldr	r3, [r4, #4]
 221 0010 DB68     		ldr	r3, [r3, #12]
 222 0012 002B     		cmp	r3, #0
 223 0014 34D0     		beq	.L25
 224              		.loc 1 256 0
 225 0016 218B     		ldrh	r1, [r4, #24]
 226 0018 2046     		mov	r0, r4
 227 001a 89B2     		uxth	r1, r1
 228              		.loc 1 273 0
ARM GAS  /tmp/ccLyIQGT.s 			page 5


 229 001c BDE87040 		pop	{r4, r5, r6, lr}
 230              		.cfi_remember_state
 231              		.cfi_restore 14
 232              		.cfi_restore 6
 233              		.cfi_restore 5
 234              		.cfi_restore 4
 235              		.cfi_def_cfa_offset 0
 236              	.LVL11:
 237              		.loc 1 256 0
 238 0020 1847     		bx	r3	@ indirect register sibling call
 239              	.LVL12:
 240              	.L27:
 241              		.cfi_restore_state
 242              	.LBB26:
 243              	.LBB27:
 244              		.loc 1 261 0
 245 0022 2169     		ldr	r1, [r4, #16]
 246 0024 0A68     		ldr	r2, [r1]
 247 0026 1368     		ldr	r3, [r2]
 248 0028 23F01F03 		bic	r3, r3, #31
 249 002c 1360     		str	r3, [r2]
 250              	.L30:
 251 002e 1368     		ldr	r3, [r2]
 252 0030 DB07     		lsls	r3, r3, #31
 253 0032 FCD4     		bmi	.L30
 254              		.loc 1 263 0
 255 0034 6068     		ldr	r0, [r4, #4]
 256              		.loc 1 261 0
 257 0036 0D7A     		ldrb	r5, [r1, #8]	@ zero_extendqisi2
 258 0038 4E68     		ldr	r6, [r1, #4]
 259              		.loc 1 263 0
 260 003a 8168     		ldr	r1, [r0, #8]
 261              		.loc 1 261 0
 262 003c 3D23     		movs	r3, #61
 263 003e AB40     		lsls	r3, r3, r5
 264              		.loc 1 262 0
 265 0040 0225     		movs	r5, #2
 266              		.loc 1 261 0
 267 0042 3360     		str	r3, [r6]
 268              		.loc 1 262 0
 269 0044 A570     		strb	r5, [r4, #2]
 270              		.loc 1 263 0
 271 0046 39B1     		cbz	r1, .L31
 272              		.loc 1 264 0
 273 0048 2046     		mov	r0, r4
 274 004a 8847     		blx	r1
 275              	.LVL13:
 276              		.loc 1 268 0
 277 004c A378     		ldrb	r3, [r4, #2]	@ zero_extendqisi2
 278 004e AB42     		cmp	r3, r5
 279 0050 16D1     		bne	.L25
 280 0052 2369     		ldr	r3, [r4, #16]
 281 0054 6068     		ldr	r0, [r4, #4]
 282 0056 1A68     		ldr	r2, [r3]
 283              	.L31:
 284              	.LBB28:
 285              	.LBB29:
ARM GAS  /tmp/ccLyIQGT.s 			page 6


 286              		.loc 1 164 0
 287 0058 C168     		ldr	r1, [r0, #12]
 288              		.loc 1 170 0
 289 005a E368     		ldr	r3, [r4, #12]
 290              		.loc 1 165 0
 291 005c 0029     		cmp	r1, #0
 292 005e 14BF     		ite	ne
 293 0060 4FF48871 		movne	r1, #272
 294 0064 4FF48071 		moveq	r1, #256
 295              		.loc 1 170 0
 296 0068 0B43     		orrs	r3, r3, r1
 297              	.LBE29:
 298              	.LBE28:
 299              		.loc 1 269 0
 300 006a 0025     		movs	r5, #0
 301              	.LBB32:
 302              	.LBB30:
 303              		.loc 1 169 0
 304 006c 0121     		movs	r1, #1
 305              		.loc 1 168 0
 306 006e 04F11800 		add	r0, r4, #24
 307              	.LBE30:
 308              	.LBE32:
 309              		.loc 1 269 0
 310 0072 A570     		strb	r5, [r4, #2]
 311              	.LVL14:
 312              	.LBB33:
 313              	.LBB31:
 314              		.loc 1 168 0
 315 0074 D060     		str	r0, [r2, #12]
 316              		.loc 1 169 0
 317 0076 5160     		str	r1, [r2, #4]
 318              		.loc 1 170 0
 319 0078 1360     		str	r3, [r2]
 320              		.loc 1 171 0
 321 007a 1368     		ldr	r3, [r2]
 322 007c 0B43     		orrs	r3, r3, r1
 323 007e 1360     		str	r3, [r2]
 324              	.LVL15:
 325              	.L25:
 326 0080 70BD     		pop	{r4, r5, r6, pc}
 327              	.LVL16:
 328              	.L41:
 329              	.LBE31:
 330              	.LBE33:
 331              	.LBE27:
 332              	.LBE26:
 333              	.LBB34:
 334              	.LBB35:
 335              		.loc 2 416 0
 336 0082 0248     		ldr	r0, .L42
 337              	.LVL17:
 338 0084 FFF7FEFF 		bl	chSysHalt
 339              	.LVL18:
 340 0088 BFE7     		b	.L26
 341              	.L43:
 342 008a 00BF     		.align	2
ARM GAS  /tmp/ccLyIQGT.s 			page 7


 343              	.L42:
 344 008c 00000000 		.word	.LC0
 345              	.LBE35:
 346              	.LBE34:
 347              		.cfi_endproc
 348              	.LFE262:
 349              		.size	uart_lld_serve_rx_end_irq, .-uart_lld_serve_rx_end_irq
 350              		.section	.text.VectorD8,"ax",%progbits
 351              		.align	2
 352              		.p2align 4,,15
 353              		.global	VectorD8
 354              		.thumb
 355              		.thumb_func
 356              		.type	VectorD8, %function
 357              	VectorD8:
 358              	.LFB265:
 359              		.loc 1 368 0
 360              		.cfi_startproc
 361              		@ args = 0, pretend = 0, frame = 0
 362              		@ frame_needed = 0, uses_anonymous_args = 0
 363              	.LVL19:
 364 0000 F8B5     		push	{r3, r4, r5, r6, r7, lr}
 365              		.cfi_def_cfa_offset 24
 366              		.cfi_offset 3, -24
 367              		.cfi_offset 4, -20
 368              		.cfi_offset 5, -16
 369              		.cfi_offset 6, -12
 370              		.cfi_offset 7, -8
 371              		.cfi_offset 14, -4
 372              	.LBB40:
 373              	.LBB41:
 374              		.loc 1 312 0
 375 0002 1D4E     		ldr	r6, .L79
 376 0004 B468     		ldr	r4, [r6, #8]
 377              	.LVL20:
 378              		.loc 1 313 0
 379 0006 E768     		ldr	r7, [r4, #12]
 380              	.LVL21:
 381              		.loc 1 315 0
 382 0008 2568     		ldr	r5, [r4]
 383              	.LVL22:
 384              		.loc 1 316 0
 385 000a 6368     		ldr	r3, [r4, #4]
 386              		.loc 1 318 0
 387 000c 40F20F13 		movw	r3, #271
 388 0010 2B40     		ands	r3, r3, r5
 389 0012 EBB1     		cbz	r3, .L46
 390              		.loc 1 321 0
 391 0014 7368     		ldr	r3, [r6, #4]
 392 0016 1A69     		ldr	r2, [r3, #16]
 393              		.loc 1 320 0
 394 0018 6FF48073 		mvn	r3, #256
 395 001c 2360     		str	r3, [r4]
 396              		.loc 1 321 0
 397 001e BAB1     		cbz	r2, .L46
 398              		.loc 1 315 0
 399 0020 ABB2     		uxth	r3, r5
ARM GAS  /tmp/ccLyIQGT.s 			page 8


 400              	.LVL23:
 401              	.LBB42:
 402              	.LBB43:
 403              		.loc 1 142 0
 404 0022 13F0080F 		tst	r3, #8
 405 0026 0CBF     		ite	eq
 406 0028 0021     		moveq	r1, #0
 407 002a 1021     		movne	r1, #16
 408              	.LVL24:
 409              		.loc 1 143 0
 410 002c D807     		lsls	r0, r3, #31
 411              		.loc 1 144 0
 412 002e 48BF     		it	mi
 413 0030 41F00401 		orrmi	r1, r1, #4
 414              	.LVL25:
 415              		.loc 1 145 0
 416 0034 9807     		lsls	r0, r3, #30
 417              		.loc 1 146 0
 418 0036 48BF     		it	mi
 419 0038 41F00801 		orrmi	r1, r1, #8
 420              	.LVL26:
 421              		.loc 1 147 0
 422 003c 5807     		lsls	r0, r3, #29
 423              		.loc 1 148 0
 424 003e 48BF     		it	mi
 425 0040 41F02001 		orrmi	r1, r1, #32
 426              	.LVL27:
 427              		.loc 1 149 0
 428 0044 D805     		lsls	r0, r3, #23
 429              		.loc 1 150 0
 430 0046 48BF     		it	mi
 431 0048 41F04001 		orrmi	r1, r1, #64
 432              	.LVL28:
 433              	.LBE43:
 434              	.LBE42:
 435              		.loc 1 322 0
 436 004c 0A48     		ldr	r0, .L79
 437 004e 9047     		blx	r2
 438              	.LVL29:
 439              	.L46:
 440              		.loc 1 325 0
 441 0050 6A06     		lsls	r2, r5, #25
 442 0052 0CD5     		bpl	.L54
 443 0054 7B06     		lsls	r3, r7, #25
 444 0056 0AD5     		bpl	.L54
 445              		.loc 1 331 0
 446 0058 7368     		ldr	r3, [r6, #4]
 447 005a 5B68     		ldr	r3, [r3, #4]
 448              		.loc 1 328 0
 449 005c 27F04007 		bic	r7, r7, #64
 450              	.LVL30:
 451              		.loc 1 327 0
 452 0060 6FF04002 		mvn	r2, #64
 453 0064 2260     		str	r2, [r4]
 454              		.loc 1 328 0
 455 0066 E760     		str	r7, [r4, #12]
 456              		.loc 1 331 0
ARM GAS  /tmp/ccLyIQGT.s 			page 9


 457 0068 0BB1     		cbz	r3, .L54
 458              		.loc 1 332 0
 459 006a 0348     		ldr	r0, .L79
 460 006c 9847     		blx	r3
 461              	.LVL31:
 462              	.L54:
 463              	.LBE41:
 464              	.LBE40:
 465              		.loc 1 375 0
 466 006e BDE8F840 		pop	{r3, r4, r5, r6, r7, lr}
 467              		.cfi_restore 14
 468              		.cfi_restore 7
 469              		.cfi_restore 6
 470              		.cfi_restore 5
 471              		.cfi_restore 4
 472              		.cfi_restore 3
 473              		.cfi_def_cfa_offset 0
 474              		.loc 1 374 0
 475 0072 FFF7FEBF 		b	_port_irq_epilogue
 476              	.LVL32:
 477              	.L80:
 478 0076 00BF     		.align	2
 479              	.L79:
 480 0078 00000000 		.word	.LANCHOR0
 481              		.cfi_endproc
 482              	.LFE265:
 483              		.size	VectorD8, .-VectorD8
 484              		.section	.text.uart_lld_init,"ax",%progbits
 485              		.align	2
 486              		.p2align 4,,15
 487              		.global	uart_lld_init
 488              		.thumb
 489              		.thumb_func
 490              		.type	uart_lld_init, %function
 491              	uart_lld_init:
 492              	.LFB266:
 493              		.loc 1 463 0
 494              		.cfi_startproc
 495              		@ args = 0, pretend = 0, frame = 0
 496              		@ frame_needed = 0, uses_anonymous_args = 0
 497 0000 10B5     		push	{r4, lr}
 498              		.cfi_def_cfa_offset 8
 499              		.cfi_offset 4, -8
 500              		.cfi_offset 14, -4
 501              		.loc 1 474 0
 502 0002 074C     		ldr	r4, .L83
 503 0004 2046     		mov	r0, r4
 504 0006 FFF7FEFF 		bl	uartObjectInit
 505              	.LVL33:
 506              		.loc 1 477 0
 507 000a 064B     		ldr	r3, .L83+4
 508              		.loc 1 475 0
 509 000c 064A     		ldr	r2, .L83+8
 510 000e A260     		str	r2, [r4, #8]
 511              		.loc 1 476 0
 512 0010 0621     		movs	r1, #6
 513              		.loc 1 478 0
ARM GAS  /tmp/ccLyIQGT.s 			page 10


 514 0012 03F10C02 		add	r2, r3, #12
 515              		.loc 1 476 0
 516 0016 E160     		str	r1, [r4, #12]
 517              		.loc 1 477 0
 518 0018 2361     		str	r3, [r4, #16]
 519              		.loc 1 478 0
 520 001a 6261     		str	r2, [r4, #20]
 521 001c 10BD     		pop	{r4, pc}
 522              	.L84:
 523 001e 00BF     		.align	2
 524              	.L83:
 525 0020 00000000 		.word	.LANCHOR0
 526 0024 3C000000 		.word	_stm32_dma_streams+60
 527 0028 00440040 		.word	1073759232
 528              		.cfi_endproc
 529              	.LFE266:
 530              		.size	uart_lld_init, .-uart_lld_init
 531              		.section	.text.uart_lld_start,"ax",%progbits
 532              		.align	2
 533              		.p2align 4,,15
 534              		.global	uart_lld_start
 535              		.thumb
 536              		.thumb_func
 537              		.type	uart_lld_start, %function
 538              	uart_lld_start:
 539              	.LFB267:
 540              		.loc 1 520 0
 541              		.cfi_startproc
 542              		@ args = 0, pretend = 0, frame = 0
 543              		@ frame_needed = 0, uses_anonymous_args = 0
 544              	.LVL34:
 545 0000 F8B5     		push	{r3, r4, r5, r6, r7, lr}
 546              		.cfi_def_cfa_offset 24
 547              		.cfi_offset 3, -24
 548              		.cfi_offset 4, -20
 549              		.cfi_offset 5, -16
 550              		.cfi_offset 6, -12
 551              		.cfi_offset 7, -8
 552              		.cfi_offset 14, -4
 553              		.loc 1 522 0
 554 0002 0378     		ldrb	r3, [r0]	@ zero_extendqisi2
 555 0004 012B     		cmp	r3, #1
 556              		.loc 1 520 0
 557 0006 0446     		mov	r4, r0
 558              		.loc 1 522 0
 559 0008 3ED0     		beq	.L86
 560 000a 8568     		ldr	r5, [r0, #8]
 561              	.LVL35:
 562              	.L87:
 563              		.loc 1 664 0
 564 000c 0023     		movs	r3, #0
 565 000e A370     		strb	r3, [r4, #2]
 566              		.loc 1 665 0
 567 0010 6370     		strb	r3, [r4, #1]
 568              	.LVL36:
 569              	.LBB49:
 570              	.LBB50:
ARM GAS  /tmp/ccLyIQGT.s 			page 11


 571              		.loc 1 203 0
 572 0012 2046     		mov	r0, r4
 573 0014 FFF7FEFF 		bl	usart_stop
 574              	.LVL37:
 575              		.loc 1 207 0
 576 0018 A368     		ldr	r3, [r4, #8]
 577 001a 394A     		ldr	r2, .L98
 578 001c 9342     		cmp	r3, r2
 579 001e 48D0     		beq	.L90
 580 0020 02F58062 		add	r2, r2, #1024
 581 0024 9342     		cmp	r3, r2
 582 0026 44D0     		beq	.L90
 583              		.loc 1 213 0
 584 0028 6268     		ldr	r2, [r4, #4]
 585 002a 364B     		ldr	r3, .L98+4
 586 002c 5169     		ldr	r1, [r2, #20]
 587 002e B3FBF1F3 		udiv	r3, r3, r1
 588 0032 AB60     		str	r3, [r5, #8]
 589              	.L92:
 590              	.LBB51:
 591              	.LBB52:
 592              		.loc 1 164 0
 593 0034 D768     		ldr	r7, [r2, #12]
 594              	.LBE52:
 595              	.LBE51:
 596              		.loc 1 229 0
 597 0036 138B     		ldrh	r3, [r2, #24]
 598              		.loc 1 222 0
 599 0038 508B     		ldrh	r0, [r2, #26]
 600              		.loc 1 223 0
 601 003a 918B     		ldrh	r1, [r2, #28]
 602              	.LBB60:
 603              	.LBB53:
 604              		.loc 1 168 0
 605 003c 2269     		ldr	r2, [r4, #16]
 606              	.LBE53:
 607              	.LBE60:
 608              		.loc 1 216 0
 609 003e 2E68     		ldr	r6, [r5]
 610              		.loc 1 217 0
 611 0040 6E68     		ldr	r6, [r5, #4]
 612              	.LBB61:
 613              	.LBB54:
 614              		.loc 1 170 0
 615 0042 E668     		ldr	r6, [r4, #12]
 616              		.loc 1 168 0
 617 0044 1268     		ldr	r2, [r2]
 618              		.loc 1 164 0
 619 0046 002F     		cmp	r7, #0
 620              	.LBE54:
 621              	.LBE61:
 622              		.loc 1 229 0
 623 0048 43F40453 		orr	r3, r3, #8448
 624              		.loc 1 218 0
 625 004c 4FF00007 		mov	r7, #0
 626 0050 2F60     		str	r7, [r5]
 627              		.loc 1 222 0
ARM GAS  /tmp/ccLyIQGT.s 			page 12


 628 0052 40F04000 		orr	r0, r0, #64
 629              	.LBB62:
 630              	.LBB55:
 631              		.loc 1 165 0
 632 0056 14BF     		ite	ne
 633 0058 4FF48877 		movne	r7, #272
 634 005c 4FF48077 		moveq	r7, #256
 635              	.LBE55:
 636              	.LBE62:
 637              		.loc 1 229 0
 638 0060 43F00C03 		orr	r3, r3, #12
 639              		.loc 1 223 0
 640 0064 41F0C101 		orr	r1, r1, #193
 641              		.loc 1 229 0
 642 0068 9BB2     		uxth	r3, r3
 643              	.LBB63:
 644              	.LBB56:
 645              		.loc 1 170 0
 646 006a 3E43     		orrs	r6, r6, r7
 647              	.LBE56:
 648              	.LBE63:
 649              		.loc 1 222 0
 650 006c 80B2     		uxth	r0, r0
 651              	.LBB64:
 652              	.LBB57:
 653              		.loc 1 169 0
 654 006e 0127     		movs	r7, #1
 655              	.LBE57:
 656              	.LBE64:
 657              		.loc 1 223 0
 658 0070 89B2     		uxth	r1, r1
 659              	.LBB65:
 660              	.LBB58:
 661              		.loc 1 168 0
 662 0072 1834     		adds	r4, r4, #24
 663              	.LVL38:
 664              	.LBE58:
 665              	.LBE65:
 666              		.loc 1 222 0
 667 0074 2861     		str	r0, [r5, #16]
 668              		.loc 1 223 0
 669 0076 6961     		str	r1, [r5, #20]
 670              	.LVL39:
 671              		.loc 1 229 0
 672 0078 EB60     		str	r3, [r5, #12]
 673              	.LVL40:
 674              	.LBB66:
 675              	.LBB59:
 676              		.loc 1 168 0
 677 007a D460     		str	r4, [r2, #12]
 678              		.loc 1 169 0
 679 007c 5760     		str	r7, [r2, #4]
 680              		.loc 1 170 0
 681 007e 1660     		str	r6, [r2]
 682              		.loc 1 171 0
 683 0080 1368     		ldr	r3, [r2]
 684 0082 3B43     		orrs	r3, r3, r7
ARM GAS  /tmp/ccLyIQGT.s 			page 13


 685 0084 1360     		str	r3, [r2]
 686              	.LVL41:
 687 0086 F8BD     		pop	{r3, r4, r5, r6, r7, pc}
 688              	.LVL42:
 689              	.L86:
 690              	.LBE59:
 691              	.LBE66:
 692              	.LBE50:
 693              	.LBE49:
 694              		.loc 1 544 0
 695 0088 1F4B     		ldr	r3, .L98+8
 696 008a 9842     		cmp	r0, r3
 697 008c 1DD0     		beq	.L96
 698              	.LVL43:
 699              	.L88:
 700              		.loc 1 657 0
 701 008e 6368     		ldr	r3, [r4, #4]
 702 0090 1B8B     		ldrh	r3, [r3, #24]
 703 0092 03F4A053 		and	r3, r3, #5120
 704 0096 B3F5805F 		cmp	r3, #4096
 705 009a 11D0     		beq	.L97
 706              	.L89:
 707              		.loc 1 659 0
 708 009c 2269     		ldr	r2, [r4, #16]
 709              		.loc 1 660 0
 710 009e 6369     		ldr	r3, [r4, #20]
 711              		.loc 1 659 0
 712 00a0 A568     		ldr	r5, [r4, #8]
 713 00a2 1068     		ldr	r0, [r2]
 714              		.loc 1 660 0
 715 00a4 1968     		ldr	r1, [r3]
 716              		.loc 1 661 0
 717 00a6 0022     		movs	r2, #0
 718              		.loc 1 659 0
 719 00a8 2B1D     		adds	r3, r5, #4
 720 00aa 8360     		str	r3, [r0, #8]
 721              		.loc 1 660 0
 722 00ac 8B60     		str	r3, [r1, #8]
 723              		.loc 1 661 0
 724 00ae 2283     		strh	r2, [r4, #24]	@ movhi
 725 00b0 ACE7     		b	.L87
 726              	.LVL44:
 727              	.L90:
 728              	.LBB68:
 729              	.LBB67:
 730              		.loc 1 211 0
 731 00b2 6268     		ldr	r2, [r4, #4]
 732 00b4 154B     		ldr	r3, .L98+12
 733 00b6 5169     		ldr	r1, [r2, #20]
 734 00b8 B3FBF1F3 		udiv	r3, r3, r1
 735 00bc AB60     		str	r3, [r5, #8]
 736 00be B9E7     		b	.L92
 737              	.LVL45:
 738              	.L97:
 739              	.LBE67:
 740              	.LBE68:
 741              		.loc 1 658 0
ARM GAS  /tmp/ccLyIQGT.s 			page 14


 742 00c0 E368     		ldr	r3, [r4, #12]
 743 00c2 43F42053 		orr	r3, r3, #10240
 744 00c6 E360     		str	r3, [r4, #12]
 745 00c8 E8E7     		b	.L89
 746              	.LVL46:
 747              	.L96:
 748              	.LBB69:
 749              		.loc 1 546 0
 750 00ca 0346     		mov	r3, r0
 751 00cc 104A     		ldr	r2, .L98+16
 752 00ce 0069     		ldr	r0, [r0, #16]
 753              	.LVL47:
 754 00d0 0C21     		movs	r1, #12
 755 00d2 FFF7FEFF 		bl	dmaStreamAllocate
 756              	.LVL48:
 757              		.loc 1 551 0
 758 00d6 2346     		mov	r3, r4
 759 00d8 0E4A     		ldr	r2, .L98+20
 760 00da 6069     		ldr	r0, [r4, #20]
 761 00dc 0C21     		movs	r1, #12
 762 00de FFF7FEFF 		bl	dmaStreamAllocate
 763              	.LVL49:
 764              		.loc 1 556 0
 765 00e2 0D4A     		ldr	r2, .L98+24
 766 00e4 136C     		ldr	r3, [r2, #64]
 767 00e6 43F40033 		orr	r3, r3, #131072
 768 00ea 1364     		str	r3, [r2, #64]
 769              		.loc 1 557 0
 770 00ec 0C21     		movs	r1, #12
 771 00ee 2620     		movs	r0, #38
 772 00f0 FFF7FEFF 		bl	nvicEnableVector
 773              	.LVL50:
 774              		.loc 1 558 0
 775 00f4 E368     		ldr	r3, [r4, #12]
 776 00f6 43F00063 		orr	r3, r3, #134217728
 777 00fa E360     		str	r3, [r4, #12]
 778 00fc C7E7     		b	.L88
 779              	.L99:
 780 00fe 00BF     		.align	2
 781              	.L98:
 782 0100 00100140 		.word	1073811456
 783 0104 80DE8002 		.word	42000000
 784 0108 00000000 		.word	.LANCHOR0
 785 010c 00BD0105 		.word	84000000
 786 0110 00000000 		.word	uart_lld_serve_rx_end_irq
 787 0114 00000000 		.word	uart_lld_serve_tx_end_irq
 788 0118 00380240 		.word	1073887232
 789              	.LBE69:
 790              		.cfi_endproc
 791              	.LFE267:
 792              		.size	uart_lld_start, .-uart_lld_start
 793              		.section	.text.uart_lld_stop,"ax",%progbits
 794              		.align	2
 795              		.p2align 4,,15
 796              		.global	uart_lld_stop
 797              		.thumb
 798              		.thumb_func
ARM GAS  /tmp/ccLyIQGT.s 			page 15


 799              		.type	uart_lld_stop, %function
 800              	uart_lld_stop:
 801              	.LFB268:
 802              		.loc 1 676 0
 803              		.cfi_startproc
 804              		@ args = 0, pretend = 0, frame = 0
 805              		@ frame_needed = 0, uses_anonymous_args = 0
 806              	.LVL51:
 807              		.loc 1 678 0
 808 0000 0278     		ldrb	r2, [r0]	@ zero_extendqisi2
 809 0002 022A     		cmp	r2, #2
 810 0004 00D0     		beq	.L106
 811 0006 7047     		bx	lr
 812              	.L106:
 813              		.loc 1 676 0
 814 0008 10B5     		push	{r4, lr}
 815              		.cfi_def_cfa_offset 8
 816              		.cfi_offset 4, -8
 817              		.cfi_offset 14, -4
 818 000a 0446     		mov	r4, r0
 819              		.loc 1 679 0
 820 000c FFF7FEFF 		bl	usart_stop
 821              	.LVL52:
 822              		.loc 1 680 0
 823 0010 2069     		ldr	r0, [r4, #16]
 824 0012 FFF7FEFF 		bl	dmaStreamRelease
 825              	.LVL53:
 826              		.loc 1 681 0
 827 0016 6069     		ldr	r0, [r4, #20]
 828 0018 FFF7FEFF 		bl	dmaStreamRelease
 829              	.LVL54:
 830              		.loc 1 692 0
 831 001c 064B     		ldr	r3, .L108
 832 001e 9C42     		cmp	r4, r3
 833 0020 00D0     		beq	.L107
 834              	.L100:
 835 0022 10BD     		pop	{r4, pc}
 836              	.LVL55:
 837              	.L107:
 838              		.loc 1 693 0
 839 0024 2620     		movs	r0, #38
 840 0026 FFF7FEFF 		bl	nvicDisableVector
 841              	.LVL56:
 842              		.loc 1 694 0
 843 002a 044A     		ldr	r2, .L108+4
 844 002c 136C     		ldr	r3, [r2, #64]
 845 002e 23F40033 		bic	r3, r3, #131072
 846 0032 1364     		str	r3, [r2, #64]
 847              		.loc 1 695 0
 848 0034 F5E7     		b	.L100
 849              	.L109:
 850 0036 00BF     		.align	2
 851              	.L108:
 852 0038 00000000 		.word	.LANCHOR0
 853 003c 00380240 		.word	1073887232
 854              		.cfi_endproc
 855              	.LFE268:
ARM GAS  /tmp/ccLyIQGT.s 			page 16


 856              		.size	uart_lld_stop, .-uart_lld_stop
 857              		.section	.text.uart_lld_start_send,"ax",%progbits
 858              		.align	2
 859              		.p2align 4,,15
 860              		.global	uart_lld_start_send
 861              		.thumb
 862              		.thumb_func
 863              		.type	uart_lld_start_send, %function
 864              	uart_lld_start_send:
 865              	.LFB269:
 866              		.loc 1 744 0
 867              		.cfi_startproc
 868              		@ args = 0, pretend = 0, frame = 0
 869              		@ frame_needed = 0, uses_anonymous_args = 0
 870              		@ link register save eliminated.
 871              	.LVL57:
 872 0000 30B4     		push	{r4, r5}
 873              		.cfi_def_cfa_offset 8
 874              		.cfi_offset 4, -8
 875              		.cfi_offset 5, -4
 876              		.loc 1 747 0
 877 0002 4369     		ldr	r3, [r0, #20]
 878              		.loc 1 754 0
 879 0004 4568     		ldr	r5, [r0, #4]
 880              		.loc 1 749 0
 881 0006 C468     		ldr	r4, [r0, #12]
 882              		.loc 1 747 0
 883 0008 1B68     		ldr	r3, [r3]
 884              		.loc 1 754 0
 885 000a 6D68     		ldr	r5, [r5, #4]
 886              		.loc 1 747 0
 887 000c DA60     		str	r2, [r3, #12]
 888              		.loc 1 749 0
 889 000e 44F48A64 		orr	r4, r4, #1104
 890              		.loc 1 748 0
 891 0012 5960     		str	r1, [r3, #4]
 892              		.loc 1 749 0
 893 0014 1C60     		str	r4, [r3]
 894              		.loc 1 754 0
 895 0016 3DB1     		cbz	r5, .L111
 896              		.loc 1 755 0
 897 0018 8268     		ldr	r2, [r0, #8]
 898              	.LVL58:
 899 001a 6FF04001 		mvn	r1, #64
 900              	.LVL59:
 901 001e 1160     		str	r1, [r2]
 902              		.loc 1 756 0
 903 0020 D168     		ldr	r1, [r2, #12]
 904 0022 41F04001 		orr	r1, r1, #64
 905 0026 D160     		str	r1, [r2, #12]
 906              	.L111:
 907              		.loc 1 760 0
 908 0028 1A68     		ldr	r2, [r3]
 909 002a 42F00102 		orr	r2, r2, #1
 910 002e 1A60     		str	r2, [r3]
 911              		.loc 1 761 0
 912 0030 30BC     		pop	{r4, r5}
ARM GAS  /tmp/ccLyIQGT.s 			page 17


 913              		.cfi_restore 5
 914              		.cfi_restore 4
 915              		.cfi_def_cfa_offset 0
 916 0032 7047     		bx	lr
 917              		.cfi_endproc
 918              	.LFE269:
 919              		.size	uart_lld_start_send, .-uart_lld_start_send
 920              		.section	.text.uart_lld_stop_send,"ax",%progbits
 921              		.align	2
 922              		.p2align 4,,15
 923              		.global	uart_lld_stop_send
 924              		.thumb
 925              		.thumb_func
 926              		.type	uart_lld_stop_send, %function
 927              	uart_lld_stop_send:
 928              	.LFB270:
 929              		.loc 1 774 0
 930              		.cfi_startproc
 931              		@ args = 0, pretend = 0, frame = 0
 932              		@ frame_needed = 0, uses_anonymous_args = 0
 933              		@ link register save eliminated.
 934              	.LVL60:
 935              		.loc 1 776 0
 936 0000 4169     		ldr	r1, [r0, #20]
 937 0002 0A68     		ldr	r2, [r1]
 938 0004 1368     		ldr	r3, [r2]
 939 0006 23F01F03 		bic	r3, r3, #31
 940 000a 1360     		str	r3, [r2]
 941              	.L117:
 942              		.loc 1 776 0 is_stmt 0 discriminator 2
 943 000c 1368     		ldr	r3, [r2]
 944 000e DB07     		lsls	r3, r3, #31
 945 0010 FCD4     		bmi	.L117
 946              		.loc 1 776 0 discriminator 3
 947 0012 087A     		ldrb	r0, [r1, #8]	@ zero_extendqisi2
 948              	.LVL61:
 949 0014 4968     		ldr	r1, [r1, #4]
 950 0016 3D23     		movs	r3, #61
 951 0018 8340     		lsls	r3, r3, r0
 952 001a 0B60     		str	r3, [r1]
 953              		.loc 1 778 0 is_stmt 1 discriminator 3
 954 001c 5068     		ldr	r0, [r2, #4]
 955              		.loc 1 779 0 discriminator 3
 956 001e 7047     		bx	lr
 957              		.cfi_endproc
 958              	.LFE270:
 959              		.size	uart_lld_stop_send, .-uart_lld_stop_send
 960              		.section	.text.uart_lld_start_receive,"ax",%progbits
 961              		.align	2
 962              		.p2align 4,,15
 963              		.global	uart_lld_start_receive
 964              		.thumb
 965              		.thumb_func
 966              		.type	uart_lld_start_receive, %function
 967              	uart_lld_start_receive:
 968              	.LFB271:
 969              		.loc 1 792 0
ARM GAS  /tmp/ccLyIQGT.s 			page 18


 970              		.cfi_startproc
 971              		@ args = 0, pretend = 0, frame = 0
 972              		@ frame_needed = 0, uses_anonymous_args = 0
 973              		@ link register save eliminated.
 974              	.LVL62:
 975 0000 70B4     		push	{r4, r5, r6}
 976              		.cfi_def_cfa_offset 12
 977              		.cfi_offset 4, -12
 978              		.cfi_offset 5, -8
 979              		.cfi_offset 6, -4
 980              		.loc 1 795 0
 981 0002 0569     		ldr	r5, [r0, #16]
 982 0004 2C68     		ldr	r4, [r5]
 983 0006 2368     		ldr	r3, [r4]
 984 0008 23F01F03 		bic	r3, r3, #31
 985 000c 2360     		str	r3, [r4]
 986              	.L120:
 987              		.loc 1 795 0 is_stmt 0 discriminator 2
 988 000e 2368     		ldr	r3, [r4]
 989 0010 DB07     		lsls	r3, r3, #31
 990 0012 FCD4     		bmi	.L120
 991              		.loc 1 795 0 discriminator 3
 992 0014 2E7A     		ldrb	r6, [r5, #8]	@ zero_extendqisi2
 993 0016 6D68     		ldr	r5, [r5, #4]
 994 0018 3D23     		movs	r3, #61
 995 001a B340     		lsls	r3, r3, r6
 996 001c 2B60     		str	r3, [r5]
 997              		.loc 1 800 0 is_stmt 1 discriminator 3
 998 001e C368     		ldr	r3, [r0, #12]
 999              		.loc 1 798 0 discriminator 3
 1000 0020 E260     		str	r2, [r4, #12]
 1001              		.loc 1 800 0 discriminator 3
 1002 0022 43F48263 		orr	r3, r3, #1040
 1003              		.loc 1 799 0 discriminator 3
 1004 0026 6160     		str	r1, [r4, #4]
 1005              		.loc 1 800 0 discriminator 3
 1006 0028 2360     		str	r3, [r4]
 1007              		.loc 1 804 0 discriminator 3
 1008 002a 2368     		ldr	r3, [r4]
 1009 002c 43F00103 		orr	r3, r3, #1
 1010 0030 2360     		str	r3, [r4]
 1011              		.loc 1 805 0 discriminator 3
 1012 0032 70BC     		pop	{r4, r5, r6}
 1013              		.cfi_restore 6
 1014              		.cfi_restore 5
 1015              		.cfi_restore 4
 1016              		.cfi_def_cfa_offset 0
 1017 0034 7047     		bx	lr
 1018              		.cfi_endproc
 1019              	.LFE271:
 1020              		.size	uart_lld_start_receive, .-uart_lld_start_receive
 1021 0036 00BF     		.section	.text.uart_lld_stop_receive,"ax",%progbits
 1022              		.align	2
 1023              		.p2align 4,,15
 1024              		.global	uart_lld_stop_receive
 1025              		.thumb
 1026              		.thumb_func
ARM GAS  /tmp/ccLyIQGT.s 			page 19


 1027              		.type	uart_lld_stop_receive, %function
 1028              	uart_lld_stop_receive:
 1029              	.LFB272:
 1030              		.loc 1 818 0
 1031              		.cfi_startproc
 1032              		@ args = 0, pretend = 0, frame = 0
 1033              		@ frame_needed = 0, uses_anonymous_args = 0
 1034              		@ link register save eliminated.
 1035              	.LVL63:
 1036 0000 0146     		mov	r1, r0
 1037              		.loc 1 821 0
 1038 0002 0069     		ldr	r0, [r0, #16]
 1039              	.LVL64:
 1040 0004 0268     		ldr	r2, [r0]
 1041 0006 1368     		ldr	r3, [r2]
 1042 0008 23F01F03 		bic	r3, r3, #31
 1043 000c 1360     		str	r3, [r2]
 1044              	.L124:
 1045              		.loc 1 821 0 is_stmt 0 discriminator 2
 1046 000e 1368     		ldr	r3, [r2]
 1047 0010 DB07     		lsls	r3, r3, #31
 1048 0012 FCD4     		bmi	.L124
 1049              		.loc 1 818 0 is_stmt 1 discriminator 3
 1050 0014 30B4     		push	{r4, r5}
 1051              		.cfi_def_cfa_offset 8
 1052              		.cfi_offset 4, -8
 1053              		.cfi_offset 5, -4
 1054              	.LBB70:
 1055              	.LBB71:
 1056              		.loc 1 164 0 discriminator 3
 1057 0016 4B68     		ldr	r3, [r1, #4]
 1058              	.LBE71:
 1059              	.LBE70:
 1060              		.loc 1 821 0 discriminator 3
 1061 0018 057A     		ldrb	r5, [r0, #8]	@ zero_extendqisi2
 1062              	.LBB75:
 1063              	.LBB72:
 1064              		.loc 1 164 0 discriminator 3
 1065 001a DC68     		ldr	r4, [r3, #12]
 1066              	.LBE72:
 1067              	.LBE75:
 1068              		.loc 1 821 0 discriminator 3
 1069 001c 4068     		ldr	r0, [r0, #4]
 1070 001e 3D23     		movs	r3, #61
 1071 0020 AB40     		lsls	r3, r3, r5
 1072 0022 0360     		str	r3, [r0]
 1073              	.LBB76:
 1074              	.LBB73:
 1075              		.loc 1 170 0 discriminator 3
 1076 0024 CB68     		ldr	r3, [r1, #12]
 1077              	.LBE73:
 1078              	.LBE76:
 1079              		.loc 1 822 0 discriminator 3
 1080 0026 5068     		ldr	r0, [r2, #4]
 1081              	.LVL65:
 1082              	.LBB77:
 1083              	.LBB74:
ARM GAS  /tmp/ccLyIQGT.s 			page 20


 1084              		.loc 1 167 0 discriminator 3
 1085 0028 002C     		cmp	r4, #0
 1086 002a 0CBF     		ite	eq
 1087 002c 4FF48074 		moveq	r4, #256
 1088 0030 4FF48874 		movne	r4, #272
 1089              	.LVL66:
 1090              		.loc 1 170 0 discriminator 3
 1091 0034 2343     		orrs	r3, r3, r4
 1092              		.loc 1 168 0 discriminator 3
 1093 0036 1831     		adds	r1, r1, #24
 1094              	.LVL67:
 1095              		.loc 1 169 0 discriminator 3
 1096 0038 0124     		movs	r4, #1
 1097              	.LVL68:
 1098              		.loc 1 168 0 discriminator 3
 1099 003a D160     		str	r1, [r2, #12]
 1100              		.loc 1 169 0 discriminator 3
 1101 003c 5460     		str	r4, [r2, #4]
 1102              		.loc 1 170 0 discriminator 3
 1103 003e 1360     		str	r3, [r2]
 1104              		.loc 1 171 0 discriminator 3
 1105 0040 1368     		ldr	r3, [r2]
 1106 0042 2343     		orrs	r3, r3, r4
 1107 0044 1360     		str	r3, [r2]
 1108              	.LVL69:
 1109              	.LBE74:
 1110              	.LBE77:
 1111              		.loc 1 826 0 discriminator 3
 1112 0046 30BC     		pop	{r4, r5}
 1113              		.cfi_restore 5
 1114              		.cfi_restore 4
 1115              		.cfi_def_cfa_offset 0
 1116 0048 7047     		bx	lr
 1117              		.cfi_endproc
 1118              	.LFE272:
 1119              		.size	uart_lld_stop_receive, .-uart_lld_stop_receive
 1120              		.global	UARTD2
 1121 004a 00BF     		.section	.rodata.str1.4,"aMS",%progbits,1
 1122              		.align	2
 1123              	.LC0:
 1124 0000 444D4120 		.ascii	"DMA failure\000"
 1124      6661696C 
 1124      75726500 
 1125              		.section	.bss.UARTD2,"aw",%nobits
 1126              		.align	2
 1127              		.set	.LANCHOR0,. + 0
 1128              		.type	UARTD2, %object
 1129              		.size	UARTD2, 28
 1130              	UARTD2:
 1131 0000 00000000 		.space	28
 1131      00000000 
 1131      00000000 
 1131      00000000 
 1131      00000000 
 1132              		.text
 1133              	.Letext0:
 1134              		.file 3 "/usr/lib/gcc/arm-none-eabi/5.4.1/include/stddef.h"
ARM GAS  /tmp/ccLyIQGT.s 			page 21


 1135              		.file 4 "/usr/arm-none-eabi/include/machine/_default_types.h"
 1136              		.file 5 "/usr/arm-none-eabi/include/sys/_stdint.h"
 1137              		.file 6 "/home/selim/working/ChibiOS/os/rt/ports/ARMCMx/compilers/GCC/chtypes.h"
 1138              		.file 7 "/home/selim/working/ChibiOS/os/rt/include/chsystypes.h"
 1139              		.file 8 "/home/selim/working/ChibiOS/os/rt/include/chschd.h"
 1140              		.file 9 "/home/selim/working/ChibiOS/os/ext/CMSIS/ST/stm32f407xx.h"
 1141              		.file 10 "/home/selim/working/ChibiOS/os/rt/ports/ARMCMx/chcore.h"
 1142              		.file 11 "/home/selim/working/ChibiOS/os/rt/ports/ARMCMx/chcore_v7m.h"
 1143              		.file 12 "/home/selim/working/ChibiOS/os/rt/include/chtm.h"
 1144              		.file 13 "/home/selim/working/ChibiOS/os/rt/include/chsem.h"
 1145              		.file 14 "/home/selim/working/ChibiOS/os/rt/include/chmtx.h"
 1146              		.file 15 "/home/selim/working/ChibiOS/os/hal/ports/STM32/STM32F4xx/stm32_dma.h"
 1147              		.file 16 "/home/selim/working/ChibiOS/os/hal/include/uart.h"
 1148              		.file 17 "/home/selim/working/ChibiOS/os/hal/ports/STM32/LLD/USARTv1/uart_lld.h"
 1149              		.file 18 "/home/selim/working/ChibiOS/os/ext/CMSIS/include/core_cm4.h"
 1150              		.file 19 "/home/selim/working/ChibiOS/os/rt/include/chsys.h"
 1151              		.file 20 "/home/selim/working/ChibiOS/os/hal/ports/common/ARMCMx/nvic.h"