ARM GAS  /tmp/ccLyIQGT.s 			page 1


   1              		.syntax unified
   2              		.cpu cortex-m4
   3              		.fpu softvfp
   4              		.eabi_attribute 20, 1
   5              		.eabi_attribute 21, 1
   6              		.eabi_attribute 23, 3
   7              		.eabi_attribute 24, 1
   8              		.eabi_attribute 25, 1
   9              		.eabi_attribute 26, 1
  10              		.eabi_attribute 30, 2
  11              		.eabi_attribute 34, 1
  12              		.eabi_attribute 18, 4
  13              		.thumb
  14              		.syntax unified
  15              		.file	"uart_lld.c"
  16              		.text
  17              	.Ltext0:
  18              		.cfi_sections	.debug_frame
  19              		.section	.text.usart_stop,"ax",%progbits
  20              		.align	2
  21              		.p2align 4,,15
  22              		.thumb
  23              		.thumb_func
  24              		.type	usart_stop, %function
  25              	usart_stop:
  26              	.LFB260:
  27              		.file 1 "/home/selim/working/ChibiOS/os/hal/ports/STM32/LLD/USARTv1/uart_lld.c"
  28              		.loc 1 180 0
  29              		.cfi_startproc
  30              		@ args = 0, pretend = 0, frame = 0
  31              		@ frame_needed = 0, uses_anonymous_args = 0
  32              		@ link register save eliminated.
  33              	.LVL0:
  34              		.loc 1 183 0
  35 0000 0169     		ldr	r1, [r0, #16]
  36 0002 0A68     		ldr	r2, [r1]
  37 0004 1368     		ldr	r3, [r2]
  38 0006 23F01F03 		bic	r3, r3, #31
  39 000a 1360     		str	r3, [r2]
  40              	.L2:
  41              		.loc 1 183 0 is_stmt 0 discriminator 2
  42 000c 1368     		ldr	r3, [r2]
  43 000e DB07     		lsls	r3, r3, #31
  44 0010 FCD4     		bmi	.L2
  45              		.loc 1 180 0 is_stmt 1 discriminator 3
  46 0012 30B4     		push	{r4, r5}
  47              		.cfi_def_cfa_offset 8
  48              		.cfi_offset 4, -8
  49              		.cfi_offset 5, -4
  50              		.loc 1 184 0 discriminator 3
  51 0014 4469     		ldr	r4, [r0, #20]
  52              		.loc 1 183 0 discriminator 3
  53 0016 0D7A     		ldrb	r5, [r1, #8]	@ zero_extendqisi2
  54 0018 4968     		ldr	r1, [r1, #4]
  55              		.loc 1 184 0 discriminator 3
  56 001a 2268     		ldr	r2, [r4]
  57              		.loc 1 183 0 discriminator 3
ARM GAS  /tmp/ccLyIQGT.s 			page 2


  58 001c 3D23     		movs	r3, #61
  59 001e AB40     		lsls	r3, r3, r5
  60 0020 0B60     		str	r3, [r1]
  61              		.loc 1 184 0 discriminator 3
  62 0022 1368     		ldr	r3, [r2]
  63 0024 23F01F03 		bic	r3, r3, #31
  64 0028 1360     		str	r3, [r2]
  65              	.L3:
  66              		.loc 1 184 0 is_stmt 0 discriminator 2
  67 002a 1368     		ldr	r3, [r2]
  68 002c 13F00103 		ands	r3, r3, #1
  69 0030 FBD1     		bne	.L3
  70              		.loc 1 184 0 discriminator 3
  71 0032 257A     		ldrb	r5, [r4, #8]	@ zero_extendqisi2
  72              		.loc 1 187 0 is_stmt 1 discriminator 3
  73 0034 8268     		ldr	r2, [r0, #8]
  74              		.loc 1 184 0 discriminator 3
  75 0036 6068     		ldr	r0, [r4, #4]
  76              	.LVL1:
  77 0038 3D21     		movs	r1, #61
  78 003a A940     		lsls	r1, r1, r5
  79 003c 0160     		str	r1, [r0]
  80              		.loc 1 190 0 discriminator 3
  81 003e 30BC     		pop	{r4, r5}
  82              		.cfi_restore 5
  83              		.cfi_restore 4
  84              		.cfi_def_cfa_offset 0
  85              		.loc 1 187 0 discriminator 3
  86 0040 D360     		str	r3, [r2, #12]
  87              		.loc 1 188 0 discriminator 3
  88 0042 1361     		str	r3, [r2, #16]
  89              		.loc 1 189 0 discriminator 3
  90 0044 5361     		str	r3, [r2, #20]
  91              		.loc 1 190 0 discriminator 3
  92 0046 7047     		bx	lr
  93              		.cfi_endproc
  94              	.LFE260:
  95              		.size	usart_stop, .-usart_stop
  96              		.section	.text.uart_lld_serve_tx_end_irq,"ax",%progbits
  97              		.align	2
  98              		.p2align 4,,15
  99              		.thumb
 100              		.thumb_func
 101              		.type	uart_lld_serve_tx_end_irq, %function
 102              	uart_lld_serve_tx_end_irq:
 103              	.LFB263:
 104              		.loc 1 281 0
 105              		.cfi_startproc
 106              		@ args = 0, pretend = 0, frame = 0
 107              		@ frame_needed = 0, uses_anonymous_args = 0
 108              	.LVL2:
 109              		.loc 1 285 0
 110 0000 11F00C0F 		tst	r1, #12
 111              		.loc 1 281 0
 112 0004 38B5     		push	{r3, r4, r5, lr}
 113              		.cfi_def_cfa_offset 16
 114              		.cfi_offset 3, -16
ARM GAS  /tmp/ccLyIQGT.s 			page 3


 115              		.cfi_offset 4, -12
 116              		.cfi_offset 5, -8
 117              		.cfi_offset 14, -4
 118              		.loc 1 281 0
 119 0006 0446     		mov	r4, r0
 120              		.loc 1 285 0
 121 0008 1BD1     		bne	.L22
 122              	.LVL3:
 123              	.L9:
 124              		.loc 1 292 0
 125 000a 6169     		ldr	r1, [r4, #20]
 126 000c 0A68     		ldr	r2, [r1]
 127 000e 1368     		ldr	r3, [r2]
 128 0010 23F01F03 		bic	r3, r3, #31
 129 0014 1360     		str	r3, [r2]
 130              	.L10:
 131              		.loc 1 292 0 is_stmt 0 discriminator 2
 132 0016 1368     		ldr	r3, [r2]
 133 0018 DB07     		lsls	r3, r3, #31
 134 001a FCD4     		bmi	.L10
 135              		.loc 1 296 0 is_stmt 1 discriminator 3
 136 001c 6368     		ldr	r3, [r4, #4]
 137              		.loc 1 292 0 discriminator 3
 138 001e 0D7A     		ldrb	r5, [r1, #8]	@ zero_extendqisi2
 139 0020 4868     		ldr	r0, [r1, #4]
 140              		.loc 1 296 0 discriminator 3
 141 0022 1A68     		ldr	r2, [r3]
 142              		.loc 1 292 0 discriminator 3
 143 0024 3D23     		movs	r3, #61
 144 0026 AB40     		lsls	r3, r3, r5
 145              		.loc 1 295 0 discriminator 3
 146 0028 0221     		movs	r1, #2
 147              		.loc 1 292 0 discriminator 3
 148 002a 0360     		str	r3, [r0]
 149              		.loc 1 295 0 discriminator 3
 150 002c 6170     		strb	r1, [r4, #1]
 151              		.loc 1 296 0 discriminator 3
 152 002e 2AB1     		cbz	r2, .L13
 153              		.loc 1 297 0
 154 0030 2046     		mov	r0, r4
 155 0032 9047     		blx	r2
 156              	.LVL4:
 157              		.loc 1 301 0
 158 0034 6378     		ldrb	r3, [r4, #1]	@ zero_extendqisi2
 159 0036 022B     		cmp	r3, #2
 160 0038 00D0     		beq	.L13
 161 003a 38BD     		pop	{r3, r4, r5, pc}
 162              	.LVL5:
 163              	.L13:
 164              		.loc 1 302 0
 165 003c 0023     		movs	r3, #0
 166 003e 6370     		strb	r3, [r4, #1]
 167 0040 38BD     		pop	{r3, r4, r5, pc}
 168              	.LVL6:
 169              	.L22:
 170              	.LBB16:
 171              	.LBB17:
ARM GAS  /tmp/ccLyIQGT.s 			page 4


 172              		.file 2 "/home/selim/working/ChibiOS/os/hal/osal/rt/osal.h"
 173              		.loc 2 416 0
 174 0042 0248     		ldr	r0, .L23
 175              	.LVL7:
 176 0044 FFF7FEFF 		bl	chSysHalt
 177              	.LVL8:
 178 0048 DFE7     		b	.L9
 179              	.L24:
 180 004a 00BF     		.align	2
 181              	.L23:
 182 004c 00000000 		.word	.LC0
 183              	.LBE17:
 184              	.LBE16:
 185              		.cfi_endproc
 186              	.LFE263:
 187              		.size	uart_lld_serve_tx_end_irq, .-uart_lld_serve_tx_end_irq
 188              		.section	.text.uart_lld_serve_rx_end_irq,"ax",%progbits
 189              		.align	2
 190              		.p2align 4,,15
 191              		.thumb
 192              		.thumb_func
 193              		.type	uart_lld_serve_rx_end_irq, %function
 194              	uart_lld_serve_rx_end_irq:
 195              	.LFB262:
 196              		.loc 1 241 0
 197              		.cfi_startproc
 198              		@ args = 0, pretend = 0, frame = 0
 199              		@ frame_needed = 0, uses_anonymous_args = 0
 200              	.LVL9:
 201              		.loc 1 245 0
 202 0000 11F00C0F 		tst	r1, #12
 203              		.loc 1 241 0
 204 0004 70B5     		push	{r4, r5, r6, lr}
 205              		.cfi_def_cfa_offset 16
 206              		.cfi_offset 4, -16
 207              		.cfi_offset 5, -12
 208              		.cfi_offset 6, -8
 209              		.cfi_offset 14, -4
 210              		.loc 1 241 0
 211 0006 0446     		mov	r4, r0
 212              		.loc 1 245 0
 213 0008 3BD1     		bne	.L41
 214              	.LVL10:
 215              	.L26:
 216              		.loc 1 252 0
 217 000a A378     		ldrb	r3, [r4, #2]	@ zero_extendqisi2
 218 000c 4BB9     		cbnz	r3, .L27
 219              		.loc 1 255 0
 220 000e 6368     		ldr	r3, [r4, #4]
 221 0010 DB68     		ldr	r3, [r3, #12]
 222 0012 002B     		cmp	r3, #0
 223 0014 34D0     		beq	.L25
 224              		.loc 1 256 0
 225 0016 218B     		ldrh	r1, [r4, #24]
 226 0018 2046     		mov	r0, r4
 227 001a 89B2     		uxth	r1, r1
 228              		.loc 1 273 0
ARM GAS  /tmp/ccLyIQGT.s 			page 5


 229 001c BDE87040 		pop	{r4, r5, r6, lr}
 230              		.cfi_remember_state
 231              		.cfi_restore 14
 232              		.cfi_restore 6
 233              		.cfi_restore 5
 234              		.cfi_restore 4
 235              		.cfi_def_cfa_offset 0
 236              	.LVL11:
 237              		.loc 1 256 0
 238 0020 1847     		bx	r3	@ indirect register sibling call
 239              	.LVL12:
 240              	.L27:
 241              		.cfi_restore_state
 242              	.LBB26:
 243              	.LBB27:
 244              		.loc 1 261 0
 245 0022 2169     		ldr	r1, [r4, #16]
 246 0024 0A68     		ldr	r2, [r1]
 247 0026 1368     		ldr	r3, [r2]
 248 0028 23F01F03 		bic	r3, r3, #31
 249 002c 1360     		str	r3, [r2]
 250              	.L30:
 251 002e 1368     		ldr	r3, [r2]
 252 0030 DB07     		lsls	r3, r3, #31
 253 0032 FCD4     		bmi	.L30
 254              		.loc 1 263 0
 255 0034 6068     		ldr	r0, [r4, #4]
 256              		.loc 1 261 0
 257 0036 0D7A     		ldrb	r5, [r1, #8]	@ zero_extendqisi2
 258 0038 4E68     		ldr	r6, [r1, #4]
 259              		.loc 1 263 0
 260 003a 8168     		ldr	r1, [r0, #8]
 261              		.loc 1 261 0
 262 003c 3D23     		movs	r3, #61
 263 003e AB40     		lsls	r3, r3, r5
 264              		.loc 1 262 0
 265 0040 0225     		movs	r5, #2
 266              		.loc 1 261 0
 267 0042 3360     		str	r3, [r6]
 268              		.loc 1 262 0
 269 0044 A570     		strb	r5, [r4, #2]
 270              		.loc 1 263 0
 271 0046 39B1     		cbz	r1, .L31
 272              		.loc 1 264 0
 273 0048 2046     		mov	r0, r4
 274 004a 8847     		blx	r1
 275              	.LVL13:
 276              		.loc 1 268 0
 277 004c A378     		ldrb	r3, [r4, #2]	@ zero_extendqisi2
 278 004e AB42     		cmp	r3, r5
 279 0050 16D1     		bne	.L25
 280 0052 2369     		ldr	r3, [r4, #16]
 281 0054 6068     		ldr	r0, [r4, #4]
 282 0056 1A68     		ldr	r2, [r3]
 283              	.L31:
 284              	.LBB28:
 285              	.LBB29:
ARM GAS  /tmp/ccLyIQGT.s 			page 6


 286              		.loc 1 164 0
 287 0058 C168     		ldr	r1, [r0, #12]
 288              		.loc 1 170 0
 289 005a E368     		ldr	r3, [r4, #12]
 290              		.loc 1 165 0
 291 005c 0029     		cmp	r1, #0
 292 005e 14BF     		ite	ne
 293 0060 4FF48871 		movne	r1, #272
 294 0064 4FF48071 		moveq	r1, #256
 295              		.loc 1 170 0
 296 0068 0B43     		orrs	r3, r3, r1
 297              	.LBE29:
 298              	.LBE28:
 299              		.loc 1 269 0
 300 006a 0025     		movs	r5, #0
 301              	.LBB32:
 302              	.LBB30:
 303              		.loc 1 169 0
 304 006c 0121     		movs	r1, #1
 305              		.loc 1 168 0
 306 006e 04F11800 		add	r0, r4, #24
 307              	.LBE30:
 308              	.LBE32:
 309              		.loc 1 269 0
 310 0072 A570     		strb	r5, [r4, #2]
 311              	.LVL14:
 312              	.LBB33:
 313              	.LBB31:
 314              		.loc 1 168 0
 315 0074 D060     		str	r0, [r2, #12]
 316              		.loc 1 169 0
 317 0076 5160     		str	r1, [r2, #4]
 318              		.loc 1 170 0
 319 0078 1360     		str	r3, [r2]
 320              		.loc 1 171 0
 321 007a 1368     		ldr	r3, [r2]
 322 007c 0B43     		orrs	r3, r3, r1
 323 007e 1360     		str	r3, [r2]
 324              	.LVL15:
 325              	.L25:
 326 0080 70BD     		pop	{r4, r5, r6, pc}
 327              	.LVL16:
 328              	.L41:
 329              	.LBE31:
 330              	.LBE33:
 331              	.LBE27:
 332              	.LBE26:
 333              	.LBB34:
 334              	.LBB35:
 335              		.loc 2 416 0
 336 0082 0248     		ldr	r0, .L42
 337              	.LVL17:
 338 0084 FFF7FEFF 		bl	chSysHalt
 339              	.LVL18:
 340 0088 BFE7     		b	.L26
 341              	.L43:
 342 008a 00BF     		.align	2
ARM GAS  /tmp/ccLyIQGT.s 			page 7


 343              	.L42:
 344 008c 00000000 		.word	.LC0
 345              	.LBE35:
 346              	.LBE34:
 347              		.cfi_endproc
 348              	.LFE262:
 349              		.size	uart_lld_serve_rx_end_irq, .-uart_lld_serve_rx_end_irq
 350              		.section	.text.VectorD8,"ax",%progbits
 351              		.align	2
 352              		.p2align 4,,15
 353              		.global	VectorD8
 354              		.thumb
 355              		.thumb_func
 356              		.type	VectorD8, %function
 357              	VectorD8:
 358              	.LFB265:
 359              		.loc 1 368 0
 360              		.cfi_startproc
 361              		@ args = 0, pretend = 0, frame = 0
 362              		@ frame_needed = 0, uses_anonymous_args = 0
 363              	.LVL19:
 364 0000 F8B5     		push	{r3, r4, r5, r6, r7, lr}
 365              		.cfi_def_cfa_offset 24
 366              		.cfi_offset 3, -24
 367              		.cfi_offset 4, -20
 368              		.cfi_offset 5, -16
 369              		.cfi_offset 6, -12
 370              		.cfi_offset 7, -8
 371              		.cfi_offset 14, -4
 372              	.LBB40:
 373              	.LBB41:
 374              		.loc 1 312 0
 375 0002 1D4E     		ldr	r6, .L79
 376 0004 B468     		ldr	r4, [r6, #8]
 377              	.LVL20:
 378              		.loc 1 313 0
 379 0006 E768     		ldr	r7, [r4, #12]
 380              	.LVL21:
 381              		.loc 1 315 0
 382 0008 2568     		ldr	r5, [r4]
 383              	.LVL22:
 384              		.loc 1 316 0
 385 000a 6368     		ldr	r3, [r4, #4]
 386              		.loc 1 318 0
 387 000c 40F20F13 		movw	r3, #271
 388 0010 2B40     		ands	r3, r3, r5
 389 0012 EBB1     		cbz	r3, .L46
 390              		.loc 1 321 0
 391 0014 7368     		ldr	r3, [r6, #4]
 392 0016 1A69     		ldr	r2, [r3, #16]
 393              		.loc 1 320 0
 394 0018 6FF48073 		mvn	r3, #256
 395 001c 2360     		str	r3, [r4]
 396              		.loc 1 321 0
 397 001e BAB1     		cbz	r2, .L46
 398              		.loc 1 315 0
 399 0020 ABB2     		uxth	r3, r5
ARM GAS  /tmp/ccLyIQGT.s 			page 8


 400              	.LVL23:
 401              	.LBB42:
 402              	.LBB43:
 403              		.loc 1 142 0
 404 0022 13F0080F 		tst	r3, #8
 405 0026 0CBF     		ite	eq
 406 0028 0021     		moveq	r1, #0
 407 002a 1021     		movne	r1, #16
 408              	.LVL24:
 409              		.loc 1 143 0
 410 002c D807     		lsls	r0, r3, #31
 411              		.loc 1 144 0
 412 002e 48BF     		it	mi
 413 0030 41F00401 		orrmi	r1, r1, #4
 414              	.LVL25:
 415              		.loc 1 145 0
 416 0034 9807     		lsls	r0, r3, #30
 417              		.loc 1 146 0
 418 0036 48BF     		it	mi
 419 0038 41F00801 		orrmi	r1, r1, #8
 420              	.LVL26:
 421              		.loc 1 147 0
 422 003c 5807     		lsls	r0, r3, #29
 423              		.loc 1 148 0
 424 003e 48BF     		it	mi
 425 0040 41F02001 		orrmi	r1, r1, #32
 426              	.LVL27:
 427              		.loc 1 149 0
 428 0044 D805     		lsls	r0, r3, #23
 429              		.loc 1 150 0
 430 0046 48BF     		it	mi
 431 0048 41F04001 		orrmi	r1, r1, #64
 432              	.LVL28:
 433              	.LBE43:
 434              	.LBE42:
 435              		.loc 1 322 0
 436 004c 0A48     		ldr	r0, .L79
 437 004e 9047     		blx	r2
 438              	.LVL29:
 439              	.L46:
 440              		.loc 1 325 0
 441 0050 6A06     		lsls	r2, r5, #25
 442 0052 0CD5     		bpl	.L54
 443 0054 7B06     		lsls	r3, r7, #25
 444 0056 0AD5     		bpl	.L54
 445              		.loc 1 331 0
 446 0058 7368     		ldr	r3, [r6, #4]
 447 005a 5B68     		ldr	r3, [r3, #4]
 448              		.loc 1 328 0
 449 005c 27F04007 		bic	r7, r7, #64
 450              	.LVL30:
 451              		.loc 1 327 0
 452 0060 6FF04002 		mvn	r2, #64
 453 0064 2260     		str	r2, [r4]
 454              		.loc 1 328 0
 455 0066 E760     		str	r7, [r4, #12]
 456              		.loc 1 331 0
ARM GAS  /tmp/ccLyIQGT.s 			page 9


 457 0068 0BB1     		cbz	r3, .L54
 458              		.loc 1 332 0
 459 006a 0348     		ldr	r0, .L79
 460 006c 9847     		blx	r3
 461              	.LVL31:
 462              	.L54:
 463              	.LBE41:
 464              	.LBE40:
 465              		.loc 1 375 0
 466 006e BDE8F840 		pop	{r3, r4, r5, r6, r7, lr}
 467              		.cfi_restore 14
 468              		.cfi_restore 7
 469              		.cfi_restore 6
 470              		.cfi_restore 5
 471              		.cfi_restore 4
 472              		.cfi_restore 3
 473              		.cfi_def_cfa_offset 0
 474              		.loc 1 374 0
 475 0072 FFF7FEBF 		b	_port_irq_epilogue
 476              	.LVL32:
 477              	.L80:
 478 0076 00BF     		.align	2
 479              	.L79:
 480 0078 00000000 		.word	.LANCHOR0
 481              		.cfi_endproc
 482              	.LFE265:
 483              		.size	VectorD8, .-VectorD8
 484              		.section	.text.uart_lld_init,"ax",%progbits
 485              		.align	2
 486              		.p2align 4,,15
 487              		.global	uart_lld_init
 488              		.thumb
 489              		.thumb_func
 490              		.type	uart_lld_init, %function
 491              	uart_lld_init:
 492              	.LFB266:
 493              		.loc 1 463 0
 494              		.cfi_startproc
 495              		@ args = 0, pretend = 0, frame = 0
 496              		@ frame_needed = 0, uses_anonymous_args = 0
 497 0000 10B5     		push	{r4, lr}
 498              		.cfi_def_cfa_offset 8
 499              		.cfi_offset 4, -8
 500              		.cfi_offset 14, -4
 501              		.loc 1 474 0
 502 0002 074C     		ldr	r4, .L83
 503 0004 2046     		mov	r0, r4
 504 0006 FFF7FEFF 		bl	uartObjectInit
 505              	.LVL33:
 506              		.loc 1 477 0
 507 000a 064B     		ldr	r3, .L83+4
 508              		.loc 1 475 0
 509 000c 064A     		ldr	r2, .L83+8
 510 000e A260     		str	r2, [r4, #8]
 511              		.loc 1 476 0
 512 0010 0621     		movs	r1, #6
 513              		.loc 1 478 0
ARM GAS  /tmp/ccLyIQGT.s 			page 10


 514 0012 03F10C02 		add	r2, r3, #12
 515              		.loc 1 476 0
 516 0016 E160     		str	r1, [r4, #12]
 517              		.loc 1 477 0
 518 0018 2361     		str	r3, [r4, #16]
 519              		.loc 1 478 0
 520 001a 6261     		str	r2, [r4, #20]
 521 001c 10BD     		pop	{r4, pc}
 522              	.L84:
 523 001e 00BF     		.align	2
 524              	.L83:
 525 0020 00000000 		.word	.LANCHOR0
 526 0024 3C000000 		.word	_stm32_dma_streams+60
 527 0028 00440040 		.word	1073759232
 528              		.cfi_endproc
 529              	.LFE266:
 530              		.size	uart_lld_init, .-uart_lld_init
 531              		.section	.text.uart_lld_start,"ax",%progbits
 532              		.align	2
 533              		.p2align 4,,15
 534              		.global	uart_lld_start
 535              		.thumb
 536              		.thumb_func
 537              		.type	uart_lld_start, %function
 538              	uart_lld_start:
 539              	.LFB267:
 540              		.loc 1 520 0
 541              		.cfi_startproc
 542              		@ args = 0, pretend = 0, frame = 0
 543              		@ frame_needed = 0, uses_anonymous_args = 0
 544              	.LVL34:
 545 0000 F8B5     		push	{r3, r4, r5, r6, r7, lr}
 546              		.cfi_def_cfa_offset 24
 547              		.cfi_offset 3, -24
 548              		.cfi_offset 4, -20
 549              		.cfi_offset 5, -16
 550              		.cfi_offset 6, -12
 551              		.cfi_offset 7, -8
 552              		.cfi_offset 14, -4
 553              		.loc 1 522 0
 554 0002 0378     		ldrb	r3, [r0]	@ zero_extendqisi2
 555 0004 012B     		cmp	r3, #1
 556              		.loc 1 520 0
 557 0006 0446     		mov	r4, r0
 558              		.loc 1 522 0
 559 0008 3ED0     		beq	.L86
 560 000a 8568     		ldr	r5, [r0, #8]
 561              	.LVL35:
 562              	.L87:
 563              		.loc 1 664 0
 564 000c 0023     		movs	r3, #0
 565 000e A370     		strb	r3, [r4, #2]
 566              		.loc 1 665 0
 567 0010 6370     		strb	r3, [r4, #1]
 568              	.LVL36:
 569              	.LBB49:
 570              	.LBB50:
ARM GAS  /tmp/ccLyIQGT.s 			page 11


 571              		.loc 1 203 0
 572 0012 2046     		mov	r0, r4
 573 0014 FFF7FEFF 		bl	usart_stop
 574              	.LVL37:
 575              		.loc 1 207 0
 576 0018 A368     		ldr	r3, [r4, #8]
 577 001a 394A     		ldr	r2, .L98
 578 001c 9342     		cmp	r3, r2
 579 001e 48D0     		beq	.L90
 580 0020 02F58062 		add	r2, r2, #1024
 581 0024 9342     		cmp	r3, r2
 582 0026 44D0     		beq	.L90
 583              		.loc 1 213 0
 584 0028 6268     		ldr	r2, [r4, #4]
 585 002a 364B     		ldr	r3, .L98+4
 586 002c 5169     		ldr	r1, [r2, #20]
 587 002e B3FBF1F3 		udiv	r3, r3, r1
 588 0032 AB60     		str	r3, [r5, #8]
 589              	.L92:
 590              	.LBB51:
 591              	.LBB52:
 592              		.loc 1 164 0
 593 0034 D768     		ldr	r7, [r2, #12]
 594              	.LBE52:
 595              	.LBE51:
 596              		.loc 1 229 0
 597 0036 138B     		ldrh	r3, [r2, #24]
 598              		.loc 1 222 0
 599 0038 508B     		ldrh	r0, [r2, #26]
 600              		.loc 1 223 0
 601 003a 918B     		ldrh	r1, [r2, #28]
 602              	.LBB60:
 603              	.LBB53:
 604              		.loc 1 168 0
 605 003c 2269     		ldr	r2, [r4, #16]
 606              	.LBE53:
 607              	.LBE60:
 608              		.loc 1 216 0
 609 003e 2E68     		ldr	r6, [r5]
 610              		.loc 1 217 0
 611 0040 6E68     		ldr	r6, [r5, #4]
 612              	.LBB61:
 613              	.LBB54:
 614              		.loc 1 170 0
 615 0042 E668     		ldr	r6, [r4, #12]
 616              		.loc 1 168 0
 617 0044 1268     		ldr	r2, [r2]
 618              		.loc 1 164 0
 619 0046 002F     		cmp	r7, #0
 620              	.LBE54:
 621              	.LBE61:
 622              		.loc 1 229 0
 623 0048 43F40453 		orr	r3, r3, #8448
 624              		.loc 1 218 0
 625 004c 4FF00007 		mov	r7, #0
 626 0050 2F60     		str	r7, [r5]
 627              		.loc 1 222 0
ARM GAS  /tmp/ccLyIQGT.s 			page 12


 628 0052 40F04000 		orr	r0, r0, #64
 629              	.LBB62:
 630              	.LBB55:
 631              		.loc 1 165 0
 632 0056 14BF     		ite	ne
 633 0058 4FF48877 		movne	r7, #272
 634 005c 4FF48077 		moveq	r7, #256
 635              	.LBE55:
 636              	.LBE62:
 637              		.loc 1 229 0
 638 0060 43F00C03 		orr	r3, r3, #12
 639              		.loc 1 223 0
 640 0064 41F0C101 		orr	r1, r1, #193
 641              		.loc 1 229 0
 642 0068 9BB2     		uxth	r3, r3
 643              	.LBB63:
 644              	.LBB56:
 645              		.loc 1 170 0
 646 006a 3E43     		orrs	r6, r6, r7
 647              	.LBE56:
 648              	.LBE63:
 649              		.loc 1 222 0
 650 006c 80B2     		uxth	r0, r0
 651              	.LBB64:
 652              	.LBB57:
 653              		.loc 1 169 0
 654 006e 0127     		movs	r7, #1
 655              	.LBE57:
 656              	.LBE64:
 657              		.loc 1 223 0
 658 0070 89B2     		uxth	r1, r1
 659              	.LBB65:
 660              	.LBB58:
 661              		.loc 1 168 0
 662 0072 1834     		adds	r4, r4, #24
 663              	.LVL38:
 664              	.LBE58:
 665              	.LBE65:
 666              		.loc 1 222 0
 667 0074 2861     		str	r0, [r5, #16]
 668              		.loc 1 223 0
 669 0076 6961     		str	r1, [r5, #20]
 670              	.LVL39:
 671              		.loc 1 229 0
 672 0078 EB60     		str	r3, [r5, #12]
 673              	.LVL40:
 674              	.LBB66:
 675              	.LBB59:
 676              		.loc 1 168 0
 677 007a D460     		str	r4, [r2, #12]
 678              		.loc 1 169 0
 679 007c 5760     		str	r7, [r2, #4]
 680              		.loc 1 170 0
 681 007e 1660     		str	r6, [r2]
 682              		.loc 1 171 0
 683 0080 1368     		ldr	r3, [r2]
 684 0082 3B43     		orrs	r3, r3, r7
ARM GAS  /tmp/ccLyIQGT.s 			page 13


 685 0084 1360     		str	r3, [r2]
 686              	.LVL41:
 687 0086 F8BD     		pop	{r3, r4, r5, r6, r7, pc}
 688              	.LVL42:
 689              	.L86:
 690              	.LBE59:
 691              	.LBE66:
 692              	.LBE50:
 693              	.LBE49:
 694              		.loc 1 544 0
 695 0088 1F4B     		ldr	r3, .L98+8
 696 008a 9842     		cmp	r0, r3
 697 008c 1DD0     		beq	.L96
 698              	.LVL43:
 699              	.L88:
 700              		.loc 1 657 0
 701 008e 6368     		ldr	r3, [r4, #4]
 702 0090 1B8B     		ldrh	r3, [r3, #24]
 703 0092 03F4A053 		and	r3, r3, #5120
 704 0096 B3F5805F 		cmp	r3, #4096
 705 009a 11D0     		beq	.L97
 706              	.L89:
 707              		.loc 1 659 0
 708 009c 2269     		ldr	r2, [r4, #16]
 709              		.loc 1 660 0
 710 009e 6369     		ldr	r3, [r4, #20]
 711              		.loc 1 659 0
 712 00a0 A568     		ldr	r5, [r4, #8]
 713 00a2 1068     		ldr	r0, [r2]
 714              		.loc 1 660 0
 715 00a4 1968     		ldr	r1, [r3]
 716              		.loc 1 661 0
 717 00a6 0022     		movs	r2, #0
 718              		.loc 1 659 0
 719 00a8 2B1D     		adds	r3, r5, #4
 720 00aa 8360     		str	r3, [r0, #8]
 721              		.loc 1 660 0
 722 00ac 8B60     		str	r3, [r1, #8]
 723              		.loc 1 661 0
 724 00ae 2283     		strh	r2, [r4, #24]	@ movhi
 725 00b0 ACE7     		b	.L87
 726              	.LVL44:
 727              	.L90:
 728              	.LBB68:
 729              	.LBB67:
 730              		.loc 1 211 0
 731 00b2 6268     		ldr	r2, [r4, #4]
 732 00b4 154B     		ldr	r3, .L98+12
 733 00b6 5169     		ldr	r1, [r2, #20]
 734 00b8 B3FBF1F3 		udiv	r3, r3, r1
 735 00bc AB60     		str	r3, [r5, #8]
 736 00be B9E7     		b	.L92
 737              	.LVL45:
 738              	.L97:
 739              	.LBE67:
 740              	.LBE68:
 741              		.loc 1 658 0
ARM GAS  /tmp/ccLyIQGT.s 			page 14


 742 00c0 E368     		ldr	r3, [r4, #12]
 743 00c2 43F42053 		orr	r3, r3, #10240
 744 00c6 E360     		str	r3, [r4, #12]
 745 00c8 E8E7     		b	.L89
 746              	.LVL46:
 747              	.L96:
 748              	.LBB69:
 749              		.loc 1 546 0
 750 00ca 0346     		mov	r3, r0
 751 00cc 104A     		ldr	r2, .L98+16
 752 00ce 0069     		ldr	r0, [r0, #16]
 753              	.LVL47:
 754 00d0 0C21     		movs	r1, #12
 755 00d2 FFF7FEFF 		bl	dmaStreamAllocate
 756              	.LVL48:
 757              		.loc 1 551 0
 758 00d6 2346     		mov	r3, r4
 759 00d8 0E4A     		ldr	r2, .L98+20
 760 00da 6069     		ldr	r0, [r4, #20]
 761 00dc 0C21     		movs	r1, #12
 762 00de FFF7FEFF 		bl	dmaStreamAllocate
 763              	.LVL49:
 764              		.loc 1 556 0
 765 00e2 0D4A     		ldr	r2, .L98+24
 766 00e4 136C     		ldr	r3, [r2, #64]
 767 00e6 43F40033 		orr	r3, r3, #131072
 768 00ea 1364     		str	r3, [r2, #64]
 769              		.loc 1 557 0
 770 00ec 0C21     		movs	r1, #12
 771 00ee 2620     		movs	r0, #38
 772 00f0 FFF7FEFF 		bl	nvicEnableVector
 773              	.LVL50:
 774              		.loc 1 558 0
 775 00f4 E368     		ldr	r3, [r4, #12]
 776 00f6 43F00063 		orr	r3, r3, #134217728
 777 00fa E360     		str	r3, [r4, #12]
 778 00fc C7E7     		b	.L88
 779              	.L99:
 780 00fe 00BF     		.align	2
 781              	.L98:
 782 0100 00100140 		.word	1073811456
 783 0104 80DE8002 		.word	42000000
 784 0108 00000000 		.word	.LANCHOR0
 785 010c 00BD0105 		.word	84000000
 786 0110 00000000 		.word	uart_lld_serve_rx_end_irq
 787 0114 00000000 		.word	uart_lld_serve_tx_end_irq
 788 0118 00380240 		.word	1073887232
 789              	.LBE69:
 790              		.cfi_endproc
 791              	.LFE267:
 792              		.size	uart_lld_start, .-uart_lld_start
 793              		.section	.text.uart_lld_stop,"ax",%progbits
 794              		.align	2
 795              		.p2align 4,,15
 796              		.global	uart_lld_stop
 797              		.thumb
 798              		.thumb_func
ARM GAS  /tmp/ccLyIQGT.s 			page 15


 799              		.type	uart_lld_stop, %function
 800              	uart_lld_stop:
 801              	.LFB268:
 802              		.loc 1 676 0
 803              		.cfi_startproc
 804              		@ args = 0, pretend = 0, frame = 0
 805              		@ frame_needed = 0, uses_anonymous_args = 0
 806              	.LVL51:
 807              		.loc 1 678 0
 808 0000 0278     		ldrb	r2, [r0]	@ zero_extendqisi2
 809 0002 022A     		cmp	r2, #2
 810 0004 00D0     		beq	.L106
 811 0006 7047     		bx	lr
 812              	.L106:
 813              		.loc 1 676 0
 814 0008 10B5     		push	{r4, lr}
 815              		.cfi_def_cfa_offset 8
 816              		.cfi_offset 4, -8
 817              		.cfi_offset 14, -4
 818 000a 0446     		mov	r4, r0
 819              		.loc 1 679 0
 820 000c FFF7FEFF 		bl	usart_stop
 821              	.LVL52:
 822              		.loc 1 680 0
 823 0010 2069     		ldr	r0, [r4, #16]
 824 0012 FFF7FEFF 		bl	dmaStreamRelease
 825              	.LVL53:
 826              		.loc 1 681 0
 827 0016 6069     		ldr	r0, [r4, #20]
 828 0018 FFF7FEFF 		bl	dmaStreamRelease
 829              	.LVL54:
 830              		.loc 1 692 0
 831 001c 064B     		ldr	r3, .L108
 832 001e 9C42     		cmp	r4, r3
 833 0020 00D0     		beq	.L107
 834              	.L100:
 835 0022 10BD     		pop	{r4, pc}
 836              	.LVL55:
 837              	.L107:
 838              		.loc 1 693 0
 839 0024 2620     		movs	r0, #38
 840 0026 FFF7FEFF 		bl	nvicDisableVector
 841              	.LVL56:
 842              		.loc 1 694 0
 843 002a 044A     		ldr	r2, .L108+4
 844 002c 136C     		ldr	r3, [r2, #64]
 845 002e 23F40033 		bic	r3, r3, #131072
 846 0032 1364     		str	r3, [r2, #64]
 847              		.loc 1 695 0
 848 0034 F5E7     		b	.L100
 849              	.L109:
 850 0036 00BF     		.align	2
 851              	.L108:
 852 0038 00000000 		.word	.LANCHOR0
 853 003c 00380240 		.word	1073887232
 854              		.cfi_endproc
 855              	.LFE268:
ARM GAS  /tmp/ccLyIQGT.s 			page 16


 856              		.size	uart_lld_stop, .-uart_lld_stop
 857              		.section	.text.uart_lld_start_send,"ax",%progbits
 858              		.align	2
 859              		.p2align 4,,15
 860              		.global	uart_lld_start_send
 861              		.thumb
 862              		.thumb_func
 863              		.type	uart_lld_start_send, %function
 864              	uart_lld_start_send:
 865              	.LFB269:
 866              		.loc 1 744 0
 867              		.cfi_startproc
 868              		@ args = 0, pretend = 0, frame = 0
 869              		@ frame_needed = 0, uses_anonymous_args = 0
 870              		@ link register save eliminated.
 871              	.LVL57:
 872 0000 30B4     		push	{r4, r5}
 873              		.cfi_def_cfa_offset 8
 874              		.cfi_offset 4, -8
 875              		.cfi_offset 5, -4
 876              		.loc 1 747 0
 877 0002 4369     		ldr	r3, [r0, #20]
 878              		.loc 1 754 0
 879 0004 4568     		ldr	r5, [r0, #4]
 880              		.loc 1 749 0
 881 0006 C468     		ldr	r4, [r0, #12]
 882              		.loc 1 747 0
 883 0008 1B68     		ldr	r3, [r3]
 884              		.loc 1 754 0
 885 000a 6D68     		ldr	r5, [r5, #4]
 886              		.loc 1 747 0
 887 000c DA60     		str	r2, [r3, #12]
 888              		.loc 1 749 0
 889 000e 44F48A64 		orr	r4, r4, #1104
 890              		.loc 1 748 0
 891 0012 5960     		str	r1, [r3, #4]
 892              		.loc 1 749 0
 893 0014 1C60     		str	r4, [r3]
 894              		.loc 1 754 0
 895 0016 3DB1     		cbz	r5, .L111
 896              		.loc 1 755 0
 897 0018 8268     		ldr	r2, [r0, #8]
 898              	.LVL58:
 899 001a 6FF04001 		mvn	r1, #64
 900              	.LVL59:
 901 001e 1160     		str	r1, [r2]
 902              		.loc 1 756 0
 903 0020 D168     		ldr	r1, [r2, #12]
 904 0022 41F04001 		orr	r1, r1, #64
 905 0026 D160     		str	r1, [r2, #12]
 906              	.L111:
 907              		.loc 1 760 0
 908 0028 1A68     		ldr	r2, [r3]
 909 002a 42F00102 		orr	r2, r2, #1
 910 002e 1A60     		str	r2, [r3]
 911              		.loc 1 761 0
 912 0030 30BC     		pop	{r4, r5}
ARM GAS  /tmp/ccLyIQGT.s 			page 17


 913              		.cfi_restore 5
 914              		.cfi_restore 4
 915              		.cfi_def_cfa_offset 0
 916 0032 7047     		bx	lr
 917              		.cfi_endproc
 918              	.LFE269:
 919              		.size	uart_lld_start_send, .-uart_lld_start_send
 920              		.section	.text.uart_lld_stop_send,"ax",%progbits
 921              		.align	2
 922              		.p2align 4,,15
 923              		.global	uart_lld_stop_send
 924              		.thumb
 925              		.thumb_func
 926              		.type	uart_lld_stop_send, %function
 927              	uart_lld_stop_send:
 928              	.LFB270:
 929              		.loc 1 774 0
 930              		.cfi_startproc
 931              		@ args = 0, pretend = 0, frame = 0
 932              		@ frame_needed = 0, uses_anonymous_args = 0
 933              		@ link register save eliminated.
 934              	.LVL60:
 935              		.loc 1 776 0
 936 0000 4169     		ldr	r1, [r0, #20]
 937 0002 0A68     		ldr	r2, [r1]
 938 0004 1368     		ldr	r3, [r2]
 939 0006 23F01F03 		bic	r3, r3, #31
 940 000a 1360     		str	r3, [r2]
 941              	.L117:
 942              		.loc 1 776 0 is_stmt 0 discriminator 2
 943 000c 1368     		ldr	r3, [r2]
 944 000e DB07     		lsls	r3, r3, #31
 945 0010 FCD4     		bmi	.L117
 946              		.loc 1 776 0 discriminator 3
 947 0012 087A     		ldrb	r0, [r1, #8]	@ zero_extendqisi2
 948              	.LVL61:
 949 0014 4968     		ldr	r1, [r1, #4]
 950 0016 3D23     		movs	r3, #61
 951 0018 8340     		lsls	r3, r3, r0
 952 001a 0B60     		str	r3, [r1]
 953              		.loc 1 778 0 is_stmt 1 discriminator 3
 954 001c 5068     		ldr	r0, [r2, #4]
 955              		.loc 1 779 0 discriminator 3
 956 001e 7047     		bx	lr
 957              		.cfi_endproc
 958              	.LFE270:
 959              		.size	uart_lld_stop_send, .-uart_lld_stop_send
 960              		.section	.text.uart_lld_start_receive,"ax",%progbits
 961              		.align	2
 962              		.p2align 4,,15
 963              		.global	uart_lld_start_receive
 964              		.thumb
 965              		.thumb_func
 966              		.type	uart_lld_start_receive, %function
 967              	uart_lld_start_receive:
 968              	.LFB271:
 969              		.loc 1 792 0
ARM GAS  /tmp/ccLyIQGT.s 			page 18


 970              		.cfi_startproc
 971              		@ args = 0, pretend = 0, frame = 0
 972              		@ frame_needed = 0, uses_anonymous_args = 0
 973              		@ link register save eliminated.
 974              	.LVL62:
 975 0000 70B4     		push	{r4, r5, r6}
 976              		.cfi_def_cfa_offset 12
 977              		.cfi_offset 4, -12
 978              		.cfi_offset 5, -8
 979              		.cfi_offset 6, -4
 980              		.loc 1 795 0
 981 0002 0569     		ldr	r5, [r0, #16]
 982 0004 2C68     		ldr	r4, [r5]
 983 0006 2368     		ldr	r3, [r4]
 984 0008 23F01F03 		bic	r3, r3, #31
 985 000c 2360     		str	r3, [r4]
 986              	.L120:
 987              		.loc 1 795 0 is_stmt 0 discriminator 2
 988 000e 2368     		ldr	r3, [r4]
 989 0010 DB07     		lsls	r3, r3, #31
 990 0012 FCD4     		bmi	.L120
 991              		.loc 1 795 0 discriminator 3
 992 0014 2E7A     		ldrb	r6, [r5, #8]	@ zero_extendqisi2
 993 0016 6D68     		ldr	r5, [r5, #4]
 994 0018 3D23     		movs	r3, #61
 995 001a B340     		lsls	r3, r3, r6
 996 001c 2B60     		str	r3, [r5]
 997              		.loc 1 800 0 is_stmt 1 discriminator 3
 998 001e C368     		ldr	r3, [r0, #12]
 999              		.loc 1 798 0 discriminator 3
 1000 0020 E260     		str	r2, [r4, #12]
 1001              		.loc 1 800 0 discriminator 3
 1002 0022 43F48263 		orr	r3, r3, #1040
 1003              		.loc 1 799 0 discriminator 3
 1004 0026 6160     		str	r1, [r4, #4]
 1005              		.loc 1 800 0 discriminator 3
 1006 0028 2360     		str	r3, [r4]
 1007              		.loc 1 804 0 discriminator 3
 1008 002a 2368     		ldr	r3, [r4]
 1009 002c 43F00103 		orr	r3, r3, #1
 1010 0030 2360     		str	r3, [r4]
 1011              		.loc 1 805 0 discriminator 3
 1012 0032 70BC     		pop	{r4, r5, r6}
 1013              		.cfi_restore 6
 1014              		.cfi_restore 5
 1015              		.cfi_restore 4
 1016              		.cfi_def_cfa_offset 0
 1017 0034 7047     		bx	lr
 1018              		.cfi_endproc
 1019              	.LFE271:
 1020              		.size	uart_lld_start_receive, .-uart_lld_start_receive
 1021 0036 00BF     		.section	.text.uart_lld_stop_receive,"ax",%progbits
 1022              		.align	2
 1023              		.p2align 4,,15
 1024              		.global	uart_lld_stop_receive
 1025              		.thumb
 1026              		.thumb_func
ARM GAS  /tmp/ccLyIQGT.s 			page 19


 1027              		.type	uart_lld_stop_receive, %function
 1028              	uart_lld_stop_receive:
 1029              	.LFB272:
 1030              		.loc 1 818 0
 1031              		.cfi_startproc
 1032              		@ args = 0, pretend = 0, frame = 0
 1033              		@ frame_needed = 0, uses_anonymous_args = 0
 1034              		@ link register save eliminated.
 1035              	.LVL63:
 1036 0000 0146     		mov	r1, r0
 1037              		.loc 1 821 0
 1038 0002 0069     		ldr	r0, [r0, #16]
 1039              	.LVL64:
 1040 0004 0268     		ldr	r2, [r0]
 1041 0006 1368     		ldr	r3, [r2]
 1042 0008 23F01F03 		bic	r3, r3, #31
 1043 000c 1360     		str	r3, [r2]
 1044              	.L124:
 1045              		.loc 1 821 0 is_stmt 0 discriminator 2
 1046 000e 1368     		ldr	r3, [r2]
 1047 0010 DB07     		lsls	r3, r3, #31
 1048 0012 FCD4     		bmi	.L124
 1049              		.loc 1 818 0 is_stmt 1 discriminator 3
 1050 0014 30B4     		push	{r4, r5}
 1051              		.cfi_def_cfa_offset 8
 1052              		.cfi_offset 4, -8
 1053              		.cfi_offset 5, -4
 1054              	.LBB70:
 1055              	.LBB71:
 1056              		.loc 1 164 0 discriminator 3
 1057 0016 4B68     		ldr	r3, [r1, #4]
 1058              	.LBE71:
 1059              	.LBE70:
 1060              		.loc 1 821 0 discriminator 3
 1061 0018 057A     		ldrb	r5, [r0, #8]	@ zero_extendqisi2
 1062              	.LBB75:
 1063              	.LBB72:
 1064              		.loc 1 164 0 discriminator 3
 1065 001a DC68     		ldr	r4, [r3, #12]
 1066              	.LBE72:
 1067              	.LBE75:
 1068              		.loc 1 821 0 discriminator 3
 1069 001c 4068     		ldr	r0, [r0, #4]
 1070 001e 3D23     		movs	r3, #61
 1071 0020 AB40     		lsls	r3, r3, r5
 1072 0022 0360     		str	r3, [r0]
 1073              	.LBB76:
 1074              	.LBB73:
 1075              		.loc 1 170 0 discriminator 3
 1076 0024 CB68     		ldr	r3, [r1, #12]
 1077              	.LBE73:
 1078              	.LBE76:
 1079              		.loc 1 822 0 discriminator 3
 1080 0026 5068     		ldr	r0, [r2, #4]
 1081              	.LVL65:
 1082              	.LBB77:
 1083              	.LBB74:
ARM GAS  /tmp/ccLyIQGT.s 			page 20


 1084              		.loc 1 167 0 discriminator 3
 1085 0028 002C     		cmp	r4, #0
 1086 002a 0CBF     		ite	eq
 1087 002c 4FF48074 		moveq	r4, #256
 1088 0030 4FF48874 		movne	r4, #272
 1089              	.LVL66:
 1090              		.loc 1 170 0 discriminator 3
 1091 0034 2343     		orrs	r3, r3, r4
 1092              		.loc 1 168 0 discriminator 3
 1093 0036 1831     		adds	r1, r1, #24
 1094              	.LVL67:
 1095              		.loc 1 169 0 discriminator 3
 1096 0038 0124     		movs	r4, #1
 1097              	.LVL68:
 1098              		.loc 1 168 0 discriminator 3
 1099 003a D160     		str	r1, [r2, #12]
 1100              		.loc 1 169 0 discriminator 3
 1101 003c 5460     		str	r4, [r2, #4]
 1102              		.loc 1 170 0 discriminator 3
 1103 003e 1360     		str	r3, [r2]
 1104              		.loc 1 171 0 discriminator 3
 1105 0040 1368     		ldr	r3, [r2]
 1106 0042 2343     		orrs	r3, r3, r4
 1107 0044 1360     		str	r3, [r2]
 1108              	.LVL69:
 1109              	.LBE74:
 1110              	.LBE77:
 1111              		.loc 1 826 0 discriminator 3
 1112 0046 30BC     		pop	{r4, r5}
 1113              		.cfi_restore 5
 1114              		.cfi_restore 4
 1115              		.cfi_def_cfa_offset 0
 1116 0048 7047     		bx	lr
 1117              		.cfi_endproc
 1118              	.LFE272:
 1119              		.size	uart_lld_stop_receive, .-uart_lld_stop_receive
 1120              		.global	UARTD2
 1121 004a 00BF     		.section	.rodata.str1.4,"aMS",%progbits,1
 1122              		.align	2
 1123              	.LC0:
 1124 0000 444D4120 		.ascii	"DMA failure\000"
 1124      6661696C 
 1124      75726500 
 1125              		.section	.bss.UARTD2,"aw",%nobits
 1126              		.align	2
 1127              		.set	.LANCHOR0,. + 0
 1128              		.type	UARTD2, %object
 1129              		.size	UARTD2, 28
 1130              	UARTD2:
 1131 0000 00000000 		.space	28
 1131      00000000 
 1131      00000000 
 1131      00000000 
 1131      00000000 
 1132              		.text
 1133              	.Letext0:
 1134              		.file 3 "/usr/lib/gcc/arm-none-eabi/5.4.1/include/stddef.h"
ARM GAS  /tmp/ccLyIQGT.s 			page 21


 1135              		.file 4 "/usr/arm-none-eabi/include/machine/_default_types.h"
 1136              		.file 5 "/usr/arm-none-eabi/include/sys/_stdint.h"
 1137              		.file 6 "/home/selim/working/ChibiOS/os/rt/ports/ARMCMx/compilers/GCC/chtypes.h"
 1138              		.file 7 "/home/selim/working/ChibiOS/os/rt/include/chsystypes.h"
 1139              		.file 8 "/home/selim/working/ChibiOS/os/rt/include/chschd.h"
 1140              		.file 9 "/home/selim/working/ChibiOS/os/ext/CMSIS/ST/stm32f407xx.h"
 1141              		.file 10 "/home/selim/working/ChibiOS/os/rt/ports/ARMCMx/chcore.h"
 1142              		.file 11 "/home/selim/working/ChibiOS/os/rt/ports/ARMCMx/chcore_v7m.h"
 1143              		.file 12 "/home/selim/working/ChibiOS/os/rt/include/chtm.h"
 1144              		.file 13 "/home/selim/working/ChibiOS/os/rt/include/chsem.h"
 1145              		.file 14 "/home/selim/working/ChibiOS/os/rt/include/chmtx.h"
 1146              		.file 15 "/home/selim/working/ChibiOS/os/hal/ports/STM32/STM32F4xx/stm32_dma.h"
 1147              		.file 16 "/home/selim/working/ChibiOS/os/hal/include/uart.h"
 1148              		.file 17 "/home/selim/working/ChibiOS/os/hal/ports/STM32/LLD/USARTv1/uart_lld.h"
 1149              		.file 18 "/home/selim/working/ChibiOS/os/ext/CMSIS/include/core_cm4.h"
 1150              		.file 19 "/home/selim/working/ChibiOS/os/rt/include/chsys.h"
 1151              		.file 20 "/home/selim/working/ChibiOS/os/hal/ports/common/ARMCMx/nvic.h"
 1152              		.section	.debug_info,"",%progbits
 1153              	.Ldebug_info0:
 1154 0000 B4110000 		.4byte	0x11b4
 1155 0004 0400     		.2byte	0x4
 1156 0006 00000000 		.4byte	.Ldebug_abbrev0
 1157 000a 04       		.byte	0x4
 1158 000b 01       		.uleb128 0x1
 1159 000c 2E020000 		.4byte	.LASF210
 1160 0010 0C       		.byte	0xc
 1161 0011 78090000 		.4byte	.LASF211
 1162 0015 A8000000 		.4byte	.Ldebug_ranges0+0xa8
 1163 0019 00000000 		.4byte	0
 1164 001d 00000000 		.4byte	.Ldebug_line0
 1165 0021 02       		.uleb128 0x2
 1166 0022 04       		.byte	0x4
 1167 0023 05       		.byte	0x5
 1168 0024 696E7400 		.ascii	"int\000"
 1169 0028 03       		.uleb128 0x3
 1170 0029 41000000 		.4byte	.LASF4
 1171 002d 03       		.byte	0x3
 1172 002e D8       		.byte	0xd8
 1173 002f 33000000 		.4byte	0x33
 1174 0033 04       		.uleb128 0x4
 1175 0034 04       		.byte	0x4
 1176 0035 07       		.byte	0x7
 1177 0036 A8030000 		.4byte	.LASF0
 1178 003a 04       		.uleb128 0x4
 1179 003b 08       		.byte	0x8
 1180 003c 05       		.byte	0x5
 1181 003d 72010000 		.4byte	.LASF1
 1182 0041 04       		.uleb128 0x4
 1183 0042 08       		.byte	0x8
 1184 0043 04       		.byte	0x4
 1185 0044 26030000 		.4byte	.LASF2
 1186 0048 04       		.uleb128 0x4
 1187 0049 01       		.byte	0x1
 1188 004a 06       		.byte	0x6
 1189 004b 80010000 		.4byte	.LASF3
 1190 004f 03       		.uleb128 0x3
 1191 0050 67000000 		.4byte	.LASF5
ARM GAS  /tmp/ccLyIQGT.s 			page 22


 1192 0054 04       		.byte	0x4
 1193 0055 1D       		.byte	0x1d
 1194 0056 5A000000 		.4byte	0x5a
 1195 005a 04       		.uleb128 0x4
 1196 005b 01       		.byte	0x1
 1197 005c 08       		.byte	0x8
 1198 005d 94060000 		.4byte	.LASF6
 1199 0061 04       		.uleb128 0x4
 1200 0062 02       		.byte	0x2
 1201 0063 05       		.byte	0x5
 1202 0064 B4060000 		.4byte	.LASF7
 1203 0068 03       		.uleb128 0x3
 1204 0069 E4070000 		.4byte	.LASF8
 1205 006d 04       		.byte	0x4
 1206 006e 2B       		.byte	0x2b
 1207 006f 73000000 		.4byte	0x73
 1208 0073 04       		.uleb128 0x4
 1209 0074 02       		.byte	0x2
 1210 0075 07       		.byte	0x7
 1211 0076 1D040000 		.4byte	.LASF9
 1212 007a 03       		.uleb128 0x3
 1213 007b C2040000 		.4byte	.LASF10
 1214 007f 04       		.byte	0x4
 1215 0080 3F       		.byte	0x3f
 1216 0081 85000000 		.4byte	0x85
 1217 0085 04       		.uleb128 0x4
 1218 0086 04       		.byte	0x4
 1219 0087 05       		.byte	0x5
 1220 0088 E9010000 		.4byte	.LASF11
 1221 008c 03       		.uleb128 0x3
 1222 008d 26080000 		.4byte	.LASF12
 1223 0091 04       		.byte	0x4
 1224 0092 41       		.byte	0x41
 1225 0093 97000000 		.4byte	0x97
 1226 0097 04       		.uleb128 0x4
 1227 0098 04       		.byte	0x4
 1228 0099 07       		.byte	0x7
 1229 009a 94070000 		.4byte	.LASF13
 1230 009e 03       		.uleb128 0x3
 1231 009f FD050000 		.4byte	.LASF14
 1232 00a3 04       		.byte	0x4
 1233 00a4 5B       		.byte	0x5b
 1234 00a5 A9000000 		.4byte	0xa9
 1235 00a9 04       		.uleb128 0x4
 1236 00aa 08       		.byte	0x8
 1237 00ab 07       		.byte	0x7
 1238 00ac 17020000 		.4byte	.LASF15
 1239 00b0 03       		.uleb128 0x3
 1240 00b1 02090000 		.4byte	.LASF16
 1241 00b5 05       		.byte	0x5
 1242 00b6 18       		.byte	0x18
 1243 00b7 4F000000 		.4byte	0x4f
 1244 00bb 03       		.uleb128 0x3
 1245 00bc 0E020000 		.4byte	.LASF17
 1246 00c0 05       		.byte	0x5
 1247 00c1 24       		.byte	0x24
 1248 00c2 68000000 		.4byte	0x68
ARM GAS  /tmp/ccLyIQGT.s 			page 23


 1249 00c6 03       		.uleb128 0x3
 1250 00c7 8C060000 		.4byte	.LASF18
 1251 00cb 05       		.byte	0x5
 1252 00cc 2C       		.byte	0x2c
 1253 00cd 7A000000 		.4byte	0x7a
 1254 00d1 03       		.uleb128 0x3
 1255 00d2 51070000 		.4byte	.LASF19
 1256 00d6 05       		.byte	0x5
 1257 00d7 30       		.byte	0x30
 1258 00d8 8C000000 		.4byte	0x8c
 1259 00dc 03       		.uleb128 0x3
 1260 00dd 59000000 		.4byte	.LASF20
 1261 00e1 05       		.byte	0x5
 1262 00e2 3C       		.byte	0x3c
 1263 00e3 9E000000 		.4byte	0x9e
 1264 00e7 05       		.uleb128 0x5
 1265 00e8 BB000000 		.4byte	0xbb
 1266 00ec 05       		.uleb128 0x5
 1267 00ed C6000000 		.4byte	0xc6
 1268 00f1 05       		.uleb128 0x5
 1269 00f2 D1000000 		.4byte	0xd1
 1270 00f6 03       		.uleb128 0x3
 1271 00f7 A9080000 		.4byte	.LASF21
 1272 00fb 06       		.byte	0x6
 1273 00fc 46       		.byte	0x46
 1274 00fd D1000000 		.4byte	0xd1
 1275 0101 03       		.uleb128 0x3
 1276 0102 96040000 		.4byte	.LASF22
 1277 0106 06       		.byte	0x6
 1278 0107 49       		.byte	0x49
 1279 0108 B0000000 		.4byte	0xb0
 1280 010c 03       		.uleb128 0x3
 1281 010d 05020000 		.4byte	.LASF23
 1282 0111 06       		.byte	0x6
 1283 0112 4A       		.byte	0x4a
 1284 0113 B0000000 		.4byte	0xb0
 1285 0117 03       		.uleb128 0x3
 1286 0118 3E090000 		.4byte	.LASF24
 1287 011c 06       		.byte	0x6
 1288 011d 4B       		.byte	0x4b
 1289 011e B0000000 		.4byte	0xb0
 1290 0122 03       		.uleb128 0x3
 1291 0123 6E060000 		.4byte	.LASF25
 1292 0127 06       		.byte	0x6
 1293 0128 4D       		.byte	0x4d
 1294 0129 D1000000 		.4byte	0xd1
 1295 012d 03       		.uleb128 0x3
 1296 012e 66040000 		.4byte	.LASF26
 1297 0132 06       		.byte	0x6
 1298 0133 4E       		.byte	0x4e
 1299 0134 C6000000 		.4byte	0xc6
 1300 0138 03       		.uleb128 0x3
 1301 0139 B6040000 		.4byte	.LASF27
 1302 013d 06       		.byte	0x6
 1303 013e 50       		.byte	0x50
 1304 013f D1000000 		.4byte	0xd1
 1305 0143 03       		.uleb128 0x3
ARM GAS  /tmp/ccLyIQGT.s 			page 24


 1306 0144 4B070000 		.4byte	.LASF28
 1307 0148 06       		.byte	0x6
 1308 0149 52       		.byte	0x52
 1309 014a C6000000 		.4byte	0xc6
 1310 014e 03       		.uleb128 0x3
 1311 014f 08080000 		.4byte	.LASF29
 1312 0153 07       		.byte	0x7
 1313 0154 33       		.byte	0x33
 1314 0155 D1000000 		.4byte	0xd1
 1315 0159 03       		.uleb128 0x3
 1316 015a F8070000 		.4byte	.LASF30
 1317 015e 07       		.byte	0x7
 1318 015f 3F       		.byte	0x3f
 1319 0160 64010000 		.4byte	0x164
 1320 0164 06       		.uleb128 0x6
 1321 0165 46040000 		.4byte	.LASF50
 1322 0169 44       		.byte	0x44
 1323 016a 08       		.byte	0x8
 1324 016b C2       		.byte	0xc2
 1325 016c 51020000 		.4byte	0x251
 1326 0170 07       		.uleb128 0x7
 1327 0171 6A050000 		.4byte	.LASF31
 1328 0175 08       		.byte	0x8
 1329 0176 C3       		.byte	0xc3
 1330 0177 5C020000 		.4byte	0x25c
 1331 017b 00       		.byte	0
 1332 017c 07       		.uleb128 0x7
 1333 017d 40060000 		.4byte	.LASF32
 1334 0181 08       		.byte	0x8
 1335 0182 C5       		.byte	0xc5
 1336 0183 5C020000 		.4byte	0x25c
 1337 0187 04       		.byte	0x4
 1338 0188 07       		.uleb128 0x7
 1339 0189 44010000 		.4byte	.LASF33
 1340 018d 08       		.byte	0x8
 1341 018e C7       		.byte	0xc7
 1342 018f 22010000 		.4byte	0x122
 1343 0193 08       		.byte	0x8
 1344 0194 07       		.uleb128 0x7
 1345 0195 E7090000 		.4byte	.LASF34
 1346 0199 08       		.byte	0x8
 1347 019a C8       		.byte	0xc8
 1348 019b 09070000 		.4byte	0x709
 1349 019f 0C       		.byte	0xc
 1350 01a0 07       		.uleb128 0x7
 1351 01a1 08030000 		.4byte	.LASF35
 1352 01a5 08       		.byte	0x8
 1353 01a6 CA       		.byte	0xca
 1354 01a7 5C020000 		.4byte	0x25c
 1355 01ab 10       		.byte	0x10
 1356 01ac 07       		.uleb128 0x7
 1357 01ad A8050000 		.4byte	.LASF36
 1358 01b1 08       		.byte	0x8
 1359 01b2 CB       		.byte	0xcb
 1360 01b3 5C020000 		.4byte	0x25c
 1361 01b7 14       		.byte	0x14
 1362 01b8 07       		.uleb128 0x7
ARM GAS  /tmp/ccLyIQGT.s 			page 25


 1363 01b9 F3060000 		.4byte	.LASF37
 1364 01bd 08       		.byte	0x8
 1365 01be D2       		.byte	0xd2
 1366 01bf 88080000 		.4byte	0x888
 1367 01c3 18       		.byte	0x18
 1368 01c4 07       		.uleb128 0x7
 1369 01c5 A2060000 		.4byte	.LASF38
 1370 01c9 08       		.byte	0x8
 1371 01ca DD       		.byte	0xdd
 1372 01cb 0C010000 		.4byte	0x10c
 1373 01cf 1C       		.byte	0x1c
 1374 01d0 07       		.uleb128 0x7
 1375 01d1 E2060000 		.4byte	.LASF39
 1376 01d5 08       		.byte	0x8
 1377 01d6 E1       		.byte	0xe1
 1378 01d7 01010000 		.4byte	0x101
 1379 01db 1D       		.byte	0x1d
 1380 01dc 07       		.uleb128 0x7
 1381 01dd E6080000 		.4byte	.LASF40
 1382 01e1 08       		.byte	0x8
 1383 01e2 E6       		.byte	0xe6
 1384 01e3 17010000 		.4byte	0x117
 1385 01e7 1E       		.byte	0x1e
 1386 01e8 08       		.uleb128 0x8
 1387 01e9 705F7500 		.ascii	"p_u\000"
 1388 01ed 08       		.byte	0x8
 1389 01ee 3101     		.2byte	0x131
 1390 01f0 C3070000 		.4byte	0x7c3
 1391 01f4 20       		.byte	0x20
 1392 01f5 09       		.uleb128 0x9
 1393 01f6 1D050000 		.4byte	.LASF41
 1394 01fa 08       		.byte	0x8
 1395 01fb 3601     		.2byte	0x136
 1396 01fd 62020000 		.4byte	0x262
 1397 0201 24       		.byte	0x24
 1398 0202 09       		.uleb128 0x9
 1399 0203 EF030000 		.4byte	.LASF42
 1400 0207 08       		.byte	0x8
 1401 0208 3C01     		.2byte	0x13c
 1402 020a 86020000 		.4byte	0x286
 1403 020e 28       		.byte	0x28
 1404 020f 09       		.uleb128 0x9
 1405 0210 6B090000 		.4byte	.LASF43
 1406 0214 08       		.byte	0x8
 1407 0215 4001     		.2byte	0x140
 1408 0217 2D010000 		.4byte	0x12d
 1409 021b 30       		.byte	0x30
 1410 021c 09       		.uleb128 0x9
 1411 021d 31070000 		.4byte	.LASF44
 1412 0221 08       		.byte	0x8
 1413 0222 4601     		.2byte	0x146
 1414 0224 38010000 		.4byte	0x138
 1415 0228 34       		.byte	0x34
 1416 0229 09       		.uleb128 0x9
 1417 022a AA060000 		.4byte	.LASF45
 1418 022e 08       		.byte	0x8
 1419 022f 4D01     		.2byte	0x14d
ARM GAS  /tmp/ccLyIQGT.s 			page 26


 1420 0231 82080000 		.4byte	0x882
 1421 0235 38       		.byte	0x38
 1422 0236 09       		.uleb128 0x9
 1423 0237 12080000 		.4byte	.LASF46
 1424 023b 08       		.byte	0x8
 1425 023c 5101     		.2byte	0x151
 1426 023e 22010000 		.4byte	0x122
 1427 0242 3C       		.byte	0x3c
 1428 0243 09       		.uleb128 0x9
 1429 0244 A3010000 		.4byte	.LASF47
 1430 0248 08       		.byte	0x8
 1431 0249 5801     		.2byte	0x158
 1432 024b 39030000 		.4byte	0x339
 1433 024f 40       		.byte	0x40
 1434 0250 00       		.byte	0
 1435 0251 03       		.uleb128 0x3
 1436 0252 3A050000 		.4byte	.LASF48
 1437 0256 07       		.byte	0x7
 1438 0257 44       		.byte	0x44
 1439 0258 5C020000 		.4byte	0x25c
 1440 025c 0A       		.uleb128 0xa
 1441 025d 04       		.byte	0x4
 1442 025e 59010000 		.4byte	0x159
 1443 0262 03       		.uleb128 0x3
 1444 0263 17000000 		.4byte	.LASF49
 1445 0267 07       		.byte	0x7
 1446 0268 49       		.byte	0x49
 1447 0269 6D020000 		.4byte	0x26d
 1448 026d 06       		.uleb128 0x6
 1449 026e 72070000 		.4byte	.LASF51
 1450 0272 04       		.byte	0x4
 1451 0273 08       		.byte	0x8
 1452 0274 B0       		.byte	0xb0
 1453 0275 86020000 		.4byte	0x286
 1454 0279 07       		.uleb128 0x7
 1455 027a 6A050000 		.4byte	.LASF31
 1456 027e 08       		.byte	0x8
 1457 027f B1       		.byte	0xb1
 1458 0280 5C020000 		.4byte	0x25c
 1459 0284 00       		.byte	0
 1460 0285 00       		.byte	0
 1461 0286 03       		.uleb128 0x3
 1462 0287 CD080000 		.4byte	.LASF52
 1463 028b 07       		.byte	0x7
 1464 028c 50       		.byte	0x50
 1465 028d 91020000 		.4byte	0x291
 1466 0291 06       		.uleb128 0x6
 1467 0292 29010000 		.4byte	.LASF53
 1468 0296 08       		.byte	0x8
 1469 0297 08       		.byte	0x8
 1470 0298 B7       		.byte	0xb7
 1471 0299 B6020000 		.4byte	0x2b6
 1472 029d 07       		.uleb128 0x7
 1473 029e 6A050000 		.4byte	.LASF31
 1474 02a2 08       		.byte	0x8
 1475 02a3 B8       		.byte	0xb8
 1476 02a4 5C020000 		.4byte	0x25c
ARM GAS  /tmp/ccLyIQGT.s 			page 27


 1477 02a8 00       		.byte	0
 1478 02a9 07       		.uleb128 0x7
 1479 02aa 40060000 		.4byte	.LASF32
 1480 02ae 08       		.byte	0x8
 1481 02af B9       		.byte	0xb9
 1482 02b0 5C020000 		.4byte	0x25c
 1483 02b4 04       		.byte	0x4
 1484 02b5 00       		.byte	0
 1485 02b6 03       		.uleb128 0x3
 1486 02b7 26000000 		.4byte	.LASF54
 1487 02bb 07       		.byte	0x7
 1488 02bc 57       		.byte	0x57
 1489 02bd C1020000 		.4byte	0x2c1
 1490 02c1 0B       		.uleb128 0xb
 1491 02c2 A8040000 		.4byte	.LASF55
 1492 02c6 1C       		.byte	0x1c
 1493 02c7 08       		.byte	0x8
 1494 02c8 9001     		.2byte	0x190
 1495 02ca 1D030000 		.4byte	0x31d
 1496 02ce 09       		.uleb128 0x9
 1497 02cf 61070000 		.4byte	.LASF56
 1498 02d3 08       		.byte	0x8
 1499 02d4 9101     		.2byte	0x191
 1500 02d6 86020000 		.4byte	0x286
 1501 02da 00       		.byte	0
 1502 02db 09       		.uleb128 0x9
 1503 02dc C8060000 		.4byte	.LASF57
 1504 02e0 08       		.byte	0x8
 1505 02e1 9201     		.2byte	0x192
 1506 02e3 22010000 		.4byte	0x122
 1507 02e7 08       		.byte	0x8
 1508 02e8 09       		.uleb128 0x9
 1509 02e9 B0050000 		.4byte	.LASF58
 1510 02ed 08       		.byte	0x8
 1511 02ee 9401     		.2byte	0x194
 1512 02f0 09070000 		.4byte	0x709
 1513 02f4 0C       		.byte	0xc
 1514 02f5 09       		.uleb128 0x9
 1515 02f6 3D030000 		.4byte	.LASF59
 1516 02fa 08       		.byte	0x8
 1517 02fb 9701     		.2byte	0x197
 1518 02fd 5C020000 		.4byte	0x25c
 1519 0301 10       		.byte	0x10
 1520 0302 09       		.uleb128 0x9
 1521 0303 7B080000 		.4byte	.LASF60
 1522 0307 08       		.byte	0x8
 1523 0308 9801     		.2byte	0x198
 1524 030a 5C020000 		.4byte	0x25c
 1525 030e 14       		.byte	0x14
 1526 030f 09       		.uleb128 0x9
 1527 0310 EA050000 		.4byte	.LASF61
 1528 0314 08       		.byte	0x8
 1529 0315 9B01     		.2byte	0x19b
 1530 0317 5C020000 		.4byte	0x25c
 1531 031b 18       		.byte	0x18
 1532 031c 00       		.byte	0
 1533 031d 03       		.uleb128 0x3
ARM GAS  /tmp/ccLyIQGT.s 			page 28


 1534 031e 1D080000 		.4byte	.LASF62
 1535 0322 07       		.byte	0x7
 1536 0323 5C       		.byte	0x5c
 1537 0324 28030000 		.4byte	0x328
 1538 0328 0A       		.uleb128 0xa
 1539 0329 04       		.byte	0x4
 1540 032a 2E030000 		.4byte	0x32e
 1541 032e 0C       		.uleb128 0xc
 1542 032f 39030000 		.4byte	0x339
 1543 0333 0D       		.uleb128 0xd
 1544 0334 39030000 		.4byte	0x339
 1545 0338 00       		.byte	0
 1546 0339 0E       		.uleb128 0xe
 1547 033a 04       		.byte	0x4
 1548 033b 03       		.uleb128 0x3
 1549 033c 07050000 		.4byte	.LASF63
 1550 0340 07       		.byte	0x7
 1551 0341 61       		.byte	0x61
 1552 0342 46030000 		.4byte	0x346
 1553 0346 0B       		.uleb128 0xb
 1554 0347 5A090000 		.4byte	.LASF64
 1555 034b 14       		.byte	0x14
 1556 034c 08       		.byte	0x8
 1557 034d 6B01     		.2byte	0x16b
 1558 034f 95030000 		.4byte	0x395
 1559 0353 09       		.uleb128 0x9
 1560 0354 B5030000 		.4byte	.LASF65
 1561 0358 08       		.byte	0x8
 1562 0359 6C01     		.2byte	0x16c
 1563 035b 9A080000 		.4byte	0x89a
 1564 035f 00       		.byte	0
 1565 0360 09       		.uleb128 0x9
 1566 0361 4E030000 		.4byte	.LASF66
 1567 0365 08       		.byte	0x8
 1568 0366 6D01     		.2byte	0x16d
 1569 0368 9A080000 		.4byte	0x89a
 1570 036c 04       		.byte	0x4
 1571 036d 09       		.uleb128 0x9
 1572 036e 69070000 		.4byte	.LASF67
 1573 0372 08       		.byte	0x8
 1574 0373 6E01     		.2byte	0x16e
 1575 0375 4E010000 		.4byte	0x14e
 1576 0379 08       		.byte	0x8
 1577 037a 09       		.uleb128 0x9
 1578 037b ED090000 		.4byte	.LASF68
 1579 037f 08       		.byte	0x8
 1580 0380 6F01     		.2byte	0x16f
 1581 0382 1D030000 		.4byte	0x31d
 1582 0386 0C       		.byte	0xc
 1583 0387 09       		.uleb128 0x9
 1584 0388 C0080000 		.4byte	.LASF69
 1585 038c 08       		.byte	0x8
 1586 038d 7101     		.2byte	0x171
 1587 038f 39030000 		.4byte	0x339
 1588 0393 10       		.byte	0x10
 1589 0394 00       		.byte	0
 1590 0395 03       		.uleb128 0x3
ARM GAS  /tmp/ccLyIQGT.s 			page 29


 1591 0396 F5000000 		.4byte	.LASF70
 1592 039a 07       		.byte	0x7
 1593 039b 66       		.byte	0x66
 1594 039c A0030000 		.4byte	0x3a0
 1595 03a0 0B       		.uleb128 0xb
 1596 03a1 4D050000 		.4byte	.LASF71
 1597 03a5 10       		.byte	0x10
 1598 03a6 08       		.byte	0x8
 1599 03a7 7B01     		.2byte	0x17b
 1600 03a9 E2030000 		.4byte	0x3e2
 1601 03ad 09       		.uleb128 0x9
 1602 03ae B5030000 		.4byte	.LASF65
 1603 03b2 08       		.byte	0x8
 1604 03b3 7C01     		.2byte	0x17c
 1605 03b5 9A080000 		.4byte	0x89a
 1606 03b9 00       		.byte	0
 1607 03ba 09       		.uleb128 0x9
 1608 03bb 4E030000 		.4byte	.LASF66
 1609 03bf 08       		.byte	0x8
 1610 03c0 7E01     		.2byte	0x17e
 1611 03c2 9A080000 		.4byte	0x89a
 1612 03c6 04       		.byte	0x4
 1613 03c7 09       		.uleb128 0x9
 1614 03c8 69070000 		.4byte	.LASF67
 1615 03cc 08       		.byte	0x8
 1616 03cd 8001     		.2byte	0x180
 1617 03cf 4E010000 		.4byte	0x14e
 1618 03d3 08       		.byte	0x8
 1619 03d4 09       		.uleb128 0x9
 1620 03d5 82050000 		.4byte	.LASF72
 1621 03d9 08       		.byte	0x8
 1622 03da 8801     		.2byte	0x188
 1623 03dc 4E010000 		.4byte	0x14e
 1624 03e0 0C       		.byte	0xc
 1625 03e1 00       		.byte	0
 1626 03e2 03       		.uleb128 0x3
 1627 03e3 99000000 		.4byte	.LASF73
 1628 03e7 07       		.byte	0x7
 1629 03e8 6B       		.byte	0x6b
 1630 03e9 ED030000 		.4byte	0x3ed
 1631 03ed 0B       		.uleb128 0xb
 1632 03ee 76060000 		.4byte	.LASF74
 1633 03f2 04       		.byte	0x4
 1634 03f3 08       		.byte	0x8
 1635 03f4 A201     		.2byte	0x1a2
 1636 03f6 08040000 		.4byte	0x408
 1637 03fa 09       		.uleb128 0x9
 1638 03fb 47080000 		.4byte	.LASF75
 1639 03ff 08       		.byte	0x8
 1640 0400 AA01     		.2byte	0x1aa
 1641 0402 A0080000 		.4byte	0x8a0
 1642 0406 00       		.byte	0
 1643 0407 00       		.byte	0
 1644 0408 03       		.uleb128 0x3
 1645 0409 83080000 		.4byte	.LASF76
 1646 040d 07       		.byte	0x7
 1647 040e 70       		.byte	0x70
ARM GAS  /tmp/ccLyIQGT.s 			page 30


 1648 040f 13040000 		.4byte	0x413
 1649 0413 0F       		.uleb128 0xf
 1650 0414 FA060000 		.4byte	.LASF77
 1651 0418 5001     		.2byte	0x150
 1652 041a 08       		.byte	0x8
 1653 041b C201     		.2byte	0x1c2
 1654 041d 6F040000 		.4byte	0x46f
 1655 0421 09       		.uleb128 0x9
 1656 0422 FC080000 		.4byte	.LASF78
 1657 0426 08       		.byte	0x8
 1658 0427 C601     		.2byte	0x1c6
 1659 0429 B6020000 		.4byte	0x2b6
 1660 042d 00       		.byte	0
 1661 042e 09       		.uleb128 0x9
 1662 042f 56030000 		.4byte	.LASF79
 1663 0433 08       		.byte	0x8
 1664 0434 CA01     		.2byte	0x1ca
 1665 0436 95030000 		.4byte	0x395
 1666 043a 1C       		.byte	0x1c
 1667 043b 08       		.uleb128 0x8
 1668 043c 64626700 		.ascii	"dbg\000"
 1669 0440 08       		.byte	0x8
 1670 0441 CE01     		.2byte	0x1ce
 1671 0443 E2030000 		.4byte	0x3e2
 1672 0447 2C       		.byte	0x2c
 1673 0448 09       		.uleb128 0x9
 1674 0449 5B040000 		.4byte	.LASF80
 1675 044d 08       		.byte	0x8
 1676 044e D201     		.2byte	0x1d2
 1677 0450 59010000 		.4byte	0x159
 1678 0454 30       		.byte	0x30
 1679 0455 08       		.uleb128 0x8
 1680 0456 746D00   		.ascii	"tm\000"
 1681 0459 08       		.byte	0x8
 1682 045a D701     		.2byte	0x1d7
 1683 045c B8070000 		.4byte	0x7b8
 1684 0460 74       		.byte	0x74
 1685 0461 09       		.uleb128 0x9
 1686 0462 84030000 		.4byte	.LASF81
 1687 0466 08       		.byte	0x8
 1688 0467 E301     		.2byte	0x1e3
 1689 0469 A5080000 		.4byte	0x8a5
 1690 046d 78       		.byte	0x78
 1691 046e 00       		.byte	0
 1692 046f 04       		.uleb128 0x4
 1693 0470 04       		.byte	0x4
 1694 0471 07       		.byte	0x7
 1695 0472 31050000 		.4byte	.LASF82
 1696 0476 10       		.uleb128 0x10
 1697 0477 D1000000 		.4byte	0xd1
 1698 047b 86040000 		.4byte	0x486
 1699 047f 11       		.uleb128 0x11
 1700 0480 6F040000 		.4byte	0x46f
 1701 0484 01       		.byte	0x1
 1702 0485 00       		.byte	0
 1703 0486 12       		.uleb128 0x12
 1704 0487 18       		.byte	0x18
ARM GAS  /tmp/ccLyIQGT.s 			page 31


 1705 0488 09       		.byte	0x9
 1706 0489 6B01     		.2byte	0x16b
 1707 048b DD040000 		.4byte	0x4dd
 1708 048f 08       		.uleb128 0x8
 1709 0490 435200   		.ascii	"CR\000"
 1710 0493 09       		.byte	0x9
 1711 0494 6D01     		.2byte	0x16d
 1712 0496 F1000000 		.4byte	0xf1
 1713 049a 00       		.byte	0
 1714 049b 09       		.uleb128 0x9
 1715 049c 42080000 		.4byte	.LASF83
 1716 04a0 09       		.byte	0x9
 1717 04a1 6E01     		.2byte	0x16e
 1718 04a3 F1000000 		.4byte	0xf1
 1719 04a7 04       		.byte	0x4
 1720 04a8 08       		.uleb128 0x8
 1721 04a9 50415200 		.ascii	"PAR\000"
 1722 04ad 09       		.byte	0x9
 1723 04ae 6F01     		.2byte	0x16f
 1724 04b0 F1000000 		.4byte	0xf1
 1725 04b4 08       		.byte	0x8
 1726 04b5 09       		.uleb128 0x9
 1727 04b6 62000000 		.4byte	.LASF84
 1728 04ba 09       		.byte	0x9
 1729 04bb 7001     		.2byte	0x170
 1730 04bd F1000000 		.4byte	0xf1
 1731 04c1 0C       		.byte	0xc
 1732 04c2 09       		.uleb128 0x9
 1733 04c3 B1080000 		.4byte	.LASF85
 1734 04c7 09       		.byte	0x9
 1735 04c8 7101     		.2byte	0x171
 1736 04ca F1000000 		.4byte	0xf1
 1737 04ce 10       		.byte	0x10
 1738 04cf 08       		.uleb128 0x8
 1739 04d0 46435200 		.ascii	"FCR\000"
 1740 04d4 09       		.byte	0x9
 1741 04d5 7201     		.2byte	0x172
 1742 04d7 F1000000 		.4byte	0xf1
 1743 04db 14       		.byte	0x14
 1744 04dc 00       		.byte	0
 1745 04dd 13       		.uleb128 0x13
 1746 04de 58080000 		.4byte	.LASF86
 1747 04e2 09       		.byte	0x9
 1748 04e3 7301     		.2byte	0x173
 1749 04e5 86040000 		.4byte	0x486
 1750 04e9 12       		.uleb128 0x12
 1751 04ea 88       		.byte	0x88
 1752 04eb 09       		.byte	0x9
 1753 04ec 6702     		.2byte	0x267
 1754 04ee 78060000 		.4byte	0x678
 1755 04f2 08       		.uleb128 0x8
 1756 04f3 435200   		.ascii	"CR\000"
 1757 04f6 09       		.byte	0x9
 1758 04f7 6902     		.2byte	0x269
 1759 04f9 F1000000 		.4byte	0xf1
 1760 04fd 00       		.byte	0
 1761 04fe 09       		.uleb128 0x9
ARM GAS  /tmp/ccLyIQGT.s 			page 32


 1762 04ff 10030000 		.4byte	.LASF87
 1763 0503 09       		.byte	0x9
 1764 0504 6A02     		.2byte	0x26a
 1765 0506 F1000000 		.4byte	0xf1
 1766 050a 04       		.byte	0x4
 1767 050b 09       		.uleb128 0x9
 1768 050c 39090000 		.4byte	.LASF88
 1769 0510 09       		.byte	0x9
 1770 0511 6B02     		.2byte	0x26b
 1771 0513 F1000000 		.4byte	0xf1
 1772 0517 08       		.byte	0x8
 1773 0518 08       		.uleb128 0x8
 1774 0519 43495200 		.ascii	"CIR\000"
 1775 051d 09       		.byte	0x9
 1776 051e 6C02     		.2byte	0x26c
 1777 0520 F1000000 		.4byte	0xf1
 1778 0524 0C       		.byte	0xc
 1779 0525 09       		.uleb128 0x9
 1780 0526 95010000 		.4byte	.LASF89
 1781 052a 09       		.byte	0x9
 1782 052b 6D02     		.2byte	0x26d
 1783 052d F1000000 		.4byte	0xf1
 1784 0531 10       		.byte	0x10
 1785 0532 09       		.uleb128 0x9
 1786 0533 EF070000 		.4byte	.LASF90
 1787 0537 09       		.byte	0x9
 1788 0538 6E02     		.2byte	0x26e
 1789 053a F1000000 		.4byte	0xf1
 1790 053e 14       		.byte	0x14
 1791 053f 09       		.uleb128 0x9
 1792 0540 6C040000 		.4byte	.LASF91
 1793 0544 09       		.byte	0x9
 1794 0545 6F02     		.2byte	0x26f
 1795 0547 F1000000 		.4byte	0xf1
 1796 054b 18       		.byte	0x18
 1797 054c 09       		.uleb128 0x9
 1798 054d 0E060000 		.4byte	.LASF92
 1799 0551 09       		.byte	0x9
 1800 0552 7002     		.2byte	0x270
 1801 0554 D1000000 		.4byte	0xd1
 1802 0558 1C       		.byte	0x1c
 1803 0559 09       		.uleb128 0x9
 1804 055a F4050000 		.4byte	.LASF93
 1805 055e 09       		.byte	0x9
 1806 055f 7102     		.2byte	0x271
 1807 0561 F1000000 		.4byte	0xf1
 1808 0565 20       		.byte	0x20
 1809 0566 09       		.uleb128 0x9
 1810 0567 F2010000 		.4byte	.LASF94
 1811 056b 09       		.byte	0x9
 1812 056c 7202     		.2byte	0x272
 1813 056e F1000000 		.4byte	0xf1
 1814 0572 24       		.byte	0x24
 1815 0573 09       		.uleb128 0x9
 1816 0574 18060000 		.4byte	.LASF95
 1817 0578 09       		.byte	0x9
 1818 0579 7302     		.2byte	0x273
ARM GAS  /tmp/ccLyIQGT.s 			page 33


 1819 057b 76040000 		.4byte	0x476
 1820 057f 28       		.byte	0x28
 1821 0580 09       		.uleb128 0x9
 1822 0581 31090000 		.4byte	.LASF96
 1823 0585 09       		.byte	0x9
 1824 0586 7402     		.2byte	0x274
 1825 0588 F1000000 		.4byte	0xf1
 1826 058c 30       		.byte	0x30
 1827 058d 09       		.uleb128 0x9
 1828 058e 6B080000 		.4byte	.LASF97
 1829 0592 09       		.byte	0x9
 1830 0593 7502     		.2byte	0x275
 1831 0595 F1000000 		.4byte	0xf1
 1832 0599 34       		.byte	0x34
 1833 059a 09       		.uleb128 0x9
 1834 059b 7A050000 		.4byte	.LASF98
 1835 059f 09       		.byte	0x9
 1836 05a0 7602     		.2byte	0x276
 1837 05a2 F1000000 		.4byte	0xf1
 1838 05a6 38       		.byte	0x38
 1839 05a7 09       		.uleb128 0x9
 1840 05a8 22060000 		.4byte	.LASF99
 1841 05ac 09       		.byte	0x9
 1842 05ad 7702     		.2byte	0x277
 1843 05af D1000000 		.4byte	0xd1
 1844 05b3 3C       		.byte	0x3c
 1845 05b4 09       		.uleb128 0x9
 1846 05b5 82070000 		.4byte	.LASF100
 1847 05b9 09       		.byte	0x9
 1848 05ba 7802     		.2byte	0x278
 1849 05bc F1000000 		.4byte	0xf1
 1850 05c0 40       		.byte	0x40
 1851 05c1 09       		.uleb128 0x9
 1852 05c2 04070000 		.4byte	.LASF101
 1853 05c6 09       		.byte	0x9
 1854 05c7 7902     		.2byte	0x279
 1855 05c9 F1000000 		.4byte	0xf1
 1856 05cd 44       		.byte	0x44
 1857 05ce 09       		.uleb128 0x9
 1858 05cf 2C060000 		.4byte	.LASF102
 1859 05d3 09       		.byte	0x9
 1860 05d4 7A02     		.2byte	0x27a
 1861 05d6 76040000 		.4byte	0x476
 1862 05da 48       		.byte	0x48
 1863 05db 09       		.uleb128 0x9
 1864 05dc 3A010000 		.4byte	.LASF103
 1865 05e0 09       		.byte	0x9
 1866 05e1 7B02     		.2byte	0x27b
 1867 05e3 F1000000 		.4byte	0xf1
 1868 05e7 50       		.byte	0x50
 1869 05e8 09       		.uleb128 0x9
 1870 05e9 C0000000 		.4byte	.LASF104
 1871 05ed 09       		.byte	0x9
 1872 05ee 7C02     		.2byte	0x27c
 1873 05f0 F1000000 		.4byte	0xf1
 1874 05f4 54       		.byte	0x54
 1875 05f5 09       		.uleb128 0x9
ARM GAS  /tmp/ccLyIQGT.s 			page 34


 1876 05f6 BE060000 		.4byte	.LASF105
 1877 05fa 09       		.byte	0x9
 1878 05fb 7D02     		.2byte	0x27d
 1879 05fd F1000000 		.4byte	0xf1
 1880 0601 58       		.byte	0x58
 1881 0602 09       		.uleb128 0x9
 1882 0603 36060000 		.4byte	.LASF106
 1883 0607 09       		.byte	0x9
 1884 0608 7E02     		.2byte	0x27e
 1885 060a D1000000 		.4byte	0xd1
 1886 060e 5C       		.byte	0x5c
 1887 060f 09       		.uleb128 0x9
 1888 0610 FB010000 		.4byte	.LASF107
 1889 0614 09       		.byte	0x9
 1890 0615 7F02     		.2byte	0x27f
 1891 0617 F1000000 		.4byte	0xf1
 1892 061b 60       		.byte	0x60
 1893 061c 09       		.uleb128 0x9
 1894 061d 9E040000 		.4byte	.LASF108
 1895 0621 09       		.byte	0x9
 1896 0622 8002     		.2byte	0x280
 1897 0624 F1000000 		.4byte	0xf1
 1898 0628 64       		.byte	0x64
 1899 0629 09       		.uleb128 0x9
 1900 062a 41070000 		.4byte	.LASF109
 1901 062e 09       		.byte	0x9
 1902 062f 8102     		.2byte	0x281
 1903 0631 76040000 		.4byte	0x476
 1904 0635 68       		.byte	0x68
 1905 0636 09       		.uleb128 0x9
 1906 0637 F7080000 		.4byte	.LASF110
 1907 063b 09       		.byte	0x9
 1908 063c 8202     		.2byte	0x282
 1909 063e F1000000 		.4byte	0xf1
 1910 0642 70       		.byte	0x70
 1911 0643 08       		.uleb128 0x8
 1912 0644 43535200 		.ascii	"CSR\000"
 1913 0648 09       		.byte	0x9
 1914 0649 8302     		.2byte	0x283
 1915 064b F1000000 		.4byte	0xf1
 1916 064f 74       		.byte	0x74
 1917 0650 09       		.uleb128 0x9
 1918 0651 47060000 		.4byte	.LASF111
 1919 0655 09       		.byte	0x9
 1920 0656 8402     		.2byte	0x284
 1921 0658 76040000 		.4byte	0x476
 1922 065c 78       		.byte	0x78
 1923 065d 09       		.uleb128 0x9
 1924 065e C7080000 		.4byte	.LASF112
 1925 0662 09       		.byte	0x9
 1926 0663 8502     		.2byte	0x285
 1927 0665 F1000000 		.4byte	0xf1
 1928 0669 80       		.byte	0x80
 1929 066a 09       		.uleb128 0x9
 1930 066b 50040000 		.4byte	.LASF113
 1931 066f 09       		.byte	0x9
 1932 0670 8602     		.2byte	0x286
ARM GAS  /tmp/ccLyIQGT.s 			page 35


 1933 0672 F1000000 		.4byte	0xf1
 1934 0676 84       		.byte	0x84
 1935 0677 00       		.byte	0
 1936 0678 13       		.uleb128 0x13
 1937 0679 04040000 		.4byte	.LASF114
 1938 067d 09       		.byte	0x9
 1939 067e 8802     		.2byte	0x288
 1940 0680 E9040000 		.4byte	0x4e9
 1941 0684 12       		.uleb128 0x12
 1942 0685 1C       		.byte	0x1c
 1943 0686 09       		.byte	0x9
 1944 0687 0903     		.2byte	0x309
 1945 0689 E7060000 		.4byte	0x6e7
 1946 068d 08       		.uleb128 0x8
 1947 068e 535200   		.ascii	"SR\000"
 1948 0691 09       		.byte	0x9
 1949 0692 0B03     		.2byte	0x30b
 1950 0694 F1000000 		.4byte	0xf1
 1951 0698 00       		.byte	0
 1952 0699 08       		.uleb128 0x8
 1953 069a 445200   		.ascii	"DR\000"
 1954 069d 09       		.byte	0x9
 1955 069e 0C03     		.2byte	0x30c
 1956 06a0 F1000000 		.4byte	0xf1
 1957 06a4 04       		.byte	0x4
 1958 06a5 08       		.uleb128 0x8
 1959 06a6 42525200 		.ascii	"BRR\000"
 1960 06aa 09       		.byte	0x9
 1961 06ab 0D03     		.2byte	0x30d
 1962 06ad F1000000 		.4byte	0xf1
 1963 06b1 08       		.byte	0x8
 1964 06b2 08       		.uleb128 0x8
 1965 06b3 43523100 		.ascii	"CR1\000"
 1966 06b7 09       		.byte	0x9
 1967 06b8 0E03     		.2byte	0x30e
 1968 06ba F1000000 		.4byte	0xf1
 1969 06be 0C       		.byte	0xc
 1970 06bf 08       		.uleb128 0x8
 1971 06c0 43523200 		.ascii	"CR2\000"
 1972 06c4 09       		.byte	0x9
 1973 06c5 0F03     		.2byte	0x30f
 1974 06c7 F1000000 		.4byte	0xf1
 1975 06cb 10       		.byte	0x10
 1976 06cc 08       		.uleb128 0x8
 1977 06cd 43523300 		.ascii	"CR3\000"
 1978 06d1 09       		.byte	0x9
 1979 06d2 1003     		.2byte	0x310
 1980 06d4 F1000000 		.4byte	0xf1
 1981 06d8 14       		.byte	0x14
 1982 06d9 09       		.uleb128 0x9
 1983 06da 9E010000 		.4byte	.LASF115
 1984 06de 09       		.byte	0x9
 1985 06df 1103     		.2byte	0x311
 1986 06e1 F1000000 		.4byte	0xf1
 1987 06e5 18       		.byte	0x18
 1988 06e6 00       		.byte	0
 1989 06e7 13       		.uleb128 0x13
ARM GAS  /tmp/ccLyIQGT.s 			page 36


 1990 06e8 88040000 		.4byte	.LASF116
 1991 06ec 09       		.byte	0x9
 1992 06ed 1203     		.2byte	0x312
 1993 06ef 84060000 		.4byte	0x684
 1994 06f3 03       		.uleb128 0x3
 1995 06f4 45030000 		.4byte	.LASF117
 1996 06f8 0A       		.byte	0xa
 1997 06f9 65       		.byte	0x65
 1998 06fa 39030000 		.4byte	0x339
 1999 06fe 03       		.uleb128 0x3
 2000 06ff D5040000 		.4byte	.LASF118
 2001 0703 0A       		.byte	0xa
 2002 0704 6D       		.byte	0x6d
 2003 0705 DC000000 		.4byte	0xdc
 2004 0709 06       		.uleb128 0x6
 2005 070a 73080000 		.4byte	.LASF119
 2006 070e 04       		.byte	0x4
 2007 070f 0A       		.byte	0xa
 2008 0710 89       		.byte	0x89
 2009 0711 22070000 		.4byte	0x722
 2010 0715 14       		.uleb128 0x14
 2011 0716 72313300 		.ascii	"r13\000"
 2012 071a 0A       		.byte	0xa
 2013 071b 8A       		.byte	0x8a
 2014 071c 9D070000 		.4byte	0x79d
 2015 0720 00       		.byte	0
 2016 0721 00       		.byte	0
 2017 0722 06       		.uleb128 0x6
 2018 0723 8D000000 		.4byte	.LASF120
 2019 0727 24       		.byte	0x24
 2020 0728 0B       		.byte	0xb
 2021 0729 F4       		.byte	0xf4
 2022 072a 9D070000 		.4byte	0x79d
 2023 072e 08       		.uleb128 0x8
 2024 072f 723400   		.ascii	"r4\000"
 2025 0732 0B       		.byte	0xb
 2026 0733 0701     		.2byte	0x107
 2027 0735 F3060000 		.4byte	0x6f3
 2028 0739 00       		.byte	0
 2029 073a 08       		.uleb128 0x8
 2030 073b 723500   		.ascii	"r5\000"
 2031 073e 0B       		.byte	0xb
 2032 073f 0801     		.2byte	0x108
 2033 0741 F3060000 		.4byte	0x6f3
 2034 0745 04       		.byte	0x4
 2035 0746 08       		.uleb128 0x8
 2036 0747 723600   		.ascii	"r6\000"
 2037 074a 0B       		.byte	0xb
 2038 074b 0901     		.2byte	0x109
 2039 074d F3060000 		.4byte	0x6f3
 2040 0751 08       		.byte	0x8
 2041 0752 08       		.uleb128 0x8
 2042 0753 723700   		.ascii	"r7\000"
 2043 0756 0B       		.byte	0xb
 2044 0757 0A01     		.2byte	0x10a
 2045 0759 F3060000 		.4byte	0x6f3
 2046 075d 0C       		.byte	0xc
ARM GAS  /tmp/ccLyIQGT.s 			page 37


 2047 075e 08       		.uleb128 0x8
 2048 075f 723800   		.ascii	"r8\000"
 2049 0762 0B       		.byte	0xb
 2050 0763 0B01     		.2byte	0x10b
 2051 0765 F3060000 		.4byte	0x6f3
 2052 0769 10       		.byte	0x10
 2053 076a 08       		.uleb128 0x8
 2054 076b 723900   		.ascii	"r9\000"
 2055 076e 0B       		.byte	0xb
 2056 076f 0C01     		.2byte	0x10c
 2057 0771 F3060000 		.4byte	0x6f3
 2058 0775 14       		.byte	0x14
 2059 0776 08       		.uleb128 0x8
 2060 0777 72313000 		.ascii	"r10\000"
 2061 077b 0B       		.byte	0xb
 2062 077c 0D01     		.2byte	0x10d
 2063 077e F3060000 		.4byte	0x6f3
 2064 0782 18       		.byte	0x18
 2065 0783 08       		.uleb128 0x8
 2066 0784 72313100 		.ascii	"r11\000"
 2067 0788 0B       		.byte	0xb
 2068 0789 0E01     		.2byte	0x10e
 2069 078b F3060000 		.4byte	0x6f3
 2070 078f 1C       		.byte	0x1c
 2071 0790 08       		.uleb128 0x8
 2072 0791 6C7200   		.ascii	"lr\000"
 2073 0794 0B       		.byte	0xb
 2074 0795 0F01     		.2byte	0x10f
 2075 0797 F3060000 		.4byte	0x6f3
 2076 079b 20       		.byte	0x20
 2077 079c 00       		.byte	0
 2078 079d 0A       		.uleb128 0xa
 2079 079e 04       		.byte	0x4
 2080 079f 22070000 		.4byte	0x722
 2081 07a3 15       		.uleb128 0x15
 2082 07a4 04       		.byte	0x4
 2083 07a5 0C       		.byte	0xc
 2084 07a6 38       		.byte	0x38
 2085 07a7 B8070000 		.4byte	0x7b8
 2086 07ab 07       		.uleb128 0x7
 2087 07ac 51080000 		.4byte	.LASF121
 2088 07b0 0C       		.byte	0xc
 2089 07b1 3C       		.byte	0x3c
 2090 07b2 F6000000 		.4byte	0xf6
 2091 07b6 00       		.byte	0
 2092 07b7 00       		.byte	0
 2093 07b8 03       		.uleb128 0x3
 2094 07b9 CB050000 		.4byte	.LASF122
 2095 07bd 0C       		.byte	0xc
 2096 07be 3D       		.byte	0x3d
 2097 07bf A3070000 		.4byte	0x7a3
 2098 07c3 16       		.uleb128 0x16
 2099 07c4 04       		.byte	0x4
 2100 07c5 08       		.byte	0x8
 2101 07c6 FA       		.byte	0xfa
 2102 07c7 20080000 		.4byte	0x820
 2103 07cb 17       		.uleb128 0x17
ARM GAS  /tmp/ccLyIQGT.s 			page 38


 2104 07cc 52000000 		.4byte	.LASF123
 2105 07d0 08       		.byte	0x8
 2106 07d1 0101     		.2byte	0x101
 2107 07d3 2D010000 		.4byte	0x12d
 2108 07d7 17       		.uleb128 0x17
 2109 07d8 D2000000 		.4byte	.LASF124
 2110 07dc 08       		.byte	0x8
 2111 07dd 0801     		.2byte	0x108
 2112 07df 2D010000 		.4byte	0x12d
 2113 07e3 17       		.uleb128 0x17
 2114 07e4 24090000 		.4byte	.LASF125
 2115 07e8 08       		.byte	0x8
 2116 07e9 0F01     		.2byte	0x10f
 2117 07eb 39030000 		.4byte	0x339
 2118 07ef 17       		.uleb128 0x17
 2119 07f0 64050000 		.4byte	.LASF126
 2120 07f4 08       		.byte	0x8
 2121 07f5 1601     		.2byte	0x116
 2122 07f7 20080000 		.4byte	0x820
 2123 07fb 17       		.uleb128 0x17
 2124 07fc D5030000 		.4byte	.LASF127
 2125 0800 08       		.byte	0x8
 2126 0801 1E01     		.2byte	0x11e
 2127 0803 4B080000 		.4byte	0x84b
 2128 0807 17       		.uleb128 0x17
 2129 0808 5A070000 		.4byte	.LASF128
 2130 080c 08       		.byte	0x8
 2131 080d 2701     		.2byte	0x127
 2132 080f 82080000 		.4byte	0x882
 2133 0813 17       		.uleb128 0x17
 2134 0814 CF060000 		.4byte	.LASF129
 2135 0818 08       		.byte	0x8
 2136 0819 2F01     		.2byte	0x12f
 2137 081b 38010000 		.4byte	0x138
 2138 081f 00       		.byte	0
 2139 0820 0A       		.uleb128 0xa
 2140 0821 04       		.byte	0x4
 2141 0822 51020000 		.4byte	0x251
 2142 0826 06       		.uleb128 0x6
 2143 0827 24070000 		.4byte	.LASF130
 2144 082b 0C       		.byte	0xc
 2145 082c 0D       		.byte	0xd
 2146 082d 34       		.byte	0x34
 2147 082e 4B080000 		.4byte	0x84b
 2148 0832 07       		.uleb128 0x7
 2149 0833 CA000000 		.4byte	.LASF131
 2150 0837 0D       		.byte	0xd
 2151 0838 35       		.byte	0x35
 2152 0839 86020000 		.4byte	0x286
 2153 083d 00       		.byte	0
 2154 083e 07       		.uleb128 0x7
 2155 083f 17040000 		.4byte	.LASF132
 2156 0843 0D       		.byte	0xd
 2157 0844 37       		.byte	0x37
 2158 0845 43010000 		.4byte	0x143
 2159 0849 08       		.byte	0x8
 2160 084a 00       		.byte	0
ARM GAS  /tmp/ccLyIQGT.s 			page 39


 2161 084b 0A       		.uleb128 0xa
 2162 084c 04       		.byte	0x4
 2163 084d 26080000 		.4byte	0x826
 2164 0851 06       		.uleb128 0x6
 2165 0852 DD080000 		.4byte	.LASF133
 2166 0856 10       		.byte	0x10
 2167 0857 0E       		.byte	0xe
 2168 0858 39       		.byte	0x39
 2169 0859 82080000 		.4byte	0x882
 2170 085d 07       		.uleb128 0x7
 2171 085e B3010000 		.4byte	.LASF134
 2172 0862 0E       		.byte	0xe
 2173 0863 3A       		.byte	0x3a
 2174 0864 86020000 		.4byte	0x286
 2175 0868 00       		.byte	0
 2176 0869 07       		.uleb128 0x7
 2177 086a BE090000 		.4byte	.LASF135
 2178 086e 0E       		.byte	0xe
 2179 086f 3C       		.byte	0x3c
 2180 0870 5C020000 		.4byte	0x25c
 2181 0874 08       		.byte	0x8
 2182 0875 07       		.uleb128 0x7
 2183 0876 01080000 		.4byte	.LASF136
 2184 087a 0E       		.byte	0xe
 2185 087b 3E       		.byte	0x3e
 2186 087c C0080000 		.4byte	0x8c0
 2187 0880 0C       		.byte	0xc
 2188 0881 00       		.byte	0
 2189 0882 0A       		.uleb128 0xa
 2190 0883 04       		.byte	0x4
 2191 0884 51080000 		.4byte	0x851
 2192 0888 0A       		.uleb128 0xa
 2193 0889 04       		.byte	0x4
 2194 088a 95080000 		.4byte	0x895
 2195 088e 04       		.uleb128 0x4
 2196 088f 01       		.byte	0x1
 2197 0890 08       		.byte	0x8
 2198 0891 B5070000 		.4byte	.LASF137
 2199 0895 18       		.uleb128 0x18
 2200 0896 8E080000 		.4byte	0x88e
 2201 089a 0A       		.uleb128 0xa
 2202 089b 04       		.byte	0x4
 2203 089c 3B030000 		.4byte	0x33b
 2204 08a0 05       		.uleb128 0x5
 2205 08a1 88080000 		.4byte	0x888
 2206 08a5 10       		.uleb128 0x10
 2207 08a6 FE060000 		.4byte	0x6fe
 2208 08aa B5080000 		.4byte	0x8b5
 2209 08ae 11       		.uleb128 0x11
 2210 08af 6F040000 		.4byte	0x46f
 2211 08b3 1A       		.byte	0x1a
 2212 08b4 00       		.byte	0
 2213 08b5 03       		.uleb128 0x3
 2214 08b6 7C030000 		.4byte	.LASF138
 2215 08ba 0E       		.byte	0xe
 2216 08bb 34       		.byte	0x34
 2217 08bc 51080000 		.4byte	0x851
ARM GAS  /tmp/ccLyIQGT.s 			page 40


 2218 08c0 0A       		.uleb128 0xa
 2219 08c1 04       		.byte	0x4
 2220 08c2 B5080000 		.4byte	0x8b5
 2221 08c6 15       		.uleb128 0x15
 2222 08c7 0C       		.byte	0xc
 2223 08c8 0F       		.byte	0xf
 2224 08c9 DA       		.byte	0xda
 2225 08ca 0B090000 		.4byte	0x90b
 2226 08ce 07       		.uleb128 0x7
 2227 08cf A8000000 		.4byte	.LASF139
 2228 08d3 0F       		.byte	0xf
 2229 08d4 DB       		.byte	0xdb
 2230 08d5 0B090000 		.4byte	0x90b
 2231 08d9 00       		.byte	0
 2232 08da 07       		.uleb128 0x7
 2233 08db 3C070000 		.4byte	.LASF140
 2234 08df 0F       		.byte	0xf
 2235 08e0 DC       		.byte	0xdc
 2236 08e1 11090000 		.4byte	0x911
 2237 08e5 04       		.byte	0x4
 2238 08e6 07       		.uleb128 0x7
 2239 08e7 10040000 		.4byte	.LASF141
 2240 08eb 0F       		.byte	0xf
 2241 08ec DD       		.byte	0xdd
 2242 08ed B0000000 		.4byte	0xb0
 2243 08f1 08       		.byte	0x8
 2244 08f2 07       		.uleb128 0x7
 2245 08f3 B6080000 		.4byte	.LASF142
 2246 08f7 0F       		.byte	0xf
 2247 08f8 DF       		.byte	0xdf
 2248 08f9 B0000000 		.4byte	0xb0
 2249 08fd 09       		.byte	0x9
 2250 08fe 07       		.uleb128 0x7
 2251 08ff DB000000 		.4byte	.LASF143
 2252 0903 0F       		.byte	0xf
 2253 0904 E0       		.byte	0xe0
 2254 0905 B0000000 		.4byte	0xb0
 2255 0909 0A       		.byte	0xa
 2256 090a 00       		.byte	0
 2257 090b 0A       		.uleb128 0xa
 2258 090c 04       		.byte	0x4
 2259 090d DD040000 		.4byte	0x4dd
 2260 0911 0A       		.uleb128 0xa
 2261 0912 04       		.byte	0x4
 2262 0913 F1000000 		.4byte	0xf1
 2263 0917 03       		.uleb128 0x3
 2264 0918 51060000 		.4byte	.LASF144
 2265 091c 0F       		.byte	0xf
 2266 091d E1       		.byte	0xe1
 2267 091e C6080000 		.4byte	0x8c6
 2268 0922 03       		.uleb128 0x3
 2269 0923 CC010000 		.4byte	.LASF145
 2270 0927 0F       		.byte	0xf
 2271 0928 EA       		.byte	0xea
 2272 0929 2D090000 		.4byte	0x92d
 2273 092d 0A       		.uleb128 0xa
 2274 092e 04       		.byte	0x4
ARM GAS  /tmp/ccLyIQGT.s 			page 41


 2275 092f 33090000 		.4byte	0x933
 2276 0933 0C       		.uleb128 0xc
 2277 0934 43090000 		.4byte	0x943
 2278 0938 0D       		.uleb128 0xd
 2279 0939 39030000 		.4byte	0x339
 2280 093d 0D       		.uleb128 0xd
 2281 093e D1000000 		.4byte	0xd1
 2282 0942 00       		.byte	0
 2283 0943 04       		.uleb128 0x4
 2284 0944 01       		.byte	0x1
 2285 0945 02       		.byte	0x2
 2286 0946 86060000 		.4byte	.LASF146
 2287 094a 0A       		.uleb128 0xa
 2288 094b 04       		.byte	0x4
 2289 094c 50090000 		.4byte	0x950
 2290 0950 18       		.uleb128 0x18
 2291 0951 17090000 		.4byte	0x917
 2292 0955 0A       		.uleb128 0xa
 2293 0956 04       		.byte	0x4
 2294 0957 E7060000 		.4byte	0x6e7
 2295 095b 19       		.uleb128 0x19
 2296 095c 01       		.byte	0x1
 2297 095d 5A000000 		.4byte	0x5a
 2298 0961 10       		.byte	0x10
 2299 0962 3D       		.byte	0x3d
 2300 0963 7A090000 		.4byte	0x97a
 2301 0967 1A       		.uleb128 0x1a
 2302 0968 30040000 		.4byte	.LASF147
 2303 096c 00       		.byte	0
 2304 096d 1A       		.uleb128 0x1a
 2305 096e 3C040000 		.4byte	.LASF148
 2306 0972 01       		.byte	0x1
 2307 0973 1A       		.uleb128 0x1a
 2308 0974 E0040000 		.4byte	.LASF149
 2309 0978 02       		.byte	0x2
 2310 0979 00       		.byte	0
 2311 097a 03       		.uleb128 0x3
 2312 097b D6060000 		.4byte	.LASF150
 2313 097f 10       		.byte	0x10
 2314 0980 41       		.byte	0x41
 2315 0981 5B090000 		.4byte	0x95b
 2316 0985 19       		.uleb128 0x19
 2317 0986 01       		.byte	0x1
 2318 0987 5A000000 		.4byte	0x5a
 2319 098b 10       		.byte	0x10
 2320 098c 46       		.byte	0x46
 2321 098d A4090000 		.4byte	0x9a4
 2322 0991 1A       		.uleb128 0x1a
 2323 0992 71000000 		.4byte	.LASF151
 2324 0996 00       		.byte	0
 2325 0997 1A       		.uleb128 0x1a
 2326 0998 93030000 		.4byte	.LASF152
 2327 099c 01       		.byte	0x1
 2328 099d 1A       		.uleb128 0x1a
 2329 099e 13070000 		.4byte	.LASF153
 2330 09a2 02       		.byte	0x2
 2331 09a3 00       		.byte	0
ARM GAS  /tmp/ccLyIQGT.s 			page 42


 2332 09a4 03       		.uleb128 0x3
 2333 09a5 DC050000 		.4byte	.LASF154
 2334 09a9 10       		.byte	0x10
 2335 09aa 4A       		.byte	0x4a
 2336 09ab 85090000 		.4byte	0x985
 2337 09af 19       		.uleb128 0x19
 2338 09b0 01       		.byte	0x1
 2339 09b1 5A000000 		.4byte	0x5a
 2340 09b5 10       		.byte	0x10
 2341 09b6 4F       		.byte	0x4f
 2342 09b7 CE090000 		.4byte	0x9ce
 2343 09bb 1A       		.uleb128 0x1a
 2344 09bc D7070000 		.4byte	.LASF155
 2345 09c0 00       		.byte	0
 2346 09c1 1A       		.uleb128 0x1a
 2347 09c2 D8090000 		.4byte	.LASF156
 2348 09c6 01       		.byte	0x1
 2349 09c7 1A       		.uleb128 0x1a
 2350 09c8 BB010000 		.4byte	.LASF157
 2351 09cc 02       		.byte	0x2
 2352 09cd 00       		.byte	0
 2353 09ce 03       		.uleb128 0x3
 2354 09cf 18030000 		.4byte	.LASF158
 2355 09d3 10       		.byte	0x10
 2356 09d4 53       		.byte	0x53
 2357 09d5 AF090000 		.4byte	0x9af
 2358 09d9 13       		.uleb128 0x13
 2359 09da B6050000 		.4byte	.LASF159
 2360 09de 11       		.byte	0x11
 2361 09df B101     		.2byte	0x1b1
 2362 09e1 D1000000 		.4byte	0xd1
 2363 09e5 13       		.uleb128 0x13
 2364 09e6 32030000 		.4byte	.LASF160
 2365 09ea 11       		.byte	0x11
 2366 09eb B601     		.2byte	0x1b6
 2367 09ed F1090000 		.4byte	0x9f1
 2368 09f1 0B       		.uleb128 0xb
 2369 09f2 32030000 		.4byte	.LASF160
 2370 09f6 1C       		.byte	0x1c
 2371 09f7 11       		.byte	0x11
 2372 09f8 FE01     		.2byte	0x1fe
 2373 09fa 740A0000 		.4byte	0xa74
 2374 09fe 09       		.uleb128 0x9
 2375 09ff DB010000 		.4byte	.LASF161
 2376 0a03 11       		.byte	0x11
 2377 0a04 0202     		.2byte	0x202
 2378 0a06 7A090000 		.4byte	0x97a
 2379 0a0a 00       		.byte	0
 2380 0a0b 09       		.uleb128 0x9
 2381 0a0c E1010000 		.4byte	.LASF162
 2382 0a10 11       		.byte	0x11
 2383 0a11 0602     		.2byte	0x206
 2384 0a13 A4090000 		.4byte	0x9a4
 2385 0a17 01       		.byte	0x1
 2386 0a18 09       		.uleb128 0x9
 2387 0a19 AB010000 		.4byte	.LASF163
 2388 0a1d 11       		.byte	0x11
ARM GAS  /tmp/ccLyIQGT.s 			page 43


 2389 0a1e 0A02     		.2byte	0x20a
 2390 0a20 CE090000 		.4byte	0x9ce
 2391 0a24 02       		.byte	0x2
 2392 0a25 09       		.uleb128 0x9
 2393 0a26 D0070000 		.4byte	.LASF164
 2394 0a2a 11       		.byte	0x11
 2395 0a2b 0E02     		.2byte	0x20e
 2396 0a2d 660B0000 		.4byte	0xb66
 2397 0a31 04       		.byte	0x4
 2398 0a32 09       		.uleb128 0x9
 2399 0a33 A2030000 		.4byte	.LASF165
 2400 0a37 11       		.byte	0x11
 2401 0a38 1602     		.2byte	0x216
 2402 0a3a 55090000 		.4byte	0x955
 2403 0a3e 08       		.byte	0x8
 2404 0a3f 09       		.uleb128 0x9
 2405 0a40 1C090000 		.4byte	.LASF166
 2406 0a44 11       		.byte	0x11
 2407 0a45 1A02     		.2byte	0x21a
 2408 0a47 D1000000 		.4byte	0xd1
 2409 0a4b 0C       		.byte	0xc
 2410 0a4c 09       		.uleb128 0x9
 2411 0a4d AF000000 		.4byte	.LASF167
 2412 0a51 11       		.byte	0x11
 2413 0a52 1E02     		.2byte	0x21e
 2414 0a54 4A090000 		.4byte	0x94a
 2415 0a58 10       		.byte	0x10
 2416 0a59 09       		.uleb128 0x9
 2417 0a5a 08060000 		.4byte	.LASF168
 2418 0a5e 11       		.byte	0x11
 2419 0a5f 2202     		.2byte	0x222
 2420 0a61 4A090000 		.4byte	0x94a
 2421 0a65 14       		.byte	0x14
 2422 0a66 09       		.uleb128 0x9
 2423 0a67 23010000 		.4byte	.LASF169
 2424 0a6b 11       		.byte	0x11
 2425 0a6c 2602     		.2byte	0x226
 2426 0a6e E7000000 		.4byte	0xe7
 2427 0a72 18       		.byte	0x18
 2428 0a73 00       		.byte	0
 2429 0a74 13       		.uleb128 0x13
 2430 0a75 8C010000 		.4byte	.LASF170
 2431 0a79 11       		.byte	0x11
 2432 0a7a BD01     		.2byte	0x1bd
 2433 0a7c 800A0000 		.4byte	0xa80
 2434 0a80 0A       		.uleb128 0xa
 2435 0a81 04       		.byte	0x4
 2436 0a82 860A0000 		.4byte	0xa86
 2437 0a86 0C       		.uleb128 0xc
 2438 0a87 910A0000 		.4byte	0xa91
 2439 0a8b 0D       		.uleb128 0xd
 2440 0a8c 910A0000 		.4byte	0xa91
 2441 0a90 00       		.byte	0
 2442 0a91 0A       		.uleb128 0xa
 2443 0a92 04       		.byte	0x4
 2444 0a93 E5090000 		.4byte	0x9e5
 2445 0a97 13       		.uleb128 0x13
ARM GAS  /tmp/ccLyIQGT.s 			page 44


 2446 0a98 8A070000 		.4byte	.LASF171
 2447 0a9c 11       		.byte	0x11
 2448 0a9d C501     		.2byte	0x1c5
 2449 0a9f A30A0000 		.4byte	0xaa3
 2450 0aa3 0A       		.uleb128 0xa
 2451 0aa4 04       		.byte	0x4
 2452 0aa5 A90A0000 		.4byte	0xaa9
 2453 0aa9 0C       		.uleb128 0xc
 2454 0aaa B90A0000 		.4byte	0xab9
 2455 0aae 0D       		.uleb128 0xd
 2456 0aaf 910A0000 		.4byte	0xa91
 2457 0ab3 0D       		.uleb128 0xd
 2458 0ab4 BB000000 		.4byte	0xbb
 2459 0ab8 00       		.byte	0
 2460 0ab9 13       		.uleb128 0x13
 2461 0aba FA030000 		.4byte	.LASF172
 2462 0abe 11       		.byte	0x11
 2463 0abf CD01     		.2byte	0x1cd
 2464 0ac1 C50A0000 		.4byte	0xac5
 2465 0ac5 0A       		.uleb128 0xa
 2466 0ac6 04       		.byte	0x4
 2467 0ac7 CB0A0000 		.4byte	0xacb
 2468 0acb 0C       		.uleb128 0xc
 2469 0acc DB0A0000 		.4byte	0xadb
 2470 0ad0 0D       		.uleb128 0xd
 2471 0ad1 910A0000 		.4byte	0xa91
 2472 0ad5 0D       		.uleb128 0xd
 2473 0ad6 D9090000 		.4byte	0x9d9
 2474 0ada 00       		.byte	0
 2475 0adb 12       		.uleb128 0x12
 2476 0adc 20       		.byte	0x20
 2477 0add 11       		.byte	0x11
 2478 0ade D301     		.2byte	0x1d3
 2479 0ae0 5A0B0000 		.4byte	0xb5a
 2480 0ae4 09       		.uleb128 0x9
 2481 0ae5 ED080000 		.4byte	.LASF173
 2482 0ae9 11       		.byte	0x11
 2483 0aea D701     		.2byte	0x1d7
 2484 0aec 740A0000 		.4byte	0xa74
 2485 0af0 00       		.byte	0
 2486 0af1 09       		.uleb128 0x9
 2487 0af2 64060000 		.4byte	.LASF174
 2488 0af6 11       		.byte	0x11
 2489 0af7 DB01     		.2byte	0x1db
 2490 0af9 740A0000 		.4byte	0xa74
 2491 0afd 04       		.byte	0x4
 2492 0afe 09       		.uleb128 0x9
 2493 0aff C2050000 		.4byte	.LASF175
 2494 0b03 11       		.byte	0x11
 2495 0b04 DF01     		.2byte	0x1df
 2496 0b06 740A0000 		.4byte	0xa74
 2497 0b0a 08       		.byte	0x8
 2498 0b0b 09       		.uleb128 0x9
 2499 0b0c 48000000 		.4byte	.LASF176
 2500 0b10 11       		.byte	0x11
 2501 0b11 E301     		.2byte	0x1e3
 2502 0b13 970A0000 		.4byte	0xa97
ARM GAS  /tmp/ccLyIQGT.s 			page 45


 2503 0b17 0C       		.byte	0xc
 2504 0b18 09       		.uleb128 0x9
 2505 0b19 71050000 		.4byte	.LASF177
 2506 0b1d 11       		.byte	0x11
 2507 0b1e E701     		.2byte	0x1e7
 2508 0b20 B90A0000 		.4byte	0xab9
 2509 0b24 10       		.byte	0x10
 2510 0b25 09       		.uleb128 0x9
 2511 0b26 2B090000 		.4byte	.LASF178
 2512 0b2a 11       		.byte	0x11
 2513 0b2b EC01     		.2byte	0x1ec
 2514 0b2d D1000000 		.4byte	0xd1
 2515 0b31 14       		.byte	0x14
 2516 0b32 08       		.uleb128 0x8
 2517 0b33 63723100 		.ascii	"cr1\000"
 2518 0b37 11       		.byte	0x11
 2519 0b38 F001     		.2byte	0x1f0
 2520 0b3a BB000000 		.4byte	0xbb
 2521 0b3e 18       		.byte	0x18
 2522 0b3f 08       		.uleb128 0x8
 2523 0b40 63723200 		.ascii	"cr2\000"
 2524 0b44 11       		.byte	0x11
 2525 0b45 F401     		.2byte	0x1f4
 2526 0b47 BB000000 		.4byte	0xbb
 2527 0b4b 1A       		.byte	0x1a
 2528 0b4c 08       		.uleb128 0x8
 2529 0b4d 63723300 		.ascii	"cr3\000"
 2530 0b51 11       		.byte	0x11
 2531 0b52 F801     		.2byte	0x1f8
 2532 0b54 BB000000 		.4byte	0xbb
 2533 0b58 1C       		.byte	0x1c
 2534 0b59 00       		.byte	0
 2535 0b5a 13       		.uleb128 0x13
 2536 0b5b 0B010000 		.4byte	.LASF179
 2537 0b5f 11       		.byte	0x11
 2538 0b60 F901     		.2byte	0x1f9
 2539 0b62 DB0A0000 		.4byte	0xadb
 2540 0b66 0A       		.uleb128 0xa
 2541 0b67 04       		.byte	0x4
 2542 0b68 6C0B0000 		.4byte	0xb6c
 2543 0b6c 18       		.uleb128 0x18
 2544 0b6d 5A0B0000 		.4byte	0xb5a
 2545 0b71 1B       		.uleb128 0x1b
 2546 0b72 6B030000 		.4byte	.LASF180
 2547 0b76 01       		.byte	0x1
 2548 0b77 9F       		.byte	0x9f
 2549 0b78 01       		.byte	0x1
 2550 0b79 940B0000 		.4byte	0xb94
 2551 0b7d 1C       		.uleb128 0x1c
 2552 0b7e 17050000 		.4byte	.LASF182
 2553 0b82 01       		.byte	0x1
 2554 0b83 9F       		.byte	0x9f
 2555 0b84 910A0000 		.4byte	0xa91
 2556 0b88 1D       		.uleb128 0x1d
 2557 0b89 CB070000 		.4byte	.LASF187
 2558 0b8d 01       		.byte	0x1
 2559 0b8e A0       		.byte	0xa0
ARM GAS  /tmp/ccLyIQGT.s 			page 46


 2560 0b8f D1000000 		.4byte	0xd1
 2561 0b93 00       		.byte	0
 2562 0b94 1E       		.uleb128 0x1e
 2563 0b95 EB040000 		.4byte	.LASF181
 2564 0b99 02       		.byte	0x2
 2565 0b9a 9E01     		.2byte	0x19e
 2566 0b9c 03       		.byte	0x3
 2567 0b9d AE0B0000 		.4byte	0xbae
 2568 0ba1 1F       		.uleb128 0x1f
 2569 0ba2 0C070000 		.4byte	.LASF183
 2570 0ba6 02       		.byte	0x2
 2571 0ba7 9E01     		.2byte	0x19e
 2572 0ba9 88080000 		.4byte	0x888
 2573 0bad 00       		.byte	0
 2574 0bae 1B       		.uleb128 0x1b
 2575 0baf 8F080000 		.4byte	.LASF184
 2576 0bb3 01       		.byte	0x1
 2577 0bb4 F1       		.byte	0xf1
 2578 0bb5 01       		.byte	0x1
 2579 0bb6 D10B0000 		.4byte	0xbd1
 2580 0bba 1C       		.uleb128 0x1c
 2581 0bbb 17050000 		.4byte	.LASF182
 2582 0bbf 01       		.byte	0x1
 2583 0bc0 F1       		.byte	0xf1
 2584 0bc1 910A0000 		.4byte	0xa91
 2585 0bc5 1C       		.uleb128 0x1c
 2586 0bc6 16090000 		.4byte	.LASF185
 2587 0bca 01       		.byte	0x1
 2588 0bcb F1       		.byte	0xf1
 2589 0bcc D1000000 		.4byte	0xd1
 2590 0bd0 00       		.byte	0
 2591 0bd1 1E       		.uleb128 0x1e
 2592 0bd2 F7040000 		.4byte	.LASF186
 2593 0bd6 01       		.byte	0x1
 2594 0bd7 3601     		.2byte	0x136
 2595 0bd9 01       		.byte	0x1
 2596 0bda 0C0C0000 		.4byte	0xc0c
 2597 0bde 1F       		.uleb128 0x1f
 2598 0bdf 17050000 		.4byte	.LASF182
 2599 0be3 01       		.byte	0x1
 2600 0be4 3601     		.2byte	0x136
 2601 0be6 910A0000 		.4byte	0xa91
 2602 0bea 20       		.uleb128 0x20
 2603 0beb 737200   		.ascii	"sr\000"
 2604 0bee 01       		.byte	0x1
 2605 0bef 3701     		.2byte	0x137
 2606 0bf1 BB000000 		.4byte	0xbb
 2607 0bf5 20       		.uleb128 0x20
 2608 0bf6 7500     		.ascii	"u\000"
 2609 0bf8 01       		.byte	0x1
 2610 0bf9 3801     		.2byte	0x138
 2611 0bfb 55090000 		.4byte	0x955
 2612 0bff 20       		.uleb128 0x20
 2613 0c00 63723100 		.ascii	"cr1\000"
 2614 0c04 01       		.byte	0x1
 2615 0c05 3901     		.2byte	0x139
 2616 0c07 D1000000 		.4byte	0xd1
ARM GAS  /tmp/ccLyIQGT.s 			page 47


 2617 0c0b 00       		.byte	0
 2618 0c0c 21       		.uleb128 0x21
 2619 0c0d B5000000 		.4byte	.LASF188
 2620 0c11 01       		.byte	0x1
 2621 0c12 B4       		.byte	0xb4
 2622 0c13 00000000 		.4byte	.LFB260
 2623 0c17 48000000 		.4byte	.LFE260-.LFB260
 2624 0c1b 01       		.uleb128 0x1
 2625 0c1c 9C       		.byte	0x9c
 2626 0c1d 310C0000 		.4byte	0xc31
 2627 0c21 22       		.uleb128 0x22
 2628 0c22 17050000 		.4byte	.LASF182
 2629 0c26 01       		.byte	0x1
 2630 0c27 B4       		.byte	0xb4
 2631 0c28 910A0000 		.4byte	0xa91
 2632 0c2c 00000000 		.4byte	.LLST0
 2633 0c30 00       		.byte	0
 2634 0c31 23       		.uleb128 0x23
 2635 0c32 8E050000 		.4byte	.LASF189
 2636 0c36 01       		.byte	0x1
 2637 0c37 1901     		.2byte	0x119
 2638 0c39 00000000 		.4byte	.LFB263
 2639 0c3d 50000000 		.4byte	.LFE263-.LFB263
 2640 0c41 01       		.uleb128 0x1
 2641 0c42 9C       		.byte	0x9c
 2642 0c43 A80C0000 		.4byte	0xca8
 2643 0c47 24       		.uleb128 0x24
 2644 0c48 17050000 		.4byte	.LASF182
 2645 0c4c 01       		.byte	0x1
 2646 0c4d 1901     		.2byte	0x119
 2647 0c4f 910A0000 		.4byte	0xa91
 2648 0c53 21000000 		.4byte	.LLST1
 2649 0c57 24       		.uleb128 0x24
 2650 0c58 16090000 		.4byte	.LASF185
 2651 0c5c 01       		.byte	0x1
 2652 0c5d 1901     		.2byte	0x119
 2653 0c5f D1000000 		.4byte	0xd1
 2654 0c63 55000000 		.4byte	.LLST2
 2655 0c67 25       		.uleb128 0x25
 2656 0c68 940B0000 		.4byte	0xb94
 2657 0c6c 42000000 		.4byte	.LBB16
 2658 0c70 0E000000 		.4byte	.LBE16-.LBB16
 2659 0c74 01       		.byte	0x1
 2660 0c75 1E01     		.2byte	0x11e
 2661 0c77 9B0C0000 		.4byte	0xc9b
 2662 0c7b 26       		.uleb128 0x26
 2663 0c7c A10B0000 		.4byte	0xba1
 2664 0c80 06       		.uleb128 0x6
 2665 0c81 03       		.byte	0x3
 2666 0c82 00000000 		.4byte	.LC0
 2667 0c86 9F       		.byte	0x9f
 2668 0c87 27       		.uleb128 0x27
 2669 0c88 48000000 		.4byte	.LVL8
 2670 0c8c 66110000 		.4byte	0x1166
 2671 0c90 28       		.uleb128 0x28
 2672 0c91 01       		.uleb128 0x1
 2673 0c92 50       		.byte	0x50
ARM GAS  /tmp/ccLyIQGT.s 			page 48


 2674 0c93 05       		.uleb128 0x5
 2675 0c94 03       		.byte	0x3
 2676 0c95 00000000 		.4byte	.LC0
 2677 0c99 00       		.byte	0
 2678 0c9a 00       		.byte	0
 2679 0c9b 29       		.uleb128 0x29
 2680 0c9c 34000000 		.4byte	.LVL4
 2681 0ca0 28       		.uleb128 0x28
 2682 0ca1 01       		.uleb128 0x1
 2683 0ca2 50       		.byte	0x50
 2684 0ca3 02       		.uleb128 0x2
 2685 0ca4 74       		.byte	0x74
 2686 0ca5 00       		.sleb128 0
 2687 0ca6 00       		.byte	0
 2688 0ca7 00       		.byte	0
 2689 0ca8 2A       		.uleb128 0x2a
 2690 0ca9 AE0B0000 		.4byte	0xbae
 2691 0cad 00000000 		.4byte	.LFB262
 2692 0cb1 90000000 		.4byte	.LFE262-.LFB262
 2693 0cb5 01       		.uleb128 0x1
 2694 0cb6 9C       		.byte	0x9c
 2695 0cb7 630D0000 		.4byte	0xd63
 2696 0cbb 2B       		.uleb128 0x2b
 2697 0cbc BA0B0000 		.4byte	0xbba
 2698 0cc0 8F000000 		.4byte	.LLST3
 2699 0cc4 2B       		.uleb128 0x2b
 2700 0cc5 C50B0000 		.4byte	0xbc5
 2701 0cc9 E7000000 		.4byte	.LLST4
 2702 0ccd 2C       		.uleb128 0x2c
 2703 0cce 22000000 		.4byte	.LBB26
 2704 0cd2 60000000 		.4byte	.LBE26-.LBB26
 2705 0cd6 220D0000 		.4byte	0xd22
 2706 0cda 2B       		.uleb128 0x2b
 2707 0cdb C50B0000 		.4byte	0xbc5
 2708 0cdf 21010000 		.4byte	.LLST5
 2709 0ce3 2B       		.uleb128 0x2b
 2710 0ce4 BA0B0000 		.4byte	0xbba
 2711 0ce8 37010000 		.4byte	.LLST6
 2712 0cec 2D       		.uleb128 0x2d
 2713 0ced 710B0000 		.4byte	0xb71
 2714 0cf1 58000000 		.4byte	.LBB28
 2715 0cf5 00000000 		.4byte	.Ldebug_ranges0+0
 2716 0cf9 01       		.byte	0x1
 2717 0cfa 0E01     		.2byte	0x10e
 2718 0cfc 150D0000 		.4byte	0xd15
 2719 0d00 2B       		.uleb128 0x2b
 2720 0d01 7D0B0000 		.4byte	0xb7d
 2721 0d05 4A010000 		.4byte	.LLST7
 2722 0d09 2E       		.uleb128 0x2e
 2723 0d0a 00000000 		.4byte	.Ldebug_ranges0+0
 2724 0d0e 2F       		.uleb128 0x2f
 2725 0d0f 880B0000 		.4byte	0xb88
 2726 0d13 00       		.byte	0
 2727 0d14 00       		.byte	0
 2728 0d15 29       		.uleb128 0x29
 2729 0d16 4C000000 		.4byte	.LVL13
 2730 0d1a 28       		.uleb128 0x28
ARM GAS  /tmp/ccLyIQGT.s 			page 49


 2731 0d1b 01       		.uleb128 0x1
 2732 0d1c 50       		.byte	0x50
 2733 0d1d 02       		.uleb128 0x2
 2734 0d1e 74       		.byte	0x74
 2735 0d1f 00       		.sleb128 0
 2736 0d20 00       		.byte	0
 2737 0d21 00       		.byte	0
 2738 0d22 30       		.uleb128 0x30
 2739 0d23 940B0000 		.4byte	0xb94
 2740 0d27 82000000 		.4byte	.LBB34
 2741 0d2b 0E000000 		.4byte	.LBE34-.LBB34
 2742 0d2f 01       		.byte	0x1
 2743 0d30 F6       		.byte	0xf6
 2744 0d31 550D0000 		.4byte	0xd55
 2745 0d35 26       		.uleb128 0x26
 2746 0d36 A10B0000 		.4byte	0xba1
 2747 0d3a 06       		.uleb128 0x6
 2748 0d3b 03       		.byte	0x3
 2749 0d3c 00000000 		.4byte	.LC0
 2750 0d40 9F       		.byte	0x9f
 2751 0d41 27       		.uleb128 0x27
 2752 0d42 88000000 		.4byte	.LVL18
 2753 0d46 66110000 		.4byte	0x1166
 2754 0d4a 28       		.uleb128 0x28
 2755 0d4b 01       		.uleb128 0x1
 2756 0d4c 50       		.byte	0x50
 2757 0d4d 05       		.uleb128 0x5
 2758 0d4e 03       		.byte	0x3
 2759 0d4f 00000000 		.4byte	.LC0
 2760 0d53 00       		.byte	0
 2761 0d54 00       		.byte	0
 2762 0d55 31       		.uleb128 0x31
 2763 0d56 22000000 		.4byte	.LVL12
 2764 0d5a 28       		.uleb128 0x28
 2765 0d5b 01       		.uleb128 0x1
 2766 0d5c 50       		.byte	0x50
 2767 0d5d 03       		.uleb128 0x3
 2768 0d5e F3       		.byte	0xf3
 2769 0d5f 01       		.uleb128 0x1
 2770 0d60 50       		.byte	0x50
 2771 0d61 00       		.byte	0
 2772 0d62 00       		.byte	0
 2773 0d63 32       		.uleb128 0x32
 2774 0d64 31080000 		.4byte	.LASF212
 2775 0d68 01       		.byte	0x1
 2776 0d69 8A       		.byte	0x8a
 2777 0d6a D9090000 		.4byte	0x9d9
 2778 0d6e 01       		.byte	0x1
 2779 0d6f 890D0000 		.4byte	0xd89
 2780 0d73 33       		.uleb128 0x33
 2781 0d74 737200   		.ascii	"sr\000"
 2782 0d77 01       		.byte	0x1
 2783 0d78 8A       		.byte	0x8a
 2784 0d79 BB000000 		.4byte	0xbb
 2785 0d7d 34       		.uleb128 0x34
 2786 0d7e 73747300 		.ascii	"sts\000"
 2787 0d82 01       		.byte	0x1
ARM GAS  /tmp/ccLyIQGT.s 			page 50


 2788 0d83 8B       		.byte	0x8b
 2789 0d84 D9090000 		.4byte	0x9d9
 2790 0d88 00       		.byte	0
 2791 0d89 35       		.uleb128 0x35
 2792 0d8a CC040000 		.4byte	.LASF190
 2793 0d8e 01       		.byte	0x1
 2794 0d8f 7001     		.2byte	0x170
 2795 0d91 00000000 		.4byte	.LFB265
 2796 0d95 7C000000 		.4byte	.LFE265-.LFB265
 2797 0d99 01       		.uleb128 0x1
 2798 0d9a 9C       		.byte	0x9c
 2799 0d9b 390E0000 		.4byte	0xe39
 2800 0d9f 25       		.uleb128 0x25
 2801 0da0 D10B0000 		.4byte	0xbd1
 2802 0da4 02000000 		.4byte	.LBB40
 2803 0da8 6C000000 		.4byte	.LBE40-.LBB40
 2804 0dac 01       		.byte	0x1
 2805 0dad 7401     		.2byte	0x174
 2806 0daf 2F0E0000 		.4byte	0xe2f
 2807 0db3 2B       		.uleb128 0x2b
 2808 0db4 DE0B0000 		.4byte	0xbde
 2809 0db8 5D010000 		.4byte	.LLST8
 2810 0dbc 36       		.uleb128 0x36
 2811 0dbd 02000000 		.4byte	.LBB41
 2812 0dc1 6C000000 		.4byte	.LBE41-.LBB41
 2813 0dc5 37       		.uleb128 0x37
 2814 0dc6 EA0B0000 		.4byte	0xbea
 2815 0dca 75010000 		.4byte	.LLST9
 2816 0dce 37       		.uleb128 0x37
 2817 0dcf F50B0000 		.4byte	0xbf5
 2818 0dd3 88010000 		.4byte	.LLST10
 2819 0dd7 37       		.uleb128 0x37
 2820 0dd8 FF0B0000 		.4byte	0xbff
 2821 0ddc 9B010000 		.4byte	.LLST11
 2822 0de0 25       		.uleb128 0x25
 2823 0de1 630D0000 		.4byte	0xd63
 2824 0de5 22000000 		.4byte	.LBB42
 2825 0de9 2A000000 		.4byte	.LBE42-.LBB42
 2826 0ded 01       		.byte	0x1
 2827 0dee 4201     		.2byte	0x142
 2828 0df0 110E0000 		.4byte	0xe11
 2829 0df4 2B       		.uleb128 0x2b
 2830 0df5 730D0000 		.4byte	0xd73
 2831 0df9 AE010000 		.4byte	.LLST12
 2832 0dfd 36       		.uleb128 0x36
 2833 0dfe 22000000 		.4byte	.LBB43
 2834 0e02 2A000000 		.4byte	.LBE43-.LBB43
 2835 0e06 37       		.uleb128 0x37
 2836 0e07 7D0D0000 		.4byte	0xd7d
 2837 0e0b C1010000 		.4byte	.LLST13
 2838 0e0f 00       		.byte	0
 2839 0e10 00       		.byte	0
 2840 0e11 38       		.uleb128 0x38
 2841 0e12 50000000 		.4byte	.LVL29
 2842 0e16 210E0000 		.4byte	0xe21
 2843 0e1a 28       		.uleb128 0x28
 2844 0e1b 01       		.uleb128 0x1
ARM GAS  /tmp/ccLyIQGT.s 			page 51


 2845 0e1c 50       		.byte	0x50
 2846 0e1d 02       		.uleb128 0x2
 2847 0e1e 76       		.byte	0x76
 2848 0e1f 00       		.sleb128 0
 2849 0e20 00       		.byte	0
 2850 0e21 29       		.uleb128 0x29
 2851 0e22 6E000000 		.4byte	.LVL31
 2852 0e26 28       		.uleb128 0x28
 2853 0e27 01       		.uleb128 0x1
 2854 0e28 50       		.byte	0x50
 2855 0e29 02       		.uleb128 0x2
 2856 0e2a 76       		.byte	0x76
 2857 0e2b 00       		.sleb128 0
 2858 0e2c 00       		.byte	0
 2859 0e2d 00       		.byte	0
 2860 0e2e 00       		.byte	0
 2861 0e2f 39       		.uleb128 0x39
 2862 0e30 76000000 		.4byte	.LVL32
 2863 0e34 72110000 		.4byte	0x1172
 2864 0e38 00       		.byte	0
 2865 0e39 35       		.uleb128 0x35
 2866 0e3a 33000000 		.4byte	.LASF191
 2867 0e3e 01       		.byte	0x1
 2868 0e3f CF01     		.2byte	0x1cf
 2869 0e41 00000000 		.4byte	.LFB266
 2870 0e45 2C000000 		.4byte	.LFE266-.LFB266
 2871 0e49 01       		.uleb128 0x1
 2872 0e4a 9C       		.byte	0x9c
 2873 0e4b 600E0000 		.4byte	0xe60
 2874 0e4f 27       		.uleb128 0x27
 2875 0e50 0A000000 		.4byte	.LVL33
 2876 0e54 7E110000 		.4byte	0x117e
 2877 0e58 28       		.uleb128 0x28
 2878 0e59 01       		.uleb128 0x1
 2879 0e5a 50       		.byte	0x50
 2880 0e5b 02       		.uleb128 0x2
 2881 0e5c 74       		.byte	0x74
 2882 0e5d 00       		.sleb128 0
 2883 0e5e 00       		.byte	0
 2884 0e5f 00       		.byte	0
 2885 0e60 1B       		.uleb128 0x1b
 2886 0e61 0A090000 		.4byte	.LASF192
 2887 0e65 01       		.byte	0x1
 2888 0e66 C6       		.byte	0xc6
 2889 0e67 01       		.byte	0x1
 2890 0e68 8C0E0000 		.4byte	0xe8c
 2891 0e6c 1C       		.uleb128 0x1c
 2892 0e6d 17050000 		.4byte	.LASF182
 2893 0e71 01       		.byte	0x1
 2894 0e72 C6       		.byte	0xc6
 2895 0e73 910A0000 		.4byte	0xa91
 2896 0e77 34       		.uleb128 0x34
 2897 0e78 63723100 		.ascii	"cr1\000"
 2898 0e7c 01       		.byte	0x1
 2899 0e7d C7       		.byte	0xc7
 2900 0e7e BB000000 		.4byte	0xbb
 2901 0e82 34       		.uleb128 0x34
ARM GAS  /tmp/ccLyIQGT.s 			page 52


 2902 0e83 7500     		.ascii	"u\000"
 2903 0e85 01       		.byte	0x1
 2904 0e86 C8       		.byte	0xc8
 2905 0e87 55090000 		.4byte	0x955
 2906 0e8b 00       		.byte	0
 2907 0e8c 35       		.uleb128 0x35
 2908 0e8d A6070000 		.4byte	.LASF193
 2909 0e91 01       		.byte	0x1
 2910 0e92 0802     		.2byte	0x208
 2911 0e94 00000000 		.4byte	.LFB267
 2912 0e98 1C010000 		.4byte	.LFE267-.LFB267
 2913 0e9c 01       		.uleb128 0x1
 2914 0e9d 9C       		.byte	0x9c
 2915 0e9e 970F0000 		.4byte	0xf97
 2916 0ea2 24       		.uleb128 0x24
 2917 0ea3 17050000 		.4byte	.LASF182
 2918 0ea7 01       		.byte	0x1
 2919 0ea8 0802     		.2byte	0x208
 2920 0eaa 910A0000 		.4byte	0xa91
 2921 0eae E0010000 		.4byte	.LLST14
 2922 0eb2 3A       		.uleb128 0x3a
 2923 0eb3 EA060000 		.4byte	.LASF213
 2924 0eb7 A70F0000 		.4byte	0xfa7
 2925 0ebb 2D       		.uleb128 0x2d
 2926 0ebc 600E0000 		.4byte	0xe60
 2927 0ec0 12000000 		.4byte	.LBB49
 2928 0ec4 20000000 		.4byte	.Ldebug_ranges0+0x20
 2929 0ec8 01       		.byte	0x1
 2930 0ec9 9A02     		.2byte	0x29a
 2931 0ecb 290F0000 		.4byte	0xf29
 2932 0ecf 2B       		.uleb128 0x2b
 2933 0ed0 6C0E0000 		.4byte	0xe6c
 2934 0ed4 37020000 		.4byte	.LLST15
 2935 0ed8 2E       		.uleb128 0x2e
 2936 0ed9 20000000 		.4byte	.Ldebug_ranges0+0x20
 2937 0edd 37       		.uleb128 0x37
 2938 0ede 770E0000 		.4byte	0xe77
 2939 0ee2 62020000 		.4byte	.LLST16
 2940 0ee6 37       		.uleb128 0x37
 2941 0ee7 820E0000 		.4byte	0xe82
 2942 0eeb 78020000 		.4byte	.LLST17
 2943 0eef 3B       		.uleb128 0x3b
 2944 0ef0 710B0000 		.4byte	0xb71
 2945 0ef4 34000000 		.4byte	.LBB51
 2946 0ef8 38000000 		.4byte	.Ldebug_ranges0+0x38
 2947 0efc 01       		.byte	0x1
 2948 0efd E8       		.byte	0xe8
 2949 0efe 170F0000 		.4byte	0xf17
 2950 0f02 2B       		.uleb128 0x2b
 2951 0f03 7D0B0000 		.4byte	0xb7d
 2952 0f07 8C020000 		.4byte	.LLST18
 2953 0f0b 2E       		.uleb128 0x2e
 2954 0f0c 38000000 		.4byte	.Ldebug_ranges0+0x38
 2955 0f10 2F       		.uleb128 0x2f
 2956 0f11 880B0000 		.4byte	0xb88
 2957 0f15 00       		.byte	0
 2958 0f16 00       		.byte	0
ARM GAS  /tmp/ccLyIQGT.s 			page 53


 2959 0f17 27       		.uleb128 0x27
 2960 0f18 18000000 		.4byte	.LVL37
 2961 0f1c 0C0C0000 		.4byte	0xc0c
 2962 0f20 28       		.uleb128 0x28
 2963 0f21 01       		.uleb128 0x1
 2964 0f22 50       		.byte	0x50
 2965 0f23 02       		.uleb128 0x2
 2966 0f24 74       		.byte	0x74
 2967 0f25 00       		.sleb128 0
 2968 0f26 00       		.byte	0
 2969 0f27 00       		.byte	0
 2970 0f28 00       		.byte	0
 2971 0f29 36       		.uleb128 0x36
 2972 0f2a CA000000 		.4byte	.LBB69
 2973 0f2e 52000000 		.4byte	.LBE69-.LBB69
 2974 0f32 20       		.uleb128 0x20
 2975 0f33 6200     		.ascii	"b\000"
 2976 0f35 01       		.byte	0x1
 2977 0f36 2102     		.2byte	0x221
 2978 0f38 43090000 		.4byte	0x943
 2979 0f3c 3C       		.uleb128 0x3c
 2980 0f3d D6000000 		.4byte	.LVL48
 2981 0f41 89110000 		.4byte	0x1189
 2982 0f45 5E0F0000 		.4byte	0xf5e
 2983 0f49 28       		.uleb128 0x28
 2984 0f4a 01       		.uleb128 0x1
 2985 0f4b 51       		.byte	0x51
 2986 0f4c 01       		.uleb128 0x1
 2987 0f4d 3C       		.byte	0x3c
 2988 0f4e 28       		.uleb128 0x28
 2989 0f4f 01       		.uleb128 0x1
 2990 0f50 52       		.byte	0x52
 2991 0f51 05       		.uleb128 0x5
 2992 0f52 03       		.byte	0x3
 2993 0f53 00000000 		.4byte	uart_lld_serve_rx_end_irq
 2994 0f57 28       		.uleb128 0x28
 2995 0f58 01       		.uleb128 0x1
 2996 0f59 53       		.byte	0x53
 2997 0f5a 02       		.uleb128 0x2
 2998 0f5b 74       		.byte	0x74
 2999 0f5c 00       		.sleb128 0
 3000 0f5d 00       		.byte	0
 3001 0f5e 3C       		.uleb128 0x3c
 3002 0f5f E2000000 		.4byte	.LVL49
 3003 0f63 89110000 		.4byte	0x1189
 3004 0f67 800F0000 		.4byte	0xf80
 3005 0f6b 28       		.uleb128 0x28
 3006 0f6c 01       		.uleb128 0x1
 3007 0f6d 51       		.byte	0x51
 3008 0f6e 01       		.uleb128 0x1
 3009 0f6f 3C       		.byte	0x3c
 3010 0f70 28       		.uleb128 0x28
 3011 0f71 01       		.uleb128 0x1
 3012 0f72 52       		.byte	0x52
 3013 0f73 05       		.uleb128 0x5
 3014 0f74 03       		.byte	0x3
 3015 0f75 00000000 		.4byte	uart_lld_serve_tx_end_irq
ARM GAS  /tmp/ccLyIQGT.s 			page 54


 3016 0f79 28       		.uleb128 0x28
 3017 0f7a 01       		.uleb128 0x1
 3018 0f7b 53       		.byte	0x53
 3019 0f7c 02       		.uleb128 0x2
 3020 0f7d 74       		.byte	0x74
 3021 0f7e 00       		.sleb128 0
 3022 0f7f 00       		.byte	0
 3023 0f80 27       		.uleb128 0x27
 3024 0f81 F4000000 		.4byte	.LVL50
 3025 0f85 95110000 		.4byte	0x1195
 3026 0f89 28       		.uleb128 0x28
 3027 0f8a 01       		.uleb128 0x1
 3028 0f8b 50       		.byte	0x50
 3029 0f8c 02       		.uleb128 0x2
 3030 0f8d 08       		.byte	0x8
 3031 0f8e 26       		.byte	0x26
 3032 0f8f 28       		.uleb128 0x28
 3033 0f90 01       		.uleb128 0x1
 3034 0f91 51       		.byte	0x51
 3035 0f92 01       		.uleb128 0x1
 3036 0f93 3C       		.byte	0x3c
 3037 0f94 00       		.byte	0
 3038 0f95 00       		.byte	0
 3039 0f96 00       		.byte	0
 3040 0f97 10       		.uleb128 0x10
 3041 0f98 95080000 		.4byte	0x895
 3042 0f9c A70F0000 		.4byte	0xfa7
 3043 0fa0 11       		.uleb128 0x11
 3044 0fa1 6F040000 		.4byte	0x46f
 3045 0fa5 0E       		.byte	0xe
 3046 0fa6 00       		.byte	0
 3047 0fa7 18       		.uleb128 0x18
 3048 0fa8 970F0000 		.4byte	0xf97
 3049 0fac 35       		.uleb128 0x35
 3050 0fad 5D030000 		.4byte	.LASF194
 3051 0fb1 01       		.byte	0x1
 3052 0fb2 A402     		.2byte	0x2a4
 3053 0fb4 00000000 		.4byte	.LFB268
 3054 0fb8 40000000 		.4byte	.LFE268-.LFB268
 3055 0fbc 01       		.uleb128 0x1
 3056 0fbd 9C       		.byte	0x9c
 3057 0fbe 09100000 		.4byte	0x1009
 3058 0fc2 24       		.uleb128 0x24
 3059 0fc3 17050000 		.4byte	.LASF182
 3060 0fc7 01       		.byte	0x1
 3061 0fc8 A402     		.2byte	0x2a4
 3062 0fca 910A0000 		.4byte	0xa91
 3063 0fce A1020000 		.4byte	.LLST19
 3064 0fd2 3C       		.uleb128 0x3c
 3065 0fd3 10000000 		.4byte	.LVL52
 3066 0fd7 0C0C0000 		.4byte	0xc0c
 3067 0fdb E60F0000 		.4byte	0xfe6
 3068 0fdf 28       		.uleb128 0x28
 3069 0fe0 01       		.uleb128 0x1
 3070 0fe1 50       		.byte	0x50
 3071 0fe2 02       		.uleb128 0x2
 3072 0fe3 74       		.byte	0x74
ARM GAS  /tmp/ccLyIQGT.s 			page 55


 3073 0fe4 00       		.sleb128 0
 3074 0fe5 00       		.byte	0
 3075 0fe6 3D       		.uleb128 0x3d
 3076 0fe7 16000000 		.4byte	.LVL53
 3077 0feb A0110000 		.4byte	0x11a0
 3078 0fef 3D       		.uleb128 0x3d
 3079 0ff0 1C000000 		.4byte	.LVL54
 3080 0ff4 A0110000 		.4byte	0x11a0
 3081 0ff8 27       		.uleb128 0x27
 3082 0ff9 2A000000 		.4byte	.LVL56
 3083 0ffd AC110000 		.4byte	0x11ac
 3084 1001 28       		.uleb128 0x28
 3085 1002 01       		.uleb128 0x1
 3086 1003 50       		.byte	0x50
 3087 1004 02       		.uleb128 0x2
 3088 1005 08       		.byte	0x8
 3089 1006 26       		.byte	0x26
 3090 1007 00       		.byte	0
 3091 1008 00       		.byte	0
 3092 1009 35       		.uleb128 0x35
 3093 100a 46090000 		.4byte	.LASF195
 3094 100e 01       		.byte	0x1
 3095 100f E802     		.2byte	0x2e8
 3096 1011 00000000 		.4byte	.LFB269
 3097 1015 34000000 		.4byte	.LFE269-.LFB269
 3098 1019 01       		.uleb128 0x1
 3099 101a 9C       		.byte	0x9c
 3100 101b 4C100000 		.4byte	0x104c
 3101 101f 3E       		.uleb128 0x3e
 3102 1020 17050000 		.4byte	.LASF182
 3103 1024 01       		.byte	0x1
 3104 1025 E802     		.2byte	0x2e8
 3105 1027 910A0000 		.4byte	0xa91
 3106 102b 01       		.uleb128 0x1
 3107 102c 50       		.byte	0x50
 3108 102d 3F       		.uleb128 0x3f
 3109 102e 6E00     		.ascii	"n\000"
 3110 1030 01       		.byte	0x1
 3111 1031 E802     		.2byte	0x2e8
 3112 1033 28000000 		.4byte	0x28
 3113 1037 BF020000 		.4byte	.LLST20
 3114 103b 24       		.uleb128 0x24
 3115 103c BD030000 		.4byte	.LASF196
 3116 1040 01       		.byte	0x1
 3117 1041 E802     		.2byte	0x2e8
 3118 1043 4C100000 		.4byte	0x104c
 3119 1047 E0020000 		.4byte	.LLST21
 3120 104b 00       		.byte	0
 3121 104c 0A       		.uleb128 0xa
 3122 104d 04       		.byte	0x4
 3123 104e 52100000 		.4byte	0x1052
 3124 1052 40       		.uleb128 0x40
 3125 1053 41       		.uleb128 0x41
 3126 1054 DC030000 		.4byte	.LASF198
 3127 1058 01       		.byte	0x1
 3128 1059 0603     		.2byte	0x306
 3129 105b 28000000 		.4byte	0x28
ARM GAS  /tmp/ccLyIQGT.s 			page 56


 3130 105f 00000000 		.4byte	.LFB270
 3131 1063 20000000 		.4byte	.LFE270-.LFB270
 3132 1067 01       		.uleb128 0x1
 3133 1068 9C       		.byte	0x9c
 3134 1069 7E100000 		.4byte	0x107e
 3135 106d 24       		.uleb128 0x24
 3136 106e 17050000 		.4byte	.LASF182
 3137 1072 01       		.byte	0x1
 3138 1073 0603     		.2byte	0x306
 3139 1075 910A0000 		.4byte	0xa91
 3140 1079 01030000 		.4byte	.LLST22
 3141 107d 00       		.byte	0
 3142 107e 35       		.uleb128 0x35
 3143 107f 00000000 		.4byte	.LASF197
 3144 1083 01       		.byte	0x1
 3145 1084 1803     		.2byte	0x318
 3146 1086 00000000 		.4byte	.LFB271
 3147 108a 36000000 		.4byte	.LFE271-.LFB271
 3148 108e 01       		.uleb128 0x1
 3149 108f 9C       		.byte	0x9c
 3150 1090 BD100000 		.4byte	0x10bd
 3151 1094 3E       		.uleb128 0x3e
 3152 1095 17050000 		.4byte	.LASF182
 3153 1099 01       		.byte	0x1
 3154 109a 1803     		.2byte	0x318
 3155 109c 910A0000 		.4byte	0xa91
 3156 10a0 01       		.uleb128 0x1
 3157 10a1 50       		.byte	0x50
 3158 10a2 42       		.uleb128 0x42
 3159 10a3 6E00     		.ascii	"n\000"
 3160 10a5 01       		.byte	0x1
 3161 10a6 1803     		.2byte	0x318
 3162 10a8 28000000 		.4byte	0x28
 3163 10ac 01       		.uleb128 0x1
 3164 10ad 51       		.byte	0x51
 3165 10ae 3E       		.uleb128 0x3e
 3166 10af 23010000 		.4byte	.LASF169
 3167 10b3 01       		.byte	0x1
 3168 10b4 1803     		.2byte	0x318
 3169 10b6 39030000 		.4byte	0x339
 3170 10ba 01       		.uleb128 0x1
 3171 10bb 52       		.byte	0x52
 3172 10bc 00       		.byte	0
 3173 10bd 41       		.uleb128 0x41
 3174 10be 5C010000 		.4byte	.LASF199
 3175 10c2 01       		.byte	0x1
 3176 10c3 3203     		.2byte	0x332
 3177 10c5 28000000 		.4byte	0x28
 3178 10c9 00000000 		.4byte	.LFB272
 3179 10cd 4A000000 		.4byte	.LFE272-.LFB272
 3180 10d1 01       		.uleb128 0x1
 3181 10d2 9C       		.byte	0x9c
 3182 10d3 1D110000 		.4byte	0x111d
 3183 10d7 24       		.uleb128 0x24
 3184 10d8 17050000 		.4byte	.LASF182
 3185 10dc 01       		.byte	0x1
 3186 10dd 3203     		.2byte	0x332
ARM GAS  /tmp/ccLyIQGT.s 			page 57


 3187 10df 910A0000 		.4byte	0xa91
 3188 10e3 22030000 		.4byte	.LLST23
 3189 10e7 43       		.uleb128 0x43
 3190 10e8 6E00     		.ascii	"n\000"
 3191 10ea 01       		.byte	0x1
 3192 10eb 3303     		.2byte	0x333
 3193 10ed 28000000 		.4byte	0x28
 3194 10f1 01       		.uleb128 0x1
 3195 10f2 50       		.byte	0x50
 3196 10f3 44       		.uleb128 0x44
 3197 10f4 710B0000 		.4byte	0xb71
 3198 10f8 16000000 		.4byte	.LBB70
 3199 10fc 80000000 		.4byte	.Ldebug_ranges0+0x80
 3200 1100 01       		.byte	0x1
 3201 1101 3703     		.2byte	0x337
 3202 1103 2B       		.uleb128 0x2b
 3203 1104 7D0B0000 		.4byte	0xb7d
 3204 1108 4E030000 		.4byte	.LLST24
 3205 110c 2E       		.uleb128 0x2e
 3206 110d 80000000 		.4byte	.Ldebug_ranges0+0x80
 3207 1111 37       		.uleb128 0x37
 3208 1112 880B0000 		.4byte	0xb88
 3209 1116 6E030000 		.4byte	.LLST25
 3210 111a 00       		.byte	0
 3211 111b 00       		.byte	0
 3212 111c 00       		.byte	0
 3213 111d 45       		.uleb128 0x45
 3214 111e 16010000 		.4byte	.LASF200
 3215 1122 12       		.byte	0x12
 3216 1123 A706     		.2byte	0x6a7
 3217 1125 EC000000 		.4byte	0xec
 3218 1129 46       		.uleb128 0x46
 3219 112a 636800   		.ascii	"ch\000"
 3220 112d 08       		.byte	0x8
 3221 112e 0902     		.2byte	0x209
 3222 1130 08040000 		.4byte	0x408
 3223 1134 10       		.uleb128 0x10
 3224 1135 50090000 		.4byte	0x950
 3225 1139 44110000 		.4byte	0x1144
 3226 113d 11       		.uleb128 0x11
 3227 113e 6F040000 		.4byte	0x46f
 3228 1142 0F       		.byte	0xf
 3229 1143 00       		.byte	0
 3230 1144 45       		.uleb128 0x45
 3231 1145 E2000000 		.4byte	.LASF201
 3232 1149 0F       		.byte	0xf
 3233 114a BB01     		.2byte	0x1bb
 3234 114c 50110000 		.4byte	0x1150
 3235 1150 18       		.uleb128 0x18
 3236 1151 34110000 		.4byte	0x1134
 3237 1155 47       		.uleb128 0x47
 3238 1156 71090000 		.4byte	.LASF202
 3239 115a 01       		.byte	0x1
 3240 115b 64       		.byte	0x64
 3241 115c E5090000 		.4byte	0x9e5
 3242 1160 05       		.uleb128 0x5
 3243 1161 03       		.byte	0x3
ARM GAS  /tmp/ccLyIQGT.s 			page 58


 3244 1162 00000000 		.4byte	UARTD2
 3245 1166 48       		.uleb128 0x48
 3246 1167 27050000 		.4byte	.LASF203
 3247 116b 27050000 		.4byte	.LASF203
 3248 116f 13       		.byte	0x13
 3249 1170 1601     		.2byte	0x116
 3250 1172 48       		.uleb128 0x48
 3251 1173 75040000 		.4byte	.LASF204
 3252 1177 75040000 		.4byte	.LASF204
 3253 117b 0B       		.byte	0xb
 3254 117c 6601     		.2byte	0x166
 3255 117e 49       		.uleb128 0x49
 3256 117f 7E000000 		.4byte	.LASF205
 3257 1183 7E000000 		.4byte	.LASF205
 3258 1187 10       		.byte	0x10
 3259 1188 63       		.byte	0x63
 3260 1189 48       		.uleb128 0x48
 3261 118a C6090000 		.4byte	.LASF206
 3262 118e C6090000 		.4byte	.LASF206
 3263 1192 0F       		.byte	0xf
 3264 1193 C201     		.2byte	0x1c2
 3265 1195 49       		.uleb128 0x49
 3266 1196 4B010000 		.4byte	.LASF207
 3267 119a 4B010000 		.4byte	.LASF207
 3268 119e 14       		.byte	0x14
 3269 119f 4E       		.byte	0x4e
 3270 11a0 48       		.uleb128 0x48
 3271 11a1 BA070000 		.4byte	.LASF208
 3272 11a5 BA070000 		.4byte	.LASF208
 3273 11a9 0F       		.byte	0xf
 3274 11aa C601     		.2byte	0x1c6
 3275 11ac 49       		.uleb128 0x49
 3276 11ad C3030000 		.4byte	.LASF209
 3277 11b1 C3030000 		.4byte	.LASF209
 3278 11b5 14       		.byte	0x14
 3279 11b6 4F       		.byte	0x4f
 3280 11b7 00       		.byte	0
 3281              		.section	.debug_abbrev,"",%progbits
 3282              	.Ldebug_abbrev0:
 3283 0000 01       		.uleb128 0x1
 3284 0001 11       		.uleb128 0x11
 3285 0002 01       		.byte	0x1
 3286 0003 25       		.uleb128 0x25
 3287 0004 0E       		.uleb128 0xe
 3288 0005 13       		.uleb128 0x13
 3289 0006 0B       		.uleb128 0xb
 3290 0007 03       		.uleb128 0x3
 3291 0008 0E       		.uleb128 0xe
 3292 0009 55       		.uleb128 0x55
 3293 000a 17       		.uleb128 0x17
 3294 000b 11       		.uleb128 0x11
 3295 000c 01       		.uleb128 0x1
 3296 000d 10       		.uleb128 0x10
 3297 000e 17       		.uleb128 0x17
 3298 000f 00       		.byte	0
 3299 0010 00       		.byte	0
 3300 0011 02       		.uleb128 0x2
ARM GAS  /tmp/ccLyIQGT.s 			page 59


 3301 0012 24       		.uleb128 0x24
 3302 0013 00       		.byte	0
 3303 0014 0B       		.uleb128 0xb
 3304 0015 0B       		.uleb128 0xb
 3305 0016 3E       		.uleb128 0x3e
 3306 0017 0B       		.uleb128 0xb
 3307 0018 03       		.uleb128 0x3
 3308 0019 08       		.uleb128 0x8
 3309 001a 00       		.byte	0
 3310 001b 00       		.byte	0
 3311 001c 03       		.uleb128 0x3
 3312 001d 16       		.uleb128 0x16
 3313 001e 00       		.byte	0
 3314 001f 03       		.uleb128 0x3
 3315 0020 0E       		.uleb128 0xe
 3316 0021 3A       		.uleb128 0x3a
 3317 0022 0B       		.uleb128 0xb
 3318 0023 3B       		.uleb128 0x3b
 3319 0024 0B       		.uleb128 0xb
 3320 0025 49       		.uleb128 0x49
 3321 0026 13       		.uleb128 0x13
 3322 0027 00       		.byte	0
 3323 0028 00       		.byte	0
 3324 0029 04       		.uleb128 0x4
 3325 002a 24       		.uleb128 0x24
 3326 002b 00       		.byte	0
 3327 002c 0B       		.uleb128 0xb
 3328 002d 0B       		.uleb128 0xb
 3329 002e 3E       		.uleb128 0x3e
 3330 002f 0B       		.uleb128 0xb
 3331 0030 03       		.uleb128 0x3
 3332 0031 0E       		.uleb128 0xe
 3333 0032 00       		.byte	0
 3334 0033 00       		.byte	0
 3335 0034 05       		.uleb128 0x5
 3336 0035 35       		.uleb128 0x35
 3337 0036 00       		.byte	0
 3338 0037 49       		.uleb128 0x49
 3339 0038 13       		.uleb128 0x13
 3340 0039 00       		.byte	0
 3341 003a 00       		.byte	0
 3342 003b 06       		.uleb128 0x6
 3343 003c 13       		.uleb128 0x13
 3344 003d 01       		.byte	0x1
 3345 003e 03       		.uleb128 0x3
 3346 003f 0E       		.uleb128 0xe
 3347 0040 0B       		.uleb128 0xb
 3348 0041 0B       		.uleb128 0xb
 3349 0042 3A       		.uleb128 0x3a
 3350 0043 0B       		.uleb128 0xb
 3351 0044 3B       		.uleb128 0x3b
 3352 0045 0B       		.uleb128 0xb
 3353 0046 01       		.uleb128 0x1
 3354 0047 13       		.uleb128 0x13
 3355 0048 00       		.byte	0
 3356 0049 00       		.byte	0
 3357 004a 07       		.uleb128 0x7
ARM GAS  /tmp/ccLyIQGT.s 			page 60


 3358 004b 0D       		.uleb128 0xd
 3359 004c 00       		.byte	0
 3360 004d 03       		.uleb128 0x3
 3361 004e 0E       		.uleb128 0xe
 3362 004f 3A       		.uleb128 0x3a
 3363 0050 0B       		.uleb128 0xb
 3364 0051 3B       		.uleb128 0x3b
 3365 0052 0B       		.uleb128 0xb
 3366 0053 49       		.uleb128 0x49
 3367 0054 13       		.uleb128 0x13
 3368 0055 38       		.uleb128 0x38
 3369 0056 0B       		.uleb128 0xb
 3370 0057 00       		.byte	0
 3371 0058 00       		.byte	0
 3372 0059 08       		.uleb128 0x8
 3373 005a 0D       		.uleb128 0xd
 3374 005b 00       		.byte	0
 3375 005c 03       		.uleb128 0x3
 3376 005d 08       		.uleb128 0x8
 3377 005e 3A       		.uleb128 0x3a
 3378 005f 0B       		.uleb128 0xb
 3379 0060 3B       		.uleb128 0x3b
 3380 0061 05       		.uleb128 0x5
 3381 0062 49       		.uleb128 0x49
 3382 0063 13       		.uleb128 0x13
 3383 0064 38       		.uleb128 0x38
 3384 0065 0B       		.uleb128 0xb
 3385 0066 00       		.byte	0
 3386 0067 00       		.byte	0
 3387 0068 09       		.uleb128 0x9
 3388 0069 0D       		.uleb128 0xd
 3389 006a 00       		.byte	0
 3390 006b 03       		.uleb128 0x3
 3391 006c 0E       		.uleb128 0xe
 3392 006d 3A       		.uleb128 0x3a
 3393 006e 0B       		.uleb128 0xb
 3394 006f 3B       		.uleb128 0x3b
 3395 0070 05       		.uleb128 0x5
 3396 0071 49       		.uleb128 0x49
 3397 0072 13       		.uleb128 0x13
 3398 0073 38       		.uleb128 0x38
 3399 0074 0B       		.uleb128 0xb
 3400 0075 00       		.byte	0
 3401 0076 00       		.byte	0
 3402 0077 0A       		.uleb128 0xa
 3403 0078 0F       		.uleb128 0xf
 3404 0079 00       		.byte	0
 3405 007a 0B       		.uleb128 0xb
 3406 007b 0B       		.uleb128 0xb
 3407 007c 49       		.uleb128 0x49
 3408 007d 13       		.uleb128 0x13
 3409 007e 00       		.byte	0
 3410 007f 00       		.byte	0
 3411 0080 0B       		.uleb128 0xb
 3412 0081 13       		.uleb128 0x13
 3413 0082 01       		.byte	0x1
 3414 0083 03       		.uleb128 0x3
ARM GAS  /tmp/ccLyIQGT.s 			page 61


 3415 0084 0E       		.uleb128 0xe
 3416 0085 0B       		.uleb128 0xb
 3417 0086 0B       		.uleb128 0xb
 3418 0087 3A       		.uleb128 0x3a
 3419 0088 0B       		.uleb128 0xb
 3420 0089 3B       		.uleb128 0x3b
 3421 008a 05       		.uleb128 0x5
 3422 008b 01       		.uleb128 0x1
 3423 008c 13       		.uleb128 0x13
 3424 008d 00       		.byte	0
 3425 008e 00       		.byte	0
 3426 008f 0C       		.uleb128 0xc
 3427 0090 15       		.uleb128 0x15
 3428 0091 01       		.byte	0x1
 3429 0092 27       		.uleb128 0x27
 3430 0093 19       		.uleb128 0x19
 3431 0094 01       		.uleb128 0x1
 3432 0095 13       		.uleb128 0x13
 3433 0096 00       		.byte	0
 3434 0097 00       		.byte	0
 3435 0098 0D       		.uleb128 0xd
 3436 0099 05       		.uleb128 0x5
 3437 009a 00       		.byte	0
 3438 009b 49       		.uleb128 0x49
 3439 009c 13       		.uleb128 0x13
 3440 009d 00       		.byte	0
 3441 009e 00       		.byte	0
 3442 009f 0E       		.uleb128 0xe
 3443 00a0 0F       		.uleb128 0xf
 3444 00a1 00       		.byte	0
 3445 00a2 0B       		.uleb128 0xb
 3446 00a3 0B       		.uleb128 0xb
 3447 00a4 00       		.byte	0
 3448 00a5 00       		.byte	0
 3449 00a6 0F       		.uleb128 0xf
 3450 00a7 13       		.uleb128 0x13
 3451 00a8 01       		.byte	0x1
 3452 00a9 03       		.uleb128 0x3
 3453 00aa 0E       		.uleb128 0xe
 3454 00ab 0B       		.uleb128 0xb
 3455 00ac 05       		.uleb128 0x5
 3456 00ad 3A       		.uleb128 0x3a
 3457 00ae 0B       		.uleb128 0xb
 3458 00af 3B       		.uleb128 0x3b
 3459 00b0 05       		.uleb128 0x5
 3460 00b1 01       		.uleb128 0x1
 3461 00b2 13       		.uleb128 0x13
 3462 00b3 00       		.byte	0
 3463 00b4 00       		.byte	0
 3464 00b5 10       		.uleb128 0x10
 3465 00b6 01       		.uleb128 0x1
 3466 00b7 01       		.byte	0x1
 3467 00b8 49       		.uleb128 0x49
 3468 00b9 13       		.uleb128 0x13
 3469 00ba 01       		.uleb128 0x1
 3470 00bb 13       		.uleb128 0x13
 3471 00bc 00       		.byte	0
ARM GAS  /tmp/ccLyIQGT.s 			page 62


 3472 00bd 00       		.byte	0
 3473 00be 11       		.uleb128 0x11
 3474 00bf 21       		.uleb128 0x21
 3475 00c0 00       		.byte	0
 3476 00c1 49       		.uleb128 0x49
 3477 00c2 13       		.uleb128 0x13
 3478 00c3 2F       		.uleb128 0x2f
 3479 00c4 0B       		.uleb128 0xb
 3480 00c5 00       		.byte	0
 3481 00c6 00       		.byte	0
 3482 00c7 12       		.uleb128 0x12
 3483 00c8 13       		.uleb128 0x13
 3484 00c9 01       		.byte	0x1
 3485 00ca 0B       		.uleb128 0xb
 3486 00cb 0B       		.uleb128 0xb
 3487 00cc 3A       		.uleb128 0x3a
 3488 00cd 0B       		.uleb128 0xb
 3489 00ce 3B       		.uleb128 0x3b
 3490 00cf 05       		.uleb128 0x5
 3491 00d0 01       		.uleb128 0x1
 3492 00d1 13       		.uleb128 0x13
 3493 00d2 00       		.byte	0
 3494 00d3 00       		.byte	0
 3495 00d4 13       		.uleb128 0x13
 3496 00d5 16       		.uleb128 0x16
 3497 00d6 00       		.byte	0
 3498 00d7 03       		.uleb128 0x3
 3499 00d8 0E       		.uleb128 0xe
 3500 00d9 3A       		.uleb128 0x3a
 3501 00da 0B       		.uleb128 0xb
 3502 00db 3B       		.uleb128 0x3b
 3503 00dc 05       		.uleb128 0x5
 3504 00dd 49       		.uleb128 0x49
 3505 00de 13       		.uleb128 0x13
 3506 00df 00       		.byte	0
 3507 00e0 00       		.byte	0
 3508 00e1 14       		.uleb128 0x14
 3509 00e2 0D       		.uleb128 0xd
 3510 00e3 00       		.byte	0
 3511 00e4 03       		.uleb128 0x3
 3512 00e5 08       		.uleb128 0x8
 3513 00e6 3A       		.uleb128 0x3a
 3514 00e7 0B       		.uleb128 0xb
 3515 00e8 3B       		.uleb128 0x3b
 3516 00e9 0B       		.uleb128 0xb
 3517 00ea 49       		.uleb128 0x49
 3518 00eb 13       		.uleb128 0x13
 3519 00ec 38       		.uleb128 0x38
 3520 00ed 0B       		.uleb128 0xb
 3521 00ee 00       		.byte	0
 3522 00ef 00       		.byte	0
 3523 00f0 15       		.uleb128 0x15
 3524 00f1 13       		.uleb128 0x13
 3525 00f2 01       		.byte	0x1
 3526 00f3 0B       		.uleb128 0xb
 3527 00f4 0B       		.uleb128 0xb
 3528 00f5 3A       		.uleb128 0x3a
ARM GAS  /tmp/ccLyIQGT.s 			page 63


 3529 00f6 0B       		.uleb128 0xb
 3530 00f7 3B       		.uleb128 0x3b
 3531 00f8 0B       		.uleb128 0xb
 3532 00f9 01       		.uleb128 0x1
 3533 00fa 13       		.uleb128 0x13
 3534 00fb 00       		.byte	0
 3535 00fc 00       		.byte	0
 3536 00fd 16       		.uleb128 0x16
 3537 00fe 17       		.uleb128 0x17
 3538 00ff 01       		.byte	0x1
 3539 0100 0B       		.uleb128 0xb
 3540 0101 0B       		.uleb128 0xb
 3541 0102 3A       		.uleb128 0x3a
 3542 0103 0B       		.uleb128 0xb
 3543 0104 3B       		.uleb128 0x3b
 3544 0105 0B       		.uleb128 0xb
 3545 0106 01       		.uleb128 0x1
 3546 0107 13       		.uleb128 0x13
 3547 0108 00       		.byte	0
 3548 0109 00       		.byte	0
 3549 010a 17       		.uleb128 0x17
 3550 010b 0D       		.uleb128 0xd
 3551 010c 00       		.byte	0
 3552 010d 03       		.uleb128 0x3
 3553 010e 0E       		.uleb128 0xe
 3554 010f 3A       		.uleb128 0x3a
 3555 0110 0B       		.uleb128 0xb
 3556 0111 3B       		.uleb128 0x3b
 3557 0112 05       		.uleb128 0x5
 3558 0113 49       		.uleb128 0x49
 3559 0114 13       		.uleb128 0x13
 3560 0115 00       		.byte	0
 3561 0116 00       		.byte	0
 3562 0117 18       		.uleb128 0x18
 3563 0118 26       		.uleb128 0x26
 3564 0119 00       		.byte	0
 3565 011a 49       		.uleb128 0x49
 3566 011b 13       		.uleb128 0x13
 3567 011c 00       		.byte	0
 3568 011d 00       		.byte	0
 3569 011e 19       		.uleb128 0x19
 3570 011f 04       		.uleb128 0x4
 3571 0120 01       		.byte	0x1
 3572 0121 0B       		.uleb128 0xb
 3573 0122 0B       		.uleb128 0xb
 3574 0123 49       		.uleb128 0x49
 3575 0124 13       		.uleb128 0x13
 3576 0125 3A       		.uleb128 0x3a
 3577 0126 0B       		.uleb128 0xb
 3578 0127 3B       		.uleb128 0x3b
 3579 0128 0B       		.uleb128 0xb
 3580 0129 01       		.uleb128 0x1
 3581 012a 13       		.uleb128 0x13
 3582 012b 00       		.byte	0
 3583 012c 00       		.byte	0
 3584 012d 1A       		.uleb128 0x1a
 3585 012e 28       		.uleb128 0x28
ARM GAS  /tmp/ccLyIQGT.s 			page 64


 3586 012f 00       		.byte	0
 3587 0130 03       		.uleb128 0x3
 3588 0131 0E       		.uleb128 0xe
 3589 0132 1C       		.uleb128 0x1c
 3590 0133 0B       		.uleb128 0xb
 3591 0134 00       		.byte	0
 3592 0135 00       		.byte	0
 3593 0136 1B       		.uleb128 0x1b
 3594 0137 2E       		.uleb128 0x2e
 3595 0138 01       		.byte	0x1
 3596 0139 03       		.uleb128 0x3
 3597 013a 0E       		.uleb128 0xe
 3598 013b 3A       		.uleb128 0x3a
 3599 013c 0B       		.uleb128 0xb
 3600 013d 3B       		.uleb128 0x3b
 3601 013e 0B       		.uleb128 0xb
 3602 013f 27       		.uleb128 0x27
 3603 0140 19       		.uleb128 0x19
 3604 0141 20       		.uleb128 0x20
 3605 0142 0B       		.uleb128 0xb
 3606 0143 01       		.uleb128 0x1
 3607 0144 13       		.uleb128 0x13
 3608 0145 00       		.byte	0
 3609 0146 00       		.byte	0
 3610 0147 1C       		.uleb128 0x1c
 3611 0148 05       		.uleb128 0x5
 3612 0149 00       		.byte	0
 3613 014a 03       		.uleb128 0x3
 3614 014b 0E       		.uleb128 0xe
 3615 014c 3A       		.uleb128 0x3a
 3616 014d 0B       		.uleb128 0xb
 3617 014e 3B       		.uleb128 0x3b
 3618 014f 0B       		.uleb128 0xb
 3619 0150 49       		.uleb128 0x49
 3620 0151 13       		.uleb128 0x13
 3621 0152 00       		.byte	0
 3622 0153 00       		.byte	0
 3623 0154 1D       		.uleb128 0x1d
 3624 0155 34       		.uleb128 0x34
 3625 0156 00       		.byte	0
 3626 0157 03       		.uleb128 0x3
 3627 0158 0E       		.uleb128 0xe
 3628 0159 3A       		.uleb128 0x3a
 3629 015a 0B       		.uleb128 0xb
 3630 015b 3B       		.uleb128 0x3b
 3631 015c 0B       		.uleb128 0xb
 3632 015d 49       		.uleb128 0x49
 3633 015e 13       		.uleb128 0x13
 3634 015f 00       		.byte	0
 3635 0160 00       		.byte	0
 3636 0161 1E       		.uleb128 0x1e
 3637 0162 2E       		.uleb128 0x2e
 3638 0163 01       		.byte	0x1
 3639 0164 03       		.uleb128 0x3
 3640 0165 0E       		.uleb128 0xe
 3641 0166 3A       		.uleb128 0x3a
 3642 0167 0B       		.uleb128 0xb
ARM GAS  /tmp/ccLyIQGT.s 			page 65


 3643 0168 3B       		.uleb128 0x3b
 3644 0169 05       		.uleb128 0x5
 3645 016a 27       		.uleb128 0x27
 3646 016b 19       		.uleb128 0x19
 3647 016c 20       		.uleb128 0x20
 3648 016d 0B       		.uleb128 0xb
 3649 016e 01       		.uleb128 0x1
 3650 016f 13       		.uleb128 0x13
 3651 0170 00       		.byte	0
 3652 0171 00       		.byte	0
 3653 0172 1F       		.uleb128 0x1f
 3654 0173 05       		.uleb128 0x5
 3655 0174 00       		.byte	0
 3656 0175 03       		.uleb128 0x3
 3657 0176 0E       		.uleb128 0xe
 3658 0177 3A       		.uleb128 0x3a
 3659 0178 0B       		.uleb128 0xb
 3660 0179 3B       		.uleb128 0x3b
 3661 017a 05       		.uleb128 0x5
 3662 017b 49       		.uleb128 0x49
 3663 017c 13       		.uleb128 0x13
 3664 017d 00       		.byte	0
 3665 017e 00       		.byte	0
 3666 017f 20       		.uleb128 0x20
 3667 0180 34       		.uleb128 0x34
 3668 0181 00       		.byte	0
 3669 0182 03       		.uleb128 0x3
 3670 0183 08       		.uleb128 0x8
 3671 0184 3A       		.uleb128 0x3a
 3672 0185 0B       		.uleb128 0xb
 3673 0186 3B       		.uleb128 0x3b
 3674 0187 05       		.uleb128 0x5
 3675 0188 49       		.uleb128 0x49
 3676 0189 13       		.uleb128 0x13
 3677 018a 00       		.byte	0
 3678 018b 00       		.byte	0
 3679 018c 21       		.uleb128 0x21
 3680 018d 2E       		.uleb128 0x2e
 3681 018e 01       		.byte	0x1
 3682 018f 03       		.uleb128 0x3
 3683 0190 0E       		.uleb128 0xe
 3684 0191 3A       		.uleb128 0x3a
 3685 0192 0B       		.uleb128 0xb
 3686 0193 3B       		.uleb128 0x3b
 3687 0194 0B       		.uleb128 0xb
 3688 0195 27       		.uleb128 0x27
 3689 0196 19       		.uleb128 0x19
 3690 0197 11       		.uleb128 0x11
 3691 0198 01       		.uleb128 0x1
 3692 0199 12       		.uleb128 0x12
 3693 019a 06       		.uleb128 0x6
 3694 019b 40       		.uleb128 0x40
 3695 019c 18       		.uleb128 0x18
 3696 019d 9742     		.uleb128 0x2117
 3697 019f 19       		.uleb128 0x19
 3698 01a0 01       		.uleb128 0x1
 3699 01a1 13       		.uleb128 0x13
ARM GAS  /tmp/ccLyIQGT.s 			page 66


 3700 01a2 00       		.byte	0
 3701 01a3 00       		.byte	0
 3702 01a4 22       		.uleb128 0x22
 3703 01a5 05       		.uleb128 0x5
 3704 01a6 00       		.byte	0
 3705 01a7 03       		.uleb128 0x3
 3706 01a8 0E       		.uleb128 0xe
 3707 01a9 3A       		.uleb128 0x3a
 3708 01aa 0B       		.uleb128 0xb
 3709 01ab 3B       		.uleb128 0x3b
 3710 01ac 0B       		.uleb128 0xb
 3711 01ad 49       		.uleb128 0x49
 3712 01ae 13       		.uleb128 0x13
 3713 01af 02       		.uleb128 0x2
 3714 01b0 17       		.uleb128 0x17
 3715 01b1 00       		.byte	0
 3716 01b2 00       		.byte	0
 3717 01b3 23       		.uleb128 0x23
 3718 01b4 2E       		.uleb128 0x2e
 3719 01b5 01       		.byte	0x1
 3720 01b6 03       		.uleb128 0x3
 3721 01b7 0E       		.uleb128 0xe
 3722 01b8 3A       		.uleb128 0x3a
 3723 01b9 0B       		.uleb128 0xb
 3724 01ba 3B       		.uleb128 0x3b
 3725 01bb 05       		.uleb128 0x5
 3726 01bc 27       		.uleb128 0x27
 3727 01bd 19       		.uleb128 0x19
 3728 01be 11       		.uleb128 0x11
 3729 01bf 01       		.uleb128 0x1
 3730 01c0 12       		.uleb128 0x12
 3731 01c1 06       		.uleb128 0x6
 3732 01c2 40       		.uleb128 0x40
 3733 01c3 18       		.uleb128 0x18
 3734 01c4 9742     		.uleb128 0x2117
 3735 01c6 19       		.uleb128 0x19
 3736 01c7 01       		.uleb128 0x1
 3737 01c8 13       		.uleb128 0x13
 3738 01c9 00       		.byte	0
 3739 01ca 00       		.byte	0
 3740 01cb 24       		.uleb128 0x24
 3741 01cc 05       		.uleb128 0x5
 3742 01cd 00       		.byte	0
 3743 01ce 03       		.uleb128 0x3
 3744 01cf 0E       		.uleb128 0xe
 3745 01d0 3A       		.uleb128 0x3a
 3746 01d1 0B       		.uleb128 0xb
 3747 01d2 3B       		.uleb128 0x3b
 3748 01d3 05       		.uleb128 0x5
 3749 01d4 49       		.uleb128 0x49
 3750 01d5 13       		.uleb128 0x13
 3751 01d6 02       		.uleb128 0x2
 3752 01d7 17       		.uleb128 0x17
 3753 01d8 00       		.byte	0
 3754 01d9 00       		.byte	0
 3755 01da 25       		.uleb128 0x25
 3756 01db 1D       		.uleb128 0x1d
ARM GAS  /tmp/ccLyIQGT.s 			page 67


 3757 01dc 01       		.byte	0x1
 3758 01dd 31       		.uleb128 0x31
 3759 01de 13       		.uleb128 0x13
 3760 01df 11       		.uleb128 0x11
 3761 01e0 01       		.uleb128 0x1
 3762 01e1 12       		.uleb128 0x12
 3763 01e2 06       		.uleb128 0x6
 3764 01e3 58       		.uleb128 0x58
 3765 01e4 0B       		.uleb128 0xb
 3766 01e5 59       		.uleb128 0x59
 3767 01e6 05       		.uleb128 0x5
 3768 01e7 01       		.uleb128 0x1
 3769 01e8 13       		.uleb128 0x13
 3770 01e9 00       		.byte	0
 3771 01ea 00       		.byte	0
 3772 01eb 26       		.uleb128 0x26
 3773 01ec 05       		.uleb128 0x5
 3774 01ed 00       		.byte	0
 3775 01ee 31       		.uleb128 0x31
 3776 01ef 13       		.uleb128 0x13
 3777 01f0 02       		.uleb128 0x2
 3778 01f1 18       		.uleb128 0x18
 3779 01f2 00       		.byte	0
 3780 01f3 00       		.byte	0
 3781 01f4 27       		.uleb128 0x27
 3782 01f5 898201   		.uleb128 0x4109
 3783 01f8 01       		.byte	0x1
 3784 01f9 11       		.uleb128 0x11
 3785 01fa 01       		.uleb128 0x1
 3786 01fb 31       		.uleb128 0x31
 3787 01fc 13       		.uleb128 0x13
 3788 01fd 00       		.byte	0
 3789 01fe 00       		.byte	0
 3790 01ff 28       		.uleb128 0x28
 3791 0200 8A8201   		.uleb128 0x410a
 3792 0203 00       		.byte	0
 3793 0204 02       		.uleb128 0x2
 3794 0205 18       		.uleb128 0x18
 3795 0206 9142     		.uleb128 0x2111
 3796 0208 18       		.uleb128 0x18
 3797 0209 00       		.byte	0
 3798 020a 00       		.byte	0
 3799 020b 29       		.uleb128 0x29
 3800 020c 898201   		.uleb128 0x4109
 3801 020f 01       		.byte	0x1
 3802 0210 11       		.uleb128 0x11
 3803 0211 01       		.uleb128 0x1
 3804 0212 00       		.byte	0
 3805 0213 00       		.byte	0
 3806 0214 2A       		.uleb128 0x2a
 3807 0215 2E       		.uleb128 0x2e
 3808 0216 01       		.byte	0x1
 3809 0217 31       		.uleb128 0x31
 3810 0218 13       		.uleb128 0x13
 3811 0219 11       		.uleb128 0x11
 3812 021a 01       		.uleb128 0x1
 3813 021b 12       		.uleb128 0x12
ARM GAS  /tmp/ccLyIQGT.s 			page 68


 3814 021c 06       		.uleb128 0x6
 3815 021d 40       		.uleb128 0x40
 3816 021e 18       		.uleb128 0x18
 3817 021f 9742     		.uleb128 0x2117
 3818 0221 19       		.uleb128 0x19
 3819 0222 01       		.uleb128 0x1
 3820 0223 13       		.uleb128 0x13
 3821 0224 00       		.byte	0
 3822 0225 00       		.byte	0
 3823 0226 2B       		.uleb128 0x2b
 3824 0227 05       		.uleb128 0x5
 3825 0228 00       		.byte	0
 3826 0229 31       		.uleb128 0x31
 3827 022a 13       		.uleb128 0x13
 3828 022b 02       		.uleb128 0x2
 3829 022c 17       		.uleb128 0x17
 3830 022d 00       		.byte	0
 3831 022e 00       		.byte	0
 3832 022f 2C       		.uleb128 0x2c
 3833 0230 0B       		.uleb128 0xb
 3834 0231 01       		.byte	0x1
 3835 0232 11       		.uleb128 0x11
 3836 0233 01       		.uleb128 0x1
 3837 0234 12       		.uleb128 0x12
 3838 0235 06       		.uleb128 0x6
 3839 0236 01       		.uleb128 0x1
 3840 0237 13       		.uleb128 0x13
 3841 0238 00       		.byte	0
 3842 0239 00       		.byte	0
 3843 023a 2D       		.uleb128 0x2d
 3844 023b 1D       		.uleb128 0x1d
 3845 023c 01       		.byte	0x1
 3846 023d 31       		.uleb128 0x31
 3847 023e 13       		.uleb128 0x13
 3848 023f 52       		.uleb128 0x52
 3849 0240 01       		.uleb128 0x1
 3850 0241 55       		.uleb128 0x55
 3851 0242 17       		.uleb128 0x17
 3852 0243 58       		.uleb128 0x58
 3853 0244 0B       		.uleb128 0xb
 3854 0245 59       		.uleb128 0x59
 3855 0246 05       		.uleb128 0x5
 3856 0247 01       		.uleb128 0x1
 3857 0248 13       		.uleb128 0x13
 3858 0249 00       		.byte	0
 3859 024a 00       		.byte	0
 3860 024b 2E       		.uleb128 0x2e
 3861 024c 0B       		.uleb128 0xb
 3862 024d 01       		.byte	0x1
 3863 024e 55       		.uleb128 0x55
 3864 024f 17       		.uleb128 0x17
 3865 0250 00       		.byte	0
 3866 0251 00       		.byte	0
 3867 0252 2F       		.uleb128 0x2f
 3868 0253 34       		.uleb128 0x34
 3869 0254 00       		.byte	0
 3870 0255 31       		.uleb128 0x31
ARM GAS  /tmp/ccLyIQGT.s 			page 69


 3871 0256 13       		.uleb128 0x13
 3872 0257 00       		.byte	0
 3873 0258 00       		.byte	0
 3874 0259 30       		.uleb128 0x30
 3875 025a 1D       		.uleb128 0x1d
 3876 025b 01       		.byte	0x1
 3877 025c 31       		.uleb128 0x31
 3878 025d 13       		.uleb128 0x13
 3879 025e 11       		.uleb128 0x11
 3880 025f 01       		.uleb128 0x1
 3881 0260 12       		.uleb128 0x12
 3882 0261 06       		.uleb128 0x6
 3883 0262 58       		.uleb128 0x58
 3884 0263 0B       		.uleb128 0xb
 3885 0264 59       		.uleb128 0x59
 3886 0265 0B       		.uleb128 0xb
 3887 0266 01       		.uleb128 0x1
 3888 0267 13       		.uleb128 0x13
 3889 0268 00       		.byte	0
 3890 0269 00       		.byte	0
 3891 026a 31       		.uleb128 0x31
 3892 026b 898201   		.uleb128 0x4109
 3893 026e 01       		.byte	0x1
 3894 026f 11       		.uleb128 0x11
 3895 0270 01       		.uleb128 0x1
 3896 0271 9542     		.uleb128 0x2115
 3897 0273 19       		.uleb128 0x19
 3898 0274 00       		.byte	0
 3899 0275 00       		.byte	0
 3900 0276 32       		.uleb128 0x32
 3901 0277 2E       		.uleb128 0x2e
 3902 0278 01       		.byte	0x1
 3903 0279 03       		.uleb128 0x3
 3904 027a 0E       		.uleb128 0xe
 3905 027b 3A       		.uleb128 0x3a
 3906 027c 0B       		.uleb128 0xb
 3907 027d 3B       		.uleb128 0x3b
 3908 027e 0B       		.uleb128 0xb
 3909 027f 27       		.uleb128 0x27
 3910 0280 19       		.uleb128 0x19
 3911 0281 49       		.uleb128 0x49
 3912 0282 13       		.uleb128 0x13
 3913 0283 20       		.uleb128 0x20
 3914 0284 0B       		.uleb128 0xb
 3915 0285 01       		.uleb128 0x1
 3916 0286 13       		.uleb128 0x13
 3917 0287 00       		.byte	0
 3918 0288 00       		.byte	0
 3919 0289 33       		.uleb128 0x33
 3920 028a 05       		.uleb128 0x5
 3921 028b 00       		.byte	0
 3922 028c 03       		.uleb128 0x3
 3923 028d 08       		.uleb128 0x8
 3924 028e 3A       		.uleb128 0x3a
 3925 028f 0B       		.uleb128 0xb
 3926 0290 3B       		.uleb128 0x3b
 3927 0291 0B       		.uleb128 0xb
ARM GAS  /tmp/ccLyIQGT.s 			page 70


 3928 0292 49       		.uleb128 0x49
 3929 0293 13       		.uleb128 0x13
 3930 0294 00       		.byte	0
 3931 0295 00       		.byte	0
 3932 0296 34       		.uleb128 0x34
 3933 0297 34       		.uleb128 0x34
 3934 0298 00       		.byte	0
 3935 0299 03       		.uleb128 0x3
 3936 029a 08       		.uleb128 0x8
 3937 029b 3A       		.uleb128 0x3a
 3938 029c 0B       		.uleb128 0xb
 3939 029d 3B       		.uleb128 0x3b
 3940 029e 0B       		.uleb128 0xb
 3941 029f 49       		.uleb128 0x49
 3942 02a0 13       		.uleb128 0x13
 3943 02a1 00       		.byte	0
 3944 02a2 00       		.byte	0
 3945 02a3 35       		.uleb128 0x35
 3946 02a4 2E       		.uleb128 0x2e
 3947 02a5 01       		.byte	0x1
 3948 02a6 3F       		.uleb128 0x3f
 3949 02a7 19       		.uleb128 0x19
 3950 02a8 03       		.uleb128 0x3
 3951 02a9 0E       		.uleb128 0xe
 3952 02aa 3A       		.uleb128 0x3a
 3953 02ab 0B       		.uleb128 0xb
 3954 02ac 3B       		.uleb128 0x3b
 3955 02ad 05       		.uleb128 0x5
 3956 02ae 27       		.uleb128 0x27
 3957 02af 19       		.uleb128 0x19
 3958 02b0 11       		.uleb128 0x11
 3959 02b1 01       		.uleb128 0x1
 3960 02b2 12       		.uleb128 0x12
 3961 02b3 06       		.uleb128 0x6
 3962 02b4 40       		.uleb128 0x40
 3963 02b5 18       		.uleb128 0x18
 3964 02b6 9742     		.uleb128 0x2117
 3965 02b8 19       		.uleb128 0x19
 3966 02b9 01       		.uleb128 0x1
 3967 02ba 13       		.uleb128 0x13
 3968 02bb 00       		.byte	0
 3969 02bc 00       		.byte	0
 3970 02bd 36       		.uleb128 0x36
 3971 02be 0B       		.uleb128 0xb
 3972 02bf 01       		.byte	0x1
 3973 02c0 11       		.uleb128 0x11
 3974 02c1 01       		.uleb128 0x1
 3975 02c2 12       		.uleb128 0x12
 3976 02c3 06       		.uleb128 0x6
 3977 02c4 00       		.byte	0
 3978 02c5 00       		.byte	0
 3979 02c6 37       		.uleb128 0x37
 3980 02c7 34       		.uleb128 0x34
 3981 02c8 00       		.byte	0
 3982 02c9 31       		.uleb128 0x31
 3983 02ca 13       		.uleb128 0x13
 3984 02cb 02       		.uleb128 0x2
ARM GAS  /tmp/ccLyIQGT.s 			page 71


 3985 02cc 17       		.uleb128 0x17
 3986 02cd 00       		.byte	0
 3987 02ce 00       		.byte	0
 3988 02cf 38       		.uleb128 0x38
 3989 02d0 898201   		.uleb128 0x4109
 3990 02d3 01       		.byte	0x1
 3991 02d4 11       		.uleb128 0x11
 3992 02d5 01       		.uleb128 0x1
 3993 02d6 01       		.uleb128 0x1
 3994 02d7 13       		.uleb128 0x13
 3995 02d8 00       		.byte	0
 3996 02d9 00       		.byte	0
 3997 02da 39       		.uleb128 0x39
 3998 02db 898201   		.uleb128 0x4109
 3999 02de 00       		.byte	0
 4000 02df 11       		.uleb128 0x11
 4001 02e0 01       		.uleb128 0x1
 4002 02e1 9542     		.uleb128 0x2115
 4003 02e3 19       		.uleb128 0x19
 4004 02e4 31       		.uleb128 0x31
 4005 02e5 13       		.uleb128 0x13
 4006 02e6 00       		.byte	0
 4007 02e7 00       		.byte	0
 4008 02e8 3A       		.uleb128 0x3a
 4009 02e9 34       		.uleb128 0x34
 4010 02ea 00       		.byte	0
 4011 02eb 03       		.uleb128 0x3
 4012 02ec 0E       		.uleb128 0xe
 4013 02ed 49       		.uleb128 0x49
 4014 02ee 13       		.uleb128 0x13
 4015 02ef 34       		.uleb128 0x34
 4016 02f0 19       		.uleb128 0x19
 4017 02f1 00       		.byte	0
 4018 02f2 00       		.byte	0
 4019 02f3 3B       		.uleb128 0x3b
 4020 02f4 1D       		.uleb128 0x1d
 4021 02f5 01       		.byte	0x1
 4022 02f6 31       		.uleb128 0x31
 4023 02f7 13       		.uleb128 0x13
 4024 02f8 52       		.uleb128 0x52
 4025 02f9 01       		.uleb128 0x1
 4026 02fa 55       		.uleb128 0x55
 4027 02fb 17       		.uleb128 0x17
 4028 02fc 58       		.uleb128 0x58
 4029 02fd 0B       		.uleb128 0xb
 4030 02fe 59       		.uleb128 0x59
 4031 02ff 0B       		.uleb128 0xb
 4032 0300 01       		.uleb128 0x1
 4033 0301 13       		.uleb128 0x13
 4034 0302 00       		.byte	0
 4035 0303 00       		.byte	0
 4036 0304 3C       		.uleb128 0x3c
 4037 0305 898201   		.uleb128 0x4109
 4038 0308 01       		.byte	0x1
 4039 0309 11       		.uleb128 0x11
 4040 030a 01       		.uleb128 0x1
 4041 030b 31       		.uleb128 0x31
ARM GAS  /tmp/ccLyIQGT.s 			page 72


 4042 030c 13       		.uleb128 0x13
 4043 030d 01       		.uleb128 0x1
 4044 030e 13       		.uleb128 0x13
 4045 030f 00       		.byte	0
 4046 0310 00       		.byte	0
 4047 0311 3D       		.uleb128 0x3d
 4048 0312 898201   		.uleb128 0x4109
 4049 0315 00       		.byte	0
 4050 0316 11       		.uleb128 0x11
 4051 0317 01       		.uleb128 0x1
 4052 0318 31       		.uleb128 0x31
 4053 0319 13       		.uleb128 0x13
 4054 031a 00       		.byte	0
 4055 031b 00       		.byte	0
 4056 031c 3E       		.uleb128 0x3e
 4057 031d 05       		.uleb128 0x5
 4058 031e 00       		.byte	0
 4059 031f 03       		.uleb128 0x3
 4060 0320 0E       		.uleb128 0xe
 4061 0321 3A       		.uleb128 0x3a
 4062 0322 0B       		.uleb128 0xb
 4063 0323 3B       		.uleb128 0x3b
 4064 0324 05       		.uleb128 0x5
 4065 0325 49       		.uleb128 0x49
 4066 0326 13       		.uleb128 0x13
 4067 0327 02       		.uleb128 0x2
 4068 0328 18       		.uleb128 0x18
 4069 0329 00       		.byte	0
 4070 032a 00       		.byte	0
 4071 032b 3F       		.uleb128 0x3f
 4072 032c 05       		.uleb128 0x5
 4073 032d 00       		.byte	0
 4074 032e 03       		.uleb128 0x3
 4075 032f 08       		.uleb128 0x8
 4076 0330 3A       		.uleb128 0x3a
 4077 0331 0B       		.uleb128 0xb
 4078 0332 3B       		.uleb128 0x3b
 4079 0333 05       		.uleb128 0x5
 4080 0334 49       		.uleb128 0x49
 4081 0335 13       		.uleb128 0x13
 4082 0336 02       		.uleb128 0x2
 4083 0337 17       		.uleb128 0x17
 4084 0338 00       		.byte	0
 4085 0339 00       		.byte	0
 4086 033a 40       		.uleb128 0x40
 4087 033b 26       		.uleb128 0x26
 4088 033c 00       		.byte	0
 4089 033d 00       		.byte	0
 4090 033e 00       		.byte	0
 4091 033f 41       		.uleb128 0x41
 4092 0340 2E       		.uleb128 0x2e
 4093 0341 01       		.byte	0x1
 4094 0342 3F       		.uleb128 0x3f
 4095 0343 19       		.uleb128 0x19
 4096 0344 03       		.uleb128 0x3
 4097 0345 0E       		.uleb128 0xe
 4098 0346 3A       		.uleb128 0x3a
ARM GAS  /tmp/ccLyIQGT.s 			page 73


 4099 0347 0B       		.uleb128 0xb
 4100 0348 3B       		.uleb128 0x3b
 4101 0349 05       		.uleb128 0x5
 4102 034a 27       		.uleb128 0x27
 4103 034b 19       		.uleb128 0x19
 4104 034c 49       		.uleb128 0x49
 4105 034d 13       		.uleb128 0x13
 4106 034e 11       		.uleb128 0x11
 4107 034f 01       		.uleb128 0x1
 4108 0350 12       		.uleb128 0x12
 4109 0351 06       		.uleb128 0x6
 4110 0352 40       		.uleb128 0x40
 4111 0353 18       		.uleb128 0x18
 4112 0354 9742     		.uleb128 0x2117
 4113 0356 19       		.uleb128 0x19
 4114 0357 01       		.uleb128 0x1
 4115 0358 13       		.uleb128 0x13
 4116 0359 00       		.byte	0
 4117 035a 00       		.byte	0
 4118 035b 42       		.uleb128 0x42
 4119 035c 05       		.uleb128 0x5
 4120 035d 00       		.byte	0
 4121 035e 03       		.uleb128 0x3
 4122 035f 08       		.uleb128 0x8
 4123 0360 3A       		.uleb128 0x3a
 4124 0361 0B       		.uleb128 0xb
 4125 0362 3B       		.uleb128 0x3b
 4126 0363 05       		.uleb128 0x5
 4127 0364 49       		.uleb128 0x49
 4128 0365 13       		.uleb128 0x13
 4129 0366 02       		.uleb128 0x2
 4130 0367 18       		.uleb128 0x18
 4131 0368 00       		.byte	0
 4132 0369 00       		.byte	0
 4133 036a 43       		.uleb128 0x43
 4134 036b 34       		.uleb128 0x34
 4135 036c 00       		.byte	0
 4136 036d 03       		.uleb128 0x3
 4137 036e 08       		.uleb128 0x8
 4138 036f 3A       		.uleb128 0x3a
 4139 0370 0B       		.uleb128 0xb
 4140 0371 3B       		.uleb128 0x3b
 4141 0372 05       		.uleb128 0x5
 4142 0373 49       		.uleb128 0x49
 4143 0374 13       		.uleb128 0x13
 4144 0375 02       		.uleb128 0x2
 4145 0376 18       		.uleb128 0x18
 4146 0377 00       		.byte	0
 4147 0378 00       		.byte	0
 4148 0379 44       		.uleb128 0x44
 4149 037a 1D       		.uleb128 0x1d
 4150 037b 01       		.byte	0x1
 4151 037c 31       		.uleb128 0x31
 4152 037d 13       		.uleb128 0x13
 4153 037e 52       		.uleb128 0x52
 4154 037f 01       		.uleb128 0x1
 4155 0380 55       		.uleb128 0x55
ARM GAS  /tmp/ccLyIQGT.s 			page 74


 4156 0381 17       		.uleb128 0x17
 4157 0382 58       		.uleb128 0x58
 4158 0383 0B       		.uleb128 0xb
 4159 0384 59       		.uleb128 0x59
 4160 0385 05       		.uleb128 0x5
 4161 0386 00       		.byte	0
 4162 0387 00       		.byte	0
 4163 0388 45       		.uleb128 0x45
 4164 0389 34       		.uleb128 0x34
 4165 038a 00       		.byte	0
 4166 038b 03       		.uleb128 0x3
 4167 038c 0E       		.uleb128 0xe
 4168 038d 3A       		.uleb128 0x3a
 4169 038e 0B       		.uleb128 0xb
 4170 038f 3B       		.uleb128 0x3b
 4171 0390 05       		.uleb128 0x5
 4172 0391 49       		.uleb128 0x49
 4173 0392 13       		.uleb128 0x13
 4174 0393 3F       		.uleb128 0x3f
 4175 0394 19       		.uleb128 0x19
 4176 0395 3C       		.uleb128 0x3c
 4177 0396 19       		.uleb128 0x19
 4178 0397 00       		.byte	0
 4179 0398 00       		.byte	0
 4180 0399 46       		.uleb128 0x46
 4181 039a 34       		.uleb128 0x34
 4182 039b 00       		.byte	0
 4183 039c 03       		.uleb128 0x3
 4184 039d 08       		.uleb128 0x8
 4185 039e 3A       		.uleb128 0x3a
 4186 039f 0B       		.uleb128 0xb
 4187 03a0 3B       		.uleb128 0x3b
 4188 03a1 05       		.uleb128 0x5
 4189 03a2 49       		.uleb128 0x49
 4190 03a3 13       		.uleb128 0x13
 4191 03a4 3F       		.uleb128 0x3f
 4192 03a5 19       		.uleb128 0x19
 4193 03a6 3C       		.uleb128 0x3c
 4194 03a7 19       		.uleb128 0x19
 4195 03a8 00       		.byte	0
 4196 03a9 00       		.byte	0
 4197 03aa 47       		.uleb128 0x47
 4198 03ab 34       		.uleb128 0x34
 4199 03ac 00       		.byte	0
 4200 03ad 03       		.uleb128 0x3
 4201 03ae 0E       		.uleb128 0xe
 4202 03af 3A       		.uleb128 0x3a
 4203 03b0 0B       		.uleb128 0xb
 4204 03b1 3B       		.uleb128 0x3b
 4205 03b2 0B       		.uleb128 0xb
 4206 03b3 49       		.uleb128 0x49
 4207 03b4 13       		.uleb128 0x13
 4208 03b5 3F       		.uleb128 0x3f
 4209 03b6 19       		.uleb128 0x19
 4210 03b7 02       		.uleb128 0x2
 4211 03b8 18       		.uleb128 0x18
 4212 03b9 00       		.byte	0
ARM GAS  /tmp/ccLyIQGT.s 			page 75


 4213 03ba 00       		.byte	0
 4214 03bb 48       		.uleb128 0x48
 4215 03bc 2E       		.uleb128 0x2e
 4216 03bd 00       		.byte	0
 4217 03be 3F       		.uleb128 0x3f
 4218 03bf 19       		.uleb128 0x19
 4219 03c0 3C       		.uleb128 0x3c
 4220 03c1 19       		.uleb128 0x19
 4221 03c2 6E       		.uleb128 0x6e
 4222 03c3 0E       		.uleb128 0xe
 4223 03c4 03       		.uleb128 0x3
 4224 03c5 0E       		.uleb128 0xe
 4225 03c6 3A       		.uleb128 0x3a
 4226 03c7 0B       		.uleb128 0xb
 4227 03c8 3B       		.uleb128 0x3b
 4228 03c9 05       		.uleb128 0x5
 4229 03ca 00       		.byte	0
 4230 03cb 00       		.byte	0
 4231 03cc 49       		.uleb128 0x49
 4232 03cd 2E       		.uleb128 0x2e
 4233 03ce 00       		.byte	0
 4234 03cf 3F       		.uleb128 0x3f
 4235 03d0 19       		.uleb128 0x19
 4236 03d1 3C       		.uleb128 0x3c
 4237 03d2 19       		.uleb128 0x19
 4238 03d3 6E       		.uleb128 0x6e
 4239 03d4 0E       		.uleb128 0xe
 4240 03d5 03       		.uleb128 0x3
 4241 03d6 0E       		.uleb128 0xe
 4242 03d7 3A       		.uleb128 0x3a
 4243 03d8 0B       		.uleb128 0xb
 4244 03d9 3B       		.uleb128 0x3b
 4245 03da 0B       		.uleb128 0xb
 4246 03db 00       		.byte	0
 4247 03dc 00       		.byte	0
 4248 03dd 00       		.byte	0
 4249              		.section	.debug_loc,"",%progbits
 4250              	.Ldebug_loc0:
 4251              	.LLST0:
 4252 0000 00000000 		.4byte	.LVL0
 4253 0004 38000000 		.4byte	.LVL1
 4254 0008 0100     		.2byte	0x1
 4255 000a 50       		.byte	0x50
 4256 000b 38000000 		.4byte	.LVL1
 4257 000f 48000000 		.4byte	.LFE260
 4258 0013 0400     		.2byte	0x4
 4259 0015 F3       		.byte	0xf3
 4260 0016 01       		.uleb128 0x1
 4261 0017 50       		.byte	0x50
 4262 0018 9F       		.byte	0x9f
 4263 0019 00000000 		.4byte	0
 4264 001d 00000000 		.4byte	0
 4265              	.LLST1:
 4266 0021 00000000 		.4byte	.LVL2
 4267 0025 0A000000 		.4byte	.LVL3
 4268 0029 0100     		.2byte	0x1
 4269 002b 50       		.byte	0x50
ARM GAS  /tmp/ccLyIQGT.s 			page 76


 4270 002c 0A000000 		.4byte	.LVL3
 4271 0030 42000000 		.4byte	.LVL6
 4272 0034 0100     		.2byte	0x1
 4273 0036 54       		.byte	0x54
 4274 0037 42000000 		.4byte	.LVL6
 4275 003b 44000000 		.4byte	.LVL7
 4276 003f 0100     		.2byte	0x1
 4277 0041 50       		.byte	0x50
 4278 0042 44000000 		.4byte	.LVL7
 4279 0046 50000000 		.4byte	.LFE263
 4280 004a 0100     		.2byte	0x1
 4281 004c 54       		.byte	0x54
 4282 004d 00000000 		.4byte	0
 4283 0051 00000000 		.4byte	0
 4284              	.LLST2:
 4285 0055 00000000 		.4byte	.LVL2
 4286 0059 0A000000 		.4byte	.LVL3
 4287 005d 0100     		.2byte	0x1
 4288 005f 51       		.byte	0x51
 4289 0060 0A000000 		.4byte	.LVL3
 4290 0064 42000000 		.4byte	.LVL6
 4291 0068 0400     		.2byte	0x4
 4292 006a F3       		.byte	0xf3
 4293 006b 01       		.uleb128 0x1
 4294 006c 51       		.byte	0x51
 4295 006d 9F       		.byte	0x9f
 4296 006e 42000000 		.4byte	.LVL6
 4297 0072 47000000 		.4byte	.LVL8-1
 4298 0076 0100     		.2byte	0x1
 4299 0078 51       		.byte	0x51
 4300 0079 47000000 		.4byte	.LVL8-1
 4301 007d 50000000 		.4byte	.LFE263
 4302 0081 0400     		.2byte	0x4
 4303 0083 F3       		.byte	0xf3
 4304 0084 01       		.uleb128 0x1
 4305 0085 51       		.byte	0x51
 4306 0086 9F       		.byte	0x9f
 4307 0087 00000000 		.4byte	0
 4308 008b 00000000 		.4byte	0
 4309              	.LLST3:
 4310 008f 00000000 		.4byte	.LVL9
 4311 0093 0A000000 		.4byte	.LVL10
 4312 0097 0100     		.2byte	0x1
 4313 0099 50       		.byte	0x50
 4314 009a 0A000000 		.4byte	.LVL10
 4315 009e 20000000 		.4byte	.LVL11
 4316 00a2 0100     		.2byte	0x1
 4317 00a4 54       		.byte	0x54
 4318 00a5 20000000 		.4byte	.LVL11
 4319 00a9 21000000 		.4byte	.LVL12-1
 4320 00ad 0100     		.2byte	0x1
 4321 00af 50       		.byte	0x50
 4322 00b0 21000000 		.4byte	.LVL12-1
 4323 00b4 22000000 		.4byte	.LVL12
 4324 00b8 0400     		.2byte	0x4
 4325 00ba F3       		.byte	0xf3
 4326 00bb 01       		.uleb128 0x1
ARM GAS  /tmp/ccLyIQGT.s 			page 77


 4327 00bc 50       		.byte	0x50
 4328 00bd 9F       		.byte	0x9f
 4329 00be 22000000 		.4byte	.LVL12
 4330 00c2 82000000 		.4byte	.LVL16
 4331 00c6 0100     		.2byte	0x1
 4332 00c8 54       		.byte	0x54
 4333 00c9 82000000 		.4byte	.LVL16
 4334 00cd 84000000 		.4byte	.LVL17
 4335 00d1 0100     		.2byte	0x1
 4336 00d3 50       		.byte	0x50
 4337 00d4 84000000 		.4byte	.LVL17
 4338 00d8 90000000 		.4byte	.LFE262
 4339 00dc 0100     		.2byte	0x1
 4340 00de 54       		.byte	0x54
 4341 00df 00000000 		.4byte	0
 4342 00e3 00000000 		.4byte	0
 4343              	.LLST4:
 4344 00e7 00000000 		.4byte	.LVL9
 4345 00eb 0A000000 		.4byte	.LVL10
 4346 00ef 0100     		.2byte	0x1
 4347 00f1 51       		.byte	0x51
 4348 00f2 0A000000 		.4byte	.LVL10
 4349 00f6 82000000 		.4byte	.LVL16
 4350 00fa 0400     		.2byte	0x4
 4351 00fc F3       		.byte	0xf3
 4352 00fd 01       		.uleb128 0x1
 4353 00fe 51       		.byte	0x51
 4354 00ff 9F       		.byte	0x9f
 4355 0100 82000000 		.4byte	.LVL16
 4356 0104 87000000 		.4byte	.LVL18-1
 4357 0108 0100     		.2byte	0x1
 4358 010a 51       		.byte	0x51
 4359 010b 87000000 		.4byte	.LVL18-1
 4360 010f 90000000 		.4byte	.LFE262
 4361 0113 0400     		.2byte	0x4
 4362 0115 F3       		.byte	0xf3
 4363 0116 01       		.uleb128 0x1
 4364 0117 51       		.byte	0x51
 4365 0118 9F       		.byte	0x9f
 4366 0119 00000000 		.4byte	0
 4367 011d 00000000 		.4byte	0
 4368              	.LLST5:
 4369 0121 22000000 		.4byte	.LVL12
 4370 0125 80000000 		.4byte	.LVL15
 4371 0129 0400     		.2byte	0x4
 4372 012b F3       		.byte	0xf3
 4373 012c 01       		.uleb128 0x1
 4374 012d 51       		.byte	0x51
 4375 012e 9F       		.byte	0x9f
 4376 012f 00000000 		.4byte	0
 4377 0133 00000000 		.4byte	0
 4378              	.LLST6:
 4379 0137 22000000 		.4byte	.LVL12
 4380 013b 80000000 		.4byte	.LVL15
 4381 013f 0100     		.2byte	0x1
 4382 0141 54       		.byte	0x54
 4383 0142 00000000 		.4byte	0
ARM GAS  /tmp/ccLyIQGT.s 			page 78


 4384 0146 00000000 		.4byte	0
 4385              	.LLST7:
 4386 014a 74000000 		.4byte	.LVL14
 4387 014e 80000000 		.4byte	.LVL15
 4388 0152 0100     		.2byte	0x1
 4389 0154 54       		.byte	0x54
 4390 0155 00000000 		.4byte	0
 4391 0159 00000000 		.4byte	0
 4392              	.LLST8:
 4393 015d 00000000 		.4byte	.LVL19
 4394 0161 6E000000 		.4byte	.LVL31
 4395 0165 0600     		.2byte	0x6
 4396 0167 03       		.byte	0x3
 4397 0168 00000000 		.4byte	UARTD2
 4398 016c 9F       		.byte	0x9f
 4399 016d 00000000 		.4byte	0
 4400 0171 00000000 		.4byte	0
 4401              	.LLST9:
 4402 0175 0A000000 		.4byte	.LVL22
 4403 0179 6E000000 		.4byte	.LVL31
 4404 017d 0100     		.2byte	0x1
 4405 017f 55       		.byte	0x55
 4406 0180 00000000 		.4byte	0
 4407 0184 00000000 		.4byte	0
 4408              	.LLST10:
 4409 0188 06000000 		.4byte	.LVL20
 4410 018c 6E000000 		.4byte	.LVL31
 4411 0190 0100     		.2byte	0x1
 4412 0192 54       		.byte	0x54
 4413 0193 00000000 		.4byte	0
 4414 0197 00000000 		.4byte	0
 4415              	.LLST11:
 4416 019b 08000000 		.4byte	.LVL21
 4417 019f 60000000 		.4byte	.LVL30
 4418 01a3 0100     		.2byte	0x1
 4419 01a5 57       		.byte	0x57
 4420 01a6 00000000 		.4byte	0
 4421 01aa 00000000 		.4byte	0
 4422              	.LLST12:
 4423 01ae 22000000 		.4byte	.LVL23
 4424 01b2 4C000000 		.4byte	.LVL28
 4425 01b6 0100     		.2byte	0x1
 4426 01b8 55       		.byte	0x55
 4427 01b9 00000000 		.4byte	0
 4428 01bd 00000000 		.4byte	0
 4429              	.LLST13:
 4430 01c1 22000000 		.4byte	.LVL23
 4431 01c5 2C000000 		.4byte	.LVL24
 4432 01c9 0200     		.2byte	0x2
 4433 01cb 30       		.byte	0x30
 4434 01cc 9F       		.byte	0x9f
 4435 01cd 2C000000 		.4byte	.LVL24
 4436 01d1 4C000000 		.4byte	.LVL28
 4437 01d5 0100     		.2byte	0x1
 4438 01d7 51       		.byte	0x51
 4439 01d8 00000000 		.4byte	0
 4440 01dc 00000000 		.4byte	0
ARM GAS  /tmp/ccLyIQGT.s 			page 79


 4441              	.LLST14:
 4442 01e0 00000000 		.4byte	.LVL34
 4443 01e4 0C000000 		.4byte	.LVL35
 4444 01e8 0100     		.2byte	0x1
 4445 01ea 50       		.byte	0x50
 4446 01eb 0C000000 		.4byte	.LVL35
 4447 01ef 74000000 		.4byte	.LVL38
 4448 01f3 0100     		.2byte	0x1
 4449 01f5 54       		.byte	0x54
 4450 01f6 74000000 		.4byte	.LVL38
 4451 01fa 88000000 		.4byte	.LVL42
 4452 01fe 0300     		.2byte	0x3
 4453 0200 74       		.byte	0x74
 4454 0201 68       		.sleb128 -24
 4455 0202 9F       		.byte	0x9f
 4456 0203 88000000 		.4byte	.LVL42
 4457 0207 8E000000 		.4byte	.LVL43
 4458 020b 0100     		.2byte	0x1
 4459 020d 50       		.byte	0x50
 4460 020e 8E000000 		.4byte	.LVL43
 4461 0212 CA000000 		.4byte	.LVL46
 4462 0216 0100     		.2byte	0x1
 4463 0218 54       		.byte	0x54
 4464 0219 CA000000 		.4byte	.LVL46
 4465 021d D0000000 		.4byte	.LVL47
 4466 0221 0100     		.2byte	0x1
 4467 0223 50       		.byte	0x50
 4468 0224 D0000000 		.4byte	.LVL47
 4469 0228 1C010000 		.4byte	.LFE267
 4470 022c 0100     		.2byte	0x1
 4471 022e 54       		.byte	0x54
 4472 022f 00000000 		.4byte	0
 4473 0233 00000000 		.4byte	0
 4474              	.LLST15:
 4475 0237 12000000 		.4byte	.LVL36
 4476 023b 74000000 		.4byte	.LVL38
 4477 023f 0100     		.2byte	0x1
 4478 0241 54       		.byte	0x54
 4479 0242 74000000 		.4byte	.LVL38
 4480 0246 86000000 		.4byte	.LVL41
 4481 024a 0300     		.2byte	0x3
 4482 024c 74       		.byte	0x74
 4483 024d 68       		.sleb128 -24
 4484 024e 9F       		.byte	0x9f
 4485 024f B2000000 		.4byte	.LVL44
 4486 0253 C0000000 		.4byte	.LVL45
 4487 0257 0100     		.2byte	0x1
 4488 0259 54       		.byte	0x54
 4489 025a 00000000 		.4byte	0
 4490 025e 00000000 		.4byte	0
 4491              	.LLST16:
 4492 0262 78000000 		.4byte	.LVL39
 4493 0266 88000000 		.4byte	.LVL42
 4494 026a 0400     		.2byte	0x4
 4495 026c 0A       		.byte	0xa
 4496 026d 0C21     		.2byte	0x210c
 4497 026f 9F       		.byte	0x9f
ARM GAS  /tmp/ccLyIQGT.s 			page 80


 4498 0270 00000000 		.4byte	0
 4499 0274 00000000 		.4byte	0
 4500              	.LLST17:
 4501 0278 12000000 		.4byte	.LVL36
 4502 027c 17000000 		.4byte	.LVL37-1
 4503 0280 0200     		.2byte	0x2
 4504 0282 74       		.byte	0x74
 4505 0283 08       		.sleb128 8
 4506 0284 00000000 		.4byte	0
 4507 0288 00000000 		.4byte	0
 4508              	.LLST18:
 4509 028c 7A000000 		.4byte	.LVL40
 4510 0290 86000000 		.4byte	.LVL41
 4511 0294 0300     		.2byte	0x3
 4512 0296 74       		.byte	0x74
 4513 0297 68       		.sleb128 -24
 4514 0298 9F       		.byte	0x9f
 4515 0299 00000000 		.4byte	0
 4516 029d 00000000 		.4byte	0
 4517              	.LLST19:
 4518 02a1 00000000 		.4byte	.LVL51
 4519 02a5 0F000000 		.4byte	.LVL52-1
 4520 02a9 0100     		.2byte	0x1
 4521 02ab 50       		.byte	0x50
 4522 02ac 0F000000 		.4byte	.LVL52-1
 4523 02b0 40000000 		.4byte	.LFE268
 4524 02b4 0100     		.2byte	0x1
 4525 02b6 54       		.byte	0x54
 4526 02b7 00000000 		.4byte	0
 4527 02bb 00000000 		.4byte	0
 4528              	.LLST20:
 4529 02bf 00000000 		.4byte	.LVL57
 4530 02c3 1E000000 		.4byte	.LVL59
 4531 02c7 0100     		.2byte	0x1
 4532 02c9 51       		.byte	0x51
 4533 02ca 1E000000 		.4byte	.LVL59
 4534 02ce 34000000 		.4byte	.LFE269
 4535 02d2 0400     		.2byte	0x4
 4536 02d4 F3       		.byte	0xf3
 4537 02d5 01       		.uleb128 0x1
 4538 02d6 51       		.byte	0x51
 4539 02d7 9F       		.byte	0x9f
 4540 02d8 00000000 		.4byte	0
 4541 02dc 00000000 		.4byte	0
 4542              	.LLST21:
 4543 02e0 00000000 		.4byte	.LVL57
 4544 02e4 1A000000 		.4byte	.LVL58
 4545 02e8 0100     		.2byte	0x1
 4546 02ea 52       		.byte	0x52
 4547 02eb 1A000000 		.4byte	.LVL58
 4548 02ef 34000000 		.4byte	.LFE269
 4549 02f3 0400     		.2byte	0x4
 4550 02f5 F3       		.byte	0xf3
 4551 02f6 01       		.uleb128 0x1
 4552 02f7 52       		.byte	0x52
 4553 02f8 9F       		.byte	0x9f
 4554 02f9 00000000 		.4byte	0
ARM GAS  /tmp/ccLyIQGT.s 			page 81


 4555 02fd 00000000 		.4byte	0
 4556              	.LLST22:
 4557 0301 00000000 		.4byte	.LVL60
 4558 0305 14000000 		.4byte	.LVL61
 4559 0309 0100     		.2byte	0x1
 4560 030b 50       		.byte	0x50
 4561 030c 14000000 		.4byte	.LVL61
 4562 0310 20000000 		.4byte	.LFE270
 4563 0314 0400     		.2byte	0x4
 4564 0316 F3       		.byte	0xf3
 4565 0317 01       		.uleb128 0x1
 4566 0318 50       		.byte	0x50
 4567 0319 9F       		.byte	0x9f
 4568 031a 00000000 		.4byte	0
 4569 031e 00000000 		.4byte	0
 4570              	.LLST23:
 4571 0322 00000000 		.4byte	.LVL63
 4572 0326 04000000 		.4byte	.LVL64
 4573 032a 0100     		.2byte	0x1
 4574 032c 50       		.byte	0x50
 4575 032d 04000000 		.4byte	.LVL64
 4576 0331 38000000 		.4byte	.LVL67
 4577 0335 0100     		.2byte	0x1
 4578 0337 51       		.byte	0x51
 4579 0338 38000000 		.4byte	.LVL67
 4580 033c 4A000000 		.4byte	.LFE272
 4581 0340 0400     		.2byte	0x4
 4582 0342 F3       		.byte	0xf3
 4583 0343 01       		.uleb128 0x1
 4584 0344 50       		.byte	0x50
 4585 0345 9F       		.byte	0x9f
 4586 0346 00000000 		.4byte	0
 4587 034a 00000000 		.4byte	0
 4588              	.LLST24:
 4589 034e 28000000 		.4byte	.LVL65
 4590 0352 38000000 		.4byte	.LVL67
 4591 0356 0100     		.2byte	0x1
 4592 0358 51       		.byte	0x51
 4593 0359 38000000 		.4byte	.LVL67
 4594 035d 46000000 		.4byte	.LVL69
 4595 0361 0300     		.2byte	0x3
 4596 0363 71       		.byte	0x71
 4597 0364 68       		.sleb128 -24
 4598 0365 9F       		.byte	0x9f
 4599 0366 00000000 		.4byte	0
 4600 036a 00000000 		.4byte	0
 4601              	.LLST25:
 4602 036e 34000000 		.4byte	.LVL66
 4603 0372 3A000000 		.4byte	.LVL68
 4604 0376 0100     		.2byte	0x1
 4605 0378 54       		.byte	0x54
 4606 0379 00000000 		.4byte	0
 4607 037d 00000000 		.4byte	0
 4608              		.section	.debug_aranges,"",%progbits
 4609 0000 6C000000 		.4byte	0x6c
 4610 0004 0200     		.2byte	0x2
 4611 0006 00000000 		.4byte	.Ldebug_info0
ARM GAS  /tmp/ccLyIQGT.s 			page 82


 4612 000a 04       		.byte	0x4
 4613 000b 00       		.byte	0
 4614 000c 0000     		.2byte	0
 4615 000e 0000     		.2byte	0
 4616 0010 00000000 		.4byte	.LFB260
 4617 0014 48000000 		.4byte	.LFE260-.LFB260
 4618 0018 00000000 		.4byte	.LFB263
 4619 001c 50000000 		.4byte	.LFE263-.LFB263
 4620 0020 00000000 		.4byte	.LFB262
 4621 0024 90000000 		.4byte	.LFE262-.LFB262
 4622 0028 00000000 		.4byte	.LFB265
 4623 002c 7C000000 		.4byte	.LFE265-.LFB265
 4624 0030 00000000 		.4byte	.LFB266
 4625 0034 2C000000 		.4byte	.LFE266-.LFB266
 4626 0038 00000000 		.4byte	.LFB267
 4627 003c 1C010000 		.4byte	.LFE267-.LFB267
 4628 0040 00000000 		.4byte	.LFB268
 4629 0044 40000000 		.4byte	.LFE268-.LFB268
 4630 0048 00000000 		.4byte	.LFB269
 4631 004c 34000000 		.4byte	.LFE269-.LFB269
 4632 0050 00000000 		.4byte	.LFB270
 4633 0054 20000000 		.4byte	.LFE270-.LFB270
 4634 0058 00000000 		.4byte	.LFB271
 4635 005c 36000000 		.4byte	.LFE271-.LFB271
 4636 0060 00000000 		.4byte	.LFB272
 4637 0064 4A000000 		.4byte	.LFE272-.LFB272
 4638 0068 00000000 		.4byte	0
 4639 006c 00000000 		.4byte	0
 4640              		.section	.debug_ranges,"",%progbits
 4641              	.Ldebug_ranges0:
 4642 0000 58000000 		.4byte	.LBB28
 4643 0004 6A000000 		.4byte	.LBE28
 4644 0008 6C000000 		.4byte	.LBB32
 4645 000c 72000000 		.4byte	.LBE32
 4646 0010 74000000 		.4byte	.LBB33
 4647 0014 82000000 		.4byte	.LBE33
 4648 0018 00000000 		.4byte	0
 4649 001c 00000000 		.4byte	0
 4650 0020 12000000 		.4byte	.LBB49
 4651 0024 88000000 		.4byte	.LBE49
 4652 0028 B2000000 		.4byte	.LBB68
 4653 002c C0000000 		.4byte	.LBE68
 4654 0030 00000000 		.4byte	0
 4655 0034 00000000 		.4byte	0
 4656 0038 34000000 		.4byte	.LBB51
 4657 003c 36000000 		.4byte	.LBE51
 4658 0040 3C000000 		.4byte	.LBB60
 4659 0044 3E000000 		.4byte	.LBE60
 4660 0048 42000000 		.4byte	.LBB61
 4661 004c 48000000 		.4byte	.LBE61
 4662 0050 56000000 		.4byte	.LBB62
 4663 0054 60000000 		.4byte	.LBE62
 4664 0058 6A000000 		.4byte	.LBB63
 4665 005c 6C000000 		.4byte	.LBE63
 4666 0060 6E000000 		.4byte	.LBB64
 4667 0064 70000000 		.4byte	.LBE64
 4668 0068 72000000 		.4byte	.LBB65
ARM GAS  /tmp/ccLyIQGT.s 			page 83


 4669 006c 74000000 		.4byte	.LBE65
 4670 0070 7A000000 		.4byte	.LBB66
 4671 0074 88000000 		.4byte	.LBE66
 4672 0078 00000000 		.4byte	0
 4673 007c 00000000 		.4byte	0
 4674 0080 16000000 		.4byte	.LBB70
 4675 0084 18000000 		.4byte	.LBE70
 4676 0088 1A000000 		.4byte	.LBB75
 4677 008c 1C000000 		.4byte	.LBE75
 4678 0090 24000000 		.4byte	.LBB76
 4679 0094 26000000 		.4byte	.LBE76
 4680 0098 28000000 		.4byte	.LBB77
 4681 009c 46000000 		.4byte	.LBE77
 4682 00a0 00000000 		.4byte	0
 4683 00a4 00000000 		.4byte	0
 4684 00a8 00000000 		.4byte	.LFB260
 4685 00ac 48000000 		.4byte	.LFE260
 4686 00b0 00000000 		.4byte	.LFB263
 4687 00b4 50000000 		.4byte	.LFE263
 4688 00b8 00000000 		.4byte	.LFB262
 4689 00bc 90000000 		.4byte	.LFE262
 4690 00c0 00000000 		.4byte	.LFB265
 4691 00c4 7C000000 		.4byte	.LFE265
 4692 00c8 00000000 		.4byte	.LFB266
 4693 00cc 2C000000 		.4byte	.LFE266
 4694 00d0 00000000 		.4byte	.LFB267
 4695 00d4 1C010000 		.4byte	.LFE267
 4696 00d8 00000000 		.4byte	.LFB268
 4697 00dc 40000000 		.4byte	.LFE268
 4698 00e0 00000000 		.4byte	.LFB269
 4699 00e4 34000000 		.4byte	.LFE269
 4700 00e8 00000000 		.4byte	.LFB270
 4701 00ec 20000000 		.4byte	.LFE270
 4702 00f0 00000000 		.4byte	.LFB271
 4703 00f4 36000000 		.4byte	.LFE271
 4704 00f8 00000000 		.4byte	.LFB272
 4705 00fc 4A000000 		.4byte	.LFE272
 4706 0100 00000000 		.4byte	0
 4707 0104 00000000 		.4byte	0
 4708              		.section	.debug_line,"",%progbits
 4709              	.Ldebug_line0:
 4710 0000 6E060000 		.section	.debug_str,"MS",%progbits,1
 4710      02007703 
 4710      00000201 
 4710      FB0E0D00 
 4710      01010101 
 4711              	.LASF197:
 4712 0000 75617274 		.ascii	"uart_lld_start_receive\000"
 4712      5F6C6C64 
 4712      5F737461 
 4712      72745F72 
 4712      65636569 
 4713              	.LASF49:
 4714 0017 74687265 		.ascii	"threads_list_t\000"
 4714      6164735F 
 4714      6C697374 
 4714      5F7400
ARM GAS  /tmp/ccLyIQGT.s 			page 84


 4715              	.LASF54:
 4716 0026 72656164 		.ascii	"ready_list_t\000"
 4716      795F6C69 
 4716      73745F74 
 4716      00
 4717              	.LASF191:
 4718 0033 75617274 		.ascii	"uart_lld_init\000"
 4718      5F6C6C64 
 4718      5F696E69 
 4718      7400
 4719              	.LASF4:
 4720 0041 73697A65 		.ascii	"size_t\000"
 4720      5F7400
 4721              	.LASF176:
 4722 0048 72786368 		.ascii	"rxchar_cb\000"
 4722      61725F63 
 4722      6200
 4723              	.LASF123:
 4724 0052 7264796D 		.ascii	"rdymsg\000"
 4724      736700
 4725              	.LASF20:
 4726 0059 75696E74 		.ascii	"uint64_t\000"
 4726      36345F74 
 4726      00
 4727              	.LASF84:
 4728 0062 4D304152 		.ascii	"M0AR\000"
 4728      00
 4729              	.LASF5:
 4730 0067 5F5F7569 		.ascii	"__uint8_t\000"
 4730      6E74385F 
 4730      7400
 4731              	.LASF151:
 4732 0071 55415254 		.ascii	"UART_TX_IDLE\000"
 4732      5F54585F 
 4732      49444C45 
 4732      00
 4733              	.LASF205:
 4734 007e 75617274 		.ascii	"uartObjectInit\000"
 4734      4F626A65 
 4734      6374496E 
 4734      697400
 4735              	.LASF120:
 4736 008d 706F7274 		.ascii	"port_intctx\000"
 4736      5F696E74 
 4736      63747800 
 4737              	.LASF73:
 4738 0099 73797374 		.ascii	"system_debug_t\000"
 4738      656D5F64 
 4738      65627567 
 4738      5F7400
 4739              	.LASF139:
 4740 00a8 73747265 		.ascii	"stream\000"
 4740      616D00
 4741              	.LASF167:
 4742 00af 646D6172 		.ascii	"dmarx\000"
 4742      7800
 4743              	.LASF188:
ARM GAS  /tmp/ccLyIQGT.s 			page 85


 4744 00b5 75736172 		.ascii	"usart_stop\000"
 4744      745F7374 
 4744      6F7000
 4745              	.LASF104:
 4746 00c0 41484232 		.ascii	"AHB2LPENR\000"
 4746      4C50454E 
 4746      5200
 4747              	.LASF131:
 4748 00ca 735F7175 		.ascii	"s_queue\000"
 4748      65756500 
 4749              	.LASF124:
 4750 00d2 65786974 		.ascii	"exitcode\000"
 4750      636F6465 
 4750      00
 4751              	.LASF143:
 4752 00db 76656374 		.ascii	"vector\000"
 4752      6F7200
 4753              	.LASF201:
 4754 00e2 5F73746D 		.ascii	"_stm32_dma_streams\000"
 4754      33325F64 
 4754      6D615F73 
 4754      74726561 
 4754      6D7300
 4755              	.LASF70:
 4756 00f5 76697274 		.ascii	"virtual_timers_list_t\000"
 4756      75616C5F 
 4756      74696D65 
 4756      72735F6C 
 4756      6973745F 
 4757              	.LASF179:
 4758 010b 55415254 		.ascii	"UARTConfig\000"
 4758      436F6E66 
 4758      696700
 4759              	.LASF200:
 4760 0116 49544D5F 		.ascii	"ITM_RxBuffer\000"
 4760      52784275 
 4760      66666572 
 4760      00
 4761              	.LASF169:
 4762 0123 72786275 		.ascii	"rxbuf\000"
 4762      6600
 4763              	.LASF53:
 4764 0129 63685F74 		.ascii	"ch_threads_queue\000"
 4764      68726561 
 4764      64735F71 
 4764      75657565 
 4764      00
 4765              	.LASF103:
 4766 013a 41484231 		.ascii	"AHB1LPENR\000"
 4766      4C50454E 
 4766      5200
 4767              	.LASF33:
 4768 0144 705F7072 		.ascii	"p_prio\000"
 4768      696F00
 4769              	.LASF207:
 4770 014b 6E766963 		.ascii	"nvicEnableVector\000"
 4770      456E6162 
ARM GAS  /tmp/ccLyIQGT.s 			page 86


 4770      6C655665 
 4770      63746F72 
 4770      00
 4771              	.LASF199:
 4772 015c 75617274 		.ascii	"uart_lld_stop_receive\000"
 4772      5F6C6C64 
 4772      5F73746F 
 4772      705F7265 
 4772      63656976 
 4773              	.LASF1:
 4774 0172 6C6F6E67 		.ascii	"long long int\000"
 4774      206C6F6E 
 4774      6720696E 
 4774      7400
 4775              	.LASF3:
 4776 0180 7369676E 		.ascii	"signed char\000"
 4776      65642063 
 4776      68617200 
 4777              	.LASF170:
 4778 018c 75617274 		.ascii	"uartcb_t\000"
 4778      63625F74 
 4778      00
 4779              	.LASF89:
 4780 0195 41484231 		.ascii	"AHB1RSTR\000"
 4780      52535452 
 4780      00
 4781              	.LASF115:
 4782 019e 47545052 		.ascii	"GTPR\000"
 4782      00
 4783              	.LASF47:
 4784 01a3 705F6D70 		.ascii	"p_mpool\000"
 4784      6F6F6C00 
 4785              	.LASF163:
 4786 01ab 72787374 		.ascii	"rxstate\000"
 4786      61746500 
 4787              	.LASF134:
 4788 01b3 6D5F7175 		.ascii	"m_queue\000"
 4788      65756500 
 4789              	.LASF157:
 4790 01bb 55415254 		.ascii	"UART_RX_COMPLETE\000"
 4790      5F52585F 
 4790      434F4D50 
 4790      4C455445 
 4790      00
 4791              	.LASF145:
 4792 01cc 73746D33 		.ascii	"stm32_dmaisr_t\000"
 4792      325F646D 
 4792      61697372 
 4792      5F7400
 4793              	.LASF161:
 4794 01db 73746174 		.ascii	"state\000"
 4794      6500
 4795              	.LASF162:
 4796 01e1 74787374 		.ascii	"txstate\000"
 4796      61746500 
 4797              	.LASF11:
 4798 01e9 6C6F6E67 		.ascii	"long int\000"
ARM GAS  /tmp/ccLyIQGT.s 			page 87


 4798      20696E74 
 4798      00
 4799              	.LASF94:
 4800 01f2 41504232 		.ascii	"APB2RSTR\000"
 4800      52535452 
 4800      00
 4801              	.LASF107:
 4802 01fb 41504231 		.ascii	"APB1LPENR\000"
 4802      4C50454E 
 4802      5200
 4803              	.LASF23:
 4804 0205 74737461 		.ascii	"tstate_t\000"
 4804      74655F74 
 4804      00
 4805              	.LASF17:
 4806 020e 75696E74 		.ascii	"uint16_t\000"
 4806      31365F74 
 4806      00
 4807              	.LASF15:
 4808 0217 6C6F6E67 		.ascii	"long long unsigned int\000"
 4808      206C6F6E 
 4808      6720756E 
 4808      7369676E 
 4808      65642069 
 4809              	.LASF210:
 4810 022e 474E5520 		.ascii	"GNU C11 5.4.1 20160609 (release) [ARM/embedded-5-br"
 4810      43313120 
 4810      352E342E 
 4810      31203230 
 4810      31363036 
 4811 0261 616E6368 		.ascii	"anch revision 237715] -mcpu=cortex-m4 -mno-thumb-in"
 4811      20726576 
 4811      6973696F 
 4811      6E203233 
 4811      37373135 
 4812 0294 74657277 		.ascii	"terwork -mthumb -ggdb -O2 -fomit-frame-pointer -fal"
 4812      6F726B20 
 4812      2D6D7468 
 4812      756D6220 
 4812      2D676764 
 4813 02c7 69676E2D 		.ascii	"ign-functions=16 -ffunction-sections -fdata-section"
 4813      66756E63 
 4813      74696F6E 
 4813      733D3136 
 4813      202D6666 
 4814 02fa 73202D66 		.ascii	"s -fno-common\000"
 4814      6E6F2D63 
 4814      6F6D6D6F 
 4814      6E00
 4815              	.LASF35:
 4816 0308 705F6E65 		.ascii	"p_newer\000"
 4816      77657200 
 4817              	.LASF87:
 4818 0310 504C4C43 		.ascii	"PLLCFGR\000"
 4818      46475200 
 4819              	.LASF158:
 4820 0318 75617274 		.ascii	"uartrxstate_t\000"
ARM GAS  /tmp/ccLyIQGT.s 			page 88


 4820      72787374 
 4820      6174655F 
 4820      7400
 4821              	.LASF2:
 4822 0326 6C6F6E67 		.ascii	"long double\000"
 4822      20646F75 
 4822      626C6500 
 4823              	.LASF160:
 4824 0332 55415254 		.ascii	"UARTDriver\000"
 4824      44726976 
 4824      657200
 4825              	.LASF59:
 4826 033d 725F6E65 		.ascii	"r_newer\000"
 4826      77657200 
 4827              	.LASF117:
 4828 0345 72656761 		.ascii	"regarm_t\000"
 4828      726D5F74 
 4828      00
 4829              	.LASF66:
 4830 034e 76745F70 		.ascii	"vt_prev\000"
 4830      72657600 
 4831              	.LASF79:
 4832 0356 76746C69 		.ascii	"vtlist\000"
 4832      737400
 4833              	.LASF194:
 4834 035d 75617274 		.ascii	"uart_lld_stop\000"
 4834      5F6C6C64 
 4834      5F73746F 
 4834      7000
 4835              	.LASF180:
 4836 036b 7365745F 		.ascii	"set_rx_idle_loop\000"
 4836      72785F69 
 4836      646C655F 
 4836      6C6F6F70 
 4836      00
 4837              	.LASF138:
 4838 037c 6D757465 		.ascii	"mutex_t\000"
 4838      785F7400 
 4839              	.LASF81:
 4840 0384 69646C65 		.ascii	"idle_thread_wa\000"
 4840      5F746872 
 4840      6561645F 
 4840      776100
 4841              	.LASF152:
 4842 0393 55415254 		.ascii	"UART_TX_ACTIVE\000"
 4842      5F54585F 
 4842      41435449 
 4842      564500
 4843              	.LASF165:
 4844 03a2 75736172 		.ascii	"usart\000"
 4844      7400
 4845              	.LASF0:
 4846 03a8 756E7369 		.ascii	"unsigned int\000"
 4846      676E6564 
 4846      20696E74 
 4846      00
 4847              	.LASF65:
ARM GAS  /tmp/ccLyIQGT.s 			page 89


 4848 03b5 76745F6E 		.ascii	"vt_next\000"
 4848      65787400 
 4849              	.LASF196:
 4850 03bd 74786275 		.ascii	"txbuf\000"
 4850      6600
 4851              	.LASF209:
 4852 03c3 6E766963 		.ascii	"nvicDisableVector\000"
 4852      44697361 
 4852      626C6556 
 4852      6563746F 
 4852      7200
 4853              	.LASF127:
 4854 03d5 77747365 		.ascii	"wtsemp\000"
 4854      6D7000
 4855              	.LASF198:
 4856 03dc 75617274 		.ascii	"uart_lld_stop_send\000"
 4856      5F6C6C64 
 4856      5F73746F 
 4856      705F7365 
 4856      6E6400
 4857              	.LASF42:
 4858 03ef 705F6D73 		.ascii	"p_msgqueue\000"
 4858      67717565 
 4858      756500
 4859              	.LASF172:
 4860 03fa 75617274 		.ascii	"uartecb_t\000"
 4860      6563625F 
 4860      7400
 4861              	.LASF114:
 4862 0404 5243435F 		.ascii	"RCC_TypeDef\000"
 4862      54797065 
 4862      44656600 
 4863              	.LASF141:
 4864 0410 69736869 		.ascii	"ishift\000"
 4864      667400
 4865              	.LASF132:
 4866 0417 735F636E 		.ascii	"s_cnt\000"
 4866      7400
 4867              	.LASF9:
 4868 041d 73686F72 		.ascii	"short unsigned int\000"
 4868      7420756E 
 4868      7369676E 
 4868      65642069 
 4868      6E7400
 4869              	.LASF147:
 4870 0430 55415254 		.ascii	"UART_UNINIT\000"
 4870      5F554E49 
 4870      4E495400 
 4871              	.LASF148:
 4872 043c 55415254 		.ascii	"UART_STOP\000"
 4872      5F53544F 
 4872      5000
 4873              	.LASF50:
 4874 0446 63685F74 		.ascii	"ch_thread\000"
 4874      68726561 
 4874      6400
 4875              	.LASF113:
ARM GAS  /tmp/ccLyIQGT.s 			page 90


 4876 0450 504C4C49 		.ascii	"PLLI2SCFGR\000"
 4876      32534346 
 4876      475200
 4877              	.LASF80:
 4878 045b 6D61696E 		.ascii	"mainthread\000"
 4878      74687265 
 4878      616400
 4879              	.LASF26:
 4880 0466 6D73675F 		.ascii	"msg_t\000"
 4880      7400
 4881              	.LASF91:
 4882 046c 41484233 		.ascii	"AHB3RSTR\000"
 4882      52535452 
 4882      00
 4883              	.LASF204:
 4884 0475 5F706F72 		.ascii	"_port_irq_epilogue\000"
 4884      745F6972 
 4884      715F6570 
 4884      696C6F67 
 4884      756500
 4885              	.LASF116:
 4886 0488 55534152 		.ascii	"USART_TypeDef\000"
 4886      545F5479 
 4886      70654465 
 4886      6600
 4887              	.LASF22:
 4888 0496 746D6F64 		.ascii	"tmode_t\000"
 4888      655F7400 
 4889              	.LASF108:
 4890 049e 41504232 		.ascii	"APB2LPENR\000"
 4890      4C50454E 
 4890      5200
 4891              	.LASF55:
 4892 04a8 63685F72 		.ascii	"ch_ready_list\000"
 4892      65616479 
 4892      5F6C6973 
 4892      7400
 4893              	.LASF27:
 4894 04b6 6576656E 		.ascii	"eventmask_t\000"
 4894      746D6173 
 4894      6B5F7400 
 4895              	.LASF10:
 4896 04c2 5F5F696E 		.ascii	"__int32_t\000"
 4896      7433325F 
 4896      7400
 4897              	.LASF190:
 4898 04cc 56656374 		.ascii	"VectorD8\000"
 4898      6F724438 
 4898      00
 4899              	.LASF118:
 4900 04d5 73746B61 		.ascii	"stkalign_t\000"
 4900      6C69676E 
 4900      5F7400
 4901              	.LASF149:
 4902 04e0 55415254 		.ascii	"UART_READY\000"
 4902      5F524541 
 4902      445900
ARM GAS  /tmp/ccLyIQGT.s 			page 91


 4903              	.LASF181:
 4904 04eb 6F73616C 		.ascii	"osalSysHalt\000"
 4904      53797348 
 4904      616C7400 
 4905              	.LASF186:
 4906 04f7 73657276 		.ascii	"serve_usart_irq\000"
 4906      655F7573 
 4906      6172745F 
 4906      69727100 
 4907              	.LASF63:
 4908 0507 76697274 		.ascii	"virtual_timer_t\000"
 4908      75616C5F 
 4908      74696D65 
 4908      725F7400 
 4909              	.LASF182:
 4910 0517 75617274 		.ascii	"uartp\000"
 4910      7000
 4911              	.LASF41:
 4912 051d 705F7761 		.ascii	"p_waiting\000"
 4912      6974696E 
 4912      6700
 4913              	.LASF203:
 4914 0527 63685379 		.ascii	"chSysHalt\000"
 4914      7348616C 
 4914      7400
 4915              	.LASF82:
 4916 0531 73697A65 		.ascii	"sizetype\000"
 4916      74797065 
 4916      00
 4917              	.LASF48:
 4918 053a 74687265 		.ascii	"thread_reference_t\000"
 4918      61645F72 
 4918      65666572 
 4918      656E6365 
 4918      5F7400
 4919              	.LASF71:
 4920 054d 63685F76 		.ascii	"ch_virtual_timers_list\000"
 4920      69727475 
 4920      616C5F74 
 4920      696D6572 
 4920      735F6C69 
 4921              	.LASF126:
 4922 0564 77747472 		.ascii	"wttrp\000"
 4922      7000
 4923              	.LASF31:
 4924 056a 705F6E65 		.ascii	"p_next\000"
 4924      787400
 4925              	.LASF177:
 4926 0571 72786572 		.ascii	"rxerr_cb\000"
 4926      725F6362 
 4926      00
 4927              	.LASF98:
 4928 057a 41484233 		.ascii	"AHB3ENR\000"
 4928      454E5200 
 4929              	.LASF72:
 4930 0582 76745F6C 		.ascii	"vt_lasttime\000"
 4930      61737474 
ARM GAS  /tmp/ccLyIQGT.s 			page 92


 4930      696D6500 
 4931              	.LASF189:
 4932 058e 75617274 		.ascii	"uart_lld_serve_tx_end_irq\000"
 4932      5F6C6C64 
 4932      5F736572 
 4932      76655F74 
 4932      785F656E 
 4933              	.LASF36:
 4934 05a8 705F6F6C 		.ascii	"p_older\000"
 4934      64657200 
 4935              	.LASF58:
 4936 05b0 725F6374 		.ascii	"r_ctx\000"
 4936      7800
 4937              	.LASF159:
 4938 05b6 75617274 		.ascii	"uartflags_t\000"
 4938      666C6167 
 4938      735F7400 
 4939              	.LASF175:
 4940 05c2 7278656E 		.ascii	"rxend_cb\000"
 4940      645F6362 
 4940      00
 4941              	.LASF122:
 4942 05cb 746D5F63 		.ascii	"tm_calibration_t\000"
 4942      616C6962 
 4942      72617469 
 4942      6F6E5F74 
 4942      00
 4943              	.LASF154:
 4944 05dc 75617274 		.ascii	"uarttxstate_t\000"
 4944      74787374 
 4944      6174655F 
 4944      7400
 4945              	.LASF61:
 4946 05ea 725F6375 		.ascii	"r_current\000"
 4946      7272656E 
 4946      7400
 4947              	.LASF93:
 4948 05f4 41504231 		.ascii	"APB1RSTR\000"
 4948      52535452 
 4948      00
 4949              	.LASF14:
 4950 05fd 5F5F7569 		.ascii	"__uint64_t\000"
 4950      6E743634 
 4950      5F7400
 4951              	.LASF168:
 4952 0608 646D6174 		.ascii	"dmatx\000"
 4952      7800
 4953              	.LASF92:
 4954 060e 52455345 		.ascii	"RESERVED0\000"
 4954      52564544 
 4954      3000
 4955              	.LASF95:
 4956 0618 52455345 		.ascii	"RESERVED1\000"
 4956      52564544 
 4956      3100
 4957              	.LASF99:
 4958 0622 52455345 		.ascii	"RESERVED2\000"
ARM GAS  /tmp/ccLyIQGT.s 			page 93


 4958      52564544 
 4958      3200
 4959              	.LASF102:
 4960 062c 52455345 		.ascii	"RESERVED3\000"
 4960      52564544 
 4960      3300
 4961              	.LASF106:
 4962 0636 52455345 		.ascii	"RESERVED4\000"
 4962      52564544 
 4962      3400
 4963              	.LASF32:
 4964 0640 705F7072 		.ascii	"p_prev\000"
 4964      657600
 4965              	.LASF111:
 4966 0647 52455345 		.ascii	"RESERVED6\000"
 4966      52564544 
 4966      3600
 4967              	.LASF144:
 4968 0651 73746D33 		.ascii	"stm32_dma_stream_t\000"
 4968      325F646D 
 4968      615F7374 
 4968      7265616D 
 4968      5F7400
 4969              	.LASF174:
 4970 0664 7478656E 		.ascii	"txend2_cb\000"
 4970      64325F63 
 4970      6200
 4971              	.LASF25:
 4972 066e 74707269 		.ascii	"tprio_t\000"
 4972      6F5F7400 
 4973              	.LASF74:
 4974 0676 63685F73 		.ascii	"ch_system_debug\000"
 4974      79737465 
 4974      6D5F6465 
 4974      62756700 
 4975              	.LASF146:
 4976 0686 5F426F6F 		.ascii	"_Bool\000"
 4976      6C00
 4977              	.LASF18:
 4978 068c 696E7433 		.ascii	"int32_t\000"
 4978      325F7400 
 4979              	.LASF6:
 4980 0694 756E7369 		.ascii	"unsigned char\000"
 4980      676E6564 
 4980      20636861 
 4980      7200
 4981              	.LASF38:
 4982 06a2 705F7374 		.ascii	"p_state\000"
 4982      61746500 
 4983              	.LASF45:
 4984 06aa 705F6D74 		.ascii	"p_mtxlist\000"
 4984      786C6973 
 4984      7400
 4985              	.LASF7:
 4986 06b4 73686F72 		.ascii	"short int\000"
 4986      7420696E 
 4986      7400
ARM GAS  /tmp/ccLyIQGT.s 			page 94


 4987              	.LASF105:
 4988 06be 41484233 		.ascii	"AHB3LPENR\000"
 4988      4C50454E 
 4988      5200
 4989              	.LASF57:
 4990 06c8 725F7072 		.ascii	"r_prio\000"
 4990      696F00
 4991              	.LASF129:
 4992 06cf 65776D61 		.ascii	"ewmask\000"
 4992      736B00
 4993              	.LASF150:
 4994 06d6 75617274 		.ascii	"uartstate_t\000"
 4994      73746174 
 4994      655F7400 
 4995              	.LASF39:
 4996 06e2 705F666C 		.ascii	"p_flags\000"
 4996      61677300 
 4997              	.LASF213:
 4998 06ea 5F5F6675 		.ascii	"__func__\000"
 4998      6E635F5F 
 4998      00
 4999              	.LASF37:
 5000 06f3 705F6E61 		.ascii	"p_name\000"
 5000      6D6500
 5001              	.LASF77:
 5002 06fa 63685F73 		.ascii	"ch_system\000"
 5002      79737465 
 5002      6D00
 5003              	.LASF101:
 5004 0704 41504232 		.ascii	"APB2ENR\000"
 5004      454E5200 
 5005              	.LASF183:
 5006 070c 72656173 		.ascii	"reason\000"
 5006      6F6E00
 5007              	.LASF153:
 5008 0713 55415254 		.ascii	"UART_TX_COMPLETE\000"
 5008      5F54585F 
 5008      434F4D50 
 5008      4C455445 
 5008      00
 5009              	.LASF130:
 5010 0724 63685F73 		.ascii	"ch_semaphore\000"
 5010      656D6170 
 5010      686F7265 
 5010      00
 5011              	.LASF44:
 5012 0731 705F6570 		.ascii	"p_epending\000"
 5012      656E6469 
 5012      6E6700
 5013              	.LASF140:
 5014 073c 69666372 		.ascii	"ifcr\000"
 5014      00
 5015              	.LASF109:
 5016 0741 52455345 		.ascii	"RESERVED5\000"
 5016      52564544 
 5016      3500
 5017              	.LASF28:
ARM GAS  /tmp/ccLyIQGT.s 			page 95


 5018 074b 636E745F 		.ascii	"cnt_t\000"
 5018      7400
 5019              	.LASF19:
 5020 0751 75696E74 		.ascii	"uint32_t\000"
 5020      33325F74 
 5020      00
 5021              	.LASF128:
 5022 075a 77746D74 		.ascii	"wtmtxp\000"
 5022      787000
 5023              	.LASF56:
 5024 0761 725F7175 		.ascii	"r_queue\000"
 5024      65756500 
 5025              	.LASF67:
 5026 0769 76745F64 		.ascii	"vt_delta\000"
 5026      656C7461 
 5026      00
 5027              	.LASF51:
 5028 0772 63685F74 		.ascii	"ch_threads_list\000"
 5028      68726561 
 5028      64735F6C 
 5028      69737400 
 5029              	.LASF100:
 5030 0782 41504231 		.ascii	"APB1ENR\000"
 5030      454E5200 
 5031              	.LASF171:
 5032 078a 75617274 		.ascii	"uartccb_t\000"
 5032      6363625F 
 5032      7400
 5033              	.LASF13:
 5034 0794 6C6F6E67 		.ascii	"long unsigned int\000"
 5034      20756E73 
 5034      69676E65 
 5034      6420696E 
 5034      7400
 5035              	.LASF193:
 5036 07a6 75617274 		.ascii	"uart_lld_start\000"
 5036      5F6C6C64 
 5036      5F737461 
 5036      727400
 5037              	.LASF137:
 5038 07b5 63686172 		.ascii	"char\000"
 5038      00
 5039              	.LASF208:
 5040 07ba 646D6153 		.ascii	"dmaStreamRelease\000"
 5040      74726561 
 5040      6D52656C 
 5040      65617365 
 5040      00
 5041              	.LASF187:
 5042 07cb 6D6F6465 		.ascii	"mode\000"
 5042      00
 5043              	.LASF164:
 5044 07d0 636F6E66 		.ascii	"config\000"
 5044      696700
 5045              	.LASF155:
 5046 07d7 55415254 		.ascii	"UART_RX_IDLE\000"
 5046      5F52585F 
ARM GAS  /tmp/ccLyIQGT.s 			page 96


 5046      49444C45 
 5046      00
 5047              	.LASF8:
 5048 07e4 5F5F7569 		.ascii	"__uint16_t\000"
 5048      6E743136 
 5048      5F7400
 5049              	.LASF90:
 5050 07ef 41484232 		.ascii	"AHB2RSTR\000"
 5050      52535452 
 5050      00
 5051              	.LASF30:
 5052 07f8 74687265 		.ascii	"thread_t\000"
 5052      61645F74 
 5052      00
 5053              	.LASF136:
 5054 0801 6D5F6E65 		.ascii	"m_next\000"
 5054      787400
 5055              	.LASF29:
 5056 0808 73797374 		.ascii	"systime_t\000"
 5056      696D655F 
 5056      7400
 5057              	.LASF46:
 5058 0812 705F7265 		.ascii	"p_realprio\000"
 5058      616C7072 
 5058      696F00
 5059              	.LASF62:
 5060 081d 76746675 		.ascii	"vtfunc_t\000"
 5060      6E635F74 
 5060      00
 5061              	.LASF12:
 5062 0826 5F5F7569 		.ascii	"__uint32_t\000"
 5062      6E743332 
 5062      5F7400
 5063              	.LASF212:
 5064 0831 7472616E 		.ascii	"translate_errors\000"
 5064      736C6174 
 5064      655F6572 
 5064      726F7273 
 5064      00
 5065              	.LASF83:
 5066 0842 4E445452 		.ascii	"NDTR\000"
 5066      00
 5067              	.LASF75:
 5068 0847 70616E69 		.ascii	"panic_msg\000"
 5068      635F6D73 
 5068      6700
 5069              	.LASF121:
 5070 0851 6F666673 		.ascii	"offset\000"
 5070      657400
 5071              	.LASF86:
 5072 0858 444D415F 		.ascii	"DMA_Stream_TypeDef\000"
 5072      53747265 
 5072      616D5F54 
 5072      79706544 
 5072      656600
 5073              	.LASF97:
 5074 086b 41484232 		.ascii	"AHB2ENR\000"
ARM GAS  /tmp/ccLyIQGT.s 			page 97


 5074      454E5200 
 5075              	.LASF119:
 5076 0873 636F6E74 		.ascii	"context\000"
 5076      65787400 
 5077              	.LASF60:
 5078 087b 725F6F6C 		.ascii	"r_older\000"
 5078      64657200 
 5079              	.LASF76:
 5080 0883 63685F73 		.ascii	"ch_system_t\000"
 5080      79737465 
 5080      6D5F7400 
 5081              	.LASF184:
 5082 088f 75617274 		.ascii	"uart_lld_serve_rx_end_irq\000"
 5082      5F6C6C64 
 5082      5F736572 
 5082      76655F72 
 5082      785F656E 
 5083              	.LASF21:
 5084 08a9 7274636E 		.ascii	"rtcnt_t\000"
 5084      745F7400 
 5085              	.LASF85:
 5086 08b1 4D314152 		.ascii	"M1AR\000"
 5086      00
 5087              	.LASF142:
 5088 08b6 73656C66 		.ascii	"selfindex\000"
 5088      696E6465 
 5088      7800
 5089              	.LASF69:
 5090 08c0 76745F70 		.ascii	"vt_par\000"
 5090      617200
 5091              	.LASF112:
 5092 08c7 53534347 		.ascii	"SSCGR\000"
 5092      5200
 5093              	.LASF52:
 5094 08cd 74687265 		.ascii	"threads_queue_t\000"
 5094      6164735F 
 5094      71756575 
 5094      655F7400 
 5095              	.LASF133:
 5096 08dd 63685F6D 		.ascii	"ch_mutex\000"
 5096      75746578 
 5096      00
 5097              	.LASF40:
 5098 08e6 705F7265 		.ascii	"p_refs\000"
 5098      667300
 5099              	.LASF173:
 5100 08ed 7478656E 		.ascii	"txend1_cb\000"
 5100      64315F63 
 5100      6200
 5101              	.LASF110:
 5102 08f7 42444352 		.ascii	"BDCR\000"
 5102      00
 5103              	.LASF78:
 5104 08fc 726C6973 		.ascii	"rlist\000"
 5104      7400
 5105              	.LASF16:
 5106 0902 75696E74 		.ascii	"uint8_t\000"
ARM GAS  /tmp/ccLyIQGT.s 			page 98


 5106      385F7400 
 5107              	.LASF192:
 5108 090a 75736172 		.ascii	"usart_start\000"
 5108      745F7374 
 5108      61727400 
 5109              	.LASF185:
 5110 0916 666C6167 		.ascii	"flags\000"
 5110      7300
 5111              	.LASF166:
 5112 091c 646D616D 		.ascii	"dmamode\000"
 5112      6F646500 
 5113              	.LASF125:
 5114 0924 77746F62 		.ascii	"wtobjp\000"
 5114      6A7000
 5115              	.LASF178:
 5116 092b 73706565 		.ascii	"speed\000"
 5116      6400
 5117              	.LASF96:
 5118 0931 41484231 		.ascii	"AHB1ENR\000"
 5118      454E5200 
 5119              	.LASF88:
 5120 0939 43464752 		.ascii	"CFGR\000"
 5120      00
 5121              	.LASF24:
 5122 093e 74726566 		.ascii	"trefs_t\000"
 5122      735F7400 
 5123              	.LASF195:
 5124 0946 75617274 		.ascii	"uart_lld_start_send\000"
 5124      5F6C6C64 
 5124      5F737461 
 5124      72745F73 
 5124      656E6400 
 5125              	.LASF64:
 5126 095a 63685F76 		.ascii	"ch_virtual_timer\000"
 5126      69727475 
 5126      616C5F74 
 5126      696D6572 
 5126      00
 5127              	.LASF43:
 5128 096b 705F6D73 		.ascii	"p_msg\000"
 5128      6700
 5129              	.LASF202:
 5130 0971 55415254 		.ascii	"UARTD2\000"
 5130      443200
 5131              	.LASF211:
 5132 0978 2F686F6D 		.ascii	"/home/selim/working/ChibiOS/os/hal/ports/STM32/LLD/"
 5132      652F7365 
 5132      6C696D2F 
 5132      776F726B 
 5132      696E672F 
 5133 09ab 55534152 		.ascii	"USARTv1/uart_lld.c\000"
 5133      5476312F 
 5133      75617274 
 5133      5F6C6C64 
 5133      2E6300
 5134              	.LASF135:
 5135 09be 6D5F6F77 		.ascii	"m_owner\000"
ARM GAS  /tmp/ccLyIQGT.s 			page 99


 5135      6E657200 
 5136              	.LASF206:
 5137 09c6 646D6153 		.ascii	"dmaStreamAllocate\000"
 5137      74726561 
 5137      6D416C6C 
 5137      6F636174 
 5137      6500
 5138              	.LASF156:
 5139 09d8 55415254 		.ascii	"UART_RX_ACTIVE\000"
 5139      5F52585F 
 5139      41435449 
 5139      564500
 5140              	.LASF34:
 5141 09e7 705F6374 		.ascii	"p_ctx\000"
 5141      7800
 5142              	.LASF68:
 5143 09ed 76745F66 		.ascii	"vt_func\000"
 5143      756E6300 
 5144              		.ident	"GCC: (GNU Tools for ARM Embedded Processors) 5.4.1 20160609 (release) [ARM/embedded-5-bran
ARM GAS  /tmp/ccLyIQGT.s 			page 100


DEFINED SYMBOLS
                            *ABS*:0000000000000000 uart_lld.c
     /tmp/ccLyIQGT.s:20     .text.usart_stop:0000000000000000 $t
     /tmp/ccLyIQGT.s:25     .text.usart_stop:0000000000000000 usart_stop
     /tmp/ccLyIQGT.s:97     .text.uart_lld_serve_tx_end_irq:0000000000000000 $t
     /tmp/ccLyIQGT.s:102    .text.uart_lld_serve_tx_end_irq:0000000000000000 uart_lld_serve_tx_end_irq
     /tmp/ccLyIQGT.s:182    .text.uart_lld_serve_tx_end_irq:000000000000004c $d
     /tmp/ccLyIQGT.s:189    .text.uart_lld_serve_rx_end_irq:0000000000000000 $t
     /tmp/ccLyIQGT.s:194    .text.uart_lld_serve_rx_end_irq:0000000000000000 uart_lld_serve_rx_end_irq
     /tmp/ccLyIQGT.s:344    .text.uart_lld_serve_rx_end_irq:000000000000008c $d
     /tmp/ccLyIQGT.s:351    .text.VectorD8:0000000000000000 $t
     /tmp/ccLyIQGT.s:357    .text.VectorD8:0000000000000000 VectorD8
     /tmp/ccLyIQGT.s:480    .text.VectorD8:0000000000000078 $d
     /tmp/ccLyIQGT.s:485    .text.uart_lld_init:0000000000000000 $t
     /tmp/ccLyIQGT.s:491    .text.uart_lld_init:0000000000000000 uart_lld_init
     /tmp/ccLyIQGT.s:525    .text.uart_lld_init:0000000000000020 $d
     /tmp/ccLyIQGT.s:532    .text.uart_lld_start:0000000000000000 $t
     /tmp/ccLyIQGT.s:538    .text.uart_lld_start:0000000000000000 uart_lld_start
     /tmp/ccLyIQGT.s:782    .text.uart_lld_start:0000000000000100 $d
     /tmp/ccLyIQGT.s:794    .text.uart_lld_stop:0000000000000000 $t
     /tmp/ccLyIQGT.s:800    .text.uart_lld_stop:0000000000000000 uart_lld_stop
     /tmp/ccLyIQGT.s:852    .text.uart_lld_stop:0000000000000038 $d
     /tmp/ccLyIQGT.s:858    .text.uart_lld_start_send:0000000000000000 $t
     /tmp/ccLyIQGT.s:864    .text.uart_lld_start_send:0000000000000000 uart_lld_start_send
     /tmp/ccLyIQGT.s:921    .text.uart_lld_stop_send:0000000000000000 $t
     /tmp/ccLyIQGT.s:927    .text.uart_lld_stop_send:0000000000000000 uart_lld_stop_send
     /tmp/ccLyIQGT.s:961    .text.uart_lld_start_receive:0000000000000000 $t
     /tmp/ccLyIQGT.s:967    .text.uart_lld_start_receive:0000000000000000 uart_lld_start_receive
     /tmp/ccLyIQGT.s:1022   .text.uart_lld_stop_receive:0000000000000000 $t
     /tmp/ccLyIQGT.s:1028   .text.uart_lld_stop_receive:0000000000000000 uart_lld_stop_receive
     /tmp/ccLyIQGT.s:1130   .bss.UARTD2:0000000000000000 UARTD2
     /tmp/ccLyIQGT.s:1122   .rodata.str1.4:0000000000000000 $d
     /tmp/ccLyIQGT.s:1126   .bss.UARTD2:0000000000000000 $d
                     .debug_frame:0000000000000010 $d

UNDEFINED SYMBOLS
chSysHalt
_port_irq_epilogue
uartObjectInit
_stm32_dma_streams
dmaStreamAllocate
nvicEnableVector
dmaStreamRelease
nvicDisableVector
