ARM GAS  /tmp/ccMsdAuc.s 			page 1


   1              		.syntax unified
   2              		.cpu cortex-m4
   3              		.fpu softvfp
   4              		.eabi_attribute 20, 1
   5              		.eabi_attribute 21, 1
   6              		.eabi_attribute 23, 3
   7              		.eabi_attribute 24, 1
   8              		.eabi_attribute 25, 1
   9              		.eabi_attribute 26, 1
  10              		.eabi_attribute 30, 2
  11              		.eabi_attribute 34, 1
  12              		.eabi_attribute 18, 4
  13              		.thumb
  14              		.syntax unified
  15              		.file	"uart.c"
  16              		.text
  17              	.Ltext0:
  18              		.cfi_sections	.debug_frame
  19              		.section	.text.uartInit,"ax",%progbits
  20              		.align	2
  21              		.p2align 4,,15
  22              		.global	uartInit
  23              		.thumb
  24              		.thumb_func
  25              		.type	uartInit, %function
  26              	uartInit:
  27              	.LFB258:
  28              		.file 1 "/home/selim/working/ChibiOS/os/hal/src/uart.c"
  29              		.loc 1 56 0
  30              		.cfi_startproc
  31              		@ args = 0, pretend = 0, frame = 0
  32              		@ frame_needed = 0, uses_anonymous_args = 0
  33              		@ link register save eliminated.
  34              		.loc 1 58 0
  35 0000 FFF7FEBF 		b	uart_lld_init
  36              	.LVL0:
  37              		.cfi_endproc
  38              	.LFE258:
  39              		.size	uartInit, .-uartInit
  40              		.section	.text.uartObjectInit,"ax",%progbits
  41              		.align	2
  42              		.p2align 4,,15
  43              		.global	uartObjectInit
  44              		.thumb
  45              		.thumb_func
  46              		.type	uartObjectInit, %function
  47              	uartObjectInit:
  48              	.LFB259:
  49              		.loc 1 68 0
  50              		.cfi_startproc
  51              		@ args = 0, pretend = 0, frame = 0
  52              		@ frame_needed = 0, uses_anonymous_args = 0
  53              		@ link register save eliminated.
  54              	.LVL1:
  55              		.loc 1 71 0
  56 0000 0023     		movs	r3, #0
  57              		.loc 1 70 0
ARM GAS  /tmp/ccMsdAuc.s 			page 2


  58 0002 0122     		movs	r2, #1
  59 0004 0270     		strb	r2, [r0]
  60              		.loc 1 71 0
  61 0006 4370     		strb	r3, [r0, #1]
  62              		.loc 1 72 0
  63 0008 8370     		strb	r3, [r0, #2]
  64              		.loc 1 73 0
  65 000a 4360     		str	r3, [r0, #4]
  66 000c 7047     		bx	lr
  67              		.cfi_endproc
  68              	.LFE259:
  69              		.size	uartObjectInit, .-uartObjectInit
  70 000e 00BF     		.section	.text.uartStart,"ax",%progbits
  71              		.align	2
  72              		.p2align 4,,15
  73              		.global	uartStart
  74              		.thumb
  75              		.thumb_func
  76              		.type	uartStart, %function
  77              	uartStart:
  78              	.LFB260:
  79              		.loc 1 88 0
  80              		.cfi_startproc
  81              		@ args = 0, pretend = 0, frame = 0
  82              		@ frame_needed = 0, uses_anonymous_args = 0
  83              	.LVL2:
  84 0000 10B5     		push	{r4, lr}
  85              		.cfi_def_cfa_offset 8
  86              		.cfi_offset 4, -8
  87              		.cfi_offset 14, -4
  88              	.LBB102:
  89              	.LBB103:
  90              	.LBB104:
  91              	.LBB105:
  92              	.LBB106:
  93              		.file 2 "/home/selim/working/ChibiOS/os/ext/CMSIS/include/core_cmFunc.h"
  94              		.loc 2 546 0
  95 0002 2023     		movs	r3, #32
  96              	.LBE106:
  97              	.LBE105:
  98              	.LBE104:
  99              	.LBE103:
 100              	.LBE102:
 101              		.loc 1 88 0
 102 0004 0446     		mov	r4, r0
 103              	.LBB111:
 104              	.LBB110:
 105              	.LBB109:
 106              	.LBB108:
 107              	.LBB107:
 108              		.loc 2 546 0
 109              		.syntax unified
 110              	@ 546 "/home/selim/working/ChibiOS/os/ext/CMSIS/include/core_cmFunc.h" 1
 111 0006 83F31188 		MSR basepri, r3
 112              	@ 0 "" 2
 113              	.LVL3:
 114              		.thumb
ARM GAS  /tmp/ccMsdAuc.s 			page 3


 115              		.syntax unified
 116              	.LBE107:
 117              	.LBE108:
 118              	.LBE109:
 119              	.LBE110:
 120              	.LBE111:
 121              		.loc 1 96 0
 122 000a 4160     		str	r1, [r0, #4]
 123              		.loc 1 97 0
 124 000c FFF7FEFF 		bl	uart_lld_start
 125              	.LVL4:
 126              		.loc 1 98 0
 127 0010 0223     		movs	r3, #2
 128 0012 2370     		strb	r3, [r4]
 129              	.LVL5:
 130              	.LBB112:
 131              	.LBB113:
 132              	.LBB114:
 133              	.LBB115:
 134              	.LBB116:
 135              	.LBB117:
 136              		.loc 2 546 0
 137 0014 0023     		movs	r3, #0
 138              		.syntax unified
 139              	@ 546 "/home/selim/working/ChibiOS/os/ext/CMSIS/include/core_cmFunc.h" 1
 140 0016 83F31188 		MSR basepri, r3
 141              	@ 0 "" 2
 142              	.LVL6:
 143              		.thumb
 144              		.syntax unified
 145 001a 10BD     		pop	{r4, pc}
 146              	.LBE117:
 147              	.LBE116:
 148              	.LBE115:
 149              	.LBE114:
 150              	.LBE113:
 151              	.LBE112:
 152              		.cfi_endproc
 153              	.LFE260:
 154              		.size	uartStart, .-uartStart
 155              		.section	.text.uartStop,"ax",%progbits
 156              		.align	2
 157              		.p2align 4,,15
 158              		.global	uartStop
 159              		.thumb
 160              		.thumb_func
 161              		.type	uartStop, %function
 162              	uartStop:
 163              	.LFB261:
 164              		.loc 1 109 0
 165              		.cfi_startproc
 166              		@ args = 0, pretend = 0, frame = 0
 167              		@ frame_needed = 0, uses_anonymous_args = 0
 168              	.LVL7:
 169 0000 10B5     		push	{r4, lr}
 170              		.cfi_def_cfa_offset 8
 171              		.cfi_offset 4, -8
ARM GAS  /tmp/ccMsdAuc.s 			page 4


 172              		.cfi_offset 14, -4
 173              	.LBB118:
 174              	.LBB119:
 175              	.LBB120:
 176              	.LBB121:
 177              	.LBB122:
 178              		.loc 2 546 0
 179 0002 2023     		movs	r3, #32
 180              	.LBE122:
 181              	.LBE121:
 182              	.LBE120:
 183              	.LBE119:
 184              	.LBE118:
 185              		.loc 1 109 0
 186 0004 0446     		mov	r4, r0
 187              	.LBB127:
 188              	.LBB126:
 189              	.LBB125:
 190              	.LBB124:
 191              	.LBB123:
 192              		.loc 2 546 0
 193              		.syntax unified
 194              	@ 546 "/home/selim/working/ChibiOS/os/ext/CMSIS/include/core_cmFunc.h" 1
 195 0006 83F31188 		MSR basepri, r3
 196              	@ 0 "" 2
 197              	.LVL8:
 198              		.thumb
 199              		.syntax unified
 200              	.LBE123:
 201              	.LBE124:
 202              	.LBE125:
 203              	.LBE126:
 204              	.LBE127:
 205              		.loc 1 117 0
 206 000a FFF7FEFF 		bl	uart_lld_stop
 207              	.LVL9:
 208              		.loc 1 119 0
 209 000e 0023     		movs	r3, #0
 210              		.loc 1 118 0
 211 0010 0122     		movs	r2, #1
 212 0012 2270     		strb	r2, [r4]
 213              		.loc 1 119 0
 214 0014 6370     		strb	r3, [r4, #1]
 215              		.loc 1 120 0
 216 0016 A370     		strb	r3, [r4, #2]
 217              	.LVL10:
 218              	.LBB128:
 219              	.LBB129:
 220              	.LBB130:
 221              	.LBB131:
 222              	.LBB132:
 223              	.LBB133:
 224              		.loc 2 546 0
 225              		.syntax unified
 226              	@ 546 "/home/selim/working/ChibiOS/os/ext/CMSIS/include/core_cmFunc.h" 1
 227 0018 83F31188 		MSR basepri, r3
 228              	@ 0 "" 2
ARM GAS  /tmp/ccMsdAuc.s 			page 5


 229              	.LVL11:
 230              		.thumb
 231              		.syntax unified
 232 001c 10BD     		pop	{r4, pc}
 233              	.LBE133:
 234              	.LBE132:
 235              	.LBE131:
 236              	.LBE130:
 237              	.LBE129:
 238              	.LBE128:
 239              		.cfi_endproc
 240              	.LFE261:
 241              		.size	uartStop, .-uartStop
 242 001e 00BF     		.section	.text.uartStartSend,"ax",%progbits
 243              		.align	2
 244              		.p2align 4,,15
 245              		.global	uartStartSend
 246              		.thumb
 247              		.thumb_func
 248              		.type	uartStartSend, %function
 249              	uartStartSend:
 250              	.LFB262:
 251              		.loc 1 135 0
 252              		.cfi_startproc
 253              		@ args = 0, pretend = 0, frame = 0
 254              		@ frame_needed = 0, uses_anonymous_args = 0
 255              	.LVL12:
 256 0000 10B5     		push	{r4, lr}
 257              		.cfi_def_cfa_offset 8
 258              		.cfi_offset 4, -8
 259              		.cfi_offset 14, -4
 260              	.LBB134:
 261              	.LBB135:
 262              	.LBB136:
 263              	.LBB137:
 264              	.LBB138:
 265              		.loc 2 546 0
 266 0002 2023     		movs	r3, #32
 267              	.LBE138:
 268              	.LBE137:
 269              	.LBE136:
 270              	.LBE135:
 271              	.LBE134:
 272              		.loc 1 135 0
 273 0004 0446     		mov	r4, r0
 274              	.LBB143:
 275              	.LBB142:
 276              	.LBB141:
 277              	.LBB140:
 278              	.LBB139:
 279              		.loc 2 546 0
 280              		.syntax unified
 281              	@ 546 "/home/selim/working/ChibiOS/os/ext/CMSIS/include/core_cmFunc.h" 1
 282 0006 83F31188 		MSR basepri, r3
 283              	@ 0 "" 2
 284              	.LVL13:
 285              		.thumb
ARM GAS  /tmp/ccMsdAuc.s 			page 6


 286              		.syntax unified
 287              	.LBE139:
 288              	.LBE140:
 289              	.LBE141:
 290              	.LBE142:
 291              	.LBE143:
 292              		.loc 1 143 0
 293 000a FFF7FEFF 		bl	uart_lld_start_send
 294              	.LVL14:
 295              		.loc 1 144 0
 296 000e 0123     		movs	r3, #1
 297 0010 6370     		strb	r3, [r4, #1]
 298              	.LVL15:
 299              	.LBB144:
 300              	.LBB145:
 301              	.LBB146:
 302              	.LBB147:
 303              	.LBB148:
 304              	.LBB149:
 305              		.loc 2 546 0
 306 0012 0023     		movs	r3, #0
 307              		.syntax unified
 308              	@ 546 "/home/selim/working/ChibiOS/os/ext/CMSIS/include/core_cmFunc.h" 1
 309 0014 83F31188 		MSR basepri, r3
 310              	@ 0 "" 2
 311              	.LVL16:
 312              		.thumb
 313              		.syntax unified
 314 0018 10BD     		pop	{r4, pc}
 315              	.LBE149:
 316              	.LBE148:
 317              	.LBE147:
 318              	.LBE146:
 319              	.LBE145:
 320              	.LBE144:
 321              		.cfi_endproc
 322              	.LFE262:
 323              		.size	uartStartSend, .-uartStartSend
 324 001a 00BF     		.section	.text.uartStartSendI,"ax",%progbits
 325              		.align	2
 326              		.p2align 4,,15
 327              		.global	uartStartSendI
 328              		.thumb
 329              		.thumb_func
 330              		.type	uartStartSendI, %function
 331              	uartStartSendI:
 332              	.LFB263:
 333              		.loc 1 160 0
 334              		.cfi_startproc
 335              		@ args = 0, pretend = 0, frame = 0
 336              		@ frame_needed = 0, uses_anonymous_args = 0
 337              	.LVL17:
 338 0000 10B5     		push	{r4, lr}
 339              		.cfi_def_cfa_offset 8
 340              		.cfi_offset 4, -8
 341              		.cfi_offset 14, -4
 342              		.loc 1 160 0
ARM GAS  /tmp/ccMsdAuc.s 			page 7


 343 0002 0446     		mov	r4, r0
 344              		.loc 1 167 0
 345 0004 FFF7FEFF 		bl	uart_lld_start_send
 346              	.LVL18:
 347              		.loc 1 168 0
 348 0008 0123     		movs	r3, #1
 349 000a 6370     		strb	r3, [r4, #1]
 350 000c 10BD     		pop	{r4, pc}
 351              		.cfi_endproc
 352              	.LFE263:
 353              		.size	uartStartSendI, .-uartStartSendI
 354 000e 00BF     		.section	.text.uartStopSend,"ax",%progbits
 355              		.align	2
 356              		.p2align 4,,15
 357              		.global	uartStopSend
 358              		.thumb
 359              		.thumb_func
 360              		.type	uartStopSend, %function
 361              	uartStopSend:
 362              	.LFB264:
 363              		.loc 1 183 0
 364              		.cfi_startproc
 365              		@ args = 0, pretend = 0, frame = 0
 366              		@ frame_needed = 0, uses_anonymous_args = 0
 367              	.LVL19:
 368              	.LBB150:
 369              	.LBB151:
 370              	.LBB152:
 371              	.LBB153:
 372              	.LBB154:
 373              		.loc 2 546 0
 374 0000 2022     		movs	r2, #32
 375              		.syntax unified
 376              	@ 546 "/home/selim/working/ChibiOS/os/ext/CMSIS/include/core_cmFunc.h" 1
 377 0002 82F31188 		MSR basepri, r2
 378              	@ 0 "" 2
 379              	.LVL20:
 380              		.thumb
 381              		.syntax unified
 382              	.LBE154:
 383              	.LBE153:
 384              	.LBE152:
 385              	.LBE151:
 386              	.LBE150:
 387              		.loc 1 191 0
 388 0006 4278     		ldrb	r2, [r0, #1]	@ zero_extendqisi2
 389 0008 012A     		cmp	r2, #1
 390 000a 04D0     		beq	.L17
 391              		.loc 1 196 0
 392 000c 0020     		movs	r0, #0
 393              	.LVL21:
 394              	.LBB155:
 395              	.LBB156:
 396              	.LBB157:
 397              	.LBB158:
 398              	.LBB159:
 399              	.LBB160:
ARM GAS  /tmp/ccMsdAuc.s 			page 8


 400              		.loc 2 546 0
 401 000e 0023     		movs	r3, #0
 402              		.syntax unified
 403              	@ 546 "/home/selim/working/ChibiOS/os/ext/CMSIS/include/core_cmFunc.h" 1
 404 0010 83F31188 		MSR basepri, r3
 405              	@ 0 "" 2
 406              	.LVL22:
 407              		.thumb
 408              		.syntax unified
 409              	.LBE160:
 410              	.LBE159:
 411              	.LBE158:
 412              	.LBE157:
 413              	.LBE156:
 414              	.LBE155:
 415              		.loc 1 201 0
 416 0014 7047     		bx	lr
 417              	.LVL23:
 418              	.L17:
 419              		.loc 1 183 0
 420 0016 10B5     		push	{r4, lr}
 421              		.cfi_def_cfa_offset 8
 422              		.cfi_offset 4, -8
 423              		.cfi_offset 14, -4
 424 0018 0446     		mov	r4, r0
 425              		.loc 1 192 0
 426 001a FFF7FEFF 		bl	uart_lld_stop_send
 427              	.LVL24:
 428              		.loc 1 193 0
 429 001e 0023     		movs	r3, #0
 430 0020 6370     		strb	r3, [r4, #1]
 431              	.LVL25:
 432              	.LBB166:
 433              	.LBB165:
 434              	.LBB164:
 435              	.LBB163:
 436              	.LBB162:
 437              	.LBB161:
 438              		.loc 2 546 0
 439 0022 0023     		movs	r3, #0
 440              		.syntax unified
 441              	@ 546 "/home/selim/working/ChibiOS/os/ext/CMSIS/include/core_cmFunc.h" 1
 442 0024 83F31188 		MSR basepri, r3
 443              	@ 0 "" 2
 444              	.LVL26:
 445              		.thumb
 446              		.syntax unified
 447              	.LBE161:
 448              	.LBE162:
 449              	.LBE163:
 450              	.LBE164:
 451              	.LBE165:
 452              	.LBE166:
 453              		.loc 1 201 0
 454 0028 10BD     		pop	{r4, pc}
 455              		.cfi_endproc
 456              	.LFE264:
ARM GAS  /tmp/ccMsdAuc.s 			page 9


 457              		.size	uartStopSend, .-uartStopSend
 458 002a 00BF     		.section	.text.uartStopSendI,"ax",%progbits
 459              		.align	2
 460              		.p2align 4,,15
 461              		.global	uartStopSendI
 462              		.thumb
 463              		.thumb_func
 464              		.type	uartStopSendI, %function
 465              	uartStopSendI:
 466              	.LFB265:
 467              		.loc 1 216 0
 468              		.cfi_startproc
 469              		@ args = 0, pretend = 0, frame = 0
 470              		@ frame_needed = 0, uses_anonymous_args = 0
 471              	.LVL27:
 472              		.loc 1 222 0
 473 0000 4278     		ldrb	r2, [r0, #1]	@ zero_extendqisi2
 474 0002 012A     		cmp	r2, #1
 475 0004 01D0     		beq	.L23
 476              		.loc 1 227 0
 477 0006 0020     		movs	r0, #0
 478              	.LVL28:
 479 0008 7047     		bx	lr
 480              	.LVL29:
 481              	.L23:
 482              		.loc 1 216 0
 483 000a 10B5     		push	{r4, lr}
 484              		.cfi_def_cfa_offset 8
 485              		.cfi_offset 4, -8
 486              		.cfi_offset 14, -4
 487 000c 0446     		mov	r4, r0
 488              	.LBB167:
 489              		.loc 1 223 0
 490 000e FFF7FEFF 		bl	uart_lld_stop_send
 491              	.LVL30:
 492              		.loc 1 224 0
 493 0012 0023     		movs	r3, #0
 494 0014 6370     		strb	r3, [r4, #1]
 495              		.loc 1 225 0
 496 0016 10BD     		pop	{r4, pc}
 497              	.LBE167:
 498              		.cfi_endproc
 499              	.LFE265:
 500              		.size	uartStopSendI, .-uartStopSendI
 501              		.section	.text.uartStartReceive,"ax",%progbits
 502              		.align	2
 503              		.p2align 4,,15
 504              		.global	uartStartReceive
 505              		.thumb
 506              		.thumb_func
 507              		.type	uartStartReceive, %function
 508              	uartStartReceive:
 509              	.LFB266:
 510              		.loc 1 241 0
 511              		.cfi_startproc
 512              		@ args = 0, pretend = 0, frame = 0
 513              		@ frame_needed = 0, uses_anonymous_args = 0
ARM GAS  /tmp/ccMsdAuc.s 			page 10


 514              	.LVL31:
 515 0000 10B5     		push	{r4, lr}
 516              		.cfi_def_cfa_offset 8
 517              		.cfi_offset 4, -8
 518              		.cfi_offset 14, -4
 519              	.LBB168:
 520              	.LBB169:
 521              	.LBB170:
 522              	.LBB171:
 523              	.LBB172:
 524              		.loc 2 546 0
 525 0002 2023     		movs	r3, #32
 526              	.LBE172:
 527              	.LBE171:
 528              	.LBE170:
 529              	.LBE169:
 530              	.LBE168:
 531              		.loc 1 241 0
 532 0004 0446     		mov	r4, r0
 533              	.LBB177:
 534              	.LBB176:
 535              	.LBB175:
 536              	.LBB174:
 537              	.LBB173:
 538              		.loc 2 546 0
 539              		.syntax unified
 540              	@ 546 "/home/selim/working/ChibiOS/os/ext/CMSIS/include/core_cmFunc.h" 1
 541 0006 83F31188 		MSR basepri, r3
 542              	@ 0 "" 2
 543              	.LVL32:
 544              		.thumb
 545              		.syntax unified
 546              	.LBE173:
 547              	.LBE174:
 548              	.LBE175:
 549              	.LBE176:
 550              	.LBE177:
 551              		.loc 1 249 0
 552 000a FFF7FEFF 		bl	uart_lld_start_receive
 553              	.LVL33:
 554              		.loc 1 250 0
 555 000e 0123     		movs	r3, #1
 556 0010 A370     		strb	r3, [r4, #2]
 557              	.LVL34:
 558              	.LBB178:
 559              	.LBB179:
 560              	.LBB180:
 561              	.LBB181:
 562              	.LBB182:
 563              	.LBB183:
 564              		.loc 2 546 0
 565 0012 0023     		movs	r3, #0
 566              		.syntax unified
 567              	@ 546 "/home/selim/working/ChibiOS/os/ext/CMSIS/include/core_cmFunc.h" 1
 568 0014 83F31188 		MSR basepri, r3
 569              	@ 0 "" 2
 570              	.LVL35:
ARM GAS  /tmp/ccMsdAuc.s 			page 11


 571              		.thumb
 572              		.syntax unified
 573 0018 10BD     		pop	{r4, pc}
 574              	.LBE183:
 575              	.LBE182:
 576              	.LBE181:
 577              	.LBE180:
 578              	.LBE179:
 579              	.LBE178:
 580              		.cfi_endproc
 581              	.LFE266:
 582              		.size	uartStartReceive, .-uartStartReceive
 583 001a 00BF     		.section	.text.uartStartReceiveI,"ax",%progbits
 584              		.align	2
 585              		.p2align 4,,15
 586              		.global	uartStartReceiveI
 587              		.thumb
 588              		.thumb_func
 589              		.type	uartStartReceiveI, %function
 590              	uartStartReceiveI:
 591              	.LFB267:
 592              		.loc 1 266 0
 593              		.cfi_startproc
 594              		@ args = 0, pretend = 0, frame = 0
 595              		@ frame_needed = 0, uses_anonymous_args = 0
 596              	.LVL36:
 597 0000 10B5     		push	{r4, lr}
 598              		.cfi_def_cfa_offset 8
 599              		.cfi_offset 4, -8
 600              		.cfi_offset 14, -4
 601              		.loc 1 266 0
 602 0002 0446     		mov	r4, r0
 603              		.loc 1 273 0
 604 0004 FFF7FEFF 		bl	uart_lld_start_receive
 605              	.LVL37:
 606              		.loc 1 274 0
 607 0008 0123     		movs	r3, #1
 608 000a A370     		strb	r3, [r4, #2]
 609 000c 10BD     		pop	{r4, pc}
 610              		.cfi_endproc
 611              	.LFE267:
 612              		.size	uartStartReceiveI, .-uartStartReceiveI
 613 000e 00BF     		.section	.text.uartStopReceive,"ax",%progbits
 614              		.align	2
 615              		.p2align 4,,15
 616              		.global	uartStopReceive
 617              		.thumb
 618              		.thumb_func
 619              		.type	uartStopReceive, %function
 620              	uartStopReceive:
 621              	.LFB268:
 622              		.loc 1 289 0
 623              		.cfi_startproc
 624              		@ args = 0, pretend = 0, frame = 0
 625              		@ frame_needed = 0, uses_anonymous_args = 0
 626              	.LVL38:
 627              	.LBB184:
ARM GAS  /tmp/ccMsdAuc.s 			page 12


 628              	.LBB185:
 629              	.LBB186:
 630              	.LBB187:
 631              	.LBB188:
 632              		.loc 2 546 0
 633 0000 2022     		movs	r2, #32
 634              		.syntax unified
 635              	@ 546 "/home/selim/working/ChibiOS/os/ext/CMSIS/include/core_cmFunc.h" 1
 636 0002 82F31188 		MSR basepri, r2
 637              	@ 0 "" 2
 638              	.LVL39:
 639              		.thumb
 640              		.syntax unified
 641              	.LBE188:
 642              	.LBE187:
 643              	.LBE186:
 644              	.LBE185:
 645              	.LBE184:
 646              		.loc 1 297 0
 647 0006 8278     		ldrb	r2, [r0, #2]	@ zero_extendqisi2
 648 0008 012A     		cmp	r2, #1
 649 000a 04D0     		beq	.L33
 650              		.loc 1 302 0
 651 000c 0020     		movs	r0, #0
 652              	.LVL40:
 653              	.LBB189:
 654              	.LBB190:
 655              	.LBB191:
 656              	.LBB192:
 657              	.LBB193:
 658              	.LBB194:
 659              		.loc 2 546 0
 660 000e 0023     		movs	r3, #0
 661              		.syntax unified
 662              	@ 546 "/home/selim/working/ChibiOS/os/ext/CMSIS/include/core_cmFunc.h" 1
 663 0010 83F31188 		MSR basepri, r3
 664              	@ 0 "" 2
 665              	.LVL41:
 666              		.thumb
 667              		.syntax unified
 668              	.LBE194:
 669              	.LBE193:
 670              	.LBE192:
 671              	.LBE191:
 672              	.LBE190:
 673              	.LBE189:
 674              		.loc 1 307 0
 675 0014 7047     		bx	lr
 676              	.LVL42:
 677              	.L33:
 678              		.loc 1 289 0
 679 0016 10B5     		push	{r4, lr}
 680              		.cfi_def_cfa_offset 8
 681              		.cfi_offset 4, -8
 682              		.cfi_offset 14, -4
 683 0018 0446     		mov	r4, r0
 684              		.loc 1 298 0
ARM GAS  /tmp/ccMsdAuc.s 			page 13


 685 001a FFF7FEFF 		bl	uart_lld_stop_receive
 686              	.LVL43:
 687              		.loc 1 299 0
 688 001e 0023     		movs	r3, #0
 689 0020 A370     		strb	r3, [r4, #2]
 690              	.LVL44:
 691              	.LBB200:
 692              	.LBB199:
 693              	.LBB198:
 694              	.LBB197:
 695              	.LBB196:
 696              	.LBB195:
 697              		.loc 2 546 0
 698 0022 0023     		movs	r3, #0
 699              		.syntax unified
 700              	@ 546 "/home/selim/working/ChibiOS/os/ext/CMSIS/include/core_cmFunc.h" 1
 701 0024 83F31188 		MSR basepri, r3
 702              	@ 0 "" 2
 703              	.LVL45:
 704              		.thumb
 705              		.syntax unified
 706              	.LBE195:
 707              	.LBE196:
 708              	.LBE197:
 709              	.LBE198:
 710              	.LBE199:
 711              	.LBE200:
 712              		.loc 1 307 0
 713 0028 10BD     		pop	{r4, pc}
 714              		.cfi_endproc
 715              	.LFE268:
 716              		.size	uartStopReceive, .-uartStopReceive
 717 002a 00BF     		.section	.text.uartStopReceiveI,"ax",%progbits
 718              		.align	2
 719              		.p2align 4,,15
 720              		.global	uartStopReceiveI
 721              		.thumb
 722              		.thumb_func
 723              		.type	uartStopReceiveI, %function
 724              	uartStopReceiveI:
 725              	.LFB269:
 726              		.loc 1 322 0
 727              		.cfi_startproc
 728              		@ args = 0, pretend = 0, frame = 0
 729              		@ frame_needed = 0, uses_anonymous_args = 0
 730              	.LVL46:
 731              		.loc 1 328 0
 732 0000 8278     		ldrb	r2, [r0, #2]	@ zero_extendqisi2
 733 0002 012A     		cmp	r2, #1
 734 0004 01D0     		beq	.L39
 735              		.loc 1 333 0
 736 0006 0020     		movs	r0, #0
 737              	.LVL47:
 738 0008 7047     		bx	lr
 739              	.LVL48:
 740              	.L39:
 741              		.loc 1 322 0
ARM GAS  /tmp/ccMsdAuc.s 			page 14


 742 000a 10B5     		push	{r4, lr}
 743              		.cfi_def_cfa_offset 8
 744              		.cfi_offset 4, -8
 745              		.cfi_offset 14, -4
 746 000c 0446     		mov	r4, r0
 747              	.LBB201:
 748              		.loc 1 329 0
 749 000e FFF7FEFF 		bl	uart_lld_stop_receive
 750              	.LVL49:
 751              		.loc 1 330 0
 752 0012 0023     		movs	r3, #0
 753 0014 A370     		strb	r3, [r4, #2]
 754              		.loc 1 331 0
 755 0016 10BD     		pop	{r4, pc}
 756              	.LBE201:
 757              		.cfi_endproc
 758              	.LFE269:
 759              		.size	uartStopReceiveI, .-uartStopReceiveI
 760              		.text
 761              	.Letext0:
 762              		.file 3 "/usr/lib/gcc/arm-none-eabi/5.4.1/include/stddef.h"
 763              		.file 4 "/usr/arm-none-eabi/include/machine/_default_types.h"
 764              		.file 5 "/usr/arm-none-eabi/include/sys/_stdint.h"
 765              		.file 6 "/home/selim/working/ChibiOS/os/rt/ports/ARMCMx/compilers/GCC/chtypes.h"
 766              		.file 7 "/home/selim/working/ChibiOS/os/rt/include/chsystypes.h"
 767              		.file 8 "/home/selim/working/ChibiOS/os/rt/include/chschd.h"
 768              		.file 9 "/home/selim/working/ChibiOS/os/ext/CMSIS/ST/stm32f407xx.h"
 769              		.file 10 "/home/selim/working/ChibiOS/os/rt/ports/ARMCMx/chcore.h"
 770              		.file 11 "/home/selim/working/ChibiOS/os/rt/ports/ARMCMx/chcore_v7m.h"
 771              		.file 12 "/home/selim/working/ChibiOS/os/rt/include/chtm.h"
 772              		.file 13 "/home/selim/working/ChibiOS/os/rt/include/chsem.h"
 773              		.file 14 "/home/selim/working/ChibiOS/os/rt/include/chmtx.h"
 774              		.file 15 "/home/selim/working/ChibiOS/os/hal/ports/STM32/STM32F4xx/stm32_dma.h"
 775              		.file 16 "/home/selim/working/ChibiOS/os/hal/include/uart.h"
 776              		.file 17 "/home/selim/working/ChibiOS/os/hal/ports/STM32/LLD/USARTv1/uart_lld.h"
 777              		.file 18 "/home/selim/working/ChibiOS/os/rt/include/chsys.h"
 778              		.file 19 "/home/selim/working/ChibiOS/os/hal/osal/rt/osal.h"
 779              		.file 20 "/home/selim/working/ChibiOS/os/ext/CMSIS/include/core_cm4.h"