ARM GAS  /tmp/ccwXba36.s 			page 1


   1              		.syntax unified
   2              		.cpu cortex-m4
   3              		.fpu softvfp
   4              		.eabi_attribute 20, 1
   5              		.eabi_attribute 21, 1
   6              		.eabi_attribute 23, 3
   7              		.eabi_attribute 24, 1
   8              		.eabi_attribute 25, 1
   9              		.eabi_attribute 26, 1
  10              		.eabi_attribute 30, 2
  11              		.eabi_attribute 34, 1
  12              		.eabi_attribute 18, 4
  13              		.thumb
  14              		.syntax unified
  15              		.file	"chcond.c"
  16              		.text
  17              	.Ltext0:
  18              		.cfi_sections	.debug_frame
  19              		.section	.text.chCondObjectInit,"ax",%progbits
  20              		.align	2
  21              		.p2align 4,,15
  22              		.global	chCondObjectInit
  23              		.thumb
  24              		.thumb_func
  25              		.type	chCondObjectInit, %function
  26              	chCondObjectInit:
  27              	.LFB227:
  28              		.file 1 "/home/selim/working/ChibiOS/os/rt/src/chcond.c"
  29              		.loc 1 75 0
  30              		.cfi_startproc
  31              		@ args = 0, pretend = 0, frame = 0
  32              		@ frame_needed = 0, uses_anonymous_args = 0
  33              	.LVL0:
  34 0000 10B5     		push	{r4, lr}
  35              		.cfi_def_cfa_offset 8
  36              		.cfi_offset 4, -8
  37              		.cfi_offset 14, -4
  38              		.loc 1 77 0
  39 0002 0446     		mov	r4, r0
  40 0004 10B1     		cbz	r0, .L5
  41              	.LVL1:
  42              	.LBB63:
  43              	.LBB64:
  44              		.file 2 "/home/selim/working/ChibiOS/os/rt/include/chschd.h"
  45              		.loc 2 604 0
  46 0006 2460     		str	r4, [r4]
  47              		.loc 2 605 0
  48 0008 6460     		str	r4, [r4, #4]
  49              	.LVL2:
  50 000a 10BD     		pop	{r4, pc}
  51              	.L5:
  52              	.LBE64:
  53              	.LBE63:
  54              		.loc 1 77 0 discriminator 2
  55 000c 0248     		ldr	r0, .L6
  56              	.LVL3:
  57 000e FFF7FEFF 		bl	chSysHalt
ARM GAS  /tmp/ccwXba36.s 			page 2


  58              	.LVL4:
  59              	.LBB66:
  60              	.LBB65:
  61              		.loc 2 604 0 discriminator 2
  62 0012 2460     		str	r4, [r4]
  63              		.loc 2 605 0 discriminator 2
  64 0014 6460     		str	r4, [r4, #4]
  65              	.LVL5:
  66 0016 10BD     		pop	{r4, pc}
  67              	.LVL6:
  68              	.L7:
  69              		.align	2
  70              	.L6:
  71 0018 00000000 		.word	.LANCHOR0
  72              	.LBE65:
  73              	.LBE66:
  74              		.cfi_endproc
  75              	.LFE227:
  76              		.size	chCondObjectInit, .-chCondObjectInit
  77              		.section	.text.chCondSignal,"ax",%progbits
  78              		.align	2
  79              		.p2align 4,,15
  80              		.global	chCondSignal
  81              		.thumb
  82              		.thumb_func
  83              		.type	chCondSignal, %function
  84              	chCondSignal:
  85              	.LFB228:
  86              		.loc 1 89 0
  87              		.cfi_startproc
  88              		@ args = 0, pretend = 0, frame = 0
  89              		@ frame_needed = 0, uses_anonymous_args = 0
  90              	.LVL7:
  91 0000 10B5     		push	{r4, lr}
  92              		.cfi_def_cfa_offset 8
  93              		.cfi_offset 4, -8
  94              		.cfi_offset 14, -4
  95              		.loc 1 91 0
  96 0002 0446     		mov	r4, r0
  97 0004 18B3     		cbz	r0, .L13
  98              	.LVL8:
  99              	.L9:
 100              	.LBB81:
 101              	.LBB82:
 102              	.LBB83:
 103              	.LBB84:
 104              	.LBB85:
 105              		.file 3 "/home/selim/working/ChibiOS/os/ext/CMSIS/include/core_cmFunc.h"
 106              		.loc 3 546 0
 107 0006 2023     		movs	r3, #32
 108              		.syntax unified
 109              	@ 546 "/home/selim/working/ChibiOS/os/ext/CMSIS/include/core_cmFunc.h" 1
 110 0008 83F31188 		MSR basepri, r3
 111              	@ 0 "" 2
 112              	.LVL9:
 113              		.thumb
 114              		.syntax unified
ARM GAS  /tmp/ccwXba36.s 			page 3


 115              	.LBE85:
 116              	.LBE84:
 117              	.LBE83:
 118              		.file 4 "/home/selim/working/ChibiOS/os/rt/include/chsys.h"
 119              		.loc 4 349 0
 120 000c FFF7FEFF 		bl	_stats_start_measure_crit_thd
 121              	.LVL10:
 122              		.loc 4 350 0
 123 0010 FFF7FEFF 		bl	_dbg_check_lock
 124              	.LVL11:
 125              	.LBE82:
 126              	.LBE81:
 127              	.LBB86:
 128              	.LBB87:
 129              		.loc 2 631 0
 130 0014 2068     		ldr	r0, [r4]
 131              	.LVL12:
 132              	.LBE87:
 133              	.LBE86:
 134              		.loc 1 94 0
 135 0016 8442     		cmp	r4, r0
 136 0018 05D0     		beq	.L10
 137              	.LVL13:
 138              	.LBB88:
 139              	.LBB89:
 140              		.loc 2 674 0
 141 001a 0368     		ldr	r3, [r0]
 142 001c 2360     		str	r3, [r4]
 143              	.LBE89:
 144              	.LBE88:
 145              		.loc 1 95 0
 146 001e 0021     		movs	r1, #0
 147              	.LBB91:
 148              	.LBB90:
 149              		.loc 2 675 0
 150 0020 5C60     		str	r4, [r3, #4]
 151              	.LVL14:
 152              	.LBE90:
 153              	.LBE91:
 154              		.loc 1 95 0
 155 0022 FFF7FEFF 		bl	chSchWakeupS
 156              	.LVL15:
 157              	.L10:
 158              	.LBB92:
 159              	.LBB93:
 160              		.loc 4 360 0
 161 0026 FFF7FEFF 		bl	_dbg_check_unlock
 162              	.LVL16:
 163              		.loc 4 361 0
 164 002a FFF7FEFF 		bl	_stats_stop_measure_crit_thd
 165              	.LVL17:
 166              		.loc 4 367 0
 167 002e 0A4B     		ldr	r3, .L14
 168 0030 1A68     		ldr	r2, [r3]
 169 0032 9A42     		cmp	r2, r3
 170 0034 07D0     		beq	.L11
 171 0036 9969     		ldr	r1, [r3, #24]
ARM GAS  /tmp/ccwXba36.s 			page 4


 172 0038 9368     		ldr	r3, [r2, #8]
 173 003a 8A68     		ldr	r2, [r1, #8]
 174 003c 9A42     		cmp	r2, r3
 175 003e 02D2     		bcs	.L11
 176 0040 0648     		ldr	r0, .L14+4
 177 0042 FFF7FEFF 		bl	chSysHalt
 178              	.LVL18:
 179              	.L11:
 180              	.LBB94:
 181              	.LBB95:
 182              	.LBB96:
 183              		.loc 3 546 0
 184 0046 0023     		movs	r3, #0
 185              		.syntax unified
 186              	@ 546 "/home/selim/working/ChibiOS/os/ext/CMSIS/include/core_cmFunc.h" 1
 187 0048 83F31188 		MSR basepri, r3
 188              	@ 0 "" 2
 189              	.LVL19:
 190              		.thumb
 191              		.syntax unified
 192 004c 10BD     		pop	{r4, pc}
 193              	.LVL20:
 194              	.L13:
 195              	.LBE96:
 196              	.LBE95:
 197              	.LBE94:
 198              	.LBE93:
 199              	.LBE92:
 200              		.loc 1 91 0 discriminator 2
 201 004e 0448     		ldr	r0, .L14+8
 202              	.LVL21:
 203 0050 FFF7FEFF 		bl	chSysHalt
 204              	.LVL22:
 205 0054 D7E7     		b	.L9
 206              	.L15:
 207 0056 00BF     		.align	2
 208              	.L14:
 209 0058 00000000 		.word	ch
 210 005c 00000000 		.word	.LANCHOR2
 211 0060 00000000 		.word	.LANCHOR1
 212              		.cfi_endproc
 213              	.LFE228:
 214              		.size	chCondSignal, .-chCondSignal
 215              		.section	.text.chCondSignalI,"ax",%progbits
 216              		.align	2
 217              		.p2align 4,,15
 218              		.global	chCondSignalI
 219              		.thumb
 220              		.thumb_func
 221              		.type	chCondSignalI, %function
 222              	chCondSignalI:
 223              	.LFB229:
 224              		.loc 1 111 0
 225              		.cfi_startproc
 226              		@ args = 0, pretend = 0, frame = 0
 227              		@ frame_needed = 0, uses_anonymous_args = 0
 228              	.LVL23:
ARM GAS  /tmp/ccwXba36.s 			page 5


 229 0000 10B5     		push	{r4, lr}
 230              		.cfi_def_cfa_offset 8
 231              		.cfi_offset 4, -8
 232              		.cfi_offset 14, -4
 233              		.loc 1 111 0
 234 0002 0446     		mov	r4, r0
 235              		.loc 1 113 0
 236 0004 FFF7FEFF 		bl	chDbgCheckClassI
 237              	.LVL24:
 238              		.loc 1 114 0
 239 0008 6CB1     		cbz	r4, .L20
 240              	.L17:
 241              	.LVL25:
 242              	.LBB97:
 243              	.LBB98:
 244              		.loc 2 631 0
 245 000a 2368     		ldr	r3, [r4]
 246              	.LVL26:
 247              	.LBE98:
 248              	.LBE97:
 249              		.loc 1 116 0
 250 000c 9C42     		cmp	r4, r3
 251 000e 09D0     		beq	.L16
 252              	.LVL27:
 253              	.LBB99:
 254              	.LBB100:
 255              	.LBB101:
 256              		.loc 2 674 0
 257 0010 1A68     		ldr	r2, [r3]
 258 0012 2260     		str	r2, [r4]
 259              	.LBE101:
 260              	.LBE100:
 261              		.loc 1 118 0
 262 0014 0021     		movs	r1, #0
 263              	.LBB103:
 264              	.LBB102:
 265              		.loc 2 675 0
 266 0016 5460     		str	r4, [r2, #4]
 267              	.LVL28:
 268              	.LBE102:
 269              	.LBE103:
 270              		.loc 1 118 0
 271 0018 5962     		str	r1, [r3, #36]
 272              		.loc 1 119 0
 273 001a 1846     		mov	r0, r3
 274              	.LBE99:
 275              		.loc 1 121 0
 276 001c BDE81040 		pop	{r4, lr}
 277              		.cfi_remember_state
 278              		.cfi_restore 14
 279              		.cfi_restore 4
 280              		.cfi_def_cfa_offset 0
 281              	.LVL29:
 282              	.LBB104:
 283              		.loc 1 119 0
 284 0020 FFF7FEBF 		b	chSchReadyI
 285              	.LVL30:
ARM GAS  /tmp/ccwXba36.s 			page 6


 286              	.L16:
 287              		.cfi_restore_state
 288 0024 10BD     		pop	{r4, pc}
 289              	.LVL31:
 290              	.L20:
 291              	.LBE104:
 292              		.loc 1 114 0 discriminator 2
 293 0026 0248     		ldr	r0, .L21
 294 0028 FFF7FEFF 		bl	chSysHalt
 295              	.LVL32:
 296 002c EDE7     		b	.L17
 297              	.L22:
 298 002e 00BF     		.align	2
 299              	.L21:
 300 0030 00000000 		.word	.LANCHOR3
 301              		.cfi_endproc
 302              	.LFE229:
 303              		.size	chCondSignalI, .-chCondSignalI
 304              		.section	.text.chCondBroadcastI,"ax",%progbits
 305              		.align	2
 306              		.p2align 4,,15
 307              		.global	chCondBroadcastI
 308              		.thumb
 309              		.thumb_func
 310              		.type	chCondBroadcastI, %function
 311              	chCondBroadcastI:
 312              	.LFB231:
 313              		.loc 1 149 0
 314              		.cfi_startproc
 315              		@ args = 0, pretend = 0, frame = 0
 316              		@ frame_needed = 0, uses_anonymous_args = 0
 317              	.LVL33:
 318 0000 38B5     		push	{r3, r4, r5, lr}
 319              		.cfi_def_cfa_offset 16
 320              		.cfi_offset 3, -16
 321              		.cfi_offset 4, -12
 322              		.cfi_offset 5, -8
 323              		.cfi_offset 14, -4
 324              		.loc 1 149 0
 325 0002 0446     		mov	r4, r0
 326              		.loc 1 151 0
 327 0004 FFF7FEFF 		bl	chDbgCheckClassI
 328              	.LVL34:
 329              		.loc 1 152 0
 330 0008 74B1     		cbz	r4, .L30
 331              	.L24:
 332              	.LVL35:
 333              	.LBB105:
 334              	.LBB106:
 335              		.loc 2 631 0
 336 000a 2068     		ldr	r0, [r4]
 337              	.LVL36:
 338              	.LBE106:
 339              	.LBE105:
 340              		.loc 1 157 0
 341 000c 8442     		cmp	r4, r0
 342 000e 0AD0     		beq	.L23
ARM GAS  /tmp/ccwXba36.s 			page 7


 343              		.loc 1 158 0
 344 0010 6FF00105 		mvn	r5, #1
 345              	.L26:
 346              	.LVL37:
 347              	.LBB108:
 348              	.LBB109:
 349              		.loc 2 674 0
 350 0014 0368     		ldr	r3, [r0]
 351 0016 2360     		str	r3, [r4]
 352              		.loc 2 675 0
 353 0018 5C60     		str	r4, [r3, #4]
 354              	.LVL38:
 355              	.LBE109:
 356              	.LBE108:
 357              		.loc 1 158 0
 358 001a FFF7FEFF 		bl	chSchReadyI
 359              	.LVL39:
 360 001e 4562     		str	r5, [r0, #36]
 361              	.LVL40:
 362              	.LBB110:
 363              	.LBB107:
 364              		.loc 2 631 0
 365 0020 2068     		ldr	r0, [r4]
 366              	.LVL41:
 367              	.LBE107:
 368              	.LBE110:
 369              		.loc 1 157 0
 370 0022 A042     		cmp	r0, r4
 371 0024 F6D1     		bne	.L26
 372              	.L23:
 373 0026 38BD     		pop	{r3, r4, r5, pc}
 374              	.LVL42:
 375              	.L30:
 376              		.loc 1 152 0 discriminator 2
 377 0028 0148     		ldr	r0, .L31
 378 002a FFF7FEFF 		bl	chSysHalt
 379              	.LVL43:
 380 002e ECE7     		b	.L24
 381              	.L32:
 382              		.align	2
 383              	.L31:
 384 0030 00000000 		.word	.LANCHOR4
 385              		.cfi_endproc
 386              	.LFE231:
 387              		.size	chCondBroadcastI, .-chCondBroadcastI
 388              		.section	.text.chCondBroadcast,"ax",%progbits
 389              		.align	2
 390              		.p2align 4,,15
 391              		.global	chCondBroadcast
 392              		.thumb
 393              		.thumb_func
 394              		.type	chCondBroadcast, %function
 395              	chCondBroadcast:
 396              	.LFB230:
 397              		.loc 1 130 0
 398              		.cfi_startproc
 399              		@ args = 0, pretend = 0, frame = 0
ARM GAS  /tmp/ccwXba36.s 			page 8


 400              		@ frame_needed = 0, uses_anonymous_args = 0
 401              	.LVL44:
 402 0000 10B5     		push	{r4, lr}
 403              		.cfi_def_cfa_offset 8
 404              		.cfi_offset 4, -8
 405              		.cfi_offset 14, -4
 406              	.LBB121:
 407              	.LBB122:
 408              	.LBB123:
 409              	.LBB124:
 410              	.LBB125:
 411              		.loc 3 546 0
 412 0002 2023     		movs	r3, #32
 413              	.LBE125:
 414              	.LBE124:
 415              	.LBE123:
 416              	.LBE122:
 417              	.LBE121:
 418              		.loc 1 130 0
 419 0004 0446     		mov	r4, r0
 420              	.LBB130:
 421              	.LBB129:
 422              	.LBB128:
 423              	.LBB127:
 424              	.LBB126:
 425              		.loc 3 546 0
 426              		.syntax unified
 427              	@ 546 "/home/selim/working/ChibiOS/os/ext/CMSIS/include/core_cmFunc.h" 1
 428 0006 83F31188 		MSR basepri, r3
 429              	@ 0 "" 2
 430              	.LVL45:
 431              		.thumb
 432              		.syntax unified
 433              	.LBE126:
 434              	.LBE127:
 435              	.LBE128:
 436              		.loc 4 349 0
 437 000a FFF7FEFF 		bl	_stats_start_measure_crit_thd
 438              	.LVL46:
 439              		.loc 4 350 0
 440 000e FFF7FEFF 		bl	_dbg_check_lock
 441              	.LVL47:
 442              	.LBE129:
 443              	.LBE130:
 444              		.loc 1 133 0
 445 0012 2046     		mov	r0, r4
 446 0014 FFF7FEFF 		bl	chCondBroadcastI
 447              	.LVL48:
 448              		.loc 1 134 0
 449 0018 FFF7FEFF 		bl	chSchRescheduleS
 450              	.LVL49:
 451              	.LBB131:
 452              	.LBB132:
 453              		.loc 4 360 0
 454 001c FFF7FEFF 		bl	_dbg_check_unlock
 455              	.LVL50:
 456              		.loc 4 361 0
ARM GAS  /tmp/ccwXba36.s 			page 9


 457 0020 FFF7FEFF 		bl	_stats_stop_measure_crit_thd
 458              	.LVL51:
 459              		.loc 4 367 0
 460 0024 074B     		ldr	r3, .L36
 461 0026 1A68     		ldr	r2, [r3]
 462 0028 9A42     		cmp	r2, r3
 463 002a 07D0     		beq	.L34
 464 002c 9969     		ldr	r1, [r3, #24]
 465 002e 9368     		ldr	r3, [r2, #8]
 466 0030 8A68     		ldr	r2, [r1, #8]
 467 0032 9A42     		cmp	r2, r3
 468 0034 02D2     		bcs	.L34
 469 0036 0448     		ldr	r0, .L36+4
 470 0038 FFF7FEFF 		bl	chSysHalt
 471              	.LVL52:
 472              	.L34:
 473              	.LBB133:
 474              	.LBB134:
 475              	.LBB135:
 476              		.loc 3 546 0
 477 003c 0023     		movs	r3, #0
 478              		.syntax unified
 479              	@ 546 "/home/selim/working/ChibiOS/os/ext/CMSIS/include/core_cmFunc.h" 1
 480 003e 83F31188 		MSR basepri, r3
 481              	@ 0 "" 2
 482              	.LVL53:
 483              		.thumb
 484              		.syntax unified
 485 0042 10BD     		pop	{r4, pc}
 486              	.LVL54:
 487              	.L37:
 488              		.align	2
 489              	.L36:
 490 0044 00000000 		.word	ch
 491 0048 00000000 		.word	.LANCHOR2
 492              	.LBE135:
 493              	.LBE134:
 494              	.LBE133:
 495              	.LBE132:
 496              	.LBE131:
 497              		.cfi_endproc
 498              	.LFE230:
 499              		.size	chCondBroadcast, .-chCondBroadcast
 500              		.section	.text.chCondWaitS,"ax",%progbits
 501              		.align	2
 502              		.p2align 4,,15
 503              		.global	chCondWaitS
 504              		.thumb
 505              		.thumb_func
 506              		.type	chCondWaitS, %function
 507              	chCondWaitS:
 508              	.LFB233:
 509              		.loc 1 205 0
 510              		.cfi_startproc
 511              		@ args = 0, pretend = 0, frame = 0
 512              		@ frame_needed = 0, uses_anonymous_args = 0
 513              	.LVL55:
ARM GAS  /tmp/ccwXba36.s 			page 10


 514 0000 70B5     		push	{r4, r5, r6, lr}
 515              		.cfi_def_cfa_offset 16
 516              		.cfi_offset 4, -16
 517              		.cfi_offset 5, -12
 518              		.cfi_offset 6, -8
 519              		.cfi_offset 14, -4
 520              		.loc 1 206 0
 521 0002 164E     		ldr	r6, .L50
 522              		.loc 1 205 0
 523 0004 0546     		mov	r5, r0
 524              		.loc 1 206 0
 525 0006 B469     		ldr	r4, [r6, #24]
 526              	.LVL56:
 527              		.loc 1 210 0
 528 0008 FFF7FEFF 		bl	chDbgCheckClassS
 529              	.LVL57:
 530              		.loc 1 211 0
 531 000c F5B1     		cbz	r5, .L47
 532              	.L39:
 533              		.loc 1 212 0 discriminator 1
 534 000e E36B     		ldr	r3, [r4, #60]
 535 0010 03B3     		cbz	r3, .L48
 536              	.L40:
 537              	.LBB136:
 538              	.LBB137:
 539              		.file 5 "/home/selim/working/ChibiOS/os/rt/include/chmtx.h"
 540              		.loc 5 146 0
 541 0012 B369     		ldr	r3, [r6, #24]
 542 0014 DE6B     		ldr	r6, [r3, #60]
 543              	.LBE137:
 544              	.LBE136:
 545              		.loc 1 216 0
 546 0016 3046     		mov	r0, r6
 547 0018 FFF7FEFF 		bl	chMtxUnlockS
 548              	.LVL58:
 549              		.loc 1 220 0
 550 001c 6562     		str	r5, [r4, #36]
 551              	.LVL59:
 552              	.LBB138:
 553              	.LBB139:
 554              		.loc 2 653 0
 555 001e 2B46     		mov	r3, r5
 556 0020 03E0     		b	.L42
 557              	.LVL60:
 558              	.L49:
 559              		.loc 2 656 0
 560 0022 9968     		ldr	r1, [r3, #8]
 561 0024 A268     		ldr	r2, [r4, #8]
 562 0026 9142     		cmp	r1, r2
 563 0028 02D3     		bcc	.L43
 564              	.LVL61:
 565              	.L42:
 566              		.loc 2 655 0
 567 002a 1B68     		ldr	r3, [r3]
 568              	.LVL62:
 569              		.loc 2 656 0
 570 002c 9D42     		cmp	r5, r3
ARM GAS  /tmp/ccwXba36.s 			page 11


 571 002e F8D1     		bne	.L49
 572              	.L43:
 573              		.loc 2 658 0
 574 0030 5A68     		ldr	r2, [r3, #4]
 575 0032 6260     		str	r2, [r4, #4]
 576              		.loc 2 657 0
 577 0034 2360     		str	r3, [r4]
 578              	.LBE139:
 579              	.LBE138:
 580              		.loc 1 222 0
 581 0036 0720     		movs	r0, #7
 582              	.LBB141:
 583              	.LBB140:
 584              		.loc 2 659 0
 585 0038 1460     		str	r4, [r2]
 586              		.loc 2 660 0
 587 003a 5C60     		str	r4, [r3, #4]
 588              	.LVL63:
 589              	.LBE140:
 590              	.LBE141:
 591              		.loc 1 222 0
 592 003c FFF7FEFF 		bl	chSchGoSleepS
 593              	.LVL64:
 594              		.loc 1 223 0
 595 0040 646A     		ldr	r4, [r4, #36]
 596              	.LVL65:
 597              		.loc 1 224 0
 598 0042 3046     		mov	r0, r6
 599 0044 FFF7FEFF 		bl	chMtxLockS
 600              	.LVL66:
 601              		.loc 1 227 0
 602 0048 2046     		mov	r0, r4
 603 004a 70BD     		pop	{r4, r5, r6, pc}
 604              	.LVL67:
 605              	.L47:
 606              		.loc 1 211 0 discriminator 2
 607 004c 0448     		ldr	r0, .L50+4
 608 004e FFF7FEFF 		bl	chSysHalt
 609              	.LVL68:
 610 0052 DCE7     		b	.L39
 611              	.L48:
 612              		.loc 1 212 0 discriminator 2
 613 0054 0248     		ldr	r0, .L50+4
 614 0056 FFF7FEFF 		bl	chSysHalt
 615              	.LVL69:
 616 005a DAE7     		b	.L40
 617              	.L51:
 618              		.align	2
 619              	.L50:
 620 005c 00000000 		.word	ch
 621 0060 00000000 		.word	.LANCHOR5
 622              		.cfi_endproc
 623              	.LFE233:
 624              		.size	chCondWaitS, .-chCondWaitS
 625              		.section	.text.chCondWait,"ax",%progbits
 626              		.align	2
 627              		.p2align 4,,15
ARM GAS  /tmp/ccwXba36.s 			page 12


 628              		.global	chCondWait
 629              		.thumb
 630              		.thumb_func
 631              		.type	chCondWait, %function
 632              	chCondWait:
 633              	.LFB232:
 634              		.loc 1 179 0
 635              		.cfi_startproc
 636              		@ args = 0, pretend = 0, frame = 0
 637              		@ frame_needed = 0, uses_anonymous_args = 0
 638              	.LVL70:
 639 0000 10B5     		push	{r4, lr}
 640              		.cfi_def_cfa_offset 8
 641              		.cfi_offset 4, -8
 642              		.cfi_offset 14, -4
 643              	.LBB152:
 644              	.LBB153:
 645              	.LBB154:
 646              	.LBB155:
 647              	.LBB156:
 648              		.loc 3 546 0
 649 0002 2023     		movs	r3, #32
 650              	.LBE156:
 651              	.LBE155:
 652              	.LBE154:
 653              	.LBE153:
 654              	.LBE152:
 655              		.loc 1 179 0
 656 0004 0446     		mov	r4, r0
 657              	.LBB161:
 658              	.LBB160:
 659              	.LBB159:
 660              	.LBB158:
 661              	.LBB157:
 662              		.loc 3 546 0
 663              		.syntax unified
 664              	@ 546 "/home/selim/working/ChibiOS/os/ext/CMSIS/include/core_cmFunc.h" 1
 665 0006 83F31188 		MSR basepri, r3
 666              	@ 0 "" 2
 667              	.LVL71:
 668              		.thumb
 669              		.syntax unified
 670              	.LBE157:
 671              	.LBE158:
 672              	.LBE159:
 673              		.loc 4 349 0
 674 000a FFF7FEFF 		bl	_stats_start_measure_crit_thd
 675              	.LVL72:
 676              		.loc 4 350 0
 677 000e FFF7FEFF 		bl	_dbg_check_lock
 678              	.LVL73:
 679              	.LBE160:
 680              	.LBE161:
 681              		.loc 1 183 0
 682 0012 2046     		mov	r0, r4
 683 0014 FFF7FEFF 		bl	chCondWaitS
 684              	.LVL74:
ARM GAS  /tmp/ccwXba36.s 			page 13


 685 0018 0446     		mov	r4, r0
 686              	.LVL75:
 687              	.LBB162:
 688              	.LBB163:
 689              		.loc 4 360 0
 690 001a FFF7FEFF 		bl	_dbg_check_unlock
 691              	.LVL76:
 692              		.loc 4 361 0
 693 001e FFF7FEFF 		bl	_stats_stop_measure_crit_thd
 694              	.LVL77:
 695              		.loc 4 367 0
 696 0022 084B     		ldr	r3, .L55
 697 0024 1A68     		ldr	r2, [r3]
 698 0026 9A42     		cmp	r2, r3
 699 0028 07D0     		beq	.L53
 700 002a 9969     		ldr	r1, [r3, #24]
 701 002c 9368     		ldr	r3, [r2, #8]
 702 002e 8A68     		ldr	r2, [r1, #8]
 703 0030 9A42     		cmp	r2, r3
 704 0032 02D2     		bcs	.L53
 705 0034 0448     		ldr	r0, .L55+4
 706 0036 FFF7FEFF 		bl	chSysHalt
 707              	.LVL78:
 708              	.L53:
 709              	.LBB164:
 710              	.LBB165:
 711              	.LBB166:
 712              		.loc 3 546 0
 713 003a 0023     		movs	r3, #0
 714              		.syntax unified
 715              	@ 546 "/home/selim/working/ChibiOS/os/ext/CMSIS/include/core_cmFunc.h" 1
 716 003c 83F31188 		MSR basepri, r3
 717              	@ 0 "" 2
 718              	.LVL79:
 719              		.thumb
 720              		.syntax unified
 721              	.LBE166:
 722              	.LBE165:
 723              	.LBE164:
 724              	.LBE163:
 725              	.LBE162:
 726              		.loc 1 186 0
 727 0040 2046     		mov	r0, r4
 728 0042 10BD     		pop	{r4, pc}
 729              	.LVL80:
 730              	.L56:
 731              		.align	2
 732              	.L55:
 733 0044 00000000 		.word	ch
 734 0048 00000000 		.word	.LANCHOR2
 735              		.cfi_endproc
 736              	.LFE232:
 737              		.size	chCondWait, .-chCondWait
 738              		.section	.text.chCondWaitTimeoutS,"ax",%progbits
 739              		.align	2
 740              		.p2align 4,,15
 741              		.global	chCondWaitTimeoutS
ARM GAS  /tmp/ccwXba36.s 			page 14


 742              		.thumb
 743              		.thumb_func
 744              		.type	chCondWaitTimeoutS, %function
 745              	chCondWaitTimeoutS:
 746              	.LFB235:
 747              		.loc 1 296 0
 748              		.cfi_startproc
 749              		@ args = 0, pretend = 0, frame = 0
 750              		@ frame_needed = 0, uses_anonymous_args = 0
 751              	.LVL81:
 752 0000 F8B5     		push	{r3, r4, r5, r6, r7, lr}
 753              		.cfi_def_cfa_offset 24
 754              		.cfi_offset 3, -24
 755              		.cfi_offset 4, -20
 756              		.cfi_offset 5, -16
 757              		.cfi_offset 6, -12
 758              		.cfi_offset 7, -8
 759              		.cfi_offset 14, -4
 760              		.loc 1 296 0
 761 0002 0546     		mov	r5, r0
 762 0004 0F46     		mov	r7, r1
 763              		.loc 1 300 0
 764 0006 FFF7FEFF 		bl	chDbgCheckClassS
 765              	.LVL82:
 766              		.loc 1 301 0
 767 000a 1DB3     		cbz	r5, .L58
 768              		.loc 1 301 0 is_stmt 0 discriminator 3
 769 000c 17B3     		cbz	r7, .L58
 770              	.L59:
 771              		.loc 1 302 0 is_stmt 1 discriminator 1
 772 000e 164C     		ldr	r4, .L74
 773 0010 A369     		ldr	r3, [r4, #24]
 774 0012 DE6B     		ldr	r6, [r3, #60]
 775 0014 16B3     		cbz	r6, .L72
 776              	.L60:
 777              		.loc 1 306 0
 778 0016 3046     		mov	r0, r6
 779 0018 FFF7FEFF 		bl	chMtxUnlockS
 780              	.LVL83:
 781              		.loc 1 310 0
 782 001c A469     		ldr	r4, [r4, #24]
 783              	.LBB167:
 784              	.LBB168:
 785              		.loc 2 653 0
 786 001e 2B46     		mov	r3, r5
 787              	.LBE168:
 788              	.LBE167:
 789              		.loc 1 310 0
 790 0020 6562     		str	r5, [r4, #36]
 791              	.LVL84:
 792 0022 03E0     		b	.L62
 793              	.LVL85:
 794              	.L73:
 795              	.LBB172:
 796              	.LBB169:
 797              		.loc 2 656 0
 798 0024 9968     		ldr	r1, [r3, #8]
ARM GAS  /tmp/ccwXba36.s 			page 15


 799 0026 A268     		ldr	r2, [r4, #8]
 800 0028 9142     		cmp	r1, r2
 801 002a 02D3     		bcc	.L61
 802              	.LVL86:
 803              	.L62:
 804              		.loc 2 655 0
 805 002c 1B68     		ldr	r3, [r3]
 806              	.LVL87:
 807              		.loc 2 656 0
 808 002e 9D42     		cmp	r5, r3
 809 0030 F8D1     		bne	.L73
 810              	.L61:
 811              		.loc 2 658 0
 812 0032 5A68     		ldr	r2, [r3, #4]
 813 0034 6260     		str	r2, [r4, #4]
 814              		.loc 2 657 0
 815 0036 2360     		str	r3, [r4]
 816              	.LBE169:
 817              	.LBE172:
 818              		.loc 1 312 0
 819 0038 3946     		mov	r1, r7
 820              	.LBB173:
 821              	.LBB170:
 822              		.loc 2 659 0
 823 003a 1460     		str	r4, [r2]
 824              	.LBE170:
 825              	.LBE173:
 826              		.loc 1 312 0
 827 003c 0720     		movs	r0, #7
 828              	.LBB174:
 829              	.LBB171:
 830              		.loc 2 660 0
 831 003e 5C60     		str	r4, [r3, #4]
 832              	.LVL88:
 833              	.LBE171:
 834              	.LBE174:
 835              		.loc 1 312 0
 836 0040 FFF7FEFF 		bl	chSchGoSleepTimeoutS
 837              	.LVL89:
 838              		.loc 1 313 0
 839 0044 431C     		adds	r3, r0, #1
 840              		.loc 1 312 0
 841 0046 0446     		mov	r4, r0
 842              	.LVL90:
 843              		.loc 1 313 0
 844 0048 02D0     		beq	.L63
 845              		.loc 1 314 0
 846 004a 3046     		mov	r0, r6
 847              	.LVL91:
 848 004c FFF7FEFF 		bl	chMtxLockS
 849              	.LVL92:
 850              	.L63:
 851              		.loc 1 318 0
 852 0050 2046     		mov	r0, r4
 853 0052 F8BD     		pop	{r3, r4, r5, r6, r7, pc}
 854              	.LVL93:
 855              	.L58:
ARM GAS  /tmp/ccwXba36.s 			page 16


 856              		.loc 1 301 0 discriminator 4
 857 0054 0548     		ldr	r0, .L74+4
 858 0056 FFF7FEFF 		bl	chSysHalt
 859              	.LVL94:
 860 005a D8E7     		b	.L59
 861              	.L72:
 862              		.loc 1 302 0 discriminator 2
 863 005c 0348     		ldr	r0, .L74+4
 864 005e FFF7FEFF 		bl	chSysHalt
 865              	.LVL95:
 866 0062 A369     		ldr	r3, [r4, #24]
 867 0064 DE6B     		ldr	r6, [r3, #60]
 868 0066 D6E7     		b	.L60
 869              	.L75:
 870              		.align	2
 871              	.L74:
 872 0068 00000000 		.word	ch
 873 006c 00000000 		.word	.LANCHOR6
 874              		.cfi_endproc
 875              	.LFE235:
 876              		.size	chCondWaitTimeoutS, .-chCondWaitTimeoutS
 877              		.section	.text.chCondWaitTimeout,"ax",%progbits
 878              		.align	2
 879              		.p2align 4,,15
 880              		.global	chCondWaitTimeout
 881              		.thumb
 882              		.thumb_func
 883              		.type	chCondWaitTimeout, %function
 884              	chCondWaitTimeout:
 885              	.LFB234:
 886              		.loc 1 258 0
 887              		.cfi_startproc
 888              		@ args = 0, pretend = 0, frame = 0
 889              		@ frame_needed = 0, uses_anonymous_args = 0
 890              	.LVL96:
 891 0000 38B5     		push	{r3, r4, r5, lr}
 892              		.cfi_def_cfa_offset 16
 893              		.cfi_offset 3, -16
 894              		.cfi_offset 4, -12
 895              		.cfi_offset 5, -8
 896              		.cfi_offset 14, -4
 897              		.loc 1 258 0
 898 0002 0446     		mov	r4, r0
 899 0004 0D46     		mov	r5, r1
 900              	.LBB185:
 901              	.LBB186:
 902              	.LBB187:
 903              	.LBB188:
 904              	.LBB189:
 905              		.loc 3 546 0
 906 0006 2023     		movs	r3, #32
 907              		.syntax unified
 908              	@ 546 "/home/selim/working/ChibiOS/os/ext/CMSIS/include/core_cmFunc.h" 1
 909 0008 83F31188 		MSR basepri, r3
 910              	@ 0 "" 2
 911              	.LVL97:
 912              		.thumb
ARM GAS  /tmp/ccwXba36.s 			page 17


 913              		.syntax unified
 914              	.LBE189:
 915              	.LBE188:
 916              	.LBE187:
 917              		.loc 4 349 0
 918 000c FFF7FEFF 		bl	_stats_start_measure_crit_thd
 919              	.LVL98:
 920              		.loc 4 350 0
 921 0010 FFF7FEFF 		bl	_dbg_check_lock
 922              	.LVL99:
 923              	.LBE186:
 924              	.LBE185:
 925              		.loc 1 262 0
 926 0014 2946     		mov	r1, r5
 927 0016 2046     		mov	r0, r4
 928 0018 FFF7FEFF 		bl	chCondWaitTimeoutS
 929              	.LVL100:
 930 001c 0446     		mov	r4, r0
 931              	.LVL101:
 932              	.LBB190:
 933              	.LBB191:
 934              		.loc 4 360 0
 935 001e FFF7FEFF 		bl	_dbg_check_unlock
 936              	.LVL102:
 937              		.loc 4 361 0
 938 0022 FFF7FEFF 		bl	_stats_stop_measure_crit_thd
 939              	.LVL103:
 940              		.loc 4 367 0
 941 0026 084B     		ldr	r3, .L79
 942 0028 1A68     		ldr	r2, [r3]
 943 002a 9A42     		cmp	r2, r3
 944 002c 07D0     		beq	.L77
 945 002e 9969     		ldr	r1, [r3, #24]
 946 0030 9368     		ldr	r3, [r2, #8]
 947 0032 8A68     		ldr	r2, [r1, #8]
 948 0034 9A42     		cmp	r2, r3
 949 0036 02D2     		bcs	.L77
 950 0038 0448     		ldr	r0, .L79+4
 951 003a FFF7FEFF 		bl	chSysHalt
 952              	.LVL104:
 953              	.L77:
 954              	.LBB192:
 955              	.LBB193:
 956              	.LBB194:
 957              		.loc 3 546 0
 958 003e 0023     		movs	r3, #0
 959              		.syntax unified
 960              	@ 546 "/home/selim/working/ChibiOS/os/ext/CMSIS/include/core_cmFunc.h" 1
 961 0040 83F31188 		MSR basepri, r3
 962              	@ 0 "" 2
 963              	.LVL105:
 964              		.thumb
 965              		.syntax unified
 966              	.LBE194:
 967              	.LBE193:
 968              	.LBE192:
 969              	.LBE191:
ARM GAS  /tmp/ccwXba36.s 			page 18


 970              	.LBE190:
 971              		.loc 1 266 0
 972 0044 2046     		mov	r0, r4
 973 0046 38BD     		pop	{r3, r4, r5, pc}
 974              	.LVL106:
 975              	.L80:
 976              		.align	2
 977              	.L79:
 978 0048 00000000 		.word	ch
 979 004c 00000000 		.word	.LANCHOR2
 980              		.cfi_endproc
 981              	.LFE234:
 982              		.size	chCondWaitTimeout, .-chCondWaitTimeout
 983              		.section	.rodata.__func__.6661,"a",%progbits
 984              		.align	2
 985              		.set	.LANCHOR1,. + 0
 986              		.type	__func__.6661, %object
 987              		.size	__func__.6661, 13
 988              	__func__.6661:
 989 0000 6368436F 		.ascii	"chCondSignal\000"
 989      6E645369 
 989      676E616C 
 989      00
 990              		.section	.rodata.__func__.6657,"a",%progbits
 991              		.align	2
 992              		.set	.LANCHOR0,. + 0
 993              		.type	__func__.6657, %object
 994              		.size	__func__.6657, 17
 995              	__func__.6657:
 996 0000 6368436F 		.ascii	"chCondObjectInit\000"
 996      6E644F62 
 996      6A656374 
 996      496E6974 
 996      00
 997              		.section	.rodata.__func__.6665,"a",%progbits
 998              		.align	2
 999              		.set	.LANCHOR3,. + 0
 1000              		.type	__func__.6665, %object
 1001              		.size	__func__.6665, 14
 1002              	__func__.6665:
 1003 0000 6368436F 		.ascii	"chCondSignalI\000"
 1003      6E645369 
 1003      676E616C 
 1003      4900
 1004              		.section	.rodata.__func__.6673,"a",%progbits
 1005              		.align	2
 1006              		.set	.LANCHOR4,. + 0
 1007              		.type	__func__.6673, %object
 1008              		.size	__func__.6673, 17
 1009              	__func__.6673:
 1010 0000 6368436F 		.ascii	"chCondBroadcastI\000"
 1010      6E644272 
 1010      6F616463 
 1010      61737449 
 1010      00
 1011              		.section	.rodata.__func__.6687,"a",%progbits
 1012              		.align	2
ARM GAS  /tmp/ccwXba36.s 			page 19


 1013              		.set	.LANCHOR5,. + 0
 1014              		.type	__func__.6687, %object
 1015              		.size	__func__.6687, 12
 1016              	__func__.6687:
 1017 0000 6368436F 		.ascii	"chCondWaitS\000"
 1017      6E645761 
 1017      69745300 
 1018              		.section	.rodata.__func__.5969,"a",%progbits
 1019              		.align	2
 1020              		.set	.LANCHOR2,. + 0
 1021              		.type	__func__.5969, %object
 1022              		.size	__func__.5969, 12
 1023              	__func__.5969:
 1024 0000 63685379 		.ascii	"chSysUnlock\000"
 1024      73556E6C 
 1024      6F636B00 
 1025              		.section	.rodata.__func__.6699,"a",%progbits
 1026              		.align	2
 1027              		.set	.LANCHOR6,. + 0
 1028              		.type	__func__.6699, %object
 1029              		.size	__func__.6699, 19
 1030              	__func__.6699:
 1031 0000 6368436F 		.ascii	"chCondWaitTimeoutS\000"
 1031      6E645761 
 1031      69745469 
 1031      6D656F75 
 1031      745300
 1032              		.text
 1033              	.Letext0:
 1034              		.file 6 "/usr/arm-none-eabi/include/machine/_default_types.h"
 1035              		.file 7 "/usr/arm-none-eabi/include/sys/_stdint.h"
 1036              		.file 8 "/home/selim/working/ChibiOS/os/rt/ports/ARMCMx/compilers/GCC/chtypes.h"
 1037              		.file 9 "/home/selim/working/ChibiOS/os/rt/include/chsystypes.h"
 1038              		.file 10 "/home/selim/working/ChibiOS/os/rt/ports/ARMCMx/chcore.h"
 1039              		.file 11 "/home/selim/working/ChibiOS/os/rt/ports/ARMCMx/chcore_v7m.h"
 1040              		.file 12 "/home/selim/working/ChibiOS/os/rt/include/chdebug.h"
 1041              		.file 13 "/home/selim/working/ChibiOS/os/rt/include/chtm.h"
 1042              		.file 14 "/home/selim/working/ChibiOS/os/rt/include/chstats.h"
 1043              		.file 15 "/home/selim/working/ChibiOS/os/rt/include/chsem.h"
 1044              		.file 16 "/home/selim/working/ChibiOS/os/rt/include/chcond.h"
 1045              		.file 17 "/home/selim/working/ChibiOS/os/rt/include/chthreads.h"
 1046              		.file 18 "/home/selim/working/ChibiOS/os/ext/CMSIS/include/core_cm4.h"
 1047              		.section	.debug_info,"",%progbits
 1048              	.Ldebug_info0:
 1049 0000 C3120000 		.4byte	0x12c3
 1050 0004 0400     		.2byte	0x4
 1051 0006 00000000 		.4byte	.Ldebug_abbrev0
 1052 000a 04       		.byte	0x4
 1053 000b 01       		.uleb128 0x1
 1054 000c 27050000 		.4byte	.LASF171
 1055 0010 0C       		.byte	0xc
 1056 0011 32060000 		.4byte	.LASF172
 1057 0015 18010000 		.4byte	.Ldebug_ranges0+0x118
 1058 0019 00000000 		.4byte	0
 1059 001d 00000000 		.4byte	.Ldebug_line0
 1060 0021 02       		.uleb128 0x2
 1061 0022 04       		.byte	0x4
ARM GAS  /tmp/ccwXba36.s 			page 20


 1062 0023 05       		.byte	0x5
 1063 0024 696E7400 		.ascii	"int\000"
 1064 0028 03       		.uleb128 0x3
 1065 0029 04       		.byte	0x4
 1066 002a 07       		.byte	0x7
 1067 002b A0020000 		.4byte	.LASF0
 1068 002f 03       		.uleb128 0x3
 1069 0030 08       		.byte	0x8
 1070 0031 05       		.byte	0x5
 1071 0032 70010000 		.4byte	.LASF1
 1072 0036 03       		.uleb128 0x3
 1073 0037 08       		.byte	0x8
 1074 0038 04       		.byte	0x4
 1075 0039 20070000 		.4byte	.LASF2
 1076 003d 03       		.uleb128 0x3
 1077 003e 01       		.byte	0x1
 1078 003f 06       		.byte	0x6
 1079 0040 7E010000 		.4byte	.LASF3
 1080 0044 04       		.uleb128 0x4
 1081 0045 3F000000 		.4byte	.LASF7
 1082 0049 06       		.byte	0x6
 1083 004a 1D       		.byte	0x1d
 1084 004b 4F000000 		.4byte	0x4f
 1085 004f 03       		.uleb128 0x3
 1086 0050 01       		.byte	0x1
 1087 0051 08       		.byte	0x8
 1088 0052 F6040000 		.4byte	.LASF4
 1089 0056 03       		.uleb128 0x3
 1090 0057 02       		.byte	0x2
 1091 0058 05       		.byte	0x5
 1092 0059 0E050000 		.4byte	.LASF5
 1093 005d 03       		.uleb128 0x3
 1094 005e 02       		.byte	0x2
 1095 005f 07       		.byte	0x7
 1096 0060 E3020000 		.4byte	.LASF6
 1097 0064 04       		.uleb128 0x4
 1098 0065 89030000 		.4byte	.LASF8
 1099 0069 06       		.byte	0x6
 1100 006a 3F       		.byte	0x3f
 1101 006b 6F000000 		.4byte	0x6f
 1102 006f 03       		.uleb128 0x3
 1103 0070 04       		.byte	0x4
 1104 0071 05       		.byte	0x5
 1105 0072 CC010000 		.4byte	.LASF9
 1106 0076 04       		.uleb128 0x4
 1107 0077 5C070000 		.4byte	.LASF10
 1108 007b 06       		.byte	0x6
 1109 007c 41       		.byte	0x41
 1110 007d 81000000 		.4byte	0x81
 1111 0081 03       		.uleb128 0x3
 1112 0082 04       		.byte	0x4
 1113 0083 07       		.byte	0x7
 1114 0084 E7060000 		.4byte	.LASF11
 1115 0088 04       		.uleb128 0x4
 1116 0089 93040000 		.4byte	.LASF12
 1117 008d 06       		.byte	0x6
 1118 008e 5B       		.byte	0x5b
ARM GAS  /tmp/ccwXba36.s 			page 21


 1119 008f 93000000 		.4byte	0x93
 1120 0093 03       		.uleb128 0x3
 1121 0094 08       		.byte	0x8
 1122 0095 07       		.byte	0x7
 1123 0096 C9000000 		.4byte	.LASF13
 1124 009a 04       		.uleb128 0x4
 1125 009b ED070000 		.4byte	.LASF14
 1126 009f 07       		.byte	0x7
 1127 00a0 14       		.byte	0x14
 1128 00a1 44000000 		.4byte	0x44
 1129 00a5 04       		.uleb128 0x4
 1130 00a6 EE040000 		.4byte	.LASF15
 1131 00aa 07       		.byte	0x7
 1132 00ab 1F       		.byte	0x1f
 1133 00ac 64000000 		.4byte	0x64
 1134 00b0 04       		.uleb128 0x4
 1135 00b1 B3060000 		.4byte	.LASF16
 1136 00b5 07       		.byte	0x7
 1137 00b6 20       		.byte	0x20
 1138 00b7 76000000 		.4byte	0x76
 1139 00bb 04       		.uleb128 0x4
 1140 00bc 29000000 		.4byte	.LASF17
 1141 00c0 07       		.byte	0x7
 1142 00c1 26       		.byte	0x26
 1143 00c2 88000000 		.4byte	0x88
 1144 00c6 05       		.uleb128 0x5
 1145 00c7 A5000000 		.4byte	0xa5
 1146 00cb 04       		.uleb128 0x4
 1147 00cc 8E070000 		.4byte	.LASF18
 1148 00d0 08       		.byte	0x8
 1149 00d1 46       		.byte	0x46
 1150 00d2 B0000000 		.4byte	0xb0
 1151 00d6 04       		.uleb128 0x4
 1152 00d7 60010000 		.4byte	.LASF19
 1153 00db 08       		.byte	0x8
 1154 00dc 47       		.byte	0x47
 1155 00dd BB000000 		.4byte	0xbb
 1156 00e1 04       		.uleb128 0x4
 1157 00e2 4B030000 		.4byte	.LASF20
 1158 00e6 08       		.byte	0x8
 1159 00e7 49       		.byte	0x49
 1160 00e8 9A000000 		.4byte	0x9a
 1161 00ec 04       		.uleb128 0x4
 1162 00ed D5010000 		.4byte	.LASF21
 1163 00f1 08       		.byte	0x8
 1164 00f2 4A       		.byte	0x4a
 1165 00f3 9A000000 		.4byte	0x9a
 1166 00f7 04       		.uleb128 0x4
 1167 00f8 A9040000 		.4byte	.LASF22
 1168 00fc 08       		.byte	0x8
 1169 00fd 4B       		.byte	0x4b
 1170 00fe 9A000000 		.4byte	0x9a
 1171 0102 04       		.uleb128 0x4
 1172 0103 D2040000 		.4byte	.LASF23
 1173 0107 08       		.byte	0x8
 1174 0108 4D       		.byte	0x4d
 1175 0109 B0000000 		.4byte	0xb0
ARM GAS  /tmp/ccwXba36.s 			page 22


 1176 010d 04       		.uleb128 0x4
 1177 010e 1C030000 		.4byte	.LASF24
 1178 0112 08       		.byte	0x8
 1179 0113 4E       		.byte	0x4e
 1180 0114 A5000000 		.4byte	0xa5
 1181 0118 04       		.uleb128 0x4
 1182 0119 7D030000 		.4byte	.LASF25
 1183 011d 08       		.byte	0x8
 1184 011e 50       		.byte	0x50
 1185 011f B0000000 		.4byte	0xb0
 1186 0123 04       		.uleb128 0x4
 1187 0124 8D020000 		.4byte	.LASF26
 1188 0128 08       		.byte	0x8
 1189 0129 52       		.byte	0x52
 1190 012a A5000000 		.4byte	0xa5
 1191 012e 04       		.uleb128 0x4
 1192 012f 27030000 		.4byte	.LASF27
 1193 0133 08       		.byte	0x8
 1194 0134 53       		.byte	0x53
 1195 0135 B0000000 		.4byte	0xb0
 1196 0139 04       		.uleb128 0x4
 1197 013a 3E070000 		.4byte	.LASF28
 1198 013e 09       		.byte	0x9
 1199 013f 33       		.byte	0x33
 1200 0140 B0000000 		.4byte	0xb0
 1201 0144 04       		.uleb128 0x4
 1202 0145 D0070000 		.4byte	.LASF29
 1203 0149 09       		.byte	0x9
 1204 014a 3F       		.byte	0x3f
 1205 014b 4F010000 		.4byte	0x14f
 1206 014f 06       		.uleb128 0x6
 1207 0150 05030000 		.4byte	.LASF51
 1208 0154 60       		.byte	0x60
 1209 0155 02       		.byte	0x2
 1210 0156 C2       		.byte	0xc2
 1211 0157 55020000 		.4byte	0x255
 1212 015b 07       		.uleb128 0x7
 1213 015c 08060000 		.4byte	.LASF30
 1214 0160 02       		.byte	0x2
 1215 0161 C3       		.byte	0xc3
 1216 0162 60020000 		.4byte	0x260
 1217 0166 00       		.byte	0
 1218 0167 07       		.uleb128 0x7
 1219 0168 CB040000 		.4byte	.LASF31
 1220 016c 02       		.byte	0x2
 1221 016d C5       		.byte	0xc5
 1222 016e 60020000 		.4byte	0x260
 1223 0172 04       		.byte	0x4
 1224 0173 07       		.uleb128 0x7
 1225 0174 69010000 		.4byte	.LASF32
 1226 0178 02       		.byte	0x2
 1227 0179 C7       		.byte	0xc7
 1228 017a 02010000 		.4byte	0x102
 1229 017e 08       		.byte	0x8
 1230 017f 07       		.uleb128 0x7
 1231 0180 84080000 		.4byte	.LASF33
 1232 0184 02       		.byte	0x2
ARM GAS  /tmp/ccwXba36.s 			page 23


 1233 0185 C8       		.byte	0xc8
 1234 0186 C9040000 		.4byte	0x4c9
 1235 018a 0C       		.byte	0xc
 1236 018b 07       		.uleb128 0x7
 1237 018c FE010000 		.4byte	.LASF34
 1238 0190 02       		.byte	0x2
 1239 0191 CA       		.byte	0xca
 1240 0192 60020000 		.4byte	0x260
 1241 0196 10       		.byte	0x10
 1242 0197 07       		.uleb128 0x7
 1243 0198 52040000 		.4byte	.LASF35
 1244 019c 02       		.byte	0x2
 1245 019d CB       		.byte	0xcb
 1246 019e 60020000 		.4byte	0x260
 1247 01a2 14       		.byte	0x14
 1248 01a3 07       		.uleb128 0x7
 1249 01a4 0E080000 		.4byte	.LASF36
 1250 01a8 02       		.byte	0x2
 1251 01a9 D2       		.byte	0xd2
 1252 01aa 6D070000 		.4byte	0x76d
 1253 01ae 18       		.byte	0x18
 1254 01af 07       		.uleb128 0x7
 1255 01b0 71040000 		.4byte	.LASF37
 1256 01b4 02       		.byte	0x2
 1257 01b5 D8       		.byte	0xd8
 1258 01b6 7F070000 		.4byte	0x77f
 1259 01ba 1C       		.byte	0x1c
 1260 01bb 07       		.uleb128 0x7
 1261 01bc 18050000 		.4byte	.LASF38
 1262 01c0 02       		.byte	0x2
 1263 01c1 DD       		.byte	0xdd
 1264 01c2 EC000000 		.4byte	0xec
 1265 01c6 20       		.byte	0x20
 1266 01c7 07       		.uleb128 0x7
 1267 01c8 0F060000 		.4byte	.LASF39
 1268 01cc 02       		.byte	0x2
 1269 01cd E1       		.byte	0xe1
 1270 01ce E1000000 		.4byte	0xe1
 1271 01d2 21       		.byte	0x21
 1272 01d3 07       		.uleb128 0x7
 1273 01d4 C1070000 		.4byte	.LASF40
 1274 01d8 02       		.byte	0x2
 1275 01d9 E6       		.byte	0xe6
 1276 01da F7000000 		.4byte	0xf7
 1277 01de 22       		.byte	0x22
 1278 01df 08       		.uleb128 0x8
 1279 01e0 705F7500 		.ascii	"p_u\000"
 1280 01e4 02       		.byte	0x2
 1281 01e5 3101     		.2byte	0x131
 1282 01e7 A8060000 		.4byte	0x6a8
 1283 01eb 24       		.byte	0x24
 1284 01ec 09       		.uleb128 0x9
 1285 01ed 9E030000 		.4byte	.LASF41
 1286 01f1 02       		.byte	0x2
 1287 01f2 3601     		.2byte	0x136
 1288 01f4 66020000 		.4byte	0x266
 1289 01f8 28       		.byte	0x28
ARM GAS  /tmp/ccwXba36.s 			page 24


 1290 01f9 09       		.uleb128 0x9
 1291 01fa CC020000 		.4byte	.LASF42
 1292 01fe 02       		.byte	0x2
 1293 01ff 3C01     		.2byte	0x13c
 1294 0201 8A020000 		.4byte	0x28a
 1295 0205 2C       		.byte	0x2c
 1296 0206 09       		.uleb128 0x9
 1297 0207 4F080000 		.4byte	.LASF43
 1298 020b 02       		.byte	0x2
 1299 020c 4001     		.2byte	0x140
 1300 020e 0D010000 		.4byte	0x10d
 1301 0212 34       		.byte	0x34
 1302 0213 09       		.uleb128 0x9
 1303 0214 95060000 		.4byte	.LASF44
 1304 0218 02       		.byte	0x2
 1305 0219 4601     		.2byte	0x146
 1306 021b 18010000 		.4byte	0x118
 1307 021f 38       		.byte	0x38
 1308 0220 09       		.uleb128 0x9
 1309 0221 04050000 		.4byte	.LASF45
 1310 0225 02       		.byte	0x2
 1311 0226 4D01     		.2byte	0x14d
 1312 0228 67070000 		.4byte	0x767
 1313 022c 3C       		.byte	0x3c
 1314 022d 09       		.uleb128 0x9
 1315 022e 48070000 		.4byte	.LASF46
 1316 0232 02       		.byte	0x2
 1317 0233 5101     		.2byte	0x151
 1318 0235 02010000 		.4byte	0x102
 1319 0239 40       		.byte	0x40
 1320 023a 09       		.uleb128 0x9
 1321 023b 9F010000 		.4byte	.LASF47
 1322 023f 02       		.byte	0x2
 1323 0240 5801     		.2byte	0x158
 1324 0242 3D030000 		.4byte	0x33d
 1325 0246 44       		.byte	0x44
 1326 0247 09       		.uleb128 0x9
 1327 0248 20060000 		.4byte	.LASF48
 1328 024c 02       		.byte	0x2
 1329 024d 5E01     		.2byte	0x15e
 1330 024f 59060000 		.4byte	0x659
 1331 0253 48       		.byte	0x48
 1332 0254 00       		.byte	0
 1333 0255 04       		.uleb128 0x4
 1334 0256 CE030000 		.4byte	.LASF49
 1335 025a 09       		.byte	0x9
 1336 025b 44       		.byte	0x44
 1337 025c 60020000 		.4byte	0x260
 1338 0260 0A       		.uleb128 0xa
 1339 0261 04       		.byte	0x4
 1340 0262 44010000 		.4byte	0x144
 1341 0266 04       		.uleb128 0x4
 1342 0267 27080000 		.4byte	.LASF50
 1343 026b 09       		.byte	0x9
 1344 026c 49       		.byte	0x49
 1345 026d 71020000 		.4byte	0x271
 1346 0271 06       		.uleb128 0x6
ARM GAS  /tmp/ccwXba36.s 			page 25


 1347 0272 D7060000 		.4byte	.LASF52
 1348 0276 04       		.byte	0x4
 1349 0277 02       		.byte	0x2
 1350 0278 B0       		.byte	0xb0
 1351 0279 8A020000 		.4byte	0x28a
 1352 027d 07       		.uleb128 0x7
 1353 027e 08060000 		.4byte	.LASF30
 1354 0282 02       		.byte	0x2
 1355 0283 B1       		.byte	0xb1
 1356 0284 60020000 		.4byte	0x260
 1357 0288 00       		.byte	0
 1358 0289 00       		.byte	0
 1359 028a 04       		.uleb128 0x4
 1360 028b A8070000 		.4byte	.LASF53
 1361 028f 09       		.byte	0x9
 1362 0290 50       		.byte	0x50
 1363 0291 95020000 		.4byte	0x295
 1364 0295 06       		.uleb128 0x6
 1365 0296 55000000 		.4byte	.LASF54
 1366 029a 08       		.byte	0x8
 1367 029b 02       		.byte	0x2
 1368 029c B7       		.byte	0xb7
 1369 029d BA020000 		.4byte	0x2ba
 1370 02a1 07       		.uleb128 0x7
 1371 02a2 08060000 		.4byte	.LASF30
 1372 02a6 02       		.byte	0x2
 1373 02a7 B8       		.byte	0xb8
 1374 02a8 60020000 		.4byte	0x260
 1375 02ac 00       		.byte	0
 1376 02ad 07       		.uleb128 0x7
 1377 02ae CB040000 		.4byte	.LASF31
 1378 02b2 02       		.byte	0x2
 1379 02b3 B9       		.byte	0xb9
 1380 02b4 60020000 		.4byte	0x260
 1381 02b8 04       		.byte	0x4
 1382 02b9 00       		.byte	0
 1383 02ba 04       		.uleb128 0x4
 1384 02bb 07000000 		.4byte	.LASF55
 1385 02bf 09       		.byte	0x9
 1386 02c0 57       		.byte	0x57
 1387 02c1 C5020000 		.4byte	0x2c5
 1388 02c5 0B       		.uleb128 0xb
 1389 02c6 6F030000 		.4byte	.LASF56
 1390 02ca 1C       		.byte	0x1c
 1391 02cb 02       		.byte	0x2
 1392 02cc 9001     		.2byte	0x190
 1393 02ce 21030000 		.4byte	0x321
 1394 02d2 09       		.uleb128 0x9
 1395 02d3 C3060000 		.4byte	.LASF57
 1396 02d7 02       		.byte	0x2
 1397 02d8 9101     		.2byte	0x191
 1398 02da 8A020000 		.4byte	0x28a
 1399 02de 00       		.byte	0
 1400 02df 09       		.uleb128 0x9
 1401 02e0 20050000 		.4byte	.LASF58
 1402 02e4 02       		.byte	0x2
 1403 02e5 9201     		.2byte	0x192
ARM GAS  /tmp/ccwXba36.s 			page 26


 1404 02e7 02010000 		.4byte	0x102
 1405 02eb 08       		.byte	0x8
 1406 02ec 09       		.uleb128 0x9
 1407 02ed 5A040000 		.4byte	.LASF59
 1408 02f1 02       		.byte	0x2
 1409 02f2 9401     		.2byte	0x194
 1410 02f4 C9040000 		.4byte	0x4c9
 1411 02f8 0C       		.byte	0xc
 1412 02f9 09       		.uleb128 0x9
 1413 02fa 27020000 		.4byte	.LASF60
 1414 02fe 02       		.byte	0x2
 1415 02ff 9701     		.2byte	0x197
 1416 0301 60020000 		.4byte	0x260
 1417 0305 10       		.byte	0x10
 1418 0306 09       		.uleb128 0x9
 1419 0307 8B040000 		.4byte	.LASF61
 1420 030b 02       		.byte	0x2
 1421 030c 9801     		.2byte	0x198
 1422 030e 60020000 		.4byte	0x260
 1423 0312 14       		.byte	0x14
 1424 0313 09       		.uleb128 0x9
 1425 0314 81040000 		.4byte	.LASF62
 1426 0318 02       		.byte	0x2
 1427 0319 9B01     		.2byte	0x19b
 1428 031b 60020000 		.4byte	0x260
 1429 031f 18       		.byte	0x18
 1430 0320 00       		.byte	0
 1431 0321 04       		.uleb128 0x4
 1432 0322 53070000 		.4byte	.LASF63
 1433 0326 09       		.byte	0x9
 1434 0327 5C       		.byte	0x5c
 1435 0328 2C030000 		.4byte	0x32c
 1436 032c 0A       		.uleb128 0xa
 1437 032d 04       		.byte	0x4
 1438 032e 32030000 		.4byte	0x332
 1439 0332 0C       		.uleb128 0xc
 1440 0333 3D030000 		.4byte	0x33d
 1441 0337 0D       		.uleb128 0xd
 1442 0338 3D030000 		.4byte	0x33d
 1443 033c 00       		.byte	0
 1444 033d 0E       		.uleb128 0xe
 1445 033e 04       		.byte	0x4
 1446 033f 04       		.uleb128 0x4
 1447 0340 BB040000 		.4byte	.LASF64
 1448 0344 09       		.byte	0x9
 1449 0345 61       		.byte	0x61
 1450 0346 4A030000 		.4byte	0x34a
 1451 034a 0B       		.uleb128 0xb
 1452 034b 61060000 		.4byte	.LASF65
 1453 034f 14       		.byte	0x14
 1454 0350 02       		.byte	0x2
 1455 0351 6B01     		.2byte	0x16b
 1456 0353 99030000 		.4byte	0x399
 1457 0357 09       		.uleb128 0x9
 1458 0358 AD020000 		.4byte	.LASF66
 1459 035c 02       		.byte	0x2
 1460 035d 6C01     		.2byte	0x16c
ARM GAS  /tmp/ccwXba36.s 			page 27


 1461 035f 85070000 		.4byte	0x785
 1462 0363 00       		.byte	0
 1463 0364 09       		.uleb128 0x9
 1464 0365 38020000 		.4byte	.LASF67
 1465 0369 02       		.byte	0x2
 1466 036a 6D01     		.2byte	0x16d
 1467 036c 85070000 		.4byte	0x785
 1468 0370 04       		.byte	0x4
 1469 0371 09       		.uleb128 0x9
 1470 0372 C3020000 		.4byte	.LASF68
 1471 0376 02       		.byte	0x2
 1472 0377 6E01     		.2byte	0x16e
 1473 0379 39010000 		.4byte	0x139
 1474 037d 08       		.byte	0x8
 1475 037e 09       		.uleb128 0x9
 1476 037f 8A080000 		.4byte	.LASF69
 1477 0383 02       		.byte	0x2
 1478 0384 6F01     		.2byte	0x16f
 1479 0386 21030000 		.4byte	0x321
 1480 038a 0C       		.byte	0xc
 1481 038b 09       		.uleb128 0x9
 1482 038c A1070000 		.4byte	.LASF70
 1483 0390 02       		.byte	0x2
 1484 0391 7101     		.2byte	0x171
 1485 0393 3D030000 		.4byte	0x33d
 1486 0397 10       		.byte	0x10
 1487 0398 00       		.byte	0
 1488 0399 04       		.uleb128 0x4
 1489 039a 3D010000 		.4byte	.LASF71
 1490 039e 09       		.byte	0x9
 1491 039f 66       		.byte	0x66
 1492 03a0 A4030000 		.4byte	0x3a4
 1493 03a4 0B       		.uleb128 0xb
 1494 03a5 F1030000 		.4byte	.LASF72
 1495 03a9 10       		.byte	0x10
 1496 03aa 02       		.byte	0x2
 1497 03ab 7B01     		.2byte	0x17b
 1498 03ad E6030000 		.4byte	0x3e6
 1499 03b1 09       		.uleb128 0x9
 1500 03b2 AD020000 		.4byte	.LASF66
 1501 03b6 02       		.byte	0x2
 1502 03b7 7C01     		.2byte	0x17c
 1503 03b9 85070000 		.4byte	0x785
 1504 03bd 00       		.byte	0
 1505 03be 09       		.uleb128 0x9
 1506 03bf 38020000 		.4byte	.LASF67
 1507 03c3 02       		.byte	0x2
 1508 03c4 7E01     		.2byte	0x17e
 1509 03c6 85070000 		.4byte	0x785
 1510 03ca 04       		.byte	0x4
 1511 03cb 09       		.uleb128 0x9
 1512 03cc C3020000 		.4byte	.LASF68
 1513 03d0 02       		.byte	0x2
 1514 03d1 8001     		.2byte	0x180
 1515 03d3 39010000 		.4byte	0x139
 1516 03d7 08       		.byte	0x8
 1517 03d8 09       		.uleb128 0x9
ARM GAS  /tmp/ccwXba36.s 			page 28


 1518 03d9 3D040000 		.4byte	.LASF73
 1519 03dd 02       		.byte	0x2
 1520 03de 8801     		.2byte	0x188
 1521 03e0 39010000 		.4byte	0x139
 1522 03e4 0C       		.byte	0xc
 1523 03e5 00       		.byte	0
 1524 03e6 04       		.uleb128 0x4
 1525 03e7 66000000 		.4byte	.LASF74
 1526 03eb 09       		.byte	0x9
 1527 03ec 6B       		.byte	0x6b
 1528 03ed F1030000 		.4byte	0x3f1
 1529 03f1 0F       		.uleb128 0xf
 1530 03f2 4A020000 		.4byte	.LASF75
 1531 03f6 1404     		.2byte	0x414
 1532 03f8 02       		.byte	0x2
 1533 03f9 A201     		.2byte	0x1a2
 1534 03fb 34040000 		.4byte	0x434
 1535 03ff 09       		.uleb128 0x9
 1536 0400 75070000 		.4byte	.LASF76
 1537 0404 02       		.byte	0x2
 1538 0405 AA01     		.2byte	0x1aa
 1539 0407 8B070000 		.4byte	0x78b
 1540 040b 00       		.byte	0
 1541 040c 09       		.uleb128 0x9
 1542 040d C8070000 		.4byte	.LASF77
 1543 0411 02       		.byte	0x2
 1544 0412 AF01     		.2byte	0x1af
 1545 0414 23010000 		.4byte	0x123
 1546 0418 04       		.byte	0x4
 1547 0419 09       		.uleb128 0x9
 1548 041a 68020000 		.4byte	.LASF78
 1549 041e 02       		.byte	0x2
 1550 041f B301     		.2byte	0x1b3
 1551 0421 23010000 		.4byte	0x123
 1552 0425 08       		.byte	0x8
 1553 0426 09       		.uleb128 0x9
 1554 0427 36080000 		.4byte	.LASF79
 1555 042b 02       		.byte	0x2
 1556 042c B901     		.2byte	0x1b9
 1557 042e EB050000 		.4byte	0x5eb
 1558 0432 0C       		.byte	0xc
 1559 0433 00       		.byte	0
 1560 0434 04       		.uleb128 0x4
 1561 0435 3F030000 		.4byte	.LASF80
 1562 0439 09       		.byte	0x9
 1563 043a 70       		.byte	0x70
 1564 043b 3F040000 		.4byte	0x43f
 1565 043f 0F       		.uleb128 0xf
 1566 0440 C2010000 		.4byte	.LASF81
 1567 0444 D805     		.2byte	0x5d8
 1568 0446 02       		.byte	0x2
 1569 0447 C201     		.2byte	0x1c2
 1570 0449 AC040000 		.4byte	0x4ac
 1571 044d 09       		.uleb128 0x9
 1572 044e D9070000 		.4byte	.LASF82
 1573 0452 02       		.byte	0x2
 1574 0453 C601     		.2byte	0x1c6
ARM GAS  /tmp/ccwXba36.s 			page 29


 1575 0455 BA020000 		.4byte	0x2ba
 1576 0459 00       		.byte	0
 1577 045a 09       		.uleb128 0x9
 1578 045b AF010000 		.4byte	.LASF83
 1579 045f 02       		.byte	0x2
 1580 0460 CA01     		.2byte	0x1ca
 1581 0462 99030000 		.4byte	0x399
 1582 0466 1C       		.byte	0x1c
 1583 0467 08       		.uleb128 0x8
 1584 0468 64626700 		.ascii	"dbg\000"
 1585 046c 02       		.byte	0x2
 1586 046d CE01     		.2byte	0x1ce
 1587 046f E6030000 		.4byte	0x3e6
 1588 0473 2C       		.byte	0x2c
 1589 0474 10       		.uleb128 0x10
 1590 0475 14010000 		.4byte	.LASF84
 1591 0479 02       		.byte	0x2
 1592 047a D201     		.2byte	0x1d2
 1593 047c 44010000 		.4byte	0x144
 1594 0480 4004     		.2byte	0x440
 1595 0482 11       		.uleb128 0x11
 1596 0483 746D00   		.ascii	"tm\000"
 1597 0486 02       		.byte	0x2
 1598 0487 D701     		.2byte	0x1d7
 1599 0489 0B060000 		.4byte	0x60b
 1600 048d A004     		.2byte	0x4a0
 1601 048f 10       		.uleb128 0x10
 1602 0490 32000000 		.4byte	.LASF85
 1603 0494 02       		.byte	0x2
 1604 0495 DD01     		.2byte	0x1dd
 1605 0497 9D060000 		.4byte	0x69d
 1606 049b A804     		.2byte	0x4a8
 1607 049d 10       		.uleb128 0x10
 1608 049e 7E020000 		.4byte	.LASF86
 1609 04a2 02       		.byte	0x2
 1610 04a3 E301     		.2byte	0x1e3
 1611 04a5 90070000 		.4byte	0x790
 1612 04a9 E004     		.2byte	0x4e0
 1613 04ab 00       		.byte	0
 1614 04ac 03       		.uleb128 0x3
 1615 04ad 04       		.byte	0x4
 1616 04ae 07       		.byte	0x7
 1617 04af C5030000 		.4byte	.LASF87
 1618 04b3 04       		.uleb128 0x4
 1619 04b4 2F020000 		.4byte	.LASF88
 1620 04b8 0A       		.byte	0xa
 1621 04b9 65       		.byte	0x65
 1622 04ba 3D030000 		.4byte	0x33d
 1623 04be 04       		.uleb128 0x4
 1624 04bf 93030000 		.4byte	.LASF89
 1625 04c3 0A       		.byte	0xa
 1626 04c4 6D       		.byte	0x6d
 1627 04c5 BB000000 		.4byte	0xbb
 1628 04c9 06       		.uleb128 0x6
 1629 04ca 86070000 		.4byte	.LASF90
 1630 04ce 04       		.byte	0x4
 1631 04cf 0A       		.byte	0xa
ARM GAS  /tmp/ccwXba36.s 			page 30


 1632 04d0 89       		.byte	0x89
 1633 04d1 E2040000 		.4byte	0x4e2
 1634 04d5 12       		.uleb128 0x12
 1635 04d6 72313300 		.ascii	"r13\000"
 1636 04da 0A       		.byte	0xa
 1637 04db 8A       		.byte	0x8a
 1638 04dc 5D050000 		.4byte	0x55d
 1639 04e0 00       		.byte	0
 1640 04e1 00       		.byte	0
 1641 04e2 06       		.uleb128 0x6
 1642 04e3 49000000 		.4byte	.LASF91
 1643 04e7 24       		.byte	0x24
 1644 04e8 0B       		.byte	0xb
 1645 04e9 F4       		.byte	0xf4
 1646 04ea 5D050000 		.4byte	0x55d
 1647 04ee 08       		.uleb128 0x8
 1648 04ef 723400   		.ascii	"r4\000"
 1649 04f2 0B       		.byte	0xb
 1650 04f3 0701     		.2byte	0x107
 1651 04f5 B3040000 		.4byte	0x4b3
 1652 04f9 00       		.byte	0
 1653 04fa 08       		.uleb128 0x8
 1654 04fb 723500   		.ascii	"r5\000"
 1655 04fe 0B       		.byte	0xb
 1656 04ff 0801     		.2byte	0x108
 1657 0501 B3040000 		.4byte	0x4b3
 1658 0505 04       		.byte	0x4
 1659 0506 08       		.uleb128 0x8
 1660 0507 723600   		.ascii	"r6\000"
 1661 050a 0B       		.byte	0xb
 1662 050b 0901     		.2byte	0x109
 1663 050d B3040000 		.4byte	0x4b3
 1664 0511 08       		.byte	0x8
 1665 0512 08       		.uleb128 0x8
 1666 0513 723700   		.ascii	"r7\000"
 1667 0516 0B       		.byte	0xb
 1668 0517 0A01     		.2byte	0x10a
 1669 0519 B3040000 		.4byte	0x4b3
 1670 051d 0C       		.byte	0xc
 1671 051e 08       		.uleb128 0x8
 1672 051f 723800   		.ascii	"r8\000"
 1673 0522 0B       		.byte	0xb
 1674 0523 0B01     		.2byte	0x10b
 1675 0525 B3040000 		.4byte	0x4b3
 1676 0529 10       		.byte	0x10
 1677 052a 08       		.uleb128 0x8
 1678 052b 723900   		.ascii	"r9\000"
 1679 052e 0B       		.byte	0xb
 1680 052f 0C01     		.2byte	0x10c
 1681 0531 B3040000 		.4byte	0x4b3
 1682 0535 14       		.byte	0x14
 1683 0536 08       		.uleb128 0x8
 1684 0537 72313000 		.ascii	"r10\000"
 1685 053b 0B       		.byte	0xb
 1686 053c 0D01     		.2byte	0x10d
 1687 053e B3040000 		.4byte	0x4b3
 1688 0542 18       		.byte	0x18
ARM GAS  /tmp/ccwXba36.s 			page 31


 1689 0543 08       		.uleb128 0x8
 1690 0544 72313100 		.ascii	"r11\000"
 1691 0548 0B       		.byte	0xb
 1692 0549 0E01     		.2byte	0x10e
 1693 054b B3040000 		.4byte	0x4b3
 1694 054f 1C       		.byte	0x1c
 1695 0550 08       		.uleb128 0x8
 1696 0551 6C7200   		.ascii	"lr\000"
 1697 0554 0B       		.byte	0xb
 1698 0555 0F01     		.2byte	0x10f
 1699 0557 B3040000 		.4byte	0x4b3
 1700 055b 20       		.byte	0x20
 1701 055c 00       		.byte	0
 1702 055d 0A       		.uleb128 0xa
 1703 055e 04       		.byte	0x4
 1704 055f E2040000 		.4byte	0x4e2
 1705 0563 13       		.uleb128 0x13
 1706 0564 10       		.byte	0x10
 1707 0565 0C       		.byte	0xc
 1708 0566 51       		.byte	0x51
 1709 0567 9C050000 		.4byte	0x59c
 1710 056b 07       		.uleb128 0x7
 1711 056c 14000000 		.4byte	.LASF92
 1712 0570 0C       		.byte	0xc
 1713 0571 55       		.byte	0x55
 1714 0572 39010000 		.4byte	0x139
 1715 0576 00       		.byte	0
 1716 0577 07       		.uleb128 0x7
 1717 0578 ED010000 		.4byte	.LASF93
 1718 057c 0C       		.byte	0xc
 1719 057d 59       		.byte	0x59
 1720 057e 60020000 		.4byte	0x260
 1721 0582 04       		.byte	0x4
 1722 0583 07       		.uleb128 0x7
 1723 0584 7A080000 		.4byte	.LASF94
 1724 0588 0C       		.byte	0xc
 1725 0589 5D       		.byte	0x5d
 1726 058a 3D030000 		.4byte	0x33d
 1727 058e 08       		.byte	0x8
 1728 058f 07       		.uleb128 0x7
 1729 0590 02010000 		.4byte	.LASF95
 1730 0594 0C       		.byte	0xc
 1731 0595 61       		.byte	0x61
 1732 0596 9A000000 		.4byte	0x9a
 1733 059a 0C       		.byte	0xc
 1734 059b 00       		.byte	0
 1735 059c 04       		.uleb128 0x4
 1736 059d 2E040000 		.4byte	.LASF96
 1737 05a1 0C       		.byte	0xc
 1738 05a2 62       		.byte	0x62
 1739 05a3 63050000 		.4byte	0x563
 1740 05a7 14       		.uleb128 0x14
 1741 05a8 0804     		.2byte	0x408
 1742 05aa 0C       		.byte	0xc
 1743 05ab 67       		.byte	0x67
 1744 05ac D5050000 		.4byte	0x5d5
 1745 05b0 07       		.uleb128 0x7
ARM GAS  /tmp/ccwXba36.s 			page 32


 1746 05b1 1F020000 		.4byte	.LASF97
 1747 05b5 0C       		.byte	0xc
 1748 05b6 6B       		.byte	0x6b
 1749 05b7 28000000 		.4byte	0x28
 1750 05bb 00       		.byte	0
 1751 05bc 07       		.uleb128 0x7
 1752 05bd 00000000 		.4byte	.LASF98
 1753 05c1 0C       		.byte	0xc
 1754 05c2 6F       		.byte	0x6f
 1755 05c3 D5050000 		.4byte	0x5d5
 1756 05c7 04       		.byte	0x4
 1757 05c8 07       		.uleb128 0x7
 1758 05c9 B1040000 		.4byte	.LASF99
 1759 05cd 0C       		.byte	0xc
 1760 05ce 73       		.byte	0x73
 1761 05cf DB050000 		.4byte	0x5db
 1762 05d3 08       		.byte	0x8
 1763 05d4 00       		.byte	0
 1764 05d5 0A       		.uleb128 0xa
 1765 05d6 04       		.byte	0x4
 1766 05d7 9C050000 		.4byte	0x59c
 1767 05db 15       		.uleb128 0x15
 1768 05dc 9C050000 		.4byte	0x59c
 1769 05e0 EB050000 		.4byte	0x5eb
 1770 05e4 16       		.uleb128 0x16
 1771 05e5 AC040000 		.4byte	0x4ac
 1772 05e9 3F       		.byte	0x3f
 1773 05ea 00       		.byte	0
 1774 05eb 04       		.uleb128 0x4
 1775 05ec E0000000 		.4byte	.LASF100
 1776 05f0 0C       		.byte	0xc
 1777 05f1 74       		.byte	0x74
 1778 05f2 A7050000 		.4byte	0x5a7
 1779 05f6 13       		.uleb128 0x13
 1780 05f7 04       		.byte	0x4
 1781 05f8 0D       		.byte	0xd
 1782 05f9 38       		.byte	0x38
 1783 05fa 0B060000 		.4byte	0x60b
 1784 05fe 07       		.uleb128 0x7
 1785 05ff 7F070000 		.4byte	.LASF101
 1786 0603 0D       		.byte	0xd
 1787 0604 3C       		.byte	0x3c
 1788 0605 CB000000 		.4byte	0xcb
 1789 0609 00       		.byte	0
 1790 060a 00       		.byte	0
 1791 060b 04       		.uleb128 0x4
 1792 060c 60040000 		.4byte	.LASF102
 1793 0610 0D       		.byte	0xd
 1794 0611 3D       		.byte	0x3d
 1795 0612 F6050000 		.4byte	0x5f6
 1796 0616 13       		.uleb128 0x13
 1797 0617 18       		.byte	0x18
 1798 0618 0D       		.byte	0xd
 1799 0619 48       		.byte	0x48
 1800 061a 59060000 		.4byte	0x659
 1801 061e 07       		.uleb128 0x7
 1802 061f 1B070000 		.4byte	.LASF103
ARM GAS  /tmp/ccwXba36.s 			page 33


 1803 0623 0D       		.byte	0xd
 1804 0624 49       		.byte	0x49
 1805 0625 CB000000 		.4byte	0xcb
 1806 0629 00       		.byte	0
 1807 062a 07       		.uleb128 0x7
 1808 062b 9F000000 		.4byte	.LASF104
 1809 062f 0D       		.byte	0xd
 1810 0630 4A       		.byte	0x4a
 1811 0631 CB000000 		.4byte	0xcb
 1812 0635 04       		.byte	0x4
 1813 0636 07       		.uleb128 0x7
 1814 0637 22030000 		.4byte	.LASF105
 1815 063b 0D       		.byte	0xd
 1816 063c 4B       		.byte	0x4b
 1817 063d CB000000 		.4byte	0xcb
 1818 0641 08       		.byte	0x8
 1819 0642 12       		.uleb128 0x12
 1820 0643 6E00     		.ascii	"n\000"
 1821 0645 0D       		.byte	0xd
 1822 0646 4C       		.byte	0x4c
 1823 0647 2E010000 		.4byte	0x12e
 1824 064b 0C       		.byte	0xc
 1825 064c 07       		.uleb128 0x7
 1826 064d 9E040000 		.4byte	.LASF106
 1827 0651 0D       		.byte	0xd
 1828 0652 4D       		.byte	0x4d
 1829 0653 D6000000 		.4byte	0xd6
 1830 0657 10       		.byte	0x10
 1831 0658 00       		.byte	0
 1832 0659 04       		.uleb128 0x4
 1833 065a A5000000 		.4byte	.LASF107
 1834 065e 0D       		.byte	0xd
 1835 065f 4E       		.byte	0x4e
 1836 0660 16060000 		.4byte	0x616
 1837 0664 13       		.uleb128 0x13
 1838 0665 38       		.byte	0x38
 1839 0666 0E       		.byte	0xe
 1840 0667 38       		.byte	0x38
 1841 0668 9D060000 		.4byte	0x69d
 1842 066c 07       		.uleb128 0x7
 1843 066d D7020000 		.4byte	.LASF108
 1844 0671 0E       		.byte	0xe
 1845 0672 39       		.byte	0x39
 1846 0673 2E010000 		.4byte	0x12e
 1847 0677 00       		.byte	0
 1848 0678 07       		.uleb128 0x7
 1849 0679 49040000 		.4byte	.LASF109
 1850 067d 0E       		.byte	0xe
 1851 067e 3A       		.byte	0x3a
 1852 067f 2E010000 		.4byte	0x12e
 1853 0683 04       		.byte	0x4
 1854 0684 07       		.uleb128 0x7
 1855 0685 67080000 		.4byte	.LASF110
 1856 0689 0E       		.byte	0xe
 1857 068a 3B       		.byte	0x3b
 1858 068b 59060000 		.4byte	0x659
 1859 068f 08       		.byte	0x8
ARM GAS  /tmp/ccwXba36.s 			page 34


 1860 0690 07       		.uleb128 0x7
 1861 0691 64030000 		.4byte	.LASF111
 1862 0695 0E       		.byte	0xe
 1863 0696 3D       		.byte	0x3d
 1864 0697 59060000 		.4byte	0x659
 1865 069b 20       		.byte	0x20
 1866 069c 00       		.byte	0
 1867 069d 04       		.uleb128 0x4
 1868 069e F6020000 		.4byte	.LASF112
 1869 06a2 0E       		.byte	0xe
 1870 06a3 3F       		.byte	0x3f
 1871 06a4 64060000 		.4byte	0x664
 1872 06a8 17       		.uleb128 0x17
 1873 06a9 04       		.byte	0x4
 1874 06aa 02       		.byte	0x2
 1875 06ab FA       		.byte	0xfa
 1876 06ac 05070000 		.4byte	0x705
 1877 06b0 18       		.uleb128 0x18
 1878 06b1 22000000 		.4byte	.LASF113
 1879 06b5 02       		.byte	0x2
 1880 06b6 0101     		.2byte	0x101
 1881 06b8 0D010000 		.4byte	0x10d
 1882 06bc 18       		.uleb128 0x18
 1883 06bd 0B010000 		.4byte	.LASF114
 1884 06c1 02       		.byte	0x2
 1885 06c2 0801     		.2byte	0x108
 1886 06c4 0D010000 		.4byte	0x10d
 1887 06c8 18       		.uleb128 0x18
 1888 06c9 07080000 		.4byte	.LASF115
 1889 06cd 02       		.byte	0x2
 1890 06ce 0F01     		.2byte	0x10f
 1891 06d0 3D030000 		.4byte	0x33d
 1892 06d4 18       		.uleb128 0x18
 1893 06d5 1C000000 		.4byte	.LASF116
 1894 06d9 02       		.byte	0x2
 1895 06da 1601     		.2byte	0x116
 1896 06dc 05070000 		.4byte	0x705
 1897 06e0 18       		.uleb128 0x18
 1898 06e1 BC020000 		.4byte	.LASF117
 1899 06e5 02       		.byte	0x2
 1900 06e6 1E01     		.2byte	0x11e
 1901 06e8 30070000 		.4byte	0x730
 1902 06ec 18       		.uleb128 0x18
 1903 06ed BC060000 		.4byte	.LASF118
 1904 06f1 02       		.byte	0x2
 1905 06f2 2701     		.2byte	0x127
 1906 06f4 67070000 		.4byte	0x767
 1907 06f8 18       		.uleb128 0x18
 1908 06f9 01060000 		.4byte	.LASF119
 1909 06fd 02       		.byte	0x2
 1910 06fe 2F01     		.2byte	0x12f
 1911 0700 18010000 		.4byte	0x118
 1912 0704 00       		.byte	0
 1913 0705 0A       		.uleb128 0xa
 1914 0706 04       		.byte	0x4
 1915 0707 55020000 		.4byte	0x255
 1916 070b 06       		.uleb128 0x6
ARM GAS  /tmp/ccwXba36.s 			page 35


 1917 070c 7A060000 		.4byte	.LASF120
 1918 0710 0C       		.byte	0xc
 1919 0711 0F       		.byte	0xf
 1920 0712 34       		.byte	0x34
 1921 0713 30070000 		.4byte	0x730
 1922 0717 07       		.uleb128 0x7
 1923 0718 06020000 		.4byte	.LASF121
 1924 071c 0F       		.byte	0xf
 1925 071d 35       		.byte	0x35
 1926 071e 8A020000 		.4byte	0x28a
 1927 0722 00       		.byte	0
 1928 0723 07       		.uleb128 0x7
 1929 0724 DD020000 		.4byte	.LASF122
 1930 0728 0F       		.byte	0xf
 1931 0729 37       		.byte	0x37
 1932 072a 23010000 		.4byte	0x123
 1933 072e 08       		.byte	0x8
 1934 072f 00       		.byte	0
 1935 0730 0A       		.uleb128 0xa
 1936 0731 04       		.byte	0x4
 1937 0732 0B070000 		.4byte	0x70b
 1938 0736 06       		.uleb128 0x6
 1939 0737 B8070000 		.4byte	.LASF123
 1940 073b 10       		.byte	0x10
 1941 073c 05       		.byte	0x5
 1942 073d 39       		.byte	0x39
 1943 073e 67070000 		.4byte	0x767
 1944 0742 07       		.uleb128 0x7
 1945 0743 A7010000 		.4byte	.LASF124
 1946 0747 05       		.byte	0x5
 1947 0748 3A       		.byte	0x3a
 1948 0749 8A020000 		.4byte	0x28a
 1949 074d 00       		.byte	0
 1950 074e 07       		.uleb128 0x7
 1951 074f 72080000 		.4byte	.LASF125
 1952 0753 05       		.byte	0x5
 1953 0754 3C       		.byte	0x3c
 1954 0755 60020000 		.4byte	0x260
 1955 0759 08       		.byte	0x8
 1956 075a 07       		.uleb128 0x7
 1957 075b B5020000 		.4byte	.LASF126
 1958 075f 05       		.byte	0x5
 1959 0760 3E       		.byte	0x3e
 1960 0761 AB070000 		.4byte	0x7ab
 1961 0765 0C       		.byte	0xc
 1962 0766 00       		.byte	0
 1963 0767 0A       		.uleb128 0xa
 1964 0768 04       		.byte	0x4
 1965 0769 36070000 		.4byte	0x736
 1966 076d 0A       		.uleb128 0xa
 1967 076e 04       		.byte	0x4
 1968 076f 7A070000 		.4byte	0x77a
 1969 0773 03       		.uleb128 0x3
 1970 0774 01       		.byte	0x1
 1971 0775 08       		.byte	0x8
 1972 0776 F9060000 		.4byte	.LASF127
 1973 077a 19       		.uleb128 0x19
ARM GAS  /tmp/ccwXba36.s 			page 36


 1974 077b 73070000 		.4byte	0x773
 1975 077f 0A       		.uleb128 0xa
 1976 0780 04       		.byte	0x4
 1977 0781 BE040000 		.4byte	0x4be
 1978 0785 0A       		.uleb128 0xa
 1979 0786 04       		.byte	0x4
 1980 0787 3F030000 		.4byte	0x33f
 1981 078b 05       		.uleb128 0x5
 1982 078c 6D070000 		.4byte	0x76d
 1983 0790 15       		.uleb128 0x15
 1984 0791 BE040000 		.4byte	0x4be
 1985 0795 A0070000 		.4byte	0x7a0
 1986 0799 16       		.uleb128 0x16
 1987 079a AC040000 		.4byte	0x4ac
 1988 079e 1E       		.byte	0x1e
 1989 079f 00       		.byte	0
 1990 07a0 04       		.uleb128 0x4
 1991 07a1 5A020000 		.4byte	.LASF128
 1992 07a5 05       		.byte	0x5
 1993 07a6 34       		.byte	0x34
 1994 07a7 36070000 		.4byte	0x736
 1995 07ab 0A       		.uleb128 0xa
 1996 07ac 04       		.byte	0x4
 1997 07ad A0070000 		.4byte	0x7a0
 1998 07b1 06       		.uleb128 0x6
 1999 07b2 08040000 		.4byte	.LASF129
 2000 07b6 08       		.byte	0x8
 2001 07b7 10       		.byte	0x10
 2002 07b8 3B       		.byte	0x3b
 2003 07b9 CA070000 		.4byte	0x7ca
 2004 07bd 07       		.uleb128 0x7
 2005 07be 72060000 		.4byte	.LASF130
 2006 07c2 10       		.byte	0x10
 2007 07c3 3C       		.byte	0x3c
 2008 07c4 8A020000 		.4byte	0x28a
 2009 07c8 00       		.byte	0
 2010 07c9 00       		.byte	0
 2011 07ca 04       		.uleb128 0x4
 2012 07cb 8A010000 		.4byte	.LASF131
 2013 07cf 10       		.byte	0x10
 2014 07d0 3E       		.byte	0x3e
 2015 07d1 B1070000 		.4byte	0x7b1
 2016 07d5 1A       		.uleb128 0x1a
 2017 07d6 67070000 		.4byte	.LASF134
 2018 07da 03       		.byte	0x3
 2019 07db 2002     		.2byte	0x220
 2020 07dd 03       		.byte	0x3
 2021 07de EF070000 		.4byte	0x7ef
 2022 07e2 1B       		.uleb128 0x1b
 2023 07e3 62020000 		.4byte	.LASF136
 2024 07e7 03       		.byte	0x3
 2025 07e8 2002     		.2byte	0x220
 2026 07ea B0000000 		.4byte	0xb0
 2027 07ee 00       		.byte	0
 2028 07ef 1C       		.uleb128 0x1c
 2029 07f0 DF070000 		.4byte	.LASF142
 2030 07f4 11       		.byte	0x11
ARM GAS  /tmp/ccwXba36.s 			page 37


 2031 07f5 AE       		.byte	0xae
 2032 07f6 60020000 		.4byte	0x260
 2033 07fa 03       		.byte	0x3
 2034 07fb 1D       		.uleb128 0x1d
 2035 07fc 95000000 		.4byte	.LASF132
 2036 0800 0B       		.byte	0xb
 2037 0801 BC01     		.2byte	0x1bc
 2038 0803 03       		.byte	0x3
 2039 0804 1D       		.uleb128 0x1d
 2040 0805 B6010000 		.4byte	.LASF133
 2041 0809 0B       		.byte	0xb
 2042 080a CA01     		.2byte	0x1ca
 2043 080c 03       		.byte	0x3
 2044 080d 1A       		.uleb128 0x1a
 2045 080e 75000000 		.4byte	.LASF135
 2046 0812 02       		.byte	0x2
 2047 0813 5A02     		.2byte	0x25a
 2048 0815 03       		.byte	0x3
 2049 0816 27080000 		.4byte	0x827
 2050 081a 1E       		.uleb128 0x1e
 2051 081b 74717000 		.ascii	"tqp\000"
 2052 081f 02       		.byte	0x2
 2053 0820 5A02     		.2byte	0x25a
 2054 0822 27080000 		.4byte	0x827
 2055 0826 00       		.byte	0
 2056 0827 0A       		.uleb128 0xa
 2057 0828 04       		.byte	0x4
 2058 0829 8A020000 		.4byte	0x28a
 2059 082d 1F       		.uleb128 0x1f
 2060 082e DE010000 		.4byte	.LASF139
 2061 0832 02       		.byte	0x2
 2062 0833 7502     		.2byte	0x275
 2063 0835 4B080000 		.4byte	0x84b
 2064 0839 03       		.byte	0x3
 2065 083a 4B080000 		.4byte	0x84b
 2066 083e 1E       		.uleb128 0x1e
 2067 083f 74717000 		.ascii	"tqp\000"
 2068 0843 02       		.byte	0x2
 2069 0844 7502     		.2byte	0x275
 2070 0846 52080000 		.4byte	0x852
 2071 084a 00       		.byte	0
 2072 084b 03       		.uleb128 0x3
 2073 084c 01       		.byte	0x1
 2074 084d 02       		.byte	0x2
 2075 084e E8040000 		.4byte	.LASF137
 2076 0852 0A       		.uleb128 0xa
 2077 0853 04       		.byte	0x4
 2078 0854 58080000 		.4byte	0x858
 2079 0858 19       		.uleb128 0x19
 2080 0859 8A020000 		.4byte	0x28a
 2081 085d 1D       		.uleb128 0x1d
 2082 085e 28060000 		.4byte	.LASF138
 2083 0862 04       		.byte	0x4
 2084 0863 5A01     		.2byte	0x15a
 2085 0865 03       		.byte	0x3
 2086 0866 1F       		.uleb128 0x1f
 2087 0867 2C070000 		.4byte	.LASF140
ARM GAS  /tmp/ccwXba36.s 			page 38


 2088 086b 02       		.byte	0x2
 2089 086c 9F02     		.2byte	0x29f
 2090 086e 60020000 		.4byte	0x260
 2091 0872 03       		.byte	0x3
 2092 0873 8F080000 		.4byte	0x88f
 2093 0877 1E       		.uleb128 0x1e
 2094 0878 74717000 		.ascii	"tqp\000"
 2095 087c 02       		.byte	0x2
 2096 087d 9F02     		.2byte	0x29f
 2097 087f 27080000 		.4byte	0x827
 2098 0883 20       		.uleb128 0x20
 2099 0884 747000   		.ascii	"tp\000"
 2100 0887 02       		.byte	0x2
 2101 0888 A002     		.2byte	0x2a0
 2102 088a 60020000 		.4byte	0x260
 2103 088e 00       		.byte	0
 2104 088f 1A       		.uleb128 0x1a
 2105 0890 55080000 		.4byte	.LASF141
 2106 0894 02       		.byte	0x2
 2107 0895 8B02     		.2byte	0x28b
 2108 0897 03       		.byte	0x3
 2109 0898 BF080000 		.4byte	0x8bf
 2110 089c 1E       		.uleb128 0x1e
 2111 089d 747000   		.ascii	"tp\000"
 2112 08a0 02       		.byte	0x2
 2113 08a1 8B02     		.2byte	0x28b
 2114 08a3 60020000 		.4byte	0x260
 2115 08a7 1E       		.uleb128 0x1e
 2116 08a8 74717000 		.ascii	"tqp\000"
 2117 08ac 02       		.byte	0x2
 2118 08ad 8B02     		.2byte	0x28b
 2119 08af 27080000 		.4byte	0x827
 2120 08b3 20       		.uleb128 0x20
 2121 08b4 637000   		.ascii	"cp\000"
 2122 08b7 02       		.byte	0x2
 2123 08b8 8D02     		.2byte	0x28d
 2124 08ba 60020000 		.4byte	0x260
 2125 08be 00       		.byte	0
 2126 08bf 1C       		.uleb128 0x1c
 2127 08c0 A0060000 		.4byte	.LASF143
 2128 08c4 05       		.byte	0x5
 2129 08c5 90       		.byte	0x90
 2130 08c6 AB070000 		.4byte	0x7ab
 2131 08ca 03       		.byte	0x3
 2132 08cb 21       		.uleb128 0x21
 2133 08cc 0A070000 		.4byte	.LASF146
 2134 08d0 01       		.byte	0x1
 2135 08d1 4B       		.byte	0x4b
 2136 08d2 00000000 		.4byte	.LFB227
 2137 08d6 1C000000 		.4byte	.LFE227-.LFB227
 2138 08da 01       		.uleb128 0x1
 2139 08db 9C       		.byte	0x9c
 2140 08dc 2E090000 		.4byte	0x92e
 2141 08e0 22       		.uleb128 0x22
 2142 08e1 637000   		.ascii	"cp\000"
 2143 08e4 01       		.byte	0x1
 2144 08e5 4B       		.byte	0x4b
ARM GAS  /tmp/ccwXba36.s 			page 39


 2145 08e6 2E090000 		.4byte	0x92e
 2146 08ea 00000000 		.4byte	.LLST0
 2147 08ee 23       		.uleb128 0x23
 2148 08ef 17060000 		.4byte	.LASF144
 2149 08f3 44090000 		.4byte	0x944
 2150 08f7 05       		.uleb128 0x5
 2151 08f8 03       		.byte	0x3
 2152 08f9 00000000 		.4byte	__func__.6657
 2153 08fd 24       		.uleb128 0x24
 2154 08fe 0D080000 		.4byte	0x80d
 2155 0902 06000000 		.4byte	.LBB63
 2156 0906 00000000 		.4byte	.Ldebug_ranges0+0
 2157 090a 01       		.byte	0x1
 2158 090b 4F       		.byte	0x4f
 2159 090c 1A090000 		.4byte	0x91a
 2160 0910 25       		.uleb128 0x25
 2161 0911 1A080000 		.4byte	0x81a
 2162 0915 2C000000 		.4byte	.LLST1
 2163 0919 00       		.byte	0
 2164 091a 26       		.uleb128 0x26
 2165 091b 12000000 		.4byte	.LVL4
 2166 091f 26120000 		.4byte	0x1226
 2167 0923 27       		.uleb128 0x27
 2168 0924 01       		.uleb128 0x1
 2169 0925 50       		.byte	0x50
 2170 0926 05       		.uleb128 0x5
 2171 0927 03       		.byte	0x3
 2172 0928 00000000 		.4byte	.LANCHOR0
 2173 092c 00       		.byte	0
 2174 092d 00       		.byte	0
 2175 092e 0A       		.uleb128 0xa
 2176 092f 04       		.byte	0x4
 2177 0930 CA070000 		.4byte	0x7ca
 2178 0934 15       		.uleb128 0x15
 2179 0935 7A070000 		.4byte	0x77a
 2180 0939 44090000 		.4byte	0x944
 2181 093d 16       		.uleb128 0x16
 2182 093e AC040000 		.4byte	0x4ac
 2183 0942 10       		.byte	0x10
 2184 0943 00       		.byte	0
 2185 0944 19       		.uleb128 0x19
 2186 0945 34090000 		.4byte	0x934
 2187 0949 1A       		.uleb128 0x1a
 2188 094a 43080000 		.4byte	.LASF145
 2189 094e 04       		.byte	0x4
 2190 094f 6601     		.2byte	0x166
 2191 0951 03       		.byte	0x3
 2192 0952 64090000 		.4byte	0x964
 2193 0956 28       		.uleb128 0x28
 2194 0957 17060000 		.4byte	.LASF144
 2195 095b 74090000 		.4byte	0x974
 2196 095f 43080000 		.4byte	.LASF145
 2197 0963 00       		.byte	0
 2198 0964 15       		.uleb128 0x15
 2199 0965 7A070000 		.4byte	0x77a
 2200 0969 74090000 		.4byte	0x974
 2201 096d 16       		.uleb128 0x16
ARM GAS  /tmp/ccwXba36.s 			page 40


 2202 096e AC040000 		.4byte	0x4ac
 2203 0972 0B       		.byte	0xb
 2204 0973 00       		.byte	0
 2205 0974 19       		.uleb128 0x19
 2206 0975 64090000 		.4byte	0x964
 2207 0979 21       		.uleb128 0x21
 2208 097a 71020000 		.4byte	.LASF147
 2209 097e 01       		.byte	0x1
 2210 097f 59       		.byte	0x59
 2211 0980 00000000 		.4byte	.LFB228
 2212 0984 64000000 		.4byte	.LFE228-.LFB228
 2213 0988 01       		.uleb128 0x1
 2214 0989 9C       		.byte	0x9c
 2215 098a ED0A0000 		.4byte	0xaed
 2216 098e 22       		.uleb128 0x22
 2217 098f 637000   		.ascii	"cp\000"
 2218 0992 01       		.byte	0x1
 2219 0993 59       		.byte	0x59
 2220 0994 2E090000 		.4byte	0x92e
 2221 0998 4A000000 		.4byte	.LLST2
 2222 099c 23       		.uleb128 0x23
 2223 099d 17060000 		.4byte	.LASF144
 2224 09a1 FD0A0000 		.4byte	0xafd
 2225 09a5 05       		.uleb128 0x5
 2226 09a6 03       		.byte	0x3
 2227 09a7 00000000 		.4byte	__func__.6661
 2228 09ab 29       		.uleb128 0x29
 2229 09ac 5D080000 		.4byte	0x85d
 2230 09b0 06000000 		.4byte	.LBB81
 2231 09b4 0E000000 		.4byte	.LBE81-.LBB81
 2232 09b8 01       		.byte	0x1
 2233 09b9 5D       		.byte	0x5d
 2234 09ba 000A0000 		.4byte	0xa00
 2235 09be 2A       		.uleb128 0x2a
 2236 09bf FB070000 		.4byte	0x7fb
 2237 09c3 06000000 		.4byte	.LBB83
 2238 09c7 06000000 		.4byte	.LBE83-.LBB83
 2239 09cb 04       		.byte	0x4
 2240 09cc 5C01     		.2byte	0x15c
 2241 09ce ED090000 		.4byte	0x9ed
 2242 09d2 2B       		.uleb128 0x2b
 2243 09d3 D5070000 		.4byte	0x7d5
 2244 09d7 06000000 		.4byte	.LBB84
 2245 09db 06000000 		.4byte	.LBE84-.LBB84
 2246 09df 0B       		.byte	0xb
 2247 09e0 BF01     		.2byte	0x1bf
 2248 09e2 25       		.uleb128 0x25
 2249 09e3 E2070000 		.4byte	0x7e2
 2250 09e7 7E000000 		.4byte	.LLST3
 2251 09eb 00       		.byte	0
 2252 09ec 00       		.byte	0
 2253 09ed 2C       		.uleb128 0x2c
 2254 09ee 10000000 		.4byte	.LVL10
 2255 09f2 32120000 		.4byte	0x1232
 2256 09f6 2C       		.uleb128 0x2c
 2257 09f7 14000000 		.4byte	.LVL11
 2258 09fb 3D120000 		.4byte	0x123d
ARM GAS  /tmp/ccwXba36.s 			page 41


 2259 09ff 00       		.byte	0
 2260 0a00 29       		.uleb128 0x29
 2261 0a01 2D080000 		.4byte	0x82d
 2262 0a05 14000000 		.4byte	.LBB86
 2263 0a09 02000000 		.4byte	.LBE86-.LBB86
 2264 0a0d 01       		.byte	0x1
 2265 0a0e 5E       		.byte	0x5e
 2266 0a0f 1D0A0000 		.4byte	0xa1d
 2267 0a13 25       		.uleb128 0x25
 2268 0a14 3E080000 		.4byte	0x83e
 2269 0a18 93000000 		.4byte	.LLST4
 2270 0a1c 00       		.byte	0
 2271 0a1d 24       		.uleb128 0x24
 2272 0a1e 66080000 		.4byte	0x866
 2273 0a22 1A000000 		.4byte	.LBB88
 2274 0a26 18000000 		.4byte	.Ldebug_ranges0+0x18
 2275 0a2a 01       		.byte	0x1
 2276 0a2b 5F       		.byte	0x5f
 2277 0a2c 490A0000 		.4byte	0xa49
 2278 0a30 25       		.uleb128 0x25
 2279 0a31 77080000 		.4byte	0x877
 2280 0a35 A6000000 		.4byte	.LLST5
 2281 0a39 2D       		.uleb128 0x2d
 2282 0a3a 18000000 		.4byte	.Ldebug_ranges0+0x18
 2283 0a3e 2E       		.uleb128 0x2e
 2284 0a3f 83080000 		.4byte	0x883
 2285 0a43 B9000000 		.4byte	.LLST6
 2286 0a47 00       		.byte	0
 2287 0a48 00       		.byte	0
 2288 0a49 29       		.uleb128 0x29
 2289 0a4a 49090000 		.4byte	0x949
 2290 0a4e 26000000 		.4byte	.LBB92
 2291 0a52 28000000 		.4byte	.LBE92-.LBB92
 2292 0a56 01       		.byte	0x1
 2293 0a57 61       		.byte	0x61
 2294 0a58 C60A0000 		.4byte	0xac6
 2295 0a5c 2F       		.uleb128 0x2f
 2296 0a5d 26000000 		.4byte	.LBB93
 2297 0a61 28000000 		.4byte	.LBE93-.LBB93
 2298 0a65 30       		.uleb128 0x30
 2299 0a66 56090000 		.4byte	0x956
 2300 0a6a 05       		.uleb128 0x5
 2301 0a6b 03       		.byte	0x3
 2302 0a6c 00000000 		.4byte	__func__.5969
 2303 0a70 2A       		.uleb128 0x2a
 2304 0a71 04080000 		.4byte	0x804
 2305 0a75 46000000 		.4byte	.LBB94
 2306 0a79 08000000 		.4byte	.LBE94-.LBB94
 2307 0a7d 04       		.byte	0x4
 2308 0a7e 7301     		.2byte	0x173
 2309 0a80 9F0A0000 		.4byte	0xa9f
 2310 0a84 2B       		.uleb128 0x2b
 2311 0a85 D5070000 		.4byte	0x7d5
 2312 0a89 46000000 		.4byte	.LBB95
 2313 0a8d 08000000 		.4byte	.LBE95-.LBB95
 2314 0a91 0B       		.byte	0xb
 2315 0a92 CD01     		.2byte	0x1cd
ARM GAS  /tmp/ccwXba36.s 			page 42


 2316 0a94 25       		.uleb128 0x25
 2317 0a95 E2070000 		.4byte	0x7e2
 2318 0a99 CC000000 		.4byte	.LLST7
 2319 0a9d 00       		.byte	0
 2320 0a9e 00       		.byte	0
 2321 0a9f 2C       		.uleb128 0x2c
 2322 0aa0 2A000000 		.4byte	.LVL16
 2323 0aa4 48120000 		.4byte	0x1248
 2324 0aa8 2C       		.uleb128 0x2c
 2325 0aa9 2E000000 		.4byte	.LVL17
 2326 0aad 53120000 		.4byte	0x1253
 2327 0ab1 26       		.uleb128 0x26
 2328 0ab2 46000000 		.4byte	.LVL18
 2329 0ab6 26120000 		.4byte	0x1226
 2330 0aba 27       		.uleb128 0x27
 2331 0abb 01       		.uleb128 0x1
 2332 0abc 50       		.byte	0x50
 2333 0abd 05       		.uleb128 0x5
 2334 0abe 03       		.byte	0x3
 2335 0abf 00000000 		.4byte	.LANCHOR2
 2336 0ac3 00       		.byte	0
 2337 0ac4 00       		.byte	0
 2338 0ac5 00       		.byte	0
 2339 0ac6 31       		.uleb128 0x31
 2340 0ac7 26000000 		.4byte	.LVL15
 2341 0acb 5E120000 		.4byte	0x125e
 2342 0acf D90A0000 		.4byte	0xad9
 2343 0ad3 27       		.uleb128 0x27
 2344 0ad4 01       		.uleb128 0x1
 2345 0ad5 51       		.byte	0x51
 2346 0ad6 01       		.uleb128 0x1
 2347 0ad7 30       		.byte	0x30
 2348 0ad8 00       		.byte	0
 2349 0ad9 26       		.uleb128 0x26
 2350 0ada 54000000 		.4byte	.LVL22
 2351 0ade 26120000 		.4byte	0x1226
 2352 0ae2 27       		.uleb128 0x27
 2353 0ae3 01       		.uleb128 0x1
 2354 0ae4 50       		.byte	0x50
 2355 0ae5 05       		.uleb128 0x5
 2356 0ae6 03       		.byte	0x3
 2357 0ae7 00000000 		.4byte	.LANCHOR1
 2358 0aeb 00       		.byte	0
 2359 0aec 00       		.byte	0
 2360 0aed 15       		.uleb128 0x15
 2361 0aee 7A070000 		.4byte	0x77a
 2362 0af2 FD0A0000 		.4byte	0xafd
 2363 0af6 16       		.uleb128 0x16
 2364 0af7 AC040000 		.4byte	0x4ac
 2365 0afb 0C       		.byte	0xc
 2366 0afc 00       		.byte	0
 2367 0afd 19       		.uleb128 0x19
 2368 0afe ED0A0000 		.4byte	0xaed
 2369 0b02 21       		.uleb128 0x21
 2370 0b03 DA040000 		.4byte	.LASF148
 2371 0b07 01       		.byte	0x1
 2372 0b08 6F       		.byte	0x6f
ARM GAS  /tmp/ccwXba36.s 			page 43


 2373 0b09 00000000 		.4byte	.LFB229
 2374 0b0d 34000000 		.4byte	.LFE229-.LFB229
 2375 0b11 01       		.uleb128 0x1
 2376 0b12 9C       		.byte	0x9c
 2377 0b13 B70B0000 		.4byte	0xbb7
 2378 0b17 22       		.uleb128 0x22
 2379 0b18 637000   		.ascii	"cp\000"
 2380 0b1b 01       		.byte	0x1
 2381 0b1c 6F       		.byte	0x6f
 2382 0b1d 2E090000 		.4byte	0x92e
 2383 0b21 E0000000 		.4byte	.LLST8
 2384 0b25 23       		.uleb128 0x23
 2385 0b26 17060000 		.4byte	.LASF144
 2386 0b2a C70B0000 		.4byte	0xbc7
 2387 0b2e 05       		.uleb128 0x5
 2388 0b2f 03       		.byte	0x3
 2389 0b30 00000000 		.4byte	__func__.6665
 2390 0b34 29       		.uleb128 0x29
 2391 0b35 2D080000 		.4byte	0x82d
 2392 0b39 0A000000 		.4byte	.LBB97
 2393 0b3d 02000000 		.4byte	.LBE97-.LBB97
 2394 0b41 01       		.byte	0x1
 2395 0b42 74       		.byte	0x74
 2396 0b43 510B0000 		.4byte	0xb51
 2397 0b47 25       		.uleb128 0x25
 2398 0b48 3E080000 		.4byte	0x83e
 2399 0b4c 17010000 		.4byte	.LLST9
 2400 0b50 00       		.byte	0
 2401 0b51 32       		.uleb128 0x32
 2402 0b52 30000000 		.4byte	.Ldebug_ranges0+0x30
 2403 0b56 9A0B0000 		.4byte	0xb9a
 2404 0b5a 33       		.uleb128 0x33
 2405 0b5b 747000   		.ascii	"tp\000"
 2406 0b5e 01       		.byte	0x1
 2407 0b5f 75       		.byte	0x75
 2408 0b60 60020000 		.4byte	0x260
 2409 0b64 24       		.uleb128 0x24
 2410 0b65 66080000 		.4byte	0x866
 2411 0b69 10000000 		.4byte	.LBB100
 2412 0b6d 48000000 		.4byte	.Ldebug_ranges0+0x48
 2413 0b71 01       		.byte	0x1
 2414 0b72 75       		.byte	0x75
 2415 0b73 900B0000 		.4byte	0xb90
 2416 0b77 25       		.uleb128 0x25
 2417 0b78 77080000 		.4byte	0x877
 2418 0b7c 2A010000 		.4byte	.LLST10
 2419 0b80 2D       		.uleb128 0x2d
 2420 0b81 48000000 		.4byte	.Ldebug_ranges0+0x48
 2421 0b85 2E       		.uleb128 0x2e
 2422 0b86 83080000 		.4byte	0x883
 2423 0b8a 3D010000 		.4byte	.LLST11
 2424 0b8e 00       		.byte	0
 2425 0b8f 00       		.byte	0
 2426 0b90 34       		.uleb128 0x34
 2427 0b91 24000000 		.4byte	.LVL30
 2428 0b95 6A120000 		.4byte	0x126a
 2429 0b99 00       		.byte	0
ARM GAS  /tmp/ccwXba36.s 			page 44


 2430 0b9a 2C       		.uleb128 0x2c
 2431 0b9b 08000000 		.4byte	.LVL24
 2432 0b9f 76120000 		.4byte	0x1276
 2433 0ba3 26       		.uleb128 0x26
 2434 0ba4 2C000000 		.4byte	.LVL32
 2435 0ba8 26120000 		.4byte	0x1226
 2436 0bac 27       		.uleb128 0x27
 2437 0bad 01       		.uleb128 0x1
 2438 0bae 50       		.byte	0x50
 2439 0baf 05       		.uleb128 0x5
 2440 0bb0 03       		.byte	0x3
 2441 0bb1 00000000 		.4byte	.LANCHOR3
 2442 0bb5 00       		.byte	0
 2443 0bb6 00       		.byte	0
 2444 0bb7 15       		.uleb128 0x15
 2445 0bb8 7A070000 		.4byte	0x77a
 2446 0bbc C70B0000 		.4byte	0xbc7
 2447 0bc0 16       		.uleb128 0x16
 2448 0bc1 AC040000 		.4byte	0x4ac
 2449 0bc5 0D       		.byte	0xd
 2450 0bc6 00       		.byte	0
 2451 0bc7 19       		.uleb128 0x19
 2452 0bc8 B70B0000 		.4byte	0xbb7
 2453 0bcc 21       		.uleb128 0x21
 2454 0bcd B8000000 		.4byte	.LASF149
 2455 0bd1 01       		.byte	0x1
 2456 0bd2 95       		.byte	0x95
 2457 0bd3 00000000 		.4byte	.LFB231
 2458 0bd7 34000000 		.4byte	.LFE231-.LFB231
 2459 0bdb 01       		.uleb128 0x1
 2460 0bdc 9C       		.byte	0x9c
 2461 0bdd 710C0000 		.4byte	0xc71
 2462 0be1 22       		.uleb128 0x22
 2463 0be2 637000   		.ascii	"cp\000"
 2464 0be5 01       		.byte	0x1
 2465 0be6 95       		.byte	0x95
 2466 0be7 2E090000 		.4byte	0x92e
 2467 0beb 50010000 		.4byte	.LLST12
 2468 0bef 23       		.uleb128 0x23
 2469 0bf0 17060000 		.4byte	.LASF144
 2470 0bf4 710C0000 		.4byte	0xc71
 2471 0bf8 05       		.uleb128 0x5
 2472 0bf9 03       		.byte	0x3
 2473 0bfa 00000000 		.4byte	__func__.6673
 2474 0bfe 24       		.uleb128 0x24
 2475 0bff 2D080000 		.4byte	0x82d
 2476 0c03 0A000000 		.4byte	.LBB105
 2477 0c07 60000000 		.4byte	.Ldebug_ranges0+0x60
 2478 0c0b 01       		.byte	0x1
 2479 0c0c 9D       		.byte	0x9d
 2480 0c0d 1B0C0000 		.4byte	0xc1b
 2481 0c11 25       		.uleb128 0x25
 2482 0c12 3E080000 		.4byte	0x83e
 2483 0c16 6E010000 		.4byte	.LLST13
 2484 0c1a 00       		.byte	0
 2485 0c1b 29       		.uleb128 0x29
 2486 0c1c 66080000 		.4byte	0x866
ARM GAS  /tmp/ccwXba36.s 			page 45


 2487 0c20 14000000 		.4byte	.LBB108
 2488 0c24 06000000 		.4byte	.LBE108-.LBB108
 2489 0c28 01       		.byte	0x1
 2490 0c29 9E       		.byte	0x9e
 2491 0c2a 4B0C0000 		.4byte	0xc4b
 2492 0c2e 25       		.uleb128 0x25
 2493 0c2f 77080000 		.4byte	0x877
 2494 0c33 8C010000 		.4byte	.LLST14
 2495 0c37 2F       		.uleb128 0x2f
 2496 0c38 14000000 		.4byte	.LBB109
 2497 0c3c 06000000 		.4byte	.LBE109-.LBB109
 2498 0c40 2E       		.uleb128 0x2e
 2499 0c41 83080000 		.4byte	0x883
 2500 0c45 9F010000 		.4byte	.LLST15
 2501 0c49 00       		.byte	0
 2502 0c4a 00       		.byte	0
 2503 0c4b 2C       		.uleb128 0x2c
 2504 0c4c 08000000 		.4byte	.LVL34
 2505 0c50 76120000 		.4byte	0x1276
 2506 0c54 2C       		.uleb128 0x2c
 2507 0c55 1E000000 		.4byte	.LVL39
 2508 0c59 6A120000 		.4byte	0x126a
 2509 0c5d 26       		.uleb128 0x26
 2510 0c5e 2E000000 		.4byte	.LVL43
 2511 0c62 26120000 		.4byte	0x1226
 2512 0c66 27       		.uleb128 0x27
 2513 0c67 01       		.uleb128 0x1
 2514 0c68 50       		.byte	0x50
 2515 0c69 05       		.uleb128 0x5
 2516 0c6a 03       		.byte	0x3
 2517 0c6b 00000000 		.4byte	.LANCHOR4
 2518 0c6f 00       		.byte	0
 2519 0c70 00       		.byte	0
 2520 0c71 19       		.uleb128 0x19
 2521 0c72 34090000 		.4byte	0x934
 2522 0c76 21       		.uleb128 0x21
 2523 0c77 F2000000 		.4byte	.LASF150
 2524 0c7b 01       		.byte	0x1
 2525 0c7c 82       		.byte	0x82
 2526 0c7d 00000000 		.4byte	.LFB230
 2527 0c81 4C000000 		.4byte	.LFE230-.LFB230
 2528 0c85 01       		.uleb128 0x1
 2529 0c86 9C       		.byte	0x9c
 2530 0c87 890D0000 		.4byte	0xd89
 2531 0c8b 22       		.uleb128 0x22
 2532 0c8c 637000   		.ascii	"cp\000"
 2533 0c8f 01       		.byte	0x1
 2534 0c90 82       		.byte	0x82
 2535 0c91 2E090000 		.4byte	0x92e
 2536 0c95 B2010000 		.4byte	.LLST16
 2537 0c99 24       		.uleb128 0x24
 2538 0c9a 5D080000 		.4byte	0x85d
 2539 0c9e 02000000 		.4byte	.LBB121
 2540 0ca2 78000000 		.4byte	.Ldebug_ranges0+0x78
 2541 0ca6 01       		.byte	0x1
 2542 0ca7 84       		.byte	0x84
 2543 0ca8 EE0C0000 		.4byte	0xcee
ARM GAS  /tmp/ccwXba36.s 			page 46


 2544 0cac 35       		.uleb128 0x35
 2545 0cad FB070000 		.4byte	0x7fb
 2546 0cb1 02000000 		.4byte	.LBB123
 2547 0cb5 90000000 		.4byte	.Ldebug_ranges0+0x90
 2548 0cb9 04       		.byte	0x4
 2549 0cba 5C01     		.2byte	0x15c
 2550 0cbc DB0C0000 		.4byte	0xcdb
 2551 0cc0 36       		.uleb128 0x36
 2552 0cc1 D5070000 		.4byte	0x7d5
 2553 0cc5 02000000 		.4byte	.LBB124
 2554 0cc9 90000000 		.4byte	.Ldebug_ranges0+0x90
 2555 0ccd 0B       		.byte	0xb
 2556 0cce BF01     		.2byte	0x1bf
 2557 0cd0 25       		.uleb128 0x25
 2558 0cd1 E2070000 		.4byte	0x7e2
 2559 0cd5 DE010000 		.4byte	.LLST17
 2560 0cd9 00       		.byte	0
 2561 0cda 00       		.byte	0
 2562 0cdb 2C       		.uleb128 0x2c
 2563 0cdc 0E000000 		.4byte	.LVL46
 2564 0ce0 32120000 		.4byte	0x1232
 2565 0ce4 2C       		.uleb128 0x2c
 2566 0ce5 12000000 		.4byte	.LVL47
 2567 0ce9 3D120000 		.4byte	0x123d
 2568 0ced 00       		.byte	0
 2569 0cee 29       		.uleb128 0x29
 2570 0cef 49090000 		.4byte	0x949
 2571 0cf3 1C000000 		.4byte	.LBB131
 2572 0cf7 30000000 		.4byte	.LBE131-.LBB131
 2573 0cfb 01       		.byte	0x1
 2574 0cfc 87       		.byte	0x87
 2575 0cfd 6B0D0000 		.4byte	0xd6b
 2576 0d01 2F       		.uleb128 0x2f
 2577 0d02 1C000000 		.4byte	.LBB132
 2578 0d06 30000000 		.4byte	.LBE132-.LBB132
 2579 0d0a 30       		.uleb128 0x30
 2580 0d0b 56090000 		.4byte	0x956
 2581 0d0f 05       		.uleb128 0x5
 2582 0d10 03       		.byte	0x3
 2583 0d11 00000000 		.4byte	__func__.5969
 2584 0d15 2A       		.uleb128 0x2a
 2585 0d16 04080000 		.4byte	0x804
 2586 0d1a 3C000000 		.4byte	.LBB133
 2587 0d1e 10000000 		.4byte	.LBE133-.LBB133
 2588 0d22 04       		.byte	0x4
 2589 0d23 7301     		.2byte	0x173
 2590 0d25 440D0000 		.4byte	0xd44
 2591 0d29 2B       		.uleb128 0x2b
 2592 0d2a D5070000 		.4byte	0x7d5
 2593 0d2e 3C000000 		.4byte	.LBB134
 2594 0d32 10000000 		.4byte	.LBE134-.LBB134
 2595 0d36 0B       		.byte	0xb
 2596 0d37 CD01     		.2byte	0x1cd
 2597 0d39 25       		.uleb128 0x25
 2598 0d3a E2070000 		.4byte	0x7e2
 2599 0d3e F3010000 		.4byte	.LLST18
 2600 0d42 00       		.byte	0
ARM GAS  /tmp/ccwXba36.s 			page 47


 2601 0d43 00       		.byte	0
 2602 0d44 2C       		.uleb128 0x2c
 2603 0d45 20000000 		.4byte	.LVL50
 2604 0d49 48120000 		.4byte	0x1248
 2605 0d4d 2C       		.uleb128 0x2c
 2606 0d4e 24000000 		.4byte	.LVL51
 2607 0d52 53120000 		.4byte	0x1253
 2608 0d56 26       		.uleb128 0x26
 2609 0d57 3C000000 		.4byte	.LVL52
 2610 0d5b 26120000 		.4byte	0x1226
 2611 0d5f 27       		.uleb128 0x27
 2612 0d60 01       		.uleb128 0x1
 2613 0d61 50       		.byte	0x50
 2614 0d62 05       		.uleb128 0x5
 2615 0d63 03       		.byte	0x3
 2616 0d64 00000000 		.4byte	.LANCHOR2
 2617 0d68 00       		.byte	0
 2618 0d69 00       		.byte	0
 2619 0d6a 00       		.byte	0
 2620 0d6b 31       		.uleb128 0x31
 2621 0d6c 18000000 		.4byte	.LVL48
 2622 0d70 CC0B0000 		.4byte	0xbcc
 2623 0d74 7F0D0000 		.4byte	0xd7f
 2624 0d78 27       		.uleb128 0x27
 2625 0d79 01       		.uleb128 0x1
 2626 0d7a 50       		.byte	0x50
 2627 0d7b 02       		.uleb128 0x2
 2628 0d7c 74       		.byte	0x74
 2629 0d7d 00       		.sleb128 0
 2630 0d7e 00       		.byte	0
 2631 0d7f 2C       		.uleb128 0x2c
 2632 0d80 1C000000 		.4byte	.LVL49
 2633 0d84 81120000 		.4byte	0x1281
 2634 0d88 00       		.byte	0
 2635 0d89 37       		.uleb128 0x37
 2636 0d8a FE060000 		.4byte	.LASF151
 2637 0d8e 01       		.byte	0x1
 2638 0d8f CD       		.byte	0xcd
 2639 0d90 0D010000 		.4byte	0x10d
 2640 0d94 00000000 		.4byte	.LFB233
 2641 0d98 64000000 		.4byte	.LFE233-.LFB233
 2642 0d9c 01       		.uleb128 0x1
 2643 0d9d 9C       		.byte	0x9c
 2644 0d9e 9A0E0000 		.4byte	0xe9a
 2645 0da2 22       		.uleb128 0x22
 2646 0da3 637000   		.ascii	"cp\000"
 2647 0da6 01       		.byte	0x1
 2648 0da7 CD       		.byte	0xcd
 2649 0da8 2E090000 		.4byte	0x92e
 2650 0dac 07020000 		.4byte	.LLST19
 2651 0db0 38       		.uleb128 0x38
 2652 0db1 63747000 		.ascii	"ctp\000"
 2653 0db5 01       		.byte	0x1
 2654 0db6 CE       		.byte	0xce
 2655 0db7 60020000 		.4byte	0x260
 2656 0dbb 25020000 		.4byte	.LLST20
 2657 0dbf 33       		.uleb128 0x33
ARM GAS  /tmp/ccwXba36.s 			page 48


 2658 0dc0 6D7000   		.ascii	"mp\000"
 2659 0dc3 01       		.byte	0x1
 2660 0dc4 CF       		.byte	0xcf
 2661 0dc5 AB070000 		.4byte	0x7ab
 2662 0dc9 38       		.uleb128 0x38
 2663 0dca 6D736700 		.ascii	"msg\000"
 2664 0dce 01       		.byte	0x1
 2665 0dcf D0       		.byte	0xd0
 2666 0dd0 0D010000 		.4byte	0x10d
 2667 0dd4 43020000 		.4byte	.LLST21
 2668 0dd8 23       		.uleb128 0x23
 2669 0dd9 17060000 		.4byte	.LASF144
 2670 0ddd 9A0E0000 		.4byte	0xe9a
 2671 0de1 05       		.uleb128 0x5
 2672 0de2 03       		.byte	0x3
 2673 0de3 00000000 		.4byte	__func__.6687
 2674 0de7 39       		.uleb128 0x39
 2675 0de8 BF080000 		.4byte	0x8bf
 2676 0dec 12000000 		.4byte	.LBB136
 2677 0df0 04000000 		.4byte	.LBE136-.LBB136
 2678 0df4 01       		.byte	0x1
 2679 0df5 D7       		.byte	0xd7
 2680 0df6 24       		.uleb128 0x24
 2681 0df7 8F080000 		.4byte	0x88f
 2682 0dfb 1E000000 		.4byte	.LBB138
 2683 0dff A8000000 		.4byte	.Ldebug_ranges0+0xa8
 2684 0e03 01       		.byte	0x1
 2685 0e04 DD       		.byte	0xdd
 2686 0e05 2B0E0000 		.4byte	0xe2b
 2687 0e09 25       		.uleb128 0x25
 2688 0e0a A7080000 		.4byte	0x8a7
 2689 0e0e 56020000 		.4byte	.LLST22
 2690 0e12 25       		.uleb128 0x25
 2691 0e13 9C080000 		.4byte	0x89c
 2692 0e17 75020000 		.4byte	.LLST23
 2693 0e1b 2D       		.uleb128 0x2d
 2694 0e1c A8000000 		.4byte	.Ldebug_ranges0+0xa8
 2695 0e20 2E       		.uleb128 0x2e
 2696 0e21 B3080000 		.4byte	0x8b3
 2697 0e25 88020000 		.4byte	.LLST24
 2698 0e29 00       		.byte	0
 2699 0e2a 00       		.byte	0
 2700 0e2b 2C       		.uleb128 0x2c
 2701 0e2c 0C000000 		.4byte	.LVL57
 2702 0e30 8D120000 		.4byte	0x128d
 2703 0e34 31       		.uleb128 0x31
 2704 0e35 1C000000 		.4byte	.LVL58
 2705 0e39 98120000 		.4byte	0x1298
 2706 0e3d 480E0000 		.4byte	0xe48
 2707 0e41 27       		.uleb128 0x27
 2708 0e42 01       		.uleb128 0x1
 2709 0e43 50       		.byte	0x50
 2710 0e44 02       		.uleb128 0x2
 2711 0e45 76       		.byte	0x76
 2712 0e46 00       		.sleb128 0
 2713 0e47 00       		.byte	0
 2714 0e48 31       		.uleb128 0x31
ARM GAS  /tmp/ccwXba36.s 			page 49


 2715 0e49 40000000 		.4byte	.LVL64
 2716 0e4d A3120000 		.4byte	0x12a3
 2717 0e51 5B0E0000 		.4byte	0xe5b
 2718 0e55 27       		.uleb128 0x27
 2719 0e56 01       		.uleb128 0x1
 2720 0e57 50       		.byte	0x50
 2721 0e58 01       		.uleb128 0x1
 2722 0e59 37       		.byte	0x37
 2723 0e5a 00       		.byte	0
 2724 0e5b 31       		.uleb128 0x31
 2725 0e5c 48000000 		.4byte	.LVL66
 2726 0e60 AF120000 		.4byte	0x12af
 2727 0e64 6F0E0000 		.4byte	0xe6f
 2728 0e68 27       		.uleb128 0x27
 2729 0e69 01       		.uleb128 0x1
 2730 0e6a 50       		.byte	0x50
 2731 0e6b 02       		.uleb128 0x2
 2732 0e6c 76       		.byte	0x76
 2733 0e6d 00       		.sleb128 0
 2734 0e6e 00       		.byte	0
 2735 0e6f 31       		.uleb128 0x31
 2736 0e70 52000000 		.4byte	.LVL68
 2737 0e74 26120000 		.4byte	0x1226
 2738 0e78 860E0000 		.4byte	0xe86
 2739 0e7c 27       		.uleb128 0x27
 2740 0e7d 01       		.uleb128 0x1
 2741 0e7e 50       		.byte	0x50
 2742 0e7f 05       		.uleb128 0x5
 2743 0e80 03       		.byte	0x3
 2744 0e81 00000000 		.4byte	.LANCHOR5
 2745 0e85 00       		.byte	0
 2746 0e86 26       		.uleb128 0x26
 2747 0e87 5A000000 		.4byte	.LVL69
 2748 0e8b 26120000 		.4byte	0x1226
 2749 0e8f 27       		.uleb128 0x27
 2750 0e90 01       		.uleb128 0x1
 2751 0e91 50       		.byte	0x50
 2752 0e92 05       		.uleb128 0x5
 2753 0e93 03       		.byte	0x3
 2754 0e94 00000000 		.4byte	.LANCHOR5
 2755 0e98 00       		.byte	0
 2756 0e99 00       		.byte	0
 2757 0e9a 19       		.uleb128 0x19
 2758 0e9b 64090000 		.4byte	0x964
 2759 0e9f 37       		.uleb128 0x37
 2760 0ea0 96070000 		.4byte	.LASF152
 2761 0ea4 01       		.byte	0x1
 2762 0ea5 B3       		.byte	0xb3
 2763 0ea6 0D010000 		.4byte	0x10d
 2764 0eaa 00000000 		.4byte	.LFB232
 2765 0eae 4C000000 		.4byte	.LFE232-.LFB232
 2766 0eb2 01       		.uleb128 0x1
 2767 0eb3 9C       		.byte	0x9c
 2768 0eb4 B80F0000 		.4byte	0xfb8
 2769 0eb8 22       		.uleb128 0x22
 2770 0eb9 637000   		.ascii	"cp\000"
 2771 0ebc 01       		.byte	0x1
ARM GAS  /tmp/ccwXba36.s 			page 50


 2772 0ebd B3       		.byte	0xb3
 2773 0ebe 2E090000 		.4byte	0x92e
 2774 0ec2 9B020000 		.4byte	.LLST25
 2775 0ec6 38       		.uleb128 0x38
 2776 0ec7 6D736700 		.ascii	"msg\000"
 2777 0ecb 01       		.byte	0x1
 2778 0ecc B4       		.byte	0xb4
 2779 0ecd 0D010000 		.4byte	0x10d
 2780 0ed1 C7020000 		.4byte	.LLST26
 2781 0ed5 24       		.uleb128 0x24
 2782 0ed6 5D080000 		.4byte	0x85d
 2783 0eda 02000000 		.4byte	.LBB152
 2784 0ede C0000000 		.4byte	.Ldebug_ranges0+0xc0
 2785 0ee2 01       		.byte	0x1
 2786 0ee3 B6       		.byte	0xb6
 2787 0ee4 2A0F0000 		.4byte	0xf2a
 2788 0ee8 35       		.uleb128 0x35
 2789 0ee9 FB070000 		.4byte	0x7fb
 2790 0eed 02000000 		.4byte	.LBB154
 2791 0ef1 D8000000 		.4byte	.Ldebug_ranges0+0xd8
 2792 0ef5 04       		.byte	0x4
 2793 0ef6 5C01     		.2byte	0x15c
 2794 0ef8 170F0000 		.4byte	0xf17
 2795 0efc 36       		.uleb128 0x36
 2796 0efd D5070000 		.4byte	0x7d5
 2797 0f01 02000000 		.4byte	.LBB155
 2798 0f05 D8000000 		.4byte	.Ldebug_ranges0+0xd8
 2799 0f09 0B       		.byte	0xb
 2800 0f0a BF01     		.2byte	0x1bf
 2801 0f0c 25       		.uleb128 0x25
 2802 0f0d E2070000 		.4byte	0x7e2
 2803 0f11 F0020000 		.4byte	.LLST27
 2804 0f15 00       		.byte	0
 2805 0f16 00       		.byte	0
 2806 0f17 2C       		.uleb128 0x2c
 2807 0f18 0E000000 		.4byte	.LVL72
 2808 0f1c 32120000 		.4byte	0x1232
 2809 0f20 2C       		.uleb128 0x2c
 2810 0f21 12000000 		.4byte	.LVL73
 2811 0f25 3D120000 		.4byte	0x123d
 2812 0f29 00       		.byte	0
 2813 0f2a 29       		.uleb128 0x29
 2814 0f2b 49090000 		.4byte	0x949
 2815 0f2f 1A000000 		.4byte	.LBB162
 2816 0f33 26000000 		.4byte	.LBE162-.LBB162
 2817 0f37 01       		.byte	0x1
 2818 0f38 B8       		.byte	0xb8
 2819 0f39 A70F0000 		.4byte	0xfa7
 2820 0f3d 2F       		.uleb128 0x2f
 2821 0f3e 1A000000 		.4byte	.LBB163
 2822 0f42 26000000 		.4byte	.LBE163-.LBB163
 2823 0f46 30       		.uleb128 0x30
 2824 0f47 56090000 		.4byte	0x956
 2825 0f4b 05       		.uleb128 0x5
 2826 0f4c 03       		.byte	0x3
 2827 0f4d 00000000 		.4byte	__func__.5969
 2828 0f51 2A       		.uleb128 0x2a
ARM GAS  /tmp/ccwXba36.s 			page 51


 2829 0f52 04080000 		.4byte	0x804
 2830 0f56 3A000000 		.4byte	.LBB164
 2831 0f5a 06000000 		.4byte	.LBE164-.LBB164
 2832 0f5e 04       		.byte	0x4
 2833 0f5f 7301     		.2byte	0x173
 2834 0f61 800F0000 		.4byte	0xf80
 2835 0f65 2B       		.uleb128 0x2b
 2836 0f66 D5070000 		.4byte	0x7d5
 2837 0f6a 3A000000 		.4byte	.LBB165
 2838 0f6e 06000000 		.4byte	.LBE165-.LBB165
 2839 0f72 0B       		.byte	0xb
 2840 0f73 CD01     		.2byte	0x1cd
 2841 0f75 25       		.uleb128 0x25
 2842 0f76 E2070000 		.4byte	0x7e2
 2843 0f7a 05030000 		.4byte	.LLST28
 2844 0f7e 00       		.byte	0
 2845 0f7f 00       		.byte	0
 2846 0f80 2C       		.uleb128 0x2c
 2847 0f81 1E000000 		.4byte	.LVL76
 2848 0f85 48120000 		.4byte	0x1248
 2849 0f89 2C       		.uleb128 0x2c
 2850 0f8a 22000000 		.4byte	.LVL77
 2851 0f8e 53120000 		.4byte	0x1253
 2852 0f92 26       		.uleb128 0x26
 2853 0f93 3A000000 		.4byte	.LVL78
 2854 0f97 26120000 		.4byte	0x1226
 2855 0f9b 27       		.uleb128 0x27
 2856 0f9c 01       		.uleb128 0x1
 2857 0f9d 50       		.byte	0x50
 2858 0f9e 05       		.uleb128 0x5
 2859 0f9f 03       		.byte	0x3
 2860 0fa0 00000000 		.4byte	.LANCHOR2
 2861 0fa4 00       		.byte	0
 2862 0fa5 00       		.byte	0
 2863 0fa6 00       		.byte	0
 2864 0fa7 26       		.uleb128 0x26
 2865 0fa8 18000000 		.4byte	.LVL74
 2866 0fac 890D0000 		.4byte	0xd89
 2867 0fb0 27       		.uleb128 0x27
 2868 0fb1 01       		.uleb128 0x1
 2869 0fb2 50       		.byte	0x50
 2870 0fb3 02       		.uleb128 0x2
 2871 0fb4 74       		.byte	0x74
 2872 0fb5 00       		.sleb128 0
 2873 0fb6 00       		.byte	0
 2874 0fb7 00       		.byte	0
 2875 0fb8 3A       		.uleb128 0x3a
 2876 0fb9 1B040000 		.4byte	.LASF153
 2877 0fbd 01       		.byte	0x1
 2878 0fbe 2801     		.2byte	0x128
 2879 0fc0 0D010000 		.4byte	0x10d
 2880 0fc4 00000000 		.4byte	.LFB235
 2881 0fc8 70000000 		.4byte	.LFE235-.LFB235
 2882 0fcc 01       		.uleb128 0x1
 2883 0fcd 9C       		.byte	0x9c
 2884 0fce C6100000 		.4byte	0x10c6
 2885 0fd2 3B       		.uleb128 0x3b
ARM GAS  /tmp/ccwXba36.s 			page 52


 2886 0fd3 637000   		.ascii	"cp\000"
 2887 0fd6 01       		.byte	0x1
 2888 0fd7 2801     		.2byte	0x128
 2889 0fd9 2E090000 		.4byte	0x92e
 2890 0fdd 19030000 		.4byte	.LLST29
 2891 0fe1 3C       		.uleb128 0x3c
 2892 0fe2 7C040000 		.4byte	.LASF154
 2893 0fe6 01       		.byte	0x1
 2894 0fe7 2801     		.2byte	0x128
 2895 0fe9 39010000 		.4byte	0x139
 2896 0fed 37030000 		.4byte	.LLST30
 2897 0ff1 20       		.uleb128 0x20
 2898 0ff2 6D7000   		.ascii	"mp\000"
 2899 0ff5 01       		.byte	0x1
 2900 0ff6 2901     		.2byte	0x129
 2901 0ff8 AB070000 		.4byte	0x7ab
 2902 0ffc 3D       		.uleb128 0x3d
 2903 0ffd 6D736700 		.ascii	"msg\000"
 2904 1001 01       		.byte	0x1
 2905 1002 2A01     		.2byte	0x12a
 2906 1004 0D010000 		.4byte	0x10d
 2907 1008 55030000 		.4byte	.LLST31
 2908 100c 23       		.uleb128 0x23
 2909 100d 17060000 		.4byte	.LASF144
 2910 1011 D6100000 		.4byte	0x10d6
 2911 1015 05       		.uleb128 0x5
 2912 1016 03       		.byte	0x3
 2913 1017 00000000 		.4byte	__func__.6699
 2914 101b 35       		.uleb128 0x35
 2915 101c 8F080000 		.4byte	0x88f
 2916 1020 1E000000 		.4byte	.LBB167
 2917 1024 F0000000 		.4byte	.Ldebug_ranges0+0xf0
 2918 1028 01       		.byte	0x1
 2919 1029 3701     		.2byte	0x137
 2920 102b 51100000 		.4byte	0x1051
 2921 102f 25       		.uleb128 0x25
 2922 1030 A7080000 		.4byte	0x8a7
 2923 1034 73030000 		.4byte	.LLST32
 2924 1038 25       		.uleb128 0x25
 2925 1039 9C080000 		.4byte	0x89c
 2926 103d 91030000 		.4byte	.LLST33
 2927 1041 2D       		.uleb128 0x2d
 2928 1042 F0000000 		.4byte	.Ldebug_ranges0+0xf0
 2929 1046 2E       		.uleb128 0x2e
 2930 1047 B3080000 		.4byte	0x8b3
 2931 104b A4030000 		.4byte	.LLST34
 2932 104f 00       		.byte	0
 2933 1050 00       		.byte	0
 2934 1051 2C       		.uleb128 0x2c
 2935 1052 0A000000 		.4byte	.LVL82
 2936 1056 8D120000 		.4byte	0x128d
 2937 105a 31       		.uleb128 0x31
 2938 105b 1C000000 		.4byte	.LVL83
 2939 105f 98120000 		.4byte	0x1298
 2940 1063 6E100000 		.4byte	0x106e
 2941 1067 27       		.uleb128 0x27
 2942 1068 01       		.uleb128 0x1
ARM GAS  /tmp/ccwXba36.s 			page 53


 2943 1069 50       		.byte	0x50
 2944 106a 02       		.uleb128 0x2
 2945 106b 76       		.byte	0x76
 2946 106c 00       		.sleb128 0
 2947 106d 00       		.byte	0
 2948 106e 31       		.uleb128 0x31
 2949 106f 44000000 		.4byte	.LVL89
 2950 1073 BA120000 		.4byte	0x12ba
 2951 1077 87100000 		.4byte	0x1087
 2952 107b 27       		.uleb128 0x27
 2953 107c 01       		.uleb128 0x1
 2954 107d 50       		.byte	0x50
 2955 107e 01       		.uleb128 0x1
 2956 107f 37       		.byte	0x37
 2957 1080 27       		.uleb128 0x27
 2958 1081 01       		.uleb128 0x1
 2959 1082 51       		.byte	0x51
 2960 1083 02       		.uleb128 0x2
 2961 1084 77       		.byte	0x77
 2962 1085 00       		.sleb128 0
 2963 1086 00       		.byte	0
 2964 1087 31       		.uleb128 0x31
 2965 1088 50000000 		.4byte	.LVL92
 2966 108c AF120000 		.4byte	0x12af
 2967 1090 9B100000 		.4byte	0x109b
 2968 1094 27       		.uleb128 0x27
 2969 1095 01       		.uleb128 0x1
 2970 1096 50       		.byte	0x50
 2971 1097 02       		.uleb128 0x2
 2972 1098 76       		.byte	0x76
 2973 1099 00       		.sleb128 0
 2974 109a 00       		.byte	0
 2975 109b 31       		.uleb128 0x31
 2976 109c 5A000000 		.4byte	.LVL94
 2977 10a0 26120000 		.4byte	0x1226
 2978 10a4 B2100000 		.4byte	0x10b2
 2979 10a8 27       		.uleb128 0x27
 2980 10a9 01       		.uleb128 0x1
 2981 10aa 50       		.byte	0x50
 2982 10ab 05       		.uleb128 0x5
 2983 10ac 03       		.byte	0x3
 2984 10ad 00000000 		.4byte	.LANCHOR6
 2985 10b1 00       		.byte	0
 2986 10b2 26       		.uleb128 0x26
 2987 10b3 62000000 		.4byte	.LVL95
 2988 10b7 26120000 		.4byte	0x1226
 2989 10bb 27       		.uleb128 0x27
 2990 10bc 01       		.uleb128 0x1
 2991 10bd 50       		.byte	0x50
 2992 10be 05       		.uleb128 0x5
 2993 10bf 03       		.byte	0x3
 2994 10c0 00000000 		.4byte	.LANCHOR6
 2995 10c4 00       		.byte	0
 2996 10c5 00       		.byte	0
 2997 10c6 15       		.uleb128 0x15
 2998 10c7 7A070000 		.4byte	0x77a
 2999 10cb D6100000 		.4byte	0x10d6
ARM GAS  /tmp/ccwXba36.s 			page 54


 3000 10cf 16       		.uleb128 0x16
 3001 10d0 AC040000 		.4byte	0x4ac
 3002 10d4 12       		.byte	0x12
 3003 10d5 00       		.byte	0
 3004 10d6 19       		.uleb128 0x19
 3005 10d7 C6100000 		.4byte	0x10c6
 3006 10db 3A       		.uleb128 0x3a
 3007 10dc 15080000 		.4byte	.LASF155
 3008 10e0 01       		.byte	0x1
 3009 10e1 0201     		.2byte	0x102
 3010 10e3 0D010000 		.4byte	0x10d
 3011 10e7 00000000 		.4byte	.LFB234
 3012 10eb 50000000 		.4byte	.LFE234-.LFB234
 3013 10ef 01       		.uleb128 0x1
 3014 10f0 9C       		.byte	0x9c
 3015 10f1 0F120000 		.4byte	0x120f
 3016 10f5 3B       		.uleb128 0x3b
 3017 10f6 637000   		.ascii	"cp\000"
 3018 10f9 01       		.byte	0x1
 3019 10fa 0201     		.2byte	0x102
 3020 10fc 2E090000 		.4byte	0x92e
 3021 1100 B7030000 		.4byte	.LLST35
 3022 1104 3C       		.uleb128 0x3c
 3023 1105 7C040000 		.4byte	.LASF154
 3024 1109 01       		.byte	0x1
 3025 110a 0201     		.2byte	0x102
 3026 110c 39010000 		.4byte	0x139
 3027 1110 E3030000 		.4byte	.LLST36
 3028 1114 3D       		.uleb128 0x3d
 3029 1115 6D736700 		.ascii	"msg\000"
 3030 1119 01       		.byte	0x1
 3031 111a 0301     		.2byte	0x103
 3032 111c 0D010000 		.4byte	0x10d
 3033 1120 0F040000 		.4byte	.LLST37
 3034 1124 2A       		.uleb128 0x2a
 3035 1125 5D080000 		.4byte	0x85d
 3036 1129 06000000 		.4byte	.LBB185
 3037 112d 0E000000 		.4byte	.LBE185-.LBB185
 3038 1131 01       		.byte	0x1
 3039 1132 0501     		.2byte	0x105
 3040 1134 7A110000 		.4byte	0x117a
 3041 1138 2A       		.uleb128 0x2a
 3042 1139 FB070000 		.4byte	0x7fb
 3043 113d 06000000 		.4byte	.LBB187
 3044 1141 06000000 		.4byte	.LBE187-.LBB187
 3045 1145 04       		.byte	0x4
 3046 1146 5C01     		.2byte	0x15c
 3047 1148 67110000 		.4byte	0x1167
 3048 114c 2B       		.uleb128 0x2b
 3049 114d D5070000 		.4byte	0x7d5
 3050 1151 06000000 		.4byte	.LBB188
 3051 1155 06000000 		.4byte	.LBE188-.LBB188
 3052 1159 0B       		.byte	0xb
 3053 115a BF01     		.2byte	0x1bf
 3054 115c 25       		.uleb128 0x25
 3055 115d E2070000 		.4byte	0x7e2
 3056 1161 38040000 		.4byte	.LLST38
ARM GAS  /tmp/ccwXba36.s 			page 55


 3057 1165 00       		.byte	0
 3058 1166 00       		.byte	0
 3059 1167 2C       		.uleb128 0x2c
 3060 1168 10000000 		.4byte	.LVL98
 3061 116c 32120000 		.4byte	0x1232
 3062 1170 2C       		.uleb128 0x2c
 3063 1171 14000000 		.4byte	.LVL99
 3064 1175 3D120000 		.4byte	0x123d
 3065 1179 00       		.byte	0
 3066 117a 2A       		.uleb128 0x2a
 3067 117b 49090000 		.4byte	0x949
 3068 117f 1E000000 		.4byte	.LBB190
 3069 1183 26000000 		.4byte	.LBE190-.LBB190
 3070 1187 01       		.byte	0x1
 3071 1188 0701     		.2byte	0x107
 3072 118a F8110000 		.4byte	0x11f8
 3073 118e 2F       		.uleb128 0x2f
 3074 118f 1E000000 		.4byte	.LBB191
 3075 1193 26000000 		.4byte	.LBE191-.LBB191
 3076 1197 30       		.uleb128 0x30
 3077 1198 56090000 		.4byte	0x956
 3078 119c 05       		.uleb128 0x5
 3079 119d 03       		.byte	0x3
 3080 119e 00000000 		.4byte	__func__.5969
 3081 11a2 2A       		.uleb128 0x2a
 3082 11a3 04080000 		.4byte	0x804
 3083 11a7 3E000000 		.4byte	.LBB192
 3084 11ab 06000000 		.4byte	.LBE192-.LBB192
 3085 11af 04       		.byte	0x4
 3086 11b0 7301     		.2byte	0x173
 3087 11b2 D1110000 		.4byte	0x11d1
 3088 11b6 2B       		.uleb128 0x2b
 3089 11b7 D5070000 		.4byte	0x7d5
 3090 11bb 3E000000 		.4byte	.LBB193
 3091 11bf 06000000 		.4byte	.LBE193-.LBB193
 3092 11c3 0B       		.byte	0xb
 3093 11c4 CD01     		.2byte	0x1cd
 3094 11c6 25       		.uleb128 0x25
 3095 11c7 E2070000 		.4byte	0x7e2
 3096 11cb 4D040000 		.4byte	.LLST39
 3097 11cf 00       		.byte	0
 3098 11d0 00       		.byte	0
 3099 11d1 2C       		.uleb128 0x2c
 3100 11d2 22000000 		.4byte	.LVL102
 3101 11d6 48120000 		.4byte	0x1248
 3102 11da 2C       		.uleb128 0x2c
 3103 11db 26000000 		.4byte	.LVL103
 3104 11df 53120000 		.4byte	0x1253
 3105 11e3 26       		.uleb128 0x26
 3106 11e4 3E000000 		.4byte	.LVL104
 3107 11e8 26120000 		.4byte	0x1226
 3108 11ec 27       		.uleb128 0x27
 3109 11ed 01       		.uleb128 0x1
 3110 11ee 50       		.byte	0x50
 3111 11ef 05       		.uleb128 0x5
 3112 11f0 03       		.byte	0x3
 3113 11f1 00000000 		.4byte	.LANCHOR2
ARM GAS  /tmp/ccwXba36.s 			page 56


 3114 11f5 00       		.byte	0
 3115 11f6 00       		.byte	0
 3116 11f7 00       		.byte	0
 3117 11f8 26       		.uleb128 0x26
 3118 11f9 1C000000 		.4byte	.LVL100
 3119 11fd B80F0000 		.4byte	0xfb8
 3120 1201 27       		.uleb128 0x27
 3121 1202 01       		.uleb128 0x1
 3122 1203 50       		.byte	0x50
 3123 1204 02       		.uleb128 0x2
 3124 1205 74       		.byte	0x74
 3125 1206 00       		.sleb128 0
 3126 1207 27       		.uleb128 0x27
 3127 1208 01       		.uleb128 0x1
 3128 1209 51       		.byte	0x51
 3129 120a 02       		.uleb128 0x2
 3130 120b 75       		.byte	0x75
 3131 120c 00       		.sleb128 0
 3132 120d 00       		.byte	0
 3133 120e 00       		.byte	0
 3134 120f 3E       		.uleb128 0x3e
 3135 1210 53010000 		.4byte	.LASF156
 3136 1214 12       		.byte	0x12
 3137 1215 A706     		.2byte	0x6a7
 3138 1217 C6000000 		.4byte	0xc6
 3139 121b 3F       		.uleb128 0x3f
 3140 121c 636800   		.ascii	"ch\000"
 3141 121f 02       		.byte	0x2
 3142 1220 0902     		.2byte	0x209
 3143 1222 34040000 		.4byte	0x434
 3144 1226 40       		.uleb128 0x40
 3145 1227 40020000 		.4byte	.LASF157
 3146 122b 40020000 		.4byte	.LASF157
 3147 122f 04       		.byte	0x4
 3148 1230 1601     		.2byte	0x116
 3149 1232 41       		.uleb128 0x41
 3150 1233 1F010000 		.4byte	.LASF158
 3151 1237 1F010000 		.4byte	.LASF158
 3152 123b 0E       		.byte	0xe
 3153 123c 4F       		.byte	0x4f
 3154 123d 41       		.uleb128 0x41
 3155 123e E1030000 		.4byte	.LASF159
 3156 1242 E1030000 		.4byte	.LASF159
 3157 1246 0C       		.byte	0xc
 3158 1247 D8       		.byte	0xd8
 3159 1248 41       		.uleb128 0x41
 3160 1249 F5070000 		.4byte	.LASF160
 3161 124d F5070000 		.4byte	.LASF160
 3162 1251 0C       		.byte	0xc
 3163 1252 D9       		.byte	0xd9
 3164 1253 41       		.uleb128 0x41
 3165 1254 A8030000 		.4byte	.LASF161
 3166 1258 A8030000 		.4byte	.LASF161
 3167 125c 0E       		.byte	0xe
 3168 125d 50       		.byte	0x50
 3169 125e 40       		.uleb128 0x40
 3170 125f 0F030000 		.4byte	.LASF162
ARM GAS  /tmp/ccwXba36.s 			page 57


 3171 1263 0F030000 		.4byte	.LASF162
 3172 1267 02       		.byte	0x2
 3173 1268 1602     		.2byte	0x216
 3174 126a 40       		.uleb128 0x40
 3175 126b CB060000 		.4byte	.LASF163
 3176 126f CB060000 		.4byte	.LASF163
 3177 1273 02       		.byte	0x2
 3178 1274 1302     		.2byte	0x213
 3179 1276 41       		.uleb128 0x41
 3180 1277 2E030000 		.4byte	.LASF164
 3181 127b 2E030000 		.4byte	.LASF164
 3182 127f 0C       		.byte	0xc
 3183 1280 DE       		.byte	0xde
 3184 1281 40       		.uleb128 0x40
 3185 1282 0E020000 		.4byte	.LASF165
 3186 1286 0E020000 		.4byte	.LASF165
 3187 128a 02       		.byte	0x2
 3188 128b 1702     		.2byte	0x217
 3189 128d 41       		.uleb128 0x41
 3190 128e 53030000 		.4byte	.LASF166
 3191 1292 53030000 		.4byte	.LASF166
 3192 1296 0C       		.byte	0xc
 3193 1297 DF       		.byte	0xdf
 3194 1298 41       		.uleb128 0x41
 3195 1299 93020000 		.4byte	.LASF167
 3196 129d 93020000 		.4byte	.LASF167
 3197 12a1 05       		.byte	0x5
 3198 12a2 6D       		.byte	0x6d
 3199 12a3 40       		.uleb128 0x40
 3200 12a4 87060000 		.4byte	.LASF168
 3201 12a8 87060000 		.4byte	.LASF168
 3202 12ac 02       		.byte	0x2
 3203 12ad 1402     		.2byte	0x214
 3204 12af 41       		.uleb128 0x41
 3205 12b0 F3010000 		.4byte	.LASF169
 3206 12b4 F3010000 		.4byte	.LASF169
 3207 12b8 05       		.byte	0x5
 3208 12b9 69       		.byte	0x69
 3209 12ba 40       		.uleb128 0x40
 3210 12bb 80000000 		.4byte	.LASF170
 3211 12bf 80000000 		.4byte	.LASF170
 3212 12c3 02       		.byte	0x2
 3213 12c4 1502     		.2byte	0x215
 3214 12c6 00       		.byte	0
 3215              		.section	.debug_abbrev,"",%progbits
 3216              	.Ldebug_abbrev0:
 3217 0000 01       		.uleb128 0x1
 3218 0001 11       		.uleb128 0x11
 3219 0002 01       		.byte	0x1
 3220 0003 25       		.uleb128 0x25
 3221 0004 0E       		.uleb128 0xe
 3222 0005 13       		.uleb128 0x13
 3223 0006 0B       		.uleb128 0xb
 3224 0007 03       		.uleb128 0x3
 3225 0008 0E       		.uleb128 0xe
 3226 0009 55       		.uleb128 0x55
 3227 000a 17       		.uleb128 0x17
ARM GAS  /tmp/ccwXba36.s 			page 58


 3228 000b 11       		.uleb128 0x11
 3229 000c 01       		.uleb128 0x1
 3230 000d 10       		.uleb128 0x10
 3231 000e 17       		.uleb128 0x17
 3232 000f 00       		.byte	0
 3233 0010 00       		.byte	0
 3234 0011 02       		.uleb128 0x2
 3235 0012 24       		.uleb128 0x24
 3236 0013 00       		.byte	0
 3237 0014 0B       		.uleb128 0xb
 3238 0015 0B       		.uleb128 0xb
 3239 0016 3E       		.uleb128 0x3e
 3240 0017 0B       		.uleb128 0xb
 3241 0018 03       		.uleb128 0x3
 3242 0019 08       		.uleb128 0x8
 3243 001a 00       		.byte	0
 3244 001b 00       		.byte	0
 3245 001c 03       		.uleb128 0x3
 3246 001d 24       		.uleb128 0x24
 3247 001e 00       		.byte	0
 3248 001f 0B       		.uleb128 0xb
 3249 0020 0B       		.uleb128 0xb
 3250 0021 3E       		.uleb128 0x3e
 3251 0022 0B       		.uleb128 0xb
 3252 0023 03       		.uleb128 0x3
 3253 0024 0E       		.uleb128 0xe
 3254 0025 00       		.byte	0
 3255 0026 00       		.byte	0
 3256 0027 04       		.uleb128 0x4
 3257 0028 16       		.uleb128 0x16
 3258 0029 00       		.byte	0
 3259 002a 03       		.uleb128 0x3
 3260 002b 0E       		.uleb128 0xe
 3261 002c 3A       		.uleb128 0x3a
 3262 002d 0B       		.uleb128 0xb
 3263 002e 3B       		.uleb128 0x3b
 3264 002f 0B       		.uleb128 0xb
 3265 0030 49       		.uleb128 0x49
 3266 0031 13       		.uleb128 0x13
 3267 0032 00       		.byte	0
 3268 0033 00       		.byte	0
 3269 0034 05       		.uleb128 0x5
 3270 0035 35       		.uleb128 0x35
 3271 0036 00       		.byte	0
 3272 0037 49       		.uleb128 0x49
 3273 0038 13       		.uleb128 0x13
 3274 0039 00       		.byte	0
 3275 003a 00       		.byte	0
 3276 003b 06       		.uleb128 0x6
 3277 003c 13       		.uleb128 0x13
 3278 003d 01       		.byte	0x1
 3279 003e 03       		.uleb128 0x3
 3280 003f 0E       		.uleb128 0xe
 3281 0040 0B       		.uleb128 0xb
 3282 0041 0B       		.uleb128 0xb
 3283 0042 3A       		.uleb128 0x3a
 3284 0043 0B       		.uleb128 0xb
ARM GAS  /tmp/ccwXba36.s 			page 59


 3285 0044 3B       		.uleb128 0x3b
 3286 0045 0B       		.uleb128 0xb
 3287 0046 01       		.uleb128 0x1
 3288 0047 13       		.uleb128 0x13
 3289 0048 00       		.byte	0
 3290 0049 00       		.byte	0
 3291 004a 07       		.uleb128 0x7
 3292 004b 0D       		.uleb128 0xd
 3293 004c 00       		.byte	0
 3294 004d 03       		.uleb128 0x3
 3295 004e 0E       		.uleb128 0xe
 3296 004f 3A       		.uleb128 0x3a
 3297 0050 0B       		.uleb128 0xb
 3298 0051 3B       		.uleb128 0x3b
 3299 0052 0B       		.uleb128 0xb
 3300 0053 49       		.uleb128 0x49
 3301 0054 13       		.uleb128 0x13
 3302 0055 38       		.uleb128 0x38
 3303 0056 0B       		.uleb128 0xb
 3304 0057 00       		.byte	0
 3305 0058 00       		.byte	0
 3306 0059 08       		.uleb128 0x8
 3307 005a 0D       		.uleb128 0xd
 3308 005b 00       		.byte	0
 3309 005c 03       		.uleb128 0x3
 3310 005d 08       		.uleb128 0x8
 3311 005e 3A       		.uleb128 0x3a
 3312 005f 0B       		.uleb128 0xb
 3313 0060 3B       		.uleb128 0x3b
 3314 0061 05       		.uleb128 0x5
 3315 0062 49       		.uleb128 0x49
 3316 0063 13       		.uleb128 0x13
 3317 0064 38       		.uleb128 0x38
 3318 0065 0B       		.uleb128 0xb
 3319 0066 00       		.byte	0
 3320 0067 00       		.byte	0
 3321 0068 09       		.uleb128 0x9
 3322 0069 0D       		.uleb128 0xd
 3323 006a 00       		.byte	0
 3324 006b 03       		.uleb128 0x3
 3325 006c 0E       		.uleb128 0xe
 3326 006d 3A       		.uleb128 0x3a
 3327 006e 0B       		.uleb128 0xb
 3328 006f 3B       		.uleb128 0x3b
 3329 0070 05       		.uleb128 0x5
 3330 0071 49       		.uleb128 0x49
 3331 0072 13       		.uleb128 0x13
 3332 0073 38       		.uleb128 0x38
 3333 0074 0B       		.uleb128 0xb
 3334 0075 00       		.byte	0
 3335 0076 00       		.byte	0
 3336 0077 0A       		.uleb128 0xa
 3337 0078 0F       		.uleb128 0xf
 3338 0079 00       		.byte	0
 3339 007a 0B       		.uleb128 0xb
 3340 007b 0B       		.uleb128 0xb
 3341 007c 49       		.uleb128 0x49
ARM GAS  /tmp/ccwXba36.s 			page 60


 3342 007d 13       		.uleb128 0x13
 3343 007e 00       		.byte	0
 3344 007f 00       		.byte	0
 3345 0080 0B       		.uleb128 0xb
 3346 0081 13       		.uleb128 0x13
 3347 0082 01       		.byte	0x1
 3348 0083 03       		.uleb128 0x3
 3349 0084 0E       		.uleb128 0xe
 3350 0085 0B       		.uleb128 0xb
 3351 0086 0B       		.uleb128 0xb
 3352 0087 3A       		.uleb128 0x3a
 3353 0088 0B       		.uleb128 0xb
 3354 0089 3B       		.uleb128 0x3b
 3355 008a 05       		.uleb128 0x5
 3356 008b 01       		.uleb128 0x1
 3357 008c 13       		.uleb128 0x13
 3358 008d 00       		.byte	0
 3359 008e 00       		.byte	0
 3360 008f 0C       		.uleb128 0xc
 3361 0090 15       		.uleb128 0x15
 3362 0091 01       		.byte	0x1
 3363 0092 27       		.uleb128 0x27
 3364 0093 19       		.uleb128 0x19
 3365 0094 01       		.uleb128 0x1
 3366 0095 13       		.uleb128 0x13
 3367 0096 00       		.byte	0
 3368 0097 00       		.byte	0
 3369 0098 0D       		.uleb128 0xd
 3370 0099 05       		.uleb128 0x5
 3371 009a 00       		.byte	0
 3372 009b 49       		.uleb128 0x49
 3373 009c 13       		.uleb128 0x13
 3374 009d 00       		.byte	0
 3375 009e 00       		.byte	0
 3376 009f 0E       		.uleb128 0xe
 3377 00a0 0F       		.uleb128 0xf
 3378 00a1 00       		.byte	0
 3379 00a2 0B       		.uleb128 0xb
 3380 00a3 0B       		.uleb128 0xb
 3381 00a4 00       		.byte	0
 3382 00a5 00       		.byte	0
 3383 00a6 0F       		.uleb128 0xf
 3384 00a7 13       		.uleb128 0x13
 3385 00a8 01       		.byte	0x1
 3386 00a9 03       		.uleb128 0x3
 3387 00aa 0E       		.uleb128 0xe
 3388 00ab 0B       		.uleb128 0xb
 3389 00ac 05       		.uleb128 0x5
 3390 00ad 3A       		.uleb128 0x3a
 3391 00ae 0B       		.uleb128 0xb
 3392 00af 3B       		.uleb128 0x3b
 3393 00b0 05       		.uleb128 0x5
 3394 00b1 01       		.uleb128 0x1
 3395 00b2 13       		.uleb128 0x13
 3396 00b3 00       		.byte	0
 3397 00b4 00       		.byte	0
 3398 00b5 10       		.uleb128 0x10
ARM GAS  /tmp/ccwXba36.s 			page 61


 3399 00b6 0D       		.uleb128 0xd
 3400 00b7 00       		.byte	0
 3401 00b8 03       		.uleb128 0x3
 3402 00b9 0E       		.uleb128 0xe
 3403 00ba 3A       		.uleb128 0x3a
 3404 00bb 0B       		.uleb128 0xb
 3405 00bc 3B       		.uleb128 0x3b
 3406 00bd 05       		.uleb128 0x5
 3407 00be 49       		.uleb128 0x49
 3408 00bf 13       		.uleb128 0x13
 3409 00c0 38       		.uleb128 0x38
 3410 00c1 05       		.uleb128 0x5
 3411 00c2 00       		.byte	0
 3412 00c3 00       		.byte	0
 3413 00c4 11       		.uleb128 0x11
 3414 00c5 0D       		.uleb128 0xd
 3415 00c6 00       		.byte	0
 3416 00c7 03       		.uleb128 0x3
 3417 00c8 08       		.uleb128 0x8
 3418 00c9 3A       		.uleb128 0x3a
 3419 00ca 0B       		.uleb128 0xb
 3420 00cb 3B       		.uleb128 0x3b
 3421 00cc 05       		.uleb128 0x5
 3422 00cd 49       		.uleb128 0x49
 3423 00ce 13       		.uleb128 0x13
 3424 00cf 38       		.uleb128 0x38
 3425 00d0 05       		.uleb128 0x5
 3426 00d1 00       		.byte	0
 3427 00d2 00       		.byte	0
 3428 00d3 12       		.uleb128 0x12
 3429 00d4 0D       		.uleb128 0xd
 3430 00d5 00       		.byte	0
 3431 00d6 03       		.uleb128 0x3
 3432 00d7 08       		.uleb128 0x8
 3433 00d8 3A       		.uleb128 0x3a
 3434 00d9 0B       		.uleb128 0xb
 3435 00da 3B       		.uleb128 0x3b
 3436 00db 0B       		.uleb128 0xb
 3437 00dc 49       		.uleb128 0x49
 3438 00dd 13       		.uleb128 0x13
 3439 00de 38       		.uleb128 0x38
 3440 00df 0B       		.uleb128 0xb
 3441 00e0 00       		.byte	0
 3442 00e1 00       		.byte	0
 3443 00e2 13       		.uleb128 0x13
 3444 00e3 13       		.uleb128 0x13
 3445 00e4 01       		.byte	0x1
 3446 00e5 0B       		.uleb128 0xb
 3447 00e6 0B       		.uleb128 0xb
 3448 00e7 3A       		.uleb128 0x3a
 3449 00e8 0B       		.uleb128 0xb
 3450 00e9 3B       		.uleb128 0x3b
 3451 00ea 0B       		.uleb128 0xb
 3452 00eb 01       		.uleb128 0x1
 3453 00ec 13       		.uleb128 0x13
 3454 00ed 00       		.byte	0
 3455 00ee 00       		.byte	0
ARM GAS  /tmp/ccwXba36.s 			page 62


 3456 00ef 14       		.uleb128 0x14
 3457 00f0 13       		.uleb128 0x13
 3458 00f1 01       		.byte	0x1
 3459 00f2 0B       		.uleb128 0xb
 3460 00f3 05       		.uleb128 0x5
 3461 00f4 3A       		.uleb128 0x3a
 3462 00f5 0B       		.uleb128 0xb
 3463 00f6 3B       		.uleb128 0x3b
 3464 00f7 0B       		.uleb128 0xb
 3465 00f8 01       		.uleb128 0x1
 3466 00f9 13       		.uleb128 0x13
 3467 00fa 00       		.byte	0
 3468 00fb 00       		.byte	0
 3469 00fc 15       		.uleb128 0x15
 3470 00fd 01       		.uleb128 0x1
 3471 00fe 01       		.byte	0x1
 3472 00ff 49       		.uleb128 0x49
 3473 0100 13       		.uleb128 0x13
 3474 0101 01       		.uleb128 0x1
 3475 0102 13       		.uleb128 0x13
 3476 0103 00       		.byte	0
 3477 0104 00       		.byte	0
 3478 0105 16       		.uleb128 0x16
 3479 0106 21       		.uleb128 0x21
 3480 0107 00       		.byte	0
 3481 0108 49       		.uleb128 0x49
 3482 0109 13       		.uleb128 0x13
 3483 010a 2F       		.uleb128 0x2f
 3484 010b 0B       		.uleb128 0xb
 3485 010c 00       		.byte	0
 3486 010d 00       		.byte	0
 3487 010e 17       		.uleb128 0x17
 3488 010f 17       		.uleb128 0x17
 3489 0110 01       		.byte	0x1
 3490 0111 0B       		.uleb128 0xb
 3491 0112 0B       		.uleb128 0xb
 3492 0113 3A       		.uleb128 0x3a
 3493 0114 0B       		.uleb128 0xb
 3494 0115 3B       		.uleb128 0x3b
 3495 0116 0B       		.uleb128 0xb
 3496 0117 01       		.uleb128 0x1
 3497 0118 13       		.uleb128 0x13
 3498 0119 00       		.byte	0
 3499 011a 00       		.byte	0
 3500 011b 18       		.uleb128 0x18
 3501 011c 0D       		.uleb128 0xd
 3502 011d 00       		.byte	0
 3503 011e 03       		.uleb128 0x3
 3504 011f 0E       		.uleb128 0xe
 3505 0120 3A       		.uleb128 0x3a
 3506 0121 0B       		.uleb128 0xb
 3507 0122 3B       		.uleb128 0x3b
 3508 0123 05       		.uleb128 0x5
 3509 0124 49       		.uleb128 0x49
 3510 0125 13       		.uleb128 0x13
 3511 0126 00       		.byte	0
 3512 0127 00       		.byte	0
ARM GAS  /tmp/ccwXba36.s 			page 63


 3513 0128 19       		.uleb128 0x19
 3514 0129 26       		.uleb128 0x26
 3515 012a 00       		.byte	0
 3516 012b 49       		.uleb128 0x49
 3517 012c 13       		.uleb128 0x13
 3518 012d 00       		.byte	0
 3519 012e 00       		.byte	0
 3520 012f 1A       		.uleb128 0x1a
 3521 0130 2E       		.uleb128 0x2e
 3522 0131 01       		.byte	0x1
 3523 0132 03       		.uleb128 0x3
 3524 0133 0E       		.uleb128 0xe
 3525 0134 3A       		.uleb128 0x3a
 3526 0135 0B       		.uleb128 0xb
 3527 0136 3B       		.uleb128 0x3b
 3528 0137 05       		.uleb128 0x5
 3529 0138 27       		.uleb128 0x27
 3530 0139 19       		.uleb128 0x19
 3531 013a 20       		.uleb128 0x20
 3532 013b 0B       		.uleb128 0xb
 3533 013c 01       		.uleb128 0x1
 3534 013d 13       		.uleb128 0x13
 3535 013e 00       		.byte	0
 3536 013f 00       		.byte	0
 3537 0140 1B       		.uleb128 0x1b
 3538 0141 05       		.uleb128 0x5
 3539 0142 00       		.byte	0
 3540 0143 03       		.uleb128 0x3
 3541 0144 0E       		.uleb128 0xe
 3542 0145 3A       		.uleb128 0x3a
 3543 0146 0B       		.uleb128 0xb
 3544 0147 3B       		.uleb128 0x3b
 3545 0148 05       		.uleb128 0x5
 3546 0149 49       		.uleb128 0x49
 3547 014a 13       		.uleb128 0x13
 3548 014b 00       		.byte	0
 3549 014c 00       		.byte	0
 3550 014d 1C       		.uleb128 0x1c
 3551 014e 2E       		.uleb128 0x2e
 3552 014f 00       		.byte	0
 3553 0150 03       		.uleb128 0x3
 3554 0151 0E       		.uleb128 0xe
 3555 0152 3A       		.uleb128 0x3a
 3556 0153 0B       		.uleb128 0xb
 3557 0154 3B       		.uleb128 0x3b
 3558 0155 0B       		.uleb128 0xb
 3559 0156 27       		.uleb128 0x27
 3560 0157 19       		.uleb128 0x19
 3561 0158 49       		.uleb128 0x49
 3562 0159 13       		.uleb128 0x13
 3563 015a 20       		.uleb128 0x20
 3564 015b 0B       		.uleb128 0xb
 3565 015c 00       		.byte	0
 3566 015d 00       		.byte	0
 3567 015e 1D       		.uleb128 0x1d
 3568 015f 2E       		.uleb128 0x2e
 3569 0160 00       		.byte	0
ARM GAS  /tmp/ccwXba36.s 			page 64


 3570 0161 03       		.uleb128 0x3
 3571 0162 0E       		.uleb128 0xe
 3572 0163 3A       		.uleb128 0x3a
 3573 0164 0B       		.uleb128 0xb
 3574 0165 3B       		.uleb128 0x3b
 3575 0166 05       		.uleb128 0x5
 3576 0167 27       		.uleb128 0x27
 3577 0168 19       		.uleb128 0x19
 3578 0169 20       		.uleb128 0x20
 3579 016a 0B       		.uleb128 0xb
 3580 016b 00       		.byte	0
 3581 016c 00       		.byte	0
 3582 016d 1E       		.uleb128 0x1e
 3583 016e 05       		.uleb128 0x5
 3584 016f 00       		.byte	0
 3585 0170 03       		.uleb128 0x3
 3586 0171 08       		.uleb128 0x8
 3587 0172 3A       		.uleb128 0x3a
 3588 0173 0B       		.uleb128 0xb
 3589 0174 3B       		.uleb128 0x3b
 3590 0175 05       		.uleb128 0x5
 3591 0176 49       		.uleb128 0x49
 3592 0177 13       		.uleb128 0x13
 3593 0178 00       		.byte	0
 3594 0179 00       		.byte	0
 3595 017a 1F       		.uleb128 0x1f
 3596 017b 2E       		.uleb128 0x2e
 3597 017c 01       		.byte	0x1
 3598 017d 03       		.uleb128 0x3
 3599 017e 0E       		.uleb128 0xe
 3600 017f 3A       		.uleb128 0x3a
 3601 0180 0B       		.uleb128 0xb
 3602 0181 3B       		.uleb128 0x3b
 3603 0182 05       		.uleb128 0x5
 3604 0183 27       		.uleb128 0x27
 3605 0184 19       		.uleb128 0x19
 3606 0185 49       		.uleb128 0x49
 3607 0186 13       		.uleb128 0x13
 3608 0187 20       		.uleb128 0x20
 3609 0188 0B       		.uleb128 0xb
 3610 0189 01       		.uleb128 0x1
 3611 018a 13       		.uleb128 0x13
 3612 018b 00       		.byte	0
 3613 018c 00       		.byte	0
 3614 018d 20       		.uleb128 0x20
 3615 018e 34       		.uleb128 0x34
 3616 018f 00       		.byte	0
 3617 0190 03       		.uleb128 0x3
 3618 0191 08       		.uleb128 0x8
 3619 0192 3A       		.uleb128 0x3a
 3620 0193 0B       		.uleb128 0xb
 3621 0194 3B       		.uleb128 0x3b
 3622 0195 05       		.uleb128 0x5
 3623 0196 49       		.uleb128 0x49
 3624 0197 13       		.uleb128 0x13
 3625 0198 00       		.byte	0
 3626 0199 00       		.byte	0
ARM GAS  /tmp/ccwXba36.s 			page 65


 3627 019a 21       		.uleb128 0x21
 3628 019b 2E       		.uleb128 0x2e
 3629 019c 01       		.byte	0x1
 3630 019d 3F       		.uleb128 0x3f
 3631 019e 19       		.uleb128 0x19
 3632 019f 03       		.uleb128 0x3
 3633 01a0 0E       		.uleb128 0xe
 3634 01a1 3A       		.uleb128 0x3a
 3635 01a2 0B       		.uleb128 0xb
 3636 01a3 3B       		.uleb128 0x3b
 3637 01a4 0B       		.uleb128 0xb
 3638 01a5 27       		.uleb128 0x27
 3639 01a6 19       		.uleb128 0x19
 3640 01a7 11       		.uleb128 0x11
 3641 01a8 01       		.uleb128 0x1
 3642 01a9 12       		.uleb128 0x12
 3643 01aa 06       		.uleb128 0x6
 3644 01ab 40       		.uleb128 0x40
 3645 01ac 18       		.uleb128 0x18
 3646 01ad 9742     		.uleb128 0x2117
 3647 01af 19       		.uleb128 0x19
 3648 01b0 01       		.uleb128 0x1
 3649 01b1 13       		.uleb128 0x13
 3650 01b2 00       		.byte	0
 3651 01b3 00       		.byte	0
 3652 01b4 22       		.uleb128 0x22
 3653 01b5 05       		.uleb128 0x5
 3654 01b6 00       		.byte	0
 3655 01b7 03       		.uleb128 0x3
 3656 01b8 08       		.uleb128 0x8
 3657 01b9 3A       		.uleb128 0x3a
 3658 01ba 0B       		.uleb128 0xb
 3659 01bb 3B       		.uleb128 0x3b
 3660 01bc 0B       		.uleb128 0xb
 3661 01bd 49       		.uleb128 0x49
 3662 01be 13       		.uleb128 0x13
 3663 01bf 02       		.uleb128 0x2
 3664 01c0 17       		.uleb128 0x17
 3665 01c1 00       		.byte	0
 3666 01c2 00       		.byte	0
 3667 01c3 23       		.uleb128 0x23
 3668 01c4 34       		.uleb128 0x34
 3669 01c5 00       		.byte	0
 3670 01c6 03       		.uleb128 0x3
 3671 01c7 0E       		.uleb128 0xe
 3672 01c8 49       		.uleb128 0x49
 3673 01c9 13       		.uleb128 0x13
 3674 01ca 34       		.uleb128 0x34
 3675 01cb 19       		.uleb128 0x19
 3676 01cc 02       		.uleb128 0x2
 3677 01cd 18       		.uleb128 0x18
 3678 01ce 00       		.byte	0
 3679 01cf 00       		.byte	0
 3680 01d0 24       		.uleb128 0x24
 3681 01d1 1D       		.uleb128 0x1d
 3682 01d2 01       		.byte	0x1
 3683 01d3 31       		.uleb128 0x31
ARM GAS  /tmp/ccwXba36.s 			page 66


 3684 01d4 13       		.uleb128 0x13
 3685 01d5 52       		.uleb128 0x52
 3686 01d6 01       		.uleb128 0x1
 3687 01d7 55       		.uleb128 0x55
 3688 01d8 17       		.uleb128 0x17
 3689 01d9 58       		.uleb128 0x58
 3690 01da 0B       		.uleb128 0xb
 3691 01db 59       		.uleb128 0x59
 3692 01dc 0B       		.uleb128 0xb
 3693 01dd 01       		.uleb128 0x1
 3694 01de 13       		.uleb128 0x13
 3695 01df 00       		.byte	0
 3696 01e0 00       		.byte	0
 3697 01e1 25       		.uleb128 0x25
 3698 01e2 05       		.uleb128 0x5
 3699 01e3 00       		.byte	0
 3700 01e4 31       		.uleb128 0x31
 3701 01e5 13       		.uleb128 0x13
 3702 01e6 02       		.uleb128 0x2
 3703 01e7 17       		.uleb128 0x17
 3704 01e8 00       		.byte	0
 3705 01e9 00       		.byte	0
 3706 01ea 26       		.uleb128 0x26
 3707 01eb 898201   		.uleb128 0x4109
 3708 01ee 01       		.byte	0x1
 3709 01ef 11       		.uleb128 0x11
 3710 01f0 01       		.uleb128 0x1
 3711 01f1 31       		.uleb128 0x31
 3712 01f2 13       		.uleb128 0x13
 3713 01f3 00       		.byte	0
 3714 01f4 00       		.byte	0
 3715 01f5 27       		.uleb128 0x27
 3716 01f6 8A8201   		.uleb128 0x410a
 3717 01f9 00       		.byte	0
 3718 01fa 02       		.uleb128 0x2
 3719 01fb 18       		.uleb128 0x18
 3720 01fc 9142     		.uleb128 0x2111
 3721 01fe 18       		.uleb128 0x18
 3722 01ff 00       		.byte	0
 3723 0200 00       		.byte	0
 3724 0201 28       		.uleb128 0x28
 3725 0202 34       		.uleb128 0x34
 3726 0203 00       		.byte	0
 3727 0204 03       		.uleb128 0x3
 3728 0205 0E       		.uleb128 0xe
 3729 0206 49       		.uleb128 0x49
 3730 0207 13       		.uleb128 0x13
 3731 0208 34       		.uleb128 0x34
 3732 0209 19       		.uleb128 0x19
 3733 020a 1C       		.uleb128 0x1c
 3734 020b 0E       		.uleb128 0xe
 3735 020c 00       		.byte	0
 3736 020d 00       		.byte	0
 3737 020e 29       		.uleb128 0x29
 3738 020f 1D       		.uleb128 0x1d
 3739 0210 01       		.byte	0x1
 3740 0211 31       		.uleb128 0x31
ARM GAS  /tmp/ccwXba36.s 			page 67


 3741 0212 13       		.uleb128 0x13
 3742 0213 11       		.uleb128 0x11
 3743 0214 01       		.uleb128 0x1
 3744 0215 12       		.uleb128 0x12
 3745 0216 06       		.uleb128 0x6
 3746 0217 58       		.uleb128 0x58
 3747 0218 0B       		.uleb128 0xb
 3748 0219 59       		.uleb128 0x59
 3749 021a 0B       		.uleb128 0xb
 3750 021b 01       		.uleb128 0x1
 3751 021c 13       		.uleb128 0x13
 3752 021d 00       		.byte	0
 3753 021e 00       		.byte	0
 3754 021f 2A       		.uleb128 0x2a
 3755 0220 1D       		.uleb128 0x1d
 3756 0221 01       		.byte	0x1
 3757 0222 31       		.uleb128 0x31
 3758 0223 13       		.uleb128 0x13
 3759 0224 11       		.uleb128 0x11
 3760 0225 01       		.uleb128 0x1
 3761 0226 12       		.uleb128 0x12
 3762 0227 06       		.uleb128 0x6
 3763 0228 58       		.uleb128 0x58
 3764 0229 0B       		.uleb128 0xb
 3765 022a 59       		.uleb128 0x59
 3766 022b 05       		.uleb128 0x5
 3767 022c 01       		.uleb128 0x1
 3768 022d 13       		.uleb128 0x13
 3769 022e 00       		.byte	0
 3770 022f 00       		.byte	0
 3771 0230 2B       		.uleb128 0x2b
 3772 0231 1D       		.uleb128 0x1d
 3773 0232 01       		.byte	0x1
 3774 0233 31       		.uleb128 0x31
 3775 0234 13       		.uleb128 0x13
 3776 0235 11       		.uleb128 0x11
 3777 0236 01       		.uleb128 0x1
 3778 0237 12       		.uleb128 0x12
 3779 0238 06       		.uleb128 0x6
 3780 0239 58       		.uleb128 0x58
 3781 023a 0B       		.uleb128 0xb
 3782 023b 59       		.uleb128 0x59
 3783 023c 05       		.uleb128 0x5
 3784 023d 00       		.byte	0
 3785 023e 00       		.byte	0
 3786 023f 2C       		.uleb128 0x2c
 3787 0240 898201   		.uleb128 0x4109
 3788 0243 00       		.byte	0
 3789 0244 11       		.uleb128 0x11
 3790 0245 01       		.uleb128 0x1
 3791 0246 31       		.uleb128 0x31
 3792 0247 13       		.uleb128 0x13
 3793 0248 00       		.byte	0
 3794 0249 00       		.byte	0
 3795 024a 2D       		.uleb128 0x2d
 3796 024b 0B       		.uleb128 0xb
 3797 024c 01       		.byte	0x1
ARM GAS  /tmp/ccwXba36.s 			page 68


 3798 024d 55       		.uleb128 0x55
 3799 024e 17       		.uleb128 0x17
 3800 024f 00       		.byte	0
 3801 0250 00       		.byte	0
 3802 0251 2E       		.uleb128 0x2e
 3803 0252 34       		.uleb128 0x34
 3804 0253 00       		.byte	0
 3805 0254 31       		.uleb128 0x31
 3806 0255 13       		.uleb128 0x13
 3807 0256 02       		.uleb128 0x2
 3808 0257 17       		.uleb128 0x17
 3809 0258 00       		.byte	0
 3810 0259 00       		.byte	0
 3811 025a 2F       		.uleb128 0x2f
 3812 025b 0B       		.uleb128 0xb
 3813 025c 01       		.byte	0x1
 3814 025d 11       		.uleb128 0x11
 3815 025e 01       		.uleb128 0x1
 3816 025f 12       		.uleb128 0x12
 3817 0260 06       		.uleb128 0x6
 3818 0261 00       		.byte	0
 3819 0262 00       		.byte	0
 3820 0263 30       		.uleb128 0x30
 3821 0264 34       		.uleb128 0x34
 3822 0265 00       		.byte	0
 3823 0266 31       		.uleb128 0x31
 3824 0267 13       		.uleb128 0x13
 3825 0268 02       		.uleb128 0x2
 3826 0269 18       		.uleb128 0x18
 3827 026a 00       		.byte	0
 3828 026b 00       		.byte	0
 3829 026c 31       		.uleb128 0x31
 3830 026d 898201   		.uleb128 0x4109
 3831 0270 01       		.byte	0x1
 3832 0271 11       		.uleb128 0x11
 3833 0272 01       		.uleb128 0x1
 3834 0273 31       		.uleb128 0x31
 3835 0274 13       		.uleb128 0x13
 3836 0275 01       		.uleb128 0x1
 3837 0276 13       		.uleb128 0x13
 3838 0277 00       		.byte	0
 3839 0278 00       		.byte	0
 3840 0279 32       		.uleb128 0x32
 3841 027a 0B       		.uleb128 0xb
 3842 027b 01       		.byte	0x1
 3843 027c 55       		.uleb128 0x55
 3844 027d 17       		.uleb128 0x17
 3845 027e 01       		.uleb128 0x1
 3846 027f 13       		.uleb128 0x13
 3847 0280 00       		.byte	0
 3848 0281 00       		.byte	0
 3849 0282 33       		.uleb128 0x33
 3850 0283 34       		.uleb128 0x34
 3851 0284 00       		.byte	0
 3852 0285 03       		.uleb128 0x3
 3853 0286 08       		.uleb128 0x8
 3854 0287 3A       		.uleb128 0x3a
ARM GAS  /tmp/ccwXba36.s 			page 69


 3855 0288 0B       		.uleb128 0xb
 3856 0289 3B       		.uleb128 0x3b
 3857 028a 0B       		.uleb128 0xb
 3858 028b 49       		.uleb128 0x49
 3859 028c 13       		.uleb128 0x13
 3860 028d 00       		.byte	0
 3861 028e 00       		.byte	0
 3862 028f 34       		.uleb128 0x34
 3863 0290 898201   		.uleb128 0x4109
 3864 0293 00       		.byte	0
 3865 0294 11       		.uleb128 0x11
 3866 0295 01       		.uleb128 0x1
 3867 0296 9542     		.uleb128 0x2115
 3868 0298 19       		.uleb128 0x19
 3869 0299 31       		.uleb128 0x31
 3870 029a 13       		.uleb128 0x13
 3871 029b 00       		.byte	0
 3872 029c 00       		.byte	0
 3873 029d 35       		.uleb128 0x35
 3874 029e 1D       		.uleb128 0x1d
 3875 029f 01       		.byte	0x1
 3876 02a0 31       		.uleb128 0x31
 3877 02a1 13       		.uleb128 0x13
 3878 02a2 52       		.uleb128 0x52
 3879 02a3 01       		.uleb128 0x1
 3880 02a4 55       		.uleb128 0x55
 3881 02a5 17       		.uleb128 0x17
 3882 02a6 58       		.uleb128 0x58
 3883 02a7 0B       		.uleb128 0xb
 3884 02a8 59       		.uleb128 0x59
 3885 02a9 05       		.uleb128 0x5
 3886 02aa 01       		.uleb128 0x1
 3887 02ab 13       		.uleb128 0x13
 3888 02ac 00       		.byte	0
 3889 02ad 00       		.byte	0
 3890 02ae 36       		.uleb128 0x36
 3891 02af 1D       		.uleb128 0x1d
 3892 02b0 01       		.byte	0x1
 3893 02b1 31       		.uleb128 0x31
 3894 02b2 13       		.uleb128 0x13
 3895 02b3 52       		.uleb128 0x52
 3896 02b4 01       		.uleb128 0x1
 3897 02b5 55       		.uleb128 0x55
 3898 02b6 17       		.uleb128 0x17
 3899 02b7 58       		.uleb128 0x58
 3900 02b8 0B       		.uleb128 0xb
 3901 02b9 59       		.uleb128 0x59
 3902 02ba 05       		.uleb128 0x5
 3903 02bb 00       		.byte	0
 3904 02bc 00       		.byte	0
 3905 02bd 37       		.uleb128 0x37
 3906 02be 2E       		.uleb128 0x2e
 3907 02bf 01       		.byte	0x1
 3908 02c0 3F       		.uleb128 0x3f
 3909 02c1 19       		.uleb128 0x19
 3910 02c2 03       		.uleb128 0x3
 3911 02c3 0E       		.uleb128 0xe
ARM GAS  /tmp/ccwXba36.s 			page 70


 3912 02c4 3A       		.uleb128 0x3a
 3913 02c5 0B       		.uleb128 0xb
 3914 02c6 3B       		.uleb128 0x3b
 3915 02c7 0B       		.uleb128 0xb
 3916 02c8 27       		.uleb128 0x27
 3917 02c9 19       		.uleb128 0x19
 3918 02ca 49       		.uleb128 0x49
 3919 02cb 13       		.uleb128 0x13
 3920 02cc 11       		.uleb128 0x11
 3921 02cd 01       		.uleb128 0x1
 3922 02ce 12       		.uleb128 0x12
 3923 02cf 06       		.uleb128 0x6
 3924 02d0 40       		.uleb128 0x40
 3925 02d1 18       		.uleb128 0x18
 3926 02d2 9742     		.uleb128 0x2117
 3927 02d4 19       		.uleb128 0x19
 3928 02d5 01       		.uleb128 0x1
 3929 02d6 13       		.uleb128 0x13
 3930 02d7 00       		.byte	0
 3931 02d8 00       		.byte	0
 3932 02d9 38       		.uleb128 0x38
 3933 02da 34       		.uleb128 0x34
 3934 02db 00       		.byte	0
 3935 02dc 03       		.uleb128 0x3
 3936 02dd 08       		.uleb128 0x8
 3937 02de 3A       		.uleb128 0x3a
 3938 02df 0B       		.uleb128 0xb
 3939 02e0 3B       		.uleb128 0x3b
 3940 02e1 0B       		.uleb128 0xb
 3941 02e2 49       		.uleb128 0x49
 3942 02e3 13       		.uleb128 0x13
 3943 02e4 02       		.uleb128 0x2
 3944 02e5 17       		.uleb128 0x17
 3945 02e6 00       		.byte	0
 3946 02e7 00       		.byte	0
 3947 02e8 39       		.uleb128 0x39
 3948 02e9 1D       		.uleb128 0x1d
 3949 02ea 00       		.byte	0
 3950 02eb 31       		.uleb128 0x31
 3951 02ec 13       		.uleb128 0x13
 3952 02ed 11       		.uleb128 0x11
 3953 02ee 01       		.uleb128 0x1
 3954 02ef 12       		.uleb128 0x12
 3955 02f0 06       		.uleb128 0x6
 3956 02f1 58       		.uleb128 0x58
 3957 02f2 0B       		.uleb128 0xb
 3958 02f3 59       		.uleb128 0x59
 3959 02f4 0B       		.uleb128 0xb
 3960 02f5 00       		.byte	0
 3961 02f6 00       		.byte	0
 3962 02f7 3A       		.uleb128 0x3a
 3963 02f8 2E       		.uleb128 0x2e
 3964 02f9 01       		.byte	0x1
 3965 02fa 3F       		.uleb128 0x3f
 3966 02fb 19       		.uleb128 0x19
 3967 02fc 03       		.uleb128 0x3
 3968 02fd 0E       		.uleb128 0xe
ARM GAS  /tmp/ccwXba36.s 			page 71


 3969 02fe 3A       		.uleb128 0x3a
 3970 02ff 0B       		.uleb128 0xb
 3971 0300 3B       		.uleb128 0x3b
 3972 0301 05       		.uleb128 0x5
 3973 0302 27       		.uleb128 0x27
 3974 0303 19       		.uleb128 0x19
 3975 0304 49       		.uleb128 0x49
 3976 0305 13       		.uleb128 0x13
 3977 0306 11       		.uleb128 0x11
 3978 0307 01       		.uleb128 0x1
 3979 0308 12       		.uleb128 0x12
 3980 0309 06       		.uleb128 0x6
 3981 030a 40       		.uleb128 0x40
 3982 030b 18       		.uleb128 0x18
 3983 030c 9742     		.uleb128 0x2117
 3984 030e 19       		.uleb128 0x19
 3985 030f 01       		.uleb128 0x1
 3986 0310 13       		.uleb128 0x13
 3987 0311 00       		.byte	0
 3988 0312 00       		.byte	0
 3989 0313 3B       		.uleb128 0x3b
 3990 0314 05       		.uleb128 0x5
 3991 0315 00       		.byte	0
 3992 0316 03       		.uleb128 0x3
 3993 0317 08       		.uleb128 0x8
 3994 0318 3A       		.uleb128 0x3a
 3995 0319 0B       		.uleb128 0xb
 3996 031a 3B       		.uleb128 0x3b
 3997 031b 05       		.uleb128 0x5
 3998 031c 49       		.uleb128 0x49
 3999 031d 13       		.uleb128 0x13
 4000 031e 02       		.uleb128 0x2
 4001 031f 17       		.uleb128 0x17
 4002 0320 00       		.byte	0
 4003 0321 00       		.byte	0
 4004 0322 3C       		.uleb128 0x3c
 4005 0323 05       		.uleb128 0x5
 4006 0324 00       		.byte	0
 4007 0325 03       		.uleb128 0x3
 4008 0326 0E       		.uleb128 0xe
 4009 0327 3A       		.uleb128 0x3a
 4010 0328 0B       		.uleb128 0xb
 4011 0329 3B       		.uleb128 0x3b
 4012 032a 05       		.uleb128 0x5
 4013 032b 49       		.uleb128 0x49
 4014 032c 13       		.uleb128 0x13
 4015 032d 02       		.uleb128 0x2
 4016 032e 17       		.uleb128 0x17
 4017 032f 00       		.byte	0
 4018 0330 00       		.byte	0
 4019 0331 3D       		.uleb128 0x3d
 4020 0332 34       		.uleb128 0x34
 4021 0333 00       		.byte	0
 4022 0334 03       		.uleb128 0x3
 4023 0335 08       		.uleb128 0x8
 4024 0336 3A       		.uleb128 0x3a
 4025 0337 0B       		.uleb128 0xb
ARM GAS  /tmp/ccwXba36.s 			page 72


 4026 0338 3B       		.uleb128 0x3b
 4027 0339 05       		.uleb128 0x5
 4028 033a 49       		.uleb128 0x49
 4029 033b 13       		.uleb128 0x13
 4030 033c 02       		.uleb128 0x2
 4031 033d 17       		.uleb128 0x17
 4032 033e 00       		.byte	0
 4033 033f 00       		.byte	0
 4034 0340 3E       		.uleb128 0x3e
 4035 0341 34       		.uleb128 0x34
 4036 0342 00       		.byte	0
 4037 0343 03       		.uleb128 0x3
 4038 0344 0E       		.uleb128 0xe
 4039 0345 3A       		.uleb128 0x3a
 4040 0346 0B       		.uleb128 0xb
 4041 0347 3B       		.uleb128 0x3b
 4042 0348 05       		.uleb128 0x5
 4043 0349 49       		.uleb128 0x49
 4044 034a 13       		.uleb128 0x13
 4045 034b 3F       		.uleb128 0x3f
 4046 034c 19       		.uleb128 0x19
 4047 034d 3C       		.uleb128 0x3c
 4048 034e 19       		.uleb128 0x19
 4049 034f 00       		.byte	0
 4050 0350 00       		.byte	0
 4051 0351 3F       		.uleb128 0x3f
 4052 0352 34       		.uleb128 0x34
 4053 0353 00       		.byte	0
 4054 0354 03       		.uleb128 0x3
 4055 0355 08       		.uleb128 0x8
 4056 0356 3A       		.uleb128 0x3a
 4057 0357 0B       		.uleb128 0xb
 4058 0358 3B       		.uleb128 0x3b
 4059 0359 05       		.uleb128 0x5
 4060 035a 49       		.uleb128 0x49
 4061 035b 13       		.uleb128 0x13
 4062 035c 3F       		.uleb128 0x3f
 4063 035d 19       		.uleb128 0x19
 4064 035e 3C       		.uleb128 0x3c
 4065 035f 19       		.uleb128 0x19
 4066 0360 00       		.byte	0
 4067 0361 00       		.byte	0
 4068 0362 40       		.uleb128 0x40
 4069 0363 2E       		.uleb128 0x2e
 4070 0364 00       		.byte	0
 4071 0365 3F       		.uleb128 0x3f
 4072 0366 19       		.uleb128 0x19
 4073 0367 3C       		.uleb128 0x3c
 4074 0368 19       		.uleb128 0x19
 4075 0369 6E       		.uleb128 0x6e
 4076 036a 0E       		.uleb128 0xe
 4077 036b 03       		.uleb128 0x3
 4078 036c 0E       		.uleb128 0xe
 4079 036d 3A       		.uleb128 0x3a
 4080 036e 0B       		.uleb128 0xb
 4081 036f 3B       		.uleb128 0x3b
 4082 0370 05       		.uleb128 0x5
ARM GAS  /tmp/ccwXba36.s 			page 73


 4083 0371 00       		.byte	0
 4084 0372 00       		.byte	0
 4085 0373 41       		.uleb128 0x41
 4086 0374 2E       		.uleb128 0x2e
 4087 0375 00       		.byte	0
 4088 0376 3F       		.uleb128 0x3f
 4089 0377 19       		.uleb128 0x19
 4090 0378 3C       		.uleb128 0x3c
 4091 0379 19       		.uleb128 0x19
 4092 037a 6E       		.uleb128 0x6e
 4093 037b 0E       		.uleb128 0xe
 4094 037c 03       		.uleb128 0x3
 4095 037d 0E       		.uleb128 0xe
 4096 037e 3A       		.uleb128 0x3a
 4097 037f 0B       		.uleb128 0xb
 4098 0380 3B       		.uleb128 0x3b
 4099 0381 0B       		.uleb128 0xb
 4100 0382 00       		.byte	0
 4101 0383 00       		.byte	0
 4102 0384 00       		.byte	0
 4103              		.section	.debug_loc,"",%progbits
 4104              	.Ldebug_loc0:
 4105              	.LLST0:
 4106 0000 00000000 		.4byte	.LVL0
 4107 0004 0E000000 		.4byte	.LVL3
 4108 0008 0100     		.2byte	0x1
 4109 000a 50       		.byte	0x50
 4110 000b 0E000000 		.4byte	.LVL3
 4111 000f 18000000 		.4byte	.LVL6
 4112 0013 0100     		.2byte	0x1
 4113 0015 54       		.byte	0x54
 4114 0016 18000000 		.4byte	.LVL6
 4115 001a 1C000000 		.4byte	.LFE227
 4116 001e 0400     		.2byte	0x4
 4117 0020 F3       		.byte	0xf3
 4118 0021 01       		.uleb128 0x1
 4119 0022 50       		.byte	0x50
 4120 0023 9F       		.byte	0x9f
 4121 0024 00000000 		.4byte	0
 4122 0028 00000000 		.4byte	0
 4123              	.LLST1:
 4124 002c 06000000 		.4byte	.LVL1
 4125 0030 0A000000 		.4byte	.LVL2
 4126 0034 0100     		.2byte	0x1
 4127 0036 50       		.byte	0x50
 4128 0037 12000000 		.4byte	.LVL4
 4129 003b 16000000 		.4byte	.LVL5
 4130 003f 0100     		.2byte	0x1
 4131 0041 54       		.byte	0x54
 4132 0042 00000000 		.4byte	0
 4133 0046 00000000 		.4byte	0
 4134              	.LLST2:
 4135 004a 00000000 		.4byte	.LVL7
 4136 004e 06000000 		.4byte	.LVL8
 4137 0052 0100     		.2byte	0x1
 4138 0054 50       		.byte	0x50
 4139 0055 06000000 		.4byte	.LVL8
ARM GAS  /tmp/ccwXba36.s 			page 74


 4140 0059 4E000000 		.4byte	.LVL20
 4141 005d 0100     		.2byte	0x1
 4142 005f 54       		.byte	0x54
 4143 0060 4E000000 		.4byte	.LVL20
 4144 0064 50000000 		.4byte	.LVL21
 4145 0068 0100     		.2byte	0x1
 4146 006a 50       		.byte	0x50
 4147 006b 50000000 		.4byte	.LVL21
 4148 006f 64000000 		.4byte	.LFE228
 4149 0073 0100     		.2byte	0x1
 4150 0075 54       		.byte	0x54
 4151 0076 00000000 		.4byte	0
 4152 007a 00000000 		.4byte	0
 4153              	.LLST3:
 4154 007e 06000000 		.4byte	.LVL8
 4155 0082 0C000000 		.4byte	.LVL9
 4156 0086 0300     		.2byte	0x3
 4157 0088 08       		.byte	0x8
 4158 0089 20       		.byte	0x20
 4159 008a 9F       		.byte	0x9f
 4160 008b 00000000 		.4byte	0
 4161 008f 00000000 		.4byte	0
 4162              	.LLST4:
 4163 0093 14000000 		.4byte	.LVL11
 4164 0097 16000000 		.4byte	.LVL12
 4165 009b 0100     		.2byte	0x1
 4166 009d 54       		.byte	0x54
 4167 009e 00000000 		.4byte	0
 4168 00a2 00000000 		.4byte	0
 4169              	.LLST5:
 4170 00a6 1A000000 		.4byte	.LVL13
 4171 00aa 22000000 		.4byte	.LVL14
 4172 00ae 0100     		.2byte	0x1
 4173 00b0 54       		.byte	0x54
 4174 00b1 00000000 		.4byte	0
 4175 00b5 00000000 		.4byte	0
 4176              	.LLST6:
 4177 00b9 1A000000 		.4byte	.LVL13
 4178 00bd 22000000 		.4byte	.LVL14
 4179 00c1 0100     		.2byte	0x1
 4180 00c3 50       		.byte	0x50
 4181 00c4 00000000 		.4byte	0
 4182 00c8 00000000 		.4byte	0
 4183              	.LLST7:
 4184 00cc 46000000 		.4byte	.LVL18
 4185 00d0 4C000000 		.4byte	.LVL19
 4186 00d4 0200     		.2byte	0x2
 4187 00d6 30       		.byte	0x30
 4188 00d7 9F       		.byte	0x9f
 4189 00d8 00000000 		.4byte	0
 4190 00dc 00000000 		.4byte	0
 4191              	.LLST8:
 4192 00e0 00000000 		.4byte	.LVL23
 4193 00e4 07000000 		.4byte	.LVL24-1
 4194 00e8 0100     		.2byte	0x1
 4195 00ea 50       		.byte	0x50
 4196 00eb 07000000 		.4byte	.LVL24-1
ARM GAS  /tmp/ccwXba36.s 			page 75


 4197 00ef 20000000 		.4byte	.LVL29
 4198 00f3 0100     		.2byte	0x1
 4199 00f5 54       		.byte	0x54
 4200 00f6 20000000 		.4byte	.LVL29
 4201 00fa 24000000 		.4byte	.LVL30
 4202 00fe 0400     		.2byte	0x4
 4203 0100 F3       		.byte	0xf3
 4204 0101 01       		.uleb128 0x1
 4205 0102 50       		.byte	0x50
 4206 0103 9F       		.byte	0x9f
 4207 0104 24000000 		.4byte	.LVL30
 4208 0108 34000000 		.4byte	.LFE229
 4209 010c 0100     		.2byte	0x1
 4210 010e 54       		.byte	0x54
 4211 010f 00000000 		.4byte	0
 4212 0113 00000000 		.4byte	0
 4213              	.LLST9:
 4214 0117 0A000000 		.4byte	.LVL25
 4215 011b 0C000000 		.4byte	.LVL26
 4216 011f 0100     		.2byte	0x1
 4217 0121 54       		.byte	0x54
 4218 0122 00000000 		.4byte	0
 4219 0126 00000000 		.4byte	0
 4220              	.LLST10:
 4221 012a 10000000 		.4byte	.LVL27
 4222 012e 18000000 		.4byte	.LVL28
 4223 0132 0100     		.2byte	0x1
 4224 0134 54       		.byte	0x54
 4225 0135 00000000 		.4byte	0
 4226 0139 00000000 		.4byte	0
 4227              	.LLST11:
 4228 013d 10000000 		.4byte	.LVL27
 4229 0141 18000000 		.4byte	.LVL28
 4230 0145 0100     		.2byte	0x1
 4231 0147 53       		.byte	0x53
 4232 0148 00000000 		.4byte	0
 4233 014c 00000000 		.4byte	0
 4234              	.LLST12:
 4235 0150 00000000 		.4byte	.LVL33
 4236 0154 07000000 		.4byte	.LVL34-1
 4237 0158 0100     		.2byte	0x1
 4238 015a 50       		.byte	0x50
 4239 015b 07000000 		.4byte	.LVL34-1
 4240 015f 34000000 		.4byte	.LFE231
 4241 0163 0100     		.2byte	0x1
 4242 0165 54       		.byte	0x54
 4243 0166 00000000 		.4byte	0
 4244 016a 00000000 		.4byte	0
 4245              	.LLST13:
 4246 016e 0A000000 		.4byte	.LVL35
 4247 0172 0C000000 		.4byte	.LVL36
 4248 0176 0100     		.2byte	0x1
 4249 0178 54       		.byte	0x54
 4250 0179 20000000 		.4byte	.LVL40
 4251 017d 22000000 		.4byte	.LVL41
 4252 0181 0100     		.2byte	0x1
 4253 0183 54       		.byte	0x54
ARM GAS  /tmp/ccwXba36.s 			page 76


 4254 0184 00000000 		.4byte	0
 4255 0188 00000000 		.4byte	0
 4256              	.LLST14:
 4257 018c 14000000 		.4byte	.LVL37
 4258 0190 1A000000 		.4byte	.LVL38
 4259 0194 0100     		.2byte	0x1
 4260 0196 54       		.byte	0x54
 4261 0197 00000000 		.4byte	0
 4262 019b 00000000 		.4byte	0
 4263              	.LLST15:
 4264 019f 14000000 		.4byte	.LVL37
 4265 01a3 1A000000 		.4byte	.LVL38
 4266 01a7 0100     		.2byte	0x1
 4267 01a9 50       		.byte	0x50
 4268 01aa 00000000 		.4byte	0
 4269 01ae 00000000 		.4byte	0
 4270              	.LLST16:
 4271 01b2 00000000 		.4byte	.LVL44
 4272 01b6 0D000000 		.4byte	.LVL46-1
 4273 01ba 0100     		.2byte	0x1
 4274 01bc 50       		.byte	0x50
 4275 01bd 0D000000 		.4byte	.LVL46-1
 4276 01c1 44000000 		.4byte	.LVL54
 4277 01c5 0100     		.2byte	0x1
 4278 01c7 54       		.byte	0x54
 4279 01c8 44000000 		.4byte	.LVL54
 4280 01cc 4C000000 		.4byte	.LFE230
 4281 01d0 0400     		.2byte	0x4
 4282 01d2 F3       		.byte	0xf3
 4283 01d3 01       		.uleb128 0x1
 4284 01d4 50       		.byte	0x50
 4285 01d5 9F       		.byte	0x9f
 4286 01d6 00000000 		.4byte	0
 4287 01da 00000000 		.4byte	0
 4288              	.LLST17:
 4289 01de 00000000 		.4byte	.LVL44
 4290 01e2 0A000000 		.4byte	.LVL45
 4291 01e6 0300     		.2byte	0x3
 4292 01e8 08       		.byte	0x8
 4293 01e9 20       		.byte	0x20
 4294 01ea 9F       		.byte	0x9f
 4295 01eb 00000000 		.4byte	0
 4296 01ef 00000000 		.4byte	0
 4297              	.LLST18:
 4298 01f3 3C000000 		.4byte	.LVL52
 4299 01f7 42000000 		.4byte	.LVL53
 4300 01fb 0200     		.2byte	0x2
 4301 01fd 30       		.byte	0x30
 4302 01fe 9F       		.byte	0x9f
 4303 01ff 00000000 		.4byte	0
 4304 0203 00000000 		.4byte	0
 4305              	.LLST19:
 4306 0207 00000000 		.4byte	.LVL55
 4307 020b 0B000000 		.4byte	.LVL57-1
 4308 020f 0100     		.2byte	0x1
 4309 0211 50       		.byte	0x50
 4310 0212 0B000000 		.4byte	.LVL57-1
ARM GAS  /tmp/ccwXba36.s 			page 77


 4311 0216 64000000 		.4byte	.LFE233
 4312 021a 0100     		.2byte	0x1
 4313 021c 55       		.byte	0x55
 4314 021d 00000000 		.4byte	0
 4315 0221 00000000 		.4byte	0
 4316              	.LLST20:
 4317 0225 08000000 		.4byte	.LVL56
 4318 0229 42000000 		.4byte	.LVL65
 4319 022d 0100     		.2byte	0x1
 4320 022f 54       		.byte	0x54
 4321 0230 4C000000 		.4byte	.LVL67
 4322 0234 64000000 		.4byte	.LFE233
 4323 0238 0100     		.2byte	0x1
 4324 023a 54       		.byte	0x54
 4325 023b 00000000 		.4byte	0
 4326 023f 00000000 		.4byte	0
 4327              	.LLST21:
 4328 0243 42000000 		.4byte	.LVL65
 4329 0247 4C000000 		.4byte	.LVL67
 4330 024b 0100     		.2byte	0x1
 4331 024d 54       		.byte	0x54
 4332 024e 00000000 		.4byte	0
 4333 0252 00000000 		.4byte	0
 4334              	.LLST22:
 4335 0256 1E000000 		.4byte	.LVL59
 4336 025a 22000000 		.4byte	.LVL60
 4337 025e 0200     		.2byte	0x2
 4338 0260 74       		.byte	0x74
 4339 0261 24       		.sleb128 36
 4340 0262 22000000 		.4byte	.LVL60
 4341 0266 3C000000 		.4byte	.LVL63
 4342 026a 0100     		.2byte	0x1
 4343 026c 55       		.byte	0x55
 4344 026d 00000000 		.4byte	0
 4345 0271 00000000 		.4byte	0
 4346              	.LLST23:
 4347 0275 1E000000 		.4byte	.LVL59
 4348 0279 3C000000 		.4byte	.LVL63
 4349 027d 0100     		.2byte	0x1
 4350 027f 54       		.byte	0x54
 4351 0280 00000000 		.4byte	0
 4352 0284 00000000 		.4byte	0
 4353              	.LLST24:
 4354 0288 22000000 		.4byte	.LVL60
 4355 028c 3F000000 		.4byte	.LVL64-1
 4356 0290 0100     		.2byte	0x1
 4357 0292 53       		.byte	0x53
 4358 0293 00000000 		.4byte	0
 4359 0297 00000000 		.4byte	0
 4360              	.LLST25:
 4361 029b 00000000 		.4byte	.LVL70
 4362 029f 0D000000 		.4byte	.LVL72-1
 4363 02a3 0100     		.2byte	0x1
 4364 02a5 50       		.byte	0x50
 4365 02a6 0D000000 		.4byte	.LVL72-1
 4366 02aa 1A000000 		.4byte	.LVL75
 4367 02ae 0100     		.2byte	0x1
ARM GAS  /tmp/ccwXba36.s 			page 78


 4368 02b0 54       		.byte	0x54
 4369 02b1 1A000000 		.4byte	.LVL75
 4370 02b5 4C000000 		.4byte	.LFE232
 4371 02b9 0400     		.2byte	0x4
 4372 02bb F3       		.byte	0xf3
 4373 02bc 01       		.uleb128 0x1
 4374 02bd 50       		.byte	0x50
 4375 02be 9F       		.byte	0x9f
 4376 02bf 00000000 		.4byte	0
 4377 02c3 00000000 		.4byte	0
 4378              	.LLST26:
 4379 02c7 1A000000 		.4byte	.LVL75
 4380 02cb 1D000000 		.4byte	.LVL76-1
 4381 02cf 0100     		.2byte	0x1
 4382 02d1 50       		.byte	0x50
 4383 02d2 1D000000 		.4byte	.LVL76-1
 4384 02d6 44000000 		.4byte	.LVL80
 4385 02da 0100     		.2byte	0x1
 4386 02dc 54       		.byte	0x54
 4387 02dd 44000000 		.4byte	.LVL80
 4388 02e1 4C000000 		.4byte	.LFE232
 4389 02e5 0100     		.2byte	0x1
 4390 02e7 50       		.byte	0x50
 4391 02e8 00000000 		.4byte	0
 4392 02ec 00000000 		.4byte	0
 4393              	.LLST27:
 4394 02f0 00000000 		.4byte	.LVL70
 4395 02f4 0A000000 		.4byte	.LVL71
 4396 02f8 0300     		.2byte	0x3
 4397 02fa 08       		.byte	0x8
 4398 02fb 20       		.byte	0x20
 4399 02fc 9F       		.byte	0x9f
 4400 02fd 00000000 		.4byte	0
 4401 0301 00000000 		.4byte	0
 4402              	.LLST28:
 4403 0305 3A000000 		.4byte	.LVL78
 4404 0309 40000000 		.4byte	.LVL79
 4405 030d 0200     		.2byte	0x2
 4406 030f 30       		.byte	0x30
 4407 0310 9F       		.byte	0x9f
 4408 0311 00000000 		.4byte	0
 4409 0315 00000000 		.4byte	0
 4410              	.LLST29:
 4411 0319 00000000 		.4byte	.LVL81
 4412 031d 09000000 		.4byte	.LVL82-1
 4413 0321 0100     		.2byte	0x1
 4414 0323 50       		.byte	0x50
 4415 0324 09000000 		.4byte	.LVL82-1
 4416 0328 70000000 		.4byte	.LFE235
 4417 032c 0100     		.2byte	0x1
 4418 032e 55       		.byte	0x55
 4419 032f 00000000 		.4byte	0
 4420 0333 00000000 		.4byte	0
 4421              	.LLST30:
 4422 0337 00000000 		.4byte	.LVL81
 4423 033b 09000000 		.4byte	.LVL82-1
 4424 033f 0100     		.2byte	0x1
ARM GAS  /tmp/ccwXba36.s 			page 79


 4425 0341 51       		.byte	0x51
 4426 0342 09000000 		.4byte	.LVL82-1
 4427 0346 70000000 		.4byte	.LFE235
 4428 034a 0100     		.2byte	0x1
 4429 034c 57       		.byte	0x57
 4430 034d 00000000 		.4byte	0
 4431 0351 00000000 		.4byte	0
 4432              	.LLST31:
 4433 0355 48000000 		.4byte	.LVL90
 4434 0359 4C000000 		.4byte	.LVL91
 4435 035d 0100     		.2byte	0x1
 4436 035f 50       		.byte	0x50
 4437 0360 4C000000 		.4byte	.LVL91
 4438 0364 54000000 		.4byte	.LVL93
 4439 0368 0100     		.2byte	0x1
 4440 036a 54       		.byte	0x54
 4441 036b 00000000 		.4byte	0
 4442 036f 00000000 		.4byte	0
 4443              	.LLST32:
 4444 0373 22000000 		.4byte	.LVL84
 4445 0377 24000000 		.4byte	.LVL85
 4446 037b 0100     		.2byte	0x1
 4447 037d 53       		.byte	0x53
 4448 037e 24000000 		.4byte	.LVL85
 4449 0382 40000000 		.4byte	.LVL88
 4450 0386 0100     		.2byte	0x1
 4451 0388 55       		.byte	0x55
 4452 0389 00000000 		.4byte	0
 4453 038d 00000000 		.4byte	0
 4454              	.LLST33:
 4455 0391 22000000 		.4byte	.LVL84
 4456 0395 40000000 		.4byte	.LVL88
 4457 0399 0100     		.2byte	0x1
 4458 039b 54       		.byte	0x54
 4459 039c 00000000 		.4byte	0
 4460 03a0 00000000 		.4byte	0
 4461              	.LLST34:
 4462 03a4 24000000 		.4byte	.LVL85
 4463 03a8 43000000 		.4byte	.LVL89-1
 4464 03ac 0100     		.2byte	0x1
 4465 03ae 53       		.byte	0x53
 4466 03af 00000000 		.4byte	0
 4467 03b3 00000000 		.4byte	0
 4468              	.LLST35:
 4469 03b7 00000000 		.4byte	.LVL96
 4470 03bb 0F000000 		.4byte	.LVL98-1
 4471 03bf 0100     		.2byte	0x1
 4472 03c1 50       		.byte	0x50
 4473 03c2 0F000000 		.4byte	.LVL98-1
 4474 03c6 1E000000 		.4byte	.LVL101
 4475 03ca 0100     		.2byte	0x1
 4476 03cc 54       		.byte	0x54
 4477 03cd 1E000000 		.4byte	.LVL101
 4478 03d1 50000000 		.4byte	.LFE234
 4479 03d5 0400     		.2byte	0x4
 4480 03d7 F3       		.byte	0xf3
 4481 03d8 01       		.uleb128 0x1
ARM GAS  /tmp/ccwXba36.s 			page 80


 4482 03d9 50       		.byte	0x50
 4483 03da 9F       		.byte	0x9f
 4484 03db 00000000 		.4byte	0
 4485 03df 00000000 		.4byte	0
 4486              	.LLST36:
 4487 03e3 00000000 		.4byte	.LVL96
 4488 03e7 0F000000 		.4byte	.LVL98-1
 4489 03eb 0100     		.2byte	0x1
 4490 03ed 51       		.byte	0x51
 4491 03ee 0F000000 		.4byte	.LVL98-1
 4492 03f2 48000000 		.4byte	.LVL106
 4493 03f6 0100     		.2byte	0x1
 4494 03f8 55       		.byte	0x55
 4495 03f9 48000000 		.4byte	.LVL106
 4496 03fd 50000000 		.4byte	.LFE234
 4497 0401 0400     		.2byte	0x4
 4498 0403 F3       		.byte	0xf3
 4499 0404 01       		.uleb128 0x1
 4500 0405 51       		.byte	0x51
 4501 0406 9F       		.byte	0x9f
 4502 0407 00000000 		.4byte	0
 4503 040b 00000000 		.4byte	0
 4504              	.LLST37:
 4505 040f 1E000000 		.4byte	.LVL101
 4506 0413 21000000 		.4byte	.LVL102-1
 4507 0417 0100     		.2byte	0x1
 4508 0419 50       		.byte	0x50
 4509 041a 21000000 		.4byte	.LVL102-1
 4510 041e 48000000 		.4byte	.LVL106
 4511 0422 0100     		.2byte	0x1
 4512 0424 54       		.byte	0x54
 4513 0425 48000000 		.4byte	.LVL106
 4514 0429 50000000 		.4byte	.LFE234
 4515 042d 0100     		.2byte	0x1
 4516 042f 50       		.byte	0x50
 4517 0430 00000000 		.4byte	0
 4518 0434 00000000 		.4byte	0
 4519              	.LLST38:
 4520 0438 00000000 		.4byte	.LVL96
 4521 043c 0C000000 		.4byte	.LVL97
 4522 0440 0300     		.2byte	0x3
 4523 0442 08       		.byte	0x8
 4524 0443 20       		.byte	0x20
 4525 0444 9F       		.byte	0x9f
 4526 0445 00000000 		.4byte	0
 4527 0449 00000000 		.4byte	0
 4528              	.LLST39:
 4529 044d 3E000000 		.4byte	.LVL104
 4530 0451 44000000 		.4byte	.LVL105
 4531 0455 0200     		.2byte	0x2
 4532 0457 30       		.byte	0x30
 4533 0458 9F       		.byte	0x9f
 4534 0459 00000000 		.4byte	0
 4535 045d 00000000 		.4byte	0
 4536              		.section	.debug_aranges,"",%progbits
 4537 0000 5C000000 		.4byte	0x5c
 4538 0004 0200     		.2byte	0x2
ARM GAS  /tmp/ccwXba36.s 			page 81


 4539 0006 00000000 		.4byte	.Ldebug_info0
 4540 000a 04       		.byte	0x4
 4541 000b 00       		.byte	0
 4542 000c 0000     		.2byte	0
 4543 000e 0000     		.2byte	0
 4544 0010 00000000 		.4byte	.LFB227
 4545 0014 1C000000 		.4byte	.LFE227-.LFB227
 4546 0018 00000000 		.4byte	.LFB228
 4547 001c 64000000 		.4byte	.LFE228-.LFB228
 4548 0020 00000000 		.4byte	.LFB229
 4549 0024 34000000 		.4byte	.LFE229-.LFB229
 4550 0028 00000000 		.4byte	.LFB231
 4551 002c 34000000 		.4byte	.LFE231-.LFB231
 4552 0030 00000000 		.4byte	.LFB230
 4553 0034 4C000000 		.4byte	.LFE230-.LFB230
 4554 0038 00000000 		.4byte	.LFB233
 4555 003c 64000000 		.4byte	.LFE233-.LFB233
 4556 0040 00000000 		.4byte	.LFB232
 4557 0044 4C000000 		.4byte	.LFE232-.LFB232
 4558 0048 00000000 		.4byte	.LFB235
 4559 004c 70000000 		.4byte	.LFE235-.LFB235
 4560 0050 00000000 		.4byte	.LFB234
 4561 0054 50000000 		.4byte	.LFE234-.LFB234
 4562 0058 00000000 		.4byte	0
 4563 005c 00000000 		.4byte	0
 4564              		.section	.debug_ranges,"",%progbits
 4565              	.Ldebug_ranges0:
 4566 0000 06000000 		.4byte	.LBB63
 4567 0004 0C000000 		.4byte	.LBE63
 4568 0008 12000000 		.4byte	.LBB66
 4569 000c 1C000000 		.4byte	.LBE66
 4570 0010 00000000 		.4byte	0
 4571 0014 00000000 		.4byte	0
 4572 0018 1A000000 		.4byte	.LBB88
 4573 001c 1E000000 		.4byte	.LBE88
 4574 0020 20000000 		.4byte	.LBB91
 4575 0024 22000000 		.4byte	.LBE91
 4576 0028 00000000 		.4byte	0
 4577 002c 00000000 		.4byte	0
 4578 0030 10000000 		.4byte	.LBB99
 4579 0034 1C000000 		.4byte	.LBE99
 4580 0038 20000000 		.4byte	.LBB104
 4581 003c 26000000 		.4byte	.LBE104
 4582 0040 00000000 		.4byte	0
 4583 0044 00000000 		.4byte	0
 4584 0048 10000000 		.4byte	.LBB100
 4585 004c 14000000 		.4byte	.LBE100
 4586 0050 16000000 		.4byte	.LBB103
 4587 0054 18000000 		.4byte	.LBE103
 4588 0058 00000000 		.4byte	0
 4589 005c 00000000 		.4byte	0
 4590 0060 0A000000 		.4byte	.LBB105
 4591 0064 0C000000 		.4byte	.LBE105
 4592 0068 20000000 		.4byte	.LBB110
 4593 006c 22000000 		.4byte	.LBE110
 4594 0070 00000000 		.4byte	0
 4595 0074 00000000 		.4byte	0
ARM GAS  /tmp/ccwXba36.s 			page 82


 4596 0078 02000000 		.4byte	.LBB121
 4597 007c 04000000 		.4byte	.LBE121
 4598 0080 06000000 		.4byte	.LBB130
 4599 0084 12000000 		.4byte	.LBE130
 4600 0088 00000000 		.4byte	0
 4601 008c 00000000 		.4byte	0
 4602 0090 02000000 		.4byte	.LBB123
 4603 0094 04000000 		.4byte	.LBE123
 4604 0098 06000000 		.4byte	.LBB128
 4605 009c 0A000000 		.4byte	.LBE128
 4606 00a0 00000000 		.4byte	0
 4607 00a4 00000000 		.4byte	0
 4608 00a8 1E000000 		.4byte	.LBB138
 4609 00ac 36000000 		.4byte	.LBE138
 4610 00b0 38000000 		.4byte	.LBB141
 4611 00b4 3C000000 		.4byte	.LBE141
 4612 00b8 00000000 		.4byte	0
 4613 00bc 00000000 		.4byte	0
 4614 00c0 02000000 		.4byte	.LBB152
 4615 00c4 04000000 		.4byte	.LBE152
 4616 00c8 06000000 		.4byte	.LBB161
 4617 00cc 12000000 		.4byte	.LBE161
 4618 00d0 00000000 		.4byte	0
 4619 00d4 00000000 		.4byte	0
 4620 00d8 02000000 		.4byte	.LBB154
 4621 00dc 04000000 		.4byte	.LBE154
 4622 00e0 06000000 		.4byte	.LBB159
 4623 00e4 0A000000 		.4byte	.LBE159
 4624 00e8 00000000 		.4byte	0
 4625 00ec 00000000 		.4byte	0
 4626 00f0 1E000000 		.4byte	.LBB167
 4627 00f4 20000000 		.4byte	.LBE167
 4628 00f8 24000000 		.4byte	.LBB172
 4629 00fc 38000000 		.4byte	.LBE172
 4630 0100 3A000000 		.4byte	.LBB173
 4631 0104 3C000000 		.4byte	.LBE173
 4632 0108 3E000000 		.4byte	.LBB174
 4633 010c 40000000 		.4byte	.LBE174
 4634 0110 00000000 		.4byte	0
 4635 0114 00000000 		.4byte	0
 4636 0118 00000000 		.4byte	.LFB227
 4637 011c 1C000000 		.4byte	.LFE227
 4638 0120 00000000 		.4byte	.LFB228
 4639 0124 64000000 		.4byte	.LFE228
 4640 0128 00000000 		.4byte	.LFB229
 4641 012c 34000000 		.4byte	.LFE229
 4642 0130 00000000 		.4byte	.LFB231
 4643 0134 34000000 		.4byte	.LFE231
 4644 0138 00000000 		.4byte	.LFB230
 4645 013c 4C000000 		.4byte	.LFE230
 4646 0140 00000000 		.4byte	.LFB233
 4647 0144 64000000 		.4byte	.LFE233
 4648 0148 00000000 		.4byte	.LFB232
 4649 014c 4C000000 		.4byte	.LFE232
 4650 0150 00000000 		.4byte	.LFB235
 4651 0154 70000000 		.4byte	.LFE235
 4652 0158 00000000 		.4byte	.LFB234
ARM GAS  /tmp/ccwXba36.s 			page 83


 4653 015c 50000000 		.4byte	.LFE234
 4654 0160 00000000 		.4byte	0
 4655 0164 00000000 		.4byte	0
 4656              		.section	.debug_line,"",%progbits
 4657              	.Ldebug_line0:
 4658 0000 B4040000 		.section	.debug_str,"MS",%progbits,1
 4658      02003302 
 4658      00000201 
 4658      FB0E0D00 
 4658      01010101 
 4659              	.LASF98:
 4660 0000 74625F70 		.ascii	"tb_ptr\000"
 4660      747200
 4661              	.LASF55:
 4662 0007 72656164 		.ascii	"ready_list_t\000"
 4662      795F6C69 
 4662      73745F74 
 4662      00
 4663              	.LASF92:
 4664 0014 73655F74 		.ascii	"se_time\000"
 4664      696D6500 
 4665              	.LASF116:
 4666 001c 77747472 		.ascii	"wttrp\000"
 4666      7000
 4667              	.LASF113:
 4668 0022 7264796D 		.ascii	"rdymsg\000"
 4668      736700
 4669              	.LASF17:
 4670 0029 75696E74 		.ascii	"uint64_t\000"
 4670      36345F74 
 4670      00
 4671              	.LASF85:
 4672 0032 6B65726E 		.ascii	"kernel_stats\000"
 4672      656C5F73 
 4672      74617473 
 4672      00
 4673              	.LASF7:
 4674 003f 5F5F7569 		.ascii	"__uint8_t\000"
 4674      6E74385F 
 4674      7400
 4675              	.LASF91:
 4676 0049 706F7274 		.ascii	"port_intctx\000"
 4676      5F696E74 
 4676      63747800 
 4677              	.LASF54:
 4678 0055 63685F74 		.ascii	"ch_threads_queue\000"
 4678      68726561 
 4678      64735F71 
 4678      75657565 
 4678      00
 4679              	.LASF74:
 4680 0066 73797374 		.ascii	"system_debug_t\000"
 4680      656D5F64 
 4680      65627567 
 4680      5F7400
 4681              	.LASF135:
 4682 0075 71756575 		.ascii	"queue_init\000"
ARM GAS  /tmp/ccwXba36.s 			page 84


 4682      655F696E 
 4682      697400
 4683              	.LASF170:
 4684 0080 63685363 		.ascii	"chSchGoSleepTimeoutS\000"
 4684      68476F53 
 4684      6C656570 
 4684      54696D65 
 4684      6F757453 
 4685              	.LASF132:
 4686 0095 706F7274 		.ascii	"port_lock\000"
 4686      5F6C6F63 
 4686      6B00
 4687              	.LASF104:
 4688 009f 776F7273 		.ascii	"worst\000"
 4688      7400
 4689              	.LASF107:
 4690 00a5 74696D65 		.ascii	"time_measurement_t\000"
 4690      5F6D6561 
 4690      73757265 
 4690      6D656E74 
 4690      5F7400
 4691              	.LASF149:
 4692 00b8 6368436F 		.ascii	"chCondBroadcastI\000"
 4692      6E644272 
 4692      6F616463 
 4692      61737449 
 4692      00
 4693              	.LASF13:
 4694 00c9 6C6F6E67 		.ascii	"long long unsigned int\000"
 4694      206C6F6E 
 4694      6720756E 
 4694      7369676E 
 4694      65642069 
 4695              	.LASF100:
 4696 00e0 63685F74 		.ascii	"ch_trace_buffer_t\000"
 4696      72616365 
 4696      5F627566 
 4696      6665725F 
 4696      7400
 4697              	.LASF150:
 4698 00f2 6368436F 		.ascii	"chCondBroadcast\000"
 4698      6E644272 
 4698      6F616463 
 4698      61737400 
 4699              	.LASF95:
 4700 0102 73655F73 		.ascii	"se_state\000"
 4700      74617465 
 4700      00
 4701              	.LASF114:
 4702 010b 65786974 		.ascii	"exitcode\000"
 4702      636F6465 
 4702      00
 4703              	.LASF84:
 4704 0114 6D61696E 		.ascii	"mainthread\000"
 4704      74687265 
 4704      616400
 4705              	.LASF158:
ARM GAS  /tmp/ccwXba36.s 			page 85


 4706 011f 5F737461 		.ascii	"_stats_start_measure_crit_thd\000"
 4706      74735F73 
 4706      74617274 
 4706      5F6D6561 
 4706      73757265 
 4707              	.LASF71:
 4708 013d 76697274 		.ascii	"virtual_timers_list_t\000"
 4708      75616C5F 
 4708      74696D65 
 4708      72735F6C 
 4708      6973745F 
 4709              	.LASF156:
 4710 0153 49544D5F 		.ascii	"ITM_RxBuffer\000"
 4710      52784275 
 4710      66666572 
 4710      00
 4711              	.LASF19:
 4712 0160 72747469 		.ascii	"rttime_t\000"
 4712      6D655F74 
 4712      00
 4713              	.LASF32:
 4714 0169 705F7072 		.ascii	"p_prio\000"
 4714      696F00
 4715              	.LASF1:
 4716 0170 6C6F6E67 		.ascii	"long long int\000"
 4716      206C6F6E 
 4716      6720696E 
 4716      7400
 4717              	.LASF3:
 4718 017e 7369676E 		.ascii	"signed char\000"
 4718      65642063 
 4718      68617200 
 4719              	.LASF131:
 4720 018a 636F6E64 		.ascii	"condition_variable_t\000"
 4720      6974696F 
 4720      6E5F7661 
 4720      72696162 
 4720      6C655F74 
 4721              	.LASF47:
 4722 019f 705F6D70 		.ascii	"p_mpool\000"
 4722      6F6F6C00 
 4723              	.LASF124:
 4724 01a7 6D5F7175 		.ascii	"m_queue\000"
 4724      65756500 
 4725              	.LASF83:
 4726 01af 76746C69 		.ascii	"vtlist\000"
 4726      737400
 4727              	.LASF133:
 4728 01b6 706F7274 		.ascii	"port_unlock\000"
 4728      5F756E6C 
 4728      6F636B00 
 4729              	.LASF81:
 4730 01c2 63685F73 		.ascii	"ch_system\000"
 4730      79737465 
 4730      6D00
 4731              	.LASF9:
 4732 01cc 6C6F6E67 		.ascii	"long int\000"
ARM GAS  /tmp/ccwXba36.s 			page 86


 4732      20696E74 
 4732      00
 4733              	.LASF21:
 4734 01d5 74737461 		.ascii	"tstate_t\000"
 4734      74655F74 
 4734      00
 4735              	.LASF139:
 4736 01de 71756575 		.ascii	"queue_notempty\000"
 4736      655F6E6F 
 4736      74656D70 
 4736      747900
 4737              	.LASF93:
 4738 01ed 73655F74 		.ascii	"se_tp\000"
 4738      7000
 4739              	.LASF169:
 4740 01f3 63684D74 		.ascii	"chMtxLockS\000"
 4740      784C6F63 
 4740      6B5300
 4741              	.LASF34:
 4742 01fe 705F6E65 		.ascii	"p_newer\000"
 4742      77657200 
 4743              	.LASF121:
 4744 0206 735F7175 		.ascii	"s_queue\000"
 4744      65756500 
 4745              	.LASF165:
 4746 020e 63685363 		.ascii	"chSchRescheduleS\000"
 4746      68526573 
 4746      63686564 
 4746      756C6553 
 4746      00
 4747              	.LASF97:
 4748 021f 74625F73 		.ascii	"tb_size\000"
 4748      697A6500 
 4749              	.LASF60:
 4750 0227 725F6E65 		.ascii	"r_newer\000"
 4750      77657200 
 4751              	.LASF88:
 4752 022f 72656761 		.ascii	"regarm_t\000"
 4752      726D5F74 
 4752      00
 4753              	.LASF67:
 4754 0238 76745F70 		.ascii	"vt_prev\000"
 4754      72657600 
 4755              	.LASF157:
 4756 0240 63685379 		.ascii	"chSysHalt\000"
 4756      7348616C 
 4756      7400
 4757              	.LASF75:
 4758 024a 63685F73 		.ascii	"ch_system_debug\000"
 4758      79737465 
 4758      6D5F6465 
 4758      62756700 
 4759              	.LASF128:
 4760 025a 6D757465 		.ascii	"mutex_t\000"
 4760      785F7400 
 4761              	.LASF136:
 4762 0262 76616C75 		.ascii	"value\000"
ARM GAS  /tmp/ccwXba36.s 			page 87


 4762      6500
 4763              	.LASF78:
 4764 0268 6C6F636B 		.ascii	"lock_cnt\000"
 4764      5F636E74 
 4764      00
 4765              	.LASF147:
 4766 0271 6368436F 		.ascii	"chCondSignal\000"
 4766      6E645369 
 4766      676E616C 
 4766      00
 4767              	.LASF86:
 4768 027e 69646C65 		.ascii	"idle_thread_wa\000"
 4768      5F746872 
 4768      6561645F 
 4768      776100
 4769              	.LASF26:
 4770 028d 636E745F 		.ascii	"cnt_t\000"
 4770      7400
 4771              	.LASF167:
 4772 0293 63684D74 		.ascii	"chMtxUnlockS\000"
 4772      78556E6C 
 4772      6F636B53 
 4772      00
 4773              	.LASF0:
 4774 02a0 756E7369 		.ascii	"unsigned int\000"
 4774      676E6564 
 4774      20696E74 
 4774      00
 4775              	.LASF66:
 4776 02ad 76745F6E 		.ascii	"vt_next\000"
 4776      65787400 
 4777              	.LASF126:
 4778 02b5 6D5F6E65 		.ascii	"m_next\000"
 4778      787400
 4779              	.LASF117:
 4780 02bc 77747365 		.ascii	"wtsemp\000"
 4780      6D7000
 4781              	.LASF68:
 4782 02c3 76745F64 		.ascii	"vt_delta\000"
 4782      656C7461 
 4782      00
 4783              	.LASF42:
 4784 02cc 705F6D73 		.ascii	"p_msgqueue\000"
 4784      67717565 
 4784      756500
 4785              	.LASF108:
 4786 02d7 6E5F6972 		.ascii	"n_irq\000"
 4786      7100
 4787              	.LASF122:
 4788 02dd 735F636E 		.ascii	"s_cnt\000"
 4788      7400
 4789              	.LASF6:
 4790 02e3 73686F72 		.ascii	"short unsigned int\000"
 4790      7420756E 
 4790      7369676E 
 4790      65642069 
 4790      6E7400
ARM GAS  /tmp/ccwXba36.s 			page 88


 4791              	.LASF112:
 4792 02f6 6B65726E 		.ascii	"kernel_stats_t\000"
 4792      656C5F73 
 4792      74617473 
 4792      5F7400
 4793              	.LASF51:
 4794 0305 63685F74 		.ascii	"ch_thread\000"
 4794      68726561 
 4794      6400
 4795              	.LASF162:
 4796 030f 63685363 		.ascii	"chSchWakeupS\000"
 4796      6857616B 
 4796      65757053 
 4796      00
 4797              	.LASF24:
 4798 031c 6D73675F 		.ascii	"msg_t\000"
 4798      7400
 4799              	.LASF105:
 4800 0322 6C617374 		.ascii	"last\000"
 4800      00
 4801              	.LASF27:
 4802 0327 75636E74 		.ascii	"ucnt_t\000"
 4802      5F7400
 4803              	.LASF164:
 4804 032e 63684462 		.ascii	"chDbgCheckClassI\000"
 4804      67436865 
 4804      636B436C 
 4804      61737349 
 4804      00
 4805              	.LASF80:
 4806 033f 63685F73 		.ascii	"ch_system_t\000"
 4806      79737465 
 4806      6D5F7400 
 4807              	.LASF20:
 4808 034b 746D6F64 		.ascii	"tmode_t\000"
 4808      655F7400 
 4809              	.LASF166:
 4810 0353 63684462 		.ascii	"chDbgCheckClassS\000"
 4810      67436865 
 4810      636B436C 
 4810      61737353 
 4810      00
 4811              	.LASF111:
 4812 0364 6D5F6372 		.ascii	"m_crit_isr\000"
 4812      69745F69 
 4812      737200
 4813              	.LASF56:
 4814 036f 63685F72 		.ascii	"ch_ready_list\000"
 4814      65616479 
 4814      5F6C6973 
 4814      7400
 4815              	.LASF25:
 4816 037d 6576656E 		.ascii	"eventmask_t\000"
 4816      746D6173 
 4816      6B5F7400 
 4817              	.LASF8:
 4818 0389 5F5F696E 		.ascii	"__int32_t\000"
ARM GAS  /tmp/ccwXba36.s 			page 89


 4818      7433325F 
 4818      7400
 4819              	.LASF89:
 4820 0393 73746B61 		.ascii	"stkalign_t\000"
 4820      6C69676E 
 4820      5F7400
 4821              	.LASF41:
 4822 039e 705F7761 		.ascii	"p_waiting\000"
 4822      6974696E 
 4822      6700
 4823              	.LASF161:
 4824 03a8 5F737461 		.ascii	"_stats_stop_measure_crit_thd\000"
 4824      74735F73 
 4824      746F705F 
 4824      6D656173 
 4824      7572655F 
 4825              	.LASF87:
 4826 03c5 73697A65 		.ascii	"sizetype\000"
 4826      74797065 
 4826      00
 4827              	.LASF49:
 4828 03ce 74687265 		.ascii	"thread_reference_t\000"
 4828      61645F72 
 4828      65666572 
 4828      656E6365 
 4828      5F7400
 4829              	.LASF159:
 4830 03e1 5F646267 		.ascii	"_dbg_check_lock\000"
 4830      5F636865 
 4830      636B5F6C 
 4830      6F636B00 
 4831              	.LASF72:
 4832 03f1 63685F76 		.ascii	"ch_virtual_timers_list\000"
 4832      69727475 
 4832      616C5F74 
 4832      696D6572 
 4832      735F6C69 
 4833              	.LASF129:
 4834 0408 636F6E64 		.ascii	"condition_variable\000"
 4834      6974696F 
 4834      6E5F7661 
 4834      72696162 
 4834      6C6500
 4835              	.LASF153:
 4836 041b 6368436F 		.ascii	"chCondWaitTimeoutS\000"
 4836      6E645761 
 4836      69745469 
 4836      6D656F75 
 4836      745300
 4837              	.LASF96:
 4838 042e 63685F73 		.ascii	"ch_swc_event_t\000"
 4838      77635F65 
 4838      76656E74 
 4838      5F7400
 4839              	.LASF73:
 4840 043d 76745F6C 		.ascii	"vt_lasttime\000"
 4840      61737474 
ARM GAS  /tmp/ccwXba36.s 			page 90


 4840      696D6500 
 4841              	.LASF109:
 4842 0449 6E5F6374 		.ascii	"n_ctxswc\000"
 4842      78737763 
 4842      00
 4843              	.LASF35:
 4844 0452 705F6F6C 		.ascii	"p_older\000"
 4844      64657200 
 4845              	.LASF59:
 4846 045a 725F6374 		.ascii	"r_ctx\000"
 4846      7800
 4847              	.LASF102:
 4848 0460 746D5F63 		.ascii	"tm_calibration_t\000"
 4848      616C6962 
 4848      72617469 
 4848      6F6E5F74 
 4848      00
 4849              	.LASF37:
 4850 0471 705F7374 		.ascii	"p_stklimit\000"
 4850      6B6C696D 
 4850      697400
 4851              	.LASF154:
 4852 047c 74696D65 		.ascii	"time\000"
 4852      00
 4853              	.LASF62:
 4854 0481 725F6375 		.ascii	"r_current\000"
 4854      7272656E 
 4854      7400
 4855              	.LASF61:
 4856 048b 725F6F6C 		.ascii	"r_older\000"
 4856      64657200 
 4857              	.LASF12:
 4858 0493 5F5F7569 		.ascii	"__uint64_t\000"
 4858      6E743634 
 4858      5F7400
 4859              	.LASF106:
 4860 049e 63756D75 		.ascii	"cumulative\000"
 4860      6C617469 
 4860      766500
 4861              	.LASF22:
 4862 04a9 74726566 		.ascii	"trefs_t\000"
 4862      735F7400 
 4863              	.LASF99:
 4864 04b1 74625F62 		.ascii	"tb_buffer\000"
 4864      75666665 
 4864      7200
 4865              	.LASF64:
 4866 04bb 76697274 		.ascii	"virtual_timer_t\000"
 4866      75616C5F 
 4866      74696D65 
 4866      725F7400 
 4867              	.LASF31:
 4868 04cb 705F7072 		.ascii	"p_prev\000"
 4868      657600
 4869              	.LASF23:
 4870 04d2 74707269 		.ascii	"tprio_t\000"
 4870      6F5F7400 
ARM GAS  /tmp/ccwXba36.s 			page 91


 4871              	.LASF148:
 4872 04da 6368436F 		.ascii	"chCondSignalI\000"
 4872      6E645369 
 4872      676E616C 
 4872      4900
 4873              	.LASF137:
 4874 04e8 5F426F6F 		.ascii	"_Bool\000"
 4874      6C00
 4875              	.LASF15:
 4876 04ee 696E7433 		.ascii	"int32_t\000"
 4876      325F7400 
 4877              	.LASF4:
 4878 04f6 756E7369 		.ascii	"unsigned char\000"
 4878      676E6564 
 4878      20636861 
 4878      7200
 4879              	.LASF45:
 4880 0504 705F6D74 		.ascii	"p_mtxlist\000"
 4880      786C6973 
 4880      7400
 4881              	.LASF5:
 4882 050e 73686F72 		.ascii	"short int\000"
 4882      7420696E 
 4882      7400
 4883              	.LASF38:
 4884 0518 705F7374 		.ascii	"p_state\000"
 4884      61746500 
 4885              	.LASF58:
 4886 0520 725F7072 		.ascii	"r_prio\000"
 4886      696F00
 4887              	.LASF171:
 4888 0527 474E5520 		.ascii	"GNU C11 5.3.1 20160307 (release) [ARM/embedded-5-br"
 4888      43313120 
 4888      352E332E 
 4888      31203230 
 4888      31363033 
 4889 055a 616E6368 		.ascii	"anch revision 234589] -mcpu=cortex-m4 -mno-thumb-in"
 4889      20726576 
 4889      6973696F 
 4889      6E203233 
 4889      34353839 
 4890 058d 74657277 		.ascii	"terwork -mthumb -ggdb -O2 -fomit-frame-pointer -fal"
 4890      6F726B20 
 4890      2D6D7468 
 4890      756D6220 
 4890      2D676764 
 4891 05c0 69676E2D 		.ascii	"ign-functions=16 -ffunction-sections -fdata-section"
 4891      66756E63 
 4891      74696F6E 
 4891      733D3136 
 4891      202D6666 
 4892 05f3 73202D66 		.ascii	"s -fno-common\000"
 4892      6E6F2D63 
 4892      6F6D6D6F 
 4892      6E00
 4893              	.LASF119:
 4894 0601 65776D61 		.ascii	"ewmask\000"
ARM GAS  /tmp/ccwXba36.s 			page 92


 4894      736B00
 4895              	.LASF30:
 4896 0608 705F6E65 		.ascii	"p_next\000"
 4896      787400
 4897              	.LASF39:
 4898 060f 705F666C 		.ascii	"p_flags\000"
 4898      61677300 
 4899              	.LASF144:
 4900 0617 5F5F6675 		.ascii	"__func__\000"
 4900      6E635F5F 
 4900      00
 4901              	.LASF48:
 4902 0620 705F7374 		.ascii	"p_stats\000"
 4902      61747300 
 4903              	.LASF138:
 4904 0628 63685379 		.ascii	"chSysLock\000"
 4904      734C6F63 
 4904      6B00
 4905              	.LASF172:
 4906 0632 2F686F6D 		.ascii	"/home/selim/working/ChibiOS/os/rt/src/chcond.c\000"
 4906      652F7365 
 4906      6C696D2F 
 4906      776F726B 
 4906      696E672F 
 4907              	.LASF65:
 4908 0661 63685F76 		.ascii	"ch_virtual_timer\000"
 4908      69727475 
 4908      616C5F74 
 4908      696D6572 
 4908      00
 4909              	.LASF130:
 4910 0672 635F7175 		.ascii	"c_queue\000"
 4910      65756500 
 4911              	.LASF120:
 4912 067a 63685F73 		.ascii	"ch_semaphore\000"
 4912      656D6170 
 4912      686F7265 
 4912      00
 4913              	.LASF168:
 4914 0687 63685363 		.ascii	"chSchGoSleepS\000"
 4914      68476F53 
 4914      6C656570 
 4914      5300
 4915              	.LASF44:
 4916 0695 705F6570 		.ascii	"p_epending\000"
 4916      656E6469 
 4916      6E6700
 4917              	.LASF143:
 4918 06a0 63684D74 		.ascii	"chMtxGetNextMutexS\000"
 4918      78476574 
 4918      4E657874 
 4918      4D757465 
 4918      785300
 4919              	.LASF16:
 4920 06b3 75696E74 		.ascii	"uint32_t\000"
 4920      33325F74 
 4920      00
ARM GAS  /tmp/ccwXba36.s 			page 93


 4921              	.LASF118:
 4922 06bc 77746D74 		.ascii	"wtmtxp\000"
 4922      787000
 4923              	.LASF57:
 4924 06c3 725F7175 		.ascii	"r_queue\000"
 4924      65756500 
 4925              	.LASF163:
 4926 06cb 63685363 		.ascii	"chSchReadyI\000"
 4926      68526561 
 4926      64794900 
 4927              	.LASF52:
 4928 06d7 63685F74 		.ascii	"ch_threads_list\000"
 4928      68726561 
 4928      64735F6C 
 4928      69737400 
 4929              	.LASF11:
 4930 06e7 6C6F6E67 		.ascii	"long unsigned int\000"
 4930      20756E73 
 4930      69676E65 
 4930      6420696E 
 4930      7400
 4931              	.LASF127:
 4932 06f9 63686172 		.ascii	"char\000"
 4932      00
 4933              	.LASF151:
 4934 06fe 6368436F 		.ascii	"chCondWaitS\000"
 4934      6E645761 
 4934      69745300 
 4935              	.LASF146:
 4936 070a 6368436F 		.ascii	"chCondObjectInit\000"
 4936      6E644F62 
 4936      6A656374 
 4936      496E6974 
 4936      00
 4937              	.LASF103:
 4938 071b 62657374 		.ascii	"best\000"
 4938      00
 4939              	.LASF2:
 4940 0720 6C6F6E67 		.ascii	"long double\000"
 4940      20646F75 
 4940      626C6500 
 4941              	.LASF140:
 4942 072c 71756575 		.ascii	"queue_fifo_remove\000"
 4942      655F6669 
 4942      666F5F72 
 4942      656D6F76 
 4942      6500
 4943              	.LASF28:
 4944 073e 73797374 		.ascii	"systime_t\000"
 4944      696D655F 
 4944      7400
 4945              	.LASF46:
 4946 0748 705F7265 		.ascii	"p_realprio\000"
 4946      616C7072 
 4946      696F00
 4947              	.LASF63:
 4948 0753 76746675 		.ascii	"vtfunc_t\000"
ARM GAS  /tmp/ccwXba36.s 			page 94


 4948      6E635F74 
 4948      00
 4949              	.LASF10:
 4950 075c 5F5F7569 		.ascii	"__uint32_t\000"
 4950      6E743332 
 4950      5F7400
 4951              	.LASF134:
 4952 0767 5F5F7365 		.ascii	"__set_BASEPRI\000"
 4952      745F4241 
 4952      53455052 
 4952      4900
 4953              	.LASF76:
 4954 0775 70616E69 		.ascii	"panic_msg\000"
 4954      635F6D73 
 4954      6700
 4955              	.LASF101:
 4956 077f 6F666673 		.ascii	"offset\000"
 4956      657400
 4957              	.LASF90:
 4958 0786 636F6E74 		.ascii	"context\000"
 4958      65787400 
 4959              	.LASF18:
 4960 078e 7274636E 		.ascii	"rtcnt_t\000"
 4960      745F7400 
 4961              	.LASF152:
 4962 0796 6368436F 		.ascii	"chCondWait\000"
 4962      6E645761 
 4962      697400
 4963              	.LASF70:
 4964 07a1 76745F70 		.ascii	"vt_par\000"
 4964      617200
 4965              	.LASF53:
 4966 07a8 74687265 		.ascii	"threads_queue_t\000"
 4966      6164735F 
 4966      71756575 
 4966      655F7400 
 4967              	.LASF123:
 4968 07b8 63685F6D 		.ascii	"ch_mutex\000"
 4968      75746578 
 4968      00
 4969              	.LASF40:
 4970 07c1 705F7265 		.ascii	"p_refs\000"
 4970      667300
 4971              	.LASF77:
 4972 07c8 6973725F 		.ascii	"isr_cnt\000"
 4972      636E7400 
 4973              	.LASF29:
 4974 07d0 74687265 		.ascii	"thread_t\000"
 4974      61645F74 
 4974      00
 4975              	.LASF82:
 4976 07d9 726C6973 		.ascii	"rlist\000"
 4976      7400
 4977              	.LASF142:
 4978 07df 63685468 		.ascii	"chThdGetSelfX\000"
 4978      64476574 
 4978      53656C66 
ARM GAS  /tmp/ccwXba36.s 			page 95


 4978      5800
 4979              	.LASF14:
 4980 07ed 75696E74 		.ascii	"uint8_t\000"
 4980      385F7400 
 4981              	.LASF160:
 4982 07f5 5F646267 		.ascii	"_dbg_check_unlock\000"
 4982      5F636865 
 4982      636B5F75 
 4982      6E6C6F63 
 4982      6B00
 4983              	.LASF115:
 4984 0807 77746F62 		.ascii	"wtobjp\000"
 4984      6A7000
 4985              	.LASF36:
 4986 080e 705F6E61 		.ascii	"p_name\000"
 4986      6D6500
 4987              	.LASF155:
 4988 0815 6368436F 		.ascii	"chCondWaitTimeout\000"
 4988      6E645761 
 4988      69745469 
 4988      6D656F75 
 4988      7400
 4989              	.LASF50:
 4990 0827 74687265 		.ascii	"threads_list_t\000"
 4990      6164735F 
 4990      6C697374 
 4990      5F7400
 4991              	.LASF79:
 4992 0836 74726163 		.ascii	"trace_buffer\000"
 4992      655F6275 
 4992      66666572 
 4992      00
 4993              	.LASF145:
 4994 0843 63685379 		.ascii	"chSysUnlock\000"
 4994      73556E6C 
 4994      6F636B00 
 4995              	.LASF43:
 4996 084f 705F6D73 		.ascii	"p_msg\000"
 4996      6700
 4997              	.LASF141:
 4998 0855 71756575 		.ascii	"queue_prio_insert\000"
 4998      655F7072 
 4998      696F5F69 
 4998      6E736572 
 4998      7400
 4999              	.LASF110:
 5000 0867 6D5F6372 		.ascii	"m_crit_thd\000"
 5000      69745F74 
 5000      686400
 5001              	.LASF125:
 5002 0872 6D5F6F77 		.ascii	"m_owner\000"
 5002      6E657200 
 5003              	.LASF94:
 5004 087a 73655F77 		.ascii	"se_wtobjp\000"
 5004      746F626A 
 5004      7000
 5005              	.LASF33:
ARM GAS  /tmp/ccwXba36.s 			page 96


 5006 0884 705F6374 		.ascii	"p_ctx\000"
 5006      7800
 5007              	.LASF69:
 5008 088a 76745F66 		.ascii	"vt_func\000"
 5008      756E6300 
 5009              		.ident	"GCC: (GNU Tools for ARM Embedded Processors) 5.3.1 20160307 (release) [ARM/embedded-5-bran
ARM GAS  /tmp/ccwXba36.s 			page 97


DEFINED SYMBOLS
                            *ABS*:0000000000000000 chcond.c
     /tmp/ccwXba36.s:20     .text.chCondObjectInit:0000000000000000 $t
     /tmp/ccwXba36.s:26     .text.chCondObjectInit:0000000000000000 chCondObjectInit
     /tmp/ccwXba36.s:71     .text.chCondObjectInit:0000000000000018 $d
     /tmp/ccwXba36.s:78     .text.chCondSignal:0000000000000000 $t
     /tmp/ccwXba36.s:84     .text.chCondSignal:0000000000000000 chCondSignal
     /tmp/ccwXba36.s:209    .text.chCondSignal:0000000000000058 $d
     /tmp/ccwXba36.s:216    .text.chCondSignalI:0000000000000000 $t
     /tmp/ccwXba36.s:222    .text.chCondSignalI:0000000000000000 chCondSignalI
     /tmp/ccwXba36.s:300    .text.chCondSignalI:0000000000000030 $d
     /tmp/ccwXba36.s:305    .text.chCondBroadcastI:0000000000000000 $t
     /tmp/ccwXba36.s:311    .text.chCondBroadcastI:0000000000000000 chCondBroadcastI
     /tmp/ccwXba36.s:384    .text.chCondBroadcastI:0000000000000030 $d
     /tmp/ccwXba36.s:389    .text.chCondBroadcast:0000000000000000 $t
     /tmp/ccwXba36.s:395    .text.chCondBroadcast:0000000000000000 chCondBroadcast
     /tmp/ccwXba36.s:490    .text.chCondBroadcast:0000000000000044 $d
     /tmp/ccwXba36.s:501    .text.chCondWaitS:0000000000000000 $t
     /tmp/ccwXba36.s:507    .text.chCondWaitS:0000000000000000 chCondWaitS
     /tmp/ccwXba36.s:620    .text.chCondWaitS:000000000000005c $d
     /tmp/ccwXba36.s:626    .text.chCondWait:0000000000000000 $t
     /tmp/ccwXba36.s:632    .text.chCondWait:0000000000000000 chCondWait
     /tmp/ccwXba36.s:733    .text.chCondWait:0000000000000044 $d
     /tmp/ccwXba36.s:739    .text.chCondWaitTimeoutS:0000000000000000 $t
     /tmp/ccwXba36.s:745    .text.chCondWaitTimeoutS:0000000000000000 chCondWaitTimeoutS
     /tmp/ccwXba36.s:872    .text.chCondWaitTimeoutS:0000000000000068 $d
     /tmp/ccwXba36.s:878    .text.chCondWaitTimeout:0000000000000000 $t
     /tmp/ccwXba36.s:884    .text.chCondWaitTimeout:0000000000000000 chCondWaitTimeout
     /tmp/ccwXba36.s:978    .text.chCondWaitTimeout:0000000000000048 $d
     /tmp/ccwXba36.s:984    .rodata.__func__.6661:0000000000000000 $d
     /tmp/ccwXba36.s:988    .rodata.__func__.6661:0000000000000000 __func__.6661
     /tmp/ccwXba36.s:991    .rodata.__func__.6657:0000000000000000 $d
     /tmp/ccwXba36.s:995    .rodata.__func__.6657:0000000000000000 __func__.6657
     /tmp/ccwXba36.s:998    .rodata.__func__.6665:0000000000000000 $d
     /tmp/ccwXba36.s:1002   .rodata.__func__.6665:0000000000000000 __func__.6665
     /tmp/ccwXba36.s:1005   .rodata.__func__.6673:0000000000000000 $d
     /tmp/ccwXba36.s:1009   .rodata.__func__.6673:0000000000000000 __func__.6673
     /tmp/ccwXba36.s:1012   .rodata.__func__.6687:0000000000000000 $d
     /tmp/ccwXba36.s:1016   .rodata.__func__.6687:0000000000000000 __func__.6687
     /tmp/ccwXba36.s:1019   .rodata.__func__.5969:0000000000000000 $d
     /tmp/ccwXba36.s:1023   .rodata.__func__.5969:0000000000000000 __func__.5969
     /tmp/ccwXba36.s:1026   .rodata.__func__.6699:0000000000000000 $d
     /tmp/ccwXba36.s:1030   .rodata.__func__.6699:0000000000000000 __func__.6699
                     .debug_frame:0000000000000010 $d

UNDEFINED SYMBOLS
chSysHalt
_stats_start_measure_crit_thd
_dbg_check_lock
chSchWakeupS
_dbg_check_unlock
_stats_stop_measure_crit_thd
ch
chDbgCheckClassI
chSchReadyI
chSchRescheduleS
chDbgCheckClassS
ARM GAS  /tmp/ccwXba36.s 			page 98


chMtxUnlockS
chSchGoSleepS
chMtxLockS
chSchGoSleepTimeoutS
