ARM GAS  /tmp/ccwXba36.s 			page 1


   1              		.syntax unified
   2              		.cpu cortex-m4
   3              		.fpu softvfp
   4              		.eabi_attribute 20, 1
   5              		.eabi_attribute 21, 1
   6              		.eabi_attribute 23, 3
   7              		.eabi_attribute 24, 1
   8              		.eabi_attribute 25, 1
   9              		.eabi_attribute 26, 1
  10              		.eabi_attribute 30, 2
  11              		.eabi_attribute 34, 1
  12              		.eabi_attribute 18, 4
  13              		.thumb
  14              		.syntax unified
  15              		.file	"chcond.c"
  16              		.text
  17              	.Ltext0:
  18              		.cfi_sections	.debug_frame
  19              		.section	.text.chCondObjectInit,"ax",%progbits
  20              		.align	2
  21              		.p2align 4,,15
  22              		.global	chCondObjectInit
  23              		.thumb
  24              		.thumb_func
  25              		.type	chCondObjectInit, %function
  26              	chCondObjectInit:
  27              	.LFB227:
  28              		.file 1 "/home/selim/working/ChibiOS/os/rt/src/chcond.c"
  29              		.loc 1 75 0
  30              		.cfi_startproc
  31              		@ args = 0, pretend = 0, frame = 0
  32              		@ frame_needed = 0, uses_anonymous_args = 0
  33              	.LVL0:
  34 0000 10B5     		push	{r4, lr}
  35              		.cfi_def_cfa_offset 8
  36              		.cfi_offset 4, -8
  37              		.cfi_offset 14, -4
  38              		.loc 1 77 0
  39 0002 0446     		mov	r4, r0
  40 0004 10B1     		cbz	r0, .L5
  41              	.LVL1:
  42              	.LBB63:
  43              	.LBB64:
  44              		.file 2 "/home/selim/working/ChibiOS/os/rt/include/chschd.h"
  45              		.loc 2 604 0
  46 0006 2460     		str	r4, [r4]
  47              		.loc 2 605 0
  48 0008 6460     		str	r4, [r4, #4]
  49              	.LVL2:
  50 000a 10BD     		pop	{r4, pc}
  51              	.L5:
  52              	.LBE64:
  53              	.LBE63:
  54              		.loc 1 77 0 discriminator 2
  55 000c 0248     		ldr	r0, .L6
  56              	.LVL3:
  57 000e FFF7FEFF 		bl	chSysHalt
ARM GAS  /tmp/ccwXba36.s 			page 2


  58              	.LVL4:
  59              	.LBB66:
  60              	.LBB65:
  61              		.loc 2 604 0 discriminator 2
  62 0012 2460     		str	r4, [r4]
  63              		.loc 2 605 0 discriminator 2
  64 0014 6460     		str	r4, [r4, #4]
  65              	.LVL5:
  66 0016 10BD     		pop	{r4, pc}
  67              	.LVL6:
  68              	.L7:
  69              		.align	2
  70              	.L6:
  71 0018 00000000 		.word	.LANCHOR0
  72              	.LBE65:
  73              	.LBE66:
  74              		.cfi_endproc
  75              	.LFE227:
  76              		.size	chCondObjectInit, .-chCondObjectInit
  77              		.section	.text.chCondSignal,"ax",%progbits
  78              		.align	2
  79              		.p2align 4,,15
  80              		.global	chCondSignal
  81              		.thumb
  82              		.thumb_func
  83              		.type	chCondSignal, %function
  84              	chCondSignal:
  85              	.LFB228:
  86              		.loc 1 89 0
  87              		.cfi_startproc
  88              		@ args = 0, pretend = 0, frame = 0
  89              		@ frame_needed = 0, uses_anonymous_args = 0
  90              	.LVL7:
  91 0000 10B5     		push	{r4, lr}
  92              		.cfi_def_cfa_offset 8
  93              		.cfi_offset 4, -8
  94              		.cfi_offset 14, -4
  95              		.loc 1 91 0
  96 0002 0446     		mov	r4, r0
  97 0004 18B3     		cbz	r0, .L13
  98              	.LVL8:
  99              	.L9:
 100              	.LBB81:
 101              	.LBB82:
 102              	.LBB83:
 103              	.LBB84:
 104              	.LBB85:
 105              		.file 3 "/home/selim/working/ChibiOS/os/ext/CMSIS/include/core_cmFunc.h"
 106              		.loc 3 546 0
 107 0006 2023     		movs	r3, #32
 108              		.syntax unified
 109              	@ 546 "/home/selim/working/ChibiOS/os/ext/CMSIS/include/core_cmFunc.h" 1
 110 0008 83F31188 		MSR basepri, r3
 111              	@ 0 "" 2
 112              	.LVL9:
 113              		.thumb
 114              		.syntax unified
ARM GAS  /tmp/ccwXba36.s 			page 3


 115              	.LBE85:
 116              	.LBE84:
 117              	.LBE83:
 118              		.file 4 "/home/selim/working/ChibiOS/os/rt/include/chsys.h"
 119              		.loc 4 349 0
 120 000c FFF7FEFF 		bl	_stats_start_measure_crit_thd
 121              	.LVL10:
 122              		.loc 4 350 0
 123 0010 FFF7FEFF 		bl	_dbg_check_lock
 124              	.LVL11:
 125              	.LBE82:
 126              	.LBE81:
 127              	.LBB86:
 128              	.LBB87:
 129              		.loc 2 631 0
 130 0014 2068     		ldr	r0, [r4]
 131              	.LVL12:
 132              	.LBE87:
 133              	.LBE86:
 134              		.loc 1 94 0
 135 0016 8442     		cmp	r4, r0
 136 0018 05D0     		beq	.L10
 137              	.LVL13:
 138              	.LBB88:
 139              	.LBB89:
 140              		.loc 2 674 0
 141 001a 0368     		ldr	r3, [r0]
 142 001c 2360     		str	r3, [r4]
 143              	.LBE89:
 144              	.LBE88:
 145              		.loc 1 95 0
 146 001e 0021     		movs	r1, #0
 147              	.LBB91:
 148              	.LBB90:
 149              		.loc 2 675 0
 150 0020 5C60     		str	r4, [r3, #4]
 151              	.LVL14:
 152              	.LBE90:
 153              	.LBE91:
 154              		.loc 1 95 0
 155 0022 FFF7FEFF 		bl	chSchWakeupS
 156              	.LVL15:
 157              	.L10:
 158              	.LBB92:
 159              	.LBB93:
 160              		.loc 4 360 0
 161 0026 FFF7FEFF 		bl	_dbg_check_unlock
 162              	.LVL16:
 163              		.loc 4 361 0
 164 002a FFF7FEFF 		bl	_stats_stop_measure_crit_thd
 165              	.LVL17:
 166              		.loc 4 367 0
 167 002e 0A4B     		ldr	r3, .L14
 168 0030 1A68     		ldr	r2, [r3]
 169 0032 9A42     		cmp	r2, r3
 170 0034 07D0     		beq	.L11
 171 0036 9969     		ldr	r1, [r3, #24]
ARM GAS  /tmp/ccwXba36.s 			page 4


 172 0038 9368     		ldr	r3, [r2, #8]
 173 003a 8A68     		ldr	r2, [r1, #8]
 174 003c 9A42     		cmp	r2, r3
 175 003e 02D2     		bcs	.L11
 176 0040 0648     		ldr	r0, .L14+4
 177 0042 FFF7FEFF 		bl	chSysHalt
 178              	.LVL18:
 179              	.L11:
 180              	.LBB94:
 181              	.LBB95:
 182              	.LBB96:
 183              		.loc 3 546 0
 184 0046 0023     		movs	r3, #0
 185              		.syntax unified
 186              	@ 546 "/home/selim/working/ChibiOS/os/ext/CMSIS/include/core_cmFunc.h" 1
 187 0048 83F31188 		MSR basepri, r3
 188              	@ 0 "" 2
 189              	.LVL19:
 190              		.thumb
 191              		.syntax unified
 192 004c 10BD     		pop	{r4, pc}
 193              	.LVL20:
 194              	.L13:
 195              	.LBE96:
 196              	.LBE95:
 197              	.LBE94:
 198              	.LBE93:
 199              	.LBE92:
 200              		.loc 1 91 0 discriminator 2
 201 004e 0448     		ldr	r0, .L14+8
 202              	.LVL21:
 203 0050 FFF7FEFF 		bl	chSysHalt
 204              	.LVL22:
 205 0054 D7E7     		b	.L9
 206              	.L15:
 207 0056 00BF     		.align	2
 208              	.L14:
 209 0058 00000000 		.word	ch
 210 005c 00000000 		.word	.LANCHOR2
 211 0060 00000000 		.word	.LANCHOR1
 212              		.cfi_endproc
 213              	.LFE228:
 214              		.size	chCondSignal, .-chCondSignal
 215              		.section	.text.chCondSignalI,"ax",%progbits
 216              		.align	2
 217              		.p2align 4,,15
 218              		.global	chCondSignalI
 219              		.thumb
 220              		.thumb_func
 221              		.type	chCondSignalI, %function
 222              	chCondSignalI:
 223              	.LFB229:
 224              		.loc 1 111 0
 225              		.cfi_startproc
 226              		@ args = 0, pretend = 0, frame = 0
 227              		@ frame_needed = 0, uses_anonymous_args = 0
 228              	.LVL23:
ARM GAS  /tmp/ccwXba36.s 			page 5


 229 0000 10B5     		push	{r4, lr}
 230              		.cfi_def_cfa_offset 8
 231              		.cfi_offset 4, -8
 232              		.cfi_offset 14, -4
 233              		.loc 1 111 0
 234 0002 0446     		mov	r4, r0
 235              		.loc 1 113 0
 236 0004 FFF7FEFF 		bl	chDbgCheckClassI
 237              	.LVL24:
 238              		.loc 1 114 0
 239 0008 6CB1     		cbz	r4, .L20
 240              	.L17:
 241              	.LVL25:
 242              	.LBB97:
 243              	.LBB98:
 244              		.loc 2 631 0
 245 000a 2368     		ldr	r3, [r4]
 246              	.LVL26:
 247              	.LBE98:
 248              	.LBE97:
 249              		.loc 1 116 0
 250 000c 9C42     		cmp	r4, r3
 251 000e 09D0     		beq	.L16
 252              	.LVL27:
 253              	.LBB99:
 254              	.LBB100:
 255              	.LBB101:
 256              		.loc 2 674 0
 257 0010 1A68     		ldr	r2, [r3]
 258 0012 2260     		str	r2, [r4]
 259              	.LBE101:
 260              	.LBE100:
 261              		.loc 1 118 0
 262 0014 0021     		movs	r1, #0
 263              	.LBB103:
 264              	.LBB102:
 265              		.loc 2 675 0
 266 0016 5460     		str	r4, [r2, #4]
 267              	.LVL28:
 268              	.LBE102:
 269              	.LBE103:
 270              		.loc 1 118 0
 271 0018 5962     		str	r1, [r3, #36]
 272              		.loc 1 119 0
 273 001a 1846     		mov	r0, r3
 274              	.LBE99:
 275              		.loc 1 121 0
 276 001c BDE81040 		pop	{r4, lr}
 277              		.cfi_remember_state
 278              		.cfi_restore 14
 279              		.cfi_restore 4
 280              		.cfi_def_cfa_offset 0
 281              	.LVL29:
 282              	.LBB104:
 283              		.loc 1 119 0
 284 0020 FFF7FEBF 		b	chSchReadyI
 285              	.LVL30:
ARM GAS  /tmp/ccwXba36.s 			page 6


 286              	.L16:
 287              		.cfi_restore_state
 288 0024 10BD     		pop	{r4, pc}
 289              	.LVL31:
 290              	.L20:
 291              	.LBE104:
 292              		.loc 1 114 0 discriminator 2
 293 0026 0248     		ldr	r0, .L21
 294 0028 FFF7FEFF 		bl	chSysHalt
 295              	.LVL32:
 296 002c EDE7     		b	.L17
 297              	.L22:
 298 002e 00BF     		.align	2
 299              	.L21:
 300 0030 00000000 		.word	.LANCHOR3
 301              		.cfi_endproc
 302              	.LFE229:
 303              		.size	chCondSignalI, .-chCondSignalI
 304              		.section	.text.chCondBroadcastI,"ax",%progbits
 305              		.align	2
 306              		.p2align 4,,15
 307              		.global	chCondBroadcastI
 308              		.thumb
 309              		.thumb_func
 310              		.type	chCondBroadcastI, %function
 311              	chCondBroadcastI:
 312              	.LFB231:
 313              		.loc 1 149 0
 314              		.cfi_startproc
 315              		@ args = 0, pretend = 0, frame = 0
 316              		@ frame_needed = 0, uses_anonymous_args = 0
 317              	.LVL33:
 318 0000 38B5     		push	{r3, r4, r5, lr}
 319              		.cfi_def_cfa_offset 16
 320              		.cfi_offset 3, -16
 321              		.cfi_offset 4, -12
 322              		.cfi_offset 5, -8
 323              		.cfi_offset 14, -4
 324              		.loc 1 149 0
 325 0002 0446     		mov	r4, r0
 326              		.loc 1 151 0
 327 0004 FFF7FEFF 		bl	chDbgCheckClassI
 328              	.LVL34:
 329              		.loc 1 152 0
 330 0008 74B1     		cbz	r4, .L30
 331              	.L24:
 332              	.LVL35:
 333              	.LBB105:
 334              	.LBB106:
 335              		.loc 2 631 0
 336 000a 2068     		ldr	r0, [r4]
 337              	.LVL36:
 338              	.LBE106:
 339              	.LBE105:
 340              		.loc 1 157 0
 341 000c 8442     		cmp	r4, r0
 342 000e 0AD0     		beq	.L23
ARM GAS  /tmp/ccwXba36.s 			page 7


 343              		.loc 1 158 0
 344 0010 6FF00105 		mvn	r5, #1
 345              	.L26:
 346              	.LVL37:
 347              	.LBB108:
 348              	.LBB109:
 349              		.loc 2 674 0
 350 0014 0368     		ldr	r3, [r0]
 351 0016 2360     		str	r3, [r4]
 352              		.loc 2 675 0
 353 0018 5C60     		str	r4, [r3, #4]
 354              	.LVL38:
 355              	.LBE109:
 356              	.LBE108:
 357              		.loc 1 158 0
 358 001a FFF7FEFF 		bl	chSchReadyI
 359              	.LVL39:
 360 001e 4562     		str	r5, [r0, #36]
 361              	.LVL40:
 362              	.LBB110:
 363              	.LBB107:
 364              		.loc 2 631 0
 365 0020 2068     		ldr	r0, [r4]
 366              	.LVL41:
 367              	.LBE107:
 368              	.LBE110:
 369              		.loc 1 157 0
 370 0022 A042     		cmp	r0, r4
 371 0024 F6D1     		bne	.L26
 372              	.L23:
 373 0026 38BD     		pop	{r3, r4, r5, pc}
 374              	.LVL42:
 375              	.L30:
 376              		.loc 1 152 0 discriminator 2
 377 0028 0148     		ldr	r0, .L31
 378 002a FFF7FEFF 		bl	chSysHalt
 379              	.LVL43:
 380 002e ECE7     		b	.L24
 381              	.L32:
 382              		.align	2
 383              	.L31:
 384 0030 00000000 		.word	.LANCHOR4
 385              		.cfi_endproc
 386              	.LFE231:
 387              		.size	chCondBroadcastI, .-chCondBroadcastI
 388              		.section	.text.chCondBroadcast,"ax",%progbits
 389              		.align	2
 390              		.p2align 4,,15
 391              		.global	chCondBroadcast
 392              		.thumb
 393              		.thumb_func
 394              		.type	chCondBroadcast, %function
 395              	chCondBroadcast:
 396              	.LFB230:
 397              		.loc 1 130 0
 398              		.cfi_startproc
 399              		@ args = 0, pretend = 0, frame = 0
ARM GAS  /tmp/ccwXba36.s 			page 8


 400              		@ frame_needed = 0, uses_anonymous_args = 0
 401              	.LVL44:
 402 0000 10B5     		push	{r4, lr}
 403              		.cfi_def_cfa_offset 8
 404              		.cfi_offset 4, -8
 405              		.cfi_offset 14, -4
 406              	.LBB121:
 407              	.LBB122:
 408              	.LBB123:
 409              	.LBB124:
 410              	.LBB125:
 411              		.loc 3 546 0
 412 0002 2023     		movs	r3, #32
 413              	.LBE125:
 414              	.LBE124:
 415              	.LBE123:
 416              	.LBE122:
 417              	.LBE121:
 418              		.loc 1 130 0
 419 0004 0446     		mov	r4, r0
 420              	.LBB130:
 421              	.LBB129:
 422              	.LBB128:
 423              	.LBB127:
 424              	.LBB126:
 425              		.loc 3 546 0
 426              		.syntax unified
 427              	@ 546 "/home/selim/working/ChibiOS/os/ext/CMSIS/include/core_cmFunc.h" 1
 428 0006 83F31188 		MSR basepri, r3
 429              	@ 0 "" 2
 430              	.LVL45:
 431              		.thumb
 432              		.syntax unified
 433              	.LBE126:
 434              	.LBE127:
 435              	.LBE128:
 436              		.loc 4 349 0
 437 000a FFF7FEFF 		bl	_stats_start_measure_crit_thd
 438              	.LVL46:
 439              		.loc 4 350 0
 440 000e FFF7FEFF 		bl	_dbg_check_lock
 441              	.LVL47:
 442              	.LBE129:
 443              	.LBE130:
 444              		.loc 1 133 0
 445 0012 2046     		mov	r0, r4
 446 0014 FFF7FEFF 		bl	chCondBroadcastI
 447              	.LVL48:
 448              		.loc 1 134 0
 449 0018 FFF7FEFF 		bl	chSchRescheduleS
 450              	.LVL49:
 451              	.LBB131:
 452              	.LBB132:
 453              		.loc 4 360 0
 454 001c FFF7FEFF 		bl	_dbg_check_unlock
 455              	.LVL50:
 456              		.loc 4 361 0
ARM GAS  /tmp/ccwXba36.s 			page 9


 457 0020 FFF7FEFF 		bl	_stats_stop_measure_crit_thd
 458              	.LVL51:
 459              		.loc 4 367 0
 460 0024 074B     		ldr	r3, .L36
 461 0026 1A68     		ldr	r2, [r3]
 462 0028 9A42     		cmp	r2, r3
 463 002a 07D0     		beq	.L34
 464 002c 9969     		ldr	r1, [r3, #24]
 465 002e 9368     		ldr	r3, [r2, #8]
 466 0030 8A68     		ldr	r2, [r1, #8]
 467 0032 9A42     		cmp	r2, r3
 468 0034 02D2     		bcs	.L34
 469 0036 0448     		ldr	r0, .L36+4
 470 0038 FFF7FEFF 		bl	chSysHalt
 471              	.LVL52:
 472              	.L34:
 473              	.LBB133:
 474              	.LBB134:
 475              	.LBB135:
 476              		.loc 3 546 0
 477 003c 0023     		movs	r3, #0
 478              		.syntax unified
 479              	@ 546 "/home/selim/working/ChibiOS/os/ext/CMSIS/include/core_cmFunc.h" 1
 480 003e 83F31188 		MSR basepri, r3
 481              	@ 0 "" 2
 482              	.LVL53:
 483              		.thumb
 484              		.syntax unified
 485 0042 10BD     		pop	{r4, pc}
 486              	.LVL54:
 487              	.L37:
 488              		.align	2
 489              	.L36:
 490 0044 00000000 		.word	ch
 491 0048 00000000 		.word	.LANCHOR2
 492              	.LBE135:
 493              	.LBE134:
 494              	.LBE133:
 495              	.LBE132:
 496              	.LBE131:
 497              		.cfi_endproc
 498              	.LFE230:
 499              		.size	chCondBroadcast, .-chCondBroadcast
 500              		.section	.text.chCondWaitS,"ax",%progbits
 501              		.align	2
 502              		.p2align 4,,15
 503              		.global	chCondWaitS
 504              		.thumb
 505              		.thumb_func
 506              		.type	chCondWaitS, %function
 507              	chCondWaitS:
 508              	.LFB233:
 509              		.loc 1 205 0
 510              		.cfi_startproc
 511              		@ args = 0, pretend = 0, frame = 0
 512              		@ frame_needed = 0, uses_anonymous_args = 0
 513              	.LVL55:
ARM GAS  /tmp/ccwXba36.s 			page 10


 514 0000 70B5     		push	{r4, r5, r6, lr}
 515              		.cfi_def_cfa_offset 16
 516              		.cfi_offset 4, -16
 517              		.cfi_offset 5, -12
 518              		.cfi_offset 6, -8
 519              		.cfi_offset 14, -4
 520              		.loc 1 206 0
 521 0002 164E     		ldr	r6, .L50
 522              		.loc 1 205 0
 523 0004 0546     		mov	r5, r0
 524              		.loc 1 206 0
 525 0006 B469     		ldr	r4, [r6, #24]
 526              	.LVL56:
 527              		.loc 1 210 0
 528 0008 FFF7FEFF 		bl	chDbgCheckClassS
 529              	.LVL57:
 530              		.loc 1 211 0
 531 000c F5B1     		cbz	r5, .L47
 532              	.L39:
 533              		.loc 1 212 0 discriminator 1
 534 000e E36B     		ldr	r3, [r4, #60]
 535 0010 03B3     		cbz	r3, .L48
 536              	.L40:
 537              	.LBB136:
 538              	.LBB137:
 539              		.file 5 "/home/selim/working/ChibiOS/os/rt/include/chmtx.h"
 540              		.loc 5 146 0
 541 0012 B369     		ldr	r3, [r6, #24]
 542 0014 DE6B     		ldr	r6, [r3, #60]
 543              	.LBE137:
 544              	.LBE136:
 545              		.loc 1 216 0
 546 0016 3046     		mov	r0, r6
 547 0018 FFF7FEFF 		bl	chMtxUnlockS
 548              	.LVL58:
 549              		.loc 1 220 0
 550 001c 6562     		str	r5, [r4, #36]
 551              	.LVL59:
 552              	.LBB138:
 553              	.LBB139:
 554              		.loc 2 653 0
 555 001e 2B46     		mov	r3, r5
 556 0020 03E0     		b	.L42
 557              	.LVL60:
 558              	.L49:
 559              		.loc 2 656 0
 560 0022 9968     		ldr	r1, [r3, #8]
 561 0024 A268     		ldr	r2, [r4, #8]
 562 0026 9142     		cmp	r1, r2
 563 0028 02D3     		bcc	.L43
 564              	.LVL61:
 565              	.L42:
 566              		.loc 2 655 0
 567 002a 1B68     		ldr	r3, [r3]
 568              	.LVL62:
 569              		.loc 2 656 0
 570 002c 9D42     		cmp	r5, r3
ARM GAS  /tmp/ccwXba36.s 			page 11


 571 002e F8D1     		bne	.L49
 572              	.L43:
 573              		.loc 2 658 0
 574 0030 5A68     		ldr	r2, [r3, #4]
 575 0032 6260     		str	r2, [r4, #4]
 576              		.loc 2 657 0
 577 0034 2360     		str	r3, [r4]
 578              	.LBE139:
 579              	.LBE138:
 580              		.loc 1 222 0
 581 0036 0720     		movs	r0, #7
 582              	.LBB141:
 583              	.LBB140:
 584              		.loc 2 659 0
 585 0038 1460     		str	r4, [r2]
 586              		.loc 2 660 0
 587 003a 5C60     		str	r4, [r3, #4]
 588              	.LVL63:
 589              	.LBE140:
 590              	.LBE141:
 591              		.loc 1 222 0
 592 003c FFF7FEFF 		bl	chSchGoSleepS
 593              	.LVL64:
 594              		.loc 1 223 0
 595 0040 646A     		ldr	r4, [r4, #36]
 596              	.LVL65:
 597              		.loc 1 224 0
 598 0042 3046     		mov	r0, r6
 599 0044 FFF7FEFF 		bl	chMtxLockS
 600              	.LVL66:
 601              		.loc 1 227 0
 602 0048 2046     		mov	r0, r4
 603 004a 70BD     		pop	{r4, r5, r6, pc}
 604              	.LVL67:
 605              	.L47:
 606              		.loc 1 211 0 discriminator 2
 607 004c 0448     		ldr	r0, .L50+4
 608 004e FFF7FEFF 		bl	chSysHalt
 609              	.LVL68:
 610 0052 DCE7     		b	.L39
 611              	.L48:
 612              		.loc 1 212 0 discriminator 2
 613 0054 0248     		ldr	r0, .L50+4
 614 0056 FFF7FEFF 		bl	chSysHalt
 615              	.LVL69:
 616 005a DAE7     		b	.L40
 617              	.L51:
 618              		.align	2
 619              	.L50:
 620 005c 00000000 		.word	ch
 621 0060 00000000 		.word	.LANCHOR5
 622              		.cfi_endproc
 623              	.LFE233:
 624              		.size	chCondWaitS, .-chCondWaitS
 625              		.section	.text.chCondWait,"ax",%progbits
 626              		.align	2
 627              		.p2align 4,,15
ARM GAS  /tmp/ccwXba36.s 			page 12


 628              		.global	chCondWait
 629              		.thumb
 630              		.thumb_func
 631              		.type	chCondWait, %function
 632              	chCondWait:
 633              	.LFB232:
 634              		.loc 1 179 0
 635              		.cfi_startproc
 636              		@ args = 0, pretend = 0, frame = 0
 637              		@ frame_needed = 0, uses_anonymous_args = 0
 638              	.LVL70:
 639 0000 10B5     		push	{r4, lr}
 640              		.cfi_def_cfa_offset 8
 641              		.cfi_offset 4, -8
 642              		.cfi_offset 14, -4
 643              	.LBB152:
 644              	.LBB153:
 645              	.LBB154:
 646              	.LBB155:
 647              	.LBB156:
 648              		.loc 3 546 0
 649 0002 2023     		movs	r3, #32
 650              	.LBE156:
 651              	.LBE155:
 652              	.LBE154:
 653              	.LBE153:
 654              	.LBE152:
 655              		.loc 1 179 0
 656 0004 0446     		mov	r4, r0
 657              	.LBB161:
 658              	.LBB160:
 659              	.LBB159:
 660              	.LBB158:
 661              	.LBB157:
 662              		.loc 3 546 0
 663              		.syntax unified
 664              	@ 546 "/home/selim/working/ChibiOS/os/ext/CMSIS/include/core_cmFunc.h" 1
 665 0006 83F31188 		MSR basepri, r3
 666              	@ 0 "" 2
 667              	.LVL71:
 668              		.thumb
 669              		.syntax unified
 670              	.LBE157:
 671              	.LBE158:
 672              	.LBE159:
 673              		.loc 4 349 0
 674 000a FFF7FEFF 		bl	_stats_start_measure_crit_thd
 675              	.LVL72:
 676              		.loc 4 350 0
 677 000e FFF7FEFF 		bl	_dbg_check_lock
 678              	.LVL73:
 679              	.LBE160:
 680              	.LBE161:
 681              		.loc 1 183 0
 682 0012 2046     		mov	r0, r4
 683 0014 FFF7FEFF 		bl	chCondWaitS
 684              	.LVL74:
ARM GAS  /tmp/ccwXba36.s 			page 13


 685 0018 0446     		mov	r4, r0
 686              	.LVL75:
 687              	.LBB162:
 688              	.LBB163:
 689              		.loc 4 360 0
 690 001a FFF7FEFF 		bl	_dbg_check_unlock
 691              	.LVL76:
 692              		.loc 4 361 0
 693 001e FFF7FEFF 		bl	_stats_stop_measure_crit_thd
 694              	.LVL77:
 695              		.loc 4 367 0
 696 0022 084B     		ldr	r3, .L55
 697 0024 1A68     		ldr	r2, [r3]
 698 0026 9A42     		cmp	r2, r3
 699 0028 07D0     		beq	.L53
 700 002a 9969     		ldr	r1, [r3, #24]
 701 002c 9368     		ldr	r3, [r2, #8]
 702 002e 8A68     		ldr	r2, [r1, #8]
 703 0030 9A42     		cmp	r2, r3
 704 0032 02D2     		bcs	.L53
 705 0034 0448     		ldr	r0, .L55+4
 706 0036 FFF7FEFF 		bl	chSysHalt
 707              	.LVL78:
 708              	.L53:
 709              	.LBB164:
 710              	.LBB165:
 711              	.LBB166:
 712              		.loc 3 546 0
 713 003a 0023     		movs	r3, #0
 714              		.syntax unified
 715              	@ 546 "/home/selim/working/ChibiOS/os/ext/CMSIS/include/core_cmFunc.h" 1
 716 003c 83F31188 		MSR basepri, r3
 717              	@ 0 "" 2
 718              	.LVL79:
 719              		.thumb
 720              		.syntax unified
 721              	.LBE166:
 722              	.LBE165:
 723              	.LBE164:
 724              	.LBE163:
 725              	.LBE162:
 726              		.loc 1 186 0
 727 0040 2046     		mov	r0, r4
 728 0042 10BD     		pop	{r4, pc}
 729              	.LVL80:
 730              	.L56:
 731              		.align	2
 732              	.L55:
 733 0044 00000000 		.word	ch
 734 0048 00000000 		.word	.LANCHOR2
 735              		.cfi_endproc
 736              	.LFE232:
 737              		.size	chCondWait, .-chCondWait
 738              		.section	.text.chCondWaitTimeoutS,"ax",%progbits
 739              		.align	2
 740              		.p2align 4,,15
 741              		.global	chCondWaitTimeoutS
ARM GAS  /tmp/ccwXba36.s 			page 14


 742              		.thumb
 743              		.thumb_func
 744              		.type	chCondWaitTimeoutS, %function
 745              	chCondWaitTimeoutS:
 746              	.LFB235:
 747              		.loc 1 296 0
 748              		.cfi_startproc
 749              		@ args = 0, pretend = 0, frame = 0
 750              		@ frame_needed = 0, uses_anonymous_args = 0
 751              	.LVL81:
 752 0000 F8B5     		push	{r3, r4, r5, r6, r7, lr}
 753              		.cfi_def_cfa_offset 24
 754              		.cfi_offset 3, -24
 755              		.cfi_offset 4, -20
 756              		.cfi_offset 5, -16
 757              		.cfi_offset 6, -12
 758              		.cfi_offset 7, -8
 759              		.cfi_offset 14, -4
 760              		.loc 1 296 0
 761 0002 0546     		mov	r5, r0
 762 0004 0F46     		mov	r7, r1
 763              		.loc 1 300 0
 764 0006 FFF7FEFF 		bl	chDbgCheckClassS
 765              	.LVL82:
 766              		.loc 1 301 0
 767 000a 1DB3     		cbz	r5, .L58
 768              		.loc 1 301 0 is_stmt 0 discriminator 3
 769 000c 17B3     		cbz	r7, .L58
 770              	.L59:
 771              		.loc 1 302 0 is_stmt 1 discriminator 1
 772 000e 164C     		ldr	r4, .L74
 773 0010 A369     		ldr	r3, [r4, #24]
 774 0012 DE6B     		ldr	r6, [r3, #60]
 775 0014 16B3     		cbz	r6, .L72
 776              	.L60:
 777              		.loc 1 306 0
 778 0016 3046     		mov	r0, r6
 779 0018 FFF7FEFF 		bl	chMtxUnlockS
 780              	.LVL83:
 781              		.loc 1 310 0
 782 001c A469     		ldr	r4, [r4, #24]
 783              	.LBB167:
 784              	.LBB168:
 785              		.loc 2 653 0
 786 001e 2B46     		mov	r3, r5
 787              	.LBE168:
 788              	.LBE167:
 789              		.loc 1 310 0
 790 0020 6562     		str	r5, [r4, #36]
 791              	.LVL84:
 792 0022 03E0     		b	.L62
 793              	.LVL85:
 794              	.L73:
 795              	.LBB172:
 796              	.LBB169:
 797              		.loc 2 656 0
 798 0024 9968     		ldr	r1, [r3, #8]
ARM GAS  /tmp/ccwXba36.s 			page 15


 799 0026 A268     		ldr	r2, [r4, #8]
 800 0028 9142     		cmp	r1, r2
 801 002a 02D3     		bcc	.L61
 802              	.LVL86:
 803              	.L62:
 804              		.loc 2 655 0
 805 002c 1B68     		ldr	r3, [r3]
 806              	.LVL87:
 807              		.loc 2 656 0
 808 002e 9D42     		cmp	r5, r3
 809 0030 F8D1     		bne	.L73
 810              	.L61:
 811              		.loc 2 658 0
 812 0032 5A68     		ldr	r2, [r3, #4]
 813 0034 6260     		str	r2, [r4, #4]
 814              		.loc 2 657 0
 815 0036 2360     		str	r3, [r4]
 816              	.LBE169:
 817              	.LBE172:
 818              		.loc 1 312 0
 819 0038 3946     		mov	r1, r7
 820              	.LBB173:
 821              	.LBB170:
 822              		.loc 2 659 0
 823 003a 1460     		str	r4, [r2]
 824              	.LBE170:
 825              	.LBE173:
 826              		.loc 1 312 0
 827 003c 0720     		movs	r0, #7
 828              	.LBB174:
 829              	.LBB171:
 830              		.loc 2 660 0
 831 003e 5C60     		str	r4, [r3, #4]
 832              	.LVL88:
 833              	.LBE171:
 834              	.LBE174:
 835              		.loc 1 312 0
 836 0040 FFF7FEFF 		bl	chSchGoSleepTimeoutS
 837              	.LVL89:
 838              		.loc 1 313 0
 839 0044 431C     		adds	r3, r0, #1
 840              		.loc 1 312 0
 841 0046 0446     		mov	r4, r0
 842              	.LVL90:
 843              		.loc 1 313 0
 844 0048 02D0     		beq	.L63
 845              		.loc 1 314 0
 846 004a 3046     		mov	r0, r6
 847              	.LVL91:
 848 004c FFF7FEFF 		bl	chMtxLockS
 849              	.LVL92:
 850              	.L63:
 851              		.loc 1 318 0
 852 0050 2046     		mov	r0, r4
 853 0052 F8BD     		pop	{r3, r4, r5, r6, r7, pc}
 854              	.LVL93:
 855              	.L58:
ARM GAS  /tmp/ccwXba36.s 			page 16


 856              		.loc 1 301 0 discriminator 4
 857 0054 0548     		ldr	r0, .L74+4
 858 0056 FFF7FEFF 		bl	chSysHalt
 859              	.LVL94:
 860 005a D8E7     		b	.L59
 861              	.L72:
 862              		.loc 1 302 0 discriminator 2
 863 005c 0348     		ldr	r0, .L74+4
 864 005e FFF7FEFF 		bl	chSysHalt
 865              	.LVL95:
 866 0062 A369     		ldr	r3, [r4, #24]
 867 0064 DE6B     		ldr	r6, [r3, #60]
 868 0066 D6E7     		b	.L60
 869              	.L75:
 870              		.align	2
 871              	.L74:
 872 0068 00000000 		.word	ch
 873 006c 00000000 		.word	.LANCHOR6
 874              		.cfi_endproc
 875              	.LFE235:
 876              		.size	chCondWaitTimeoutS, .-chCondWaitTimeoutS
 877              		.section	.text.chCondWaitTimeout,"ax",%progbits
 878              		.align	2
 879              		.p2align 4,,15
 880              		.global	chCondWaitTimeout
 881              		.thumb
 882              		.thumb_func
 883              		.type	chCondWaitTimeout, %function
 884              	chCondWaitTimeout:
 885              	.LFB234:
 886              		.loc 1 258 0
 887              		.cfi_startproc
 888              		@ args = 0, pretend = 0, frame = 0
 889              		@ frame_needed = 0, uses_anonymous_args = 0
 890              	.LVL96:
 891 0000 38B5     		push	{r3, r4, r5, lr}
 892              		.cfi_def_cfa_offset 16
 893              		.cfi_offset 3, -16
 894              		.cfi_offset 4, -12
 895              		.cfi_offset 5, -8
 896              		.cfi_offset 14, -4
 897              		.loc 1 258 0
 898 0002 0446     		mov	r4, r0
 899 0004 0D46     		mov	r5, r1
 900              	.LBB185:
 901              	.LBB186:
 902              	.LBB187:
 903              	.LBB188:
 904              	.LBB189:
 905              		.loc 3 546 0
 906 0006 2023     		movs	r3, #32
 907              		.syntax unified
 908              	@ 546 "/home/selim/working/ChibiOS/os/ext/CMSIS/include/core_cmFunc.h" 1
 909 0008 83F31188 		MSR basepri, r3
 910              	@ 0 "" 2
 911              	.LVL97:
 912              		.thumb
ARM GAS  /tmp/ccwXba36.s 			page 17


 913              		.syntax unified
 914              	.LBE189:
 915              	.LBE188:
 916              	.LBE187:
 917              		.loc 4 349 0
 918 000c FFF7FEFF 		bl	_stats_start_measure_crit_thd
 919              	.LVL98:
 920              		.loc 4 350 0
 921 0010 FFF7FEFF 		bl	_dbg_check_lock
 922              	.LVL99:
 923              	.LBE186:
 924              	.LBE185:
 925              		.loc 1 262 0
 926 0014 2946     		mov	r1, r5
 927 0016 2046     		mov	r0, r4
 928 0018 FFF7FEFF 		bl	chCondWaitTimeoutS
 929              	.LVL100:
 930 001c 0446     		mov	r4, r0
 931              	.LVL101:
 932              	.LBB190:
 933              	.LBB191:
 934              		.loc 4 360 0
 935 001e FFF7FEFF 		bl	_dbg_check_unlock
 936              	.LVL102:
 937              		.loc 4 361 0
 938 0022 FFF7FEFF 		bl	_stats_stop_measure_crit_thd
 939              	.LVL103:
 940              		.loc 4 367 0
 941 0026 084B     		ldr	r3, .L79
 942 0028 1A68     		ldr	r2, [r3]
 943 002a 9A42     		cmp	r2, r3
 944 002c 07D0     		beq	.L77
 945 002e 9969     		ldr	r1, [r3, #24]
 946 0030 9368     		ldr	r3, [r2, #8]
 947 0032 8A68     		ldr	r2, [r1, #8]
 948 0034 9A42     		cmp	r2, r3
 949 0036 02D2     		bcs	.L77
 950 0038 0448     		ldr	r0, .L79+4
 951 003a FFF7FEFF 		bl	chSysHalt
 952              	.LVL104:
 953              	.L77:
 954              	.LBB192:
 955              	.LBB193:
 956              	.LBB194:
 957              		.loc 3 546 0
 958 003e 0023     		movs	r3, #0
 959              		.syntax unified
 960              	@ 546 "/home/selim/working/ChibiOS/os/ext/CMSIS/include/core_cmFunc.h" 1
 961 0040 83F31188 		MSR basepri, r3
 962              	@ 0 "" 2
 963              	.LVL105:
 964              		.thumb
 965              		.syntax unified
 966              	.LBE194:
 967              	.LBE193:
 968              	.LBE192:
 969              	.LBE191:
ARM GAS  /tmp/ccwXba36.s 			page 18


 970              	.LBE190:
 971              		.loc 1 266 0
 972 0044 2046     		mov	r0, r4
 973 0046 38BD     		pop	{r3, r4, r5, pc}
 974              	.LVL106:
 975              	.L80:
 976              		.align	2
 977              	.L79:
 978 0048 00000000 		.word	ch
 979 004c 00000000 		.word	.LANCHOR2
 980              		.cfi_endproc
 981              	.LFE234:
 982              		.size	chCondWaitTimeout, .-chCondWaitTimeout
 983              		.section	.rodata.__func__.6661,"a",%progbits
 984              		.align	2
 985              		.set	.LANCHOR1,. + 0
 986              		.type	__func__.6661, %object
 987              		.size	__func__.6661, 13
 988              	__func__.6661:
 989 0000 6368436F 		.ascii	"chCondSignal\000"
 989      6E645369 
 989      676E616C 
 989      00
 990              		.section	.rodata.__func__.6657,"a",%progbits
 991              		.align	2
 992              		.set	.LANCHOR0,. + 0
 993              		.type	__func__.6657, %object
 994              		.size	__func__.6657, 17
 995              	__func__.6657:
 996 0000 6368436F 		.ascii	"chCondObjectInit\000"
 996      6E644F62 
 996      6A656374 
 996      496E6974 
 996      00
 997              		.section	.rodata.__func__.6665,"a",%progbits
 998              		.align	2
 999              		.set	.LANCHOR3,. + 0
 1000              		.type	__func__.6665, %object
 1001              		.size	__func__.6665, 14
 1002              	__func__.6665:
 1003 0000 6368436F 		.ascii	"chCondSignalI\000"
 1003      6E645369 
 1003      676E616C 
 1003      4900
 1004              		.section	.rodata.__func__.6673,"a",%progbits
 1005              		.align	2
 1006              		.set	.LANCHOR4,. + 0
 1007              		.type	__func__.6673, %object
 1008              		.size	__func__.6673, 17
 1009              	__func__.6673:
 1010 0000 6368436F 		.ascii	"chCondBroadcastI\000"
 1010      6E644272 
 1010      6F616463 
 1010      61737449 
 1010      00
 1011              		.section	.rodata.__func__.6687,"a",%progbits
 1012              		.align	2
ARM GAS  /tmp/ccwXba36.s 			page 19


 1013              		.set	.LANCHOR5,. + 0
 1014              		.type	__func__.6687, %object
 1015              		.size	__func__.6687, 12
 1016              	__func__.6687:
 1017 0000 6368436F 		.ascii	"chCondWaitS\000"
 1017      6E645761 
 1017      69745300 
 1018              		.section	.rodata.__func__.5969,"a",%progbits
 1019              		.align	2
 1020              		.set	.LANCHOR2,. + 0
 1021              		.type	__func__.5969, %object
 1022              		.size	__func__.5969, 12
 1023              	__func__.5969:
 1024 0000 63685379 		.ascii	"chSysUnlock\000"
 1024      73556E6C 
 1024      6F636B00 
 1025              		.section	.rodata.__func__.6699,"a",%progbits
 1026              		.align	2
 1027              		.set	.LANCHOR6,. + 0
 1028              		.type	__func__.6699, %object
 1029              		.size	__func__.6699, 19
 1030              	__func__.6699:
 1031 0000 6368436F 		.ascii	"chCondWaitTimeoutS\000"
 1031      6E645761 
 1031      69745469 
 1031      6D656F75 
 1031      745300
 1032              		.text
 1033              	.Letext0:
 1034              		.file 6 "/usr/arm-none-eabi/include/machine/_default_types.h"
 1035              		.file 7 "/usr/arm-none-eabi/include/sys/_stdint.h"
 1036              		.file 8 "/home/selim/working/ChibiOS/os/rt/ports/ARMCMx/compilers/GCC/chtypes.h"
 1037              		.file 9 "/home/selim/working/ChibiOS/os/rt/include/chsystypes.h"
 1038              		.file 10 "/home/selim/working/ChibiOS/os/rt/ports/ARMCMx/chcore.h"
 1039              		.file 11 "/home/selim/working/ChibiOS/os/rt/ports/ARMCMx/chcore_v7m.h"
 1040              		.file 12 "/home/selim/working/ChibiOS/os/rt/include/chdebug.h"
 1041              		.file 13 "/home/selim/working/ChibiOS/os/rt/include/chtm.h"
 1042              		.file 14 "/home/selim/working/ChibiOS/os/rt/include/chstats.h"
 1043              		.file 15 "/home/selim/working/ChibiOS/os/rt/include/chsem.h"
 1044              		.file 16 "/home/selim/working/ChibiOS/os/rt/include/chcond.h"
 1045              		.file 17 "/home/selim/working/ChibiOS/os/rt/include/chthreads.h"
 1046              		.file 18 "/home/selim/working/ChibiOS/os/ext/CMSIS/include/core_cm4.h"