ARM GAS  /tmp/ccdUMlxU.s 			page 1


   1              		.syntax unified
   2              		.cpu cortex-m4
   3              		.fpu softvfp
   4              		.eabi_attribute 20, 1
   5              		.eabi_attribute 21, 1
   6              		.eabi_attribute 23, 3
   7              		.eabi_attribute 24, 1
   8              		.eabi_attribute 25, 1
   9              		.eabi_attribute 26, 1
  10              		.eabi_attribute 30, 2
  11              		.eabi_attribute 34, 1
  12              		.eabi_attribute 18, 4
  13              		.thumb
  14              		.syntax unified
  15              		.file	"chdebug.c"
  16              		.text
  17              	.Ltext0:
  18              		.cfi_sections	.debug_frame
  19              		.section	.text._dbg_check_disable,"ax",%progbits
  20              		.align	2
  21              		.p2align 4,,15
  22              		.global	_dbg_check_disable
  23              		.thumb
  24              		.thumb_func
  25              		.type	_dbg_check_disable, %function
  26              	_dbg_check_disable:
  27              	.LFB227:
  28              		.file 1 "/home/selim/working/ChibiOS/os/rt/src/chdebug.c"
  29              		.loc 1 114 0
  30              		.cfi_startproc
  31              		@ args = 0, pretend = 0, frame = 0
  32              		@ frame_needed = 0, uses_anonymous_args = 0
  33              		@ link register save eliminated.
  34              		.loc 1 116 0
  35 0000 044B     		ldr	r3, .L5
  36 0002 1A6B     		ldr	r2, [r3, #48]
  37 0004 0AB9     		cbnz	r2, .L2
  38              		.loc 1 116 0 is_stmt 0 discriminator 1
  39 0006 5B6B     		ldr	r3, [r3, #52]
  40 0008 13B1     		cbz	r3, .L1
  41              	.L2:
  42              		.loc 1 117 0 is_stmt 1
  43 000a 0348     		ldr	r0, .L5+4
  44 000c FFF7FEBF 		b	chSysHalt
  45              	.LVL0:
  46              	.L1:
  47 0010 7047     		bx	lr
  48              	.L6:
  49 0012 00BF     		.align	2
  50              	.L5:
  51 0014 00000000 		.word	ch
  52 0018 00000000 		.word	.LC0
  53              		.cfi_endproc
  54              	.LFE227:
  55              		.size	_dbg_check_disable, .-_dbg_check_disable
  56              		.section	.text._dbg_check_suspend,"ax",%progbits
  57              		.align	2
ARM GAS  /tmp/ccdUMlxU.s 			page 2


  58              		.p2align 4,,15
  59              		.global	_dbg_check_suspend
  60              		.thumb
  61              		.thumb_func
  62              		.type	_dbg_check_suspend, %function
  63              	_dbg_check_suspend:
  64              	.LFB228:
  65              		.loc 1 126 0
  66              		.cfi_startproc
  67              		@ args = 0, pretend = 0, frame = 0
  68              		@ frame_needed = 0, uses_anonymous_args = 0
  69              		@ link register save eliminated.
  70              		.loc 1 128 0
  71 0000 044B     		ldr	r3, .L10
  72 0002 1A6B     		ldr	r2, [r3, #48]
  73 0004 0AB9     		cbnz	r2, .L8
  74              		.loc 1 128 0 is_stmt 0 discriminator 1
  75 0006 5B6B     		ldr	r3, [r3, #52]
  76 0008 13B1     		cbz	r3, .L7
  77              	.L8:
  78              		.loc 1 129 0 is_stmt 1
  79 000a 0348     		ldr	r0, .L10+4
  80 000c FFF7FEBF 		b	chSysHalt
  81              	.LVL1:
  82              	.L7:
  83 0010 7047     		bx	lr
  84              	.L11:
  85 0012 00BF     		.align	2
  86              	.L10:
  87 0014 00000000 		.word	ch
  88 0018 08000000 		.word	.LC1
  89              		.cfi_endproc
  90              	.LFE228:
  91              		.size	_dbg_check_suspend, .-_dbg_check_suspend
  92              		.section	.text._dbg_check_enable,"ax",%progbits
  93              		.align	2
  94              		.p2align 4,,15
  95              		.global	_dbg_check_enable
  96              		.thumb
  97              		.thumb_func
  98              		.type	_dbg_check_enable, %function
  99              	_dbg_check_enable:
 100              	.LFB229:
 101              		.loc 1 138 0
 102              		.cfi_startproc
 103              		@ args = 0, pretend = 0, frame = 0
 104              		@ frame_needed = 0, uses_anonymous_args = 0
 105              		@ link register save eliminated.
 106              		.loc 1 140 0
 107 0000 044B     		ldr	r3, .L15
 108 0002 1A6B     		ldr	r2, [r3, #48]
 109 0004 0AB9     		cbnz	r2, .L13
 110              		.loc 1 140 0 is_stmt 0 discriminator 1
 111 0006 5B6B     		ldr	r3, [r3, #52]
 112 0008 13B1     		cbz	r3, .L12
 113              	.L13:
 114              		.loc 1 141 0 is_stmt 1
ARM GAS  /tmp/ccdUMlxU.s 			page 3


 115 000a 0348     		ldr	r0, .L15+4
 116 000c FFF7FEBF 		b	chSysHalt
 117              	.LVL2:
 118              	.L12:
 119 0010 7047     		bx	lr
 120              	.L16:
 121 0012 00BF     		.align	2
 122              	.L15:
 123 0014 00000000 		.word	ch
 124 0018 10000000 		.word	.LC2
 125              		.cfi_endproc
 126              	.LFE229:
 127              		.size	_dbg_check_enable, .-_dbg_check_enable
 128              		.section	.text._dbg_check_lock,"ax",%progbits
 129              		.align	2
 130              		.p2align 4,,15
 131              		.global	_dbg_check_lock
 132              		.thumb
 133              		.thumb_func
 134              		.type	_dbg_check_lock, %function
 135              	_dbg_check_lock:
 136              	.LFB230:
 137              		.loc 1 150 0
 138              		.cfi_startproc
 139              		@ args = 0, pretend = 0, frame = 0
 140              		@ frame_needed = 0, uses_anonymous_args = 0
 141 0000 10B5     		push	{r4, lr}
 142              		.cfi_def_cfa_offset 8
 143              		.cfi_offset 4, -8
 144              		.cfi_offset 14, -4
 145              		.loc 1 152 0
 146 0002 054C     		ldr	r4, .L24
 147 0004 236B     		ldr	r3, [r4, #48]
 148 0006 0BB9     		cbnz	r3, .L18
 149              		.loc 1 152 0 is_stmt 0 discriminator 1
 150 0008 636B     		ldr	r3, [r4, #52]
 151 000a 13B1     		cbz	r3, .L19
 152              	.L18:
 153              		.loc 1 153 0 is_stmt 1
 154 000c 0348     		ldr	r0, .L24+4
 155 000e FFF7FEFF 		bl	chSysHalt
 156              	.LVL3:
 157              	.L19:
 158              		.loc 1 155 0
 159 0012 0123     		movs	r3, #1
 160 0014 6363     		str	r3, [r4, #52]
 161 0016 10BD     		pop	{r4, pc}
 162              	.L25:
 163              		.align	2
 164              	.L24:
 165 0018 00000000 		.word	ch
 166 001c 18000000 		.word	.LC3
 167              		.cfi_endproc
 168              	.LFE230:
 169              		.size	_dbg_check_lock, .-_dbg_check_lock
 170              		.section	.text._dbg_check_unlock,"ax",%progbits
 171              		.align	2
ARM GAS  /tmp/ccdUMlxU.s 			page 4


 172              		.p2align 4,,15
 173              		.global	_dbg_check_unlock
 174              		.thumb
 175              		.thumb_func
 176              		.type	_dbg_check_unlock, %function
 177              	_dbg_check_unlock:
 178              	.LFB231:
 179              		.loc 1 163 0
 180              		.cfi_startproc
 181              		@ args = 0, pretend = 0, frame = 0
 182              		@ frame_needed = 0, uses_anonymous_args = 0
 183 0000 10B5     		push	{r4, lr}
 184              		.cfi_def_cfa_offset 8
 185              		.cfi_offset 4, -8
 186              		.cfi_offset 14, -4
 187              		.loc 1 165 0
 188 0002 074C     		ldr	r4, .L30
 189 0004 236B     		ldr	r3, [r4, #48]
 190 0006 2BB9     		cbnz	r3, .L27
 191              		.loc 1 165 0 is_stmt 0 discriminator 1
 192 0008 636B     		ldr	r3, [r4, #52]
 193 000a 002B     		cmp	r3, #0
 194 000c 02DD     		ble	.L27
 195              		.loc 1 168 0 is_stmt 1
 196 000e 0023     		movs	r3, #0
 197 0010 6363     		str	r3, [r4, #52]
 198 0012 10BD     		pop	{r4, pc}
 199              	.L27:
 200              		.loc 1 166 0
 201 0014 0348     		ldr	r0, .L30+4
 202 0016 FFF7FEFF 		bl	chSysHalt
 203              	.LVL4:
 204              		.loc 1 168 0
 205 001a 0023     		movs	r3, #0
 206 001c 6363     		str	r3, [r4, #52]
 207 001e 10BD     		pop	{r4, pc}
 208              	.L31:
 209              		.align	2
 210              	.L30:
 211 0020 00000000 		.word	ch
 212 0024 20000000 		.word	.LC4
 213              		.cfi_endproc
 214              	.LFE231:
 215              		.size	_dbg_check_unlock, .-_dbg_check_unlock
 216              		.section	.text._dbg_check_lock_from_isr,"ax",%progbits
 217              		.align	2
 218              		.p2align 4,,15
 219              		.global	_dbg_check_lock_from_isr
 220              		.thumb
 221              		.thumb_func
 222              		.type	_dbg_check_lock_from_isr, %function
 223              	_dbg_check_lock_from_isr:
 224              	.LFB232:
 225              		.loc 1 176 0
 226              		.cfi_startproc
 227              		@ args = 0, pretend = 0, frame = 0
 228              		@ frame_needed = 0, uses_anonymous_args = 0
ARM GAS  /tmp/ccdUMlxU.s 			page 5


 229 0000 10B5     		push	{r4, lr}
 230              		.cfi_def_cfa_offset 8
 231              		.cfi_offset 4, -8
 232              		.cfi_offset 14, -4
 233              		.loc 1 178 0
 234 0002 064C     		ldr	r4, .L39
 235 0004 236B     		ldr	r3, [r4, #48]
 236 0006 002B     		cmp	r3, #0
 237 0008 01DD     		ble	.L33
 238              		.loc 1 178 0 is_stmt 0 discriminator 1
 239 000a 636B     		ldr	r3, [r4, #52]
 240 000c 13B1     		cbz	r3, .L34
 241              	.L33:
 242              		.loc 1 179 0 is_stmt 1
 243 000e 0448     		ldr	r0, .L39+4
 244 0010 FFF7FEFF 		bl	chSysHalt
 245              	.LVL5:
 246              	.L34:
 247              		.loc 1 181 0
 248 0014 0123     		movs	r3, #1
 249 0016 6363     		str	r3, [r4, #52]
 250 0018 10BD     		pop	{r4, pc}
 251              	.L40:
 252 001a 00BF     		.align	2
 253              	.L39:
 254 001c 00000000 		.word	ch
 255 0020 28000000 		.word	.LC5
 256              		.cfi_endproc
 257              	.LFE232:
 258              		.size	_dbg_check_lock_from_isr, .-_dbg_check_lock_from_isr
 259              		.section	.text._dbg_check_unlock_from_isr,"ax",%progbits
 260              		.align	2
 261              		.p2align 4,,15
 262              		.global	_dbg_check_unlock_from_isr
 263              		.thumb
 264              		.thumb_func
 265              		.type	_dbg_check_unlock_from_isr, %function
 266              	_dbg_check_unlock_from_isr:
 267              	.LFB233:
 268              		.loc 1 189 0
 269              		.cfi_startproc
 270              		@ args = 0, pretend = 0, frame = 0
 271              		@ frame_needed = 0, uses_anonymous_args = 0
 272 0000 10B5     		push	{r4, lr}
 273              		.cfi_def_cfa_offset 8
 274              		.cfi_offset 4, -8
 275              		.cfi_offset 14, -4
 276              		.loc 1 191 0
 277 0002 084C     		ldr	r4, .L45
 278 0004 236B     		ldr	r3, [r4, #48]
 279 0006 002B     		cmp	r3, #0
 280 0008 05DD     		ble	.L42
 281              		.loc 1 191 0 is_stmt 0 discriminator 1
 282 000a 636B     		ldr	r3, [r4, #52]
 283 000c 002B     		cmp	r3, #0
 284 000e 02DD     		ble	.L42
 285              		.loc 1 194 0 is_stmt 1
ARM GAS  /tmp/ccdUMlxU.s 			page 6


 286 0010 0023     		movs	r3, #0
 287 0012 6363     		str	r3, [r4, #52]
 288 0014 10BD     		pop	{r4, pc}
 289              	.L42:
 290              		.loc 1 192 0
 291 0016 0448     		ldr	r0, .L45+4
 292 0018 FFF7FEFF 		bl	chSysHalt
 293              	.LVL6:
 294              		.loc 1 194 0
 295 001c 0023     		movs	r3, #0
 296 001e 6363     		str	r3, [r4, #52]
 297 0020 10BD     		pop	{r4, pc}
 298              	.L46:
 299 0022 00BF     		.align	2
 300              	.L45:
 301 0024 00000000 		.word	ch
 302 0028 30000000 		.word	.LC6
 303              		.cfi_endproc
 304              	.LFE233:
 305              		.size	_dbg_check_unlock_from_isr, .-_dbg_check_unlock_from_isr
 306              		.section	.text._dbg_check_enter_isr,"ax",%progbits
 307              		.align	2
 308              		.p2align 4,,15
 309              		.global	_dbg_check_enter_isr
 310              		.thumb
 311              		.thumb_func
 312              		.type	_dbg_check_enter_isr, %function
 313              	_dbg_check_enter_isr:
 314              	.LFB234:
 315              		.loc 1 202 0
 316              		.cfi_startproc
 317              		@ args = 0, pretend = 0, frame = 0
 318              		@ frame_needed = 0, uses_anonymous_args = 0
 319              	.LVL7:
 320 0000 10B5     		push	{r4, lr}
 321              		.cfi_def_cfa_offset 8
 322              		.cfi_offset 4, -8
 323              		.cfi_offset 14, -4
 324              	.LBB45:
 325              	.LBB46:
 326              	.LBB47:
 327              	.LBB48:
 328              		.file 2 "/home/selim/working/ChibiOS/os/ext/CMSIS/include/core_cmFunc.h"
 329              		.loc 2 546 0
 330 0002 2023     		movs	r3, #32
 331              		.syntax unified
 332              	@ 546 "/home/selim/working/ChibiOS/os/ext/CMSIS/include/core_cmFunc.h" 1
 333 0004 83F31188 		MSR basepri, r3
 334              	@ 0 "" 2
 335              	.LVL8:
 336              		.thumb
 337              		.syntax unified
 338              	.LBE48:
 339              	.LBE47:
 340              	.LBE46:
 341              	.LBE45:
 342              		.loc 1 205 0
ARM GAS  /tmp/ccdUMlxU.s 			page 7


 343 0008 074C     		ldr	r4, .L54
 344 000a 236B     		ldr	r3, [r4, #48]
 345 000c 002B     		cmp	r3, #0
 346 000e 01DB     		blt	.L48
 347              		.loc 1 205 0 is_stmt 0 discriminator 1
 348 0010 626B     		ldr	r2, [r4, #52]
 349 0012 1AB1     		cbz	r2, .L49
 350              	.L48:
 351              		.loc 1 206 0 is_stmt 1
 352 0014 0548     		ldr	r0, .L54+4
 353 0016 FFF7FEFF 		bl	chSysHalt
 354              	.LVL9:
 355 001a 236B     		ldr	r3, [r4, #48]
 356              	.L49:
 357              		.loc 1 208 0
 358 001c 0133     		adds	r3, r3, #1
 359 001e 2363     		str	r3, [r4, #48]
 360              	.LVL10:
 361              	.LBB49:
 362              	.LBB50:
 363              	.LBB51:
 364              	.LBB52:
 365              		.loc 2 546 0
 366 0020 0023     		movs	r3, #0
 367              		.syntax unified
 368              	@ 546 "/home/selim/working/ChibiOS/os/ext/CMSIS/include/core_cmFunc.h" 1
 369 0022 83F31188 		MSR basepri, r3
 370              	@ 0 "" 2
 371              	.LVL11:
 372              		.thumb
 373              		.syntax unified
 374 0026 10BD     		pop	{r4, pc}
 375              	.L55:
 376              		.align	2
 377              	.L54:
 378 0028 00000000 		.word	ch
 379 002c 38000000 		.word	.LC7
 380              	.LBE52:
 381              	.LBE51:
 382              	.LBE50:
 383              	.LBE49:
 384              		.cfi_endproc
 385              	.LFE234:
 386              		.size	_dbg_check_enter_isr, .-_dbg_check_enter_isr
 387              		.section	.text._dbg_check_leave_isr,"ax",%progbits
 388              		.align	2
 389              		.p2align 4,,15
 390              		.global	_dbg_check_leave_isr
 391              		.thumb
 392              		.thumb_func
 393              		.type	_dbg_check_leave_isr, %function
 394              	_dbg_check_leave_isr:
 395              	.LFB235:
 396              		.loc 1 217 0
 397              		.cfi_startproc
 398              		@ args = 0, pretend = 0, frame = 0
 399              		@ frame_needed = 0, uses_anonymous_args = 0
ARM GAS  /tmp/ccdUMlxU.s 			page 8


 400              	.LVL12:
 401 0000 10B5     		push	{r4, lr}
 402              		.cfi_def_cfa_offset 8
 403              		.cfi_offset 4, -8
 404              		.cfi_offset 14, -4
 405              	.LBB53:
 406              	.LBB54:
 407              	.LBB55:
 408              	.LBB56:
 409              		.loc 2 546 0
 410 0002 2023     		movs	r3, #32
 411              		.syntax unified
 412              	@ 546 "/home/selim/working/ChibiOS/os/ext/CMSIS/include/core_cmFunc.h" 1
 413 0004 83F31188 		MSR basepri, r3
 414              	@ 0 "" 2
 415              	.LVL13:
 416              		.thumb
 417              		.syntax unified
 418              	.LBE56:
 419              	.LBE55:
 420              	.LBE54:
 421              	.LBE53:
 422              		.loc 1 220 0
 423 0008 074C     		ldr	r4, .L63
 424 000a 236B     		ldr	r3, [r4, #48]
 425 000c 002B     		cmp	r3, #0
 426 000e 01DD     		ble	.L57
 427              		.loc 1 220 0 is_stmt 0 discriminator 1
 428 0010 626B     		ldr	r2, [r4, #52]
 429 0012 1AB1     		cbz	r2, .L58
 430              	.L57:
 431              		.loc 1 221 0 is_stmt 1
 432 0014 0548     		ldr	r0, .L63+4
 433 0016 FFF7FEFF 		bl	chSysHalt
 434              	.LVL14:
 435 001a 236B     		ldr	r3, [r4, #48]
 436              	.L58:
 437              		.loc 1 223 0
 438 001c 013B     		subs	r3, r3, #1
 439 001e 2363     		str	r3, [r4, #48]
 440              	.LVL15:
 441              	.LBB57:
 442              	.LBB58:
 443              	.LBB59:
 444              	.LBB60:
 445              		.loc 2 546 0
 446 0020 0023     		movs	r3, #0
 447              		.syntax unified
 448              	@ 546 "/home/selim/working/ChibiOS/os/ext/CMSIS/include/core_cmFunc.h" 1
 449 0022 83F31188 		MSR basepri, r3
 450              	@ 0 "" 2
 451              	.LVL16:
 452              		.thumb
 453              		.syntax unified
 454 0026 10BD     		pop	{r4, pc}
 455              	.L64:
 456              		.align	2
ARM GAS  /tmp/ccdUMlxU.s 			page 9


 457              	.L63:
 458 0028 00000000 		.word	ch
 459 002c 40000000 		.word	.LC8
 460              	.LBE60:
 461              	.LBE59:
 462              	.LBE58:
 463              	.LBE57:
 464              		.cfi_endproc
 465              	.LFE235:
 466              		.size	_dbg_check_leave_isr, .-_dbg_check_leave_isr
 467              		.section	.text.chDbgCheckClassI,"ax",%progbits
 468              		.align	2
 469              		.p2align 4,,15
 470              		.global	chDbgCheckClassI
 471              		.thumb
 472              		.thumb_func
 473              		.type	chDbgCheckClassI, %function
 474              	chDbgCheckClassI:
 475              	.LFB236:
 476              		.loc 1 235 0
 477              		.cfi_startproc
 478              		@ args = 0, pretend = 0, frame = 0
 479              		@ frame_needed = 0, uses_anonymous_args = 0
 480              		@ link register save eliminated.
 481              		.loc 1 237 0
 482 0000 054B     		ldr	r3, .L68
 483 0002 1A6B     		ldr	r2, [r3, #48]
 484 0004 002A     		cmp	r2, #0
 485 0006 03DB     		blt	.L66
 486              		.loc 1 237 0 is_stmt 0 discriminator 1
 487 0008 5B6B     		ldr	r3, [r3, #52]
 488 000a 002B     		cmp	r3, #0
 489 000c 00DD     		ble	.L66
 490 000e 7047     		bx	lr
 491              	.L66:
 492              		.loc 1 238 0 is_stmt 1
 493 0010 0248     		ldr	r0, .L68+4
 494 0012 FFF7FEBF 		b	chSysHalt
 495              	.LVL17:
 496              	.L69:
 497 0016 00BF     		.align	2
 498              	.L68:
 499 0018 00000000 		.word	ch
 500 001c 48000000 		.word	.LC9
 501              		.cfi_endproc
 502              	.LFE236:
 503              		.size	chDbgCheckClassI, .-chDbgCheckClassI
 504              		.section	.text.chDbgCheckClassS,"ax",%progbits
 505              		.align	2
 506              		.p2align 4,,15
 507              		.global	chDbgCheckClassS
 508              		.thumb
 509              		.thumb_func
 510              		.type	chDbgCheckClassS, %function
 511              	chDbgCheckClassS:
 512              	.LFB237:
 513              		.loc 1 250 0
ARM GAS  /tmp/ccdUMlxU.s 			page 10


 514              		.cfi_startproc
 515              		@ args = 0, pretend = 0, frame = 0
 516              		@ frame_needed = 0, uses_anonymous_args = 0
 517              		@ link register save eliminated.
 518              		.loc 1 252 0
 519 0000 044B     		ldr	r3, .L73
 520 0002 1A6B     		ldr	r2, [r3, #48]
 521 0004 1AB9     		cbnz	r2, .L71
 522              		.loc 1 252 0 is_stmt 0 discriminator 1
 523 0006 5B6B     		ldr	r3, [r3, #52]
 524 0008 002B     		cmp	r3, #0
 525 000a 00DD     		ble	.L71
 526 000c 7047     		bx	lr
 527              	.L71:
 528              		.loc 1 253 0 is_stmt 1
 529 000e 0248     		ldr	r0, .L73+4
 530 0010 FFF7FEBF 		b	chSysHalt
 531              	.LVL18:
 532              	.L74:
 533              		.align	2
 534              	.L73:
 535 0014 00000000 		.word	ch
 536 0018 50000000 		.word	.LC10
 537              		.cfi_endproc
 538              	.LFE237:
 539              		.size	chDbgCheckClassS, .-chDbgCheckClassS
 540              		.section	.text._dbg_trace_init,"ax",%progbits
 541              		.align	2
 542              		.p2align 4,,15
 543              		.global	_dbg_trace_init
 544              		.thumb
 545              		.thumb_func
 546              		.type	_dbg_trace_init, %function
 547              	_dbg_trace_init:
 548              	.LFB238:
 549              		.loc 1 264 0
 550              		.cfi_startproc
 551              		@ args = 0, pretend = 0, frame = 0
 552              		@ frame_needed = 0, uses_anonymous_args = 0
 553              		@ link register save eliminated.
 554              		.loc 1 266 0
 555 0000 024B     		ldr	r3, .L76
 556 0002 4021     		movs	r1, #64
 557              		.loc 1 267 0
 558 0004 5A18     		adds	r2, r3, r1
 559              		.loc 1 266 0
 560 0006 9963     		str	r1, [r3, #56]
 561              		.loc 1 267 0
 562 0008 DA63     		str	r2, [r3, #60]
 563 000a 7047     		bx	lr
 564              	.L77:
 565              		.align	2
 566              	.L76:
 567 000c 00000000 		.word	ch
 568              		.cfi_endproc
 569              	.LFE238:
 570              		.size	_dbg_trace_init, .-_dbg_trace_init
ARM GAS  /tmp/ccdUMlxU.s 			page 11


 571              		.section	.text._dbg_trace,"ax",%progbits
 572              		.align	2
 573              		.p2align 4,,15
 574              		.global	_dbg_trace
 575              		.thumb
 576              		.thumb_func
 577              		.type	_dbg_trace, %function
 578              	_dbg_trace:
 579              	.LFB239:
 580              		.loc 1 277 0
 581              		.cfi_startproc
 582              		@ args = 0, pretend = 0, frame = 0
 583              		@ frame_needed = 0, uses_anonymous_args = 0
 584              		@ link register save eliminated.
 585              	.LVL19:
 586              		.loc 1 279 0
 587 0000 0B4A     		ldr	r2, .L83
 588              	.LBB61:
 589              	.LBB62:
 590              	.LBB63:
 591              	.LBB64:
 592              		.file 3 "/home/selim/working/ChibiOS/os/hal/ports/STM32/LLD/TIMv1/st_lld.h"
 593              		.loc 3 129 0
 594 0002 4FF08041 		mov	r1, #1073741824
 595              	.LBE64:
 596              	.LBE63:
 597              	.LBE62:
 598              	.LBE61:
 599              		.loc 1 279 0
 600 0006 D36B     		ldr	r3, [r2, #60]
 601              		.loc 1 277 0
 602 0008 10B4     		push	{r4}
 603              		.cfi_def_cfa_offset 4
 604              		.cfi_offset 4, -4
 605              	.LBB68:
 606              	.LBB67:
 607              	.LBB66:
 608              	.LBB65:
 609              		.loc 3 129 0
 610 000a 4C6A     		ldr	r4, [r1, #36]
 611              	.LBE65:
 612              	.LBE66:
 613              	.LBE67:
 614              	.LBE68:
 615              		.loc 1 280 0
 616 000c 9169     		ldr	r1, [r2, #24]
 617 000e 5960     		str	r1, [r3, #4]
 618              		.loc 1 279 0
 619 0010 1C60     		str	r4, [r3]
 620              		.loc 1 281 0
 621 0012 416A     		ldr	r1, [r0, #36]
 622 0014 9960     		str	r1, [r3, #8]
 623              		.loc 1 282 0
 624 0016 90F82010 		ldrb	r1, [r0, #32]	@ zero_extendqisi2
 625 001a 1973     		strb	r1, [r3, #12]
 626              		.loc 1 283 0
 627 001c 1033     		adds	r3, r3, #16
ARM GAS  /tmp/ccdUMlxU.s 			page 12


 628 001e 02F58861 		add	r1, r2, #1088
 629 0022 8B42     		cmp	r3, r1
 630              		.loc 1 285 0
 631 0024 28BF     		it	cs
 632 0026 02F14003 		addcs	r3, r2, #64
 633 002a D363     		str	r3, [r2, #60]
 634              		.loc 1 287 0
 635 002c 10BC     		pop	{r4}
 636              		.cfi_restore 4
 637              		.cfi_def_cfa_offset 0
 638 002e 7047     		bx	lr
 639              	.L84:
 640              		.align	2
 641              	.L83:
 642 0030 00000000 		.word	ch
 643              		.cfi_endproc
 644              	.LFE239:
 645              		.size	_dbg_trace, .-_dbg_trace
 646              		.section	.rodata.str1.4,"aMS",%progbits,1
 647              		.align	2
 648              	.LC0:
 649 0000 53562331 		.ascii	"SV#1\000"
 649      00
 650 0005 000000   		.space	3
 651              	.LC1:
 652 0008 53562332 		.ascii	"SV#2\000"
 652      00
 653 000d 000000   		.space	3
 654              	.LC2:
 655 0010 53562333 		.ascii	"SV#3\000"
 655      00
 656 0015 000000   		.space	3
 657              	.LC3:
 658 0018 53562334 		.ascii	"SV#4\000"
 658      00
 659 001d 000000   		.space	3
 660              	.LC4:
 661 0020 53562335 		.ascii	"SV#5\000"
 661      00
 662 0025 000000   		.space	3
 663              	.LC5:
 664 0028 53562336 		.ascii	"SV#6\000"
 664      00
 665 002d 000000   		.space	3
 666              	.LC6:
 667 0030 53562337 		.ascii	"SV#7\000"
 667      00
 668 0035 000000   		.space	3
 669              	.LC7:
 670 0038 53562338 		.ascii	"SV#8\000"
 670      00
 671 003d 000000   		.space	3
 672              	.LC8:
 673 0040 53562339 		.ascii	"SV#9\000"
 673      00
 674 0045 000000   		.space	3
 675              	.LC9:
ARM GAS  /tmp/ccdUMlxU.s 			page 13


 676 0048 53562331 		.ascii	"SV#10\000"
 676      3000
 677 004e 0000     		.space	2
 678              	.LC10:
 679 0050 53562331 		.ascii	"SV#11\000"
 679      3100
 680              		.text
 681              	.Letext0:
 682              		.file 4 "/usr/arm-none-eabi/include/machine/_default_types.h"
 683              		.file 5 "/usr/arm-none-eabi/include/sys/_stdint.h"
 684              		.file 6 "/home/selim/working/ChibiOS/os/rt/ports/ARMCMx/compilers/GCC/chtypes.h"
 685              		.file 7 "/home/selim/working/ChibiOS/os/rt/include/chsystypes.h"
 686              		.file 8 "/home/selim/working/ChibiOS/os/rt/include/chschd.h"
 687              		.file 9 "/home/selim/working/ChibiOS/os/rt/ports/ARMCMx/chcore.h"
 688              		.file 10 "/home/selim/working/ChibiOS/os/rt/ports/ARMCMx/chcore_v7m.h"
 689              		.file 11 "/home/selim/working/ChibiOS/os/hal/ports/STM32/LLD/TIMv1/stm32_tim.h"
 690              		.file 12 "/home/selim/working/ChibiOS/os/rt/include/chdebug.h"
 691              		.file 13 "/home/selim/working/ChibiOS/os/rt/include/chtm.h"
 692              		.file 14 "/home/selim/working/ChibiOS/os/rt/include/chstats.h"
 693              		.file 15 "/home/selim/working/ChibiOS/os/rt/include/chsem.h"
 694              		.file 16 "/home/selim/working/ChibiOS/os/rt/include/chmtx.h"
 695              		.file 17 "/home/selim/working/ChibiOS/os/rt/ports/ARMCMx/chcore_timer.h"
 696              		.file 18 "/home/selim/working/ChibiOS/os/rt/include/chvt.h"
 697              		.file 19 "/home/selim/working/ChibiOS/os/ext/CMSIS/include/core_cm4.h"
 698              		.file 20 "/home/selim/working/ChibiOS/os/rt/include/chsys.h"