ARM GAS  /tmp/ccdUMlxU.s 			page 1


   1              		.syntax unified
   2              		.cpu cortex-m4
   3              		.fpu softvfp
   4              		.eabi_attribute 20, 1
   5              		.eabi_attribute 21, 1
   6              		.eabi_attribute 23, 3
   7              		.eabi_attribute 24, 1
   8              		.eabi_attribute 25, 1
   9              		.eabi_attribute 26, 1
  10              		.eabi_attribute 30, 2
  11              		.eabi_attribute 34, 1
  12              		.eabi_attribute 18, 4
  13              		.thumb
  14              		.syntax unified
  15              		.file	"chdebug.c"
  16              		.text
  17              	.Ltext0:
  18              		.cfi_sections	.debug_frame
  19              		.section	.text._dbg_check_disable,"ax",%progbits
  20              		.align	2
  21              		.p2align 4,,15
  22              		.global	_dbg_check_disable
  23              		.thumb
  24              		.thumb_func
  25              		.type	_dbg_check_disable, %function
  26              	_dbg_check_disable:
  27              	.LFB227:
  28              		.file 1 "/home/selim/working/ChibiOS/os/rt/src/chdebug.c"
  29              		.loc 1 114 0
  30              		.cfi_startproc
  31              		@ args = 0, pretend = 0, frame = 0
  32              		@ frame_needed = 0, uses_anonymous_args = 0
  33              		@ link register save eliminated.
  34              		.loc 1 116 0
  35 0000 044B     		ldr	r3, .L5
  36 0002 1A6B     		ldr	r2, [r3, #48]
  37 0004 0AB9     		cbnz	r2, .L2
  38              		.loc 1 116 0 is_stmt 0 discriminator 1
  39 0006 5B6B     		ldr	r3, [r3, #52]
  40 0008 13B1     		cbz	r3, .L1
  41              	.L2:
  42              		.loc 1 117 0 is_stmt 1
  43 000a 0348     		ldr	r0, .L5+4
  44 000c FFF7FEBF 		b	chSysHalt
  45              	.LVL0:
  46              	.L1:
  47 0010 7047     		bx	lr
  48              	.L6:
  49 0012 00BF     		.align	2
  50              	.L5:
  51 0014 00000000 		.word	ch
  52 0018 00000000 		.word	.LC0
  53              		.cfi_endproc
  54              	.LFE227:
  55              		.size	_dbg_check_disable, .-_dbg_check_disable
  56              		.section	.text._dbg_check_suspend,"ax",%progbits
  57              		.align	2
ARM GAS  /tmp/ccdUMlxU.s 			page 2


  58              		.p2align 4,,15
  59              		.global	_dbg_check_suspend
  60              		.thumb
  61              		.thumb_func
  62              		.type	_dbg_check_suspend, %function
  63              	_dbg_check_suspend:
  64              	.LFB228:
  65              		.loc 1 126 0
  66              		.cfi_startproc
  67              		@ args = 0, pretend = 0, frame = 0
  68              		@ frame_needed = 0, uses_anonymous_args = 0
  69              		@ link register save eliminated.
  70              		.loc 1 128 0
  71 0000 044B     		ldr	r3, .L10
  72 0002 1A6B     		ldr	r2, [r3, #48]
  73 0004 0AB9     		cbnz	r2, .L8
  74              		.loc 1 128 0 is_stmt 0 discriminator 1
  75 0006 5B6B     		ldr	r3, [r3, #52]
  76 0008 13B1     		cbz	r3, .L7
  77              	.L8:
  78              		.loc 1 129 0 is_stmt 1
  79 000a 0348     		ldr	r0, .L10+4
  80 000c FFF7FEBF 		b	chSysHalt
  81              	.LVL1:
  82              	.L7:
  83 0010 7047     		bx	lr
  84              	.L11:
  85 0012 00BF     		.align	2
  86              	.L10:
  87 0014 00000000 		.word	ch
  88 0018 08000000 		.word	.LC1
  89              		.cfi_endproc
  90              	.LFE228:
  91              		.size	_dbg_check_suspend, .-_dbg_check_suspend
  92              		.section	.text._dbg_check_enable,"ax",%progbits
  93              		.align	2
  94              		.p2align 4,,15
  95              		.global	_dbg_check_enable
  96              		.thumb
  97              		.thumb_func
  98              		.type	_dbg_check_enable, %function
  99              	_dbg_check_enable:
 100              	.LFB229:
 101              		.loc 1 138 0
 102              		.cfi_startproc
 103              		@ args = 0, pretend = 0, frame = 0
 104              		@ frame_needed = 0, uses_anonymous_args = 0
 105              		@ link register save eliminated.
 106              		.loc 1 140 0
 107 0000 044B     		ldr	r3, .L15
 108 0002 1A6B     		ldr	r2, [r3, #48]
 109 0004 0AB9     		cbnz	r2, .L13
 110              		.loc 1 140 0 is_stmt 0 discriminator 1
 111 0006 5B6B     		ldr	r3, [r3, #52]
 112 0008 13B1     		cbz	r3, .L12
 113              	.L13:
 114              		.loc 1 141 0 is_stmt 1
ARM GAS  /tmp/ccdUMlxU.s 			page 3


 115 000a 0348     		ldr	r0, .L15+4
 116 000c FFF7FEBF 		b	chSysHalt
 117              	.LVL2:
 118              	.L12:
 119 0010 7047     		bx	lr
 120              	.L16:
 121 0012 00BF     		.align	2
 122              	.L15:
 123 0014 00000000 		.word	ch
 124 0018 10000000 		.word	.LC2
 125              		.cfi_endproc
 126              	.LFE229:
 127              		.size	_dbg_check_enable, .-_dbg_check_enable
 128              		.section	.text._dbg_check_lock,"ax",%progbits
 129              		.align	2
 130              		.p2align 4,,15
 131              		.global	_dbg_check_lock
 132              		.thumb
 133              		.thumb_func
 134              		.type	_dbg_check_lock, %function
 135              	_dbg_check_lock:
 136              	.LFB230:
 137              		.loc 1 150 0
 138              		.cfi_startproc
 139              		@ args = 0, pretend = 0, frame = 0
 140              		@ frame_needed = 0, uses_anonymous_args = 0
 141 0000 10B5     		push	{r4, lr}
 142              		.cfi_def_cfa_offset 8
 143              		.cfi_offset 4, -8
 144              		.cfi_offset 14, -4
 145              		.loc 1 152 0
 146 0002 054C     		ldr	r4, .L24
 147 0004 236B     		ldr	r3, [r4, #48]
 148 0006 0BB9     		cbnz	r3, .L18
 149              		.loc 1 152 0 is_stmt 0 discriminator 1
 150 0008 636B     		ldr	r3, [r4, #52]
 151 000a 13B1     		cbz	r3, .L19
 152              	.L18:
 153              		.loc 1 153 0 is_stmt 1
 154 000c 0348     		ldr	r0, .L24+4
 155 000e FFF7FEFF 		bl	chSysHalt
 156              	.LVL3:
 157              	.L19:
 158              		.loc 1 155 0
 159 0012 0123     		movs	r3, #1
 160 0014 6363     		str	r3, [r4, #52]
 161 0016 10BD     		pop	{r4, pc}
 162              	.L25:
 163              		.align	2
 164              	.L24:
 165 0018 00000000 		.word	ch
 166 001c 18000000 		.word	.LC3
 167              		.cfi_endproc
 168              	.LFE230:
 169              		.size	_dbg_check_lock, .-_dbg_check_lock
 170              		.section	.text._dbg_check_unlock,"ax",%progbits
 171              		.align	2
ARM GAS  /tmp/ccdUMlxU.s 			page 4


 172              		.p2align 4,,15
 173              		.global	_dbg_check_unlock
 174              		.thumb
 175              		.thumb_func
 176              		.type	_dbg_check_unlock, %function
 177              	_dbg_check_unlock:
 178              	.LFB231:
 179              		.loc 1 163 0
 180              		.cfi_startproc
 181              		@ args = 0, pretend = 0, frame = 0
 182              		@ frame_needed = 0, uses_anonymous_args = 0
 183 0000 10B5     		push	{r4, lr}
 184              		.cfi_def_cfa_offset 8
 185              		.cfi_offset 4, -8
 186              		.cfi_offset 14, -4
 187              		.loc 1 165 0
 188 0002 074C     		ldr	r4, .L30
 189 0004 236B     		ldr	r3, [r4, #48]
 190 0006 2BB9     		cbnz	r3, .L27
 191              		.loc 1 165 0 is_stmt 0 discriminator 1
 192 0008 636B     		ldr	r3, [r4, #52]
 193 000a 002B     		cmp	r3, #0
 194 000c 02DD     		ble	.L27
 195              		.loc 1 168 0 is_stmt 1
 196 000e 0023     		movs	r3, #0
 197 0010 6363     		str	r3, [r4, #52]
 198 0012 10BD     		pop	{r4, pc}
 199              	.L27:
 200              		.loc 1 166 0
 201 0014 0348     		ldr	r0, .L30+4
 202 0016 FFF7FEFF 		bl	chSysHalt
 203              	.LVL4:
 204              		.loc 1 168 0
 205 001a 0023     		movs	r3, #0
 206 001c 6363     		str	r3, [r4, #52]
 207 001e 10BD     		pop	{r4, pc}
 208              	.L31:
 209              		.align	2
 210              	.L30:
 211 0020 00000000 		.word	ch
 212 0024 20000000 		.word	.LC4
 213              		.cfi_endproc
 214              	.LFE231:
 215              		.size	_dbg_check_unlock, .-_dbg_check_unlock
 216              		.section	.text._dbg_check_lock_from_isr,"ax",%progbits
 217              		.align	2
 218              		.p2align 4,,15
 219              		.global	_dbg_check_lock_from_isr
 220              		.thumb
 221              		.thumb_func
 222              		.type	_dbg_check_lock_from_isr, %function
 223              	_dbg_check_lock_from_isr:
 224              	.LFB232:
 225              		.loc 1 176 0
 226              		.cfi_startproc
 227              		@ args = 0, pretend = 0, frame = 0
 228              		@ frame_needed = 0, uses_anonymous_args = 0
ARM GAS  /tmp/ccdUMlxU.s 			page 5


 229 0000 10B5     		push	{r4, lr}
 230              		.cfi_def_cfa_offset 8
 231              		.cfi_offset 4, -8
 232              		.cfi_offset 14, -4
 233              		.loc 1 178 0
 234 0002 064C     		ldr	r4, .L39
 235 0004 236B     		ldr	r3, [r4, #48]
 236 0006 002B     		cmp	r3, #0
 237 0008 01DD     		ble	.L33
 238              		.loc 1 178 0 is_stmt 0 discriminator 1
 239 000a 636B     		ldr	r3, [r4, #52]
 240 000c 13B1     		cbz	r3, .L34
 241              	.L33:
 242              		.loc 1 179 0 is_stmt 1
 243 000e 0448     		ldr	r0, .L39+4
 244 0010 FFF7FEFF 		bl	chSysHalt
 245              	.LVL5:
 246              	.L34:
 247              		.loc 1 181 0
 248 0014 0123     		movs	r3, #1
 249 0016 6363     		str	r3, [r4, #52]
 250 0018 10BD     		pop	{r4, pc}
 251              	.L40:
 252 001a 00BF     		.align	2
 253              	.L39:
 254 001c 00000000 		.word	ch
 255 0020 28000000 		.word	.LC5
 256              		.cfi_endproc
 257              	.LFE232:
 258              		.size	_dbg_check_lock_from_isr, .-_dbg_check_lock_from_isr
 259              		.section	.text._dbg_check_unlock_from_isr,"ax",%progbits
 260              		.align	2
 261              		.p2align 4,,15
 262              		.global	_dbg_check_unlock_from_isr
 263              		.thumb
 264              		.thumb_func
 265              		.type	_dbg_check_unlock_from_isr, %function
 266              	_dbg_check_unlock_from_isr:
 267              	.LFB233:
 268              		.loc 1 189 0
 269              		.cfi_startproc
 270              		@ args = 0, pretend = 0, frame = 0
 271              		@ frame_needed = 0, uses_anonymous_args = 0
 272 0000 10B5     		push	{r4, lr}
 273              		.cfi_def_cfa_offset 8
 274              		.cfi_offset 4, -8
 275              		.cfi_offset 14, -4
 276              		.loc 1 191 0
 277 0002 084C     		ldr	r4, .L45
 278 0004 236B     		ldr	r3, [r4, #48]
 279 0006 002B     		cmp	r3, #0
 280 0008 05DD     		ble	.L42
 281              		.loc 1 191 0 is_stmt 0 discriminator 1
 282 000a 636B     		ldr	r3, [r4, #52]
 283 000c 002B     		cmp	r3, #0
 284 000e 02DD     		ble	.L42
 285              		.loc 1 194 0 is_stmt 1
ARM GAS  /tmp/ccdUMlxU.s 			page 6


 286 0010 0023     		movs	r3, #0
 287 0012 6363     		str	r3, [r4, #52]
 288 0014 10BD     		pop	{r4, pc}
 289              	.L42:
 290              		.loc 1 192 0
 291 0016 0448     		ldr	r0, .L45+4
 292 0018 FFF7FEFF 		bl	chSysHalt
 293              	.LVL6:
 294              		.loc 1 194 0
 295 001c 0023     		movs	r3, #0
 296 001e 6363     		str	r3, [r4, #52]
 297 0020 10BD     		pop	{r4, pc}
 298              	.L46:
 299 0022 00BF     		.align	2
 300              	.L45:
 301 0024 00000000 		.word	ch
 302 0028 30000000 		.word	.LC6
 303              		.cfi_endproc
 304              	.LFE233:
 305              		.size	_dbg_check_unlock_from_isr, .-_dbg_check_unlock_from_isr
 306              		.section	.text._dbg_check_enter_isr,"ax",%progbits
 307              		.align	2
 308              		.p2align 4,,15
 309              		.global	_dbg_check_enter_isr
 310              		.thumb
 311              		.thumb_func
 312              		.type	_dbg_check_enter_isr, %function
 313              	_dbg_check_enter_isr:
 314              	.LFB234:
 315              		.loc 1 202 0
 316              		.cfi_startproc
 317              		@ args = 0, pretend = 0, frame = 0
 318              		@ frame_needed = 0, uses_anonymous_args = 0
 319              	.LVL7:
 320 0000 10B5     		push	{r4, lr}
 321              		.cfi_def_cfa_offset 8
 322              		.cfi_offset 4, -8
 323              		.cfi_offset 14, -4
 324              	.LBB45:
 325              	.LBB46:
 326              	.LBB47:
 327              	.LBB48:
 328              		.file 2 "/home/selim/working/ChibiOS/os/ext/CMSIS/include/core_cmFunc.h"
 329              		.loc 2 546 0
 330 0002 2023     		movs	r3, #32
 331              		.syntax unified
 332              	@ 546 "/home/selim/working/ChibiOS/os/ext/CMSIS/include/core_cmFunc.h" 1
 333 0004 83F31188 		MSR basepri, r3
 334              	@ 0 "" 2
 335              	.LVL8:
 336              		.thumb
 337              		.syntax unified
 338              	.LBE48:
 339              	.LBE47:
 340              	.LBE46:
 341              	.LBE45:
 342              		.loc 1 205 0
ARM GAS  /tmp/ccdUMlxU.s 			page 7


 343 0008 074C     		ldr	r4, .L54
 344 000a 236B     		ldr	r3, [r4, #48]
 345 000c 002B     		cmp	r3, #0
 346 000e 01DB     		blt	.L48
 347              		.loc 1 205 0 is_stmt 0 discriminator 1
 348 0010 626B     		ldr	r2, [r4, #52]
 349 0012 1AB1     		cbz	r2, .L49
 350              	.L48:
 351              		.loc 1 206 0 is_stmt 1
 352 0014 0548     		ldr	r0, .L54+4
 353 0016 FFF7FEFF 		bl	chSysHalt
 354              	.LVL9:
 355 001a 236B     		ldr	r3, [r4, #48]
 356              	.L49:
 357              		.loc 1 208 0
 358 001c 0133     		adds	r3, r3, #1
 359 001e 2363     		str	r3, [r4, #48]
 360              	.LVL10:
 361              	.LBB49:
 362              	.LBB50:
 363              	.LBB51:
 364              	.LBB52:
 365              		.loc 2 546 0
 366 0020 0023     		movs	r3, #0
 367              		.syntax unified
 368              	@ 546 "/home/selim/working/ChibiOS/os/ext/CMSIS/include/core_cmFunc.h" 1
 369 0022 83F31188 		MSR basepri, r3
 370              	@ 0 "" 2
 371              	.LVL11:
 372              		.thumb
 373              		.syntax unified
 374 0026 10BD     		pop	{r4, pc}
 375              	.L55:
 376              		.align	2
 377              	.L54:
 378 0028 00000000 		.word	ch
 379 002c 38000000 		.word	.LC7
 380              	.LBE52:
 381              	.LBE51:
 382              	.LBE50:
 383              	.LBE49:
 384              		.cfi_endproc
 385              	.LFE234:
 386              		.size	_dbg_check_enter_isr, .-_dbg_check_enter_isr
 387              		.section	.text._dbg_check_leave_isr,"ax",%progbits
 388              		.align	2
 389              		.p2align 4,,15
 390              		.global	_dbg_check_leave_isr
 391              		.thumb
 392              		.thumb_func
 393              		.type	_dbg_check_leave_isr, %function
 394              	_dbg_check_leave_isr:
 395              	.LFB235:
 396              		.loc 1 217 0
 397              		.cfi_startproc
 398              		@ args = 0, pretend = 0, frame = 0
 399              		@ frame_needed = 0, uses_anonymous_args = 0
ARM GAS  /tmp/ccdUMlxU.s 			page 8


 400              	.LVL12:
 401 0000 10B5     		push	{r4, lr}
 402              		.cfi_def_cfa_offset 8
 403              		.cfi_offset 4, -8
 404              		.cfi_offset 14, -4
 405              	.LBB53:
 406              	.LBB54:
 407              	.LBB55:
 408              	.LBB56:
 409              		.loc 2 546 0
 410 0002 2023     		movs	r3, #32
 411              		.syntax unified
 412              	@ 546 "/home/selim/working/ChibiOS/os/ext/CMSIS/include/core_cmFunc.h" 1
 413 0004 83F31188 		MSR basepri, r3
 414              	@ 0 "" 2
 415              	.LVL13:
 416              		.thumb
 417              		.syntax unified
 418              	.LBE56:
 419              	.LBE55:
 420              	.LBE54:
 421              	.LBE53:
 422              		.loc 1 220 0
 423 0008 074C     		ldr	r4, .L63
 424 000a 236B     		ldr	r3, [r4, #48]
 425 000c 002B     		cmp	r3, #0
 426 000e 01DD     		ble	.L57
 427              		.loc 1 220 0 is_stmt 0 discriminator 1
 428 0010 626B     		ldr	r2, [r4, #52]
 429 0012 1AB1     		cbz	r2, .L58
 430              	.L57:
 431              		.loc 1 221 0 is_stmt 1
 432 0014 0548     		ldr	r0, .L63+4
 433 0016 FFF7FEFF 		bl	chSysHalt
 434              	.LVL14:
 435 001a 236B     		ldr	r3, [r4, #48]
 436              	.L58:
 437              		.loc 1 223 0
 438 001c 013B     		subs	r3, r3, #1
 439 001e 2363     		str	r3, [r4, #48]
 440              	.LVL15:
 441              	.LBB57:
 442              	.LBB58:
 443              	.LBB59:
 444              	.LBB60:
 445              		.loc 2 546 0
 446 0020 0023     		movs	r3, #0
 447              		.syntax unified
 448              	@ 546 "/home/selim/working/ChibiOS/os/ext/CMSIS/include/core_cmFunc.h" 1
 449 0022 83F31188 		MSR basepri, r3
 450              	@ 0 "" 2
 451              	.LVL16:
 452              		.thumb
 453              		.syntax unified
 454 0026 10BD     		pop	{r4, pc}
 455              	.L64:
 456              		.align	2
ARM GAS  /tmp/ccdUMlxU.s 			page 9


 457              	.L63:
 458 0028 00000000 		.word	ch
 459 002c 40000000 		.word	.LC8
 460              	.LBE60:
 461              	.LBE59:
 462              	.LBE58:
 463              	.LBE57:
 464              		.cfi_endproc
 465              	.LFE235:
 466              		.size	_dbg_check_leave_isr, .-_dbg_check_leave_isr
 467              		.section	.text.chDbgCheckClassI,"ax",%progbits
 468              		.align	2
 469              		.p2align 4,,15
 470              		.global	chDbgCheckClassI
 471              		.thumb
 472              		.thumb_func
 473              		.type	chDbgCheckClassI, %function
 474              	chDbgCheckClassI:
 475              	.LFB236:
 476              		.loc 1 235 0
 477              		.cfi_startproc
 478              		@ args = 0, pretend = 0, frame = 0
 479              		@ frame_needed = 0, uses_anonymous_args = 0
 480              		@ link register save eliminated.
 481              		.loc 1 237 0
 482 0000 054B     		ldr	r3, .L68
 483 0002 1A6B     		ldr	r2, [r3, #48]
 484 0004 002A     		cmp	r2, #0
 485 0006 03DB     		blt	.L66
 486              		.loc 1 237 0 is_stmt 0 discriminator 1
 487 0008 5B6B     		ldr	r3, [r3, #52]
 488 000a 002B     		cmp	r3, #0
 489 000c 00DD     		ble	.L66
 490 000e 7047     		bx	lr
 491              	.L66:
 492              		.loc 1 238 0 is_stmt 1
 493 0010 0248     		ldr	r0, .L68+4
 494 0012 FFF7FEBF 		b	chSysHalt
 495              	.LVL17:
 496              	.L69:
 497 0016 00BF     		.align	2
 498              	.L68:
 499 0018 00000000 		.word	ch
 500 001c 48000000 		.word	.LC9
 501              		.cfi_endproc
 502              	.LFE236:
 503              		.size	chDbgCheckClassI, .-chDbgCheckClassI
 504              		.section	.text.chDbgCheckClassS,"ax",%progbits
 505              		.align	2
 506              		.p2align 4,,15
 507              		.global	chDbgCheckClassS
 508              		.thumb
 509              		.thumb_func
 510              		.type	chDbgCheckClassS, %function
 511              	chDbgCheckClassS:
 512              	.LFB237:
 513              		.loc 1 250 0
ARM GAS  /tmp/ccdUMlxU.s 			page 10


 514              		.cfi_startproc
 515              		@ args = 0, pretend = 0, frame = 0
 516              		@ frame_needed = 0, uses_anonymous_args = 0
 517              		@ link register save eliminated.
 518              		.loc 1 252 0
 519 0000 044B     		ldr	r3, .L73
 520 0002 1A6B     		ldr	r2, [r3, #48]
 521 0004 1AB9     		cbnz	r2, .L71
 522              		.loc 1 252 0 is_stmt 0 discriminator 1
 523 0006 5B6B     		ldr	r3, [r3, #52]
 524 0008 002B     		cmp	r3, #0
 525 000a 00DD     		ble	.L71
 526 000c 7047     		bx	lr
 527              	.L71:
 528              		.loc 1 253 0 is_stmt 1
 529 000e 0248     		ldr	r0, .L73+4
 530 0010 FFF7FEBF 		b	chSysHalt
 531              	.LVL18:
 532              	.L74:
 533              		.align	2
 534              	.L73:
 535 0014 00000000 		.word	ch
 536 0018 50000000 		.word	.LC10
 537              		.cfi_endproc
 538              	.LFE237:
 539              		.size	chDbgCheckClassS, .-chDbgCheckClassS
 540              		.section	.text._dbg_trace_init,"ax",%progbits
 541              		.align	2
 542              		.p2align 4,,15
 543              		.global	_dbg_trace_init
 544              		.thumb
 545              		.thumb_func
 546              		.type	_dbg_trace_init, %function
 547              	_dbg_trace_init:
 548              	.LFB238:
 549              		.loc 1 264 0
 550              		.cfi_startproc
 551              		@ args = 0, pretend = 0, frame = 0
 552              		@ frame_needed = 0, uses_anonymous_args = 0
 553              		@ link register save eliminated.
 554              		.loc 1 266 0
 555 0000 024B     		ldr	r3, .L76
 556 0002 4021     		movs	r1, #64
 557              		.loc 1 267 0
 558 0004 5A18     		adds	r2, r3, r1
 559              		.loc 1 266 0
 560 0006 9963     		str	r1, [r3, #56]
 561              		.loc 1 267 0
 562 0008 DA63     		str	r2, [r3, #60]
 563 000a 7047     		bx	lr
 564              	.L77:
 565              		.align	2
 566              	.L76:
 567 000c 00000000 		.word	ch
 568              		.cfi_endproc
 569              	.LFE238:
 570              		.size	_dbg_trace_init, .-_dbg_trace_init
ARM GAS  /tmp/ccdUMlxU.s 			page 11


 571              		.section	.text._dbg_trace,"ax",%progbits
 572              		.align	2
 573              		.p2align 4,,15
 574              		.global	_dbg_trace
 575              		.thumb
 576              		.thumb_func
 577              		.type	_dbg_trace, %function
 578              	_dbg_trace:
 579              	.LFB239:
 580              		.loc 1 277 0
 581              		.cfi_startproc
 582              		@ args = 0, pretend = 0, frame = 0
 583              		@ frame_needed = 0, uses_anonymous_args = 0
 584              		@ link register save eliminated.
 585              	.LVL19:
 586              		.loc 1 279 0
 587 0000 0B4A     		ldr	r2, .L83
 588              	.LBB61:
 589              	.LBB62:
 590              	.LBB63:
 591              	.LBB64:
 592              		.file 3 "/home/selim/working/ChibiOS/os/hal/ports/STM32/LLD/TIMv1/st_lld.h"
 593              		.loc 3 129 0
 594 0002 4FF08041 		mov	r1, #1073741824
 595              	.LBE64:
 596              	.LBE63:
 597              	.LBE62:
 598              	.LBE61:
 599              		.loc 1 279 0
 600 0006 D36B     		ldr	r3, [r2, #60]
 601              		.loc 1 277 0
 602 0008 10B4     		push	{r4}
 603              		.cfi_def_cfa_offset 4
 604              		.cfi_offset 4, -4
 605              	.LBB68:
 606              	.LBB67:
 607              	.LBB66:
 608              	.LBB65:
 609              		.loc 3 129 0
 610 000a 4C6A     		ldr	r4, [r1, #36]
 611              	.LBE65:
 612              	.LBE66:
 613              	.LBE67:
 614              	.LBE68:
 615              		.loc 1 280 0
 616 000c 9169     		ldr	r1, [r2, #24]
 617 000e 5960     		str	r1, [r3, #4]
 618              		.loc 1 279 0
 619 0010 1C60     		str	r4, [r3]
 620              		.loc 1 281 0
 621 0012 416A     		ldr	r1, [r0, #36]
 622 0014 9960     		str	r1, [r3, #8]
 623              		.loc 1 282 0
 624 0016 90F82010 		ldrb	r1, [r0, #32]	@ zero_extendqisi2
 625 001a 1973     		strb	r1, [r3, #12]
 626              		.loc 1 283 0
 627 001c 1033     		adds	r3, r3, #16
ARM GAS  /tmp/ccdUMlxU.s 			page 12


 628 001e 02F58861 		add	r1, r2, #1088
 629 0022 8B42     		cmp	r3, r1
 630              		.loc 1 285 0
 631 0024 28BF     		it	cs
 632 0026 02F14003 		addcs	r3, r2, #64
 633 002a D363     		str	r3, [r2, #60]
 634              		.loc 1 287 0
 635 002c 10BC     		pop	{r4}
 636              		.cfi_restore 4
 637              		.cfi_def_cfa_offset 0
 638 002e 7047     		bx	lr
 639              	.L84:
 640              		.align	2
 641              	.L83:
 642 0030 00000000 		.word	ch
 643              		.cfi_endproc
 644              	.LFE239:
 645              		.size	_dbg_trace, .-_dbg_trace
 646              		.section	.rodata.str1.4,"aMS",%progbits,1
 647              		.align	2
 648              	.LC0:
 649 0000 53562331 		.ascii	"SV#1\000"
 649      00
 650 0005 000000   		.space	3
 651              	.LC1:
 652 0008 53562332 		.ascii	"SV#2\000"
 652      00
 653 000d 000000   		.space	3
 654              	.LC2:
 655 0010 53562333 		.ascii	"SV#3\000"
 655      00
 656 0015 000000   		.space	3
 657              	.LC3:
 658 0018 53562334 		.ascii	"SV#4\000"
 658      00
 659 001d 000000   		.space	3
 660              	.LC4:
 661 0020 53562335 		.ascii	"SV#5\000"
 661      00
 662 0025 000000   		.space	3
 663              	.LC5:
 664 0028 53562336 		.ascii	"SV#6\000"
 664      00
 665 002d 000000   		.space	3
 666              	.LC6:
 667 0030 53562337 		.ascii	"SV#7\000"
 667      00
 668 0035 000000   		.space	3
 669              	.LC7:
 670 0038 53562338 		.ascii	"SV#8\000"
 670      00
 671 003d 000000   		.space	3
 672              	.LC8:
 673 0040 53562339 		.ascii	"SV#9\000"
 673      00
 674 0045 000000   		.space	3
 675              	.LC9:
ARM GAS  /tmp/ccdUMlxU.s 			page 13


 676 0048 53562331 		.ascii	"SV#10\000"
 676      3000
 677 004e 0000     		.space	2
 678              	.LC10:
 679 0050 53562331 		.ascii	"SV#11\000"
 679      3100
 680              		.text
 681              	.Letext0:
 682              		.file 4 "/usr/arm-none-eabi/include/machine/_default_types.h"
 683              		.file 5 "/usr/arm-none-eabi/include/sys/_stdint.h"
 684              		.file 6 "/home/selim/working/ChibiOS/os/rt/ports/ARMCMx/compilers/GCC/chtypes.h"
 685              		.file 7 "/home/selim/working/ChibiOS/os/rt/include/chsystypes.h"
 686              		.file 8 "/home/selim/working/ChibiOS/os/rt/include/chschd.h"
 687              		.file 9 "/home/selim/working/ChibiOS/os/rt/ports/ARMCMx/chcore.h"
 688              		.file 10 "/home/selim/working/ChibiOS/os/rt/ports/ARMCMx/chcore_v7m.h"
 689              		.file 11 "/home/selim/working/ChibiOS/os/hal/ports/STM32/LLD/TIMv1/stm32_tim.h"
 690              		.file 12 "/home/selim/working/ChibiOS/os/rt/include/chdebug.h"
 691              		.file 13 "/home/selim/working/ChibiOS/os/rt/include/chtm.h"
 692              		.file 14 "/home/selim/working/ChibiOS/os/rt/include/chstats.h"
 693              		.file 15 "/home/selim/working/ChibiOS/os/rt/include/chsem.h"
 694              		.file 16 "/home/selim/working/ChibiOS/os/rt/include/chmtx.h"
 695              		.file 17 "/home/selim/working/ChibiOS/os/rt/ports/ARMCMx/chcore_timer.h"
 696              		.file 18 "/home/selim/working/ChibiOS/os/rt/include/chvt.h"
 697              		.file 19 "/home/selim/working/ChibiOS/os/ext/CMSIS/include/core_cm4.h"
 698              		.file 20 "/home/selim/working/ChibiOS/os/rt/include/chsys.h"
 699              		.section	.debug_info,"",%progbits
 700              	.Ldebug_info0:
 701 0000 A00C0000 		.4byte	0xca0
 702 0004 0400     		.2byte	0x4
 703 0006 00000000 		.4byte	.Ldebug_abbrev0
 704 000a 04       		.byte	0x4
 705 000b 01       		.uleb128 0x1
 706 000c F9040000 		.4byte	.LASF159
 707 0010 0C       		.byte	0xc
 708 0011 A3030000 		.4byte	.LASF160
 709 0015 18000000 		.4byte	.Ldebug_ranges0+0x18
 710 0019 00000000 		.4byte	0
 711 001d 00000000 		.4byte	.Ldebug_line0
 712 0021 02       		.uleb128 0x2
 713 0022 04       		.byte	0x4
 714 0023 05       		.byte	0x5
 715 0024 696E7400 		.ascii	"int\000"
 716 0028 03       		.uleb128 0x3
 717 0029 04       		.byte	0x4
 718 002a 07       		.byte	0x7
 719 002b 55020000 		.4byte	.LASF0
 720 002f 03       		.uleb128 0x3
 721 0030 08       		.byte	0x8
 722 0031 05       		.byte	0x5
 723 0032 97010000 		.4byte	.LASF1
 724 0036 03       		.uleb128 0x3
 725 0037 08       		.byte	0x8
 726 0038 04       		.byte	0x4
 727 0039 97030000 		.4byte	.LASF2
 728 003d 03       		.uleb128 0x3
 729 003e 01       		.byte	0x1
 730 003f 06       		.byte	0x6
ARM GAS  /tmp/ccdUMlxU.s 			page 14


 731 0040 2F010000 		.4byte	.LASF3
 732 0044 04       		.uleb128 0x4
 733 0045 3C000000 		.4byte	.LASF7
 734 0049 04       		.byte	0x4
 735 004a 1D       		.byte	0x1d
 736 004b 4F000000 		.4byte	0x4f
 737 004f 03       		.uleb128 0x3
 738 0050 01       		.byte	0x1
 739 0051 08       		.byte	0x8
 740 0052 B0040000 		.4byte	.LASF4
 741 0056 03       		.uleb128 0x3
 742 0057 02       		.byte	0x2
 743 0058 05       		.byte	0x5
 744 0059 D8040000 		.4byte	.LASF5
 745 005d 03       		.uleb128 0x3
 746 005e 02       		.byte	0x2
 747 005f 07       		.byte	0x7
 748 0060 B5010000 		.4byte	.LASF6
 749 0064 04       		.uleb128 0x4
 750 0065 DB000000 		.4byte	.LASF8
 751 0069 04       		.byte	0x4
 752 006a 3F       		.byte	0x3f
 753 006b 6F000000 		.4byte	0x6f
 754 006f 03       		.uleb128 0x3
 755 0070 04       		.byte	0x4
 756 0071 05       		.byte	0x5
 757 0072 7A010000 		.4byte	.LASF9
 758 0076 04       		.uleb128 0x4
 759 0077 C7060000 		.4byte	.LASF10
 760 007b 04       		.byte	0x4
 761 007c 41       		.byte	0x41
 762 007d 81000000 		.4byte	0x81
 763 0081 03       		.uleb128 0x3
 764 0082 04       		.byte	0x4
 765 0083 07       		.byte	0x7
 766 0084 63060000 		.4byte	.LASF11
 767 0088 04       		.uleb128 0x4
 768 0089 45040000 		.4byte	.LASF12
 769 008d 04       		.byte	0x4
 770 008e 5B       		.byte	0x5b
 771 008f 93000000 		.4byte	0x93
 772 0093 03       		.uleb128 0x3
 773 0094 08       		.byte	0x8
 774 0095 07       		.byte	0x7
 775 0096 95000000 		.4byte	.LASF13
 776 009a 04       		.uleb128 0x4
 777 009b 83070000 		.4byte	.LASF14
 778 009f 05       		.byte	0x5
 779 00a0 14       		.byte	0x14
 780 00a1 44000000 		.4byte	0x44
 781 00a5 04       		.uleb128 0x4
 782 00a6 A8040000 		.4byte	.LASF15
 783 00aa 05       		.byte	0x5
 784 00ab 1F       		.byte	0x1f
 785 00ac 64000000 		.4byte	0x64
 786 00b0 04       		.uleb128 0x4
 787 00b1 32060000 		.4byte	.LASF16
ARM GAS  /tmp/ccdUMlxU.s 			page 15


 788 00b5 05       		.byte	0x5
 789 00b6 20       		.byte	0x20
 790 00b7 76000000 		.4byte	0x76
 791 00bb 04       		.uleb128 0x4
 792 00bc 26000000 		.4byte	.LASF17
 793 00c0 05       		.byte	0x5
 794 00c1 26       		.byte	0x26
 795 00c2 88000000 		.4byte	0x88
 796 00c6 05       		.uleb128 0x5
 797 00c7 A5000000 		.4byte	0xa5
 798 00cb 05       		.uleb128 0x5
 799 00cc B0000000 		.4byte	0xb0
 800 00d0 04       		.uleb128 0x4
 801 00d1 18070000 		.4byte	.LASF18
 802 00d5 06       		.byte	0x6
 803 00d6 46       		.byte	0x46
 804 00d7 B0000000 		.4byte	0xb0
 805 00db 04       		.uleb128 0x4
 806 00dc 0D010000 		.4byte	.LASF19
 807 00e0 06       		.byte	0x6
 808 00e1 47       		.byte	0x47
 809 00e2 BB000000 		.4byte	0xbb
 810 00e6 04       		.uleb128 0x4
 811 00e7 BA070000 		.4byte	.LASF20
 812 00eb 06       		.byte	0x6
 813 00ec 49       		.byte	0x49
 814 00ed 9A000000 		.4byte	0x9a
 815 00f1 04       		.uleb128 0x4
 816 00f2 83010000 		.4byte	.LASF21
 817 00f6 06       		.byte	0x6
 818 00f7 4A       		.byte	0x4a
 819 00f8 9A000000 		.4byte	0x9a
 820 00fc 04       		.uleb128 0x4
 821 00fd 5B040000 		.4byte	.LASF22
 822 0101 06       		.byte	0x6
 823 0102 4B       		.byte	0x4b
 824 0103 9A000000 		.4byte	0x9a
 825 0107 04       		.uleb128 0x4
 826 0108 97040000 		.4byte	.LASF23
 827 010c 06       		.byte	0x6
 828 010d 4D       		.byte	0x4d
 829 010e B0000000 		.4byte	0xb0
 830 0112 04       		.uleb128 0x4
 831 0113 BB020000 		.4byte	.LASF24
 832 0117 06       		.byte	0x6
 833 0118 4E       		.byte	0x4e
 834 0119 A5000000 		.4byte	0xa5
 835 011d 04       		.uleb128 0x4
 836 011e 20030000 		.4byte	.LASF25
 837 0122 06       		.byte	0x6
 838 0123 50       		.byte	0x50
 839 0124 B0000000 		.4byte	0xb0
 840 0128 04       		.uleb128 0x4
 841 0129 31020000 		.4byte	.LASF26
 842 012d 06       		.byte	0x6
 843 012e 52       		.byte	0x52
 844 012f A5000000 		.4byte	0xa5
ARM GAS  /tmp/ccdUMlxU.s 			page 16


 845 0133 04       		.uleb128 0x4
 846 0134 C6020000 		.4byte	.LASF27
 847 0138 06       		.byte	0x6
 848 0139 53       		.byte	0x53
 849 013a B0000000 		.4byte	0xb0
 850 013e 04       		.uleb128 0x4
 851 013f A9060000 		.4byte	.LASF28
 852 0143 07       		.byte	0x7
 853 0144 33       		.byte	0x33
 854 0145 B0000000 		.4byte	0xb0
 855 0149 04       		.uleb128 0x4
 856 014a 94060000 		.4byte	.LASF29
 857 014e 07       		.byte	0x7
 858 014f 3F       		.byte	0x3f
 859 0150 54010000 		.4byte	0x154
 860 0154 06       		.uleb128 0x6
 861 0155 B1020000 		.4byte	.LASF51
 862 0159 60       		.byte	0x60
 863 015a 08       		.byte	0x8
 864 015b C2       		.byte	0xc2
 865 015c 5A020000 		.4byte	0x25a
 866 0160 07       		.uleb128 0x7
 867 0161 DA050000 		.4byte	.LASF30
 868 0165 08       		.byte	0x8
 869 0166 C3       		.byte	0xc3
 870 0167 65020000 		.4byte	0x265
 871 016b 00       		.byte	0
 872 016c 07       		.uleb128 0x7
 873 016d 90040000 		.4byte	.LASF31
 874 0171 08       		.byte	0x8
 875 0172 C5       		.byte	0xc5
 876 0173 65020000 		.4byte	0x265
 877 0177 04       		.byte	0x4
 878 0178 07       		.uleb128 0x7
 879 0179 16010000 		.4byte	.LASF32
 880 017d 08       		.byte	0x8
 881 017e C7       		.byte	0xc7
 882 017f 07010000 		.4byte	0x107
 883 0183 08       		.byte	0x8
 884 0184 07       		.uleb128 0x7
 885 0185 F2070000 		.4byte	.LASF33
 886 0189 08       		.byte	0x8
 887 018a C8       		.byte	0xc8
 888 018b EE040000 		.4byte	0x4ee
 889 018f 0C       		.byte	0xc
 890 0190 07       		.uleb128 0x7
 891 0191 A5010000 		.4byte	.LASF34
 892 0195 08       		.byte	0x8
 893 0196 CA       		.byte	0xca
 894 0197 65020000 		.4byte	0x265
 895 019b 10       		.byte	0x10
 896 019c 07       		.uleb128 0x7
 897 019d EA040000 		.4byte	.LASF35
 898 01a1 08       		.byte	0x8
 899 01a2 CB       		.byte	0xcb
 900 01a3 65020000 		.4byte	0x265
 901 01a7 14       		.byte	0x14
ARM GAS  /tmp/ccdUMlxU.s 			page 17


 902 01a8 07       		.uleb128 0x7
 903 01a9 A4070000 		.4byte	.LASF36
 904 01ad 08       		.byte	0x8
 905 01ae D2       		.byte	0xd2
 906 01af B4080000 		.4byte	0x8b4
 907 01b3 18       		.byte	0x18
 908 01b4 07       		.uleb128 0x7
 909 01b5 4A020000 		.4byte	.LASF37
 910 01b9 08       		.byte	0x8
 911 01ba D8       		.byte	0xd8
 912 01bb C6080000 		.4byte	0x8c6
 913 01bf 1C       		.byte	0x1c
 914 01c0 07       		.uleb128 0x7
 915 01c1 E2040000 		.4byte	.LASF38
 916 01c5 08       		.byte	0x8
 917 01c6 DD       		.byte	0xdd
 918 01c7 F1000000 		.4byte	0xf1
 919 01cb 20       		.byte	0x20
 920 01cc 07       		.uleb128 0x7
 921 01cd E1050000 		.4byte	.LASF39
 922 01d1 08       		.byte	0x8
 923 01d2 E1       		.byte	0xe1
 924 01d3 E6000000 		.4byte	0xe6
 925 01d7 21       		.byte	0x21
 926 01d8 07       		.uleb128 0x7
 927 01d9 6E070000 		.4byte	.LASF40
 928 01dd 08       		.byte	0x8
 929 01de E6       		.byte	0xe6
 930 01df FC000000 		.4byte	0xfc
 931 01e3 22       		.byte	0x22
 932 01e4 08       		.uleb128 0x8
 933 01e5 705F7500 		.ascii	"p_u\000"
 934 01e9 08       		.byte	0x8
 935 01ea 3101     		.2byte	0x131
 936 01ec EF070000 		.4byte	0x7ef
 937 01f0 24       		.byte	0x24
 938 01f1 09       		.uleb128 0x9
 939 01f2 4A030000 		.4byte	.LASF41
 940 01f6 08       		.byte	0x8
 941 01f7 3601     		.2byte	0x136
 942 01f9 6B020000 		.4byte	0x26b
 943 01fd 28       		.byte	0x28
 944 01fe 09       		.uleb128 0x9
 945 01ff 86020000 		.4byte	.LASF42
 946 0203 08       		.byte	0x8
 947 0204 3C01     		.2byte	0x13c
 948 0206 8F020000 		.4byte	0x28f
 949 020a 2C       		.byte	0x2c
 950 020b 09       		.uleb128 0x9
 951 020c CF070000 		.4byte	.LASF43
 952 0210 08       		.byte	0x8
 953 0211 4001     		.2byte	0x140
 954 0213 12010000 		.4byte	0x112
 955 0217 34       		.byte	0x34
 956 0218 09       		.uleb128 0x9
 957 0219 14060000 		.4byte	.LASF44
 958 021d 08       		.byte	0x8
ARM GAS  /tmp/ccdUMlxU.s 			page 18


 959 021e 4601     		.2byte	0x146
 960 0220 1D010000 		.4byte	0x11d
 961 0224 38       		.byte	0x38
 962 0225 09       		.uleb128 0x9
 963 0226 CE040000 		.4byte	.LASF45
 964 022a 08       		.byte	0x8
 965 022b 4D01     		.2byte	0x14d
 966 022d AE080000 		.4byte	0x8ae
 967 0231 3C       		.byte	0x3c
 968 0232 09       		.uleb128 0x9
 969 0233 B3060000 		.4byte	.LASF46
 970 0237 08       		.byte	0x8
 971 0238 5101     		.2byte	0x151
 972 023a 07010000 		.4byte	0x107
 973 023e 40       		.byte	0x40
 974 023f 09       		.uleb128 0x9
 975 0240 D8010000 		.4byte	.LASF47
 976 0244 08       		.byte	0x8
 977 0245 5801     		.2byte	0x158
 978 0247 42030000 		.4byte	0x342
 979 024b 44       		.byte	0x44
 980 024c 09       		.uleb128 0x9
 981 024d E9050000 		.4byte	.LASF48
 982 0251 08       		.byte	0x8
 983 0252 5E01     		.2byte	0x15e
 984 0254 A0070000 		.4byte	0x7a0
 985 0258 48       		.byte	0x48
 986 0259 00       		.byte	0
 987 025a 04       		.uleb128 0x4
 988 025b 5D030000 		.4byte	.LASF49
 989 025f 07       		.byte	0x7
 990 0260 44       		.byte	0x44
 991 0261 65020000 		.4byte	0x265
 992 0265 0A       		.uleb128 0xa
 993 0266 04       		.byte	0x4
 994 0267 49010000 		.4byte	0x149
 995 026b 04       		.uleb128 0x4
 996 026c AB070000 		.4byte	.LASF50
 997 0270 07       		.byte	0x7
 998 0271 49       		.byte	0x49
 999 0272 76020000 		.4byte	0x276
 1000 0276 06       		.uleb128 0x6
 1001 0277 53060000 		.4byte	.LASF52
 1002 027b 04       		.byte	0x4
 1003 027c 08       		.byte	0x8
 1004 027d B0       		.byte	0xb0
 1005 027e 8F020000 		.4byte	0x28f
 1006 0282 07       		.uleb128 0x7
 1007 0283 DA050000 		.4byte	.LASF30
 1008 0287 08       		.byte	0x8
 1009 0288 B1       		.byte	0xb1
 1010 0289 65020000 		.4byte	0x265
 1011 028d 00       		.byte	0
 1012 028e 00       		.byte	0
 1013 028f 04       		.uleb128 0x4
 1014 0290 55070000 		.4byte	.LASF53
 1015 0294 07       		.byte	0x7
ARM GAS  /tmp/ccdUMlxU.s 			page 19


 1016 0295 50       		.byte	0x50
 1017 0296 9A020000 		.4byte	0x29a
 1018 029a 06       		.uleb128 0x6
 1019 029b 52000000 		.4byte	.LASF54
 1020 029f 08       		.byte	0x8
 1021 02a0 08       		.byte	0x8
 1022 02a1 B7       		.byte	0xb7
 1023 02a2 BF020000 		.4byte	0x2bf
 1024 02a6 07       		.uleb128 0x7
 1025 02a7 DA050000 		.4byte	.LASF30
 1026 02ab 08       		.byte	0x8
 1027 02ac B8       		.byte	0xb8
 1028 02ad 65020000 		.4byte	0x265
 1029 02b1 00       		.byte	0
 1030 02b2 07       		.uleb128 0x7
 1031 02b3 90040000 		.4byte	.LASF31
 1032 02b7 08       		.byte	0x8
 1033 02b8 B9       		.byte	0xb9
 1034 02b9 65020000 		.4byte	0x265
 1035 02bd 04       		.byte	0x4
 1036 02be 00       		.byte	0
 1037 02bf 04       		.uleb128 0x4
 1038 02c0 07000000 		.4byte	.LASF55
 1039 02c4 07       		.byte	0x7
 1040 02c5 57       		.byte	0x57
 1041 02c6 CA020000 		.4byte	0x2ca
 1042 02ca 0B       		.uleb128 0xb
 1043 02cb 12030000 		.4byte	.LASF56
 1044 02cf 1C       		.byte	0x1c
 1045 02d0 08       		.byte	0x8
 1046 02d1 9001     		.2byte	0x190
 1047 02d3 26030000 		.4byte	0x326
 1048 02d7 09       		.uleb128 0x9
 1049 02d8 42060000 		.4byte	.LASF57
 1050 02dc 08       		.byte	0x8
 1051 02dd 9101     		.2byte	0x191
 1052 02df 8F020000 		.4byte	0x28f
 1053 02e3 00       		.byte	0
 1054 02e4 09       		.uleb128 0x9
 1055 02e5 F2040000 		.4byte	.LASF58
 1056 02e9 08       		.byte	0x8
 1057 02ea 9201     		.2byte	0x192
 1058 02ec 07010000 		.4byte	0x107
 1059 02f0 08       		.byte	0x8
 1060 02f1 09       		.uleb128 0x9
 1061 02f2 03040000 		.4byte	.LASF59
 1062 02f6 08       		.byte	0x8
 1063 02f7 9401     		.2byte	0x194
 1064 02f9 EE040000 		.4byte	0x4ee
 1065 02fd 0C       		.byte	0xc
 1066 02fe 09       		.uleb128 0x9
 1067 02ff D0010000 		.4byte	.LASF60
 1068 0303 08       		.byte	0x8
 1069 0304 9701     		.2byte	0x197
 1070 0306 65020000 		.4byte	0x265
 1071 030a 10       		.byte	0x10
 1072 030b 09       		.uleb128 0x9
ARM GAS  /tmp/ccdUMlxU.s 			page 20


 1073 030c 24040000 		.4byte	.LASF61
 1074 0310 08       		.byte	0x8
 1075 0311 9801     		.2byte	0x198
 1076 0313 65020000 		.4byte	0x265
 1077 0317 14       		.byte	0x14
 1078 0318 09       		.uleb128 0x9
 1079 0319 1A040000 		.4byte	.LASF62
 1080 031d 08       		.byte	0x8
 1081 031e 9B01     		.2byte	0x19b
 1082 0320 65020000 		.4byte	0x265
 1083 0324 18       		.byte	0x18
 1084 0325 00       		.byte	0
 1085 0326 04       		.uleb128 0x4
 1086 0327 BE060000 		.4byte	.LASF63
 1087 032b 07       		.byte	0x7
 1088 032c 5C       		.byte	0x5c
 1089 032d 31030000 		.4byte	0x331
 1090 0331 0A       		.uleb128 0xa
 1091 0332 04       		.byte	0x4
 1092 0333 37030000 		.4byte	0x337
 1093 0337 0C       		.uleb128 0xc
 1094 0338 42030000 		.4byte	0x342
 1095 033c 0D       		.uleb128 0xd
 1096 033d 42030000 		.4byte	0x342
 1097 0341 00       		.byte	0
 1098 0342 0E       		.uleb128 0xe
 1099 0343 04       		.byte	0x4
 1100 0344 04       		.uleb128 0x4
 1101 0345 80040000 		.4byte	.LASF64
 1102 0349 07       		.byte	0x7
 1103 034a 61       		.byte	0x61
 1104 034b 4F030000 		.4byte	0x34f
 1105 034f 0B       		.uleb128 0xb
 1106 0350 F1050000 		.4byte	.LASF65
 1107 0354 14       		.byte	0x14
 1108 0355 08       		.byte	0x8
 1109 0356 6B01     		.2byte	0x16b
 1110 0358 9E030000 		.4byte	0x39e
 1111 035c 09       		.uleb128 0x9
 1112 035d 62020000 		.4byte	.LASF66
 1113 0361 08       		.byte	0x8
 1114 0362 6C01     		.2byte	0x16c
 1115 0364 CC080000 		.4byte	0x8cc
 1116 0368 00       		.byte	0
 1117 0369 09       		.uleb128 0x9
 1118 036a E9010000 		.4byte	.LASF67
 1119 036e 08       		.byte	0x8
 1120 036f 6D01     		.2byte	0x16d
 1121 0371 CC080000 		.4byte	0x8cc
 1122 0375 04       		.byte	0x4
 1123 0376 09       		.uleb128 0x9
 1124 0377 4A060000 		.4byte	.LASF68
 1125 037b 08       		.byte	0x8
 1126 037c 6E01     		.2byte	0x16e
 1127 037e 3E010000 		.4byte	0x13e
 1128 0382 08       		.byte	0x8
 1129 0383 09       		.uleb128 0x9
ARM GAS  /tmp/ccdUMlxU.s 			page 21


 1130 0384 F8070000 		.4byte	.LASF69
 1131 0388 08       		.byte	0x8
 1132 0389 6F01     		.2byte	0x16f
 1133 038b 26030000 		.4byte	0x326
 1134 038f 0C       		.byte	0xc
 1135 0390 09       		.uleb128 0x9
 1136 0391 33070000 		.4byte	.LASF70
 1137 0395 08       		.byte	0x8
 1138 0396 7101     		.2byte	0x171
 1139 0398 42030000 		.4byte	0x342
 1140 039c 10       		.byte	0x10
 1141 039d 00       		.byte	0
 1142 039e 04       		.uleb128 0x4
 1143 039f E5000000 		.4byte	.LASF71
 1144 03a3 07       		.byte	0x7
 1145 03a4 66       		.byte	0x66
 1146 03a5 A9030000 		.4byte	0x3a9
 1147 03a9 0B       		.uleb128 0xb
 1148 03aa 80030000 		.4byte	.LASF72
 1149 03ae 10       		.byte	0x10
 1150 03af 08       		.byte	0x8
 1151 03b0 7B01     		.2byte	0x17b
 1152 03b2 EB030000 		.4byte	0x3eb
 1153 03b6 09       		.uleb128 0x9
 1154 03b7 62020000 		.4byte	.LASF66
 1155 03bb 08       		.byte	0x8
 1156 03bc 7C01     		.2byte	0x17c
 1157 03be CC080000 		.4byte	0x8cc
 1158 03c2 00       		.byte	0
 1159 03c3 09       		.uleb128 0x9
 1160 03c4 E9010000 		.4byte	.LASF67
 1161 03c8 08       		.byte	0x8
 1162 03c9 7E01     		.2byte	0x17e
 1163 03cb CC080000 		.4byte	0x8cc
 1164 03cf 04       		.byte	0x4
 1165 03d0 09       		.uleb128 0x9
 1166 03d1 4A060000 		.4byte	.LASF68
 1167 03d5 08       		.byte	0x8
 1168 03d6 8001     		.2byte	0x180
 1169 03d8 3E010000 		.4byte	0x13e
 1170 03dc 08       		.byte	0x8
 1171 03dd 09       		.uleb128 0x9
 1172 03de E2030000 		.4byte	.LASF73
 1173 03e2 08       		.byte	0x8
 1174 03e3 8801     		.2byte	0x188
 1175 03e5 3E010000 		.4byte	0x13e
 1176 03e9 0C       		.byte	0xc
 1177 03ea 00       		.byte	0
 1178 03eb 04       		.uleb128 0x4
 1179 03ec 63000000 		.4byte	.LASF74
 1180 03f0 07       		.byte	0x7
 1181 03f1 6B       		.byte	0x6b
 1182 03f2 F6030000 		.4byte	0x3f6
 1183 03f6 0F       		.uleb128 0xf
 1184 03f7 FB010000 		.4byte	.LASF75
 1185 03fb 1404     		.2byte	0x414
 1186 03fd 08       		.byte	0x8
ARM GAS  /tmp/ccdUMlxU.s 			page 22


 1187 03fe A201     		.2byte	0x1a2
 1188 0400 39040000 		.4byte	0x439
 1189 0404 09       		.uleb128 0x9
 1190 0405 E0060000 		.4byte	.LASF76
 1191 0409 08       		.byte	0x8
 1192 040a AA01     		.2byte	0x1aa
 1193 040c D2080000 		.4byte	0x8d2
 1194 0410 00       		.byte	0
 1195 0411 09       		.uleb128 0x9
 1196 0412 75070000 		.4byte	.LASF77
 1197 0416 08       		.byte	0x8
 1198 0417 AF01     		.2byte	0x1af
 1199 0419 28010000 		.4byte	0x128
 1200 041d 04       		.byte	0x4
 1201 041e 09       		.uleb128 0x9
 1202 041f 19020000 		.4byte	.LASF78
 1203 0423 08       		.byte	0x8
 1204 0424 B301     		.2byte	0x1b3
 1205 0426 28010000 		.4byte	0x128
 1206 042a 08       		.byte	0x8
 1207 042b 09       		.uleb128 0x9
 1208 042c C2070000 		.4byte	.LASF79
 1209 0430 08       		.byte	0x8
 1210 0431 B901     		.2byte	0x1b9
 1211 0433 32070000 		.4byte	0x732
 1212 0437 0C       		.byte	0xc
 1213 0438 00       		.byte	0
 1214 0439 04       		.uleb128 0x4
 1215 043a DE020000 		.4byte	.LASF80
 1216 043e 07       		.byte	0x7
 1217 043f 70       		.byte	0x70
 1218 0440 44040000 		.4byte	0x444
 1219 0444 0F       		.uleb128 0xf
 1220 0445 70010000 		.4byte	.LASF81
 1221 0449 D805     		.2byte	0x5d8
 1222 044b 08       		.byte	0x8
 1223 044c C201     		.2byte	0x1c2
 1224 044e B1040000 		.4byte	0x4b1
 1225 0452 09       		.uleb128 0x9
 1226 0453 7D070000 		.4byte	.LASF82
 1227 0457 08       		.byte	0x8
 1228 0458 C601     		.2byte	0x1c6
 1229 045a BF020000 		.4byte	0x2bf
 1230 045e 00       		.byte	0
 1231 045f 09       		.uleb128 0x9
 1232 0460 4B010000 		.4byte	.LASF83
 1233 0464 08       		.byte	0x8
 1234 0465 CA01     		.2byte	0x1ca
 1235 0467 9E030000 		.4byte	0x39e
 1236 046b 1C       		.byte	0x1c
 1237 046c 08       		.uleb128 0x8
 1238 046d 64626700 		.ascii	"dbg\000"
 1239 0471 08       		.byte	0x8
 1240 0472 CE01     		.2byte	0x1ce
 1241 0474 EB030000 		.4byte	0x3eb
 1242 0478 2C       		.byte	0x2c
 1243 0479 10       		.uleb128 0x10
ARM GAS  /tmp/ccdUMlxU.s 			page 23


 1244 047a D0000000 		.4byte	.LASF84
 1245 047e 08       		.byte	0x8
 1246 047f D201     		.2byte	0x1d2
 1247 0481 49010000 		.4byte	0x149
 1248 0485 4004     		.2byte	0x440
 1249 0487 11       		.uleb128 0x11
 1250 0488 746D00   		.ascii	"tm\000"
 1251 048b 08       		.byte	0x8
 1252 048c D701     		.2byte	0x1d7
 1253 048e 52070000 		.4byte	0x752
 1254 0492 A004     		.2byte	0x4a0
 1255 0494 10       		.uleb128 0x10
 1256 0495 2F000000 		.4byte	.LASF85
 1257 0499 08       		.byte	0x8
 1258 049a DD01     		.2byte	0x1dd
 1259 049c E4070000 		.4byte	0x7e4
 1260 04a0 A804     		.2byte	0x4a8
 1261 04a2 10       		.uleb128 0x10
 1262 04a3 22020000 		.4byte	.LASF86
 1263 04a7 08       		.byte	0x8
 1264 04a8 E301     		.2byte	0x1e3
 1265 04aa D7080000 		.4byte	0x8d7
 1266 04ae E004     		.2byte	0x4e0
 1267 04b0 00       		.byte	0
 1268 04b1 03       		.uleb128 0x3
 1269 04b2 04       		.byte	0x4
 1270 04b3 07       		.byte	0x7
 1271 04b4 54030000 		.4byte	.LASF87
 1272 04b8 12       		.uleb128 0x12
 1273 04b9 CB000000 		.4byte	0xcb
 1274 04bd C8040000 		.4byte	0x4c8
 1275 04c1 13       		.uleb128 0x13
 1276 04c2 B1040000 		.4byte	0x4b1
 1277 04c6 01       		.byte	0x1
 1278 04c7 00       		.byte	0
 1279 04c8 12       		.uleb128 0x12
 1280 04c9 CB000000 		.4byte	0xcb
 1281 04cd D8040000 		.4byte	0x4d8
 1282 04d1 13       		.uleb128 0x13
 1283 04d2 B1040000 		.4byte	0x4b1
 1284 04d6 03       		.byte	0x3
 1285 04d7 00       		.byte	0
 1286 04d8 04       		.uleb128 0x4
 1287 04d9 E0010000 		.4byte	.LASF88
 1288 04dd 09       		.byte	0x9
 1289 04de 65       		.byte	0x65
 1290 04df 42030000 		.4byte	0x342
 1291 04e3 04       		.uleb128 0x4
 1292 04e4 2C030000 		.4byte	.LASF89
 1293 04e8 09       		.byte	0x9
 1294 04e9 6D       		.byte	0x6d
 1295 04ea BB000000 		.4byte	0xbb
 1296 04ee 06       		.uleb128 0x6
 1297 04ef F1060000 		.4byte	.LASF90
 1298 04f3 04       		.byte	0x4
 1299 04f4 09       		.byte	0x9
 1300 04f5 89       		.byte	0x89
ARM GAS  /tmp/ccdUMlxU.s 			page 24


 1301 04f6 07050000 		.4byte	0x507
 1302 04fa 14       		.uleb128 0x14
 1303 04fb 72313300 		.ascii	"r13\000"
 1304 04ff 09       		.byte	0x9
 1305 0500 8A       		.byte	0x8a
 1306 0501 82050000 		.4byte	0x582
 1307 0505 00       		.byte	0
 1308 0506 00       		.byte	0
 1309 0507 06       		.uleb128 0x6
 1310 0508 46000000 		.4byte	.LASF91
 1311 050c 24       		.byte	0x24
 1312 050d 0A       		.byte	0xa
 1313 050e F4       		.byte	0xf4
 1314 050f 82050000 		.4byte	0x582
 1315 0513 08       		.uleb128 0x8
 1316 0514 723400   		.ascii	"r4\000"
 1317 0517 0A       		.byte	0xa
 1318 0518 0701     		.2byte	0x107
 1319 051a D8040000 		.4byte	0x4d8
 1320 051e 00       		.byte	0
 1321 051f 08       		.uleb128 0x8
 1322 0520 723500   		.ascii	"r5\000"
 1323 0523 0A       		.byte	0xa
 1324 0524 0801     		.2byte	0x108
 1325 0526 D8040000 		.4byte	0x4d8
 1326 052a 04       		.byte	0x4
 1327 052b 08       		.uleb128 0x8
 1328 052c 723600   		.ascii	"r6\000"
 1329 052f 0A       		.byte	0xa
 1330 0530 0901     		.2byte	0x109
 1331 0532 D8040000 		.4byte	0x4d8
 1332 0536 08       		.byte	0x8
 1333 0537 08       		.uleb128 0x8
 1334 0538 723700   		.ascii	"r7\000"
 1335 053b 0A       		.byte	0xa
 1336 053c 0A01     		.2byte	0x10a
 1337 053e D8040000 		.4byte	0x4d8
 1338 0542 0C       		.byte	0xc
 1339 0543 08       		.uleb128 0x8
 1340 0544 723800   		.ascii	"r8\000"
 1341 0547 0A       		.byte	0xa
 1342 0548 0B01     		.2byte	0x10b
 1343 054a D8040000 		.4byte	0x4d8
 1344 054e 10       		.byte	0x10
 1345 054f 08       		.uleb128 0x8
 1346 0550 723900   		.ascii	"r9\000"
 1347 0553 0A       		.byte	0xa
 1348 0554 0C01     		.2byte	0x10c
 1349 0556 D8040000 		.4byte	0x4d8
 1350 055a 14       		.byte	0x14
 1351 055b 08       		.uleb128 0x8
 1352 055c 72313000 		.ascii	"r10\000"
 1353 0560 0A       		.byte	0xa
 1354 0561 0D01     		.2byte	0x10d
 1355 0563 D8040000 		.4byte	0x4d8
 1356 0567 18       		.byte	0x18
 1357 0568 08       		.uleb128 0x8
ARM GAS  /tmp/ccdUMlxU.s 			page 25


 1358 0569 72313100 		.ascii	"r11\000"
 1359 056d 0A       		.byte	0xa
 1360 056e 0E01     		.2byte	0x10e
 1361 0570 D8040000 		.4byte	0x4d8
 1362 0574 1C       		.byte	0x1c
 1363 0575 08       		.uleb128 0x8
 1364 0576 6C7200   		.ascii	"lr\000"
 1365 0579 0A       		.byte	0xa
 1366 057a 0F01     		.2byte	0x10f
 1367 057c D8040000 		.4byte	0x4d8
 1368 0580 20       		.byte	0x20
 1369 0581 00       		.byte	0
 1370 0582 0A       		.uleb128 0xa
 1371 0583 04       		.byte	0x4
 1372 0584 07050000 		.4byte	0x507
 1373 0588 15       		.uleb128 0x15
 1374 0589 60       		.byte	0x60
 1375 058a 0B       		.byte	0xb
 1376 058b 9E01     		.2byte	0x19e
 1377 058d 94060000 		.4byte	0x694
 1378 0591 08       		.uleb128 0x8
 1379 0592 43523100 		.ascii	"CR1\000"
 1380 0596 0B       		.byte	0xb
 1381 0597 9F01     		.2byte	0x19f
 1382 0599 CB000000 		.4byte	0xcb
 1383 059d 00       		.byte	0
 1384 059e 08       		.uleb128 0x8
 1385 059f 43523200 		.ascii	"CR2\000"
 1386 05a3 0B       		.byte	0xb
 1387 05a4 A001     		.2byte	0x1a0
 1388 05a6 CB000000 		.4byte	0xcb
 1389 05aa 04       		.byte	0x4
 1390 05ab 09       		.uleb128 0x9
 1391 05ac 9D020000 		.4byte	.LASF92
 1392 05b0 0B       		.byte	0xb
 1393 05b1 A101     		.2byte	0x1a1
 1394 05b3 CB000000 		.4byte	0xcb
 1395 05b7 08       		.byte	0x8
 1396 05b8 09       		.uleb128 0x9
 1397 05b9 14000000 		.4byte	.LASF93
 1398 05bd 0B       		.byte	0xb
 1399 05be A201     		.2byte	0x1a2
 1400 05c0 CB000000 		.4byte	0xcb
 1401 05c4 0C       		.byte	0xc
 1402 05c5 08       		.uleb128 0x8
 1403 05c6 535200   		.ascii	"SR\000"
 1404 05c9 0B       		.byte	0xb
 1405 05ca A301     		.2byte	0x1a3
 1406 05cc CB000000 		.4byte	0xcb
 1407 05d0 10       		.byte	0x10
 1408 05d1 08       		.uleb128 0x8
 1409 05d2 45475200 		.ascii	"EGR\000"
 1410 05d6 0B       		.byte	0xb
 1411 05d7 A401     		.2byte	0x1a4
 1412 05d9 CB000000 		.4byte	0xcb
 1413 05dd 14       		.byte	0x14
 1414 05de 09       		.uleb128 0x9
ARM GAS  /tmp/ccdUMlxU.s 			page 26


 1415 05df 1D010000 		.4byte	.LASF94
 1416 05e3 0B       		.byte	0xb
 1417 05e4 A501     		.2byte	0x1a5
 1418 05e6 CB000000 		.4byte	0xcb
 1419 05ea 18       		.byte	0x18
 1420 05eb 09       		.uleb128 0x9
 1421 05ec 23010000 		.4byte	.LASF95
 1422 05f0 0B       		.byte	0xb
 1423 05f1 A601     		.2byte	0x1a6
 1424 05f3 CB000000 		.4byte	0xcb
 1425 05f7 1C       		.byte	0x1c
 1426 05f8 09       		.uleb128 0x9
 1427 05f9 8C010000 		.4byte	.LASF96
 1428 05fd 0B       		.byte	0xb
 1429 05fe A701     		.2byte	0x1a7
 1430 0600 CB000000 		.4byte	0xcb
 1431 0604 20       		.byte	0x20
 1432 0605 08       		.uleb128 0x8
 1433 0606 434E5400 		.ascii	"CNT\000"
 1434 060a 0B       		.byte	0xb
 1435 060b A801     		.2byte	0x1a8
 1436 060d CB000000 		.4byte	0xcb
 1437 0611 24       		.byte	0x24
 1438 0612 08       		.uleb128 0x8
 1439 0613 50534300 		.ascii	"PSC\000"
 1440 0617 0B       		.byte	0xb
 1441 0618 A901     		.2byte	0x1a9
 1442 061a CB000000 		.4byte	0xcb
 1443 061e 28       		.byte	0x28
 1444 061f 08       		.uleb128 0x8
 1445 0620 41525200 		.ascii	"ARR\000"
 1446 0624 0B       		.byte	0xb
 1447 0625 AA01     		.2byte	0x1aa
 1448 0627 CB000000 		.4byte	0xcb
 1449 062b 2C       		.byte	0x2c
 1450 062c 08       		.uleb128 0x8
 1451 062d 52435200 		.ascii	"RCR\000"
 1452 0631 0B       		.byte	0xb
 1453 0632 AB01     		.2byte	0x1ab
 1454 0634 CB000000 		.4byte	0xcb
 1455 0638 30       		.byte	0x30
 1456 0639 08       		.uleb128 0x8
 1457 063a 43435200 		.ascii	"CCR\000"
 1458 063e 0B       		.byte	0xb
 1459 063f AC01     		.2byte	0x1ac
 1460 0641 94060000 		.4byte	0x694
 1461 0645 34       		.byte	0x34
 1462 0646 09       		.uleb128 0x9
 1463 0647 08010000 		.4byte	.LASF97
 1464 064b 0B       		.byte	0xb
 1465 064c AD01     		.2byte	0x1ad
 1466 064e CB000000 		.4byte	0xcb
 1467 0652 44       		.byte	0x44
 1468 0653 08       		.uleb128 0x8
 1469 0654 44435200 		.ascii	"DCR\000"
 1470 0658 0B       		.byte	0xb
 1471 0659 AE01     		.2byte	0x1ae
ARM GAS  /tmp/ccdUMlxU.s 			page 27


 1472 065b CB000000 		.4byte	0xcb
 1473 065f 48       		.byte	0x48
 1474 0660 09       		.uleb128 0x9
 1475 0661 7A060000 		.4byte	.LASF98
 1476 0665 0B       		.byte	0xb
 1477 0666 AF01     		.2byte	0x1af
 1478 0668 CB000000 		.4byte	0xcb
 1479 066c 4C       		.byte	0x4c
 1480 066d 08       		.uleb128 0x8
 1481 066e 4F5200   		.ascii	"OR\000"
 1482 0671 0B       		.byte	0xb
 1483 0672 B001     		.2byte	0x1b0
 1484 0674 CB000000 		.4byte	0xcb
 1485 0678 50       		.byte	0x50
 1486 0679 09       		.uleb128 0x9
 1487 067a 29010000 		.4byte	.LASF99
 1488 067e 0B       		.byte	0xb
 1489 067f B101     		.2byte	0x1b1
 1490 0681 CB000000 		.4byte	0xcb
 1491 0685 54       		.byte	0x54
 1492 0686 09       		.uleb128 0x9
 1493 0687 0F060000 		.4byte	.LASF100
 1494 068b 0B       		.byte	0xb
 1495 068c B201     		.2byte	0x1b2
 1496 068e 99060000 		.4byte	0x699
 1497 0692 58       		.byte	0x58
 1498 0693 00       		.byte	0
 1499 0694 05       		.uleb128 0x5
 1500 0695 C8040000 		.4byte	0x4c8
 1501 0699 05       		.uleb128 0x5
 1502 069a B8040000 		.4byte	0x4b8
 1503 069e 16       		.uleb128 0x16
 1504 069f EA020000 		.4byte	.LASF101
 1505 06a3 0B       		.byte	0xb
 1506 06a4 B301     		.2byte	0x1b3
 1507 06a6 88050000 		.4byte	0x588
 1508 06aa 17       		.uleb128 0x17
 1509 06ab 10       		.byte	0x10
 1510 06ac 0C       		.byte	0xc
 1511 06ad 51       		.byte	0x51
 1512 06ae E3060000 		.4byte	0x6e3
 1513 06b2 07       		.uleb128 0x7
 1514 06b3 3B010000 		.4byte	.LASF102
 1515 06b7 0C       		.byte	0xc
 1516 06b8 55       		.byte	0x55
 1517 06b9 3E010000 		.4byte	0x13e
 1518 06bd 00       		.byte	0
 1519 06be 07       		.uleb128 0x7
 1520 06bf 91010000 		.4byte	.LASF103
 1521 06c3 0C       		.byte	0xc
 1522 06c4 59       		.byte	0x59
 1523 06c5 65020000 		.4byte	0x265
 1524 06c9 04       		.byte	0x4
 1525 06ca 07       		.uleb128 0x7
 1526 06cb E8070000 		.4byte	.LASF104
 1527 06cf 0C       		.byte	0xc
 1528 06d0 5D       		.byte	0x5d
ARM GAS  /tmp/ccdUMlxU.s 			page 28


 1529 06d1 42030000 		.4byte	0x342
 1530 06d5 08       		.byte	0x8
 1531 06d6 07       		.uleb128 0x7
 1532 06d7 BE000000 		.4byte	.LASF105
 1533 06db 0C       		.byte	0xc
 1534 06dc 61       		.byte	0x61
 1535 06dd 9A000000 		.4byte	0x9a
 1536 06e1 0C       		.byte	0xc
 1537 06e2 00       		.byte	0
 1538 06e3 04       		.uleb128 0x4
 1539 06e4 D3030000 		.4byte	.LASF106
 1540 06e8 0C       		.byte	0xc
 1541 06e9 62       		.byte	0x62
 1542 06ea AA060000 		.4byte	0x6aa
 1543 06ee 18       		.uleb128 0x18
 1544 06ef 0804     		.2byte	0x408
 1545 06f1 0C       		.byte	0xc
 1546 06f2 67       		.byte	0x67
 1547 06f3 1C070000 		.4byte	0x71c
 1548 06f7 07       		.uleb128 0x7
 1549 06f8 C8010000 		.4byte	.LASF107
 1550 06fc 0C       		.byte	0xc
 1551 06fd 6B       		.byte	0x6b
 1552 06fe 28000000 		.4byte	0x28
 1553 0702 00       		.byte	0
 1554 0703 07       		.uleb128 0x7
 1555 0704 00000000 		.4byte	.LASF108
 1556 0708 0C       		.byte	0xc
 1557 0709 6F       		.byte	0x6f
 1558 070a 1C070000 		.4byte	0x71c
 1559 070e 04       		.byte	0x4
 1560 070f 07       		.uleb128 0x7
 1561 0710 63040000 		.4byte	.LASF109
 1562 0714 0C       		.byte	0xc
 1563 0715 73       		.byte	0x73
 1564 0716 22070000 		.4byte	0x722
 1565 071a 08       		.byte	0x8
 1566 071b 00       		.byte	0
 1567 071c 0A       		.uleb128 0xa
 1568 071d 04       		.byte	0x4
 1569 071e E3060000 		.4byte	0x6e3
 1570 0722 12       		.uleb128 0x12
 1571 0723 E3060000 		.4byte	0x6e3
 1572 0727 32070000 		.4byte	0x732
 1573 072b 13       		.uleb128 0x13
 1574 072c B1040000 		.4byte	0x4b1
 1575 0730 3F       		.byte	0x3f
 1576 0731 00       		.byte	0
 1577 0732 04       		.uleb128 0x4
 1578 0733 AC000000 		.4byte	.LASF110
 1579 0737 0C       		.byte	0xc
 1580 0738 74       		.byte	0x74
 1581 0739 EE060000 		.4byte	0x6ee
 1582 073d 17       		.uleb128 0x17
 1583 073e 04       		.byte	0x4
 1584 073f 0D       		.byte	0xd
 1585 0740 38       		.byte	0x38
ARM GAS  /tmp/ccdUMlxU.s 			page 29


 1586 0741 52070000 		.4byte	0x752
 1587 0745 07       		.uleb128 0x7
 1588 0746 EA060000 		.4byte	.LASF111
 1589 074a 0D       		.byte	0xd
 1590 074b 3C       		.byte	0x3c
 1591 074c D0000000 		.4byte	0xd0
 1592 0750 00       		.byte	0
 1593 0751 00       		.byte	0
 1594 0752 04       		.uleb128 0x4
 1595 0753 09040000 		.4byte	.LASF112
 1596 0757 0D       		.byte	0xd
 1597 0758 3D       		.byte	0x3d
 1598 0759 3D070000 		.4byte	0x73d
 1599 075d 17       		.uleb128 0x17
 1600 075e 18       		.byte	0x18
 1601 075f 0D       		.byte	0xd
 1602 0760 48       		.byte	0x48
 1603 0761 A0070000 		.4byte	0x7a0
 1604 0765 07       		.uleb128 0x7
 1605 0766 9D060000 		.4byte	.LASF113
 1606 076a 0D       		.byte	0xd
 1607 076b 49       		.byte	0x49
 1608 076c D0000000 		.4byte	0xd0
 1609 0770 00       		.byte	0
 1610 0771 07       		.uleb128 0x7
 1611 0772 7C000000 		.4byte	.LASF114
 1612 0776 0D       		.byte	0xd
 1613 0777 4A       		.byte	0x4a
 1614 0778 D0000000 		.4byte	0xd0
 1615 077c 04       		.byte	0x4
 1616 077d 07       		.uleb128 0x7
 1617 077e C1020000 		.4byte	.LASF115
 1618 0782 0D       		.byte	0xd
 1619 0783 4B       		.byte	0x4b
 1620 0784 D0000000 		.4byte	0xd0
 1621 0788 08       		.byte	0x8
 1622 0789 14       		.uleb128 0x14
 1623 078a 6E00     		.ascii	"n\000"
 1624 078c 0D       		.byte	0xd
 1625 078d 4C       		.byte	0x4c
 1626 078e 33010000 		.4byte	0x133
 1627 0792 0C       		.byte	0xc
 1628 0793 07       		.uleb128 0x7
 1629 0794 50040000 		.4byte	.LASF116
 1630 0798 0D       		.byte	0xd
 1631 0799 4D       		.byte	0x4d
 1632 079a DB000000 		.4byte	0xdb
 1633 079e 10       		.byte	0x10
 1634 079f 00       		.byte	0
 1635 07a0 04       		.uleb128 0x4
 1636 07a1 82000000 		.4byte	.LASF117
 1637 07a5 0D       		.byte	0xd
 1638 07a6 4E       		.byte	0x4e
 1639 07a7 5D070000 		.4byte	0x75d
 1640 07ab 17       		.uleb128 0x17
 1641 07ac 38       		.byte	0x38
 1642 07ad 0E       		.byte	0xe
ARM GAS  /tmp/ccdUMlxU.s 			page 30


 1643 07ae 38       		.byte	0x38
 1644 07af E4070000 		.4byte	0x7e4
 1645 07b3 07       		.uleb128 0x7
 1646 07b4 91020000 		.4byte	.LASF118
 1647 07b8 0E       		.byte	0xe
 1648 07b9 39       		.byte	0x39
 1649 07ba 33010000 		.4byte	0x133
 1650 07be 00       		.byte	0
 1651 07bf 07       		.uleb128 0x7
 1652 07c0 9F040000 		.4byte	.LASF119
 1653 07c4 0E       		.byte	0xe
 1654 07c5 3A       		.byte	0x3a
 1655 07c6 33010000 		.4byte	0x133
 1656 07ca 04       		.byte	0x4
 1657 07cb 07       		.uleb128 0x7
 1658 07cc D5070000 		.4byte	.LASF120
 1659 07d0 0E       		.byte	0xe
 1660 07d1 3B       		.byte	0x3b
 1661 07d2 A0070000 		.4byte	0x7a0
 1662 07d6 08       		.byte	0x8
 1663 07d7 07       		.uleb128 0x7
 1664 07d8 07030000 		.4byte	.LASF121
 1665 07dc 0E       		.byte	0xe
 1666 07dd 3D       		.byte	0x3d
 1667 07de A0070000 		.4byte	0x7a0
 1668 07e2 20       		.byte	0x20
 1669 07e3 00       		.byte	0
 1670 07e4 04       		.uleb128 0x4
 1671 07e5 A2020000 		.4byte	.LASF122
 1672 07e9 0E       		.byte	0xe
 1673 07ea 3F       		.byte	0x3f
 1674 07eb AB070000 		.4byte	0x7ab
 1675 07ef 19       		.uleb128 0x19
 1676 07f0 04       		.byte	0x4
 1677 07f1 08       		.byte	0x8
 1678 07f2 FA       		.byte	0xfa
 1679 07f3 4C080000 		.4byte	0x84c
 1680 07f7 1A       		.uleb128 0x1a
 1681 07f8 1F000000 		.4byte	.LASF123
 1682 07fc 08       		.byte	0x8
 1683 07fd 0101     		.2byte	0x101
 1684 07ff 12010000 		.4byte	0x112
 1685 0803 1A       		.uleb128 0x1a
 1686 0804 C7000000 		.4byte	.LASF124
 1687 0808 08       		.byte	0x8
 1688 0809 0801     		.2byte	0x108
 1689 080b 12010000 		.4byte	0x112
 1690 080f 1A       		.uleb128 0x1a
 1691 0810 9D070000 		.4byte	.LASF125
 1692 0814 08       		.byte	0x8
 1693 0815 0F01     		.2byte	0x10f
 1694 0817 42030000 		.4byte	0x342
 1695 081b 1A       		.uleb128 0x1a
 1696 081c 19000000 		.4byte	.LASF126
 1697 0820 08       		.byte	0x8
 1698 0821 1601     		.2byte	0x116
 1699 0823 4C080000 		.4byte	0x84c
ARM GAS  /tmp/ccdUMlxU.s 			page 31


 1700 0827 1A       		.uleb128 0x1a
 1701 0828 7F020000 		.4byte	.LASF127
 1702 082c 08       		.byte	0x8
 1703 082d 1E01     		.2byte	0x11e
 1704 082f 77080000 		.4byte	0x877
 1705 0833 1A       		.uleb128 0x1a
 1706 0834 3B060000 		.4byte	.LASF128
 1707 0838 08       		.byte	0x8
 1708 0839 2701     		.2byte	0x127
 1709 083b AE080000 		.4byte	0x8ae
 1710 083f 1A       		.uleb128 0x1a
 1711 0840 D3050000 		.4byte	.LASF129
 1712 0844 08       		.byte	0x8
 1713 0845 2F01     		.2byte	0x12f
 1714 0847 1D010000 		.4byte	0x11d
 1715 084b 00       		.byte	0
 1716 084c 0A       		.uleb128 0xa
 1717 084d 04       		.byte	0x4
 1718 084e 5A020000 		.4byte	0x25a
 1719 0852 06       		.uleb128 0x6
 1720 0853 02060000 		.4byte	.LASF130
 1721 0857 0C       		.byte	0xc
 1722 0858 0F       		.byte	0xf
 1723 0859 34       		.byte	0x34
 1724 085a 77080000 		.4byte	0x877
 1725 085e 07       		.uleb128 0x7
 1726 085f AD010000 		.4byte	.LASF131
 1727 0863 0F       		.byte	0xf
 1728 0864 35       		.byte	0x35
 1729 0865 8F020000 		.4byte	0x28f
 1730 0869 00       		.byte	0
 1731 086a 07       		.uleb128 0x7
 1732 086b 97020000 		.4byte	.LASF132
 1733 086f 0F       		.byte	0xf
 1734 0870 37       		.byte	0x37
 1735 0871 28010000 		.4byte	0x128
 1736 0875 08       		.byte	0x8
 1737 0876 00       		.byte	0
 1738 0877 0A       		.uleb128 0xa
 1739 0878 04       		.byte	0x4
 1740 0879 52080000 		.4byte	0x852
 1741 087d 06       		.uleb128 0x6
 1742 087e 65070000 		.4byte	.LASF133
 1743 0882 10       		.byte	0x10
 1744 0883 10       		.byte	0x10
 1745 0884 39       		.byte	0x39
 1746 0885 AE080000 		.4byte	0x8ae
 1747 0889 07       		.uleb128 0x7
 1748 088a 43010000 		.4byte	.LASF134
 1749 088e 10       		.byte	0x10
 1750 088f 3A       		.byte	0x3a
 1751 0890 8F020000 		.4byte	0x28f
 1752 0894 00       		.byte	0
 1753 0895 07       		.uleb128 0x7
 1754 0896 E0070000 		.4byte	.LASF135
 1755 089a 10       		.byte	0x10
 1756 089b 3C       		.byte	0x3c
ARM GAS  /tmp/ccdUMlxU.s 			page 32


 1757 089c 65020000 		.4byte	0x265
 1758 08a0 08       		.byte	0x8
 1759 08a1 07       		.uleb128 0x7
 1760 08a2 A2060000 		.4byte	.LASF136
 1761 08a6 10       		.byte	0x10
 1762 08a7 3E       		.byte	0x3e
 1763 08a8 F2080000 		.4byte	0x8f2
 1764 08ac 0C       		.byte	0xc
 1765 08ad 00       		.byte	0
 1766 08ae 0A       		.uleb128 0xa
 1767 08af 04       		.byte	0x4
 1768 08b0 7D080000 		.4byte	0x87d
 1769 08b4 0A       		.uleb128 0xa
 1770 08b5 04       		.byte	0x4
 1771 08b6 C1080000 		.4byte	0x8c1
 1772 08ba 03       		.uleb128 0x3
 1773 08bb 01       		.byte	0x1
 1774 08bc 08       		.byte	0x8
 1775 08bd 75060000 		.4byte	.LASF137
 1776 08c1 1B       		.uleb128 0x1b
 1777 08c2 BA080000 		.4byte	0x8ba
 1778 08c6 0A       		.uleb128 0xa
 1779 08c7 04       		.byte	0x4
 1780 08c8 E3040000 		.4byte	0x4e3
 1781 08cc 0A       		.uleb128 0xa
 1782 08cd 04       		.byte	0x4
 1783 08ce 44030000 		.4byte	0x344
 1784 08d2 05       		.uleb128 0x5
 1785 08d3 B4080000 		.4byte	0x8b4
 1786 08d7 12       		.uleb128 0x12
 1787 08d8 E3040000 		.4byte	0x4e3
 1788 08dc E7080000 		.4byte	0x8e7
 1789 08e0 13       		.uleb128 0x13
 1790 08e1 B1040000 		.4byte	0x4b1
 1791 08e5 1E       		.byte	0x1e
 1792 08e6 00       		.byte	0
 1793 08e7 04       		.uleb128 0x4
 1794 08e8 0B020000 		.4byte	.LASF138
 1795 08ec 10       		.byte	0x10
 1796 08ed 34       		.byte	0x34
 1797 08ee 7D080000 		.4byte	0x87d
 1798 08f2 0A       		.uleb128 0xa
 1799 08f3 04       		.byte	0x4
 1800 08f4 E7080000 		.4byte	0x8e7
 1801 08f8 1C       		.uleb128 0x1c
 1802 08f9 D2060000 		.4byte	.LASF161
 1803 08fd 02       		.byte	0x2
 1804 08fe 2002     		.2byte	0x220
 1805 0900 03       		.byte	0x3
 1806 0901 12090000 		.4byte	0x912
 1807 0905 1D       		.uleb128 0x1d
 1808 0906 13020000 		.4byte	.LASF162
 1809 090a 02       		.byte	0x2
 1810 090b 2002     		.2byte	0x220
 1811 090d B0000000 		.4byte	0xb0
 1812 0911 00       		.byte	0
 1813 0912 1E       		.uleb128 0x1e
ARM GAS  /tmp/ccdUMlxU.s 			page 33


 1814 0913 72000000 		.4byte	.LASF139
 1815 0917 0A       		.byte	0xa
 1816 0918 BC01     		.2byte	0x1bc
 1817 091a 03       		.byte	0x3
 1818 091b 1E       		.uleb128 0x1e
 1819 091c 52010000 		.4byte	.LASF140
 1820 0920 0A       		.byte	0xa
 1821 0921 CA01     		.2byte	0x1ca
 1822 0923 03       		.byte	0x3
 1823 0924 1F       		.uleb128 0x1f
 1824 0925 1F060000 		.4byte	.LASF141
 1825 0929 03       		.byte	0x3
 1826 092a 7F       		.byte	0x7f
 1827 092b 3E010000 		.4byte	0x13e
 1828 092f 03       		.byte	0x3
 1829 0930 1F       		.uleb128 0x1f
 1830 0931 04070000 		.4byte	.LASF142
 1831 0935 11       		.byte	0x11
 1832 0936 69       		.byte	0x69
 1833 0937 3E010000 		.4byte	0x13e
 1834 093b 03       		.byte	0x3
 1835 093c 1E       		.uleb128 0x1e
 1836 093d 20070000 		.4byte	.LASF143
 1837 0941 0A       		.byte	0xa
 1838 0942 D901     		.2byte	0x1d9
 1839 0944 03       		.byte	0x3
 1840 0945 1E       		.uleb128 0x1e
 1841 0946 7F060000 		.4byte	.LASF144
 1842 094a 0A       		.byte	0xa
 1843 094b E401     		.2byte	0x1e4
 1844 094d 03       		.byte	0x3
 1845 094e 1F       		.uleb128 0x1f
 1846 094f 37020000 		.4byte	.LASF145
 1847 0953 12       		.byte	0x12
 1848 0954 E4       		.byte	0xe4
 1849 0955 3E010000 		.4byte	0x13e
 1850 0959 03       		.byte	0x3
 1851 095a 20       		.uleb128 0x20
 1852 095b 6D040000 		.4byte	.LASF146
 1853 095f 01       		.byte	0x1
 1854 0960 72       		.byte	0x72
 1855 0961 00000000 		.4byte	.LFB227
 1856 0965 1C000000 		.4byte	.LFE227-.LFB227
 1857 0969 01       		.uleb128 0x1
 1858 096a 9C       		.byte	0x9c
 1859 096b 83090000 		.4byte	0x983
 1860 096f 21       		.uleb128 0x21
 1861 0970 10000000 		.4byte	.LVL0
 1862 0974 970C0000 		.4byte	0xc97
 1863 0978 22       		.uleb128 0x22
 1864 0979 01       		.uleb128 0x1
 1865 097a 50       		.byte	0x50
 1866 097b 05       		.uleb128 0x5
 1867 097c 03       		.byte	0x3
 1868 097d 00000000 		.4byte	.LC0
 1869 0981 00       		.byte	0
 1870 0982 00       		.byte	0
ARM GAS  /tmp/ccdUMlxU.s 			page 34


 1871 0983 20       		.uleb128 0x20
 1872 0984 37030000 		.4byte	.LASF147
 1873 0988 01       		.byte	0x1
 1874 0989 7E       		.byte	0x7e
 1875 098a 00000000 		.4byte	.LFB228
 1876 098e 1C000000 		.4byte	.LFE228-.LFB228
 1877 0992 01       		.uleb128 0x1
 1878 0993 9C       		.byte	0x9c
 1879 0994 AC090000 		.4byte	0x9ac
 1880 0998 21       		.uleb128 0x21
 1881 0999 10000000 		.4byte	.LVL1
 1882 099d 970C0000 		.4byte	0xc97
 1883 09a1 22       		.uleb128 0x22
 1884 09a2 01       		.uleb128 0x1
 1885 09a3 50       		.byte	0x50
 1886 09a4 05       		.uleb128 0x5
 1887 09a5 03       		.byte	0x3
 1888 09a6 08000000 		.4byte	.LC1
 1889 09aa 00       		.byte	0
 1890 09ab 00       		.byte	0
 1891 09ac 20       		.uleb128 0x20
 1892 09ad 5E010000 		.4byte	.LASF148
 1893 09b1 01       		.byte	0x1
 1894 09b2 8A       		.byte	0x8a
 1895 09b3 00000000 		.4byte	.LFB229
 1896 09b7 1C000000 		.4byte	.LFE229-.LFB229
 1897 09bb 01       		.uleb128 0x1
 1898 09bc 9C       		.byte	0x9c
 1899 09bd D5090000 		.4byte	0x9d5
 1900 09c1 21       		.uleb128 0x21
 1901 09c2 10000000 		.4byte	.LVL2
 1902 09c6 970C0000 		.4byte	0xc97
 1903 09ca 22       		.uleb128 0x22
 1904 09cb 01       		.uleb128 0x1
 1905 09cc 50       		.byte	0x50
 1906 09cd 05       		.uleb128 0x5
 1907 09ce 03       		.byte	0x3
 1908 09cf 10000000 		.4byte	.LC2
 1909 09d3 00       		.byte	0
 1910 09d4 00       		.byte	0
 1911 09d5 20       		.uleb128 0x20
 1912 09d6 70030000 		.4byte	.LASF149
 1913 09da 01       		.byte	0x1
 1914 09db 96       		.byte	0x96
 1915 09dc 00000000 		.4byte	.LFB230
 1916 09e0 20000000 		.4byte	.LFE230-.LFB230
 1917 09e4 01       		.uleb128 0x1
 1918 09e5 9C       		.byte	0x9c
 1919 09e6 FE090000 		.4byte	0x9fe
 1920 09ea 23       		.uleb128 0x23
 1921 09eb 12000000 		.4byte	.LVL3
 1922 09ef 970C0000 		.4byte	0xc97
 1923 09f3 22       		.uleb128 0x22
 1924 09f4 01       		.uleb128 0x1
 1925 09f5 50       		.byte	0x50
 1926 09f6 05       		.uleb128 0x5
 1927 09f7 03       		.byte	0x3
ARM GAS  /tmp/ccdUMlxU.s 			page 35


 1928 09f8 18000000 		.4byte	.LC3
 1929 09fc 00       		.byte	0
 1930 09fd 00       		.byte	0
 1931 09fe 20       		.uleb128 0x20
 1932 09ff 8B070000 		.4byte	.LASF150
 1933 0a03 01       		.byte	0x1
 1934 0a04 A3       		.byte	0xa3
 1935 0a05 00000000 		.4byte	.LFB231
 1936 0a09 28000000 		.4byte	.LFE231-.LFB231
 1937 0a0d 01       		.uleb128 0x1
 1938 0a0e 9C       		.byte	0x9c
 1939 0a0f 270A0000 		.4byte	0xa27
 1940 0a13 23       		.uleb128 0x23
 1941 0a14 1A000000 		.4byte	.LVL4
 1942 0a18 970C0000 		.4byte	0xc97
 1943 0a1c 22       		.uleb128 0x22
 1944 0a1d 01       		.uleb128 0x1
 1945 0a1e 50       		.byte	0x50
 1946 0a1f 05       		.uleb128 0x5
 1947 0a20 03       		.byte	0x3
 1948 0a21 20000000 		.4byte	.LC4
 1949 0a25 00       		.byte	0
 1950 0a26 00       		.byte	0
 1951 0a27 20       		.uleb128 0x20
 1952 0a28 2C040000 		.4byte	.LASF151
 1953 0a2c 01       		.byte	0x1
 1954 0a2d B0       		.byte	0xb0
 1955 0a2e 00000000 		.4byte	.LFB232
 1956 0a32 24000000 		.4byte	.LFE232-.LFB232
 1957 0a36 01       		.uleb128 0x1
 1958 0a37 9C       		.byte	0x9c
 1959 0a38 500A0000 		.4byte	0xa50
 1960 0a3c 23       		.uleb128 0x23
 1961 0a3d 14000000 		.4byte	.LVL5
 1962 0a41 970C0000 		.4byte	0xc97
 1963 0a45 22       		.uleb128 0x22
 1964 0a46 01       		.uleb128 0x1
 1965 0a47 50       		.byte	0x50
 1966 0a48 05       		.uleb128 0x5
 1967 0a49 03       		.byte	0x3
 1968 0a4a 28000000 		.4byte	.LC5
 1969 0a4e 00       		.byte	0
 1970 0a4f 00       		.byte	0
 1971 0a50 20       		.uleb128 0x20
 1972 0a51 3A070000 		.4byte	.LASF152
 1973 0a55 01       		.byte	0x1
 1974 0a56 BD       		.byte	0xbd
 1975 0a57 00000000 		.4byte	.LFB233
 1976 0a5b 2C000000 		.4byte	.LFE233-.LFB233
 1977 0a5f 01       		.uleb128 0x1
 1978 0a60 9C       		.byte	0x9c
 1979 0a61 790A0000 		.4byte	0xa79
 1980 0a65 23       		.uleb128 0x23
 1981 0a66 1C000000 		.4byte	.LVL6
 1982 0a6a 970C0000 		.4byte	0xc97
 1983 0a6e 22       		.uleb128 0x22
 1984 0a6f 01       		.uleb128 0x1
ARM GAS  /tmp/ccdUMlxU.s 			page 36


 1985 0a70 50       		.byte	0x50
 1986 0a71 05       		.uleb128 0x5
 1987 0a72 03       		.byte	0x3
 1988 0a73 30000000 		.4byte	.LC6
 1989 0a77 00       		.byte	0
 1990 0a78 00       		.byte	0
 1991 0a79 20       		.uleb128 0x20
 1992 0a7a EE030000 		.4byte	.LASF153
 1993 0a7e 01       		.byte	0x1
 1994 0a7f CA       		.byte	0xca
 1995 0a80 00000000 		.4byte	.LFB234
 1996 0a84 30000000 		.4byte	.LFE234-.LFB234
 1997 0a88 01       		.uleb128 0x1
 1998 0a89 9C       		.byte	0x9c
 1999 0a8a 200B0000 		.4byte	0xb20
 2000 0a8e 24       		.uleb128 0x24
 2001 0a8f 3C090000 		.4byte	0x93c
 2002 0a93 02000000 		.4byte	.LBB45
 2003 0a97 06000000 		.4byte	.LBE45-.LBB45
 2004 0a9b 01       		.byte	0x1
 2005 0a9c CC       		.byte	0xcc
 2006 0a9d CD0A0000 		.4byte	0xacd
 2007 0aa1 25       		.uleb128 0x25
 2008 0aa2 12090000 		.4byte	0x912
 2009 0aa6 02000000 		.4byte	.LBB46
 2010 0aaa 06000000 		.4byte	.LBE46-.LBB46
 2011 0aae 0A       		.byte	0xa
 2012 0aaf DB01     		.2byte	0x1db
 2013 0ab1 25       		.uleb128 0x25
 2014 0ab2 F8080000 		.4byte	0x8f8
 2015 0ab6 02000000 		.4byte	.LBB47
 2016 0aba 06000000 		.4byte	.LBE47-.LBB47
 2017 0abe 0A       		.byte	0xa
 2018 0abf BF01     		.2byte	0x1bf
 2019 0ac1 26       		.uleb128 0x26
 2020 0ac2 05090000 		.4byte	0x905
 2021 0ac6 00000000 		.4byte	.LLST0
 2022 0aca 00       		.byte	0
 2023 0acb 00       		.byte	0
 2024 0acc 00       		.byte	0
 2025 0acd 24       		.uleb128 0x24
 2026 0ace 45090000 		.4byte	0x945
 2027 0ad2 20000000 		.4byte	.LBB49
 2028 0ad6 10000000 		.4byte	.LBE49-.LBB49
 2029 0ada 01       		.byte	0x1
 2030 0adb D1       		.byte	0xd1
 2031 0adc 0C0B0000 		.4byte	0xb0c
 2032 0ae0 25       		.uleb128 0x25
 2033 0ae1 1B090000 		.4byte	0x91b
 2034 0ae5 20000000 		.4byte	.LBB50
 2035 0ae9 10000000 		.4byte	.LBE50-.LBB50
 2036 0aed 0A       		.byte	0xa
 2037 0aee E601     		.2byte	0x1e6
 2038 0af0 25       		.uleb128 0x25
 2039 0af1 F8080000 		.4byte	0x8f8
 2040 0af5 20000000 		.4byte	.LBB51
 2041 0af9 10000000 		.4byte	.LBE51-.LBB51
ARM GAS  /tmp/ccdUMlxU.s 			page 37


 2042 0afd 0A       		.byte	0xa
 2043 0afe CD01     		.2byte	0x1cd
 2044 0b00 26       		.uleb128 0x26
 2045 0b01 05090000 		.4byte	0x905
 2046 0b05 15000000 		.4byte	.LLST1
 2047 0b09 00       		.byte	0
 2048 0b0a 00       		.byte	0
 2049 0b0b 00       		.byte	0
 2050 0b0c 23       		.uleb128 0x23
 2051 0b0d 1A000000 		.4byte	.LVL9
 2052 0b11 970C0000 		.4byte	0xc97
 2053 0b15 22       		.uleb128 0x22
 2054 0b16 01       		.uleb128 0x1
 2055 0b17 50       		.byte	0x50
 2056 0b18 05       		.uleb128 0x5
 2057 0b19 03       		.byte	0x3
 2058 0b1a 38000000 		.4byte	.LC7
 2059 0b1e 00       		.byte	0
 2060 0b1f 00       		.byte	0
 2061 0b20 20       		.uleb128 0x20
 2062 0b21 6A020000 		.4byte	.LASF154
 2063 0b25 01       		.byte	0x1
 2064 0b26 D9       		.byte	0xd9
 2065 0b27 00000000 		.4byte	.LFB235
 2066 0b2b 30000000 		.4byte	.LFE235-.LFB235
 2067 0b2f 01       		.uleb128 0x1
 2068 0b30 9C       		.byte	0x9c
 2069 0b31 C70B0000 		.4byte	0xbc7
 2070 0b35 24       		.uleb128 0x24
 2071 0b36 3C090000 		.4byte	0x93c
 2072 0b3a 02000000 		.4byte	.LBB53
 2073 0b3e 06000000 		.4byte	.LBE53-.LBB53
 2074 0b42 01       		.byte	0x1
 2075 0b43 DB       		.byte	0xdb
 2076 0b44 740B0000 		.4byte	0xb74
 2077 0b48 25       		.uleb128 0x25
 2078 0b49 12090000 		.4byte	0x912
 2079 0b4d 02000000 		.4byte	.LBB54
 2080 0b51 06000000 		.4byte	.LBE54-.LBB54
 2081 0b55 0A       		.byte	0xa
 2082 0b56 DB01     		.2byte	0x1db
 2083 0b58 25       		.uleb128 0x25
 2084 0b59 F8080000 		.4byte	0x8f8
 2085 0b5d 02000000 		.4byte	.LBB55
 2086 0b61 06000000 		.4byte	.LBE55-.LBB55
 2087 0b65 0A       		.byte	0xa
 2088 0b66 BF01     		.2byte	0x1bf
 2089 0b68 26       		.uleb128 0x26
 2090 0b69 05090000 		.4byte	0x905
 2091 0b6d 29000000 		.4byte	.LLST2
 2092 0b71 00       		.byte	0
 2093 0b72 00       		.byte	0
 2094 0b73 00       		.byte	0
 2095 0b74 24       		.uleb128 0x24
 2096 0b75 45090000 		.4byte	0x945
 2097 0b79 20000000 		.4byte	.LBB57
 2098 0b7d 10000000 		.4byte	.LBE57-.LBB57
ARM GAS  /tmp/ccdUMlxU.s 			page 38


 2099 0b81 01       		.byte	0x1
 2100 0b82 E0       		.byte	0xe0
 2101 0b83 B30B0000 		.4byte	0xbb3
 2102 0b87 25       		.uleb128 0x25
 2103 0b88 1B090000 		.4byte	0x91b
 2104 0b8c 20000000 		.4byte	.LBB58
 2105 0b90 10000000 		.4byte	.LBE58-.LBB58
 2106 0b94 0A       		.byte	0xa
 2107 0b95 E601     		.2byte	0x1e6
 2108 0b97 25       		.uleb128 0x25
 2109 0b98 F8080000 		.4byte	0x8f8
 2110 0b9c 20000000 		.4byte	.LBB59
 2111 0ba0 10000000 		.4byte	.LBE59-.LBB59
 2112 0ba4 0A       		.byte	0xa
 2113 0ba5 CD01     		.2byte	0x1cd
 2114 0ba7 26       		.uleb128 0x26
 2115 0ba8 05090000 		.4byte	0x905
 2116 0bac 3E000000 		.4byte	.LLST3
 2117 0bb0 00       		.byte	0
 2118 0bb1 00       		.byte	0
 2119 0bb2 00       		.byte	0
 2120 0bb3 23       		.uleb128 0x23
 2121 0bb4 1A000000 		.4byte	.LVL14
 2122 0bb8 970C0000 		.4byte	0xc97
 2123 0bbc 22       		.uleb128 0x22
 2124 0bbd 01       		.uleb128 0x1
 2125 0bbe 50       		.byte	0x50
 2126 0bbf 05       		.uleb128 0x5
 2127 0bc0 03       		.byte	0x3
 2128 0bc1 40000000 		.4byte	.LC8
 2129 0bc5 00       		.byte	0
 2130 0bc6 00       		.byte	0
 2131 0bc7 20       		.uleb128 0x20
 2132 0bc8 CD020000 		.4byte	.LASF155
 2133 0bcc 01       		.byte	0x1
 2134 0bcd EB       		.byte	0xeb
 2135 0bce 00000000 		.4byte	.LFB236
 2136 0bd2 20000000 		.4byte	.LFE236-.LFB236
 2137 0bd6 01       		.uleb128 0x1
 2138 0bd7 9C       		.byte	0x9c
 2139 0bd8 F00B0000 		.4byte	0xbf0
 2140 0bdc 21       		.uleb128 0x21
 2141 0bdd 16000000 		.4byte	.LVL17
 2142 0be1 970C0000 		.4byte	0xc97
 2143 0be5 22       		.uleb128 0x22
 2144 0be6 01       		.uleb128 0x1
 2145 0be7 50       		.byte	0x50
 2146 0be8 05       		.uleb128 0x5
 2147 0be9 03       		.byte	0x3
 2148 0bea 48000000 		.4byte	.LC9
 2149 0bee 00       		.byte	0
 2150 0bef 00       		.byte	0
 2151 0bf0 20       		.uleb128 0x20
 2152 0bf1 F6020000 		.4byte	.LASF156
 2153 0bf5 01       		.byte	0x1
 2154 0bf6 FA       		.byte	0xfa
 2155 0bf7 00000000 		.4byte	.LFB237
ARM GAS  /tmp/ccdUMlxU.s 			page 39


 2156 0bfb 1C000000 		.4byte	.LFE237-.LFB237
 2157 0bff 01       		.uleb128 0x1
 2158 0c00 9C       		.byte	0x9c
 2159 0c01 190C0000 		.4byte	0xc19
 2160 0c05 21       		.uleb128 0x21
 2161 0c06 14000000 		.4byte	.LVL18
 2162 0c0a 970C0000 		.4byte	0xc97
 2163 0c0e 22       		.uleb128 0x22
 2164 0c0f 01       		.uleb128 0x1
 2165 0c10 50       		.byte	0x50
 2166 0c11 05       		.uleb128 0x5
 2167 0c12 03       		.byte	0x3
 2168 0c13 50000000 		.4byte	.LC10
 2169 0c17 00       		.byte	0
 2170 0c18 00       		.byte	0
 2171 0c19 27       		.uleb128 0x27
 2172 0c1a BE040000 		.4byte	.LASF163
 2173 0c1e 01       		.byte	0x1
 2174 0c1f 0801     		.2byte	0x108
 2175 0c21 00000000 		.4byte	.LFB238
 2176 0c25 10000000 		.4byte	.LFE238-.LFB238
 2177 0c29 01       		.uleb128 0x1
 2178 0c2a 9C       		.byte	0x9c
 2179 0c2b 28       		.uleb128 0x28
 2180 0c2c F9060000 		.4byte	.LASF157
 2181 0c30 01       		.byte	0x1
 2182 0c31 1501     		.2byte	0x115
 2183 0c33 00000000 		.4byte	.LFB239
 2184 0c37 34000000 		.4byte	.LFE239-.LFB239
 2185 0c3b 01       		.uleb128 0x1
 2186 0c3c 9C       		.byte	0x9c
 2187 0c3d 800C0000 		.4byte	0xc80
 2188 0c41 29       		.uleb128 0x29
 2189 0c42 6F747000 		.ascii	"otp\000"
 2190 0c46 01       		.byte	0x1
 2191 0c47 1501     		.2byte	0x115
 2192 0c49 65020000 		.4byte	0x265
 2193 0c4d 01       		.uleb128 0x1
 2194 0c4e 50       		.byte	0x50
 2195 0c4f 2A       		.uleb128 0x2a
 2196 0c50 4E090000 		.4byte	0x94e
 2197 0c54 02000000 		.4byte	.LBB61
 2198 0c58 00000000 		.4byte	.Ldebug_ranges0+0
 2199 0c5c 01       		.byte	0x1
 2200 0c5d 1701     		.2byte	0x117
 2201 0c5f 2B       		.uleb128 0x2b
 2202 0c60 30090000 		.4byte	0x930
 2203 0c64 02000000 		.4byte	.LBB62
 2204 0c68 00000000 		.4byte	.Ldebug_ranges0+0
 2205 0c6c 12       		.byte	0x12
 2206 0c6d E9       		.byte	0xe9
 2207 0c6e 2C       		.uleb128 0x2c
 2208 0c6f 24090000 		.4byte	0x924
 2209 0c73 02000000 		.4byte	.LBB63
 2210 0c77 00000000 		.4byte	.Ldebug_ranges0+0
 2211 0c7b 11       		.byte	0x11
 2212 0c7c 6B       		.byte	0x6b
ARM GAS  /tmp/ccdUMlxU.s 			page 40


 2213 0c7d 00       		.byte	0
 2214 0c7e 00       		.byte	0
 2215 0c7f 00       		.byte	0
 2216 0c80 2D       		.uleb128 0x2d
 2217 0c81 FB000000 		.4byte	.LASF158
 2218 0c85 13       		.byte	0x13
 2219 0c86 A706     		.2byte	0x6a7
 2220 0c88 C6000000 		.4byte	0xc6
 2221 0c8c 2E       		.uleb128 0x2e
 2222 0c8d 636800   		.ascii	"ch\000"
 2223 0c90 08       		.byte	0x8
 2224 0c91 0902     		.2byte	0x209
 2225 0c93 39040000 		.4byte	0x439
 2226 0c97 2F       		.uleb128 0x2f
 2227 0c98 F1010000 		.4byte	.LASF164
 2228 0c9c F1010000 		.4byte	.LASF164
 2229 0ca0 14       		.byte	0x14
 2230 0ca1 1601     		.2byte	0x116
 2231 0ca3 00       		.byte	0
 2232              		.section	.debug_abbrev,"",%progbits
 2233              	.Ldebug_abbrev0:
 2234 0000 01       		.uleb128 0x1
 2235 0001 11       		.uleb128 0x11
 2236 0002 01       		.byte	0x1
 2237 0003 25       		.uleb128 0x25
 2238 0004 0E       		.uleb128 0xe
 2239 0005 13       		.uleb128 0x13
 2240 0006 0B       		.uleb128 0xb
 2241 0007 03       		.uleb128 0x3
 2242 0008 0E       		.uleb128 0xe
 2243 0009 55       		.uleb128 0x55
 2244 000a 17       		.uleb128 0x17
 2245 000b 11       		.uleb128 0x11
 2246 000c 01       		.uleb128 0x1
 2247 000d 10       		.uleb128 0x10
 2248 000e 17       		.uleb128 0x17
 2249 000f 00       		.byte	0
 2250 0010 00       		.byte	0
 2251 0011 02       		.uleb128 0x2
 2252 0012 24       		.uleb128 0x24
 2253 0013 00       		.byte	0
 2254 0014 0B       		.uleb128 0xb
 2255 0015 0B       		.uleb128 0xb
 2256 0016 3E       		.uleb128 0x3e
 2257 0017 0B       		.uleb128 0xb
 2258 0018 03       		.uleb128 0x3
 2259 0019 08       		.uleb128 0x8
 2260 001a 00       		.byte	0
 2261 001b 00       		.byte	0
 2262 001c 03       		.uleb128 0x3
 2263 001d 24       		.uleb128 0x24
 2264 001e 00       		.byte	0
 2265 001f 0B       		.uleb128 0xb
 2266 0020 0B       		.uleb128 0xb
 2267 0021 3E       		.uleb128 0x3e
 2268 0022 0B       		.uleb128 0xb
 2269 0023 03       		.uleb128 0x3
ARM GAS  /tmp/ccdUMlxU.s 			page 41


 2270 0024 0E       		.uleb128 0xe
 2271 0025 00       		.byte	0
 2272 0026 00       		.byte	0
 2273 0027 04       		.uleb128 0x4
 2274 0028 16       		.uleb128 0x16
 2275 0029 00       		.byte	0
 2276 002a 03       		.uleb128 0x3
 2277 002b 0E       		.uleb128 0xe
 2278 002c 3A       		.uleb128 0x3a
 2279 002d 0B       		.uleb128 0xb
 2280 002e 3B       		.uleb128 0x3b
 2281 002f 0B       		.uleb128 0xb
 2282 0030 49       		.uleb128 0x49
 2283 0031 13       		.uleb128 0x13
 2284 0032 00       		.byte	0
 2285 0033 00       		.byte	0
 2286 0034 05       		.uleb128 0x5
 2287 0035 35       		.uleb128 0x35
 2288 0036 00       		.byte	0
 2289 0037 49       		.uleb128 0x49
 2290 0038 13       		.uleb128 0x13
 2291 0039 00       		.byte	0
 2292 003a 00       		.byte	0
 2293 003b 06       		.uleb128 0x6
 2294 003c 13       		.uleb128 0x13
 2295 003d 01       		.byte	0x1
 2296 003e 03       		.uleb128 0x3
 2297 003f 0E       		.uleb128 0xe
 2298 0040 0B       		.uleb128 0xb
 2299 0041 0B       		.uleb128 0xb
 2300 0042 3A       		.uleb128 0x3a
 2301 0043 0B       		.uleb128 0xb
 2302 0044 3B       		.uleb128 0x3b
 2303 0045 0B       		.uleb128 0xb
 2304 0046 01       		.uleb128 0x1
 2305 0047 13       		.uleb128 0x13
 2306 0048 00       		.byte	0
 2307 0049 00       		.byte	0
 2308 004a 07       		.uleb128 0x7
 2309 004b 0D       		.uleb128 0xd
 2310 004c 00       		.byte	0
 2311 004d 03       		.uleb128 0x3
 2312 004e 0E       		.uleb128 0xe
 2313 004f 3A       		.uleb128 0x3a
 2314 0050 0B       		.uleb128 0xb
 2315 0051 3B       		.uleb128 0x3b
 2316 0052 0B       		.uleb128 0xb
 2317 0053 49       		.uleb128 0x49
 2318 0054 13       		.uleb128 0x13
 2319 0055 38       		.uleb128 0x38
 2320 0056 0B       		.uleb128 0xb
 2321 0057 00       		.byte	0
 2322 0058 00       		.byte	0
 2323 0059 08       		.uleb128 0x8
 2324 005a 0D       		.uleb128 0xd
 2325 005b 00       		.byte	0
 2326 005c 03       		.uleb128 0x3
ARM GAS  /tmp/ccdUMlxU.s 			page 42


 2327 005d 08       		.uleb128 0x8
 2328 005e 3A       		.uleb128 0x3a
 2329 005f 0B       		.uleb128 0xb
 2330 0060 3B       		.uleb128 0x3b
 2331 0061 05       		.uleb128 0x5
 2332 0062 49       		.uleb128 0x49
 2333 0063 13       		.uleb128 0x13
 2334 0064 38       		.uleb128 0x38
 2335 0065 0B       		.uleb128 0xb
 2336 0066 00       		.byte	0
 2337 0067 00       		.byte	0
 2338 0068 09       		.uleb128 0x9
 2339 0069 0D       		.uleb128 0xd
 2340 006a 00       		.byte	0
 2341 006b 03       		.uleb128 0x3
 2342 006c 0E       		.uleb128 0xe
 2343 006d 3A       		.uleb128 0x3a
 2344 006e 0B       		.uleb128 0xb
 2345 006f 3B       		.uleb128 0x3b
 2346 0070 05       		.uleb128 0x5
 2347 0071 49       		.uleb128 0x49
 2348 0072 13       		.uleb128 0x13
 2349 0073 38       		.uleb128 0x38
 2350 0074 0B       		.uleb128 0xb
 2351 0075 00       		.byte	0
 2352 0076 00       		.byte	0
 2353 0077 0A       		.uleb128 0xa
 2354 0078 0F       		.uleb128 0xf
 2355 0079 00       		.byte	0
 2356 007a 0B       		.uleb128 0xb
 2357 007b 0B       		.uleb128 0xb
 2358 007c 49       		.uleb128 0x49
 2359 007d 13       		.uleb128 0x13
 2360 007e 00       		.byte	0
 2361 007f 00       		.byte	0
 2362 0080 0B       		.uleb128 0xb
 2363 0081 13       		.uleb128 0x13
 2364 0082 01       		.byte	0x1
 2365 0083 03       		.uleb128 0x3
 2366 0084 0E       		.uleb128 0xe
 2367 0085 0B       		.uleb128 0xb
 2368 0086 0B       		.uleb128 0xb
 2369 0087 3A       		.uleb128 0x3a
 2370 0088 0B       		.uleb128 0xb
 2371 0089 3B       		.uleb128 0x3b
 2372 008a 05       		.uleb128 0x5
 2373 008b 01       		.uleb128 0x1
 2374 008c 13       		.uleb128 0x13
 2375 008d 00       		.byte	0
 2376 008e 00       		.byte	0
 2377 008f 0C       		.uleb128 0xc
 2378 0090 15       		.uleb128 0x15
 2379 0091 01       		.byte	0x1
 2380 0092 27       		.uleb128 0x27
 2381 0093 19       		.uleb128 0x19
 2382 0094 01       		.uleb128 0x1
 2383 0095 13       		.uleb128 0x13
ARM GAS  /tmp/ccdUMlxU.s 			page 43


 2384 0096 00       		.byte	0
 2385 0097 00       		.byte	0
 2386 0098 0D       		.uleb128 0xd
 2387 0099 05       		.uleb128 0x5
 2388 009a 00       		.byte	0
 2389 009b 49       		.uleb128 0x49
 2390 009c 13       		.uleb128 0x13
 2391 009d 00       		.byte	0
 2392 009e 00       		.byte	0
 2393 009f 0E       		.uleb128 0xe
 2394 00a0 0F       		.uleb128 0xf
 2395 00a1 00       		.byte	0
 2396 00a2 0B       		.uleb128 0xb
 2397 00a3 0B       		.uleb128 0xb
 2398 00a4 00       		.byte	0
 2399 00a5 00       		.byte	0
 2400 00a6 0F       		.uleb128 0xf
 2401 00a7 13       		.uleb128 0x13
 2402 00a8 01       		.byte	0x1
 2403 00a9 03       		.uleb128 0x3
 2404 00aa 0E       		.uleb128 0xe
 2405 00ab 0B       		.uleb128 0xb
 2406 00ac 05       		.uleb128 0x5
 2407 00ad 3A       		.uleb128 0x3a
 2408 00ae 0B       		.uleb128 0xb
 2409 00af 3B       		.uleb128 0x3b
 2410 00b0 05       		.uleb128 0x5
 2411 00b1 01       		.uleb128 0x1
 2412 00b2 13       		.uleb128 0x13
 2413 00b3 00       		.byte	0
 2414 00b4 00       		.byte	0
 2415 00b5 10       		.uleb128 0x10
 2416 00b6 0D       		.uleb128 0xd
 2417 00b7 00       		.byte	0
 2418 00b8 03       		.uleb128 0x3
 2419 00b9 0E       		.uleb128 0xe
 2420 00ba 3A       		.uleb128 0x3a
 2421 00bb 0B       		.uleb128 0xb
 2422 00bc 3B       		.uleb128 0x3b
 2423 00bd 05       		.uleb128 0x5
 2424 00be 49       		.uleb128 0x49
 2425 00bf 13       		.uleb128 0x13
 2426 00c0 38       		.uleb128 0x38
 2427 00c1 05       		.uleb128 0x5
 2428 00c2 00       		.byte	0
 2429 00c3 00       		.byte	0
 2430 00c4 11       		.uleb128 0x11
 2431 00c5 0D       		.uleb128 0xd
 2432 00c6 00       		.byte	0
 2433 00c7 03       		.uleb128 0x3
 2434 00c8 08       		.uleb128 0x8
 2435 00c9 3A       		.uleb128 0x3a
 2436 00ca 0B       		.uleb128 0xb
 2437 00cb 3B       		.uleb128 0x3b
 2438 00cc 05       		.uleb128 0x5
 2439 00cd 49       		.uleb128 0x49
 2440 00ce 13       		.uleb128 0x13
ARM GAS  /tmp/ccdUMlxU.s 			page 44


 2441 00cf 38       		.uleb128 0x38
 2442 00d0 05       		.uleb128 0x5
 2443 00d1 00       		.byte	0
 2444 00d2 00       		.byte	0
 2445 00d3 12       		.uleb128 0x12
 2446 00d4 01       		.uleb128 0x1
 2447 00d5 01       		.byte	0x1
 2448 00d6 49       		.uleb128 0x49
 2449 00d7 13       		.uleb128 0x13
 2450 00d8 01       		.uleb128 0x1
 2451 00d9 13       		.uleb128 0x13
 2452 00da 00       		.byte	0
 2453 00db 00       		.byte	0
 2454 00dc 13       		.uleb128 0x13
 2455 00dd 21       		.uleb128 0x21
 2456 00de 00       		.byte	0
 2457 00df 49       		.uleb128 0x49
 2458 00e0 13       		.uleb128 0x13
 2459 00e1 2F       		.uleb128 0x2f
 2460 00e2 0B       		.uleb128 0xb
 2461 00e3 00       		.byte	0
 2462 00e4 00       		.byte	0
 2463 00e5 14       		.uleb128 0x14
 2464 00e6 0D       		.uleb128 0xd
 2465 00e7 00       		.byte	0
 2466 00e8 03       		.uleb128 0x3
 2467 00e9 08       		.uleb128 0x8
 2468 00ea 3A       		.uleb128 0x3a
 2469 00eb 0B       		.uleb128 0xb
 2470 00ec 3B       		.uleb128 0x3b
 2471 00ed 0B       		.uleb128 0xb
 2472 00ee 49       		.uleb128 0x49
 2473 00ef 13       		.uleb128 0x13
 2474 00f0 38       		.uleb128 0x38
 2475 00f1 0B       		.uleb128 0xb
 2476 00f2 00       		.byte	0
 2477 00f3 00       		.byte	0
 2478 00f4 15       		.uleb128 0x15
 2479 00f5 13       		.uleb128 0x13
 2480 00f6 01       		.byte	0x1
 2481 00f7 0B       		.uleb128 0xb
 2482 00f8 0B       		.uleb128 0xb
 2483 00f9 3A       		.uleb128 0x3a
 2484 00fa 0B       		.uleb128 0xb
 2485 00fb 3B       		.uleb128 0x3b
 2486 00fc 05       		.uleb128 0x5
 2487 00fd 01       		.uleb128 0x1
 2488 00fe 13       		.uleb128 0x13
 2489 00ff 00       		.byte	0
 2490 0100 00       		.byte	0
 2491 0101 16       		.uleb128 0x16
 2492 0102 16       		.uleb128 0x16
 2493 0103 00       		.byte	0
 2494 0104 03       		.uleb128 0x3
 2495 0105 0E       		.uleb128 0xe
 2496 0106 3A       		.uleb128 0x3a
 2497 0107 0B       		.uleb128 0xb
ARM GAS  /tmp/ccdUMlxU.s 			page 45


 2498 0108 3B       		.uleb128 0x3b
 2499 0109 05       		.uleb128 0x5
 2500 010a 49       		.uleb128 0x49
 2501 010b 13       		.uleb128 0x13
 2502 010c 00       		.byte	0
 2503 010d 00       		.byte	0
 2504 010e 17       		.uleb128 0x17
 2505 010f 13       		.uleb128 0x13
 2506 0110 01       		.byte	0x1
 2507 0111 0B       		.uleb128 0xb
 2508 0112 0B       		.uleb128 0xb
 2509 0113 3A       		.uleb128 0x3a
 2510 0114 0B       		.uleb128 0xb
 2511 0115 3B       		.uleb128 0x3b
 2512 0116 0B       		.uleb128 0xb
 2513 0117 01       		.uleb128 0x1
 2514 0118 13       		.uleb128 0x13
 2515 0119 00       		.byte	0
 2516 011a 00       		.byte	0
 2517 011b 18       		.uleb128 0x18
 2518 011c 13       		.uleb128 0x13
 2519 011d 01       		.byte	0x1
 2520 011e 0B       		.uleb128 0xb
 2521 011f 05       		.uleb128 0x5
 2522 0120 3A       		.uleb128 0x3a
 2523 0121 0B       		.uleb128 0xb
 2524 0122 3B       		.uleb128 0x3b
 2525 0123 0B       		.uleb128 0xb
 2526 0124 01       		.uleb128 0x1
 2527 0125 13       		.uleb128 0x13
 2528 0126 00       		.byte	0
 2529 0127 00       		.byte	0
 2530 0128 19       		.uleb128 0x19
 2531 0129 17       		.uleb128 0x17
 2532 012a 01       		.byte	0x1
 2533 012b 0B       		.uleb128 0xb
 2534 012c 0B       		.uleb128 0xb
 2535 012d 3A       		.uleb128 0x3a
 2536 012e 0B       		.uleb128 0xb
 2537 012f 3B       		.uleb128 0x3b
 2538 0130 0B       		.uleb128 0xb
 2539 0131 01       		.uleb128 0x1
 2540 0132 13       		.uleb128 0x13
 2541 0133 00       		.byte	0
 2542 0134 00       		.byte	0
 2543 0135 1A       		.uleb128 0x1a
 2544 0136 0D       		.uleb128 0xd
 2545 0137 00       		.byte	0
 2546 0138 03       		.uleb128 0x3
 2547 0139 0E       		.uleb128 0xe
 2548 013a 3A       		.uleb128 0x3a
 2549 013b 0B       		.uleb128 0xb
 2550 013c 3B       		.uleb128 0x3b
 2551 013d 05       		.uleb128 0x5
 2552 013e 49       		.uleb128 0x49
 2553 013f 13       		.uleb128 0x13
 2554 0140 00       		.byte	0
ARM GAS  /tmp/ccdUMlxU.s 			page 46


 2555 0141 00       		.byte	0
 2556 0142 1B       		.uleb128 0x1b
 2557 0143 26       		.uleb128 0x26
 2558 0144 00       		.byte	0
 2559 0145 49       		.uleb128 0x49
 2560 0146 13       		.uleb128 0x13
 2561 0147 00       		.byte	0
 2562 0148 00       		.byte	0
 2563 0149 1C       		.uleb128 0x1c
 2564 014a 2E       		.uleb128 0x2e
 2565 014b 01       		.byte	0x1
 2566 014c 03       		.uleb128 0x3
 2567 014d 0E       		.uleb128 0xe
 2568 014e 3A       		.uleb128 0x3a
 2569 014f 0B       		.uleb128 0xb
 2570 0150 3B       		.uleb128 0x3b
 2571 0151 05       		.uleb128 0x5
 2572 0152 27       		.uleb128 0x27
 2573 0153 19       		.uleb128 0x19
 2574 0154 20       		.uleb128 0x20
 2575 0155 0B       		.uleb128 0xb
 2576 0156 01       		.uleb128 0x1
 2577 0157 13       		.uleb128 0x13
 2578 0158 00       		.byte	0
 2579 0159 00       		.byte	0
 2580 015a 1D       		.uleb128 0x1d
 2581 015b 05       		.uleb128 0x5
 2582 015c 00       		.byte	0
 2583 015d 03       		.uleb128 0x3
 2584 015e 0E       		.uleb128 0xe
 2585 015f 3A       		.uleb128 0x3a
 2586 0160 0B       		.uleb128 0xb
 2587 0161 3B       		.uleb128 0x3b
 2588 0162 05       		.uleb128 0x5
 2589 0163 49       		.uleb128 0x49
 2590 0164 13       		.uleb128 0x13
 2591 0165 00       		.byte	0
 2592 0166 00       		.byte	0
 2593 0167 1E       		.uleb128 0x1e
 2594 0168 2E       		.uleb128 0x2e
 2595 0169 00       		.byte	0
 2596 016a 03       		.uleb128 0x3
 2597 016b 0E       		.uleb128 0xe
 2598 016c 3A       		.uleb128 0x3a
 2599 016d 0B       		.uleb128 0xb
 2600 016e 3B       		.uleb128 0x3b
 2601 016f 05       		.uleb128 0x5
 2602 0170 27       		.uleb128 0x27
 2603 0171 19       		.uleb128 0x19
 2604 0172 20       		.uleb128 0x20
 2605 0173 0B       		.uleb128 0xb
 2606 0174 00       		.byte	0
 2607 0175 00       		.byte	0
 2608 0176 1F       		.uleb128 0x1f
 2609 0177 2E       		.uleb128 0x2e
 2610 0178 00       		.byte	0
 2611 0179 03       		.uleb128 0x3
ARM GAS  /tmp/ccdUMlxU.s 			page 47


 2612 017a 0E       		.uleb128 0xe
 2613 017b 3A       		.uleb128 0x3a
 2614 017c 0B       		.uleb128 0xb
 2615 017d 3B       		.uleb128 0x3b
 2616 017e 0B       		.uleb128 0xb
 2617 017f 27       		.uleb128 0x27
 2618 0180 19       		.uleb128 0x19
 2619 0181 49       		.uleb128 0x49
 2620 0182 13       		.uleb128 0x13
 2621 0183 20       		.uleb128 0x20
 2622 0184 0B       		.uleb128 0xb
 2623 0185 00       		.byte	0
 2624 0186 00       		.byte	0
 2625 0187 20       		.uleb128 0x20
 2626 0188 2E       		.uleb128 0x2e
 2627 0189 01       		.byte	0x1
 2628 018a 3F       		.uleb128 0x3f
 2629 018b 19       		.uleb128 0x19
 2630 018c 03       		.uleb128 0x3
 2631 018d 0E       		.uleb128 0xe
 2632 018e 3A       		.uleb128 0x3a
 2633 018f 0B       		.uleb128 0xb
 2634 0190 3B       		.uleb128 0x3b
 2635 0191 0B       		.uleb128 0xb
 2636 0192 27       		.uleb128 0x27
 2637 0193 19       		.uleb128 0x19
 2638 0194 11       		.uleb128 0x11
 2639 0195 01       		.uleb128 0x1
 2640 0196 12       		.uleb128 0x12
 2641 0197 06       		.uleb128 0x6
 2642 0198 40       		.uleb128 0x40
 2643 0199 18       		.uleb128 0x18
 2644 019a 9742     		.uleb128 0x2117
 2645 019c 19       		.uleb128 0x19
 2646 019d 01       		.uleb128 0x1
 2647 019e 13       		.uleb128 0x13
 2648 019f 00       		.byte	0
 2649 01a0 00       		.byte	0
 2650 01a1 21       		.uleb128 0x21
 2651 01a2 898201   		.uleb128 0x4109
 2652 01a5 01       		.byte	0x1
 2653 01a6 11       		.uleb128 0x11
 2654 01a7 01       		.uleb128 0x1
 2655 01a8 9542     		.uleb128 0x2115
 2656 01aa 19       		.uleb128 0x19
 2657 01ab 31       		.uleb128 0x31
 2658 01ac 13       		.uleb128 0x13
 2659 01ad 00       		.byte	0
 2660 01ae 00       		.byte	0
 2661 01af 22       		.uleb128 0x22
 2662 01b0 8A8201   		.uleb128 0x410a
 2663 01b3 00       		.byte	0
 2664 01b4 02       		.uleb128 0x2
 2665 01b5 18       		.uleb128 0x18
 2666 01b6 9142     		.uleb128 0x2111
 2667 01b8 18       		.uleb128 0x18
 2668 01b9 00       		.byte	0
ARM GAS  /tmp/ccdUMlxU.s 			page 48


 2669 01ba 00       		.byte	0
 2670 01bb 23       		.uleb128 0x23
 2671 01bc 898201   		.uleb128 0x4109
 2672 01bf 01       		.byte	0x1
 2673 01c0 11       		.uleb128 0x11
 2674 01c1 01       		.uleb128 0x1
 2675 01c2 31       		.uleb128 0x31
 2676 01c3 13       		.uleb128 0x13
 2677 01c4 00       		.byte	0
 2678 01c5 00       		.byte	0
 2679 01c6 24       		.uleb128 0x24
 2680 01c7 1D       		.uleb128 0x1d
 2681 01c8 01       		.byte	0x1
 2682 01c9 31       		.uleb128 0x31
 2683 01ca 13       		.uleb128 0x13
 2684 01cb 11       		.uleb128 0x11
 2685 01cc 01       		.uleb128 0x1
 2686 01cd 12       		.uleb128 0x12
 2687 01ce 06       		.uleb128 0x6
 2688 01cf 58       		.uleb128 0x58
 2689 01d0 0B       		.uleb128 0xb
 2690 01d1 59       		.uleb128 0x59
 2691 01d2 0B       		.uleb128 0xb
 2692 01d3 01       		.uleb128 0x1
 2693 01d4 13       		.uleb128 0x13
 2694 01d5 00       		.byte	0
 2695 01d6 00       		.byte	0
 2696 01d7 25       		.uleb128 0x25
 2697 01d8 1D       		.uleb128 0x1d
 2698 01d9 01       		.byte	0x1
 2699 01da 31       		.uleb128 0x31
 2700 01db 13       		.uleb128 0x13
 2701 01dc 11       		.uleb128 0x11
 2702 01dd 01       		.uleb128 0x1
 2703 01de 12       		.uleb128 0x12
 2704 01df 06       		.uleb128 0x6
 2705 01e0 58       		.uleb128 0x58
 2706 01e1 0B       		.uleb128 0xb
 2707 01e2 59       		.uleb128 0x59
 2708 01e3 05       		.uleb128 0x5
 2709 01e4 00       		.byte	0
 2710 01e5 00       		.byte	0
 2711 01e6 26       		.uleb128 0x26
 2712 01e7 05       		.uleb128 0x5
 2713 01e8 00       		.byte	0
 2714 01e9 31       		.uleb128 0x31
 2715 01ea 13       		.uleb128 0x13
 2716 01eb 02       		.uleb128 0x2
 2717 01ec 17       		.uleb128 0x17
 2718 01ed 00       		.byte	0
 2719 01ee 00       		.byte	0
 2720 01ef 27       		.uleb128 0x27
 2721 01f0 2E       		.uleb128 0x2e
 2722 01f1 00       		.byte	0
 2723 01f2 3F       		.uleb128 0x3f
 2724 01f3 19       		.uleb128 0x19
 2725 01f4 03       		.uleb128 0x3
ARM GAS  /tmp/ccdUMlxU.s 			page 49


 2726 01f5 0E       		.uleb128 0xe
 2727 01f6 3A       		.uleb128 0x3a
 2728 01f7 0B       		.uleb128 0xb
 2729 01f8 3B       		.uleb128 0x3b
 2730 01f9 05       		.uleb128 0x5
 2731 01fa 27       		.uleb128 0x27
 2732 01fb 19       		.uleb128 0x19
 2733 01fc 11       		.uleb128 0x11
 2734 01fd 01       		.uleb128 0x1
 2735 01fe 12       		.uleb128 0x12
 2736 01ff 06       		.uleb128 0x6
 2737 0200 40       		.uleb128 0x40
 2738 0201 18       		.uleb128 0x18
 2739 0202 9742     		.uleb128 0x2117
 2740 0204 19       		.uleb128 0x19
 2741 0205 00       		.byte	0
 2742 0206 00       		.byte	0
 2743 0207 28       		.uleb128 0x28
 2744 0208 2E       		.uleb128 0x2e
 2745 0209 01       		.byte	0x1
 2746 020a 3F       		.uleb128 0x3f
 2747 020b 19       		.uleb128 0x19
 2748 020c 03       		.uleb128 0x3
 2749 020d 0E       		.uleb128 0xe
 2750 020e 3A       		.uleb128 0x3a
 2751 020f 0B       		.uleb128 0xb
 2752 0210 3B       		.uleb128 0x3b
 2753 0211 05       		.uleb128 0x5
 2754 0212 27       		.uleb128 0x27
 2755 0213 19       		.uleb128 0x19
 2756 0214 11       		.uleb128 0x11
 2757 0215 01       		.uleb128 0x1
 2758 0216 12       		.uleb128 0x12
 2759 0217 06       		.uleb128 0x6
 2760 0218 40       		.uleb128 0x40
 2761 0219 18       		.uleb128 0x18
 2762 021a 9742     		.uleb128 0x2117
 2763 021c 19       		.uleb128 0x19
 2764 021d 01       		.uleb128 0x1
 2765 021e 13       		.uleb128 0x13
 2766 021f 00       		.byte	0
 2767 0220 00       		.byte	0
 2768 0221 29       		.uleb128 0x29
 2769 0222 05       		.uleb128 0x5
 2770 0223 00       		.byte	0
 2771 0224 03       		.uleb128 0x3
 2772 0225 08       		.uleb128 0x8
 2773 0226 3A       		.uleb128 0x3a
 2774 0227 0B       		.uleb128 0xb
 2775 0228 3B       		.uleb128 0x3b
 2776 0229 05       		.uleb128 0x5
 2777 022a 49       		.uleb128 0x49
 2778 022b 13       		.uleb128 0x13
 2779 022c 02       		.uleb128 0x2
 2780 022d 18       		.uleb128 0x18
 2781 022e 00       		.byte	0
 2782 022f 00       		.byte	0
ARM GAS  /tmp/ccdUMlxU.s 			page 50


 2783 0230 2A       		.uleb128 0x2a
 2784 0231 1D       		.uleb128 0x1d
 2785 0232 01       		.byte	0x1
 2786 0233 31       		.uleb128 0x31
 2787 0234 13       		.uleb128 0x13
 2788 0235 52       		.uleb128 0x52
 2789 0236 01       		.uleb128 0x1
 2790 0237 55       		.uleb128 0x55
 2791 0238 17       		.uleb128 0x17
 2792 0239 58       		.uleb128 0x58
 2793 023a 0B       		.uleb128 0xb
 2794 023b 59       		.uleb128 0x59
 2795 023c 05       		.uleb128 0x5
 2796 023d 00       		.byte	0
 2797 023e 00       		.byte	0
 2798 023f 2B       		.uleb128 0x2b
 2799 0240 1D       		.uleb128 0x1d
 2800 0241 01       		.byte	0x1
 2801 0242 31       		.uleb128 0x31
 2802 0243 13       		.uleb128 0x13
 2803 0244 52       		.uleb128 0x52
 2804 0245 01       		.uleb128 0x1
 2805 0246 55       		.uleb128 0x55
 2806 0247 17       		.uleb128 0x17
 2807 0248 58       		.uleb128 0x58
 2808 0249 0B       		.uleb128 0xb
 2809 024a 59       		.uleb128 0x59
 2810 024b 0B       		.uleb128 0xb
 2811 024c 00       		.byte	0
 2812 024d 00       		.byte	0
 2813 024e 2C       		.uleb128 0x2c
 2814 024f 1D       		.uleb128 0x1d
 2815 0250 00       		.byte	0
 2816 0251 31       		.uleb128 0x31
 2817 0252 13       		.uleb128 0x13
 2818 0253 52       		.uleb128 0x52
 2819 0254 01       		.uleb128 0x1
 2820 0255 55       		.uleb128 0x55
 2821 0256 17       		.uleb128 0x17
 2822 0257 58       		.uleb128 0x58
 2823 0258 0B       		.uleb128 0xb
 2824 0259 59       		.uleb128 0x59
 2825 025a 0B       		.uleb128 0xb
 2826 025b 00       		.byte	0
 2827 025c 00       		.byte	0
 2828 025d 2D       		.uleb128 0x2d
 2829 025e 34       		.uleb128 0x34
 2830 025f 00       		.byte	0
 2831 0260 03       		.uleb128 0x3
 2832 0261 0E       		.uleb128 0xe
 2833 0262 3A       		.uleb128 0x3a
 2834 0263 0B       		.uleb128 0xb
 2835 0264 3B       		.uleb128 0x3b
 2836 0265 05       		.uleb128 0x5
 2837 0266 49       		.uleb128 0x49
 2838 0267 13       		.uleb128 0x13
 2839 0268 3F       		.uleb128 0x3f
ARM GAS  /tmp/ccdUMlxU.s 			page 51


 2840 0269 19       		.uleb128 0x19
 2841 026a 3C       		.uleb128 0x3c
 2842 026b 19       		.uleb128 0x19
 2843 026c 00       		.byte	0
 2844 026d 00       		.byte	0
 2845 026e 2E       		.uleb128 0x2e
 2846 026f 34       		.uleb128 0x34
 2847 0270 00       		.byte	0
 2848 0271 03       		.uleb128 0x3
 2849 0272 08       		.uleb128 0x8
 2850 0273 3A       		.uleb128 0x3a
 2851 0274 0B       		.uleb128 0xb
 2852 0275 3B       		.uleb128 0x3b
 2853 0276 05       		.uleb128 0x5
 2854 0277 49       		.uleb128 0x49
 2855 0278 13       		.uleb128 0x13
 2856 0279 3F       		.uleb128 0x3f
 2857 027a 19       		.uleb128 0x19
 2858 027b 3C       		.uleb128 0x3c
 2859 027c 19       		.uleb128 0x19
 2860 027d 00       		.byte	0
 2861 027e 00       		.byte	0
 2862 027f 2F       		.uleb128 0x2f
 2863 0280 2E       		.uleb128 0x2e
 2864 0281 00       		.byte	0
 2865 0282 3F       		.uleb128 0x3f
 2866 0283 19       		.uleb128 0x19
 2867 0284 3C       		.uleb128 0x3c
 2868 0285 19       		.uleb128 0x19
 2869 0286 6E       		.uleb128 0x6e
 2870 0287 0E       		.uleb128 0xe
 2871 0288 03       		.uleb128 0x3
 2872 0289 0E       		.uleb128 0xe
 2873 028a 3A       		.uleb128 0x3a
 2874 028b 0B       		.uleb128 0xb
 2875 028c 3B       		.uleb128 0x3b
 2876 028d 05       		.uleb128 0x5
 2877 028e 00       		.byte	0
 2878 028f 00       		.byte	0
 2879 0290 00       		.byte	0
 2880              		.section	.debug_loc,"",%progbits
 2881              	.Ldebug_loc0:
 2882              	.LLST0:
 2883 0000 00000000 		.4byte	.LVL7
 2884 0004 08000000 		.4byte	.LVL8
 2885 0008 0300     		.2byte	0x3
 2886 000a 08       		.byte	0x8
 2887 000b 20       		.byte	0x20
 2888 000c 9F       		.byte	0x9f
 2889 000d 00000000 		.4byte	0
 2890 0011 00000000 		.4byte	0
 2891              	.LLST1:
 2892 0015 20000000 		.4byte	.LVL10
 2893 0019 26000000 		.4byte	.LVL11
 2894 001d 0200     		.2byte	0x2
 2895 001f 30       		.byte	0x30
 2896 0020 9F       		.byte	0x9f
ARM GAS  /tmp/ccdUMlxU.s 			page 52


 2897 0021 00000000 		.4byte	0
 2898 0025 00000000 		.4byte	0
 2899              	.LLST2:
 2900 0029 00000000 		.4byte	.LVL12
 2901 002d 08000000 		.4byte	.LVL13
 2902 0031 0300     		.2byte	0x3
 2903 0033 08       		.byte	0x8
 2904 0034 20       		.byte	0x20
 2905 0035 9F       		.byte	0x9f
 2906 0036 00000000 		.4byte	0
 2907 003a 00000000 		.4byte	0
 2908              	.LLST3:
 2909 003e 20000000 		.4byte	.LVL15
 2910 0042 26000000 		.4byte	.LVL16
 2911 0046 0200     		.2byte	0x2
 2912 0048 30       		.byte	0x30
 2913 0049 9F       		.byte	0x9f
 2914 004a 00000000 		.4byte	0
 2915 004e 00000000 		.4byte	0
 2916              		.section	.debug_aranges,"",%progbits
 2917 0000 7C000000 		.4byte	0x7c
 2918 0004 0200     		.2byte	0x2
 2919 0006 00000000 		.4byte	.Ldebug_info0
 2920 000a 04       		.byte	0x4
 2921 000b 00       		.byte	0
 2922 000c 0000     		.2byte	0
 2923 000e 0000     		.2byte	0
 2924 0010 00000000 		.4byte	.LFB227
 2925 0014 1C000000 		.4byte	.LFE227-.LFB227
 2926 0018 00000000 		.4byte	.LFB228
 2927 001c 1C000000 		.4byte	.LFE228-.LFB228
 2928 0020 00000000 		.4byte	.LFB229
 2929 0024 1C000000 		.4byte	.LFE229-.LFB229
 2930 0028 00000000 		.4byte	.LFB230
 2931 002c 20000000 		.4byte	.LFE230-.LFB230
 2932 0030 00000000 		.4byte	.LFB231
 2933 0034 28000000 		.4byte	.LFE231-.LFB231
 2934 0038 00000000 		.4byte	.LFB232
 2935 003c 24000000 		.4byte	.LFE232-.LFB232
 2936 0040 00000000 		.4byte	.LFB233
 2937 0044 2C000000 		.4byte	.LFE233-.LFB233
 2938 0048 00000000 		.4byte	.LFB234
 2939 004c 30000000 		.4byte	.LFE234-.LFB234
 2940 0050 00000000 		.4byte	.LFB235
 2941 0054 30000000 		.4byte	.LFE235-.LFB235
 2942 0058 00000000 		.4byte	.LFB236
 2943 005c 20000000 		.4byte	.LFE236-.LFB236
 2944 0060 00000000 		.4byte	.LFB237
 2945 0064 1C000000 		.4byte	.LFE237-.LFB237
 2946 0068 00000000 		.4byte	.LFB238
 2947 006c 10000000 		.4byte	.LFE238-.LFB238
 2948 0070 00000000 		.4byte	.LFB239
 2949 0074 34000000 		.4byte	.LFE239-.LFB239
 2950 0078 00000000 		.4byte	0
 2951 007c 00000000 		.4byte	0
 2952              		.section	.debug_ranges,"",%progbits
 2953              	.Ldebug_ranges0:
ARM GAS  /tmp/ccdUMlxU.s 			page 53


 2954 0000 02000000 		.4byte	.LBB61
 2955 0004 06000000 		.4byte	.LBE61
 2956 0008 0A000000 		.4byte	.LBB68
 2957 000c 0C000000 		.4byte	.LBE68
 2958 0010 00000000 		.4byte	0
 2959 0014 00000000 		.4byte	0
 2960 0018 00000000 		.4byte	.LFB227
 2961 001c 1C000000 		.4byte	.LFE227
 2962 0020 00000000 		.4byte	.LFB228
 2963 0024 1C000000 		.4byte	.LFE228
 2964 0028 00000000 		.4byte	.LFB229
 2965 002c 1C000000 		.4byte	.LFE229
 2966 0030 00000000 		.4byte	.LFB230
 2967 0034 20000000 		.4byte	.LFE230
 2968 0038 00000000 		.4byte	.LFB231
 2969 003c 28000000 		.4byte	.LFE231
 2970 0040 00000000 		.4byte	.LFB232
 2971 0044 24000000 		.4byte	.LFE232
 2972 0048 00000000 		.4byte	.LFB233
 2973 004c 2C000000 		.4byte	.LFE233
 2974 0050 00000000 		.4byte	.LFB234
 2975 0054 30000000 		.4byte	.LFE234
 2976 0058 00000000 		.4byte	.LFB235
 2977 005c 30000000 		.4byte	.LFE235
 2978 0060 00000000 		.4byte	.LFB236
 2979 0064 20000000 		.4byte	.LFE236
 2980 0068 00000000 		.4byte	.LFB237
 2981 006c 1C000000 		.4byte	.LFE237
 2982 0070 00000000 		.4byte	.LFB238
 2983 0074 10000000 		.4byte	.LFE238
 2984 0078 00000000 		.4byte	.LFB239
 2985 007c 34000000 		.4byte	.LFE239
 2986 0080 00000000 		.4byte	0
 2987 0084 00000000 		.4byte	0
 2988              		.section	.debug_line,"",%progbits
 2989              	.Ldebug_line0:
 2990 0000 10040000 		.section	.debug_str,"MS",%progbits,1
 2990      02008902 
 2990      00000201 
 2990      FB0E0D00 
 2990      01010101 
 2991              	.LASF108:
 2992 0000 74625F70 		.ascii	"tb_ptr\000"
 2992      747200
 2993              	.LASF55:
 2994 0007 72656164 		.ascii	"ready_list_t\000"
 2994      795F6C69 
 2994      73745F74 
 2994      00
 2995              	.LASF93:
 2996 0014 44494552 		.ascii	"DIER\000"
 2996      00
 2997              	.LASF126:
 2998 0019 77747472 		.ascii	"wttrp\000"
 2998      7000
 2999              	.LASF123:
 3000 001f 7264796D 		.ascii	"rdymsg\000"
ARM GAS  /tmp/ccdUMlxU.s 			page 54


 3000      736700
 3001              	.LASF17:
 3002 0026 75696E74 		.ascii	"uint64_t\000"
 3002      36345F74 
 3002      00
 3003              	.LASF85:
 3004 002f 6B65726E 		.ascii	"kernel_stats\000"
 3004      656C5F73 
 3004      74617473 
 3004      00
 3005              	.LASF7:
 3006 003c 5F5F7569 		.ascii	"__uint8_t\000"
 3006      6E74385F 
 3006      7400
 3007              	.LASF91:
 3008 0046 706F7274 		.ascii	"port_intctx\000"
 3008      5F696E74 
 3008      63747800 
 3009              	.LASF54:
 3010 0052 63685F74 		.ascii	"ch_threads_queue\000"
 3010      68726561 
 3010      64735F71 
 3010      75657565 
 3010      00
 3011              	.LASF74:
 3012 0063 73797374 		.ascii	"system_debug_t\000"
 3012      656D5F64 
 3012      65627567 
 3012      5F7400
 3013              	.LASF139:
 3014 0072 706F7274 		.ascii	"port_lock\000"
 3014      5F6C6F63 
 3014      6B00
 3015              	.LASF114:
 3016 007c 776F7273 		.ascii	"worst\000"
 3016      7400
 3017              	.LASF117:
 3018 0082 74696D65 		.ascii	"time_measurement_t\000"
 3018      5F6D6561 
 3018      73757265 
 3018      6D656E74 
 3018      5F7400
 3019              	.LASF13:
 3020 0095 6C6F6E67 		.ascii	"long long unsigned int\000"
 3020      206C6F6E 
 3020      6720756E 
 3020      7369676E 
 3020      65642069 
 3021              	.LASF110:
 3022 00ac 63685F74 		.ascii	"ch_trace_buffer_t\000"
 3022      72616365 
 3022      5F627566 
 3022      6665725F 
 3022      7400
 3023              	.LASF105:
 3024 00be 73655F73 		.ascii	"se_state\000"
 3024      74617465 
ARM GAS  /tmp/ccdUMlxU.s 			page 55


 3024      00
 3025              	.LASF124:
 3026 00c7 65786974 		.ascii	"exitcode\000"
 3026      636F6465 
 3026      00
 3027              	.LASF84:
 3028 00d0 6D61696E 		.ascii	"mainthread\000"
 3028      74687265 
 3028      616400
 3029              	.LASF8:
 3030 00db 5F5F696E 		.ascii	"__int32_t\000"
 3030      7433325F 
 3030      7400
 3031              	.LASF71:
 3032 00e5 76697274 		.ascii	"virtual_timers_list_t\000"
 3032      75616C5F 
 3032      74696D65 
 3032      72735F6C 
 3032      6973745F 
 3033              	.LASF158:
 3034 00fb 49544D5F 		.ascii	"ITM_RxBuffer\000"
 3034      52784275 
 3034      66666572 
 3034      00
 3035              	.LASF97:
 3036 0108 42445452 		.ascii	"BDTR\000"
 3036      00
 3037              	.LASF19:
 3038 010d 72747469 		.ascii	"rttime_t\000"
 3038      6D655F74 
 3038      00
 3039              	.LASF32:
 3040 0116 705F7072 		.ascii	"p_prio\000"
 3040      696F00
 3041              	.LASF94:
 3042 011d 43434D52 		.ascii	"CCMR1\000"
 3042      3100
 3043              	.LASF95:
 3044 0123 43434D52 		.ascii	"CCMR2\000"
 3044      3200
 3045              	.LASF99:
 3046 0129 43434D52 		.ascii	"CCMR3\000"
 3046      3300
 3047              	.LASF3:
 3048 012f 7369676E 		.ascii	"signed char\000"
 3048      65642063 
 3048      68617200 
 3049              	.LASF102:
 3050 013b 73655F74 		.ascii	"se_time\000"
 3050      696D6500 
 3051              	.LASF134:
 3052 0143 6D5F7175 		.ascii	"m_queue\000"
 3052      65756500 
 3053              	.LASF83:
 3054 014b 76746C69 		.ascii	"vtlist\000"
 3054      737400
 3055              	.LASF140:
ARM GAS  /tmp/ccdUMlxU.s 			page 56


 3056 0152 706F7274 		.ascii	"port_unlock\000"
 3056      5F756E6C 
 3056      6F636B00 
 3057              	.LASF148:
 3058 015e 5F646267 		.ascii	"_dbg_check_enable\000"
 3058      5F636865 
 3058      636B5F65 
 3058      6E61626C 
 3058      6500
 3059              	.LASF81:
 3060 0170 63685F73 		.ascii	"ch_system\000"
 3060      79737465 
 3060      6D00
 3061              	.LASF9:
 3062 017a 6C6F6E67 		.ascii	"long int\000"
 3062      20696E74 
 3062      00
 3063              	.LASF21:
 3064 0183 74737461 		.ascii	"tstate_t\000"
 3064      74655F74 
 3064      00
 3065              	.LASF96:
 3066 018c 43434552 		.ascii	"CCER\000"
 3066      00
 3067              	.LASF103:
 3068 0191 73655F74 		.ascii	"se_tp\000"
 3068      7000
 3069              	.LASF1:
 3070 0197 6C6F6E67 		.ascii	"long long int\000"
 3070      206C6F6E 
 3070      6720696E 
 3070      7400
 3071              	.LASF34:
 3072 01a5 705F6E65 		.ascii	"p_newer\000"
 3072      77657200 
 3073              	.LASF131:
 3074 01ad 735F7175 		.ascii	"s_queue\000"
 3074      65756500 
 3075              	.LASF6:
 3076 01b5 73686F72 		.ascii	"short unsigned int\000"
 3076      7420756E 
 3076      7369676E 
 3076      65642069 
 3076      6E7400
 3077              	.LASF107:
 3078 01c8 74625F73 		.ascii	"tb_size\000"
 3078      697A6500 
 3079              	.LASF60:
 3080 01d0 725F6E65 		.ascii	"r_newer\000"
 3080      77657200 
 3081              	.LASF47:
 3082 01d8 705F6D70 		.ascii	"p_mpool\000"
 3082      6F6F6C00 
 3083              	.LASF88:
 3084 01e0 72656761 		.ascii	"regarm_t\000"
 3084      726D5F74 
 3084      00
ARM GAS  /tmp/ccdUMlxU.s 			page 57


 3085              	.LASF67:
 3086 01e9 76745F70 		.ascii	"vt_prev\000"
 3086      72657600 
 3087              	.LASF164:
 3088 01f1 63685379 		.ascii	"chSysHalt\000"
 3088      7348616C 
 3088      7400
 3089              	.LASF75:
 3090 01fb 63685F73 		.ascii	"ch_system_debug\000"
 3090      79737465 
 3090      6D5F6465 
 3090      62756700 
 3091              	.LASF138:
 3092 020b 6D757465 		.ascii	"mutex_t\000"
 3092      785F7400 
 3093              	.LASF162:
 3094 0213 76616C75 		.ascii	"value\000"
 3094      6500
 3095              	.LASF78:
 3096 0219 6C6F636B 		.ascii	"lock_cnt\000"
 3096      5F636E74 
 3096      00
 3097              	.LASF86:
 3098 0222 69646C65 		.ascii	"idle_thread_wa\000"
 3098      5F746872 
 3098      6561645F 
 3098      776100
 3099              	.LASF26:
 3100 0231 636E745F 		.ascii	"cnt_t\000"
 3100      7400
 3101              	.LASF145:
 3102 0237 63685654 		.ascii	"chVTGetSystemTimeX\000"
 3102      47657453 
 3102      79737465 
 3102      6D54696D 
 3102      655800
 3103              	.LASF37:
 3104 024a 705F7374 		.ascii	"p_stklimit\000"
 3104      6B6C696D 
 3104      697400
 3105              	.LASF0:
 3106 0255 756E7369 		.ascii	"unsigned int\000"
 3106      676E6564 
 3106      20696E74 
 3106      00
 3107              	.LASF66:
 3108 0262 76745F6E 		.ascii	"vt_next\000"
 3108      65787400 
 3109              	.LASF154:
 3110 026a 5F646267 		.ascii	"_dbg_check_leave_isr\000"
 3110      5F636865 
 3110      636B5F6C 
 3110      65617665 
 3110      5F697372 
 3111              	.LASF127:
 3112 027f 77747365 		.ascii	"wtsemp\000"
 3112      6D7000
ARM GAS  /tmp/ccdUMlxU.s 			page 58


 3113              	.LASF42:
 3114 0286 705F6D73 		.ascii	"p_msgqueue\000"
 3114      67717565 
 3114      756500
 3115              	.LASF118:
 3116 0291 6E5F6972 		.ascii	"n_irq\000"
 3116      7100
 3117              	.LASF132:
 3118 0297 735F636E 		.ascii	"s_cnt\000"
 3118      7400
 3119              	.LASF92:
 3120 029d 534D4352 		.ascii	"SMCR\000"
 3120      00
 3121              	.LASF122:
 3122 02a2 6B65726E 		.ascii	"kernel_stats_t\000"
 3122      656C5F73 
 3122      74617473 
 3122      5F7400
 3123              	.LASF51:
 3124 02b1 63685F74 		.ascii	"ch_thread\000"
 3124      68726561 
 3124      6400
 3125              	.LASF24:
 3126 02bb 6D73675F 		.ascii	"msg_t\000"
 3126      7400
 3127              	.LASF115:
 3128 02c1 6C617374 		.ascii	"last\000"
 3128      00
 3129              	.LASF27:
 3130 02c6 75636E74 		.ascii	"ucnt_t\000"
 3130      5F7400
 3131              	.LASF155:
 3132 02cd 63684462 		.ascii	"chDbgCheckClassI\000"
 3132      67436865 
 3132      636B436C 
 3132      61737349 
 3132      00
 3133              	.LASF80:
 3134 02de 63685F73 		.ascii	"ch_system_t\000"
 3134      79737465 
 3134      6D5F7400 
 3135              	.LASF101:
 3136 02ea 73746D33 		.ascii	"stm32_tim_t\000"
 3136      325F7469 
 3136      6D5F7400 
 3137              	.LASF156:
 3138 02f6 63684462 		.ascii	"chDbgCheckClassS\000"
 3138      67436865 
 3138      636B436C 
 3138      61737353 
 3138      00
 3139              	.LASF121:
 3140 0307 6D5F6372 		.ascii	"m_crit_isr\000"
 3140      69745F69 
 3140      737200
 3141              	.LASF56:
 3142 0312 63685F72 		.ascii	"ch_ready_list\000"
ARM GAS  /tmp/ccdUMlxU.s 			page 59


 3142      65616479 
 3142      5F6C6973 
 3142      7400
 3143              	.LASF25:
 3144 0320 6576656E 		.ascii	"eventmask_t\000"
 3144      746D6173 
 3144      6B5F7400 
 3145              	.LASF89:
 3146 032c 73746B61 		.ascii	"stkalign_t\000"
 3146      6C69676E 
 3146      5F7400
 3147              	.LASF147:
 3148 0337 5F646267 		.ascii	"_dbg_check_suspend\000"
 3148      5F636865 
 3148      636B5F73 
 3148      75737065 
 3148      6E6400
 3149              	.LASF41:
 3150 034a 705F7761 		.ascii	"p_waiting\000"
 3150      6974696E 
 3150      6700
 3151              	.LASF87:
 3152 0354 73697A65 		.ascii	"sizetype\000"
 3152      74797065 
 3152      00
 3153              	.LASF49:
 3154 035d 74687265 		.ascii	"thread_reference_t\000"
 3154      61645F72 
 3154      65666572 
 3154      656E6365 
 3154      5F7400
 3155              	.LASF149:
 3156 0370 5F646267 		.ascii	"_dbg_check_lock\000"
 3156      5F636865 
 3156      636B5F6C 
 3156      6F636B00 
 3157              	.LASF72:
 3158 0380 63685F76 		.ascii	"ch_virtual_timers_list\000"
 3158      69727475 
 3158      616C5F74 
 3158      696D6572 
 3158      735F6C69 
 3159              	.LASF2:
 3160 0397 6C6F6E67 		.ascii	"long double\000"
 3160      20646F75 
 3160      626C6500 
 3161              	.LASF160:
 3162 03a3 2F686F6D 		.ascii	"/home/selim/working/ChibiOS/os/rt/src/chdebug.c\000"
 3162      652F7365 
 3162      6C696D2F 
 3162      776F726B 
 3162      696E672F 
 3163              	.LASF106:
 3164 03d3 63685F73 		.ascii	"ch_swc_event_t\000"
 3164      77635F65 
 3164      76656E74 
 3164      5F7400
ARM GAS  /tmp/ccdUMlxU.s 			page 60


 3165              	.LASF73:
 3166 03e2 76745F6C 		.ascii	"vt_lasttime\000"
 3166      61737474 
 3166      696D6500 
 3167              	.LASF153:
 3168 03ee 5F646267 		.ascii	"_dbg_check_enter_isr\000"
 3168      5F636865 
 3168      636B5F65 
 3168      6E746572 
 3168      5F697372 
 3169              	.LASF59:
 3170 0403 725F6374 		.ascii	"r_ctx\000"
 3170      7800
 3171              	.LASF112:
 3172 0409 746D5F63 		.ascii	"tm_calibration_t\000"
 3172      616C6962 
 3172      72617469 
 3172      6F6E5F74 
 3172      00
 3173              	.LASF62:
 3174 041a 725F6375 		.ascii	"r_current\000"
 3174      7272656E 
 3174      7400
 3175              	.LASF61:
 3176 0424 725F6F6C 		.ascii	"r_older\000"
 3176      64657200 
 3177              	.LASF151:
 3178 042c 5F646267 		.ascii	"_dbg_check_lock_from_isr\000"
 3178      5F636865 
 3178      636B5F6C 
 3178      6F636B5F 
 3178      66726F6D 
 3179              	.LASF12:
 3180 0445 5F5F7569 		.ascii	"__uint64_t\000"
 3180      6E743634 
 3180      5F7400
 3181              	.LASF116:
 3182 0450 63756D75 		.ascii	"cumulative\000"
 3182      6C617469 
 3182      766500
 3183              	.LASF22:
 3184 045b 74726566 		.ascii	"trefs_t\000"
 3184      735F7400 
 3185              	.LASF109:
 3186 0463 74625F62 		.ascii	"tb_buffer\000"
 3186      75666665 
 3186      7200
 3187              	.LASF146:
 3188 046d 5F646267 		.ascii	"_dbg_check_disable\000"
 3188      5F636865 
 3188      636B5F64 
 3188      69736162 
 3188      6C6500
 3189              	.LASF64:
 3190 0480 76697274 		.ascii	"virtual_timer_t\000"
 3190      75616C5F 
 3190      74696D65 
ARM GAS  /tmp/ccdUMlxU.s 			page 61


 3190      725F7400 
 3191              	.LASF31:
 3192 0490 705F7072 		.ascii	"p_prev\000"
 3192      657600
 3193              	.LASF23:
 3194 0497 74707269 		.ascii	"tprio_t\000"
 3194      6F5F7400 
 3195              	.LASF119:
 3196 049f 6E5F6374 		.ascii	"n_ctxswc\000"
 3196      78737763 
 3196      00
 3197              	.LASF15:
 3198 04a8 696E7433 		.ascii	"int32_t\000"
 3198      325F7400 
 3199              	.LASF4:
 3200 04b0 756E7369 		.ascii	"unsigned char\000"
 3200      676E6564 
 3200      20636861 
 3200      7200
 3201              	.LASF163:
 3202 04be 5F646267 		.ascii	"_dbg_trace_init\000"
 3202      5F747261 
 3202      63655F69 
 3202      6E697400 
 3203              	.LASF45:
 3204 04ce 705F6D74 		.ascii	"p_mtxlist\000"
 3204      786C6973 
 3204      7400
 3205              	.LASF5:
 3206 04d8 73686F72 		.ascii	"short int\000"
 3206      7420696E 
 3206      7400
 3207              	.LASF38:
 3208 04e2 705F7374 		.ascii	"p_state\000"
 3208      61746500 
 3209              	.LASF35:
 3210 04ea 705F6F6C 		.ascii	"p_older\000"
 3210      64657200 
 3211              	.LASF58:
 3212 04f2 725F7072 		.ascii	"r_prio\000"
 3212      696F00
 3213              	.LASF159:
 3214 04f9 474E5520 		.ascii	"GNU C11 5.3.1 20160307 (release) [ARM/embedded-5-br"
 3214      43313120 
 3214      352E332E 
 3214      31203230 
 3214      31363033 
 3215 052c 616E6368 		.ascii	"anch revision 234589] -mcpu=cortex-m4 -mno-thumb-in"
 3215      20726576 
 3215      6973696F 
 3215      6E203233 
 3215      34353839 
 3216 055f 74657277 		.ascii	"terwork -mthumb -ggdb -O2 -fomit-frame-pointer -fal"
 3216      6F726B20 
 3216      2D6D7468 
 3216      756D6220 
 3216      2D676764 
ARM GAS  /tmp/ccdUMlxU.s 			page 62


 3217 0592 69676E2D 		.ascii	"ign-functions=16 -ffunction-sections -fdata-section"
 3217      66756E63 
 3217      74696F6E 
 3217      733D3136 
 3217      202D6666 
 3218 05c5 73202D66 		.ascii	"s -fno-common\000"
 3218      6E6F2D63 
 3218      6F6D6D6F 
 3218      6E00
 3219              	.LASF129:
 3220 05d3 65776D61 		.ascii	"ewmask\000"
 3220      736B00
 3221              	.LASF30:
 3222 05da 705F6E65 		.ascii	"p_next\000"
 3222      787400
 3223              	.LASF39:
 3224 05e1 705F666C 		.ascii	"p_flags\000"
 3224      61677300 
 3225              	.LASF48:
 3226 05e9 705F7374 		.ascii	"p_stats\000"
 3226      61747300 
 3227              	.LASF65:
 3228 05f1 63685F76 		.ascii	"ch_virtual_timer\000"
 3228      69727475 
 3228      616C5F74 
 3228      696D6572 
 3228      00
 3229              	.LASF130:
 3230 0602 63685F73 		.ascii	"ch_semaphore\000"
 3230      656D6170 
 3230      686F7265 
 3230      00
 3231              	.LASF100:
 3232 060f 43435852 		.ascii	"CCXR\000"
 3232      00
 3233              	.LASF44:
 3234 0614 705F6570 		.ascii	"p_epending\000"
 3234      656E6469 
 3234      6E6700
 3235              	.LASF141:
 3236 061f 73745F6C 		.ascii	"st_lld_get_counter\000"
 3236      6C645F67 
 3236      65745F63 
 3236      6F756E74 
 3236      657200
 3237              	.LASF16:
 3238 0632 75696E74 		.ascii	"uint32_t\000"
 3238      33325F74 
 3238      00
 3239              	.LASF128:
 3240 063b 77746D74 		.ascii	"wtmtxp\000"
 3240      787000
 3241              	.LASF57:
 3242 0642 725F7175 		.ascii	"r_queue\000"
 3242      65756500 
 3243              	.LASF68:
 3244 064a 76745F64 		.ascii	"vt_delta\000"
ARM GAS  /tmp/ccdUMlxU.s 			page 63


 3244      656C7461 
 3244      00
 3245              	.LASF52:
 3246 0653 63685F74 		.ascii	"ch_threads_list\000"
 3246      68726561 
 3246      64735F6C 
 3246      69737400 
 3247              	.LASF11:
 3248 0663 6C6F6E67 		.ascii	"long unsigned int\000"
 3248      20756E73 
 3248      69676E65 
 3248      6420696E 
 3248      7400
 3249              	.LASF137:
 3250 0675 63686172 		.ascii	"char\000"
 3250      00
 3251              	.LASF98:
 3252 067a 444D4152 		.ascii	"DMAR\000"
 3252      00
 3253              	.LASF144:
 3254 067f 706F7274 		.ascii	"port_unlock_from_isr\000"
 3254      5F756E6C 
 3254      6F636B5F 
 3254      66726F6D 
 3254      5F697372 
 3255              	.LASF29:
 3256 0694 74687265 		.ascii	"thread_t\000"
 3256      61645F74 
 3256      00
 3257              	.LASF113:
 3258 069d 62657374 		.ascii	"best\000"
 3258      00
 3259              	.LASF136:
 3260 06a2 6D5F6E65 		.ascii	"m_next\000"
 3260      787400
 3261              	.LASF28:
 3262 06a9 73797374 		.ascii	"systime_t\000"
 3262      696D655F 
 3262      7400
 3263              	.LASF46:
 3264 06b3 705F7265 		.ascii	"p_realprio\000"
 3264      616C7072 
 3264      696F00
 3265              	.LASF63:
 3266 06be 76746675 		.ascii	"vtfunc_t\000"
 3266      6E635F74 
 3266      00
 3267              	.LASF10:
 3268 06c7 5F5F7569 		.ascii	"__uint32_t\000"
 3268      6E743332 
 3268      5F7400
 3269              	.LASF161:
 3270 06d2 5F5F7365 		.ascii	"__set_BASEPRI\000"
 3270      745F4241 
 3270      53455052 
 3270      4900
 3271              	.LASF76:
ARM GAS  /tmp/ccdUMlxU.s 			page 64


 3272 06e0 70616E69 		.ascii	"panic_msg\000"
 3272      635F6D73 
 3272      6700
 3273              	.LASF111:
 3274 06ea 6F666673 		.ascii	"offset\000"
 3274      657400
 3275              	.LASF90:
 3276 06f1 636F6E74 		.ascii	"context\000"
 3276      65787400 
 3277              	.LASF157:
 3278 06f9 5F646267 		.ascii	"_dbg_trace\000"
 3278      5F747261 
 3278      636500
 3279              	.LASF142:
 3280 0704 706F7274 		.ascii	"port_timer_get_time\000"
 3280      5F74696D 
 3280      65725F67 
 3280      65745F74 
 3280      696D6500 
 3281              	.LASF18:
 3282 0718 7274636E 		.ascii	"rtcnt_t\000"
 3282      745F7400 
 3283              	.LASF143:
 3284 0720 706F7274 		.ascii	"port_lock_from_isr\000"
 3284      5F6C6F63 
 3284      6B5F6672 
 3284      6F6D5F69 
 3284      737200
 3285              	.LASF70:
 3286 0733 76745F70 		.ascii	"vt_par\000"
 3286      617200
 3287              	.LASF152:
 3288 073a 5F646267 		.ascii	"_dbg_check_unlock_from_isr\000"
 3288      5F636865 
 3288      636B5F75 
 3288      6E6C6F63 
 3288      6B5F6672 
 3289              	.LASF53:
 3290 0755 74687265 		.ascii	"threads_queue_t\000"
 3290      6164735F 
 3290      71756575 
 3290      655F7400 
 3291              	.LASF133:
 3292 0765 63685F6D 		.ascii	"ch_mutex\000"
 3292      75746578 
 3292      00
 3293              	.LASF40:
 3294 076e 705F7265 		.ascii	"p_refs\000"
 3294      667300
 3295              	.LASF77:
 3296 0775 6973725F 		.ascii	"isr_cnt\000"
 3296      636E7400 
 3297              	.LASF82:
 3298 077d 726C6973 		.ascii	"rlist\000"
 3298      7400
 3299              	.LASF14:
 3300 0783 75696E74 		.ascii	"uint8_t\000"
ARM GAS  /tmp/ccdUMlxU.s 			page 65


 3300      385F7400 
 3301              	.LASF150:
 3302 078b 5F646267 		.ascii	"_dbg_check_unlock\000"
 3302      5F636865 
 3302      636B5F75 
 3302      6E6C6F63 
 3302      6B00
 3303              	.LASF125:
 3304 079d 77746F62 		.ascii	"wtobjp\000"
 3304      6A7000
 3305              	.LASF36:
 3306 07a4 705F6E61 		.ascii	"p_name\000"
 3306      6D6500
 3307              	.LASF50:
 3308 07ab 74687265 		.ascii	"threads_list_t\000"
 3308      6164735F 
 3308      6C697374 
 3308      5F7400
 3309              	.LASF20:
 3310 07ba 746D6F64 		.ascii	"tmode_t\000"
 3310      655F7400 
 3311              	.LASF79:
 3312 07c2 74726163 		.ascii	"trace_buffer\000"
 3312      655F6275 
 3312      66666572 
 3312      00
 3313              	.LASF43:
 3314 07cf 705F6D73 		.ascii	"p_msg\000"
 3314      6700
 3315              	.LASF120:
 3316 07d5 6D5F6372 		.ascii	"m_crit_thd\000"
 3316      69745F74 
 3316      686400
 3317              	.LASF135:
 3318 07e0 6D5F6F77 		.ascii	"m_owner\000"
 3318      6E657200 
 3319              	.LASF104:
 3320 07e8 73655F77 		.ascii	"se_wtobjp\000"
 3320      746F626A 
 3320      7000
 3321              	.LASF33:
 3322 07f2 705F6374 		.ascii	"p_ctx\000"
 3322      7800
 3323              	.LASF69:
 3324 07f8 76745F66 		.ascii	"vt_func\000"
 3324      756E6300 
 3325              		.ident	"GCC: (GNU Tools for ARM Embedded Processors) 5.3.1 20160307 (release) [ARM/embedded-5-bran
ARM GAS  /tmp/ccdUMlxU.s 			page 66


DEFINED SYMBOLS
                            *ABS*:0000000000000000 chdebug.c
     /tmp/ccdUMlxU.s:20     .text._dbg_check_disable:0000000000000000 $t
     /tmp/ccdUMlxU.s:26     .text._dbg_check_disable:0000000000000000 _dbg_check_disable
     /tmp/ccdUMlxU.s:51     .text._dbg_check_disable:0000000000000014 $d
     /tmp/ccdUMlxU.s:57     .text._dbg_check_suspend:0000000000000000 $t
     /tmp/ccdUMlxU.s:63     .text._dbg_check_suspend:0000000000000000 _dbg_check_suspend
     /tmp/ccdUMlxU.s:87     .text._dbg_check_suspend:0000000000000014 $d
     /tmp/ccdUMlxU.s:93     .text._dbg_check_enable:0000000000000000 $t
     /tmp/ccdUMlxU.s:99     .text._dbg_check_enable:0000000000000000 _dbg_check_enable
     /tmp/ccdUMlxU.s:123    .text._dbg_check_enable:0000000000000014 $d
     /tmp/ccdUMlxU.s:129    .text._dbg_check_lock:0000000000000000 $t
     /tmp/ccdUMlxU.s:135    .text._dbg_check_lock:0000000000000000 _dbg_check_lock
     /tmp/ccdUMlxU.s:165    .text._dbg_check_lock:0000000000000018 $d
     /tmp/ccdUMlxU.s:171    .text._dbg_check_unlock:0000000000000000 $t
     /tmp/ccdUMlxU.s:177    .text._dbg_check_unlock:0000000000000000 _dbg_check_unlock
     /tmp/ccdUMlxU.s:211    .text._dbg_check_unlock:0000000000000020 $d
     /tmp/ccdUMlxU.s:217    .text._dbg_check_lock_from_isr:0000000000000000 $t
     /tmp/ccdUMlxU.s:223    .text._dbg_check_lock_from_isr:0000000000000000 _dbg_check_lock_from_isr
     /tmp/ccdUMlxU.s:254    .text._dbg_check_lock_from_isr:000000000000001c $d
     /tmp/ccdUMlxU.s:260    .text._dbg_check_unlock_from_isr:0000000000000000 $t
     /tmp/ccdUMlxU.s:266    .text._dbg_check_unlock_from_isr:0000000000000000 _dbg_check_unlock_from_isr
     /tmp/ccdUMlxU.s:301    .text._dbg_check_unlock_from_isr:0000000000000024 $d
     /tmp/ccdUMlxU.s:307    .text._dbg_check_enter_isr:0000000000000000 $t
     /tmp/ccdUMlxU.s:313    .text._dbg_check_enter_isr:0000000000000000 _dbg_check_enter_isr
     /tmp/ccdUMlxU.s:378    .text._dbg_check_enter_isr:0000000000000028 $d
     /tmp/ccdUMlxU.s:388    .text._dbg_check_leave_isr:0000000000000000 $t
     /tmp/ccdUMlxU.s:394    .text._dbg_check_leave_isr:0000000000000000 _dbg_check_leave_isr
     /tmp/ccdUMlxU.s:458    .text._dbg_check_leave_isr:0000000000000028 $d
     /tmp/ccdUMlxU.s:468    .text.chDbgCheckClassI:0000000000000000 $t
     /tmp/ccdUMlxU.s:474    .text.chDbgCheckClassI:0000000000000000 chDbgCheckClassI
     /tmp/ccdUMlxU.s:499    .text.chDbgCheckClassI:0000000000000018 $d
     /tmp/ccdUMlxU.s:505    .text.chDbgCheckClassS:0000000000000000 $t
     /tmp/ccdUMlxU.s:511    .text.chDbgCheckClassS:0000000000000000 chDbgCheckClassS
     /tmp/ccdUMlxU.s:535    .text.chDbgCheckClassS:0000000000000014 $d
     /tmp/ccdUMlxU.s:541    .text._dbg_trace_init:0000000000000000 $t
     /tmp/ccdUMlxU.s:547    .text._dbg_trace_init:0000000000000000 _dbg_trace_init
     /tmp/ccdUMlxU.s:567    .text._dbg_trace_init:000000000000000c $d
     /tmp/ccdUMlxU.s:572    .text._dbg_trace:0000000000000000 $t
     /tmp/ccdUMlxU.s:578    .text._dbg_trace:0000000000000000 _dbg_trace
     /tmp/ccdUMlxU.s:642    .text._dbg_trace:0000000000000030 $d
     /tmp/ccdUMlxU.s:647    .rodata.str1.4:0000000000000000 $d
                     .debug_frame:0000000000000010 $d

UNDEFINED SYMBOLS
chSysHalt
ch
