ARM GAS  /tmp/ccUo7ANL.s 			page 1


   1              		.syntax unified
   2              		.cpu cortex-m4
   3              		.fpu softvfp
   4              		.eabi_attribute 20, 1
   5              		.eabi_attribute 21, 1
   6              		.eabi_attribute 23, 3
   7              		.eabi_attribute 24, 1
   8              		.eabi_attribute 25, 1
   9              		.eabi_attribute 26, 1
  10              		.eabi_attribute 30, 2
  11              		.eabi_attribute 34, 1
  12              		.eabi_attribute 18, 4
  13              		.thumb
  14              		.syntax unified
  15              		.file	"chqueues.c"
  16              		.text
  17              	.Ltext0:
  18              		.cfi_sections	.debug_frame
  19              		.section	.text.chIQObjectInit,"ax",%progbits
  20              		.align	2
  21              		.p2align 4,,15
  22              		.global	chIQObjectInit
  23              		.thumb
  24              		.thumb_func
  25              		.type	chIQObjectInit, %function
  26              	chIQObjectInit:
  27              	.LFB227:
  28              		.file 1 "/home/selim/working/ChibiOS/os/rt/src/chqueues.c"
  29              		.loc 1 88 0
  30              		.cfi_startproc
  31              		@ args = 4, pretend = 0, frame = 0
  32              		@ frame_needed = 0, uses_anonymous_args = 0
  33              		@ link register save eliminated.
  34              	.LVL0:
  35 0000 30B4     		push	{r4, r5}
  36              		.cfi_def_cfa_offset 8
  37              		.cfi_offset 4, -8
  38              		.cfi_offset 5, -4
  39              		.loc 1 88 0
  40 0002 029C     		ldr	r4, [sp, #8]
  41              		.loc 1 97 0
  42 0004 0462     		str	r4, [r0, #32]
  43              		.loc 1 91 0
  44 0006 0025     		movs	r5, #0
  45              		.loc 1 95 0
  46 0008 0A44     		add	r2, r2, r1
  47              	.LVL1:
  48              		.loc 1 91 0
  49 000a 8560     		str	r5, [r0, #8]
  50              		.loc 1 95 0
  51 000c 0261     		str	r2, [r0, #16]
  52              	.LBB68:
  53              	.LBB69:
  54              	.LBB70:
  55              		.file 2 "/home/selim/working/ChibiOS/os/rt/include/chschd.h"
  56              		.loc 2 604 0
  57 000e 0060     		str	r0, [r0]
ARM GAS  /tmp/ccUo7ANL.s 			page 2


  58              		.loc 2 605 0
  59 0010 4060     		str	r0, [r0, #4]
  60              	.LVL2:
  61              	.LBE70:
  62              	.LBE69:
  63              	.LBE68:
  64              		.loc 1 92 0
  65 0012 C160     		str	r1, [r0, #12]
  66              		.loc 1 93 0
  67 0014 8161     		str	r1, [r0, #24]
  68              		.loc 1 94 0
  69 0016 4161     		str	r1, [r0, #20]
  70              		.loc 1 96 0
  71 0018 C361     		str	r3, [r0, #28]
  72              		.loc 1 98 0
  73 001a 30BC     		pop	{r4, r5}
  74              		.cfi_restore 5
  75              		.cfi_restore 4
  76              		.cfi_def_cfa_offset 0
  77              	.LVL3:
  78 001c 7047     		bx	lr
  79              		.cfi_endproc
  80              	.LFE227:
  81              		.size	chIQObjectInit, .-chIQObjectInit
  82 001e 00BF     		.section	.text.chIQResetI,"ax",%progbits
  83              		.align	2
  84              		.p2align 4,,15
  85              		.global	chIQResetI
  86              		.thumb
  87              		.thumb_func
  88              		.type	chIQResetI, %function
  89              	chIQResetI:
  90              	.LFB228:
  91              		.loc 1 111 0
  92              		.cfi_startproc
  93              		@ args = 0, pretend = 0, frame = 0
  94              		@ frame_needed = 0, uses_anonymous_args = 0
  95              	.LVL4:
  96 0000 10B5     		push	{r4, lr}
  97              		.cfi_def_cfa_offset 8
  98              		.cfi_offset 4, -8
  99              		.cfi_offset 14, -4
 100              		.loc 1 111 0
 101 0002 0446     		mov	r4, r0
 102              		.loc 1 113 0
 103 0004 FFF7FEFF 		bl	chDbgCheckClassI
 104              	.LVL5:
 105              		.loc 1 115 0
 106 0008 E368     		ldr	r3, [r4, #12]
 107 000a A361     		str	r3, [r4, #24]
 108              		.loc 1 117 0
 109 000c 0022     		movs	r2, #0
 110 000e A260     		str	r2, [r4, #8]
 111              		.loc 1 116 0
 112 0010 6361     		str	r3, [r4, #20]
 113              		.loc 1 118 0
 114 0012 2046     		mov	r0, r4
ARM GAS  /tmp/ccUo7ANL.s 			page 3


 115 0014 6FF00101 		mvn	r1, #1
 116              		.loc 1 119 0
 117 0018 BDE81040 		pop	{r4, lr}
 118              		.cfi_restore 14
 119              		.cfi_restore 4
 120              		.cfi_def_cfa_offset 0
 121              	.LVL6:
 122              		.loc 1 118 0
 123 001c FFF7FEBF 		b	chThdDequeueAllI
 124              	.LVL7:
 125              		.cfi_endproc
 126              	.LFE228:
 127              		.size	chIQResetI, .-chIQResetI
 128              		.section	.text.chIQPutI,"ax",%progbits
 129              		.align	2
 130              		.p2align 4,,15
 131              		.global	chIQPutI
 132              		.thumb
 133              		.thumb_func
 134              		.type	chIQPutI, %function
 135              	chIQPutI:
 136              	.LFB229:
 137              		.loc 1 134 0
 138              		.cfi_startproc
 139              		@ args = 0, pretend = 0, frame = 0
 140              		@ frame_needed = 0, uses_anonymous_args = 0
 141              	.LVL8:
 142 0000 38B5     		push	{r3, r4, r5, lr}
 143              		.cfi_def_cfa_offset 16
 144              		.cfi_offset 3, -16
 145              		.cfi_offset 4, -12
 146              		.cfi_offset 5, -8
 147              		.cfi_offset 14, -4
 148              		.loc 1 134 0
 149 0002 0446     		mov	r4, r0
 150 0004 0D46     		mov	r5, r1
 151              		.loc 1 136 0
 152 0006 FFF7FEFF 		bl	chDbgCheckClassI
 153              	.LVL9:
 154              	.LBB71:
 155              	.LBB72:
 156              		.file 3 "/home/selim/working/ChibiOS/os/rt/include/chqueues.h"
 157              		.loc 3 322 0
 158 000a FFF7FEFF 		bl	chDbgCheckClassI
 159              	.LVL10:
 160              		.loc 3 324 0
 161 000e A369     		ldr	r3, [r4, #24]
 162 0010 6269     		ldr	r2, [r4, #20]
 163 0012 9A42     		cmp	r2, r3
 164 0014 A368     		ldr	r3, [r4, #8]
 165 0016 10D0     		beq	.L15
 166              	.L8:
 167              	.LVL11:
 168              	.LBE72:
 169              	.LBE71:
 170              		.loc 1 142 0
 171 0018 0133     		adds	r3, r3, #1
ARM GAS  /tmp/ccUo7ANL.s 			page 4


 172              		.loc 1 143 0
 173 001a 511C     		adds	r1, r2, #1
 174              		.loc 1 142 0
 175 001c A360     		str	r3, [r4, #8]
 176              		.loc 1 143 0
 177 001e 6161     		str	r1, [r4, #20]
 178 0020 1570     		strb	r5, [r2]
 179              		.loc 1 144 0
 180 0022 6269     		ldr	r2, [r4, #20]
 181 0024 2369     		ldr	r3, [r4, #16]
 182 0026 9A42     		cmp	r2, r3
 183 0028 01D3     		bcc	.L10
 184              		.loc 1 145 0
 185 002a E368     		ldr	r3, [r4, #12]
 186 002c 6361     		str	r3, [r4, #20]
 187              	.L10:
 188              		.loc 1 148 0
 189 002e 2046     		mov	r0, r4
 190 0030 0021     		movs	r1, #0
 191 0032 FFF7FEFF 		bl	chThdDequeueNextI
 192              	.LVL12:
 193              		.loc 1 150 0
 194 0036 0020     		movs	r0, #0
 195 0038 38BD     		pop	{r3, r4, r5, pc}
 196              	.LVL13:
 197              	.L15:
 198              	.LBB74:
 199              	.LBB73:
 200              		.loc 3 324 0
 201 003a 002B     		cmp	r3, #0
 202 003c ECD0     		beq	.L8
 203              	.LBE73:
 204              	.LBE74:
 205              		.loc 1 139 0
 206 003e 6FF00300 		mvn	r0, #3
 207 0042 38BD     		pop	{r3, r4, r5, pc}
 208              		.cfi_endproc
 209              	.LFE229:
 210              		.size	chIQPutI, .-chIQPutI
 211              		.section	.text.chIQGetTimeout,"ax",%progbits
 212              		.align	2
 213              		.p2align 4,,15
 214              		.global	chIQGetTimeout
 215              		.thumb
 216              		.thumb_func
 217              		.type	chIQGetTimeout, %function
 218              	chIQGetTimeout:
 219              	.LFB230:
 220              		.loc 1 173 0
 221              		.cfi_startproc
 222              		@ args = 0, pretend = 0, frame = 0
 223              		@ frame_needed = 0, uses_anonymous_args = 0
 224              	.LVL14:
 225 0000 70B5     		push	{r4, r5, r6, lr}
 226              		.cfi_def_cfa_offset 16
 227              		.cfi_offset 4, -16
 228              		.cfi_offset 5, -12
ARM GAS  /tmp/ccUo7ANL.s 			page 5


 229              		.cfi_offset 6, -8
 230              		.cfi_offset 14, -4
 231              	.LBB93:
 232              	.LBB94:
 233              	.LBB95:
 234              	.LBB96:
 235              	.LBB97:
 236              		.file 4 "/home/selim/working/ChibiOS/os/ext/CMSIS/include/core_cmFunc.h"
 237              		.loc 4 546 0
 238 0002 2023     		movs	r3, #32
 239              	.LBE97:
 240              	.LBE96:
 241              	.LBE95:
 242              	.LBE94:
 243              	.LBE93:
 244              		.loc 1 173 0
 245 0004 0446     		mov	r4, r0
 246 0006 0E46     		mov	r6, r1
 247              	.LBB102:
 248              	.LBB101:
 249              	.LBB100:
 250              	.LBB99:
 251              	.LBB98:
 252              		.loc 4 546 0
 253              		.syntax unified
 254              	@ 546 "/home/selim/working/ChibiOS/os/ext/CMSIS/include/core_cmFunc.h" 1
 255 0008 83F31188 		MSR basepri, r3
 256              	@ 0 "" 2
 257              	.LVL15:
 258              		.thumb
 259              		.syntax unified
 260              	.LBE98:
 261              	.LBE99:
 262              	.LBE100:
 263              		.file 5 "/home/selim/working/ChibiOS/os/rt/include/chsys.h"
 264              		.loc 5 349 0
 265 000c FFF7FEFF 		bl	_stats_start_measure_crit_thd
 266              	.LVL16:
 267              		.loc 5 350 0
 268 0010 FFF7FEFF 		bl	_dbg_check_lock
 269              	.LVL17:
 270              	.LBE101:
 271              	.LBE102:
 272              		.loc 1 177 0
 273 0014 E369     		ldr	r3, [r4, #28]
 274 0016 33B1     		cbz	r3, .L18
 275              		.loc 1 178 0
 276 0018 2046     		mov	r0, r4
 277 001a 9847     		blx	r3
 278              	.LVL18:
 279 001c 03E0     		b	.L18
 280              	.LVL19:
 281              	.L21:
 282              	.LBB103:
 283              		.loc 1 182 0
 284 001e FFF7FEFF 		bl	chThdEnqueueTimeoutS
 285              	.LVL20:
ARM GAS  /tmp/ccUo7ANL.s 			page 6


 286              		.loc 1 183 0
 287 0022 051E     		subs	r5, r0, #0
 288 0024 12DB     		blt	.L22
 289              	.LVL21:
 290              	.L18:
 291              	.LBE103:
 292              	.LBB104:
 293              	.LBB105:
 294              		.loc 3 305 0
 295 0026 FFF7FEFF 		bl	chDbgCheckClassI
 296              	.LVL22:
 297              		.loc 3 307 0
 298 002a A368     		ldr	r3, [r4, #8]
 299              	.LBE105:
 300              	.LBE104:
 301              	.LBB106:
 302              		.loc 1 182 0
 303 002c 3146     		mov	r1, r6
 304 002e 2046     		mov	r0, r4
 305              	.LBE106:
 306              		.loc 1 181 0
 307 0030 002B     		cmp	r3, #0
 308 0032 F4D0     		beq	.L21
 309              	.LVL23:
 310              		.loc 1 190 0
 311 0034 A169     		ldr	r1, [r4, #24]
 312              	.LVL24:
 313              		.loc 1 191 0
 314 0036 2069     		ldr	r0, [r4, #16]
 315              	.LVL25:
 316              		.loc 1 190 0
 317 0038 4A1C     		adds	r2, r1, #1
 318              		.loc 1 189 0
 319 003a 013B     		subs	r3, r3, #1
 320              		.loc 1 191 0
 321 003c 8242     		cmp	r2, r0
 322              		.loc 1 189 0
 323 003e A360     		str	r3, [r4, #8]
 324              		.loc 1 190 0
 325 0040 A261     		str	r2, [r4, #24]
 326              		.loc 1 192 0
 327 0042 28BF     		it	cs
 328 0044 E368     		ldrcs	r3, [r4, #12]
 329              		.loc 1 190 0
 330 0046 0D78     		ldrb	r5, [r1]	@ zero_extendqisi2
 331              	.LVL26:
 332              		.loc 1 192 0
 333 0048 28BF     		it	cs
 334 004a A361     		strcs	r3, [r4, #24]
 335              	.LVL27:
 336              	.L22:
 337              	.LBB107:
 338              	.LBB108:
 339              		.loc 5 360 0
 340 004c FFF7FEFF 		bl	_dbg_check_unlock
 341              	.LVL28:
 342              		.loc 5 361 0
ARM GAS  /tmp/ccUo7ANL.s 			page 7


 343 0050 FFF7FEFF 		bl	_stats_stop_measure_crit_thd
 344              	.LVL29:
 345              		.loc 5 367 0
 346 0054 084B     		ldr	r3, .L33
 347 0056 1A68     		ldr	r2, [r3]
 348 0058 9A42     		cmp	r2, r3
 349 005a 07D0     		beq	.L23
 350 005c 9969     		ldr	r1, [r3, #24]
 351 005e 9368     		ldr	r3, [r2, #8]
 352 0060 8A68     		ldr	r2, [r1, #8]
 353 0062 9A42     		cmp	r2, r3
 354 0064 02D2     		bcs	.L23
 355 0066 0548     		ldr	r0, .L33+4
 356 0068 FFF7FEFF 		bl	chSysHalt
 357              	.LVL30:
 358              	.L23:
 359              	.LBB109:
 360              	.LBB110:
 361              	.LBB111:
 362              		.loc 4 546 0
 363 006c 0023     		movs	r3, #0
 364              		.syntax unified
 365              	@ 546 "/home/selim/working/ChibiOS/os/ext/CMSIS/include/core_cmFunc.h" 1
 366 006e 83F31188 		MSR basepri, r3
 367              	@ 0 "" 2
 368              	.LVL31:
 369              		.thumb
 370              		.syntax unified
 371              	.LBE111:
 372              	.LBE110:
 373              	.LBE109:
 374              	.LBE108:
 375              	.LBE107:
 376              		.loc 1 196 0
 377 0072 2846     		mov	r0, r5
 378              		.loc 1 197 0
 379 0074 70BD     		pop	{r4, r5, r6, pc}
 380              	.LVL32:
 381              	.L34:
 382 0076 00BF     		.align	2
 383              	.L33:
 384 0078 00000000 		.word	ch
 385 007c 00000000 		.word	.LANCHOR0
 386              		.cfi_endproc
 387              	.LFE230:
 388              		.size	chIQGetTimeout, .-chIQGetTimeout
 389              		.section	.text.chIQReadTimeout,"ax",%progbits
 390              		.align	2
 391              		.p2align 4,,15
 392              		.global	chIQReadTimeout
 393              		.thumb
 394              		.thumb_func
 395              		.type	chIQReadTimeout, %function
 396              	chIQReadTimeout:
 397              	.LFB231:
 398              		.loc 1 224 0
 399              		.cfi_startproc
ARM GAS  /tmp/ccUo7ANL.s 			page 8


 400              		@ args = 0, pretend = 0, frame = 0
 401              		@ frame_needed = 0, uses_anonymous_args = 0
 402              	.LVL33:
 403 0000 2DE9F84F 		push	{r3, r4, r5, r6, r7, r8, r9, r10, fp, lr}
 404              		.cfi_def_cfa_offset 40
 405              		.cfi_offset 3, -40
 406              		.cfi_offset 4, -36
 407              		.cfi_offset 5, -32
 408              		.cfi_offset 6, -28
 409              		.cfi_offset 7, -24
 410              		.cfi_offset 8, -20
 411              		.cfi_offset 9, -16
 412              		.cfi_offset 10, -12
 413              		.cfi_offset 11, -8
 414              		.cfi_offset 14, -4
 415              		.loc 1 224 0
 416 0004 0446     		mov	r4, r0
 417 0006 8946     		mov	r9, r1
 418 0008 1D46     		mov	r5, r3
 419              		.loc 1 225 0
 420 000a D0F81C80 		ldr	r8, [r0, #28]
 421              	.LVL34:
 422              		.loc 1 228 0
 423 000e 9246     		mov	r10, r2
 424 0010 002A     		cmp	r2, #0
 425 0012 5CD0     		beq	.L51
 426              	.LVL35:
 427              	.L36:
 428              	.LBB134:
 429              	.LBB135:
 430              	.LBB136:
 431              	.LBB137:
 432              	.LBB138:
 433              		.loc 4 546 0
 434 0014 2023     		movs	r3, #32
 435              		.syntax unified
 436              	@ 546 "/home/selim/working/ChibiOS/os/ext/CMSIS/include/core_cmFunc.h" 1
 437 0016 83F31188 		MSR basepri, r3
 438              	@ 0 "" 2
 439              	.LVL36:
 440              		.thumb
 441              		.syntax unified
 442              	.LBE138:
 443              	.LBE137:
 444              	.LBE136:
 445              		.loc 5 349 0
 446 001a FFF7FEFF 		bl	_stats_start_measure_crit_thd
 447              	.LVL37:
 448 001e 2E4F     		ldr	r7, .L53
 449              		.loc 5 350 0
 450 0020 FFF7FEFF 		bl	_dbg_check_lock
 451              	.LVL38:
 452              	.LBE135:
 453              	.LBE134:
 454              		.loc 1 226 0
 455 0024 0026     		movs	r6, #0
 456              	.LBB139:
ARM GAS  /tmp/ccUo7ANL.s 			page 9


 457              	.LBB140:
 458              		.loc 5 367 0
 459 0026 BB46     		mov	fp, r7
 460              	.LVL39:
 461              	.L44:
 462              	.LBE140:
 463              	.LBE139:
 464              		.loc 1 232 0
 465 0028 B8F1000F 		cmp	r8, #0
 466 002c 06D0     		beq	.L38
 467              		.loc 1 233 0
 468 002e 2046     		mov	r0, r4
 469 0030 C047     		blx	r8
 470              	.LVL40:
 471 0032 03E0     		b	.L38
 472              	.LVL41:
 473              	.L41:
 474              		.loc 1 237 0
 475 0034 FFF7FEFF 		bl	chThdEnqueueTimeoutS
 476              	.LVL42:
 477 0038 0028     		cmp	r0, #0
 478 003a 32D1     		bne	.L52
 479              	.LVL43:
 480              	.L38:
 481              	.LBB145:
 482              	.LBB146:
 483              		.loc 3 305 0
 484 003c FFF7FEFF 		bl	chDbgCheckClassI
 485              	.LVL44:
 486              		.loc 3 307 0
 487 0040 A368     		ldr	r3, [r4, #8]
 488              	.LBE146:
 489              	.LBE145:
 490              		.loc 1 237 0
 491 0042 2946     		mov	r1, r5
 492 0044 2046     		mov	r0, r4
 493              		.loc 1 236 0
 494 0046 002B     		cmp	r3, #0
 495 0048 F4D0     		beq	.L41
 496              	.LVL45:
 497              		.loc 1 244 0
 498 004a A269     		ldr	r2, [r4, #24]
 499              		.loc 1 243 0
 500 004c 013B     		subs	r3, r3, #1
 501              		.loc 1 244 0
 502 004e 511C     		adds	r1, r2, #1
 503              	.LVL46:
 504 0050 A161     		str	r1, [r4, #24]
 505              		.loc 1 243 0
 506 0052 A360     		str	r3, [r4, #8]
 507              		.loc 1 244 0
 508 0054 1378     		ldrb	r3, [r2]	@ zero_extendqisi2
 509 0056 09F8013B 		strb	r3, [r9], #1
 510              	.LVL47:
 511              		.loc 1 245 0
 512 005a 2369     		ldr	r3, [r4, #16]
 513 005c A269     		ldr	r2, [r4, #24]
ARM GAS  /tmp/ccUo7ANL.s 			page 10


 514 005e 9A42     		cmp	r2, r3
 515              		.loc 1 246 0
 516 0060 24BF     		itt	cs
 517 0062 E368     		ldrcs	r3, [r4, #12]
 518 0064 A361     		strcs	r3, [r4, #24]
 519              	.LBB147:
 520              	.LBB144:
 521              		.loc 5 360 0
 522 0066 FFF7FEFF 		bl	_dbg_check_unlock
 523              	.LVL48:
 524              		.loc 5 361 0
 525 006a FFF7FEFF 		bl	_stats_stop_measure_crit_thd
 526              	.LVL49:
 527              		.loc 5 367 0
 528 006e 3B68     		ldr	r3, [r7]
 529 0070 BB42     		cmp	r3, r7
 530 0072 08D0     		beq	.L43
 531 0074 DBF81820 		ldr	r2, [fp, #24]
 532 0078 9B68     		ldr	r3, [r3, #8]
 533 007a 9268     		ldr	r2, [r2, #8]
 534 007c 9A42     		cmp	r2, r3
 535 007e 02D2     		bcs	.L43
 536 0080 1648     		ldr	r0, .L53+4
 537 0082 FFF7FEFF 		bl	chSysHalt
 538              	.LVL50:
 539              	.L43:
 540              	.LBB141:
 541              	.LBB142:
 542              	.LBB143:
 543              		.loc 4 546 0
 544 0086 0023     		movs	r3, #0
 545              		.syntax unified
 546              	@ 546 "/home/selim/working/ChibiOS/os/ext/CMSIS/include/core_cmFunc.h" 1
 547 0088 83F31188 		MSR basepri, r3
 548              	@ 0 "" 2
 549              	.LVL51:
 550              		.thumb
 551              		.syntax unified
 552              	.LBE143:
 553              	.LBE142:
 554              	.LBE141:
 555              	.LBE144:
 556              	.LBE147:
 557              		.loc 1 250 0
 558 008c 0136     		adds	r6, r6, #1
 559              	.LVL52:
 560              		.loc 1 251 0
 561 008e B245     		cmp	r10, r6
 562 0090 1AD0     		beq	.L40
 563              	.LVL53:
 564              	.LBB148:
 565              	.LBB149:
 566              	.LBB150:
 567              	.LBB151:
 568              	.LBB152:
 569              		.loc 4 546 0
 570 0092 2023     		movs	r3, #32
ARM GAS  /tmp/ccUo7ANL.s 			page 11


 571              		.syntax unified
 572              	@ 546 "/home/selim/working/ChibiOS/os/ext/CMSIS/include/core_cmFunc.h" 1
 573 0094 83F31188 		MSR basepri, r3
 574              	@ 0 "" 2
 575              	.LVL54:
 576              		.thumb
 577              		.syntax unified
 578              	.LBE152:
 579              	.LBE151:
 580              	.LBE150:
 581              		.loc 5 349 0
 582 0098 FFF7FEFF 		bl	_stats_start_measure_crit_thd
 583              	.LVL55:
 584              		.loc 5 350 0
 585 009c FFF7FEFF 		bl	_dbg_check_lock
 586              	.LVL56:
 587 00a0 C2E7     		b	.L44
 588              	.LVL57:
 589              	.L52:
 590              	.LBE149:
 591              	.LBE148:
 592              	.LBB153:
 593              	.LBB154:
 594              		.loc 5 360 0
 595 00a2 FFF7FEFF 		bl	_dbg_check_unlock
 596              	.LVL58:
 597              		.loc 5 361 0
 598 00a6 FFF7FEFF 		bl	_stats_stop_measure_crit_thd
 599              	.LVL59:
 600              		.loc 5 367 0
 601 00aa 3B68     		ldr	r3, [r7]
 602 00ac 0A4A     		ldr	r2, .L53
 603 00ae BB42     		cmp	r3, r7
 604 00b0 07D0     		beq	.L39
 605 00b2 9269     		ldr	r2, [r2, #24]
 606 00b4 9B68     		ldr	r3, [r3, #8]
 607 00b6 9268     		ldr	r2, [r2, #8]
 608 00b8 9A42     		cmp	r2, r3
 609 00ba 02D2     		bcs	.L39
 610 00bc 0748     		ldr	r0, .L53+4
 611 00be FFF7FEFF 		bl	chSysHalt
 612              	.LVL60:
 613              	.L39:
 614              	.LBB155:
 615              	.LBB156:
 616              	.LBB157:
 617              		.loc 4 546 0
 618 00c2 0023     		movs	r3, #0
 619              		.syntax unified
 620              	@ 546 "/home/selim/working/ChibiOS/os/ext/CMSIS/include/core_cmFunc.h" 1
 621 00c4 83F31188 		MSR basepri, r3
 622              	@ 0 "" 2
 623              	.LVL61:
 624              		.thumb
 625              		.syntax unified
 626              	.L40:
 627              	.LBE157:
ARM GAS  /tmp/ccUo7ANL.s 			page 12


 628              	.LBE156:
 629              	.LBE155:
 630              	.LBE154:
 631              	.LBE153:
 632              		.loc 1 257 0
 633 00c8 3046     		mov	r0, r6
 634 00ca BDE8F88F 		pop	{r3, r4, r5, r6, r7, r8, r9, r10, fp, pc}
 635              	.LVL62:
 636              	.L51:
 637              		.loc 1 228 0 discriminator 2
 638 00ce 0448     		ldr	r0, .L53+8
 639              	.LVL63:
 640 00d0 FFF7FEFF 		bl	chSysHalt
 641              	.LVL64:
 642 00d4 9EE7     		b	.L36
 643              	.L54:
 644 00d6 00BF     		.align	2
 645              	.L53:
 646 00d8 00000000 		.word	ch
 647 00dc 00000000 		.word	.LANCHOR0
 648 00e0 00000000 		.word	.LANCHOR1
 649              		.cfi_endproc
 650              	.LFE231:
 651              		.size	chIQReadTimeout, .-chIQReadTimeout
 652              		.section	.text.chOQObjectInit,"ax",%progbits
 653              		.align	2
 654              		.p2align 4,,15
 655              		.global	chOQObjectInit
 656              		.thumb
 657              		.thumb_func
 658              		.type	chOQObjectInit, %function
 659              	chOQObjectInit:
 660              	.LFB232:
 661              		.loc 1 276 0
 662              		.cfi_startproc
 663              		@ args = 4, pretend = 0, frame = 0
 664              		@ frame_needed = 0, uses_anonymous_args = 0
 665              		@ link register save eliminated.
 666              	.LVL65:
 667 0000 30B4     		push	{r4, r5}
 668              		.cfi_def_cfa_offset 8
 669              		.cfi_offset 4, -8
 670              		.cfi_offset 5, -4
 671              		.loc 1 276 0
 672 0002 029C     		ldr	r4, [sp, #8]
 673              		.loc 1 285 0
 674 0004 0462     		str	r4, [r0, #32]
 675              		.loc 1 283 0
 676 0006 8D18     		adds	r5, r1, r2
 677 0008 0561     		str	r5, [r0, #16]
 678              	.LBB158:
 679              	.LBB159:
 680              	.LBB160:
 681              		.loc 2 604 0
 682 000a 0060     		str	r0, [r0]
 683              		.loc 2 605 0
 684 000c 4060     		str	r0, [r0, #4]
ARM GAS  /tmp/ccUo7ANL.s 			page 13


 685              	.LVL66:
 686              	.LBE160:
 687              	.LBE159:
 688              	.LBE158:
 689              		.loc 1 279 0
 690 000e 8260     		str	r2, [r0, #8]
 691              		.loc 1 280 0
 692 0010 C160     		str	r1, [r0, #12]
 693              		.loc 1 281 0
 694 0012 8161     		str	r1, [r0, #24]
 695              		.loc 1 282 0
 696 0014 4161     		str	r1, [r0, #20]
 697              		.loc 1 284 0
 698 0016 C361     		str	r3, [r0, #28]
 699              		.loc 1 286 0
 700 0018 30BC     		pop	{r4, r5}
 701              		.cfi_restore 5
 702              		.cfi_restore 4
 703              		.cfi_def_cfa_offset 0
 704              	.LVL67:
 705 001a 7047     		bx	lr
 706              		.cfi_endproc
 707              	.LFE232:
 708              		.size	chOQObjectInit, .-chOQObjectInit
 709              		.section	.text.chOQResetI,"ax",%progbits
 710              		.align	2
 711              		.p2align 4,,15
 712              		.global	chOQResetI
 713              		.thumb
 714              		.thumb_func
 715              		.type	chOQResetI, %function
 716              	chOQResetI:
 717              	.LFB233:
 718              		.loc 1 299 0
 719              		.cfi_startproc
 720              		@ args = 0, pretend = 0, frame = 0
 721              		@ frame_needed = 0, uses_anonymous_args = 0
 722              	.LVL68:
 723 0000 10B5     		push	{r4, lr}
 724              		.cfi_def_cfa_offset 8
 725              		.cfi_offset 4, -8
 726              		.cfi_offset 14, -4
 727              		.loc 1 299 0
 728 0002 0446     		mov	r4, r0
 729              		.loc 1 301 0
 730 0004 FFF7FEFF 		bl	chDbgCheckClassI
 731              	.LVL69:
 732              		.loc 1 303 0
 733 0008 E268     		ldr	r2, [r4, #12]
 734              		.loc 1 305 0
 735 000a 2369     		ldr	r3, [r4, #16]
 736              		.loc 1 303 0
 737 000c A261     		str	r2, [r4, #24]
 738              		.loc 1 305 0
 739 000e 9B1A     		subs	r3, r3, r2
 740              		.loc 1 304 0
 741 0010 6261     		str	r2, [r4, #20]
ARM GAS  /tmp/ccUo7ANL.s 			page 14


 742              		.loc 1 305 0
 743 0012 A360     		str	r3, [r4, #8]
 744              		.loc 1 306 0
 745 0014 2046     		mov	r0, r4
 746 0016 6FF00101 		mvn	r1, #1
 747              		.loc 1 307 0
 748 001a BDE81040 		pop	{r4, lr}
 749              		.cfi_restore 14
 750              		.cfi_restore 4
 751              		.cfi_def_cfa_offset 0
 752              	.LVL70:
 753              		.loc 1 306 0
 754 001e FFF7FEBF 		b	chThdDequeueAllI
 755              	.LVL71:
 756              		.cfi_endproc
 757              	.LFE233:
 758              		.size	chOQResetI, .-chOQResetI
 759 0022 00BF     		.section	.text.chOQPutTimeout,"ax",%progbits
 760              		.align	2
 761              		.p2align 4,,15
 762              		.global	chOQPutTimeout
 763              		.thumb
 764              		.thumb_func
 765              		.type	chOQPutTimeout, %function
 766              	chOQPutTimeout:
 767              	.LFB234:
 768              		.loc 1 331 0
 769              		.cfi_startproc
 770              		@ args = 0, pretend = 0, frame = 0
 771              		@ frame_needed = 0, uses_anonymous_args = 0
 772              	.LVL72:
 773 0000 F8B5     		push	{r3, r4, r5, r6, r7, lr}
 774              		.cfi_def_cfa_offset 24
 775              		.cfi_offset 3, -24
 776              		.cfi_offset 4, -20
 777              		.cfi_offset 5, -16
 778              		.cfi_offset 6, -12
 779              		.cfi_offset 7, -8
 780              		.cfi_offset 14, -4
 781              		.loc 1 331 0
 782 0002 0446     		mov	r4, r0
 783 0004 0F46     		mov	r7, r1
 784 0006 1646     		mov	r6, r2
 785              	.LBB179:
 786              	.LBB180:
 787              	.LBB181:
 788              	.LBB182:
 789              	.LBB183:
 790              		.loc 4 546 0
 791 0008 2023     		movs	r3, #32
 792              		.syntax unified
 793              	@ 546 "/home/selim/working/ChibiOS/os/ext/CMSIS/include/core_cmFunc.h" 1
 794 000a 83F31188 		MSR basepri, r3
 795              	@ 0 "" 2
 796              	.LVL73:
 797              		.thumb
 798              		.syntax unified
ARM GAS  /tmp/ccUo7ANL.s 			page 15


 799              	.LBE183:
 800              	.LBE182:
 801              	.LBE181:
 802              		.loc 5 349 0
 803 000e FFF7FEFF 		bl	_stats_start_measure_crit_thd
 804              	.LVL74:
 805              		.loc 5 350 0
 806 0012 FFF7FEFF 		bl	_dbg_check_lock
 807              	.LVL75:
 808 0016 03E0     		b	.L60
 809              	.LVL76:
 810              	.L63:
 811              	.LBE180:
 812              	.LBE179:
 813              	.LBB184:
 814              		.loc 1 335 0
 815 0018 FFF7FEFF 		bl	chThdEnqueueTimeoutS
 816              	.LVL77:
 817              		.loc 1 336 0
 818 001c 051E     		subs	r5, r0, #0
 819 001e 27DB     		blt	.L72
 820              	.LVL78:
 821              	.L60:
 822              	.LBE184:
 823              	.LBB190:
 824              	.LBB191:
 825              		.loc 3 405 0
 826 0020 FFF7FEFF 		bl	chDbgCheckClassI
 827              	.LVL79:
 828              		.loc 3 407 0
 829 0024 A368     		ldr	r3, [r4, #8]
 830              	.LBE191:
 831              	.LBE190:
 832              	.LBB192:
 833              		.loc 1 335 0
 834 0026 3146     		mov	r1, r6
 835 0028 2046     		mov	r0, r4
 836              	.LBE192:
 837              		.loc 1 334 0
 838 002a 002B     		cmp	r3, #0
 839 002c F4D0     		beq	.L63
 840              	.LVL80:
 841              		.loc 1 343 0
 842 002e 6269     		ldr	r2, [r4, #20]
 843              		.loc 1 342 0
 844 0030 013B     		subs	r3, r3, #1
 845              		.loc 1 343 0
 846 0032 511C     		adds	r1, r2, #1
 847              	.LVL81:
 848 0034 6161     		str	r1, [r4, #20]
 849              		.loc 1 342 0
 850 0036 A360     		str	r3, [r4, #8]
 851              		.loc 1 343 0
 852 0038 1770     		strb	r7, [r2]
 853              		.loc 1 344 0
 854 003a 2369     		ldr	r3, [r4, #16]
 855 003c 6269     		ldr	r2, [r4, #20]
ARM GAS  /tmp/ccUo7ANL.s 			page 16


 856 003e 9A42     		cmp	r2, r3
 857              		.loc 1 345 0
 858 0040 24BF     		itt	cs
 859 0042 E368     		ldrcs	r3, [r4, #12]
 860 0044 6361     		strcs	r3, [r4, #20]
 861              		.loc 1 348 0
 862 0046 E369     		ldr	r3, [r4, #28]
 863 0048 0BB1     		cbz	r3, .L65
 864              		.loc 1 349 0
 865 004a 2046     		mov	r0, r4
 866              	.LVL82:
 867 004c 9847     		blx	r3
 868              	.LVL83:
 869              	.L65:
 870              	.LBB193:
 871              	.LBB194:
 872              		.loc 5 360 0
 873 004e FFF7FEFF 		bl	_dbg_check_unlock
 874              	.LVL84:
 875              		.loc 5 361 0
 876 0052 FFF7FEFF 		bl	_stats_stop_measure_crit_thd
 877              	.LVL85:
 878              		.loc 5 367 0
 879 0056 144B     		ldr	r3, .L74
 880 0058 1A68     		ldr	r2, [r3]
 881 005a 9A42     		cmp	r2, r3
 882 005c 04D0     		beq	.L66
 883 005e 9969     		ldr	r1, [r3, #24]
 884 0060 9368     		ldr	r3, [r2, #8]
 885 0062 8A68     		ldr	r2, [r1, #8]
 886 0064 9A42     		cmp	r2, r3
 887 0066 18D3     		bcc	.L73
 888              	.L66:
 889              	.LVL86:
 890              	.LBB195:
 891              	.LBB196:
 892              	.LBB197:
 893              		.loc 4 546 0
 894 0068 0020     		movs	r0, #0
 895              		.syntax unified
 896              	@ 546 "/home/selim/working/ChibiOS/os/ext/CMSIS/include/core_cmFunc.h" 1
 897 006a 80F31188 		MSR basepri, r0
 898              	@ 0 "" 2
 899              	.LVL87:
 900              		.thumb
 901              		.syntax unified
 902              	.LBE197:
 903              	.LBE196:
 904              	.LBE195:
 905              	.LBE194:
 906              	.LBE193:
 907              		.loc 1 354 0
 908 006e F8BD     		pop	{r3, r4, r5, r6, r7, pc}
 909              	.LVL88:
 910              	.L72:
 911              	.LBB202:
 912              	.LBB185:
ARM GAS  /tmp/ccUo7ANL.s 			page 17


 913              	.LBB186:
 914              		.loc 5 360 0
 915 0070 FFF7FEFF 		bl	_dbg_check_unlock
 916              	.LVL89:
 917              		.loc 5 361 0
 918 0074 FFF7FEFF 		bl	_stats_stop_measure_crit_thd
 919              	.LVL90:
 920              		.loc 5 367 0
 921 0078 0B4B     		ldr	r3, .L74
 922 007a 1A68     		ldr	r2, [r3]
 923 007c 9A42     		cmp	r2, r3
 924 007e 07D0     		beq	.L61
 925 0080 9969     		ldr	r1, [r3, #24]
 926 0082 9368     		ldr	r3, [r2, #8]
 927 0084 8A68     		ldr	r2, [r1, #8]
 928 0086 9A42     		cmp	r2, r3
 929 0088 02D2     		bcs	.L61
 930 008a 0848     		ldr	r0, .L74+4
 931 008c FFF7FEFF 		bl	chSysHalt
 932              	.LVL91:
 933              	.L61:
 934              	.LBB187:
 935              	.LBB188:
 936              	.LBB189:
 937              		.loc 4 546 0
 938 0090 0023     		movs	r3, #0
 939              		.syntax unified
 940              	@ 546 "/home/selim/working/ChibiOS/os/ext/CMSIS/include/core_cmFunc.h" 1
 941 0092 83F31188 		MSR basepri, r3
 942              	@ 0 "" 2
 943              	.LVL92:
 944              		.thumb
 945              		.syntax unified
 946              	.LBE189:
 947              	.LBE188:
 948              	.LBE187:
 949              	.LBE186:
 950              	.LBE185:
 951              		.loc 1 335 0
 952 0096 2846     		mov	r0, r5
 953 0098 F8BD     		pop	{r3, r4, r5, r6, r7, pc}
 954              	.LVL93:
 955              	.L73:
 956              	.LBE202:
 957              	.LBB203:
 958              	.LBB201:
 959              		.loc 5 367 0
 960 009a 0448     		ldr	r0, .L74+4
 961 009c FFF7FEFF 		bl	chSysHalt
 962              	.LVL94:
 963              	.LBB200:
 964              	.LBB199:
 965              	.LBB198:
 966              		.loc 4 546 0
 967 00a0 0020     		movs	r0, #0
 968              		.syntax unified
 969              	@ 546 "/home/selim/working/ChibiOS/os/ext/CMSIS/include/core_cmFunc.h" 1
ARM GAS  /tmp/ccUo7ANL.s 			page 18


 970 00a2 80F31188 		MSR basepri, r0
 971              	@ 0 "" 2
 972              	.LVL95:
 973              		.thumb
 974              		.syntax unified
 975              	.LBE198:
 976              	.LBE199:
 977              	.LBE200:
 978              	.LBE201:
 979              	.LBE203:
 980              		.loc 1 354 0
 981 00a6 F8BD     		pop	{r3, r4, r5, r6, r7, pc}
 982              	.LVL96:
 983              	.L75:
 984              		.align	2
 985              	.L74:
 986 00a8 00000000 		.word	ch
 987 00ac 00000000 		.word	.LANCHOR0
 988              		.cfi_endproc
 989              	.LFE234:
 990              		.size	chOQPutTimeout, .-chOQPutTimeout
 991              		.section	.text.chOQGetI,"ax",%progbits
 992              		.align	2
 993              		.p2align 4,,15
 994              		.global	chOQGetI
 995              		.thumb
 996              		.thumb_func
 997              		.type	chOQGetI, %function
 998              	chOQGetI:
 999              	.LFB235:
 1000              		.loc 1 366 0
 1001              		.cfi_startproc
 1002              		@ args = 0, pretend = 0, frame = 0
 1003              		@ frame_needed = 0, uses_anonymous_args = 0
 1004              	.LVL97:
 1005 0000 38B5     		push	{r3, r4, r5, lr}
 1006              		.cfi_def_cfa_offset 16
 1007              		.cfi_offset 3, -16
 1008              		.cfi_offset 4, -12
 1009              		.cfi_offset 5, -8
 1010              		.cfi_offset 14, -4
 1011              		.loc 1 366 0
 1012 0002 0446     		mov	r4, r0
 1013              		.loc 1 369 0
 1014 0004 FFF7FEFF 		bl	chDbgCheckClassI
 1015              	.LVL98:
 1016              	.LBB204:
 1017              	.LBB205:
 1018              		.loc 3 388 0
 1019 0008 FFF7FEFF 		bl	chDbgCheckClassI
 1020              	.LVL99:
 1021              		.loc 3 390 0
 1022 000c 6369     		ldr	r3, [r4, #20]
 1023 000e A269     		ldr	r2, [r4, #24]
 1024 0010 9342     		cmp	r3, r2
 1025 0012 A368     		ldr	r3, [r4, #8]
 1026 0014 0FD0     		beq	.L85
ARM GAS  /tmp/ccUo7ANL.s 			page 19


 1027              	.L79:
 1028              	.LVL100:
 1029              	.LBE205:
 1030              	.LBE204:
 1031              		.loc 1 377 0
 1032 0016 2069     		ldr	r0, [r4, #16]
 1033              		.loc 1 376 0
 1034 0018 511C     		adds	r1, r2, #1
 1035              		.loc 1 375 0
 1036 001a 0133     		adds	r3, r3, #1
 1037 001c A360     		str	r3, [r4, #8]
 1038              		.loc 1 376 0
 1039 001e A161     		str	r1, [r4, #24]
 1040              		.loc 1 377 0
 1041 0020 8142     		cmp	r1, r0
 1042              		.loc 1 376 0
 1043 0022 1578     		ldrb	r5, [r2]	@ zero_extendqisi2
 1044              	.LVL101:
 1045              		.loc 1 377 0
 1046 0024 01D3     		bcc	.L81
 1047              		.loc 1 378 0
 1048 0026 E368     		ldr	r3, [r4, #12]
 1049 0028 A361     		str	r3, [r4, #24]
 1050              	.L81:
 1051              		.loc 1 381 0
 1052 002a 2046     		mov	r0, r4
 1053 002c 0021     		movs	r1, #0
 1054 002e FFF7FEFF 		bl	chThdDequeueNextI
 1055              	.LVL102:
 1056              		.loc 1 383 0
 1057 0032 2846     		mov	r0, r5
 1058 0034 38BD     		pop	{r3, r4, r5, pc}
 1059              	.LVL103:
 1060              	.L85:
 1061              	.LBB207:
 1062              	.LBB206:
 1063              		.loc 3 390 0
 1064 0036 002B     		cmp	r3, #0
 1065 0038 EDD0     		beq	.L79
 1066              	.LBE206:
 1067              	.LBE207:
 1068              		.loc 1 372 0
 1069 003a 6FF00200 		mvn	r0, #2
 1070 003e 38BD     		pop	{r3, r4, r5, pc}
 1071              		.cfi_endproc
 1072              	.LFE235:
 1073              		.size	chOQGetI, .-chOQGetI
 1074              		.section	.text.chOQWriteTimeout,"ax",%progbits
 1075              		.align	2
 1076              		.p2align 4,,15
 1077              		.global	chOQWriteTimeout
 1078              		.thumb
 1079              		.thumb_func
 1080              		.type	chOQWriteTimeout, %function
 1081              	chOQWriteTimeout:
 1082              	.LFB236:
 1083              		.loc 1 411 0
ARM GAS  /tmp/ccUo7ANL.s 			page 20


 1084              		.cfi_startproc
 1085              		@ args = 0, pretend = 0, frame = 8
 1086              		@ frame_needed = 0, uses_anonymous_args = 0
 1087              	.LVL104:
 1088 0000 2DE9F04F 		push	{r4, r5, r6, r7, r8, r9, r10, fp, lr}
 1089              		.cfi_def_cfa_offset 36
 1090              		.cfi_offset 4, -36
 1091              		.cfi_offset 5, -32
 1092              		.cfi_offset 6, -28
 1093              		.cfi_offset 7, -24
 1094              		.cfi_offset 8, -20
 1095              		.cfi_offset 9, -16
 1096              		.cfi_offset 10, -12
 1097              		.cfi_offset 11, -8
 1098              		.cfi_offset 14, -4
 1099 0004 83B0     		sub	sp, sp, #12
 1100              		.cfi_def_cfa_offset 48
 1101              		.loc 1 411 0
 1102 0006 0446     		mov	r4, r0
 1103 0008 0D46     		mov	r5, r1
 1104 000a 0193     		str	r3, [sp, #4]
 1105              		.loc 1 412 0
 1106 000c D0F81C90 		ldr	r9, [r0, #28]
 1107              	.LVL105:
 1108              		.loc 1 415 0
 1109 0010 1646     		mov	r6, r2
 1110 0012 002A     		cmp	r2, #0
 1111 0014 61D0     		beq	.L106
 1112              	.LVL106:
 1113              	.L87:
 1114              	.LBB230:
 1115              	.LBB231:
 1116              	.LBB232:
 1117              	.LBB233:
 1118              	.LBB234:
 1119              		.loc 4 546 0
 1120 0016 2023     		movs	r3, #32
 1121              		.syntax unified
 1122              	@ 546 "/home/selim/working/ChibiOS/os/ext/CMSIS/include/core_cmFunc.h" 1
 1123 0018 83F31188 		MSR basepri, r3
 1124              	@ 0 "" 2
 1125              	.LVL107:
 1126              		.thumb
 1127              		.syntax unified
 1128              	.LBE234:
 1129              	.LBE233:
 1130              	.LBE232:
 1131              		.loc 5 349 0
 1132 001c FFF7FEFF 		bl	_stats_start_measure_crit_thd
 1133              	.LVL108:
 1134 0020 DFF8D080 		ldr	r8, .L109+4
 1135              		.loc 5 350 0
 1136 0024 FFF7FEFF 		bl	_dbg_check_lock
 1137              	.LVL109:
 1138              	.LBE231:
 1139              	.LBE230:
 1140              		.loc 1 413 0
ARM GAS  /tmp/ccUo7ANL.s 			page 21


 1141 0028 0027     		movs	r7, #0
 1142              	.LBB235:
 1143              	.LBB236:
 1144              		.loc 5 367 0
 1145 002a C346     		mov	fp, r8
 1146              	.LBB237:
 1147              	.LBB238:
 1148              	.LBB239:
 1149              		.loc 4 546 0
 1150 002c BA46     		mov	r10, r7
 1151              	.LVL110:
 1152              	.L88:
 1153              	.LBE239:
 1154              	.LBE238:
 1155              	.LBE237:
 1156              	.LBE236:
 1157              	.LBE235:
 1158              	.LBB244:
 1159              	.LBB245:
 1160              		.loc 3 405 0
 1161 002e FFF7FEFF 		bl	chDbgCheckClassI
 1162              	.LVL111:
 1163              		.loc 3 407 0
 1164 0032 A368     		ldr	r3, [r4, #8]
 1165              	.LBE245:
 1166              	.LBE244:
 1167              		.loc 1 419 0
 1168 0034 002B     		cmp	r3, #0
 1169 0036 35D0     		beq	.L92
 1170              	.L107:
 1171              		.loc 1 427 0
 1172 0038 6269     		ldr	r2, [r4, #20]
 1173              		.loc 1 426 0
 1174 003a 013B     		subs	r3, r3, #1
 1175              		.loc 1 427 0
 1176 003c 511C     		adds	r1, r2, #1
 1177 003e 6161     		str	r1, [r4, #20]
 1178              		.loc 1 426 0
 1179 0040 A360     		str	r3, [r4, #8]
 1180              		.loc 1 427 0
 1181 0042 2B78     		ldrb	r3, [r5]	@ zero_extendqisi2
 1182 0044 1370     		strb	r3, [r2]
 1183              		.loc 1 428 0
 1184 0046 2369     		ldr	r3, [r4, #16]
 1185 0048 6269     		ldr	r2, [r4, #20]
 1186 004a 9A42     		cmp	r2, r3
 1187              		.loc 1 429 0
 1188 004c 24BF     		itt	cs
 1189 004e E368     		ldrcs	r3, [r4, #12]
 1190 0050 6361     		strcs	r3, [r4, #20]
 1191              		.loc 1 427 0
 1192 0052 0135     		adds	r5, r5, #1
 1193              	.LVL112:
 1194              		.loc 1 432 0
 1195 0054 B9F1000F 		cmp	r9, #0
 1196 0058 01D0     		beq	.L94
 1197              		.loc 1 433 0
ARM GAS  /tmp/ccUo7ANL.s 			page 22


 1198 005a 2046     		mov	r0, r4
 1199 005c C847     		blx	r9
 1200              	.LVL113:
 1201              	.L94:
 1202              	.LBB247:
 1203              	.LBB243:
 1204              		.loc 5 360 0
 1205 005e FFF7FEFF 		bl	_dbg_check_unlock
 1206              	.LVL114:
 1207              		.loc 5 361 0
 1208 0062 FFF7FEFF 		bl	_stats_stop_measure_crit_thd
 1209              	.LVL115:
 1210              		.loc 5 367 0
 1211 0066 D8F80030 		ldr	r3, [r8]
 1212 006a 4345     		cmp	r3, r8
 1213 006c 08D0     		beq	.L95
 1214 006e DBF81820 		ldr	r2, [fp, #24]
 1215 0072 9B68     		ldr	r3, [r3, #8]
 1216 0074 9268     		ldr	r2, [r2, #8]
 1217 0076 9A42     		cmp	r2, r3
 1218 0078 02D2     		bcs	.L95
 1219 007a 1D48     		ldr	r0, .L109
 1220 007c FFF7FEFF 		bl	chSysHalt
 1221              	.LVL116:
 1222              	.L95:
 1223              	.LBB242:
 1224              	.LBB241:
 1225              	.LBB240:
 1226              		.loc 4 546 0
 1227              		.syntax unified
 1228              	@ 546 "/home/selim/working/ChibiOS/os/ext/CMSIS/include/core_cmFunc.h" 1
 1229 0080 8AF31188 		MSR basepri, r10
 1230              	@ 0 "" 2
 1231              	.LVL117:
 1232              		.thumb
 1233              		.syntax unified
 1234              	.LBE240:
 1235              	.LBE241:
 1236              	.LBE242:
 1237              	.LBE243:
 1238              	.LBE247:
 1239              		.loc 1 438 0
 1240 0084 013E     		subs	r6, r6, #1
 1241              	.LVL118:
 1242              		.loc 1 437 0
 1243 0086 07F10107 		add	r7, r7, #1
 1244              	.LVL119:
 1245              		.loc 1 438 0
 1246 008a 22D0     		beq	.L91
 1247              	.LVL120:
 1248              	.LBB248:
 1249              	.LBB249:
 1250              	.LBB250:
 1251              	.LBB251:
 1252              	.LBB252:
 1253              		.loc 4 546 0
 1254 008c 2023     		movs	r3, #32
ARM GAS  /tmp/ccUo7ANL.s 			page 23


 1255              		.syntax unified
 1256              	@ 546 "/home/selim/working/ChibiOS/os/ext/CMSIS/include/core_cmFunc.h" 1
 1257 008e 83F31188 		MSR basepri, r3
 1258              	@ 0 "" 2
 1259              	.LVL121:
 1260              		.thumb
 1261              		.syntax unified
 1262              	.LBE252:
 1263              	.LBE251:
 1264              	.LBE250:
 1265              		.loc 5 349 0
 1266 0092 FFF7FEFF 		bl	_stats_start_measure_crit_thd
 1267              	.LVL122:
 1268              		.loc 5 350 0
 1269 0096 FFF7FEFF 		bl	_dbg_check_lock
 1270              	.LVL123:
 1271              	.LBE249:
 1272              	.LBE248:
 1273              	.LBB253:
 1274              	.LBB246:
 1275              		.loc 3 405 0
 1276 009a FFF7FEFF 		bl	chDbgCheckClassI
 1277              	.LVL124:
 1278              		.loc 3 407 0
 1279 009e A368     		ldr	r3, [r4, #8]
 1280              	.LBE246:
 1281              	.LBE253:
 1282              		.loc 1 419 0
 1283 00a0 002B     		cmp	r3, #0
 1284 00a2 C9D1     		bne	.L107
 1285              	.L92:
 1286              		.loc 1 420 0
 1287 00a4 0199     		ldr	r1, [sp, #4]
 1288 00a6 2046     		mov	r0, r4
 1289 00a8 FFF7FEFF 		bl	chThdEnqueueTimeoutS
 1290              	.LVL125:
 1291 00ac 0028     		cmp	r0, #0
 1292 00ae BED0     		beq	.L88
 1293              	.LBB254:
 1294              	.LBB255:
 1295              		.loc 5 360 0
 1296 00b0 FFF7FEFF 		bl	_dbg_check_unlock
 1297              	.LVL126:
 1298              		.loc 5 361 0
 1299 00b4 FFF7FEFF 		bl	_stats_stop_measure_crit_thd
 1300              	.LVL127:
 1301              		.loc 5 367 0
 1302 00b8 D8F80030 		ldr	r3, [r8]
 1303 00bc 0D4A     		ldr	r2, .L109+4
 1304 00be 4345     		cmp	r3, r8
 1305 00c0 04D0     		beq	.L90
 1306 00c2 9269     		ldr	r2, [r2, #24]
 1307 00c4 9B68     		ldr	r3, [r3, #8]
 1308 00c6 9268     		ldr	r2, [r2, #8]
 1309 00c8 9A42     		cmp	r2, r3
 1310 00ca 0AD3     		bcc	.L108
 1311              	.L90:
ARM GAS  /tmp/ccUo7ANL.s 			page 24


 1312              	.LVL128:
 1313              	.LBB256:
 1314              	.LBB257:
 1315              	.LBB258:
 1316              		.loc 4 546 0
 1317 00cc 0023     		movs	r3, #0
 1318              		.syntax unified
 1319              	@ 546 "/home/selim/working/ChibiOS/os/ext/CMSIS/include/core_cmFunc.h" 1
 1320 00ce 83F31188 		MSR basepri, r3
 1321              	@ 0 "" 2
 1322              	.LVL129:
 1323              		.thumb
 1324              		.syntax unified
 1325              	.L91:
 1326              	.LBE258:
 1327              	.LBE257:
 1328              	.LBE256:
 1329              	.LBE255:
 1330              	.LBE254:
 1331              		.loc 1 443 0
 1332 00d2 3846     		mov	r0, r7
 1333 00d4 03B0     		add	sp, sp, #12
 1334              		.cfi_remember_state
 1335              		.cfi_def_cfa_offset 36
 1336              		@ sp needed
 1337 00d6 BDE8F08F 		pop	{r4, r5, r6, r7, r8, r9, r10, fp, pc}
 1338              	.LVL130:
 1339              	.L106:
 1340              		.cfi_restore_state
 1341              		.loc 1 415 0 discriminator 2
 1342 00da 0748     		ldr	r0, .L109+8
 1343              	.LVL131:
 1344 00dc FFF7FEFF 		bl	chSysHalt
 1345              	.LVL132:
 1346 00e0 99E7     		b	.L87
 1347              	.LVL133:
 1348              	.L108:
 1349              	.LBB263:
 1350              	.LBB262:
 1351              		.loc 5 367 0
 1352 00e2 0348     		ldr	r0, .L109
 1353 00e4 FFF7FEFF 		bl	chSysHalt
 1354              	.LVL134:
 1355              	.LBB261:
 1356              	.LBB260:
 1357              	.LBB259:
 1358              		.loc 4 546 0
 1359 00e8 0023     		movs	r3, #0
 1360              		.syntax unified
 1361              	@ 546 "/home/selim/working/ChibiOS/os/ext/CMSIS/include/core_cmFunc.h" 1
 1362 00ea 83F31188 		MSR basepri, r3
 1363              	@ 0 "" 2
 1364              	.LVL135:
 1365              		.thumb
 1366              		.syntax unified
 1367 00ee F0E7     		b	.L91
 1368              	.L110:
ARM GAS  /tmp/ccUo7ANL.s 			page 25


 1369              		.align	2
 1370              	.L109:
 1371 00f0 00000000 		.word	.LANCHOR0
 1372 00f4 00000000 		.word	ch
 1373 00f8 00000000 		.word	.LANCHOR2
 1374              	.LBE259:
 1375              	.LBE260:
 1376              	.LBE261:
 1377              	.LBE262:
 1378              	.LBE263:
 1379              		.cfi_endproc
 1380              	.LFE236:
 1381              		.size	chOQWriteTimeout, .-chOQWriteTimeout
 1382              		.section	.rodata.__func__.6721,"a",%progbits
 1383              		.align	2
 1384              		.set	.LANCHOR2,. + 0
 1385              		.type	__func__.6721, %object
 1386              		.size	__func__.6721, 17
 1387              	__func__.6721:
 1388 0000 63684F51 		.ascii	"chOQWriteTimeout\000"
 1388      57726974 
 1388      6554696D 
 1388      656F7574 
 1388      00
 1389              		.section	.rodata.__func__.6685,"a",%progbits
 1390              		.align	2
 1391              		.set	.LANCHOR1,. + 0
 1392              		.type	__func__.6685, %object
 1393              		.size	__func__.6685, 16
 1394              	__func__.6685:
 1395 0000 63684951 		.ascii	"chIQReadTimeout\000"
 1395      52656164 
 1395      54696D65 
 1395      6F757400 
 1396              		.section	.rodata.__func__.5969,"a",%progbits
 1397              		.align	2
 1398              		.set	.LANCHOR0,. + 0
 1399              		.type	__func__.5969, %object
 1400              		.size	__func__.5969, 12
 1401              	__func__.5969:
 1402 0000 63685379 		.ascii	"chSysUnlock\000"
 1402      73556E6C 
 1402      6F636B00 
 1403              		.text
 1404              	.Letext0:
 1405              		.file 6 "/usr/lib/gcc/arm-none-eabi/5.3.1/include/stddef.h"
 1406              		.file 7 "/usr/arm-none-eabi/include/machine/_default_types.h"
 1407              		.file 8 "/usr/arm-none-eabi/include/sys/_stdint.h"
 1408              		.file 9 "/home/selim/working/ChibiOS/os/rt/ports/ARMCMx/compilers/GCC/chtypes.h"
 1409              		.file 10 "/home/selim/working/ChibiOS/os/rt/include/chsystypes.h"
 1410              		.file 11 "/home/selim/working/ChibiOS/os/rt/ports/ARMCMx/chcore.h"
 1411              		.file 12 "/home/selim/working/ChibiOS/os/rt/ports/ARMCMx/chcore_v7m.h"
 1412              		.file 13 "/home/selim/working/ChibiOS/os/rt/include/chdebug.h"
 1413              		.file 14 "/home/selim/working/ChibiOS/os/rt/include/chtm.h"
 1414              		.file 15 "/home/selim/working/ChibiOS/os/rt/include/chstats.h"
 1415              		.file 16 "/home/selim/working/ChibiOS/os/rt/include/chsem.h"
 1416              		.file 17 "/home/selim/working/ChibiOS/os/rt/include/chmtx.h"
ARM GAS  /tmp/ccUo7ANL.s 			page 26


 1417              		.file 18 "/home/selim/working/ChibiOS/os/rt/include/chthreads.h"
 1418              		.file 19 "/home/selim/working/ChibiOS/os/ext/CMSIS/include/core_cm4.h"