ARM GAS  /tmp/ccKRuCtL.s 			page 1


   1              		.syntax unified
   2              		.cpu cortex-m4
   3              		.fpu softvfp
   4              		.eabi_attribute 20, 1
   5              		.eabi_attribute 21, 1
   6              		.eabi_attribute 23, 3
   7              		.eabi_attribute 24, 1
   8              		.eabi_attribute 25, 1
   9              		.eabi_attribute 26, 1
  10              		.eabi_attribute 30, 2
  11              		.eabi_attribute 34, 1
  12              		.eabi_attribute 18, 4
  13              		.thumb
  14              		.syntax unified
  15              		.file	"chregistry.c"
  16              		.text
  17              	.Ltext0:
  18              		.cfi_sections	.debug_frame
  19              		.section	.text.chRegFirstThread,"ax",%progbits
  20              		.align	2
  21              		.p2align 4,,15
  22              		.global	chRegFirstThread
  23              		.thumb
  24              		.thumb_func
  25              		.type	chRegFirstThread, %function
  26              	chRegFirstThread:
  27              	.LFB227:
  28              		.file 1 "/home/selim/working/ChibiOS/os/rt/src/chregistry.c"
  29              		.loc 1 131 0
  30              		.cfi_startproc
  31              		@ args = 0, pretend = 0, frame = 0
  32              		@ frame_needed = 0, uses_anonymous_args = 0
  33              	.LVL0:
  34 0000 38B5     		push	{r3, r4, r5, lr}
  35              		.cfi_def_cfa_offset 16
  36              		.cfi_offset 3, -16
  37              		.cfi_offset 4, -12
  38              		.cfi_offset 5, -8
  39              		.cfi_offset 14, -4
  40              	.LBB34:
  41              	.LBB35:
  42              	.LBB36:
  43              	.LBB37:
  44              	.LBB38:
  45              		.file 2 "/home/selim/working/ChibiOS/os/ext/CMSIS/include/core_cmFunc.h"
  46              		.loc 2 546 0
  47 0002 2023     		movs	r3, #32
  48              		.syntax unified
  49              	@ 546 "/home/selim/working/ChibiOS/os/ext/CMSIS/include/core_cmFunc.h" 1
  50 0004 83F31188 		MSR basepri, r3
  51              	@ 0 "" 2
  52              	.LVL1:
  53              		.thumb
  54              		.syntax unified
  55              	.LBE38:
  56              	.LBE37:
  57              	.LBE36:
ARM GAS  /tmp/ccKRuCtL.s 			page 2


  58              	.LBE35:
  59              	.LBE34:
  60              		.loc 1 135 0
  61 0008 0F4C     		ldr	r4, .L5
  62              	.LBB40:
  63              	.LBB39:
  64              		.file 3 "/home/selim/working/ChibiOS/os/rt/include/chsys.h"
  65              		.loc 3 349 0
  66 000a FFF7FEFF 		bl	_stats_start_measure_crit_thd
  67              	.LVL2:
  68              		.loc 3 350 0
  69 000e FFF7FEFF 		bl	_dbg_check_lock
  70              	.LVL3:
  71              	.LBE39:
  72              	.LBE40:
  73              		.loc 1 135 0
  74 0012 2569     		ldr	r5, [r4, #16]
  75              	.LVL4:
  76              		.loc 1 137 0
  77 0014 95F82230 		ldrb	r3, [r5, #34]	@ zero_extendqisi2
  78 0018 0133     		adds	r3, r3, #1
  79 001a 85F82230 		strb	r3, [r5, #34]
  80              	.LBB41:
  81              	.LBB42:
  82              		.loc 3 360 0
  83 001e FFF7FEFF 		bl	_dbg_check_unlock
  84              	.LVL5:
  85              		.loc 3 361 0
  86 0022 FFF7FEFF 		bl	_stats_stop_measure_crit_thd
  87              	.LVL6:
  88              		.loc 3 367 0
  89 0026 2368     		ldr	r3, [r4]
  90 0028 A342     		cmp	r3, r4
  91 002a 07D0     		beq	.L2
  92 002c A269     		ldr	r2, [r4, #24]
  93 002e 9B68     		ldr	r3, [r3, #8]
  94 0030 9268     		ldr	r2, [r2, #8]
  95 0032 9A42     		cmp	r2, r3
  96 0034 02D2     		bcs	.L2
  97 0036 0548     		ldr	r0, .L5+4
  98 0038 FFF7FEFF 		bl	chSysHalt
  99              	.LVL7:
 100              	.L2:
 101              	.LBB43:
 102              	.LBB44:
 103              	.LBB45:
 104              		.loc 2 546 0
 105 003c 0023     		movs	r3, #0
 106              		.syntax unified
 107              	@ 546 "/home/selim/working/ChibiOS/os/ext/CMSIS/include/core_cmFunc.h" 1
 108 003e 83F31188 		MSR basepri, r3
 109              	@ 0 "" 2
 110              	.LVL8:
 111              		.thumb
 112              		.syntax unified
 113              	.LBE45:
 114              	.LBE44:
ARM GAS  /tmp/ccKRuCtL.s 			page 3


 115              	.LBE43:
 116              	.LBE42:
 117              	.LBE41:
 118              		.loc 1 142 0
 119 0042 2846     		mov	r0, r5
 120 0044 38BD     		pop	{r3, r4, r5, pc}
 121              	.LVL9:
 122              	.L6:
 123 0046 00BF     		.align	2
 124              	.L5:
 125 0048 00000000 		.word	ch
 126 004c 00000000 		.word	.LANCHOR0
 127              		.cfi_endproc
 128              	.LFE227:
 129              		.size	chRegFirstThread, .-chRegFirstThread
 130              		.section	.text.chRegNextThread,"ax",%progbits
 131              		.align	2
 132              		.p2align 4,,15
 133              		.global	chRegNextThread
 134              		.thumb
 135              		.thumb_func
 136              		.type	chRegNextThread, %function
 137              	chRegNextThread:
 138              	.LFB228:
 139              		.loc 1 155 0
 140              		.cfi_startproc
 141              		@ args = 0, pretend = 0, frame = 0
 142              		@ frame_needed = 0, uses_anonymous_args = 0
 143              	.LVL10:
 144 0000 70B5     		push	{r4, r5, r6, lr}
 145              		.cfi_def_cfa_offset 16
 146              		.cfi_offset 4, -16
 147              		.cfi_offset 5, -12
 148              		.cfi_offset 6, -8
 149              		.cfi_offset 14, -4
 150              	.LBB56:
 151              	.LBB57:
 152              	.LBB58:
 153              	.LBB59:
 154              	.LBB60:
 155              		.loc 2 546 0
 156 0002 2023     		movs	r3, #32
 157              	.LBE60:
 158              	.LBE59:
 159              	.LBE58:
 160              	.LBE57:
 161              	.LBE56:
 162              		.loc 1 155 0
 163 0004 0646     		mov	r6, r0
 164              	.LBB66:
 165              	.LBB64:
 166              	.LBB63:
 167              	.LBB62:
 168              	.LBB61:
 169              		.loc 2 546 0
 170              		.syntax unified
 171              	@ 546 "/home/selim/working/ChibiOS/os/ext/CMSIS/include/core_cmFunc.h" 1
ARM GAS  /tmp/ccKRuCtL.s 			page 4


 172 0006 83F31188 		MSR basepri, r3
 173              	@ 0 "" 2
 174              	.LVL11:
 175              		.thumb
 176              		.syntax unified
 177              	.LBE61:
 178              	.LBE62:
 179              	.LBE63:
 180              		.loc 3 349 0
 181 000a FFF7FEFF 		bl	_stats_start_measure_crit_thd
 182              	.LVL12:
 183              	.LBE64:
 184              	.LBE66:
 185              		.loc 1 161 0
 186 000e 164D     		ldr	r5, .L14
 187              	.LBB67:
 188              	.LBB65:
 189              		.loc 3 350 0
 190 0010 FFF7FEFF 		bl	_dbg_check_lock
 191              	.LVL13:
 192              	.LBE65:
 193              	.LBE67:
 194              		.loc 1 159 0
 195 0014 3469     		ldr	r4, [r6, #16]
 196              	.LVL14:
 197              		.loc 1 161 0
 198 0016 AC42     		cmp	r4, r5
 199 0018 24D0     		beq	.L11
 200              		.loc 1 167 0 discriminator 1
 201 001a 94F82230 		ldrb	r3, [r4, #34]	@ zero_extendqisi2
 202 001e FF2B     		cmp	r3, #255
 203 0020 1AD0     		beq	.L13
 204              	.L9:
 205              		.loc 1 168 0
 206 0022 0133     		adds	r3, r3, #1
 207 0024 84F82230 		strb	r3, [r4, #34]
 208              	.LVL15:
 209              	.L8:
 210              	.LBB68:
 211              	.LBB69:
 212              		.loc 3 360 0
 213 0028 FFF7FEFF 		bl	_dbg_check_unlock
 214              	.LVL16:
 215              		.loc 3 361 0
 216 002c FFF7FEFF 		bl	_stats_stop_measure_crit_thd
 217              	.LVL17:
 218              		.loc 3 367 0
 219 0030 2B68     		ldr	r3, [r5]
 220 0032 0D4A     		ldr	r2, .L14
 221 0034 AB42     		cmp	r3, r5
 222 0036 07D0     		beq	.L10
 223 0038 9269     		ldr	r2, [r2, #24]
 224 003a 9B68     		ldr	r3, [r3, #8]
 225 003c 9268     		ldr	r2, [r2, #8]
 226 003e 9A42     		cmp	r2, r3
 227 0040 02D2     		bcs	.L10
 228 0042 0A48     		ldr	r0, .L14+4
ARM GAS  /tmp/ccKRuCtL.s 			page 5


 229 0044 FFF7FEFF 		bl	chSysHalt
 230              	.LVL18:
 231              	.L10:
 232              	.LBB70:
 233              	.LBB71:
 234              	.LBB72:
 235              		.loc 2 546 0
 236 0048 0023     		movs	r3, #0
 237              		.syntax unified
 238              	@ 546 "/home/selim/working/ChibiOS/os/ext/CMSIS/include/core_cmFunc.h" 1
 239 004a 83F31188 		MSR basepri, r3
 240              	@ 0 "" 2
 241              	.LVL19:
 242              		.thumb
 243              		.syntax unified
 244              	.LBE72:
 245              	.LBE71:
 246              	.LBE70:
 247              	.LBE69:
 248              	.LBE68:
 249              		.loc 1 173 0
 250 004e 3046     		mov	r0, r6
 251 0050 FFF7FEFF 		bl	chThdRelease
 252              	.LVL20:
 253              		.loc 1 177 0
 254 0054 2046     		mov	r0, r4
 255 0056 70BD     		pop	{r4, r5, r6, pc}
 256              	.LVL21:
 257              	.L13:
 258              		.loc 1 167 0 discriminator 2
 259 0058 0548     		ldr	r0, .L14+8
 260 005a FFF7FEFF 		bl	chSysHalt
 261              	.LVL22:
 262 005e 94F82230 		ldrb	r3, [r4, #34]	@ zero_extendqisi2
 263 0062 DEE7     		b	.L9
 264              	.L11:
 265              		.loc 1 163 0
 266 0064 0024     		movs	r4, #0
 267              	.LVL23:
 268 0066 DFE7     		b	.L8
 269              	.L15:
 270              		.align	2
 271              	.L14:
 272 0068 00000000 		.word	ch
 273 006c 00000000 		.word	.LANCHOR0
 274 0070 00000000 		.word	.LANCHOR1
 275              		.cfi_endproc
 276              	.LFE228:
 277              		.size	chRegNextThread, .-chRegNextThread
 278              		.global	ch_debug
 279              		.section	.rodata.ch_debug,"a",%progbits
 280              		.align	2
 281              		.type	ch_debug, %object
 282              		.size	ch_debug, 22
 283              	ch_debug:
 284 0000 6D       		.byte	109
 285 0001 61       		.byte	97
ARM GAS  /tmp/ccKRuCtL.s 			page 6


 286 0002 69       		.byte	105
 287 0003 6E       		.byte	110
 288 0004 00       		.byte	0
 289 0005 16       		.byte	22
 290 0006 0018     		.short	6144
 291 0008 04       		.byte	4
 292 0009 04       		.byte	4
 293 000a 60       		.byte	96
 294 000b 08       		.byte	8
 295 000c 0C       		.byte	12
 296 000d 10       		.byte	16
 297 000e 14       		.byte	20
 298 000f 18       		.byte	24
 299 0010 1C       		.byte	28
 300 0011 20       		.byte	32
 301 0012 21       		.byte	33
 302 0013 22       		.byte	34
 303 0014 00       		.byte	0
 304 0015 00       		.byte	0
 305              		.section	.rodata.__func__.6663,"a",%progbits
 306              		.align	2
 307              		.set	.LANCHOR1,. + 0
 308              		.type	__func__.6663, %object
 309              		.size	__func__.6663, 16
 310              	__func__.6663:
 311 0000 63685265 		.ascii	"chRegNextThread\000"
 311      674E6578 
 311      74546872 
 311      65616400 
 312              		.section	.rodata.__func__.5969,"a",%progbits
 313              		.align	2
 314              		.set	.LANCHOR0,. + 0
 315              		.type	__func__.5969, %object
 316              		.size	__func__.5969, 12
 317              	__func__.5969:
 318 0000 63685379 		.ascii	"chSysUnlock\000"
 318      73556E6C 
 318      6F636B00 
 319              		.text
 320              	.Letext0:
 321              		.file 4 "/usr/lib/gcc/arm-none-eabi/5.3.1/include/stddef.h"
 322              		.file 5 "/usr/arm-none-eabi/include/machine/_default_types.h"
 323              		.file 6 "/usr/arm-none-eabi/include/sys/_stdint.h"
 324              		.file 7 "/home/selim/working/ChibiOS/os/rt/ports/ARMCMx/compilers/GCC/chtypes.h"
 325              		.file 8 "/home/selim/working/ChibiOS/os/rt/include/chsystypes.h"
 326              		.file 9 "/home/selim/working/ChibiOS/os/rt/include/chschd.h"
 327              		.file 10 "/home/selim/working/ChibiOS/os/rt/ports/ARMCMx/chcore.h"
 328              		.file 11 "/home/selim/working/ChibiOS/os/rt/ports/ARMCMx/chcore_v7m.h"
 329              		.file 12 "/home/selim/working/ChibiOS/os/rt/include/chdebug.h"
 330              		.file 13 "/home/selim/working/ChibiOS/os/rt/include/chtm.h"
 331              		.file 14 "/home/selim/working/ChibiOS/os/rt/include/chstats.h"
 332              		.file 15 "/home/selim/working/ChibiOS/os/rt/include/chsem.h"
 333              		.file 16 "/home/selim/working/ChibiOS/os/rt/include/chmtx.h"
 334              		.file 17 "/home/selim/working/ChibiOS/os/rt/include/chregistry.h"
 335              		.file 18 "/home/selim/working/ChibiOS/os/ext/CMSIS/include/core_cm4.h"
 336              		.file 19 "/home/selim/working/ChibiOS/os/rt/include/chdynamic.h"