ARM GAS  /tmp/ccFUDirs.s 			page 1


   1              		.syntax unified
   2              		.cpu cortex-m4
   3              		.fpu softvfp
   4              		.eabi_attribute 20, 1
   5              		.eabi_attribute 21, 1
   6              		.eabi_attribute 23, 3
   7              		.eabi_attribute 24, 1
   8              		.eabi_attribute 25, 1
   9              		.eabi_attribute 26, 1
  10              		.eabi_attribute 30, 2
  11              		.eabi_attribute 34, 1
  12              		.eabi_attribute 18, 4
  13              		.thumb
  14              		.syntax unified
  15              		.file	"chtm.c"
  16              		.text
  17              	.Ltext0:
  18              		.cfi_sections	.debug_frame
  19              		.section	.text.chTMObjectInit,"ax",%progbits
  20              		.align	2
  21              		.p2align 4,,15
  22              		.global	chTMObjectInit
  23              		.thumb
  24              		.thumb_func
  25              		.type	chTMObjectInit, %function
  26              	chTMObjectInit:
  27              	.LFB229:
  28              		.file 1 "/home/selim/working/ChibiOS/os/rt/src/chtm.c"
  29              		.loc 1 99 0
  30              		.cfi_startproc
  31              		@ args = 0, pretend = 0, frame = 0
  32              		@ frame_needed = 0, uses_anonymous_args = 0
  33              		@ link register save eliminated.
  34              	.LVL0:
  35              		.loc 1 105 0
  36 0000 0022     		movs	r2, #0
  37 0002 0023     		movs	r3, #0
  38 0004 C0E90423 		strd	r2, [r0, #16]
  39              		.loc 1 102 0
  40 0008 0023     		movs	r3, #0
  41 000a 4FF0FF32 		mov	r2, #-1
  42 000e 80E80C00 		stmia	r0, {r2, r3}
  43              		.loc 1 103 0
  44 0012 8360     		str	r3, [r0, #8]
  45              		.loc 1 104 0
  46 0014 C360     		str	r3, [r0, #12]
  47 0016 7047     		bx	lr
  48              		.cfi_endproc
  49              	.LFE229:
  50              		.size	chTMObjectInit, .-chTMObjectInit
  51              		.section	.text.chTMStartMeasurementX,"ax",%progbits
  52              		.align	2
  53              		.p2align 4,,15
  54              		.global	chTMStartMeasurementX
  55              		.thumb
  56              		.thumb_func
  57              		.type	chTMStartMeasurementX, %function
ARM GAS  /tmp/ccFUDirs.s 			page 2


  58              	chTMStartMeasurementX:
  59              	.LFB230:
  60              		.loc 1 116 0
  61              		.cfi_startproc
  62              		@ args = 0, pretend = 0, frame = 0
  63              		@ frame_needed = 0, uses_anonymous_args = 0
  64              		@ link register save eliminated.
  65              	.LVL1:
  66              	.LBB14:
  67              	.LBB15:
  68              		.file 2 "/home/selim/working/ChibiOS/os/rt/ports/ARMCMx/chcore_v7m.h"
  69              		.loc 2 548 0
  70 0000 014B     		ldr	r3, .L3
  71 0002 5B68     		ldr	r3, [r3, #4]
  72              	.LBE15:
  73              	.LBE14:
  74              		.loc 1 118 0
  75 0004 8360     		str	r3, [r0, #8]
  76 0006 7047     		bx	lr
  77              	.L4:
  78              		.align	2
  79              	.L3:
  80 0008 001000E0 		.word	-536866816
  81              		.cfi_endproc
  82              	.LFE230:
  83              		.size	chTMStartMeasurementX, .-chTMStartMeasurementX
  84              		.section	.text.chTMStopMeasurementX,"ax",%progbits
  85              		.align	2
  86              		.p2align 4,,15
  87              		.global	chTMStopMeasurementX
  88              		.thumb
  89              		.thumb_func
  90              		.type	chTMStopMeasurementX, %function
  91              	chTMStopMeasurementX:
  92              	.LFB231:
  93              		.loc 1 129 0
  94              		.cfi_startproc
  95              		@ args = 0, pretend = 0, frame = 0
  96              		@ frame_needed = 0, uses_anonymous_args = 0
  97              		@ link register save eliminated.
  98              	.LVL2:
  99              	.LBB16:
 100              	.LBB17:
 101              		.loc 2 548 0
 102 0000 0F4B     		ldr	r3, .L11
 103              	.LBE17:
 104              	.LBE16:
 105              		.loc 1 131 0
 106 0002 1049     		ldr	r1, .L11+4
 107              	.LBB19:
 108              	.LBB18:
 109              		.loc 2 548 0
 110 0004 5A68     		ldr	r2, [r3, #4]
 111              	.LBE18:
 112              	.LBE19:
 113              	.LBB20:
 114              	.LBB21:
ARM GAS  /tmp/ccFUDirs.s 			page 3


 115              		.loc 1 58 0
 116 0006 8368     		ldr	r3, [r0, #8]
 117              	.LBE21:
 118              	.LBE20:
 119              		.loc 1 129 0
 120 0008 F0B4     		push	{r4, r5, r6, r7}
 121              		.cfi_def_cfa_offset 16
 122              		.cfi_offset 4, -16
 123              		.cfi_offset 5, -12
 124              		.cfi_offset 6, -8
 125              		.cfi_offset 7, -4
 126              		.loc 1 131 0
 127 000a D1F8A074 		ldr	r7, [r1, #1184]
 128              	.LVL3:
 129              	.LBB24:
 130              	.LBB22:
 131              		.loc 1 57 0
 132 000e C668     		ldr	r6, [r0, #12]
 133              		.loc 1 61 0
 134 0010 4168     		ldr	r1, [r0, #4]
 135              		.loc 1 59 0
 136 0012 D0E90445 		ldrd	r4, [r0, #16]
 137              		.loc 1 58 0
 138 0016 D31A     		subs	r3, r2, r3
 139 0018 DB1B     		subs	r3, r3, r7
 140              		.loc 1 59 0
 141 001a E418     		adds	r4, r4, r3
 142 001c 45F10005 		adc	r5, r5, #0
 143              		.loc 1 57 0
 144 0020 0136     		adds	r6, r6, #1
 145              		.loc 1 61 0
 146 0022 8B42     		cmp	r3, r1
 147              		.loc 1 57 0
 148 0024 C660     		str	r6, [r0, #12]
 149              		.loc 1 58 0
 150 0026 8360     		str	r3, [r0, #8]
 151              		.loc 1 59 0
 152 0028 C0E90445 		strd	r4, [r0, #16]
 153              		.loc 1 61 0
 154 002c 05D8     		bhi	.L10
 155              		.loc 1 64 0
 156 002e 0268     		ldr	r2, [r0]
 157 0030 9342     		cmp	r3, r2
 158              		.loc 1 65 0
 159 0032 38BF     		it	cc
 160 0034 0360     		strcc	r3, [r0]
 161              	.LVL4:
 162              	.LBE22:
 163              	.LBE24:
 164              		.loc 1 132 0
 165 0036 F0BC     		pop	{r4, r5, r6, r7}
 166              		.cfi_remember_state
 167              		.cfi_restore 7
 168              		.cfi_restore 6
 169              		.cfi_restore 5
 170              		.cfi_restore 4
 171              		.cfi_def_cfa_offset 0
ARM GAS  /tmp/ccFUDirs.s 			page 4


 172 0038 7047     		bx	lr
 173              	.LVL5:
 174              	.L10:
 175              		.cfi_restore_state
 176              	.LBB25:
 177              	.LBB23:
 178              		.loc 1 62 0
 179 003a 4360     		str	r3, [r0, #4]
 180              	.LBE23:
 181              	.LBE25:
 182              		.loc 1 132 0
 183 003c F0BC     		pop	{r4, r5, r6, r7}
 184              		.cfi_restore 4
 185              		.cfi_restore 5
 186              		.cfi_restore 6
 187              		.cfi_restore 7
 188              		.cfi_def_cfa_offset 0
 189              	.LVL6:
 190 003e 7047     		bx	lr
 191              	.L12:
 192              		.align	2
 193              	.L11:
 194 0040 001000E0 		.word	-536866816
 195 0044 00000000 		.word	ch
 196              		.cfi_endproc
 197              	.LFE231:
 198              		.size	chTMStopMeasurementX, .-chTMStopMeasurementX
 199              		.section	.text._tm_init,"ax",%progbits
 200              		.align	2
 201              		.p2align 4,,15
 202              		.global	_tm_init
 203              		.thumb
 204              		.thumb_func
 205              		.type	_tm_init, %function
 206              	_tm_init:
 207              	.LFB228:
 208              		.loc 1 79 0
 209              		.cfi_startproc
 210              		@ args = 0, pretend = 0, frame = 24
 211              		@ frame_needed = 0, uses_anonymous_args = 0
 212 0000 D0B5     		push	{r4, r6, r7, lr}
 213              		.cfi_def_cfa_offset 16
 214              		.cfi_offset 4, -16
 215              		.cfi_offset 6, -12
 216              		.cfi_offset 7, -8
 217              		.cfi_offset 14, -4
 218              		.loc 1 85 0
 219 0002 0D4C     		ldr	r4, .L15
 220              		.loc 1 79 0
 221 0004 86B0     		sub	sp, sp, #24
 222              		.cfi_def_cfa_offset 40
 223              		.loc 1 85 0
 224 0006 0023     		movs	r3, #0
 225              	.LBB26:
 226              	.LBB27:
 227              		.loc 1 101 0
 228 0008 4FF0FF32 		mov	r2, #-1
ARM GAS  /tmp/ccFUDirs.s 			page 5


 229              	.LBE27:
 230              	.LBE26:
 231              		.loc 1 87 0
 232 000c 6846     		mov	r0, sp
 233              	.LBB30:
 234              	.LBB28:
 235              		.loc 1 105 0
 236 000e 0026     		movs	r6, #0
 237 0010 0027     		movs	r7, #0
 238              	.LBE28:
 239              	.LBE30:
 240              		.loc 1 85 0
 241 0012 C4F8A034 		str	r3, [r4, #1184]
 242              	.LVL7:
 243              	.LBB31:
 244              	.LBB29:
 245              		.loc 1 102 0
 246 0016 0193     		str	r3, [sp, #4]
 247              		.loc 1 103 0
 248 0018 0293     		str	r3, [sp, #8]
 249              		.loc 1 104 0
 250 001a 0393     		str	r3, [sp, #12]
 251              		.loc 1 101 0
 252 001c 0092     		str	r2, [sp]
 253              		.loc 1 105 0
 254 001e CDE90467 		strd	r6, [sp, #16]
 255              	.LVL8:
 256              	.LBE29:
 257              	.LBE31:
 258              		.loc 1 87 0
 259 0022 FFF7FEFF 		bl	chTMStartMeasurementX
 260              	.LVL9:
 261              		.loc 1 88 0
 262 0026 6846     		mov	r0, sp
 263 0028 FFF7FEFF 		bl	chTMStopMeasurementX
 264              	.LVL10:
 265              		.loc 1 89 0
 266 002c 029B     		ldr	r3, [sp, #8]
 267 002e C4F8A034 		str	r3, [r4, #1184]
 268              		.loc 1 90 0
 269 0032 06B0     		add	sp, sp, #24
 270              		.cfi_def_cfa_offset 16
 271              		@ sp needed
 272 0034 D0BD     		pop	{r4, r6, r7, pc}
 273              	.L16:
 274 0036 00BF     		.align	2
 275              	.L15:
 276 0038 00000000 		.word	ch
 277              		.cfi_endproc
 278              	.LFE228:
 279              		.size	_tm_init, .-_tm_init
 280              		.section	.text.chTMChainMeasurementToX,"ax",%progbits
 281              		.align	2
 282              		.p2align 4,,15
 283              		.global	chTMChainMeasurementToX
 284              		.thumb
 285              		.thumb_func
ARM GAS  /tmp/ccFUDirs.s 			page 6


 286              		.type	chTMChainMeasurementToX, %function
 287              	chTMChainMeasurementToX:
 288              	.LFB232:
 289              		.loc 1 147 0
 290              		.cfi_startproc
 291              		@ args = 0, pretend = 0, frame = 0
 292              		@ frame_needed = 0, uses_anonymous_args = 0
 293              		@ link register save eliminated.
 294              	.LVL11:
 295              	.LBB32:
 296              	.LBB33:
 297              		.loc 2 548 0
 298 0000 0E4B     		ldr	r3, .L22
 299              	.LBE33:
 300              	.LBE32:
 301              	.LBB35:
 302              	.LBB36:
 303              		.loc 1 61 0
 304 0002 4268     		ldr	r2, [r0, #4]
 305              	.LBE36:
 306              	.LBE35:
 307              	.LBB39:
 308              	.LBB34:
 309              		.loc 2 548 0
 310 0004 5B68     		ldr	r3, [r3, #4]
 311              	.LBE34:
 312              	.LBE39:
 313              		.loc 1 147 0
 314 0006 70B4     		push	{r4, r5, r6}
 315              		.cfi_def_cfa_offset 12
 316              		.cfi_offset 4, -12
 317              		.cfi_offset 5, -8
 318              		.cfi_offset 6, -4
 319              		.loc 1 150 0
 320 0008 8B60     		str	r3, [r1, #8]
 321              	.LVL12:
 322              	.LBB40:
 323              	.LBB37:
 324              		.loc 1 59 0
 325 000a D0E90445 		ldrd	r4, [r0, #16]
 326              		.loc 1 58 0
 327 000e 8668     		ldr	r6, [r0, #8]
 328              		.loc 1 57 0
 329 0010 C168     		ldr	r1, [r0, #12]
 330              	.LVL13:
 331              		.loc 1 58 0
 332 0012 9B1B     		subs	r3, r3, r6
 333              	.LVL14:
 334              		.loc 1 59 0
 335 0014 E418     		adds	r4, r4, r3
 336 0016 45F10005 		adc	r5, r5, #0
 337              		.loc 1 57 0
 338 001a 0131     		adds	r1, r1, #1
 339              		.loc 1 61 0
 340 001c 9342     		cmp	r3, r2
 341              		.loc 1 57 0
 342 001e C160     		str	r1, [r0, #12]
ARM GAS  /tmp/ccFUDirs.s 			page 7


 343              		.loc 1 58 0
 344 0020 8360     		str	r3, [r0, #8]
 345              	.LVL15:
 346              		.loc 1 59 0
 347 0022 C0E90445 		strd	r4, [r0, #16]
 348              		.loc 1 61 0
 349 0026 05D8     		bhi	.L21
 350              		.loc 1 64 0
 351 0028 0268     		ldr	r2, [r0]
 352 002a 9342     		cmp	r3, r2
 353              		.loc 1 65 0
 354 002c 38BF     		it	cc
 355 002e 0360     		strcc	r3, [r0]
 356              	.LVL16:
 357              	.LBE37:
 358              	.LBE40:
 359              		.loc 1 154 0
 360 0030 70BC     		pop	{r4, r5, r6}
 361              		.cfi_remember_state
 362              		.cfi_restore 6
 363              		.cfi_restore 5
 364              		.cfi_restore 4
 365              		.cfi_def_cfa_offset 0
 366 0032 7047     		bx	lr
 367              	.LVL17:
 368              	.L21:
 369              		.cfi_restore_state
 370              	.LBB41:
 371              	.LBB38:
 372              		.loc 1 62 0
 373 0034 4360     		str	r3, [r0, #4]
 374              	.LBE38:
 375              	.LBE41:
 376              		.loc 1 154 0
 377 0036 70BC     		pop	{r4, r5, r6}
 378              		.cfi_restore 4
 379              		.cfi_restore 5
 380              		.cfi_restore 6
 381              		.cfi_def_cfa_offset 0
 382 0038 7047     		bx	lr
 383              	.L23:
 384 003a 00BF     		.align	2
 385              	.L22:
 386 003c 001000E0 		.word	-536866816
 387              		.cfi_endproc
 388              	.LFE232:
 389              		.size	chTMChainMeasurementToX, .-chTMChainMeasurementToX
 390              		.text
 391              	.Letext0:
 392              		.file 3 "/usr/arm-none-eabi/include/machine/_default_types.h"
 393              		.file 4 "/usr/arm-none-eabi/include/sys/_stdint.h"
 394              		.file 5 "/home/selim/working/ChibiOS/os/rt/ports/ARMCMx/compilers/GCC/chtypes.h"
 395              		.file 6 "/home/selim/working/ChibiOS/os/rt/include/chsystypes.h"
 396              		.file 7 "/home/selim/working/ChibiOS/os/rt/include/chschd.h"
 397              		.file 8 "/home/selim/working/ChibiOS/os/ext/CMSIS/include/core_cm4.h"
 398              		.file 9 "/home/selim/working/ChibiOS/os/rt/ports/ARMCMx/chcore.h"
 399              		.file 10 "/home/selim/working/ChibiOS/os/rt/include/chdebug.h"
ARM GAS  /tmp/ccFUDirs.s 			page 8


 400              		.file 11 "/home/selim/working/ChibiOS/os/rt/include/chtm.h"
 401              		.file 12 "/home/selim/working/ChibiOS/os/rt/include/chstats.h"
 402              		.file 13 "/home/selim/working/ChibiOS/os/rt/include/chsem.h"
 403              		.file 14 "/home/selim/working/ChibiOS/os/rt/include/chmtx.h"