ARM GAS  /tmp/ccFUDirs.s 			page 1


   1              		.syntax unified
   2              		.cpu cortex-m4
   3              		.fpu softvfp
   4              		.eabi_attribute 20, 1
   5              		.eabi_attribute 21, 1
   6              		.eabi_attribute 23, 3
   7              		.eabi_attribute 24, 1
   8              		.eabi_attribute 25, 1
   9              		.eabi_attribute 26, 1
  10              		.eabi_attribute 30, 2
  11              		.eabi_attribute 34, 1
  12              		.eabi_attribute 18, 4
  13              		.thumb
  14              		.syntax unified
  15              		.file	"chtm.c"
  16              		.text
  17              	.Ltext0:
  18              		.cfi_sections	.debug_frame
  19              		.section	.text.chTMObjectInit,"ax",%progbits
  20              		.align	2
  21              		.p2align 4,,15
  22              		.global	chTMObjectInit
  23              		.thumb
  24              		.thumb_func
  25              		.type	chTMObjectInit, %function
  26              	chTMObjectInit:
  27              	.LFB229:
  28              		.file 1 "/home/selim/working/ChibiOS/os/rt/src/chtm.c"
  29              		.loc 1 99 0
  30              		.cfi_startproc
  31              		@ args = 0, pretend = 0, frame = 0
  32              		@ frame_needed = 0, uses_anonymous_args = 0
  33              		@ link register save eliminated.
  34              	.LVL0:
  35              		.loc 1 105 0
  36 0000 0022     		movs	r2, #0
  37 0002 0023     		movs	r3, #0
  38 0004 C0E90423 		strd	r2, [r0, #16]
  39              		.loc 1 102 0
  40 0008 0023     		movs	r3, #0
  41 000a 4FF0FF32 		mov	r2, #-1
  42 000e 80E80C00 		stmia	r0, {r2, r3}
  43              		.loc 1 103 0
  44 0012 8360     		str	r3, [r0, #8]
  45              		.loc 1 104 0
  46 0014 C360     		str	r3, [r0, #12]
  47 0016 7047     		bx	lr
  48              		.cfi_endproc
  49              	.LFE229:
  50              		.size	chTMObjectInit, .-chTMObjectInit
  51              		.section	.text.chTMStartMeasurementX,"ax",%progbits
  52              		.align	2
  53              		.p2align 4,,15
  54              		.global	chTMStartMeasurementX
  55              		.thumb
  56              		.thumb_func
  57              		.type	chTMStartMeasurementX, %function
ARM GAS  /tmp/ccFUDirs.s 			page 2


  58              	chTMStartMeasurementX:
  59              	.LFB230:
  60              		.loc 1 116 0
  61              		.cfi_startproc
  62              		@ args = 0, pretend = 0, frame = 0
  63              		@ frame_needed = 0, uses_anonymous_args = 0
  64              		@ link register save eliminated.
  65              	.LVL1:
  66              	.LBB14:
  67              	.LBB15:
  68              		.file 2 "/home/selim/working/ChibiOS/os/rt/ports/ARMCMx/chcore_v7m.h"
  69              		.loc 2 548 0
  70 0000 014B     		ldr	r3, .L3
  71 0002 5B68     		ldr	r3, [r3, #4]
  72              	.LBE15:
  73              	.LBE14:
  74              		.loc 1 118 0
  75 0004 8360     		str	r3, [r0, #8]
  76 0006 7047     		bx	lr
  77              	.L4:
  78              		.align	2
  79              	.L3:
  80 0008 001000E0 		.word	-536866816
  81              		.cfi_endproc
  82              	.LFE230:
  83              		.size	chTMStartMeasurementX, .-chTMStartMeasurementX
  84              		.section	.text.chTMStopMeasurementX,"ax",%progbits
  85              		.align	2
  86              		.p2align 4,,15
  87              		.global	chTMStopMeasurementX
  88              		.thumb
  89              		.thumb_func
  90              		.type	chTMStopMeasurementX, %function
  91              	chTMStopMeasurementX:
  92              	.LFB231:
  93              		.loc 1 129 0
  94              		.cfi_startproc
  95              		@ args = 0, pretend = 0, frame = 0
  96              		@ frame_needed = 0, uses_anonymous_args = 0
  97              		@ link register save eliminated.
  98              	.LVL2:
  99              	.LBB16:
 100              	.LBB17:
 101              		.loc 2 548 0
 102 0000 0F4B     		ldr	r3, .L11
 103              	.LBE17:
 104              	.LBE16:
 105              		.loc 1 131 0
 106 0002 1049     		ldr	r1, .L11+4
 107              	.LBB19:
 108              	.LBB18:
 109              		.loc 2 548 0
 110 0004 5A68     		ldr	r2, [r3, #4]
 111              	.LBE18:
 112              	.LBE19:
 113              	.LBB20:
 114              	.LBB21:
ARM GAS  /tmp/ccFUDirs.s 			page 3


 115              		.loc 1 58 0
 116 0006 8368     		ldr	r3, [r0, #8]
 117              	.LBE21:
 118              	.LBE20:
 119              		.loc 1 129 0
 120 0008 F0B4     		push	{r4, r5, r6, r7}
 121              		.cfi_def_cfa_offset 16
 122              		.cfi_offset 4, -16
 123              		.cfi_offset 5, -12
 124              		.cfi_offset 6, -8
 125              		.cfi_offset 7, -4
 126              		.loc 1 131 0
 127 000a D1F8A074 		ldr	r7, [r1, #1184]
 128              	.LVL3:
 129              	.LBB24:
 130              	.LBB22:
 131              		.loc 1 57 0
 132 000e C668     		ldr	r6, [r0, #12]
 133              		.loc 1 61 0
 134 0010 4168     		ldr	r1, [r0, #4]
 135              		.loc 1 59 0
 136 0012 D0E90445 		ldrd	r4, [r0, #16]
 137              		.loc 1 58 0
 138 0016 D31A     		subs	r3, r2, r3
 139 0018 DB1B     		subs	r3, r3, r7
 140              		.loc 1 59 0
 141 001a E418     		adds	r4, r4, r3
 142 001c 45F10005 		adc	r5, r5, #0
 143              		.loc 1 57 0
 144 0020 0136     		adds	r6, r6, #1
 145              		.loc 1 61 0
 146 0022 8B42     		cmp	r3, r1
 147              		.loc 1 57 0
 148 0024 C660     		str	r6, [r0, #12]
 149              		.loc 1 58 0
 150 0026 8360     		str	r3, [r0, #8]
 151              		.loc 1 59 0
 152 0028 C0E90445 		strd	r4, [r0, #16]
 153              		.loc 1 61 0
 154 002c 05D8     		bhi	.L10
 155              		.loc 1 64 0
 156 002e 0268     		ldr	r2, [r0]
 157 0030 9342     		cmp	r3, r2
 158              		.loc 1 65 0
 159 0032 38BF     		it	cc
 160 0034 0360     		strcc	r3, [r0]
 161              	.LVL4:
 162              	.LBE22:
 163              	.LBE24:
 164              		.loc 1 132 0
 165 0036 F0BC     		pop	{r4, r5, r6, r7}
 166              		.cfi_remember_state
 167              		.cfi_restore 7
 168              		.cfi_restore 6
 169              		.cfi_restore 5
 170              		.cfi_restore 4
 171              		.cfi_def_cfa_offset 0
ARM GAS  /tmp/ccFUDirs.s 			page 4


 172 0038 7047     		bx	lr
 173              	.LVL5:
 174              	.L10:
 175              		.cfi_restore_state
 176              	.LBB25:
 177              	.LBB23:
 178              		.loc 1 62 0
 179 003a 4360     		str	r3, [r0, #4]
 180              	.LBE23:
 181              	.LBE25:
 182              		.loc 1 132 0
 183 003c F0BC     		pop	{r4, r5, r6, r7}
 184              		.cfi_restore 4
 185              		.cfi_restore 5
 186              		.cfi_restore 6
 187              		.cfi_restore 7
 188              		.cfi_def_cfa_offset 0
 189              	.LVL6:
 190 003e 7047     		bx	lr
 191              	.L12:
 192              		.align	2
 193              	.L11:
 194 0040 001000E0 		.word	-536866816
 195 0044 00000000 		.word	ch
 196              		.cfi_endproc
 197              	.LFE231:
 198              		.size	chTMStopMeasurementX, .-chTMStopMeasurementX
 199              		.section	.text._tm_init,"ax",%progbits
 200              		.align	2
 201              		.p2align 4,,15
 202              		.global	_tm_init
 203              		.thumb
 204              		.thumb_func
 205              		.type	_tm_init, %function
 206              	_tm_init:
 207              	.LFB228:
 208              		.loc 1 79 0
 209              		.cfi_startproc
 210              		@ args = 0, pretend = 0, frame = 24
 211              		@ frame_needed = 0, uses_anonymous_args = 0
 212 0000 D0B5     		push	{r4, r6, r7, lr}
 213              		.cfi_def_cfa_offset 16
 214              		.cfi_offset 4, -16
 215              		.cfi_offset 6, -12
 216              		.cfi_offset 7, -8
 217              		.cfi_offset 14, -4
 218              		.loc 1 85 0
 219 0002 0D4C     		ldr	r4, .L15
 220              		.loc 1 79 0
 221 0004 86B0     		sub	sp, sp, #24
 222              		.cfi_def_cfa_offset 40
 223              		.loc 1 85 0
 224 0006 0023     		movs	r3, #0
 225              	.LBB26:
 226              	.LBB27:
 227              		.loc 1 101 0
 228 0008 4FF0FF32 		mov	r2, #-1
ARM GAS  /tmp/ccFUDirs.s 			page 5


 229              	.LBE27:
 230              	.LBE26:
 231              		.loc 1 87 0
 232 000c 6846     		mov	r0, sp
 233              	.LBB30:
 234              	.LBB28:
 235              		.loc 1 105 0
 236 000e 0026     		movs	r6, #0
 237 0010 0027     		movs	r7, #0
 238              	.LBE28:
 239              	.LBE30:
 240              		.loc 1 85 0
 241 0012 C4F8A034 		str	r3, [r4, #1184]
 242              	.LVL7:
 243              	.LBB31:
 244              	.LBB29:
 245              		.loc 1 102 0
 246 0016 0193     		str	r3, [sp, #4]
 247              		.loc 1 103 0
 248 0018 0293     		str	r3, [sp, #8]
 249              		.loc 1 104 0
 250 001a 0393     		str	r3, [sp, #12]
 251              		.loc 1 101 0
 252 001c 0092     		str	r2, [sp]
 253              		.loc 1 105 0
 254 001e CDE90467 		strd	r6, [sp, #16]
 255              	.LVL8:
 256              	.LBE29:
 257              	.LBE31:
 258              		.loc 1 87 0
 259 0022 FFF7FEFF 		bl	chTMStartMeasurementX
 260              	.LVL9:
 261              		.loc 1 88 0
 262 0026 6846     		mov	r0, sp
 263 0028 FFF7FEFF 		bl	chTMStopMeasurementX
 264              	.LVL10:
 265              		.loc 1 89 0
 266 002c 029B     		ldr	r3, [sp, #8]
 267 002e C4F8A034 		str	r3, [r4, #1184]
 268              		.loc 1 90 0
 269 0032 06B0     		add	sp, sp, #24
 270              		.cfi_def_cfa_offset 16
 271              		@ sp needed
 272 0034 D0BD     		pop	{r4, r6, r7, pc}
 273              	.L16:
 274 0036 00BF     		.align	2
 275              	.L15:
 276 0038 00000000 		.word	ch
 277              		.cfi_endproc
 278              	.LFE228:
 279              		.size	_tm_init, .-_tm_init
 280              		.section	.text.chTMChainMeasurementToX,"ax",%progbits
 281              		.align	2
 282              		.p2align 4,,15
 283              		.global	chTMChainMeasurementToX
 284              		.thumb
 285              		.thumb_func
ARM GAS  /tmp/ccFUDirs.s 			page 6


 286              		.type	chTMChainMeasurementToX, %function
 287              	chTMChainMeasurementToX:
 288              	.LFB232:
 289              		.loc 1 147 0
 290              		.cfi_startproc
 291              		@ args = 0, pretend = 0, frame = 0
 292              		@ frame_needed = 0, uses_anonymous_args = 0
 293              		@ link register save eliminated.
 294              	.LVL11:
 295              	.LBB32:
 296              	.LBB33:
 297              		.loc 2 548 0
 298 0000 0E4B     		ldr	r3, .L22
 299              	.LBE33:
 300              	.LBE32:
 301              	.LBB35:
 302              	.LBB36:
 303              		.loc 1 61 0
 304 0002 4268     		ldr	r2, [r0, #4]
 305              	.LBE36:
 306              	.LBE35:
 307              	.LBB39:
 308              	.LBB34:
 309              		.loc 2 548 0
 310 0004 5B68     		ldr	r3, [r3, #4]
 311              	.LBE34:
 312              	.LBE39:
 313              		.loc 1 147 0
 314 0006 70B4     		push	{r4, r5, r6}
 315              		.cfi_def_cfa_offset 12
 316              		.cfi_offset 4, -12
 317              		.cfi_offset 5, -8
 318              		.cfi_offset 6, -4
 319              		.loc 1 150 0
 320 0008 8B60     		str	r3, [r1, #8]
 321              	.LVL12:
 322              	.LBB40:
 323              	.LBB37:
 324              		.loc 1 59 0
 325 000a D0E90445 		ldrd	r4, [r0, #16]
 326              		.loc 1 58 0
 327 000e 8668     		ldr	r6, [r0, #8]
 328              		.loc 1 57 0
 329 0010 C168     		ldr	r1, [r0, #12]
 330              	.LVL13:
 331              		.loc 1 58 0
 332 0012 9B1B     		subs	r3, r3, r6
 333              	.LVL14:
 334              		.loc 1 59 0
 335 0014 E418     		adds	r4, r4, r3
 336 0016 45F10005 		adc	r5, r5, #0
 337              		.loc 1 57 0
 338 001a 0131     		adds	r1, r1, #1
 339              		.loc 1 61 0
 340 001c 9342     		cmp	r3, r2
 341              		.loc 1 57 0
 342 001e C160     		str	r1, [r0, #12]
ARM GAS  /tmp/ccFUDirs.s 			page 7


 343              		.loc 1 58 0
 344 0020 8360     		str	r3, [r0, #8]
 345              	.LVL15:
 346              		.loc 1 59 0
 347 0022 C0E90445 		strd	r4, [r0, #16]
 348              		.loc 1 61 0
 349 0026 05D8     		bhi	.L21
 350              		.loc 1 64 0
 351 0028 0268     		ldr	r2, [r0]
 352 002a 9342     		cmp	r3, r2
 353              		.loc 1 65 0
 354 002c 38BF     		it	cc
 355 002e 0360     		strcc	r3, [r0]
 356              	.LVL16:
 357              	.LBE37:
 358              	.LBE40:
 359              		.loc 1 154 0
 360 0030 70BC     		pop	{r4, r5, r6}
 361              		.cfi_remember_state
 362              		.cfi_restore 6
 363              		.cfi_restore 5
 364              		.cfi_restore 4
 365              		.cfi_def_cfa_offset 0
 366 0032 7047     		bx	lr
 367              	.LVL17:
 368              	.L21:
 369              		.cfi_restore_state
 370              	.LBB41:
 371              	.LBB38:
 372              		.loc 1 62 0
 373 0034 4360     		str	r3, [r0, #4]
 374              	.LBE38:
 375              	.LBE41:
 376              		.loc 1 154 0
 377 0036 70BC     		pop	{r4, r5, r6}
 378              		.cfi_restore 4
 379              		.cfi_restore 5
 380              		.cfi_restore 6
 381              		.cfi_def_cfa_offset 0
 382 0038 7047     		bx	lr
 383              	.L23:
 384 003a 00BF     		.align	2
 385              	.L22:
 386 003c 001000E0 		.word	-536866816
 387              		.cfi_endproc
 388              	.LFE232:
 389              		.size	chTMChainMeasurementToX, .-chTMChainMeasurementToX
 390              		.text
 391              	.Letext0:
 392              		.file 3 "/usr/arm-none-eabi/include/machine/_default_types.h"
 393              		.file 4 "/usr/arm-none-eabi/include/sys/_stdint.h"
 394              		.file 5 "/home/selim/working/ChibiOS/os/rt/ports/ARMCMx/compilers/GCC/chtypes.h"
 395              		.file 6 "/home/selim/working/ChibiOS/os/rt/include/chsystypes.h"
 396              		.file 7 "/home/selim/working/ChibiOS/os/rt/include/chschd.h"
 397              		.file 8 "/home/selim/working/ChibiOS/os/ext/CMSIS/include/core_cm4.h"
 398              		.file 9 "/home/selim/working/ChibiOS/os/rt/ports/ARMCMx/chcore.h"
 399              		.file 10 "/home/selim/working/ChibiOS/os/rt/include/chdebug.h"
ARM GAS  /tmp/ccFUDirs.s 			page 8


 400              		.file 11 "/home/selim/working/ChibiOS/os/rt/include/chtm.h"
 401              		.file 12 "/home/selim/working/ChibiOS/os/rt/include/chstats.h"
 402              		.file 13 "/home/selim/working/ChibiOS/os/rt/include/chsem.h"
 403              		.file 14 "/home/selim/working/ChibiOS/os/rt/include/chmtx.h"
 404              		.section	.debug_info,"",%progbits
 405              	.Ldebug_info0:
 406 0000 EF0A0000 		.4byte	0xaef
 407 0004 0400     		.2byte	0x4
 408 0006 00000000 		.4byte	.Ldebug_abbrev0
 409 000a 04       		.byte	0x4
 410 000b 01       		.uleb128 0x1
 411 000c 99040000 		.4byte	.LASF160
 412 0010 0C       		.byte	0xc
 413 0011 D2060000 		.4byte	.LASF161
 414 0015 90000000 		.4byte	.Ldebug_ranges0+0x90
 415 0019 00000000 		.4byte	0
 416 001d 00000000 		.4byte	.Ldebug_line0
 417 0021 02       		.uleb128 0x2
 418 0022 04       		.byte	0x4
 419 0023 05       		.byte	0x5
 420 0024 696E7400 		.ascii	"int\000"
 421 0028 03       		.uleb128 0x3
 422 0029 04       		.byte	0x4
 423 002a 07       		.byte	0x7
 424 002b 0C020000 		.4byte	.LASF0
 425 002f 03       		.uleb128 0x3
 426 0030 08       		.byte	0x8
 427 0031 05       		.byte	0x5
 428 0032 1B010000 		.4byte	.LASF1
 429 0036 03       		.uleb128 0x3
 430 0037 08       		.byte	0x8
 431 0038 04       		.byte	0x4
 432 0039 5C030000 		.4byte	.LASF2
 433 003d 03       		.uleb128 0x3
 434 003e 01       		.byte	0x1
 435 003f 06       		.byte	0x6
 436 0040 29010000 		.4byte	.LASF3
 437 0044 04       		.uleb128 0x4
 438 0045 3F000000 		.4byte	.LASF7
 439 0049 03       		.byte	0x3
 440 004a 1D       		.byte	0x1d
 441 004b 4F000000 		.4byte	0x4f
 442 004f 03       		.uleb128 0x3
 443 0050 01       		.byte	0x1
 444 0051 08       		.byte	0x8
 445 0052 3D040000 		.4byte	.LASF4
 446 0056 03       		.uleb128 0x3
 447 0057 02       		.byte	0x2
 448 0058 05       		.byte	0x5
 449 0059 80040000 		.4byte	.LASF5
 450 005d 03       		.uleb128 0x3
 451 005e 02       		.byte	0x2
 452 005f 07       		.byte	0x7
 453 0060 5E020000 		.4byte	.LASF6
 454 0064 04       		.uleb128 0x4
 455 0065 DA020000 		.4byte	.LASF8
 456 0069 03       		.byte	0x3
ARM GAS  /tmp/ccFUDirs.s 			page 9


 457 006a 3F       		.byte	0x3f
 458 006b 6F000000 		.4byte	0x6f
 459 006f 03       		.uleb128 0x3
 460 0070 04       		.byte	0x4
 461 0071 05       		.byte	0x5
 462 0072 7E010000 		.4byte	.LASF9
 463 0076 04       		.uleb128 0x4
 464 0077 63060000 		.4byte	.LASF10
 465 007b 03       		.byte	0x3
 466 007c 41       		.byte	0x41
 467 007d 81000000 		.4byte	0x81
 468 0081 03       		.uleb128 0x3
 469 0082 04       		.byte	0x4
 470 0083 07       		.byte	0x7
 471 0084 04060000 		.4byte	.LASF11
 472 0088 04       		.uleb128 0x4
 473 0089 C6030000 		.4byte	.LASF12
 474 008d 03       		.byte	0x3
 475 008e 5B       		.byte	0x5b
 476 008f 93000000 		.4byte	0x93
 477 0093 03       		.uleb128 0x3
 478 0094 08       		.byte	0x8
 479 0095 07       		.byte	0x7
 480 0096 8E000000 		.4byte	.LASF13
 481 009a 04       		.uleb128 0x4
 482 009b 05070000 		.4byte	.LASF14
 483 009f 04       		.byte	0x4
 484 00a0 14       		.byte	0x14
 485 00a1 44000000 		.4byte	0x44
 486 00a5 04       		.uleb128 0x4
 487 00a6 35040000 		.4byte	.LASF15
 488 00aa 04       		.byte	0x4
 489 00ab 1F       		.byte	0x1f
 490 00ac 64000000 		.4byte	0x64
 491 00b0 04       		.uleb128 0x4
 492 00b1 D3050000 		.4byte	.LASF16
 493 00b5 04       		.byte	0x4
 494 00b6 20       		.byte	0x20
 495 00b7 76000000 		.4byte	0x76
 496 00bb 04       		.uleb128 0x4
 497 00bc 29000000 		.4byte	.LASF17
 498 00c0 04       		.byte	0x4
 499 00c1 26       		.byte	0x26
 500 00c2 88000000 		.4byte	0x88
 501 00c6 05       		.uleb128 0x5
 502 00c7 A5000000 		.4byte	0xa5
 503 00cb 05       		.uleb128 0x5
 504 00cc B0000000 		.4byte	0xb0
 505 00d0 04       		.uleb128 0x4
 506 00d1 90060000 		.4byte	.LASF18
 507 00d5 05       		.byte	0x5
 508 00d6 46       		.byte	0x46
 509 00d7 B0000000 		.4byte	0xb0
 510 00db 04       		.uleb128 0x4
 511 00dc 01010000 		.4byte	.LASF19
 512 00e0 05       		.byte	0x5
 513 00e1 47       		.byte	0x47
ARM GAS  /tmp/ccFUDirs.s 			page 10


 514 00e2 BB000000 		.4byte	0xbb
 515 00e6 04       		.uleb128 0x4
 516 00e7 81050000 		.4byte	.LASF20
 517 00eb 05       		.byte	0x5
 518 00ec 49       		.byte	0x49
 519 00ed 9A000000 		.4byte	0x9a
 520 00f1 04       		.uleb128 0x4
 521 00f2 87010000 		.4byte	.LASF21
 522 00f6 05       		.byte	0x5
 523 00f7 4A       		.byte	0x4a
 524 00f8 9A000000 		.4byte	0x9a
 525 00fc 04       		.uleb128 0x4
 526 00fd DC030000 		.4byte	.LASF22
 527 0101 05       		.byte	0x5
 528 0102 4B       		.byte	0x4b
 529 0103 9A000000 		.4byte	0x9a
 530 0107 04       		.uleb128 0x4
 531 0108 19040000 		.4byte	.LASF23
 532 010c 05       		.byte	0x5
 533 010d 4D       		.byte	0x4d
 534 010e B0000000 		.4byte	0xb0
 535 0112 04       		.uleb128 0x4
 536 0113 91020000 		.4byte	.LASF24
 537 0117 05       		.byte	0x5
 538 0118 4E       		.byte	0x4e
 539 0119 A5000000 		.4byte	0xa5
 540 011d 04       		.uleb128 0x4
 541 011e CE020000 		.4byte	.LASF25
 542 0122 05       		.byte	0x5
 543 0123 50       		.byte	0x50
 544 0124 B0000000 		.4byte	0xb0
 545 0128 04       		.uleb128 0x4
 546 0129 00020000 		.4byte	.LASF26
 547 012d 05       		.byte	0x5
 548 012e 52       		.byte	0x52
 549 012f A5000000 		.4byte	0xa5
 550 0133 04       		.uleb128 0x4
 551 0134 9C020000 		.4byte	.LASF27
 552 0138 05       		.byte	0x5
 553 0139 53       		.byte	0x53
 554 013a B0000000 		.4byte	0xb0
 555 013e 04       		.uleb128 0x4
 556 013f 45060000 		.4byte	.LASF28
 557 0143 06       		.byte	0x6
 558 0144 33       		.byte	0x33
 559 0145 B0000000 		.4byte	0xb0
 560 0149 04       		.uleb128 0x4
 561 014a 1B060000 		.4byte	.LASF29
 562 014e 06       		.byte	0x6
 563 014f 3F       		.byte	0x3f
 564 0150 54010000 		.4byte	0x154
 565 0154 06       		.uleb128 0x6
 566 0155 80020000 		.4byte	.LASF51
 567 0159 60       		.byte	0x60
 568 015a 07       		.byte	0x7
 569 015b C2       		.byte	0xc2
 570 015c 5A020000 		.4byte	0x25a
ARM GAS  /tmp/ccFUDirs.s 			page 11


 571 0160 07       		.uleb128 0x7
 572 0161 7A050000 		.4byte	.LASF30
 573 0165 07       		.byte	0x7
 574 0166 C3       		.byte	0xc3
 575 0167 65020000 		.4byte	0x265
 576 016b 00       		.byte	0
 577 016c 07       		.uleb128 0x7
 578 016d 12040000 		.4byte	.LASF31
 579 0171 07       		.byte	0x7
 580 0172 C5       		.byte	0xc5
 581 0173 65020000 		.4byte	0x265
 582 0177 04       		.byte	0x4
 583 0178 07       		.uleb128 0x7
 584 0179 0A010000 		.4byte	.LASF32
 585 017d 07       		.byte	0x7
 586 017e C7       		.byte	0xc7
 587 017f 07010000 		.4byte	0x107
 588 0183 08       		.byte	0x8
 589 0184 07       		.uleb128 0x7
 590 0185 91030000 		.4byte	.LASF33
 591 0189 07       		.byte	0x7
 592 018a C8       		.byte	0xc8
 593 018b 24060000 		.4byte	0x624
 594 018f 0C       		.byte	0xc
 595 0190 07       		.uleb128 0x7
 596 0191 9F010000 		.4byte	.LASF34
 597 0195 07       		.byte	0x7
 598 0196 CA       		.byte	0xca
 599 0197 65020000 		.4byte	0x265
 600 019b 10       		.byte	0x10
 601 019c 07       		.uleb128 0x7
 602 019d 83030000 		.4byte	.LASF35
 603 01a1 07       		.byte	0x7
 604 01a2 CB       		.byte	0xcb
 605 01a3 65020000 		.4byte	0x265
 606 01a7 14       		.byte	0x14
 607 01a8 07       		.uleb128 0x7
 608 01a9 1C070000 		.4byte	.LASF36
 609 01ad 07       		.byte	0x7
 610 01ae D2       		.byte	0xd2
 611 01af C8080000 		.4byte	0x8c8
 612 01b3 18       		.byte	0x18
 613 01b4 07       		.uleb128 0x7
 614 01b5 A9030000 		.4byte	.LASF37
 615 01b9 07       		.byte	0x7
 616 01ba D8       		.byte	0xd8
 617 01bb DA080000 		.4byte	0x8da
 618 01bf 1C       		.byte	0x1c
 619 01c0 07       		.uleb128 0x7
 620 01c1 8A040000 		.4byte	.LASF38
 621 01c5 07       		.byte	0x7
 622 01c6 DD       		.byte	0xdd
 623 01c7 F1000000 		.4byte	0xf1
 624 01cb 20       		.byte	0x20
 625 01cc 07       		.uleb128 0x7
 626 01cd 89050000 		.4byte	.LASF39
 627 01d1 07       		.byte	0x7
ARM GAS  /tmp/ccFUDirs.s 			page 12


 628 01d2 E1       		.byte	0xe1
 629 01d3 E6000000 		.4byte	0xe6
 630 01d7 21       		.byte	0x21
 631 01d8 07       		.uleb128 0x7
 632 01d9 C3060000 		.4byte	.LASF40
 633 01dd 07       		.byte	0x7
 634 01de E6       		.byte	0xe6
 635 01df FC000000 		.4byte	0xfc
 636 01e3 22       		.byte	0x22
 637 01e4 08       		.uleb128 0x8
 638 01e5 705F7500 		.ascii	"p_u\000"
 639 01e9 07       		.byte	0x7
 640 01ea 3101     		.2byte	0x131
 641 01ec 03080000 		.4byte	0x803
 642 01f0 24       		.byte	0x24
 643 01f1 09       		.uleb128 0x9
 644 01f2 0E030000 		.4byte	.LASF41
 645 01f6 07       		.byte	0x7
 646 01f7 3601     		.2byte	0x136
 647 01f9 6B020000 		.4byte	0x26b
 648 01fd 28       		.byte	0x28
 649 01fe 09       		.uleb128 0x9
 650 01ff 34020000 		.4byte	.LASF42
 651 0203 07       		.byte	0x7
 652 0204 3C01     		.2byte	0x13c
 653 0206 8F020000 		.4byte	0x28f
 654 020a 2C       		.byte	0x2c
 655 020b 09       		.uleb128 0x9
 656 020c 3F070000 		.4byte	.LASF43
 657 0210 07       		.byte	0x7
 658 0211 4001     		.2byte	0x140
 659 0213 12010000 		.4byte	0x112
 660 0217 34       		.byte	0x34
 661 0218 09       		.uleb128 0x9
 662 0219 C1050000 		.4byte	.LASF44
 663 021d 07       		.byte	0x7
 664 021e 4601     		.2byte	0x146
 665 0220 1D010000 		.4byte	0x11d
 666 0224 38       		.byte	0x38
 667 0225 09       		.uleb128 0x9
 668 0226 C4020000 		.4byte	.LASF45
 669 022a 07       		.byte	0x7
 670 022b 4D01     		.2byte	0x14d
 671 022d C2080000 		.4byte	0x8c2
 672 0231 3C       		.byte	0x3c
 673 0232 09       		.uleb128 0x9
 674 0233 4F060000 		.4byte	.LASF46
 675 0237 07       		.byte	0x7
 676 0238 5101     		.2byte	0x151
 677 023a 07010000 		.4byte	0x107
 678 023e 40       		.byte	0x40
 679 023f 09       		.uleb128 0x9
 680 0240 35010000 		.4byte	.LASF47
 681 0244 07       		.byte	0x7
 682 0245 5801     		.2byte	0x158
 683 0247 42030000 		.4byte	0x342
 684 024b 44       		.byte	0x44
ARM GAS  /tmp/ccFUDirs.s 			page 13


 685 024c 09       		.uleb128 0x9
 686 024d 91050000 		.4byte	.LASF48
 687 0251 07       		.byte	0x7
 688 0252 5E01     		.2byte	0x15e
 689 0254 B4070000 		.4byte	0x7b4
 690 0258 48       		.byte	0x48
 691 0259 00       		.byte	0
 692 025a 04       		.uleb128 0x4
 693 025b 21030000 		.4byte	.LASF49
 694 025f 06       		.byte	0x6
 695 0260 44       		.byte	0x44
 696 0261 65020000 		.4byte	0x265
 697 0265 0A       		.uleb128 0xa
 698 0266 04       		.byte	0x4
 699 0267 49010000 		.4byte	0x149
 700 026b 04       		.uleb128 0x4
 701 026c 23070000 		.4byte	.LASF50
 702 0270 06       		.byte	0x6
 703 0271 49       		.byte	0x49
 704 0272 76020000 		.4byte	0x276
 705 0276 06       		.uleb128 0x6
 706 0277 F4050000 		.4byte	.LASF52
 707 027b 04       		.byte	0x4
 708 027c 07       		.byte	0x7
 709 027d B0       		.byte	0xb0
 710 027e 8F020000 		.4byte	0x28f
 711 0282 07       		.uleb128 0x7
 712 0283 7A050000 		.4byte	.LASF30
 713 0287 07       		.byte	0x7
 714 0288 B1       		.byte	0xb1
 715 0289 65020000 		.4byte	0x265
 716 028d 00       		.byte	0
 717 028e 00       		.byte	0
 718 028f 04       		.uleb128 0x4
 719 0290 AA060000 		.4byte	.LASF53
 720 0294 06       		.byte	0x6
 721 0295 50       		.byte	0x50
 722 0296 9A020000 		.4byte	0x29a
 723 029a 06       		.uleb128 0x6
 724 029b 55000000 		.4byte	.LASF54
 725 029f 08       		.byte	0x8
 726 02a0 07       		.byte	0x7
 727 02a1 B7       		.byte	0xb7
 728 02a2 BF020000 		.4byte	0x2bf
 729 02a6 07       		.uleb128 0x7
 730 02a7 7A050000 		.4byte	.LASF30
 731 02ab 07       		.byte	0x7
 732 02ac B8       		.byte	0xb8
 733 02ad 65020000 		.4byte	0x265
 734 02b1 00       		.byte	0
 735 02b2 07       		.uleb128 0x7
 736 02b3 12040000 		.4byte	.LASF31
 737 02b7 07       		.byte	0x7
 738 02b8 B9       		.byte	0xb9
 739 02b9 65020000 		.4byte	0x265
 740 02bd 04       		.byte	0x4
 741 02be 00       		.byte	0
ARM GAS  /tmp/ccFUDirs.s 			page 14


 742 02bf 04       		.uleb128 0x4
 743 02c0 07000000 		.4byte	.LASF55
 744 02c4 06       		.byte	0x6
 745 02c5 57       		.byte	0x57
 746 02c6 CA020000 		.4byte	0x2ca
 747 02ca 0B       		.uleb128 0xb
 748 02cb 3F020000 		.4byte	.LASF56
 749 02cf 1C       		.byte	0x1c
 750 02d0 07       		.byte	0x7
 751 02d1 9001     		.2byte	0x190
 752 02d3 26030000 		.4byte	0x326
 753 02d7 09       		.uleb128 0x9
 754 02d8 E3050000 		.4byte	.LASF57
 755 02dc 07       		.byte	0x7
 756 02dd 9101     		.2byte	0x191
 757 02df 8F020000 		.4byte	0x28f
 758 02e3 00       		.byte	0
 759 02e4 09       		.uleb128 0x9
 760 02e5 92040000 		.4byte	.LASF58
 761 02e9 07       		.byte	0x7
 762 02ea 9201     		.2byte	0x192
 763 02ec 07010000 		.4byte	0x107
 764 02f0 08       		.byte	0x8
 765 02f1 09       		.uleb128 0x9
 766 02f2 8B030000 		.4byte	.LASF59
 767 02f6 07       		.byte	0x7
 768 02f7 9401     		.2byte	0x194
 769 02f9 24060000 		.4byte	0x624
 770 02fd 0C       		.byte	0xc
 771 02fe 09       		.uleb128 0x9
 772 02ff B7010000 		.4byte	.LASF60
 773 0303 07       		.byte	0x7
 774 0304 9701     		.2byte	0x197
 775 0306 65020000 		.4byte	0x265
 776 030a 10       		.byte	0x10
 777 030b 09       		.uleb128 0x9
 778 030c BE030000 		.4byte	.LASF61
 779 0310 07       		.byte	0x7
 780 0311 9801     		.2byte	0x198
 781 0313 65020000 		.4byte	0x265
 782 0317 14       		.byte	0x14
 783 0318 09       		.uleb128 0x9
 784 0319 B4030000 		.4byte	.LASF62
 785 031d 07       		.byte	0x7
 786 031e 9B01     		.2byte	0x19b
 787 0320 65020000 		.4byte	0x265
 788 0324 18       		.byte	0x18
 789 0325 00       		.byte	0
 790 0326 04       		.uleb128 0x4
 791 0327 5A060000 		.4byte	.LASF63
 792 032b 06       		.byte	0x6
 793 032c 5C       		.byte	0x5c
 794 032d 31030000 		.4byte	0x331
 795 0331 0A       		.uleb128 0xa
 796 0332 04       		.byte	0x4
 797 0333 37030000 		.4byte	0x337
 798 0337 0C       		.uleb128 0xc
ARM GAS  /tmp/ccFUDirs.s 			page 15


 799 0338 42030000 		.4byte	0x342
 800 033c 0D       		.uleb128 0xd
 801 033d 42030000 		.4byte	0x342
 802 0341 00       		.byte	0
 803 0342 0E       		.uleb128 0xe
 804 0343 04       		.byte	0x4
 805 0344 04       		.uleb128 0x4
 806 0345 02040000 		.4byte	.LASF64
 807 0349 06       		.byte	0x6
 808 034a 61       		.byte	0x61
 809 034b 4F030000 		.4byte	0x34f
 810 034f 0B       		.uleb128 0xb
 811 0350 A3050000 		.4byte	.LASF65
 812 0354 14       		.byte	0x14
 813 0355 07       		.byte	0x7
 814 0356 6B01     		.2byte	0x16b
 815 0358 9E030000 		.4byte	0x39e
 816 035c 09       		.uleb128 0x9
 817 035d 19020000 		.4byte	.LASF66
 818 0361 07       		.byte	0x7
 819 0362 6C01     		.2byte	0x16c
 820 0364 E0080000 		.4byte	0x8e0
 821 0368 00       		.byte	0
 822 0369 09       		.uleb128 0x9
 823 036a C8010000 		.4byte	.LASF67
 824 036e 07       		.byte	0x7
 825 036f 6D01     		.2byte	0x16d
 826 0371 E0080000 		.4byte	0x8e0
 827 0375 04       		.byte	0x4
 828 0376 09       		.uleb128 0x9
 829 0377 EB050000 		.4byte	.LASF68
 830 037b 07       		.byte	0x7
 831 037c 6E01     		.2byte	0x16e
 832 037e 3E010000 		.4byte	0x13e
 833 0382 08       		.byte	0x8
 834 0383 09       		.uleb128 0x9
 835 0384 62070000 		.4byte	.LASF69
 836 0388 07       		.byte	0x7
 837 0389 6F01     		.2byte	0x16f
 838 038b 26030000 		.4byte	0x326
 839 038f 0C       		.byte	0xc
 840 0390 09       		.uleb128 0x9
 841 0391 9D060000 		.4byte	.LASF70
 842 0395 07       		.byte	0x7
 843 0396 7101     		.2byte	0x171
 844 0398 42030000 		.4byte	0x342
 845 039c 10       		.byte	0x10
 846 039d 00       		.byte	0
 847 039e 04       		.uleb128 0x4
 848 039f DC000000 		.4byte	.LASF71
 849 03a3 06       		.byte	0x6
 850 03a4 66       		.byte	0x66
 851 03a5 A9030000 		.4byte	0x3a9
 852 03a9 0B       		.uleb128 0xb
 853 03aa 45030000 		.4byte	.LASF72
 854 03ae 10       		.byte	0x10
 855 03af 07       		.byte	0x7
ARM GAS  /tmp/ccFUDirs.s 			page 16


 856 03b0 7B01     		.2byte	0x17b
 857 03b2 EB030000 		.4byte	0x3eb
 858 03b6 09       		.uleb128 0x9
 859 03b7 19020000 		.4byte	.LASF66
 860 03bb 07       		.byte	0x7
 861 03bc 7C01     		.2byte	0x17c
 862 03be E0080000 		.4byte	0x8e0
 863 03c2 00       		.byte	0
 864 03c3 09       		.uleb128 0x9
 865 03c4 C8010000 		.4byte	.LASF67
 866 03c8 07       		.byte	0x7
 867 03c9 7E01     		.2byte	0x17e
 868 03cb E0080000 		.4byte	0x8e0
 869 03cf 04       		.byte	0x4
 870 03d0 09       		.uleb128 0x9
 871 03d1 EB050000 		.4byte	.LASF68
 872 03d5 07       		.byte	0x7
 873 03d6 8001     		.2byte	0x180
 874 03d8 3E010000 		.4byte	0x13e
 875 03dc 08       		.byte	0x8
 876 03dd 09       		.uleb128 0x9
 877 03de 77030000 		.4byte	.LASF73
 878 03e2 07       		.byte	0x7
 879 03e3 8801     		.2byte	0x188
 880 03e5 3E010000 		.4byte	0x13e
 881 03e9 0C       		.byte	0xc
 882 03ea 00       		.byte	0
 883 03eb 04       		.uleb128 0x4
 884 03ec 66000000 		.4byte	.LASF74
 885 03f0 06       		.byte	0x6
 886 03f1 6B       		.byte	0x6b
 887 03f2 F6030000 		.4byte	0x3f6
 888 03f6 0F       		.uleb128 0xf
 889 03f7 D0010000 		.4byte	.LASF75
 890 03fb 1404     		.2byte	0x414
 891 03fd 07       		.byte	0x7
 892 03fe A201     		.2byte	0x1a2
 893 0400 39040000 		.4byte	0x439
 894 0404 09       		.uleb128 0x9
 895 0405 6E060000 		.4byte	.LASF76
 896 0409 07       		.byte	0x7
 897 040a AA01     		.2byte	0x1aa
 898 040c E6080000 		.4byte	0x8e6
 899 0410 00       		.byte	0
 900 0411 09       		.uleb128 0x9
 901 0412 CA060000 		.4byte	.LASF77
 902 0416 07       		.byte	0x7
 903 0417 AF01     		.2byte	0x1af
 904 0419 28010000 		.4byte	0x128
 905 041d 04       		.byte	0x4
 906 041e 09       		.uleb128 0x9
 907 041f E8010000 		.4byte	.LASF78
 908 0423 07       		.byte	0x7
 909 0424 B301     		.2byte	0x1b3
 910 0426 28010000 		.4byte	0x128
 911 042a 08       		.byte	0x8
 912 042b 09       		.uleb128 0x9
ARM GAS  /tmp/ccFUDirs.s 			page 17


 913 042c 32070000 		.4byte	.LASF79
 914 0430 07       		.byte	0x7
 915 0431 B901     		.2byte	0x1b9
 916 0433 46070000 		.4byte	0x746
 917 0437 0C       		.byte	0xc
 918 0438 00       		.byte	0
 919 0439 04       		.uleb128 0x4
 920 043a A3020000 		.4byte	.LASF80
 921 043e 06       		.byte	0x6
 922 043f 70       		.byte	0x70
 923 0440 44040000 		.4byte	0x444
 924 0444 0F       		.uleb128 0xf
 925 0445 99050000 		.4byte	.LASF81
 926 0449 D805     		.2byte	0x5d8
 927 044b 07       		.byte	0x7
 928 044c C201     		.2byte	0x1c2
 929 044e B1040000 		.4byte	0x4b1
 930 0452 09       		.uleb128 0x9
 931 0453 FF060000 		.4byte	.LASF82
 932 0457 07       		.byte	0x7
 933 0458 C601     		.2byte	0x1c6
 934 045a BF020000 		.4byte	0x2bf
 935 045e 00       		.byte	0
 936 045f 09       		.uleb128 0x9
 937 0460 4C010000 		.4byte	.LASF83
 938 0464 07       		.byte	0x7
 939 0465 CA01     		.2byte	0x1ca
 940 0467 9E030000 		.4byte	0x39e
 941 046b 1C       		.byte	0x1c
 942 046c 08       		.uleb128 0x8
 943 046d 64626700 		.ascii	"dbg\000"
 944 0471 07       		.byte	0x7
 945 0472 CE01     		.2byte	0x1ce
 946 0474 EB030000 		.4byte	0x3eb
 947 0478 2C       		.byte	0x2c
 948 0479 10       		.uleb128 0x10
 949 047a C9000000 		.4byte	.LASF84
 950 047e 07       		.byte	0x7
 951 047f D201     		.2byte	0x1d2
 952 0481 49010000 		.4byte	0x149
 953 0485 4004     		.2byte	0x440
 954 0487 11       		.uleb128 0x11
 955 0488 746D00   		.ascii	"tm\000"
 956 048b 07       		.byte	0x7
 957 048c D701     		.2byte	0x1d7
 958 048e 66070000 		.4byte	0x766
 959 0492 A004     		.2byte	0x4a0
 960 0494 10       		.uleb128 0x10
 961 0495 32000000 		.4byte	.LASF85
 962 0499 07       		.byte	0x7
 963 049a DD01     		.2byte	0x1dd
 964 049c F8070000 		.4byte	0x7f8
 965 04a0 A804     		.2byte	0x4a8
 966 04a2 10       		.uleb128 0x10
 967 04a3 F1010000 		.4byte	.LASF86
 968 04a7 07       		.byte	0x7
 969 04a8 E301     		.2byte	0x1e3
ARM GAS  /tmp/ccFUDirs.s 			page 18


 970 04aa EB080000 		.4byte	0x8eb
 971 04ae E004     		.2byte	0x4e0
 972 04b0 00       		.byte	0
 973 04b1 03       		.uleb128 0x3
 974 04b2 04       		.byte	0x4
 975 04b3 07       		.byte	0x7
 976 04b4 18030000 		.4byte	.LASF87
 977 04b8 12       		.uleb128 0x12
 978 04b9 CB000000 		.4byte	0xcb
 979 04bd 13       		.uleb128 0x13
 980 04be B0000000 		.4byte	0xb0
 981 04c2 CD040000 		.4byte	0x4cd
 982 04c6 14       		.uleb128 0x14
 983 04c7 B1040000 		.4byte	0x4b1
 984 04cb 00       		.byte	0
 985 04cc 00       		.byte	0
 986 04cd 15       		.uleb128 0x15
 987 04ce 5C       		.byte	0x5c
 988 04cf 08       		.byte	0x8
 989 04d0 0603     		.2byte	0x306
 990 04d2 02060000 		.4byte	0x602
 991 04d6 09       		.uleb128 0x9
 992 04d7 98060000 		.4byte	.LASF88
 993 04db 08       		.byte	0x8
 994 04dc 0803     		.2byte	0x308
 995 04de CB000000 		.4byte	0xcb
 996 04e2 00       		.byte	0
 997 04e3 09       		.uleb128 0x9
 998 04e4 07030000 		.4byte	.LASF89
 999 04e8 08       		.byte	0x8
 1000 04e9 0903     		.2byte	0x309
 1001 04eb CB000000 		.4byte	0xcb
 1002 04ef 04       		.byte	0x4
 1003 04f0 09       		.uleb128 0x9
 1004 04f1 3D010000 		.4byte	.LASF90
 1005 04f5 08       		.byte	0x8
 1006 04f6 0A03     		.2byte	0x30a
 1007 04f8 CB000000 		.4byte	0xcb
 1008 04fc 08       		.byte	0x8
 1009 04fd 09       		.uleb128 0x9
 1010 04fe 8A020000 		.4byte	.LASF91
 1011 0502 08       		.byte	0x8
 1012 0503 0B03     		.2byte	0x30b
 1013 0505 CB000000 		.4byte	0xcb
 1014 0509 0C       		.byte	0xc
 1015 050a 09       		.uleb128 0x9
 1016 050b 96010000 		.4byte	.LASF92
 1017 050f 08       		.byte	0x8
 1018 0510 0C03     		.2byte	0x30c
 1019 0512 CB000000 		.4byte	0xcb
 1020 0516 10       		.byte	0x10
 1021 0517 09       		.uleb128 0x9
 1022 0518 CC050000 		.4byte	.LASF93
 1023 051c 08       		.byte	0x8
 1024 051d 0D03     		.2byte	0x30d
 1025 051f CB000000 		.4byte	0xcb
 1026 0523 14       		.byte	0x14
ARM GAS  /tmp/ccFUDirs.s 			page 19


 1027 0524 09       		.uleb128 0x9
 1028 0525 0D070000 		.4byte	.LASF94
 1029 0529 08       		.byte	0x8
 1030 052a 0E03     		.2byte	0x30e
 1031 052c CB000000 		.4byte	0xcb
 1032 0530 18       		.byte	0x18
 1033 0531 09       		.uleb128 0x9
 1034 0532 21040000 		.4byte	.LASF95
 1035 0536 08       		.byte	0x8
 1036 0537 0F03     		.2byte	0x30f
 1037 0539 B8040000 		.4byte	0x4b8
 1038 053d 1C       		.byte	0x1c
 1039 053e 09       		.uleb128 0x9
 1040 053f A4060000 		.4byte	.LASF96
 1041 0543 08       		.byte	0x8
 1042 0544 1003     		.2byte	0x310
 1043 0546 CB000000 		.4byte	0xcb
 1044 054a 20       		.byte	0x20
 1045 054b 09       		.uleb128 0x9
 1046 054c 06020000 		.4byte	.LASF97
 1047 0550 08       		.byte	0x8
 1048 0551 1103     		.2byte	0x311
 1049 0553 CB000000 		.4byte	0xcb
 1050 0557 24       		.byte	0x24
 1051 0558 09       		.uleb128 0x9
 1052 0559 58040000 		.4byte	.LASF98
 1053 055d 08       		.byte	0x8
 1054 055e 1203     		.2byte	0x312
 1055 0560 CB000000 		.4byte	0xcb
 1056 0564 28       		.byte	0x28
 1057 0565 09       		.uleb128 0x9
 1058 0566 E4030000 		.4byte	.LASF99
 1059 056a 08       		.byte	0x8
 1060 056b 1303     		.2byte	0x313
 1061 056d BD040000 		.4byte	0x4bd
 1062 0571 2C       		.byte	0x2c
 1063 0572 09       		.uleb128 0x9
 1064 0573 97030000 		.4byte	.LASF100
 1065 0577 08       		.byte	0x8
 1066 0578 1403     		.2byte	0x314
 1067 057a CB000000 		.4byte	0xcb
 1068 057e 30       		.byte	0x30
 1069 057f 09       		.uleb128 0x9
 1070 0580 2F040000 		.4byte	.LASF101
 1071 0584 08       		.byte	0x8
 1072 0585 1503     		.2byte	0x315
 1073 0587 CB000000 		.4byte	0xcb
 1074 058b 34       		.byte	0x34
 1075 058c 09       		.uleb128 0x9
 1076 058d 62040000 		.4byte	.LASF102
 1077 0591 08       		.byte	0x8
 1078 0592 1603     		.2byte	0x316
 1079 0594 CB000000 		.4byte	0xcb
 1080 0598 38       		.byte	0x38
 1081 0599 09       		.uleb128 0x9
 1082 059a EE030000 		.4byte	.LASF103
 1083 059e 08       		.byte	0x8
ARM GAS  /tmp/ccFUDirs.s 			page 20


 1084 059f 1703     		.2byte	0x317
 1085 05a1 BD040000 		.4byte	0x4bd
 1086 05a5 3C       		.byte	0x3c
 1087 05a6 09       		.uleb128 0x9
 1088 05a7 9D030000 		.4byte	.LASF104
 1089 05ab 08       		.byte	0x8
 1090 05ac 1803     		.2byte	0x318
 1091 05ae CB000000 		.4byte	0xcb
 1092 05b2 40       		.byte	0x40
 1093 05b3 09       		.uleb128 0x9
 1094 05b4 21020000 		.4byte	.LASF105
 1095 05b8 08       		.byte	0x8
 1096 05b9 1903     		.2byte	0x319
 1097 05bb CB000000 		.4byte	0xcb
 1098 05bf 44       		.byte	0x44
 1099 05c0 09       		.uleb128 0x9
 1100 05c1 6C040000 		.4byte	.LASF106
 1101 05c5 08       		.byte	0x8
 1102 05c6 1A03     		.2byte	0x31a
 1103 05c8 CB000000 		.4byte	0xcb
 1104 05cc 48       		.byte	0x48
 1105 05cd 09       		.uleb128 0x9
 1106 05ce F8030000 		.4byte	.LASF107
 1107 05d2 08       		.byte	0x8
 1108 05d3 1B03     		.2byte	0x31b
 1109 05d5 BD040000 		.4byte	0x4bd
 1110 05d9 4C       		.byte	0x4c
 1111 05da 09       		.uleb128 0x9
 1112 05db A3030000 		.4byte	.LASF108
 1113 05df 08       		.byte	0x8
 1114 05e0 1C03     		.2byte	0x31c
 1115 05e2 CB000000 		.4byte	0xcb
 1116 05e6 50       		.byte	0x50
 1117 05e7 09       		.uleb128 0x9
 1118 05e8 27020000 		.4byte	.LASF109
 1119 05ec 08       		.byte	0x8
 1120 05ed 1D03     		.2byte	0x31d
 1121 05ef CB000000 		.4byte	0xcb
 1122 05f3 54       		.byte	0x54
 1123 05f4 09       		.uleb128 0x9
 1124 05f5 76040000 		.4byte	.LASF110
 1125 05f9 08       		.byte	0x8
 1126 05fa 1E03     		.2byte	0x31e
 1127 05fc CB000000 		.4byte	0xcb
 1128 0600 58       		.byte	0x58
 1129 0601 00       		.byte	0
 1130 0602 16       		.uleb128 0x16
 1131 0603 87060000 		.4byte	.LASF111
 1132 0607 08       		.byte	0x8
 1133 0608 1F03     		.2byte	0x31f
 1134 060a CD040000 		.4byte	0x4cd
 1135 060e 04       		.uleb128 0x4
 1136 060f BF010000 		.4byte	.LASF112
 1137 0613 09       		.byte	0x9
 1138 0614 65       		.byte	0x65
 1139 0615 42030000 		.4byte	0x342
 1140 0619 04       		.uleb128 0x4
ARM GAS  /tmp/ccFUDirs.s 			page 21


 1141 061a FC020000 		.4byte	.LASF113
 1142 061e 09       		.byte	0x9
 1143 061f 6D       		.byte	0x6d
 1144 0620 BB000000 		.4byte	0xbb
 1145 0624 06       		.uleb128 0x6
 1146 0625 7F060000 		.4byte	.LASF114
 1147 0629 04       		.byte	0x4
 1148 062a 09       		.byte	0x9
 1149 062b 89       		.byte	0x89
 1150 062c 3D060000 		.4byte	0x63d
 1151 0630 17       		.uleb128 0x17
 1152 0631 72313300 		.ascii	"r13\000"
 1153 0635 09       		.byte	0x9
 1154 0636 8A       		.byte	0x8a
 1155 0637 B8060000 		.4byte	0x6b8
 1156 063b 00       		.byte	0
 1157 063c 00       		.byte	0
 1158 063d 06       		.uleb128 0x6
 1159 063e 49000000 		.4byte	.LASF115
 1160 0642 24       		.byte	0x24
 1161 0643 02       		.byte	0x2
 1162 0644 F4       		.byte	0xf4
 1163 0645 B8060000 		.4byte	0x6b8
 1164 0649 08       		.uleb128 0x8
 1165 064a 723400   		.ascii	"r4\000"
 1166 064d 02       		.byte	0x2
 1167 064e 0701     		.2byte	0x107
 1168 0650 0E060000 		.4byte	0x60e
 1169 0654 00       		.byte	0
 1170 0655 08       		.uleb128 0x8
 1171 0656 723500   		.ascii	"r5\000"
 1172 0659 02       		.byte	0x2
 1173 065a 0801     		.2byte	0x108
 1174 065c 0E060000 		.4byte	0x60e
 1175 0660 04       		.byte	0x4
 1176 0661 08       		.uleb128 0x8
 1177 0662 723600   		.ascii	"r6\000"
 1178 0665 02       		.byte	0x2
 1179 0666 0901     		.2byte	0x109
 1180 0668 0E060000 		.4byte	0x60e
 1181 066c 08       		.byte	0x8
 1182 066d 08       		.uleb128 0x8
 1183 066e 723700   		.ascii	"r7\000"
 1184 0671 02       		.byte	0x2
 1185 0672 0A01     		.2byte	0x10a
 1186 0674 0E060000 		.4byte	0x60e
 1187 0678 0C       		.byte	0xc
 1188 0679 08       		.uleb128 0x8
 1189 067a 723800   		.ascii	"r8\000"
 1190 067d 02       		.byte	0x2
 1191 067e 0B01     		.2byte	0x10b
 1192 0680 0E060000 		.4byte	0x60e
 1193 0684 10       		.byte	0x10
 1194 0685 08       		.uleb128 0x8
 1195 0686 723900   		.ascii	"r9\000"
 1196 0689 02       		.byte	0x2
 1197 068a 0C01     		.2byte	0x10c
ARM GAS  /tmp/ccFUDirs.s 			page 22


 1198 068c 0E060000 		.4byte	0x60e
 1199 0690 14       		.byte	0x14
 1200 0691 08       		.uleb128 0x8
 1201 0692 72313000 		.ascii	"r10\000"
 1202 0696 02       		.byte	0x2
 1203 0697 0D01     		.2byte	0x10d
 1204 0699 0E060000 		.4byte	0x60e
 1205 069d 18       		.byte	0x18
 1206 069e 08       		.uleb128 0x8
 1207 069f 72313100 		.ascii	"r11\000"
 1208 06a3 02       		.byte	0x2
 1209 06a4 0E01     		.2byte	0x10e
 1210 06a6 0E060000 		.4byte	0x60e
 1211 06aa 1C       		.byte	0x1c
 1212 06ab 08       		.uleb128 0x8
 1213 06ac 6C7200   		.ascii	"lr\000"
 1214 06af 02       		.byte	0x2
 1215 06b0 0F01     		.2byte	0x10f
 1216 06b2 0E060000 		.4byte	0x60e
 1217 06b6 20       		.byte	0x20
 1218 06b7 00       		.byte	0
 1219 06b8 0A       		.uleb128 0xa
 1220 06b9 04       		.byte	0x4
 1221 06ba 3D060000 		.4byte	0x63d
 1222 06be 18       		.uleb128 0x18
 1223 06bf 10       		.byte	0x10
 1224 06c0 0A       		.byte	0xa
 1225 06c1 51       		.byte	0x51
 1226 06c2 F7060000 		.4byte	0x6f7
 1227 06c6 07       		.uleb128 0x7
 1228 06c7 14000000 		.4byte	.LASF116
 1229 06cb 0A       		.byte	0xa
 1230 06cc 55       		.byte	0x55
 1231 06cd 3E010000 		.4byte	0x13e
 1232 06d1 00       		.byte	0
 1233 06d2 07       		.uleb128 0x7
 1234 06d3 90010000 		.4byte	.LASF117
 1235 06d7 0A       		.byte	0xa
 1236 06d8 59       		.byte	0x59
 1237 06d9 65020000 		.4byte	0x265
 1238 06dd 04       		.byte	0x4
 1239 06de 07       		.uleb128 0x7
 1240 06df 58070000 		.4byte	.LASF118
 1241 06e3 0A       		.byte	0xa
 1242 06e4 5D       		.byte	0x5d
 1243 06e5 42030000 		.4byte	0x342
 1244 06e9 08       		.byte	0x8
 1245 06ea 07       		.uleb128 0x7
 1246 06eb B7000000 		.4byte	.LASF119
 1247 06ef 0A       		.byte	0xa
 1248 06f0 61       		.byte	0x61
 1249 06f1 9A000000 		.4byte	0x9a
 1250 06f5 0C       		.byte	0xc
 1251 06f6 00       		.byte	0
 1252 06f7 04       		.uleb128 0x4
 1253 06f8 68030000 		.4byte	.LASF120
 1254 06fc 0A       		.byte	0xa
ARM GAS  /tmp/ccFUDirs.s 			page 23


 1255 06fd 62       		.byte	0x62
 1256 06fe BE060000 		.4byte	0x6be
 1257 0702 19       		.uleb128 0x19
 1258 0703 0804     		.2byte	0x408
 1259 0705 0A       		.byte	0xa
 1260 0706 67       		.byte	0x67
 1261 0707 30070000 		.4byte	0x730
 1262 070b 07       		.uleb128 0x7
 1263 070c AF010000 		.4byte	.LASF121
 1264 0710 0A       		.byte	0xa
 1265 0711 6B       		.byte	0x6b
 1266 0712 28000000 		.4byte	0x28
 1267 0716 00       		.byte	0
 1268 0717 07       		.uleb128 0x7
 1269 0718 00000000 		.4byte	.LASF122
 1270 071c 0A       		.byte	0xa
 1271 071d 6F       		.byte	0x6f
 1272 071e 30070000 		.4byte	0x730
 1273 0722 04       		.byte	0x4
 1274 0723 07       		.uleb128 0x7
 1275 0724 AF020000 		.4byte	.LASF123
 1276 0728 0A       		.byte	0xa
 1277 0729 73       		.byte	0x73
 1278 072a 36070000 		.4byte	0x736
 1279 072e 08       		.byte	0x8
 1280 072f 00       		.byte	0
 1281 0730 0A       		.uleb128 0xa
 1282 0731 04       		.byte	0x4
 1283 0732 F7060000 		.4byte	0x6f7
 1284 0736 13       		.uleb128 0x13
 1285 0737 F7060000 		.4byte	0x6f7
 1286 073b 46070000 		.4byte	0x746
 1287 073f 14       		.uleb128 0x14
 1288 0740 B1040000 		.4byte	0x4b1
 1289 0744 3F       		.byte	0x3f
 1290 0745 00       		.byte	0
 1291 0746 04       		.uleb128 0x4
 1292 0747 A5000000 		.4byte	.LASF124
 1293 074b 0A       		.byte	0xa
 1294 074c 74       		.byte	0x74
 1295 074d 02070000 		.4byte	0x702
 1296 0751 18       		.uleb128 0x18
 1297 0752 04       		.byte	0x4
 1298 0753 0B       		.byte	0xb
 1299 0754 38       		.byte	0x38
 1300 0755 66070000 		.4byte	0x766
 1301 0759 07       		.uleb128 0x7
 1302 075a 78060000 		.4byte	.LASF125
 1303 075e 0B       		.byte	0xb
 1304 075f 3C       		.byte	0x3c
 1305 0760 D0000000 		.4byte	0xd0
 1306 0764 00       		.byte	0
 1307 0765 00       		.byte	0
 1308 0766 04       		.uleb128 0x4
 1309 0767 34030000 		.4byte	.LASF126
 1310 076b 0B       		.byte	0xb
 1311 076c 3D       		.byte	0x3d
ARM GAS  /tmp/ccFUDirs.s 			page 24


 1312 076d 51070000 		.4byte	0x751
 1313 0771 18       		.uleb128 0x18
 1314 0772 18       		.byte	0x18
 1315 0773 0B       		.byte	0xb
 1316 0774 48       		.byte	0x48
 1317 0775 B4070000 		.4byte	0x7b4
 1318 0779 07       		.uleb128 0x7
 1319 077a 59020000 		.4byte	.LASF127
 1320 077e 0B       		.byte	0xb
 1321 077f 49       		.byte	0x49
 1322 0780 D0000000 		.4byte	0xd0
 1323 0784 00       		.byte	0
 1324 0785 07       		.uleb128 0x7
 1325 0786 75000000 		.4byte	.LASF128
 1326 078a 0B       		.byte	0xb
 1327 078b 4A       		.byte	0x4a
 1328 078c D0000000 		.4byte	0xd0
 1329 0790 04       		.byte	0x4
 1330 0791 07       		.uleb128 0x7
 1331 0792 97020000 		.4byte	.LASF129
 1332 0796 0B       		.byte	0xb
 1333 0797 4B       		.byte	0x4b
 1334 0798 D0000000 		.4byte	0xd0
 1335 079c 08       		.byte	0x8
 1336 079d 17       		.uleb128 0x17
 1337 079e 6E00     		.ascii	"n\000"
 1338 07a0 0B       		.byte	0xb
 1339 07a1 4C       		.byte	0x4c
 1340 07a2 33010000 		.4byte	0x133
 1341 07a6 0C       		.byte	0xc
 1342 07a7 07       		.uleb128 0x7
 1343 07a8 D1030000 		.4byte	.LASF130
 1344 07ac 0B       		.byte	0xb
 1345 07ad 4D       		.byte	0x4d
 1346 07ae DB000000 		.4byte	0xdb
 1347 07b2 10       		.byte	0x10
 1348 07b3 00       		.byte	0
 1349 07b4 04       		.uleb128 0x4
 1350 07b5 7B000000 		.4byte	.LASF131
 1351 07b9 0B       		.byte	0xb
 1352 07ba 4E       		.byte	0x4e
 1353 07bb 71070000 		.4byte	0x771
 1354 07bf 18       		.uleb128 0x18
 1355 07c0 38       		.byte	0x38
 1356 07c1 0C       		.byte	0xc
 1357 07c2 38       		.byte	0x38
 1358 07c3 F8070000 		.4byte	0x7f8
 1359 07c7 07       		.uleb128 0x7
 1360 07c8 4D020000 		.4byte	.LASF132
 1361 07cc 0C       		.byte	0xc
 1362 07cd 39       		.byte	0x39
 1363 07ce 33010000 		.4byte	0x133
 1364 07d2 00       		.byte	0
 1365 07d3 07       		.uleb128 0x7
 1366 07d4 26040000 		.4byte	.LASF133
 1367 07d8 0C       		.byte	0xc
 1368 07d9 3A       		.byte	0x3a
ARM GAS  /tmp/ccFUDirs.s 			page 25


 1369 07da 33010000 		.4byte	0x133
 1370 07de 04       		.byte	0x4
 1371 07df 07       		.uleb128 0x7
 1372 07e0 45070000 		.4byte	.LASF134
 1373 07e4 0C       		.byte	0xc
 1374 07e5 3B       		.byte	0x3b
 1375 07e6 B4070000 		.4byte	0x7b4
 1376 07ea 08       		.byte	0x8
 1377 07eb 07       		.uleb128 0x7
 1378 07ec B9020000 		.4byte	.LASF135
 1379 07f0 0C       		.byte	0xc
 1380 07f1 3D       		.byte	0x3d
 1381 07f2 B4070000 		.4byte	0x7b4
 1382 07f6 20       		.byte	0x20
 1383 07f7 00       		.byte	0
 1384 07f8 04       		.uleb128 0x4
 1385 07f9 71020000 		.4byte	.LASF136
 1386 07fd 0C       		.byte	0xc
 1387 07fe 3F       		.byte	0x3f
 1388 07ff BF070000 		.4byte	0x7bf
 1389 0803 1A       		.uleb128 0x1a
 1390 0804 04       		.byte	0x4
 1391 0805 07       		.byte	0x7
 1392 0806 FA       		.byte	0xfa
 1393 0807 60080000 		.4byte	0x860
 1394 080b 1B       		.uleb128 0x1b
 1395 080c 22000000 		.4byte	.LASF137
 1396 0810 07       		.byte	0x7
 1397 0811 0101     		.2byte	0x101
 1398 0813 12010000 		.4byte	0x112
 1399 0817 1B       		.uleb128 0x1b
 1400 0818 C0000000 		.4byte	.LASF138
 1401 081c 07       		.byte	0x7
 1402 081d 0801     		.2byte	0x108
 1403 081f 12010000 		.4byte	0x112
 1404 0823 1B       		.uleb128 0x1b
 1405 0824 15070000 		.4byte	.LASF139
 1406 0828 07       		.byte	0x7
 1407 0829 0F01     		.2byte	0x10f
 1408 082b 42030000 		.4byte	0x342
 1409 082f 1B       		.uleb128 0x1b
 1410 0830 1C000000 		.4byte	.LASF140
 1411 0834 07       		.byte	0x7
 1412 0835 1601     		.2byte	0x116
 1413 0837 60080000 		.4byte	0x860
 1414 083b 1B       		.uleb128 0x1b
 1415 083c 2D020000 		.4byte	.LASF141
 1416 0840 07       		.byte	0x7
 1417 0841 1E01     		.2byte	0x11e
 1418 0843 8B080000 		.4byte	0x88b
 1419 0847 1B       		.uleb128 0x1b
 1420 0848 DC050000 		.4byte	.LASF142
 1421 084c 07       		.byte	0x7
 1422 084d 2701     		.2byte	0x127
 1423 084f C2080000 		.4byte	0x8c2
 1424 0853 1B       		.uleb128 0x1b
 1425 0854 73050000 		.4byte	.LASF143
ARM GAS  /tmp/ccFUDirs.s 			page 26


 1426 0858 07       		.byte	0x7
 1427 0859 2F01     		.2byte	0x12f
 1428 085b 1D010000 		.4byte	0x11d
 1429 085f 00       		.byte	0
 1430 0860 0A       		.uleb128 0xa
 1431 0861 04       		.byte	0x4
 1432 0862 5A020000 		.4byte	0x25a
 1433 0866 06       		.uleb128 0x6
 1434 0867 B4050000 		.4byte	.LASF144
 1435 086b 0C       		.byte	0xc
 1436 086c 0D       		.byte	0xd
 1437 086d 34       		.byte	0x34
 1438 086e 8B080000 		.4byte	0x88b
 1439 0872 07       		.uleb128 0x7
 1440 0873 A7010000 		.4byte	.LASF145
 1441 0877 0D       		.byte	0xd
 1442 0878 35       		.byte	0x35
 1443 0879 8F020000 		.4byte	0x28f
 1444 087d 00       		.byte	0
 1445 087e 07       		.uleb128 0x7
 1446 087f 53020000 		.4byte	.LASF146
 1447 0883 0D       		.byte	0xd
 1448 0884 37       		.byte	0x37
 1449 0885 28010000 		.4byte	0x128
 1450 0889 08       		.byte	0x8
 1451 088a 00       		.byte	0
 1452 088b 0A       		.uleb128 0xa
 1453 088c 04       		.byte	0x4
 1454 088d 66080000 		.4byte	0x866
 1455 0891 06       		.uleb128 0x6
 1456 0892 BA060000 		.4byte	.LASF147
 1457 0896 10       		.byte	0x10
 1458 0897 0E       		.byte	0xe
 1459 0898 39       		.byte	0x39
 1460 0899 C2080000 		.4byte	0x8c2
 1461 089d 07       		.uleb128 0x7
 1462 089e 44010000 		.4byte	.LASF148
 1463 08a2 0E       		.byte	0xe
 1464 08a3 3A       		.byte	0x3a
 1465 08a4 8F020000 		.4byte	0x28f
 1466 08a8 00       		.byte	0
 1467 08a9 07       		.uleb128 0x7
 1468 08aa 50070000 		.4byte	.LASF149
 1469 08ae 0E       		.byte	0xe
 1470 08af 3C       		.byte	0x3c
 1471 08b0 65020000 		.4byte	0x265
 1472 08b4 08       		.byte	0x8
 1473 08b5 07       		.uleb128 0x7
 1474 08b6 3E060000 		.4byte	.LASF150
 1475 08ba 0E       		.byte	0xe
 1476 08bb 3E       		.byte	0x3e
 1477 08bc 06090000 		.4byte	0x906
 1478 08c0 0C       		.byte	0xc
 1479 08c1 00       		.byte	0
 1480 08c2 0A       		.uleb128 0xa
 1481 08c3 04       		.byte	0x4
 1482 08c4 91080000 		.4byte	0x891
ARM GAS  /tmp/ccFUDirs.s 			page 27


 1483 08c8 0A       		.uleb128 0xa
 1484 08c9 04       		.byte	0x4
 1485 08ca D5080000 		.4byte	0x8d5
 1486 08ce 03       		.uleb128 0x3
 1487 08cf 01       		.byte	0x1
 1488 08d0 08       		.byte	0x8
 1489 08d1 16060000 		.4byte	.LASF151
 1490 08d5 12       		.uleb128 0x12
 1491 08d6 CE080000 		.4byte	0x8ce
 1492 08da 0A       		.uleb128 0xa
 1493 08db 04       		.byte	0x4
 1494 08dc 19060000 		.4byte	0x619
 1495 08e0 0A       		.uleb128 0xa
 1496 08e1 04       		.byte	0x4
 1497 08e2 44030000 		.4byte	0x344
 1498 08e6 05       		.uleb128 0x5
 1499 08e7 C8080000 		.4byte	0x8c8
 1500 08eb 13       		.uleb128 0x13
 1501 08ec 19060000 		.4byte	0x619
 1502 08f0 FB080000 		.4byte	0x8fb
 1503 08f4 14       		.uleb128 0x14
 1504 08f5 B1040000 		.4byte	0x4b1
 1505 08f9 1E       		.byte	0x1e
 1506 08fa 00       		.byte	0
 1507 08fb 04       		.uleb128 0x4
 1508 08fc E0010000 		.4byte	.LASF152
 1509 0900 0E       		.byte	0xe
 1510 0901 34       		.byte	0x34
 1511 0902 91080000 		.4byte	0x891
 1512 0906 0A       		.uleb128 0xa
 1513 0907 04       		.byte	0x4
 1514 0908 FB080000 		.4byte	0x8fb
 1515 090c 1C       		.uleb128 0x1c
 1516 090d 24060000 		.4byte	.LASF162
 1517 0911 02       		.byte	0x2
 1518 0912 2202     		.2byte	0x222
 1519 0914 D0000000 		.4byte	0xd0
 1520 0918 03       		.byte	0x3
 1521 0919 1D       		.uleb128 0x1d
 1522 091a D4000000 		.4byte	.LASF163
 1523 091e 01       		.byte	0x1
 1524 091f 35       		.byte	0x35
 1525 0920 03       		.byte	0x3
 1526 0921 47090000 		.4byte	0x947
 1527 0925 1E       		.uleb128 0x1e
 1528 0926 746D7000 		.ascii	"tmp\000"
 1529 092a 01       		.byte	0x1
 1530 092b 35       		.byte	0x35
 1531 092c 47090000 		.4byte	0x947
 1532 0930 1E       		.uleb128 0x1e
 1533 0931 6E6F7700 		.ascii	"now\000"
 1534 0935 01       		.byte	0x1
 1535 0936 36       		.byte	0x36
 1536 0937 D0000000 		.4byte	0xd0
 1537 093b 1F       		.uleb128 0x1f
 1538 093c 78060000 		.4byte	.LASF125
 1539 0940 01       		.byte	0x1
ARM GAS  /tmp/ccFUDirs.s 			page 28


 1540 0941 37       		.byte	0x37
 1541 0942 D0000000 		.4byte	0xd0
 1542 0946 00       		.byte	0
 1543 0947 0A       		.uleb128 0xa
 1544 0948 04       		.byte	0x4
 1545 0949 B4070000 		.4byte	0x7b4
 1546 094d 20       		.uleb128 0x20
 1547 094e F2000000 		.4byte	.LASF164
 1548 0952 01       		.byte	0x1
 1549 0953 63       		.byte	0x63
 1550 0954 01       		.byte	0x1
 1551 0955 65090000 		.4byte	0x965
 1552 0959 1E       		.uleb128 0x1e
 1553 095a 746D7000 		.ascii	"tmp\000"
 1554 095e 01       		.byte	0x1
 1555 095f 63       		.byte	0x63
 1556 0960 47090000 		.4byte	0x947
 1557 0964 00       		.byte	0
 1558 0965 21       		.uleb128 0x21
 1559 0966 4D090000 		.4byte	0x94d
 1560 096a 00000000 		.4byte	.LFB229
 1561 096e 18000000 		.4byte	.LFE229-.LFB229
 1562 0972 01       		.uleb128 0x1
 1563 0973 9C       		.byte	0x9c
 1564 0974 80090000 		.4byte	0x980
 1565 0978 22       		.uleb128 0x22
 1566 0979 59090000 		.4byte	0x959
 1567 097d 01       		.uleb128 0x1
 1568 097e 50       		.byte	0x50
 1569 097f 00       		.byte	0
 1570 0980 23       		.uleb128 0x23
 1571 0981 53010000 		.4byte	.LASF153
 1572 0985 01       		.byte	0x1
 1573 0986 74       		.byte	0x74
 1574 0987 00000000 		.4byte	.LFB230
 1575 098b 0C000000 		.4byte	.LFE230-.LFB230
 1576 098f 01       		.uleb128 0x1
 1577 0990 9C       		.byte	0x9c
 1578 0991 B2090000 		.4byte	0x9b2
 1579 0995 24       		.uleb128 0x24
 1580 0996 746D7000 		.ascii	"tmp\000"
 1581 099a 01       		.byte	0x1
 1582 099b 74       		.byte	0x74
 1583 099c 47090000 		.4byte	0x947
 1584 09a0 01       		.uleb128 0x1
 1585 09a1 50       		.byte	0x50
 1586 09a2 25       		.uleb128 0x25
 1587 09a3 0C090000 		.4byte	0x90c
 1588 09a7 00000000 		.4byte	.LBB14
 1589 09ab 04000000 		.4byte	.LBE14-.LBB14
 1590 09af 01       		.byte	0x1
 1591 09b0 76       		.byte	0x76
 1592 09b1 00       		.byte	0
 1593 09b2 23       		.uleb128 0x23
 1594 09b3 69010000 		.4byte	.LASF154
 1595 09b7 01       		.byte	0x1
 1596 09b8 81       		.byte	0x81
ARM GAS  /tmp/ccFUDirs.s 			page 29


 1597 09b9 00000000 		.4byte	.LFB231
 1598 09bd 48000000 		.4byte	.LFE231-.LFB231
 1599 09c1 01       		.uleb128 0x1
 1600 09c2 9C       		.byte	0x9c
 1601 09c3 0B0A0000 		.4byte	0xa0b
 1602 09c7 24       		.uleb128 0x24
 1603 09c8 746D7000 		.ascii	"tmp\000"
 1604 09cc 01       		.byte	0x1
 1605 09cd 81       		.byte	0x81
 1606 09ce 47090000 		.4byte	0x947
 1607 09d2 01       		.uleb128 0x1
 1608 09d3 50       		.byte	0x50
 1609 09d4 26       		.uleb128 0x26
 1610 09d5 0C090000 		.4byte	0x90c
 1611 09d9 00000000 		.4byte	.LBB16
 1612 09dd 00000000 		.4byte	.Ldebug_ranges0+0
 1613 09e1 01       		.byte	0x1
 1614 09e2 83       		.byte	0x83
 1615 09e3 27       		.uleb128 0x27
 1616 09e4 19090000 		.4byte	0x919
 1617 09e8 06000000 		.4byte	.LBB20
 1618 09ec 18000000 		.4byte	.Ldebug_ranges0+0x18
 1619 09f0 01       		.byte	0x1
 1620 09f1 83       		.byte	0x83
 1621 09f2 28       		.uleb128 0x28
 1622 09f3 3B090000 		.4byte	0x93b
 1623 09f7 00000000 		.4byte	.LLST0
 1624 09fb 29       		.uleb128 0x29
 1625 09fc 30090000 		.4byte	0x930
 1626 0a00 28       		.uleb128 0x28
 1627 0a01 25090000 		.4byte	0x925
 1628 0a05 1E000000 		.4byte	.LLST1
 1629 0a09 00       		.byte	0
 1630 0a0a 00       		.byte	0
 1631 0a0b 23       		.uleb128 0x23
 1632 0a0c 6A070000 		.4byte	.LASF155
 1633 0a10 01       		.byte	0x1
 1634 0a11 4F       		.byte	0x4f
 1635 0a12 00000000 		.4byte	.LFB228
 1636 0a16 3C000000 		.4byte	.LFE228-.LFB228
 1637 0a1a 01       		.uleb128 0x1
 1638 0a1b 9C       		.byte	0x9c
 1639 0a1c 6F0A0000 		.4byte	0xa6f
 1640 0a20 2A       		.uleb128 0x2a
 1641 0a21 746D00   		.ascii	"tm\000"
 1642 0a24 01       		.byte	0x1
 1643 0a25 50       		.byte	0x50
 1644 0a26 B4070000 		.4byte	0x7b4
 1645 0a2a 02       		.uleb128 0x2
 1646 0a2b 91       		.byte	0x91
 1647 0a2c 58       		.sleb128 -40
 1648 0a2d 2B       		.uleb128 0x2b
 1649 0a2e 4D090000 		.4byte	0x94d
 1650 0a32 08000000 		.4byte	.LBB26
 1651 0a36 38000000 		.4byte	.Ldebug_ranges0+0x38
 1652 0a3a 01       		.byte	0x1
 1653 0a3b 56       		.byte	0x56
ARM GAS  /tmp/ccFUDirs.s 			page 30


 1654 0a3c 4A0A0000 		.4byte	0xa4a
 1655 0a40 28       		.uleb128 0x28
 1656 0a41 59090000 		.4byte	0x959
 1657 0a45 3C000000 		.4byte	.LLST2
 1658 0a49 00       		.byte	0
 1659 0a4a 2C       		.uleb128 0x2c
 1660 0a4b 26000000 		.4byte	.LVL9
 1661 0a4f 80090000 		.4byte	0x980
 1662 0a53 5E0A0000 		.4byte	0xa5e
 1663 0a57 2D       		.uleb128 0x2d
 1664 0a58 01       		.uleb128 0x1
 1665 0a59 50       		.byte	0x50
 1666 0a5a 02       		.uleb128 0x2
 1667 0a5b 7D       		.byte	0x7d
 1668 0a5c 00       		.sleb128 0
 1669 0a5d 00       		.byte	0
 1670 0a5e 2E       		.uleb128 0x2e
 1671 0a5f 2C000000 		.4byte	.LVL10
 1672 0a63 B2090000 		.4byte	0x9b2
 1673 0a67 2D       		.uleb128 0x2d
 1674 0a68 01       		.uleb128 0x1
 1675 0a69 50       		.byte	0x50
 1676 0a6a 02       		.uleb128 0x2
 1677 0a6b 7D       		.byte	0x7d
 1678 0a6c 00       		.sleb128 0
 1679 0a6d 00       		.byte	0
 1680 0a6e 00       		.byte	0
 1681 0a6f 23       		.uleb128 0x23
 1682 0a70 E4020000 		.4byte	.LASF156
 1683 0a74 01       		.byte	0x1
 1684 0a75 92       		.byte	0x92
 1685 0a76 00000000 		.4byte	.LFB232
 1686 0a7a 40000000 		.4byte	.LFE232-.LFB232
 1687 0a7e 01       		.uleb128 0x1
 1688 0a7f 9C       		.byte	0x9c
 1689 0a80 DB0A0000 		.4byte	0xadb
 1690 0a84 2F       		.uleb128 0x2f
 1691 0a85 11010000 		.4byte	.LASF157
 1692 0a89 01       		.byte	0x1
 1693 0a8a 92       		.byte	0x92
 1694 0a8b 47090000 		.4byte	0x947
 1695 0a8f 01       		.uleb128 0x1
 1696 0a90 50       		.byte	0x50
 1697 0a91 30       		.uleb128 0x30
 1698 0a92 16010000 		.4byte	.LASF158
 1699 0a96 01       		.byte	0x1
 1700 0a97 93       		.byte	0x93
 1701 0a98 47090000 		.4byte	0x947
 1702 0a9c 4F000000 		.4byte	.LLST3
 1703 0aa0 26       		.uleb128 0x26
 1704 0aa1 0C090000 		.4byte	0x90c
 1705 0aa5 00000000 		.4byte	.LBB32
 1706 0aa9 58000000 		.4byte	.Ldebug_ranges0+0x58
 1707 0aad 01       		.byte	0x1
 1708 0aae 96       		.byte	0x96
 1709 0aaf 27       		.uleb128 0x27
 1710 0ab0 19090000 		.4byte	0x919
ARM GAS  /tmp/ccFUDirs.s 			page 31


 1711 0ab4 02000000 		.4byte	.LBB35
 1712 0ab8 70000000 		.4byte	.Ldebug_ranges0+0x70
 1713 0abc 01       		.byte	0x1
 1714 0abd 99       		.byte	0x99
 1715 0abe 28       		.uleb128 0x28
 1716 0abf 3B090000 		.4byte	0x93b
 1717 0ac3 70000000 		.4byte	.LLST4
 1718 0ac7 28       		.uleb128 0x28
 1719 0ac8 30090000 		.4byte	0x930
 1720 0acc 90000000 		.4byte	.LLST5
 1721 0ad0 28       		.uleb128 0x28
 1722 0ad1 25090000 		.4byte	0x925
 1723 0ad5 B2000000 		.4byte	.LLST6
 1724 0ad9 00       		.byte	0
 1725 0ada 00       		.byte	0
 1726 0adb 31       		.uleb128 0x31
 1727 0adc 4B040000 		.4byte	.LASF159
 1728 0ae0 08       		.byte	0x8
 1729 0ae1 A706     		.2byte	0x6a7
 1730 0ae3 C6000000 		.4byte	0xc6
 1731 0ae7 32       		.uleb128 0x32
 1732 0ae8 636800   		.ascii	"ch\000"
 1733 0aeb 07       		.byte	0x7
 1734 0aec 0902     		.2byte	0x209
 1735 0aee 39040000 		.4byte	0x439
 1736 0af2 00       		.byte	0
 1737              		.section	.debug_abbrev,"",%progbits
 1738              	.Ldebug_abbrev0:
 1739 0000 01       		.uleb128 0x1
 1740 0001 11       		.uleb128 0x11
 1741 0002 01       		.byte	0x1
 1742 0003 25       		.uleb128 0x25
 1743 0004 0E       		.uleb128 0xe
 1744 0005 13       		.uleb128 0x13
 1745 0006 0B       		.uleb128 0xb
 1746 0007 03       		.uleb128 0x3
 1747 0008 0E       		.uleb128 0xe
 1748 0009 55       		.uleb128 0x55
 1749 000a 17       		.uleb128 0x17
 1750 000b 11       		.uleb128 0x11
 1751 000c 01       		.uleb128 0x1
 1752 000d 10       		.uleb128 0x10
 1753 000e 17       		.uleb128 0x17
 1754 000f 00       		.byte	0
 1755 0010 00       		.byte	0
 1756 0011 02       		.uleb128 0x2
 1757 0012 24       		.uleb128 0x24
 1758 0013 00       		.byte	0
 1759 0014 0B       		.uleb128 0xb
 1760 0015 0B       		.uleb128 0xb
 1761 0016 3E       		.uleb128 0x3e
 1762 0017 0B       		.uleb128 0xb
 1763 0018 03       		.uleb128 0x3
 1764 0019 08       		.uleb128 0x8
 1765 001a 00       		.byte	0
 1766 001b 00       		.byte	0
 1767 001c 03       		.uleb128 0x3
ARM GAS  /tmp/ccFUDirs.s 			page 32


 1768 001d 24       		.uleb128 0x24
 1769 001e 00       		.byte	0
 1770 001f 0B       		.uleb128 0xb
 1771 0020 0B       		.uleb128 0xb
 1772 0021 3E       		.uleb128 0x3e
 1773 0022 0B       		.uleb128 0xb
 1774 0023 03       		.uleb128 0x3
 1775 0024 0E       		.uleb128 0xe
 1776 0025 00       		.byte	0
 1777 0026 00       		.byte	0
 1778 0027 04       		.uleb128 0x4
 1779 0028 16       		.uleb128 0x16
 1780 0029 00       		.byte	0
 1781 002a 03       		.uleb128 0x3
 1782 002b 0E       		.uleb128 0xe
 1783 002c 3A       		.uleb128 0x3a
 1784 002d 0B       		.uleb128 0xb
 1785 002e 3B       		.uleb128 0x3b
 1786 002f 0B       		.uleb128 0xb
 1787 0030 49       		.uleb128 0x49
 1788 0031 13       		.uleb128 0x13
 1789 0032 00       		.byte	0
 1790 0033 00       		.byte	0
 1791 0034 05       		.uleb128 0x5
 1792 0035 35       		.uleb128 0x35
 1793 0036 00       		.byte	0
 1794 0037 49       		.uleb128 0x49
 1795 0038 13       		.uleb128 0x13
 1796 0039 00       		.byte	0
 1797 003a 00       		.byte	0
 1798 003b 06       		.uleb128 0x6
 1799 003c 13       		.uleb128 0x13
 1800 003d 01       		.byte	0x1
 1801 003e 03       		.uleb128 0x3
 1802 003f 0E       		.uleb128 0xe
 1803 0040 0B       		.uleb128 0xb
 1804 0041 0B       		.uleb128 0xb
 1805 0042 3A       		.uleb128 0x3a
 1806 0043 0B       		.uleb128 0xb
 1807 0044 3B       		.uleb128 0x3b
 1808 0045 0B       		.uleb128 0xb
 1809 0046 01       		.uleb128 0x1
 1810 0047 13       		.uleb128 0x13
 1811 0048 00       		.byte	0
 1812 0049 00       		.byte	0
 1813 004a 07       		.uleb128 0x7
 1814 004b 0D       		.uleb128 0xd
 1815 004c 00       		.byte	0
 1816 004d 03       		.uleb128 0x3
 1817 004e 0E       		.uleb128 0xe
 1818 004f 3A       		.uleb128 0x3a
 1819 0050 0B       		.uleb128 0xb
 1820 0051 3B       		.uleb128 0x3b
 1821 0052 0B       		.uleb128 0xb
 1822 0053 49       		.uleb128 0x49
 1823 0054 13       		.uleb128 0x13
 1824 0055 38       		.uleb128 0x38
ARM GAS  /tmp/ccFUDirs.s 			page 33


 1825 0056 0B       		.uleb128 0xb
 1826 0057 00       		.byte	0
 1827 0058 00       		.byte	0
 1828 0059 08       		.uleb128 0x8
 1829 005a 0D       		.uleb128 0xd
 1830 005b 00       		.byte	0
 1831 005c 03       		.uleb128 0x3
 1832 005d 08       		.uleb128 0x8
 1833 005e 3A       		.uleb128 0x3a
 1834 005f 0B       		.uleb128 0xb
 1835 0060 3B       		.uleb128 0x3b
 1836 0061 05       		.uleb128 0x5
 1837 0062 49       		.uleb128 0x49
 1838 0063 13       		.uleb128 0x13
 1839 0064 38       		.uleb128 0x38
 1840 0065 0B       		.uleb128 0xb
 1841 0066 00       		.byte	0
 1842 0067 00       		.byte	0
 1843 0068 09       		.uleb128 0x9
 1844 0069 0D       		.uleb128 0xd
 1845 006a 00       		.byte	0
 1846 006b 03       		.uleb128 0x3
 1847 006c 0E       		.uleb128 0xe
 1848 006d 3A       		.uleb128 0x3a
 1849 006e 0B       		.uleb128 0xb
 1850 006f 3B       		.uleb128 0x3b
 1851 0070 05       		.uleb128 0x5
 1852 0071 49       		.uleb128 0x49
 1853 0072 13       		.uleb128 0x13
 1854 0073 38       		.uleb128 0x38
 1855 0074 0B       		.uleb128 0xb
 1856 0075 00       		.byte	0
 1857 0076 00       		.byte	0
 1858 0077 0A       		.uleb128 0xa
 1859 0078 0F       		.uleb128 0xf
 1860 0079 00       		.byte	0
 1861 007a 0B       		.uleb128 0xb
 1862 007b 0B       		.uleb128 0xb
 1863 007c 49       		.uleb128 0x49
 1864 007d 13       		.uleb128 0x13
 1865 007e 00       		.byte	0
 1866 007f 00       		.byte	0
 1867 0080 0B       		.uleb128 0xb
 1868 0081 13       		.uleb128 0x13
 1869 0082 01       		.byte	0x1
 1870 0083 03       		.uleb128 0x3
 1871 0084 0E       		.uleb128 0xe
 1872 0085 0B       		.uleb128 0xb
 1873 0086 0B       		.uleb128 0xb
 1874 0087 3A       		.uleb128 0x3a
 1875 0088 0B       		.uleb128 0xb
 1876 0089 3B       		.uleb128 0x3b
 1877 008a 05       		.uleb128 0x5
 1878 008b 01       		.uleb128 0x1
 1879 008c 13       		.uleb128 0x13
 1880 008d 00       		.byte	0
 1881 008e 00       		.byte	0
ARM GAS  /tmp/ccFUDirs.s 			page 34


 1882 008f 0C       		.uleb128 0xc
 1883 0090 15       		.uleb128 0x15
 1884 0091 01       		.byte	0x1
 1885 0092 27       		.uleb128 0x27
 1886 0093 19       		.uleb128 0x19
 1887 0094 01       		.uleb128 0x1
 1888 0095 13       		.uleb128 0x13
 1889 0096 00       		.byte	0
 1890 0097 00       		.byte	0
 1891 0098 0D       		.uleb128 0xd
 1892 0099 05       		.uleb128 0x5
 1893 009a 00       		.byte	0
 1894 009b 49       		.uleb128 0x49
 1895 009c 13       		.uleb128 0x13
 1896 009d 00       		.byte	0
 1897 009e 00       		.byte	0
 1898 009f 0E       		.uleb128 0xe
 1899 00a0 0F       		.uleb128 0xf
 1900 00a1 00       		.byte	0
 1901 00a2 0B       		.uleb128 0xb
 1902 00a3 0B       		.uleb128 0xb
 1903 00a4 00       		.byte	0
 1904 00a5 00       		.byte	0
 1905 00a6 0F       		.uleb128 0xf
 1906 00a7 13       		.uleb128 0x13
 1907 00a8 01       		.byte	0x1
 1908 00a9 03       		.uleb128 0x3
 1909 00aa 0E       		.uleb128 0xe
 1910 00ab 0B       		.uleb128 0xb
 1911 00ac 05       		.uleb128 0x5
 1912 00ad 3A       		.uleb128 0x3a
 1913 00ae 0B       		.uleb128 0xb
 1914 00af 3B       		.uleb128 0x3b
 1915 00b0 05       		.uleb128 0x5
 1916 00b1 01       		.uleb128 0x1
 1917 00b2 13       		.uleb128 0x13
 1918 00b3 00       		.byte	0
 1919 00b4 00       		.byte	0
 1920 00b5 10       		.uleb128 0x10
 1921 00b6 0D       		.uleb128 0xd
 1922 00b7 00       		.byte	0
 1923 00b8 03       		.uleb128 0x3
 1924 00b9 0E       		.uleb128 0xe
 1925 00ba 3A       		.uleb128 0x3a
 1926 00bb 0B       		.uleb128 0xb
 1927 00bc 3B       		.uleb128 0x3b
 1928 00bd 05       		.uleb128 0x5
 1929 00be 49       		.uleb128 0x49
 1930 00bf 13       		.uleb128 0x13
 1931 00c0 38       		.uleb128 0x38
 1932 00c1 05       		.uleb128 0x5
 1933 00c2 00       		.byte	0
 1934 00c3 00       		.byte	0
 1935 00c4 11       		.uleb128 0x11
 1936 00c5 0D       		.uleb128 0xd
 1937 00c6 00       		.byte	0
 1938 00c7 03       		.uleb128 0x3
ARM GAS  /tmp/ccFUDirs.s 			page 35


 1939 00c8 08       		.uleb128 0x8
 1940 00c9 3A       		.uleb128 0x3a
 1941 00ca 0B       		.uleb128 0xb
 1942 00cb 3B       		.uleb128 0x3b
 1943 00cc 05       		.uleb128 0x5
 1944 00cd 49       		.uleb128 0x49
 1945 00ce 13       		.uleb128 0x13
 1946 00cf 38       		.uleb128 0x38
 1947 00d0 05       		.uleb128 0x5
 1948 00d1 00       		.byte	0
 1949 00d2 00       		.byte	0
 1950 00d3 12       		.uleb128 0x12
 1951 00d4 26       		.uleb128 0x26
 1952 00d5 00       		.byte	0
 1953 00d6 49       		.uleb128 0x49
 1954 00d7 13       		.uleb128 0x13
 1955 00d8 00       		.byte	0
 1956 00d9 00       		.byte	0
 1957 00da 13       		.uleb128 0x13
 1958 00db 01       		.uleb128 0x1
 1959 00dc 01       		.byte	0x1
 1960 00dd 49       		.uleb128 0x49
 1961 00de 13       		.uleb128 0x13
 1962 00df 01       		.uleb128 0x1
 1963 00e0 13       		.uleb128 0x13
 1964 00e1 00       		.byte	0
 1965 00e2 00       		.byte	0
 1966 00e3 14       		.uleb128 0x14
 1967 00e4 21       		.uleb128 0x21
 1968 00e5 00       		.byte	0
 1969 00e6 49       		.uleb128 0x49
 1970 00e7 13       		.uleb128 0x13
 1971 00e8 2F       		.uleb128 0x2f
 1972 00e9 0B       		.uleb128 0xb
 1973 00ea 00       		.byte	0
 1974 00eb 00       		.byte	0
 1975 00ec 15       		.uleb128 0x15
 1976 00ed 13       		.uleb128 0x13
 1977 00ee 01       		.byte	0x1
 1978 00ef 0B       		.uleb128 0xb
 1979 00f0 0B       		.uleb128 0xb
 1980 00f1 3A       		.uleb128 0x3a
 1981 00f2 0B       		.uleb128 0xb
 1982 00f3 3B       		.uleb128 0x3b
 1983 00f4 05       		.uleb128 0x5
 1984 00f5 01       		.uleb128 0x1
 1985 00f6 13       		.uleb128 0x13
 1986 00f7 00       		.byte	0
 1987 00f8 00       		.byte	0
 1988 00f9 16       		.uleb128 0x16
 1989 00fa 16       		.uleb128 0x16
 1990 00fb 00       		.byte	0
 1991 00fc 03       		.uleb128 0x3
 1992 00fd 0E       		.uleb128 0xe
 1993 00fe 3A       		.uleb128 0x3a
 1994 00ff 0B       		.uleb128 0xb
 1995 0100 3B       		.uleb128 0x3b
ARM GAS  /tmp/ccFUDirs.s 			page 36


 1996 0101 05       		.uleb128 0x5
 1997 0102 49       		.uleb128 0x49
 1998 0103 13       		.uleb128 0x13
 1999 0104 00       		.byte	0
 2000 0105 00       		.byte	0
 2001 0106 17       		.uleb128 0x17
 2002 0107 0D       		.uleb128 0xd
 2003 0108 00       		.byte	0
 2004 0109 03       		.uleb128 0x3
 2005 010a 08       		.uleb128 0x8
 2006 010b 3A       		.uleb128 0x3a
 2007 010c 0B       		.uleb128 0xb
 2008 010d 3B       		.uleb128 0x3b
 2009 010e 0B       		.uleb128 0xb
 2010 010f 49       		.uleb128 0x49
 2011 0110 13       		.uleb128 0x13
 2012 0111 38       		.uleb128 0x38
 2013 0112 0B       		.uleb128 0xb
 2014 0113 00       		.byte	0
 2015 0114 00       		.byte	0
 2016 0115 18       		.uleb128 0x18
 2017 0116 13       		.uleb128 0x13
 2018 0117 01       		.byte	0x1
 2019 0118 0B       		.uleb128 0xb
 2020 0119 0B       		.uleb128 0xb
 2021 011a 3A       		.uleb128 0x3a
 2022 011b 0B       		.uleb128 0xb
 2023 011c 3B       		.uleb128 0x3b
 2024 011d 0B       		.uleb128 0xb
 2025 011e 01       		.uleb128 0x1
 2026 011f 13       		.uleb128 0x13
 2027 0120 00       		.byte	0
 2028 0121 00       		.byte	0
 2029 0122 19       		.uleb128 0x19
 2030 0123 13       		.uleb128 0x13
 2031 0124 01       		.byte	0x1
 2032 0125 0B       		.uleb128 0xb
 2033 0126 05       		.uleb128 0x5
 2034 0127 3A       		.uleb128 0x3a
 2035 0128 0B       		.uleb128 0xb
 2036 0129 3B       		.uleb128 0x3b
 2037 012a 0B       		.uleb128 0xb
 2038 012b 01       		.uleb128 0x1
 2039 012c 13       		.uleb128 0x13
 2040 012d 00       		.byte	0
 2041 012e 00       		.byte	0
 2042 012f 1A       		.uleb128 0x1a
 2043 0130 17       		.uleb128 0x17
 2044 0131 01       		.byte	0x1
 2045 0132 0B       		.uleb128 0xb
 2046 0133 0B       		.uleb128 0xb
 2047 0134 3A       		.uleb128 0x3a
 2048 0135 0B       		.uleb128 0xb
 2049 0136 3B       		.uleb128 0x3b
 2050 0137 0B       		.uleb128 0xb
 2051 0138 01       		.uleb128 0x1
 2052 0139 13       		.uleb128 0x13
ARM GAS  /tmp/ccFUDirs.s 			page 37


 2053 013a 00       		.byte	0
 2054 013b 00       		.byte	0
 2055 013c 1B       		.uleb128 0x1b
 2056 013d 0D       		.uleb128 0xd
 2057 013e 00       		.byte	0
 2058 013f 03       		.uleb128 0x3
 2059 0140 0E       		.uleb128 0xe
 2060 0141 3A       		.uleb128 0x3a
 2061 0142 0B       		.uleb128 0xb
 2062 0143 3B       		.uleb128 0x3b
 2063 0144 05       		.uleb128 0x5
 2064 0145 49       		.uleb128 0x49
 2065 0146 13       		.uleb128 0x13
 2066 0147 00       		.byte	0
 2067 0148 00       		.byte	0
 2068 0149 1C       		.uleb128 0x1c
 2069 014a 2E       		.uleb128 0x2e
 2070 014b 00       		.byte	0
 2071 014c 03       		.uleb128 0x3
 2072 014d 0E       		.uleb128 0xe
 2073 014e 3A       		.uleb128 0x3a
 2074 014f 0B       		.uleb128 0xb
 2075 0150 3B       		.uleb128 0x3b
 2076 0151 05       		.uleb128 0x5
 2077 0152 27       		.uleb128 0x27
 2078 0153 19       		.uleb128 0x19
 2079 0154 49       		.uleb128 0x49
 2080 0155 13       		.uleb128 0x13
 2081 0156 20       		.uleb128 0x20
 2082 0157 0B       		.uleb128 0xb
 2083 0158 00       		.byte	0
 2084 0159 00       		.byte	0
 2085 015a 1D       		.uleb128 0x1d
 2086 015b 2E       		.uleb128 0x2e
 2087 015c 01       		.byte	0x1
 2088 015d 03       		.uleb128 0x3
 2089 015e 0E       		.uleb128 0xe
 2090 015f 3A       		.uleb128 0x3a
 2091 0160 0B       		.uleb128 0xb
 2092 0161 3B       		.uleb128 0x3b
 2093 0162 0B       		.uleb128 0xb
 2094 0163 27       		.uleb128 0x27
 2095 0164 19       		.uleb128 0x19
 2096 0165 20       		.uleb128 0x20
 2097 0166 0B       		.uleb128 0xb
 2098 0167 01       		.uleb128 0x1
 2099 0168 13       		.uleb128 0x13
 2100 0169 00       		.byte	0
 2101 016a 00       		.byte	0
 2102 016b 1E       		.uleb128 0x1e
 2103 016c 05       		.uleb128 0x5
 2104 016d 00       		.byte	0
 2105 016e 03       		.uleb128 0x3
 2106 016f 08       		.uleb128 0x8
 2107 0170 3A       		.uleb128 0x3a
 2108 0171 0B       		.uleb128 0xb
 2109 0172 3B       		.uleb128 0x3b
ARM GAS  /tmp/ccFUDirs.s 			page 38


 2110 0173 0B       		.uleb128 0xb
 2111 0174 49       		.uleb128 0x49
 2112 0175 13       		.uleb128 0x13
 2113 0176 00       		.byte	0
 2114 0177 00       		.byte	0
 2115 0178 1F       		.uleb128 0x1f
 2116 0179 05       		.uleb128 0x5
 2117 017a 00       		.byte	0
 2118 017b 03       		.uleb128 0x3
 2119 017c 0E       		.uleb128 0xe
 2120 017d 3A       		.uleb128 0x3a
 2121 017e 0B       		.uleb128 0xb
 2122 017f 3B       		.uleb128 0x3b
 2123 0180 0B       		.uleb128 0xb
 2124 0181 49       		.uleb128 0x49
 2125 0182 13       		.uleb128 0x13
 2126 0183 00       		.byte	0
 2127 0184 00       		.byte	0
 2128 0185 20       		.uleb128 0x20
 2129 0186 2E       		.uleb128 0x2e
 2130 0187 01       		.byte	0x1
 2131 0188 3F       		.uleb128 0x3f
 2132 0189 19       		.uleb128 0x19
 2133 018a 03       		.uleb128 0x3
 2134 018b 0E       		.uleb128 0xe
 2135 018c 3A       		.uleb128 0x3a
 2136 018d 0B       		.uleb128 0xb
 2137 018e 3B       		.uleb128 0x3b
 2138 018f 0B       		.uleb128 0xb
 2139 0190 27       		.uleb128 0x27
 2140 0191 19       		.uleb128 0x19
 2141 0192 20       		.uleb128 0x20
 2142 0193 0B       		.uleb128 0xb
 2143 0194 01       		.uleb128 0x1
 2144 0195 13       		.uleb128 0x13
 2145 0196 00       		.byte	0
 2146 0197 00       		.byte	0
 2147 0198 21       		.uleb128 0x21
 2148 0199 2E       		.uleb128 0x2e
 2149 019a 01       		.byte	0x1
 2150 019b 31       		.uleb128 0x31
 2151 019c 13       		.uleb128 0x13
 2152 019d 11       		.uleb128 0x11
 2153 019e 01       		.uleb128 0x1
 2154 019f 12       		.uleb128 0x12
 2155 01a0 06       		.uleb128 0x6
 2156 01a1 40       		.uleb128 0x40
 2157 01a2 18       		.uleb128 0x18
 2158 01a3 9742     		.uleb128 0x2117
 2159 01a5 19       		.uleb128 0x19
 2160 01a6 01       		.uleb128 0x1
 2161 01a7 13       		.uleb128 0x13
 2162 01a8 00       		.byte	0
 2163 01a9 00       		.byte	0
 2164 01aa 22       		.uleb128 0x22
 2165 01ab 05       		.uleb128 0x5
 2166 01ac 00       		.byte	0
ARM GAS  /tmp/ccFUDirs.s 			page 39


 2167 01ad 31       		.uleb128 0x31
 2168 01ae 13       		.uleb128 0x13
 2169 01af 02       		.uleb128 0x2
 2170 01b0 18       		.uleb128 0x18
 2171 01b1 00       		.byte	0
 2172 01b2 00       		.byte	0
 2173 01b3 23       		.uleb128 0x23
 2174 01b4 2E       		.uleb128 0x2e
 2175 01b5 01       		.byte	0x1
 2176 01b6 3F       		.uleb128 0x3f
 2177 01b7 19       		.uleb128 0x19
 2178 01b8 03       		.uleb128 0x3
 2179 01b9 0E       		.uleb128 0xe
 2180 01ba 3A       		.uleb128 0x3a
 2181 01bb 0B       		.uleb128 0xb
 2182 01bc 3B       		.uleb128 0x3b
 2183 01bd 0B       		.uleb128 0xb
 2184 01be 27       		.uleb128 0x27
 2185 01bf 19       		.uleb128 0x19
 2186 01c0 11       		.uleb128 0x11
 2187 01c1 01       		.uleb128 0x1
 2188 01c2 12       		.uleb128 0x12
 2189 01c3 06       		.uleb128 0x6
 2190 01c4 40       		.uleb128 0x40
 2191 01c5 18       		.uleb128 0x18
 2192 01c6 9742     		.uleb128 0x2117
 2193 01c8 19       		.uleb128 0x19
 2194 01c9 01       		.uleb128 0x1
 2195 01ca 13       		.uleb128 0x13
 2196 01cb 00       		.byte	0
 2197 01cc 00       		.byte	0
 2198 01cd 24       		.uleb128 0x24
 2199 01ce 05       		.uleb128 0x5
 2200 01cf 00       		.byte	0
 2201 01d0 03       		.uleb128 0x3
 2202 01d1 08       		.uleb128 0x8
 2203 01d2 3A       		.uleb128 0x3a
 2204 01d3 0B       		.uleb128 0xb
 2205 01d4 3B       		.uleb128 0x3b
 2206 01d5 0B       		.uleb128 0xb
 2207 01d6 49       		.uleb128 0x49
 2208 01d7 13       		.uleb128 0x13
 2209 01d8 02       		.uleb128 0x2
 2210 01d9 18       		.uleb128 0x18
 2211 01da 00       		.byte	0
 2212 01db 00       		.byte	0
 2213 01dc 25       		.uleb128 0x25
 2214 01dd 1D       		.uleb128 0x1d
 2215 01de 00       		.byte	0
 2216 01df 31       		.uleb128 0x31
 2217 01e0 13       		.uleb128 0x13
 2218 01e1 11       		.uleb128 0x11
 2219 01e2 01       		.uleb128 0x1
 2220 01e3 12       		.uleb128 0x12
 2221 01e4 06       		.uleb128 0x6
 2222 01e5 58       		.uleb128 0x58
 2223 01e6 0B       		.uleb128 0xb
ARM GAS  /tmp/ccFUDirs.s 			page 40


 2224 01e7 59       		.uleb128 0x59
 2225 01e8 0B       		.uleb128 0xb
 2226 01e9 00       		.byte	0
 2227 01ea 00       		.byte	0
 2228 01eb 26       		.uleb128 0x26
 2229 01ec 1D       		.uleb128 0x1d
 2230 01ed 00       		.byte	0
 2231 01ee 31       		.uleb128 0x31
 2232 01ef 13       		.uleb128 0x13
 2233 01f0 52       		.uleb128 0x52
 2234 01f1 01       		.uleb128 0x1
 2235 01f2 55       		.uleb128 0x55
 2236 01f3 17       		.uleb128 0x17
 2237 01f4 58       		.uleb128 0x58
 2238 01f5 0B       		.uleb128 0xb
 2239 01f6 59       		.uleb128 0x59
 2240 01f7 0B       		.uleb128 0xb
 2241 01f8 00       		.byte	0
 2242 01f9 00       		.byte	0
 2243 01fa 27       		.uleb128 0x27
 2244 01fb 1D       		.uleb128 0x1d
 2245 01fc 01       		.byte	0x1
 2246 01fd 31       		.uleb128 0x31
 2247 01fe 13       		.uleb128 0x13
 2248 01ff 52       		.uleb128 0x52
 2249 0200 01       		.uleb128 0x1
 2250 0201 55       		.uleb128 0x55
 2251 0202 17       		.uleb128 0x17
 2252 0203 58       		.uleb128 0x58
 2253 0204 0B       		.uleb128 0xb
 2254 0205 59       		.uleb128 0x59
 2255 0206 0B       		.uleb128 0xb
 2256 0207 00       		.byte	0
 2257 0208 00       		.byte	0
 2258 0209 28       		.uleb128 0x28
 2259 020a 05       		.uleb128 0x5
 2260 020b 00       		.byte	0
 2261 020c 31       		.uleb128 0x31
 2262 020d 13       		.uleb128 0x13
 2263 020e 02       		.uleb128 0x2
 2264 020f 17       		.uleb128 0x17
 2265 0210 00       		.byte	0
 2266 0211 00       		.byte	0
 2267 0212 29       		.uleb128 0x29
 2268 0213 05       		.uleb128 0x5
 2269 0214 00       		.byte	0
 2270 0215 31       		.uleb128 0x31
 2271 0216 13       		.uleb128 0x13
 2272 0217 00       		.byte	0
 2273 0218 00       		.byte	0
 2274 0219 2A       		.uleb128 0x2a
 2275 021a 34       		.uleb128 0x34
 2276 021b 00       		.byte	0
 2277 021c 03       		.uleb128 0x3
 2278 021d 08       		.uleb128 0x8
 2279 021e 3A       		.uleb128 0x3a
 2280 021f 0B       		.uleb128 0xb
ARM GAS  /tmp/ccFUDirs.s 			page 41


 2281 0220 3B       		.uleb128 0x3b
 2282 0221 0B       		.uleb128 0xb
 2283 0222 49       		.uleb128 0x49
 2284 0223 13       		.uleb128 0x13
 2285 0224 02       		.uleb128 0x2
 2286 0225 18       		.uleb128 0x18
 2287 0226 00       		.byte	0
 2288 0227 00       		.byte	0
 2289 0228 2B       		.uleb128 0x2b
 2290 0229 1D       		.uleb128 0x1d
 2291 022a 01       		.byte	0x1
 2292 022b 31       		.uleb128 0x31
 2293 022c 13       		.uleb128 0x13
 2294 022d 52       		.uleb128 0x52
 2295 022e 01       		.uleb128 0x1
 2296 022f 55       		.uleb128 0x55
 2297 0230 17       		.uleb128 0x17
 2298 0231 58       		.uleb128 0x58
 2299 0232 0B       		.uleb128 0xb
 2300 0233 59       		.uleb128 0x59
 2301 0234 0B       		.uleb128 0xb
 2302 0235 01       		.uleb128 0x1
 2303 0236 13       		.uleb128 0x13
 2304 0237 00       		.byte	0
 2305 0238 00       		.byte	0
 2306 0239 2C       		.uleb128 0x2c
 2307 023a 898201   		.uleb128 0x4109
 2308 023d 01       		.byte	0x1
 2309 023e 11       		.uleb128 0x11
 2310 023f 01       		.uleb128 0x1
 2311 0240 31       		.uleb128 0x31
 2312 0241 13       		.uleb128 0x13
 2313 0242 01       		.uleb128 0x1
 2314 0243 13       		.uleb128 0x13
 2315 0244 00       		.byte	0
 2316 0245 00       		.byte	0
 2317 0246 2D       		.uleb128 0x2d
 2318 0247 8A8201   		.uleb128 0x410a
 2319 024a 00       		.byte	0
 2320 024b 02       		.uleb128 0x2
 2321 024c 18       		.uleb128 0x18
 2322 024d 9142     		.uleb128 0x2111
 2323 024f 18       		.uleb128 0x18
 2324 0250 00       		.byte	0
 2325 0251 00       		.byte	0
 2326 0252 2E       		.uleb128 0x2e
 2327 0253 898201   		.uleb128 0x4109
 2328 0256 01       		.byte	0x1
 2329 0257 11       		.uleb128 0x11
 2330 0258 01       		.uleb128 0x1
 2331 0259 31       		.uleb128 0x31
 2332 025a 13       		.uleb128 0x13
 2333 025b 00       		.byte	0
 2334 025c 00       		.byte	0
 2335 025d 2F       		.uleb128 0x2f
 2336 025e 05       		.uleb128 0x5
 2337 025f 00       		.byte	0
ARM GAS  /tmp/ccFUDirs.s 			page 42


 2338 0260 03       		.uleb128 0x3
 2339 0261 0E       		.uleb128 0xe
 2340 0262 3A       		.uleb128 0x3a
 2341 0263 0B       		.uleb128 0xb
 2342 0264 3B       		.uleb128 0x3b
 2343 0265 0B       		.uleb128 0xb
 2344 0266 49       		.uleb128 0x49
 2345 0267 13       		.uleb128 0x13
 2346 0268 02       		.uleb128 0x2
 2347 0269 18       		.uleb128 0x18
 2348 026a 00       		.byte	0
 2349 026b 00       		.byte	0
 2350 026c 30       		.uleb128 0x30
 2351 026d 05       		.uleb128 0x5
 2352 026e 00       		.byte	0
 2353 026f 03       		.uleb128 0x3
 2354 0270 0E       		.uleb128 0xe
 2355 0271 3A       		.uleb128 0x3a
 2356 0272 0B       		.uleb128 0xb
 2357 0273 3B       		.uleb128 0x3b
 2358 0274 0B       		.uleb128 0xb
 2359 0275 49       		.uleb128 0x49
 2360 0276 13       		.uleb128 0x13
 2361 0277 02       		.uleb128 0x2
 2362 0278 17       		.uleb128 0x17
 2363 0279 00       		.byte	0
 2364 027a 00       		.byte	0
 2365 027b 31       		.uleb128 0x31
 2366 027c 34       		.uleb128 0x34
 2367 027d 00       		.byte	0
 2368 027e 03       		.uleb128 0x3
 2369 027f 0E       		.uleb128 0xe
 2370 0280 3A       		.uleb128 0x3a
 2371 0281 0B       		.uleb128 0xb
 2372 0282 3B       		.uleb128 0x3b
 2373 0283 05       		.uleb128 0x5
 2374 0284 49       		.uleb128 0x49
 2375 0285 13       		.uleb128 0x13
 2376 0286 3F       		.uleb128 0x3f
 2377 0287 19       		.uleb128 0x19
 2378 0288 3C       		.uleb128 0x3c
 2379 0289 19       		.uleb128 0x19
 2380 028a 00       		.byte	0
 2381 028b 00       		.byte	0
 2382 028c 32       		.uleb128 0x32
 2383 028d 34       		.uleb128 0x34
 2384 028e 00       		.byte	0
 2385 028f 03       		.uleb128 0x3
 2386 0290 08       		.uleb128 0x8
 2387 0291 3A       		.uleb128 0x3a
 2388 0292 0B       		.uleb128 0xb
 2389 0293 3B       		.uleb128 0x3b
 2390 0294 05       		.uleb128 0x5
 2391 0295 49       		.uleb128 0x49
 2392 0296 13       		.uleb128 0x13
 2393 0297 3F       		.uleb128 0x3f
 2394 0298 19       		.uleb128 0x19
ARM GAS  /tmp/ccFUDirs.s 			page 43


 2395 0299 3C       		.uleb128 0x3c
 2396 029a 19       		.uleb128 0x19
 2397 029b 00       		.byte	0
 2398 029c 00       		.byte	0
 2399 029d 00       		.byte	0
 2400              		.section	.debug_loc,"",%progbits
 2401              	.Ldebug_loc0:
 2402              	.LLST0:
 2403 0000 0E000000 		.4byte	.LVL3
 2404 0004 36000000 		.4byte	.LVL4
 2405 0008 0100     		.2byte	0x1
 2406 000a 57       		.byte	0x57
 2407 000b 3A000000 		.4byte	.LVL5
 2408 000f 3E000000 		.4byte	.LVL6
 2409 0013 0100     		.2byte	0x1
 2410 0015 57       		.byte	0x57
 2411 0016 00000000 		.4byte	0
 2412 001a 00000000 		.4byte	0
 2413              	.LLST1:
 2414 001e 0E000000 		.4byte	.LVL3
 2415 0022 36000000 		.4byte	.LVL4
 2416 0026 0100     		.2byte	0x1
 2417 0028 50       		.byte	0x50
 2418 0029 3A000000 		.4byte	.LVL5
 2419 002d 48000000 		.4byte	.LFE231
 2420 0031 0100     		.2byte	0x1
 2421 0033 50       		.byte	0x50
 2422 0034 00000000 		.4byte	0
 2423 0038 00000000 		.4byte	0
 2424              	.LLST2:
 2425 003c 16000000 		.4byte	.LVL7
 2426 0040 22000000 		.4byte	.LVL8
 2427 0044 0100     		.2byte	0x1
 2428 0046 50       		.byte	0x50
 2429 0047 00000000 		.4byte	0
 2430 004b 00000000 		.4byte	0
 2431              	.LLST3:
 2432 004f 00000000 		.4byte	.LVL11
 2433 0053 12000000 		.4byte	.LVL13
 2434 0057 0100     		.2byte	0x1
 2435 0059 51       		.byte	0x51
 2436 005a 12000000 		.4byte	.LVL13
 2437 005e 40000000 		.4byte	.LFE232
 2438 0062 0400     		.2byte	0x4
 2439 0064 F3       		.byte	0xf3
 2440 0065 01       		.uleb128 0x1
 2441 0066 51       		.byte	0x51
 2442 0067 9F       		.byte	0x9f
 2443 0068 00000000 		.4byte	0
 2444 006c 00000000 		.4byte	0
 2445              	.LLST4:
 2446 0070 0A000000 		.4byte	.LVL12
 2447 0074 30000000 		.4byte	.LVL16
 2448 0078 0200     		.2byte	0x2
 2449 007a 30       		.byte	0x30
 2450 007b 9F       		.byte	0x9f
 2451 007c 34000000 		.4byte	.LVL17
ARM GAS  /tmp/ccFUDirs.s 			page 44


 2452 0080 40000000 		.4byte	.LFE232
 2453 0084 0200     		.2byte	0x2
 2454 0086 30       		.byte	0x30
 2455 0087 9F       		.byte	0x9f
 2456 0088 00000000 		.4byte	0
 2457 008c 00000000 		.4byte	0
 2458              	.LLST5:
 2459 0090 0A000000 		.4byte	.LVL12
 2460 0094 14000000 		.4byte	.LVL14
 2461 0098 0100     		.2byte	0x1
 2462 009a 53       		.byte	0x53
 2463 009b 14000000 		.4byte	.LVL14
 2464 009f 22000000 		.4byte	.LVL15
 2465 00a3 0500     		.2byte	0x5
 2466 00a5 F3       		.byte	0xf3
 2467 00a6 01       		.uleb128 0x1
 2468 00a7 51       		.byte	0x51
 2469 00a8 23       		.byte	0x23
 2470 00a9 08       		.uleb128 0x8
 2471 00aa 00000000 		.4byte	0
 2472 00ae 00000000 		.4byte	0
 2473              	.LLST6:
 2474 00b2 0A000000 		.4byte	.LVL12
 2475 00b6 30000000 		.4byte	.LVL16
 2476 00ba 0100     		.2byte	0x1
 2477 00bc 50       		.byte	0x50
 2478 00bd 34000000 		.4byte	.LVL17
 2479 00c1 40000000 		.4byte	.LFE232
 2480 00c5 0100     		.2byte	0x1
 2481 00c7 50       		.byte	0x50
 2482 00c8 00000000 		.4byte	0
 2483 00cc 00000000 		.4byte	0
 2484              		.section	.debug_aranges,"",%progbits
 2485 0000 3C000000 		.4byte	0x3c
 2486 0004 0200     		.2byte	0x2
 2487 0006 00000000 		.4byte	.Ldebug_info0
 2488 000a 04       		.byte	0x4
 2489 000b 00       		.byte	0
 2490 000c 0000     		.2byte	0
 2491 000e 0000     		.2byte	0
 2492 0010 00000000 		.4byte	.LFB229
 2493 0014 18000000 		.4byte	.LFE229-.LFB229
 2494 0018 00000000 		.4byte	.LFB230
 2495 001c 0C000000 		.4byte	.LFE230-.LFB230
 2496 0020 00000000 		.4byte	.LFB231
 2497 0024 48000000 		.4byte	.LFE231-.LFB231
 2498 0028 00000000 		.4byte	.LFB228
 2499 002c 3C000000 		.4byte	.LFE228-.LFB228
 2500 0030 00000000 		.4byte	.LFB232
 2501 0034 40000000 		.4byte	.LFE232-.LFB232
 2502 0038 00000000 		.4byte	0
 2503 003c 00000000 		.4byte	0
 2504              		.section	.debug_ranges,"",%progbits
 2505              	.Ldebug_ranges0:
 2506 0000 00000000 		.4byte	.LBB16
 2507 0004 02000000 		.4byte	.LBE16
 2508 0008 04000000 		.4byte	.LBB19
ARM GAS  /tmp/ccFUDirs.s 			page 45


 2509 000c 06000000 		.4byte	.LBE19
 2510 0010 00000000 		.4byte	0
 2511 0014 00000000 		.4byte	0
 2512 0018 06000000 		.4byte	.LBB20
 2513 001c 08000000 		.4byte	.LBE20
 2514 0020 0E000000 		.4byte	.LBB24
 2515 0024 36000000 		.4byte	.LBE24
 2516 0028 3A000000 		.4byte	.LBB25
 2517 002c 3C000000 		.4byte	.LBE25
 2518 0030 00000000 		.4byte	0
 2519 0034 00000000 		.4byte	0
 2520 0038 08000000 		.4byte	.LBB26
 2521 003c 0C000000 		.4byte	.LBE26
 2522 0040 0E000000 		.4byte	.LBB30
 2523 0044 12000000 		.4byte	.LBE30
 2524 0048 16000000 		.4byte	.LBB31
 2525 004c 22000000 		.4byte	.LBE31
 2526 0050 00000000 		.4byte	0
 2527 0054 00000000 		.4byte	0
 2528 0058 00000000 		.4byte	.LBB32
 2529 005c 02000000 		.4byte	.LBE32
 2530 0060 04000000 		.4byte	.LBB39
 2531 0064 06000000 		.4byte	.LBE39
 2532 0068 00000000 		.4byte	0
 2533 006c 00000000 		.4byte	0
 2534 0070 02000000 		.4byte	.LBB35
 2535 0074 04000000 		.4byte	.LBE35
 2536 0078 0A000000 		.4byte	.LBB40
 2537 007c 30000000 		.4byte	.LBE40
 2538 0080 34000000 		.4byte	.LBB41
 2539 0084 36000000 		.4byte	.LBE41
 2540 0088 00000000 		.4byte	0
 2541 008c 00000000 		.4byte	0
 2542 0090 00000000 		.4byte	.LFB229
 2543 0094 18000000 		.4byte	.LFE229
 2544 0098 00000000 		.4byte	.LFB230
 2545 009c 0C000000 		.4byte	.LFE230
 2546 00a0 00000000 		.4byte	.LFB231
 2547 00a4 48000000 		.4byte	.LFE231
 2548 00a8 00000000 		.4byte	.LFB228
 2549 00ac 3C000000 		.4byte	.LFE228
 2550 00b0 00000000 		.4byte	.LFB232
 2551 00b4 40000000 		.4byte	.LFE232
 2552 00b8 00000000 		.4byte	0
 2553 00bc 00000000 		.4byte	0
 2554              		.section	.debug_line,"",%progbits
 2555              	.Ldebug_line0:
 2556 0000 EC020000 		.section	.debug_str,"MS",%progbits,1
 2556      0200FA01 
 2556      00000201 
 2556      FB0E0D00 
 2556      01010101 
 2557              	.LASF122:
 2558 0000 74625F70 		.ascii	"tb_ptr\000"
 2558      747200
 2559              	.LASF55:
 2560 0007 72656164 		.ascii	"ready_list_t\000"
ARM GAS  /tmp/ccFUDirs.s 			page 46


 2560      795F6C69 
 2560      73745F74 
 2560      00
 2561              	.LASF116:
 2562 0014 73655F74 		.ascii	"se_time\000"
 2562      696D6500 
 2563              	.LASF140:
 2564 001c 77747472 		.ascii	"wttrp\000"
 2564      7000
 2565              	.LASF137:
 2566 0022 7264796D 		.ascii	"rdymsg\000"
 2566      736700
 2567              	.LASF17:
 2568 0029 75696E74 		.ascii	"uint64_t\000"
 2568      36345F74 
 2568      00
 2569              	.LASF85:
 2570 0032 6B65726E 		.ascii	"kernel_stats\000"
 2570      656C5F73 
 2570      74617473 
 2570      00
 2571              	.LASF7:
 2572 003f 5F5F7569 		.ascii	"__uint8_t\000"
 2572      6E74385F 
 2572      7400
 2573              	.LASF115:
 2574 0049 706F7274 		.ascii	"port_intctx\000"
 2574      5F696E74 
 2574      63747800 
 2575              	.LASF54:
 2576 0055 63685F74 		.ascii	"ch_threads_queue\000"
 2576      68726561 
 2576      64735F71 
 2576      75657565 
 2576      00
 2577              	.LASF74:
 2578 0066 73797374 		.ascii	"system_debug_t\000"
 2578      656D5F64 
 2578      65627567 
 2578      5F7400
 2579              	.LASF128:
 2580 0075 776F7273 		.ascii	"worst\000"
 2580      7400
 2581              	.LASF131:
 2582 007b 74696D65 		.ascii	"time_measurement_t\000"
 2582      5F6D6561 
 2582      73757265 
 2582      6D656E74 
 2582      5F7400
 2583              	.LASF13:
 2584 008e 6C6F6E67 		.ascii	"long long unsigned int\000"
 2584      206C6F6E 
 2584      6720756E 
 2584      7369676E 
 2584      65642069 
 2585              	.LASF124:
 2586 00a5 63685F74 		.ascii	"ch_trace_buffer_t\000"
ARM GAS  /tmp/ccFUDirs.s 			page 47


 2586      72616365 
 2586      5F627566 
 2586      6665725F 
 2586      7400
 2587              	.LASF119:
 2588 00b7 73655F73 		.ascii	"se_state\000"
 2588      74617465 
 2588      00
 2589              	.LASF138:
 2590 00c0 65786974 		.ascii	"exitcode\000"
 2590      636F6465 
 2590      00
 2591              	.LASF84:
 2592 00c9 6D61696E 		.ascii	"mainthread\000"
 2592      74687265 
 2592      616400
 2593              	.LASF163:
 2594 00d4 746D5F73 		.ascii	"tm_stop\000"
 2594      746F7000 
 2595              	.LASF71:
 2596 00dc 76697274 		.ascii	"virtual_timers_list_t\000"
 2596      75616C5F 
 2596      74696D65 
 2596      72735F6C 
 2596      6973745F 
 2597              	.LASF164:
 2598 00f2 6368544D 		.ascii	"chTMObjectInit\000"
 2598      4F626A65 
 2598      6374496E 
 2598      697400
 2599              	.LASF19:
 2600 0101 72747469 		.ascii	"rttime_t\000"
 2600      6D655F74 
 2600      00
 2601              	.LASF32:
 2602 010a 705F7072 		.ascii	"p_prio\000"
 2602      696F00
 2603              	.LASF157:
 2604 0111 746D7031 		.ascii	"tmp1\000"
 2604      00
 2605              	.LASF158:
 2606 0116 746D7032 		.ascii	"tmp2\000"
 2606      00
 2607              	.LASF1:
 2608 011b 6C6F6E67 		.ascii	"long long int\000"
 2608      206C6F6E 
 2608      6720696E 
 2608      7400
 2609              	.LASF3:
 2610 0129 7369676E 		.ascii	"signed char\000"
 2610      65642063 
 2610      68617200 
 2611              	.LASF47:
 2612 0135 705F6D70 		.ascii	"p_mpool\000"
 2612      6F6F6C00 
 2613              	.LASF90:
 2614 013d 43504943 		.ascii	"CPICNT\000"
ARM GAS  /tmp/ccFUDirs.s 			page 48


 2614      4E5400
 2615              	.LASF148:
 2616 0144 6D5F7175 		.ascii	"m_queue\000"
 2616      65756500 
 2617              	.LASF83:
 2618 014c 76746C69 		.ascii	"vtlist\000"
 2618      737400
 2619              	.LASF153:
 2620 0153 6368544D 		.ascii	"chTMStartMeasurementX\000"
 2620      53746172 
 2620      744D6561 
 2620      73757265 
 2620      6D656E74 
 2621              	.LASF154:
 2622 0169 6368544D 		.ascii	"chTMStopMeasurementX\000"
 2622      53746F70 
 2622      4D656173 
 2622      7572656D 
 2622      656E7458 
 2623              	.LASF9:
 2624 017e 6C6F6E67 		.ascii	"long int\000"
 2624      20696E74 
 2624      00
 2625              	.LASF21:
 2626 0187 74737461 		.ascii	"tstate_t\000"
 2626      74655F74 
 2626      00
 2627              	.LASF117:
 2628 0190 73655F74 		.ascii	"se_tp\000"
 2628      7000
 2629              	.LASF92:
 2630 0196 534C4545 		.ascii	"SLEEPCNT\000"
 2630      50434E54 
 2630      00
 2631              	.LASF34:
 2632 019f 705F6E65 		.ascii	"p_newer\000"
 2632      77657200 
 2633              	.LASF145:
 2634 01a7 735F7175 		.ascii	"s_queue\000"
 2634      65756500 
 2635              	.LASF121:
 2636 01af 74625F73 		.ascii	"tb_size\000"
 2636      697A6500 
 2637              	.LASF60:
 2638 01b7 725F6E65 		.ascii	"r_newer\000"
 2638      77657200 
 2639              	.LASF112:
 2640 01bf 72656761 		.ascii	"regarm_t\000"
 2640      726D5F74 
 2640      00
 2641              	.LASF67:
 2642 01c8 76745F70 		.ascii	"vt_prev\000"
 2642      72657600 
 2643              	.LASF75:
 2644 01d0 63685F73 		.ascii	"ch_system_debug\000"
 2644      79737465 
 2644      6D5F6465 
ARM GAS  /tmp/ccFUDirs.s 			page 49


 2644      62756700 
 2645              	.LASF152:
 2646 01e0 6D757465 		.ascii	"mutex_t\000"
 2646      785F7400 
 2647              	.LASF78:
 2648 01e8 6C6F636B 		.ascii	"lock_cnt\000"
 2648      5F636E74 
 2648      00
 2649              	.LASF86:
 2650 01f1 69646C65 		.ascii	"idle_thread_wa\000"
 2650      5F746872 
 2650      6561645F 
 2650      776100
 2651              	.LASF26:
 2652 0200 636E745F 		.ascii	"cnt_t\000"
 2652      7400
 2653              	.LASF97:
 2654 0206 4D41534B 		.ascii	"MASK0\000"
 2654      3000
 2655              	.LASF0:
 2656 020c 756E7369 		.ascii	"unsigned int\000"
 2656      676E6564 
 2656      20696E74 
 2656      00
 2657              	.LASF66:
 2658 0219 76745F6E 		.ascii	"vt_next\000"
 2658      65787400 
 2659              	.LASF105:
 2660 0221 4D41534B 		.ascii	"MASK2\000"
 2660      3200
 2661              	.LASF109:
 2662 0227 4D41534B 		.ascii	"MASK3\000"
 2662      3300
 2663              	.LASF141:
 2664 022d 77747365 		.ascii	"wtsemp\000"
 2664      6D7000
 2665              	.LASF42:
 2666 0234 705F6D73 		.ascii	"p_msgqueue\000"
 2666      67717565 
 2666      756500
 2667              	.LASF56:
 2668 023f 63685F72 		.ascii	"ch_ready_list\000"
 2668      65616479 
 2668      5F6C6973 
 2668      7400
 2669              	.LASF132:
 2670 024d 6E5F6972 		.ascii	"n_irq\000"
 2670      7100
 2671              	.LASF146:
 2672 0253 735F636E 		.ascii	"s_cnt\000"
 2672      7400
 2673              	.LASF127:
 2674 0259 62657374 		.ascii	"best\000"
 2674      00
 2675              	.LASF6:
 2676 025e 73686F72 		.ascii	"short unsigned int\000"
 2676      7420756E 
ARM GAS  /tmp/ccFUDirs.s 			page 50


 2676      7369676E 
 2676      65642069 
 2676      6E7400
 2677              	.LASF136:
 2678 0271 6B65726E 		.ascii	"kernel_stats_t\000"
 2678      656C5F73 
 2678      74617473 
 2678      5F7400
 2679              	.LASF51:
 2680 0280 63685F74 		.ascii	"ch_thread\000"
 2680      68726561 
 2680      6400
 2681              	.LASF91:
 2682 028a 45584343 		.ascii	"EXCCNT\000"
 2682      4E5400
 2683              	.LASF24:
 2684 0291 6D73675F 		.ascii	"msg_t\000"
 2684      7400
 2685              	.LASF129:
 2686 0297 6C617374 		.ascii	"last\000"
 2686      00
 2687              	.LASF27:
 2688 029c 75636E74 		.ascii	"ucnt_t\000"
 2688      5F7400
 2689              	.LASF80:
 2690 02a3 63685F73 		.ascii	"ch_system_t\000"
 2690      79737465 
 2690      6D5F7400 
 2691              	.LASF123:
 2692 02af 74625F62 		.ascii	"tb_buffer\000"
 2692      75666665 
 2692      7200
 2693              	.LASF135:
 2694 02b9 6D5F6372 		.ascii	"m_crit_isr\000"
 2694      69745F69 
 2694      737200
 2695              	.LASF45:
 2696 02c4 705F6D74 		.ascii	"p_mtxlist\000"
 2696      786C6973 
 2696      7400
 2697              	.LASF25:
 2698 02ce 6576656E 		.ascii	"eventmask_t\000"
 2698      746D6173 
 2698      6B5F7400 
 2699              	.LASF8:
 2700 02da 5F5F696E 		.ascii	"__int32_t\000"
 2700      7433325F 
 2700      7400
 2701              	.LASF156:
 2702 02e4 6368544D 		.ascii	"chTMChainMeasurementToX\000"
 2702      43686169 
 2702      6E4D6561 
 2702      73757265 
 2702      6D656E74 
 2703              	.LASF113:
 2704 02fc 73746B61 		.ascii	"stkalign_t\000"
 2704      6C69676E 
ARM GAS  /tmp/ccFUDirs.s 			page 51


 2704      5F7400
 2705              	.LASF89:
 2706 0307 43594343 		.ascii	"CYCCNT\000"
 2706      4E5400
 2707              	.LASF41:
 2708 030e 705F7761 		.ascii	"p_waiting\000"
 2708      6974696E 
 2708      6700
 2709              	.LASF87:
 2710 0318 73697A65 		.ascii	"sizetype\000"
 2710      74797065 
 2710      00
 2711              	.LASF49:
 2712 0321 74687265 		.ascii	"thread_reference_t\000"
 2712      61645F72 
 2712      65666572 
 2712      656E6365 
 2712      5F7400
 2713              	.LASF126:
 2714 0334 746D5F63 		.ascii	"tm_calibration_t\000"
 2714      616C6962 
 2714      72617469 
 2714      6F6E5F74 
 2714      00
 2715              	.LASF72:
 2716 0345 63685F76 		.ascii	"ch_virtual_timers_list\000"
 2716      69727475 
 2716      616C5F74 
 2716      696D6572 
 2716      735F6C69 
 2717              	.LASF2:
 2718 035c 6C6F6E67 		.ascii	"long double\000"
 2718      20646F75 
 2718      626C6500 
 2719              	.LASF120:
 2720 0368 63685F73 		.ascii	"ch_swc_event_t\000"
 2720      77635F65 
 2720      76656E74 
 2720      5F7400
 2721              	.LASF73:
 2722 0377 76745F6C 		.ascii	"vt_lasttime\000"
 2722      61737474 
 2722      696D6500 
 2723              	.LASF35:
 2724 0383 705F6F6C 		.ascii	"p_older\000"
 2724      64657200 
 2725              	.LASF59:
 2726 038b 725F6374 		.ascii	"r_ctx\000"
 2726      7800
 2727              	.LASF33:
 2728 0391 705F6374 		.ascii	"p_ctx\000"
 2728      7800
 2729              	.LASF100:
 2730 0397 434F4D50 		.ascii	"COMP1\000"
 2730      3100
 2731              	.LASF104:
 2732 039d 434F4D50 		.ascii	"COMP2\000"
ARM GAS  /tmp/ccFUDirs.s 			page 52


 2732      3200
 2733              	.LASF108:
 2734 03a3 434F4D50 		.ascii	"COMP3\000"
 2734      3300
 2735              	.LASF37:
 2736 03a9 705F7374 		.ascii	"p_stklimit\000"
 2736      6B6C696D 
 2736      697400
 2737              	.LASF62:
 2738 03b4 725F6375 		.ascii	"r_current\000"
 2738      7272656E 
 2738      7400
 2739              	.LASF61:
 2740 03be 725F6F6C 		.ascii	"r_older\000"
 2740      64657200 
 2741              	.LASF12:
 2742 03c6 5F5F7569 		.ascii	"__uint64_t\000"
 2742      6E743634 
 2742      5F7400
 2743              	.LASF130:
 2744 03d1 63756D75 		.ascii	"cumulative\000"
 2744      6C617469 
 2744      766500
 2745              	.LASF22:
 2746 03dc 74726566 		.ascii	"trefs_t\000"
 2746      735F7400 
 2747              	.LASF99:
 2748 03e4 52455345 		.ascii	"RESERVED0\000"
 2748      52564544 
 2748      3000
 2749              	.LASF103:
 2750 03ee 52455345 		.ascii	"RESERVED1\000"
 2750      52564544 
 2750      3100
 2751              	.LASF107:
 2752 03f8 52455345 		.ascii	"RESERVED2\000"
 2752      52564544 
 2752      3200
 2753              	.LASF64:
 2754 0402 76697274 		.ascii	"virtual_timer_t\000"
 2754      75616C5F 
 2754      74696D65 
 2754      725F7400 
 2755              	.LASF31:
 2756 0412 705F7072 		.ascii	"p_prev\000"
 2756      657600
 2757              	.LASF23:
 2758 0419 74707269 		.ascii	"tprio_t\000"
 2758      6F5F7400 
 2759              	.LASF95:
 2760 0421 50435352 		.ascii	"PCSR\000"
 2760      00
 2761              	.LASF133:
 2762 0426 6E5F6374 		.ascii	"n_ctxswc\000"
 2762      78737763 
 2762      00
 2763              	.LASF101:
ARM GAS  /tmp/ccFUDirs.s 			page 53


 2764 042f 4D41534B 		.ascii	"MASK1\000"
 2764      3100
 2765              	.LASF15:
 2766 0435 696E7433 		.ascii	"int32_t\000"
 2766      325F7400 
 2767              	.LASF4:
 2768 043d 756E7369 		.ascii	"unsigned char\000"
 2768      676E6564 
 2768      20636861 
 2768      7200
 2769              	.LASF159:
 2770 044b 49544D5F 		.ascii	"ITM_RxBuffer\000"
 2770      52784275 
 2770      66666572 
 2770      00
 2771              	.LASF98:
 2772 0458 46554E43 		.ascii	"FUNCTION0\000"
 2772      54494F4E 
 2772      3000
 2773              	.LASF102:
 2774 0462 46554E43 		.ascii	"FUNCTION1\000"
 2774      54494F4E 
 2774      3100
 2775              	.LASF106:
 2776 046c 46554E43 		.ascii	"FUNCTION2\000"
 2776      54494F4E 
 2776      3200
 2777              	.LASF110:
 2778 0476 46554E43 		.ascii	"FUNCTION3\000"
 2778      54494F4E 
 2778      3300
 2779              	.LASF5:
 2780 0480 73686F72 		.ascii	"short int\000"
 2780      7420696E 
 2780      7400
 2781              	.LASF38:
 2782 048a 705F7374 		.ascii	"p_state\000"
 2782      61746500 
 2783              	.LASF58:
 2784 0492 725F7072 		.ascii	"r_prio\000"
 2784      696F00
 2785              	.LASF160:
 2786 0499 474E5520 		.ascii	"GNU C11 5.3.1 20160307 (release) [ARM/embedded-5-br"
 2786      43313120 
 2786      352E332E 
 2786      31203230 
 2786      31363033 
 2787 04cc 616E6368 		.ascii	"anch revision 234589] -mcpu=cortex-m4 -mno-thumb-in"
 2787      20726576 
 2787      6973696F 
 2787      6E203233 
 2787      34353839 
 2788 04ff 74657277 		.ascii	"terwork -mthumb -ggdb -O2 -fomit-frame-pointer -fal"
 2788      6F726B20 
 2788      2D6D7468 
 2788      756D6220 
 2788      2D676764 
ARM GAS  /tmp/ccFUDirs.s 			page 54


 2789 0532 69676E2D 		.ascii	"ign-functions=16 -ffunction-sections -fdata-section"
 2789      66756E63 
 2789      74696F6E 
 2789      733D3136 
 2789      202D6666 
 2790 0565 73202D66 		.ascii	"s -fno-common\000"
 2790      6E6F2D63 
 2790      6F6D6D6F 
 2790      6E00
 2791              	.LASF143:
 2792 0573 65776D61 		.ascii	"ewmask\000"
 2792      736B00
 2793              	.LASF30:
 2794 057a 705F6E65 		.ascii	"p_next\000"
 2794      787400
 2795              	.LASF20:
 2796 0581 746D6F64 		.ascii	"tmode_t\000"
 2796      655F7400 
 2797              	.LASF39:
 2798 0589 705F666C 		.ascii	"p_flags\000"
 2798      61677300 
 2799              	.LASF48:
 2800 0591 705F7374 		.ascii	"p_stats\000"
 2800      61747300 
 2801              	.LASF81:
 2802 0599 63685F73 		.ascii	"ch_system\000"
 2802      79737465 
 2802      6D00
 2803              	.LASF65:
 2804 05a3 63685F76 		.ascii	"ch_virtual_timer\000"
 2804      69727475 
 2804      616C5F74 
 2804      696D6572 
 2804      00
 2805              	.LASF144:
 2806 05b4 63685F73 		.ascii	"ch_semaphore\000"
 2806      656D6170 
 2806      686F7265 
 2806      00
 2807              	.LASF44:
 2808 05c1 705F6570 		.ascii	"p_epending\000"
 2808      656E6469 
 2808      6E6700
 2809              	.LASF93:
 2810 05cc 4C535543 		.ascii	"LSUCNT\000"
 2810      4E5400
 2811              	.LASF16:
 2812 05d3 75696E74 		.ascii	"uint32_t\000"
 2812      33325F74 
 2812      00
 2813              	.LASF142:
 2814 05dc 77746D74 		.ascii	"wtmtxp\000"
 2814      787000
 2815              	.LASF57:
 2816 05e3 725F7175 		.ascii	"r_queue\000"
 2816      65756500 
 2817              	.LASF68:
ARM GAS  /tmp/ccFUDirs.s 			page 55


 2818 05eb 76745F64 		.ascii	"vt_delta\000"
 2818      656C7461 
 2818      00
 2819              	.LASF52:
 2820 05f4 63685F74 		.ascii	"ch_threads_list\000"
 2820      68726561 
 2820      64735F6C 
 2820      69737400 
 2821              	.LASF11:
 2822 0604 6C6F6E67 		.ascii	"long unsigned int\000"
 2822      20756E73 
 2822      69676E65 
 2822      6420696E 
 2822      7400
 2823              	.LASF151:
 2824 0616 63686172 		.ascii	"char\000"
 2824      00
 2825              	.LASF29:
 2826 061b 74687265 		.ascii	"thread_t\000"
 2826      61645F74 
 2826      00
 2827              	.LASF162:
 2828 0624 706F7274 		.ascii	"port_rt_get_counter_value\000"
 2828      5F72745F 
 2828      6765745F 
 2828      636F756E 
 2828      7465725F 
 2829              	.LASF150:
 2830 063e 6D5F6E65 		.ascii	"m_next\000"
 2830      787400
 2831              	.LASF28:
 2832 0645 73797374 		.ascii	"systime_t\000"
 2832      696D655F 
 2832      7400
 2833              	.LASF46:
 2834 064f 705F7265 		.ascii	"p_realprio\000"
 2834      616C7072 
 2834      696F00
 2835              	.LASF63:
 2836 065a 76746675 		.ascii	"vtfunc_t\000"
 2836      6E635F74 
 2836      00
 2837              	.LASF10:
 2838 0663 5F5F7569 		.ascii	"__uint32_t\000"
 2838      6E743332 
 2838      5F7400
 2839              	.LASF76:
 2840 066e 70616E69 		.ascii	"panic_msg\000"
 2840      635F6D73 
 2840      6700
 2841              	.LASF125:
 2842 0678 6F666673 		.ascii	"offset\000"
 2842      657400
 2843              	.LASF114:
 2844 067f 636F6E74 		.ascii	"context\000"
 2844      65787400 
 2845              	.LASF111:
ARM GAS  /tmp/ccFUDirs.s 			page 56


 2846 0687 4457545F 		.ascii	"DWT_Type\000"
 2846      54797065 
 2846      00
 2847              	.LASF18:
 2848 0690 7274636E 		.ascii	"rtcnt_t\000"
 2848      745F7400 
 2849              	.LASF88:
 2850 0698 4354524C 		.ascii	"CTRL\000"
 2850      00
 2851              	.LASF70:
 2852 069d 76745F70 		.ascii	"vt_par\000"
 2852      617200
 2853              	.LASF96:
 2854 06a4 434F4D50 		.ascii	"COMP0\000"
 2854      3000
 2855              	.LASF53:
 2856 06aa 74687265 		.ascii	"threads_queue_t\000"
 2856      6164735F 
 2856      71756575 
 2856      655F7400 
 2857              	.LASF147:
 2858 06ba 63685F6D 		.ascii	"ch_mutex\000"
 2858      75746578 
 2858      00
 2859              	.LASF40:
 2860 06c3 705F7265 		.ascii	"p_refs\000"
 2860      667300
 2861              	.LASF77:
 2862 06ca 6973725F 		.ascii	"isr_cnt\000"
 2862      636E7400 
 2863              	.LASF161:
 2864 06d2 2F686F6D 		.ascii	"/home/selim/working/ChibiOS/os/rt/src/chtm.c\000"
 2864      652F7365 
 2864      6C696D2F 
 2864      776F726B 
 2864      696E672F 
 2865              	.LASF82:
 2866 06ff 726C6973 		.ascii	"rlist\000"
 2866      7400
 2867              	.LASF14:
 2868 0705 75696E74 		.ascii	"uint8_t\000"
 2868      385F7400 
 2869              	.LASF94:
 2870 070d 464F4C44 		.ascii	"FOLDCNT\000"
 2870      434E5400 
 2871              	.LASF139:
 2872 0715 77746F62 		.ascii	"wtobjp\000"
 2872      6A7000
 2873              	.LASF36:
 2874 071c 705F6E61 		.ascii	"p_name\000"
 2874      6D6500
 2875              	.LASF50:
 2876 0723 74687265 		.ascii	"threads_list_t\000"
 2876      6164735F 
 2876      6C697374 
 2876      5F7400
 2877              	.LASF79:
ARM GAS  /tmp/ccFUDirs.s 			page 57


 2878 0732 74726163 		.ascii	"trace_buffer\000"
 2878      655F6275 
 2878      66666572 
 2878      00
 2879              	.LASF43:
 2880 073f 705F6D73 		.ascii	"p_msg\000"
 2880      6700
 2881              	.LASF134:
 2882 0745 6D5F6372 		.ascii	"m_crit_thd\000"
 2882      69745F74 
 2882      686400
 2883              	.LASF149:
 2884 0750 6D5F6F77 		.ascii	"m_owner\000"
 2884      6E657200 
 2885              	.LASF118:
 2886 0758 73655F77 		.ascii	"se_wtobjp\000"
 2886      746F626A 
 2886      7000
 2887              	.LASF69:
 2888 0762 76745F66 		.ascii	"vt_func\000"
 2888      756E6300 
 2889              	.LASF155:
 2890 076a 5F746D5F 		.ascii	"_tm_init\000"
 2890      696E6974 
 2890      00
 2891              		.ident	"GCC: (GNU Tools for ARM Embedded Processors) 5.3.1 20160307 (release) [ARM/embedded-5-bran
ARM GAS  /tmp/ccFUDirs.s 			page 58


DEFINED SYMBOLS
                            *ABS*:0000000000000000 chtm.c
     /tmp/ccFUDirs.s:20     .text.chTMObjectInit:0000000000000000 $t
     /tmp/ccFUDirs.s:26     .text.chTMObjectInit:0000000000000000 chTMObjectInit
     /tmp/ccFUDirs.s:52     .text.chTMStartMeasurementX:0000000000000000 $t
     /tmp/ccFUDirs.s:58     .text.chTMStartMeasurementX:0000000000000000 chTMStartMeasurementX
     /tmp/ccFUDirs.s:80     .text.chTMStartMeasurementX:0000000000000008 $d
     /tmp/ccFUDirs.s:85     .text.chTMStopMeasurementX:0000000000000000 $t
     /tmp/ccFUDirs.s:91     .text.chTMStopMeasurementX:0000000000000000 chTMStopMeasurementX
     /tmp/ccFUDirs.s:194    .text.chTMStopMeasurementX:0000000000000040 $d
     /tmp/ccFUDirs.s:200    .text._tm_init:0000000000000000 $t
     /tmp/ccFUDirs.s:206    .text._tm_init:0000000000000000 _tm_init
     /tmp/ccFUDirs.s:276    .text._tm_init:0000000000000038 $d
     /tmp/ccFUDirs.s:281    .text.chTMChainMeasurementToX:0000000000000000 $t
     /tmp/ccFUDirs.s:287    .text.chTMChainMeasurementToX:0000000000000000 chTMChainMeasurementToX
     /tmp/ccFUDirs.s:386    .text.chTMChainMeasurementToX:000000000000003c $d
                     .debug_frame:0000000000000010 $d

UNDEFINED SYMBOLS
ch
