ARM GAS  /tmp/ccXYQMA7.s 			page 1


   1              		.syntax unified
   2              		.cpu cortex-m4
   3              		.fpu softvfp
   4              		.eabi_attribute 20, 1
   5              		.eabi_attribute 21, 1
   6              		.eabi_attribute 23, 3
   7              		.eabi_attribute 24, 1
   8              		.eabi_attribute 25, 1
   9              		.eabi_attribute 26, 1
  10              		.eabi_attribute 30, 2
  11              		.eabi_attribute 34, 1
  12              		.eabi_attribute 18, 4
  13              		.thumb
  14              		.syntax unified
  15              		.file	"hal_lld.c"
  16              		.text
  17              	.Ltext0:
  18              		.cfi_sections	.debug_frame
  19              		.section	.text.hal_lld_init,"ax",%progbits
  20              		.align	2
  21              		.p2align 4,,15
  22              		.global	hal_lld_init
  23              		.thumb
  24              		.thumb_func
  25              		.type	hal_lld_init, %function
  26              	hal_lld_init:
  27              	.LFB259:
  28              		.file 1 "/home/selim/working/ChibiOS/os/hal/ports/STM32/STM32F4xx/hal_lld.c"
  29              		.loc 1 114 0
  30              		.cfi_startproc
  31              		@ args = 0, pretend = 0, frame = 0
  32              		@ frame_needed = 0, uses_anonymous_args = 0
  33              		@ link register save eliminated.
  34              		.loc 1 118 0
  35 0000 164B     		ldr	r3, .L8
  36 0002 4FF0FF31 		mov	r1, #-1
  37 0006 1A69     		ldr	r2, [r3, #16]
  38 0008 0022     		movs	r2, #0
  39              		.loc 1 114 0
  40 000a 10B4     		push	{r4}
  41              		.cfi_def_cfa_offset 4
  42              		.cfi_offset 4, -4
  43              		.loc 1 118 0
  44 000c 1961     		str	r1, [r3, #16]
  45 000e 1A61     		str	r2, [r3, #16]
  46              		.loc 1 119 0
  47 0010 5869     		ldr	r0, [r3, #20]
  48 0012 5961     		str	r1, [r3, #20]
  49 0014 5A61     		str	r2, [r3, #20]
  50              		.loc 1 120 0
  51 0016 186A     		ldr	r0, [r3, #32]
  52              	.LBB4:
  53              	.LBB5:
  54              		.loc 1 57 0
  55 0018 114C     		ldr	r4, .L8+4
  56              	.LBE5:
  57              	.LBE4:
ARM GAS  /tmp/ccXYQMA7.s 			page 2


  58              		.loc 1 120 0
  59 001a 60F08050 		orn	r0, r0, #268435456
  60 001e 1862     		str	r0, [r3, #32]
  61 0020 1A62     		str	r2, [r3, #32]
  62              		.loc 1 121 0
  63 0022 586A     		ldr	r0, [r3, #36]
  64 0024 5962     		str	r1, [r3, #36]
  65 0026 5A62     		str	r2, [r3, #36]
  66              		.loc 1 124 0
  67 0028 196C     		ldr	r1, [r3, #64]
  68 002a 41F08051 		orr	r1, r1, #268435456
  69 002e 1964     		str	r1, [r3, #64]
  70              	.LBB8:
  71              	.LBB6:
  72              		.loc 1 57 0
  73 0030 2168     		ldr	r1, [r4]
  74 0032 41F48071 		orr	r1, r1, #256
  75 0036 2160     		str	r1, [r4]
  76              		.loc 1 60 0
  77 0038 196F     		ldr	r1, [r3, #112]
  78 003a 01F44071 		and	r1, r1, #768
  79 003e B1F5007F 		cmp	r1, #512
  80 0042 03D0     		beq	.L2
  81              		.loc 1 62 0
  82 0044 4FF48031 		mov	r1, #65536
  83 0048 1967     		str	r1, [r3, #112]
  84              		.loc 1 63 0
  85 004a 1A67     		str	r2, [r3, #112]
  86              	.L2:
  87              		.loc 1 97 0
  88 004c 044A     		ldr	r2, .L8+4
  89              	.LBE6:
  90              	.LBE8:
  91              		.loc 1 137 0
  92 004e 10BC     		pop	{r4}
  93              		.cfi_restore 4
  94              		.cfi_def_cfa_offset 0
  95              	.LBB9:
  96              	.LBB7:
  97              		.loc 1 97 0
  98 0050 5368     		ldr	r3, [r2, #4]
  99 0052 23F40073 		bic	r3, r3, #512
 100 0056 5360     		str	r3, [r2, #4]
 101              	.LBE7:
 102              	.LBE9:
 103              		.loc 1 130 0
 104 0058 FFF7FEBF 		b	dmaInit
 105              	.LVL0:
 106              	.L9:
 107              		.align	2
 108              	.L8:
 109 005c 00380240 		.word	1073887232
 110 0060 00700040 		.word	1073770496
 111              		.cfi_endproc
 112              	.LFE259:
 113              		.size	hal_lld_init, .-hal_lld_init
 114              		.section	.text.stm32_clock_init,"ax",%progbits
ARM GAS  /tmp/ccXYQMA7.s 			page 3


 115              		.align	2
 116              		.p2align 4,,15
 117              		.global	stm32_clock_init
 118              		.thumb
 119              		.thumb_func
 120              		.type	stm32_clock_init, %function
 121              	stm32_clock_init:
 122              	.LFB260:
 123              		.loc 1 146 0
 124              		.cfi_startproc
 125              		@ args = 0, pretend = 0, frame = 0
 126              		@ frame_needed = 0, uses_anonymous_args = 0
 127              		@ link register save eliminated.
 128              		.loc 1 150 0
 129 0000 2C49     		ldr	r1, .L31
 130              		.loc 1 154 0
 131 0002 2D4B     		ldr	r3, .L31+4
 132              		.loc 1 150 0
 133 0004 4FF08050 		mov	r0, #268435456
 134              		.loc 1 154 0
 135 0008 4FF44042 		mov	r2, #49152
 136              		.loc 1 150 0
 137 000c 0864     		str	r0, [r1, #64]
 138              		.loc 1 154 0
 139 000e 1A60     		str	r2, [r3]
 140              		.loc 1 161 0
 141 0010 0B68     		ldr	r3, [r1]
 142 0012 43F00103 		orr	r3, r3, #1
 143 0016 0B60     		str	r3, [r1]
 144              	.L11:
 145              		.loc 1 162 0 discriminator 1
 146 0018 0A68     		ldr	r2, [r1]
 147 001a 264B     		ldr	r3, .L31
 148 001c 9007     		lsls	r0, r2, #30
 149 001e FBD5     		bpl	.L11
 150              		.loc 1 168 0
 151 0020 9A68     		ldr	r2, [r3, #8]
 152 0022 22F00302 		bic	r2, r2, #3
 153 0026 9A60     		str	r2, [r3, #8]
 154              		.loc 1 169 0
 155 0028 9A68     		ldr	r2, [r3, #8]
 156 002a 9A60     		str	r2, [r3, #8]
 157              		.loc 1 170 0
 158 002c 1946     		mov	r1, r3
 159              	.L12:
 160              		.loc 1 170 0 is_stmt 0 discriminator 1
 161 002e 8B68     		ldr	r3, [r1, #8]
 162 0030 204A     		ldr	r2, .L31
 163 0032 13F00C03 		ands	r3, r3, #12
 164 0036 FAD1     		bne	.L12
 165              		.loc 1 174 0 is_stmt 1
 166 0038 1168     		ldr	r1, [r2]
 167 003a 01F0F901 		and	r1, r1, #249
 168 003e 1160     		str	r1, [r2]
 169              		.loc 1 175 0
 170 0040 9360     		str	r3, [r2, #8]
 171              		.loc 1 184 0
ARM GAS  /tmp/ccXYQMA7.s 			page 4


 172 0042 1368     		ldr	r3, [r2]
 173 0044 43F48033 		orr	r3, r3, #65536
 174 0048 1360     		str	r3, [r2]
 175              	.L13:
 176              		.loc 1 186 0 discriminator 1
 177 004a 1168     		ldr	r1, [r2]
 178 004c 194B     		ldr	r3, .L31
 179 004e 8903     		lsls	r1, r1, #14
 180 0050 FBD5     		bpl	.L13
 181              		.loc 1 192 0
 182 0052 5A6F     		ldr	r2, [r3, #116]
 183 0054 42F00102 		orr	r2, r2, #1
 184 0058 5A67     		str	r2, [r3, #116]
 185              	.L14:
 186              		.loc 1 193 0 discriminator 1
 187 005a 5A6F     		ldr	r2, [r3, #116]
 188 005c 1549     		ldr	r1, .L31
 189 005e 9007     		lsls	r0, r2, #30
 190 0060 FBD5     		bpl	.L14
 191              		.loc 1 199 0
 192 0062 164B     		ldr	r3, .L31+8
 193 0064 4B60     		str	r3, [r1, #4]
 194              		.loc 1 201 0
 195 0066 0B68     		ldr	r3, [r1]
 196              		.loc 1 205 0
 197 0068 134A     		ldr	r2, .L31+4
 198              		.loc 1 201 0
 199 006a 43F08073 		orr	r3, r3, #16777216
 200 006e 0B60     		str	r3, [r1]
 201              	.L15:
 202              		.loc 1 205 0 discriminator 1
 203 0070 5368     		ldr	r3, [r2, #4]
 204 0072 5904     		lsls	r1, r3, #17
 205 0074 FCD5     		bpl	.L15
 206              		.loc 1 221 0 discriminator 1
 207 0076 0F49     		ldr	r1, .L31
 208              	.L25:
 209 0078 0A68     		ldr	r2, [r1]
 210 007a 0E4B     		ldr	r3, .L31
 211 007c 9201     		lsls	r2, r2, #6
 212 007e FBD5     		bpl	.L25
 213              		.loc 1 249 0
 214 0080 0F4A     		ldr	r2, .L31+12
 215              		.loc 1 236 0
 216 0082 1049     		ldr	r1, .L31+16
 217 0084 9960     		str	r1, [r3, #8]
 218              		.loc 1 249 0
 219 0086 40F20571 		movw	r1, #1797
 220 008a 1160     		str	r1, [r2]
 221              		.loc 1 255 0
 222 008c 9A68     		ldr	r2, [r3, #8]
 223 008e 42F00202 		orr	r2, r2, #2
 224 0092 9A60     		str	r2, [r3, #8]
 225              		.loc 1 256 0
 226 0094 1A46     		mov	r2, r3
 227              	.L17:
 228              		.loc 1 256 0 is_stmt 0 discriminator 1
ARM GAS  /tmp/ccXYQMA7.s 			page 5


 229 0096 9368     		ldr	r3, [r2, #8]
 230 0098 0649     		ldr	r1, .L31
 231 009a 03F00C03 		and	r3, r3, #12
 232 009e 082B     		cmp	r3, #8
 233 00a0 F9D1     		bne	.L17
 234              		.loc 1 263 0 is_stmt 1
 235 00a2 4B6C     		ldr	r3, [r1, #68]
 236 00a4 43F48043 		orr	r3, r3, #16384
 237 00a8 4B64     		str	r3, [r1, #68]
 238 00aa 4B6E     		ldr	r3, [r1, #100]
 239 00ac 43F48043 		orr	r3, r3, #16384
 240 00b0 4B66     		str	r3, [r1, #100]
 241 00b2 7047     		bx	lr
 242              	.L32:
 243              		.align	2
 244              	.L31:
 245 00b4 00380240 		.word	1073887232
 246 00b8 00700040 		.word	1073770496
 247 00bc 08544007 		.word	121656328
 248 00c0 003C0240 		.word	1073888256
 249 00c4 00940838 		.word	940086272
 250              		.cfi_endproc
 251              	.LFE260:
 252              		.size	stm32_clock_init, .-stm32_clock_init
 253              		.global	SystemCoreClock
 254              		.section	.data.SystemCoreClock,"aw",%progbits
 255              		.align	2
 256              		.type	SystemCoreClock, %object
 257              		.size	SystemCoreClock, 4
 258              	SystemCoreClock:
 259 0000 007A030A 		.word	168000000
 260              		.text
 261              	.Letext0:
 262              		.file 2 "/usr/lib/gcc/arm-none-eabi/5.3.1/include/stddef.h"
 263              		.file 3 "/usr/arm-none-eabi/include/machine/_default_types.h"
 264              		.file 4 "/usr/arm-none-eabi/include/sys/_stdint.h"
 265              		.file 5 "/home/selim/working/ChibiOS/os/rt/ports/ARMCMx/compilers/GCC/chtypes.h"
 266              		.file 6 "/home/selim/working/ChibiOS/os/rt/include/chsystypes.h"
 267              		.file 7 "/home/selim/working/ChibiOS/os/rt/include/chschd.h"
 268              		.file 8 "/home/selim/working/ChibiOS/os/ext/CMSIS/ST/stm32f407xx.h"
 269              		.file 9 "/home/selim/working/ChibiOS/os/rt/ports/ARMCMx/chcore.h"
 270              		.file 10 "/home/selim/working/ChibiOS/os/rt/ports/ARMCMx/chcore_v7m.h"
 271              		.file 11 "/home/selim/working/ChibiOS/os/rt/include/chdebug.h"
 272              		.file 12 "/home/selim/working/ChibiOS/os/rt/include/chtm.h"
 273              		.file 13 "/home/selim/working/ChibiOS/os/rt/include/chstats.h"
 274              		.file 14 "/home/selim/working/ChibiOS/os/rt/include/chsem.h"
 275              		.file 15 "/home/selim/working/ChibiOS/os/rt/include/chmtx.h"
 276              		.file 16 "/home/selim/working/ChibiOS/os/ext/CMSIS/include/core_cm4.h"
 277              		.file 17 "/home/selim/working/ChibiOS/os/hal/ports/STM32/STM32F4xx/stm32_dma.h"
 278              		.section	.debug_info,"",%progbits
 279              	.Ldebug_info0:
 280 0000 890A0000 		.4byte	0xa89
 281 0004 0400     		.2byte	0x4
 282 0006 00000000 		.4byte	.Ldebug_abbrev0
 283 000a 04       		.byte	0x4
 284 000b 01       		.uleb128 0x1
 285 000c 1C050000 		.4byte	.LASF167
ARM GAS  /tmp/ccXYQMA7.s 			page 6


 286 0010 0C       		.byte	0xc
 287 0011 15020000 		.4byte	.LASF168
 288 0015 20000000 		.4byte	.Ldebug_ranges0+0x20
 289 0019 00000000 		.4byte	0
 290 001d 00000000 		.4byte	.Ldebug_line0
 291 0021 02       		.uleb128 0x2
 292 0022 04       		.byte	0x4
 293 0023 05       		.byte	0x5
 294 0024 696E7400 		.ascii	"int\000"
 295 0028 03       		.uleb128 0x3
 296 0029 1C000000 		.4byte	.LASF4
 297 002d 02       		.byte	0x2
 298 002e D8       		.byte	0xd8
 299 002f 33000000 		.4byte	0x33
 300 0033 04       		.uleb128 0x4
 301 0034 04       		.byte	0x4
 302 0035 07       		.byte	0x7
 303 0036 89020000 		.4byte	.LASF0
 304 003a 04       		.uleb128 0x4
 305 003b 08       		.byte	0x8
 306 003c 05       		.byte	0x5
 307 003d 38010000 		.4byte	.LASF1
 308 0041 04       		.uleb128 0x4
 309 0042 08       		.byte	0x8
 310 0043 04       		.byte	0x4
 311 0044 F6030000 		.4byte	.LASF2
 312 0048 04       		.uleb128 0x4
 313 0049 01       		.byte	0x1
 314 004a 06       		.byte	0x6
 315 004b 46010000 		.4byte	.LASF3
 316 004f 03       		.uleb128 0x3
 317 0050 40000000 		.4byte	.LASF5
 318 0054 03       		.byte	0x3
 319 0055 1D       		.byte	0x1d
 320 0056 5A000000 		.4byte	0x5a
 321 005a 04       		.uleb128 0x4
 322 005b 01       		.byte	0x1
 323 005c 08       		.byte	0x8
 324 005d E1040000 		.4byte	.LASF6
 325 0061 04       		.uleb128 0x4
 326 0062 02       		.byte	0x2
 327 0063 05       		.byte	0x5
 328 0064 F9040000 		.4byte	.LASF7
 329 0068 04       		.uleb128 0x4
 330 0069 02       		.byte	0x2
 331 006a 07       		.byte	0x7
 332 006b D8020000 		.4byte	.LASF8
 333 006f 03       		.uleb128 0x3
 334 0070 85030000 		.4byte	.LASF9
 335 0074 03       		.byte	0x3
 336 0075 3F       		.byte	0x3f
 337 0076 7A000000 		.4byte	0x7a
 338 007a 04       		.uleb128 0x4
 339 007b 04       		.byte	0x4
 340 007c 05       		.byte	0x5
 341 007d 9C010000 		.4byte	.LASF10
 342 0081 03       		.uleb128 0x3
ARM GAS  /tmp/ccXYQMA7.s 			page 7


 343 0082 DB060000 		.4byte	.LASF11
 344 0086 03       		.byte	0x3
 345 0087 41       		.byte	0x41
 346 0088 8C000000 		.4byte	0x8c
 347 008c 04       		.uleb128 0x4
 348 008d 04       		.byte	0x4
 349 008e 07       		.byte	0x7
 350 008f 88060000 		.4byte	.LASF12
 351 0093 03       		.uleb128 0x3
 352 0094 61040000 		.4byte	.LASF13
 353 0098 03       		.byte	0x3
 354 0099 5B       		.byte	0x5b
 355 009a 9E000000 		.4byte	0x9e
 356 009e 04       		.uleb128 0x4
 357 009f 08       		.byte	0x8
 358 00a0 07       		.byte	0x7
 359 00a1 9C000000 		.4byte	.LASF14
 360 00a5 03       		.uleb128 0x3
 361 00a6 71070000 		.4byte	.LASF15
 362 00aa 04       		.byte	0x4
 363 00ab 14       		.byte	0x14
 364 00ac 4F000000 		.4byte	0x4f
 365 00b0 03       		.uleb128 0x3
 366 00b1 D9040000 		.4byte	.LASF16
 367 00b5 04       		.byte	0x4
 368 00b6 1F       		.byte	0x1f
 369 00b7 6F000000 		.4byte	0x6f
 370 00bb 03       		.uleb128 0x3
 371 00bc 4F060000 		.4byte	.LASF17
 372 00c0 04       		.byte	0x4
 373 00c1 20       		.byte	0x20
 374 00c2 81000000 		.4byte	0x81
 375 00c6 03       		.uleb128 0x3
 376 00c7 2A000000 		.4byte	.LASF18
 377 00cb 04       		.byte	0x4
 378 00cc 26       		.byte	0x26
 379 00cd 93000000 		.4byte	0x93
 380 00d1 05       		.uleb128 0x5
 381 00d2 B0000000 		.4byte	0xb0
 382 00d6 05       		.uleb128 0x5
 383 00d7 BB000000 		.4byte	0xbb
 384 00db 03       		.uleb128 0x3
 385 00dc 29070000 		.4byte	.LASF19
 386 00e0 05       		.byte	0x5
 387 00e1 46       		.byte	0x46
 388 00e2 BB000000 		.4byte	0xbb
 389 00e6 03       		.uleb128 0x3
 390 00e7 0D010000 		.4byte	.LASF20
 391 00eb 05       		.byte	0x5
 392 00ec 47       		.byte	0x47
 393 00ed C6000000 		.4byte	0xc6
 394 00f1 03       		.uleb128 0x3
 395 00f2 94070000 		.4byte	.LASF21
 396 00f6 05       		.byte	0x5
 397 00f7 49       		.byte	0x49
 398 00f8 A5000000 		.4byte	0xa5
 399 00fc 03       		.uleb128 0x3
ARM GAS  /tmp/ccXYQMA7.s 			page 8


 400 00fd B8010000 		.4byte	.LASF22
 401 0101 05       		.byte	0x5
 402 0102 4A       		.byte	0x4a
 403 0103 A5000000 		.4byte	0xa5
 404 0107 03       		.uleb128 0x3
 405 0108 77040000 		.4byte	.LASF23
 406 010c 05       		.byte	0x5
 407 010d 4B       		.byte	0x4b
 408 010e A5000000 		.4byte	0xa5
 409 0112 03       		.uleb128 0x3
 410 0113 C2040000 		.4byte	.LASF24
 411 0117 05       		.byte	0x5
 412 0118 4D       		.byte	0x4d
 413 0119 BB000000 		.4byte	0xbb
 414 011d 03       		.uleb128 0x3
 415 011e 0F030000 		.4byte	.LASF25
 416 0122 05       		.byte	0x5
 417 0123 4E       		.byte	0x4e
 418 0124 B0000000 		.4byte	0xb0
 419 0128 03       		.uleb128 0x3
 420 0129 79030000 		.4byte	.LASF26
 421 012d 05       		.byte	0x5
 422 012e 50       		.byte	0x50
 423 012f BB000000 		.4byte	0xbb
 424 0133 03       		.uleb128 0x3
 425 0134 78020000 		.4byte	.LASF27
 426 0138 05       		.byte	0x5
 427 0139 52       		.byte	0x52
 428 013a B0000000 		.4byte	0xb0
 429 013e 03       		.uleb128 0x3
 430 013f 1E030000 		.4byte	.LASF28
 431 0143 05       		.byte	0x5
 432 0144 53       		.byte	0x53
 433 0145 BB000000 		.4byte	0xbb
 434 0149 03       		.uleb128 0x3
 435 014a BD060000 		.4byte	.LASF29
 436 014e 06       		.byte	0x6
 437 014f 33       		.byte	0x33
 438 0150 BB000000 		.4byte	0xbb
 439 0154 03       		.uleb128 0x3
 440 0155 A8060000 		.4byte	.LASF30
 441 0159 06       		.byte	0x6
 442 015a 3F       		.byte	0x3f
 443 015b 5F010000 		.4byte	0x15f
 444 015f 06       		.uleb128 0x6
 445 0160 FA020000 		.4byte	.LASF52
 446 0164 60       		.byte	0x60
 447 0165 07       		.byte	0x7
 448 0166 C2       		.byte	0xc2
 449 0167 65020000 		.4byte	0x265
 450 016b 07       		.uleb128 0x7
 451 016c FD050000 		.4byte	.LASF31
 452 0170 07       		.byte	0x7
 453 0171 C3       		.byte	0xc3
 454 0172 70020000 		.4byte	0x270
 455 0176 00       		.byte	0
 456 0177 07       		.uleb128 0x7
ARM GAS  /tmp/ccXYQMA7.s 			page 9


 457 0178 B1040000 		.4byte	.LASF32
 458 017c 07       		.byte	0x7
 459 017d C5       		.byte	0xc5
 460 017e 70020000 		.4byte	0x270
 461 0182 04       		.byte	0x4
 462 0183 07       		.uleb128 0x7
 463 0184 20010000 		.4byte	.LASF33
 464 0188 07       		.byte	0x7
 465 0189 C7       		.byte	0xc7
 466 018a 12010000 		.4byte	0x112
 467 018e 08       		.byte	0x8
 468 018f 07       		.uleb128 0x7
 469 0190 CC070000 		.4byte	.LASF34
 470 0194 07       		.byte	0x7
 471 0195 C8       		.byte	0xc8
 472 0196 22070000 		.4byte	0x722
 473 019a 0C       		.byte	0xc
 474 019b 07       		.uleb128 0x7
 475 019c CF010000 		.4byte	.LASF35
 476 01a0 07       		.byte	0x7
 477 01a1 CA       		.byte	0xca
 478 01a2 70020000 		.4byte	0x270
 479 01a6 10       		.byte	0x10
 480 01a7 07       		.uleb128 0x7
 481 01a8 25040000 		.4byte	.LASF36
 482 01ac 07       		.byte	0x7
 483 01ad CB       		.byte	0xcb
 484 01ae 70020000 		.4byte	0x270
 485 01b2 14       		.byte	0x14
 486 01b3 07       		.uleb128 0x7
 487 01b4 80070000 		.4byte	.LASF37
 488 01b8 07       		.byte	0x7
 489 01b9 D2       		.byte	0xd2
 490 01ba C6090000 		.4byte	0x9c6
 491 01be 18       		.byte	0x18
 492 01bf 07       		.uleb128 0x7
 493 01c0 7E020000 		.4byte	.LASF38
 494 01c4 07       		.byte	0x7
 495 01c5 D8       		.byte	0xd8
 496 01c6 D8090000 		.4byte	0x9d8
 497 01ca 1C       		.byte	0x1c
 498 01cb 07       		.uleb128 0x7
 499 01cc 03050000 		.4byte	.LASF39
 500 01d0 07       		.byte	0x7
 501 01d1 DD       		.byte	0xdd
 502 01d2 FC000000 		.4byte	0xfc
 503 01d6 20       		.byte	0x20
 504 01d7 07       		.uleb128 0x7
 505 01d8 04060000 		.4byte	.LASF40
 506 01dc 07       		.byte	0x7
 507 01dd E1       		.byte	0xe1
 508 01de F1000000 		.4byte	0xf1
 509 01e2 21       		.byte	0x21
 510 01e3 07       		.uleb128 0x7
 511 01e4 57070000 		.4byte	.LASF41
 512 01e8 07       		.byte	0x7
 513 01e9 E6       		.byte	0xe6
ARM GAS  /tmp/ccXYQMA7.s 			page 10


 514 01ea 07010000 		.4byte	0x107
 515 01ee 22       		.byte	0x22
 516 01ef 08       		.uleb128 0x8
 517 01f0 705F7500 		.ascii	"p_u\000"
 518 01f4 07       		.byte	0x7
 519 01f5 3101     		.2byte	0x131
 520 01f7 01090000 		.4byte	0x901
 521 01fb 24       		.byte	0x24
 522 01fc 09       		.uleb128 0x9
 523 01fd B9030000 		.4byte	.LASF42
 524 0201 07       		.byte	0x7
 525 0202 3601     		.2byte	0x136
 526 0204 76020000 		.4byte	0x276
 527 0208 28       		.byte	0x28
 528 0209 09       		.uleb128 0x9
 529 020a B5020000 		.4byte	.LASF43
 530 020e 07       		.byte	0x7
 531 020f 3C01     		.2byte	0x13c
 532 0211 9A020000 		.4byte	0x29a
 533 0215 2C       		.byte	0x2c
 534 0216 09       		.uleb128 0x9
 535 0217 A9070000 		.4byte	.LASF44
 536 021b 07       		.byte	0x7
 537 021c 4001     		.2byte	0x140
 538 021e 1D010000 		.4byte	0x11d
 539 0222 34       		.byte	0x34
 540 0223 09       		.uleb128 0x9
 541 0224 3A060000 		.4byte	.LASF45
 542 0228 07       		.byte	0x7
 543 0229 4601     		.2byte	0x146
 544 022b 28010000 		.4byte	0x128
 545 022f 38       		.byte	0x38
 546 0230 09       		.uleb128 0x9
 547 0231 EF040000 		.4byte	.LASF46
 548 0235 07       		.byte	0x7
 549 0236 4D01     		.2byte	0x14d
 550 0238 C0090000 		.4byte	0x9c0
 551 023c 3C       		.byte	0x3c
 552 023d 09       		.uleb128 0x9
 553 023e C7060000 		.4byte	.LASF47
 554 0242 07       		.byte	0x7
 555 0243 5101     		.2byte	0x151
 556 0245 12010000 		.4byte	0x112
 557 0249 40       		.byte	0x40
 558 024a 09       		.uleb128 0x9
 559 024b 69010000 		.4byte	.LASF48
 560 024f 07       		.byte	0x7
 561 0250 5801     		.2byte	0x158
 562 0252 4D030000 		.4byte	0x34d
 563 0256 44       		.byte	0x44
 564 0257 09       		.uleb128 0x9
 565 0258 0C060000 		.4byte	.LASF49
 566 025c 07       		.byte	0x7
 567 025d 5E01     		.2byte	0x15e
 568 025f B2080000 		.4byte	0x8b2
 569 0263 48       		.byte	0x48
 570 0264 00       		.byte	0
ARM GAS  /tmp/ccXYQMA7.s 			page 11


 571 0265 03       		.uleb128 0x3
 572 0266 CC030000 		.4byte	.LASF50
 573 026a 06       		.byte	0x6
 574 026b 44       		.byte	0x44
 575 026c 70020000 		.4byte	0x270
 576 0270 0A       		.uleb128 0xa
 577 0271 04       		.byte	0x4
 578 0272 54010000 		.4byte	0x154
 579 0276 03       		.uleb128 0x3
 580 0277 9A030000 		.4byte	.LASF51
 581 027b 06       		.byte	0x6
 582 027c 49       		.byte	0x49
 583 027d 81020000 		.4byte	0x281
 584 0281 06       		.uleb128 0x6
 585 0282 70060000 		.4byte	.LASF53
 586 0286 04       		.byte	0x4
 587 0287 07       		.byte	0x7
 588 0288 B0       		.byte	0xb0
 589 0289 9A020000 		.4byte	0x29a
 590 028d 07       		.uleb128 0x7
 591 028e FD050000 		.4byte	.LASF31
 592 0292 07       		.byte	0x7
 593 0293 B1       		.byte	0xb1
 594 0294 70020000 		.4byte	0x270
 595 0298 00       		.byte	0
 596 0299 00       		.byte	0
 597 029a 03       		.uleb128 0x3
 598 029b 3E070000 		.4byte	.LASF54
 599 029f 06       		.byte	0x6
 600 02a0 50       		.byte	0x50
 601 02a1 A5020000 		.4byte	0x2a5
 602 02a5 06       		.uleb128 0x6
 603 02a6 56000000 		.4byte	.LASF55
 604 02aa 08       		.byte	0x8
 605 02ab 07       		.byte	0x7
 606 02ac B7       		.byte	0xb7
 607 02ad CA020000 		.4byte	0x2ca
 608 02b1 07       		.uleb128 0x7
 609 02b2 FD050000 		.4byte	.LASF31
 610 02b6 07       		.byte	0x7
 611 02b7 B8       		.byte	0xb8
 612 02b8 70020000 		.4byte	0x270
 613 02bc 00       		.byte	0
 614 02bd 07       		.uleb128 0x7
 615 02be B1040000 		.4byte	.LASF32
 616 02c2 07       		.byte	0x7
 617 02c3 B9       		.byte	0xb9
 618 02c4 70020000 		.4byte	0x270
 619 02c8 04       		.byte	0x4
 620 02c9 00       		.byte	0
 621 02ca 03       		.uleb128 0x3
 622 02cb 07000000 		.4byte	.LASF56
 623 02cf 06       		.byte	0x6
 624 02d0 57       		.byte	0x57
 625 02d1 D5020000 		.4byte	0x2d5
 626 02d5 0B       		.uleb128 0xb
 627 02d6 6B030000 		.4byte	.LASF57
ARM GAS  /tmp/ccXYQMA7.s 			page 12


 628 02da 1C       		.byte	0x1c
 629 02db 07       		.byte	0x7
 630 02dc 9001     		.2byte	0x190
 631 02de 31030000 		.4byte	0x331
 632 02e2 09       		.uleb128 0x9
 633 02e3 5F060000 		.4byte	.LASF58
 634 02e7 07       		.byte	0x7
 635 02e8 9101     		.2byte	0x191
 636 02ea 9A020000 		.4byte	0x29a
 637 02ee 00       		.byte	0
 638 02ef 09       		.uleb128 0x9
 639 02f0 15050000 		.4byte	.LASF59
 640 02f4 07       		.byte	0x7
 641 02f5 9201     		.2byte	0x192
 642 02f7 12010000 		.4byte	0x112
 643 02fb 08       		.byte	0x8
 644 02fc 09       		.uleb128 0x9
 645 02fd 2D040000 		.4byte	.LASF60
 646 0301 07       		.byte	0x7
 647 0302 9401     		.2byte	0x194
 648 0304 22070000 		.4byte	0x722
 649 0308 0C       		.byte	0xc
 650 0309 09       		.uleb128 0x9
 651 030a E7010000 		.4byte	.LASF61
 652 030e 07       		.byte	0x7
 653 030f 9701     		.2byte	0x197
 654 0311 70020000 		.4byte	0x270
 655 0315 10       		.byte	0x10
 656 0316 09       		.uleb128 0x9
 657 0317 14070000 		.4byte	.LASF62
 658 031b 07       		.byte	0x7
 659 031c 9801     		.2byte	0x198
 660 031e 70020000 		.4byte	0x270
 661 0322 14       		.byte	0x14
 662 0323 09       		.uleb128 0x9
 663 0324 4E040000 		.4byte	.LASF63
 664 0328 07       		.byte	0x7
 665 0329 9B01     		.2byte	0x19b
 666 032b 70020000 		.4byte	0x270
 667 032f 18       		.byte	0x18
 668 0330 00       		.byte	0
 669 0331 03       		.uleb128 0x3
 670 0332 D2060000 		.4byte	.LASF64
 671 0336 06       		.byte	0x6
 672 0337 5C       		.byte	0x5c
 673 0338 3C030000 		.4byte	0x33c
 674 033c 0A       		.uleb128 0xa
 675 033d 04       		.byte	0x4
 676 033e 42030000 		.4byte	0x342
 677 0342 0C       		.uleb128 0xc
 678 0343 4D030000 		.4byte	0x34d
 679 0347 0D       		.uleb128 0xd
 680 0348 4D030000 		.4byte	0x34d
 681 034c 00       		.byte	0
 682 034d 0E       		.uleb128 0xe
 683 034e 04       		.byte	0x4
 684 034f 03       		.uleb128 0x3
ARM GAS  /tmp/ccXYQMA7.s 			page 13


 685 0350 A9030000 		.4byte	.LASF65
 686 0354 06       		.byte	0x6
 687 0355 61       		.byte	0x61
 688 0356 5A030000 		.4byte	0x35a
 689 035a 0B       		.uleb128 0xb
 690 035b 1C060000 		.4byte	.LASF66
 691 035f 14       		.byte	0x14
 692 0360 07       		.byte	0x7
 693 0361 6B01     		.2byte	0x16b
 694 0363 A9030000 		.4byte	0x3a9
 695 0367 09       		.uleb128 0x9
 696 0368 96020000 		.4byte	.LASF67
 697 036c 07       		.byte	0x7
 698 036d 6C01     		.2byte	0x16c
 699 036f DE090000 		.4byte	0x9de
 700 0373 00       		.byte	0
 701 0374 09       		.uleb128 0x9
 702 0375 F8010000 		.4byte	.LASF68
 703 0379 07       		.byte	0x7
 704 037a 6D01     		.2byte	0x16d
 705 037c DE090000 		.4byte	0x9de
 706 0380 04       		.byte	0x4
 707 0381 09       		.uleb128 0x9
 708 0382 67060000 		.4byte	.LASF69
 709 0386 07       		.byte	0x7
 710 0387 6E01     		.2byte	0x16e
 711 0389 49010000 		.4byte	0x149
 712 038d 08       		.byte	0x8
 713 038e 09       		.uleb128 0x9
 714 038f D2070000 		.4byte	.LASF70
 715 0393 07       		.byte	0x7
 716 0394 6F01     		.2byte	0x16f
 717 0396 31030000 		.4byte	0x331
 718 039a 0C       		.byte	0xc
 719 039b 09       		.uleb128 0x9
 720 039c 31070000 		.4byte	.LASF71
 721 03a0 07       		.byte	0x7
 722 03a1 7101     		.2byte	0x171
 723 03a3 4D030000 		.4byte	0x34d
 724 03a7 10       		.byte	0x10
 725 03a8 00       		.byte	0
 726 03a9 03       		.uleb128 0x3
 727 03aa EA000000 		.4byte	.LASF72
 728 03ae 06       		.byte	0x6
 729 03af 66       		.byte	0x66
 730 03b0 B4030000 		.4byte	0x3b4
 731 03b4 0B       		.uleb128 0xb
 732 03b5 DF030000 		.4byte	.LASF73
 733 03b9 10       		.byte	0x10
 734 03ba 07       		.byte	0x7
 735 03bb 7B01     		.2byte	0x17b
 736 03bd F6030000 		.4byte	0x3f6
 737 03c1 09       		.uleb128 0x9
 738 03c2 96020000 		.4byte	.LASF67
 739 03c6 07       		.byte	0x7
 740 03c7 7C01     		.2byte	0x17c
 741 03c9 DE090000 		.4byte	0x9de
ARM GAS  /tmp/ccXYQMA7.s 			page 14


 742 03cd 00       		.byte	0
 743 03ce 09       		.uleb128 0x9
 744 03cf F8010000 		.4byte	.LASF68
 745 03d3 07       		.byte	0x7
 746 03d4 7E01     		.2byte	0x17e
 747 03d6 DE090000 		.4byte	0x9de
 748 03da 04       		.byte	0x4
 749 03db 09       		.uleb128 0x9
 750 03dc 67060000 		.4byte	.LASF69
 751 03e0 07       		.byte	0x7
 752 03e1 8001     		.2byte	0x180
 753 03e3 49010000 		.4byte	0x149
 754 03e7 08       		.byte	0x8
 755 03e8 09       		.uleb128 0x9
 756 03e9 19040000 		.4byte	.LASF74
 757 03ed 07       		.byte	0x7
 758 03ee 8801     		.2byte	0x188
 759 03f0 49010000 		.4byte	0x149
 760 03f4 0C       		.byte	0xc
 761 03f5 00       		.byte	0
 762 03f6 03       		.uleb128 0x3
 763 03f7 67000000 		.4byte	.LASF75
 764 03fb 06       		.byte	0x6
 765 03fc 6B       		.byte	0x6b
 766 03fd 01040000 		.4byte	0x401
 767 0401 0F       		.uleb128 0xf
 768 0402 05020000 		.4byte	.LASF76
 769 0406 1404     		.2byte	0x414
 770 0408 07       		.byte	0x7
 771 0409 A201     		.2byte	0x1a2
 772 040b 44040000 		.4byte	0x444
 773 040f 09       		.uleb128 0x9
 774 0410 EB060000 		.4byte	.LASF77
 775 0414 07       		.byte	0x7
 776 0415 AA01     		.2byte	0x1aa
 777 0417 E4090000 		.4byte	0x9e4
 778 041b 00       		.byte	0
 779 041c 09       		.uleb128 0x9
 780 041d 5E070000 		.4byte	.LASF78
 781 0421 07       		.byte	0x7
 782 0422 AF01     		.2byte	0x1af
 783 0424 33010000 		.4byte	0x133
 784 0428 04       		.byte	0x4
 785 0429 09       		.uleb128 0x9
 786 042a 60020000 		.4byte	.LASF79
 787 042e 07       		.byte	0x7
 788 042f B301     		.2byte	0x1b3
 789 0431 33010000 		.4byte	0x133
 790 0435 08       		.byte	0x8
 791 0436 09       		.uleb128 0x9
 792 0437 9C070000 		.4byte	.LASF80
 793 043b 07       		.byte	0x7
 794 043c B901     		.2byte	0x1b9
 795 043e 44080000 		.4byte	0x844
 796 0442 0C       		.byte	0xc
 797 0443 00       		.byte	0
 798 0444 03       		.uleb128 0x3
ARM GAS  /tmp/ccXYQMA7.s 			page 15


 799 0445 40030000 		.4byte	.LASF81
 800 0449 06       		.byte	0x6
 801 044a 70       		.byte	0x70
 802 044b 4F040000 		.4byte	0x44f
 803 044f 0F       		.uleb128 0xf
 804 0450 92010000 		.4byte	.LASF82
 805 0454 D805     		.2byte	0x5d8
 806 0456 07       		.byte	0x7
 807 0457 C201     		.2byte	0x1c2
 808 0459 BC040000 		.4byte	0x4bc
 809 045d 09       		.uleb128 0x9
 810 045e 6B070000 		.4byte	.LASF83
 811 0462 07       		.byte	0x7
 812 0463 C601     		.2byte	0x1c6
 813 0465 CA020000 		.4byte	0x2ca
 814 0469 00       		.byte	0
 815 046a 09       		.uleb128 0x9
 816 046b 79010000 		.4byte	.LASF84
 817 046f 07       		.byte	0x7
 818 0470 CA01     		.2byte	0x1ca
 819 0472 A9030000 		.4byte	0x3a9
 820 0476 1C       		.byte	0x1c
 821 0477 08       		.uleb128 0x8
 822 0478 64626700 		.ascii	"dbg\000"
 823 047c 07       		.byte	0x7
 824 047d CE01     		.2byte	0x1ce
 825 047f F6030000 		.4byte	0x3f6
 826 0483 2C       		.byte	0x2c
 827 0484 10       		.uleb128 0x10
 828 0485 DF000000 		.4byte	.LASF85
 829 0489 07       		.byte	0x7
 830 048a D201     		.2byte	0x1d2
 831 048c 54010000 		.4byte	0x154
 832 0490 4004     		.2byte	0x440
 833 0492 11       		.uleb128 0x11
 834 0493 746D00   		.ascii	"tm\000"
 835 0496 07       		.byte	0x7
 836 0497 D701     		.2byte	0x1d7
 837 0499 64080000 		.4byte	0x864
 838 049d A004     		.2byte	0x4a0
 839 049f 10       		.uleb128 0x10
 840 04a0 33000000 		.4byte	.LASF86
 841 04a4 07       		.byte	0x7
 842 04a5 DD01     		.2byte	0x1dd
 843 04a7 F6080000 		.4byte	0x8f6
 844 04ab A804     		.2byte	0x4a8
 845 04ad 10       		.uleb128 0x10
 846 04ae 69020000 		.4byte	.LASF87
 847 04b2 07       		.byte	0x7
 848 04b3 E301     		.2byte	0x1e3
 849 04b5 E9090000 		.4byte	0x9e9
 850 04b9 E004     		.2byte	0x4e0
 851 04bb 00       		.byte	0
 852 04bc 04       		.uleb128 0x4
 853 04bd 04       		.byte	0x4
 854 04be 07       		.byte	0x7
 855 04bf C3030000 		.4byte	.LASF88
ARM GAS  /tmp/ccXYQMA7.s 			page 16


 856 04c3 12       		.uleb128 0x12
 857 04c4 BB000000 		.4byte	0xbb
 858 04c8 D3040000 		.4byte	0x4d3
 859 04cc 13       		.uleb128 0x13
 860 04cd BC040000 		.4byte	0x4bc
 861 04d1 01       		.byte	0x1
 862 04d2 00       		.byte	0
 863 04d3 14       		.uleb128 0x14
 864 04d4 1C       		.byte	0x1c
 865 04d5 08       		.byte	0x8
 866 04d6 DA01     		.2byte	0x1da
 867 04d8 36050000 		.4byte	0x536
 868 04dc 08       		.uleb128 0x8
 869 04dd 41435200 		.ascii	"ACR\000"
 870 04e1 08       		.byte	0x8
 871 04e2 DC01     		.2byte	0x1dc
 872 04e4 D6000000 		.4byte	0xd6
 873 04e8 00       		.byte	0
 874 04e9 09       		.uleb128 0x9
 875 04ea 00020000 		.4byte	.LASF89
 876 04ee 08       		.byte	0x8
 877 04ef DD01     		.2byte	0x1dd
 878 04f1 D6000000 		.4byte	0xd6
 879 04f5 04       		.byte	0x4
 880 04f6 09       		.uleb128 0x9
 881 04f7 C7010000 		.4byte	.LASF90
 882 04fb 08       		.byte	0x8
 883 04fc DE01     		.2byte	0x1de
 884 04fe D6000000 		.4byte	0xd6
 885 0502 08       		.byte	0x8
 886 0503 08       		.uleb128 0x8
 887 0504 535200   		.ascii	"SR\000"
 888 0507 08       		.byte	0x8
 889 0508 DF01     		.2byte	0x1df
 890 050a D6000000 		.4byte	0xd6
 891 050e 0C       		.byte	0xc
 892 050f 08       		.uleb128 0x8
 893 0510 435200   		.ascii	"CR\000"
 894 0513 08       		.byte	0x8
 895 0514 E001     		.2byte	0x1e0
 896 0516 D6000000 		.4byte	0xd6
 897 051a 10       		.byte	0x10
 898 051b 09       		.uleb128 0x9
 899 051c 76000000 		.4byte	.LASF91
 900 0520 08       		.byte	0x8
 901 0521 E101     		.2byte	0x1e1
 902 0523 D6000000 		.4byte	0xd6
 903 0527 14       		.byte	0x14
 904 0528 09       		.uleb128 0x9
 905 0529 82000000 		.4byte	.LASF92
 906 052d 08       		.byte	0x8
 907 052e E201     		.2byte	0x1e2
 908 0530 D6000000 		.4byte	0xd6
 909 0534 18       		.byte	0x18
 910 0535 00       		.byte	0
 911 0536 15       		.uleb128 0x15
 912 0537 5B010000 		.4byte	.LASF93
ARM GAS  /tmp/ccXYQMA7.s 			page 17


 913 053b 08       		.byte	0x8
 914 053c E301     		.2byte	0x1e3
 915 053e D3040000 		.4byte	0x4d3
 916 0542 14       		.uleb128 0x14
 917 0543 08       		.byte	0x8
 918 0544 08       		.byte	0x8
 919 0545 5D02     		.2byte	0x25d
 920 0547 65050000 		.4byte	0x565
 921 054b 08       		.uleb128 0x8
 922 054c 435200   		.ascii	"CR\000"
 923 054f 08       		.byte	0x8
 924 0550 5F02     		.2byte	0x25f
 925 0552 D6000000 		.4byte	0xd6
 926 0556 00       		.byte	0
 927 0557 08       		.uleb128 0x8
 928 0558 43535200 		.ascii	"CSR\000"
 929 055c 08       		.byte	0x8
 930 055d 6002     		.2byte	0x260
 931 055f D6000000 		.4byte	0xd6
 932 0563 04       		.byte	0x4
 933 0564 00       		.byte	0
 934 0565 15       		.uleb128 0x15
 935 0566 80010000 		.4byte	.LASF94
 936 056a 08       		.byte	0x8
 937 056b 6102     		.2byte	0x261
 938 056d 42050000 		.4byte	0x542
 939 0571 14       		.uleb128 0x14
 940 0572 88       		.byte	0x88
 941 0573 08       		.byte	0x8
 942 0574 6702     		.2byte	0x267
 943 0576 00070000 		.4byte	0x700
 944 057a 08       		.uleb128 0x8
 945 057b 435200   		.ascii	"CR\000"
 946 057e 08       		.byte	0x8
 947 057f 6902     		.2byte	0x269
 948 0581 D6000000 		.4byte	0xd6
 949 0585 00       		.byte	0
 950 0586 09       		.uleb128 0x9
 951 0587 D7010000 		.4byte	.LASF95
 952 058b 08       		.byte	0x8
 953 058c 6A02     		.2byte	0x26a
 954 058e D6000000 		.4byte	0xd6
 955 0592 04       		.byte	0x4
 956 0593 09       		.uleb128 0x9
 957 0594 8F070000 		.4byte	.LASF96
 958 0598 08       		.byte	0x8
 959 0599 6B02     		.2byte	0x26b
 960 059b D6000000 		.4byte	0xd6
 961 059f 08       		.byte	0x8
 962 05a0 08       		.uleb128 0x8
 963 05a1 43495200 		.ascii	"CIR\000"
 964 05a5 08       		.byte	0x8
 965 05a6 6C02     		.2byte	0x26c
 966 05a8 D6000000 		.4byte	0xd6
 967 05ac 0C       		.byte	0xc
 968 05ad 09       		.uleb128 0x9
 969 05ae 52010000 		.4byte	.LASF97
ARM GAS  /tmp/ccXYQMA7.s 			page 18


 970 05b2 08       		.byte	0x8
 971 05b3 6D02     		.2byte	0x26d
 972 05b5 D6000000 		.4byte	0xd6
 973 05b9 10       		.byte	0x10
 974 05ba 09       		.uleb128 0x9
 975 05bb 9F060000 		.4byte	.LASF98
 976 05bf 08       		.byte	0x8
 977 05c0 6E02     		.2byte	0x26e
 978 05c2 D6000000 		.4byte	0xd6
 979 05c6 14       		.byte	0x14
 980 05c7 09       		.uleb128 0x9
 981 05c8 15030000 		.4byte	.LASF99
 982 05cc 08       		.byte	0x8
 983 05cd 6F02     		.2byte	0x26f
 984 05cf D6000000 		.4byte	0xd6
 985 05d3 18       		.byte	0x18
 986 05d4 09       		.uleb128 0x9
 987 05d5 7F040000 		.4byte	.LASF100
 988 05d9 08       		.byte	0x8
 989 05da 7002     		.2byte	0x270
 990 05dc BB000000 		.4byte	0xbb
 991 05e0 1C       		.byte	0x1c
 992 05e1 09       		.uleb128 0x9
 993 05e2 58040000 		.4byte	.LASF101
 994 05e6 08       		.byte	0x8
 995 05e7 7102     		.2byte	0x271
 996 05e9 D6000000 		.4byte	0xd6
 997 05ed 20       		.byte	0x20
 998 05ee 09       		.uleb128 0x9
 999 05ef A5010000 		.4byte	.LASF102
 1000 05f3 08       		.byte	0x8
 1001 05f4 7202     		.2byte	0x272
 1002 05f6 D6000000 		.4byte	0xd6
 1003 05fa 24       		.byte	0x24
 1004 05fb 09       		.uleb128 0x9
 1005 05fc 89040000 		.4byte	.LASF103
 1006 0600 08       		.byte	0x8
 1007 0601 7302     		.2byte	0x273
 1008 0603 C3040000 		.4byte	0x4c3
 1009 0607 28       		.byte	0x28
 1010 0608 09       		.uleb128 0x9
 1011 0609 87070000 		.4byte	.LASF104
 1012 060d 08       		.byte	0x8
 1013 060e 7402     		.2byte	0x274
 1014 0610 D6000000 		.4byte	0xd6
 1015 0614 30       		.byte	0x30
 1016 0615 09       		.uleb128 0x9
 1017 0616 04070000 		.4byte	.LASF105
 1018 061a 08       		.byte	0x8
 1019 061b 7502     		.2byte	0x275
 1020 061d D6000000 		.4byte	0xd6
 1021 0621 34       		.byte	0x34
 1022 0622 09       		.uleb128 0x9
 1023 0623 11040000 		.4byte	.LASF106
 1024 0627 08       		.byte	0x8
 1025 0628 7602     		.2byte	0x276
 1026 062a D6000000 		.4byte	0xd6
ARM GAS  /tmp/ccXYQMA7.s 			page 19


 1027 062e 38       		.byte	0x38
 1028 062f 09       		.uleb128 0x9
 1029 0630 93040000 		.4byte	.LASF107
 1030 0634 08       		.byte	0x8
 1031 0635 7702     		.2byte	0x277
 1032 0637 BB000000 		.4byte	0xbb
 1033 063b 3C       		.byte	0x3c
 1034 063c 09       		.uleb128 0x9
 1035 063d FC060000 		.4byte	.LASF108
 1036 0641 08       		.byte	0x8
 1037 0642 7802     		.2byte	0x278
 1038 0644 D6000000 		.4byte	0xd6
 1039 0648 40       		.byte	0x40
 1040 0649 09       		.uleb128 0x9
 1041 064a 14060000 		.4byte	.LASF109
 1042 064e 08       		.byte	0x8
 1043 064f 7902     		.2byte	0x279
 1044 0651 D6000000 		.4byte	0xd6
 1045 0655 44       		.byte	0x44
 1046 0656 09       		.uleb128 0x9
 1047 0657 9D040000 		.4byte	.LASF110
 1048 065b 08       		.byte	0x8
 1049 065c 7A02     		.2byte	0x27a
 1050 065e C3040000 		.4byte	0x4c3
 1051 0662 48       		.byte	0x48
 1052 0663 09       		.uleb128 0x9
 1053 0664 16010000 		.4byte	.LASF111
 1054 0668 08       		.byte	0x8
 1055 0669 7B02     		.2byte	0x27b
 1056 066b D6000000 		.4byte	0xd6
 1057 066f 50       		.byte	0x50
 1058 0670 09       		.uleb128 0x9
 1059 0671 33040000 		.4byte	.LASF112
 1060 0675 08       		.byte	0x8
 1061 0676 7C02     		.2byte	0x27c
 1062 0678 D6000000 		.4byte	0xd6
 1063 067c 54       		.byte	0x54
 1064 067d 09       		.uleb128 0x9
 1065 067e 0B050000 		.4byte	.LASF113
 1066 0682 08       		.byte	0x8
 1067 0683 7D02     		.2byte	0x27d
 1068 0685 D6000000 		.4byte	0xd6
 1069 0689 58       		.byte	0x58
 1070 068a 09       		.uleb128 0x9
 1071 068b A7040000 		.4byte	.LASF114
 1072 068f 08       		.byte	0x8
 1073 0690 7E02     		.2byte	0x27e
 1074 0692 BB000000 		.4byte	0xbb
 1075 0696 5C       		.byte	0x5c
 1076 0697 09       		.uleb128 0x9
 1077 0698 AE010000 		.4byte	.LASF115
 1078 069c 08       		.byte	0x8
 1079 069d 7F02     		.2byte	0x27f
 1080 069f D6000000 		.4byte	0xd6
 1081 06a3 60       		.byte	0x60
 1082 06a4 09       		.uleb128 0x9
 1083 06a5 56030000 		.4byte	.LASF116
ARM GAS  /tmp/ccXYQMA7.s 			page 20


 1084 06a9 08       		.byte	0x8
 1085 06aa 8002     		.2byte	0x280
 1086 06ac D6000000 		.4byte	0xd6
 1087 06b0 64       		.byte	0x64
 1088 06b1 09       		.uleb128 0x9
 1089 06b2 45060000 		.4byte	.LASF117
 1090 06b6 08       		.byte	0x8
 1091 06b7 8102     		.2byte	0x281
 1092 06b9 C3040000 		.4byte	0x4c3
 1093 06bd 68       		.byte	0x68
 1094 06be 09       		.uleb128 0x9
 1095 06bf 66070000 		.4byte	.LASF118
 1096 06c3 08       		.byte	0x8
 1097 06c4 8202     		.2byte	0x282
 1098 06c6 D6000000 		.4byte	0xd6
 1099 06ca 70       		.byte	0x70
 1100 06cb 08       		.uleb128 0x8
 1101 06cc 43535200 		.ascii	"CSR\000"
 1102 06d0 08       		.byte	0x8
 1103 06d1 8302     		.2byte	0x283
 1104 06d3 D6000000 		.4byte	0xd6
 1105 06d7 74       		.byte	0x74
 1106 06d8 09       		.uleb128 0x9
 1107 06d9 B8040000 		.4byte	.LASF119
 1108 06dd 08       		.byte	0x8
 1109 06de 8402     		.2byte	0x284
 1110 06e0 C3040000 		.4byte	0x4c3
 1111 06e4 78       		.byte	0x78
 1112 06e5 09       		.uleb128 0x9
 1113 06e6 38070000 		.4byte	.LASF120
 1114 06ea 08       		.byte	0x8
 1115 06eb 8502     		.2byte	0x285
 1116 06ed D6000000 		.4byte	0xd6
 1117 06f1 80       		.byte	0x80
 1118 06f2 09       		.uleb128 0x9
 1119 06f3 04030000 		.4byte	.LASF121
 1120 06f7 08       		.byte	0x8
 1121 06f8 8602     		.2byte	0x286
 1122 06fa D6000000 		.4byte	0xd6
 1123 06fe 84       		.byte	0x84
 1124 06ff 00       		.byte	0
 1125 0700 15       		.uleb128 0x15
 1126 0701 C0020000 		.4byte	.LASF122
 1127 0705 08       		.byte	0x8
 1128 0706 8802     		.2byte	0x288
 1129 0708 71050000 		.4byte	0x571
 1130 070c 03       		.uleb128 0x3
 1131 070d EF010000 		.4byte	.LASF123
 1132 0711 09       		.byte	0x9
 1133 0712 65       		.byte	0x65
 1134 0713 4D030000 		.4byte	0x34d
 1135 0717 03       		.uleb128 0x3
 1136 0718 8F030000 		.4byte	.LASF124
 1137 071c 09       		.byte	0x9
 1138 071d 6D       		.byte	0x6d
 1139 071e C6000000 		.4byte	0xc6
 1140 0722 06       		.uleb128 0x6
ARM GAS  /tmp/ccXYQMA7.s 			page 21


 1141 0723 0C070000 		.4byte	.LASF125
 1142 0727 04       		.byte	0x4
 1143 0728 09       		.byte	0x9
 1144 0729 89       		.byte	0x89
 1145 072a 3B070000 		.4byte	0x73b
 1146 072e 16       		.uleb128 0x16
 1147 072f 72313300 		.ascii	"r13\000"
 1148 0733 09       		.byte	0x9
 1149 0734 8A       		.byte	0x8a
 1150 0735 B6070000 		.4byte	0x7b6
 1151 0739 00       		.byte	0
 1152 073a 00       		.byte	0
 1153 073b 06       		.uleb128 0x6
 1154 073c 4A000000 		.4byte	.LASF126
 1155 0740 24       		.byte	0x24
 1156 0741 0A       		.byte	0xa
 1157 0742 F4       		.byte	0xf4
 1158 0743 B6070000 		.4byte	0x7b6
 1159 0747 08       		.uleb128 0x8
 1160 0748 723400   		.ascii	"r4\000"
 1161 074b 0A       		.byte	0xa
 1162 074c 0701     		.2byte	0x107
 1163 074e 0C070000 		.4byte	0x70c
 1164 0752 00       		.byte	0
 1165 0753 08       		.uleb128 0x8
 1166 0754 723500   		.ascii	"r5\000"
 1167 0757 0A       		.byte	0xa
 1168 0758 0801     		.2byte	0x108
 1169 075a 0C070000 		.4byte	0x70c
 1170 075e 04       		.byte	0x4
 1171 075f 08       		.uleb128 0x8
 1172 0760 723600   		.ascii	"r6\000"
 1173 0763 0A       		.byte	0xa
 1174 0764 0901     		.2byte	0x109
 1175 0766 0C070000 		.4byte	0x70c
 1176 076a 08       		.byte	0x8
 1177 076b 08       		.uleb128 0x8
 1178 076c 723700   		.ascii	"r7\000"
 1179 076f 0A       		.byte	0xa
 1180 0770 0A01     		.2byte	0x10a
 1181 0772 0C070000 		.4byte	0x70c
 1182 0776 0C       		.byte	0xc
 1183 0777 08       		.uleb128 0x8
 1184 0778 723800   		.ascii	"r8\000"
 1185 077b 0A       		.byte	0xa
 1186 077c 0B01     		.2byte	0x10b
 1187 077e 0C070000 		.4byte	0x70c
 1188 0782 10       		.byte	0x10
 1189 0783 08       		.uleb128 0x8
 1190 0784 723900   		.ascii	"r9\000"
 1191 0787 0A       		.byte	0xa
 1192 0788 0C01     		.2byte	0x10c
 1193 078a 0C070000 		.4byte	0x70c
 1194 078e 14       		.byte	0x14
 1195 078f 08       		.uleb128 0x8
 1196 0790 72313000 		.ascii	"r10\000"
 1197 0794 0A       		.byte	0xa
ARM GAS  /tmp/ccXYQMA7.s 			page 22


 1198 0795 0D01     		.2byte	0x10d
 1199 0797 0C070000 		.4byte	0x70c
 1200 079b 18       		.byte	0x18
 1201 079c 08       		.uleb128 0x8
 1202 079d 72313100 		.ascii	"r11\000"
 1203 07a1 0A       		.byte	0xa
 1204 07a2 0E01     		.2byte	0x10e
 1205 07a4 0C070000 		.4byte	0x70c
 1206 07a8 1C       		.byte	0x1c
 1207 07a9 08       		.uleb128 0x8
 1208 07aa 6C7200   		.ascii	"lr\000"
 1209 07ad 0A       		.byte	0xa
 1210 07ae 0F01     		.2byte	0x10f
 1211 07b0 0C070000 		.4byte	0x70c
 1212 07b4 20       		.byte	0x20
 1213 07b5 00       		.byte	0
 1214 07b6 0A       		.uleb128 0xa
 1215 07b7 04       		.byte	0x4
 1216 07b8 3B070000 		.4byte	0x73b
 1217 07bc 17       		.uleb128 0x17
 1218 07bd 10       		.byte	0x10
 1219 07be 0B       		.byte	0xb
 1220 07bf 51       		.byte	0x51
 1221 07c0 F5070000 		.4byte	0x7f5
 1222 07c4 07       		.uleb128 0x7
 1223 07c5 14000000 		.4byte	.LASF127
 1224 07c9 0B       		.byte	0xb
 1225 07ca 55       		.byte	0x55
 1226 07cb 49010000 		.4byte	0x149
 1227 07cf 00       		.byte	0
 1228 07d0 07       		.uleb128 0x7
 1229 07d1 C1010000 		.4byte	.LASF128
 1230 07d5 0B       		.byte	0xb
 1231 07d6 59       		.byte	0x59
 1232 07d7 70020000 		.4byte	0x270
 1233 07db 04       		.byte	0x4
 1234 07dc 07       		.uleb128 0x7
 1235 07dd C2070000 		.4byte	.LASF129
 1236 07e1 0B       		.byte	0xb
 1237 07e2 5D       		.byte	0x5d
 1238 07e3 4D030000 		.4byte	0x34d
 1239 07e7 08       		.byte	0x8
 1240 07e8 07       		.uleb128 0x7
 1241 07e9 C5000000 		.4byte	.LASF130
 1242 07ed 0B       		.byte	0xb
 1243 07ee 61       		.byte	0x61
 1244 07ef A5000000 		.4byte	0xa5
 1245 07f3 0C       		.byte	0xc
 1246 07f4 00       		.byte	0
 1247 07f5 03       		.uleb128 0x3
 1248 07f6 02040000 		.4byte	.LASF131
 1249 07fa 0B       		.byte	0xb
 1250 07fb 62       		.byte	0x62
 1251 07fc BC070000 		.4byte	0x7bc
 1252 0800 18       		.uleb128 0x18
 1253 0801 0804     		.2byte	0x408
 1254 0803 0B       		.byte	0xb
ARM GAS  /tmp/ccXYQMA7.s 			page 23


 1255 0804 67       		.byte	0x67
 1256 0805 2E080000 		.4byte	0x82e
 1257 0809 07       		.uleb128 0x7
 1258 080a DF010000 		.4byte	.LASF132
 1259 080e 0B       		.byte	0xb
 1260 080f 6B       		.byte	0x6b
 1261 0810 33000000 		.4byte	0x33
 1262 0814 00       		.byte	0
 1263 0815 07       		.uleb128 0x7
 1264 0816 00000000 		.4byte	.LASF133
 1265 081a 0B       		.byte	0xb
 1266 081b 6F       		.byte	0x6f
 1267 081c 2E080000 		.4byte	0x82e
 1268 0820 04       		.byte	0x4
 1269 0821 07       		.uleb128 0x7
 1270 0822 4C030000 		.4byte	.LASF134
 1271 0826 0B       		.byte	0xb
 1272 0827 73       		.byte	0x73
 1273 0828 34080000 		.4byte	0x834
 1274 082c 08       		.byte	0x8
 1275 082d 00       		.byte	0
 1276 082e 0A       		.uleb128 0xa
 1277 082f 04       		.byte	0x4
 1278 0830 F5070000 		.4byte	0x7f5
 1279 0834 12       		.uleb128 0x12
 1280 0835 F5070000 		.4byte	0x7f5
 1281 0839 44080000 		.4byte	0x844
 1282 083d 13       		.uleb128 0x13
 1283 083e BC040000 		.4byte	0x4bc
 1284 0842 3F       		.byte	0x3f
 1285 0843 00       		.byte	0
 1286 0844 03       		.uleb128 0x3
 1287 0845 B3000000 		.4byte	.LASF135
 1288 0849 0B       		.byte	0xb
 1289 084a 74       		.byte	0x74
 1290 084b 00080000 		.4byte	0x800
 1291 084f 17       		.uleb128 0x17
 1292 0850 04       		.byte	0x4
 1293 0851 0C       		.byte	0xc
 1294 0852 38       		.byte	0x38
 1295 0853 64080000 		.4byte	0x864
 1296 0857 07       		.uleb128 0x7
 1297 0858 F5060000 		.4byte	.LASF136
 1298 085c 0C       		.byte	0xc
 1299 085d 3C       		.byte	0x3c
 1300 085e DB000000 		.4byte	0xdb
 1301 0862 00       		.byte	0
 1302 0863 00       		.byte	0
 1303 0864 03       		.uleb128 0x3
 1304 0865 3D040000 		.4byte	.LASF137
 1305 0869 0C       		.byte	0xc
 1306 086a 3D       		.byte	0x3d
 1307 086b 4F080000 		.4byte	0x84f
 1308 086f 17       		.uleb128 0x17
 1309 0870 18       		.byte	0x18
 1310 0871 0C       		.byte	0xc
 1311 0872 48       		.byte	0x48
ARM GAS  /tmp/ccXYQMA7.s 			page 24


 1312 0873 B2080000 		.4byte	0x8b2
 1313 0877 07       		.uleb128 0x7
 1314 0878 B1060000 		.4byte	.LASF138
 1315 087c 0C       		.byte	0xc
 1316 087d 49       		.byte	0x49
 1317 087e DB000000 		.4byte	0xdb
 1318 0882 00       		.byte	0
 1319 0883 07       		.uleb128 0x7
 1320 0884 7C000000 		.4byte	.LASF139
 1321 0888 0C       		.byte	0xc
 1322 0889 4A       		.byte	0x4a
 1323 088a DB000000 		.4byte	0xdb
 1324 088e 04       		.byte	0x4
 1325 088f 07       		.uleb128 0x7
 1326 0890 E6060000 		.4byte	.LASF140
 1327 0894 0C       		.byte	0xc
 1328 0895 4B       		.byte	0x4b
 1329 0896 DB000000 		.4byte	0xdb
 1330 089a 08       		.byte	0x8
 1331 089b 16       		.uleb128 0x16
 1332 089c 6E00     		.ascii	"n\000"
 1333 089e 0C       		.byte	0xc
 1334 089f 4C       		.byte	0x4c
 1335 08a0 3E010000 		.4byte	0x13e
 1336 08a4 0C       		.byte	0xc
 1337 08a5 07       		.uleb128 0x7
 1338 08a6 6C040000 		.4byte	.LASF141
 1339 08aa 0C       		.byte	0xc
 1340 08ab 4D       		.byte	0x4d
 1341 08ac E6000000 		.4byte	0xe6
 1342 08b0 10       		.byte	0x10
 1343 08b1 00       		.byte	0
 1344 08b2 03       		.uleb128 0x3
 1345 08b3 89000000 		.4byte	.LASF142
 1346 08b7 0C       		.byte	0xc
 1347 08b8 4E       		.byte	0x4e
 1348 08b9 6F080000 		.4byte	0x86f
 1349 08bd 17       		.uleb128 0x17
 1350 08be 38       		.byte	0x38
 1351 08bf 0D       		.byte	0xd
 1352 08c0 38       		.byte	0x38
 1353 08c1 F6080000 		.4byte	0x8f6
 1354 08c5 07       		.uleb128 0x7
 1355 08c6 CC020000 		.4byte	.LASF143
 1356 08ca 0D       		.byte	0xd
 1357 08cb 39       		.byte	0x39
 1358 08cc 3E010000 		.4byte	0x13e
 1359 08d0 00       		.byte	0
 1360 08d1 07       		.uleb128 0x7
 1361 08d2 CA040000 		.4byte	.LASF144
 1362 08d6 0D       		.byte	0xd
 1363 08d7 3A       		.byte	0x3a
 1364 08d8 3E010000 		.4byte	0x13e
 1365 08dc 04       		.byte	0x4
 1366 08dd 07       		.uleb128 0x7
 1367 08de AF070000 		.4byte	.LASF145
 1368 08e2 0D       		.byte	0xd
ARM GAS  /tmp/ccXYQMA7.s 			page 25


 1369 08e3 3B       		.byte	0x3b
 1370 08e4 B2080000 		.4byte	0x8b2
 1371 08e8 08       		.byte	0x8
 1372 08e9 07       		.uleb128 0x7
 1373 08ea 60030000 		.4byte	.LASF146
 1374 08ee 0D       		.byte	0xd
 1375 08ef 3D       		.byte	0x3d
 1376 08f0 B2080000 		.4byte	0x8b2
 1377 08f4 20       		.byte	0x20
 1378 08f5 00       		.byte	0
 1379 08f6 03       		.uleb128 0x3
 1380 08f7 EB020000 		.4byte	.LASF147
 1381 08fb 0D       		.byte	0xd
 1382 08fc 3F       		.byte	0x3f
 1383 08fd BD080000 		.4byte	0x8bd
 1384 0901 19       		.uleb128 0x19
 1385 0902 04       		.byte	0x4
 1386 0903 07       		.byte	0x7
 1387 0904 FA       		.byte	0xfa
 1388 0905 5E090000 		.4byte	0x95e
 1389 0909 1A       		.uleb128 0x1a
 1390 090a 23000000 		.4byte	.LASF148
 1391 090e 07       		.byte	0x7
 1392 090f 0101     		.2byte	0x101
 1393 0911 1D010000 		.4byte	0x11d
 1394 0915 1A       		.uleb128 0x1a
 1395 0916 D6000000 		.4byte	.LASF149
 1396 091a 07       		.byte	0x7
 1397 091b 0801     		.2byte	0x108
 1398 091d 1D010000 		.4byte	0x11d
 1399 0921 1A       		.uleb128 0x1a
 1400 0922 79070000 		.4byte	.LASF150
 1401 0926 07       		.byte	0x7
 1402 0927 0F01     		.2byte	0x10f
 1403 0929 4D030000 		.4byte	0x34d
 1404 092d 1A       		.uleb128 0x1a
 1405 092e 8C010000 		.4byte	.LASF151
 1406 0932 07       		.byte	0x7
 1407 0933 1601     		.2byte	0x116
 1408 0935 5E090000 		.4byte	0x95e
 1409 0939 1A       		.uleb128 0x1a
 1410 093a AE020000 		.4byte	.LASF152
 1411 093e 07       		.byte	0x7
 1412 093f 1E01     		.2byte	0x11e
 1413 0941 89090000 		.4byte	0x989
 1414 0945 1A       		.uleb128 0x1a
 1415 0946 58060000 		.4byte	.LASF153
 1416 094a 07       		.byte	0x7
 1417 094b 2701     		.2byte	0x127
 1418 094d C0090000 		.4byte	0x9c0
 1419 0951 1A       		.uleb128 0x1a
 1420 0952 F6050000 		.4byte	.LASF154
 1421 0956 07       		.byte	0x7
 1422 0957 2F01     		.2byte	0x12f
 1423 0959 28010000 		.4byte	0x128
 1424 095d 00       		.byte	0
 1425 095e 0A       		.uleb128 0xa
ARM GAS  /tmp/ccXYQMA7.s 			page 26


 1426 095f 04       		.byte	0x4
 1427 0960 65020000 		.4byte	0x265
 1428 0964 06       		.uleb128 0x6
 1429 0965 2D060000 		.4byte	.LASF155
 1430 0969 0C       		.byte	0xc
 1431 096a 0E       		.byte	0xe
 1432 096b 34       		.byte	0x34
 1433 096c 89090000 		.4byte	0x989
 1434 0970 07       		.uleb128 0x7
 1435 0971 CE000000 		.4byte	.LASF156
 1436 0975 0E       		.byte	0xe
 1437 0976 35       		.byte	0x35
 1438 0977 9A020000 		.4byte	0x29a
 1439 097b 00       		.byte	0
 1440 097c 07       		.uleb128 0x7
 1441 097d D2020000 		.4byte	.LASF157
 1442 0981 0E       		.byte	0xe
 1443 0982 37       		.byte	0x37
 1444 0983 33010000 		.4byte	0x133
 1445 0987 08       		.byte	0x8
 1446 0988 00       		.byte	0
 1447 0989 0A       		.uleb128 0xa
 1448 098a 04       		.byte	0x4
 1449 098b 64090000 		.4byte	0x964
 1450 098f 06       		.uleb128 0x6
 1451 0990 4E070000 		.4byte	.LASF158
 1452 0994 10       		.byte	0x10
 1453 0995 0F       		.byte	0xf
 1454 0996 39       		.byte	0x39
 1455 0997 C0090000 		.4byte	0x9c0
 1456 099b 07       		.uleb128 0x7
 1457 099c 71010000 		.4byte	.LASF159
 1458 09a0 0F       		.byte	0xf
 1459 09a1 3A       		.byte	0x3a
 1460 09a2 9A020000 		.4byte	0x29a
 1461 09a6 00       		.byte	0
 1462 09a7 07       		.uleb128 0x7
 1463 09a8 BA070000 		.4byte	.LASF160
 1464 09ac 0F       		.byte	0xf
 1465 09ad 3C       		.byte	0x3c
 1466 09ae 70020000 		.4byte	0x270
 1467 09b2 08       		.byte	0x8
 1468 09b3 07       		.uleb128 0x7
 1469 09b4 B6060000 		.4byte	.LASF161
 1470 09b8 0F       		.byte	0xf
 1471 09b9 3E       		.byte	0x3e
 1472 09ba 040A0000 		.4byte	0xa04
 1473 09be 0C       		.byte	0xc
 1474 09bf 00       		.byte	0
 1475 09c0 0A       		.uleb128 0xa
 1476 09c1 04       		.byte	0x4
 1477 09c2 8F090000 		.4byte	0x98f
 1478 09c6 0A       		.uleb128 0xa
 1479 09c7 04       		.byte	0x4
 1480 09c8 D3090000 		.4byte	0x9d3
 1481 09cc 04       		.uleb128 0x4
 1482 09cd 01       		.byte	0x1
ARM GAS  /tmp/ccXYQMA7.s 			page 27


 1483 09ce 08       		.byte	0x8
 1484 09cf 9A060000 		.4byte	.LASF162
 1485 09d3 1B       		.uleb128 0x1b
 1486 09d4 CC090000 		.4byte	0x9cc
 1487 09d8 0A       		.uleb128 0xa
 1488 09d9 04       		.byte	0x4
 1489 09da 17070000 		.4byte	0x717
 1490 09de 0A       		.uleb128 0xa
 1491 09df 04       		.byte	0x4
 1492 09e0 4F030000 		.4byte	0x34f
 1493 09e4 05       		.uleb128 0x5
 1494 09e5 C6090000 		.4byte	0x9c6
 1495 09e9 12       		.uleb128 0x12
 1496 09ea 17070000 		.4byte	0x717
 1497 09ee F9090000 		.4byte	0x9f9
 1498 09f2 13       		.uleb128 0x13
 1499 09f3 BC040000 		.4byte	0x4bc
 1500 09f7 1E       		.byte	0x1e
 1501 09f8 00       		.byte	0
 1502 09f9 03       		.uleb128 0x3
 1503 09fa 58020000 		.4byte	.LASF163
 1504 09fe 0F       		.byte	0xf
 1505 09ff 34       		.byte	0x34
 1506 0a00 8F090000 		.4byte	0x98f
 1507 0a04 0A       		.uleb128 0xa
 1508 0a05 04       		.byte	0x4
 1509 0a06 F9090000 		.4byte	0x9f9
 1510 0a0a 04       		.uleb128 0x4
 1511 0a0b 01       		.byte	0x1
 1512 0a0c 02       		.byte	0x2
 1513 0a0d D3040000 		.4byte	.LASF164
 1514 0a11 1C       		.uleb128 0x1c
 1515 0a12 25030000 		.4byte	.LASF169
 1516 0a16 01       		.byte	0x1
 1517 0a17 36       		.byte	0x36
 1518 0a18 01       		.byte	0x1
 1519 0a19 1D       		.uleb128 0x1d
 1520 0a1a 1C070000 		.4byte	.LASF170
 1521 0a1e 01       		.byte	0x1
 1522 0a1f 72       		.byte	0x72
 1523 0a20 00000000 		.4byte	.LFB259
 1524 0a24 64000000 		.4byte	.LFE259-.LFB259
 1525 0a28 01       		.uleb128 0x1
 1526 0a29 9C       		.byte	0x9c
 1527 0a2a 470A0000 		.4byte	0xa47
 1528 0a2e 1E       		.uleb128 0x1e
 1529 0a2f 110A0000 		.4byte	0xa11
 1530 0a33 18000000 		.4byte	.LBB4
 1531 0a37 00000000 		.4byte	.Ldebug_ranges0+0
 1532 0a3b 01       		.byte	0x1
 1533 0a3c 7F       		.byte	0x7f
 1534 0a3d 1F       		.uleb128 0x1f
 1535 0a3e 5C000000 		.4byte	.LVL0
 1536 0a42 800A0000 		.4byte	0xa80
 1537 0a46 00       		.byte	0
 1538 0a47 20       		.uleb128 0x20
 1539 0a48 27010000 		.4byte	.LASF171
ARM GAS  /tmp/ccXYQMA7.s 			page 28


 1540 0a4c 01       		.byte	0x1
 1541 0a4d 92       		.byte	0x92
 1542 0a4e 00000000 		.4byte	.LFB260
 1543 0a52 C8000000 		.4byte	.LFE260-.LFB260
 1544 0a56 01       		.uleb128 0x1
 1545 0a57 9C       		.byte	0x9c
 1546 0a58 21       		.uleb128 0x21
 1547 0a59 00010000 		.4byte	.LASF165
 1548 0a5d 10       		.byte	0x10
 1549 0a5e A706     		.2byte	0x6a7
 1550 0a60 D1000000 		.4byte	0xd1
 1551 0a64 22       		.uleb128 0x22
 1552 0a65 9E020000 		.4byte	.LASF166
 1553 0a69 01       		.byte	0x1
 1554 0a6a 27       		.byte	0x27
 1555 0a6b BB000000 		.4byte	0xbb
 1556 0a6f 05       		.uleb128 0x5
 1557 0a70 03       		.byte	0x3
 1558 0a71 00000000 		.4byte	SystemCoreClock
 1559 0a75 23       		.uleb128 0x23
 1560 0a76 636800   		.ascii	"ch\000"
 1561 0a79 07       		.byte	0x7
 1562 0a7a 0902     		.2byte	0x209
 1563 0a7c 44040000 		.4byte	0x444
 1564 0a80 24       		.uleb128 0x24
 1565 0a81 80060000 		.4byte	.LASF172
 1566 0a85 80060000 		.4byte	.LASF172
 1567 0a89 11       		.byte	0x11
 1568 0a8a C101     		.2byte	0x1c1
 1569 0a8c 00       		.byte	0
 1570              		.section	.debug_abbrev,"",%progbits
 1571              	.Ldebug_abbrev0:
 1572 0000 01       		.uleb128 0x1
 1573 0001 11       		.uleb128 0x11
 1574 0002 01       		.byte	0x1
 1575 0003 25       		.uleb128 0x25
 1576 0004 0E       		.uleb128 0xe
 1577 0005 13       		.uleb128 0x13
 1578 0006 0B       		.uleb128 0xb
 1579 0007 03       		.uleb128 0x3
 1580 0008 0E       		.uleb128 0xe
 1581 0009 55       		.uleb128 0x55
 1582 000a 17       		.uleb128 0x17
 1583 000b 11       		.uleb128 0x11
 1584 000c 01       		.uleb128 0x1
 1585 000d 10       		.uleb128 0x10
 1586 000e 17       		.uleb128 0x17
 1587 000f 00       		.byte	0
 1588 0010 00       		.byte	0
 1589 0011 02       		.uleb128 0x2
 1590 0012 24       		.uleb128 0x24
 1591 0013 00       		.byte	0
 1592 0014 0B       		.uleb128 0xb
 1593 0015 0B       		.uleb128 0xb
 1594 0016 3E       		.uleb128 0x3e
 1595 0017 0B       		.uleb128 0xb
 1596 0018 03       		.uleb128 0x3
ARM GAS  /tmp/ccXYQMA7.s 			page 29


 1597 0019 08       		.uleb128 0x8
 1598 001a 00       		.byte	0
 1599 001b 00       		.byte	0
 1600 001c 03       		.uleb128 0x3
 1601 001d 16       		.uleb128 0x16
 1602 001e 00       		.byte	0
 1603 001f 03       		.uleb128 0x3
 1604 0020 0E       		.uleb128 0xe
 1605 0021 3A       		.uleb128 0x3a
 1606 0022 0B       		.uleb128 0xb
 1607 0023 3B       		.uleb128 0x3b
 1608 0024 0B       		.uleb128 0xb
 1609 0025 49       		.uleb128 0x49
 1610 0026 13       		.uleb128 0x13
 1611 0027 00       		.byte	0
 1612 0028 00       		.byte	0
 1613 0029 04       		.uleb128 0x4
 1614 002a 24       		.uleb128 0x24
 1615 002b 00       		.byte	0
 1616 002c 0B       		.uleb128 0xb
 1617 002d 0B       		.uleb128 0xb
 1618 002e 3E       		.uleb128 0x3e
 1619 002f 0B       		.uleb128 0xb
 1620 0030 03       		.uleb128 0x3
 1621 0031 0E       		.uleb128 0xe
 1622 0032 00       		.byte	0
 1623 0033 00       		.byte	0
 1624 0034 05       		.uleb128 0x5
 1625 0035 35       		.uleb128 0x35
 1626 0036 00       		.byte	0
 1627 0037 49       		.uleb128 0x49
 1628 0038 13       		.uleb128 0x13
 1629 0039 00       		.byte	0
 1630 003a 00       		.byte	0
 1631 003b 06       		.uleb128 0x6
 1632 003c 13       		.uleb128 0x13
 1633 003d 01       		.byte	0x1
 1634 003e 03       		.uleb128 0x3
 1635 003f 0E       		.uleb128 0xe
 1636 0040 0B       		.uleb128 0xb
 1637 0041 0B       		.uleb128 0xb
 1638 0042 3A       		.uleb128 0x3a
 1639 0043 0B       		.uleb128 0xb
 1640 0044 3B       		.uleb128 0x3b
 1641 0045 0B       		.uleb128 0xb
 1642 0046 01       		.uleb128 0x1
 1643 0047 13       		.uleb128 0x13
 1644 0048 00       		.byte	0
 1645 0049 00       		.byte	0
 1646 004a 07       		.uleb128 0x7
 1647 004b 0D       		.uleb128 0xd
 1648 004c 00       		.byte	0
 1649 004d 03       		.uleb128 0x3
 1650 004e 0E       		.uleb128 0xe
 1651 004f 3A       		.uleb128 0x3a
 1652 0050 0B       		.uleb128 0xb
 1653 0051 3B       		.uleb128 0x3b
ARM GAS  /tmp/ccXYQMA7.s 			page 30


 1654 0052 0B       		.uleb128 0xb
 1655 0053 49       		.uleb128 0x49
 1656 0054 13       		.uleb128 0x13
 1657 0055 38       		.uleb128 0x38
 1658 0056 0B       		.uleb128 0xb
 1659 0057 00       		.byte	0
 1660 0058 00       		.byte	0
 1661 0059 08       		.uleb128 0x8
 1662 005a 0D       		.uleb128 0xd
 1663 005b 00       		.byte	0
 1664 005c 03       		.uleb128 0x3
 1665 005d 08       		.uleb128 0x8
 1666 005e 3A       		.uleb128 0x3a
 1667 005f 0B       		.uleb128 0xb
 1668 0060 3B       		.uleb128 0x3b
 1669 0061 05       		.uleb128 0x5
 1670 0062 49       		.uleb128 0x49
 1671 0063 13       		.uleb128 0x13
 1672 0064 38       		.uleb128 0x38
 1673 0065 0B       		.uleb128 0xb
 1674 0066 00       		.byte	0
 1675 0067 00       		.byte	0
 1676 0068 09       		.uleb128 0x9
 1677 0069 0D       		.uleb128 0xd
 1678 006a 00       		.byte	0
 1679 006b 03       		.uleb128 0x3
 1680 006c 0E       		.uleb128 0xe
 1681 006d 3A       		.uleb128 0x3a
 1682 006e 0B       		.uleb128 0xb
 1683 006f 3B       		.uleb128 0x3b
 1684 0070 05       		.uleb128 0x5
 1685 0071 49       		.uleb128 0x49
 1686 0072 13       		.uleb128 0x13
 1687 0073 38       		.uleb128 0x38
 1688 0074 0B       		.uleb128 0xb
 1689 0075 00       		.byte	0
 1690 0076 00       		.byte	0
 1691 0077 0A       		.uleb128 0xa
 1692 0078 0F       		.uleb128 0xf
 1693 0079 00       		.byte	0
 1694 007a 0B       		.uleb128 0xb
 1695 007b 0B       		.uleb128 0xb
 1696 007c 49       		.uleb128 0x49
 1697 007d 13       		.uleb128 0x13
 1698 007e 00       		.byte	0
 1699 007f 00       		.byte	0
 1700 0080 0B       		.uleb128 0xb
 1701 0081 13       		.uleb128 0x13
 1702 0082 01       		.byte	0x1
 1703 0083 03       		.uleb128 0x3
 1704 0084 0E       		.uleb128 0xe
 1705 0085 0B       		.uleb128 0xb
 1706 0086 0B       		.uleb128 0xb
 1707 0087 3A       		.uleb128 0x3a
 1708 0088 0B       		.uleb128 0xb
 1709 0089 3B       		.uleb128 0x3b
 1710 008a 05       		.uleb128 0x5
ARM GAS  /tmp/ccXYQMA7.s 			page 31


 1711 008b 01       		.uleb128 0x1
 1712 008c 13       		.uleb128 0x13
 1713 008d 00       		.byte	0
 1714 008e 00       		.byte	0
 1715 008f 0C       		.uleb128 0xc
 1716 0090 15       		.uleb128 0x15
 1717 0091 01       		.byte	0x1
 1718 0092 27       		.uleb128 0x27
 1719 0093 19       		.uleb128 0x19
 1720 0094 01       		.uleb128 0x1
 1721 0095 13       		.uleb128 0x13
 1722 0096 00       		.byte	0
 1723 0097 00       		.byte	0
 1724 0098 0D       		.uleb128 0xd
 1725 0099 05       		.uleb128 0x5
 1726 009a 00       		.byte	0
 1727 009b 49       		.uleb128 0x49
 1728 009c 13       		.uleb128 0x13
 1729 009d 00       		.byte	0
 1730 009e 00       		.byte	0
 1731 009f 0E       		.uleb128 0xe
 1732 00a0 0F       		.uleb128 0xf
 1733 00a1 00       		.byte	0
 1734 00a2 0B       		.uleb128 0xb
 1735 00a3 0B       		.uleb128 0xb
 1736 00a4 00       		.byte	0
 1737 00a5 00       		.byte	0
 1738 00a6 0F       		.uleb128 0xf
 1739 00a7 13       		.uleb128 0x13
 1740 00a8 01       		.byte	0x1
 1741 00a9 03       		.uleb128 0x3
 1742 00aa 0E       		.uleb128 0xe
 1743 00ab 0B       		.uleb128 0xb
 1744 00ac 05       		.uleb128 0x5
 1745 00ad 3A       		.uleb128 0x3a
 1746 00ae 0B       		.uleb128 0xb
 1747 00af 3B       		.uleb128 0x3b
 1748 00b0 05       		.uleb128 0x5
 1749 00b1 01       		.uleb128 0x1
 1750 00b2 13       		.uleb128 0x13
 1751 00b3 00       		.byte	0
 1752 00b4 00       		.byte	0
 1753 00b5 10       		.uleb128 0x10
 1754 00b6 0D       		.uleb128 0xd
 1755 00b7 00       		.byte	0
 1756 00b8 03       		.uleb128 0x3
 1757 00b9 0E       		.uleb128 0xe
 1758 00ba 3A       		.uleb128 0x3a
 1759 00bb 0B       		.uleb128 0xb
 1760 00bc 3B       		.uleb128 0x3b
 1761 00bd 05       		.uleb128 0x5
 1762 00be 49       		.uleb128 0x49
 1763 00bf 13       		.uleb128 0x13
 1764 00c0 38       		.uleb128 0x38
 1765 00c1 05       		.uleb128 0x5
 1766 00c2 00       		.byte	0
 1767 00c3 00       		.byte	0
ARM GAS  /tmp/ccXYQMA7.s 			page 32


 1768 00c4 11       		.uleb128 0x11
 1769 00c5 0D       		.uleb128 0xd
 1770 00c6 00       		.byte	0
 1771 00c7 03       		.uleb128 0x3
 1772 00c8 08       		.uleb128 0x8
 1773 00c9 3A       		.uleb128 0x3a
 1774 00ca 0B       		.uleb128 0xb
 1775 00cb 3B       		.uleb128 0x3b
 1776 00cc 05       		.uleb128 0x5
 1777 00cd 49       		.uleb128 0x49
 1778 00ce 13       		.uleb128 0x13
 1779 00cf 38       		.uleb128 0x38
 1780 00d0 05       		.uleb128 0x5
 1781 00d1 00       		.byte	0
 1782 00d2 00       		.byte	0
 1783 00d3 12       		.uleb128 0x12
 1784 00d4 01       		.uleb128 0x1
 1785 00d5 01       		.byte	0x1
 1786 00d6 49       		.uleb128 0x49
 1787 00d7 13       		.uleb128 0x13
 1788 00d8 01       		.uleb128 0x1
 1789 00d9 13       		.uleb128 0x13
 1790 00da 00       		.byte	0
 1791 00db 00       		.byte	0
 1792 00dc 13       		.uleb128 0x13
 1793 00dd 21       		.uleb128 0x21
 1794 00de 00       		.byte	0
 1795 00df 49       		.uleb128 0x49
 1796 00e0 13       		.uleb128 0x13
 1797 00e1 2F       		.uleb128 0x2f
 1798 00e2 0B       		.uleb128 0xb
 1799 00e3 00       		.byte	0
 1800 00e4 00       		.byte	0
 1801 00e5 14       		.uleb128 0x14
 1802 00e6 13       		.uleb128 0x13
 1803 00e7 01       		.byte	0x1
 1804 00e8 0B       		.uleb128 0xb
 1805 00e9 0B       		.uleb128 0xb
 1806 00ea 3A       		.uleb128 0x3a
 1807 00eb 0B       		.uleb128 0xb
 1808 00ec 3B       		.uleb128 0x3b
 1809 00ed 05       		.uleb128 0x5
 1810 00ee 01       		.uleb128 0x1
 1811 00ef 13       		.uleb128 0x13
 1812 00f0 00       		.byte	0
 1813 00f1 00       		.byte	0
 1814 00f2 15       		.uleb128 0x15
 1815 00f3 16       		.uleb128 0x16
 1816 00f4 00       		.byte	0
 1817 00f5 03       		.uleb128 0x3
 1818 00f6 0E       		.uleb128 0xe
 1819 00f7 3A       		.uleb128 0x3a
 1820 00f8 0B       		.uleb128 0xb
 1821 00f9 3B       		.uleb128 0x3b
 1822 00fa 05       		.uleb128 0x5
 1823 00fb 49       		.uleb128 0x49
 1824 00fc 13       		.uleb128 0x13
ARM GAS  /tmp/ccXYQMA7.s 			page 33


 1825 00fd 00       		.byte	0
 1826 00fe 00       		.byte	0
 1827 00ff 16       		.uleb128 0x16
 1828 0100 0D       		.uleb128 0xd
 1829 0101 00       		.byte	0
 1830 0102 03       		.uleb128 0x3
 1831 0103 08       		.uleb128 0x8
 1832 0104 3A       		.uleb128 0x3a
 1833 0105 0B       		.uleb128 0xb
 1834 0106 3B       		.uleb128 0x3b
 1835 0107 0B       		.uleb128 0xb
 1836 0108 49       		.uleb128 0x49
 1837 0109 13       		.uleb128 0x13
 1838 010a 38       		.uleb128 0x38
 1839 010b 0B       		.uleb128 0xb
 1840 010c 00       		.byte	0
 1841 010d 00       		.byte	0
 1842 010e 17       		.uleb128 0x17
 1843 010f 13       		.uleb128 0x13
 1844 0110 01       		.byte	0x1
 1845 0111 0B       		.uleb128 0xb
 1846 0112 0B       		.uleb128 0xb
 1847 0113 3A       		.uleb128 0x3a
 1848 0114 0B       		.uleb128 0xb
 1849 0115 3B       		.uleb128 0x3b
 1850 0116 0B       		.uleb128 0xb
 1851 0117 01       		.uleb128 0x1
 1852 0118 13       		.uleb128 0x13
 1853 0119 00       		.byte	0
 1854 011a 00       		.byte	0
 1855 011b 18       		.uleb128 0x18
 1856 011c 13       		.uleb128 0x13
 1857 011d 01       		.byte	0x1
 1858 011e 0B       		.uleb128 0xb
 1859 011f 05       		.uleb128 0x5
 1860 0120 3A       		.uleb128 0x3a
 1861 0121 0B       		.uleb128 0xb
 1862 0122 3B       		.uleb128 0x3b
 1863 0123 0B       		.uleb128 0xb
 1864 0124 01       		.uleb128 0x1
 1865 0125 13       		.uleb128 0x13
 1866 0126 00       		.byte	0
 1867 0127 00       		.byte	0
 1868 0128 19       		.uleb128 0x19
 1869 0129 17       		.uleb128 0x17
 1870 012a 01       		.byte	0x1
 1871 012b 0B       		.uleb128 0xb
 1872 012c 0B       		.uleb128 0xb
 1873 012d 3A       		.uleb128 0x3a
 1874 012e 0B       		.uleb128 0xb
 1875 012f 3B       		.uleb128 0x3b
 1876 0130 0B       		.uleb128 0xb
 1877 0131 01       		.uleb128 0x1
 1878 0132 13       		.uleb128 0x13
 1879 0133 00       		.byte	0
 1880 0134 00       		.byte	0
 1881 0135 1A       		.uleb128 0x1a
ARM GAS  /tmp/ccXYQMA7.s 			page 34


 1882 0136 0D       		.uleb128 0xd
 1883 0137 00       		.byte	0
 1884 0138 03       		.uleb128 0x3
 1885 0139 0E       		.uleb128 0xe
 1886 013a 3A       		.uleb128 0x3a
 1887 013b 0B       		.uleb128 0xb
 1888 013c 3B       		.uleb128 0x3b
 1889 013d 05       		.uleb128 0x5
 1890 013e 49       		.uleb128 0x49
 1891 013f 13       		.uleb128 0x13
 1892 0140 00       		.byte	0
 1893 0141 00       		.byte	0
 1894 0142 1B       		.uleb128 0x1b
 1895 0143 26       		.uleb128 0x26
 1896 0144 00       		.byte	0
 1897 0145 49       		.uleb128 0x49
 1898 0146 13       		.uleb128 0x13
 1899 0147 00       		.byte	0
 1900 0148 00       		.byte	0
 1901 0149 1C       		.uleb128 0x1c
 1902 014a 2E       		.uleb128 0x2e
 1903 014b 00       		.byte	0
 1904 014c 03       		.uleb128 0x3
 1905 014d 0E       		.uleb128 0xe
 1906 014e 3A       		.uleb128 0x3a
 1907 014f 0B       		.uleb128 0xb
 1908 0150 3B       		.uleb128 0x3b
 1909 0151 0B       		.uleb128 0xb
 1910 0152 27       		.uleb128 0x27
 1911 0153 19       		.uleb128 0x19
 1912 0154 20       		.uleb128 0x20
 1913 0155 0B       		.uleb128 0xb
 1914 0156 00       		.byte	0
 1915 0157 00       		.byte	0
 1916 0158 1D       		.uleb128 0x1d
 1917 0159 2E       		.uleb128 0x2e
 1918 015a 01       		.byte	0x1
 1919 015b 3F       		.uleb128 0x3f
 1920 015c 19       		.uleb128 0x19
 1921 015d 03       		.uleb128 0x3
 1922 015e 0E       		.uleb128 0xe
 1923 015f 3A       		.uleb128 0x3a
 1924 0160 0B       		.uleb128 0xb
 1925 0161 3B       		.uleb128 0x3b
 1926 0162 0B       		.uleb128 0xb
 1927 0163 27       		.uleb128 0x27
 1928 0164 19       		.uleb128 0x19
 1929 0165 11       		.uleb128 0x11
 1930 0166 01       		.uleb128 0x1
 1931 0167 12       		.uleb128 0x12
 1932 0168 06       		.uleb128 0x6
 1933 0169 40       		.uleb128 0x40
 1934 016a 18       		.uleb128 0x18
 1935 016b 9742     		.uleb128 0x2117
 1936 016d 19       		.uleb128 0x19
 1937 016e 01       		.uleb128 0x1
 1938 016f 13       		.uleb128 0x13
ARM GAS  /tmp/ccXYQMA7.s 			page 35


 1939 0170 00       		.byte	0
 1940 0171 00       		.byte	0
 1941 0172 1E       		.uleb128 0x1e
 1942 0173 1D       		.uleb128 0x1d
 1943 0174 00       		.byte	0
 1944 0175 31       		.uleb128 0x31
 1945 0176 13       		.uleb128 0x13
 1946 0177 52       		.uleb128 0x52
 1947 0178 01       		.uleb128 0x1
 1948 0179 55       		.uleb128 0x55
 1949 017a 17       		.uleb128 0x17
 1950 017b 58       		.uleb128 0x58
 1951 017c 0B       		.uleb128 0xb
 1952 017d 59       		.uleb128 0x59
 1953 017e 0B       		.uleb128 0xb
 1954 017f 00       		.byte	0
 1955 0180 00       		.byte	0
 1956 0181 1F       		.uleb128 0x1f
 1957 0182 898201   		.uleb128 0x4109
 1958 0185 00       		.byte	0
 1959 0186 11       		.uleb128 0x11
 1960 0187 01       		.uleb128 0x1
 1961 0188 9542     		.uleb128 0x2115
 1962 018a 19       		.uleb128 0x19
 1963 018b 31       		.uleb128 0x31
 1964 018c 13       		.uleb128 0x13
 1965 018d 00       		.byte	0
 1966 018e 00       		.byte	0
 1967 018f 20       		.uleb128 0x20
 1968 0190 2E       		.uleb128 0x2e
 1969 0191 00       		.byte	0
 1970 0192 3F       		.uleb128 0x3f
 1971 0193 19       		.uleb128 0x19
 1972 0194 03       		.uleb128 0x3
 1973 0195 0E       		.uleb128 0xe
 1974 0196 3A       		.uleb128 0x3a
 1975 0197 0B       		.uleb128 0xb
 1976 0198 3B       		.uleb128 0x3b
 1977 0199 0B       		.uleb128 0xb
 1978 019a 27       		.uleb128 0x27
 1979 019b 19       		.uleb128 0x19
 1980 019c 11       		.uleb128 0x11
 1981 019d 01       		.uleb128 0x1
 1982 019e 12       		.uleb128 0x12
 1983 019f 06       		.uleb128 0x6
 1984 01a0 40       		.uleb128 0x40
 1985 01a1 18       		.uleb128 0x18
 1986 01a2 9742     		.uleb128 0x2117
 1987 01a4 19       		.uleb128 0x19
 1988 01a5 00       		.byte	0
 1989 01a6 00       		.byte	0
 1990 01a7 21       		.uleb128 0x21
 1991 01a8 34       		.uleb128 0x34
 1992 01a9 00       		.byte	0
 1993 01aa 03       		.uleb128 0x3
 1994 01ab 0E       		.uleb128 0xe
 1995 01ac 3A       		.uleb128 0x3a
ARM GAS  /tmp/ccXYQMA7.s 			page 36


 1996 01ad 0B       		.uleb128 0xb
 1997 01ae 3B       		.uleb128 0x3b
 1998 01af 05       		.uleb128 0x5
 1999 01b0 49       		.uleb128 0x49
 2000 01b1 13       		.uleb128 0x13
 2001 01b2 3F       		.uleb128 0x3f
 2002 01b3 19       		.uleb128 0x19
 2003 01b4 3C       		.uleb128 0x3c
 2004 01b5 19       		.uleb128 0x19
 2005 01b6 00       		.byte	0
 2006 01b7 00       		.byte	0
 2007 01b8 22       		.uleb128 0x22
 2008 01b9 34       		.uleb128 0x34
 2009 01ba 00       		.byte	0
 2010 01bb 03       		.uleb128 0x3
 2011 01bc 0E       		.uleb128 0xe
 2012 01bd 3A       		.uleb128 0x3a
 2013 01be 0B       		.uleb128 0xb
 2014 01bf 3B       		.uleb128 0x3b
 2015 01c0 0B       		.uleb128 0xb
 2016 01c1 49       		.uleb128 0x49
 2017 01c2 13       		.uleb128 0x13
 2018 01c3 3F       		.uleb128 0x3f
 2019 01c4 19       		.uleb128 0x19
 2020 01c5 02       		.uleb128 0x2
 2021 01c6 18       		.uleb128 0x18
 2022 01c7 00       		.byte	0
 2023 01c8 00       		.byte	0
 2024 01c9 23       		.uleb128 0x23
 2025 01ca 34       		.uleb128 0x34
 2026 01cb 00       		.byte	0
 2027 01cc 03       		.uleb128 0x3
 2028 01cd 08       		.uleb128 0x8
 2029 01ce 3A       		.uleb128 0x3a
 2030 01cf 0B       		.uleb128 0xb
 2031 01d0 3B       		.uleb128 0x3b
 2032 01d1 05       		.uleb128 0x5
 2033 01d2 49       		.uleb128 0x49
 2034 01d3 13       		.uleb128 0x13
 2035 01d4 3F       		.uleb128 0x3f
 2036 01d5 19       		.uleb128 0x19
 2037 01d6 3C       		.uleb128 0x3c
 2038 01d7 19       		.uleb128 0x19
 2039 01d8 00       		.byte	0
 2040 01d9 00       		.byte	0
 2041 01da 24       		.uleb128 0x24
 2042 01db 2E       		.uleb128 0x2e
 2043 01dc 00       		.byte	0
 2044 01dd 3F       		.uleb128 0x3f
 2045 01de 19       		.uleb128 0x19
 2046 01df 3C       		.uleb128 0x3c
 2047 01e0 19       		.uleb128 0x19
 2048 01e1 6E       		.uleb128 0x6e
 2049 01e2 0E       		.uleb128 0xe
 2050 01e3 03       		.uleb128 0x3
 2051 01e4 0E       		.uleb128 0xe
 2052 01e5 3A       		.uleb128 0x3a
ARM GAS  /tmp/ccXYQMA7.s 			page 37


 2053 01e6 0B       		.uleb128 0xb
 2054 01e7 3B       		.uleb128 0x3b
 2055 01e8 05       		.uleb128 0x5
 2056 01e9 00       		.byte	0
 2057 01ea 00       		.byte	0
 2058 01eb 00       		.byte	0
 2059              		.section	.debug_aranges,"",%progbits
 2060 0000 24000000 		.4byte	0x24
 2061 0004 0200     		.2byte	0x2
 2062 0006 00000000 		.4byte	.Ldebug_info0
 2063 000a 04       		.byte	0x4
 2064 000b 00       		.byte	0
 2065 000c 0000     		.2byte	0
 2066 000e 0000     		.2byte	0
 2067 0010 00000000 		.4byte	.LFB259
 2068 0014 64000000 		.4byte	.LFE259-.LFB259
 2069 0018 00000000 		.4byte	.LFB260
 2070 001c C8000000 		.4byte	.LFE260-.LFB260
 2071 0020 00000000 		.4byte	0
 2072 0024 00000000 		.4byte	0
 2073              		.section	.debug_ranges,"",%progbits
 2074              	.Ldebug_ranges0:
 2075 0000 18000000 		.4byte	.LBB4
 2076 0004 1A000000 		.4byte	.LBE4
 2077 0008 30000000 		.4byte	.LBB8
 2078 000c 4E000000 		.4byte	.LBE8
 2079 0010 50000000 		.4byte	.LBB9
 2080 0014 58000000 		.4byte	.LBE9
 2081 0018 00000000 		.4byte	0
 2082 001c 00000000 		.4byte	0
 2083 0020 00000000 		.4byte	.LFB259
 2084 0024 64000000 		.4byte	.LFE259
 2085 0028 00000000 		.4byte	.LFB260
 2086 002c C8000000 		.4byte	.LFE260
 2087 0030 00000000 		.4byte	0
 2088 0034 00000000 		.4byte	0
 2089              		.section	.debug_line,"",%progbits
 2090              	.Ldebug_line0:
 2091 0000 20030000 		.section	.debug_str,"MS",%progbits,1
 2091      02009102 
 2091      00000201 
 2091      FB0E0D00 
 2091      01010101 
 2092              	.LASF133:
 2093 0000 74625F70 		.ascii	"tb_ptr\000"
 2093      747200
 2094              	.LASF56:
 2095 0007 72656164 		.ascii	"ready_list_t\000"
 2095      795F6C69 
 2095      73745F74 
 2095      00
 2096              	.LASF127:
 2097 0014 73655F74 		.ascii	"se_time\000"
 2097      696D6500 
 2098              	.LASF4:
 2099 001c 73697A65 		.ascii	"size_t\000"
 2099      5F7400
ARM GAS  /tmp/ccXYQMA7.s 			page 38


 2100              	.LASF148:
 2101 0023 7264796D 		.ascii	"rdymsg\000"
 2101      736700
 2102              	.LASF18:
 2103 002a 75696E74 		.ascii	"uint64_t\000"
 2103      36345F74 
 2103      00
 2104              	.LASF86:
 2105 0033 6B65726E 		.ascii	"kernel_stats\000"
 2105      656C5F73 
 2105      74617473 
 2105      00
 2106              	.LASF5:
 2107 0040 5F5F7569 		.ascii	"__uint8_t\000"
 2107      6E74385F 
 2107      7400
 2108              	.LASF126:
 2109 004a 706F7274 		.ascii	"port_intctx\000"
 2109      5F696E74 
 2109      63747800 
 2110              	.LASF55:
 2111 0056 63685F74 		.ascii	"ch_threads_queue\000"
 2111      68726561 
 2111      64735F71 
 2111      75657565 
 2111      00
 2112              	.LASF75:
 2113 0067 73797374 		.ascii	"system_debug_t\000"
 2113      656D5F64 
 2113      65627567 
 2113      5F7400
 2114              	.LASF91:
 2115 0076 4F505443 		.ascii	"OPTCR\000"
 2115      5200
 2116              	.LASF139:
 2117 007c 776F7273 		.ascii	"worst\000"
 2117      7400
 2118              	.LASF92:
 2119 0082 4F505443 		.ascii	"OPTCR1\000"
 2119      523100
 2120              	.LASF142:
 2121 0089 74696D65 		.ascii	"time_measurement_t\000"
 2121      5F6D6561 
 2121      73757265 
 2121      6D656E74 
 2121      5F7400
 2122              	.LASF14:
 2123 009c 6C6F6E67 		.ascii	"long long unsigned int\000"
 2123      206C6F6E 
 2123      6720756E 
 2123      7369676E 
 2123      65642069 
 2124              	.LASF135:
 2125 00b3 63685F74 		.ascii	"ch_trace_buffer_t\000"
 2125      72616365 
 2125      5F627566 
 2125      6665725F 
ARM GAS  /tmp/ccXYQMA7.s 			page 39


 2125      7400
 2126              	.LASF130:
 2127 00c5 73655F73 		.ascii	"se_state\000"
 2127      74617465 
 2127      00
 2128              	.LASF156:
 2129 00ce 735F7175 		.ascii	"s_queue\000"
 2129      65756500 
 2130              	.LASF149:
 2131 00d6 65786974 		.ascii	"exitcode\000"
 2131      636F6465 
 2131      00
 2132              	.LASF85:
 2133 00df 6D61696E 		.ascii	"mainthread\000"
 2133      74687265 
 2133      616400
 2134              	.LASF72:
 2135 00ea 76697274 		.ascii	"virtual_timers_list_t\000"
 2135      75616C5F 
 2135      74696D65 
 2135      72735F6C 
 2135      6973745F 
 2136              	.LASF165:
 2137 0100 49544D5F 		.ascii	"ITM_RxBuffer\000"
 2137      52784275 
 2137      66666572 
 2137      00
 2138              	.LASF20:
 2139 010d 72747469 		.ascii	"rttime_t\000"
 2139      6D655F74 
 2139      00
 2140              	.LASF111:
 2141 0116 41484231 		.ascii	"AHB1LPENR\000"
 2141      4C50454E 
 2141      5200
 2142              	.LASF33:
 2143 0120 705F7072 		.ascii	"p_prio\000"
 2143      696F00
 2144              	.LASF171:
 2145 0127 73746D33 		.ascii	"stm32_clock_init\000"
 2145      325F636C 
 2145      6F636B5F 
 2145      696E6974 
 2145      00
 2146              	.LASF1:
 2147 0138 6C6F6E67 		.ascii	"long long int\000"
 2147      206C6F6E 
 2147      6720696E 
 2147      7400
 2148              	.LASF3:
 2149 0146 7369676E 		.ascii	"signed char\000"
 2149      65642063 
 2149      68617200 
 2150              	.LASF97:
 2151 0152 41484231 		.ascii	"AHB1RSTR\000"
 2151      52535452 
 2151      00
ARM GAS  /tmp/ccXYQMA7.s 			page 40


 2152              	.LASF93:
 2153 015b 464C4153 		.ascii	"FLASH_TypeDef\000"
 2153      485F5479 
 2153      70654465 
 2153      6600
 2154              	.LASF48:
 2155 0169 705F6D70 		.ascii	"p_mpool\000"
 2155      6F6F6C00 
 2156              	.LASF159:
 2157 0171 6D5F7175 		.ascii	"m_queue\000"
 2157      65756500 
 2158              	.LASF84:
 2159 0179 76746C69 		.ascii	"vtlist\000"
 2159      737400
 2160              	.LASF94:
 2161 0180 5057525F 		.ascii	"PWR_TypeDef\000"
 2161      54797065 
 2161      44656600 
 2162              	.LASF151:
 2163 018c 77747472 		.ascii	"wttrp\000"
 2163      7000
 2164              	.LASF82:
 2165 0192 63685F73 		.ascii	"ch_system\000"
 2165      79737465 
 2165      6D00
 2166              	.LASF10:
 2167 019c 6C6F6E67 		.ascii	"long int\000"
 2167      20696E74 
 2167      00
 2168              	.LASF102:
 2169 01a5 41504232 		.ascii	"APB2RSTR\000"
 2169      52535452 
 2169      00
 2170              	.LASF115:
 2171 01ae 41504231 		.ascii	"APB1LPENR\000"
 2171      4C50454E 
 2171      5200
 2172              	.LASF22:
 2173 01b8 74737461 		.ascii	"tstate_t\000"
 2173      74655F74 
 2173      00
 2174              	.LASF128:
 2175 01c1 73655F74 		.ascii	"se_tp\000"
 2175      7000
 2176              	.LASF90:
 2177 01c7 4F50544B 		.ascii	"OPTKEYR\000"
 2177      45595200 
 2178              	.LASF35:
 2179 01cf 705F6E65 		.ascii	"p_newer\000"
 2179      77657200 
 2180              	.LASF95:
 2181 01d7 504C4C43 		.ascii	"PLLCFGR\000"
 2181      46475200 
 2182              	.LASF132:
 2183 01df 74625F73 		.ascii	"tb_size\000"
 2183      697A6500 
 2184              	.LASF61:
ARM GAS  /tmp/ccXYQMA7.s 			page 41


 2185 01e7 725F6E65 		.ascii	"r_newer\000"
 2185      77657200 
 2186              	.LASF123:
 2187 01ef 72656761 		.ascii	"regarm_t\000"
 2187      726D5F74 
 2187      00
 2188              	.LASF68:
 2189 01f8 76745F70 		.ascii	"vt_prev\000"
 2189      72657600 
 2190              	.LASF89:
 2191 0200 4B455952 		.ascii	"KEYR\000"
 2191      00
 2192              	.LASF76:
 2193 0205 63685F73 		.ascii	"ch_system_debug\000"
 2193      79737465 
 2193      6D5F6465 
 2193      62756700 
 2194              	.LASF168:
 2195 0215 2F686F6D 		.ascii	"/home/selim/working/ChibiOS/os/hal/ports/STM32/STM3"
 2195      652F7365 
 2195      6C696D2F 
 2195      776F726B 
 2195      696E672F 
 2196 0248 32463478 		.ascii	"2F4xx/hal_lld.c\000"
 2196      782F6861 
 2196      6C5F6C6C 
 2196      642E6300 
 2197              	.LASF163:
 2198 0258 6D757465 		.ascii	"mutex_t\000"
 2198      785F7400 
 2199              	.LASF79:
 2200 0260 6C6F636B 		.ascii	"lock_cnt\000"
 2200      5F636E74 
 2200      00
 2201              	.LASF87:
 2202 0269 69646C65 		.ascii	"idle_thread_wa\000"
 2202      5F746872 
 2202      6561645F 
 2202      776100
 2203              	.LASF27:
 2204 0278 636E745F 		.ascii	"cnt_t\000"
 2204      7400
 2205              	.LASF38:
 2206 027e 705F7374 		.ascii	"p_stklimit\000"
 2206      6B6C696D 
 2206      697400
 2207              	.LASF0:
 2208 0289 756E7369 		.ascii	"unsigned int\000"
 2208      676E6564 
 2208      20696E74 
 2208      00
 2209              	.LASF67:
 2210 0296 76745F6E 		.ascii	"vt_next\000"
 2210      65787400 
 2211              	.LASF166:
 2212 029e 53797374 		.ascii	"SystemCoreClock\000"
 2212      656D436F 
ARM GAS  /tmp/ccXYQMA7.s 			page 42


 2212      7265436C 
 2212      6F636B00 
 2213              	.LASF152:
 2214 02ae 77747365 		.ascii	"wtsemp\000"
 2214      6D7000
 2215              	.LASF43:
 2216 02b5 705F6D73 		.ascii	"p_msgqueue\000"
 2216      67717565 
 2216      756500
 2217              	.LASF122:
 2218 02c0 5243435F 		.ascii	"RCC_TypeDef\000"
 2218      54797065 
 2218      44656600 
 2219              	.LASF143:
 2220 02cc 6E5F6972 		.ascii	"n_irq\000"
 2220      7100
 2221              	.LASF157:
 2222 02d2 735F636E 		.ascii	"s_cnt\000"
 2222      7400
 2223              	.LASF8:
 2224 02d8 73686F72 		.ascii	"short unsigned int\000"
 2224      7420756E 
 2224      7369676E 
 2224      65642069 
 2224      6E7400
 2225              	.LASF147:
 2226 02eb 6B65726E 		.ascii	"kernel_stats_t\000"
 2226      656C5F73 
 2226      74617473 
 2226      5F7400
 2227              	.LASF52:
 2228 02fa 63685F74 		.ascii	"ch_thread\000"
 2228      68726561 
 2228      6400
 2229              	.LASF121:
 2230 0304 504C4C49 		.ascii	"PLLI2SCFGR\000"
 2230      32534346 
 2230      475200
 2231              	.LASF25:
 2232 030f 6D73675F 		.ascii	"msg_t\000"
 2232      7400
 2233              	.LASF99:
 2234 0315 41484233 		.ascii	"AHB3RSTR\000"
 2234      52535452 
 2234      00
 2235              	.LASF28:
 2236 031e 75636E74 		.ascii	"ucnt_t\000"
 2236      5F7400
 2237              	.LASF169:
 2238 0325 68616C5F 		.ascii	"hal_lld_backup_domain_init\000"
 2238      6C6C645F 
 2238      6261636B 
 2238      75705F64 
 2238      6F6D6169 
 2239              	.LASF81:
 2240 0340 63685F73 		.ascii	"ch_system_t\000"
 2240      79737465 
ARM GAS  /tmp/ccXYQMA7.s 			page 43


 2240      6D5F7400 
 2241              	.LASF134:
 2242 034c 74625F62 		.ascii	"tb_buffer\000"
 2242      75666665 
 2242      7200
 2243              	.LASF116:
 2244 0356 41504232 		.ascii	"APB2LPENR\000"
 2244      4C50454E 
 2244      5200
 2245              	.LASF146:
 2246 0360 6D5F6372 		.ascii	"m_crit_isr\000"
 2246      69745F69 
 2246      737200
 2247              	.LASF57:
 2248 036b 63685F72 		.ascii	"ch_ready_list\000"
 2248      65616479 
 2248      5F6C6973 
 2248      7400
 2249              	.LASF26:
 2250 0379 6576656E 		.ascii	"eventmask_t\000"
 2250      746D6173 
 2250      6B5F7400 
 2251              	.LASF9:
 2252 0385 5F5F696E 		.ascii	"__int32_t\000"
 2252      7433325F 
 2252      7400
 2253              	.LASF124:
 2254 038f 73746B61 		.ascii	"stkalign_t\000"
 2254      6C69676E 
 2254      5F7400
 2255              	.LASF51:
 2256 039a 74687265 		.ascii	"threads_list_t\000"
 2256      6164735F 
 2256      6C697374 
 2256      5F7400
 2257              	.LASF65:
 2258 03a9 76697274 		.ascii	"virtual_timer_t\000"
 2258      75616C5F 
 2258      74696D65 
 2258      725F7400 
 2259              	.LASF42:
 2260 03b9 705F7761 		.ascii	"p_waiting\000"
 2260      6974696E 
 2260      6700
 2261              	.LASF88:
 2262 03c3 73697A65 		.ascii	"sizetype\000"
 2262      74797065 
 2262      00
 2263              	.LASF50:
 2264 03cc 74687265 		.ascii	"thread_reference_t\000"
 2264      61645F72 
 2264      65666572 
 2264      656E6365 
 2264      5F7400
 2265              	.LASF73:
 2266 03df 63685F76 		.ascii	"ch_virtual_timers_list\000"
 2266      69727475 
ARM GAS  /tmp/ccXYQMA7.s 			page 44


 2266      616C5F74 
 2266      696D6572 
 2266      735F6C69 
 2267              	.LASF2:
 2268 03f6 6C6F6E67 		.ascii	"long double\000"
 2268      20646F75 
 2268      626C6500 
 2269              	.LASF131:
 2270 0402 63685F73 		.ascii	"ch_swc_event_t\000"
 2270      77635F65 
 2270      76656E74 
 2270      5F7400
 2271              	.LASF106:
 2272 0411 41484233 		.ascii	"AHB3ENR\000"
 2272      454E5200 
 2273              	.LASF74:
 2274 0419 76745F6C 		.ascii	"vt_lasttime\000"
 2274      61737474 
 2274      696D6500 
 2275              	.LASF36:
 2276 0425 705F6F6C 		.ascii	"p_older\000"
 2276      64657200 
 2277              	.LASF60:
 2278 042d 725F6374 		.ascii	"r_ctx\000"
 2278      7800
 2279              	.LASF112:
 2280 0433 41484232 		.ascii	"AHB2LPENR\000"
 2280      4C50454E 
 2280      5200
 2281              	.LASF137:
 2282 043d 746D5F63 		.ascii	"tm_calibration_t\000"
 2282      616C6962 
 2282      72617469 
 2282      6F6E5F74 
 2282      00
 2283              	.LASF63:
 2284 044e 725F6375 		.ascii	"r_current\000"
 2284      7272656E 
 2284      7400
 2285              	.LASF101:
 2286 0458 41504231 		.ascii	"APB1RSTR\000"
 2286      52535452 
 2286      00
 2287              	.LASF13:
 2288 0461 5F5F7569 		.ascii	"__uint64_t\000"
 2288      6E743634 
 2288      5F7400
 2289              	.LASF141:
 2290 046c 63756D75 		.ascii	"cumulative\000"
 2290      6C617469 
 2290      766500
 2291              	.LASF23:
 2292 0477 74726566 		.ascii	"trefs_t\000"
 2292      735F7400 
 2293              	.LASF100:
 2294 047f 52455345 		.ascii	"RESERVED0\000"
 2294      52564544 
ARM GAS  /tmp/ccXYQMA7.s 			page 45


 2294      3000
 2295              	.LASF103:
 2296 0489 52455345 		.ascii	"RESERVED1\000"
 2296      52564544 
 2296      3100
 2297              	.LASF107:
 2298 0493 52455345 		.ascii	"RESERVED2\000"
 2298      52564544 
 2298      3200
 2299              	.LASF110:
 2300 049d 52455345 		.ascii	"RESERVED3\000"
 2300      52564544 
 2300      3300
 2301              	.LASF114:
 2302 04a7 52455345 		.ascii	"RESERVED4\000"
 2302      52564544 
 2302      3400
 2303              	.LASF32:
 2304 04b1 705F7072 		.ascii	"p_prev\000"
 2304      657600
 2305              	.LASF119:
 2306 04b8 52455345 		.ascii	"RESERVED6\000"
 2306      52564544 
 2306      3600
 2307              	.LASF24:
 2308 04c2 74707269 		.ascii	"tprio_t\000"
 2308      6F5F7400 
 2309              	.LASF144:
 2310 04ca 6E5F6374 		.ascii	"n_ctxswc\000"
 2310      78737763 
 2310      00
 2311              	.LASF164:
 2312 04d3 5F426F6F 		.ascii	"_Bool\000"
 2312      6C00
 2313              	.LASF16:
 2314 04d9 696E7433 		.ascii	"int32_t\000"
 2314      325F7400 
 2315              	.LASF6:
 2316 04e1 756E7369 		.ascii	"unsigned char\000"
 2316      676E6564 
 2316      20636861 
 2316      7200
 2317              	.LASF46:
 2318 04ef 705F6D74 		.ascii	"p_mtxlist\000"
 2318      786C6973 
 2318      7400
 2319              	.LASF7:
 2320 04f9 73686F72 		.ascii	"short int\000"
 2320      7420696E 
 2320      7400
 2321              	.LASF39:
 2322 0503 705F7374 		.ascii	"p_state\000"
 2322      61746500 
 2323              	.LASF113:
 2324 050b 41484233 		.ascii	"AHB3LPENR\000"
 2324      4C50454E 
 2324      5200
ARM GAS  /tmp/ccXYQMA7.s 			page 46


 2325              	.LASF59:
 2326 0515 725F7072 		.ascii	"r_prio\000"
 2326      696F00
 2327              	.LASF167:
 2328 051c 474E5520 		.ascii	"GNU C11 5.3.1 20160307 (release) [ARM/embedded-5-br"
 2328      43313120 
 2328      352E332E 
 2328      31203230 
 2328      31363033 
 2329 054f 616E6368 		.ascii	"anch revision 234589] -mcpu=cortex-m4 -mno-thumb-in"
 2329      20726576 
 2329      6973696F 
 2329      6E203233 
 2329      34353839 
 2330 0582 74657277 		.ascii	"terwork -mthumb -ggdb -O2 -fomit-frame-pointer -fal"
 2330      6F726B20 
 2330      2D6D7468 
 2330      756D6220 
 2330      2D676764 
 2331 05b5 69676E2D 		.ascii	"ign-functions=16 -ffunction-sections -fdata-section"
 2331      66756E63 
 2331      74696F6E 
 2331      733D3136 
 2331      202D6666 
 2332 05e8 73202D66 		.ascii	"s -fno-common\000"
 2332      6E6F2D63 
 2332      6F6D6D6F 
 2332      6E00
 2333              	.LASF154:
 2334 05f6 65776D61 		.ascii	"ewmask\000"
 2334      736B00
 2335              	.LASF31:
 2336 05fd 705F6E65 		.ascii	"p_next\000"
 2336      787400
 2337              	.LASF40:
 2338 0604 705F666C 		.ascii	"p_flags\000"
 2338      61677300 
 2339              	.LASF49:
 2340 060c 705F7374 		.ascii	"p_stats\000"
 2340      61747300 
 2341              	.LASF109:
 2342 0614 41504232 		.ascii	"APB2ENR\000"
 2342      454E5200 
 2343              	.LASF66:
 2344 061c 63685F76 		.ascii	"ch_virtual_timer\000"
 2344      69727475 
 2344      616C5F74 
 2344      696D6572 
 2344      00
 2345              	.LASF155:
 2346 062d 63685F73 		.ascii	"ch_semaphore\000"
 2346      656D6170 
 2346      686F7265 
 2346      00
 2347              	.LASF45:
 2348 063a 705F6570 		.ascii	"p_epending\000"
 2348      656E6469 
ARM GAS  /tmp/ccXYQMA7.s 			page 47


 2348      6E6700
 2349              	.LASF117:
 2350 0645 52455345 		.ascii	"RESERVED5\000"
 2350      52564544 
 2350      3500
 2351              	.LASF17:
 2352 064f 75696E74 		.ascii	"uint32_t\000"
 2352      33325F74 
 2352      00
 2353              	.LASF153:
 2354 0658 77746D74 		.ascii	"wtmtxp\000"
 2354      787000
 2355              	.LASF58:
 2356 065f 725F7175 		.ascii	"r_queue\000"
 2356      65756500 
 2357              	.LASF69:
 2358 0667 76745F64 		.ascii	"vt_delta\000"
 2358      656C7461 
 2358      00
 2359              	.LASF53:
 2360 0670 63685F74 		.ascii	"ch_threads_list\000"
 2360      68726561 
 2360      64735F6C 
 2360      69737400 
 2361              	.LASF172:
 2362 0680 646D6149 		.ascii	"dmaInit\000"
 2362      6E697400 
 2363              	.LASF12:
 2364 0688 6C6F6E67 		.ascii	"long unsigned int\000"
 2364      20756E73 
 2364      69676E65 
 2364      6420696E 
 2364      7400
 2365              	.LASF162:
 2366 069a 63686172 		.ascii	"char\000"
 2366      00
 2367              	.LASF98:
 2368 069f 41484232 		.ascii	"AHB2RSTR\000"
 2368      52535452 
 2368      00
 2369              	.LASF30:
 2370 06a8 74687265 		.ascii	"thread_t\000"
 2370      61645F74 
 2370      00
 2371              	.LASF138:
 2372 06b1 62657374 		.ascii	"best\000"
 2372      00
 2373              	.LASF161:
 2374 06b6 6D5F6E65 		.ascii	"m_next\000"
 2374      787400
 2375              	.LASF29:
 2376 06bd 73797374 		.ascii	"systime_t\000"
 2376      696D655F 
 2376      7400
 2377              	.LASF47:
 2378 06c7 705F7265 		.ascii	"p_realprio\000"
 2378      616C7072 
ARM GAS  /tmp/ccXYQMA7.s 			page 48


 2378      696F00
 2379              	.LASF64:
 2380 06d2 76746675 		.ascii	"vtfunc_t\000"
 2380      6E635F74 
 2380      00
 2381              	.LASF11:
 2382 06db 5F5F7569 		.ascii	"__uint32_t\000"
 2382      6E743332 
 2382      5F7400
 2383              	.LASF140:
 2384 06e6 6C617374 		.ascii	"last\000"
 2384      00
 2385              	.LASF77:
 2386 06eb 70616E69 		.ascii	"panic_msg\000"
 2386      635F6D73 
 2386      6700
 2387              	.LASF136:
 2388 06f5 6F666673 		.ascii	"offset\000"
 2388      657400
 2389              	.LASF108:
 2390 06fc 41504231 		.ascii	"APB1ENR\000"
 2390      454E5200 
 2391              	.LASF105:
 2392 0704 41484232 		.ascii	"AHB2ENR\000"
 2392      454E5200 
 2393              	.LASF125:
 2394 070c 636F6E74 		.ascii	"context\000"
 2394      65787400 
 2395              	.LASF62:
 2396 0714 725F6F6C 		.ascii	"r_older\000"
 2396      64657200 
 2397              	.LASF170:
 2398 071c 68616C5F 		.ascii	"hal_lld_init\000"
 2398      6C6C645F 
 2398      696E6974 
 2398      00
 2399              	.LASF19:
 2400 0729 7274636E 		.ascii	"rtcnt_t\000"
 2400      745F7400 
 2401              	.LASF71:
 2402 0731 76745F70 		.ascii	"vt_par\000"
 2402      617200
 2403              	.LASF120:
 2404 0738 53534347 		.ascii	"SSCGR\000"
 2404      5200
 2405              	.LASF54:
 2406 073e 74687265 		.ascii	"threads_queue_t\000"
 2406      6164735F 
 2406      71756575 
 2406      655F7400 
 2407              	.LASF158:
 2408 074e 63685F6D 		.ascii	"ch_mutex\000"
 2408      75746578 
 2408      00
 2409              	.LASF41:
 2410 0757 705F7265 		.ascii	"p_refs\000"
 2410      667300
ARM GAS  /tmp/ccXYQMA7.s 			page 49


 2411              	.LASF78:
 2412 075e 6973725F 		.ascii	"isr_cnt\000"
 2412      636E7400 
 2413              	.LASF118:
 2414 0766 42444352 		.ascii	"BDCR\000"
 2414      00
 2415              	.LASF83:
 2416 076b 726C6973 		.ascii	"rlist\000"
 2416      7400
 2417              	.LASF15:
 2418 0771 75696E74 		.ascii	"uint8_t\000"
 2418      385F7400 
 2419              	.LASF150:
 2420 0779 77746F62 		.ascii	"wtobjp\000"
 2420      6A7000
 2421              	.LASF37:
 2422 0780 705F6E61 		.ascii	"p_name\000"
 2422      6D6500
 2423              	.LASF104:
 2424 0787 41484231 		.ascii	"AHB1ENR\000"
 2424      454E5200 
 2425              	.LASF96:
 2426 078f 43464752 		.ascii	"CFGR\000"
 2426      00
 2427              	.LASF21:
 2428 0794 746D6F64 		.ascii	"tmode_t\000"
 2428      655F7400 
 2429              	.LASF80:
 2430 079c 74726163 		.ascii	"trace_buffer\000"
 2430      655F6275 
 2430      66666572 
 2430      00
 2431              	.LASF44:
 2432 07a9 705F6D73 		.ascii	"p_msg\000"
 2432      6700
 2433              	.LASF145:
 2434 07af 6D5F6372 		.ascii	"m_crit_thd\000"
 2434      69745F74 
 2434      686400
 2435              	.LASF160:
 2436 07ba 6D5F6F77 		.ascii	"m_owner\000"
 2436      6E657200 
 2437              	.LASF129:
 2438 07c2 73655F77 		.ascii	"se_wtobjp\000"
 2438      746F626A 
 2438      7000
 2439              	.LASF34:
 2440 07cc 705F6374 		.ascii	"p_ctx\000"
 2440      7800
 2441              	.LASF70:
 2442 07d2 76745F66 		.ascii	"vt_func\000"
 2442      756E6300 
 2443              		.ident	"GCC: (GNU Tools for ARM Embedded Processors) 5.3.1 20160307 (release) [ARM/embedded-5-bran
ARM GAS  /tmp/ccXYQMA7.s 			page 50


DEFINED SYMBOLS
                            *ABS*:0000000000000000 hal_lld.c
     /tmp/ccXYQMA7.s:20     .text.hal_lld_init:0000000000000000 $t
     /tmp/ccXYQMA7.s:26     .text.hal_lld_init:0000000000000000 hal_lld_init
     /tmp/ccXYQMA7.s:109    .text.hal_lld_init:000000000000005c $d
     /tmp/ccXYQMA7.s:115    .text.stm32_clock_init:0000000000000000 $t
     /tmp/ccXYQMA7.s:121    .text.stm32_clock_init:0000000000000000 stm32_clock_init
     /tmp/ccXYQMA7.s:245    .text.stm32_clock_init:00000000000000b4 $d
     /tmp/ccXYQMA7.s:258    .data.SystemCoreClock:0000000000000000 SystemCoreClock
     /tmp/ccXYQMA7.s:255    .data.SystemCoreClock:0000000000000000 $d
                     .debug_frame:0000000000000010 $d

UNDEFINED SYMBOLS
dmaInit
