ARM GAS  /tmp/ccI3AEmR.s 			page 1


   1              		.syntax unified
   2              		.cpu cortex-m4
   3              		.fpu softvfp
   4              		.eabi_attribute 20, 1
   5              		.eabi_attribute 21, 1
   6              		.eabi_attribute 23, 3
   7              		.eabi_attribute 24, 1
   8              		.eabi_attribute 25, 1
   9              		.eabi_attribute 26, 1
  10              		.eabi_attribute 30, 2
  11              		.eabi_attribute 34, 1
  12              		.eabi_attribute 18, 4
  13              		.thumb
  14              		.syntax unified
  15              		.file	"main.c"
  16              		.text
  17              	.Ltext0:
  18              		.cfi_sections	.debug_frame
  19              		.section	.text.led3off,"ax",%progbits
  20              		.align	2
  21              		.p2align 4,,15
  22              		.thumb
  23              		.thumb_func
  24              		.type	led3off, %function
  25              	led3off:
  26              	.LFB258:
  27              		.file 1 "main.c"
  28              		.loc 1 25 0
  29              		.cfi_startproc
  30              		@ args = 0, pretend = 0, frame = 0
  31              		@ frame_needed = 0, uses_anonymous_args = 0
  32              		@ link register save eliminated.
  33              	.LVL0:
  34              		.loc 1 28 0
  35 0000 024B     		ldr	r3, .L2
  36 0002 4FF40052 		mov	r2, #8192
  37 0006 5A83     		strh	r2, [r3, #26]	@ movhi
  38 0008 7047     		bx	lr
  39              	.L3:
  40 000a 00BF     		.align	2
  41              	.L2:
  42 000c 000C0240 		.word	1073875968
  43              		.cfi_endproc
  44              	.LFE258:
  45              		.size	led3off, .-led3off
  46              		.section	.text.led4off,"ax",%progbits
  47              		.align	2
  48              		.p2align 4,,15
  49              		.thumb
  50              		.thumb_func
  51              		.type	led4off, %function
  52              	led4off:
  53              	.LFB259:
  54              		.loc 1 31 0
  55              		.cfi_startproc
  56              		@ args = 0, pretend = 0, frame = 0
  57              		@ frame_needed = 0, uses_anonymous_args = 0
ARM GAS  /tmp/ccI3AEmR.s 			page 2


  58              		@ link register save eliminated.
  59              	.LVL1:
  60              		.loc 1 34 0
  61 0000 024B     		ldr	r3, .L5
  62 0002 4FF48052 		mov	r2, #4096
  63 0006 5A83     		strh	r2, [r3, #26]	@ movhi
  64 0008 7047     		bx	lr
  65              	.L6:
  66 000a 00BF     		.align	2
  67              	.L5:
  68 000c 000C0240 		.word	1073875968
  69              		.cfi_endproc
  70              	.LFE259:
  71              		.size	led4off, .-led4off
  72              		.section	.text.led5off,"ax",%progbits
  73              		.align	2
  74              		.p2align 4,,15
  75              		.thumb
  76              		.thumb_func
  77              		.type	led5off, %function
  78              	led5off:
  79              	.LFB260:
  80              		.loc 1 37 0
  81              		.cfi_startproc
  82              		@ args = 0, pretend = 0, frame = 0
  83              		@ frame_needed = 0, uses_anonymous_args = 0
  84              		@ link register save eliminated.
  85              	.LVL2:
  86              		.loc 1 40 0
  87 0000 024B     		ldr	r3, .L8
  88 0002 4FF48042 		mov	r2, #16384
  89 0006 5A83     		strh	r2, [r3, #26]	@ movhi
  90 0008 7047     		bx	lr
  91              	.L9:
  92 000a 00BF     		.align	2
  93              	.L8:
  94 000c 000C0240 		.word	1073875968
  95              		.cfi_endproc
  96              	.LFE260:
  97              		.size	led5off, .-led5off
  98              		.section	.text.txend1,"ax",%progbits
  99              		.align	2
 100              		.p2align 4,,15
 101              		.thumb
 102              		.thumb_func
 103              		.type	txend1, %function
 104              	txend1:
 105              	.LFB261:
 106              		.loc 1 47 0
 107              		.cfi_startproc
 108              		@ args = 0, pretend = 0, frame = 0
 109              		@ frame_needed = 0, uses_anonymous_args = 0
 110              		@ link register save eliminated.
 111              	.LVL3:
 112 0000 7047     		bx	lr
 113              		.cfi_endproc
 114              	.LFE261:
ARM GAS  /tmp/ccI3AEmR.s 			page 3


 115              		.size	txend1, .-txend1
 116 0002 00BF     		.section	.text.rxerr,"ax",%progbits
 117              		.align	2
 118              		.p2align 4,,15
 119              		.thumb
 120              		.thumb_func
 121              		.type	rxerr, %function
 122              	rxerr:
 123              	.LFB263:
 124              		.loc 1 69 0
 125              		.cfi_startproc
 126              		@ args = 0, pretend = 0, frame = 0
 127              		@ frame_needed = 0, uses_anonymous_args = 0
 128              		@ link register save eliminated.
 129              	.LVL4:
 130 0000 7047     		bx	lr
 131              		.cfi_endproc
 132              	.LFE263:
 133              		.size	rxerr, .-rxerr
 134 0002 00BF     		.section	.text.rxchar,"ax",%progbits
 135              		.align	2
 136              		.p2align 4,,15
 137              		.thumb
 138              		.thumb_func
 139              		.type	rxchar, %function
 140              	rxchar:
 141              	.LFB264:
 142              		.loc 1 79 0
 143              		.cfi_startproc
 144              		@ args = 0, pretend = 0, frame = 0
 145              		@ frame_needed = 0, uses_anonymous_args = 0
 146              	.LVL5:
 147              		.loc 1 84 0
 148 0000 144B     		ldr	r3, .L23
 149 0002 4FF48052 		mov	r2, #4096
 150              		.loc 1 79 0
 151 0006 10B5     		push	{r4, lr}
 152              		.cfi_def_cfa_offset 8
 153              		.cfi_offset 4, -8
 154              		.cfi_offset 14, -4
 155              		.loc 1 84 0
 156 0008 1A83     		strh	r2, [r3, #24]	@ movhi
 157              	.LVL6:
 158              	.LBB104:
 159              	.LBB105:
 160              	.LBB106:
 161              	.LBB107:
 162              	.LBB108:
 163              	.LBB109:
 164              		.file 2 "/home/selim/working/ChibiOS/os/ext/CMSIS/include/core_cmFunc.h"
 165              		.loc 2 546 0
 166 000a 2023     		movs	r3, #32
 167              		.syntax unified
 168              	@ 546 "/home/selim/working/ChibiOS/os/ext/CMSIS/include/core_cmFunc.h" 1
 169 000c 83F31188 		MSR basepri, r3
 170              	@ 0 "" 2
 171              	.LVL7:
ARM GAS  /tmp/ccI3AEmR.s 			page 4


 172              		.thumb
 173              		.syntax unified
 174              	.LBE109:
 175              	.LBE108:
 176              	.LBE107:
 177              	.LBE106:
 178              	.LBE105:
 179              	.LBE104:
 180              	.LBB111:
 181              	.LBB112:
 182              	.LBB113:
 183              	.LBB114:
 184              		.file 3 "/home/selim/working/ChibiOS/os/rt/include/chvt.h"
 185              		.loc 3 341 0
 186 0010 114C     		ldr	r4, .L23+4
 187              	.LBE114:
 188              	.LBE113:
 189              	.LBE112:
 190              	.LBE111:
 191              	.LBB118:
 192              	.LBB110:
 193              		.file 4 "/home/selim/working/ChibiOS/os/rt/include/chsys.h"
 194              		.loc 4 389 0
 195 0012 FFF7FEFF 		bl	_stats_start_measure_crit_isr
 196              	.LVL8:
 197              		.loc 4 390 0
 198 0016 FFF7FEFF 		bl	_dbg_check_lock_from_isr
 199              	.LVL9:
 200              	.LBE110:
 201              	.LBE118:
 202              	.LBB119:
 203              	.LBB117:
 204              	.LBB116:
 205              	.LBB115:
 206              		.loc 3 339 0
 207 001a FFF7FEFF 		bl	chDbgCheckClassI
 208              	.LVL10:
 209              	.LBE115:
 210              	.LBE116:
 211              		.loc 3 376 0
 212 001e E368     		ldr	r3, [r4, #12]
 213 0020 13B1     		cbz	r3, .L13
 214              		.loc 3 377 0
 215 0022 2046     		mov	r0, r4
 216 0024 FFF7FEFF 		bl	chVTDoResetI
 217              	.LVL11:
 218              	.L13:
 219              	.LBE117:
 220              	.LBE119:
 221              	.LBB120:
 222              	.LBB121:
 223              	.LBB122:
 224              	.LBB123:
 225              	.LBB124:
 226              	.LBB125:
 227              		.loc 3 339 0
 228 0028 FFF7FEFF 		bl	chDbgCheckClassI
ARM GAS  /tmp/ccI3AEmR.s 			page 5


 229              	.LVL12:
 230              	.LBE125:
 231              	.LBE124:
 232              		.loc 3 376 0
 233 002c E368     		ldr	r3, [r4, #12]
 234 002e 13B1     		cbz	r3, .L14
 235              		.loc 3 377 0
 236 0030 0948     		ldr	r0, .L23+4
 237 0032 FFF7FEFF 		bl	chVTDoResetI
 238              	.LVL13:
 239              	.L14:
 240              	.LBE123:
 241              	.LBE122:
 242              		.loc 3 424 0
 243 0036 0023     		movs	r3, #0
 244 0038 084A     		ldr	r2, .L23+8
 245 003a 0748     		ldr	r0, .L23+4
 246 003c 4FF4FA61 		mov	r1, #2000
 247 0040 FFF7FEFF 		bl	chVTDoSetI
 248              	.LVL14:
 249              	.LBE121:
 250              	.LBE120:
 251              	.LBB126:
 252              	.LBB127:
 253              		.loc 4 408 0
 254 0044 FFF7FEFF 		bl	_dbg_check_unlock_from_isr
 255              	.LVL15:
 256              		.loc 4 409 0
 257 0048 FFF7FEFF 		bl	_stats_stop_measure_crit_isr
 258              	.LVL16:
 259              	.LBB128:
 260              	.LBB129:
 261              	.LBB130:
 262              	.LBB131:
 263              		.loc 2 546 0
 264 004c 0023     		movs	r3, #0
 265              		.syntax unified
 266              	@ 546 "/home/selim/working/ChibiOS/os/ext/CMSIS/include/core_cmFunc.h" 1
 267 004e 83F31188 		MSR basepri, r3
 268              	@ 0 "" 2
 269              	.LVL17:
 270              		.thumb
 271              		.syntax unified
 272 0052 10BD     		pop	{r4, pc}
 273              	.L24:
 274              		.align	2
 275              	.L23:
 276 0054 000C0240 		.word	1073875968
 277 0058 00000000 		.word	.LANCHOR0
 278 005c 00000000 		.word	led4off
 279              	.LBE131:
 280              	.LBE130:
 281              	.LBE129:
 282              	.LBE128:
 283              	.LBE127:
 284              	.LBE126:
 285              		.cfi_endproc
ARM GAS  /tmp/ccI3AEmR.s 			page 6


 286              	.LFE264:
 287              		.size	rxchar, .-rxchar
 288              		.section	.text.rxend,"ax",%progbits
 289              		.align	2
 290              		.p2align 4,,15
 291              		.thumb
 292              		.thumb_func
 293              		.type	rxend, %function
 294              	rxend:
 295              	.LFB265:
 296              		.loc 1 94 0
 297              		.cfi_startproc
 298              		@ args = 0, pretend = 0, frame = 0
 299              		@ frame_needed = 0, uses_anonymous_args = 0
 300              	.LVL18:
 301              		.loc 1 99 0
 302 0000 144B     		ldr	r3, .L35
 303 0002 4FF40052 		mov	r2, #8192
 304              		.loc 1 94 0
 305 0006 10B5     		push	{r4, lr}
 306              		.cfi_def_cfa_offset 8
 307              		.cfi_offset 4, -8
 308              		.cfi_offset 14, -4
 309              		.loc 1 99 0
 310 0008 1A83     		strh	r2, [r3, #24]	@ movhi
 311              	.LVL19:
 312              	.LBB154:
 313              	.LBB155:
 314              	.LBB156:
 315              	.LBB157:
 316              	.LBB158:
 317              	.LBB159:
 318              		.loc 2 546 0
 319 000a 2023     		movs	r3, #32
 320              		.syntax unified
 321              	@ 546 "/home/selim/working/ChibiOS/os/ext/CMSIS/include/core_cmFunc.h" 1
 322 000c 83F31188 		MSR basepri, r3
 323              	@ 0 "" 2
 324              	.LVL20:
 325              		.thumb
 326              		.syntax unified
 327              	.LBE159:
 328              	.LBE158:
 329              	.LBE157:
 330              	.LBE156:
 331              	.LBE155:
 332              	.LBE154:
 333              	.LBB161:
 334              	.LBB162:
 335              	.LBB163:
 336              	.LBB164:
 337              		.loc 3 341 0
 338 0010 114C     		ldr	r4, .L35+4
 339              	.LBE164:
 340              	.LBE163:
 341              	.LBE162:
 342              	.LBE161:
ARM GAS  /tmp/ccI3AEmR.s 			page 7


 343              	.LBB168:
 344              	.LBB160:
 345              		.loc 4 389 0
 346 0012 FFF7FEFF 		bl	_stats_start_measure_crit_isr
 347              	.LVL21:
 348              		.loc 4 390 0
 349 0016 FFF7FEFF 		bl	_dbg_check_lock_from_isr
 350              	.LVL22:
 351              	.LBE160:
 352              	.LBE168:
 353              	.LBB169:
 354              	.LBB167:
 355              	.LBB166:
 356              	.LBB165:
 357              		.loc 3 339 0
 358 001a FFF7FEFF 		bl	chDbgCheckClassI
 359              	.LVL23:
 360              	.LBE165:
 361              	.LBE166:
 362              		.loc 3 376 0
 363 001e E368     		ldr	r3, [r4, #12]
 364 0020 13B1     		cbz	r3, .L26
 365              		.loc 3 377 0
 366 0022 2046     		mov	r0, r4
 367 0024 FFF7FEFF 		bl	chVTDoResetI
 368              	.LVL24:
 369              	.L26:
 370              	.LBE167:
 371              	.LBE169:
 372              	.LBB170:
 373              	.LBB171:
 374              	.LBB172:
 375              	.LBB173:
 376              	.LBB174:
 377              	.LBB175:
 378              		.loc 3 339 0
 379 0028 FFF7FEFF 		bl	chDbgCheckClassI
 380              	.LVL25:
 381              	.LBE175:
 382              	.LBE174:
 383              		.loc 3 376 0
 384 002c E368     		ldr	r3, [r4, #12]
 385 002e 13B1     		cbz	r3, .L27
 386              		.loc 3 377 0
 387 0030 0948     		ldr	r0, .L35+4
 388 0032 FFF7FEFF 		bl	chVTDoResetI
 389              	.LVL26:
 390              	.L27:
 391              	.LBE173:
 392              	.LBE172:
 393              		.loc 3 424 0
 394 0036 0023     		movs	r3, #0
 395 0038 084A     		ldr	r2, .L35+8
 396 003a 0748     		ldr	r0, .L35+4
 397 003c 4FF4FA61 		mov	r1, #2000
 398 0040 FFF7FEFF 		bl	chVTDoSetI
 399              	.LVL27:
ARM GAS  /tmp/ccI3AEmR.s 			page 8


 400              	.LBE171:
 401              	.LBE170:
 402              	.LBB176:
 403              	.LBB177:
 404              		.loc 4 408 0
 405 0044 FFF7FEFF 		bl	_dbg_check_unlock_from_isr
 406              	.LVL28:
 407              		.loc 4 409 0
 408 0048 FFF7FEFF 		bl	_stats_stop_measure_crit_isr
 409              	.LVL29:
 410              	.LBB178:
 411              	.LBB179:
 412              	.LBB180:
 413              	.LBB181:
 414              		.loc 2 546 0
 415 004c 0023     		movs	r3, #0
 416              		.syntax unified
 417              	@ 546 "/home/selim/working/ChibiOS/os/ext/CMSIS/include/core_cmFunc.h" 1
 418 004e 83F31188 		MSR basepri, r3
 419              	@ 0 "" 2
 420              	.LVL30:
 421              		.thumb
 422              		.syntax unified
 423 0052 10BD     		pop	{r4, pc}
 424              	.L36:
 425              		.align	2
 426              	.L35:
 427 0054 000C0240 		.word	1073875968
 428 0058 00000000 		.word	.LANCHOR1
 429 005c 00000000 		.word	led3off
 430              	.LBE181:
 431              	.LBE180:
 432              	.LBE179:
 433              	.LBE178:
 434              	.LBE177:
 435              	.LBE176:
 436              		.cfi_endproc
 437              	.LFE265:
 438              		.size	rxend, .-rxend
 439              		.section	.text.txend2,"ax",%progbits
 440              		.align	2
 441              		.p2align 4,,15
 442              		.thumb
 443              		.thumb_func
 444              		.type	txend2, %function
 445              	txend2:
 446              	.LFB262:
 447              		.loc 1 55 0
 448              		.cfi_startproc
 449              		@ args = 0, pretend = 0, frame = 0
 450              		@ frame_needed = 0, uses_anonymous_args = 0
 451              	.LVL31:
 452              		.loc 1 58 0
 453 0000 144B     		ldr	r3, .L47
 454 0002 4FF48042 		mov	r2, #16384
 455              		.loc 1 55 0
 456 0006 10B5     		push	{r4, lr}
ARM GAS  /tmp/ccI3AEmR.s 			page 9


 457              		.cfi_def_cfa_offset 8
 458              		.cfi_offset 4, -8
 459              		.cfi_offset 14, -4
 460              		.loc 1 58 0
 461 0008 1A83     		strh	r2, [r3, #24]	@ movhi
 462              	.LVL32:
 463              	.LBB204:
 464              	.LBB205:
 465              	.LBB206:
 466              	.LBB207:
 467              	.LBB208:
 468              	.LBB209:
 469              		.loc 2 546 0
 470 000a 2023     		movs	r3, #32
 471              		.syntax unified
 472              	@ 546 "/home/selim/working/ChibiOS/os/ext/CMSIS/include/core_cmFunc.h" 1
 473 000c 83F31188 		MSR basepri, r3
 474              	@ 0 "" 2
 475              	.LVL33:
 476              		.thumb
 477              		.syntax unified
 478              	.LBE209:
 479              	.LBE208:
 480              	.LBE207:
 481              	.LBE206:
 482              	.LBE205:
 483              	.LBE204:
 484              	.LBB211:
 485              	.LBB212:
 486              	.LBB213:
 487              	.LBB214:
 488              		.loc 3 341 0
 489 0010 114C     		ldr	r4, .L47+4
 490              	.LBE214:
 491              	.LBE213:
 492              	.LBE212:
 493              	.LBE211:
 494              	.LBB218:
 495              	.LBB210:
 496              		.loc 4 389 0
 497 0012 FFF7FEFF 		bl	_stats_start_measure_crit_isr
 498              	.LVL34:
 499              		.loc 4 390 0
 500 0016 FFF7FEFF 		bl	_dbg_check_lock_from_isr
 501              	.LVL35:
 502              	.LBE210:
 503              	.LBE218:
 504              	.LBB219:
 505              	.LBB217:
 506              	.LBB216:
 507              	.LBB215:
 508              		.loc 3 339 0
 509 001a FFF7FEFF 		bl	chDbgCheckClassI
 510              	.LVL36:
 511              	.LBE215:
 512              	.LBE216:
 513              		.loc 3 376 0
ARM GAS  /tmp/ccI3AEmR.s 			page 10


 514 001e E368     		ldr	r3, [r4, #12]
 515 0020 13B1     		cbz	r3, .L38
 516              		.loc 3 377 0
 517 0022 2046     		mov	r0, r4
 518 0024 FFF7FEFF 		bl	chVTDoResetI
 519              	.LVL37:
 520              	.L38:
 521              	.LBE217:
 522              	.LBE219:
 523              	.LBB220:
 524              	.LBB221:
 525              	.LBB222:
 526              	.LBB223:
 527              	.LBB224:
 528              	.LBB225:
 529              		.loc 3 339 0
 530 0028 FFF7FEFF 		bl	chDbgCheckClassI
 531              	.LVL38:
 532              	.LBE225:
 533              	.LBE224:
 534              		.loc 3 376 0
 535 002c E368     		ldr	r3, [r4, #12]
 536 002e 13B1     		cbz	r3, .L39
 537              		.loc 3 377 0
 538 0030 0948     		ldr	r0, .L47+4
 539 0032 FFF7FEFF 		bl	chVTDoResetI
 540              	.LVL39:
 541              	.L39:
 542              	.LBE223:
 543              	.LBE222:
 544              		.loc 3 424 0
 545 0036 0023     		movs	r3, #0
 546 0038 084A     		ldr	r2, .L47+8
 547 003a 0748     		ldr	r0, .L47+4
 548 003c 4FF4FA61 		mov	r1, #2000
 549 0040 FFF7FEFF 		bl	chVTDoSetI
 550              	.LVL40:
 551              	.LBE221:
 552              	.LBE220:
 553              	.LBB226:
 554              	.LBB227:
 555              		.loc 4 408 0
 556 0044 FFF7FEFF 		bl	_dbg_check_unlock_from_isr
 557              	.LVL41:
 558              		.loc 4 409 0
 559 0048 FFF7FEFF 		bl	_stats_stop_measure_crit_isr
 560              	.LVL42:
 561              	.LBB228:
 562              	.LBB229:
 563              	.LBB230:
 564              	.LBB231:
 565              		.loc 2 546 0
 566 004c 0023     		movs	r3, #0
 567              		.syntax unified
 568              	@ 546 "/home/selim/working/ChibiOS/os/ext/CMSIS/include/core_cmFunc.h" 1
 569 004e 83F31188 		MSR basepri, r3
 570              	@ 0 "" 2
ARM GAS  /tmp/ccI3AEmR.s 			page 11


 571              	.LVL43:
 572              		.thumb
 573              		.syntax unified
 574 0052 10BD     		pop	{r4, pc}
 575              	.L48:
 576              		.align	2
 577              	.L47:
 578 0054 000C0240 		.word	1073875968
 579 0058 00000000 		.word	.LANCHOR2
 580 005c 00000000 		.word	led5off
 581              	.LBE231:
 582              	.LBE230:
 583              	.LBE229:
 584              	.LBE228:
 585              	.LBE227:
 586              	.LBE226:
 587              		.cfi_endproc
 588              	.LFE262:
 589              		.size	txend2, .-txend2
 590              		.section	.text.startup.main,"ax",%progbits
 591              		.align	2
 592              		.p2align 4,,15
 593              		.global	main
 594              		.thumb
 595              		.thumb_func
 596              		.type	main, %function
 597              	main:
 598              	.LFB266:
 599              		.loc 1 124 0
 600              		.cfi_startproc
 601              		@ Volatile: function does not return.
 602              		@ args = 0, pretend = 0, frame = 0
 603              		@ frame_needed = 0, uses_anonymous_args = 0
 604 0000 08B5     		push	{r3, lr}
 605              		.cfi_def_cfa_offset 8
 606              		.cfi_offset 3, -8
 607              		.cfi_offset 14, -4
 608              		.loc 1 148 0
 609 0002 174C     		ldr	r4, .L56
 610              		.loc 1 133 0
 611 0004 FFF7FEFF 		bl	halInit
 612              	.LVL44:
 613              		.loc 1 134 0
 614 0008 FFF7FEFF 		bl	chSysInit
 615              	.LVL45:
 616              		.loc 1 139 0
 617 000c 1549     		ldr	r1, .L56+4
 618 000e 1648     		ldr	r0, .L56+8
 619 0010 FFF7FEFF 		bl	uartStart
 620              	.LVL46:
 621              		.loc 1 140 0
 622 0014 2046     		mov	r0, r4
 623 0016 40F28232 		movw	r2, #898
 624 001a 0421     		movs	r1, #4
 625 001c FFF7FEFF 		bl	_pal_lld_setgroupmode
 626              	.LVL47:
 627              		.loc 1 141 0
ARM GAS  /tmp/ccI3AEmR.s 			page 12


 628 0020 40F28232 		movw	r2, #898
 629 0024 0821     		movs	r1, #8
 630 0026 2046     		mov	r0, r4
 631 0028 FFF7FEFF 		bl	_pal_lld_setgroupmode
 632              	.LVL48:
 633 002c 03E0     		b	.L51
 634              	.L50:
 635              		.loc 1 158 0
 636 002e 41F28830 		movw	r0, #5000
 637 0032 FFF7FEFF 		bl	chThdSleep
 638              	.LVL49:
 639              	.L51:
 640              		.loc 1 148 0
 641 0036 2369     		ldr	r3, [r4, #16]
 642 0038 DB07     		lsls	r3, r3, #31
 643 003a F8D5     		bpl	.L50
 644              		.loc 1 153 0
 645 003c 0A48     		ldr	r0, .L56+8
 646 003e FFF7FEFF 		bl	uartStopReceive
 647              	.LVL50:
 648              		.loc 1 154 0
 649 0042 0948     		ldr	r0, .L56+8
 650 0044 FFF7FEFF 		bl	uartStopSend
 651              	.LVL51:
 652              		.loc 1 155 0
 653 0048 084A     		ldr	r2, .L56+12
 654 004a 0748     		ldr	r0, .L56+8
 655 004c 1021     		movs	r1, #16
 656 004e FFF7FEFF 		bl	uartStartReceive
 657              	.LVL52:
 658              		.loc 1 156 0
 659 0052 074A     		ldr	r2, .L56+16
 660 0054 0448     		ldr	r0, .L56+8
 661 0056 1021     		movs	r1, #16
 662 0058 FFF7FEFF 		bl	uartStartSend
 663              	.LVL53:
 664 005c E7E7     		b	.L50
 665              	.L57:
 666 005e 00BF     		.align	2
 667              	.L56:
 668 0060 00000240 		.word	1073872896
 669 0064 00000000 		.word	.LANCHOR3
 670 0068 00000000 		.word	UARTD2
 671 006c 00000000 		.word	.LANCHOR4
 672 0070 00000000 		.word	.LANCHOR5
 673              		.cfi_endproc
 674              	.LFE266:
 675              		.size	main, .-main
 676              		.section	.bss.vt3,"aw",%nobits
 677              		.align	2
 678              		.set	.LANCHOR1,. + 0
 679              		.type	vt3, %object
 680              		.size	vt3, 20
 681              	vt3:
 682 0000 00000000 		.space	20
 682      00000000 
 682      00000000 
ARM GAS  /tmp/ccI3AEmR.s 			page 13


 682      00000000 
 682      00000000 
 683              		.section	.bss.vt4,"aw",%nobits
 684              		.align	2
 685              		.set	.LANCHOR0,. + 0
 686              		.type	vt4, %object
 687              		.size	vt4, 20
 688              	vt4:
 689 0000 00000000 		.space	20
 689      00000000 
 689      00000000 
 689      00000000 
 689      00000000 
 690              		.section	.bss.vt5,"aw",%nobits
 691              		.align	2
 692              		.set	.LANCHOR2,. + 0
 693              		.type	vt5, %object
 694              		.size	vt5, 20
 695              	vt5:
 696 0000 00000000 		.space	20
 696      00000000 
 696      00000000 
 696      00000000 
 696      00000000 
 697              		.section	.bss.buffer,"aw",%nobits
 698              		.align	2
 699              		.set	.LANCHOR4,. + 0
 700              		.type	buffer, %object
 701              		.size	buffer, 16
 702              	buffer:
 703 0000 00000000 		.space	16
 703      00000000 
 703      00000000 
 703      00000000 
 704              		.section	.rodata.message,"a",%progbits
 705              		.align	2
 706              		.set	.LANCHOR5,. + 0
 707              		.type	message, %object
 708              		.size	message, 17
 709              	message:
 710 0000 30313233 		.ascii	"0123456789ABCDEF\000"
 710      34353637 
 710      38394142 
 710      43444546 
 710      00
 711              		.section	.data.uart_cfg_1,"aw",%progbits
 712              		.align	2
 713              		.set	.LANCHOR3,. + 0
 714              		.type	uart_cfg_1, %object
 715              		.size	uart_cfg_1, 32
 716              	uart_cfg_1:
 717 0000 00000000 		.word	txend1
 718 0004 00000000 		.word	txend2
 719 0008 00000000 		.word	rxend
 720 000c 00000000 		.word	rxchar
 721 0010 00000000 		.word	rxerr
 722 0014 00960000 		.word	38400
ARM GAS  /tmp/ccI3AEmR.s 			page 14


 723 0018 0000     		.short	0
 724 001a 0040     		.short	16384
 725 001c 0000     		.short	0
 726 001e 0000     		.space	2
 727              		.text
 728              	.Letext0:
 729              		.file 5 "/usr/lib/gcc/arm-none-eabi/5.3.1/include/stddef.h"
 730              		.file 6 "/usr/arm-none-eabi/include/machine/_default_types.h"
 731              		.file 7 "/usr/arm-none-eabi/include/sys/_stdint.h"
 732              		.file 8 "/home/selim/working/ChibiOS/os/rt/ports/ARMCMx/compilers/GCC/chtypes.h"
 733              		.file 9 "/home/selim/working/ChibiOS/os/rt/include/chsystypes.h"
 734              		.file 10 "/home/selim/working/ChibiOS/os/rt/include/chschd.h"
 735              		.file 11 "/home/selim/working/ChibiOS/os/ext/CMSIS/ST/stm32f407xx.h"
 736              		.file 12 "/home/selim/working/ChibiOS/os/rt/ports/ARMCMx/chcore.h"
 737              		.file 13 "/home/selim/working/ChibiOS/os/rt/ports/ARMCMx/chcore_v7m.h"
 738              		.file 14 "/home/selim/working/ChibiOS/os/rt/include/chdebug.h"
 739              		.file 15 "/home/selim/working/ChibiOS/os/rt/include/chtm.h"
 740              		.file 16 "/home/selim/working/ChibiOS/os/rt/include/chstats.h"
 741              		.file 17 "/home/selim/working/ChibiOS/os/rt/include/chsem.h"
 742              		.file 18 "/home/selim/working/ChibiOS/os/rt/include/chmtx.h"
 743              		.file 19 "/home/selim/working/ChibiOS/os/hal/ports/STM32/STM32F4xx/stm32_dma.h"
 744              		.file 20 "/home/selim/working/ChibiOS/os/hal/ports/STM32/LLD/GPIOv2/pal_lld.h"
 745              		.file 21 "/home/selim/working/ChibiOS/os/hal/include/uart.h"
 746              		.file 22 "/home/selim/working/ChibiOS/os/hal/ports/STM32/LLD/USARTv1/uart_lld.h"
 747              		.file 23 "/home/selim/working/ChibiOS/os/ext/CMSIS/include/core_cm4.h"
 748              		.file 24 "/home/selim/working/ChibiOS/os/hal/include/hal.h"
 749              		.file 25 "/home/selim/working/ChibiOS/os/rt/include/chthreads.h"
 750              		.section	.debug_info,"",%progbits
 751              	.Ldebug_info0:
 752 0000 D3150000 		.4byte	0x15d3
 753 0004 0400     		.2byte	0x4
 754 0006 00000000 		.4byte	.Ldebug_abbrev0
 755 000a 04       		.byte	0x4
 756 000b 01       		.uleb128 0x1
 757 000c 72080000 		.4byte	.LASF231
 758 0010 0C       		.byte	0xc
 759 0011 89050000 		.4byte	.LASF232
 760 0015 BA000000 		.4byte	.LASF233
 761 0019 D8000000 		.4byte	.Ldebug_ranges0+0xd8
 762 001d 00000000 		.4byte	0
 763 0021 00000000 		.4byte	.Ldebug_line0
 764 0025 02       		.uleb128 0x2
 765 0026 04       		.byte	0x4
 766 0027 05       		.byte	0x5
 767 0028 696E7400 		.ascii	"int\000"
 768 002c 03       		.uleb128 0x3
 769 002d 20000000 		.4byte	.LASF4
 770 0031 05       		.byte	0x5
 771 0032 D8       		.byte	0xd8
 772 0033 37000000 		.4byte	0x37
 773 0037 04       		.uleb128 0x4
 774 0038 04       		.byte	0x4
 775 0039 07       		.byte	0x7
 776 003a F8050000 		.4byte	.LASF0
 777 003e 04       		.uleb128 0x4
 778 003f 08       		.byte	0x8
 779 0040 05       		.byte	0x5
ARM GAS  /tmp/ccI3AEmR.s 			page 15


 780 0041 37050000 		.4byte	.LASF1
 781 0045 04       		.uleb128 0x4
 782 0046 08       		.byte	0x8
 783 0047 04       		.byte	0x4
 784 0048 79060000 		.4byte	.LASF2
 785 004c 04       		.uleb128 0x4
 786 004d 01       		.byte	0x1
 787 004e 06       		.byte	0x6
 788 004f 34020000 		.4byte	.LASF3
 789 0053 03       		.uleb128 0x3
 790 0054 5A010000 		.4byte	.LASF5
 791 0058 06       		.byte	0x6
 792 0059 1D       		.byte	0x1d
 793 005a 5E000000 		.4byte	0x5e
 794 005e 04       		.uleb128 0x4
 795 005f 01       		.byte	0x1
 796 0060 08       		.byte	0x8
 797 0061 7C020000 		.4byte	.LASF6
 798 0065 04       		.uleb128 0x4
 799 0066 02       		.byte	0x2
 800 0067 05       		.byte	0x5
 801 0068 28080000 		.4byte	.LASF7
 802 006c 03       		.uleb128 0x3
 803 006d 05030000 		.4byte	.LASF8
 804 0071 06       		.byte	0x6
 805 0072 2B       		.byte	0x2b
 806 0073 77000000 		.4byte	0x77
 807 0077 04       		.uleb128 0x4
 808 0078 02       		.byte	0x2
 809 0079 07       		.byte	0x7
 810 007a E7090000 		.4byte	.LASF9
 811 007e 03       		.uleb128 0x3
 812 007f 2A0A0000 		.4byte	.LASF10
 813 0083 06       		.byte	0x6
 814 0084 3F       		.byte	0x3f
 815 0085 89000000 		.4byte	0x89
 816 0089 04       		.uleb128 0x4
 817 008a 04       		.byte	0x4
 818 008b 05       		.byte	0x5
 819 008c 8C010000 		.4byte	.LASF11
 820 0090 03       		.uleb128 0x3
 821 0091 2C050000 		.4byte	.LASF12
 822 0095 06       		.byte	0x6
 823 0096 41       		.byte	0x41
 824 0097 9B000000 		.4byte	0x9b
 825 009b 04       		.uleb128 0x4
 826 009c 04       		.byte	0x4
 827 009d 07       		.byte	0x7
 828 009e 25040000 		.4byte	.LASF13
 829 00a2 03       		.uleb128 0x3
 830 00a3 1A040000 		.4byte	.LASF14
 831 00a7 06       		.byte	0x6
 832 00a8 5B       		.byte	0x5b
 833 00a9 AD000000 		.4byte	0xad
 834 00ad 04       		.uleb128 0x4
 835 00ae 08       		.byte	0x8
 836 00af 07       		.byte	0x7
ARM GAS  /tmp/ccI3AEmR.s 			page 16


 837 00b0 11070000 		.4byte	.LASF15
 838 00b4 03       		.uleb128 0x3
 839 00b5 47020000 		.4byte	.LASF16
 840 00b9 07       		.byte	0x7
 841 00ba 14       		.byte	0x14
 842 00bb 53000000 		.4byte	0x53
 843 00bf 03       		.uleb128 0x3
 844 00c0 30070000 		.4byte	.LASF17
 845 00c4 07       		.byte	0x7
 846 00c5 1A       		.byte	0x1a
 847 00c6 6C000000 		.4byte	0x6c
 848 00ca 03       		.uleb128 0x3
 849 00cb 6A000000 		.4byte	.LASF18
 850 00cf 07       		.byte	0x7
 851 00d0 1F       		.byte	0x1f
 852 00d1 7E000000 		.4byte	0x7e
 853 00d5 03       		.uleb128 0x3
 854 00d6 C5090000 		.4byte	.LASF19
 855 00da 07       		.byte	0x7
 856 00db 20       		.byte	0x20
 857 00dc 90000000 		.4byte	0x90
 858 00e0 03       		.uleb128 0x3
 859 00e1 3D080000 		.4byte	.LASF20
 860 00e5 07       		.byte	0x7
 861 00e6 26       		.byte	0x26
 862 00e7 A2000000 		.4byte	0xa2
 863 00eb 05       		.uleb128 0x5
 864 00ec BF000000 		.4byte	0xbf
 865 00f0 05       		.uleb128 0x5
 866 00f1 CA000000 		.4byte	0xca
 867 00f5 05       		.uleb128 0x5
 868 00f6 D5000000 		.4byte	0xd5
 869 00fa 03       		.uleb128 0x3
 870 00fb 05060000 		.4byte	.LASF21
 871 00ff 08       		.byte	0x8
 872 0100 46       		.byte	0x46
 873 0101 D5000000 		.4byte	0xd5
 874 0105 03       		.uleb128 0x3
 875 0106 C9010000 		.4byte	.LASF22
 876 010a 08       		.byte	0x8
 877 010b 47       		.byte	0x47
 878 010c E0000000 		.4byte	0xe0
 879 0110 03       		.uleb128 0x3
 880 0111 D6070000 		.4byte	.LASF23
 881 0115 08       		.byte	0x8
 882 0116 49       		.byte	0x49
 883 0117 B4000000 		.4byte	0xb4
 884 011b 03       		.uleb128 0x3
 885 011c C0010000 		.4byte	.LASF24
 886 0120 08       		.byte	0x8
 887 0121 4A       		.byte	0x4a
 888 0122 B4000000 		.4byte	0xb4
 889 0126 03       		.uleb128 0x3
 890 0127 84090000 		.4byte	.LASF25
 891 012b 08       		.byte	0x8
 892 012c 4B       		.byte	0x4b
 893 012d B4000000 		.4byte	0xb4
ARM GAS  /tmp/ccI3AEmR.s 			page 17


 894 0131 03       		.uleb128 0x3
 895 0132 51000000 		.4byte	.LASF26
 896 0136 08       		.byte	0x8
 897 0137 4D       		.byte	0x4d
 898 0138 D5000000 		.4byte	0xd5
 899 013c 03       		.uleb128 0x3
 900 013d 48070000 		.4byte	.LASF27
 901 0141 08       		.byte	0x8
 902 0142 4E       		.byte	0x4e
 903 0143 CA000000 		.4byte	0xca
 904 0147 03       		.uleb128 0x3
 905 0148 4F020000 		.4byte	.LASF28
 906 014c 08       		.byte	0x8
 907 014d 50       		.byte	0x50
 908 014e D5000000 		.4byte	0xd5
 909 0152 03       		.uleb128 0x3
 910 0153 70030000 		.4byte	.LASF29
 911 0157 08       		.byte	0x8
 912 0158 52       		.byte	0x52
 913 0159 CA000000 		.4byte	0xca
 914 015d 03       		.uleb128 0x3
 915 015e B3040000 		.4byte	.LASF30
 916 0162 08       		.byte	0x8
 917 0163 53       		.byte	0x53
 918 0164 D5000000 		.4byte	0xd5
 919 0168 03       		.uleb128 0x3
 920 0169 37000000 		.4byte	.LASF31
 921 016d 09       		.byte	0x9
 922 016e 33       		.byte	0x33
 923 016f D5000000 		.4byte	0xd5
 924 0173 03       		.uleb128 0x3
 925 0174 70060000 		.4byte	.LASF32
 926 0178 09       		.byte	0x9
 927 0179 3F       		.byte	0x3f
 928 017a 7E010000 		.4byte	0x17e
 929 017e 06       		.uleb128 0x6
 930 017f 4F040000 		.4byte	.LASF54
 931 0183 60       		.byte	0x60
 932 0184 0A       		.byte	0xa
 933 0185 C2       		.byte	0xc2
 934 0186 84020000 		.4byte	0x284
 935 018a 07       		.uleb128 0x7
 936 018b 95010000 		.4byte	.LASF33
 937 018f 0A       		.byte	0xa
 938 0190 C3       		.byte	0xc3
 939 0191 8F020000 		.4byte	0x28f
 940 0195 00       		.byte	0
 941 0196 07       		.uleb128 0x7
 942 0197 A8010000 		.4byte	.LASF34
 943 019b 0A       		.byte	0xa
 944 019c C5       		.byte	0xc5
 945 019d 8F020000 		.4byte	0x28f
 946 01a1 04       		.byte	0x4
 947 01a2 07       		.uleb128 0x7
 948 01a3 FE020000 		.4byte	.LASF35
 949 01a7 0A       		.byte	0xa
 950 01a8 C7       		.byte	0xc7
ARM GAS  /tmp/ccI3AEmR.s 			page 18


 951 01a9 31010000 		.4byte	0x131
 952 01ad 08       		.byte	0x8
 953 01ae 07       		.uleb128 0x7
 954 01af 4B000000 		.4byte	.LASF36
 955 01b3 0A       		.byte	0xa
 956 01b4 C8       		.byte	0xc8
 957 01b5 CA050000 		.4byte	0x5ca
 958 01b9 0C       		.byte	0xc
 959 01ba 07       		.uleb128 0x7
 960 01bb 79010000 		.4byte	.LASF37
 961 01bf 0A       		.byte	0xa
 962 01c0 CA       		.byte	0xca
 963 01c1 8F020000 		.4byte	0x28f
 964 01c5 10       		.byte	0x10
 965 01c6 07       		.uleb128 0x7
 966 01c7 28070000 		.4byte	.LASF38
 967 01cb 0A       		.byte	0xa
 968 01cc CB       		.byte	0xcb
 969 01cd 8F020000 		.4byte	0x28f
 970 01d1 14       		.byte	0x14
 971 01d2 07       		.uleb128 0x7
 972 01d3 510A0000 		.4byte	.LASF39
 973 01d7 0A       		.byte	0xa
 974 01d8 D2       		.byte	0xd2
 975 01d9 6E080000 		.4byte	0x86e
 976 01dd 18       		.byte	0x18
 977 01de 07       		.uleb128 0x7
 978 01df 180A0000 		.4byte	.LASF40
 979 01e3 0A       		.byte	0xa
 980 01e4 D8       		.byte	0xd8
 981 01e5 80080000 		.4byte	0x880
 982 01e9 1C       		.byte	0x1c
 983 01ea 07       		.uleb128 0x7
 984 01eb 710A0000 		.4byte	.LASF41
 985 01ef 0A       		.byte	0xa
 986 01f0 DD       		.byte	0xdd
 987 01f1 1B010000 		.4byte	0x11b
 988 01f5 20       		.byte	0x20
 989 01f6 07       		.uleb128 0x7
 990 01f7 D8050000 		.4byte	.LASF42
 991 01fb 0A       		.byte	0xa
 992 01fc E1       		.byte	0xe1
 993 01fd 10010000 		.4byte	0x110
 994 0201 21       		.byte	0x21
 995 0202 07       		.uleb128 0x7
 996 0203 15060000 		.4byte	.LASF43
 997 0207 0A       		.byte	0xa
 998 0208 E6       		.byte	0xe6
 999 0209 26010000 		.4byte	0x126
 1000 020d 22       		.byte	0x22
 1001 020e 08       		.uleb128 0x8
 1002 020f 705F7500 		.ascii	"p_u\000"
 1003 0213 0A       		.byte	0xa
 1004 0214 3101     		.2byte	0x131
 1005 0216 A9070000 		.4byte	0x7a9
 1006 021a 24       		.byte	0x24
 1007 021b 09       		.uleb128 0x9
ARM GAS  /tmp/ccI3AEmR.s 			page 19


 1008 021c B2050000 		.4byte	.LASF44
 1009 0220 0A       		.byte	0xa
 1010 0221 3601     		.2byte	0x136
 1011 0223 95020000 		.4byte	0x295
 1012 0227 28       		.byte	0x28
 1013 0228 09       		.uleb128 0x9
 1014 0229 59000000 		.4byte	.LASF45
 1015 022d 0A       		.byte	0xa
 1016 022e 3C01     		.2byte	0x13c
 1017 0230 B9020000 		.4byte	0x2b9
 1018 0234 2C       		.byte	0x2c
 1019 0235 09       		.uleb128 0x9
 1020 0236 6B0A0000 		.4byte	.LASF46
 1021 023a 0A       		.byte	0xa
 1022 023b 4001     		.2byte	0x140
 1023 023d 3C010000 		.4byte	0x13c
 1024 0241 34       		.byte	0x34
 1025 0242 09       		.uleb128 0x9
 1026 0243 B2030000 		.4byte	.LASF47
 1027 0247 0A       		.byte	0xa
 1028 0248 4601     		.2byte	0x146
 1029 024a 47010000 		.4byte	0x147
 1030 024e 38       		.byte	0x38
 1031 024f 09       		.uleb128 0x9
 1032 0250 E7010000 		.4byte	.LASF48
 1033 0254 0A       		.byte	0xa
 1034 0255 4D01     		.2byte	0x14d
 1035 0257 68080000 		.4byte	0x868
 1036 025b 3C       		.byte	0x3c
 1037 025c 09       		.uleb128 0x9
 1038 025d 98060000 		.4byte	.LASF49
 1039 0261 0A       		.byte	0xa
 1040 0262 5101     		.2byte	0x151
 1041 0264 31010000 		.4byte	0x131
 1042 0268 40       		.byte	0x40
 1043 0269 09       		.uleb128 0x9
 1044 026a 0D060000 		.4byte	.LASF50
 1045 026e 0A       		.byte	0xa
 1046 026f 5801     		.2byte	0x158
 1047 0271 6C030000 		.4byte	0x36c
 1048 0275 44       		.byte	0x44
 1049 0276 09       		.uleb128 0x9
 1050 0277 05000000 		.4byte	.LASF51
 1051 027b 0A       		.byte	0xa
 1052 027c 5E01     		.2byte	0x15e
 1053 027e 5A070000 		.4byte	0x75a
 1054 0282 48       		.byte	0x48
 1055 0283 00       		.byte	0
 1056 0284 03       		.uleb128 0x3
 1057 0285 85060000 		.4byte	.LASF52
 1058 0289 09       		.byte	0x9
 1059 028a 44       		.byte	0x44
 1060 028b 8F020000 		.4byte	0x28f
 1061 028f 0A       		.uleb128 0xa
 1062 0290 04       		.byte	0x4
 1063 0291 73010000 		.4byte	0x173
 1064 0295 03       		.uleb128 0x3
ARM GAS  /tmp/ccI3AEmR.s 			page 20


 1065 0296 8C090000 		.4byte	.LASF53
 1066 029a 09       		.byte	0x9
 1067 029b 49       		.byte	0x49
 1068 029c A0020000 		.4byte	0x2a0
 1069 02a0 06       		.uleb128 0x6
 1070 02a1 D7040000 		.4byte	.LASF55
 1071 02a5 04       		.byte	0x4
 1072 02a6 0A       		.byte	0xa
 1073 02a7 B0       		.byte	0xb0
 1074 02a8 B9020000 		.4byte	0x2b9
 1075 02ac 07       		.uleb128 0x7
 1076 02ad 95010000 		.4byte	.LASF33
 1077 02b1 0A       		.byte	0xa
 1078 02b2 B1       		.byte	0xb1
 1079 02b3 8F020000 		.4byte	0x28f
 1080 02b7 00       		.byte	0
 1081 02b8 00       		.byte	0
 1082 02b9 03       		.uleb128 0x3
 1083 02ba D7010000 		.4byte	.LASF56
 1084 02be 09       		.byte	0x9
 1085 02bf 50       		.byte	0x50
 1086 02c0 C4020000 		.4byte	0x2c4
 1087 02c4 06       		.uleb128 0x6
 1088 02c5 4E070000 		.4byte	.LASF57
 1089 02c9 08       		.byte	0x8
 1090 02ca 0A       		.byte	0xa
 1091 02cb B7       		.byte	0xb7
 1092 02cc E9020000 		.4byte	0x2e9
 1093 02d0 07       		.uleb128 0x7
 1094 02d1 95010000 		.4byte	.LASF33
 1095 02d5 0A       		.byte	0xa
 1096 02d6 B8       		.byte	0xb8
 1097 02d7 8F020000 		.4byte	0x28f
 1098 02db 00       		.byte	0
 1099 02dc 07       		.uleb128 0x7
 1100 02dd A8010000 		.4byte	.LASF34
 1101 02e1 0A       		.byte	0xa
 1102 02e2 B9       		.byte	0xb9
 1103 02e3 8F020000 		.4byte	0x28f
 1104 02e7 04       		.byte	0x4
 1105 02e8 00       		.byte	0
 1106 02e9 03       		.uleb128 0x3
 1107 02ea 97040000 		.4byte	.LASF58
 1108 02ee 09       		.byte	0x9
 1109 02ef 57       		.byte	0x57
 1110 02f0 F4020000 		.4byte	0x2f4
 1111 02f4 0B       		.uleb128 0xb
 1112 02f5 DF030000 		.4byte	.LASF59
 1113 02f9 1C       		.byte	0x1c
 1114 02fa 0A       		.byte	0xa
 1115 02fb 9001     		.2byte	0x190
 1116 02fd 50030000 		.4byte	0x350
 1117 0301 09       		.uleb128 0x9
 1118 0302 B7070000 		.4byte	.LASF60
 1119 0306 0A       		.byte	0xa
 1120 0307 9101     		.2byte	0x191
 1121 0309 B9020000 		.4byte	0x2b9
ARM GAS  /tmp/ccI3AEmR.s 			page 21


 1122 030d 00       		.byte	0
 1123 030e 09       		.uleb128 0x9
 1124 030f 4F080000 		.4byte	.LASF61
 1125 0313 0A       		.byte	0xa
 1126 0314 9201     		.2byte	0x192
 1127 0316 31010000 		.4byte	0x131
 1128 031a 08       		.byte	0x8
 1129 031b 09       		.uleb128 0x9
 1130 031c 64000000 		.4byte	.LASF62
 1131 0320 0A       		.byte	0xa
 1132 0321 9401     		.2byte	0x194
 1133 0323 CA050000 		.4byte	0x5ca
 1134 0327 0C       		.byte	0xc
 1135 0328 09       		.uleb128 0x9
 1136 0329 AE020000 		.4byte	.LASF63
 1137 032d 0A       		.byte	0xa
 1138 032e 9701     		.2byte	0x197
 1139 0330 8F020000 		.4byte	0x28f
 1140 0334 10       		.byte	0x10
 1141 0335 09       		.uleb128 0x9
 1142 0336 EB070000 		.4byte	.LASF64
 1143 033a 0A       		.byte	0xa
 1144 033b 9801     		.2byte	0x198
 1145 033d 8F020000 		.4byte	0x28f
 1146 0341 14       		.byte	0x14
 1147 0342 09       		.uleb128 0x9
 1148 0343 5F070000 		.4byte	.LASF65
 1149 0347 0A       		.byte	0xa
 1150 0348 9B01     		.2byte	0x19b
 1151 034a 8F020000 		.4byte	0x28f
 1152 034e 18       		.byte	0x18
 1153 034f 00       		.byte	0
 1154 0350 03       		.uleb128 0x3
 1155 0351 7C000000 		.4byte	.LASF66
 1156 0355 09       		.byte	0x9
 1157 0356 5C       		.byte	0x5c
 1158 0357 5B030000 		.4byte	0x35b
 1159 035b 0A       		.uleb128 0xa
 1160 035c 04       		.byte	0x4
 1161 035d 61030000 		.4byte	0x361
 1162 0361 0C       		.uleb128 0xc
 1163 0362 6C030000 		.4byte	0x36c
 1164 0366 0D       		.uleb128 0xd
 1165 0367 6C030000 		.4byte	0x36c
 1166 036b 00       		.byte	0
 1167 036c 0E       		.uleb128 0xe
 1168 036d 04       		.byte	0x4
 1169 036e 03       		.uleb128 0x3
 1170 036f 87040000 		.4byte	.LASF67
 1171 0373 09       		.byte	0x9
 1172 0374 61       		.byte	0x61
 1173 0375 79030000 		.4byte	0x379
 1174 0379 0B       		.uleb128 0xb
 1175 037a D5060000 		.4byte	.LASF68
 1176 037e 14       		.byte	0x14
 1177 037f 0A       		.byte	0xa
 1178 0380 6B01     		.2byte	0x16b
ARM GAS  /tmp/ccI3AEmR.s 			page 22


 1179 0382 C8030000 		.4byte	0x3c8
 1180 0386 09       		.uleb128 0x9
 1181 0387 79050000 		.4byte	.LASF69
 1182 038b 0A       		.byte	0xa
 1183 038c 6C01     		.2byte	0x16c
 1184 038e 86080000 		.4byte	0x886
 1185 0392 00       		.byte	0
 1186 0393 09       		.uleb128 0x9
 1187 0394 81050000 		.4byte	.LASF70
 1188 0398 0A       		.byte	0xa
 1189 0399 6D01     		.2byte	0x16d
 1190 039b 86080000 		.4byte	0x886
 1191 039f 04       		.byte	0x4
 1192 03a0 09       		.uleb128 0x9
 1193 03a1 C4060000 		.4byte	.LASF71
 1194 03a5 0A       		.byte	0xa
 1195 03a6 6E01     		.2byte	0x16e
 1196 03a8 68010000 		.4byte	0x168
 1197 03ac 08       		.byte	0x8
 1198 03ad 09       		.uleb128 0x9
 1199 03ae 8B030000 		.4byte	.LASF72
 1200 03b2 0A       		.byte	0xa
 1201 03b3 6F01     		.2byte	0x16f
 1202 03b5 50030000 		.4byte	0x350
 1203 03b9 0C       		.byte	0xc
 1204 03ba 09       		.uleb128 0x9
 1205 03bb 43010000 		.4byte	.LASF73
 1206 03bf 0A       		.byte	0xa
 1207 03c0 7101     		.2byte	0x171
 1208 03c2 6C030000 		.4byte	0x36c
 1209 03c6 10       		.byte	0x10
 1210 03c7 00       		.byte	0
 1211 03c8 03       		.uleb128 0x3
 1212 03c9 59040000 		.4byte	.LASF74
 1213 03cd 09       		.byte	0x9
 1214 03ce 66       		.byte	0x66
 1215 03cf D3030000 		.4byte	0x3d3
 1216 03d3 0B       		.uleb128 0xb
 1217 03d4 85000000 		.4byte	.LASF75
 1218 03d8 10       		.byte	0x10
 1219 03d9 0A       		.byte	0xa
 1220 03da 7B01     		.2byte	0x17b
 1221 03dc 15040000 		.4byte	0x415
 1222 03e0 09       		.uleb128 0x9
 1223 03e1 79050000 		.4byte	.LASF69
 1224 03e5 0A       		.byte	0xa
 1225 03e6 7C01     		.2byte	0x17c
 1226 03e8 86080000 		.4byte	0x886
 1227 03ec 00       		.byte	0
 1228 03ed 09       		.uleb128 0x9
 1229 03ee 81050000 		.4byte	.LASF70
 1230 03f2 0A       		.byte	0xa
 1231 03f3 7E01     		.2byte	0x17e
 1232 03f5 86080000 		.4byte	0x886
 1233 03f9 04       		.byte	0x4
 1234 03fa 09       		.uleb128 0x9
 1235 03fb C4060000 		.4byte	.LASF71
ARM GAS  /tmp/ccI3AEmR.s 			page 23


 1236 03ff 0A       		.byte	0xa
 1237 0400 8001     		.2byte	0x180
 1238 0402 68010000 		.4byte	0x168
 1239 0406 08       		.byte	0x8
 1240 0407 09       		.uleb128 0x9
 1241 0408 DB090000 		.4byte	.LASF76
 1242 040c 0A       		.byte	0xa
 1243 040d 8801     		.2byte	0x188
 1244 040f 68010000 		.4byte	0x168
 1245 0413 0C       		.byte	0xc
 1246 0414 00       		.byte	0
 1247 0415 03       		.uleb128 0x3
 1248 0416 B6020000 		.4byte	.LASF77
 1249 041a 09       		.byte	0x9
 1250 041b 6B       		.byte	0x6b
 1251 041c 20040000 		.4byte	0x420
 1252 0420 0F       		.uleb128 0xf
 1253 0421 62080000 		.4byte	.LASF78
 1254 0425 1404     		.2byte	0x414
 1255 0427 0A       		.byte	0xa
 1256 0428 A201     		.2byte	0x1a2
 1257 042a 63040000 		.4byte	0x463
 1258 042e 09       		.uleb128 0x9
 1259 042f 97020000 		.4byte	.LASF79
 1260 0433 0A       		.byte	0xa
 1261 0434 AA01     		.2byte	0x1aa
 1262 0436 8C080000 		.4byte	0x88c
 1263 043a 00       		.byte	0
 1264 043b 09       		.uleb128 0x9
 1265 043c F3030000 		.4byte	.LASF80
 1266 0440 0A       		.byte	0xa
 1267 0441 AF01     		.2byte	0x1af
 1268 0443 52010000 		.4byte	0x152
 1269 0447 04       		.byte	0x4
 1270 0448 09       		.uleb128 0x9
 1271 0449 D8000000 		.4byte	.LASF81
 1272 044d 0A       		.byte	0xa
 1273 044e B301     		.2byte	0x1b3
 1274 0450 52010000 		.4byte	0x152
 1275 0454 08       		.byte	0x8
 1276 0455 09       		.uleb128 0x9
 1277 0456 A1020000 		.4byte	.LASF82
 1278 045a 0A       		.byte	0xa
 1279 045b B901     		.2byte	0x1b9
 1280 045d EC060000 		.4byte	0x6ec
 1281 0461 0C       		.byte	0xc
 1282 0462 00       		.byte	0
 1283 0463 03       		.uleb128 0x3
 1284 0464 020A0000 		.4byte	.LASF83
 1285 0468 09       		.byte	0x9
 1286 0469 70       		.byte	0x70
 1287 046a 6E040000 		.4byte	0x46e
 1288 046e 0F       		.uleb128 0xf
 1289 046f B1090000 		.4byte	.LASF84
 1290 0473 D805     		.2byte	0x5d8
 1291 0475 0A       		.byte	0xa
 1292 0476 C201     		.2byte	0x1c2
ARM GAS  /tmp/ccI3AEmR.s 			page 24


 1293 0478 DB040000 		.4byte	0x4db
 1294 047c 09       		.uleb128 0x9
 1295 047d D0070000 		.4byte	.LASF85
 1296 0481 0A       		.byte	0xa
 1297 0482 C601     		.2byte	0x1c6
 1298 0484 E9020000 		.4byte	0x2e9
 1299 0488 00       		.byte	0
 1300 0489 09       		.uleb128 0x9
 1301 048a 57090000 		.4byte	.LASF86
 1302 048e 0A       		.byte	0xa
 1303 048f CA01     		.2byte	0x1ca
 1304 0491 C8030000 		.4byte	0x3c8
 1305 0495 1C       		.byte	0x1c
 1306 0496 08       		.uleb128 0x8
 1307 0497 64626700 		.ascii	"dbg\000"
 1308 049b 0A       		.byte	0xa
 1309 049c CE01     		.2byte	0x1ce
 1310 049e 15040000 		.4byte	0x415
 1311 04a2 2C       		.byte	0x2c
 1312 04a3 10       		.uleb128 0x10
 1313 04a4 7A070000 		.4byte	.LASF87
 1314 04a8 0A       		.byte	0xa
 1315 04a9 D201     		.2byte	0x1d2
 1316 04ab 73010000 		.4byte	0x173
 1317 04af 4004     		.2byte	0x440
 1318 04b1 11       		.uleb128 0x11
 1319 04b2 746D00   		.ascii	"tm\000"
 1320 04b5 0A       		.byte	0xa
 1321 04b6 D701     		.2byte	0x1d7
 1322 04b8 0C070000 		.4byte	0x70c
 1323 04bc A004     		.2byte	0x4a0
 1324 04be 10       		.uleb128 0x10
 1325 04bf FA060000 		.4byte	.LASF88
 1326 04c3 0A       		.byte	0xa
 1327 04c4 DD01     		.2byte	0x1dd
 1328 04c6 9E070000 		.4byte	0x79e
 1329 04ca A804     		.2byte	0x4a8
 1330 04cc 10       		.uleb128 0x10
 1331 04cd E0050000 		.4byte	.LASF89
 1332 04d1 0A       		.byte	0xa
 1333 04d2 E301     		.2byte	0x1e3
 1334 04d4 91080000 		.4byte	0x891
 1335 04d8 E004     		.2byte	0x4e0
 1336 04da 00       		.byte	0
 1337 04db 04       		.uleb128 0x4
 1338 04dc 04       		.byte	0x4
 1339 04dd 07       		.byte	0x7
 1340 04de 27000000 		.4byte	.LASF90
 1341 04e2 12       		.uleb128 0x12
 1342 04e3 18       		.byte	0x18
 1343 04e4 0B       		.byte	0xb
 1344 04e5 6B01     		.2byte	0x16b
 1345 04e7 39050000 		.4byte	0x539
 1346 04eb 08       		.uleb128 0x8
 1347 04ec 435200   		.ascii	"CR\000"
 1348 04ef 0B       		.byte	0xb
 1349 04f0 6D01     		.2byte	0x16d
ARM GAS  /tmp/ccI3AEmR.s 			page 25


 1350 04f2 F5000000 		.4byte	0xf5
 1351 04f6 00       		.byte	0
 1352 04f7 09       		.uleb128 0x9
 1353 04f8 340A0000 		.4byte	.LASF91
 1354 04fc 0B       		.byte	0xb
 1355 04fd 6E01     		.2byte	0x16e
 1356 04ff F5000000 		.4byte	0xf5
 1357 0503 04       		.byte	0x4
 1358 0504 08       		.uleb128 0x8
 1359 0505 50415200 		.ascii	"PAR\000"
 1360 0509 0B       		.byte	0xb
 1361 050a 6F01     		.2byte	0x16f
 1362 050c F5000000 		.4byte	0xf5
 1363 0510 08       		.byte	0x8
 1364 0511 09       		.uleb128 0x9
 1365 0512 04080000 		.4byte	.LASF92
 1366 0516 0B       		.byte	0xb
 1367 0517 7001     		.2byte	0x170
 1368 0519 F5000000 		.4byte	0xf5
 1369 051d 0C       		.byte	0xc
 1370 051e 09       		.uleb128 0x9
 1371 051f 00000000 		.4byte	.LASF93
 1372 0523 0B       		.byte	0xb
 1373 0524 7101     		.2byte	0x171
 1374 0526 F5000000 		.4byte	0xf5
 1375 052a 10       		.byte	0x10
 1376 052b 08       		.uleb128 0x8
 1377 052c 46435200 		.ascii	"FCR\000"
 1378 0530 0B       		.byte	0xb
 1379 0531 7201     		.2byte	0x172
 1380 0533 F5000000 		.4byte	0xf5
 1381 0537 14       		.byte	0x14
 1382 0538 00       		.byte	0
 1383 0539 13       		.uleb128 0x13
 1384 053a 4F060000 		.4byte	.LASF94
 1385 053e 0B       		.byte	0xb
 1386 053f 7301     		.2byte	0x173
 1387 0541 E2040000 		.4byte	0x4e2
 1388 0545 12       		.uleb128 0x12
 1389 0546 1C       		.byte	0x1c
 1390 0547 0B       		.byte	0xb
 1391 0548 0903     		.2byte	0x309
 1392 054a A8050000 		.4byte	0x5a8
 1393 054e 08       		.uleb128 0x8
 1394 054f 535200   		.ascii	"SR\000"
 1395 0552 0B       		.byte	0xb
 1396 0553 0B03     		.2byte	0x30b
 1397 0555 F5000000 		.4byte	0xf5
 1398 0559 00       		.byte	0
 1399 055a 08       		.uleb128 0x8
 1400 055b 445200   		.ascii	"DR\000"
 1401 055e 0B       		.byte	0xb
 1402 055f 0C03     		.2byte	0x30c
 1403 0561 F5000000 		.4byte	0xf5
 1404 0565 04       		.byte	0x4
 1405 0566 08       		.uleb128 0x8
 1406 0567 42525200 		.ascii	"BRR\000"
ARM GAS  /tmp/ccI3AEmR.s 			page 26


 1407 056b 0B       		.byte	0xb
 1408 056c 0D03     		.2byte	0x30d
 1409 056e F5000000 		.4byte	0xf5
 1410 0572 08       		.byte	0x8
 1411 0573 08       		.uleb128 0x8
 1412 0574 43523100 		.ascii	"CR1\000"
 1413 0578 0B       		.byte	0xb
 1414 0579 0E03     		.2byte	0x30e
 1415 057b F5000000 		.4byte	0xf5
 1416 057f 0C       		.byte	0xc
 1417 0580 08       		.uleb128 0x8
 1418 0581 43523200 		.ascii	"CR2\000"
 1419 0585 0B       		.byte	0xb
 1420 0586 0F03     		.2byte	0x30f
 1421 0588 F5000000 		.4byte	0xf5
 1422 058c 10       		.byte	0x10
 1423 058d 08       		.uleb128 0x8
 1424 058e 43523300 		.ascii	"CR3\000"
 1425 0592 0B       		.byte	0xb
 1426 0593 1003     		.2byte	0x310
 1427 0595 F5000000 		.4byte	0xf5
 1428 0599 14       		.byte	0x14
 1429 059a 09       		.uleb128 0x9
 1430 059b 90050000 		.4byte	.LASF95
 1431 059f 0B       		.byte	0xb
 1432 05a0 1103     		.2byte	0x311
 1433 05a2 F5000000 		.4byte	0xf5
 1434 05a6 18       		.byte	0x18
 1435 05a7 00       		.byte	0
 1436 05a8 13       		.uleb128 0x13
 1437 05a9 2B030000 		.4byte	.LASF96
 1438 05ad 0B       		.byte	0xb
 1439 05ae 1203     		.2byte	0x312
 1440 05b0 45050000 		.4byte	0x545
 1441 05b4 03       		.uleb128 0x3
 1442 05b5 F1010000 		.4byte	.LASF97
 1443 05b9 0C       		.byte	0xc
 1444 05ba 65       		.byte	0x65
 1445 05bb 6C030000 		.4byte	0x36c
 1446 05bf 03       		.uleb128 0x3
 1447 05c0 20030000 		.4byte	.LASF98
 1448 05c4 0C       		.byte	0xc
 1449 05c5 6D       		.byte	0x6d
 1450 05c6 E0000000 		.4byte	0xe0
 1451 05ca 06       		.uleb128 0x6
 1452 05cb 5B020000 		.4byte	.LASF99
 1453 05cf 04       		.byte	0x4
 1454 05d0 0C       		.byte	0xc
 1455 05d1 89       		.byte	0x89
 1456 05d2 E3050000 		.4byte	0x5e3
 1457 05d6 14       		.uleb128 0x14
 1458 05d7 72313300 		.ascii	"r13\000"
 1459 05db 0C       		.byte	0xc
 1460 05dc 8A       		.byte	0x8a
 1461 05dd 5E060000 		.4byte	0x65e
 1462 05e1 00       		.byte	0
 1463 05e2 00       		.byte	0
ARM GAS  /tmp/ccI3AEmR.s 			page 27


 1464 05e3 06       		.uleb128 0x6
 1465 05e4 A3060000 		.4byte	.LASF100
 1466 05e8 24       		.byte	0x24
 1467 05e9 0D       		.byte	0xd
 1468 05ea F4       		.byte	0xf4
 1469 05eb 5E060000 		.4byte	0x65e
 1470 05ef 08       		.uleb128 0x8
 1471 05f0 723400   		.ascii	"r4\000"
 1472 05f3 0D       		.byte	0xd
 1473 05f4 0701     		.2byte	0x107
 1474 05f6 B4050000 		.4byte	0x5b4
 1475 05fa 00       		.byte	0
 1476 05fb 08       		.uleb128 0x8
 1477 05fc 723500   		.ascii	"r5\000"
 1478 05ff 0D       		.byte	0xd
 1479 0600 0801     		.2byte	0x108
 1480 0602 B4050000 		.4byte	0x5b4
 1481 0606 04       		.byte	0x4
 1482 0607 08       		.uleb128 0x8
 1483 0608 723600   		.ascii	"r6\000"
 1484 060b 0D       		.byte	0xd
 1485 060c 0901     		.2byte	0x109
 1486 060e B4050000 		.4byte	0x5b4
 1487 0612 08       		.byte	0x8
 1488 0613 08       		.uleb128 0x8
 1489 0614 723700   		.ascii	"r7\000"
 1490 0617 0D       		.byte	0xd
 1491 0618 0A01     		.2byte	0x10a
 1492 061a B4050000 		.4byte	0x5b4
 1493 061e 0C       		.byte	0xc
 1494 061f 08       		.uleb128 0x8
 1495 0620 723800   		.ascii	"r8\000"
 1496 0623 0D       		.byte	0xd
 1497 0624 0B01     		.2byte	0x10b
 1498 0626 B4050000 		.4byte	0x5b4
 1499 062a 10       		.byte	0x10
 1500 062b 08       		.uleb128 0x8
 1501 062c 723900   		.ascii	"r9\000"
 1502 062f 0D       		.byte	0xd
 1503 0630 0C01     		.2byte	0x10c
 1504 0632 B4050000 		.4byte	0x5b4
 1505 0636 14       		.byte	0x14
 1506 0637 08       		.uleb128 0x8
 1507 0638 72313000 		.ascii	"r10\000"
 1508 063c 0D       		.byte	0xd
 1509 063d 0D01     		.2byte	0x10d
 1510 063f B4050000 		.4byte	0x5b4
 1511 0643 18       		.byte	0x18
 1512 0644 08       		.uleb128 0x8
 1513 0645 72313100 		.ascii	"r11\000"
 1514 0649 0D       		.byte	0xd
 1515 064a 0E01     		.2byte	0x10e
 1516 064c B4050000 		.4byte	0x5b4
 1517 0650 1C       		.byte	0x1c
 1518 0651 08       		.uleb128 0x8
 1519 0652 6C7200   		.ascii	"lr\000"
 1520 0655 0D       		.byte	0xd
ARM GAS  /tmp/ccI3AEmR.s 			page 28


 1521 0656 0F01     		.2byte	0x10f
 1522 0658 B4050000 		.4byte	0x5b4
 1523 065c 20       		.byte	0x20
 1524 065d 00       		.byte	0
 1525 065e 0A       		.uleb128 0xa
 1526 065f 04       		.byte	0x4
 1527 0660 E3050000 		.4byte	0x5e3
 1528 0664 15       		.uleb128 0x15
 1529 0665 10       		.byte	0x10
 1530 0666 0E       		.byte	0xe
 1531 0667 51       		.byte	0x51
 1532 0668 9D060000 		.4byte	0x69d
 1533 066c 07       		.uleb128 0x7
 1534 066d 490A0000 		.4byte	.LASF101
 1535 0671 0E       		.byte	0xe
 1536 0672 55       		.byte	0x55
 1537 0673 68010000 		.4byte	0x168
 1538 0677 00       		.byte	0
 1539 0678 07       		.uleb128 0x7
 1540 0679 FD000000 		.4byte	.LASF102
 1541 067d 0E       		.byte	0xe
 1542 067e 59       		.byte	0x59
 1543 067f 8F020000 		.4byte	0x28f
 1544 0683 04       		.byte	0x4
 1545 0684 07       		.uleb128 0x7
 1546 0685 CE050000 		.4byte	.LASF103
 1547 0689 0E       		.byte	0xe
 1548 068a 5D       		.byte	0x5d
 1549 068b 6C030000 		.4byte	0x36c
 1550 068f 08       		.byte	0x8
 1551 0690 07       		.uleb128 0x7
 1552 0691 06040000 		.4byte	.LASF104
 1553 0695 0E       		.byte	0xe
 1554 0696 61       		.byte	0x61
 1555 0697 B4000000 		.4byte	0xb4
 1556 069b 0C       		.byte	0xc
 1557 069c 00       		.byte	0
 1558 069d 03       		.uleb128 0x3
 1559 069e F8040000 		.4byte	.LASF105
 1560 06a2 0E       		.byte	0xe
 1561 06a3 62       		.byte	0x62
 1562 06a4 64060000 		.4byte	0x664
 1563 06a8 16       		.uleb128 0x16
 1564 06a9 0804     		.2byte	0x408
 1565 06ab 0E       		.byte	0xe
 1566 06ac 67       		.byte	0x67
 1567 06ad D6060000 		.4byte	0x6d6
 1568 06b1 07       		.uleb128 0x7
 1569 06b2 95050000 		.4byte	.LASF106
 1570 06b6 0E       		.byte	0xe
 1571 06b7 6B       		.byte	0x6b
 1572 06b8 37000000 		.4byte	0x37
 1573 06bc 00       		.byte	0
 1574 06bd 07       		.uleb128 0x7
 1575 06be 5F0A0000 		.4byte	.LASF107
 1576 06c2 0E       		.byte	0xe
 1577 06c3 6F       		.byte	0x6f
ARM GAS  /tmp/ccI3AEmR.s 			page 29


 1578 06c4 D6060000 		.4byte	0x6d6
 1579 06c8 04       		.byte	0x4
 1580 06c9 07       		.uleb128 0x7
 1581 06ca 45060000 		.4byte	.LASF108
 1582 06ce 0E       		.byte	0xe
 1583 06cf 73       		.byte	0x73
 1584 06d0 DC060000 		.4byte	0x6dc
 1585 06d4 08       		.byte	0x8
 1586 06d5 00       		.byte	0
 1587 06d6 0A       		.uleb128 0xa
 1588 06d7 04       		.byte	0x4
 1589 06d8 9D060000 		.4byte	0x69d
 1590 06dc 17       		.uleb128 0x17
 1591 06dd 9D060000 		.4byte	0x69d
 1592 06e1 EC060000 		.4byte	0x6ec
 1593 06e5 18       		.uleb128 0x18
 1594 06e6 DB040000 		.4byte	0x4db
 1595 06ea 3F       		.byte	0x3f
 1596 06eb 00       		.byte	0
 1597 06ec 03       		.uleb128 0x3
 1598 06ed 9A030000 		.4byte	.LASF109
 1599 06f1 0E       		.byte	0xe
 1600 06f2 74       		.byte	0x74
 1601 06f3 A8060000 		.4byte	0x6a8
 1602 06f7 15       		.uleb128 0x15
 1603 06f8 04       		.byte	0x4
 1604 06f9 0F       		.byte	0xf
 1605 06fa 38       		.byte	0x38
 1606 06fb 0C070000 		.4byte	0x70c
 1607 06ff 07       		.uleb128 0x7
 1608 0700 31060000 		.4byte	.LASF110
 1609 0704 0F       		.byte	0xf
 1610 0705 3C       		.byte	0x3c
 1611 0706 FA000000 		.4byte	0xfa
 1612 070a 00       		.byte	0
 1613 070b 00       		.byte	0
 1614 070c 03       		.uleb128 0x3
 1615 070d F3070000 		.4byte	.LASF111
 1616 0711 0F       		.byte	0xf
 1617 0712 3D       		.byte	0x3d
 1618 0713 F7060000 		.4byte	0x6f7
 1619 0717 15       		.uleb128 0x15
 1620 0718 18       		.byte	0x18
 1621 0719 0F       		.byte	0xf
 1622 071a 48       		.byte	0x48
 1623 071b 5A070000 		.4byte	0x75a
 1624 071f 07       		.uleb128 0x7
 1625 0720 B2070000 		.4byte	.LASF112
 1626 0724 0F       		.byte	0xf
 1627 0725 49       		.byte	0x49
 1628 0726 FA000000 		.4byte	0xfa
 1629 072a 00       		.byte	0
 1630 072b 07       		.uleb128 0x7
 1631 072c 40030000 		.4byte	.LASF113
 1632 0730 0F       		.byte	0xf
 1633 0731 4A       		.byte	0x4a
 1634 0732 FA000000 		.4byte	0xfa
ARM GAS  /tmp/ccI3AEmR.s 			page 30


 1635 0736 04       		.byte	0x4
 1636 0737 07       		.uleb128 0x7
 1637 0738 660A0000 		.4byte	.LASF114
 1638 073c 0F       		.byte	0xf
 1639 073d 4B       		.byte	0x4b
 1640 073e FA000000 		.4byte	0xfa
 1641 0742 08       		.byte	0x8
 1642 0743 14       		.uleb128 0x14
 1643 0744 6E00     		.ascii	"n\000"
 1644 0746 0F       		.byte	0xf
 1645 0747 4C       		.byte	0x4c
 1646 0748 5D010000 		.4byte	0x15d
 1647 074c 0C       		.byte	0xc
 1648 074d 07       		.uleb128 0x7
 1649 074e 29020000 		.4byte	.LASF115
 1650 0752 0F       		.byte	0xf
 1651 0753 4D       		.byte	0x4d
 1652 0754 05010000 		.4byte	0x105
 1653 0758 10       		.byte	0x10
 1654 0759 00       		.byte	0
 1655 075a 03       		.uleb128 0x3
 1656 075b 03010000 		.4byte	.LASF116
 1657 075f 0F       		.byte	0xf
 1658 0760 4E       		.byte	0x4e
 1659 0761 17070000 		.4byte	0x717
 1660 0765 15       		.uleb128 0x15
 1661 0766 38       		.byte	0x38
 1662 0767 10       		.byte	0x10
 1663 0768 38       		.byte	0x38
 1664 0769 9E070000 		.4byte	0x79e
 1665 076d 07       		.uleb128 0x7
 1666 076e 07050000 		.4byte	.LASF117
 1667 0772 10       		.byte	0x10
 1668 0773 39       		.byte	0x39
 1669 0774 5D010000 		.4byte	0x15d
 1670 0778 00       		.byte	0
 1671 0779 07       		.uleb128 0x7
 1672 077a 17030000 		.4byte	.LASF118
 1673 077e 10       		.byte	0x10
 1674 077f 3A       		.byte	0x3a
 1675 0780 5D010000 		.4byte	0x15d
 1676 0784 04       		.byte	0x4
 1677 0785 07       		.uleb128 0x7
 1678 0786 0F040000 		.4byte	.LASF119
 1679 078a 10       		.byte	0x10
 1680 078b 3B       		.byte	0x3b
 1681 078c 5A070000 		.4byte	0x75a
 1682 0790 08       		.byte	0x8
 1683 0791 07       		.uleb128 0x7
 1684 0792 FB030000 		.4byte	.LASF120
 1685 0796 10       		.byte	0x10
 1686 0797 3D       		.byte	0x3d
 1687 0798 5A070000 		.4byte	0x75a
 1688 079c 20       		.byte	0x20
 1689 079d 00       		.byte	0
 1690 079e 03       		.uleb128 0x3
 1691 079f 1C060000 		.4byte	.LASF121
ARM GAS  /tmp/ccI3AEmR.s 			page 31


 1692 07a3 10       		.byte	0x10
 1693 07a4 3F       		.byte	0x3f
 1694 07a5 65070000 		.4byte	0x765
 1695 07a9 19       		.uleb128 0x19
 1696 07aa 04       		.byte	0x4
 1697 07ab 0A       		.byte	0xa
 1698 07ac FA       		.byte	0xfa
 1699 07ad 06080000 		.4byte	0x806
 1700 07b1 1A       		.uleb128 0x1a
 1701 07b2 D4090000 		.4byte	.LASF122
 1702 07b6 0A       		.byte	0xa
 1703 07b7 0101     		.2byte	0x101
 1704 07b9 3C010000 		.4byte	0x13c
 1705 07bd 1A       		.uleb128 0x1a
 1706 07be 51010000 		.4byte	.LASF123
 1707 07c2 0A       		.byte	0xa
 1708 07c3 0801     		.2byte	0x108
 1709 07c5 3C010000 		.4byte	0x13c
 1710 07c9 1A       		.uleb128 0x1a
 1711 07ca 10030000 		.4byte	.LASF124
 1712 07ce 0A       		.byte	0xa
 1713 07cf 0F01     		.2byte	0x10f
 1714 07d1 6C030000 		.4byte	0x36c
 1715 07d5 1A       		.uleb128 0x1a
 1716 07d6 63020000 		.4byte	.LASF125
 1717 07da 0A       		.byte	0xa
 1718 07db 1601     		.2byte	0x116
 1719 07dd 06080000 		.4byte	0x806
 1720 07e1 1A       		.uleb128 0x1a
 1721 07e2 30000000 		.4byte	.LASF126
 1722 07e6 0A       		.byte	0xa
 1723 07e7 1E01     		.2byte	0x11e
 1724 07e9 31080000 		.4byte	0x831
 1725 07ed 1A       		.uleb128 0x1a
 1726 07ee BD030000 		.4byte	.LASF127
 1727 07f2 0A       		.byte	0xa
 1728 07f3 2701     		.2byte	0x127
 1729 07f5 68080000 		.4byte	0x868
 1730 07f9 1A       		.uleb128 0x1a
 1731 07fa 40020000 		.4byte	.LASF128
 1732 07fe 0A       		.byte	0xa
 1733 07ff 2F01     		.2byte	0x12f
 1734 0801 47010000 		.4byte	0x147
 1735 0805 00       		.byte	0
 1736 0806 0A       		.uleb128 0xa
 1737 0807 04       		.byte	0x4
 1738 0808 84020000 		.4byte	0x284
 1739 080c 06       		.uleb128 0x6
 1740 080d 42040000 		.4byte	.LASF129
 1741 0811 0C       		.byte	0xc
 1742 0812 11       		.byte	0x11
 1743 0813 34       		.byte	0x34
 1744 0814 31080000 		.4byte	0x831
 1745 0818 07       		.uleb128 0x7
 1746 0819 13080000 		.4byte	.LASF130
 1747 081d 11       		.byte	0x11
 1748 081e 35       		.byte	0x35
ARM GAS  /tmp/ccI3AEmR.s 			page 32


 1749 081f B9020000 		.4byte	0x2b9
 1750 0823 00       		.byte	0
 1751 0824 07       		.uleb128 0x7
 1752 0825 E6060000 		.4byte	.LASF131
 1753 0829 11       		.byte	0x11
 1754 082a 37       		.byte	0x37
 1755 082b 52010000 		.4byte	0x152
 1756 082f 08       		.byte	0x8
 1757 0830 00       		.byte	0
 1758 0831 0A       		.uleb128 0xa
 1759 0832 04       		.byte	0x4
 1760 0833 0C080000 		.4byte	0x80c
 1761 0837 06       		.uleb128 0x6
 1762 0838 46080000 		.4byte	.LASF132
 1763 083c 10       		.byte	0x10
 1764 083d 12       		.byte	0x12
 1765 083e 39       		.byte	0x39
 1766 083f 68080000 		.4byte	0x868
 1767 0843 07       		.uleb128 0x7
 1768 0844 5E050000 		.4byte	.LASF133
 1769 0848 12       		.byte	0x12
 1770 0849 3A       		.byte	0x3a
 1771 084a B9020000 		.4byte	0x2b9
 1772 084e 00       		.byte	0
 1773 084f 07       		.uleb128 0x7
 1774 0850 3B010000 		.4byte	.LASF134
 1775 0854 12       		.byte	0x12
 1776 0855 3C       		.byte	0x3c
 1777 0856 8F020000 		.4byte	0x28f
 1778 085a 08       		.byte	0x8
 1779 085b 07       		.uleb128 0x7
 1780 085c 580A0000 		.4byte	.LASF135
 1781 0860 12       		.byte	0x12
 1782 0861 3E       		.byte	0x3e
 1783 0862 AC080000 		.4byte	0x8ac
 1784 0866 0C       		.byte	0xc
 1785 0867 00       		.byte	0
 1786 0868 0A       		.uleb128 0xa
 1787 0869 04       		.byte	0x4
 1788 086a 37080000 		.4byte	0x837
 1789 086e 0A       		.uleb128 0xa
 1790 086f 04       		.byte	0x4
 1791 0870 7B080000 		.4byte	0x87b
 1792 0874 04       		.uleb128 0x4
 1793 0875 01       		.byte	0x1
 1794 0876 08       		.byte	0x8
 1795 0877 E2020000 		.4byte	.LASF136
 1796 087b 1B       		.uleb128 0x1b
 1797 087c 74080000 		.4byte	0x874
 1798 0880 0A       		.uleb128 0xa
 1799 0881 04       		.byte	0x4
 1800 0882 BF050000 		.4byte	0x5bf
 1801 0886 0A       		.uleb128 0xa
 1802 0887 04       		.byte	0x4
 1803 0888 6E030000 		.4byte	0x36e
 1804 088c 05       		.uleb128 0x5
 1805 088d 6E080000 		.4byte	0x86e
ARM GAS  /tmp/ccI3AEmR.s 			page 33


 1806 0891 17       		.uleb128 0x17
 1807 0892 BF050000 		.4byte	0x5bf
 1808 0896 A1080000 		.4byte	0x8a1
 1809 089a 18       		.uleb128 0x18
 1810 089b DB040000 		.4byte	0x4db
 1811 089f 1E       		.byte	0x1e
 1812 08a0 00       		.byte	0
 1813 08a1 03       		.uleb128 0x3
 1814 08a2 7C090000 		.4byte	.LASF137
 1815 08a6 12       		.byte	0x12
 1816 08a7 34       		.byte	0x34
 1817 08a8 37080000 		.4byte	0x837
 1818 08ac 0A       		.uleb128 0xa
 1819 08ad 04       		.byte	0x4
 1820 08ae A1080000 		.4byte	0x8a1
 1821 08b2 1B       		.uleb128 0x1b
 1822 08b3 B4000000 		.4byte	0xb4
 1823 08b7 15       		.uleb128 0x15
 1824 08b8 0C       		.byte	0xc
 1825 08b9 13       		.byte	0x13
 1826 08ba DA       		.byte	0xda
 1827 08bb FC080000 		.4byte	0x8fc
 1828 08bf 07       		.uleb128 0x7
 1829 08c0 39030000 		.4byte	.LASF138
 1830 08c4 13       		.byte	0x13
 1831 08c5 DB       		.byte	0xdb
 1832 08c6 FC080000 		.4byte	0x8fc
 1833 08ca 00       		.byte	0
 1834 08cb 07       		.uleb128 0x7
 1835 08cc 390A0000 		.4byte	.LASF139
 1836 08d0 13       		.byte	0x13
 1837 08d1 DC       		.byte	0xdc
 1838 08d2 02090000 		.4byte	0x902
 1839 08d6 04       		.byte	0x4
 1840 08d7 07       		.uleb128 0x7
 1841 08d8 F7020000 		.4byte	.LASF140
 1842 08dc 13       		.byte	0x13
 1843 08dd DD       		.byte	0xdd
 1844 08de B4000000 		.4byte	0xb4
 1845 08e2 08       		.byte	0x8
 1846 08e3 07       		.uleb128 0x7
 1847 08e4 07070000 		.4byte	.LASF141
 1848 08e8 13       		.byte	0x13
 1849 08e9 DF       		.byte	0xdf
 1850 08ea B4000000 		.4byte	0xb4
 1851 08ee 09       		.byte	0x9
 1852 08ef 07       		.uleb128 0x7
 1853 08f0 73070000 		.4byte	.LASF142
 1854 08f4 13       		.byte	0x13
 1855 08f5 E0       		.byte	0xe0
 1856 08f6 B4000000 		.4byte	0xb4
 1857 08fa 0A       		.byte	0xa
 1858 08fb 00       		.byte	0
 1859 08fc 0A       		.uleb128 0xa
 1860 08fd 04       		.byte	0x4
 1861 08fe 39050000 		.4byte	0x539
 1862 0902 0A       		.uleb128 0xa
ARM GAS  /tmp/ccI3AEmR.s 			page 34


 1863 0903 04       		.byte	0x4
 1864 0904 F5000000 		.4byte	0xf5
 1865 0908 03       		.uleb128 0x3
 1866 0909 0D000000 		.4byte	.LASF143
 1867 090d 13       		.byte	0x13
 1868 090e E1       		.byte	0xe1
 1869 090f B7080000 		.4byte	0x8b7
 1870 0913 04       		.uleb128 0x4
 1871 0914 01       		.byte	0x1
 1872 0915 02       		.byte	0x2
 1873 0916 C5020000 		.4byte	.LASF144
 1874 091a 15       		.uleb128 0x15
 1875 091b 04       		.byte	0x4
 1876 091c 14       		.byte	0x14
 1877 091d B3       		.byte	0xb3
 1878 091e 3B090000 		.4byte	0x93b
 1879 0922 14       		.uleb128 0x14
 1880 0923 73657400 		.ascii	"set\000"
 1881 0927 14       		.byte	0x14
 1882 0928 B4       		.byte	0xb4
 1883 0929 BF000000 		.4byte	0xbf
 1884 092d 00       		.byte	0
 1885 092e 07       		.uleb128 0x7
 1886 092f ED030000 		.4byte	.LASF145
 1887 0933 14       		.byte	0x14
 1888 0934 B5       		.byte	0xb5
 1889 0935 BF000000 		.4byte	0xbf
 1890 0939 02       		.byte	0x2
 1891 093a 00       		.byte	0
 1892 093b 19       		.uleb128 0x19
 1893 093c 04       		.byte	0x4
 1894 093d 14       		.byte	0x14
 1895 093e B1       		.byte	0xb1
 1896 093f 56090000 		.4byte	0x956
 1897 0943 1C       		.uleb128 0x1c
 1898 0944 5700     		.ascii	"W\000"
 1899 0946 14       		.byte	0x14
 1900 0947 B2       		.byte	0xb2
 1901 0948 D5000000 		.4byte	0xd5
 1902 094c 1C       		.uleb128 0x1c
 1903 094d 4800     		.ascii	"H\000"
 1904 094f 14       		.byte	0x14
 1905 0950 B6       		.byte	0xb6
 1906 0951 1A090000 		.4byte	0x91a
 1907 0955 00       		.byte	0
 1908 0956 15       		.uleb128 0x15
 1909 0957 2C       		.byte	0x2c
 1910 0958 14       		.byte	0x14
 1911 0959 A9       		.byte	0xa9
 1912 095a E3090000 		.4byte	0x9e3
 1913 095e 07       		.uleb128 0x7
 1914 095f CE090000 		.4byte	.LASF146
 1915 0963 14       		.byte	0x14
 1916 0964 AB       		.byte	0xab
 1917 0965 F5000000 		.4byte	0xf5
 1918 0969 00       		.byte	0
 1919 096a 07       		.uleb128 0x7
ARM GAS  /tmp/ccI3AEmR.s 			page 35


 1920 096b C9070000 		.4byte	.LASF147
 1921 096f 14       		.byte	0x14
 1922 0970 AC       		.byte	0xac
 1923 0971 F5000000 		.4byte	0xf5
 1924 0975 04       		.byte	0x4
 1925 0976 07       		.uleb128 0x7
 1926 0977 0D050000 		.4byte	.LASF148
 1927 097b 14       		.byte	0x14
 1928 097c AD       		.byte	0xad
 1929 097d F5000000 		.4byte	0xf5
 1930 0981 08       		.byte	0x8
 1931 0982 07       		.uleb128 0x7
 1932 0983 64010000 		.4byte	.LASF149
 1933 0987 14       		.byte	0x14
 1934 0988 AE       		.byte	0xae
 1935 0989 F5000000 		.4byte	0xf5
 1936 098d 0C       		.byte	0xc
 1937 098e 14       		.uleb128 0x14
 1938 098f 49445200 		.ascii	"IDR\000"
 1939 0993 14       		.byte	0x14
 1940 0994 AF       		.byte	0xaf
 1941 0995 F5000000 		.4byte	0xf5
 1942 0999 10       		.byte	0x10
 1943 099a 14       		.uleb128 0x14
 1944 099b 4F445200 		.ascii	"ODR\000"
 1945 099f 14       		.byte	0x14
 1946 09a0 B0       		.byte	0xb0
 1947 09a1 F5000000 		.4byte	0xf5
 1948 09a5 14       		.byte	0x14
 1949 09a6 07       		.uleb128 0x7
 1950 09a7 4C090000 		.4byte	.LASF150
 1951 09ab 14       		.byte	0x14
 1952 09ac B7       		.byte	0xb7
 1953 09ad E3090000 		.4byte	0x9e3
 1954 09b1 18       		.byte	0x18
 1955 09b2 07       		.uleb128 0x7
 1956 09b3 AE040000 		.4byte	.LASF151
 1957 09b7 14       		.byte	0x14
 1958 09b8 B8       		.byte	0xb8
 1959 09b9 F5000000 		.4byte	0xf5
 1960 09bd 1C       		.byte	0x1c
 1961 09be 07       		.uleb128 0x7
 1962 09bf 6E070000 		.4byte	.LASF152
 1963 09c3 14       		.byte	0x14
 1964 09c4 B9       		.byte	0xb9
 1965 09c5 F5000000 		.4byte	0xf5
 1966 09c9 20       		.byte	0x20
 1967 09ca 07       		.uleb128 0x7
 1968 09cb 69070000 		.4byte	.LASF153
 1969 09cf 14       		.byte	0x14
 1970 09d0 BA       		.byte	0xba
 1971 09d1 F5000000 		.4byte	0xf5
 1972 09d5 24       		.byte	0x24
 1973 09d6 14       		.uleb128 0x14
 1974 09d7 42525200 		.ascii	"BRR\000"
 1975 09db 14       		.byte	0x14
 1976 09dc BB       		.byte	0xbb
ARM GAS  /tmp/ccI3AEmR.s 			page 36


 1977 09dd F5000000 		.4byte	0xf5
 1978 09e1 28       		.byte	0x28
 1979 09e2 00       		.byte	0
 1980 09e3 05       		.uleb128 0x5
 1981 09e4 3B090000 		.4byte	0x93b
 1982 09e8 03       		.uleb128 0x3
 1983 09e9 8A020000 		.4byte	.LASF154
 1984 09ed 14       		.byte	0x14
 1985 09ee BC       		.byte	0xbc
 1986 09ef 56090000 		.4byte	0x956
 1987 09f3 13       		.uleb128 0x13
 1988 09f4 46030000 		.4byte	.LASF155
 1989 09f8 14       		.byte	0x14
 1990 09f9 0E01     		.2byte	0x10e
 1991 09fb D5000000 		.4byte	0xd5
 1992 09ff 1D       		.uleb128 0x1d
 1993 0a00 01       		.byte	0x1
 1994 0a01 5E000000 		.4byte	0x5e
 1995 0a05 15       		.byte	0x15
 1996 0a06 3D       		.byte	0x3d
 1997 0a07 1E0A0000 		.4byte	0xa1e
 1998 0a0b 1E       		.uleb128 0x1e
 1999 0a0c CB040000 		.4byte	.LASF156
 2000 0a10 00       		.byte	0
 2001 0a11 1E       		.uleb128 0x1e
 2002 0a12 41000000 		.4byte	.LASF157
 2003 0a16 01       		.byte	0x1
 2004 0a17 1E       		.uleb128 0x1e
 2005 0a18 3E0A0000 		.4byte	.LASF158
 2006 0a1c 02       		.byte	0x2
 2007 0a1d 00       		.byte	0
 2008 0a1e 03       		.uleb128 0x3
 2009 0a1f 56080000 		.4byte	.LASF159
 2010 0a23 15       		.byte	0x15
 2011 0a24 41       		.byte	0x41
 2012 0a25 FF090000 		.4byte	0x9ff
 2013 0a29 1D       		.uleb128 0x1d
 2014 0a2a 01       		.byte	0x1
 2015 0a2b 5E000000 		.4byte	0x5e
 2016 0a2f 15       		.byte	0x15
 2017 0a30 46       		.byte	0x46
 2018 0a31 480A0000 		.4byte	0xa48
 2019 0a35 1E       		.uleb128 0x1e
 2020 0a36 9B090000 		.4byte	.LASF160
 2021 0a3a 00       		.byte	0
 2022 0a3b 1E       		.uleb128 0x1e
 2023 0a3c 6A010000 		.4byte	.LASF161
 2024 0a40 01       		.byte	0x1
 2025 0a41 1E       		.uleb128 0x1e
 2026 0a42 93070000 		.4byte	.LASF162
 2027 0a46 02       		.byte	0x2
 2028 0a47 00       		.byte	0
 2029 0a48 03       		.uleb128 0x3
 2030 0a49 15020000 		.4byte	.LASF163
 2031 0a4d 15       		.byte	0x15
 2032 0a4e 4A       		.byte	0x4a
 2033 0a4f 290A0000 		.4byte	0xa29
ARM GAS  /tmp/ccI3AEmR.s 			page 37


 2034 0a53 1D       		.uleb128 0x1d
 2035 0a54 01       		.byte	0x1
 2036 0a55 5E000000 		.4byte	0x5e
 2037 0a59 15       		.byte	0x15
 2038 0a5a 4F       		.byte	0x4f
 2039 0a5b 720A0000 		.4byte	0xa72
 2040 0a5f 1E       		.uleb128 0x1e
 2041 0a60 DE070000 		.4byte	.LASF164
 2042 0a64 00       		.byte	0
 2043 0a65 1E       		.uleb128 0x1e
 2044 0a66 39070000 		.4byte	.LASF165
 2045 0a6a 01       		.byte	0x1
 2046 0a6b 1E       		.uleb128 0x1e
 2047 0a6c E7040000 		.4byte	.LASF166
 2048 0a70 02       		.byte	0x2
 2049 0a71 00       		.byte	0
 2050 0a72 03       		.uleb128 0x3
 2051 0a73 A4070000 		.4byte	.LASF167
 2052 0a77 15       		.byte	0x15
 2053 0a78 53       		.byte	0x53
 2054 0a79 530A0000 		.4byte	0xa53
 2055 0a7d 13       		.uleb128 0x13
 2056 0a7e BC050000 		.4byte	.LASF168
 2057 0a82 16       		.byte	0x16
 2058 0a83 B101     		.2byte	0x1b1
 2059 0a85 D5000000 		.4byte	0xd5
 2060 0a89 13       		.uleb128 0x13
 2061 0a8a 81010000 		.4byte	.LASF169
 2062 0a8e 16       		.byte	0x16
 2063 0a8f B601     		.2byte	0x1b6
 2064 0a91 950A0000 		.4byte	0xa95
 2065 0a95 0B       		.uleb128 0xb
 2066 0a96 81010000 		.4byte	.LASF169
 2067 0a9a 1C       		.byte	0x1c
 2068 0a9b 16       		.byte	0x16
 2069 0a9c FE01     		.2byte	0x1fe
 2070 0a9e 180B0000 		.4byte	0xb18
 2071 0aa2 09       		.uleb128 0x9
 2072 0aa3 B4000000 		.4byte	.LASF170
 2073 0aa7 16       		.byte	0x16
 2074 0aa8 0202     		.2byte	0x202
 2075 0aaa 1E0A0000 		.4byte	0xa1e
 2076 0aae 00       		.byte	0
 2077 0aaf 09       		.uleb128 0x9
 2078 0ab0 02020000 		.4byte	.LASF171
 2079 0ab4 16       		.byte	0x16
 2080 0ab5 0602     		.2byte	0x206
 2081 0ab7 480A0000 		.4byte	0xa48
 2082 0abb 01       		.byte	0x1
 2083 0abc 09       		.uleb128 0x9
 2084 0abd E1000000 		.4byte	.LASF172
 2085 0ac1 16       		.byte	0x16
 2086 0ac2 0A02     		.2byte	0x20a
 2087 0ac4 720A0000 		.4byte	0xa72
 2088 0ac8 02       		.byte	0x2
 2089 0ac9 09       		.uleb128 0x9
 2090 0aca AD000000 		.4byte	.LASF173
ARM GAS  /tmp/ccI3AEmR.s 			page 38


 2091 0ace 16       		.byte	0x16
 2092 0acf 0E02     		.2byte	0x20e
 2093 0ad1 0A0C0000 		.4byte	0xc0a
 2094 0ad5 04       		.byte	0x4
 2095 0ad6 09       		.uleb128 0x9
 2096 0ad7 23020000 		.4byte	.LASF174
 2097 0adb 16       		.byte	0x16
 2098 0adc 1602     		.2byte	0x216
 2099 0ade 150C0000 		.4byte	0xc15
 2100 0ae2 08       		.byte	0x8
 2101 0ae3 09       		.uleb128 0x9
 2102 0ae4 AA050000 		.4byte	.LASF175
 2103 0ae8 16       		.byte	0x16
 2104 0ae9 1A02     		.2byte	0x21a
 2105 0aeb D5000000 		.4byte	0xd5
 2106 0aef 0C       		.byte	0xc
 2107 0af0 09       		.uleb128 0x9
 2108 0af1 26050000 		.4byte	.LASF176
 2109 0af5 16       		.byte	0x16
 2110 0af6 1E02     		.2byte	0x21e
 2111 0af8 1B0C0000 		.4byte	0xc1b
 2112 0afc 10       		.byte	0x10
 2113 0afd 09       		.uleb128 0x9
 2114 0afe C8050000 		.4byte	.LASF177
 2115 0b02 16       		.byte	0x16
 2116 0b03 2202     		.2byte	0x222
 2117 0b05 1B0C0000 		.4byte	0xc1b
 2118 0b09 14       		.byte	0x14
 2119 0b0a 09       		.uleb128 0x9
 2120 0b0b 20050000 		.4byte	.LASF178
 2121 0b0f 16       		.byte	0x16
 2122 0b10 2602     		.2byte	0x226
 2123 0b12 EB000000 		.4byte	0xeb
 2124 0b16 18       		.byte	0x18
 2125 0b17 00       		.byte	0
 2126 0b18 13       		.uleb128 0x13
 2127 0b19 A8090000 		.4byte	.LASF179
 2128 0b1d 16       		.byte	0x16
 2129 0b1e BD01     		.2byte	0x1bd
 2130 0b20 240B0000 		.4byte	0xb24
 2131 0b24 0A       		.uleb128 0xa
 2132 0b25 04       		.byte	0x4
 2133 0b26 2A0B0000 		.4byte	0xb2a
 2134 0b2a 0C       		.uleb128 0xc
 2135 0b2b 350B0000 		.4byte	0xb35
 2136 0b2f 0D       		.uleb128 0xd
 2137 0b30 350B0000 		.4byte	0xb35
 2138 0b34 00       		.byte	0
 2139 0b35 0A       		.uleb128 0xa
 2140 0b36 04       		.byte	0x4
 2141 0b37 890A0000 		.4byte	0xa89
 2142 0b3b 13       		.uleb128 0x13
 2143 0b3c BF070000 		.4byte	.LASF180
 2144 0b40 16       		.byte	0x16
 2145 0b41 C501     		.2byte	0x1c5
 2146 0b43 470B0000 		.4byte	0xb47
 2147 0b47 0A       		.uleb128 0xa
ARM GAS  /tmp/ccI3AEmR.s 			page 39


 2148 0b48 04       		.byte	0x4
 2149 0b49 4D0B0000 		.4byte	0xb4d
 2150 0b4d 0C       		.uleb128 0xc
 2151 0b4e 5D0B0000 		.4byte	0xb5d
 2152 0b52 0D       		.uleb128 0xd
 2153 0b53 350B0000 		.4byte	0xb35
 2154 0b57 0D       		.uleb128 0xd
 2155 0b58 BF000000 		.4byte	0xbf
 2156 0b5c 00       		.byte	0
 2157 0b5d 13       		.uleb128 0x13
 2158 0b5e A4040000 		.4byte	.LASF181
 2159 0b62 16       		.byte	0x16
 2160 0b63 CD01     		.2byte	0x1cd
 2161 0b65 690B0000 		.4byte	0xb69
 2162 0b69 0A       		.uleb128 0xa
 2163 0b6a 04       		.byte	0x4
 2164 0b6b 6F0B0000 		.4byte	0xb6f
 2165 0b6f 0C       		.uleb128 0xc
 2166 0b70 7F0B0000 		.4byte	0xb7f
 2167 0b74 0D       		.uleb128 0xd
 2168 0b75 350B0000 		.4byte	0xb35
 2169 0b79 0D       		.uleb128 0xd
 2170 0b7a 7D0A0000 		.4byte	0xa7d
 2171 0b7e 00       		.byte	0
 2172 0b7f 12       		.uleb128 0x12
 2173 0b80 20       		.byte	0x20
 2174 0b81 16       		.byte	0x16
 2175 0b82 D301     		.2byte	0x1d3
 2176 0b84 FE0B0000 		.4byte	0xbfe
 2177 0b88 09       		.uleb128 0x9
 2178 0b89 0E0A0000 		.4byte	.LASF182
 2179 0b8d 16       		.byte	0x16
 2180 0b8e D701     		.2byte	0x1d7
 2181 0b90 180B0000 		.4byte	0xb18
 2182 0b94 00       		.byte	0
 2183 0b95 09       		.uleb128 0x9
 2184 0b96 7D040000 		.4byte	.LASF183
 2185 0b9a 16       		.byte	0x16
 2186 0b9b DB01     		.2byte	0x1db
 2187 0b9d 180B0000 		.4byte	0xb18
 2188 0ba1 04       		.byte	0x4
 2189 0ba2 09       		.uleb128 0x9
 2190 0ba3 1C010000 		.4byte	.LASF184
 2191 0ba7 16       		.byte	0x16
 2192 0ba8 DF01     		.2byte	0x1df
 2193 0baa 180B0000 		.4byte	0xb18
 2194 0bae 08       		.byte	0x8
 2195 0baf 09       		.uleb128 0x9
 2196 0bb0 81030000 		.4byte	.LASF185
 2197 0bb4 16       		.byte	0x16
 2198 0bb5 E301     		.2byte	0x1e3
 2199 0bb7 3B0B0000 		.4byte	0xb3b
 2200 0bbb 0C       		.byte	0xc
 2201 0bbc 09       		.uleb128 0x9
 2202 0bbd EF050000 		.4byte	.LASF186
 2203 0bc1 16       		.byte	0x16
 2204 0bc2 E701     		.2byte	0x1e7
ARM GAS  /tmp/ccI3AEmR.s 			page 40


 2205 0bc4 5D0B0000 		.4byte	0xb5d
 2206 0bc8 10       		.byte	0x10
 2207 0bc9 09       		.uleb128 0x9
 2208 0bca AC030000 		.4byte	.LASF187
 2209 0bce 16       		.byte	0x16
 2210 0bcf EC01     		.2byte	0x1ec
 2211 0bd1 D5000000 		.4byte	0xd5
 2212 0bd5 14       		.byte	0x14
 2213 0bd6 08       		.uleb128 0x8
 2214 0bd7 63723100 		.ascii	"cr1\000"
 2215 0bdb 16       		.byte	0x16
 2216 0bdc F001     		.2byte	0x1f0
 2217 0bde BF000000 		.4byte	0xbf
 2218 0be2 18       		.byte	0x18
 2219 0be3 08       		.uleb128 0x8
 2220 0be4 63723200 		.ascii	"cr2\000"
 2221 0be8 16       		.byte	0x16
 2222 0be9 F401     		.2byte	0x1f4
 2223 0beb BF000000 		.4byte	0xbf
 2224 0bef 1A       		.byte	0x1a
 2225 0bf0 08       		.uleb128 0x8
 2226 0bf1 63723300 		.ascii	"cr3\000"
 2227 0bf5 16       		.byte	0x16
 2228 0bf6 F801     		.2byte	0x1f8
 2229 0bf8 BF000000 		.4byte	0xbf
 2230 0bfc 1C       		.byte	0x1c
 2231 0bfd 00       		.byte	0
 2232 0bfe 13       		.uleb128 0x13
 2233 0bff 37040000 		.4byte	.LASF188
 2234 0c03 16       		.byte	0x16
 2235 0c04 F901     		.2byte	0x1f9
 2236 0c06 7F0B0000 		.4byte	0xb7f
 2237 0c0a 0A       		.uleb128 0xa
 2238 0c0b 04       		.byte	0x4
 2239 0c0c 100C0000 		.4byte	0xc10
 2240 0c10 1B       		.uleb128 0x1b
 2241 0c11 FE0B0000 		.4byte	0xbfe
 2242 0c15 0A       		.uleb128 0xa
 2243 0c16 04       		.byte	0x4
 2244 0c17 A8050000 		.4byte	0x5a8
 2245 0c1b 0A       		.uleb128 0xa
 2246 0c1c 04       		.byte	0x4
 2247 0c1d 210C0000 		.4byte	0xc21
 2248 0c21 1B       		.uleb128 0x1b
 2249 0c22 08090000 		.4byte	0x908
 2250 0c26 1F       		.uleb128 0x1f
 2251 0c27 85070000 		.4byte	.LASF193
 2252 0c2b 02       		.byte	0x2
 2253 0c2c 2002     		.2byte	0x220
 2254 0c2e 03       		.byte	0x3
 2255 0c2f 400C0000 		.4byte	0xc40
 2256 0c33 20       		.uleb128 0x20
 2257 0c34 DC020000 		.4byte	.LASF192
 2258 0c38 02       		.byte	0x2
 2259 0c39 2002     		.2byte	0x220
 2260 0c3b D5000000 		.4byte	0xd5
 2261 0c3f 00       		.byte	0
ARM GAS  /tmp/ccI3AEmR.s 			page 41


 2262 0c40 21       		.uleb128 0x21
 2263 0c41 09080000 		.4byte	.LASF189
 2264 0c45 0D       		.byte	0xd
 2265 0c46 BC01     		.2byte	0x1bc
 2266 0c48 03       		.byte	0x3
 2267 0c49 21       		.uleb128 0x21
 2268 0c4a 9C010000 		.4byte	.LASF190
 2269 0c4e 0D       		.byte	0xd
 2270 0c4f CA01     		.2byte	0x1ca
 2271 0c51 03       		.byte	0x3
 2272 0c52 21       		.uleb128 0x21
 2273 0c53 66050000 		.4byte	.LASF191
 2274 0c57 0D       		.byte	0xd
 2275 0c58 D901     		.2byte	0x1d9
 2276 0c5a 03       		.byte	0x3
 2277 0c5b 22       		.uleb128 0x22
 2278 0c5c 1B080000 		.4byte	.LASF234
 2279 0c60 03       		.byte	0x3
 2280 0c61 5101     		.2byte	0x151
 2281 0c63 13090000 		.4byte	0x913
 2282 0c67 03       		.byte	0x3
 2283 0c68 790C0000 		.4byte	0xc79
 2284 0c6c 23       		.uleb128 0x23
 2285 0c6d 76747000 		.ascii	"vtp\000"
 2286 0c71 03       		.byte	0x3
 2287 0c72 5101     		.2byte	0x151
 2288 0c74 86080000 		.4byte	0x886
 2289 0c78 00       		.byte	0
 2290 0c79 1F       		.uleb128 0x1f
 2291 0c7a 32080000 		.4byte	.LASF194
 2292 0c7e 03       		.byte	0x3
 2293 0c7f 7601     		.2byte	0x176
 2294 0c81 03       		.byte	0x3
 2295 0c82 930C0000 		.4byte	0xc93
 2296 0c86 23       		.uleb128 0x23
 2297 0c87 76747000 		.ascii	"vtp\000"
 2298 0c8b 03       		.byte	0x3
 2299 0c8c 7601     		.2byte	0x176
 2300 0c8e 86080000 		.4byte	0x886
 2301 0c92 00       		.byte	0
 2302 0c93 21       		.uleb128 0x21
 2303 0c94 AF060000 		.4byte	.LASF195
 2304 0c98 0D       		.byte	0xd
 2305 0c99 E401     		.2byte	0x1e4
 2306 0c9b 03       		.byte	0x3
 2307 0c9c 21       		.uleb128 0x21
 2308 0c9d 69020000 		.4byte	.LASF196
 2309 0ca1 04       		.byte	0x4
 2310 0ca2 9601     		.2byte	0x196
 2311 0ca4 03       		.byte	0x3
 2312 0ca5 21       		.uleb128 0x21
 2313 0ca6 AF010000 		.4byte	.LASF197
 2314 0caa 04       		.byte	0x4
 2315 0cab 8201     		.2byte	0x182
 2316 0cad 03       		.byte	0x3
 2317 0cae 1F       		.uleb128 0x1f
 2318 0caf BA040000 		.4byte	.LASF198
ARM GAS  /tmp/ccI3AEmR.s 			page 42


 2319 0cb3 03       		.byte	0x3
 2320 0cb4 A401     		.2byte	0x1a4
 2321 0cb6 03       		.byte	0x3
 2322 0cb7 EC0C0000 		.4byte	0xcec
 2323 0cbb 23       		.uleb128 0x23
 2324 0cbc 76747000 		.ascii	"vtp\000"
 2325 0cc0 03       		.byte	0x3
 2326 0cc1 A401     		.2byte	0x1a4
 2327 0cc3 86080000 		.4byte	0x886
 2328 0cc7 20       		.uleb128 0x20
 2329 0cc8 16010000 		.4byte	.LASF199
 2330 0ccc 03       		.byte	0x3
 2331 0ccd A401     		.2byte	0x1a4
 2332 0ccf 68010000 		.4byte	0x168
 2333 0cd3 20       		.uleb128 0x20
 2334 0cd4 E9000000 		.4byte	.LASF200
 2335 0cd8 03       		.byte	0x3
 2336 0cd9 A501     		.2byte	0x1a5
 2337 0cdb 50030000 		.4byte	0x350
 2338 0cdf 23       		.uleb128 0x23
 2339 0ce0 70617200 		.ascii	"par\000"
 2340 0ce4 03       		.byte	0x3
 2341 0ce5 A501     		.2byte	0x1a5
 2342 0ce7 6C030000 		.4byte	0x36c
 2343 0ceb 00       		.byte	0
 2344 0cec 24       		.uleb128 0x24
 2345 0ced CD060000 		.4byte	.LASF201
 2346 0cf1 01       		.byte	0x1
 2347 0cf2 19       		.byte	0x19
 2348 0cf3 00000000 		.4byte	.LFB258
 2349 0cf7 10000000 		.4byte	.LFE258-.LFB258
 2350 0cfb 01       		.uleb128 0x1
 2351 0cfc 9C       		.byte	0x9c
 2352 0cfd 0D0D0000 		.4byte	0xd0d
 2353 0d01 25       		.uleb128 0x25
 2354 0d02 7000     		.ascii	"p\000"
 2355 0d04 01       		.byte	0x1
 2356 0d05 19       		.byte	0x19
 2357 0d06 6C030000 		.4byte	0x36c
 2358 0d0a 01       		.uleb128 0x1
 2359 0d0b 50       		.byte	0x50
 2360 0d0c 00       		.byte	0
 2361 0d0d 24       		.uleb128 0x24
 2362 0d0e FA010000 		.4byte	.LASF202
 2363 0d12 01       		.byte	0x1
 2364 0d13 1F       		.byte	0x1f
 2365 0d14 00000000 		.4byte	.LFB259
 2366 0d18 10000000 		.4byte	.LFE259-.LFB259
 2367 0d1c 01       		.uleb128 0x1
 2368 0d1d 9C       		.byte	0x9c
 2369 0d1e 2E0D0000 		.4byte	0xd2e
 2370 0d22 25       		.uleb128 0x25
 2371 0d23 7000     		.ascii	"p\000"
 2372 0d25 01       		.byte	0x1
 2373 0d26 1F       		.byte	0x1f
 2374 0d27 6C030000 		.4byte	0x36c
 2375 0d2b 01       		.uleb128 0x1
ARM GAS  /tmp/ccI3AEmR.s 			page 43


 2376 0d2c 50       		.byte	0x50
 2377 0d2d 00       		.byte	0
 2378 0d2e 24       		.uleb128 0x24
 2379 0d2f EC060000 		.4byte	.LASF203
 2380 0d33 01       		.byte	0x1
 2381 0d34 25       		.byte	0x25
 2382 0d35 00000000 		.4byte	.LFB260
 2383 0d39 10000000 		.4byte	.LFE260-.LFB260
 2384 0d3d 01       		.uleb128 0x1
 2385 0d3e 9C       		.byte	0x9c
 2386 0d3f 4F0D0000 		.4byte	0xd4f
 2387 0d43 25       		.uleb128 0x25
 2388 0d44 7000     		.ascii	"p\000"
 2389 0d46 01       		.byte	0x1
 2390 0d47 25       		.byte	0x25
 2391 0d48 6C030000 		.4byte	0x36c
 2392 0d4c 01       		.uleb128 0x1
 2393 0d4d 50       		.byte	0x50
 2394 0d4e 00       		.byte	0
 2395 0d4f 24       		.uleb128 0x24
 2396 0d50 62060000 		.4byte	.LASF204
 2397 0d54 01       		.byte	0x1
 2398 0d55 2F       		.byte	0x2f
 2399 0d56 00000000 		.4byte	.LFB261
 2400 0d5a 02000000 		.4byte	.LFE261-.LFB261
 2401 0d5e 01       		.uleb128 0x1
 2402 0d5f 9C       		.byte	0x9c
 2403 0d60 720D0000 		.4byte	0xd72
 2404 0d64 26       		.uleb128 0x26
 2405 0d65 2B060000 		.4byte	.LASF205
 2406 0d69 01       		.byte	0x1
 2407 0d6a 2F       		.byte	0x2f
 2408 0d6b 350B0000 		.4byte	0xb35
 2409 0d6f 01       		.uleb128 0x1
 2410 0d70 50       		.byte	0x50
 2411 0d71 00       		.byte	0
 2412 0d72 24       		.uleb128 0x24
 2413 0d73 F4060000 		.4byte	.LASF206
 2414 0d77 01       		.byte	0x1
 2415 0d78 45       		.byte	0x45
 2416 0d79 00000000 		.4byte	.LFB263
 2417 0d7d 02000000 		.4byte	.LFE263-.LFB263
 2418 0d81 01       		.uleb128 0x1
 2419 0d82 9C       		.byte	0x9c
 2420 0d83 A00D0000 		.4byte	0xda0
 2421 0d87 26       		.uleb128 0x26
 2422 0d88 2B060000 		.4byte	.LASF205
 2423 0d8c 01       		.byte	0x1
 2424 0d8d 45       		.byte	0x45
 2425 0d8e 350B0000 		.4byte	0xb35
 2426 0d92 01       		.uleb128 0x1
 2427 0d93 50       		.byte	0x50
 2428 0d94 25       		.uleb128 0x25
 2429 0d95 6500     		.ascii	"e\000"
 2430 0d97 01       		.byte	0x1
 2431 0d98 45       		.byte	0x45
 2432 0d99 7D0A0000 		.4byte	0xa7d
ARM GAS  /tmp/ccI3AEmR.s 			page 44


 2433 0d9d 01       		.uleb128 0x1
 2434 0d9e 51       		.byte	0x51
 2435 0d9f 00       		.byte	0
 2436 0da0 24       		.uleb128 0x24
 2437 0da1 4A010000 		.4byte	.LASF207
 2438 0da5 01       		.byte	0x1
 2439 0da6 4F       		.byte	0x4f
 2440 0da7 00000000 		.4byte	.LFB264
 2441 0dab 60000000 		.4byte	.LFE264-.LFB264
 2442 0daf 01       		.uleb128 0x1
 2443 0db0 9C       		.byte	0x9c
 2444 0db1 A60F0000 		.4byte	0xfa6
 2445 0db5 27       		.uleb128 0x27
 2446 0db6 2B060000 		.4byte	.LASF205
 2447 0dba 01       		.byte	0x1
 2448 0dbb 4F       		.byte	0x4f
 2449 0dbc 350B0000 		.4byte	0xb35
 2450 0dc0 00000000 		.4byte	.LLST0
 2451 0dc4 28       		.uleb128 0x28
 2452 0dc5 6300     		.ascii	"c\000"
 2453 0dc7 01       		.byte	0x1
 2454 0dc8 4F       		.byte	0x4f
 2455 0dc9 BF000000 		.4byte	0xbf
 2456 0dcd 21000000 		.4byte	.LLST1
 2457 0dd1 29       		.uleb128 0x29
 2458 0dd2 A50C0000 		.4byte	0xca5
 2459 0dd6 0A000000 		.4byte	.LBB104
 2460 0dda 00000000 		.4byte	.Ldebug_ranges0+0
 2461 0dde 01       		.byte	0x1
 2462 0ddf 55       		.byte	0x55
 2463 0de0 370E0000 		.4byte	0xe37
 2464 0de4 2A       		.uleb128 0x2a
 2465 0de5 520C0000 		.4byte	0xc52
 2466 0de9 0A000000 		.4byte	.LBB106
 2467 0ded 06000000 		.4byte	.LBE106-.LBB106
 2468 0df1 04       		.byte	0x4
 2469 0df2 8401     		.2byte	0x184
 2470 0df4 240E0000 		.4byte	0xe24
 2471 0df8 2B       		.uleb128 0x2b
 2472 0df9 400C0000 		.4byte	0xc40
 2473 0dfd 0A000000 		.4byte	.LBB107
 2474 0e01 06000000 		.4byte	.LBE107-.LBB107
 2475 0e05 0D       		.byte	0xd
 2476 0e06 DB01     		.2byte	0x1db
 2477 0e08 2B       		.uleb128 0x2b
 2478 0e09 260C0000 		.4byte	0xc26
 2479 0e0d 0A000000 		.4byte	.LBB108
 2480 0e11 06000000 		.4byte	.LBE108-.LBB108
 2481 0e15 0D       		.byte	0xd
 2482 0e16 BF01     		.2byte	0x1bf
 2483 0e18 2C       		.uleb128 0x2c
 2484 0e19 330C0000 		.4byte	0xc33
 2485 0e1d 42000000 		.4byte	.LLST2
 2486 0e21 00       		.byte	0
 2487 0e22 00       		.byte	0
 2488 0e23 00       		.byte	0
 2489 0e24 2D       		.uleb128 0x2d
ARM GAS  /tmp/ccI3AEmR.s 			page 45


 2490 0e25 16000000 		.4byte	.LVL8
 2491 0e29 24150000 		.4byte	0x1524
 2492 0e2d 2D       		.uleb128 0x2d
 2493 0e2e 1A000000 		.4byte	.LVL9
 2494 0e32 2F150000 		.4byte	0x152f
 2495 0e36 00       		.byte	0
 2496 0e37 29       		.uleb128 0x29
 2497 0e38 790C0000 		.4byte	0xc79
 2498 0e3c 10000000 		.4byte	.LBB111
 2499 0e40 18000000 		.4byte	.Ldebug_ranges0+0x18
 2500 0e44 01       		.byte	0x1
 2501 0e45 56       		.byte	0x56
 2502 0e46 8E0E0000 		.4byte	0xe8e
 2503 0e4a 2C       		.uleb128 0x2c
 2504 0e4b 860C0000 		.4byte	0xc86
 2505 0e4f 57000000 		.4byte	.LLST3
 2506 0e53 2E       		.uleb128 0x2e
 2507 0e54 5B0C0000 		.4byte	0xc5b
 2508 0e58 10000000 		.4byte	.LBB113
 2509 0e5c 30000000 		.4byte	.Ldebug_ranges0+0x30
 2510 0e60 03       		.byte	0x3
 2511 0e61 7801     		.2byte	0x178
 2512 0e63 7D0E0000 		.4byte	0xe7d
 2513 0e67 2F       		.uleb128 0x2f
 2514 0e68 6C0C0000 		.4byte	0xc6c
 2515 0e6c 06       		.uleb128 0x6
 2516 0e6d 03       		.byte	0x3
 2517 0e6e 00000000 		.4byte	vt4
 2518 0e72 9F       		.byte	0x9f
 2519 0e73 2D       		.uleb128 0x2d
 2520 0e74 1E000000 		.4byte	.LVL10
 2521 0e78 3A150000 		.4byte	0x153a
 2522 0e7c 00       		.byte	0
 2523 0e7d 30       		.uleb128 0x30
 2524 0e7e 28000000 		.4byte	.LVL11
 2525 0e82 45150000 		.4byte	0x1545
 2526 0e86 31       		.uleb128 0x31
 2527 0e87 01       		.uleb128 0x1
 2528 0e88 50       		.byte	0x50
 2529 0e89 02       		.uleb128 0x2
 2530 0e8a 74       		.byte	0x74
 2531 0e8b 00       		.sleb128 0
 2532 0e8c 00       		.byte	0
 2533 0e8d 00       		.byte	0
 2534 0e8e 32       		.uleb128 0x32
 2535 0e8f AE0C0000 		.4byte	0xcae
 2536 0e93 28000000 		.4byte	.LBB120
 2537 0e97 1C000000 		.4byte	.LBE120-.LBB120
 2538 0e9b 01       		.byte	0x1
 2539 0e9c 57       		.byte	0x57
 2540 0e9d 430F0000 		.4byte	0xf43
 2541 0ea1 2C       		.uleb128 0x2c
 2542 0ea2 C70C0000 		.4byte	0xcc7
 2543 0ea6 6F000000 		.4byte	.LLST4
 2544 0eaa 2C       		.uleb128 0x2c
 2545 0eab DF0C0000 		.4byte	0xcdf
 2546 0eaf 85000000 		.4byte	.LLST5
ARM GAS  /tmp/ccI3AEmR.s 			page 46


 2547 0eb3 2C       		.uleb128 0x2c
 2548 0eb4 D30C0000 		.4byte	0xcd3
 2549 0eb8 99000000 		.4byte	.LLST6
 2550 0ebc 2C       		.uleb128 0x2c
 2551 0ebd BB0C0000 		.4byte	0xcbb
 2552 0ec1 B1000000 		.4byte	.LLST7
 2553 0ec5 2A       		.uleb128 0x2a
 2554 0ec6 790C0000 		.4byte	0xc79
 2555 0eca 28000000 		.4byte	.LBB122
 2556 0ece 0E000000 		.4byte	.LBE122-.LBB122
 2557 0ed2 03       		.byte	0x3
 2558 0ed3 A701     		.2byte	0x1a7
 2559 0ed5 1D0F0000 		.4byte	0xf1d
 2560 0ed9 2C       		.uleb128 0x2c
 2561 0eda 860C0000 		.4byte	0xc86
 2562 0ede C9000000 		.4byte	.LLST8
 2563 0ee2 2A       		.uleb128 0x2a
 2564 0ee3 5B0C0000 		.4byte	0xc5b
 2565 0ee7 28000000 		.4byte	.LBB124
 2566 0eeb 04000000 		.4byte	.LBE124-.LBB124
 2567 0eef 03       		.byte	0x3
 2568 0ef0 7801     		.2byte	0x178
 2569 0ef2 0C0F0000 		.4byte	0xf0c
 2570 0ef6 2F       		.uleb128 0x2f
 2571 0ef7 6C0C0000 		.4byte	0xc6c
 2572 0efb 06       		.uleb128 0x6
 2573 0efc 03       		.byte	0x3
 2574 0efd 00000000 		.4byte	vt4
 2575 0f01 9F       		.byte	0x9f
 2576 0f02 2D       		.uleb128 0x2d
 2577 0f03 2C000000 		.4byte	.LVL12
 2578 0f07 3A150000 		.4byte	0x153a
 2579 0f0b 00       		.byte	0
 2580 0f0c 30       		.uleb128 0x30
 2581 0f0d 36000000 		.4byte	.LVL13
 2582 0f11 45150000 		.4byte	0x1545
 2583 0f15 31       		.uleb128 0x31
 2584 0f16 01       		.uleb128 0x1
 2585 0f17 50       		.byte	0x50
 2586 0f18 02       		.uleb128 0x2
 2587 0f19 74       		.byte	0x74
 2588 0f1a 00       		.sleb128 0
 2589 0f1b 00       		.byte	0
 2590 0f1c 00       		.byte	0
 2591 0f1d 30       		.uleb128 0x30
 2592 0f1e 44000000 		.4byte	.LVL14
 2593 0f22 50150000 		.4byte	0x1550
 2594 0f26 31       		.uleb128 0x31
 2595 0f27 01       		.uleb128 0x1
 2596 0f28 50       		.byte	0x50
 2597 0f29 02       		.uleb128 0x2
 2598 0f2a 74       		.byte	0x74
 2599 0f2b 00       		.sleb128 0
 2600 0f2c 31       		.uleb128 0x31
 2601 0f2d 01       		.uleb128 0x1
 2602 0f2e 51       		.byte	0x51
 2603 0f2f 03       		.uleb128 0x3
ARM GAS  /tmp/ccI3AEmR.s 			page 47


 2604 0f30 0A       		.byte	0xa
 2605 0f31 D007     		.2byte	0x7d0
 2606 0f33 31       		.uleb128 0x31
 2607 0f34 01       		.uleb128 0x1
 2608 0f35 52       		.byte	0x52
 2609 0f36 05       		.uleb128 0x5
 2610 0f37 03       		.byte	0x3
 2611 0f38 00000000 		.4byte	led4off
 2612 0f3c 31       		.uleb128 0x31
 2613 0f3d 01       		.uleb128 0x1
 2614 0f3e 53       		.byte	0x53
 2615 0f3f 01       		.uleb128 0x1
 2616 0f40 30       		.byte	0x30
 2617 0f41 00       		.byte	0
 2618 0f42 00       		.byte	0
 2619 0f43 33       		.uleb128 0x33
 2620 0f44 9C0C0000 		.4byte	0xc9c
 2621 0f48 44000000 		.4byte	.LBB126
 2622 0f4c 1C000000 		.4byte	.LBE126-.LBB126
 2623 0f50 01       		.byte	0x1
 2624 0f51 58       		.byte	0x58
 2625 0f52 2A       		.uleb128 0x2a
 2626 0f53 930C0000 		.4byte	0xc93
 2627 0f57 4C000000 		.4byte	.LBB128
 2628 0f5b 14000000 		.4byte	.LBE128-.LBB128
 2629 0f5f 04       		.byte	0x4
 2630 0f60 9A01     		.2byte	0x19a
 2631 0f62 920F0000 		.4byte	0xf92
 2632 0f66 2B       		.uleb128 0x2b
 2633 0f67 490C0000 		.4byte	0xc49
 2634 0f6b 4C000000 		.4byte	.LBB129
 2635 0f6f 14000000 		.4byte	.LBE129-.LBB129
 2636 0f73 0D       		.byte	0xd
 2637 0f74 E601     		.2byte	0x1e6
 2638 0f76 2B       		.uleb128 0x2b
 2639 0f77 260C0000 		.4byte	0xc26
 2640 0f7b 4C000000 		.4byte	.LBB130
 2641 0f7f 14000000 		.4byte	.LBE130-.LBB130
 2642 0f83 0D       		.byte	0xd
 2643 0f84 CD01     		.2byte	0x1cd
 2644 0f86 2C       		.uleb128 0x2c
 2645 0f87 330C0000 		.4byte	0xc33
 2646 0f8b E1000000 		.4byte	.LLST9
 2647 0f8f 00       		.byte	0
 2648 0f90 00       		.byte	0
 2649 0f91 00       		.byte	0
 2650 0f92 2D       		.uleb128 0x2d
 2651 0f93 48000000 		.4byte	.LVL15
 2652 0f97 5B150000 		.4byte	0x155b
 2653 0f9b 2D       		.uleb128 0x2d
 2654 0f9c 4C000000 		.4byte	.LVL16
 2655 0fa0 66150000 		.4byte	0x1566
 2656 0fa4 00       		.byte	0
 2657 0fa5 00       		.byte	0
 2658 0fa6 24       		.uleb128 0x24
 2659 0fa7 51090000 		.4byte	.LASF208
 2660 0fab 01       		.byte	0x1
ARM GAS  /tmp/ccI3AEmR.s 			page 48


 2661 0fac 5E       		.byte	0x5e
 2662 0fad 00000000 		.4byte	.LFB265
 2663 0fb1 60000000 		.4byte	.LFE265-.LFB265
 2664 0fb5 01       		.uleb128 0x1
 2665 0fb6 9C       		.byte	0x9c
 2666 0fb7 9F110000 		.4byte	0x119f
 2667 0fbb 27       		.uleb128 0x27
 2668 0fbc 2B060000 		.4byte	.LASF205
 2669 0fc0 01       		.byte	0x1
 2670 0fc1 5E       		.byte	0x5e
 2671 0fc2 350B0000 		.4byte	0xb35
 2672 0fc6 F5000000 		.4byte	.LLST10
 2673 0fca 29       		.uleb128 0x29
 2674 0fcb A50C0000 		.4byte	0xca5
 2675 0fcf 0A000000 		.4byte	.LBB154
 2676 0fd3 48000000 		.4byte	.Ldebug_ranges0+0x48
 2677 0fd7 01       		.byte	0x1
 2678 0fd8 64       		.byte	0x64
 2679 0fd9 30100000 		.4byte	0x1030
 2680 0fdd 2A       		.uleb128 0x2a
 2681 0fde 520C0000 		.4byte	0xc52
 2682 0fe2 0A000000 		.4byte	.LBB156
 2683 0fe6 06000000 		.4byte	.LBE156-.LBB156
 2684 0fea 04       		.byte	0x4
 2685 0feb 8401     		.2byte	0x184
 2686 0fed 1D100000 		.4byte	0x101d
 2687 0ff1 2B       		.uleb128 0x2b
 2688 0ff2 400C0000 		.4byte	0xc40
 2689 0ff6 0A000000 		.4byte	.LBB157
 2690 0ffa 06000000 		.4byte	.LBE157-.LBB157
 2691 0ffe 0D       		.byte	0xd
 2692 0fff DB01     		.2byte	0x1db
 2693 1001 2B       		.uleb128 0x2b
 2694 1002 260C0000 		.4byte	0xc26
 2695 1006 0A000000 		.4byte	.LBB158
 2696 100a 06000000 		.4byte	.LBE158-.LBB158
 2697 100e 0D       		.byte	0xd
 2698 100f BF01     		.2byte	0x1bf
 2699 1011 2C       		.uleb128 0x2c
 2700 1012 330C0000 		.4byte	0xc33
 2701 1016 16010000 		.4byte	.LLST11
 2702 101a 00       		.byte	0
 2703 101b 00       		.byte	0
 2704 101c 00       		.byte	0
 2705 101d 2D       		.uleb128 0x2d
 2706 101e 16000000 		.4byte	.LVL21
 2707 1022 24150000 		.4byte	0x1524
 2708 1026 2D       		.uleb128 0x2d
 2709 1027 1A000000 		.4byte	.LVL22
 2710 102b 2F150000 		.4byte	0x152f
 2711 102f 00       		.byte	0
 2712 1030 29       		.uleb128 0x29
 2713 1031 790C0000 		.4byte	0xc79
 2714 1035 10000000 		.4byte	.LBB161
 2715 1039 60000000 		.4byte	.Ldebug_ranges0+0x60
 2716 103d 01       		.byte	0x1
 2717 103e 65       		.byte	0x65
ARM GAS  /tmp/ccI3AEmR.s 			page 49


 2718 103f 87100000 		.4byte	0x1087
 2719 1043 2C       		.uleb128 0x2c
 2720 1044 860C0000 		.4byte	0xc86
 2721 1048 2B010000 		.4byte	.LLST12
 2722 104c 2E       		.uleb128 0x2e
 2723 104d 5B0C0000 		.4byte	0xc5b
 2724 1051 10000000 		.4byte	.LBB163
 2725 1055 78000000 		.4byte	.Ldebug_ranges0+0x78
 2726 1059 03       		.byte	0x3
 2727 105a 7801     		.2byte	0x178
 2728 105c 76100000 		.4byte	0x1076
 2729 1060 2F       		.uleb128 0x2f
 2730 1061 6C0C0000 		.4byte	0xc6c
 2731 1065 06       		.uleb128 0x6
 2732 1066 03       		.byte	0x3
 2733 1067 00000000 		.4byte	vt3
 2734 106b 9F       		.byte	0x9f
 2735 106c 2D       		.uleb128 0x2d
 2736 106d 1E000000 		.4byte	.LVL23
 2737 1071 3A150000 		.4byte	0x153a
 2738 1075 00       		.byte	0
 2739 1076 30       		.uleb128 0x30
 2740 1077 28000000 		.4byte	.LVL24
 2741 107b 45150000 		.4byte	0x1545
 2742 107f 31       		.uleb128 0x31
 2743 1080 01       		.uleb128 0x1
 2744 1081 50       		.byte	0x50
 2745 1082 02       		.uleb128 0x2
 2746 1083 74       		.byte	0x74
 2747 1084 00       		.sleb128 0
 2748 1085 00       		.byte	0
 2749 1086 00       		.byte	0
 2750 1087 32       		.uleb128 0x32
 2751 1088 AE0C0000 		.4byte	0xcae
 2752 108c 28000000 		.4byte	.LBB170
 2753 1090 1C000000 		.4byte	.LBE170-.LBB170
 2754 1094 01       		.byte	0x1
 2755 1095 66       		.byte	0x66
 2756 1096 3C110000 		.4byte	0x113c
 2757 109a 2C       		.uleb128 0x2c
 2758 109b C70C0000 		.4byte	0xcc7
 2759 109f 43010000 		.4byte	.LLST13
 2760 10a3 2C       		.uleb128 0x2c
 2761 10a4 DF0C0000 		.4byte	0xcdf
 2762 10a8 59010000 		.4byte	.LLST14
 2763 10ac 2C       		.uleb128 0x2c
 2764 10ad D30C0000 		.4byte	0xcd3
 2765 10b1 6D010000 		.4byte	.LLST15
 2766 10b5 2C       		.uleb128 0x2c
 2767 10b6 BB0C0000 		.4byte	0xcbb
 2768 10ba 85010000 		.4byte	.LLST16
 2769 10be 2A       		.uleb128 0x2a
 2770 10bf 790C0000 		.4byte	0xc79
 2771 10c3 28000000 		.4byte	.LBB172
 2772 10c7 0E000000 		.4byte	.LBE172-.LBB172
 2773 10cb 03       		.byte	0x3
 2774 10cc A701     		.2byte	0x1a7
ARM GAS  /tmp/ccI3AEmR.s 			page 50


 2775 10ce 16110000 		.4byte	0x1116
 2776 10d2 2C       		.uleb128 0x2c
 2777 10d3 860C0000 		.4byte	0xc86
 2778 10d7 9D010000 		.4byte	.LLST17
 2779 10db 2A       		.uleb128 0x2a
 2780 10dc 5B0C0000 		.4byte	0xc5b
 2781 10e0 28000000 		.4byte	.LBB174
 2782 10e4 04000000 		.4byte	.LBE174-.LBB174
 2783 10e8 03       		.byte	0x3
 2784 10e9 7801     		.2byte	0x178
 2785 10eb 05110000 		.4byte	0x1105
 2786 10ef 2F       		.uleb128 0x2f
 2787 10f0 6C0C0000 		.4byte	0xc6c
 2788 10f4 06       		.uleb128 0x6
 2789 10f5 03       		.byte	0x3
 2790 10f6 00000000 		.4byte	vt3
 2791 10fa 9F       		.byte	0x9f
 2792 10fb 2D       		.uleb128 0x2d
 2793 10fc 2C000000 		.4byte	.LVL25
 2794 1100 3A150000 		.4byte	0x153a
 2795 1104 00       		.byte	0
 2796 1105 30       		.uleb128 0x30
 2797 1106 36000000 		.4byte	.LVL26
 2798 110a 45150000 		.4byte	0x1545
 2799 110e 31       		.uleb128 0x31
 2800 110f 01       		.uleb128 0x1
 2801 1110 50       		.byte	0x50
 2802 1111 02       		.uleb128 0x2
 2803 1112 74       		.byte	0x74
 2804 1113 00       		.sleb128 0
 2805 1114 00       		.byte	0
 2806 1115 00       		.byte	0
 2807 1116 30       		.uleb128 0x30
 2808 1117 44000000 		.4byte	.LVL27
 2809 111b 50150000 		.4byte	0x1550
 2810 111f 31       		.uleb128 0x31
 2811 1120 01       		.uleb128 0x1
 2812 1121 50       		.byte	0x50
 2813 1122 02       		.uleb128 0x2
 2814 1123 74       		.byte	0x74
 2815 1124 00       		.sleb128 0
 2816 1125 31       		.uleb128 0x31
 2817 1126 01       		.uleb128 0x1
 2818 1127 51       		.byte	0x51
 2819 1128 03       		.uleb128 0x3
 2820 1129 0A       		.byte	0xa
 2821 112a D007     		.2byte	0x7d0
 2822 112c 31       		.uleb128 0x31
 2823 112d 01       		.uleb128 0x1
 2824 112e 52       		.byte	0x52
 2825 112f 05       		.uleb128 0x5
 2826 1130 03       		.byte	0x3
 2827 1131 00000000 		.4byte	led3off
 2828 1135 31       		.uleb128 0x31
 2829 1136 01       		.uleb128 0x1
 2830 1137 53       		.byte	0x53
 2831 1138 01       		.uleb128 0x1
ARM GAS  /tmp/ccI3AEmR.s 			page 51


 2832 1139 30       		.byte	0x30
 2833 113a 00       		.byte	0
 2834 113b 00       		.byte	0
 2835 113c 33       		.uleb128 0x33
 2836 113d 9C0C0000 		.4byte	0xc9c
 2837 1141 44000000 		.4byte	.LBB176
 2838 1145 1C000000 		.4byte	.LBE176-.LBB176
 2839 1149 01       		.byte	0x1
 2840 114a 67       		.byte	0x67
 2841 114b 2A       		.uleb128 0x2a
 2842 114c 930C0000 		.4byte	0xc93
 2843 1150 4C000000 		.4byte	.LBB178
 2844 1154 14000000 		.4byte	.LBE178-.LBB178
 2845 1158 04       		.byte	0x4
 2846 1159 9A01     		.2byte	0x19a
 2847 115b 8B110000 		.4byte	0x118b
 2848 115f 2B       		.uleb128 0x2b
 2849 1160 490C0000 		.4byte	0xc49
 2850 1164 4C000000 		.4byte	.LBB179
 2851 1168 14000000 		.4byte	.LBE179-.LBB179
 2852 116c 0D       		.byte	0xd
 2853 116d E601     		.2byte	0x1e6
 2854 116f 2B       		.uleb128 0x2b
 2855 1170 260C0000 		.4byte	0xc26
 2856 1174 4C000000 		.4byte	.LBB180
 2857 1178 14000000 		.4byte	.LBE180-.LBB180
 2858 117c 0D       		.byte	0xd
 2859 117d CD01     		.2byte	0x1cd
 2860 117f 2C       		.uleb128 0x2c
 2861 1180 330C0000 		.4byte	0xc33
 2862 1184 B5010000 		.4byte	.LLST18
 2863 1188 00       		.byte	0
 2864 1189 00       		.byte	0
 2865 118a 00       		.byte	0
 2866 118b 2D       		.uleb128 0x2d
 2867 118c 48000000 		.4byte	.LVL28
 2868 1190 5B150000 		.4byte	0x155b
 2869 1194 2D       		.uleb128 0x2d
 2870 1195 4C000000 		.4byte	.LVL29
 2871 1199 66150000 		.4byte	0x1566
 2872 119d 00       		.byte	0
 2873 119e 00       		.byte	0
 2874 119f 24       		.uleb128 0x24
 2875 11a0 69060000 		.4byte	.LASF209
 2876 11a4 01       		.byte	0x1
 2877 11a5 37       		.byte	0x37
 2878 11a6 00000000 		.4byte	.LFB262
 2879 11aa 60000000 		.4byte	.LFE262-.LFB262
 2880 11ae 01       		.uleb128 0x1
 2881 11af 9C       		.byte	0x9c
 2882 11b0 98130000 		.4byte	0x1398
 2883 11b4 27       		.uleb128 0x27
 2884 11b5 2B060000 		.4byte	.LASF205
 2885 11b9 01       		.byte	0x1
 2886 11ba 37       		.byte	0x37
 2887 11bb 350B0000 		.4byte	0xb35
 2888 11bf C9010000 		.4byte	.LLST19
ARM GAS  /tmp/ccI3AEmR.s 			page 52


 2889 11c3 29       		.uleb128 0x29
 2890 11c4 A50C0000 		.4byte	0xca5
 2891 11c8 0A000000 		.4byte	.LBB204
 2892 11cc 90000000 		.4byte	.Ldebug_ranges0+0x90
 2893 11d0 01       		.byte	0x1
 2894 11d1 3B       		.byte	0x3b
 2895 11d2 29120000 		.4byte	0x1229
 2896 11d6 2A       		.uleb128 0x2a
 2897 11d7 520C0000 		.4byte	0xc52
 2898 11db 0A000000 		.4byte	.LBB206
 2899 11df 06000000 		.4byte	.LBE206-.LBB206
 2900 11e3 04       		.byte	0x4
 2901 11e4 8401     		.2byte	0x184
 2902 11e6 16120000 		.4byte	0x1216
 2903 11ea 2B       		.uleb128 0x2b
 2904 11eb 400C0000 		.4byte	0xc40
 2905 11ef 0A000000 		.4byte	.LBB207
 2906 11f3 06000000 		.4byte	.LBE207-.LBB207
 2907 11f7 0D       		.byte	0xd
 2908 11f8 DB01     		.2byte	0x1db
 2909 11fa 2B       		.uleb128 0x2b
 2910 11fb 260C0000 		.4byte	0xc26
 2911 11ff 0A000000 		.4byte	.LBB208
 2912 1203 06000000 		.4byte	.LBE208-.LBB208
 2913 1207 0D       		.byte	0xd
 2914 1208 BF01     		.2byte	0x1bf
 2915 120a 2C       		.uleb128 0x2c
 2916 120b 330C0000 		.4byte	0xc33
 2917 120f EA010000 		.4byte	.LLST20
 2918 1213 00       		.byte	0
 2919 1214 00       		.byte	0
 2920 1215 00       		.byte	0
 2921 1216 2D       		.uleb128 0x2d
 2922 1217 16000000 		.4byte	.LVL34
 2923 121b 24150000 		.4byte	0x1524
 2924 121f 2D       		.uleb128 0x2d
 2925 1220 1A000000 		.4byte	.LVL35
 2926 1224 2F150000 		.4byte	0x152f
 2927 1228 00       		.byte	0
 2928 1229 29       		.uleb128 0x29
 2929 122a 790C0000 		.4byte	0xc79
 2930 122e 10000000 		.4byte	.LBB211
 2931 1232 A8000000 		.4byte	.Ldebug_ranges0+0xa8
 2932 1236 01       		.byte	0x1
 2933 1237 3C       		.byte	0x3c
 2934 1238 80120000 		.4byte	0x1280
 2935 123c 2C       		.uleb128 0x2c
 2936 123d 860C0000 		.4byte	0xc86
 2937 1241 FF010000 		.4byte	.LLST21
 2938 1245 2E       		.uleb128 0x2e
 2939 1246 5B0C0000 		.4byte	0xc5b
 2940 124a 10000000 		.4byte	.LBB213
 2941 124e C0000000 		.4byte	.Ldebug_ranges0+0xc0
 2942 1252 03       		.byte	0x3
 2943 1253 7801     		.2byte	0x178
 2944 1255 6F120000 		.4byte	0x126f
 2945 1259 2F       		.uleb128 0x2f
ARM GAS  /tmp/ccI3AEmR.s 			page 53


 2946 125a 6C0C0000 		.4byte	0xc6c
 2947 125e 06       		.uleb128 0x6
 2948 125f 03       		.byte	0x3
 2949 1260 00000000 		.4byte	vt5
 2950 1264 9F       		.byte	0x9f
 2951 1265 2D       		.uleb128 0x2d
 2952 1266 1E000000 		.4byte	.LVL36
 2953 126a 3A150000 		.4byte	0x153a
 2954 126e 00       		.byte	0
 2955 126f 30       		.uleb128 0x30
 2956 1270 28000000 		.4byte	.LVL37
 2957 1274 45150000 		.4byte	0x1545
 2958 1278 31       		.uleb128 0x31
 2959 1279 01       		.uleb128 0x1
 2960 127a 50       		.byte	0x50
 2961 127b 02       		.uleb128 0x2
 2962 127c 74       		.byte	0x74
 2963 127d 00       		.sleb128 0
 2964 127e 00       		.byte	0
 2965 127f 00       		.byte	0
 2966 1280 32       		.uleb128 0x32
 2967 1281 AE0C0000 		.4byte	0xcae
 2968 1285 28000000 		.4byte	.LBB220
 2969 1289 1C000000 		.4byte	.LBE220-.LBB220
 2970 128d 01       		.byte	0x1
 2971 128e 3D       		.byte	0x3d
 2972 128f 35130000 		.4byte	0x1335
 2973 1293 2C       		.uleb128 0x2c
 2974 1294 C70C0000 		.4byte	0xcc7
 2975 1298 17020000 		.4byte	.LLST22
 2976 129c 2C       		.uleb128 0x2c
 2977 129d DF0C0000 		.4byte	0xcdf
 2978 12a1 2D020000 		.4byte	.LLST23
 2979 12a5 2C       		.uleb128 0x2c
 2980 12a6 D30C0000 		.4byte	0xcd3
 2981 12aa 41020000 		.4byte	.LLST24
 2982 12ae 2C       		.uleb128 0x2c
 2983 12af BB0C0000 		.4byte	0xcbb
 2984 12b3 59020000 		.4byte	.LLST25
 2985 12b7 2A       		.uleb128 0x2a
 2986 12b8 790C0000 		.4byte	0xc79
 2987 12bc 28000000 		.4byte	.LBB222
 2988 12c0 0E000000 		.4byte	.LBE222-.LBB222
 2989 12c4 03       		.byte	0x3
 2990 12c5 A701     		.2byte	0x1a7
 2991 12c7 0F130000 		.4byte	0x130f
 2992 12cb 2C       		.uleb128 0x2c
 2993 12cc 860C0000 		.4byte	0xc86
 2994 12d0 71020000 		.4byte	.LLST26
 2995 12d4 2A       		.uleb128 0x2a
 2996 12d5 5B0C0000 		.4byte	0xc5b
 2997 12d9 28000000 		.4byte	.LBB224
 2998 12dd 04000000 		.4byte	.LBE224-.LBB224
 2999 12e1 03       		.byte	0x3
 3000 12e2 7801     		.2byte	0x178
 3001 12e4 FE120000 		.4byte	0x12fe
 3002 12e8 2F       		.uleb128 0x2f
ARM GAS  /tmp/ccI3AEmR.s 			page 54


 3003 12e9 6C0C0000 		.4byte	0xc6c
 3004 12ed 06       		.uleb128 0x6
 3005 12ee 03       		.byte	0x3
 3006 12ef 00000000 		.4byte	vt5
 3007 12f3 9F       		.byte	0x9f
 3008 12f4 2D       		.uleb128 0x2d
 3009 12f5 2C000000 		.4byte	.LVL38
 3010 12f9 3A150000 		.4byte	0x153a
 3011 12fd 00       		.byte	0
 3012 12fe 30       		.uleb128 0x30
 3013 12ff 36000000 		.4byte	.LVL39
 3014 1303 45150000 		.4byte	0x1545
 3015 1307 31       		.uleb128 0x31
 3016 1308 01       		.uleb128 0x1
 3017 1309 50       		.byte	0x50
 3018 130a 02       		.uleb128 0x2
 3019 130b 74       		.byte	0x74
 3020 130c 00       		.sleb128 0
 3021 130d 00       		.byte	0
 3022 130e 00       		.byte	0
 3023 130f 30       		.uleb128 0x30
 3024 1310 44000000 		.4byte	.LVL40
 3025 1314 50150000 		.4byte	0x1550
 3026 1318 31       		.uleb128 0x31
 3027 1319 01       		.uleb128 0x1
 3028 131a 50       		.byte	0x50
 3029 131b 02       		.uleb128 0x2
 3030 131c 74       		.byte	0x74
 3031 131d 00       		.sleb128 0
 3032 131e 31       		.uleb128 0x31
 3033 131f 01       		.uleb128 0x1
 3034 1320 51       		.byte	0x51
 3035 1321 03       		.uleb128 0x3
 3036 1322 0A       		.byte	0xa
 3037 1323 D007     		.2byte	0x7d0
 3038 1325 31       		.uleb128 0x31
 3039 1326 01       		.uleb128 0x1
 3040 1327 52       		.byte	0x52
 3041 1328 05       		.uleb128 0x5
 3042 1329 03       		.byte	0x3
 3043 132a 00000000 		.4byte	led5off
 3044 132e 31       		.uleb128 0x31
 3045 132f 01       		.uleb128 0x1
 3046 1330 53       		.byte	0x53
 3047 1331 01       		.uleb128 0x1
 3048 1332 30       		.byte	0x30
 3049 1333 00       		.byte	0
 3050 1334 00       		.byte	0
 3051 1335 33       		.uleb128 0x33
 3052 1336 9C0C0000 		.4byte	0xc9c
 3053 133a 44000000 		.4byte	.LBB226
 3054 133e 1C000000 		.4byte	.LBE226-.LBB226
 3055 1342 01       		.byte	0x1
 3056 1343 3E       		.byte	0x3e
 3057 1344 2A       		.uleb128 0x2a
 3058 1345 930C0000 		.4byte	0xc93
 3059 1349 4C000000 		.4byte	.LBB228
ARM GAS  /tmp/ccI3AEmR.s 			page 55


 3060 134d 14000000 		.4byte	.LBE228-.LBB228
 3061 1351 04       		.byte	0x4
 3062 1352 9A01     		.2byte	0x19a
 3063 1354 84130000 		.4byte	0x1384
 3064 1358 2B       		.uleb128 0x2b
 3065 1359 490C0000 		.4byte	0xc49
 3066 135d 4C000000 		.4byte	.LBB229
 3067 1361 14000000 		.4byte	.LBE229-.LBB229
 3068 1365 0D       		.byte	0xd
 3069 1366 E601     		.2byte	0x1e6
 3070 1368 2B       		.uleb128 0x2b
 3071 1369 260C0000 		.4byte	0xc26
 3072 136d 4C000000 		.4byte	.LBB230
 3073 1371 14000000 		.4byte	.LBE230-.LBB230
 3074 1375 0D       		.byte	0xd
 3075 1376 CD01     		.2byte	0x1cd
 3076 1378 2C       		.uleb128 0x2c
 3077 1379 330C0000 		.4byte	0xc33
 3078 137d 89020000 		.4byte	.LLST27
 3079 1381 00       		.byte	0
 3080 1382 00       		.byte	0
 3081 1383 00       		.byte	0
 3082 1384 2D       		.uleb128 0x2d
 3083 1385 48000000 		.4byte	.LVL41
 3084 1389 5B150000 		.4byte	0x155b
 3085 138d 2D       		.uleb128 0x2d
 3086 138e 4C000000 		.4byte	.LVL42
 3087 1392 66150000 		.4byte	0x1566
 3088 1396 00       		.byte	0
 3089 1397 00       		.byte	0
 3090 1398 34       		.uleb128 0x34
 3091 1399 D2010000 		.4byte	.LASF235
 3092 139d 01       		.byte	0x1
 3093 139e 7C       		.byte	0x7c
 3094 139f 25000000 		.4byte	0x25
 3095 13a3 00000000 		.4byte	.LFB266
 3096 13a7 74000000 		.4byte	.LFE266-.LFB266
 3097 13ab 01       		.uleb128 0x1
 3098 13ac 9C       		.byte	0x9c
 3099 13ad 76140000 		.4byte	0x1476
 3100 13b1 2D       		.uleb128 0x2d
 3101 13b2 08000000 		.4byte	.LVL44
 3102 13b6 71150000 		.4byte	0x1571
 3103 13ba 2D       		.uleb128 0x2d
 3104 13bb 0C000000 		.4byte	.LVL45
 3105 13bf 7C150000 		.4byte	0x157c
 3106 13c3 35       		.uleb128 0x35
 3107 13c4 14000000 		.4byte	.LVL46
 3108 13c8 88150000 		.4byte	0x1588
 3109 13cc DA130000 		.4byte	0x13da
 3110 13d0 31       		.uleb128 0x31
 3111 13d1 01       		.uleb128 0x1
 3112 13d2 51       		.byte	0x51
 3113 13d3 05       		.uleb128 0x5
 3114 13d4 03       		.byte	0x3
 3115 13d5 00000000 		.4byte	.LANCHOR3
 3116 13d9 00       		.byte	0
ARM GAS  /tmp/ccI3AEmR.s 			page 56


 3117 13da 35       		.uleb128 0x35
 3118 13db 20000000 		.4byte	.LVL47
 3119 13df 93150000 		.4byte	0x1593
 3120 13e3 FA130000 		.4byte	0x13fa
 3121 13e7 31       		.uleb128 0x31
 3122 13e8 01       		.uleb128 0x1
 3123 13e9 50       		.byte	0x50
 3124 13ea 02       		.uleb128 0x2
 3125 13eb 74       		.byte	0x74
 3126 13ec 00       		.sleb128 0
 3127 13ed 31       		.uleb128 0x31
 3128 13ee 01       		.uleb128 0x1
 3129 13ef 51       		.byte	0x51
 3130 13f0 01       		.uleb128 0x1
 3131 13f1 34       		.byte	0x34
 3132 13f2 31       		.uleb128 0x31
 3133 13f3 01       		.uleb128 0x1
 3134 13f4 52       		.byte	0x52
 3135 13f5 03       		.uleb128 0x3
 3136 13f6 0A       		.byte	0xa
 3137 13f7 8203     		.2byte	0x382
 3138 13f9 00       		.byte	0
 3139 13fa 35       		.uleb128 0x35
 3140 13fb 2C000000 		.4byte	.LVL48
 3141 13ff 93150000 		.4byte	0x1593
 3142 1403 1A140000 		.4byte	0x141a
 3143 1407 31       		.uleb128 0x31
 3144 1408 01       		.uleb128 0x1
 3145 1409 50       		.byte	0x50
 3146 140a 02       		.uleb128 0x2
 3147 140b 74       		.byte	0x74
 3148 140c 00       		.sleb128 0
 3149 140d 31       		.uleb128 0x31
 3150 140e 01       		.uleb128 0x1
 3151 140f 51       		.byte	0x51
 3152 1410 01       		.uleb128 0x1
 3153 1411 38       		.byte	0x38
 3154 1412 31       		.uleb128 0x31
 3155 1413 01       		.uleb128 0x1
 3156 1414 52       		.byte	0x52
 3157 1415 03       		.uleb128 0x3
 3158 1416 0A       		.byte	0xa
 3159 1417 8203     		.2byte	0x382
 3160 1419 00       		.byte	0
 3161 141a 35       		.uleb128 0x35
 3162 141b 36000000 		.4byte	.LVL49
 3163 141f 9F150000 		.4byte	0x159f
 3164 1423 2F140000 		.4byte	0x142f
 3165 1427 31       		.uleb128 0x31
 3166 1428 01       		.uleb128 0x1
 3167 1429 50       		.byte	0x50
 3168 142a 03       		.uleb128 0x3
 3169 142b 0A       		.byte	0xa
 3170 142c 8813     		.2byte	0x1388
 3171 142e 00       		.byte	0
 3172 142f 2D       		.uleb128 0x2d
 3173 1430 42000000 		.4byte	.LVL50
ARM GAS  /tmp/ccI3AEmR.s 			page 57


 3174 1434 AA150000 		.4byte	0x15aa
 3175 1438 2D       		.uleb128 0x2d
 3176 1439 48000000 		.4byte	.LVL51
 3177 143d B5150000 		.4byte	0x15b5
 3178 1441 35       		.uleb128 0x35
 3179 1442 52000000 		.4byte	.LVL52
 3180 1446 C0150000 		.4byte	0x15c0
 3181 144a 5D140000 		.4byte	0x145d
 3182 144e 31       		.uleb128 0x31
 3183 144f 01       		.uleb128 0x1
 3184 1450 51       		.byte	0x51
 3185 1451 01       		.uleb128 0x1
 3186 1452 40       		.byte	0x40
 3187 1453 31       		.uleb128 0x31
 3188 1454 01       		.uleb128 0x1
 3189 1455 52       		.byte	0x52
 3190 1456 05       		.uleb128 0x5
 3191 1457 03       		.byte	0x3
 3192 1458 00000000 		.4byte	.LANCHOR4
 3193 145c 00       		.byte	0
 3194 145d 30       		.uleb128 0x30
 3195 145e 5C000000 		.4byte	.LVL53
 3196 1462 CB150000 		.4byte	0x15cb
 3197 1466 31       		.uleb128 0x31
 3198 1467 01       		.uleb128 0x1
 3199 1468 51       		.byte	0x51
 3200 1469 01       		.uleb128 0x1
 3201 146a 40       		.byte	0x40
 3202 146b 31       		.uleb128 0x31
 3203 146c 01       		.uleb128 0x1
 3204 146d 52       		.byte	0x52
 3205 146e 05       		.uleb128 0x5
 3206 146f 03       		.byte	0x3
 3207 1470 00000000 		.4byte	.LANCHOR5
 3208 1474 00       		.byte	0
 3209 1475 00       		.byte	0
 3210 1476 36       		.uleb128 0x36
 3211 1477 76743300 		.ascii	"vt3\000"
 3212 147b 01       		.byte	0x1
 3213 147c 14       		.byte	0x14
 3214 147d 6E030000 		.4byte	0x36e
 3215 1481 05       		.uleb128 0x5
 3216 1482 03       		.byte	0x3
 3217 1483 00000000 		.4byte	vt3
 3218 1487 36       		.uleb128 0x36
 3219 1488 76743400 		.ascii	"vt4\000"
 3220 148c 01       		.byte	0x1
 3221 148d 14       		.byte	0x14
 3222 148e 6E030000 		.4byte	0x36e
 3223 1492 05       		.uleb128 0x5
 3224 1493 03       		.byte	0x3
 3225 1494 00000000 		.4byte	vt4
 3226 1498 36       		.uleb128 0x36
 3227 1499 76743500 		.ascii	"vt5\000"
 3228 149d 01       		.byte	0x1
 3229 149e 14       		.byte	0x14
 3230 149f 6E030000 		.4byte	0x36e
ARM GAS  /tmp/ccI3AEmR.s 			page 58


 3231 14a3 05       		.uleb128 0x5
 3232 14a4 03       		.byte	0x3
 3233 14a5 00000000 		.4byte	vt5
 3234 14a9 17       		.uleb128 0x17
 3235 14aa B2080000 		.4byte	0x8b2
 3236 14ae B9140000 		.4byte	0x14b9
 3237 14b2 18       		.uleb128 0x18
 3238 14b3 DB040000 		.4byte	0x4db
 3239 14b7 10       		.byte	0x10
 3240 14b8 00       		.byte	0
 3241 14b9 37       		.uleb128 0x37
 3242 14ba FA090000 		.4byte	.LASF210
 3243 14be 01       		.byte	0x1
 3244 14bf 16       		.byte	0x16
 3245 14c0 CA140000 		.4byte	0x14ca
 3246 14c4 05       		.uleb128 0x5
 3247 14c5 03       		.byte	0x3
 3248 14c6 00000000 		.4byte	message
 3249 14ca 1B       		.uleb128 0x1b
 3250 14cb A9140000 		.4byte	0x14a9
 3251 14cf 17       		.uleb128 0x17
 3252 14d0 B4000000 		.4byte	0xb4
 3253 14d4 DF140000 		.4byte	0x14df
 3254 14d8 18       		.uleb128 0x18
 3255 14d9 DB040000 		.4byte	0x4db
 3256 14dd 0F       		.byte	0xf
 3257 14de 00       		.byte	0
 3258 14df 37       		.uleb128 0x37
 3259 14e0 93030000 		.4byte	.LASF211
 3260 14e4 01       		.byte	0x1
 3261 14e5 17       		.byte	0x17
 3262 14e6 CF140000 		.4byte	0x14cf
 3263 14ea 05       		.uleb128 0x5
 3264 14eb 03       		.byte	0x3
 3265 14ec 00000000 		.4byte	buffer
 3266 14f0 37       		.uleb128 0x37
 3267 14f1 15050000 		.4byte	.LASF212
 3268 14f5 01       		.byte	0x1
 3269 14f6 6D       		.byte	0x6d
 3270 14f7 FE0B0000 		.4byte	0xbfe
 3271 14fb 05       		.uleb128 0x5
 3272 14fc 03       		.byte	0x3
 3273 14fd 00000000 		.4byte	uart_cfg_1
 3274 1501 38       		.uleb128 0x38
 3275 1502 9D050000 		.4byte	.LASF213
 3276 1506 17       		.byte	0x17
 3277 1507 A706     		.2byte	0x6a7
 3278 1509 F0000000 		.4byte	0xf0
 3279 150d 39       		.uleb128 0x39
 3280 150e 636800   		.ascii	"ch\000"
 3281 1511 0A       		.byte	0xa
 3282 1512 0902     		.2byte	0x209
 3283 1514 63040000 		.4byte	0x463
 3284 1518 38       		.uleb128 0x38
 3285 1519 230A0000 		.4byte	.LASF214
 3286 151d 16       		.byte	0x16
 3287 151e 3602     		.2byte	0x236
ARM GAS  /tmp/ccI3AEmR.s 			page 59


 3288 1520 890A0000 		.4byte	0xa89
 3289 1524 3A       		.uleb128 0x3a
 3290 1525 5E090000 		.4byte	.LASF215
 3291 1529 5E090000 		.4byte	.LASF215
 3292 152d 10       		.byte	0x10
 3293 152e 51       		.byte	0x51
 3294 152f 3A       		.uleb128 0x3a
 3295 1530 45050000 		.4byte	.LASF216
 3296 1534 45050000 		.4byte	.LASF216
 3297 1538 0E       		.byte	0xe
 3298 1539 DA       		.byte	0xda
 3299 153a 3A       		.uleb128 0x3a
 3300 153b CB020000 		.4byte	.LASF217
 3301 153f CB020000 		.4byte	.LASF217
 3302 1543 0E       		.byte	0xe
 3303 1544 DE       		.byte	0xde
 3304 1545 3A       		.uleb128 0x3a
 3305 1546 F0000000 		.4byte	.LASF218
 3306 154a F0000000 		.4byte	.LASF218
 3307 154e 03       		.byte	0x3
 3308 154f BE       		.byte	0xbe
 3309 1550 3A       		.uleb128 0x3a
 3310 1551 0A020000 		.4byte	.LASF219
 3311 1555 0A020000 		.4byte	.LASF219
 3312 1559 03       		.byte	0x3
 3313 155a BC       		.byte	0xbc
 3314 155b 3A       		.uleb128 0x3a
 3315 155c C4030000 		.4byte	.LASF220
 3316 1560 C4030000 		.4byte	.LASF220
 3317 1564 0E       		.byte	0xe
 3318 1565 DB       		.byte	0xdb
 3319 1566 3A       		.uleb128 0x3a
 3320 1567 53030000 		.4byte	.LASF221
 3321 156b 53030000 		.4byte	.LASF221
 3322 156f 10       		.byte	0x10
 3323 1570 52       		.byte	0x52
 3324 1571 3A       		.uleb128 0x3a
 3325 1572 C3040000 		.4byte	.LASF222
 3326 1576 C3040000 		.4byte	.LASF222
 3327 157a 18       		.byte	0x18
 3328 157b 99       		.byte	0x99
 3329 157c 3B       		.uleb128 0x3b
 3330 157d BB090000 		.4byte	.LASF223
 3331 1581 BB090000 		.4byte	.LASF223
 3332 1585 04       		.byte	0x4
 3333 1586 1501     		.2byte	0x115
 3334 1588 3A       		.uleb128 0x3a
 3335 1589 72000000 		.4byte	.LASF224
 3336 158d 72000000 		.4byte	.LASF224
 3337 1591 15       		.byte	0x15
 3338 1592 64       		.byte	0x64
 3339 1593 3B       		.uleb128 0x3b
 3340 1594 25010000 		.4byte	.LASF225
 3341 1598 25010000 		.4byte	.LASF225
 3342 159c 14       		.byte	0x14
 3343 159d E001     		.2byte	0x1e0
 3344 159f 3A       		.uleb128 0x3a
ARM GAS  /tmp/ccI3AEmR.s 			page 60


 3345 15a0 76030000 		.4byte	.LASF226
 3346 15a4 76030000 		.4byte	.LASF226
 3347 15a8 19       		.byte	0x19
 3348 15a9 96       		.byte	0x96
 3349 15aa 3A       		.uleb128 0x3a
 3350 15ab E7020000 		.4byte	.LASF227
 3351 15af E7020000 		.4byte	.LASF227
 3352 15b3 15       		.byte	0x15
 3353 15b4 6C       		.byte	0x6c
 3354 15b5 3A       		.uleb128 0x3a
 3355 15b6 38060000 		.4byte	.LASF228
 3356 15ba 38060000 		.4byte	.LASF228
 3357 15be 15       		.byte	0x15
 3358 15bf 68       		.byte	0x68
 3359 15c0 3A       		.uleb128 0x3a
 3360 15c1 9C000000 		.4byte	.LASF229
 3361 15c5 9C000000 		.4byte	.LASF229
 3362 15c9 15       		.byte	0x15
 3363 15ca 6A       		.byte	0x6a
 3364 15cb 3A       		.uleb128 0x3a
 3365 15cc 6F040000 		.4byte	.LASF230
 3366 15d0 6F040000 		.4byte	.LASF230
 3367 15d4 15       		.byte	0x15
 3368 15d5 66       		.byte	0x66
 3369 15d6 00       		.byte	0
 3370              		.section	.debug_abbrev,"",%progbits
 3371              	.Ldebug_abbrev0:
 3372 0000 01       		.uleb128 0x1
 3373 0001 11       		.uleb128 0x11
 3374 0002 01       		.byte	0x1
 3375 0003 25       		.uleb128 0x25
 3376 0004 0E       		.uleb128 0xe
 3377 0005 13       		.uleb128 0x13
 3378 0006 0B       		.uleb128 0xb
 3379 0007 03       		.uleb128 0x3
 3380 0008 0E       		.uleb128 0xe
 3381 0009 1B       		.uleb128 0x1b
 3382 000a 0E       		.uleb128 0xe
 3383 000b 55       		.uleb128 0x55
 3384 000c 17       		.uleb128 0x17
 3385 000d 11       		.uleb128 0x11
 3386 000e 01       		.uleb128 0x1
 3387 000f 10       		.uleb128 0x10
 3388 0010 17       		.uleb128 0x17
 3389 0011 00       		.byte	0
 3390 0012 00       		.byte	0
 3391 0013 02       		.uleb128 0x2
 3392 0014 24       		.uleb128 0x24
 3393 0015 00       		.byte	0
 3394 0016 0B       		.uleb128 0xb
 3395 0017 0B       		.uleb128 0xb
 3396 0018 3E       		.uleb128 0x3e
 3397 0019 0B       		.uleb128 0xb
 3398 001a 03       		.uleb128 0x3
 3399 001b 08       		.uleb128 0x8
 3400 001c 00       		.byte	0
 3401 001d 00       		.byte	0
ARM GAS  /tmp/ccI3AEmR.s 			page 61


 3402 001e 03       		.uleb128 0x3
 3403 001f 16       		.uleb128 0x16
 3404 0020 00       		.byte	0
 3405 0021 03       		.uleb128 0x3
 3406 0022 0E       		.uleb128 0xe
 3407 0023 3A       		.uleb128 0x3a
 3408 0024 0B       		.uleb128 0xb
 3409 0025 3B       		.uleb128 0x3b
 3410 0026 0B       		.uleb128 0xb
 3411 0027 49       		.uleb128 0x49
 3412 0028 13       		.uleb128 0x13
 3413 0029 00       		.byte	0
 3414 002a 00       		.byte	0
 3415 002b 04       		.uleb128 0x4
 3416 002c 24       		.uleb128 0x24
 3417 002d 00       		.byte	0
 3418 002e 0B       		.uleb128 0xb
 3419 002f 0B       		.uleb128 0xb
 3420 0030 3E       		.uleb128 0x3e
 3421 0031 0B       		.uleb128 0xb
 3422 0032 03       		.uleb128 0x3
 3423 0033 0E       		.uleb128 0xe
 3424 0034 00       		.byte	0
 3425 0035 00       		.byte	0
 3426 0036 05       		.uleb128 0x5
 3427 0037 35       		.uleb128 0x35
 3428 0038 00       		.byte	0
 3429 0039 49       		.uleb128 0x49
 3430 003a 13       		.uleb128 0x13
 3431 003b 00       		.byte	0
 3432 003c 00       		.byte	0
 3433 003d 06       		.uleb128 0x6
 3434 003e 13       		.uleb128 0x13
 3435 003f 01       		.byte	0x1
 3436 0040 03       		.uleb128 0x3
 3437 0041 0E       		.uleb128 0xe
 3438 0042 0B       		.uleb128 0xb
 3439 0043 0B       		.uleb128 0xb
 3440 0044 3A       		.uleb128 0x3a
 3441 0045 0B       		.uleb128 0xb
 3442 0046 3B       		.uleb128 0x3b
 3443 0047 0B       		.uleb128 0xb
 3444 0048 01       		.uleb128 0x1
 3445 0049 13       		.uleb128 0x13
 3446 004a 00       		.byte	0
 3447 004b 00       		.byte	0
 3448 004c 07       		.uleb128 0x7
 3449 004d 0D       		.uleb128 0xd
 3450 004e 00       		.byte	0
 3451 004f 03       		.uleb128 0x3
 3452 0050 0E       		.uleb128 0xe
 3453 0051 3A       		.uleb128 0x3a
 3454 0052 0B       		.uleb128 0xb
 3455 0053 3B       		.uleb128 0x3b
 3456 0054 0B       		.uleb128 0xb
 3457 0055 49       		.uleb128 0x49
 3458 0056 13       		.uleb128 0x13
ARM GAS  /tmp/ccI3AEmR.s 			page 62


 3459 0057 38       		.uleb128 0x38
 3460 0058 0B       		.uleb128 0xb
 3461 0059 00       		.byte	0
 3462 005a 00       		.byte	0
 3463 005b 08       		.uleb128 0x8
 3464 005c 0D       		.uleb128 0xd
 3465 005d 00       		.byte	0
 3466 005e 03       		.uleb128 0x3
 3467 005f 08       		.uleb128 0x8
 3468 0060 3A       		.uleb128 0x3a
 3469 0061 0B       		.uleb128 0xb
 3470 0062 3B       		.uleb128 0x3b
 3471 0063 05       		.uleb128 0x5
 3472 0064 49       		.uleb128 0x49
 3473 0065 13       		.uleb128 0x13
 3474 0066 38       		.uleb128 0x38
 3475 0067 0B       		.uleb128 0xb
 3476 0068 00       		.byte	0
 3477 0069 00       		.byte	0
 3478 006a 09       		.uleb128 0x9
 3479 006b 0D       		.uleb128 0xd
 3480 006c 00       		.byte	0
 3481 006d 03       		.uleb128 0x3
 3482 006e 0E       		.uleb128 0xe
 3483 006f 3A       		.uleb128 0x3a
 3484 0070 0B       		.uleb128 0xb
 3485 0071 3B       		.uleb128 0x3b
 3486 0072 05       		.uleb128 0x5
 3487 0073 49       		.uleb128 0x49
 3488 0074 13       		.uleb128 0x13
 3489 0075 38       		.uleb128 0x38
 3490 0076 0B       		.uleb128 0xb
 3491 0077 00       		.byte	0
 3492 0078 00       		.byte	0
 3493 0079 0A       		.uleb128 0xa
 3494 007a 0F       		.uleb128 0xf
 3495 007b 00       		.byte	0
 3496 007c 0B       		.uleb128 0xb
 3497 007d 0B       		.uleb128 0xb
 3498 007e 49       		.uleb128 0x49
 3499 007f 13       		.uleb128 0x13
 3500 0080 00       		.byte	0
 3501 0081 00       		.byte	0
 3502 0082 0B       		.uleb128 0xb
 3503 0083 13       		.uleb128 0x13
 3504 0084 01       		.byte	0x1
 3505 0085 03       		.uleb128 0x3
 3506 0086 0E       		.uleb128 0xe
 3507 0087 0B       		.uleb128 0xb
 3508 0088 0B       		.uleb128 0xb
 3509 0089 3A       		.uleb128 0x3a
 3510 008a 0B       		.uleb128 0xb
 3511 008b 3B       		.uleb128 0x3b
 3512 008c 05       		.uleb128 0x5
 3513 008d 01       		.uleb128 0x1
 3514 008e 13       		.uleb128 0x13
 3515 008f 00       		.byte	0
ARM GAS  /tmp/ccI3AEmR.s 			page 63


 3516 0090 00       		.byte	0
 3517 0091 0C       		.uleb128 0xc
 3518 0092 15       		.uleb128 0x15
 3519 0093 01       		.byte	0x1
 3520 0094 27       		.uleb128 0x27
 3521 0095 19       		.uleb128 0x19
 3522 0096 01       		.uleb128 0x1
 3523 0097 13       		.uleb128 0x13
 3524 0098 00       		.byte	0
 3525 0099 00       		.byte	0
 3526 009a 0D       		.uleb128 0xd
 3527 009b 05       		.uleb128 0x5
 3528 009c 00       		.byte	0
 3529 009d 49       		.uleb128 0x49
 3530 009e 13       		.uleb128 0x13
 3531 009f 00       		.byte	0
 3532 00a0 00       		.byte	0
 3533 00a1 0E       		.uleb128 0xe
 3534 00a2 0F       		.uleb128 0xf
 3535 00a3 00       		.byte	0
 3536 00a4 0B       		.uleb128 0xb
 3537 00a5 0B       		.uleb128 0xb
 3538 00a6 00       		.byte	0
 3539 00a7 00       		.byte	0
 3540 00a8 0F       		.uleb128 0xf
 3541 00a9 13       		.uleb128 0x13
 3542 00aa 01       		.byte	0x1
 3543 00ab 03       		.uleb128 0x3
 3544 00ac 0E       		.uleb128 0xe
 3545 00ad 0B       		.uleb128 0xb
 3546 00ae 05       		.uleb128 0x5
 3547 00af 3A       		.uleb128 0x3a
 3548 00b0 0B       		.uleb128 0xb
 3549 00b1 3B       		.uleb128 0x3b
 3550 00b2 05       		.uleb128 0x5
 3551 00b3 01       		.uleb128 0x1
 3552 00b4 13       		.uleb128 0x13
 3553 00b5 00       		.byte	0
 3554 00b6 00       		.byte	0
 3555 00b7 10       		.uleb128 0x10
 3556 00b8 0D       		.uleb128 0xd
 3557 00b9 00       		.byte	0
 3558 00ba 03       		.uleb128 0x3
 3559 00bb 0E       		.uleb128 0xe
 3560 00bc 3A       		.uleb128 0x3a
 3561 00bd 0B       		.uleb128 0xb
 3562 00be 3B       		.uleb128 0x3b
 3563 00bf 05       		.uleb128 0x5
 3564 00c0 49       		.uleb128 0x49
 3565 00c1 13       		.uleb128 0x13
 3566 00c2 38       		.uleb128 0x38
 3567 00c3 05       		.uleb128 0x5
 3568 00c4 00       		.byte	0
 3569 00c5 00       		.byte	0
 3570 00c6 11       		.uleb128 0x11
 3571 00c7 0D       		.uleb128 0xd
 3572 00c8 00       		.byte	0
ARM GAS  /tmp/ccI3AEmR.s 			page 64


 3573 00c9 03       		.uleb128 0x3
 3574 00ca 08       		.uleb128 0x8
 3575 00cb 3A       		.uleb128 0x3a
 3576 00cc 0B       		.uleb128 0xb
 3577 00cd 3B       		.uleb128 0x3b
 3578 00ce 05       		.uleb128 0x5
 3579 00cf 49       		.uleb128 0x49
 3580 00d0 13       		.uleb128 0x13
 3581 00d1 38       		.uleb128 0x38
 3582 00d2 05       		.uleb128 0x5
 3583 00d3 00       		.byte	0
 3584 00d4 00       		.byte	0
 3585 00d5 12       		.uleb128 0x12
 3586 00d6 13       		.uleb128 0x13
 3587 00d7 01       		.byte	0x1
 3588 00d8 0B       		.uleb128 0xb
 3589 00d9 0B       		.uleb128 0xb
 3590 00da 3A       		.uleb128 0x3a
 3591 00db 0B       		.uleb128 0xb
 3592 00dc 3B       		.uleb128 0x3b
 3593 00dd 05       		.uleb128 0x5
 3594 00de 01       		.uleb128 0x1
 3595 00df 13       		.uleb128 0x13
 3596 00e0 00       		.byte	0
 3597 00e1 00       		.byte	0
 3598 00e2 13       		.uleb128 0x13
 3599 00e3 16       		.uleb128 0x16
 3600 00e4 00       		.byte	0
 3601 00e5 03       		.uleb128 0x3
 3602 00e6 0E       		.uleb128 0xe
 3603 00e7 3A       		.uleb128 0x3a
 3604 00e8 0B       		.uleb128 0xb
 3605 00e9 3B       		.uleb128 0x3b
 3606 00ea 05       		.uleb128 0x5
 3607 00eb 49       		.uleb128 0x49
 3608 00ec 13       		.uleb128 0x13
 3609 00ed 00       		.byte	0
 3610 00ee 00       		.byte	0
 3611 00ef 14       		.uleb128 0x14
 3612 00f0 0D       		.uleb128 0xd
 3613 00f1 00       		.byte	0
 3614 00f2 03       		.uleb128 0x3
 3615 00f3 08       		.uleb128 0x8
 3616 00f4 3A       		.uleb128 0x3a
 3617 00f5 0B       		.uleb128 0xb
 3618 00f6 3B       		.uleb128 0x3b
 3619 00f7 0B       		.uleb128 0xb
 3620 00f8 49       		.uleb128 0x49
 3621 00f9 13       		.uleb128 0x13
 3622 00fa 38       		.uleb128 0x38
 3623 00fb 0B       		.uleb128 0xb
 3624 00fc 00       		.byte	0
 3625 00fd 00       		.byte	0
 3626 00fe 15       		.uleb128 0x15
 3627 00ff 13       		.uleb128 0x13
 3628 0100 01       		.byte	0x1
 3629 0101 0B       		.uleb128 0xb
ARM GAS  /tmp/ccI3AEmR.s 			page 65


 3630 0102 0B       		.uleb128 0xb
 3631 0103 3A       		.uleb128 0x3a
 3632 0104 0B       		.uleb128 0xb
 3633 0105 3B       		.uleb128 0x3b
 3634 0106 0B       		.uleb128 0xb
 3635 0107 01       		.uleb128 0x1
 3636 0108 13       		.uleb128 0x13
 3637 0109 00       		.byte	0
 3638 010a 00       		.byte	0
 3639 010b 16       		.uleb128 0x16
 3640 010c 13       		.uleb128 0x13
 3641 010d 01       		.byte	0x1
 3642 010e 0B       		.uleb128 0xb
 3643 010f 05       		.uleb128 0x5
 3644 0110 3A       		.uleb128 0x3a
 3645 0111 0B       		.uleb128 0xb
 3646 0112 3B       		.uleb128 0x3b
 3647 0113 0B       		.uleb128 0xb
 3648 0114 01       		.uleb128 0x1
 3649 0115 13       		.uleb128 0x13
 3650 0116 00       		.byte	0
 3651 0117 00       		.byte	0
 3652 0118 17       		.uleb128 0x17
 3653 0119 01       		.uleb128 0x1
 3654 011a 01       		.byte	0x1
 3655 011b 49       		.uleb128 0x49
 3656 011c 13       		.uleb128 0x13
 3657 011d 01       		.uleb128 0x1
 3658 011e 13       		.uleb128 0x13
 3659 011f 00       		.byte	0
 3660 0120 00       		.byte	0
 3661 0121 18       		.uleb128 0x18
 3662 0122 21       		.uleb128 0x21
 3663 0123 00       		.byte	0
 3664 0124 49       		.uleb128 0x49
 3665 0125 13       		.uleb128 0x13
 3666 0126 2F       		.uleb128 0x2f
 3667 0127 0B       		.uleb128 0xb
 3668 0128 00       		.byte	0
 3669 0129 00       		.byte	0
 3670 012a 19       		.uleb128 0x19
 3671 012b 17       		.uleb128 0x17
 3672 012c 01       		.byte	0x1
 3673 012d 0B       		.uleb128 0xb
 3674 012e 0B       		.uleb128 0xb
 3675 012f 3A       		.uleb128 0x3a
 3676 0130 0B       		.uleb128 0xb
 3677 0131 3B       		.uleb128 0x3b
 3678 0132 0B       		.uleb128 0xb
 3679 0133 01       		.uleb128 0x1
 3680 0134 13       		.uleb128 0x13
 3681 0135 00       		.byte	0
 3682 0136 00       		.byte	0
 3683 0137 1A       		.uleb128 0x1a
 3684 0138 0D       		.uleb128 0xd
 3685 0139 00       		.byte	0
 3686 013a 03       		.uleb128 0x3
ARM GAS  /tmp/ccI3AEmR.s 			page 66


 3687 013b 0E       		.uleb128 0xe
 3688 013c 3A       		.uleb128 0x3a
 3689 013d 0B       		.uleb128 0xb
 3690 013e 3B       		.uleb128 0x3b
 3691 013f 05       		.uleb128 0x5
 3692 0140 49       		.uleb128 0x49
 3693 0141 13       		.uleb128 0x13
 3694 0142 00       		.byte	0
 3695 0143 00       		.byte	0
 3696 0144 1B       		.uleb128 0x1b
 3697 0145 26       		.uleb128 0x26
 3698 0146 00       		.byte	0
 3699 0147 49       		.uleb128 0x49
 3700 0148 13       		.uleb128 0x13
 3701 0149 00       		.byte	0
 3702 014a 00       		.byte	0
 3703 014b 1C       		.uleb128 0x1c
 3704 014c 0D       		.uleb128 0xd
 3705 014d 00       		.byte	0
 3706 014e 03       		.uleb128 0x3
 3707 014f 08       		.uleb128 0x8
 3708 0150 3A       		.uleb128 0x3a
 3709 0151 0B       		.uleb128 0xb
 3710 0152 3B       		.uleb128 0x3b
 3711 0153 0B       		.uleb128 0xb
 3712 0154 49       		.uleb128 0x49
 3713 0155 13       		.uleb128 0x13
 3714 0156 00       		.byte	0
 3715 0157 00       		.byte	0
 3716 0158 1D       		.uleb128 0x1d
 3717 0159 04       		.uleb128 0x4
 3718 015a 01       		.byte	0x1
 3719 015b 0B       		.uleb128 0xb
 3720 015c 0B       		.uleb128 0xb
 3721 015d 49       		.uleb128 0x49
 3722 015e 13       		.uleb128 0x13
 3723 015f 3A       		.uleb128 0x3a
 3724 0160 0B       		.uleb128 0xb
 3725 0161 3B       		.uleb128 0x3b
 3726 0162 0B       		.uleb128 0xb
 3727 0163 01       		.uleb128 0x1
 3728 0164 13       		.uleb128 0x13
 3729 0165 00       		.byte	0
 3730 0166 00       		.byte	0
 3731 0167 1E       		.uleb128 0x1e
 3732 0168 28       		.uleb128 0x28
 3733 0169 00       		.byte	0
 3734 016a 03       		.uleb128 0x3
 3735 016b 0E       		.uleb128 0xe
 3736 016c 1C       		.uleb128 0x1c
 3737 016d 0B       		.uleb128 0xb
 3738 016e 00       		.byte	0
 3739 016f 00       		.byte	0
 3740 0170 1F       		.uleb128 0x1f
 3741 0171 2E       		.uleb128 0x2e
 3742 0172 01       		.byte	0x1
 3743 0173 03       		.uleb128 0x3
ARM GAS  /tmp/ccI3AEmR.s 			page 67


 3744 0174 0E       		.uleb128 0xe
 3745 0175 3A       		.uleb128 0x3a
 3746 0176 0B       		.uleb128 0xb
 3747 0177 3B       		.uleb128 0x3b
 3748 0178 05       		.uleb128 0x5
 3749 0179 27       		.uleb128 0x27
 3750 017a 19       		.uleb128 0x19
 3751 017b 20       		.uleb128 0x20
 3752 017c 0B       		.uleb128 0xb
 3753 017d 01       		.uleb128 0x1
 3754 017e 13       		.uleb128 0x13
 3755 017f 00       		.byte	0
 3756 0180 00       		.byte	0
 3757 0181 20       		.uleb128 0x20
 3758 0182 05       		.uleb128 0x5
 3759 0183 00       		.byte	0
 3760 0184 03       		.uleb128 0x3
 3761 0185 0E       		.uleb128 0xe
 3762 0186 3A       		.uleb128 0x3a
 3763 0187 0B       		.uleb128 0xb
 3764 0188 3B       		.uleb128 0x3b
 3765 0189 05       		.uleb128 0x5
 3766 018a 49       		.uleb128 0x49
 3767 018b 13       		.uleb128 0x13
 3768 018c 00       		.byte	0
 3769 018d 00       		.byte	0
 3770 018e 21       		.uleb128 0x21
 3771 018f 2E       		.uleb128 0x2e
 3772 0190 00       		.byte	0
 3773 0191 03       		.uleb128 0x3
 3774 0192 0E       		.uleb128 0xe
 3775 0193 3A       		.uleb128 0x3a
 3776 0194 0B       		.uleb128 0xb
 3777 0195 3B       		.uleb128 0x3b
 3778 0196 05       		.uleb128 0x5
 3779 0197 27       		.uleb128 0x27
 3780 0198 19       		.uleb128 0x19
 3781 0199 20       		.uleb128 0x20
 3782 019a 0B       		.uleb128 0xb
 3783 019b 00       		.byte	0
 3784 019c 00       		.byte	0
 3785 019d 22       		.uleb128 0x22
 3786 019e 2E       		.uleb128 0x2e
 3787 019f 01       		.byte	0x1
 3788 01a0 03       		.uleb128 0x3
 3789 01a1 0E       		.uleb128 0xe
 3790 01a2 3A       		.uleb128 0x3a
 3791 01a3 0B       		.uleb128 0xb
 3792 01a4 3B       		.uleb128 0x3b
 3793 01a5 05       		.uleb128 0x5
 3794 01a6 27       		.uleb128 0x27
 3795 01a7 19       		.uleb128 0x19
 3796 01a8 49       		.uleb128 0x49
 3797 01a9 13       		.uleb128 0x13
 3798 01aa 20       		.uleb128 0x20
 3799 01ab 0B       		.uleb128 0xb
 3800 01ac 01       		.uleb128 0x1
ARM GAS  /tmp/ccI3AEmR.s 			page 68


 3801 01ad 13       		.uleb128 0x13
 3802 01ae 00       		.byte	0
 3803 01af 00       		.byte	0
 3804 01b0 23       		.uleb128 0x23
 3805 01b1 05       		.uleb128 0x5
 3806 01b2 00       		.byte	0
 3807 01b3 03       		.uleb128 0x3
 3808 01b4 08       		.uleb128 0x8
 3809 01b5 3A       		.uleb128 0x3a
 3810 01b6 0B       		.uleb128 0xb
 3811 01b7 3B       		.uleb128 0x3b
 3812 01b8 05       		.uleb128 0x5
 3813 01b9 49       		.uleb128 0x49
 3814 01ba 13       		.uleb128 0x13
 3815 01bb 00       		.byte	0
 3816 01bc 00       		.byte	0
 3817 01bd 24       		.uleb128 0x24
 3818 01be 2E       		.uleb128 0x2e
 3819 01bf 01       		.byte	0x1
 3820 01c0 03       		.uleb128 0x3
 3821 01c1 0E       		.uleb128 0xe
 3822 01c2 3A       		.uleb128 0x3a
 3823 01c3 0B       		.uleb128 0xb
 3824 01c4 3B       		.uleb128 0x3b
 3825 01c5 0B       		.uleb128 0xb
 3826 01c6 27       		.uleb128 0x27
 3827 01c7 19       		.uleb128 0x19
 3828 01c8 11       		.uleb128 0x11
 3829 01c9 01       		.uleb128 0x1
 3830 01ca 12       		.uleb128 0x12
 3831 01cb 06       		.uleb128 0x6
 3832 01cc 40       		.uleb128 0x40
 3833 01cd 18       		.uleb128 0x18
 3834 01ce 9742     		.uleb128 0x2117
 3835 01d0 19       		.uleb128 0x19
 3836 01d1 01       		.uleb128 0x1
 3837 01d2 13       		.uleb128 0x13
 3838 01d3 00       		.byte	0
 3839 01d4 00       		.byte	0
 3840 01d5 25       		.uleb128 0x25
 3841 01d6 05       		.uleb128 0x5
 3842 01d7 00       		.byte	0
 3843 01d8 03       		.uleb128 0x3
 3844 01d9 08       		.uleb128 0x8
 3845 01da 3A       		.uleb128 0x3a
 3846 01db 0B       		.uleb128 0xb
 3847 01dc 3B       		.uleb128 0x3b
 3848 01dd 0B       		.uleb128 0xb
 3849 01de 49       		.uleb128 0x49
 3850 01df 13       		.uleb128 0x13
 3851 01e0 02       		.uleb128 0x2
 3852 01e1 18       		.uleb128 0x18
 3853 01e2 00       		.byte	0
 3854 01e3 00       		.byte	0
 3855 01e4 26       		.uleb128 0x26
 3856 01e5 05       		.uleb128 0x5
 3857 01e6 00       		.byte	0
ARM GAS  /tmp/ccI3AEmR.s 			page 69


 3858 01e7 03       		.uleb128 0x3
 3859 01e8 0E       		.uleb128 0xe
 3860 01e9 3A       		.uleb128 0x3a
 3861 01ea 0B       		.uleb128 0xb
 3862 01eb 3B       		.uleb128 0x3b
 3863 01ec 0B       		.uleb128 0xb
 3864 01ed 49       		.uleb128 0x49
 3865 01ee 13       		.uleb128 0x13
 3866 01ef 02       		.uleb128 0x2
 3867 01f0 18       		.uleb128 0x18
 3868 01f1 00       		.byte	0
 3869 01f2 00       		.byte	0
 3870 01f3 27       		.uleb128 0x27
 3871 01f4 05       		.uleb128 0x5
 3872 01f5 00       		.byte	0
 3873 01f6 03       		.uleb128 0x3
 3874 01f7 0E       		.uleb128 0xe
 3875 01f8 3A       		.uleb128 0x3a
 3876 01f9 0B       		.uleb128 0xb
 3877 01fa 3B       		.uleb128 0x3b
 3878 01fb 0B       		.uleb128 0xb
 3879 01fc 49       		.uleb128 0x49
 3880 01fd 13       		.uleb128 0x13
 3881 01fe 02       		.uleb128 0x2
 3882 01ff 17       		.uleb128 0x17
 3883 0200 00       		.byte	0
 3884 0201 00       		.byte	0
 3885 0202 28       		.uleb128 0x28
 3886 0203 05       		.uleb128 0x5
 3887 0204 00       		.byte	0
 3888 0205 03       		.uleb128 0x3
 3889 0206 08       		.uleb128 0x8
 3890 0207 3A       		.uleb128 0x3a
 3891 0208 0B       		.uleb128 0xb
 3892 0209 3B       		.uleb128 0x3b
 3893 020a 0B       		.uleb128 0xb
 3894 020b 49       		.uleb128 0x49
 3895 020c 13       		.uleb128 0x13
 3896 020d 02       		.uleb128 0x2
 3897 020e 17       		.uleb128 0x17
 3898 020f 00       		.byte	0
 3899 0210 00       		.byte	0
 3900 0211 29       		.uleb128 0x29
 3901 0212 1D       		.uleb128 0x1d
 3902 0213 01       		.byte	0x1
 3903 0214 31       		.uleb128 0x31
 3904 0215 13       		.uleb128 0x13
 3905 0216 52       		.uleb128 0x52
 3906 0217 01       		.uleb128 0x1
 3907 0218 55       		.uleb128 0x55
 3908 0219 17       		.uleb128 0x17
 3909 021a 58       		.uleb128 0x58
 3910 021b 0B       		.uleb128 0xb
 3911 021c 59       		.uleb128 0x59
 3912 021d 0B       		.uleb128 0xb
 3913 021e 01       		.uleb128 0x1
 3914 021f 13       		.uleb128 0x13
ARM GAS  /tmp/ccI3AEmR.s 			page 70


 3915 0220 00       		.byte	0
 3916 0221 00       		.byte	0
 3917 0222 2A       		.uleb128 0x2a
 3918 0223 1D       		.uleb128 0x1d
 3919 0224 01       		.byte	0x1
 3920 0225 31       		.uleb128 0x31
 3921 0226 13       		.uleb128 0x13
 3922 0227 11       		.uleb128 0x11
 3923 0228 01       		.uleb128 0x1
 3924 0229 12       		.uleb128 0x12
 3925 022a 06       		.uleb128 0x6
 3926 022b 58       		.uleb128 0x58
 3927 022c 0B       		.uleb128 0xb
 3928 022d 59       		.uleb128 0x59
 3929 022e 05       		.uleb128 0x5
 3930 022f 01       		.uleb128 0x1
 3931 0230 13       		.uleb128 0x13
 3932 0231 00       		.byte	0
 3933 0232 00       		.byte	0
 3934 0233 2B       		.uleb128 0x2b
 3935 0234 1D       		.uleb128 0x1d
 3936 0235 01       		.byte	0x1
 3937 0236 31       		.uleb128 0x31
 3938 0237 13       		.uleb128 0x13
 3939 0238 11       		.uleb128 0x11
 3940 0239 01       		.uleb128 0x1
 3941 023a 12       		.uleb128 0x12
 3942 023b 06       		.uleb128 0x6
 3943 023c 58       		.uleb128 0x58
 3944 023d 0B       		.uleb128 0xb
 3945 023e 59       		.uleb128 0x59
 3946 023f 05       		.uleb128 0x5
 3947 0240 00       		.byte	0
 3948 0241 00       		.byte	0
 3949 0242 2C       		.uleb128 0x2c
 3950 0243 05       		.uleb128 0x5
 3951 0244 00       		.byte	0
 3952 0245 31       		.uleb128 0x31
 3953 0246 13       		.uleb128 0x13
 3954 0247 02       		.uleb128 0x2
 3955 0248 17       		.uleb128 0x17
 3956 0249 00       		.byte	0
 3957 024a 00       		.byte	0
 3958 024b 2D       		.uleb128 0x2d
 3959 024c 898201   		.uleb128 0x4109
 3960 024f 00       		.byte	0
 3961 0250 11       		.uleb128 0x11
 3962 0251 01       		.uleb128 0x1
 3963 0252 31       		.uleb128 0x31
 3964 0253 13       		.uleb128 0x13
 3965 0254 00       		.byte	0
 3966 0255 00       		.byte	0
 3967 0256 2E       		.uleb128 0x2e
 3968 0257 1D       		.uleb128 0x1d
 3969 0258 01       		.byte	0x1
 3970 0259 31       		.uleb128 0x31
 3971 025a 13       		.uleb128 0x13
ARM GAS  /tmp/ccI3AEmR.s 			page 71


 3972 025b 52       		.uleb128 0x52
 3973 025c 01       		.uleb128 0x1
 3974 025d 55       		.uleb128 0x55
 3975 025e 17       		.uleb128 0x17
 3976 025f 58       		.uleb128 0x58
 3977 0260 0B       		.uleb128 0xb
 3978 0261 59       		.uleb128 0x59
 3979 0262 05       		.uleb128 0x5
 3980 0263 01       		.uleb128 0x1
 3981 0264 13       		.uleb128 0x13
 3982 0265 00       		.byte	0
 3983 0266 00       		.byte	0
 3984 0267 2F       		.uleb128 0x2f
 3985 0268 05       		.uleb128 0x5
 3986 0269 00       		.byte	0
 3987 026a 31       		.uleb128 0x31
 3988 026b 13       		.uleb128 0x13
 3989 026c 02       		.uleb128 0x2
 3990 026d 18       		.uleb128 0x18
 3991 026e 00       		.byte	0
 3992 026f 00       		.byte	0
 3993 0270 30       		.uleb128 0x30
 3994 0271 898201   		.uleb128 0x4109
 3995 0274 01       		.byte	0x1
 3996 0275 11       		.uleb128 0x11
 3997 0276 01       		.uleb128 0x1
 3998 0277 31       		.uleb128 0x31
 3999 0278 13       		.uleb128 0x13
 4000 0279 00       		.byte	0
 4001 027a 00       		.byte	0
 4002 027b 31       		.uleb128 0x31
 4003 027c 8A8201   		.uleb128 0x410a
 4004 027f 00       		.byte	0
 4005 0280 02       		.uleb128 0x2
 4006 0281 18       		.uleb128 0x18
 4007 0282 9142     		.uleb128 0x2111
 4008 0284 18       		.uleb128 0x18
 4009 0285 00       		.byte	0
 4010 0286 00       		.byte	0
 4011 0287 32       		.uleb128 0x32
 4012 0288 1D       		.uleb128 0x1d
 4013 0289 01       		.byte	0x1
 4014 028a 31       		.uleb128 0x31
 4015 028b 13       		.uleb128 0x13
 4016 028c 11       		.uleb128 0x11
 4017 028d 01       		.uleb128 0x1
 4018 028e 12       		.uleb128 0x12
 4019 028f 06       		.uleb128 0x6
 4020 0290 58       		.uleb128 0x58
 4021 0291 0B       		.uleb128 0xb
 4022 0292 59       		.uleb128 0x59
 4023 0293 0B       		.uleb128 0xb
 4024 0294 01       		.uleb128 0x1
 4025 0295 13       		.uleb128 0x13
 4026 0296 00       		.byte	0
 4027 0297 00       		.byte	0
 4028 0298 33       		.uleb128 0x33
ARM GAS  /tmp/ccI3AEmR.s 			page 72


 4029 0299 1D       		.uleb128 0x1d
 4030 029a 01       		.byte	0x1
 4031 029b 31       		.uleb128 0x31
 4032 029c 13       		.uleb128 0x13
 4033 029d 11       		.uleb128 0x11
 4034 029e 01       		.uleb128 0x1
 4035 029f 12       		.uleb128 0x12
 4036 02a0 06       		.uleb128 0x6
 4037 02a1 58       		.uleb128 0x58
 4038 02a2 0B       		.uleb128 0xb
 4039 02a3 59       		.uleb128 0x59
 4040 02a4 0B       		.uleb128 0xb
 4041 02a5 00       		.byte	0
 4042 02a6 00       		.byte	0
 4043 02a7 34       		.uleb128 0x34
 4044 02a8 2E       		.uleb128 0x2e
 4045 02a9 01       		.byte	0x1
 4046 02aa 3F       		.uleb128 0x3f
 4047 02ab 19       		.uleb128 0x19
 4048 02ac 03       		.uleb128 0x3
 4049 02ad 0E       		.uleb128 0xe
 4050 02ae 3A       		.uleb128 0x3a
 4051 02af 0B       		.uleb128 0xb
 4052 02b0 3B       		.uleb128 0x3b
 4053 02b1 0B       		.uleb128 0xb
 4054 02b2 27       		.uleb128 0x27
 4055 02b3 19       		.uleb128 0x19
 4056 02b4 49       		.uleb128 0x49
 4057 02b5 13       		.uleb128 0x13
 4058 02b6 8701     		.uleb128 0x87
 4059 02b8 19       		.uleb128 0x19
 4060 02b9 11       		.uleb128 0x11
 4061 02ba 01       		.uleb128 0x1
 4062 02bb 12       		.uleb128 0x12
 4063 02bc 06       		.uleb128 0x6
 4064 02bd 40       		.uleb128 0x40
 4065 02be 18       		.uleb128 0x18
 4066 02bf 9742     		.uleb128 0x2117
 4067 02c1 19       		.uleb128 0x19
 4068 02c2 01       		.uleb128 0x1
 4069 02c3 13       		.uleb128 0x13
 4070 02c4 00       		.byte	0
 4071 02c5 00       		.byte	0
 4072 02c6 35       		.uleb128 0x35
 4073 02c7 898201   		.uleb128 0x4109
 4074 02ca 01       		.byte	0x1
 4075 02cb 11       		.uleb128 0x11
 4076 02cc 01       		.uleb128 0x1
 4077 02cd 31       		.uleb128 0x31
 4078 02ce 13       		.uleb128 0x13
 4079 02cf 01       		.uleb128 0x1
 4080 02d0 13       		.uleb128 0x13
 4081 02d1 00       		.byte	0
 4082 02d2 00       		.byte	0
 4083 02d3 36       		.uleb128 0x36
 4084 02d4 34       		.uleb128 0x34
 4085 02d5 00       		.byte	0
ARM GAS  /tmp/ccI3AEmR.s 			page 73


 4086 02d6 03       		.uleb128 0x3
 4087 02d7 08       		.uleb128 0x8
 4088 02d8 3A       		.uleb128 0x3a
 4089 02d9 0B       		.uleb128 0xb
 4090 02da 3B       		.uleb128 0x3b
 4091 02db 0B       		.uleb128 0xb
 4092 02dc 49       		.uleb128 0x49
 4093 02dd 13       		.uleb128 0x13
 4094 02de 02       		.uleb128 0x2
 4095 02df 18       		.uleb128 0x18
 4096 02e0 00       		.byte	0
 4097 02e1 00       		.byte	0
 4098 02e2 37       		.uleb128 0x37
 4099 02e3 34       		.uleb128 0x34
 4100 02e4 00       		.byte	0
 4101 02e5 03       		.uleb128 0x3
 4102 02e6 0E       		.uleb128 0xe
 4103 02e7 3A       		.uleb128 0x3a
 4104 02e8 0B       		.uleb128 0xb
 4105 02e9 3B       		.uleb128 0x3b
 4106 02ea 0B       		.uleb128 0xb
 4107 02eb 49       		.uleb128 0x49
 4108 02ec 13       		.uleb128 0x13
 4109 02ed 02       		.uleb128 0x2
 4110 02ee 18       		.uleb128 0x18
 4111 02ef 00       		.byte	0
 4112 02f0 00       		.byte	0
 4113 02f1 38       		.uleb128 0x38
 4114 02f2 34       		.uleb128 0x34
 4115 02f3 00       		.byte	0
 4116 02f4 03       		.uleb128 0x3
 4117 02f5 0E       		.uleb128 0xe
 4118 02f6 3A       		.uleb128 0x3a
 4119 02f7 0B       		.uleb128 0xb
 4120 02f8 3B       		.uleb128 0x3b
 4121 02f9 05       		.uleb128 0x5
 4122 02fa 49       		.uleb128 0x49
 4123 02fb 13       		.uleb128 0x13
 4124 02fc 3F       		.uleb128 0x3f
 4125 02fd 19       		.uleb128 0x19
 4126 02fe 3C       		.uleb128 0x3c
 4127 02ff 19       		.uleb128 0x19
 4128 0300 00       		.byte	0
 4129 0301 00       		.byte	0
 4130 0302 39       		.uleb128 0x39
 4131 0303 34       		.uleb128 0x34
 4132 0304 00       		.byte	0
 4133 0305 03       		.uleb128 0x3
 4134 0306 08       		.uleb128 0x8
 4135 0307 3A       		.uleb128 0x3a
 4136 0308 0B       		.uleb128 0xb
 4137 0309 3B       		.uleb128 0x3b
 4138 030a 05       		.uleb128 0x5
 4139 030b 49       		.uleb128 0x49
 4140 030c 13       		.uleb128 0x13
 4141 030d 3F       		.uleb128 0x3f
 4142 030e 19       		.uleb128 0x19
ARM GAS  /tmp/ccI3AEmR.s 			page 74


 4143 030f 3C       		.uleb128 0x3c
 4144 0310 19       		.uleb128 0x19
 4145 0311 00       		.byte	0
 4146 0312 00       		.byte	0
 4147 0313 3A       		.uleb128 0x3a
 4148 0314 2E       		.uleb128 0x2e
 4149 0315 00       		.byte	0
 4150 0316 3F       		.uleb128 0x3f
 4151 0317 19       		.uleb128 0x19
 4152 0318 3C       		.uleb128 0x3c
 4153 0319 19       		.uleb128 0x19
 4154 031a 6E       		.uleb128 0x6e
 4155 031b 0E       		.uleb128 0xe
 4156 031c 03       		.uleb128 0x3
 4157 031d 0E       		.uleb128 0xe
 4158 031e 3A       		.uleb128 0x3a
 4159 031f 0B       		.uleb128 0xb
 4160 0320 3B       		.uleb128 0x3b
 4161 0321 0B       		.uleb128 0xb
 4162 0322 00       		.byte	0
 4163 0323 00       		.byte	0
 4164 0324 3B       		.uleb128 0x3b
 4165 0325 2E       		.uleb128 0x2e
 4166 0326 00       		.byte	0
 4167 0327 3F       		.uleb128 0x3f
 4168 0328 19       		.uleb128 0x19
 4169 0329 3C       		.uleb128 0x3c
 4170 032a 19       		.uleb128 0x19
 4171 032b 6E       		.uleb128 0x6e
 4172 032c 0E       		.uleb128 0xe
 4173 032d 03       		.uleb128 0x3
 4174 032e 0E       		.uleb128 0xe
 4175 032f 3A       		.uleb128 0x3a
 4176 0330 0B       		.uleb128 0xb
 4177 0331 3B       		.uleb128 0x3b
 4178 0332 05       		.uleb128 0x5
 4179 0333 00       		.byte	0
 4180 0334 00       		.byte	0
 4181 0335 00       		.byte	0
 4182              		.section	.debug_loc,"",%progbits
 4183              	.Ldebug_loc0:
 4184              	.LLST0:
 4185 0000 00000000 		.4byte	.LVL5
 4186 0004 15000000 		.4byte	.LVL8-1
 4187 0008 0100     		.2byte	0x1
 4188 000a 50       		.byte	0x50
 4189 000b 15000000 		.4byte	.LVL8-1
 4190 000f 60000000 		.4byte	.LFE264
 4191 0013 0400     		.2byte	0x4
 4192 0015 F3       		.byte	0xf3
 4193 0016 01       		.uleb128 0x1
 4194 0017 50       		.byte	0x50
 4195 0018 9F       		.byte	0x9f
 4196 0019 00000000 		.4byte	0
 4197 001d 00000000 		.4byte	0
 4198              	.LLST1:
 4199 0021 00000000 		.4byte	.LVL5
ARM GAS  /tmp/ccI3AEmR.s 			page 75


 4200 0025 15000000 		.4byte	.LVL8-1
 4201 0029 0100     		.2byte	0x1
 4202 002b 51       		.byte	0x51
 4203 002c 15000000 		.4byte	.LVL8-1
 4204 0030 60000000 		.4byte	.LFE264
 4205 0034 0400     		.2byte	0x4
 4206 0036 F3       		.byte	0xf3
 4207 0037 01       		.uleb128 0x1
 4208 0038 51       		.byte	0x51
 4209 0039 9F       		.byte	0x9f
 4210 003a 00000000 		.4byte	0
 4211 003e 00000000 		.4byte	0
 4212              	.LLST2:
 4213 0042 0A000000 		.4byte	.LVL6
 4214 0046 10000000 		.4byte	.LVL7
 4215 004a 0300     		.2byte	0x3
 4216 004c 08       		.byte	0x8
 4217 004d 20       		.byte	0x20
 4218 004e 9F       		.byte	0x9f
 4219 004f 00000000 		.4byte	0
 4220 0053 00000000 		.4byte	0
 4221              	.LLST3:
 4222 0057 1A000000 		.4byte	.LVL9
 4223 005b 28000000 		.4byte	.LVL11
 4224 005f 0600     		.2byte	0x6
 4225 0061 03       		.byte	0x3
 4226 0062 00000000 		.4byte	vt4
 4227 0066 9F       		.byte	0x9f
 4228 0067 00000000 		.4byte	0
 4229 006b 00000000 		.4byte	0
 4230              	.LLST4:
 4231 006f 28000000 		.4byte	.LVL11
 4232 0073 44000000 		.4byte	.LVL14
 4233 0077 0400     		.2byte	0x4
 4234 0079 0A       		.byte	0xa
 4235 007a D007     		.2byte	0x7d0
 4236 007c 9F       		.byte	0x9f
 4237 007d 00000000 		.4byte	0
 4238 0081 00000000 		.4byte	0
 4239              	.LLST5:
 4240 0085 28000000 		.4byte	.LVL11
 4241 0089 44000000 		.4byte	.LVL14
 4242 008d 0200     		.2byte	0x2
 4243 008f 30       		.byte	0x30
 4244 0090 9F       		.byte	0x9f
 4245 0091 00000000 		.4byte	0
 4246 0095 00000000 		.4byte	0
 4247              	.LLST6:
 4248 0099 28000000 		.4byte	.LVL11
 4249 009d 44000000 		.4byte	.LVL14
 4250 00a1 0600     		.2byte	0x6
 4251 00a3 03       		.byte	0x3
 4252 00a4 00000000 		.4byte	led4off
 4253 00a8 9F       		.byte	0x9f
 4254 00a9 00000000 		.4byte	0
 4255 00ad 00000000 		.4byte	0
 4256              	.LLST7:
ARM GAS  /tmp/ccI3AEmR.s 			page 76


 4257 00b1 28000000 		.4byte	.LVL11
 4258 00b5 44000000 		.4byte	.LVL14
 4259 00b9 0600     		.2byte	0x6
 4260 00bb 03       		.byte	0x3
 4261 00bc 00000000 		.4byte	vt4
 4262 00c0 9F       		.byte	0x9f
 4263 00c1 00000000 		.4byte	0
 4264 00c5 00000000 		.4byte	0
 4265              	.LLST8:
 4266 00c9 28000000 		.4byte	.LVL11
 4267 00cd 36000000 		.4byte	.LVL13
 4268 00d1 0600     		.2byte	0x6
 4269 00d3 03       		.byte	0x3
 4270 00d4 00000000 		.4byte	vt4
 4271 00d8 9F       		.byte	0x9f
 4272 00d9 00000000 		.4byte	0
 4273 00dd 00000000 		.4byte	0
 4274              	.LLST9:
 4275 00e1 4C000000 		.4byte	.LVL16
 4276 00e5 52000000 		.4byte	.LVL17
 4277 00e9 0200     		.2byte	0x2
 4278 00eb 30       		.byte	0x30
 4279 00ec 9F       		.byte	0x9f
 4280 00ed 00000000 		.4byte	0
 4281 00f1 00000000 		.4byte	0
 4282              	.LLST10:
 4283 00f5 00000000 		.4byte	.LVL18
 4284 00f9 15000000 		.4byte	.LVL21-1
 4285 00fd 0100     		.2byte	0x1
 4286 00ff 50       		.byte	0x50
 4287 0100 15000000 		.4byte	.LVL21-1
 4288 0104 60000000 		.4byte	.LFE265
 4289 0108 0400     		.2byte	0x4
 4290 010a F3       		.byte	0xf3
 4291 010b 01       		.uleb128 0x1
 4292 010c 50       		.byte	0x50
 4293 010d 9F       		.byte	0x9f
 4294 010e 00000000 		.4byte	0
 4295 0112 00000000 		.4byte	0
 4296              	.LLST11:
 4297 0116 0A000000 		.4byte	.LVL19
 4298 011a 10000000 		.4byte	.LVL20
 4299 011e 0300     		.2byte	0x3
 4300 0120 08       		.byte	0x8
 4301 0121 20       		.byte	0x20
 4302 0122 9F       		.byte	0x9f
 4303 0123 00000000 		.4byte	0
 4304 0127 00000000 		.4byte	0
 4305              	.LLST12:
 4306 012b 1A000000 		.4byte	.LVL22
 4307 012f 28000000 		.4byte	.LVL24
 4308 0133 0600     		.2byte	0x6
 4309 0135 03       		.byte	0x3
 4310 0136 00000000 		.4byte	vt3
 4311 013a 9F       		.byte	0x9f
 4312 013b 00000000 		.4byte	0
 4313 013f 00000000 		.4byte	0
ARM GAS  /tmp/ccI3AEmR.s 			page 77


 4314              	.LLST13:
 4315 0143 28000000 		.4byte	.LVL24
 4316 0147 44000000 		.4byte	.LVL27
 4317 014b 0400     		.2byte	0x4
 4318 014d 0A       		.byte	0xa
 4319 014e D007     		.2byte	0x7d0
 4320 0150 9F       		.byte	0x9f
 4321 0151 00000000 		.4byte	0
 4322 0155 00000000 		.4byte	0
 4323              	.LLST14:
 4324 0159 28000000 		.4byte	.LVL24
 4325 015d 44000000 		.4byte	.LVL27
 4326 0161 0200     		.2byte	0x2
 4327 0163 30       		.byte	0x30
 4328 0164 9F       		.byte	0x9f
 4329 0165 00000000 		.4byte	0
 4330 0169 00000000 		.4byte	0
 4331              	.LLST15:
 4332 016d 28000000 		.4byte	.LVL24
 4333 0171 44000000 		.4byte	.LVL27
 4334 0175 0600     		.2byte	0x6
 4335 0177 03       		.byte	0x3
 4336 0178 00000000 		.4byte	led3off
 4337 017c 9F       		.byte	0x9f
 4338 017d 00000000 		.4byte	0
 4339 0181 00000000 		.4byte	0
 4340              	.LLST16:
 4341 0185 28000000 		.4byte	.LVL24
 4342 0189 44000000 		.4byte	.LVL27
 4343 018d 0600     		.2byte	0x6
 4344 018f 03       		.byte	0x3
 4345 0190 00000000 		.4byte	vt3
 4346 0194 9F       		.byte	0x9f
 4347 0195 00000000 		.4byte	0
 4348 0199 00000000 		.4byte	0
 4349              	.LLST17:
 4350 019d 28000000 		.4byte	.LVL24
 4351 01a1 36000000 		.4byte	.LVL26
 4352 01a5 0600     		.2byte	0x6
 4353 01a7 03       		.byte	0x3
 4354 01a8 00000000 		.4byte	vt3
 4355 01ac 9F       		.byte	0x9f
 4356 01ad 00000000 		.4byte	0
 4357 01b1 00000000 		.4byte	0
 4358              	.LLST18:
 4359 01b5 4C000000 		.4byte	.LVL29
 4360 01b9 52000000 		.4byte	.LVL30
 4361 01bd 0200     		.2byte	0x2
 4362 01bf 30       		.byte	0x30
 4363 01c0 9F       		.byte	0x9f
 4364 01c1 00000000 		.4byte	0
 4365 01c5 00000000 		.4byte	0
 4366              	.LLST19:
 4367 01c9 00000000 		.4byte	.LVL31
 4368 01cd 15000000 		.4byte	.LVL34-1
 4369 01d1 0100     		.2byte	0x1
 4370 01d3 50       		.byte	0x50
ARM GAS  /tmp/ccI3AEmR.s 			page 78


 4371 01d4 15000000 		.4byte	.LVL34-1
 4372 01d8 60000000 		.4byte	.LFE262
 4373 01dc 0400     		.2byte	0x4
 4374 01de F3       		.byte	0xf3
 4375 01df 01       		.uleb128 0x1
 4376 01e0 50       		.byte	0x50
 4377 01e1 9F       		.byte	0x9f
 4378 01e2 00000000 		.4byte	0
 4379 01e6 00000000 		.4byte	0
 4380              	.LLST20:
 4381 01ea 0A000000 		.4byte	.LVL32
 4382 01ee 10000000 		.4byte	.LVL33
 4383 01f2 0300     		.2byte	0x3
 4384 01f4 08       		.byte	0x8
 4385 01f5 20       		.byte	0x20
 4386 01f6 9F       		.byte	0x9f
 4387 01f7 00000000 		.4byte	0
 4388 01fb 00000000 		.4byte	0
 4389              	.LLST21:
 4390 01ff 1A000000 		.4byte	.LVL35
 4391 0203 28000000 		.4byte	.LVL37
 4392 0207 0600     		.2byte	0x6
 4393 0209 03       		.byte	0x3
 4394 020a 00000000 		.4byte	vt5
 4395 020e 9F       		.byte	0x9f
 4396 020f 00000000 		.4byte	0
 4397 0213 00000000 		.4byte	0
 4398              	.LLST22:
 4399 0217 28000000 		.4byte	.LVL37
 4400 021b 44000000 		.4byte	.LVL40
 4401 021f 0400     		.2byte	0x4
 4402 0221 0A       		.byte	0xa
 4403 0222 D007     		.2byte	0x7d0
 4404 0224 9F       		.byte	0x9f
 4405 0225 00000000 		.4byte	0
 4406 0229 00000000 		.4byte	0
 4407              	.LLST23:
 4408 022d 28000000 		.4byte	.LVL37
 4409 0231 44000000 		.4byte	.LVL40
 4410 0235 0200     		.2byte	0x2
 4411 0237 30       		.byte	0x30
 4412 0238 9F       		.byte	0x9f
 4413 0239 00000000 		.4byte	0
 4414 023d 00000000 		.4byte	0
 4415              	.LLST24:
 4416 0241 28000000 		.4byte	.LVL37
 4417 0245 44000000 		.4byte	.LVL40
 4418 0249 0600     		.2byte	0x6
 4419 024b 03       		.byte	0x3
 4420 024c 00000000 		.4byte	led5off
 4421 0250 9F       		.byte	0x9f
 4422 0251 00000000 		.4byte	0
 4423 0255 00000000 		.4byte	0
 4424              	.LLST25:
 4425 0259 28000000 		.4byte	.LVL37
 4426 025d 44000000 		.4byte	.LVL40
 4427 0261 0600     		.2byte	0x6
ARM GAS  /tmp/ccI3AEmR.s 			page 79


 4428 0263 03       		.byte	0x3
 4429 0264 00000000 		.4byte	vt5
 4430 0268 9F       		.byte	0x9f
 4431 0269 00000000 		.4byte	0
 4432 026d 00000000 		.4byte	0
 4433              	.LLST26:
 4434 0271 28000000 		.4byte	.LVL37
 4435 0275 36000000 		.4byte	.LVL39
 4436 0279 0600     		.2byte	0x6
 4437 027b 03       		.byte	0x3
 4438 027c 00000000 		.4byte	vt5
 4439 0280 9F       		.byte	0x9f
 4440 0281 00000000 		.4byte	0
 4441 0285 00000000 		.4byte	0
 4442              	.LLST27:
 4443 0289 4C000000 		.4byte	.LVL42
 4444 028d 52000000 		.4byte	.LVL43
 4445 0291 0200     		.2byte	0x2
 4446 0293 30       		.byte	0x30
 4447 0294 9F       		.byte	0x9f
 4448 0295 00000000 		.4byte	0
 4449 0299 00000000 		.4byte	0
 4450              		.section	.debug_aranges,"",%progbits
 4451 0000 5C000000 		.4byte	0x5c
 4452 0004 0200     		.2byte	0x2
 4453 0006 00000000 		.4byte	.Ldebug_info0
 4454 000a 04       		.byte	0x4
 4455 000b 00       		.byte	0
 4456 000c 0000     		.2byte	0
 4457 000e 0000     		.2byte	0
 4458 0010 00000000 		.4byte	.LFB258
 4459 0014 10000000 		.4byte	.LFE258-.LFB258
 4460 0018 00000000 		.4byte	.LFB259
 4461 001c 10000000 		.4byte	.LFE259-.LFB259
 4462 0020 00000000 		.4byte	.LFB260
 4463 0024 10000000 		.4byte	.LFE260-.LFB260
 4464 0028 00000000 		.4byte	.LFB261
 4465 002c 02000000 		.4byte	.LFE261-.LFB261
 4466 0030 00000000 		.4byte	.LFB263
 4467 0034 02000000 		.4byte	.LFE263-.LFB263
 4468 0038 00000000 		.4byte	.LFB264
 4469 003c 60000000 		.4byte	.LFE264-.LFB264
 4470 0040 00000000 		.4byte	.LFB265
 4471 0044 60000000 		.4byte	.LFE265-.LFB265
 4472 0048 00000000 		.4byte	.LFB262
 4473 004c 60000000 		.4byte	.LFE262-.LFB262
 4474 0050 00000000 		.4byte	.LFB266
 4475 0054 74000000 		.4byte	.LFE266-.LFB266
 4476 0058 00000000 		.4byte	0
 4477 005c 00000000 		.4byte	0
 4478              		.section	.debug_ranges,"",%progbits
 4479              	.Ldebug_ranges0:
 4480 0000 0A000000 		.4byte	.LBB104
 4481 0004 10000000 		.4byte	.LBE104
 4482 0008 12000000 		.4byte	.LBB118
 4483 000c 1A000000 		.4byte	.LBE118
 4484 0010 00000000 		.4byte	0
ARM GAS  /tmp/ccI3AEmR.s 			page 80


 4485 0014 00000000 		.4byte	0
 4486 0018 10000000 		.4byte	.LBB111
 4487 001c 12000000 		.4byte	.LBE111
 4488 0020 1A000000 		.4byte	.LBB119
 4489 0024 28000000 		.4byte	.LBE119
 4490 0028 00000000 		.4byte	0
 4491 002c 00000000 		.4byte	0
 4492 0030 10000000 		.4byte	.LBB113
 4493 0034 12000000 		.4byte	.LBE113
 4494 0038 1A000000 		.4byte	.LBB116
 4495 003c 1E000000 		.4byte	.LBE116
 4496 0040 00000000 		.4byte	0
 4497 0044 00000000 		.4byte	0
 4498 0048 0A000000 		.4byte	.LBB154
 4499 004c 10000000 		.4byte	.LBE154
 4500 0050 12000000 		.4byte	.LBB168
 4501 0054 1A000000 		.4byte	.LBE168
 4502 0058 00000000 		.4byte	0
 4503 005c 00000000 		.4byte	0
 4504 0060 10000000 		.4byte	.LBB161
 4505 0064 12000000 		.4byte	.LBE161
 4506 0068 1A000000 		.4byte	.LBB169
 4507 006c 28000000 		.4byte	.LBE169
 4508 0070 00000000 		.4byte	0
 4509 0074 00000000 		.4byte	0
 4510 0078 10000000 		.4byte	.LBB163
 4511 007c 12000000 		.4byte	.LBE163
 4512 0080 1A000000 		.4byte	.LBB166
 4513 0084 1E000000 		.4byte	.LBE166
 4514 0088 00000000 		.4byte	0
 4515 008c 00000000 		.4byte	0
 4516 0090 0A000000 		.4byte	.LBB204
 4517 0094 10000000 		.4byte	.LBE204
 4518 0098 12000000 		.4byte	.LBB218
 4519 009c 1A000000 		.4byte	.LBE218
 4520 00a0 00000000 		.4byte	0
 4521 00a4 00000000 		.4byte	0
 4522 00a8 10000000 		.4byte	.LBB211
 4523 00ac 12000000 		.4byte	.LBE211
 4524 00b0 1A000000 		.4byte	.LBB219
 4525 00b4 28000000 		.4byte	.LBE219
 4526 00b8 00000000 		.4byte	0
 4527 00bc 00000000 		.4byte	0
 4528 00c0 10000000 		.4byte	.LBB213
 4529 00c4 12000000 		.4byte	.LBE213
 4530 00c8 1A000000 		.4byte	.LBB216
 4531 00cc 1E000000 		.4byte	.LBE216
 4532 00d0 00000000 		.4byte	0
 4533 00d4 00000000 		.4byte	0
 4534 00d8 00000000 		.4byte	.LFB258
 4535 00dc 10000000 		.4byte	.LFE258
 4536 00e0 00000000 		.4byte	.LFB259
 4537 00e4 10000000 		.4byte	.LFE259
 4538 00e8 00000000 		.4byte	.LFB260
 4539 00ec 10000000 		.4byte	.LFE260
 4540 00f0 00000000 		.4byte	.LFB261
 4541 00f4 02000000 		.4byte	.LFE261
ARM GAS  /tmp/ccI3AEmR.s 			page 81


 4542 00f8 00000000 		.4byte	.LFB263
 4543 00fc 02000000 		.4byte	.LFE263
 4544 0100 00000000 		.4byte	.LFB264
 4545 0104 60000000 		.4byte	.LFE264
 4546 0108 00000000 		.4byte	.LFB265
 4547 010c 60000000 		.4byte	.LFE265
 4548 0110 00000000 		.4byte	.LFB262
 4549 0114 60000000 		.4byte	.LFE262
 4550 0118 00000000 		.4byte	.LFB266
 4551 011c 74000000 		.4byte	.LFE266
 4552 0120 00000000 		.4byte	0
 4553 0124 00000000 		.4byte	0
 4554              		.section	.debug_line,"",%progbits
 4555              	.Ldebug_line0:
 4556 0000 D4040000 		.section	.debug_str,"MS",%progbits,1
 4556      02009103 
 4556      00000201 
 4556      FB0E0D00 
 4556      01010101 
 4557              	.LASF93:
 4558 0000 4D314152 		.ascii	"M1AR\000"
 4558      00
 4559              	.LASF51:
 4560 0005 705F7374 		.ascii	"p_stats\000"
 4560      61747300 
 4561              	.LASF143:
 4562 000d 73746D33 		.ascii	"stm32_dma_stream_t\000"
 4562      325F646D 
 4562      615F7374 
 4562      7265616D 
 4562      5F7400
 4563              	.LASF4:
 4564 0020 73697A65 		.ascii	"size_t\000"
 4564      5F7400
 4565              	.LASF90:
 4566 0027 73697A65 		.ascii	"sizetype\000"
 4566      74797065 
 4566      00
 4567              	.LASF126:
 4568 0030 77747365 		.ascii	"wtsemp\000"
 4568      6D7000
 4569              	.LASF31:
 4570 0037 73797374 		.ascii	"systime_t\000"
 4570      696D655F 
 4570      7400
 4571              	.LASF157:
 4572 0041 55415254 		.ascii	"UART_STOP\000"
 4572      5F53544F 
 4572      5000
 4573              	.LASF36:
 4574 004b 705F6374 		.ascii	"p_ctx\000"
 4574      7800
 4575              	.LASF26:
 4576 0051 74707269 		.ascii	"tprio_t\000"
 4576      6F5F7400 
 4577              	.LASF45:
 4578 0059 705F6D73 		.ascii	"p_msgqueue\000"
ARM GAS  /tmp/ccI3AEmR.s 			page 82


 4578      67717565 
 4578      756500
 4579              	.LASF62:
 4580 0064 725F6374 		.ascii	"r_ctx\000"
 4580      7800
 4581              	.LASF18:
 4582 006a 696E7433 		.ascii	"int32_t\000"
 4582      325F7400 
 4583              	.LASF224:
 4584 0072 75617274 		.ascii	"uartStart\000"
 4584      53746172 
 4584      7400
 4585              	.LASF66:
 4586 007c 76746675 		.ascii	"vtfunc_t\000"
 4586      6E635F74 
 4586      00
 4587              	.LASF75:
 4588 0085 63685F76 		.ascii	"ch_virtual_timers_list\000"
 4588      69727475 
 4588      616C5F74 
 4588      696D6572 
 4588      735F6C69 
 4589              	.LASF229:
 4590 009c 75617274 		.ascii	"uartStartReceive\000"
 4590      53746172 
 4590      74526563 
 4590      65697665 
 4590      00
 4591              	.LASF173:
 4592 00ad 636F6E66 		.ascii	"config\000"
 4592      696700
 4593              	.LASF170:
 4594 00b4 73746174 		.ascii	"state\000"
 4594      6500
 4595              	.LASF233:
 4596 00ba 2F686F6D 		.ascii	"/home/selim/working/test/UART\000"
 4596      652F7365 
 4596      6C696D2F 
 4596      776F726B 
 4596      696E672F 
 4597              	.LASF81:
 4598 00d8 6C6F636B 		.ascii	"lock_cnt\000"
 4598      5F636E74 
 4598      00
 4599              	.LASF172:
 4600 00e1 72787374 		.ascii	"rxstate\000"
 4600      61746500 
 4601              	.LASF200:
 4602 00e9 76746675 		.ascii	"vtfunc\000"
 4602      6E6300
 4603              	.LASF218:
 4604 00f0 63685654 		.ascii	"chVTDoResetI\000"
 4604      446F5265 
 4604      73657449 
 4604      00
 4605              	.LASF102:
 4606 00fd 73655F74 		.ascii	"se_tp\000"
ARM GAS  /tmp/ccI3AEmR.s 			page 83


 4606      7000
 4607              	.LASF116:
 4608 0103 74696D65 		.ascii	"time_measurement_t\000"
 4608      5F6D6561 
 4608      73757265 
 4608      6D656E74 
 4608      5F7400
 4609              	.LASF199:
 4610 0116 64656C61 		.ascii	"delay\000"
 4610      7900
 4611              	.LASF184:
 4612 011c 7278656E 		.ascii	"rxend_cb\000"
 4612      645F6362 
 4612      00
 4613              	.LASF225:
 4614 0125 5F70616C 		.ascii	"_pal_lld_setgroupmode\000"
 4614      5F6C6C64 
 4614      5F736574 
 4614      67726F75 
 4614      706D6F64 
 4615              	.LASF134:
 4616 013b 6D5F6F77 		.ascii	"m_owner\000"
 4616      6E657200 
 4617              	.LASF73:
 4618 0143 76745F70 		.ascii	"vt_par\000"
 4618      617200
 4619              	.LASF207:
 4620 014a 72786368 		.ascii	"rxchar\000"
 4620      617200
 4621              	.LASF123:
 4622 0151 65786974 		.ascii	"exitcode\000"
 4622      636F6465 
 4622      00
 4623              	.LASF5:
 4624 015a 5F5F7569 		.ascii	"__uint8_t\000"
 4624      6E74385F 
 4624      7400
 4625              	.LASF149:
 4626 0164 50555044 		.ascii	"PUPDR\000"
 4626      5200
 4627              	.LASF161:
 4628 016a 55415254 		.ascii	"UART_TX_ACTIVE\000"
 4628      5F54585F 
 4628      41435449 
 4628      564500
 4629              	.LASF37:
 4630 0179 705F6E65 		.ascii	"p_newer\000"
 4630      77657200 
 4631              	.LASF169:
 4632 0181 55415254 		.ascii	"UARTDriver\000"
 4632      44726976 
 4632      657200
 4633              	.LASF11:
 4634 018c 6C6F6E67 		.ascii	"long int\000"
 4634      20696E74 
 4634      00
 4635              	.LASF33:
ARM GAS  /tmp/ccI3AEmR.s 			page 84


 4636 0195 705F6E65 		.ascii	"p_next\000"
 4636      787400
 4637              	.LASF190:
 4638 019c 706F7274 		.ascii	"port_unlock\000"
 4638      5F756E6C 
 4638      6F636B00 
 4639              	.LASF34:
 4640 01a8 705F7072 		.ascii	"p_prev\000"
 4640      657600
 4641              	.LASF197:
 4642 01af 63685379 		.ascii	"chSysLockFromISR\000"
 4642      734C6F63 
 4642      6B46726F 
 4642      6D495352 
 4642      00
 4643              	.LASF24:
 4644 01c0 74737461 		.ascii	"tstate_t\000"
 4644      74655F74 
 4644      00
 4645              	.LASF22:
 4646 01c9 72747469 		.ascii	"rttime_t\000"
 4646      6D655F74 
 4646      00
 4647              	.LASF235:
 4648 01d2 6D61696E 		.ascii	"main\000"
 4648      00
 4649              	.LASF56:
 4650 01d7 74687265 		.ascii	"threads_queue_t\000"
 4650      6164735F 
 4650      71756575 
 4650      655F7400 
 4651              	.LASF48:
 4652 01e7 705F6D74 		.ascii	"p_mtxlist\000"
 4652      786C6973 
 4652      7400
 4653              	.LASF97:
 4654 01f1 72656761 		.ascii	"regarm_t\000"
 4654      726D5F74 
 4654      00
 4655              	.LASF202:
 4656 01fa 6C656434 		.ascii	"led4off\000"
 4656      6F666600 
 4657              	.LASF171:
 4658 0202 74787374 		.ascii	"txstate\000"
 4658      61746500 
 4659              	.LASF219:
 4660 020a 63685654 		.ascii	"chVTDoSetI\000"
 4660      446F5365 
 4660      744900
 4661              	.LASF163:
 4662 0215 75617274 		.ascii	"uarttxstate_t\000"
 4662      74787374 
 4662      6174655F 
 4662      7400
 4663              	.LASF174:
 4664 0223 75736172 		.ascii	"usart\000"
 4664      7400
ARM GAS  /tmp/ccI3AEmR.s 			page 85


 4665              	.LASF115:
 4666 0229 63756D75 		.ascii	"cumulative\000"
 4666      6C617469 
 4666      766500
 4667              	.LASF3:
 4668 0234 7369676E 		.ascii	"signed char\000"
 4668      65642063 
 4668      68617200 
 4669              	.LASF128:
 4670 0240 65776D61 		.ascii	"ewmask\000"
 4670      736B00
 4671              	.LASF16:
 4672 0247 75696E74 		.ascii	"uint8_t\000"
 4672      385F7400 
 4673              	.LASF28:
 4674 024f 6576656E 		.ascii	"eventmask_t\000"
 4674      746D6173 
 4674      6B5F7400 
 4675              	.LASF99:
 4676 025b 636F6E74 		.ascii	"context\000"
 4676      65787400 
 4677              	.LASF125:
 4678 0263 77747472 		.ascii	"wttrp\000"
 4678      7000
 4679              	.LASF196:
 4680 0269 63685379 		.ascii	"chSysUnlockFromISR\000"
 4680      73556E6C 
 4680      6F636B46 
 4680      726F6D49 
 4680      535200
 4681              	.LASF6:
 4682 027c 756E7369 		.ascii	"unsigned char\000"
 4682      676E6564 
 4682      20636861 
 4682      7200
 4683              	.LASF154:
 4684 028a 73746D33 		.ascii	"stm32_gpio_t\000"
 4684      325F6770 
 4684      696F5F74 
 4684      00
 4685              	.LASF79:
 4686 0297 70616E69 		.ascii	"panic_msg\000"
 4686      635F6D73 
 4686      6700
 4687              	.LASF82:
 4688 02a1 74726163 		.ascii	"trace_buffer\000"
 4688      655F6275 
 4688      66666572 
 4688      00
 4689              	.LASF63:
 4690 02ae 725F6E65 		.ascii	"r_newer\000"
 4690      77657200 
 4691              	.LASF77:
 4692 02b6 73797374 		.ascii	"system_debug_t\000"
 4692      656D5F64 
 4692      65627567 
 4692      5F7400
ARM GAS  /tmp/ccI3AEmR.s 			page 86


 4693              	.LASF144:
 4694 02c5 5F426F6F 		.ascii	"_Bool\000"
 4694      6C00
 4695              	.LASF217:
 4696 02cb 63684462 		.ascii	"chDbgCheckClassI\000"
 4696      67436865 
 4696      636B436C 
 4696      61737349 
 4696      00
 4697              	.LASF192:
 4698 02dc 76616C75 		.ascii	"value\000"
 4698      6500
 4699              	.LASF136:
 4700 02e2 63686172 		.ascii	"char\000"
 4700      00
 4701              	.LASF227:
 4702 02e7 75617274 		.ascii	"uartStopReceive\000"
 4702      53746F70 
 4702      52656365 
 4702      69766500 
 4703              	.LASF140:
 4704 02f7 69736869 		.ascii	"ishift\000"
 4704      667400
 4705              	.LASF35:
 4706 02fe 705F7072 		.ascii	"p_prio\000"
 4706      696F00
 4707              	.LASF8:
 4708 0305 5F5F7569 		.ascii	"__uint16_t\000"
 4708      6E743136 
 4708      5F7400
 4709              	.LASF124:
 4710 0310 77746F62 		.ascii	"wtobjp\000"
 4710      6A7000
 4711              	.LASF118:
 4712 0317 6E5F6374 		.ascii	"n_ctxswc\000"
 4712      78737763 
 4712      00
 4713              	.LASF98:
 4714 0320 73746B61 		.ascii	"stkalign_t\000"
 4714      6C69676E 
 4714      5F7400
 4715              	.LASF96:
 4716 032b 55534152 		.ascii	"USART_TypeDef\000"
 4716      545F5479 
 4716      70654465 
 4716      6600
 4717              	.LASF138:
 4718 0339 73747265 		.ascii	"stream\000"
 4718      616D00
 4719              	.LASF113:
 4720 0340 776F7273 		.ascii	"worst\000"
 4720      7400
 4721              	.LASF155:
 4722 0346 696F706F 		.ascii	"ioportmask_t\000"
 4722      72746D61 
 4722      736B5F74 
 4722      00
ARM GAS  /tmp/ccI3AEmR.s 			page 87


 4723              	.LASF221:
 4724 0353 5F737461 		.ascii	"_stats_stop_measure_crit_isr\000"
 4724      74735F73 
 4724      746F705F 
 4724      6D656173 
 4724      7572655F 
 4725              	.LASF29:
 4726 0370 636E745F 		.ascii	"cnt_t\000"
 4726      7400
 4727              	.LASF226:
 4728 0376 63685468 		.ascii	"chThdSleep\000"
 4728      64536C65 
 4728      657000
 4729              	.LASF185:
 4730 0381 72786368 		.ascii	"rxchar_cb\000"
 4730      61725F63 
 4730      6200
 4731              	.LASF72:
 4732 038b 76745F66 		.ascii	"vt_func\000"
 4732      756E6300 
 4733              	.LASF211:
 4734 0393 62756666 		.ascii	"buffer\000"
 4734      657200
 4735              	.LASF109:
 4736 039a 63685F74 		.ascii	"ch_trace_buffer_t\000"
 4736      72616365 
 4736      5F627566 
 4736      6665725F 
 4736      7400
 4737              	.LASF187:
 4738 03ac 73706565 		.ascii	"speed\000"
 4738      6400
 4739              	.LASF47:
 4740 03b2 705F6570 		.ascii	"p_epending\000"
 4740      656E6469 
 4740      6E6700
 4741              	.LASF127:
 4742 03bd 77746D74 		.ascii	"wtmtxp\000"
 4742      787000
 4743              	.LASF220:
 4744 03c4 5F646267 		.ascii	"_dbg_check_unlock_from_isr\000"
 4744      5F636865 
 4744      636B5F75 
 4744      6E6C6F63 
 4744      6B5F6672 
 4745              	.LASF59:
 4746 03df 63685F72 		.ascii	"ch_ready_list\000"
 4746      65616479 
 4746      5F6C6973 
 4746      7400
 4747              	.LASF145:
 4748 03ed 636C6561 		.ascii	"clear\000"
 4748      7200
 4749              	.LASF80:
 4750 03f3 6973725F 		.ascii	"isr_cnt\000"
 4750      636E7400 
 4751              	.LASF120:
ARM GAS  /tmp/ccI3AEmR.s 			page 88


 4752 03fb 6D5F6372 		.ascii	"m_crit_isr\000"
 4752      69745F69 
 4752      737200
 4753              	.LASF104:
 4754 0406 73655F73 		.ascii	"se_state\000"
 4754      74617465 
 4754      00
 4755              	.LASF119:
 4756 040f 6D5F6372 		.ascii	"m_crit_thd\000"
 4756      69745F74 
 4756      686400
 4757              	.LASF14:
 4758 041a 5F5F7569 		.ascii	"__uint64_t\000"
 4758      6E743634 
 4758      5F7400
 4759              	.LASF13:
 4760 0425 6C6F6E67 		.ascii	"long unsigned int\000"
 4760      20756E73 
 4760      69676E65 
 4760      6420696E 
 4760      7400
 4761              	.LASF188:
 4762 0437 55415254 		.ascii	"UARTConfig\000"
 4762      436F6E66 
 4762      696700
 4763              	.LASF129:
 4764 0442 63685F73 		.ascii	"ch_semaphore\000"
 4764      656D6170 
 4764      686F7265 
 4764      00
 4765              	.LASF54:
 4766 044f 63685F74 		.ascii	"ch_thread\000"
 4766      68726561 
 4766      6400
 4767              	.LASF74:
 4768 0459 76697274 		.ascii	"virtual_timers_list_t\000"
 4768      75616C5F 
 4768      74696D65 
 4768      72735F6C 
 4768      6973745F 
 4769              	.LASF230:
 4770 046f 75617274 		.ascii	"uartStartSend\000"
 4770      53746172 
 4770      7453656E 
 4770      6400
 4771              	.LASF183:
 4772 047d 7478656E 		.ascii	"txend2_cb\000"
 4772      64325F63 
 4772      6200
 4773              	.LASF67:
 4774 0487 76697274 		.ascii	"virtual_timer_t\000"
 4774      75616C5F 
 4774      74696D65 
 4774      725F7400 
 4775              	.LASF58:
 4776 0497 72656164 		.ascii	"ready_list_t\000"
 4776      795F6C69 
ARM GAS  /tmp/ccI3AEmR.s 			page 89


 4776      73745F74 
 4776      00
 4777              	.LASF181:
 4778 04a4 75617274 		.ascii	"uartecb_t\000"
 4778      6563625F 
 4778      7400
 4779              	.LASF151:
 4780 04ae 4C434B52 		.ascii	"LCKR\000"
 4780      00
 4781              	.LASF30:
 4782 04b3 75636E74 		.ascii	"ucnt_t\000"
 4782      5F7400
 4783              	.LASF198:
 4784 04ba 63685654 		.ascii	"chVTSetI\000"
 4784      53657449 
 4784      00
 4785              	.LASF222:
 4786 04c3 68616C49 		.ascii	"halInit\000"
 4786      6E697400 
 4787              	.LASF156:
 4788 04cb 55415254 		.ascii	"UART_UNINIT\000"
 4788      5F554E49 
 4788      4E495400 
 4789              	.LASF55:
 4790 04d7 63685F74 		.ascii	"ch_threads_list\000"
 4790      68726561 
 4790      64735F6C 
 4790      69737400 
 4791              	.LASF166:
 4792 04e7 55415254 		.ascii	"UART_RX_COMPLETE\000"
 4792      5F52585F 
 4792      434F4D50 
 4792      4C455445 
 4792      00
 4793              	.LASF105:
 4794 04f8 63685F73 		.ascii	"ch_swc_event_t\000"
 4794      77635F65 
 4794      76656E74 
 4794      5F7400
 4795              	.LASF117:
 4796 0507 6E5F6972 		.ascii	"n_irq\000"
 4796      7100
 4797              	.LASF148:
 4798 050d 4F535045 		.ascii	"OSPEEDR\000"
 4798      45445200 
 4799              	.LASF212:
 4800 0515 75617274 		.ascii	"uart_cfg_1\000"
 4800      5F636667 
 4800      5F3100
 4801              	.LASF178:
 4802 0520 72786275 		.ascii	"rxbuf\000"
 4802      6600
 4803              	.LASF176:
 4804 0526 646D6172 		.ascii	"dmarx\000"
 4804      7800
 4805              	.LASF12:
 4806 052c 5F5F7569 		.ascii	"__uint32_t\000"
ARM GAS  /tmp/ccI3AEmR.s 			page 90


 4806      6E743332 
 4806      5F7400
 4807              	.LASF1:
 4808 0537 6C6F6E67 		.ascii	"long long int\000"
 4808      206C6F6E 
 4808      6720696E 
 4808      7400
 4809              	.LASF216:
 4810 0545 5F646267 		.ascii	"_dbg_check_lock_from_isr\000"
 4810      5F636865 
 4810      636B5F6C 
 4810      6F636B5F 
 4810      66726F6D 
 4811              	.LASF133:
 4812 055e 6D5F7175 		.ascii	"m_queue\000"
 4812      65756500 
 4813              	.LASF191:
 4814 0566 706F7274 		.ascii	"port_lock_from_isr\000"
 4814      5F6C6F63 
 4814      6B5F6672 
 4814      6F6D5F69 
 4814      737200
 4815              	.LASF69:
 4816 0579 76745F6E 		.ascii	"vt_next\000"
 4816      65787400 
 4817              	.LASF70:
 4818 0581 76745F70 		.ascii	"vt_prev\000"
 4818      72657600 
 4819              	.LASF232:
 4820 0589 6D61696E 		.ascii	"main.c\000"
 4820      2E6300
 4821              	.LASF95:
 4822 0590 47545052 		.ascii	"GTPR\000"
 4822      00
 4823              	.LASF106:
 4824 0595 74625F73 		.ascii	"tb_size\000"
 4824      697A6500 
 4825              	.LASF213:
 4826 059d 49544D5F 		.ascii	"ITM_RxBuffer\000"
 4826      52784275 
 4826      66666572 
 4826      00
 4827              	.LASF175:
 4828 05aa 646D616D 		.ascii	"dmamode\000"
 4828      6F646500 
 4829              	.LASF44:
 4830 05b2 705F7761 		.ascii	"p_waiting\000"
 4830      6974696E 
 4830      6700
 4831              	.LASF168:
 4832 05bc 75617274 		.ascii	"uartflags_t\000"
 4832      666C6167 
 4832      735F7400 
 4833              	.LASF177:
 4834 05c8 646D6174 		.ascii	"dmatx\000"
 4834      7800
 4835              	.LASF103:
ARM GAS  /tmp/ccI3AEmR.s 			page 91


 4836 05ce 73655F77 		.ascii	"se_wtobjp\000"
 4836      746F626A 
 4836      7000
 4837              	.LASF42:
 4838 05d8 705F666C 		.ascii	"p_flags\000"
 4838      61677300 
 4839              	.LASF89:
 4840 05e0 69646C65 		.ascii	"idle_thread_wa\000"
 4840      5F746872 
 4840      6561645F 
 4840      776100
 4841              	.LASF186:
 4842 05ef 72786572 		.ascii	"rxerr_cb\000"
 4842      725F6362 
 4842      00
 4843              	.LASF0:
 4844 05f8 756E7369 		.ascii	"unsigned int\000"
 4844      676E6564 
 4844      20696E74 
 4844      00
 4845              	.LASF21:
 4846 0605 7274636E 		.ascii	"rtcnt_t\000"
 4846      745F7400 
 4847              	.LASF50:
 4848 060d 705F6D70 		.ascii	"p_mpool\000"
 4848      6F6F6C00 
 4849              	.LASF43:
 4850 0615 705F7265 		.ascii	"p_refs\000"
 4850      667300
 4851              	.LASF121:
 4852 061c 6B65726E 		.ascii	"kernel_stats_t\000"
 4852      656C5F73 
 4852      74617473 
 4852      5F7400
 4853              	.LASF205:
 4854 062b 75617274 		.ascii	"uartp\000"
 4854      7000
 4855              	.LASF110:
 4856 0631 6F666673 		.ascii	"offset\000"
 4856      657400
 4857              	.LASF228:
 4858 0638 75617274 		.ascii	"uartStopSend\000"
 4858      53746F70 
 4858      53656E64 
 4858      00
 4859              	.LASF108:
 4860 0645 74625F62 		.ascii	"tb_buffer\000"
 4860      75666665 
 4860      7200
 4861              	.LASF94:
 4862 064f 444D415F 		.ascii	"DMA_Stream_TypeDef\000"
 4862      53747265 
 4862      616D5F54 
 4862      79706544 
 4862      656600
 4863              	.LASF204:
 4864 0662 7478656E 		.ascii	"txend1\000"
ARM GAS  /tmp/ccI3AEmR.s 			page 92


 4864      643100
 4865              	.LASF209:
 4866 0669 7478656E 		.ascii	"txend2\000"
 4866      643200
 4867              	.LASF32:
 4868 0670 74687265 		.ascii	"thread_t\000"
 4868      61645F74 
 4868      00
 4869              	.LASF2:
 4870 0679 6C6F6E67 		.ascii	"long double\000"
 4870      20646F75 
 4870      626C6500 
 4871              	.LASF52:
 4872 0685 74687265 		.ascii	"thread_reference_t\000"
 4872      61645F72 
 4872      65666572 
 4872      656E6365 
 4872      5F7400
 4873              	.LASF49:
 4874 0698 705F7265 		.ascii	"p_realprio\000"
 4874      616C7072 
 4874      696F00
 4875              	.LASF100:
 4876 06a3 706F7274 		.ascii	"port_intctx\000"
 4876      5F696E74 
 4876      63747800 
 4877              	.LASF195:
 4878 06af 706F7274 		.ascii	"port_unlock_from_isr\000"
 4878      5F756E6C 
 4878      6F636B5F 
 4878      66726F6D 
 4878      5F697372 
 4879              	.LASF71:
 4880 06c4 76745F64 		.ascii	"vt_delta\000"
 4880      656C7461 
 4880      00
 4881              	.LASF201:
 4882 06cd 6C656433 		.ascii	"led3off\000"
 4882      6F666600 
 4883              	.LASF68:
 4884 06d5 63685F76 		.ascii	"ch_virtual_timer\000"
 4884      69727475 
 4884      616C5F74 
 4884      696D6572 
 4884      00
 4885              	.LASF131:
 4886 06e6 735F636E 		.ascii	"s_cnt\000"
 4886      7400
 4887              	.LASF203:
 4888 06ec 6C656435 		.ascii	"led5off\000"
 4888      6F666600 
 4889              	.LASF206:
 4890 06f4 72786572 		.ascii	"rxerr\000"
 4890      7200
 4891              	.LASF88:
 4892 06fa 6B65726E 		.ascii	"kernel_stats\000"
 4892      656C5F73 
ARM GAS  /tmp/ccI3AEmR.s 			page 93


 4892      74617473 
 4892      00
 4893              	.LASF141:
 4894 0707 73656C66 		.ascii	"selfindex\000"
 4894      696E6465 
 4894      7800
 4895              	.LASF15:
 4896 0711 6C6F6E67 		.ascii	"long long unsigned int\000"
 4896      206C6F6E 
 4896      6720756E 
 4896      7369676E 
 4896      65642069 
 4897              	.LASF38:
 4898 0728 705F6F6C 		.ascii	"p_older\000"
 4898      64657200 
 4899              	.LASF17:
 4900 0730 75696E74 		.ascii	"uint16_t\000"
 4900      31365F74 
 4900      00
 4901              	.LASF165:
 4902 0739 55415254 		.ascii	"UART_RX_ACTIVE\000"
 4902      5F52585F 
 4902      41435449 
 4902      564500
 4903              	.LASF27:
 4904 0748 6D73675F 		.ascii	"msg_t\000"
 4904      7400
 4905              	.LASF57:
 4906 074e 63685F74 		.ascii	"ch_threads_queue\000"
 4906      68726561 
 4906      64735F71 
 4906      75657565 
 4906      00
 4907              	.LASF65:
 4908 075f 725F6375 		.ascii	"r_current\000"
 4908      7272656E 
 4908      7400
 4909              	.LASF153:
 4910 0769 41465248 		.ascii	"AFRH\000"
 4910      00
 4911              	.LASF152:
 4912 076e 4146524C 		.ascii	"AFRL\000"
 4912      00
 4913              	.LASF142:
 4914 0773 76656374 		.ascii	"vector\000"
 4914      6F7200
 4915              	.LASF87:
 4916 077a 6D61696E 		.ascii	"mainthread\000"
 4916      74687265 
 4916      616400
 4917              	.LASF193:
 4918 0785 5F5F7365 		.ascii	"__set_BASEPRI\000"
 4918      745F4241 
 4918      53455052 
 4918      4900
 4919              	.LASF162:
 4920 0793 55415254 		.ascii	"UART_TX_COMPLETE\000"
ARM GAS  /tmp/ccI3AEmR.s 			page 94


 4920      5F54585F 
 4920      434F4D50 
 4920      4C455445 
 4920      00
 4921              	.LASF167:
 4922 07a4 75617274 		.ascii	"uartrxstate_t\000"
 4922      72787374 
 4922      6174655F 
 4922      7400
 4923              	.LASF112:
 4924 07b2 62657374 		.ascii	"best\000"
 4924      00
 4925              	.LASF60:
 4926 07b7 725F7175 		.ascii	"r_queue\000"
 4926      65756500 
 4927              	.LASF180:
 4928 07bf 75617274 		.ascii	"uartccb_t\000"
 4928      6363625F 
 4928      7400
 4929              	.LASF147:
 4930 07c9 4F545950 		.ascii	"OTYPER\000"
 4930      455200
 4931              	.LASF85:
 4932 07d0 726C6973 		.ascii	"rlist\000"
 4932      7400
 4933              	.LASF23:
 4934 07d6 746D6F64 		.ascii	"tmode_t\000"
 4934      655F7400 
 4935              	.LASF164:
 4936 07de 55415254 		.ascii	"UART_RX_IDLE\000"
 4936      5F52585F 
 4936      49444C45 
 4936      00
 4937              	.LASF64:
 4938 07eb 725F6F6C 		.ascii	"r_older\000"
 4938      64657200 
 4939              	.LASF111:
 4940 07f3 746D5F63 		.ascii	"tm_calibration_t\000"
 4940      616C6962 
 4940      72617469 
 4940      6F6E5F74 
 4940      00
 4941              	.LASF92:
 4942 0804 4D304152 		.ascii	"M0AR\000"
 4942      00
 4943              	.LASF189:
 4944 0809 706F7274 		.ascii	"port_lock\000"
 4944      5F6C6F63 
 4944      6B00
 4945              	.LASF130:
 4946 0813 735F7175 		.ascii	"s_queue\000"
 4946      65756500 
 4947              	.LASF234:
 4948 081b 63685654 		.ascii	"chVTIsArmedI\000"
 4948      49734172 
 4948      6D656449 
 4948      00
ARM GAS  /tmp/ccI3AEmR.s 			page 95


 4949              	.LASF7:
 4950 0828 73686F72 		.ascii	"short int\000"
 4950      7420696E 
 4950      7400
 4951              	.LASF194:
 4952 0832 63685654 		.ascii	"chVTResetI\000"
 4952      52657365 
 4952      744900
 4953              	.LASF20:
 4954 083d 75696E74 		.ascii	"uint64_t\000"
 4954      36345F74 
 4954      00
 4955              	.LASF132:
 4956 0846 63685F6D 		.ascii	"ch_mutex\000"
 4956      75746578 
 4956      00
 4957              	.LASF61:
 4958 084f 725F7072 		.ascii	"r_prio\000"
 4958      696F00
 4959              	.LASF159:
 4960 0856 75617274 		.ascii	"uartstate_t\000"
 4960      73746174 
 4960      655F7400 
 4961              	.LASF78:
 4962 0862 63685F73 		.ascii	"ch_system_debug\000"
 4962      79737465 
 4962      6D5F6465 
 4962      62756700 
 4963              	.LASF231:
 4964 0872 474E5520 		.ascii	"GNU C11 5.3.1 20160307 (release) [ARM/embedded-5-br"
 4964      43313120 
 4964      352E332E 
 4964      31203230 
 4964      31363033 
 4965 08a5 616E6368 		.ascii	"anch revision 234589] -mcpu=cortex-m4 -mno-thumb-in"
 4965      20726576 
 4965      6973696F 
 4965      6E203233 
 4965      34353839 
 4966 08d8 74657277 		.ascii	"terwork -mthumb -ggdb -O2 -fomit-frame-pointer -fal"
 4966      6F726B20 
 4966      2D6D7468 
 4966      756D6220 
 4966      2D676764 
 4967 090b 69676E2D 		.ascii	"ign-functions=16 -ffunction-sections -fdata-section"
 4967      66756E63 
 4967      74696F6E 
 4967      733D3136 
 4967      202D6666 
 4968 093e 73202D66 		.ascii	"s -fno-common\000"
 4968      6E6F2D63 
 4968      6F6D6D6F 
 4968      6E00
 4969              	.LASF150:
 4970 094c 42535252 		.ascii	"BSRR\000"
 4970      00
 4971              	.LASF208:
ARM GAS  /tmp/ccI3AEmR.s 			page 96


 4972 0951 7278656E 		.ascii	"rxend\000"
 4972      6400
 4973              	.LASF86:
 4974 0957 76746C69 		.ascii	"vtlist\000"
 4974      737400
 4975              	.LASF215:
 4976 095e 5F737461 		.ascii	"_stats_start_measure_crit_isr\000"
 4976      74735F73 
 4976      74617274 
 4976      5F6D6561 
 4976      73757265 
 4977              	.LASF137:
 4978 097c 6D757465 		.ascii	"mutex_t\000"
 4978      785F7400 
 4979              	.LASF25:
 4980 0984 74726566 		.ascii	"trefs_t\000"
 4980      735F7400 
 4981              	.LASF53:
 4982 098c 74687265 		.ascii	"threads_list_t\000"
 4982      6164735F 
 4982      6C697374 
 4982      5F7400
 4983              	.LASF160:
 4984 099b 55415254 		.ascii	"UART_TX_IDLE\000"
 4984      5F54585F 
 4984      49444C45 
 4984      00
 4985              	.LASF179:
 4986 09a8 75617274 		.ascii	"uartcb_t\000"
 4986      63625F74 
 4986      00
 4987              	.LASF84:
 4988 09b1 63685F73 		.ascii	"ch_system\000"
 4988      79737465 
 4988      6D00
 4989              	.LASF223:
 4990 09bb 63685379 		.ascii	"chSysInit\000"
 4990      73496E69 
 4990      7400
 4991              	.LASF19:
 4992 09c5 75696E74 		.ascii	"uint32_t\000"
 4992      33325F74 
 4992      00
 4993              	.LASF146:
 4994 09ce 4D4F4445 		.ascii	"MODER\000"
 4994      5200
 4995              	.LASF122:
 4996 09d4 7264796D 		.ascii	"rdymsg\000"
 4996      736700
 4997              	.LASF76:
 4998 09db 76745F6C 		.ascii	"vt_lasttime\000"
 4998      61737474 
 4998      696D6500 
 4999              	.LASF9:
 5000 09e7 73686F72 		.ascii	"short unsigned int\000"
 5000      7420756E 
 5000      7369676E 
ARM GAS  /tmp/ccI3AEmR.s 			page 97


 5000      65642069 
 5000      6E7400
 5001              	.LASF210:
 5002 09fa 6D657373 		.ascii	"message\000"
 5002      61676500 
 5003              	.LASF83:
 5004 0a02 63685F73 		.ascii	"ch_system_t\000"
 5004      79737465 
 5004      6D5F7400 
 5005              	.LASF182:
 5006 0a0e 7478656E 		.ascii	"txend1_cb\000"
 5006      64315F63 
 5006      6200
 5007              	.LASF40:
 5008 0a18 705F7374 		.ascii	"p_stklimit\000"
 5008      6B6C696D 
 5008      697400
 5009              	.LASF214:
 5010 0a23 55415254 		.ascii	"UARTD2\000"
 5010      443200
 5011              	.LASF10:
 5012 0a2a 5F5F696E 		.ascii	"__int32_t\000"
 5012      7433325F 
 5012      7400
 5013              	.LASF91:
 5014 0a34 4E445452 		.ascii	"NDTR\000"
 5014      00
 5015              	.LASF139:
 5016 0a39 69666372 		.ascii	"ifcr\000"
 5016      00
 5017              	.LASF158:
 5018 0a3e 55415254 		.ascii	"UART_READY\000"
 5018      5F524541 
 5018      445900
 5019              	.LASF101:
 5020 0a49 73655F74 		.ascii	"se_time\000"
 5020      696D6500 
 5021              	.LASF39:
 5022 0a51 705F6E61 		.ascii	"p_name\000"
 5022      6D6500
 5023              	.LASF135:
 5024 0a58 6D5F6E65 		.ascii	"m_next\000"
 5024      787400
 5025              	.LASF107:
 5026 0a5f 74625F70 		.ascii	"tb_ptr\000"
 5026      747200
 5027              	.LASF114:
 5028 0a66 6C617374 		.ascii	"last\000"
 5028      00
 5029              	.LASF46:
 5030 0a6b 705F6D73 		.ascii	"p_msg\000"
 5030      6700
 5031              	.LASF41:
 5032 0a71 705F7374 		.ascii	"p_state\000"
 5032      61746500 
 5033              		.ident	"GCC: (GNU Tools for ARM Embedded Processors) 5.3.1 20160307 (release) [ARM/embedded-5-bran
ARM GAS  /tmp/ccI3AEmR.s 			page 98


DEFINED SYMBOLS
                            *ABS*:0000000000000000 main.c
     /tmp/ccI3AEmR.s:20     .text.led3off:0000000000000000 $t
     /tmp/ccI3AEmR.s:25     .text.led3off:0000000000000000 led3off
     /tmp/ccI3AEmR.s:42     .text.led3off:000000000000000c $d
     /tmp/ccI3AEmR.s:47     .text.led4off:0000000000000000 $t
     /tmp/ccI3AEmR.s:52     .text.led4off:0000000000000000 led4off
     /tmp/ccI3AEmR.s:68     .text.led4off:000000000000000c $d
     /tmp/ccI3AEmR.s:73     .text.led5off:0000000000000000 $t
     /tmp/ccI3AEmR.s:78     .text.led5off:0000000000000000 led5off
     /tmp/ccI3AEmR.s:94     .text.led5off:000000000000000c $d
     /tmp/ccI3AEmR.s:99     .text.txend1:0000000000000000 $t
     /tmp/ccI3AEmR.s:104    .text.txend1:0000000000000000 txend1
     /tmp/ccI3AEmR.s:117    .text.rxerr:0000000000000000 $t
     /tmp/ccI3AEmR.s:122    .text.rxerr:0000000000000000 rxerr
     /tmp/ccI3AEmR.s:135    .text.rxchar:0000000000000000 $t
     /tmp/ccI3AEmR.s:140    .text.rxchar:0000000000000000 rxchar
     /tmp/ccI3AEmR.s:276    .text.rxchar:0000000000000054 $d
     /tmp/ccI3AEmR.s:289    .text.rxend:0000000000000000 $t
     /tmp/ccI3AEmR.s:294    .text.rxend:0000000000000000 rxend
     /tmp/ccI3AEmR.s:427    .text.rxend:0000000000000054 $d
     /tmp/ccI3AEmR.s:440    .text.txend2:0000000000000000 $t
     /tmp/ccI3AEmR.s:445    .text.txend2:0000000000000000 txend2
     /tmp/ccI3AEmR.s:578    .text.txend2:0000000000000054 $d
     /tmp/ccI3AEmR.s:591    .text.startup.main:0000000000000000 $t
     /tmp/ccI3AEmR.s:597    .text.startup.main:0000000000000000 main
     /tmp/ccI3AEmR.s:668    .text.startup.main:0000000000000060 $d
     /tmp/ccI3AEmR.s:677    .bss.vt3:0000000000000000 $d
     /tmp/ccI3AEmR.s:681    .bss.vt3:0000000000000000 vt3
     /tmp/ccI3AEmR.s:684    .bss.vt4:0000000000000000 $d
     /tmp/ccI3AEmR.s:688    .bss.vt4:0000000000000000 vt4
     /tmp/ccI3AEmR.s:691    .bss.vt5:0000000000000000 $d
     /tmp/ccI3AEmR.s:695    .bss.vt5:0000000000000000 vt5
     /tmp/ccI3AEmR.s:698    .bss.buffer:0000000000000000 $d
     /tmp/ccI3AEmR.s:702    .bss.buffer:0000000000000000 buffer
     /tmp/ccI3AEmR.s:705    .rodata.message:0000000000000000 $d
     /tmp/ccI3AEmR.s:709    .rodata.message:0000000000000000 message
     /tmp/ccI3AEmR.s:712    .data.uart_cfg_1:0000000000000000 $d
     /tmp/ccI3AEmR.s:716    .data.uart_cfg_1:0000000000000000 uart_cfg_1
                     .debug_frame:0000000000000010 $d

UNDEFINED SYMBOLS
_stats_start_measure_crit_isr
_dbg_check_lock_from_isr
chDbgCheckClassI
chVTDoResetI
chVTDoSetI
_dbg_check_unlock_from_isr
_stats_stop_measure_crit_isr
halInit
chSysInit
uartStart
_pal_lld_setgroupmode
chThdSleep
uartStopReceive
uartStopSend
uartStartReceive
ARM GAS  /tmp/ccI3AEmR.s 			page 99


uartStartSend
UARTD2
