ARM GAS  /tmp/ccI3AEmR.s 			page 1


   1              		.syntax unified
   2              		.cpu cortex-m4
   3              		.fpu softvfp
   4              		.eabi_attribute 20, 1
   5              		.eabi_attribute 21, 1
   6              		.eabi_attribute 23, 3
   7              		.eabi_attribute 24, 1
   8              		.eabi_attribute 25, 1
   9              		.eabi_attribute 26, 1
  10              		.eabi_attribute 30, 2
  11              		.eabi_attribute 34, 1
  12              		.eabi_attribute 18, 4
  13              		.thumb
  14              		.syntax unified
  15              		.file	"main.c"
  16              		.text
  17              	.Ltext0:
  18              		.cfi_sections	.debug_frame
  19              		.section	.text.led3off,"ax",%progbits
  20              		.align	2
  21              		.p2align 4,,15
  22              		.thumb
  23              		.thumb_func
  24              		.type	led3off, %function
  25              	led3off:
  26              	.LFB258:
  27              		.file 1 "main.c"
  28              		.loc 1 25 0
  29              		.cfi_startproc
  30              		@ args = 0, pretend = 0, frame = 0
  31              		@ frame_needed = 0, uses_anonymous_args = 0
  32              		@ link register save eliminated.
  33              	.LVL0:
  34              		.loc 1 28 0
  35 0000 024B     		ldr	r3, .L2
  36 0002 4FF40052 		mov	r2, #8192
  37 0006 5A83     		strh	r2, [r3, #26]	@ movhi
  38 0008 7047     		bx	lr
  39              	.L3:
  40 000a 00BF     		.align	2
  41              	.L2:
  42 000c 000C0240 		.word	1073875968
  43              		.cfi_endproc
  44              	.LFE258:
  45              		.size	led3off, .-led3off
  46              		.section	.text.led4off,"ax",%progbits
  47              		.align	2
  48              		.p2align 4,,15
  49              		.thumb
  50              		.thumb_func
  51              		.type	led4off, %function
  52              	led4off:
  53              	.LFB259:
  54              		.loc 1 31 0
  55              		.cfi_startproc
  56              		@ args = 0, pretend = 0, frame = 0
  57              		@ frame_needed = 0, uses_anonymous_args = 0
ARM GAS  /tmp/ccI3AEmR.s 			page 2


  58              		@ link register save eliminated.
  59              	.LVL1:
  60              		.loc 1 34 0
  61 0000 024B     		ldr	r3, .L5
  62 0002 4FF48052 		mov	r2, #4096
  63 0006 5A83     		strh	r2, [r3, #26]	@ movhi
  64 0008 7047     		bx	lr
  65              	.L6:
  66 000a 00BF     		.align	2
  67              	.L5:
  68 000c 000C0240 		.word	1073875968
  69              		.cfi_endproc
  70              	.LFE259:
  71              		.size	led4off, .-led4off
  72              		.section	.text.led5off,"ax",%progbits
  73              		.align	2
  74              		.p2align 4,,15
  75              		.thumb
  76              		.thumb_func
  77              		.type	led5off, %function
  78              	led5off:
  79              	.LFB260:
  80              		.loc 1 37 0
  81              		.cfi_startproc
  82              		@ args = 0, pretend = 0, frame = 0
  83              		@ frame_needed = 0, uses_anonymous_args = 0
  84              		@ link register save eliminated.
  85              	.LVL2:
  86              		.loc 1 40 0
  87 0000 024B     		ldr	r3, .L8
  88 0002 4FF48042 		mov	r2, #16384
  89 0006 5A83     		strh	r2, [r3, #26]	@ movhi
  90 0008 7047     		bx	lr
  91              	.L9:
  92 000a 00BF     		.align	2
  93              	.L8:
  94 000c 000C0240 		.word	1073875968
  95              		.cfi_endproc
  96              	.LFE260:
  97              		.size	led5off, .-led5off
  98              		.section	.text.txend1,"ax",%progbits
  99              		.align	2
 100              		.p2align 4,,15
 101              		.thumb
 102              		.thumb_func
 103              		.type	txend1, %function
 104              	txend1:
 105              	.LFB261:
 106              		.loc 1 47 0
 107              		.cfi_startproc
 108              		@ args = 0, pretend = 0, frame = 0
 109              		@ frame_needed = 0, uses_anonymous_args = 0
 110              		@ link register save eliminated.
 111              	.LVL3:
 112 0000 7047     		bx	lr
 113              		.cfi_endproc
 114              	.LFE261:
ARM GAS  /tmp/ccI3AEmR.s 			page 3


 115              		.size	txend1, .-txend1
 116 0002 00BF     		.section	.text.rxerr,"ax",%progbits
 117              		.align	2
 118              		.p2align 4,,15
 119              		.thumb
 120              		.thumb_func
 121              		.type	rxerr, %function
 122              	rxerr:
 123              	.LFB263:
 124              		.loc 1 69 0
 125              		.cfi_startproc
 126              		@ args = 0, pretend = 0, frame = 0
 127              		@ frame_needed = 0, uses_anonymous_args = 0
 128              		@ link register save eliminated.
 129              	.LVL4:
 130 0000 7047     		bx	lr
 131              		.cfi_endproc
 132              	.LFE263:
 133              		.size	rxerr, .-rxerr
 134 0002 00BF     		.section	.text.rxchar,"ax",%progbits
 135              		.align	2
 136              		.p2align 4,,15
 137              		.thumb
 138              		.thumb_func
 139              		.type	rxchar, %function
 140              	rxchar:
 141              	.LFB264:
 142              		.loc 1 79 0
 143              		.cfi_startproc
 144              		@ args = 0, pretend = 0, frame = 0
 145              		@ frame_needed = 0, uses_anonymous_args = 0
 146              	.LVL5:
 147              		.loc 1 84 0
 148 0000 144B     		ldr	r3, .L23
 149 0002 4FF48052 		mov	r2, #4096
 150              		.loc 1 79 0
 151 0006 10B5     		push	{r4, lr}
 152              		.cfi_def_cfa_offset 8
 153              		.cfi_offset 4, -8
 154              		.cfi_offset 14, -4
 155              		.loc 1 84 0
 156 0008 1A83     		strh	r2, [r3, #24]	@ movhi
 157              	.LVL6:
 158              	.LBB104:
 159              	.LBB105:
 160              	.LBB106:
 161              	.LBB107:
 162              	.LBB108:
 163              	.LBB109:
 164              		.file 2 "/home/selim/working/ChibiOS/os/ext/CMSIS/include/core_cmFunc.h"
 165              		.loc 2 546 0
 166 000a 2023     		movs	r3, #32
 167              		.syntax unified
 168              	@ 546 "/home/selim/working/ChibiOS/os/ext/CMSIS/include/core_cmFunc.h" 1
 169 000c 83F31188 		MSR basepri, r3
 170              	@ 0 "" 2
 171              	.LVL7:
ARM GAS  /tmp/ccI3AEmR.s 			page 4


 172              		.thumb
 173              		.syntax unified
 174              	.LBE109:
 175              	.LBE108:
 176              	.LBE107:
 177              	.LBE106:
 178              	.LBE105:
 179              	.LBE104:
 180              	.LBB111:
 181              	.LBB112:
 182              	.LBB113:
 183              	.LBB114:
 184              		.file 3 "/home/selim/working/ChibiOS/os/rt/include/chvt.h"
 185              		.loc 3 341 0
 186 0010 114C     		ldr	r4, .L23+4
 187              	.LBE114:
 188              	.LBE113:
 189              	.LBE112:
 190              	.LBE111:
 191              	.LBB118:
 192              	.LBB110:
 193              		.file 4 "/home/selim/working/ChibiOS/os/rt/include/chsys.h"
 194              		.loc 4 389 0
 195 0012 FFF7FEFF 		bl	_stats_start_measure_crit_isr
 196              	.LVL8:
 197              		.loc 4 390 0
 198 0016 FFF7FEFF 		bl	_dbg_check_lock_from_isr
 199              	.LVL9:
 200              	.LBE110:
 201              	.LBE118:
 202              	.LBB119:
 203              	.LBB117:
 204              	.LBB116:
 205              	.LBB115:
 206              		.loc 3 339 0
 207 001a FFF7FEFF 		bl	chDbgCheckClassI
 208              	.LVL10:
 209              	.LBE115:
 210              	.LBE116:
 211              		.loc 3 376 0
 212 001e E368     		ldr	r3, [r4, #12]
 213 0020 13B1     		cbz	r3, .L13
 214              		.loc 3 377 0
 215 0022 2046     		mov	r0, r4
 216 0024 FFF7FEFF 		bl	chVTDoResetI
 217              	.LVL11:
 218              	.L13:
 219              	.LBE117:
 220              	.LBE119:
 221              	.LBB120:
 222              	.LBB121:
 223              	.LBB122:
 224              	.LBB123:
 225              	.LBB124:
 226              	.LBB125:
 227              		.loc 3 339 0
 228 0028 FFF7FEFF 		bl	chDbgCheckClassI
ARM GAS  /tmp/ccI3AEmR.s 			page 5


 229              	.LVL12:
 230              	.LBE125:
 231              	.LBE124:
 232              		.loc 3 376 0
 233 002c E368     		ldr	r3, [r4, #12]
 234 002e 13B1     		cbz	r3, .L14
 235              		.loc 3 377 0
 236 0030 0948     		ldr	r0, .L23+4
 237 0032 FFF7FEFF 		bl	chVTDoResetI
 238              	.LVL13:
 239              	.L14:
 240              	.LBE123:
 241              	.LBE122:
 242              		.loc 3 424 0
 243 0036 0023     		movs	r3, #0
 244 0038 084A     		ldr	r2, .L23+8
 245 003a 0748     		ldr	r0, .L23+4
 246 003c 4FF4FA61 		mov	r1, #2000
 247 0040 FFF7FEFF 		bl	chVTDoSetI
 248              	.LVL14:
 249              	.LBE121:
 250              	.LBE120:
 251              	.LBB126:
 252              	.LBB127:
 253              		.loc 4 408 0
 254 0044 FFF7FEFF 		bl	_dbg_check_unlock_from_isr
 255              	.LVL15:
 256              		.loc 4 409 0
 257 0048 FFF7FEFF 		bl	_stats_stop_measure_crit_isr
 258              	.LVL16:
 259              	.LBB128:
 260              	.LBB129:
 261              	.LBB130:
 262              	.LBB131:
 263              		.loc 2 546 0
 264 004c 0023     		movs	r3, #0
 265              		.syntax unified
 266              	@ 546 "/home/selim/working/ChibiOS/os/ext/CMSIS/include/core_cmFunc.h" 1
 267 004e 83F31188 		MSR basepri, r3
 268              	@ 0 "" 2
 269              	.LVL17:
 270              		.thumb
 271              		.syntax unified
 272 0052 10BD     		pop	{r4, pc}
 273              	.L24:
 274              		.align	2
 275              	.L23:
 276 0054 000C0240 		.word	1073875968
 277 0058 00000000 		.word	.LANCHOR0
 278 005c 00000000 		.word	led4off
 279              	.LBE131:
 280              	.LBE130:
 281              	.LBE129:
 282              	.LBE128:
 283              	.LBE127:
 284              	.LBE126:
 285              		.cfi_endproc
ARM GAS  /tmp/ccI3AEmR.s 			page 6


 286              	.LFE264:
 287              		.size	rxchar, .-rxchar
 288              		.section	.text.rxend,"ax",%progbits
 289              		.align	2
 290              		.p2align 4,,15
 291              		.thumb
 292              		.thumb_func
 293              		.type	rxend, %function
 294              	rxend:
 295              	.LFB265:
 296              		.loc 1 94 0
 297              		.cfi_startproc
 298              		@ args = 0, pretend = 0, frame = 0
 299              		@ frame_needed = 0, uses_anonymous_args = 0
 300              	.LVL18:
 301              		.loc 1 99 0
 302 0000 144B     		ldr	r3, .L35
 303 0002 4FF40052 		mov	r2, #8192
 304              		.loc 1 94 0
 305 0006 10B5     		push	{r4, lr}
 306              		.cfi_def_cfa_offset 8
 307              		.cfi_offset 4, -8
 308              		.cfi_offset 14, -4
 309              		.loc 1 99 0
 310 0008 1A83     		strh	r2, [r3, #24]	@ movhi
 311              	.LVL19:
 312              	.LBB154:
 313              	.LBB155:
 314              	.LBB156:
 315              	.LBB157:
 316              	.LBB158:
 317              	.LBB159:
 318              		.loc 2 546 0
 319 000a 2023     		movs	r3, #32
 320              		.syntax unified
 321              	@ 546 "/home/selim/working/ChibiOS/os/ext/CMSIS/include/core_cmFunc.h" 1
 322 000c 83F31188 		MSR basepri, r3
 323              	@ 0 "" 2
 324              	.LVL20:
 325              		.thumb
 326              		.syntax unified
 327              	.LBE159:
 328              	.LBE158:
 329              	.LBE157:
 330              	.LBE156:
 331              	.LBE155:
 332              	.LBE154:
 333              	.LBB161:
 334              	.LBB162:
 335              	.LBB163:
 336              	.LBB164:
 337              		.loc 3 341 0
 338 0010 114C     		ldr	r4, .L35+4
 339              	.LBE164:
 340              	.LBE163:
 341              	.LBE162:
 342              	.LBE161:
ARM GAS  /tmp/ccI3AEmR.s 			page 7


 343              	.LBB168:
 344              	.LBB160:
 345              		.loc 4 389 0
 346 0012 FFF7FEFF 		bl	_stats_start_measure_crit_isr
 347              	.LVL21:
 348              		.loc 4 390 0
 349 0016 FFF7FEFF 		bl	_dbg_check_lock_from_isr
 350              	.LVL22:
 351              	.LBE160:
 352              	.LBE168:
 353              	.LBB169:
 354              	.LBB167:
 355              	.LBB166:
 356              	.LBB165:
 357              		.loc 3 339 0
 358 001a FFF7FEFF 		bl	chDbgCheckClassI
 359              	.LVL23:
 360              	.LBE165:
 361              	.LBE166:
 362              		.loc 3 376 0
 363 001e E368     		ldr	r3, [r4, #12]
 364 0020 13B1     		cbz	r3, .L26
 365              		.loc 3 377 0
 366 0022 2046     		mov	r0, r4
 367 0024 FFF7FEFF 		bl	chVTDoResetI
 368              	.LVL24:
 369              	.L26:
 370              	.LBE167:
 371              	.LBE169:
 372              	.LBB170:
 373              	.LBB171:
 374              	.LBB172:
 375              	.LBB173:
 376              	.LBB174:
 377              	.LBB175:
 378              		.loc 3 339 0
 379 0028 FFF7FEFF 		bl	chDbgCheckClassI
 380              	.LVL25:
 381              	.LBE175:
 382              	.LBE174:
 383              		.loc 3 376 0
 384 002c E368     		ldr	r3, [r4, #12]
 385 002e 13B1     		cbz	r3, .L27
 386              		.loc 3 377 0
 387 0030 0948     		ldr	r0, .L35+4
 388 0032 FFF7FEFF 		bl	chVTDoResetI
 389              	.LVL26:
 390              	.L27:
 391              	.LBE173:
 392              	.LBE172:
 393              		.loc 3 424 0
 394 0036 0023     		movs	r3, #0
 395 0038 084A     		ldr	r2, .L35+8
 396 003a 0748     		ldr	r0, .L35+4
 397 003c 4FF4FA61 		mov	r1, #2000
 398 0040 FFF7FEFF 		bl	chVTDoSetI
 399              	.LVL27:
ARM GAS  /tmp/ccI3AEmR.s 			page 8


 400              	.LBE171:
 401              	.LBE170:
 402              	.LBB176:
 403              	.LBB177:
 404              		.loc 4 408 0
 405 0044 FFF7FEFF 		bl	_dbg_check_unlock_from_isr
 406              	.LVL28:
 407              		.loc 4 409 0
 408 0048 FFF7FEFF 		bl	_stats_stop_measure_crit_isr
 409              	.LVL29:
 410              	.LBB178:
 411              	.LBB179:
 412              	.LBB180:
 413              	.LBB181:
 414              		.loc 2 546 0
 415 004c 0023     		movs	r3, #0
 416              		.syntax unified
 417              	@ 546 "/home/selim/working/ChibiOS/os/ext/CMSIS/include/core_cmFunc.h" 1
 418 004e 83F31188 		MSR basepri, r3
 419              	@ 0 "" 2
 420              	.LVL30:
 421              		.thumb
 422              		.syntax unified
 423 0052 10BD     		pop	{r4, pc}
 424              	.L36:
 425              		.align	2
 426              	.L35:
 427 0054 000C0240 		.word	1073875968
 428 0058 00000000 		.word	.LANCHOR1
 429 005c 00000000 		.word	led3off
 430              	.LBE181:
 431              	.LBE180:
 432              	.LBE179:
 433              	.LBE178:
 434              	.LBE177:
 435              	.LBE176:
 436              		.cfi_endproc
 437              	.LFE265:
 438              		.size	rxend, .-rxend
 439              		.section	.text.txend2,"ax",%progbits
 440              		.align	2
 441              		.p2align 4,,15
 442              		.thumb
 443              		.thumb_func
 444              		.type	txend2, %function
 445              	txend2:
 446              	.LFB262:
 447              		.loc 1 55 0
 448              		.cfi_startproc
 449              		@ args = 0, pretend = 0, frame = 0
 450              		@ frame_needed = 0, uses_anonymous_args = 0
 451              	.LVL31:
 452              		.loc 1 58 0
 453 0000 144B     		ldr	r3, .L47
 454 0002 4FF48042 		mov	r2, #16384
 455              		.loc 1 55 0
 456 0006 10B5     		push	{r4, lr}
ARM GAS  /tmp/ccI3AEmR.s 			page 9


 457              		.cfi_def_cfa_offset 8
 458              		.cfi_offset 4, -8
 459              		.cfi_offset 14, -4
 460              		.loc 1 58 0
 461 0008 1A83     		strh	r2, [r3, #24]	@ movhi
 462              	.LVL32:
 463              	.LBB204:
 464              	.LBB205:
 465              	.LBB206:
 466              	.LBB207:
 467              	.LBB208:
 468              	.LBB209:
 469              		.loc 2 546 0
 470 000a 2023     		movs	r3, #32
 471              		.syntax unified
 472              	@ 546 "/home/selim/working/ChibiOS/os/ext/CMSIS/include/core_cmFunc.h" 1
 473 000c 83F31188 		MSR basepri, r3
 474              	@ 0 "" 2
 475              	.LVL33:
 476              		.thumb
 477              		.syntax unified
 478              	.LBE209:
 479              	.LBE208:
 480              	.LBE207:
 481              	.LBE206:
 482              	.LBE205:
 483              	.LBE204:
 484              	.LBB211:
 485              	.LBB212:
 486              	.LBB213:
 487              	.LBB214:
 488              		.loc 3 341 0
 489 0010 114C     		ldr	r4, .L47+4
 490              	.LBE214:
 491              	.LBE213:
 492              	.LBE212:
 493              	.LBE211:
 494              	.LBB218:
 495              	.LBB210:
 496              		.loc 4 389 0
 497 0012 FFF7FEFF 		bl	_stats_start_measure_crit_isr
 498              	.LVL34:
 499              		.loc 4 390 0
 500 0016 FFF7FEFF 		bl	_dbg_check_lock_from_isr
 501              	.LVL35:
 502              	.LBE210:
 503              	.LBE218:
 504              	.LBB219:
 505              	.LBB217:
 506              	.LBB216:
 507              	.LBB215:
 508              		.loc 3 339 0
 509 001a FFF7FEFF 		bl	chDbgCheckClassI
 510              	.LVL36:
 511              	.LBE215:
 512              	.LBE216:
 513              		.loc 3 376 0
ARM GAS  /tmp/ccI3AEmR.s 			page 10


 514 001e E368     		ldr	r3, [r4, #12]
 515 0020 13B1     		cbz	r3, .L38
 516              		.loc 3 377 0
 517 0022 2046     		mov	r0, r4
 518 0024 FFF7FEFF 		bl	chVTDoResetI
 519              	.LVL37:
 520              	.L38:
 521              	.LBE217:
 522              	.LBE219:
 523              	.LBB220:
 524              	.LBB221:
 525              	.LBB222:
 526              	.LBB223:
 527              	.LBB224:
 528              	.LBB225:
 529              		.loc 3 339 0
 530 0028 FFF7FEFF 		bl	chDbgCheckClassI
 531              	.LVL38:
 532              	.LBE225:
 533              	.LBE224:
 534              		.loc 3 376 0
 535 002c E368     		ldr	r3, [r4, #12]
 536 002e 13B1     		cbz	r3, .L39
 537              		.loc 3 377 0
 538 0030 0948     		ldr	r0, .L47+4
 539 0032 FFF7FEFF 		bl	chVTDoResetI
 540              	.LVL39:
 541              	.L39:
 542              	.LBE223:
 543              	.LBE222:
 544              		.loc 3 424 0
 545 0036 0023     		movs	r3, #0
 546 0038 084A     		ldr	r2, .L47+8
 547 003a 0748     		ldr	r0, .L47+4
 548 003c 4FF4FA61 		mov	r1, #2000
 549 0040 FFF7FEFF 		bl	chVTDoSetI
 550              	.LVL40:
 551              	.LBE221:
 552              	.LBE220:
 553              	.LBB226:
 554              	.LBB227:
 555              		.loc 4 408 0
 556 0044 FFF7FEFF 		bl	_dbg_check_unlock_from_isr
 557              	.LVL41:
 558              		.loc 4 409 0
 559 0048 FFF7FEFF 		bl	_stats_stop_measure_crit_isr
 560              	.LVL42:
 561              	.LBB228:
 562              	.LBB229:
 563              	.LBB230:
 564              	.LBB231:
 565              		.loc 2 546 0
 566 004c 0023     		movs	r3, #0
 567              		.syntax unified
 568              	@ 546 "/home/selim/working/ChibiOS/os/ext/CMSIS/include/core_cmFunc.h" 1
 569 004e 83F31188 		MSR basepri, r3
 570              	@ 0 "" 2
ARM GAS  /tmp/ccI3AEmR.s 			page 11


 571              	.LVL43:
 572              		.thumb
 573              		.syntax unified
 574 0052 10BD     		pop	{r4, pc}
 575              	.L48:
 576              		.align	2
 577              	.L47:
 578 0054 000C0240 		.word	1073875968
 579 0058 00000000 		.word	.LANCHOR2
 580 005c 00000000 		.word	led5off
 581              	.LBE231:
 582              	.LBE230:
 583              	.LBE229:
 584              	.LBE228:
 585              	.LBE227:
 586              	.LBE226:
 587              		.cfi_endproc
 588              	.LFE262:
 589              		.size	txend2, .-txend2
 590              		.section	.text.startup.main,"ax",%progbits
 591              		.align	2
 592              		.p2align 4,,15
 593              		.global	main
 594              		.thumb
 595              		.thumb_func
 596              		.type	main, %function
 597              	main:
 598              	.LFB266:
 599              		.loc 1 124 0
 600              		.cfi_startproc
 601              		@ Volatile: function does not return.
 602              		@ args = 0, pretend = 0, frame = 0
 603              		@ frame_needed = 0, uses_anonymous_args = 0
 604 0000 08B5     		push	{r3, lr}
 605              		.cfi_def_cfa_offset 8
 606              		.cfi_offset 3, -8
 607              		.cfi_offset 14, -4
 608              		.loc 1 148 0
 609 0002 174C     		ldr	r4, .L56
 610              		.loc 1 133 0
 611 0004 FFF7FEFF 		bl	halInit
 612              	.LVL44:
 613              		.loc 1 134 0
 614 0008 FFF7FEFF 		bl	chSysInit
 615              	.LVL45:
 616              		.loc 1 139 0
 617 000c 1549     		ldr	r1, .L56+4
 618 000e 1648     		ldr	r0, .L56+8
 619 0010 FFF7FEFF 		bl	uartStart
 620              	.LVL46:
 621              		.loc 1 140 0
 622 0014 2046     		mov	r0, r4
 623 0016 40F28232 		movw	r2, #898
 624 001a 0421     		movs	r1, #4
 625 001c FFF7FEFF 		bl	_pal_lld_setgroupmode
 626              	.LVL47:
 627              		.loc 1 141 0
ARM GAS  /tmp/ccI3AEmR.s 			page 12


 628 0020 40F28232 		movw	r2, #898
 629 0024 0821     		movs	r1, #8
 630 0026 2046     		mov	r0, r4
 631 0028 FFF7FEFF 		bl	_pal_lld_setgroupmode
 632              	.LVL48:
 633 002c 03E0     		b	.L51
 634              	.L50:
 635              		.loc 1 158 0
 636 002e 41F28830 		movw	r0, #5000
 637 0032 FFF7FEFF 		bl	chThdSleep
 638              	.LVL49:
 639              	.L51:
 640              		.loc 1 148 0
 641 0036 2369     		ldr	r3, [r4, #16]
 642 0038 DB07     		lsls	r3, r3, #31
 643 003a F8D5     		bpl	.L50
 644              		.loc 1 153 0
 645 003c 0A48     		ldr	r0, .L56+8
 646 003e FFF7FEFF 		bl	uartStopReceive
 647              	.LVL50:
 648              		.loc 1 154 0
 649 0042 0948     		ldr	r0, .L56+8
 650 0044 FFF7FEFF 		bl	uartStopSend
 651              	.LVL51:
 652              		.loc 1 155 0
 653 0048 084A     		ldr	r2, .L56+12
 654 004a 0748     		ldr	r0, .L56+8
 655 004c 1021     		movs	r1, #16
 656 004e FFF7FEFF 		bl	uartStartReceive
 657              	.LVL52:
 658              		.loc 1 156 0
 659 0052 074A     		ldr	r2, .L56+16
 660 0054 0448     		ldr	r0, .L56+8
 661 0056 1021     		movs	r1, #16
 662 0058 FFF7FEFF 		bl	uartStartSend
 663              	.LVL53:
 664 005c E7E7     		b	.L50
 665              	.L57:
 666 005e 00BF     		.align	2
 667              	.L56:
 668 0060 00000240 		.word	1073872896
 669 0064 00000000 		.word	.LANCHOR3
 670 0068 00000000 		.word	UARTD2
 671 006c 00000000 		.word	.LANCHOR4
 672 0070 00000000 		.word	.LANCHOR5
 673              		.cfi_endproc
 674              	.LFE266:
 675              		.size	main, .-main
 676              		.section	.bss.vt3,"aw",%nobits
 677              		.align	2
 678              		.set	.LANCHOR1,. + 0
 679              		.type	vt3, %object
 680              		.size	vt3, 20
 681              	vt3:
 682 0000 00000000 		.space	20
 682      00000000 
 682      00000000 
ARM GAS  /tmp/ccI3AEmR.s 			page 13


 682      00000000 
 682      00000000 
 683              		.section	.bss.vt4,"aw",%nobits
 684              		.align	2
 685              		.set	.LANCHOR0,. + 0
 686              		.type	vt4, %object
 687              		.size	vt4, 20
 688              	vt4:
 689 0000 00000000 		.space	20
 689      00000000 
 689      00000000 
 689      00000000 
 689      00000000 
 690              		.section	.bss.vt5,"aw",%nobits
 691              		.align	2
 692              		.set	.LANCHOR2,. + 0
 693              		.type	vt5, %object
 694              		.size	vt5, 20
 695              	vt5:
 696 0000 00000000 		.space	20
 696      00000000 
 696      00000000 
 696      00000000 
 696      00000000 
 697              		.section	.bss.buffer,"aw",%nobits
 698              		.align	2
 699              		.set	.LANCHOR4,. + 0
 700              		.type	buffer, %object
 701              		.size	buffer, 16
 702              	buffer:
 703 0000 00000000 		.space	16
 703      00000000 
 703      00000000 
 703      00000000 
 704              		.section	.rodata.message,"a",%progbits
 705              		.align	2
 706              		.set	.LANCHOR5,. + 0
 707              		.type	message, %object
 708              		.size	message, 17
 709              	message:
 710 0000 30313233 		.ascii	"0123456789ABCDEF\000"
 710      34353637 
 710      38394142 
 710      43444546 
 710      00
 711              		.section	.data.uart_cfg_1,"aw",%progbits
 712              		.align	2
 713              		.set	.LANCHOR3,. + 0
 714              		.type	uart_cfg_1, %object
 715              		.size	uart_cfg_1, 32
 716              	uart_cfg_1:
 717 0000 00000000 		.word	txend1
 718 0004 00000000 		.word	txend2
 719 0008 00000000 		.word	rxend
 720 000c 00000000 		.word	rxchar
 721 0010 00000000 		.word	rxerr
 722 0014 00960000 		.word	38400
ARM GAS  /tmp/ccI3AEmR.s 			page 14


 723 0018 0000     		.short	0
 724 001a 0040     		.short	16384
 725 001c 0000     		.short	0
 726 001e 0000     		.space	2
 727              		.text
 728              	.Letext0:
 729              		.file 5 "/usr/lib/gcc/arm-none-eabi/5.3.1/include/stddef.h"
 730              		.file 6 "/usr/arm-none-eabi/include/machine/_default_types.h"
 731              		.file 7 "/usr/arm-none-eabi/include/sys/_stdint.h"
 732              		.file 8 "/home/selim/working/ChibiOS/os/rt/ports/ARMCMx/compilers/GCC/chtypes.h"
 733              		.file 9 "/home/selim/working/ChibiOS/os/rt/include/chsystypes.h"
 734              		.file 10 "/home/selim/working/ChibiOS/os/rt/include/chschd.h"
 735              		.file 11 "/home/selim/working/ChibiOS/os/ext/CMSIS/ST/stm32f407xx.h"
 736              		.file 12 "/home/selim/working/ChibiOS/os/rt/ports/ARMCMx/chcore.h"
 737              		.file 13 "/home/selim/working/ChibiOS/os/rt/ports/ARMCMx/chcore_v7m.h"
 738              		.file 14 "/home/selim/working/ChibiOS/os/rt/include/chdebug.h"
 739              		.file 15 "/home/selim/working/ChibiOS/os/rt/include/chtm.h"
 740              		.file 16 "/home/selim/working/ChibiOS/os/rt/include/chstats.h"
 741              		.file 17 "/home/selim/working/ChibiOS/os/rt/include/chsem.h"
 742              		.file 18 "/home/selim/working/ChibiOS/os/rt/include/chmtx.h"
 743              		.file 19 "/home/selim/working/ChibiOS/os/hal/ports/STM32/STM32F4xx/stm32_dma.h"
 744              		.file 20 "/home/selim/working/ChibiOS/os/hal/ports/STM32/LLD/GPIOv2/pal_lld.h"
 745              		.file 21 "/home/selim/working/ChibiOS/os/hal/include/uart.h"
 746              		.file 22 "/home/selim/working/ChibiOS/os/hal/ports/STM32/LLD/USARTv1/uart_lld.h"
 747              		.file 23 "/home/selim/working/ChibiOS/os/ext/CMSIS/include/core_cm4.h"
 748              		.file 24 "/home/selim/working/ChibiOS/os/hal/include/hal.h"
 749              		.file 25 "/home/selim/working/ChibiOS/os/rt/include/chthreads.h"