ARM GAS  /tmp/cc6awXaY.s 			page 1


   1              		.syntax unified
   2              		.cpu cortex-m4
   3              		.fpu softvfp
   4              		.eabi_attribute 20, 1
   5              		.eabi_attribute 21, 1
   6              		.eabi_attribute 23, 3
   7              		.eabi_attribute 24, 1
   8              		.eabi_attribute 25, 1
   9              		.eabi_attribute 26, 1
  10              		.eabi_attribute 30, 2
  11              		.eabi_attribute 34, 1
  12              		.eabi_attribute 18, 4
  13              		.thumb
  14              		.syntax unified
  15              		.file	"nvic.c"
  16              		.text
  17              	.Ltext0:
  18              		.cfi_sections	.debug_frame
  19              		.section	.text.nvicEnableVector,"ax",%progbits
  20              		.align	2
  21              		.p2align 4,,15
  22              		.global	nvicEnableVector
  23              		.thumb
  24              		.thumb_func
  25              		.type	nvicEnableVector, %function
  26              	nvicEnableVector:
  27              	.LFB258:
  28              		.file 1 "/home/selim/working/ChibiOS/os/hal/ports/common/ARMCMx/nvic.c"
  29              		.loc 1 57 0
  30              		.cfi_startproc
  31              		@ args = 0, pretend = 0, frame = 0
  32              		@ frame_needed = 0, uses_anonymous_args = 0
  33              		@ link register save eliminated.
  34              	.LVL0:
  35 0000 4309     		lsrs	r3, r0, #5
  36 0002 9B00     		lsls	r3, r3, #2
  37 0004 10B4     		push	{r4}
  38              		.cfi_def_cfa_offset 4
  39              		.cfi_offset 4, -4
  40 0006 03F16043 		add	r3, r3, #-536870912
  41              		.loc 1 59 0
  42 000a 00F16044 		add	r4, r0, #-536870912
  43 000e 04F56144 		add	r4, r4, #57600
  44 0012 03F56143 		add	r3, r3, #57600
  45 0016 0901     		lsls	r1, r1, #4
  46              	.LVL1:
  47              		.loc 1 60 0
  48 0018 00F01F00 		and	r0, r0, #31
  49              	.LVL2:
  50 001c 0122     		movs	r2, #1
  51 001e 02FA00F0 		lsl	r0, r2, r0
  52              		.loc 1 59 0
  53 0022 C9B2     		uxtb	r1, r1
  54 0024 84F80013 		strb	r1, [r4, #768]
  55              		.loc 1 60 0
  56 0028 C3F88001 		str	r0, [r3, #384]
  57              		.loc 1 61 0
ARM GAS  /tmp/cc6awXaY.s 			page 2


  58 002c 1860     		str	r0, [r3]
  59              		.loc 1 62 0
  60 002e 10BC     		pop	{r4}
  61              		.cfi_restore 4
  62              		.cfi_def_cfa_offset 0
  63              	.LVL3:
  64 0030 7047     		bx	lr
  65              		.cfi_endproc
  66              	.LFE258:
  67              		.size	nvicEnableVector, .-nvicEnableVector
  68 0032 00BF     		.section	.text.nvicDisableVector,"ax",%progbits
  69              		.align	2
  70              		.p2align 4,,15
  71              		.global	nvicDisableVector
  72              		.thumb
  73              		.thumb_func
  74              		.type	nvicDisableVector, %function
  75              	nvicDisableVector:
  76              	.LFB259:
  77              		.loc 1 69 0
  78              		.cfi_startproc
  79              		@ args = 0, pretend = 0, frame = 0
  80              		@ frame_needed = 0, uses_anonymous_args = 0
  81              		@ link register save eliminated.
  82              	.LVL4:
  83              		.loc 1 71 0
  84 0000 0749     		ldr	r1, .L5
  85 0002 4309     		lsrs	r3, r0, #5
  86              		.loc 1 69 0
  87 0004 10B4     		push	{r4}
  88              		.cfi_def_cfa_offset 4
  89              		.cfi_offset 4, -4
  90              		.loc 1 71 0
  91 0006 2033     		adds	r3, r3, #32
  92 0008 00F01F04 		and	r4, r0, #31
  93 000c 0122     		movs	r2, #1
  94              		.loc 1 72 0
  95 000e 0844     		add	r0, r0, r1
  96              	.LVL5:
  97              		.loc 1 71 0
  98 0010 A240     		lsls	r2, r2, r4
  99              		.loc 1 72 0
 100 0012 0024     		movs	r4, #0
 101              		.loc 1 71 0
 102 0014 41F82320 		str	r2, [r1, r3, lsl #2]
 103              		.loc 1 72 0
 104 0018 80F80043 		strb	r4, [r0, #768]
 105              		.loc 1 73 0
 106 001c 10BC     		pop	{r4}
 107              		.cfi_restore 4
 108              		.cfi_def_cfa_offset 0
 109 001e 7047     		bx	lr
 110              	.L6:
 111              		.align	2
 112              	.L5:
 113 0020 00E100E0 		.word	-536813312
 114              		.cfi_endproc
ARM GAS  /tmp/cc6awXaY.s 			page 3


 115              	.LFE259:
 116              		.size	nvicDisableVector, .-nvicDisableVector
 117              		.section	.text.nvicSetSystemHandlerPriority,"ax",%progbits
 118              		.align	2
 119              		.p2align 4,,15
 120              		.global	nvicSetSystemHandlerPriority
 121              		.thumb
 122              		.thumb_func
 123              		.type	nvicSetSystemHandlerPriority, %function
 124              	nvicSetSystemHandlerPriority:
 125              	.LFB260:
 126              		.loc 1 81 0
 127              		.cfi_startproc
 128              		@ args = 0, pretend = 0, frame = 0
 129              		@ frame_needed = 0, uses_anonymous_args = 0
 130              	.LVL6:
 131              		.loc 1 83 0
 132 0000 0C28     		cmp	r0, #12
 133              		.loc 1 81 0
 134 0002 38B5     		push	{r3, r4, r5, lr}
 135              		.cfi_def_cfa_offset 16
 136              		.cfi_offset 3, -16
 137              		.cfi_offset 4, -12
 138              		.cfi_offset 5, -8
 139              		.cfi_offset 14, -4
 140              		.loc 1 81 0
 141 0004 0446     		mov	r4, r0
 142 0006 0D46     		mov	r5, r1
 143              		.loc 1 83 0
 144 0008 02D9     		bls	.L8
 145              		.loc 1 83 0 is_stmt 0 discriminator 2
 146 000a 0548     		ldr	r0, .L11
 147              	.LVL7:
 148 000c FFF7FEFF 		bl	chSysHalt
 149              	.LVL8:
 150              	.L8:
 151              		.loc 1 85 0 is_stmt 1
 152 0010 04F16040 		add	r0, r4, #-536870912
 153 0014 00F56D40 		add	r0, r0, #60672
 154 0018 2D01     		lsls	r5, r5, #4
 155              	.LVL9:
 156 001a EDB2     		uxtb	r5, r5
 157 001c 0576     		strb	r5, [r0, #24]
 158 001e 38BD     		pop	{r3, r4, r5, pc}
 159              	.LVL10:
 160              	.L12:
 161              		.align	2
 162              	.L11:
 163 0020 00000000 		.word	.LANCHOR0
 164              		.cfi_endproc
 165              	.LFE260:
 166              		.size	nvicSetSystemHandlerPriority, .-nvicSetSystemHandlerPriority
 167              		.section	.text.nvicClearPending,"ax",%progbits
 168              		.align	2
 169              		.p2align 4,,15
 170              		.global	nvicClearPending
 171              		.thumb
ARM GAS  /tmp/cc6awXaY.s 			page 4


 172              		.thumb_func
 173              		.type	nvicClearPending, %function
 174              	nvicClearPending:
 175              	.LFB261:
 176              		.loc 1 93 0
 177              		.cfi_startproc
 178              		@ args = 0, pretend = 0, frame = 0
 179              		@ frame_needed = 0, uses_anonymous_args = 0
 180              		@ link register save eliminated.
 181              	.LVL11:
 182              		.loc 1 95 0
 183 0000 4309     		lsrs	r3, r0, #5
 184 0002 6033     		adds	r3, r3, #96
 185 0004 00F01F00 		and	r0, r0, #31
 186              	.LVL12:
 187 0008 0122     		movs	r2, #1
 188 000a 0349     		ldr	r1, .L14
 189 000c 02FA00F0 		lsl	r0, r2, r0
 190 0010 41F82300 		str	r0, [r1, r3, lsl #2]
 191 0014 7047     		bx	lr
 192              	.L15:
 193 0016 00BF     		.align	2
 194              	.L14:
 195 0018 00E100E0 		.word	-536813312
 196              		.cfi_endproc
 197              	.LFE261:
 198              		.size	nvicClearPending, .-nvicClearPending
 199              		.section	.rodata.__func__.7110,"a",%progbits
 200              		.align	2
 201              		.set	.LANCHOR0,. + 0
 202              		.type	__func__.7110, %object
 203              		.size	__func__.7110, 29
 204              	__func__.7110:
 205 0000 6E766963 		.ascii	"nvicSetSystemHandlerPriority\000"
 205      53657453 
 205      79737465 
 205      6D48616E 
 205      646C6572 
 206              		.text
 207              	.Letext0:
 208              		.file 2 "/usr/arm-none-eabi/include/machine/_default_types.h"
 209              		.file 3 "/usr/arm-none-eabi/include/sys/_stdint.h"
 210              		.file 4 "/home/selim/working/ChibiOS/os/rt/ports/ARMCMx/compilers/GCC/chtypes.h"
 211              		.file 5 "/home/selim/working/ChibiOS/os/rt/include/chsystypes.h"
 212              		.file 6 "/home/selim/working/ChibiOS/os/rt/include/chschd.h"
 213              		.file 7 "/home/selim/working/ChibiOS/os/ext/CMSIS/include/core_cm4.h"
 214              		.file 8 "/home/selim/working/ChibiOS/os/rt/ports/ARMCMx/chcore.h"
 215              		.file 9 "/home/selim/working/ChibiOS/os/rt/ports/ARMCMx/chcore_v7m.h"
 216              		.file 10 "/home/selim/working/ChibiOS/os/rt/include/chdebug.h"
 217              		.file 11 "/home/selim/working/ChibiOS/os/rt/include/chtm.h"
 218              		.file 12 "/home/selim/working/ChibiOS/os/rt/include/chstats.h"
 219              		.file 13 "/home/selim/working/ChibiOS/os/rt/include/chsem.h"
 220              		.file 14 "/home/selim/working/ChibiOS/os/rt/include/chmtx.h"
 221              		.file 15 "/home/selim/working/ChibiOS/os/rt/include/chsys.h"