ARM GAS  /tmp/cc6awXaY.s 			page 1


   1              		.syntax unified
   2              		.cpu cortex-m4
   3              		.fpu softvfp
   4              		.eabi_attribute 20, 1
   5              		.eabi_attribute 21, 1
   6              		.eabi_attribute 23, 3
   7              		.eabi_attribute 24, 1
   8              		.eabi_attribute 25, 1
   9              		.eabi_attribute 26, 1
  10              		.eabi_attribute 30, 2
  11              		.eabi_attribute 34, 1
  12              		.eabi_attribute 18, 4
  13              		.thumb
  14              		.syntax unified
  15              		.file	"nvic.c"
  16              		.text
  17              	.Ltext0:
  18              		.cfi_sections	.debug_frame
  19              		.section	.text.nvicEnableVector,"ax",%progbits
  20              		.align	2
  21              		.p2align 4,,15
  22              		.global	nvicEnableVector
  23              		.thumb
  24              		.thumb_func
  25              		.type	nvicEnableVector, %function
  26              	nvicEnableVector:
  27              	.LFB258:
  28              		.file 1 "/home/selim/working/ChibiOS/os/hal/ports/common/ARMCMx/nvic.c"
  29              		.loc 1 57 0
  30              		.cfi_startproc
  31              		@ args = 0, pretend = 0, frame = 0
  32              		@ frame_needed = 0, uses_anonymous_args = 0
  33              		@ link register save eliminated.
  34              	.LVL0:
  35 0000 4309     		lsrs	r3, r0, #5
  36 0002 9B00     		lsls	r3, r3, #2
  37 0004 10B4     		push	{r4}
  38              		.cfi_def_cfa_offset 4
  39              		.cfi_offset 4, -4
  40 0006 03F16043 		add	r3, r3, #-536870912
  41              		.loc 1 59 0
  42 000a 00F16044 		add	r4, r0, #-536870912
  43 000e 04F56144 		add	r4, r4, #57600
  44 0012 03F56143 		add	r3, r3, #57600
  45 0016 0901     		lsls	r1, r1, #4
  46              	.LVL1:
  47              		.loc 1 60 0
  48 0018 00F01F00 		and	r0, r0, #31
  49              	.LVL2:
  50 001c 0122     		movs	r2, #1
  51 001e 02FA00F0 		lsl	r0, r2, r0
  52              		.loc 1 59 0
  53 0022 C9B2     		uxtb	r1, r1
  54 0024 84F80013 		strb	r1, [r4, #768]
  55              		.loc 1 60 0
  56 0028 C3F88001 		str	r0, [r3, #384]
  57              		.loc 1 61 0
ARM GAS  /tmp/cc6awXaY.s 			page 2


  58 002c 1860     		str	r0, [r3]
  59              		.loc 1 62 0
  60 002e 10BC     		pop	{r4}
  61              		.cfi_restore 4
  62              		.cfi_def_cfa_offset 0
  63              	.LVL3:
  64 0030 7047     		bx	lr
  65              		.cfi_endproc
  66              	.LFE258:
  67              		.size	nvicEnableVector, .-nvicEnableVector
  68 0032 00BF     		.section	.text.nvicDisableVector,"ax",%progbits
  69              		.align	2
  70              		.p2align 4,,15
  71              		.global	nvicDisableVector
  72              		.thumb
  73              		.thumb_func
  74              		.type	nvicDisableVector, %function
  75              	nvicDisableVector:
  76              	.LFB259:
  77              		.loc 1 69 0
  78              		.cfi_startproc
  79              		@ args = 0, pretend = 0, frame = 0
  80              		@ frame_needed = 0, uses_anonymous_args = 0
  81              		@ link register save eliminated.
  82              	.LVL4:
  83              		.loc 1 71 0
  84 0000 0749     		ldr	r1, .L5
  85 0002 4309     		lsrs	r3, r0, #5
  86              		.loc 1 69 0
  87 0004 10B4     		push	{r4}
  88              		.cfi_def_cfa_offset 4
  89              		.cfi_offset 4, -4
  90              		.loc 1 71 0
  91 0006 2033     		adds	r3, r3, #32
  92 0008 00F01F04 		and	r4, r0, #31
  93 000c 0122     		movs	r2, #1
  94              		.loc 1 72 0
  95 000e 0844     		add	r0, r0, r1
  96              	.LVL5:
  97              		.loc 1 71 0
  98 0010 A240     		lsls	r2, r2, r4
  99              		.loc 1 72 0
 100 0012 0024     		movs	r4, #0
 101              		.loc 1 71 0
 102 0014 41F82320 		str	r2, [r1, r3, lsl #2]
 103              		.loc 1 72 0
 104 0018 80F80043 		strb	r4, [r0, #768]
 105              		.loc 1 73 0
 106 001c 10BC     		pop	{r4}
 107              		.cfi_restore 4
 108              		.cfi_def_cfa_offset 0
 109 001e 7047     		bx	lr
 110              	.L6:
 111              		.align	2
 112              	.L5:
 113 0020 00E100E0 		.word	-536813312
 114              		.cfi_endproc
ARM GAS  /tmp/cc6awXaY.s 			page 3


 115              	.LFE259:
 116              		.size	nvicDisableVector, .-nvicDisableVector
 117              		.section	.text.nvicSetSystemHandlerPriority,"ax",%progbits
 118              		.align	2
 119              		.p2align 4,,15
 120              		.global	nvicSetSystemHandlerPriority
 121              		.thumb
 122              		.thumb_func
 123              		.type	nvicSetSystemHandlerPriority, %function
 124              	nvicSetSystemHandlerPriority:
 125              	.LFB260:
 126              		.loc 1 81 0
 127              		.cfi_startproc
 128              		@ args = 0, pretend = 0, frame = 0
 129              		@ frame_needed = 0, uses_anonymous_args = 0
 130              	.LVL6:
 131              		.loc 1 83 0
 132 0000 0C28     		cmp	r0, #12
 133              		.loc 1 81 0
 134 0002 38B5     		push	{r3, r4, r5, lr}
 135              		.cfi_def_cfa_offset 16
 136              		.cfi_offset 3, -16
 137              		.cfi_offset 4, -12
 138              		.cfi_offset 5, -8
 139              		.cfi_offset 14, -4
 140              		.loc 1 81 0
 141 0004 0446     		mov	r4, r0
 142 0006 0D46     		mov	r5, r1
 143              		.loc 1 83 0
 144 0008 02D9     		bls	.L8
 145              		.loc 1 83 0 is_stmt 0 discriminator 2
 146 000a 0548     		ldr	r0, .L11
 147              	.LVL7:
 148 000c FFF7FEFF 		bl	chSysHalt
 149              	.LVL8:
 150              	.L8:
 151              		.loc 1 85 0 is_stmt 1
 152 0010 04F16040 		add	r0, r4, #-536870912
 153 0014 00F56D40 		add	r0, r0, #60672
 154 0018 2D01     		lsls	r5, r5, #4
 155              	.LVL9:
 156 001a EDB2     		uxtb	r5, r5
 157 001c 0576     		strb	r5, [r0, #24]
 158 001e 38BD     		pop	{r3, r4, r5, pc}
 159              	.LVL10:
 160              	.L12:
 161              		.align	2
 162              	.L11:
 163 0020 00000000 		.word	.LANCHOR0
 164              		.cfi_endproc
 165              	.LFE260:
 166              		.size	nvicSetSystemHandlerPriority, .-nvicSetSystemHandlerPriority
 167              		.section	.text.nvicClearPending,"ax",%progbits
 168              		.align	2
 169              		.p2align 4,,15
 170              		.global	nvicClearPending
 171              		.thumb
ARM GAS  /tmp/cc6awXaY.s 			page 4


 172              		.thumb_func
 173              		.type	nvicClearPending, %function
 174              	nvicClearPending:
 175              	.LFB261:
 176              		.loc 1 93 0
 177              		.cfi_startproc
 178              		@ args = 0, pretend = 0, frame = 0
 179              		@ frame_needed = 0, uses_anonymous_args = 0
 180              		@ link register save eliminated.
 181              	.LVL11:
 182              		.loc 1 95 0
 183 0000 4309     		lsrs	r3, r0, #5
 184 0002 6033     		adds	r3, r3, #96
 185 0004 00F01F00 		and	r0, r0, #31
 186              	.LVL12:
 187 0008 0122     		movs	r2, #1
 188 000a 0349     		ldr	r1, .L14
 189 000c 02FA00F0 		lsl	r0, r2, r0
 190 0010 41F82300 		str	r0, [r1, r3, lsl #2]
 191 0014 7047     		bx	lr
 192              	.L15:
 193 0016 00BF     		.align	2
 194              	.L14:
 195 0018 00E100E0 		.word	-536813312
 196              		.cfi_endproc
 197              	.LFE261:
 198              		.size	nvicClearPending, .-nvicClearPending
 199              		.section	.rodata.__func__.7110,"a",%progbits
 200              		.align	2
 201              		.set	.LANCHOR0,. + 0
 202              		.type	__func__.7110, %object
 203              		.size	__func__.7110, 29
 204              	__func__.7110:
 205 0000 6E766963 		.ascii	"nvicSetSystemHandlerPriority\000"
 205      53657453 
 205      79737465 
 205      6D48616E 
 205      646C6572 
 206              		.text
 207              	.Letext0:
 208              		.file 2 "/usr/arm-none-eabi/include/machine/_default_types.h"
 209              		.file 3 "/usr/arm-none-eabi/include/sys/_stdint.h"
 210              		.file 4 "/home/selim/working/ChibiOS/os/rt/ports/ARMCMx/compilers/GCC/chtypes.h"
 211              		.file 5 "/home/selim/working/ChibiOS/os/rt/include/chsystypes.h"
 212              		.file 6 "/home/selim/working/ChibiOS/os/rt/include/chschd.h"
 213              		.file 7 "/home/selim/working/ChibiOS/os/ext/CMSIS/include/core_cm4.h"
 214              		.file 8 "/home/selim/working/ChibiOS/os/rt/ports/ARMCMx/chcore.h"
 215              		.file 9 "/home/selim/working/ChibiOS/os/rt/ports/ARMCMx/chcore_v7m.h"
 216              		.file 10 "/home/selim/working/ChibiOS/os/rt/include/chdebug.h"
 217              		.file 11 "/home/selim/working/ChibiOS/os/rt/include/chtm.h"
 218              		.file 12 "/home/selim/working/ChibiOS/os/rt/include/chstats.h"
 219              		.file 13 "/home/selim/working/ChibiOS/os/rt/include/chsem.h"
 220              		.file 14 "/home/selim/working/ChibiOS/os/rt/include/chmtx.h"
 221              		.file 15 "/home/selim/working/ChibiOS/os/rt/include/chsys.h"
 222              		.section	.debug_info,"",%progbits
 223              	.Ldebug_info0:
 224 0000 9B0B0000 		.4byte	0xb9b
ARM GAS  /tmp/cc6awXaY.s 			page 5


 225 0004 0400     		.2byte	0x4
 226 0006 00000000 		.4byte	.Ldebug_abbrev0
 227 000a 04       		.byte	0x4
 228 000b 01       		.uleb128 0x1
 229 000c C9040000 		.4byte	.LASF165
 230 0010 0C       		.byte	0xc
 231 0011 8C010000 		.4byte	.LASF166
 232 0015 00000000 		.4byte	.Ldebug_ranges0+0
 233 0019 00000000 		.4byte	0
 234 001d 00000000 		.4byte	.Ldebug_line0
 235 0021 02       		.uleb128 0x2
 236 0022 04       		.byte	0x4
 237 0023 05       		.byte	0x5
 238 0024 696E7400 		.ascii	"int\000"
 239 0028 03       		.uleb128 0x3
 240 0029 04       		.byte	0x4
 241 002a 07       		.byte	0x7
 242 002b 4F020000 		.4byte	.LASF0
 243 002f 03       		.uleb128 0x3
 244 0030 08       		.byte	0x8
 245 0031 05       		.byte	0x5
 246 0032 28010000 		.4byte	.LASF1
 247 0036 03       		.uleb128 0x3
 248 0037 08       		.byte	0x8
 249 0038 04       		.byte	0x4
 250 0039 84030000 		.4byte	.LASF2
 251 003d 03       		.uleb128 0x3
 252 003e 01       		.byte	0x1
 253 003f 06       		.byte	0x6
 254 0040 36010000 		.4byte	.LASF3
 255 0044 04       		.uleb128 0x4
 256 0045 4C000000 		.4byte	.LASF7
 257 0049 02       		.byte	0x2
 258 004a 1D       		.byte	0x1d
 259 004b 4F000000 		.4byte	0x4f
 260 004f 03       		.uleb128 0x3
 261 0050 01       		.byte	0x1
 262 0051 08       		.byte	0x8
 263 0052 59040000 		.4byte	.LASF4
 264 0056 03       		.uleb128 0x3
 265 0057 02       		.byte	0x2
 266 0058 05       		.byte	0x5
 267 0059 8C040000 		.4byte	.LASF5
 268 005d 03       		.uleb128 0x3
 269 005e 02       		.byte	0x2
 270 005f 07       		.byte	0x7
 271 0060 D2050000 		.4byte	.LASF6
 272 0064 04       		.uleb128 0x4
 273 0065 10030000 		.4byte	.LASF8
 274 0069 02       		.byte	0x2
 275 006a 3F       		.byte	0x3f
 276 006b 6F000000 		.4byte	0x6f
 277 006f 03       		.uleb128 0x3
 278 0070 04       		.byte	0x4
 279 0071 05       		.byte	0x5
 280 0072 74010000 		.4byte	.LASF9
 281 0076 04       		.uleb128 0x4
ARM GAS  /tmp/cc6awXaY.s 			page 6


 282 0077 9D060000 		.4byte	.LASF10
 283 007b 02       		.byte	0x2
 284 007c 41       		.byte	0x41
 285 007d 81000000 		.4byte	0x81
 286 0081 03       		.uleb128 0x3
 287 0082 04       		.byte	0x4
 288 0083 07       		.byte	0x7
 289 0084 49060000 		.4byte	.LASF11
 290 0088 04       		.uleb128 0x4
 291 0089 ED030000 		.4byte	.LASF12
 292 008d 02       		.byte	0x2
 293 008e 5B       		.byte	0x5b
 294 008f 93000000 		.4byte	0x93
 295 0093 03       		.uleb128 0x3
 296 0094 08       		.byte	0x8
 297 0095 07       		.byte	0x7
 298 0096 9B000000 		.4byte	.LASF13
 299 009a 04       		.uleb128 0x4
 300 009b 08070000 		.4byte	.LASF14
 301 009f 03       		.byte	0x3
 302 00a0 14       		.byte	0x14
 303 00a1 44000000 		.4byte	0x44
 304 00a5 04       		.uleb128 0x4
 305 00a6 51040000 		.4byte	.LASF15
 306 00aa 03       		.byte	0x3
 307 00ab 1F       		.byte	0x1f
 308 00ac 64000000 		.4byte	0x64
 309 00b0 04       		.uleb128 0x4
 310 00b1 18060000 		.4byte	.LASF16
 311 00b5 03       		.byte	0x3
 312 00b6 20       		.byte	0x20
 313 00b7 76000000 		.4byte	0x76
 314 00bb 04       		.uleb128 0x4
 315 00bc 36000000 		.4byte	.LASF17
 316 00c0 03       		.byte	0x3
 317 00c1 26       		.byte	0x26
 318 00c2 88000000 		.4byte	0x88
 319 00c6 05       		.uleb128 0x5
 320 00c7 9A000000 		.4byte	0x9a
 321 00cb 05       		.uleb128 0x5
 322 00cc A5000000 		.4byte	0xa5
 323 00d0 05       		.uleb128 0x5
 324 00d1 B0000000 		.4byte	0xb0
 325 00d5 04       		.uleb128 0x4
 326 00d6 C6060000 		.4byte	.LASF18
 327 00da 04       		.byte	0x4
 328 00db 46       		.byte	0x46
 329 00dc B0000000 		.4byte	0xb0
 330 00e0 04       		.uleb128 0x4
 331 00e1 FD000000 		.4byte	.LASF19
 332 00e5 04       		.byte	0x4
 333 00e6 47       		.byte	0x47
 334 00e7 BB000000 		.4byte	0xbb
 335 00eb 04       		.uleb128 0x4
 336 00ec B1050000 		.4byte	.LASF20
 337 00f0 04       		.byte	0x4
 338 00f1 49       		.byte	0x49
ARM GAS  /tmp/cc6awXaY.s 			page 7


 339 00f2 9A000000 		.4byte	0x9a
 340 00f6 04       		.uleb128 0x4
 341 00f7 7D010000 		.4byte	.LASF21
 342 00fb 04       		.byte	0x4
 343 00fc 4A       		.byte	0x4a
 344 00fd 9A000000 		.4byte	0x9a
 345 0101 04       		.uleb128 0x4
 346 0102 03040000 		.4byte	.LASF22
 347 0106 04       		.byte	0x4
 348 0107 4B       		.byte	0x4b
 349 0108 9A000000 		.4byte	0x9a
 350 010c 04       		.uleb128 0x4
 351 010d 3A040000 		.4byte	.LASF23
 352 0111 04       		.byte	0x4
 353 0112 4D       		.byte	0x4d
 354 0113 B0000000 		.4byte	0xb0
 355 0117 04       		.uleb128 0x4
 356 0118 B7020000 		.4byte	.LASF24
 357 011c 04       		.byte	0x4
 358 011d 4E       		.byte	0x4e
 359 011e A5000000 		.4byte	0xa5
 360 0122 04       		.uleb128 0x4
 361 0123 04030000 		.4byte	.LASF25
 362 0127 04       		.byte	0x4
 363 0128 50       		.byte	0x50
 364 0129 B0000000 		.4byte	0xb0
 365 012d 04       		.uleb128 0x4
 366 012e 3E020000 		.4byte	.LASF26
 367 0132 04       		.byte	0x4
 368 0133 52       		.byte	0x52
 369 0134 A5000000 		.4byte	0xa5
 370 0138 04       		.uleb128 0x4
 371 0139 C8020000 		.4byte	.LASF27
 372 013d 04       		.byte	0x4
 373 013e 53       		.byte	0x53
 374 013f B0000000 		.4byte	0xb0
 375 0143 04       		.uleb128 0x4
 376 0144 7F060000 		.4byte	.LASF28
 377 0148 05       		.byte	0x5
 378 0149 33       		.byte	0x33
 379 014a B0000000 		.4byte	0xb0
 380 014e 04       		.uleb128 0x4
 381 014f 6A060000 		.4byte	.LASF29
 382 0153 05       		.byte	0x5
 383 0154 3F       		.byte	0x3f
 384 0155 59010000 		.4byte	0x159
 385 0159 06       		.uleb128 0x6
 386 015a A8020000 		.4byte	.LASF51
 387 015e 60       		.byte	0x60
 388 015f 06       		.byte	0x6
 389 0160 C2       		.byte	0xc2
 390 0161 5F020000 		.4byte	0x25f
 391 0165 07       		.uleb128 0x7
 392 0166 AA050000 		.4byte	.LASF30
 393 016a 06       		.byte	0x6
 394 016b C3       		.byte	0xc3
 395 016c 6A020000 		.4byte	0x26a
ARM GAS  /tmp/cc6awXaY.s 			page 8


 396 0170 00       		.byte	0
 397 0171 07       		.uleb128 0x7
 398 0172 33040000 		.4byte	.LASF31
 399 0176 06       		.byte	0x6
 400 0177 C5       		.byte	0xc5
 401 0178 6A020000 		.4byte	0x26a
 402 017c 04       		.byte	0x4
 403 017d 07       		.uleb128 0x7
 404 017e 0B010000 		.4byte	.LASF32
 405 0182 06       		.byte	0x6
 406 0183 C7       		.byte	0xc7
 407 0184 0C010000 		.4byte	0x10c
 408 0188 08       		.byte	0x8
 409 0189 07       		.uleb128 0x7
 410 018a 67070000 		.4byte	.LASF33
 411 018e 06       		.byte	0x6
 412 018f C8       		.byte	0xc8
 413 0190 A9070000 		.4byte	0x7a9
 414 0194 0C       		.byte	0xc
 415 0195 07       		.uleb128 0x7
 416 0196 CA010000 		.4byte	.LASF34
 417 019a 06       		.byte	0x6
 418 019b CA       		.byte	0xca
 419 019c 6A020000 		.4byte	0x26a
 420 01a0 10       		.byte	0x10
 421 01a1 07       		.uleb128 0x7
 422 01a2 BC030000 		.4byte	.LASF35
 423 01a6 06       		.byte	0x6
 424 01a7 CB       		.byte	0xcb
 425 01a8 6A020000 		.4byte	0x26a
 426 01ac 14       		.byte	0x14
 427 01ad 07       		.uleb128 0x7
 428 01ae 25070000 		.4byte	.LASF36
 429 01b2 06       		.byte	0x6
 430 01b3 D2       		.byte	0xd2
 431 01b4 4D0A0000 		.4byte	0xa4d
 432 01b8 18       		.byte	0x18
 433 01b9 07       		.uleb128 0x7
 434 01ba 44020000 		.4byte	.LASF37
 435 01be 06       		.byte	0x6
 436 01bf D8       		.byte	0xd8
 437 01c0 5F0A0000 		.4byte	0xa5f
 438 01c4 1C       		.byte	0x1c
 439 01c5 07       		.uleb128 0x7
 440 01c6 7A040000 		.4byte	.LASF38
 441 01ca 06       		.byte	0x6
 442 01cb DD       		.byte	0xdd
 443 01cc F6000000 		.4byte	0xf6
 444 01d0 20       		.byte	0x20
 445 01d1 07       		.uleb128 0x7
 446 01d2 B9050000 		.4byte	.LASF39
 447 01d6 06       		.byte	0x6
 448 01d7 E1       		.byte	0xe1
 449 01d8 EB000000 		.4byte	0xeb
 450 01dc 21       		.byte	0x21
 451 01dd 07       		.uleb128 0x7
 452 01de EE060000 		.4byte	.LASF40
ARM GAS  /tmp/cc6awXaY.s 			page 9


 453 01e2 06       		.byte	0x6
 454 01e3 E6       		.byte	0xe6
 455 01e4 01010000 		.4byte	0x101
 456 01e8 22       		.byte	0x22
 457 01e9 08       		.uleb128 0x8
 458 01ea 705F7500 		.ascii	"p_u\000"
 459 01ee 06       		.byte	0x6
 460 01ef 3101     		.2byte	0x131
 461 01f1 88090000 		.4byte	0x988
 462 01f5 24       		.byte	0x24
 463 01f6 09       		.uleb128 0x9
 464 01f7 3D030000 		.4byte	.LASF41
 465 01fb 06       		.byte	0x6
 466 01fc 3601     		.2byte	0x136
 467 01fe 70020000 		.4byte	0x270
 468 0202 28       		.byte	0x28
 469 0203 09       		.uleb128 0x9
 470 0204 7D020000 		.4byte	.LASF42
 471 0208 06       		.byte	0x6
 472 0209 3C01     		.2byte	0x13c
 473 020b 94020000 		.4byte	0x294
 474 020f 2C       		.byte	0x2c
 475 0210 09       		.uleb128 0x9
 476 0211 39070000 		.4byte	.LASF43
 477 0215 06       		.byte	0x6
 478 0216 4001     		.2byte	0x140
 479 0218 17010000 		.4byte	0x117
 480 021c 34       		.byte	0x34
 481 021d 09       		.uleb128 0x9
 482 021e 03060000 		.4byte	.LASF44
 483 0222 06       		.byte	0x6
 484 0223 4601     		.2byte	0x146
 485 0225 22010000 		.4byte	0x122
 486 0229 38       		.byte	0x38
 487 022a 09       		.uleb128 0x9
 488 022b 82040000 		.4byte	.LASF45
 489 022f 06       		.byte	0x6
 490 0230 4D01     		.2byte	0x14d
 491 0232 470A0000 		.4byte	0xa47
 492 0236 3C       		.byte	0x3c
 493 0237 09       		.uleb128 0x9
 494 0238 89060000 		.4byte	.LASF46
 495 023c 06       		.byte	0x6
 496 023d 5101     		.2byte	0x151
 497 023f 0C010000 		.4byte	0x10c
 498 0243 40       		.byte	0x40
 499 0244 09       		.uleb128 0x9
 500 0245 42010000 		.4byte	.LASF47
 501 0249 06       		.byte	0x6
 502 024a 5801     		.2byte	0x158
 503 024c 47030000 		.4byte	0x347
 504 0250 44       		.byte	0x44
 505 0251 09       		.uleb128 0x9
 506 0252 CA050000 		.4byte	.LASF48
 507 0256 06       		.byte	0x6
 508 0257 5E01     		.2byte	0x15e
 509 0259 39090000 		.4byte	0x939
ARM GAS  /tmp/cc6awXaY.s 			page 10


 510 025d 48       		.byte	0x48
 511 025e 00       		.byte	0
 512 025f 04       		.uleb128 0x4
 513 0260 5A030000 		.4byte	.LASF49
 514 0264 05       		.byte	0x5
 515 0265 44       		.byte	0x44
 516 0266 6A020000 		.4byte	0x26a
 517 026a 0A       		.uleb128 0xa
 518 026b 04       		.byte	0x4
 519 026c 4E010000 		.4byte	0x14e
 520 0270 04       		.uleb128 0x4
 521 0271 00000000 		.4byte	.LASF50
 522 0275 05       		.byte	0x5
 523 0276 49       		.byte	0x49
 524 0277 7B020000 		.4byte	0x27b
 525 027b 06       		.uleb128 0x6
 526 027c 39060000 		.4byte	.LASF52
 527 0280 04       		.byte	0x4
 528 0281 06       		.byte	0x6
 529 0282 B0       		.byte	0xb0
 530 0283 94020000 		.4byte	0x294
 531 0287 07       		.uleb128 0x7
 532 0288 AA050000 		.4byte	.LASF30
 533 028c 06       		.byte	0x6
 534 028d B1       		.byte	0xb1
 535 028e 6A020000 		.4byte	0x26a
 536 0292 00       		.byte	0
 537 0293 00       		.byte	0
 538 0294 04       		.uleb128 0x4
 539 0295 D5060000 		.4byte	.LASF53
 540 0299 05       		.byte	0x5
 541 029a 50       		.byte	0x50
 542 029b 9F020000 		.4byte	0x29f
 543 029f 06       		.uleb128 0x6
 544 02a0 62000000 		.4byte	.LASF54
 545 02a4 08       		.byte	0x8
 546 02a5 06       		.byte	0x6
 547 02a6 B7       		.byte	0xb7
 548 02a7 C4020000 		.4byte	0x2c4
 549 02ab 07       		.uleb128 0x7
 550 02ac AA050000 		.4byte	.LASF30
 551 02b0 06       		.byte	0x6
 552 02b1 B8       		.byte	0xb8
 553 02b2 6A020000 		.4byte	0x26a
 554 02b6 00       		.byte	0
 555 02b7 07       		.uleb128 0x7
 556 02b8 33040000 		.4byte	.LASF31
 557 02bc 06       		.byte	0x6
 558 02bd B9       		.byte	0xb9
 559 02be 6A020000 		.4byte	0x26a
 560 02c2 04       		.byte	0x4
 561 02c3 00       		.byte	0
 562 02c4 04       		.uleb128 0x4
 563 02c5 14000000 		.4byte	.LASF55
 564 02c9 05       		.byte	0x5
 565 02ca 57       		.byte	0x57
 566 02cb CF020000 		.4byte	0x2cf
ARM GAS  /tmp/cc6awXaY.s 			page 11


 567 02cf 0B       		.uleb128 0xb
 568 02d0 F6020000 		.4byte	.LASF56
 569 02d4 1C       		.byte	0x1c
 570 02d5 06       		.byte	0x6
 571 02d6 9001     		.2byte	0x190
 572 02d8 2B030000 		.4byte	0x32b
 573 02dc 09       		.uleb128 0x9
 574 02dd 28060000 		.4byte	.LASF57
 575 02e1 06       		.byte	0x6
 576 02e2 9101     		.2byte	0x191
 577 02e4 94020000 		.4byte	0x294
 578 02e8 00       		.byte	0
 579 02e9 09       		.uleb128 0x9
 580 02ea C2040000 		.4byte	.LASF58
 581 02ee 06       		.byte	0x6
 582 02ef 9201     		.2byte	0x192
 583 02f1 0C010000 		.4byte	0x10c
 584 02f5 08       		.byte	0x8
 585 02f6 09       		.uleb128 0x9
 586 02f7 C4030000 		.4byte	.LASF59
 587 02fb 06       		.byte	0x6
 588 02fc 9401     		.2byte	0x194
 589 02fe A9070000 		.4byte	0x7a9
 590 0302 0C       		.byte	0xc
 591 0303 09       		.uleb128 0x9
 592 0304 EC010000 		.4byte	.LASF60
 593 0308 06       		.byte	0x6
 594 0309 9701     		.2byte	0x197
 595 030b 6A020000 		.4byte	0x26a
 596 030f 10       		.byte	0x10
 597 0310 09       		.uleb128 0x9
 598 0311 E5030000 		.4byte	.LASF61
 599 0315 06       		.byte	0x6
 600 0316 9801     		.2byte	0x198
 601 0318 6A020000 		.4byte	0x26a
 602 031c 14       		.byte	0x14
 603 031d 09       		.uleb128 0x9
 604 031e 5B060000 		.4byte	.LASF62
 605 0322 06       		.byte	0x6
 606 0323 9B01     		.2byte	0x19b
 607 0325 6A020000 		.4byte	0x26a
 608 0329 18       		.byte	0x18
 609 032a 00       		.byte	0
 610 032b 04       		.uleb128 0x4
 611 032c 94060000 		.4byte	.LASF63
 612 0330 05       		.byte	0x5
 613 0331 5C       		.byte	0x5c
 614 0332 36030000 		.4byte	0x336
 615 0336 0A       		.uleb128 0xa
 616 0337 04       		.byte	0x4
 617 0338 3C030000 		.4byte	0x33c
 618 033c 0C       		.uleb128 0xc
 619 033d 47030000 		.4byte	0x347
 620 0341 0D       		.uleb128 0xd
 621 0342 47030000 		.4byte	0x347
 622 0346 00       		.byte	0
 623 0347 0E       		.uleb128 0xe
ARM GAS  /tmp/cc6awXaY.s 			page 12


 624 0348 04       		.byte	0x4
 625 0349 04       		.uleb128 0x4
 626 034a 2D030000 		.4byte	.LASF64
 627 034e 05       		.byte	0x5
 628 034f 61       		.byte	0x61
 629 0350 54030000 		.4byte	0x354
 630 0354 0B       		.uleb128 0xb
 631 0355 E5050000 		.4byte	.LASF65
 632 0359 14       		.byte	0x14
 633 035a 06       		.byte	0x6
 634 035b 6B01     		.2byte	0x16b
 635 035d A3030000 		.4byte	0x3a3
 636 0361 09       		.uleb128 0x9
 637 0362 5C020000 		.4byte	.LASF66
 638 0366 06       		.byte	0x6
 639 0367 6C01     		.2byte	0x16c
 640 0369 650A0000 		.4byte	0xa65
 641 036d 00       		.byte	0
 642 036e 09       		.uleb128 0x9
 643 036f FD010000 		.4byte	.LASF67
 644 0373 06       		.byte	0x6
 645 0374 6D01     		.2byte	0x16d
 646 0376 650A0000 		.4byte	0xa65
 647 037a 04       		.byte	0x4
 648 037b 09       		.uleb128 0x9
 649 037c 30060000 		.4byte	.LASF68
 650 0380 06       		.byte	0x6
 651 0381 6E01     		.2byte	0x16e
 652 0383 43010000 		.4byte	0x143
 653 0387 08       		.byte	0x8
 654 0388 09       		.uleb128 0x9
 655 0389 6D070000 		.4byte	.LASF69
 656 038d 06       		.byte	0x6
 657 038e 6F01     		.2byte	0x16f
 658 0390 2B030000 		.4byte	0x32b
 659 0394 0C       		.byte	0xc
 660 0395 09       		.uleb128 0x9
 661 0396 CE060000 		.4byte	.LASF70
 662 039a 06       		.byte	0x6
 663 039b 7101     		.2byte	0x171
 664 039d 47030000 		.4byte	0x347
 665 03a1 10       		.byte	0x10
 666 03a2 00       		.byte	0
 667 03a3 04       		.uleb128 0x4
 668 03a4 E1000000 		.4byte	.LASF71
 669 03a8 05       		.byte	0x5
 670 03a9 66       		.byte	0x66
 671 03aa AE030000 		.4byte	0x3ae
 672 03ae 0B       		.uleb128 0xb
 673 03af 6D030000 		.4byte	.LASF72
 674 03b3 10       		.byte	0x10
 675 03b4 06       		.byte	0x6
 676 03b5 7B01     		.2byte	0x17b
 677 03b7 F0030000 		.4byte	0x3f0
 678 03bb 09       		.uleb128 0x9
 679 03bc 5C020000 		.4byte	.LASF66
 680 03c0 06       		.byte	0x6
ARM GAS  /tmp/cc6awXaY.s 			page 13


 681 03c1 7C01     		.2byte	0x17c
 682 03c3 650A0000 		.4byte	0xa65
 683 03c7 00       		.byte	0
 684 03c8 09       		.uleb128 0x9
 685 03c9 FD010000 		.4byte	.LASF67
 686 03cd 06       		.byte	0x6
 687 03ce 7E01     		.2byte	0x17e
 688 03d0 650A0000 		.4byte	0xa65
 689 03d4 04       		.byte	0x4
 690 03d5 09       		.uleb128 0x9
 691 03d6 30060000 		.4byte	.LASF68
 692 03da 06       		.byte	0x6
 693 03db 8001     		.2byte	0x180
 694 03dd 43010000 		.4byte	0x143
 695 03e1 08       		.byte	0x8
 696 03e2 09       		.uleb128 0x9
 697 03e3 B0030000 		.4byte	.LASF73
 698 03e7 06       		.byte	0x6
 699 03e8 8801     		.2byte	0x188
 700 03ea 43010000 		.4byte	0x143
 701 03ee 0C       		.byte	0xc
 702 03ef 00       		.byte	0
 703 03f0 04       		.uleb128 0x4
 704 03f1 73000000 		.4byte	.LASF74
 705 03f5 05       		.byte	0x5
 706 03f6 6B       		.byte	0x6b
 707 03f7 FB030000 		.4byte	0x3fb
 708 03fb 0F       		.uleb128 0xf
 709 03fc 0E020000 		.4byte	.LASF75
 710 0400 1404     		.2byte	0x414
 711 0402 06       		.byte	0x6
 712 0403 A201     		.2byte	0x1a2
 713 0405 3E040000 		.4byte	0x43e
 714 0409 09       		.uleb128 0x9
 715 040a AD060000 		.4byte	.LASF76
 716 040e 06       		.byte	0x6
 717 040f AA01     		.2byte	0x1aa
 718 0411 6B0A0000 		.4byte	0xa6b
 719 0415 00       		.byte	0
 720 0416 09       		.uleb128 0x9
 721 0417 F5060000 		.4byte	.LASF77
 722 041b 06       		.byte	0x6
 723 041c AF01     		.2byte	0x1af
 724 041e 2D010000 		.4byte	0x12d
 725 0422 04       		.byte	0x4
 726 0423 09       		.uleb128 0x9
 727 0424 26020000 		.4byte	.LASF78
 728 0428 06       		.byte	0x6
 729 0429 B301     		.2byte	0x1b3
 730 042b 2D010000 		.4byte	0x12d
 731 042f 08       		.byte	0x8
 732 0430 09       		.uleb128 0x9
 733 0431 2C070000 		.4byte	.LASF79
 734 0435 06       		.byte	0x6
 735 0436 B901     		.2byte	0x1b9
 736 0438 CB080000 		.4byte	0x8cb
 737 043c 0C       		.byte	0xc
ARM GAS  /tmp/cc6awXaY.s 			page 14


 738 043d 00       		.byte	0
 739 043e 04       		.uleb128 0x4
 740 043f D5020000 		.4byte	.LASF80
 741 0443 05       		.byte	0x5
 742 0444 70       		.byte	0x70
 743 0445 49040000 		.4byte	0x449
 744 0449 0F       		.uleb128 0xf
 745 044a 6A010000 		.4byte	.LASF81
 746 044e D805     		.2byte	0x5d8
 747 0450 06       		.byte	0x6
 748 0451 C201     		.2byte	0x1c2
 749 0453 B6040000 		.4byte	0x4b6
 750 0457 09       		.uleb128 0x9
 751 0458 02070000 		.4byte	.LASF82
 752 045c 06       		.byte	0x6
 753 045d C601     		.2byte	0x1c6
 754 045f C4020000 		.4byte	0x2c4
 755 0463 00       		.byte	0
 756 0464 09       		.uleb128 0x9
 757 0465 63010000 		.4byte	.LASF83
 758 0469 06       		.byte	0x6
 759 046a CA01     		.2byte	0x1ca
 760 046c A3030000 		.4byte	0x3a3
 761 0470 1C       		.byte	0x1c
 762 0471 08       		.uleb128 0x8
 763 0472 64626700 		.ascii	"dbg\000"
 764 0476 06       		.byte	0x6
 765 0477 CE01     		.2byte	0x1ce
 766 0479 F0030000 		.4byte	0x3f0
 767 047d 2C       		.byte	0x2c
 768 047e 10       		.uleb128 0x10
 769 047f D6000000 		.4byte	.LASF84
 770 0483 06       		.byte	0x6
 771 0484 D201     		.2byte	0x1d2
 772 0486 4E010000 		.4byte	0x14e
 773 048a 4004     		.2byte	0x440
 774 048c 11       		.uleb128 0x11
 775 048d 746D00   		.ascii	"tm\000"
 776 0490 06       		.byte	0x6
 777 0491 D701     		.2byte	0x1d7
 778 0493 EB080000 		.4byte	0x8eb
 779 0497 A004     		.2byte	0x4a0
 780 0499 10       		.uleb128 0x10
 781 049a 3F000000 		.4byte	.LASF85
 782 049e 06       		.byte	0x6
 783 049f DD01     		.2byte	0x1dd
 784 04a1 7D090000 		.4byte	0x97d
 785 04a5 A804     		.2byte	0x4a8
 786 04a7 10       		.uleb128 0x10
 787 04a8 2F020000 		.4byte	.LASF86
 788 04ac 06       		.byte	0x6
 789 04ad E301     		.2byte	0x1e3
 790 04af 700A0000 		.4byte	0xa70
 791 04b3 E004     		.2byte	0x4e0
 792 04b5 00       		.byte	0
 793 04b6 12       		.uleb128 0x12
 794 04b7 040E     		.2byte	0xe04
ARM GAS  /tmp/cc6awXaY.s 			page 15


 795 04b9 07       		.byte	0x7
 796 04ba 5001     		.2byte	0x150
 797 04bc 72050000 		.4byte	0x572
 798 04c0 09       		.uleb128 0x9
 799 04c1 96040000 		.4byte	.LASF87
 800 04c5 07       		.byte	0x7
 801 04c6 5201     		.2byte	0x152
 802 04c8 89050000 		.4byte	0x589
 803 04cc 00       		.byte	0
 804 04cd 09       		.uleb128 0x9
 805 04ce 0B040000 		.4byte	.LASF88
 806 04d2 07       		.byte	0x7
 807 04d3 5301     		.2byte	0x153
 808 04d5 8E050000 		.4byte	0x58e
 809 04d9 20       		.byte	0x20
 810 04da 09       		.uleb128 0x9
 811 04db DB030000 		.4byte	.LASF89
 812 04df 07       		.byte	0x7
 813 04e0 5401     		.2byte	0x154
 814 04e2 9E050000 		.4byte	0x59e
 815 04e6 80       		.byte	0x80
 816 04e7 09       		.uleb128 0x9
 817 04e8 10070000 		.4byte	.LASF90
 818 04ec 07       		.byte	0x7
 819 04ed 5501     		.2byte	0x155
 820 04ef 8E050000 		.4byte	0x58e
 821 04f3 A0       		.byte	0xa0
 822 04f4 10       		.uleb128 0x10
 823 04f5 06010000 		.4byte	.LASF91
 824 04f9 07       		.byte	0x7
 825 04fa 5601     		.2byte	0x156
 826 04fc A3050000 		.4byte	0x5a3
 827 0500 0001     		.2byte	0x100
 828 0502 10       		.uleb128 0x10
 829 0503 15040000 		.4byte	.LASF92
 830 0507 07       		.byte	0x7
 831 0508 5701     		.2byte	0x157
 832 050a 8E050000 		.4byte	0x58e
 833 050e 2001     		.2byte	0x120
 834 0510 10       		.uleb128 0x10
 835 0511 0F000000 		.4byte	.LASF93
 836 0515 07       		.byte	0x7
 837 0516 5801     		.2byte	0x158
 838 0518 A8050000 		.4byte	0x5a8
 839 051c 8001     		.2byte	0x180
 840 051e 10       		.uleb128 0x10
 841 051f 1F040000 		.4byte	.LASF94
 842 0523 07       		.byte	0x7
 843 0524 5901     		.2byte	0x159
 844 0526 8E050000 		.4byte	0x58e
 845 052a A001     		.2byte	0x1a0
 846 052c 10       		.uleb128 0x10
 847 052d 9C030000 		.4byte	.LASF95
 848 0531 07       		.byte	0x7
 849 0532 5A01     		.2byte	0x15a
 850 0534 AD050000 		.4byte	0x5ad
 851 0538 0002     		.2byte	0x200
ARM GAS  /tmp/cc6awXaY.s 			page 16


 852 053a 10       		.uleb128 0x10
 853 053b 29040000 		.4byte	.LASF96
 854 053f 07       		.byte	0x7
 855 0540 5B01     		.2byte	0x15b
 856 0542 B2050000 		.4byte	0x5b2
 857 0546 2002     		.2byte	0x220
 858 0548 11       		.uleb128 0x11
 859 0549 495000   		.ascii	"IP\000"
 860 054c 07       		.byte	0x7
 861 054d 5C01     		.2byte	0x15c
 862 054f D2050000 		.4byte	0x5d2
 863 0553 0003     		.2byte	0x300
 864 0555 10       		.uleb128 0x10
 865 0556 0E060000 		.4byte	.LASF97
 866 055a 07       		.byte	0x7
 867 055b 5D01     		.2byte	0x15d
 868 055d D7050000 		.4byte	0x5d7
 869 0561 F003     		.2byte	0x3f0
 870 0563 10       		.uleb128 0x10
 871 0564 19070000 		.4byte	.LASF98
 872 0568 07       		.byte	0x7
 873 0569 5E01     		.2byte	0x15e
 874 056b D0000000 		.4byte	0xd0
 875 056f 000E     		.2byte	0xe00
 876 0571 00       		.byte	0
 877 0572 13       		.uleb128 0x13
 878 0573 D0000000 		.4byte	0xd0
 879 0577 82050000 		.4byte	0x582
 880 057b 14       		.uleb128 0x14
 881 057c 82050000 		.4byte	0x582
 882 0580 07       		.byte	0x7
 883 0581 00       		.byte	0
 884 0582 03       		.uleb128 0x3
 885 0583 04       		.byte	0x4
 886 0584 07       		.byte	0x7
 887 0585 51030000 		.4byte	.LASF99
 888 0589 05       		.uleb128 0x5
 889 058a 72050000 		.4byte	0x572
 890 058e 13       		.uleb128 0x13
 891 058f B0000000 		.4byte	0xb0
 892 0593 9E050000 		.4byte	0x59e
 893 0597 14       		.uleb128 0x14
 894 0598 82050000 		.4byte	0x582
 895 059c 17       		.byte	0x17
 896 059d 00       		.byte	0
 897 059e 05       		.uleb128 0x5
 898 059f 72050000 		.4byte	0x572
 899 05a3 05       		.uleb128 0x5
 900 05a4 72050000 		.4byte	0x572
 901 05a8 05       		.uleb128 0x5
 902 05a9 72050000 		.4byte	0x572
 903 05ad 05       		.uleb128 0x5
 904 05ae 72050000 		.4byte	0x572
 905 05b2 13       		.uleb128 0x13
 906 05b3 B0000000 		.4byte	0xb0
 907 05b7 C2050000 		.4byte	0x5c2
 908 05bb 14       		.uleb128 0x14
ARM GAS  /tmp/cc6awXaY.s 			page 17


 909 05bc 82050000 		.4byte	0x582
 910 05c0 37       		.byte	0x37
 911 05c1 00       		.byte	0
 912 05c2 13       		.uleb128 0x13
 913 05c3 C6000000 		.4byte	0xc6
 914 05c7 D2050000 		.4byte	0x5d2
 915 05cb 14       		.uleb128 0x14
 916 05cc 82050000 		.4byte	0x582
 917 05d0 EF       		.byte	0xef
 918 05d1 00       		.byte	0
 919 05d2 05       		.uleb128 0x5
 920 05d3 C2050000 		.4byte	0x5c2
 921 05d7 13       		.uleb128 0x13
 922 05d8 B0000000 		.4byte	0xb0
 923 05dc E8050000 		.4byte	0x5e8
 924 05e0 15       		.uleb128 0x15
 925 05e1 82050000 		.4byte	0x582
 926 05e5 8302     		.2byte	0x283
 927 05e7 00       		.byte	0
 928 05e8 16       		.uleb128 0x16
 929 05e9 9B040000 		.4byte	.LASF100
 930 05ed 07       		.byte	0x7
 931 05ee 5F01     		.2byte	0x15f
 932 05f0 B6040000 		.4byte	0x4b6
 933 05f4 17       		.uleb128 0x17
 934 05f5 8C       		.byte	0x8c
 935 05f6 07       		.byte	0x7
 936 05f7 7001     		.2byte	0x170
 937 05f9 0F070000 		.4byte	0x70f
 938 05fd 09       		.uleb128 0x9
 939 05fe F7000000 		.4byte	.LASF101
 940 0602 07       		.byte	0x7
 941 0603 7201     		.2byte	0x172
 942 0605 0F070000 		.4byte	0x70f
 943 0609 00       		.byte	0
 944 060a 09       		.uleb128 0x9
 945 060b B2020000 		.4byte	.LASF102
 946 060f 07       		.byte	0x7
 947 0610 7301     		.2byte	0x173
 948 0612 D0000000 		.4byte	0xd0
 949 0616 04       		.byte	0x4
 950 0617 09       		.uleb128 0x9
 951 0618 8E020000 		.4byte	.LASF103
 952 061c 07       		.byte	0x7
 953 061d 7401     		.2byte	0x174
 954 061f D0000000 		.4byte	0xd0
 955 0623 08       		.byte	0x8
 956 0624 09       		.uleb128 0x9
 957 0625 BD020000 		.4byte	.LASF104
 958 0629 07       		.byte	0x7
 959 062a 7501     		.2byte	0x175
 960 062c D0000000 		.4byte	0xd0
 961 0630 0C       		.byte	0xc
 962 0631 08       		.uleb128 0x8
 963 0632 53435200 		.ascii	"SCR\000"
 964 0636 07       		.byte	0x7
 965 0637 7601     		.2byte	0x176
ARM GAS  /tmp/cc6awXaY.s 			page 18


 966 0639 D0000000 		.4byte	0xd0
 967 063d 10       		.byte	0x10
 968 063e 08       		.uleb128 0x8
 969 063f 43435200 		.ascii	"CCR\000"
 970 0643 07       		.byte	0x7
 971 0644 7701     		.2byte	0x177
 972 0646 D0000000 		.4byte	0xd0
 973 064a 14       		.byte	0x14
 974 064b 08       		.uleb128 0x8
 975 064c 53485000 		.ascii	"SHP\000"
 976 0650 07       		.byte	0x7
 977 0651 7801     		.2byte	0x178
 978 0653 24070000 		.4byte	0x724
 979 0657 18       		.byte	0x18
 980 0658 09       		.uleb128 0x9
 981 0659 67040000 		.4byte	.LASF105
 982 065d 07       		.byte	0x7
 983 065e 7901     		.2byte	0x179
 984 0660 D0000000 		.4byte	0xd0
 985 0664 24       		.byte	0x24
 986 0665 09       		.uleb128 0x9
 987 0666 90030000 		.4byte	.LASF106
 988 066a 07       		.byte	0x7
 989 066b 7A01     		.2byte	0x17a
 990 066d D0000000 		.4byte	0xd0
 991 0671 28       		.byte	0x28
 992 0672 09       		.uleb128 0x9
 993 0673 45070000 		.4byte	.LASF107
 994 0677 07       		.byte	0x7
 995 0678 7B01     		.2byte	0x17b
 996 067a D0000000 		.4byte	0xd0
 997 067e 2C       		.byte	0x2c
 998 067f 09       		.uleb128 0x9
 999 0680 C3020000 		.4byte	.LASF108
 1000 0684 07       		.byte	0x7
 1001 0685 7C01     		.2byte	0x17c
 1002 0687 D0000000 		.4byte	0xd0
 1003 068b 30       		.byte	0x30
 1004 068c 09       		.uleb128 0x9
 1005 068d CF020000 		.4byte	.LASF109
 1006 0691 07       		.byte	0x7
 1007 0692 7D01     		.2byte	0x17d
 1008 0694 D0000000 		.4byte	0xd0
 1009 0698 34       		.byte	0x34
 1010 0699 09       		.uleb128 0x9
 1011 069a DA010000 		.4byte	.LASF110
 1012 069e 07       		.byte	0x7
 1013 069f 7E01     		.2byte	0x17e
 1014 06a1 D0000000 		.4byte	0xd0
 1015 06a5 38       		.byte	0x38
 1016 06a6 09       		.uleb128 0x9
 1017 06a7 E7010000 		.4byte	.LASF111
 1018 06ab 07       		.byte	0x7
 1019 06ac 7F01     		.2byte	0x17f
 1020 06ae D0000000 		.4byte	0xd0
 1021 06b2 3C       		.byte	0x3c
 1022 06b3 08       		.uleb128 0x8
ARM GAS  /tmp/cc6awXaY.s 			page 19


 1023 06b4 50465200 		.ascii	"PFR\000"
 1024 06b8 07       		.byte	0x7
 1025 06b9 8001     		.2byte	0x180
 1026 06bb 3E070000 		.4byte	0x73e
 1027 06bf 40       		.byte	0x40
 1028 06c0 08       		.uleb128 0x8
 1029 06c1 44465200 		.ascii	"DFR\000"
 1030 06c5 07       		.byte	0x7
 1031 06c6 8101     		.2byte	0x181
 1032 06c8 0F070000 		.4byte	0x70f
 1033 06cc 48       		.byte	0x48
 1034 06cd 08       		.uleb128 0x8
 1035 06ce 41445200 		.ascii	"ADR\000"
 1036 06d2 07       		.byte	0x7
 1037 06d3 8201     		.2byte	0x182
 1038 06d5 0F070000 		.4byte	0x70f
 1039 06d9 4C       		.byte	0x4c
 1040 06da 09       		.uleb128 0x9
 1041 06db FD060000 		.4byte	.LASF112
 1042 06df 07       		.byte	0x7
 1043 06e0 8301     		.2byte	0x183
 1044 06e2 58070000 		.4byte	0x758
 1045 06e6 50       		.byte	0x50
 1046 06e7 09       		.uleb128 0x9
 1047 06e8 23010000 		.4byte	.LASF113
 1048 06ec 07       		.byte	0x7
 1049 06ed 8401     		.2byte	0x184
 1050 06ef 72070000 		.4byte	0x772
 1051 06f3 60       		.byte	0x60
 1052 06f4 09       		.uleb128 0x9
 1053 06f5 0B040000 		.4byte	.LASF88
 1054 06f9 07       		.byte	0x7
 1055 06fa 8501     		.2byte	0x185
 1056 06fc 77070000 		.4byte	0x777
 1057 0700 74       		.byte	0x74
 1058 0701 09       		.uleb128 0x9
 1059 0702 3F070000 		.4byte	.LASF114
 1060 0706 07       		.byte	0x7
 1061 0707 8601     		.2byte	0x186
 1062 0709 D0000000 		.4byte	0xd0
 1063 070d 88       		.byte	0x88
 1064 070e 00       		.byte	0
 1065 070f 18       		.uleb128 0x18
 1066 0710 D0000000 		.4byte	0xd0
 1067 0714 13       		.uleb128 0x13
 1068 0715 C6000000 		.4byte	0xc6
 1069 0719 24070000 		.4byte	0x724
 1070 071d 14       		.uleb128 0x14
 1071 071e 82050000 		.4byte	0x582
 1072 0722 0B       		.byte	0xb
 1073 0723 00       		.byte	0
 1074 0724 05       		.uleb128 0x5
 1075 0725 14070000 		.4byte	0x714
 1076 0729 13       		.uleb128 0x13
 1077 072a 0F070000 		.4byte	0x70f
 1078 072e 39070000 		.4byte	0x739
 1079 0732 14       		.uleb128 0x14
ARM GAS  /tmp/cc6awXaY.s 			page 20


 1080 0733 82050000 		.4byte	0x582
 1081 0737 01       		.byte	0x1
 1082 0738 00       		.byte	0
 1083 0739 05       		.uleb128 0x5
 1084 073a 29070000 		.4byte	0x729
 1085 073e 18       		.uleb128 0x18
 1086 073f 39070000 		.4byte	0x739
 1087 0743 13       		.uleb128 0x13
 1088 0744 0F070000 		.4byte	0x70f
 1089 0748 53070000 		.4byte	0x753
 1090 074c 14       		.uleb128 0x14
 1091 074d 82050000 		.4byte	0x582
 1092 0751 03       		.byte	0x3
 1093 0752 00       		.byte	0
 1094 0753 05       		.uleb128 0x5
 1095 0754 43070000 		.4byte	0x743
 1096 0758 18       		.uleb128 0x18
 1097 0759 53070000 		.4byte	0x753
 1098 075d 13       		.uleb128 0x13
 1099 075e 0F070000 		.4byte	0x70f
 1100 0762 6D070000 		.4byte	0x76d
 1101 0766 14       		.uleb128 0x14
 1102 0767 82050000 		.4byte	0x582
 1103 076b 04       		.byte	0x4
 1104 076c 00       		.byte	0
 1105 076d 05       		.uleb128 0x5
 1106 076e 5D070000 		.4byte	0x75d
 1107 0772 18       		.uleb128 0x18
 1108 0773 6D070000 		.4byte	0x76d
 1109 0777 13       		.uleb128 0x13
 1110 0778 B0000000 		.4byte	0xb0
 1111 077c 87070000 		.4byte	0x787
 1112 0780 14       		.uleb128 0x14
 1113 0781 82050000 		.4byte	0x582
 1114 0785 04       		.byte	0x4
 1115 0786 00       		.byte	0
 1116 0787 16       		.uleb128 0x16
 1117 0788 05020000 		.4byte	.LASF115
 1118 078c 07       		.byte	0x7
 1119 078d 8701     		.2byte	0x187
 1120 078f F4050000 		.4byte	0x5f4
 1121 0793 04       		.uleb128 0x4
 1122 0794 F4010000 		.4byte	.LASF116
 1123 0798 08       		.byte	0x8
 1124 0799 65       		.byte	0x65
 1125 079a 47030000 		.4byte	0x347
 1126 079e 04       		.uleb128 0x4
 1127 079f 1A030000 		.4byte	.LASF117
 1128 07a3 08       		.byte	0x8
 1129 07a4 6D       		.byte	0x6d
 1130 07a5 BB000000 		.4byte	0xbb
 1131 07a9 06       		.uleb128 0x6
 1132 07aa BE060000 		.4byte	.LASF118
 1133 07ae 04       		.byte	0x4
 1134 07af 08       		.byte	0x8
 1135 07b0 89       		.byte	0x89
 1136 07b1 C2070000 		.4byte	0x7c2
ARM GAS  /tmp/cc6awXaY.s 			page 21


 1137 07b5 19       		.uleb128 0x19
 1138 07b6 72313300 		.ascii	"r13\000"
 1139 07ba 08       		.byte	0x8
 1140 07bb 8A       		.byte	0x8a
 1141 07bc 3D080000 		.4byte	0x83d
 1142 07c0 00       		.byte	0
 1143 07c1 00       		.byte	0
 1144 07c2 06       		.uleb128 0x6
 1145 07c3 56000000 		.4byte	.LASF119
 1146 07c7 24       		.byte	0x24
 1147 07c8 09       		.byte	0x9
 1148 07c9 F4       		.byte	0xf4
 1149 07ca 3D080000 		.4byte	0x83d
 1150 07ce 08       		.uleb128 0x8
 1151 07cf 723400   		.ascii	"r4\000"
 1152 07d2 09       		.byte	0x9
 1153 07d3 0701     		.2byte	0x107
 1154 07d5 93070000 		.4byte	0x793
 1155 07d9 00       		.byte	0
 1156 07da 08       		.uleb128 0x8
 1157 07db 723500   		.ascii	"r5\000"
 1158 07de 09       		.byte	0x9
 1159 07df 0801     		.2byte	0x108
 1160 07e1 93070000 		.4byte	0x793
 1161 07e5 04       		.byte	0x4
 1162 07e6 08       		.uleb128 0x8
 1163 07e7 723600   		.ascii	"r6\000"
 1164 07ea 09       		.byte	0x9
 1165 07eb 0901     		.2byte	0x109
 1166 07ed 93070000 		.4byte	0x793
 1167 07f1 08       		.byte	0x8
 1168 07f2 08       		.uleb128 0x8
 1169 07f3 723700   		.ascii	"r7\000"
 1170 07f6 09       		.byte	0x9
 1171 07f7 0A01     		.2byte	0x10a
 1172 07f9 93070000 		.4byte	0x793
 1173 07fd 0C       		.byte	0xc
 1174 07fe 08       		.uleb128 0x8
 1175 07ff 723800   		.ascii	"r8\000"
 1176 0802 09       		.byte	0x9
 1177 0803 0B01     		.2byte	0x10b
 1178 0805 93070000 		.4byte	0x793
 1179 0809 10       		.byte	0x10
 1180 080a 08       		.uleb128 0x8
 1181 080b 723900   		.ascii	"r9\000"
 1182 080e 09       		.byte	0x9
 1183 080f 0C01     		.2byte	0x10c
 1184 0811 93070000 		.4byte	0x793
 1185 0815 14       		.byte	0x14
 1186 0816 08       		.uleb128 0x8
 1187 0817 72313000 		.ascii	"r10\000"
 1188 081b 09       		.byte	0x9
 1189 081c 0D01     		.2byte	0x10d
 1190 081e 93070000 		.4byte	0x793
 1191 0822 18       		.byte	0x18
 1192 0823 08       		.uleb128 0x8
 1193 0824 72313100 		.ascii	"r11\000"
ARM GAS  /tmp/cc6awXaY.s 			page 22


 1194 0828 09       		.byte	0x9
 1195 0829 0E01     		.2byte	0x10e
 1196 082b 93070000 		.4byte	0x793
 1197 082f 1C       		.byte	0x1c
 1198 0830 08       		.uleb128 0x8
 1199 0831 6C7200   		.ascii	"lr\000"
 1200 0834 09       		.byte	0x9
 1201 0835 0F01     		.2byte	0x10f
 1202 0837 93070000 		.4byte	0x793
 1203 083b 20       		.byte	0x20
 1204 083c 00       		.byte	0
 1205 083d 0A       		.uleb128 0xa
 1206 083e 04       		.byte	0x4
 1207 083f C2070000 		.4byte	0x7c2
 1208 0843 1A       		.uleb128 0x1a
 1209 0844 10       		.byte	0x10
 1210 0845 0A       		.byte	0xa
 1211 0846 51       		.byte	0x51
 1212 0847 7C080000 		.4byte	0x87c
 1213 084b 07       		.uleb128 0x7
 1214 084c 21000000 		.4byte	.LASF120
 1215 0850 0A       		.byte	0xa
 1216 0851 55       		.byte	0x55
 1217 0852 43010000 		.4byte	0x143
 1218 0856 00       		.byte	0
 1219 0857 07       		.uleb128 0x7
 1220 0858 86010000 		.4byte	.LASF121
 1221 085c 0A       		.byte	0xa
 1222 085d 59       		.byte	0x59
 1223 085e 6A020000 		.4byte	0x26a
 1224 0862 04       		.byte	0x4
 1225 0863 07       		.uleb128 0x7
 1226 0864 5D070000 		.4byte	.LASF122
 1227 0868 0A       		.byte	0xa
 1228 0869 5D       		.byte	0x5d
 1229 086a 47030000 		.4byte	0x347
 1230 086e 08       		.byte	0x8
 1231 086f 07       		.uleb128 0x7
 1232 0870 C4000000 		.4byte	.LASF123
 1233 0874 0A       		.byte	0xa
 1234 0875 61       		.byte	0x61
 1235 0876 9A000000 		.4byte	0x9a
 1236 087a 0C       		.byte	0xc
 1237 087b 00       		.byte	0
 1238 087c 04       		.uleb128 0x4
 1239 087d A1030000 		.4byte	.LASF124
 1240 0881 0A       		.byte	0xa
 1241 0882 62       		.byte	0x62
 1242 0883 43080000 		.4byte	0x843
 1243 0887 1B       		.uleb128 0x1b
 1244 0888 0804     		.2byte	0x408
 1245 088a 0A       		.byte	0xa
 1246 088b 67       		.byte	0x67
 1247 088c B5080000 		.4byte	0x8b5
 1248 0890 07       		.uleb128 0x7
 1249 0891 DF010000 		.4byte	.LASF125
 1250 0895 0A       		.byte	0xa
ARM GAS  /tmp/cc6awXaY.s 			page 23


 1251 0896 6B       		.byte	0x6b
 1252 0897 28000000 		.4byte	0x28
 1253 089b 00       		.byte	0
 1254 089c 07       		.uleb128 0x7
 1255 089d 95030000 		.4byte	.LASF126
 1256 08a1 0A       		.byte	0xa
 1257 08a2 6F       		.byte	0x6f
 1258 08a3 B5080000 		.4byte	0x8b5
 1259 08a7 04       		.byte	0x4
 1260 08a8 07       		.uleb128 0x7
 1261 08a9 E1020000 		.4byte	.LASF127
 1262 08ad 0A       		.byte	0xa
 1263 08ae 73       		.byte	0x73
 1264 08af BB080000 		.4byte	0x8bb
 1265 08b3 08       		.byte	0x8
 1266 08b4 00       		.byte	0
 1267 08b5 0A       		.uleb128 0xa
 1268 08b6 04       		.byte	0x4
 1269 08b7 7C080000 		.4byte	0x87c
 1270 08bb 13       		.uleb128 0x13
 1271 08bc 7C080000 		.4byte	0x87c
 1272 08c0 CB080000 		.4byte	0x8cb
 1273 08c4 14       		.uleb128 0x14
 1274 08c5 82050000 		.4byte	0x582
 1275 08c9 3F       		.byte	0x3f
 1276 08ca 00       		.byte	0
 1277 08cb 04       		.uleb128 0x4
 1278 08cc B2000000 		.4byte	.LASF128
 1279 08d0 0A       		.byte	0xa
 1280 08d1 74       		.byte	0x74
 1281 08d2 87080000 		.4byte	0x887
 1282 08d6 1A       		.uleb128 0x1a
 1283 08d7 04       		.byte	0x4
 1284 08d8 0B       		.byte	0xb
 1285 08d9 38       		.byte	0x38
 1286 08da EB080000 		.4byte	0x8eb
 1287 08de 07       		.uleb128 0x7
 1288 08df B7060000 		.4byte	.LASF129
 1289 08e3 0B       		.byte	0xb
 1290 08e4 3C       		.byte	0x3c
 1291 08e5 D5000000 		.4byte	0xd5
 1292 08e9 00       		.byte	0
 1293 08ea 00       		.byte	0
 1294 08eb 04       		.uleb128 0x4
 1295 08ec CA030000 		.4byte	.LASF130
 1296 08f0 0B       		.byte	0xb
 1297 08f1 3D       		.byte	0x3d
 1298 08f2 D6080000 		.4byte	0x8d6
 1299 08f6 1A       		.uleb128 0x1a
 1300 08f7 18       		.byte	0x18
 1301 08f8 0B       		.byte	0xb
 1302 08f9 48       		.byte	0x48
 1303 08fa 39090000 		.4byte	0x939
 1304 08fe 07       		.uleb128 0x7
 1305 08ff 73060000 		.4byte	.LASF131
 1306 0903 0B       		.byte	0xb
 1307 0904 49       		.byte	0x49
ARM GAS  /tmp/cc6awXaY.s 			page 24


 1308 0905 D5000000 		.4byte	0xd5
 1309 0909 00       		.byte	0
 1310 090a 07       		.uleb128 0x7
 1311 090b 82000000 		.4byte	.LASF132
 1312 090f 0B       		.byte	0xb
 1313 0910 4A       		.byte	0x4a
 1314 0911 D5000000 		.4byte	0xd5
 1315 0915 04       		.byte	0x4
 1316 0916 07       		.uleb128 0x7
 1317 0917 A8060000 		.4byte	.LASF133
 1318 091b 0B       		.byte	0xb
 1319 091c 4B       		.byte	0x4b
 1320 091d D5000000 		.4byte	0xd5
 1321 0921 08       		.byte	0x8
 1322 0922 19       		.uleb128 0x19
 1323 0923 6E00     		.ascii	"n\000"
 1324 0925 0B       		.byte	0xb
 1325 0926 4C       		.byte	0x4c
 1326 0927 38010000 		.4byte	0x138
 1327 092b 0C       		.byte	0xc
 1328 092c 07       		.uleb128 0x7
 1329 092d F8030000 		.4byte	.LASF134
 1330 0931 0B       		.byte	0xb
 1331 0932 4D       		.byte	0x4d
 1332 0933 E0000000 		.4byte	0xe0
 1333 0937 10       		.byte	0x10
 1334 0938 00       		.byte	0
 1335 0939 04       		.uleb128 0x4
 1336 093a 88000000 		.4byte	.LASF135
 1337 093e 0B       		.byte	0xb
 1338 093f 4E       		.byte	0x4e
 1339 0940 F6080000 		.4byte	0x8f6
 1340 0944 1A       		.uleb128 0x1a
 1341 0945 38       		.byte	0x38
 1342 0946 0C       		.byte	0xc
 1343 0947 38       		.byte	0x38
 1344 0948 7D090000 		.4byte	0x97d
 1345 094c 07       		.uleb128 0x7
 1346 094d 88020000 		.4byte	.LASF136
 1347 0951 0C       		.byte	0xc
 1348 0952 39       		.byte	0x39
 1349 0953 38010000 		.4byte	0x138
 1350 0957 00       		.byte	0
 1351 0958 07       		.uleb128 0x7
 1352 0959 42040000 		.4byte	.LASF137
 1353 095d 0C       		.byte	0xc
 1354 095e 3A       		.byte	0x3a
 1355 095f 38010000 		.4byte	0x138
 1356 0963 04       		.byte	0x4
 1357 0964 07       		.uleb128 0x7
 1358 0965 4A070000 		.4byte	.LASF138
 1359 0969 0C       		.byte	0xc
 1360 096a 3B       		.byte	0x3b
 1361 096b 39090000 		.4byte	0x939
 1362 096f 08       		.byte	0x8
 1363 0970 07       		.uleb128 0x7
 1364 0971 EB020000 		.4byte	.LASF139
ARM GAS  /tmp/cc6awXaY.s 			page 25


 1365 0975 0C       		.byte	0xc
 1366 0976 3D       		.byte	0x3d
 1367 0977 39090000 		.4byte	0x939
 1368 097b 20       		.byte	0x20
 1369 097c 00       		.byte	0
 1370 097d 04       		.uleb128 0x4
 1371 097e 99020000 		.4byte	.LASF140
 1372 0982 0C       		.byte	0xc
 1373 0983 3F       		.byte	0x3f
 1374 0984 44090000 		.4byte	0x944
 1375 0988 1C       		.uleb128 0x1c
 1376 0989 04       		.byte	0x4
 1377 098a 06       		.byte	0x6
 1378 098b FA       		.byte	0xfa
 1379 098c E5090000 		.4byte	0x9e5
 1380 0990 1D       		.uleb128 0x1d
 1381 0991 2F000000 		.4byte	.LASF141
 1382 0995 06       		.byte	0x6
 1383 0996 0101     		.2byte	0x101
 1384 0998 17010000 		.4byte	0x117
 1385 099c 1D       		.uleb128 0x1d
 1386 099d CD000000 		.4byte	.LASF142
 1387 09a1 06       		.byte	0x6
 1388 09a2 0801     		.2byte	0x108
 1389 09a4 17010000 		.4byte	0x117
 1390 09a8 1D       		.uleb128 0x1d
 1391 09a9 1E070000 		.4byte	.LASF143
 1392 09ad 06       		.byte	0x6
 1393 09ae 0F01     		.2byte	0x10f
 1394 09b0 47030000 		.4byte	0x347
 1395 09b4 1D       		.uleb128 0x1d
 1396 09b5 29000000 		.4byte	.LASF144
 1397 09b9 06       		.byte	0x6
 1398 09ba 1601     		.2byte	0x116
 1399 09bc E5090000 		.4byte	0x9e5
 1400 09c0 1D       		.uleb128 0x1d
 1401 09c1 76020000 		.4byte	.LASF145
 1402 09c5 06       		.byte	0x6
 1403 09c6 1E01     		.2byte	0x11e
 1404 09c8 100A0000 		.4byte	0xa10
 1405 09cc 1D       		.uleb128 0x1d
 1406 09cd 21060000 		.4byte	.LASF146
 1407 09d1 06       		.byte	0x6
 1408 09d2 2701     		.2byte	0x127
 1409 09d4 470A0000 		.4byte	0xa47
 1410 09d8 1D       		.uleb128 0x1d
 1411 09d9 A3050000 		.4byte	.LASF147
 1412 09dd 06       		.byte	0x6
 1413 09de 2F01     		.2byte	0x12f
 1414 09e0 22010000 		.4byte	0x122
 1415 09e4 00       		.byte	0
 1416 09e5 0A       		.uleb128 0xa
 1417 09e6 04       		.byte	0x4
 1418 09e7 5F020000 		.4byte	0x25f
 1419 09eb 06       		.uleb128 0x6
 1420 09ec F6050000 		.4byte	.LASF148
 1421 09f0 0C       		.byte	0xc
ARM GAS  /tmp/cc6awXaY.s 			page 26


 1422 09f1 0D       		.byte	0xd
 1423 09f2 34       		.byte	0x34
 1424 09f3 100A0000 		.4byte	0xa10
 1425 09f7 07       		.uleb128 0x7
 1426 09f8 D2010000 		.4byte	.LASF149
 1427 09fc 0D       		.byte	0xd
 1428 09fd 35       		.byte	0x35
 1429 09fe 94020000 		.4byte	0x294
 1430 0a02 00       		.byte	0
 1431 0a03 07       		.uleb128 0x7
 1432 0a04 93020000 		.4byte	.LASF150
 1433 0a08 0D       		.byte	0xd
 1434 0a09 37       		.byte	0x37
 1435 0a0a 2D010000 		.4byte	0x12d
 1436 0a0e 08       		.byte	0x8
 1437 0a0f 00       		.byte	0
 1438 0a10 0A       		.uleb128 0xa
 1439 0a11 04       		.byte	0x4
 1440 0a12 EB090000 		.4byte	0x9eb
 1441 0a16 06       		.uleb128 0x6
 1442 0a17 E5060000 		.4byte	.LASF151
 1443 0a1b 10       		.byte	0x10
 1444 0a1c 0E       		.byte	0xe
 1445 0a1d 39       		.byte	0x39
 1446 0a1e 470A0000 		.4byte	0xa47
 1447 0a22 07       		.uleb128 0x7
 1448 0a23 4A010000 		.4byte	.LASF152
 1449 0a27 0E       		.byte	0xe
 1450 0a28 3A       		.byte	0x3a
 1451 0a29 94020000 		.4byte	0x294
 1452 0a2d 00       		.byte	0
 1453 0a2e 07       		.uleb128 0x7
 1454 0a2f 55070000 		.4byte	.LASF153
 1455 0a33 0E       		.byte	0xe
 1456 0a34 3C       		.byte	0x3c
 1457 0a35 6A020000 		.4byte	0x26a
 1458 0a39 08       		.byte	0x8
 1459 0a3a 07       		.uleb128 0x7
 1460 0a3b 78060000 		.4byte	.LASF154
 1461 0a3f 0E       		.byte	0xe
 1462 0a40 3E       		.byte	0x3e
 1463 0a41 8B0A0000 		.4byte	0xa8b
 1464 0a45 0C       		.byte	0xc
 1465 0a46 00       		.byte	0
 1466 0a47 0A       		.uleb128 0xa
 1467 0a48 04       		.byte	0x4
 1468 0a49 160A0000 		.4byte	0xa16
 1469 0a4d 0A       		.uleb128 0xa
 1470 0a4e 04       		.byte	0x4
 1471 0a4f 5A0A0000 		.4byte	0xa5a
 1472 0a53 03       		.uleb128 0x3
 1473 0a54 01       		.byte	0x1
 1474 0a55 08       		.byte	0x8
 1475 0a56 65060000 		.4byte	.LASF155
 1476 0a5a 18       		.uleb128 0x18
 1477 0a5b 530A0000 		.4byte	0xa53
 1478 0a5f 0A       		.uleb128 0xa
ARM GAS  /tmp/cc6awXaY.s 			page 27


 1479 0a60 04       		.byte	0x4
 1480 0a61 9E070000 		.4byte	0x79e
 1481 0a65 0A       		.uleb128 0xa
 1482 0a66 04       		.byte	0x4
 1483 0a67 49030000 		.4byte	0x349
 1484 0a6b 05       		.uleb128 0x5
 1485 0a6c 4D0A0000 		.4byte	0xa4d
 1486 0a70 13       		.uleb128 0x13
 1487 0a71 9E070000 		.4byte	0x79e
 1488 0a75 800A0000 		.4byte	0xa80
 1489 0a79 14       		.uleb128 0x14
 1490 0a7a 82050000 		.4byte	0x582
 1491 0a7e 1E       		.byte	0x1e
 1492 0a7f 00       		.byte	0
 1493 0a80 04       		.uleb128 0x4
 1494 0a81 1E020000 		.4byte	.LASF156
 1495 0a85 0E       		.byte	0xe
 1496 0a86 34       		.byte	0x34
 1497 0a87 160A0000 		.4byte	0xa16
 1498 0a8b 0A       		.uleb128 0xa
 1499 0a8c 04       		.byte	0x4
 1500 0a8d 800A0000 		.4byte	0xa80
 1501 0a91 03       		.uleb128 0x3
 1502 0a92 01       		.byte	0x1
 1503 0a93 02       		.byte	0x2
 1504 0a94 4B040000 		.4byte	.LASF157
 1505 0a98 1E       		.uleb128 0x1e
 1506 0a99 12010000 		.4byte	.LASF159
 1507 0a9d 01       		.byte	0x1
 1508 0a9e 39       		.byte	0x39
 1509 0a9f 00000000 		.4byte	.LFB258
 1510 0aa3 32000000 		.4byte	.LFE258-.LFB258
 1511 0aa7 01       		.uleb128 0x1
 1512 0aa8 9C       		.byte	0x9c
 1513 0aa9 CA0A0000 		.4byte	0xaca
 1514 0aad 1F       		.uleb128 0x1f
 1515 0aae 6E00     		.ascii	"n\000"
 1516 0ab0 01       		.byte	0x1
 1517 0ab1 39       		.byte	0x39
 1518 0ab2 B0000000 		.4byte	0xb0
 1519 0ab6 00000000 		.4byte	.LLST0
 1520 0aba 20       		.uleb128 0x20
 1521 0abb E0030000 		.4byte	.LASF158
 1522 0abf 01       		.byte	0x1
 1523 0ac0 39       		.byte	0x39
 1524 0ac1 B0000000 		.4byte	0xb0
 1525 0ac5 32000000 		.4byte	.LLST1
 1526 0ac9 00       		.byte	0
 1527 0aca 1E       		.uleb128 0x1e
 1528 0acb 64020000 		.4byte	.LASF160
 1529 0acf 01       		.byte	0x1
 1530 0ad0 45       		.byte	0x45
 1531 0ad1 00000000 		.4byte	.LFB259
 1532 0ad5 24000000 		.4byte	.LFE259-.LFB259
 1533 0ad9 01       		.uleb128 0x1
 1534 0ada 9C       		.byte	0x9c
 1535 0adb ED0A0000 		.4byte	0xaed
ARM GAS  /tmp/cc6awXaY.s 			page 28


 1536 0adf 1F       		.uleb128 0x1f
 1537 0ae0 6E00     		.ascii	"n\000"
 1538 0ae2 01       		.byte	0x1
 1539 0ae3 45       		.byte	0x45
 1540 0ae4 B0000000 		.4byte	0xb0
 1541 0ae8 53000000 		.4byte	.LLST2
 1542 0aec 00       		.byte	0
 1543 0aed 1E       		.uleb128 0x1e
 1544 0aee A5040000 		.4byte	.LASF161
 1545 0af2 01       		.byte	0x1
 1546 0af3 51       		.byte	0x51
 1547 0af4 00000000 		.4byte	.LFB260
 1548 0af8 24000000 		.4byte	.LFE260-.LFB260
 1549 0afc 01       		.uleb128 0x1
 1550 0afd 9C       		.byte	0x9c
 1551 0afe 430B0000 		.4byte	0xb43
 1552 0b02 20       		.uleb128 0x20
 1553 0b03 25030000 		.4byte	.LASF162
 1554 0b07 01       		.byte	0x1
 1555 0b08 51       		.byte	0x51
 1556 0b09 B0000000 		.4byte	0xb0
 1557 0b0d 77000000 		.4byte	.LLST3
 1558 0b11 20       		.uleb128 0x20
 1559 0b12 E0030000 		.4byte	.LASF158
 1560 0b16 01       		.byte	0x1
 1561 0b17 51       		.byte	0x51
 1562 0b18 B0000000 		.4byte	0xb0
 1563 0b1c A6000000 		.4byte	.LLST4
 1564 0b20 21       		.uleb128 0x21
 1565 0b21 C1050000 		.4byte	.LASF167
 1566 0b25 530B0000 		.4byte	0xb53
 1567 0b29 05       		.uleb128 0x5
 1568 0b2a 03       		.byte	0x3
 1569 0b2b 00000000 		.4byte	__func__.7110
 1570 0b2f 22       		.uleb128 0x22
 1571 0b30 10000000 		.4byte	.LVL8
 1572 0b34 920B0000 		.4byte	0xb92
 1573 0b38 23       		.uleb128 0x23
 1574 0b39 01       		.uleb128 0x1
 1575 0b3a 50       		.byte	0x50
 1576 0b3b 05       		.uleb128 0x5
 1577 0b3c 03       		.byte	0x3
 1578 0b3d 00000000 		.4byte	.LANCHOR0
 1579 0b41 00       		.byte	0
 1580 0b42 00       		.byte	0
 1581 0b43 13       		.uleb128 0x13
 1582 0b44 5A0A0000 		.4byte	0xa5a
 1583 0b48 530B0000 		.4byte	0xb53
 1584 0b4c 14       		.uleb128 0x14
 1585 0b4d 82050000 		.4byte	0x582
 1586 0b51 1C       		.byte	0x1c
 1587 0b52 00       		.byte	0
 1588 0b53 18       		.uleb128 0x18
 1589 0b54 430B0000 		.4byte	0xb43
 1590 0b58 1E       		.uleb128 0x1e
 1591 0b59 52010000 		.4byte	.LASF163
 1592 0b5d 01       		.byte	0x1
ARM GAS  /tmp/cc6awXaY.s 			page 29


 1593 0b5e 5D       		.byte	0x5d
 1594 0b5f 00000000 		.4byte	.LFB261
 1595 0b63 1C000000 		.4byte	.LFE261-.LFB261
 1596 0b67 01       		.uleb128 0x1
 1597 0b68 9C       		.byte	0x9c
 1598 0b69 7B0B0000 		.4byte	0xb7b
 1599 0b6d 1F       		.uleb128 0x1f
 1600 0b6e 6E00     		.ascii	"n\000"
 1601 0b70 01       		.byte	0x1
 1602 0b71 5D       		.byte	0x5d
 1603 0b72 B0000000 		.4byte	0xb0
 1604 0b76 D2000000 		.4byte	.LLST5
 1605 0b7a 00       		.byte	0
 1606 0b7b 24       		.uleb128 0x24
 1607 0b7c 6D040000 		.4byte	.LASF164
 1608 0b80 07       		.byte	0x7
 1609 0b81 A706     		.2byte	0x6a7
 1610 0b83 CB000000 		.4byte	0xcb
 1611 0b87 25       		.uleb128 0x25
 1612 0b88 636800   		.ascii	"ch\000"
 1613 0b8b 06       		.byte	0x6
 1614 0b8c 0902     		.2byte	0x209
 1615 0b8e 3E040000 		.4byte	0x43e
 1616 0b92 26       		.uleb128 0x26
 1617 0b93 47030000 		.4byte	.LASF168
 1618 0b97 47030000 		.4byte	.LASF168
 1619 0b9b 0F       		.byte	0xf
 1620 0b9c 1601     		.2byte	0x116
 1621 0b9e 00       		.byte	0
 1622              		.section	.debug_abbrev,"",%progbits
 1623              	.Ldebug_abbrev0:
 1624 0000 01       		.uleb128 0x1
 1625 0001 11       		.uleb128 0x11
 1626 0002 01       		.byte	0x1
 1627 0003 25       		.uleb128 0x25
 1628 0004 0E       		.uleb128 0xe
 1629 0005 13       		.uleb128 0x13
 1630 0006 0B       		.uleb128 0xb
 1631 0007 03       		.uleb128 0x3
 1632 0008 0E       		.uleb128 0xe
 1633 0009 55       		.uleb128 0x55
 1634 000a 17       		.uleb128 0x17
 1635 000b 11       		.uleb128 0x11
 1636 000c 01       		.uleb128 0x1
 1637 000d 10       		.uleb128 0x10
 1638 000e 17       		.uleb128 0x17
 1639 000f 00       		.byte	0
 1640 0010 00       		.byte	0
 1641 0011 02       		.uleb128 0x2
 1642 0012 24       		.uleb128 0x24
 1643 0013 00       		.byte	0
 1644 0014 0B       		.uleb128 0xb
 1645 0015 0B       		.uleb128 0xb
 1646 0016 3E       		.uleb128 0x3e
 1647 0017 0B       		.uleb128 0xb
 1648 0018 03       		.uleb128 0x3
 1649 0019 08       		.uleb128 0x8
ARM GAS  /tmp/cc6awXaY.s 			page 30


 1650 001a 00       		.byte	0
 1651 001b 00       		.byte	0
 1652 001c 03       		.uleb128 0x3
 1653 001d 24       		.uleb128 0x24
 1654 001e 00       		.byte	0
 1655 001f 0B       		.uleb128 0xb
 1656 0020 0B       		.uleb128 0xb
 1657 0021 3E       		.uleb128 0x3e
 1658 0022 0B       		.uleb128 0xb
 1659 0023 03       		.uleb128 0x3
 1660 0024 0E       		.uleb128 0xe
 1661 0025 00       		.byte	0
 1662 0026 00       		.byte	0
 1663 0027 04       		.uleb128 0x4
 1664 0028 16       		.uleb128 0x16
 1665 0029 00       		.byte	0
 1666 002a 03       		.uleb128 0x3
 1667 002b 0E       		.uleb128 0xe
 1668 002c 3A       		.uleb128 0x3a
 1669 002d 0B       		.uleb128 0xb
 1670 002e 3B       		.uleb128 0x3b
 1671 002f 0B       		.uleb128 0xb
 1672 0030 49       		.uleb128 0x49
 1673 0031 13       		.uleb128 0x13
 1674 0032 00       		.byte	0
 1675 0033 00       		.byte	0
 1676 0034 05       		.uleb128 0x5
 1677 0035 35       		.uleb128 0x35
 1678 0036 00       		.byte	0
 1679 0037 49       		.uleb128 0x49
 1680 0038 13       		.uleb128 0x13
 1681 0039 00       		.byte	0
 1682 003a 00       		.byte	0
 1683 003b 06       		.uleb128 0x6
 1684 003c 13       		.uleb128 0x13
 1685 003d 01       		.byte	0x1
 1686 003e 03       		.uleb128 0x3
 1687 003f 0E       		.uleb128 0xe
 1688 0040 0B       		.uleb128 0xb
 1689 0041 0B       		.uleb128 0xb
 1690 0042 3A       		.uleb128 0x3a
 1691 0043 0B       		.uleb128 0xb
 1692 0044 3B       		.uleb128 0x3b
 1693 0045 0B       		.uleb128 0xb
 1694 0046 01       		.uleb128 0x1
 1695 0047 13       		.uleb128 0x13
 1696 0048 00       		.byte	0
 1697 0049 00       		.byte	0
 1698 004a 07       		.uleb128 0x7
 1699 004b 0D       		.uleb128 0xd
 1700 004c 00       		.byte	0
 1701 004d 03       		.uleb128 0x3
 1702 004e 0E       		.uleb128 0xe
 1703 004f 3A       		.uleb128 0x3a
 1704 0050 0B       		.uleb128 0xb
 1705 0051 3B       		.uleb128 0x3b
 1706 0052 0B       		.uleb128 0xb
ARM GAS  /tmp/cc6awXaY.s 			page 31


 1707 0053 49       		.uleb128 0x49
 1708 0054 13       		.uleb128 0x13
 1709 0055 38       		.uleb128 0x38
 1710 0056 0B       		.uleb128 0xb
 1711 0057 00       		.byte	0
 1712 0058 00       		.byte	0
 1713 0059 08       		.uleb128 0x8
 1714 005a 0D       		.uleb128 0xd
 1715 005b 00       		.byte	0
 1716 005c 03       		.uleb128 0x3
 1717 005d 08       		.uleb128 0x8
 1718 005e 3A       		.uleb128 0x3a
 1719 005f 0B       		.uleb128 0xb
 1720 0060 3B       		.uleb128 0x3b
 1721 0061 05       		.uleb128 0x5
 1722 0062 49       		.uleb128 0x49
 1723 0063 13       		.uleb128 0x13
 1724 0064 38       		.uleb128 0x38
 1725 0065 0B       		.uleb128 0xb
 1726 0066 00       		.byte	0
 1727 0067 00       		.byte	0
 1728 0068 09       		.uleb128 0x9
 1729 0069 0D       		.uleb128 0xd
 1730 006a 00       		.byte	0
 1731 006b 03       		.uleb128 0x3
 1732 006c 0E       		.uleb128 0xe
 1733 006d 3A       		.uleb128 0x3a
 1734 006e 0B       		.uleb128 0xb
 1735 006f 3B       		.uleb128 0x3b
 1736 0070 05       		.uleb128 0x5
 1737 0071 49       		.uleb128 0x49
 1738 0072 13       		.uleb128 0x13
 1739 0073 38       		.uleb128 0x38
 1740 0074 0B       		.uleb128 0xb
 1741 0075 00       		.byte	0
 1742 0076 00       		.byte	0
 1743 0077 0A       		.uleb128 0xa
 1744 0078 0F       		.uleb128 0xf
 1745 0079 00       		.byte	0
 1746 007a 0B       		.uleb128 0xb
 1747 007b 0B       		.uleb128 0xb
 1748 007c 49       		.uleb128 0x49
 1749 007d 13       		.uleb128 0x13
 1750 007e 00       		.byte	0
 1751 007f 00       		.byte	0
 1752 0080 0B       		.uleb128 0xb
 1753 0081 13       		.uleb128 0x13
 1754 0082 01       		.byte	0x1
 1755 0083 03       		.uleb128 0x3
 1756 0084 0E       		.uleb128 0xe
 1757 0085 0B       		.uleb128 0xb
 1758 0086 0B       		.uleb128 0xb
 1759 0087 3A       		.uleb128 0x3a
 1760 0088 0B       		.uleb128 0xb
 1761 0089 3B       		.uleb128 0x3b
 1762 008a 05       		.uleb128 0x5
 1763 008b 01       		.uleb128 0x1
ARM GAS  /tmp/cc6awXaY.s 			page 32


 1764 008c 13       		.uleb128 0x13
 1765 008d 00       		.byte	0
 1766 008e 00       		.byte	0
 1767 008f 0C       		.uleb128 0xc
 1768 0090 15       		.uleb128 0x15
 1769 0091 01       		.byte	0x1
 1770 0092 27       		.uleb128 0x27
 1771 0093 19       		.uleb128 0x19
 1772 0094 01       		.uleb128 0x1
 1773 0095 13       		.uleb128 0x13
 1774 0096 00       		.byte	0
 1775 0097 00       		.byte	0
 1776 0098 0D       		.uleb128 0xd
 1777 0099 05       		.uleb128 0x5
 1778 009a 00       		.byte	0
 1779 009b 49       		.uleb128 0x49
 1780 009c 13       		.uleb128 0x13
 1781 009d 00       		.byte	0
 1782 009e 00       		.byte	0
 1783 009f 0E       		.uleb128 0xe
 1784 00a0 0F       		.uleb128 0xf
 1785 00a1 00       		.byte	0
 1786 00a2 0B       		.uleb128 0xb
 1787 00a3 0B       		.uleb128 0xb
 1788 00a4 00       		.byte	0
 1789 00a5 00       		.byte	0
 1790 00a6 0F       		.uleb128 0xf
 1791 00a7 13       		.uleb128 0x13
 1792 00a8 01       		.byte	0x1
 1793 00a9 03       		.uleb128 0x3
 1794 00aa 0E       		.uleb128 0xe
 1795 00ab 0B       		.uleb128 0xb
 1796 00ac 05       		.uleb128 0x5
 1797 00ad 3A       		.uleb128 0x3a
 1798 00ae 0B       		.uleb128 0xb
 1799 00af 3B       		.uleb128 0x3b
 1800 00b0 05       		.uleb128 0x5
 1801 00b1 01       		.uleb128 0x1
 1802 00b2 13       		.uleb128 0x13
 1803 00b3 00       		.byte	0
 1804 00b4 00       		.byte	0
 1805 00b5 10       		.uleb128 0x10
 1806 00b6 0D       		.uleb128 0xd
 1807 00b7 00       		.byte	0
 1808 00b8 03       		.uleb128 0x3
 1809 00b9 0E       		.uleb128 0xe
 1810 00ba 3A       		.uleb128 0x3a
 1811 00bb 0B       		.uleb128 0xb
 1812 00bc 3B       		.uleb128 0x3b
 1813 00bd 05       		.uleb128 0x5
 1814 00be 49       		.uleb128 0x49
 1815 00bf 13       		.uleb128 0x13
 1816 00c0 38       		.uleb128 0x38
 1817 00c1 05       		.uleb128 0x5
 1818 00c2 00       		.byte	0
 1819 00c3 00       		.byte	0
 1820 00c4 11       		.uleb128 0x11
ARM GAS  /tmp/cc6awXaY.s 			page 33


 1821 00c5 0D       		.uleb128 0xd
 1822 00c6 00       		.byte	0
 1823 00c7 03       		.uleb128 0x3
 1824 00c8 08       		.uleb128 0x8
 1825 00c9 3A       		.uleb128 0x3a
 1826 00ca 0B       		.uleb128 0xb
 1827 00cb 3B       		.uleb128 0x3b
 1828 00cc 05       		.uleb128 0x5
 1829 00cd 49       		.uleb128 0x49
 1830 00ce 13       		.uleb128 0x13
 1831 00cf 38       		.uleb128 0x38
 1832 00d0 05       		.uleb128 0x5
 1833 00d1 00       		.byte	0
 1834 00d2 00       		.byte	0
 1835 00d3 12       		.uleb128 0x12
 1836 00d4 13       		.uleb128 0x13
 1837 00d5 01       		.byte	0x1
 1838 00d6 0B       		.uleb128 0xb
 1839 00d7 05       		.uleb128 0x5
 1840 00d8 3A       		.uleb128 0x3a
 1841 00d9 0B       		.uleb128 0xb
 1842 00da 3B       		.uleb128 0x3b
 1843 00db 05       		.uleb128 0x5
 1844 00dc 01       		.uleb128 0x1
 1845 00dd 13       		.uleb128 0x13
 1846 00de 00       		.byte	0
 1847 00df 00       		.byte	0
 1848 00e0 13       		.uleb128 0x13
 1849 00e1 01       		.uleb128 0x1
 1850 00e2 01       		.byte	0x1
 1851 00e3 49       		.uleb128 0x49
 1852 00e4 13       		.uleb128 0x13
 1853 00e5 01       		.uleb128 0x1
 1854 00e6 13       		.uleb128 0x13
 1855 00e7 00       		.byte	0
 1856 00e8 00       		.byte	0
 1857 00e9 14       		.uleb128 0x14
 1858 00ea 21       		.uleb128 0x21
 1859 00eb 00       		.byte	0
 1860 00ec 49       		.uleb128 0x49
 1861 00ed 13       		.uleb128 0x13
 1862 00ee 2F       		.uleb128 0x2f
 1863 00ef 0B       		.uleb128 0xb
 1864 00f0 00       		.byte	0
 1865 00f1 00       		.byte	0
 1866 00f2 15       		.uleb128 0x15
 1867 00f3 21       		.uleb128 0x21
 1868 00f4 00       		.byte	0
 1869 00f5 49       		.uleb128 0x49
 1870 00f6 13       		.uleb128 0x13
 1871 00f7 2F       		.uleb128 0x2f
 1872 00f8 05       		.uleb128 0x5
 1873 00f9 00       		.byte	0
 1874 00fa 00       		.byte	0
 1875 00fb 16       		.uleb128 0x16
 1876 00fc 16       		.uleb128 0x16
 1877 00fd 00       		.byte	0
ARM GAS  /tmp/cc6awXaY.s 			page 34


 1878 00fe 03       		.uleb128 0x3
 1879 00ff 0E       		.uleb128 0xe
 1880 0100 3A       		.uleb128 0x3a
 1881 0101 0B       		.uleb128 0xb
 1882 0102 3B       		.uleb128 0x3b
 1883 0103 05       		.uleb128 0x5
 1884 0104 49       		.uleb128 0x49
 1885 0105 13       		.uleb128 0x13
 1886 0106 00       		.byte	0
 1887 0107 00       		.byte	0
 1888 0108 17       		.uleb128 0x17
 1889 0109 13       		.uleb128 0x13
 1890 010a 01       		.byte	0x1
 1891 010b 0B       		.uleb128 0xb
 1892 010c 0B       		.uleb128 0xb
 1893 010d 3A       		.uleb128 0x3a
 1894 010e 0B       		.uleb128 0xb
 1895 010f 3B       		.uleb128 0x3b
 1896 0110 05       		.uleb128 0x5
 1897 0111 01       		.uleb128 0x1
 1898 0112 13       		.uleb128 0x13
 1899 0113 00       		.byte	0
 1900 0114 00       		.byte	0
 1901 0115 18       		.uleb128 0x18
 1902 0116 26       		.uleb128 0x26
 1903 0117 00       		.byte	0
 1904 0118 49       		.uleb128 0x49
 1905 0119 13       		.uleb128 0x13
 1906 011a 00       		.byte	0
 1907 011b 00       		.byte	0
 1908 011c 19       		.uleb128 0x19
 1909 011d 0D       		.uleb128 0xd
 1910 011e 00       		.byte	0
 1911 011f 03       		.uleb128 0x3
 1912 0120 08       		.uleb128 0x8
 1913 0121 3A       		.uleb128 0x3a
 1914 0122 0B       		.uleb128 0xb
 1915 0123 3B       		.uleb128 0x3b
 1916 0124 0B       		.uleb128 0xb
 1917 0125 49       		.uleb128 0x49
 1918 0126 13       		.uleb128 0x13
 1919 0127 38       		.uleb128 0x38
 1920 0128 0B       		.uleb128 0xb
 1921 0129 00       		.byte	0
 1922 012a 00       		.byte	0
 1923 012b 1A       		.uleb128 0x1a
 1924 012c 13       		.uleb128 0x13
 1925 012d 01       		.byte	0x1
 1926 012e 0B       		.uleb128 0xb
 1927 012f 0B       		.uleb128 0xb
 1928 0130 3A       		.uleb128 0x3a
 1929 0131 0B       		.uleb128 0xb
 1930 0132 3B       		.uleb128 0x3b
 1931 0133 0B       		.uleb128 0xb
 1932 0134 01       		.uleb128 0x1
 1933 0135 13       		.uleb128 0x13
 1934 0136 00       		.byte	0
ARM GAS  /tmp/cc6awXaY.s 			page 35


 1935 0137 00       		.byte	0
 1936 0138 1B       		.uleb128 0x1b
 1937 0139 13       		.uleb128 0x13
 1938 013a 01       		.byte	0x1
 1939 013b 0B       		.uleb128 0xb
 1940 013c 05       		.uleb128 0x5
 1941 013d 3A       		.uleb128 0x3a
 1942 013e 0B       		.uleb128 0xb
 1943 013f 3B       		.uleb128 0x3b
 1944 0140 0B       		.uleb128 0xb
 1945 0141 01       		.uleb128 0x1
 1946 0142 13       		.uleb128 0x13
 1947 0143 00       		.byte	0
 1948 0144 00       		.byte	0
 1949 0145 1C       		.uleb128 0x1c
 1950 0146 17       		.uleb128 0x17
 1951 0147 01       		.byte	0x1
 1952 0148 0B       		.uleb128 0xb
 1953 0149 0B       		.uleb128 0xb
 1954 014a 3A       		.uleb128 0x3a
 1955 014b 0B       		.uleb128 0xb
 1956 014c 3B       		.uleb128 0x3b
 1957 014d 0B       		.uleb128 0xb
 1958 014e 01       		.uleb128 0x1
 1959 014f 13       		.uleb128 0x13
 1960 0150 00       		.byte	0
 1961 0151 00       		.byte	0
 1962 0152 1D       		.uleb128 0x1d
 1963 0153 0D       		.uleb128 0xd
 1964 0154 00       		.byte	0
 1965 0155 03       		.uleb128 0x3
 1966 0156 0E       		.uleb128 0xe
 1967 0157 3A       		.uleb128 0x3a
 1968 0158 0B       		.uleb128 0xb
 1969 0159 3B       		.uleb128 0x3b
 1970 015a 05       		.uleb128 0x5
 1971 015b 49       		.uleb128 0x49
 1972 015c 13       		.uleb128 0x13
 1973 015d 00       		.byte	0
 1974 015e 00       		.byte	0
 1975 015f 1E       		.uleb128 0x1e
 1976 0160 2E       		.uleb128 0x2e
 1977 0161 01       		.byte	0x1
 1978 0162 3F       		.uleb128 0x3f
 1979 0163 19       		.uleb128 0x19
 1980 0164 03       		.uleb128 0x3
 1981 0165 0E       		.uleb128 0xe
 1982 0166 3A       		.uleb128 0x3a
 1983 0167 0B       		.uleb128 0xb
 1984 0168 3B       		.uleb128 0x3b
 1985 0169 0B       		.uleb128 0xb
 1986 016a 27       		.uleb128 0x27
 1987 016b 19       		.uleb128 0x19
 1988 016c 11       		.uleb128 0x11
 1989 016d 01       		.uleb128 0x1
 1990 016e 12       		.uleb128 0x12
 1991 016f 06       		.uleb128 0x6
ARM GAS  /tmp/cc6awXaY.s 			page 36


 1992 0170 40       		.uleb128 0x40
 1993 0171 18       		.uleb128 0x18
 1994 0172 9742     		.uleb128 0x2117
 1995 0174 19       		.uleb128 0x19
 1996 0175 01       		.uleb128 0x1
 1997 0176 13       		.uleb128 0x13
 1998 0177 00       		.byte	0
 1999 0178 00       		.byte	0
 2000 0179 1F       		.uleb128 0x1f
 2001 017a 05       		.uleb128 0x5
 2002 017b 00       		.byte	0
 2003 017c 03       		.uleb128 0x3
 2004 017d 08       		.uleb128 0x8
 2005 017e 3A       		.uleb128 0x3a
 2006 017f 0B       		.uleb128 0xb
 2007 0180 3B       		.uleb128 0x3b
 2008 0181 0B       		.uleb128 0xb
 2009 0182 49       		.uleb128 0x49
 2010 0183 13       		.uleb128 0x13
 2011 0184 02       		.uleb128 0x2
 2012 0185 17       		.uleb128 0x17
 2013 0186 00       		.byte	0
 2014 0187 00       		.byte	0
 2015 0188 20       		.uleb128 0x20
 2016 0189 05       		.uleb128 0x5
 2017 018a 00       		.byte	0
 2018 018b 03       		.uleb128 0x3
 2019 018c 0E       		.uleb128 0xe
 2020 018d 3A       		.uleb128 0x3a
 2021 018e 0B       		.uleb128 0xb
 2022 018f 3B       		.uleb128 0x3b
 2023 0190 0B       		.uleb128 0xb
 2024 0191 49       		.uleb128 0x49
 2025 0192 13       		.uleb128 0x13
 2026 0193 02       		.uleb128 0x2
 2027 0194 17       		.uleb128 0x17
 2028 0195 00       		.byte	0
 2029 0196 00       		.byte	0
 2030 0197 21       		.uleb128 0x21
 2031 0198 34       		.uleb128 0x34
 2032 0199 00       		.byte	0
 2033 019a 03       		.uleb128 0x3
 2034 019b 0E       		.uleb128 0xe
 2035 019c 49       		.uleb128 0x49
 2036 019d 13       		.uleb128 0x13
 2037 019e 34       		.uleb128 0x34
 2038 019f 19       		.uleb128 0x19
 2039 01a0 02       		.uleb128 0x2
 2040 01a1 18       		.uleb128 0x18
 2041 01a2 00       		.byte	0
 2042 01a3 00       		.byte	0
 2043 01a4 22       		.uleb128 0x22
 2044 01a5 898201   		.uleb128 0x4109
 2045 01a8 01       		.byte	0x1
 2046 01a9 11       		.uleb128 0x11
 2047 01aa 01       		.uleb128 0x1
 2048 01ab 31       		.uleb128 0x31
ARM GAS  /tmp/cc6awXaY.s 			page 37


 2049 01ac 13       		.uleb128 0x13
 2050 01ad 00       		.byte	0
 2051 01ae 00       		.byte	0
 2052 01af 23       		.uleb128 0x23
 2053 01b0 8A8201   		.uleb128 0x410a
 2054 01b3 00       		.byte	0
 2055 01b4 02       		.uleb128 0x2
 2056 01b5 18       		.uleb128 0x18
 2057 01b6 9142     		.uleb128 0x2111
 2058 01b8 18       		.uleb128 0x18
 2059 01b9 00       		.byte	0
 2060 01ba 00       		.byte	0
 2061 01bb 24       		.uleb128 0x24
 2062 01bc 34       		.uleb128 0x34
 2063 01bd 00       		.byte	0
 2064 01be 03       		.uleb128 0x3
 2065 01bf 0E       		.uleb128 0xe
 2066 01c0 3A       		.uleb128 0x3a
 2067 01c1 0B       		.uleb128 0xb
 2068 01c2 3B       		.uleb128 0x3b
 2069 01c3 05       		.uleb128 0x5
 2070 01c4 49       		.uleb128 0x49
 2071 01c5 13       		.uleb128 0x13
 2072 01c6 3F       		.uleb128 0x3f
 2073 01c7 19       		.uleb128 0x19
 2074 01c8 3C       		.uleb128 0x3c
 2075 01c9 19       		.uleb128 0x19
 2076 01ca 00       		.byte	0
 2077 01cb 00       		.byte	0
 2078 01cc 25       		.uleb128 0x25
 2079 01cd 34       		.uleb128 0x34
 2080 01ce 00       		.byte	0
 2081 01cf 03       		.uleb128 0x3
 2082 01d0 08       		.uleb128 0x8
 2083 01d1 3A       		.uleb128 0x3a
 2084 01d2 0B       		.uleb128 0xb
 2085 01d3 3B       		.uleb128 0x3b
 2086 01d4 05       		.uleb128 0x5
 2087 01d5 49       		.uleb128 0x49
 2088 01d6 13       		.uleb128 0x13
 2089 01d7 3F       		.uleb128 0x3f
 2090 01d8 19       		.uleb128 0x19
 2091 01d9 3C       		.uleb128 0x3c
 2092 01da 19       		.uleb128 0x19
 2093 01db 00       		.byte	0
 2094 01dc 00       		.byte	0
 2095 01dd 26       		.uleb128 0x26
 2096 01de 2E       		.uleb128 0x2e
 2097 01df 00       		.byte	0
 2098 01e0 3F       		.uleb128 0x3f
 2099 01e1 19       		.uleb128 0x19
 2100 01e2 3C       		.uleb128 0x3c
 2101 01e3 19       		.uleb128 0x19
 2102 01e4 6E       		.uleb128 0x6e
 2103 01e5 0E       		.uleb128 0xe
 2104 01e6 03       		.uleb128 0x3
 2105 01e7 0E       		.uleb128 0xe
ARM GAS  /tmp/cc6awXaY.s 			page 38


 2106 01e8 3A       		.uleb128 0x3a
 2107 01e9 0B       		.uleb128 0xb
 2108 01ea 3B       		.uleb128 0x3b
 2109 01eb 05       		.uleb128 0x5
 2110 01ec 00       		.byte	0
 2111 01ed 00       		.byte	0
 2112 01ee 00       		.byte	0
 2113              		.section	.debug_loc,"",%progbits
 2114              	.Ldebug_loc0:
 2115              	.LLST0:
 2116 0000 00000000 		.4byte	.LVL0
 2117 0004 1C000000 		.4byte	.LVL2
 2118 0008 0100     		.2byte	0x1
 2119 000a 50       		.byte	0x50
 2120 000b 1C000000 		.4byte	.LVL2
 2121 000f 30000000 		.4byte	.LVL3
 2122 0013 0700     		.2byte	0x7
 2123 0015 74       		.byte	0x74
 2124 0016 80BEFCFF 		.sleb128 536813312
 2124      01
 2125 001b 9F       		.byte	0x9f
 2126 001c 30000000 		.4byte	.LVL3
 2127 0020 32000000 		.4byte	.LFE258
 2128 0024 0400     		.2byte	0x4
 2129 0026 F3       		.byte	0xf3
 2130 0027 01       		.uleb128 0x1
 2131 0028 50       		.byte	0x50
 2132 0029 9F       		.byte	0x9f
 2133 002a 00000000 		.4byte	0
 2134 002e 00000000 		.4byte	0
 2135              	.LLST1:
 2136 0032 00000000 		.4byte	.LVL0
 2137 0036 18000000 		.4byte	.LVL1
 2138 003a 0100     		.2byte	0x1
 2139 003c 51       		.byte	0x51
 2140 003d 18000000 		.4byte	.LVL1
 2141 0041 32000000 		.4byte	.LFE258
 2142 0045 0400     		.2byte	0x4
 2143 0047 F3       		.byte	0xf3
 2144 0048 01       		.uleb128 0x1
 2145 0049 51       		.byte	0x51
 2146 004a 9F       		.byte	0x9f
 2147 004b 00000000 		.4byte	0
 2148 004f 00000000 		.4byte	0
 2149              	.LLST2:
 2150 0053 00000000 		.4byte	.LVL4
 2151 0057 10000000 		.4byte	.LVL5
 2152 005b 0100     		.2byte	0x1
 2153 005d 50       		.byte	0x50
 2154 005e 10000000 		.4byte	.LVL5
 2155 0062 24000000 		.4byte	.LFE259
 2156 0066 0700     		.2byte	0x7
 2157 0068 70       		.byte	0x70
 2158 0069 80BEFCFF 		.sleb128 536813312
 2158      01
 2159 006e 9F       		.byte	0x9f
 2160 006f 00000000 		.4byte	0
ARM GAS  /tmp/cc6awXaY.s 			page 39


 2161 0073 00000000 		.4byte	0
 2162              	.LLST3:
 2163 0077 00000000 		.4byte	.LVL6
 2164 007b 0C000000 		.4byte	.LVL7
 2165 007f 0100     		.2byte	0x1
 2166 0081 50       		.byte	0x50
 2167 0082 0C000000 		.4byte	.LVL7
 2168 0086 20000000 		.4byte	.LVL10
 2169 008a 0100     		.2byte	0x1
 2170 008c 54       		.byte	0x54
 2171 008d 20000000 		.4byte	.LVL10
 2172 0091 24000000 		.4byte	.LFE260
 2173 0095 0700     		.2byte	0x7
 2174 0097 70       		.byte	0x70
 2175 0098 80A6FCFF 		.sleb128 536810240
 2175      01
 2176 009d 9F       		.byte	0x9f
 2177 009e 00000000 		.4byte	0
 2178 00a2 00000000 		.4byte	0
 2179              	.LLST4:
 2180 00a6 00000000 		.4byte	.LVL6
 2181 00aa 0F000000 		.4byte	.LVL8-1
 2182 00ae 0100     		.2byte	0x1
 2183 00b0 51       		.byte	0x51
 2184 00b1 0F000000 		.4byte	.LVL8-1
 2185 00b5 1A000000 		.4byte	.LVL9
 2186 00b9 0100     		.2byte	0x1
 2187 00bb 55       		.byte	0x55
 2188 00bc 1A000000 		.4byte	.LVL9
 2189 00c0 24000000 		.4byte	.LFE260
 2190 00c4 0400     		.2byte	0x4
 2191 00c6 F3       		.byte	0xf3
 2192 00c7 01       		.uleb128 0x1
 2193 00c8 51       		.byte	0x51
 2194 00c9 9F       		.byte	0x9f
 2195 00ca 00000000 		.4byte	0
 2196 00ce 00000000 		.4byte	0
 2197              	.LLST5:
 2198 00d2 00000000 		.4byte	.LVL11
 2199 00d6 08000000 		.4byte	.LVL12
 2200 00da 0100     		.2byte	0x1
 2201 00dc 50       		.byte	0x50
 2202 00dd 08000000 		.4byte	.LVL12
 2203 00e1 1C000000 		.4byte	.LFE261
 2204 00e5 0400     		.2byte	0x4
 2205 00e7 F3       		.byte	0xf3
 2206 00e8 01       		.uleb128 0x1
 2207 00e9 50       		.byte	0x50
 2208 00ea 9F       		.byte	0x9f
 2209 00eb 00000000 		.4byte	0
 2210 00ef 00000000 		.4byte	0
 2211              		.section	.debug_aranges,"",%progbits
 2212 0000 34000000 		.4byte	0x34
 2213 0004 0200     		.2byte	0x2
 2214 0006 00000000 		.4byte	.Ldebug_info0
 2215 000a 04       		.byte	0x4
 2216 000b 00       		.byte	0
ARM GAS  /tmp/cc6awXaY.s 			page 40


 2217 000c 0000     		.2byte	0
 2218 000e 0000     		.2byte	0
 2219 0010 00000000 		.4byte	.LFB258
 2220 0014 32000000 		.4byte	.LFE258-.LFB258
 2221 0018 00000000 		.4byte	.LFB259
 2222 001c 24000000 		.4byte	.LFE259-.LFB259
 2223 0020 00000000 		.4byte	.LFB260
 2224 0024 24000000 		.4byte	.LFE260-.LFB260
 2225 0028 00000000 		.4byte	.LFB261
 2226 002c 1C000000 		.4byte	.LFE261-.LFB261
 2227 0030 00000000 		.4byte	0
 2228 0034 00000000 		.4byte	0
 2229              		.section	.debug_ranges,"",%progbits
 2230              	.Ldebug_ranges0:
 2231 0000 00000000 		.4byte	.LFB258
 2232 0004 32000000 		.4byte	.LFE258
 2233 0008 00000000 		.4byte	.LFB259
 2234 000c 24000000 		.4byte	.LFE259
 2235 0010 00000000 		.4byte	.LFB260
 2236 0014 24000000 		.4byte	.LFE260
 2237 0018 00000000 		.4byte	.LFB261
 2238 001c 1C000000 		.4byte	.LFE261
 2239 0020 00000000 		.4byte	0
 2240 0024 00000000 		.4byte	0
 2241              		.section	.debug_line,"",%progbits
 2242              	.Ldebug_line0:
 2243 0000 77020000 		.section	.debug_str,"MS",%progbits,1
 2243      02001602 
 2243      00000201 
 2243      FB0E0D00 
 2243      01010101 
 2244              	.LASF50:
 2245 0000 74687265 		.ascii	"threads_list_t\000"
 2245      6164735F 
 2245      6C697374 
 2245      5F7400
 2246              	.LASF93:
 2247 000f 49435052 		.ascii	"ICPR\000"
 2247      00
 2248              	.LASF55:
 2249 0014 72656164 		.ascii	"ready_list_t\000"
 2249      795F6C69 
 2249      73745F74 
 2249      00
 2250              	.LASF120:
 2251 0021 73655F74 		.ascii	"se_time\000"
 2251      696D6500 
 2252              	.LASF144:
 2253 0029 77747472 		.ascii	"wttrp\000"
 2253      7000
 2254              	.LASF141:
 2255 002f 7264796D 		.ascii	"rdymsg\000"
 2255      736700
 2256              	.LASF17:
 2257 0036 75696E74 		.ascii	"uint64_t\000"
 2257      36345F74 
 2257      00
ARM GAS  /tmp/cc6awXaY.s 			page 41


 2258              	.LASF85:
 2259 003f 6B65726E 		.ascii	"kernel_stats\000"
 2259      656C5F73 
 2259      74617473 
 2259      00
 2260              	.LASF7:
 2261 004c 5F5F7569 		.ascii	"__uint8_t\000"
 2261      6E74385F 
 2261      7400
 2262              	.LASF119:
 2263 0056 706F7274 		.ascii	"port_intctx\000"
 2263      5F696E74 
 2263      63747800 
 2264              	.LASF54:
 2265 0062 63685F74 		.ascii	"ch_threads_queue\000"
 2265      68726561 
 2265      64735F71 
 2265      75657565 
 2265      00
 2266              	.LASF74:
 2267 0073 73797374 		.ascii	"system_debug_t\000"
 2267      656D5F64 
 2267      65627567 
 2267      5F7400
 2268              	.LASF132:
 2269 0082 776F7273 		.ascii	"worst\000"
 2269      7400
 2270              	.LASF135:
 2271 0088 74696D65 		.ascii	"time_measurement_t\000"
 2271      5F6D6561 
 2271      73757265 
 2271      6D656E74 
 2271      5F7400
 2272              	.LASF13:
 2273 009b 6C6F6E67 		.ascii	"long long unsigned int\000"
 2273      206C6F6E 
 2273      6720756E 
 2273      7369676E 
 2273      65642069 
 2274              	.LASF128:
 2275 00b2 63685F74 		.ascii	"ch_trace_buffer_t\000"
 2275      72616365 
 2275      5F627566 
 2275      6665725F 
 2275      7400
 2276              	.LASF123:
 2277 00c4 73655F73 		.ascii	"se_state\000"
 2277      74617465 
 2277      00
 2278              	.LASF142:
 2279 00cd 65786974 		.ascii	"exitcode\000"
 2279      636F6465 
 2279      00
 2280              	.LASF84:
 2281 00d6 6D61696E 		.ascii	"mainthread\000"
 2281      74687265 
 2281      616400
ARM GAS  /tmp/cc6awXaY.s 			page 42


 2282              	.LASF71:
 2283 00e1 76697274 		.ascii	"virtual_timers_list_t\000"
 2283      75616C5F 
 2283      74696D65 
 2283      72735F6C 
 2283      6973745F 
 2284              	.LASF101:
 2285 00f7 43505549 		.ascii	"CPUID\000"
 2285      4400
 2286              	.LASF19:
 2287 00fd 72747469 		.ascii	"rttime_t\000"
 2287      6D655F74 
 2287      00
 2288              	.LASF91:
 2289 0106 49535052 		.ascii	"ISPR\000"
 2289      00
 2290              	.LASF32:
 2291 010b 705F7072 		.ascii	"p_prio\000"
 2291      696F00
 2292              	.LASF159:
 2293 0112 6E766963 		.ascii	"nvicEnableVector\000"
 2293      456E6162 
 2293      6C655665 
 2293      63746F72 
 2293      00
 2294              	.LASF113:
 2295 0123 49534152 		.ascii	"ISAR\000"
 2295      00
 2296              	.LASF1:
 2297 0128 6C6F6E67 		.ascii	"long long int\000"
 2297      206C6F6E 
 2297      6720696E 
 2297      7400
 2298              	.LASF3:
 2299 0136 7369676E 		.ascii	"signed char\000"
 2299      65642063 
 2299      68617200 
 2300              	.LASF47:
 2301 0142 705F6D70 		.ascii	"p_mpool\000"
 2301      6F6F6C00 
 2302              	.LASF152:
 2303 014a 6D5F7175 		.ascii	"m_queue\000"
 2303      65756500 
 2304              	.LASF163:
 2305 0152 6E766963 		.ascii	"nvicClearPending\000"
 2305      436C6561 
 2305      7250656E 
 2305      64696E67 
 2305      00
 2306              	.LASF83:
 2307 0163 76746C69 		.ascii	"vtlist\000"
 2307      737400
 2308              	.LASF81:
 2309 016a 63685F73 		.ascii	"ch_system\000"
 2309      79737465 
 2309      6D00
 2310              	.LASF9:
ARM GAS  /tmp/cc6awXaY.s 			page 43


 2311 0174 6C6F6E67 		.ascii	"long int\000"
 2311      20696E74 
 2311      00
 2312              	.LASF21:
 2313 017d 74737461 		.ascii	"tstate_t\000"
 2313      74655F74 
 2313      00
 2314              	.LASF121:
 2315 0186 73655F74 		.ascii	"se_tp\000"
 2315      7000
 2316              	.LASF166:
 2317 018c 2F686F6D 		.ascii	"/home/selim/working/ChibiOS/os/hal/ports/common/ARM"
 2317      652F7365 
 2317      6C696D2F 
 2317      776F726B 
 2317      696E672F 
 2318 01bf 434D782F 		.ascii	"CMx/nvic.c\000"
 2318      6E766963 
 2318      2E6300
 2319              	.LASF34:
 2320 01ca 705F6E65 		.ascii	"p_newer\000"
 2320      77657200 
 2321              	.LASF149:
 2322 01d2 735F7175 		.ascii	"s_queue\000"
 2322      65756500 
 2323              	.LASF110:
 2324 01da 42464152 		.ascii	"BFAR\000"
 2324      00
 2325              	.LASF125:
 2326 01df 74625F73 		.ascii	"tb_size\000"
 2326      697A6500 
 2327              	.LASF111:
 2328 01e7 41465352 		.ascii	"AFSR\000"
 2328      00
 2329              	.LASF60:
 2330 01ec 725F6E65 		.ascii	"r_newer\000"
 2330      77657200 
 2331              	.LASF116:
 2332 01f4 72656761 		.ascii	"regarm_t\000"
 2332      726D5F74 
 2332      00
 2333              	.LASF67:
 2334 01fd 76745F70 		.ascii	"vt_prev\000"
 2334      72657600 
 2335              	.LASF115:
 2336 0205 5343425F 		.ascii	"SCB_Type\000"
 2336      54797065 
 2336      00
 2337              	.LASF75:
 2338 020e 63685F73 		.ascii	"ch_system_debug\000"
 2338      79737465 
 2338      6D5F6465 
 2338      62756700 
 2339              	.LASF156:
 2340 021e 6D757465 		.ascii	"mutex_t\000"
 2340      785F7400 
 2341              	.LASF78:
ARM GAS  /tmp/cc6awXaY.s 			page 44


 2342 0226 6C6F636B 		.ascii	"lock_cnt\000"
 2342      5F636E74 
 2342      00
 2343              	.LASF86:
 2344 022f 69646C65 		.ascii	"idle_thread_wa\000"
 2344      5F746872 
 2344      6561645F 
 2344      776100
 2345              	.LASF26:
 2346 023e 636E745F 		.ascii	"cnt_t\000"
 2346      7400
 2347              	.LASF37:
 2348 0244 705F7374 		.ascii	"p_stklimit\000"
 2348      6B6C696D 
 2348      697400
 2349              	.LASF0:
 2350 024f 756E7369 		.ascii	"unsigned int\000"
 2350      676E6564 
 2350      20696E74 
 2350      00
 2351              	.LASF66:
 2352 025c 76745F6E 		.ascii	"vt_next\000"
 2352      65787400 
 2353              	.LASF160:
 2354 0264 6E766963 		.ascii	"nvicDisableVector\000"
 2354      44697361 
 2354      626C6556 
 2354      6563746F 
 2354      7200
 2355              	.LASF145:
 2356 0276 77747365 		.ascii	"wtsemp\000"
 2356      6D7000
 2357              	.LASF42:
 2358 027d 705F6D73 		.ascii	"p_msgqueue\000"
 2358      67717565 
 2358      756500
 2359              	.LASF136:
 2360 0288 6E5F6972 		.ascii	"n_irq\000"
 2360      7100
 2361              	.LASF103:
 2362 028e 56544F52 		.ascii	"VTOR\000"
 2362      00
 2363              	.LASF150:
 2364 0293 735F636E 		.ascii	"s_cnt\000"
 2364      7400
 2365              	.LASF140:
 2366 0299 6B65726E 		.ascii	"kernel_stats_t\000"
 2366      656C5F73 
 2366      74617473 
 2366      5F7400
 2367              	.LASF51:
 2368 02a8 63685F74 		.ascii	"ch_thread\000"
 2368      68726561 
 2368      6400
 2369              	.LASF102:
 2370 02b2 49435352 		.ascii	"ICSR\000"
 2370      00
ARM GAS  /tmp/cc6awXaY.s 			page 45


 2371              	.LASF24:
 2372 02b7 6D73675F 		.ascii	"msg_t\000"
 2372      7400
 2373              	.LASF104:
 2374 02bd 41495243 		.ascii	"AIRCR\000"
 2374      5200
 2375              	.LASF108:
 2376 02c3 44465352 		.ascii	"DFSR\000"
 2376      00
 2377              	.LASF27:
 2378 02c8 75636E74 		.ascii	"ucnt_t\000"
 2378      5F7400
 2379              	.LASF109:
 2380 02cf 4D4D4641 		.ascii	"MMFAR\000"
 2380      5200
 2381              	.LASF80:
 2382 02d5 63685F73 		.ascii	"ch_system_t\000"
 2382      79737465 
 2382      6D5F7400 
 2383              	.LASF127:
 2384 02e1 74625F62 		.ascii	"tb_buffer\000"
 2384      75666665 
 2384      7200
 2385              	.LASF139:
 2386 02eb 6D5F6372 		.ascii	"m_crit_isr\000"
 2386      69745F69 
 2386      737200
 2387              	.LASF56:
 2388 02f6 63685F72 		.ascii	"ch_ready_list\000"
 2388      65616479 
 2388      5F6C6973 
 2388      7400
 2389              	.LASF25:
 2390 0304 6576656E 		.ascii	"eventmask_t\000"
 2390      746D6173 
 2390      6B5F7400 
 2391              	.LASF8:
 2392 0310 5F5F696E 		.ascii	"__int32_t\000"
 2392      7433325F 
 2392      7400
 2393              	.LASF117:
 2394 031a 73746B61 		.ascii	"stkalign_t\000"
 2394      6C69676E 
 2394      5F7400
 2395              	.LASF162:
 2396 0325 68616E64 		.ascii	"handler\000"
 2396      6C657200 
 2397              	.LASF64:
 2398 032d 76697274 		.ascii	"virtual_timer_t\000"
 2398      75616C5F 
 2398      74696D65 
 2398      725F7400 
 2399              	.LASF41:
 2400 033d 705F7761 		.ascii	"p_waiting\000"
 2400      6974696E 
 2400      6700
 2401              	.LASF168:
ARM GAS  /tmp/cc6awXaY.s 			page 46


 2402 0347 63685379 		.ascii	"chSysHalt\000"
 2402      7348616C 
 2402      7400
 2403              	.LASF99:
 2404 0351 73697A65 		.ascii	"sizetype\000"
 2404      74797065 
 2404      00
 2405              	.LASF49:
 2406 035a 74687265 		.ascii	"thread_reference_t\000"
 2406      61645F72 
 2406      65666572 
 2406      656E6365 
 2406      5F7400
 2407              	.LASF72:
 2408 036d 63685F76 		.ascii	"ch_virtual_timers_list\000"
 2408      69727475 
 2408      616C5F74 
 2408      696D6572 
 2408      735F6C69 
 2409              	.LASF2:
 2410 0384 6C6F6E67 		.ascii	"long double\000"
 2410      20646F75 
 2410      626C6500 
 2411              	.LASF106:
 2412 0390 43465352 		.ascii	"CFSR\000"
 2412      00
 2413              	.LASF126:
 2414 0395 74625F70 		.ascii	"tb_ptr\000"
 2414      747200
 2415              	.LASF95:
 2416 039c 49414252 		.ascii	"IABR\000"
 2416      00
 2417              	.LASF124:
 2418 03a1 63685F73 		.ascii	"ch_swc_event_t\000"
 2418      77635F65 
 2418      76656E74 
 2418      5F7400
 2419              	.LASF73:
 2420 03b0 76745F6C 		.ascii	"vt_lasttime\000"
 2420      61737474 
 2420      696D6500 
 2421              	.LASF35:
 2422 03bc 705F6F6C 		.ascii	"p_older\000"
 2422      64657200 
 2423              	.LASF59:
 2424 03c4 725F6374 		.ascii	"r_ctx\000"
 2424      7800
 2425              	.LASF130:
 2426 03ca 746D5F63 		.ascii	"tm_calibration_t\000"
 2426      616C6962 
 2426      72617469 
 2426      6F6E5F74 
 2426      00
 2427              	.LASF89:
 2428 03db 49434552 		.ascii	"ICER\000"
 2428      00
 2429              	.LASF158:
ARM GAS  /tmp/cc6awXaY.s 			page 47


 2430 03e0 7072696F 		.ascii	"prio\000"
 2430      00
 2431              	.LASF61:
 2432 03e5 725F6F6C 		.ascii	"r_older\000"
 2432      64657200 
 2433              	.LASF12:
 2434 03ed 5F5F7569 		.ascii	"__uint64_t\000"
 2434      6E743634 
 2434      5F7400
 2435              	.LASF134:
 2436 03f8 63756D75 		.ascii	"cumulative\000"
 2436      6C617469 
 2436      766500
 2437              	.LASF22:
 2438 0403 74726566 		.ascii	"trefs_t\000"
 2438      735F7400 
 2439              	.LASF88:
 2440 040b 52455345 		.ascii	"RESERVED0\000"
 2440      52564544 
 2440      3000
 2441              	.LASF92:
 2442 0415 52455345 		.ascii	"RESERVED2\000"
 2442      52564544 
 2442      3200
 2443              	.LASF94:
 2444 041f 52455345 		.ascii	"RESERVED3\000"
 2444      52564544 
 2444      3300
 2445              	.LASF96:
 2446 0429 52455345 		.ascii	"RESERVED4\000"
 2446      52564544 
 2446      3400
 2447              	.LASF31:
 2448 0433 705F7072 		.ascii	"p_prev\000"
 2448      657600
 2449              	.LASF23:
 2450 043a 74707269 		.ascii	"tprio_t\000"
 2450      6F5F7400 
 2451              	.LASF137:
 2452 0442 6E5F6374 		.ascii	"n_ctxswc\000"
 2452      78737763 
 2452      00
 2453              	.LASF157:
 2454 044b 5F426F6F 		.ascii	"_Bool\000"
 2454      6C00
 2455              	.LASF15:
 2456 0451 696E7433 		.ascii	"int32_t\000"
 2456      325F7400 
 2457              	.LASF4:
 2458 0459 756E7369 		.ascii	"unsigned char\000"
 2458      676E6564 
 2458      20636861 
 2458      7200
 2459              	.LASF105:
 2460 0467 53484353 		.ascii	"SHCSR\000"
 2460      5200
 2461              	.LASF164:
ARM GAS  /tmp/cc6awXaY.s 			page 48


 2462 046d 49544D5F 		.ascii	"ITM_RxBuffer\000"
 2462      52784275 
 2462      66666572 
 2462      00
 2463              	.LASF38:
 2464 047a 705F7374 		.ascii	"p_state\000"
 2464      61746500 
 2465              	.LASF45:
 2466 0482 705F6D74 		.ascii	"p_mtxlist\000"
 2466      786C6973 
 2466      7400
 2467              	.LASF5:
 2468 048c 73686F72 		.ascii	"short int\000"
 2468      7420696E 
 2468      7400
 2469              	.LASF87:
 2470 0496 49534552 		.ascii	"ISER\000"
 2470      00
 2471              	.LASF100:
 2472 049b 4E564943 		.ascii	"NVIC_Type\000"
 2472      5F547970 
 2472      6500
 2473              	.LASF161:
 2474 04a5 6E766963 		.ascii	"nvicSetSystemHandlerPriority\000"
 2474      53657453 
 2474      79737465 
 2474      6D48616E 
 2474      646C6572 
 2475              	.LASF58:
 2476 04c2 725F7072 		.ascii	"r_prio\000"
 2476      696F00
 2477              	.LASF165:
 2478 04c9 474E5520 		.ascii	"GNU C11 5.3.1 20160307 (release) [ARM/embedded-5-br"
 2478      43313120 
 2478      352E332E 
 2478      31203230 
 2478      31363033 
 2479 04fc 616E6368 		.ascii	"anch revision 234589] -mcpu=cortex-m4 -mno-thumb-in"
 2479      20726576 
 2479      6973696F 
 2479      6E203233 
 2479      34353839 
 2480 052f 74657277 		.ascii	"terwork -mthumb -ggdb -O2 -fomit-frame-pointer -fal"
 2480      6F726B20 
 2480      2D6D7468 
 2480      756D6220 
 2480      2D676764 
 2481 0562 69676E2D 		.ascii	"ign-functions=16 -ffunction-sections -fdata-section"
 2481      66756E63 
 2481      74696F6E 
 2481      733D3136 
 2481      202D6666 
 2482 0595 73202D66 		.ascii	"s -fno-common\000"
 2482      6E6F2D63 
 2482      6F6D6D6F 
 2482      6E00
 2483              	.LASF147:
ARM GAS  /tmp/cc6awXaY.s 			page 49


 2484 05a3 65776D61 		.ascii	"ewmask\000"
 2484      736B00
 2485              	.LASF30:
 2486 05aa 705F6E65 		.ascii	"p_next\000"
 2486      787400
 2487              	.LASF20:
 2488 05b1 746D6F64 		.ascii	"tmode_t\000"
 2488      655F7400 
 2489              	.LASF39:
 2490 05b9 705F666C 		.ascii	"p_flags\000"
 2490      61677300 
 2491              	.LASF167:
 2492 05c1 5F5F6675 		.ascii	"__func__\000"
 2492      6E635F5F 
 2492      00
 2493              	.LASF48:
 2494 05ca 705F7374 		.ascii	"p_stats\000"
 2494      61747300 
 2495              	.LASF6:
 2496 05d2 73686F72 		.ascii	"short unsigned int\000"
 2496      7420756E 
 2496      7369676E 
 2496      65642069 
 2496      6E7400
 2497              	.LASF65:
 2498 05e5 63685F76 		.ascii	"ch_virtual_timer\000"
 2498      69727475 
 2498      616C5F74 
 2498      696D6572 
 2498      00
 2499              	.LASF148:
 2500 05f6 63685F73 		.ascii	"ch_semaphore\000"
 2500      656D6170 
 2500      686F7265 
 2500      00
 2501              	.LASF44:
 2502 0603 705F6570 		.ascii	"p_epending\000"
 2502      656E6469 
 2502      6E6700
 2503              	.LASF97:
 2504 060e 52455345 		.ascii	"RESERVED5\000"
 2504      52564544 
 2504      3500
 2505              	.LASF16:
 2506 0618 75696E74 		.ascii	"uint32_t\000"
 2506      33325F74 
 2506      00
 2507              	.LASF146:
 2508 0621 77746D74 		.ascii	"wtmtxp\000"
 2508      787000
 2509              	.LASF57:
 2510 0628 725F7175 		.ascii	"r_queue\000"
 2510      65756500 
 2511              	.LASF68:
 2512 0630 76745F64 		.ascii	"vt_delta\000"
 2512      656C7461 
 2512      00
ARM GAS  /tmp/cc6awXaY.s 			page 50


 2513              	.LASF52:
 2514 0639 63685F74 		.ascii	"ch_threads_list\000"
 2514      68726561 
 2514      64735F6C 
 2514      69737400 
 2515              	.LASF11:
 2516 0649 6C6F6E67 		.ascii	"long unsigned int\000"
 2516      20756E73 
 2516      69676E65 
 2516      6420696E 
 2516      7400
 2517              	.LASF62:
 2518 065b 725F6375 		.ascii	"r_current\000"
 2518      7272656E 
 2518      7400
 2519              	.LASF155:
 2520 0665 63686172 		.ascii	"char\000"
 2520      00
 2521              	.LASF29:
 2522 066a 74687265 		.ascii	"thread_t\000"
 2522      61645F74 
 2522      00
 2523              	.LASF131:
 2524 0673 62657374 		.ascii	"best\000"
 2524      00
 2525              	.LASF154:
 2526 0678 6D5F6E65 		.ascii	"m_next\000"
 2526      787400
 2527              	.LASF28:
 2528 067f 73797374 		.ascii	"systime_t\000"
 2528      696D655F 
 2528      7400
 2529              	.LASF46:
 2530 0689 705F7265 		.ascii	"p_realprio\000"
 2530      616C7072 
 2530      696F00
 2531              	.LASF63:
 2532 0694 76746675 		.ascii	"vtfunc_t\000"
 2532      6E635F74 
 2532      00
 2533              	.LASF10:
 2534 069d 5F5F7569 		.ascii	"__uint32_t\000"
 2534      6E743332 
 2534      5F7400
 2535              	.LASF133:
 2536 06a8 6C617374 		.ascii	"last\000"
 2536      00
 2537              	.LASF76:
 2538 06ad 70616E69 		.ascii	"panic_msg\000"
 2538      635F6D73 
 2538      6700
 2539              	.LASF129:
 2540 06b7 6F666673 		.ascii	"offset\000"
 2540      657400
 2541              	.LASF118:
 2542 06be 636F6E74 		.ascii	"context\000"
 2542      65787400 
ARM GAS  /tmp/cc6awXaY.s 			page 51


 2543              	.LASF18:
 2544 06c6 7274636E 		.ascii	"rtcnt_t\000"
 2544      745F7400 
 2545              	.LASF70:
 2546 06ce 76745F70 		.ascii	"vt_par\000"
 2546      617200
 2547              	.LASF53:
 2548 06d5 74687265 		.ascii	"threads_queue_t\000"
 2548      6164735F 
 2548      71756575 
 2548      655F7400 
 2549              	.LASF151:
 2550 06e5 63685F6D 		.ascii	"ch_mutex\000"
 2550      75746578 
 2550      00
 2551              	.LASF40:
 2552 06ee 705F7265 		.ascii	"p_refs\000"
 2552      667300
 2553              	.LASF77:
 2554 06f5 6973725F 		.ascii	"isr_cnt\000"
 2554      636E7400 
 2555              	.LASF112:
 2556 06fd 4D4D4652 		.ascii	"MMFR\000"
 2556      00
 2557              	.LASF82:
 2558 0702 726C6973 		.ascii	"rlist\000"
 2558      7400
 2559              	.LASF14:
 2560 0708 75696E74 		.ascii	"uint8_t\000"
 2560      385F7400 
 2561              	.LASF90:
 2562 0710 52534552 		.ascii	"RSERVED1\000"
 2562      56454431 
 2562      00
 2563              	.LASF98:
 2564 0719 53544952 		.ascii	"STIR\000"
 2564      00
 2565              	.LASF143:
 2566 071e 77746F62 		.ascii	"wtobjp\000"
 2566      6A7000
 2567              	.LASF36:
 2568 0725 705F6E61 		.ascii	"p_name\000"
 2568      6D6500
 2569              	.LASF79:
 2570 072c 74726163 		.ascii	"trace_buffer\000"
 2570      655F6275 
 2570      66666572 
 2570      00
 2571              	.LASF43:
 2572 0739 705F6D73 		.ascii	"p_msg\000"
 2572      6700
 2573              	.LASF114:
 2574 073f 43504143 		.ascii	"CPACR\000"
 2574      5200
 2575              	.LASF107:
 2576 0745 48465352 		.ascii	"HFSR\000"
 2576      00
ARM GAS  /tmp/cc6awXaY.s 			page 52


 2577              	.LASF138:
 2578 074a 6D5F6372 		.ascii	"m_crit_thd\000"
 2578      69745F74 
 2578      686400
 2579              	.LASF153:
 2580 0755 6D5F6F77 		.ascii	"m_owner\000"
 2580      6E657200 
 2581              	.LASF122:
 2582 075d 73655F77 		.ascii	"se_wtobjp\000"
 2582      746F626A 
 2582      7000
 2583              	.LASF33:
 2584 0767 705F6374 		.ascii	"p_ctx\000"
 2584      7800
 2585              	.LASF69:
 2586 076d 76745F66 		.ascii	"vt_func\000"
 2586      756E6300 
 2587              		.ident	"GCC: (GNU Tools for ARM Embedded Processors) 5.3.1 20160307 (release) [ARM/embedded-5-bran
ARM GAS  /tmp/cc6awXaY.s 			page 53


DEFINED SYMBOLS
                            *ABS*:0000000000000000 nvic.c
     /tmp/cc6awXaY.s:20     .text.nvicEnableVector:0000000000000000 $t
     /tmp/cc6awXaY.s:26     .text.nvicEnableVector:0000000000000000 nvicEnableVector
     /tmp/cc6awXaY.s:69     .text.nvicDisableVector:0000000000000000 $t
     /tmp/cc6awXaY.s:75     .text.nvicDisableVector:0000000000000000 nvicDisableVector
     /tmp/cc6awXaY.s:113    .text.nvicDisableVector:0000000000000020 $d
     /tmp/cc6awXaY.s:118    .text.nvicSetSystemHandlerPriority:0000000000000000 $t
     /tmp/cc6awXaY.s:124    .text.nvicSetSystemHandlerPriority:0000000000000000 nvicSetSystemHandlerPriority
     /tmp/cc6awXaY.s:163    .text.nvicSetSystemHandlerPriority:0000000000000020 $d
     /tmp/cc6awXaY.s:168    .text.nvicClearPending:0000000000000000 $t
     /tmp/cc6awXaY.s:174    .text.nvicClearPending:0000000000000000 nvicClearPending
     /tmp/cc6awXaY.s:195    .text.nvicClearPending:0000000000000018 $d
     /tmp/cc6awXaY.s:200    .rodata.__func__.7110:0000000000000000 $d
     /tmp/cc6awXaY.s:204    .rodata.__func__.7110:0000000000000000 __func__.7110
                     .debug_frame:0000000000000010 $d

UNDEFINED SYMBOLS
chSysHalt
