ARM GAS  /tmp/ccYmsJPf.s 			page 1


   1              		.syntax unified
   2              		.cpu cortex-m4
   3              		.fpu softvfp
   4              		.eabi_attribute 20, 1
   5              		.eabi_attribute 21, 1
   6              		.eabi_attribute 23, 3
   7              		.eabi_attribute 24, 1
   8              		.eabi_attribute 25, 1
   9              		.eabi_attribute 26, 1
  10              		.eabi_attribute 30, 2
  11              		.eabi_attribute 34, 1
  12              		.eabi_attribute 18, 4
  13              		.thumb
  14              		.syntax unified
  15              		.file	"st_lld.c"
  16              		.text
  17              	.Ltext0:
  18              		.cfi_sections	.debug_frame
  19              		.section	.text.VectorB0,"ax",%progbits
  20              		.align	2
  21              		.p2align 4,,15
  22              		.global	VectorB0
  23              		.thumb
  24              		.thumb_func
  25              		.type	VectorB0, %function
  26              	VectorB0:
  27              	.LFB258:
  28              		.file 1 "/home/selim/working/ChibiOS/os/hal/ports/STM32/LLD/TIMv1/st_lld.c"
  29              		.loc 1 173 0
  30              		.cfi_startproc
  31              		@ args = 0, pretend = 0, frame = 0
  32              		@ frame_needed = 0, uses_anonymous_args = 0
  33 0000 10B5     		push	{r4, lr}
  34              		.cfi_def_cfa_offset 8
  35              		.cfi_offset 4, -8
  36              		.cfi_offset 14, -4
  37              		.loc 1 175 0
  38 0002 FFF7FEFF 		bl	_stats_increase_irq
  39              	.LVL0:
  40 0006 FFF7FEFF 		bl	_dbg_check_enter_isr
  41              	.LVL1:
  42              		.loc 1 180 0
  43 000a 4FF08043 		mov	r3, #1073741824
  44 000e 1A69     		ldr	r2, [r3, #16]
  45 0010 9207     		lsls	r2, r2, #30
  46 0012 10D5     		bpl	.L2
  47              		.loc 1 181 0
  48 0014 0024     		movs	r4, #0
  49 0016 1C61     		str	r4, [r3, #16]
  50              	.LVL2:
  51              	.LBB54:
  52              	.LBB55:
  53              	.LBB56:
  54              	.LBB57:
  55              	.LBB58:
  56              	.LBB59:
  57              	.LBB60:
ARM GAS  /tmp/ccYmsJPf.s 			page 2


  58              		.file 2 "/home/selim/working/ChibiOS/os/ext/CMSIS/include/core_cmFunc.h"
  59              		.loc 2 546 0
  60 0018 2023     		movs	r3, #32
  61              		.syntax unified
  62              	@ 546 "/home/selim/working/ChibiOS/os/ext/CMSIS/include/core_cmFunc.h" 1
  63 001a 83F31188 		MSR basepri, r3
  64              	@ 0 "" 2
  65              	.LVL3:
  66              		.thumb
  67              		.syntax unified
  68              	.LBE60:
  69              	.LBE59:
  70              	.LBE58:
  71              	.LBE57:
  72              		.file 3 "/home/selim/working/ChibiOS/os/rt/include/chsys.h"
  73              		.loc 3 389 0
  74 001e FFF7FEFF 		bl	_stats_start_measure_crit_isr
  75              	.LVL4:
  76              		.loc 3 390 0
  77 0022 FFF7FEFF 		bl	_dbg_check_lock_from_isr
  78              	.LVL5:
  79              	.LBE56:
  80              	.LBE55:
  81              	.LBE54:
  82              	.LBB61:
  83              	.LBB62:
  84              		.file 4 "/home/selim/working/ChibiOS/os/hal/osal/rt/osal.h"
  85              		.loc 4 539 0
  86 0026 FFF7FEFF 		bl	chSysTimerHandlerI
  87              	.LVL6:
  88              	.LBE62:
  89              	.LBE61:
  90              	.LBB63:
  91              	.LBB64:
  92              	.LBB65:
  93              		.loc 3 408 0
  94 002a FFF7FEFF 		bl	_dbg_check_unlock_from_isr
  95              	.LVL7:
  96              		.loc 3 409 0
  97 002e FFF7FEFF 		bl	_stats_stop_measure_crit_isr
  98              	.LVL8:
  99              	.LBB66:
 100              	.LBB67:
 101              	.LBB68:
 102              	.LBB69:
 103              		.loc 2 546 0
 104              		.syntax unified
 105              	@ 546 "/home/selim/working/ChibiOS/os/ext/CMSIS/include/core_cmFunc.h" 1
 106 0032 84F31188 		MSR basepri, r4
 107              	@ 0 "" 2
 108              	.LVL9:
 109              		.thumb
 110              		.syntax unified
 111              	.L2:
 112              	.LBE69:
 113              	.LBE68:
 114              	.LBE67:
ARM GAS  /tmp/ccYmsJPf.s 			page 3


 115              	.LBE66:
 116              	.LBE65:
 117              	.LBE64:
 118              	.LBE63:
 119              		.loc 1 188 0
 120 0036 FFF7FEFF 		bl	_dbg_check_leave_isr
 121              	.LVL10:
 122              		.loc 1 189 0
 123 003a BDE81040 		pop	{r4, lr}
 124              		.cfi_restore 14
 125              		.cfi_restore 4
 126              		.cfi_def_cfa_offset 0
 127              		.loc 1 188 0
 128 003e FFF7FEBF 		b	_port_irq_epilogue
 129              	.LVL11:
 130              		.cfi_endproc
 131              	.LFE258:
 132              		.size	VectorB0, .-VectorB0
 133 0042 00BF     		.section	.text.st_lld_init,"ax",%progbits
 134              		.align	2
 135              		.p2align 4,,15
 136              		.global	st_lld_init
 137              		.thumb
 138              		.thumb_func
 139              		.type	st_lld_init, %function
 140              	st_lld_init:
 141              	.LFB259:
 142              		.loc 1 201 0
 143              		.cfi_startproc
 144              		@ args = 0, pretend = 0, frame = 0
 145              		@ frame_needed = 0, uses_anonymous_args = 0
 146              		@ link register save eliminated.
 147              		.loc 1 207 0
 148 0000 0F4A     		ldr	r2, .L10
 149              		.loc 1 210 0
 150 0002 1048     		ldr	r0, .L10+4
 151              		.loc 1 207 0
 152 0004 136C     		ldr	r3, [r2, #64]
 153              		.loc 1 201 0
 154 0006 70B4     		push	{r4, r5, r6}
 155              		.cfi_def_cfa_offset 12
 156              		.cfi_offset 4, -12
 157              		.cfi_offset 5, -8
 158              		.cfi_offset 6, -4
 159              		.loc 1 207 0
 160 0008 43F00103 		orr	r3, r3, #1
 161 000c 1364     		str	r3, [r2, #64]
 162              		.loc 1 210 0
 163 000e 8168     		ldr	r1, [r0, #8]
 164              		.loc 1 213 0
 165 0010 4FF08043 		mov	r3, #1073741824
 166              		.loc 1 215 0
 167 0014 0022     		movs	r2, #0
 168              		.loc 1 219 0
 169 0016 0124     		movs	r4, #1
 170              		.loc 1 210 0
 171 0018 41F00101 		orr	r1, r1, #1
ARM GAS  /tmp/ccYmsJPf.s 			page 4


 172              		.loc 1 213 0
 173 001c 42F2CF06 		movw	r6, #8399
 174              		.loc 1 214 0
 175 0020 4FF0FF35 		mov	r5, #-1
 176              		.loc 1 210 0
 177 0024 8160     		str	r1, [r0, #8]
 178              		.loc 1 213 0
 179 0026 9E62     		str	r6, [r3, #40]
 180              		.loc 1 223 0
 181 0028 0821     		movs	r1, #8
 182              		.loc 1 214 0
 183 002a DD62     		str	r5, [r3, #44]
 184              		.loc 1 223 0
 185 002c 1C20     		movs	r0, #28
 186              		.loc 1 215 0
 187 002e 9A61     		str	r2, [r3, #24]
 188              		.loc 1 216 0
 189 0030 5A63     		str	r2, [r3, #52]
 190              		.loc 1 217 0
 191 0032 DA60     		str	r2, [r3, #12]
 192              		.loc 1 218 0
 193 0034 5A60     		str	r2, [r3, #4]
 194              		.loc 1 219 0
 195 0036 5C61     		str	r4, [r3, #20]
 196              		.loc 1 220 0
 197 0038 1C60     		str	r4, [r3]
 198              		.loc 1 238 0
 199 003a 70BC     		pop	{r4, r5, r6}
 200              		.cfi_restore 6
 201              		.cfi_restore 5
 202              		.cfi_restore 4
 203              		.cfi_def_cfa_offset 0
 204              		.loc 1 223 0
 205 003c FFF7FEBF 		b	nvicEnableVector
 206              	.LVL12:
 207              	.L11:
 208              		.align	2
 209              	.L10:
 210 0040 00380240 		.word	1073887232
 211 0044 002004E0 		.word	-536600576
 212              		.cfi_endproc
 213              	.LFE259:
 214              		.size	st_lld_init, .-st_lld_init
 215              		.text
 216              	.Letext0:
 217              		.file 5 "/usr/arm-none-eabi/include/machine/_default_types.h"
 218              		.file 6 "/usr/arm-none-eabi/include/sys/_stdint.h"
 219              		.file 7 "/home/selim/working/ChibiOS/os/rt/ports/ARMCMx/compilers/GCC/chtypes.h"
 220              		.file 8 "/home/selim/working/ChibiOS/os/rt/include/chsystypes.h"
 221              		.file 9 "/home/selim/working/ChibiOS/os/rt/include/chschd.h"
 222              		.file 10 "/home/selim/working/ChibiOS/os/ext/CMSIS/ST/stm32f407xx.h"
 223              		.file 11 "/home/selim/working/ChibiOS/os/rt/ports/ARMCMx/chcore.h"
 224              		.file 12 "/home/selim/working/ChibiOS/os/rt/ports/ARMCMx/chcore_v7m.h"
 225              		.file 13 "/home/selim/working/ChibiOS/os/hal/ports/STM32/LLD/TIMv1/stm32_tim.h"
 226              		.file 14 "/home/selim/working/ChibiOS/os/rt/include/chdebug.h"
 227              		.file 15 "/home/selim/working/ChibiOS/os/rt/include/chtm.h"
 228              		.file 16 "/home/selim/working/ChibiOS/os/rt/include/chstats.h"
ARM GAS  /tmp/ccYmsJPf.s 			page 5


 229              		.file 17 "/home/selim/working/ChibiOS/os/rt/include/chsem.h"
 230              		.file 18 "/home/selim/working/ChibiOS/os/rt/include/chmtx.h"
 231              		.file 19 "/home/selim/working/ChibiOS/os/hal/ports/common/ARMCMx/nvic.h"
 232              		.file 20 "/home/selim/working/ChibiOS/os/ext/CMSIS/include/core_cm4.h"
 233              		.section	.debug_info,"",%progbits
 234              	.Ldebug_info0:
 235 0000 510D0000 		.4byte	0xd51
 236 0004 0400     		.2byte	0x4
 237 0006 00000000 		.4byte	.Ldebug_abbrev0
 238 000a 04       		.byte	0x4
 239 000b 01       		.uleb128 0x1
 240 000c B6050000 		.4byte	.LASF194
 241 0010 0C       		.byte	0xc
 242 0011 0F070000 		.4byte	.LASF195
 243 0015 00000000 		.4byte	.Ldebug_ranges0+0
 244 0019 00000000 		.4byte	0
 245 001d 00000000 		.4byte	.Ldebug_line0
 246 0021 02       		.uleb128 0x2
 247 0022 04       		.byte	0x4
 248 0023 05       		.byte	0x5
 249 0024 696E7400 		.ascii	"int\000"
 250 0028 03       		.uleb128 0x3
 251 0029 04       		.byte	0x4
 252 002a 07       		.byte	0x7
 253 002b A8020000 		.4byte	.LASF0
 254 002f 03       		.uleb128 0x3
 255 0030 08       		.byte	0x8
 256 0031 05       		.byte	0x5
 257 0032 E3010000 		.4byte	.LASF1
 258 0036 03       		.uleb128 0x3
 259 0037 08       		.byte	0x8
 260 0038 04       		.byte	0x4
 261 0039 41040000 		.4byte	.LASF2
 262 003d 03       		.uleb128 0x3
 263 003e 01       		.byte	0x1
 264 003f 06       		.byte	0x6
 265 0040 6A010000 		.4byte	.LASF3
 266 0044 04       		.uleb128 0x4
 267 0045 3C000000 		.4byte	.LASF7
 268 0049 05       		.byte	0x5
 269 004a 1D       		.byte	0x1d
 270 004b 4F000000 		.4byte	0x4f
 271 004f 03       		.uleb128 0x3
 272 0050 01       		.byte	0x1
 273 0051 08       		.byte	0x8
 274 0052 70050000 		.4byte	.LASF4
 275 0056 03       		.uleb128 0x3
 276 0057 02       		.byte	0x2
 277 0058 05       		.byte	0x5
 278 0059 95050000 		.4byte	.LASF5
 279 005d 03       		.uleb128 0x3
 280 005e 02       		.byte	0x2
 281 005f 07       		.byte	0x7
 282 0060 0B020000 		.4byte	.LASF6
 283 0064 04       		.uleb128 0x4
 284 0065 96030000 		.4byte	.LASF8
 285 0069 05       		.byte	0x5
ARM GAS  /tmp/ccYmsJPf.s 			page 6


 286 006a 3F       		.byte	0x3f
 287 006b 6F000000 		.4byte	0x6f
 288 006f 03       		.uleb128 0x3
 289 0070 04       		.byte	0x4
 290 0071 05       		.byte	0x5
 291 0072 B3010000 		.4byte	.LASF9
 292 0076 04       		.uleb128 0x4
 293 0077 E6070000 		.4byte	.LASF10
 294 007b 05       		.byte	0x5
 295 007c 41       		.byte	0x41
 296 007d 81000000 		.4byte	0x81
 297 0081 03       		.uleb128 0x3
 298 0082 04       		.byte	0x4
 299 0083 07       		.byte	0x7
 300 0084 6A070000 		.4byte	.LASF11
 301 0088 04       		.uleb128 0x4
 302 0089 D6040000 		.4byte	.LASF12
 303 008d 05       		.byte	0x5
 304 008e 5B       		.byte	0x5b
 305 008f 93000000 		.4byte	0x93
 306 0093 03       		.uleb128 0x3
 307 0094 08       		.byte	0x8
 308 0095 07       		.byte	0x7
 309 0096 A4000000 		.4byte	.LASF13
 310 009a 04       		.uleb128 0x4
 311 009b C8080000 		.4byte	.LASF14
 312 009f 06       		.byte	0x6
 313 00a0 14       		.byte	0x14
 314 00a1 44000000 		.4byte	0x44
 315 00a5 04       		.uleb128 0x4
 316 00a6 68050000 		.4byte	.LASF15
 317 00aa 06       		.byte	0x6
 318 00ab 1F       		.byte	0x1f
 319 00ac 64000000 		.4byte	0x64
 320 00b0 04       		.uleb128 0x4
 321 00b1 F2060000 		.4byte	.LASF16
 322 00b5 06       		.byte	0x6
 323 00b6 20       		.byte	0x20
 324 00b7 76000000 		.4byte	0x76
 325 00bb 04       		.uleb128 0x4
 326 00bc 26000000 		.4byte	.LASF17
 327 00c0 06       		.byte	0x6
 328 00c1 26       		.byte	0x26
 329 00c2 88000000 		.4byte	0x88
 330 00c6 05       		.uleb128 0x5
 331 00c7 A5000000 		.4byte	0xa5
 332 00cb 05       		.uleb128 0x5
 333 00cc B0000000 		.4byte	0xb0
 334 00d0 04       		.uleb128 0x4
 335 00d1 45080000 		.4byte	.LASF18
 336 00d5 07       		.byte	0x7
 337 00d6 46       		.byte	0x46
 338 00d7 B0000000 		.4byte	0xb0
 339 00db 04       		.uleb128 0x4
 340 00dc 2D010000 		.4byte	.LASF19
 341 00e0 07       		.byte	0x7
 342 00e1 47       		.byte	0x47
ARM GAS  /tmp/ccYmsJPf.s 			page 7


 343 00e2 BB000000 		.4byte	0xbb
 344 00e6 04       		.uleb128 0x4
 345 00e7 F5080000 		.4byte	.LASF20
 346 00eb 07       		.byte	0x7
 347 00ec 49       		.byte	0x49
 348 00ed 9A000000 		.4byte	0x9a
 349 00f1 04       		.uleb128 0x4
 350 00f2 CF010000 		.4byte	.LASF21
 351 00f6 07       		.byte	0x7
 352 00f7 4A       		.byte	0x4a
 353 00f8 9A000000 		.4byte	0x9a
 354 00fc 04       		.uleb128 0x4
 355 00fd F3040000 		.4byte	.LASF22
 356 0101 07       		.byte	0x7
 357 0102 4B       		.byte	0x4b
 358 0103 9A000000 		.4byte	0x9a
 359 0107 04       		.uleb128 0x4
 360 0108 3E050000 		.4byte	.LASF23
 361 010c 07       		.byte	0x7
 362 010d 4D       		.byte	0x4d
 363 010e B0000000 		.4byte	0xb0
 364 0112 04       		.uleb128 0x4
 365 0113 25030000 		.4byte	.LASF24
 366 0117 07       		.byte	0x7
 367 0118 4E       		.byte	0x4e
 368 0119 A5000000 		.4byte	0xa5
 369 011d 04       		.uleb128 0x4
 370 011e 8A030000 		.4byte	.LASF25
 371 0122 07       		.byte	0x7
 372 0123 50       		.byte	0x50
 373 0124 B0000000 		.4byte	0xb0
 374 0128 04       		.uleb128 0x4
 375 0129 97020000 		.4byte	.LASF26
 376 012d 07       		.byte	0x7
 377 012e 52       		.byte	0x52
 378 012f A5000000 		.4byte	0xa5
 379 0133 04       		.uleb128 0x4
 380 0134 3F030000 		.4byte	.LASF27
 381 0138 07       		.byte	0x7
 382 0139 53       		.byte	0x53
 383 013a B0000000 		.4byte	0xb0
 384 013e 04       		.uleb128 0x4
 385 013f C0070000 		.4byte	.LASF28
 386 0143 08       		.byte	0x8
 387 0144 33       		.byte	0x33
 388 0145 B0000000 		.4byte	0xb0
 389 0149 04       		.uleb128 0x4
 390 014a AB070000 		.4byte	.LASF29
 391 014e 08       		.byte	0x8
 392 014f 3F       		.byte	0x3f
 393 0150 54010000 		.4byte	0x154
 394 0154 06       		.uleb128 0x6
 395 0155 10030000 		.4byte	.LASF51
 396 0159 60       		.byte	0x60
 397 015a 09       		.byte	0x9
 398 015b C2       		.byte	0xc2
 399 015c 5A020000 		.4byte	0x25a
ARM GAS  /tmp/ccYmsJPf.s 			page 8


 400 0160 07       		.uleb128 0x7
 401 0161 97060000 		.4byte	.LASF30
 402 0165 09       		.byte	0x9
 403 0166 C3       		.byte	0xc3
 404 0167 65020000 		.4byte	0x265
 405 016b 00       		.byte	0
 406 016c 07       		.uleb128 0x7
 407 016d 2D050000 		.4byte	.LASF31
 408 0171 09       		.byte	0x9
 409 0172 C5       		.byte	0xc5
 410 0173 65020000 		.4byte	0x265
 411 0177 04       		.byte	0x4
 412 0178 07       		.uleb128 0x7
 413 0179 40010000 		.4byte	.LASF32
 414 017d 09       		.byte	0x9
 415 017e C7       		.byte	0xc7
 416 017f 07010000 		.4byte	0x107
 417 0183 08       		.byte	0x8
 418 0184 07       		.uleb128 0x7
 419 0185 4A090000 		.4byte	.LASF33
 420 0189 09       		.byte	0x9
 421 018a C8       		.byte	0xc8
 422 018b E2060000 		.4byte	0x6e2
 423 018f 0C       		.byte	0xc
 424 0190 07       		.uleb128 0x7
 425 0191 F1010000 		.4byte	.LASF34
 426 0195 09       		.byte	0x9
 427 0196 CA       		.byte	0xca
 428 0197 65020000 		.4byte	0x265
 429 019b 10       		.byte	0x10
 430 019c 07       		.uleb128 0x7
 431 019d A7050000 		.4byte	.LASF35
 432 01a1 09       		.byte	0x9
 433 01a2 CB       		.byte	0xcb
 434 01a3 65020000 		.4byte	0x265
 435 01a7 14       		.byte	0x14
 436 01a8 07       		.uleb128 0x7
 437 01a9 E1080000 		.4byte	.LASF36
 438 01ad 09       		.byte	0x9
 439 01ae D2       		.byte	0xd2
 440 01af A80A0000 		.4byte	0xaa8
 441 01b3 18       		.byte	0x18
 442 01b4 07       		.uleb128 0x7
 443 01b5 9D020000 		.4byte	.LASF37
 444 01b9 09       		.byte	0x9
 445 01ba D8       		.byte	0xd8
 446 01bb BA0A0000 		.4byte	0xaba
 447 01bf 1C       		.byte	0x1c
 448 01c0 07       		.uleb128 0x7
 449 01c1 9F050000 		.4byte	.LASF38
 450 01c5 09       		.byte	0x9
 451 01c6 DD       		.byte	0xdd
 452 01c7 F1000000 		.4byte	0xf1
 453 01cb 20       		.byte	0x20
 454 01cc 07       		.uleb128 0x7
 455 01cd 9E060000 		.4byte	.LASF39
 456 01d1 09       		.byte	0x9
ARM GAS  /tmp/ccYmsJPf.s 			page 9


 457 01d2 E1       		.byte	0xe1
 458 01d3 E6000000 		.4byte	0xe6
 459 01d7 21       		.byte	0x21
 460 01d8 07       		.uleb128 0x7
 461 01d9 AE080000 		.4byte	.LASF40
 462 01dd 09       		.byte	0x9
 463 01de E6       		.byte	0xe6
 464 01df FC000000 		.4byte	0xfc
 465 01e3 22       		.byte	0x22
 466 01e4 08       		.uleb128 0x8
 467 01e5 705F7500 		.ascii	"p_u\000"
 468 01e9 09       		.byte	0x9
 469 01ea 3101     		.2byte	0x131
 470 01ec E3090000 		.4byte	0x9e3
 471 01f0 24       		.byte	0x24
 472 01f1 09       		.uleb128 0x9
 473 01f2 04040000 		.4byte	.LASF41
 474 01f6 09       		.byte	0x9
 475 01f7 3601     		.2byte	0x136
 476 01f9 6B020000 		.4byte	0x26b
 477 01fd 28       		.byte	0x28
 478 01fe 09       		.uleb128 0x9
 479 01ff D9020000 		.4byte	.LASF42
 480 0203 09       		.byte	0x9
 481 0204 3C01     		.2byte	0x13c
 482 0206 8F020000 		.4byte	0x28f
 483 020a 2C       		.byte	0x2c
 484 020b 09       		.uleb128 0x9
 485 020c 0A090000 		.4byte	.LASF43
 486 0210 09       		.byte	0x9
 487 0211 4001     		.2byte	0x140
 488 0213 12010000 		.4byte	0x112
 489 0217 34       		.byte	0x34
 490 0218 09       		.uleb128 0x9
 491 0219 55040000 		.4byte	.LASF44
 492 021d 09       		.byte	0x9
 493 021e 4601     		.2byte	0x146
 494 0220 1D010000 		.4byte	0x11d
 495 0224 38       		.byte	0x38
 496 0225 09       		.uleb128 0x9
 497 0226 8B050000 		.4byte	.LASF45
 498 022a 09       		.byte	0x9
 499 022b 4D01     		.2byte	0x14d
 500 022d A20A0000 		.4byte	0xaa2
 501 0231 3C       		.byte	0x3c
 502 0232 09       		.uleb128 0x9
 503 0233 34030000 		.4byte	.LASF46
 504 0237 09       		.byte	0x9
 505 0238 5101     		.2byte	0x151
 506 023a 07010000 		.4byte	0x107
 507 023e 40       		.byte	0x40
 508 023f 09       		.uleb128 0x9
 509 0240 2E020000 		.4byte	.LASF47
 510 0244 09       		.byte	0x9
 511 0245 5801     		.2byte	0x158
 512 0247 42030000 		.4byte	0x342
 513 024b 44       		.byte	0x44
ARM GAS  /tmp/ccYmsJPf.s 			page 10


 514 024c 09       		.uleb128 0x9
 515 024d A6060000 		.4byte	.LASF48
 516 0251 09       		.byte	0x9
 517 0252 5E01     		.2byte	0x15e
 518 0254 94090000 		.4byte	0x994
 519 0258 48       		.byte	0x48
 520 0259 00       		.byte	0
 521 025a 04       		.uleb128 0x4
 522 025b 17040000 		.4byte	.LASF49
 523 025f 08       		.byte	0x8
 524 0260 44       		.byte	0x44
 525 0261 65020000 		.4byte	0x265
 526 0265 0A       		.uleb128 0xa
 527 0266 04       		.byte	0x4
 528 0267 49010000 		.4byte	0x149
 529 026b 04       		.uleb128 0x4
 530 026c DD030000 		.4byte	.LASF50
 531 0270 08       		.byte	0x8
 532 0271 49       		.byte	0x49
 533 0272 76020000 		.4byte	0x276
 534 0276 06       		.uleb128 0x6
 535 0277 5A070000 		.4byte	.LASF52
 536 027b 04       		.byte	0x4
 537 027c 09       		.byte	0x9
 538 027d B0       		.byte	0xb0
 539 027e 8F020000 		.4byte	0x28f
 540 0282 07       		.uleb128 0x7
 541 0283 97060000 		.4byte	.LASF30
 542 0287 09       		.byte	0x9
 543 0288 B1       		.byte	0xb1
 544 0289 65020000 		.4byte	0x265
 545 028d 00       		.byte	0
 546 028e 00       		.byte	0
 547 028f 04       		.uleb128 0x4
 548 0290 92080000 		.4byte	.LASF53
 549 0294 08       		.byte	0x8
 550 0295 50       		.byte	0x50
 551 0296 9A020000 		.4byte	0x29a
 552 029a 06       		.uleb128 0x6
 553 029b 52000000 		.4byte	.LASF54
 554 029f 08       		.byte	0x8
 555 02a0 09       		.byte	0x9
 556 02a1 B7       		.byte	0xb7
 557 02a2 BF020000 		.4byte	0x2bf
 558 02a6 07       		.uleb128 0x7
 559 02a7 97060000 		.4byte	.LASF30
 560 02ab 09       		.byte	0x9
 561 02ac B8       		.byte	0xb8
 562 02ad 65020000 		.4byte	0x265
 563 02b1 00       		.byte	0
 564 02b2 07       		.uleb128 0x7
 565 02b3 2D050000 		.4byte	.LASF31
 566 02b7 09       		.byte	0x9
 567 02b8 B9       		.byte	0xb9
 568 02b9 65020000 		.4byte	0x265
 569 02bd 04       		.byte	0x4
 570 02be 00       		.byte	0
ARM GAS  /tmp/ccYmsJPf.s 			page 11


 571 02bf 04       		.uleb128 0x4
 572 02c0 07000000 		.4byte	.LASF55
 573 02c4 08       		.byte	0x8
 574 02c5 57       		.byte	0x57
 575 02c6 CA020000 		.4byte	0x2ca
 576 02ca 0B       		.uleb128 0xb
 577 02cb 7C030000 		.4byte	.LASF56
 578 02cf 1C       		.byte	0x1c
 579 02d0 09       		.byte	0x9
 580 02d1 9001     		.2byte	0x190
 581 02d3 26030000 		.4byte	0x326
 582 02d7 09       		.uleb128 0x9
 583 02d8 4D040000 		.4byte	.LASF57
 584 02dc 09       		.byte	0x9
 585 02dd 9101     		.2byte	0x191
 586 02df 8F020000 		.4byte	0x28f
 587 02e3 00       		.byte	0
 588 02e4 09       		.uleb128 0x9
 589 02e5 AF050000 		.4byte	.LASF58
 590 02e9 09       		.byte	0x9
 591 02ea 9201     		.2byte	0x192
 592 02ec 07010000 		.4byte	0x107
 593 02f0 08       		.byte	0x8
 594 02f1 09       		.uleb128 0x9
 595 02f2 89040000 		.4byte	.LASF59
 596 02f6 09       		.byte	0x9
 597 02f7 9401     		.2byte	0x194
 598 02f9 E2060000 		.4byte	0x6e2
 599 02fd 0C       		.byte	0xc
 600 02fe 09       		.uleb128 0x9
 601 02ff 26020000 		.4byte	.LASF60
 602 0303 09       		.byte	0x9
 603 0304 9701     		.2byte	0x197
 604 0306 65020000 		.4byte	0x265
 605 030a 10       		.byte	0x10
 606 030b 09       		.uleb128 0x9
 607 030c 31080000 		.4byte	.LASF61
 608 0310 09       		.byte	0x9
 609 0311 9801     		.2byte	0x198
 610 0313 65020000 		.4byte	0x265
 611 0317 14       		.byte	0x14
 612 0318 09       		.uleb128 0x9
 613 0319 AA040000 		.4byte	.LASF62
 614 031d 09       		.byte	0x9
 615 031e 9B01     		.2byte	0x19b
 616 0320 65020000 		.4byte	0x265
 617 0324 18       		.byte	0x18
 618 0325 00       		.byte	0
 619 0326 04       		.uleb128 0x4
 620 0327 DD070000 		.4byte	.LASF63
 621 032b 08       		.byte	0x8
 622 032c 5C       		.byte	0x5c
 623 032d 31030000 		.4byte	0x331
 624 0331 0A       		.uleb128 0xa
 625 0332 04       		.byte	0x4
 626 0333 37030000 		.4byte	0x337
 627 0337 0C       		.uleb128 0xc
ARM GAS  /tmp/ccYmsJPf.s 			page 12


 628 0338 42030000 		.4byte	0x342
 629 033c 0D       		.uleb128 0xd
 630 033d 42030000 		.4byte	0x342
 631 0341 00       		.byte	0
 632 0342 0E       		.uleb128 0xe
 633 0343 04       		.byte	0x4
 634 0344 04       		.uleb128 0x4
 635 0345 EC030000 		.4byte	.LASF64
 636 0349 08       		.byte	0x8
 637 034a 61       		.byte	0x61
 638 034b 4F030000 		.4byte	0x34f
 639 034f 0B       		.uleb128 0xb
 640 0350 B6060000 		.4byte	.LASF65
 641 0354 14       		.byte	0x14
 642 0355 09       		.byte	0x9
 643 0356 6B01     		.2byte	0x16b
 644 0358 9E030000 		.4byte	0x39e
 645 035c 09       		.uleb128 0x9
 646 035d B5020000 		.4byte	.LASF66
 647 0361 09       		.byte	0x9
 648 0362 6C01     		.2byte	0x16c
 649 0364 C00A0000 		.4byte	0xac0
 650 0368 00       		.byte	0
 651 0369 09       		.uleb128 0x9
 652 036a 3F020000 		.4byte	.LASF67
 653 036e 09       		.byte	0x9
 654 036f 6D01     		.2byte	0x16d
 655 0371 C00A0000 		.4byte	0xac0
 656 0375 04       		.byte	0x4
 657 0376 09       		.uleb128 0x9
 658 0377 51070000 		.4byte	.LASF68
 659 037b 09       		.byte	0x9
 660 037c 6E01     		.2byte	0x16e
 661 037e 3E010000 		.4byte	0x13e
 662 0382 08       		.byte	0x8
 663 0383 09       		.uleb128 0x9
 664 0384 50090000 		.4byte	.LASF69
 665 0388 09       		.byte	0x9
 666 0389 6F01     		.2byte	0x16f
 667 038b 26030000 		.4byte	0x326
 668 038f 0C       		.byte	0xc
 669 0390 09       		.uleb128 0x9
 670 0391 60080000 		.4byte	.LASF70
 671 0395 09       		.byte	0x9
 672 0396 7101     		.2byte	0x171
 673 0398 42030000 		.4byte	0x342
 674 039c 10       		.byte	0x10
 675 039d 00       		.byte	0
 676 039e 04       		.uleb128 0x4
 677 039f F1000000 		.4byte	.LASF71
 678 03a3 08       		.byte	0x8
 679 03a4 66       		.byte	0x66
 680 03a5 A9030000 		.4byte	0x3a9
 681 03a9 0B       		.uleb128 0xb
 682 03aa 2A040000 		.4byte	.LASF72
 683 03ae 10       		.byte	0x10
 684 03af 09       		.byte	0x9
ARM GAS  /tmp/ccYmsJPf.s 			page 13


 685 03b0 7B01     		.2byte	0x17b
 686 03b2 EB030000 		.4byte	0x3eb
 687 03b6 09       		.uleb128 0x9
 688 03b7 B5020000 		.4byte	.LASF66
 689 03bb 09       		.byte	0x9
 690 03bc 7C01     		.2byte	0x17c
 691 03be C00A0000 		.4byte	0xac0
 692 03c2 00       		.byte	0
 693 03c3 09       		.uleb128 0x9
 694 03c4 3F020000 		.4byte	.LASF67
 695 03c8 09       		.byte	0x9
 696 03c9 7E01     		.2byte	0x17e
 697 03cb C00A0000 		.4byte	0xac0
 698 03cf 04       		.byte	0x4
 699 03d0 09       		.uleb128 0x9
 700 03d1 51070000 		.4byte	.LASF68
 701 03d5 09       		.byte	0x9
 702 03d6 8001     		.2byte	0x180
 703 03d8 3E010000 		.4byte	0x13e
 704 03dc 08       		.byte	0x8
 705 03dd 09       		.uleb128 0x9
 706 03de 68040000 		.4byte	.LASF73
 707 03e2 09       		.byte	0x9
 708 03e3 8801     		.2byte	0x188
 709 03e5 3E010000 		.4byte	0x13e
 710 03e9 0C       		.byte	0xc
 711 03ea 00       		.byte	0
 712 03eb 04       		.uleb128 0x4
 713 03ec 63000000 		.4byte	.LASF74
 714 03f0 08       		.byte	0x8
 715 03f1 6B       		.byte	0x6b
 716 03f2 F6030000 		.4byte	0x3f6
 717 03f6 0F       		.uleb128 0xf
 718 03f7 61020000 		.4byte	.LASF75
 719 03fb 1404     		.2byte	0x414
 720 03fd 09       		.byte	0x9
 721 03fe A201     		.2byte	0x1a2
 722 0400 39040000 		.4byte	0x439
 723 0404 09       		.uleb128 0x9
 724 0405 FF070000 		.4byte	.LASF76
 725 0409 09       		.byte	0x9
 726 040a AA01     		.2byte	0x1aa
 727 040c C60A0000 		.4byte	0xac6
 728 0410 00       		.byte	0
 729 0411 09       		.uleb128 0x9
 730 0412 B5080000 		.4byte	.LASF77
 731 0416 09       		.byte	0x9
 732 0417 AF01     		.2byte	0x1af
 733 0419 28010000 		.4byte	0x128
 734 041d 04       		.byte	0x4
 735 041e 09       		.uleb128 0x9
 736 041f 7F020000 		.4byte	.LASF78
 737 0423 09       		.byte	0x9
 738 0424 B301     		.2byte	0x1b3
 739 0426 28010000 		.4byte	0x128
 740 042a 08       		.byte	0x8
 741 042b 09       		.uleb128 0x9
ARM GAS  /tmp/ccYmsJPf.s 			page 14


 742 042c FD080000 		.4byte	.LASF79
 743 0430 09       		.byte	0x9
 744 0431 B901     		.2byte	0x1b9
 745 0433 26090000 		.4byte	0x926
 746 0437 0C       		.byte	0xc
 747 0438 00       		.byte	0
 748 0439 04       		.uleb128 0x4
 749 043a 39080000 		.4byte	.LASF80
 750 043e 08       		.byte	0x8
 751 043f 70       		.byte	0x70
 752 0440 44040000 		.4byte	0x444
 753 0444 0F       		.uleb128 0xf
 754 0445 A9010000 		.4byte	.LASF81
 755 0449 D805     		.2byte	0x5d8
 756 044b 09       		.byte	0x9
 757 044c C201     		.2byte	0x1c2
 758 044e B1040000 		.4byte	0x4b1
 759 0452 09       		.uleb128 0x9
 760 0453 C2080000 		.4byte	.LASF82
 761 0457 09       		.byte	0x9
 762 0458 C601     		.2byte	0x1c6
 763 045a BF020000 		.4byte	0x2bf
 764 045e 00       		.byte	0
 765 045f 09       		.uleb128 0x9
 766 0460 47020000 		.4byte	.LASF83
 767 0464 09       		.byte	0x9
 768 0465 CA01     		.2byte	0x1ca
 769 0467 9E030000 		.4byte	0x39e
 770 046b 1C       		.byte	0x1c
 771 046c 08       		.uleb128 0x8
 772 046d 64626700 		.ascii	"dbg\000"
 773 0471 09       		.byte	0x9
 774 0472 CE01     		.2byte	0x1ce
 775 0474 EB030000 		.4byte	0x3eb
 776 0478 2C       		.byte	0x2c
 777 0479 10       		.uleb128 0x10
 778 047a E6000000 		.4byte	.LASF84
 779 047e 09       		.byte	0x9
 780 047f D201     		.2byte	0x1d2
 781 0481 49010000 		.4byte	0x149
 782 0485 4004     		.2byte	0x440
 783 0487 11       		.uleb128 0x11
 784 0488 746D00   		.ascii	"tm\000"
 785 048b 09       		.byte	0x9
 786 048c D701     		.2byte	0x1d7
 787 048e 46090000 		.4byte	0x946
 788 0492 A004     		.2byte	0x4a0
 789 0494 10       		.uleb128 0x10
 790 0495 2F000000 		.4byte	.LASF85
 791 0499 09       		.byte	0x9
 792 049a DD01     		.2byte	0x1dd
 793 049c D8090000 		.4byte	0x9d8
 794 04a0 A804     		.2byte	0x4a8
 795 04a2 10       		.uleb128 0x10
 796 04a3 88020000 		.4byte	.LASF86
 797 04a7 09       		.byte	0x9
 798 04a8 E301     		.2byte	0x1e3
ARM GAS  /tmp/ccYmsJPf.s 			page 15


 799 04aa CB0A0000 		.4byte	0xacb
 800 04ae E004     		.2byte	0x4e0
 801 04b0 00       		.byte	0
 802 04b1 03       		.uleb128 0x3
 803 04b2 04       		.byte	0x4
 804 04b3 07       		.byte	0x7
 805 04b4 0E040000 		.4byte	.LASF87
 806 04b8 12       		.uleb128 0x12
 807 04b9 B0000000 		.4byte	0xb0
 808 04bd C8040000 		.4byte	0x4c8
 809 04c1 13       		.uleb128 0x13
 810 04c2 B1040000 		.4byte	0x4b1
 811 04c6 01       		.byte	0x1
 812 04c7 00       		.byte	0
 813 04c8 14       		.uleb128 0x14
 814 04c9 10       		.byte	0x10
 815 04ca 0A       		.byte	0xa
 816 04cb 4C01     		.2byte	0x14c
 817 04cd 05050000 		.4byte	0x505
 818 04d1 09       		.uleb128 0x9
 819 04d2 D6000000 		.4byte	.LASF88
 820 04d6 0A       		.byte	0xa
 821 04d7 4E01     		.2byte	0x14e
 822 04d9 CB000000 		.4byte	0xcb
 823 04dd 00       		.byte	0
 824 04de 08       		.uleb128 0x8
 825 04df 435200   		.ascii	"CR\000"
 826 04e2 0A       		.byte	0xa
 827 04e3 4F01     		.2byte	0x14f
 828 04e5 CB000000 		.4byte	0xcb
 829 04e9 04       		.byte	0x4
 830 04ea 09       		.uleb128 0x9
 831 04eb EC040000 		.4byte	.LASF89
 832 04ef 0A       		.byte	0xa
 833 04f0 5001     		.2byte	0x150
 834 04f2 CB000000 		.4byte	0xcb
 835 04f6 08       		.byte	0x8
 836 04f7 09       		.uleb128 0x9
 837 04f8 46030000 		.4byte	.LASF90
 838 04fc 0A       		.byte	0xa
 839 04fd 5101     		.2byte	0x151
 840 04ff CB000000 		.4byte	0xcb
 841 0503 0C       		.byte	0xc
 842 0504 00       		.byte	0
 843 0505 15       		.uleb128 0x15
 844 0506 D9060000 		.4byte	.LASF91
 845 050a 0A       		.byte	0xa
 846 050b 5201     		.2byte	0x152
 847 050d C8040000 		.4byte	0x4c8
 848 0511 12       		.uleb128 0x12
 849 0512 CB000000 		.4byte	0xcb
 850 0516 21050000 		.4byte	0x521
 851 051a 13       		.uleb128 0x13
 852 051b B1040000 		.4byte	0x4b1
 853 051f 01       		.byte	0x1
 854 0520 00       		.byte	0
 855 0521 12       		.uleb128 0x12
ARM GAS  /tmp/ccYmsJPf.s 			page 16


 856 0522 CB000000 		.4byte	0xcb
 857 0526 31050000 		.4byte	0x531
 858 052a 13       		.uleb128 0x13
 859 052b B1040000 		.4byte	0x4b1
 860 052f 03       		.byte	0x3
 861 0530 00       		.byte	0
 862 0531 14       		.uleb128 0x14
 863 0532 88       		.byte	0x88
 864 0533 0A       		.byte	0xa
 865 0534 6702     		.2byte	0x267
 866 0536 C0060000 		.4byte	0x6c0
 867 053a 08       		.uleb128 0x8
 868 053b 435200   		.ascii	"CR\000"
 869 053e 0A       		.byte	0xa
 870 053f 6902     		.2byte	0x269
 871 0541 CB000000 		.4byte	0xcb
 872 0545 00       		.byte	0
 873 0546 09       		.uleb128 0x9
 874 0547 03020000 		.4byte	.LASF92
 875 054b 0A       		.byte	0xa
 876 054c 6A02     		.2byte	0x26a
 877 054e CB000000 		.4byte	0xcb
 878 0552 04       		.byte	0x4
 879 0553 09       		.uleb128 0x9
 880 0554 F0080000 		.4byte	.LASF93
 881 0558 0A       		.byte	0xa
 882 0559 6B02     		.2byte	0x26b
 883 055b CB000000 		.4byte	0xcb
 884 055f 08       		.byte	0x8
 885 0560 08       		.uleb128 0x8
 886 0561 43495200 		.ascii	"CIR\000"
 887 0565 0A       		.byte	0xa
 888 0566 6C02     		.2byte	0x26c
 889 0568 CB000000 		.4byte	0xcb
 890 056c 0C       		.byte	0xc
 891 056d 09       		.uleb128 0x9
 892 056e 76010000 		.4byte	.LASF94
 893 0572 0A       		.byte	0xa
 894 0573 6D02     		.2byte	0x26d
 895 0575 CB000000 		.4byte	0xcb
 896 0579 10       		.byte	0x10
 897 057a 09       		.uleb128 0x9
 898 057b 8D070000 		.4byte	.LASF95
 899 057f 0A       		.byte	0xa
 900 0580 6E02     		.2byte	0x26e
 901 0582 CB000000 		.4byte	0xcb
 902 0586 14       		.byte	0x14
 903 0587 09       		.uleb128 0x9
 904 0588 2B030000 		.4byte	.LASF96
 905 058c 0A       		.byte	0xa
 906 058d 6F02     		.2byte	0x26f
 907 058f CB000000 		.4byte	0xcb
 908 0593 18       		.byte	0x18
 909 0594 09       		.uleb128 0x9
 910 0595 FB040000 		.4byte	.LASF97
 911 0599 0A       		.byte	0xa
 912 059a 7002     		.2byte	0x270
ARM GAS  /tmp/ccYmsJPf.s 			page 17


 913 059c B0000000 		.4byte	0xb0
 914 05a0 1C       		.byte	0x1c
 915 05a1 09       		.uleb128 0x9
 916 05a2 B4040000 		.4byte	.LASF98
 917 05a6 0A       		.byte	0xa
 918 05a7 7102     		.2byte	0x271
 919 05a9 CB000000 		.4byte	0xcb
 920 05ad 20       		.byte	0x20
 921 05ae 09       		.uleb128 0x9
 922 05af BC010000 		.4byte	.LASF99
 923 05b3 0A       		.byte	0xa
 924 05b4 7202     		.2byte	0x272
 925 05b6 CB000000 		.4byte	0xcb
 926 05ba 24       		.byte	0x24
 927 05bb 09       		.uleb128 0x9
 928 05bc 05050000 		.4byte	.LASF100
 929 05c0 0A       		.byte	0xa
 930 05c1 7302     		.2byte	0x273
 931 05c3 B8040000 		.4byte	0x4b8
 932 05c7 28       		.byte	0x28
 933 05c8 09       		.uleb128 0x9
 934 05c9 E8080000 		.4byte	.LASF101
 935 05cd 0A       		.byte	0xa
 936 05ce 7402     		.2byte	0x274
 937 05d0 CB000000 		.4byte	0xcb
 938 05d4 30       		.byte	0x30
 939 05d5 09       		.uleb128 0x9
 940 05d6 21080000 		.4byte	.LASF102
 941 05da 0A       		.byte	0xa
 942 05db 7502     		.2byte	0x275
 943 05dd CB000000 		.4byte	0xcb
 944 05e1 34       		.byte	0x34
 945 05e2 09       		.uleb128 0x9
 946 05e3 60040000 		.4byte	.LASF103
 947 05e7 0A       		.byte	0xa
 948 05e8 7602     		.2byte	0x276
 949 05ea CB000000 		.4byte	0xcb
 950 05ee 38       		.byte	0x38
 951 05ef 09       		.uleb128 0x9
 952 05f0 0F050000 		.4byte	.LASF104
 953 05f4 0A       		.byte	0xa
 954 05f5 7702     		.2byte	0x277
 955 05f7 B0000000 		.4byte	0xb0
 956 05fb 3C       		.byte	0x3c
 957 05fc 09       		.uleb128 0x9
 958 05fd 10080000 		.4byte	.LASF105
 959 0601 0A       		.byte	0xa
 960 0602 7802     		.2byte	0x278
 961 0604 CB000000 		.4byte	0xcb
 962 0608 40       		.byte	0x40
 963 0609 09       		.uleb128 0x9
 964 060a AE060000 		.4byte	.LASF106
 965 060e 0A       		.byte	0xa
 966 060f 7902     		.2byte	0x279
 967 0611 CB000000 		.4byte	0xcb
 968 0615 44       		.byte	0x44
 969 0616 09       		.uleb128 0x9
ARM GAS  /tmp/ccYmsJPf.s 			page 18


 970 0617 19050000 		.4byte	.LASF107
 971 061b 0A       		.byte	0xa
 972 061c 7A02     		.2byte	0x27a
 973 061e B8040000 		.4byte	0x4b8
 974 0622 48       		.byte	0x48
 975 0623 09       		.uleb128 0x9
 976 0624 36010000 		.4byte	.LASF108
 977 0628 0A       		.byte	0xa
 978 0629 7B02     		.2byte	0x27b
 979 062b CB000000 		.4byte	0xcb
 980 062f 50       		.byte	0x50
 981 0630 09       		.uleb128 0x9
 982 0631 8F040000 		.4byte	.LASF109
 983 0635 0A       		.byte	0xa
 984 0636 7C02     		.2byte	0x27c
 985 0638 CB000000 		.4byte	0xcb
 986 063c 54       		.byte	0x54
 987 063d 09       		.uleb128 0x9
 988 063e 6D080000 		.4byte	.LASF110
 989 0642 0A       		.byte	0xa
 990 0643 7D02     		.2byte	0x27d
 991 0645 CB000000 		.4byte	0xcb
 992 0649 58       		.byte	0x58
 993 064a 09       		.uleb128 0x9
 994 064b 23050000 		.4byte	.LASF111
 995 064f 0A       		.byte	0xa
 996 0650 7E02     		.2byte	0x27e
 997 0652 B0000000 		.4byte	0xb0
 998 0656 5C       		.byte	0x5c
 999 0657 09       		.uleb128 0x9
 1000 0658 C5010000 		.4byte	.LASF112
 1001 065c 0A       		.byte	0xa
 1002 065d 7F02     		.2byte	0x27f
 1003 065f CB000000 		.4byte	0xcb
 1004 0663 60       		.byte	0x60
 1005 0664 09       		.uleb128 0x9
 1006 0665 67030000 		.4byte	.LASF113
 1007 0669 0A       		.byte	0xa
 1008 066a 8002     		.2byte	0x280
 1009 066c CB000000 		.4byte	0xcb
 1010 0670 64       		.byte	0x64
 1011 0671 09       		.uleb128 0x9
 1012 0672 E8060000 		.4byte	.LASF114
 1013 0676 0A       		.byte	0xa
 1014 0677 8102     		.2byte	0x281
 1015 0679 B8040000 		.4byte	0x4b8
 1016 067d 68       		.byte	0x68
 1017 067e 09       		.uleb128 0x9
 1018 067f BD080000 		.4byte	.LASF115
 1019 0683 0A       		.byte	0xa
 1020 0684 8202     		.2byte	0x282
 1021 0686 CB000000 		.4byte	0xcb
 1022 068a 70       		.byte	0x70
 1023 068b 08       		.uleb128 0x8
 1024 068c 43535200 		.ascii	"CSR\000"
 1025 0690 0A       		.byte	0xa
 1026 0691 8302     		.2byte	0x283
ARM GAS  /tmp/ccYmsJPf.s 			page 19


 1027 0693 CB000000 		.4byte	0xcb
 1028 0697 74       		.byte	0x74
 1029 0698 09       		.uleb128 0x9
 1030 0699 34050000 		.4byte	.LASF116
 1031 069d 0A       		.byte	0xa
 1032 069e 8402     		.2byte	0x284
 1033 06a0 B8040000 		.4byte	0x4b8
 1034 06a4 78       		.byte	0x78
 1035 06a5 09       		.uleb128 0x9
 1036 06a6 67080000 		.4byte	.LASF117
 1037 06aa 0A       		.byte	0xa
 1038 06ab 8502     		.2byte	0x285
 1039 06ad CB000000 		.4byte	0xcb
 1040 06b1 80       		.byte	0x80
 1041 06b2 09       		.uleb128 0x9
 1042 06b3 1A030000 		.4byte	.LASF118
 1043 06b7 0A       		.byte	0xa
 1044 06b8 8602     		.2byte	0x286
 1045 06ba CB000000 		.4byte	0xcb
 1046 06be 84       		.byte	0x84
 1047 06bf 00       		.byte	0
 1048 06c0 15       		.uleb128 0x15
 1049 06c1 E4020000 		.4byte	.LASF119
 1050 06c5 0A       		.byte	0xa
 1051 06c6 8802     		.2byte	0x288
 1052 06c8 31050000 		.4byte	0x531
 1053 06cc 04       		.uleb128 0x4
 1054 06cd 36020000 		.4byte	.LASF120
 1055 06d1 0B       		.byte	0xb
 1056 06d2 65       		.byte	0x65
 1057 06d3 42030000 		.4byte	0x342
 1058 06d7 04       		.uleb128 0x4
 1059 06d8 BE030000 		.4byte	.LASF121
 1060 06dc 0B       		.byte	0xb
 1061 06dd 6D       		.byte	0x6d
 1062 06de BB000000 		.4byte	0xbb
 1063 06e2 06       		.uleb128 0x6
 1064 06e3 29080000 		.4byte	.LASF122
 1065 06e7 04       		.byte	0x4
 1066 06e8 0B       		.byte	0xb
 1067 06e9 89       		.byte	0x89
 1068 06ea FB060000 		.4byte	0x6fb
 1069 06ee 16       		.uleb128 0x16
 1070 06ef 72313300 		.ascii	"r13\000"
 1071 06f3 0B       		.byte	0xb
 1072 06f4 8A       		.byte	0x8a
 1073 06f5 76070000 		.4byte	0x776
 1074 06f9 00       		.byte	0
 1075 06fa 00       		.byte	0
 1076 06fb 06       		.uleb128 0x6
 1077 06fc 46000000 		.4byte	.LASF123
 1078 0700 24       		.byte	0x24
 1079 0701 0C       		.byte	0xc
 1080 0702 F4       		.byte	0xf4
 1081 0703 76070000 		.4byte	0x776
 1082 0707 08       		.uleb128 0x8
 1083 0708 723400   		.ascii	"r4\000"
ARM GAS  /tmp/ccYmsJPf.s 			page 20


 1084 070b 0C       		.byte	0xc
 1085 070c 0701     		.2byte	0x107
 1086 070e CC060000 		.4byte	0x6cc
 1087 0712 00       		.byte	0
 1088 0713 08       		.uleb128 0x8
 1089 0714 723500   		.ascii	"r5\000"
 1090 0717 0C       		.byte	0xc
 1091 0718 0801     		.2byte	0x108
 1092 071a CC060000 		.4byte	0x6cc
 1093 071e 04       		.byte	0x4
 1094 071f 08       		.uleb128 0x8
 1095 0720 723600   		.ascii	"r6\000"
 1096 0723 0C       		.byte	0xc
 1097 0724 0901     		.2byte	0x109
 1098 0726 CC060000 		.4byte	0x6cc
 1099 072a 08       		.byte	0x8
 1100 072b 08       		.uleb128 0x8
 1101 072c 723700   		.ascii	"r7\000"
 1102 072f 0C       		.byte	0xc
 1103 0730 0A01     		.2byte	0x10a
 1104 0732 CC060000 		.4byte	0x6cc
 1105 0736 0C       		.byte	0xc
 1106 0737 08       		.uleb128 0x8
 1107 0738 723800   		.ascii	"r8\000"
 1108 073b 0C       		.byte	0xc
 1109 073c 0B01     		.2byte	0x10b
 1110 073e CC060000 		.4byte	0x6cc
 1111 0742 10       		.byte	0x10
 1112 0743 08       		.uleb128 0x8
 1113 0744 723900   		.ascii	"r9\000"
 1114 0747 0C       		.byte	0xc
 1115 0748 0C01     		.2byte	0x10c
 1116 074a CC060000 		.4byte	0x6cc
 1117 074e 14       		.byte	0x14
 1118 074f 08       		.uleb128 0x8
 1119 0750 72313000 		.ascii	"r10\000"
 1120 0754 0C       		.byte	0xc
 1121 0755 0D01     		.2byte	0x10d
 1122 0757 CC060000 		.4byte	0x6cc
 1123 075b 18       		.byte	0x18
 1124 075c 08       		.uleb128 0x8
 1125 075d 72313100 		.ascii	"r11\000"
 1126 0761 0C       		.byte	0xc
 1127 0762 0E01     		.2byte	0x10e
 1128 0764 CC060000 		.4byte	0x6cc
 1129 0768 1C       		.byte	0x1c
 1130 0769 08       		.uleb128 0x8
 1131 076a 6C7200   		.ascii	"lr\000"
 1132 076d 0C       		.byte	0xc
 1133 076e 0F01     		.2byte	0x10f
 1134 0770 CC060000 		.4byte	0x6cc
 1135 0774 20       		.byte	0x20
 1136 0775 00       		.byte	0
 1137 0776 0A       		.uleb128 0xa
 1138 0777 04       		.byte	0x4
 1139 0778 FB060000 		.4byte	0x6fb
 1140 077c 14       		.uleb128 0x14
ARM GAS  /tmp/ccYmsJPf.s 			page 21


 1141 077d 60       		.byte	0x60
 1142 077e 0D       		.byte	0xd
 1143 077f 9E01     		.2byte	0x19e
 1144 0781 88080000 		.4byte	0x888
 1145 0785 08       		.uleb128 0x8
 1146 0786 43523100 		.ascii	"CR1\000"
 1147 078a 0D       		.byte	0xd
 1148 078b 9F01     		.2byte	0x19f
 1149 078d CB000000 		.4byte	0xcb
 1150 0791 00       		.byte	0
 1151 0792 08       		.uleb128 0x8
 1152 0793 43523200 		.ascii	"CR2\000"
 1153 0797 0D       		.byte	0xd
 1154 0798 A001     		.2byte	0x1a0
 1155 079a CB000000 		.4byte	0xcb
 1156 079e 04       		.byte	0x4
 1157 079f 09       		.uleb128 0x9
 1158 07a0 FC020000 		.4byte	.LASF124
 1159 07a4 0D       		.byte	0xd
 1160 07a5 A101     		.2byte	0x1a1
 1161 07a7 CB000000 		.4byte	0xcb
 1162 07ab 08       		.byte	0x8
 1163 07ac 09       		.uleb128 0x9
 1164 07ad 14000000 		.4byte	.LASF125
 1165 07b1 0D       		.byte	0xd
 1166 07b2 A201     		.2byte	0x1a2
 1167 07b4 CB000000 		.4byte	0xcb
 1168 07b8 0C       		.byte	0xc
 1169 07b9 08       		.uleb128 0x8
 1170 07ba 535200   		.ascii	"SR\000"
 1171 07bd 0D       		.byte	0xd
 1172 07be A301     		.2byte	0x1a3
 1173 07c0 CB000000 		.4byte	0xcb
 1174 07c4 10       		.byte	0x10
 1175 07c5 08       		.uleb128 0x8
 1176 07c6 45475200 		.ascii	"EGR\000"
 1177 07ca 0D       		.byte	0xd
 1178 07cb A401     		.2byte	0x1a4
 1179 07cd CB000000 		.4byte	0xcb
 1180 07d1 14       		.byte	0x14
 1181 07d2 09       		.uleb128 0x9
 1182 07d3 58010000 		.4byte	.LASF126
 1183 07d7 0D       		.byte	0xd
 1184 07d8 A501     		.2byte	0x1a5
 1185 07da CB000000 		.4byte	0xcb
 1186 07de 18       		.byte	0x18
 1187 07df 09       		.uleb128 0x9
 1188 07e0 5E010000 		.4byte	.LASF127
 1189 07e4 0D       		.byte	0xd
 1190 07e5 A601     		.2byte	0x1a6
 1191 07e7 CB000000 		.4byte	0xcb
 1192 07eb 1C       		.byte	0x1c
 1193 07ec 09       		.uleb128 0x9
 1194 07ed D8010000 		.4byte	.LASF128
 1195 07f1 0D       		.byte	0xd
 1196 07f2 A701     		.2byte	0x1a7
 1197 07f4 CB000000 		.4byte	0xcb
ARM GAS  /tmp/ccYmsJPf.s 			page 22


 1198 07f8 20       		.byte	0x20
 1199 07f9 08       		.uleb128 0x8
 1200 07fa 434E5400 		.ascii	"CNT\000"
 1201 07fe 0D       		.byte	0xd
 1202 07ff A801     		.2byte	0x1a8
 1203 0801 CB000000 		.4byte	0xcb
 1204 0805 24       		.byte	0x24
 1205 0806 08       		.uleb128 0x8
 1206 0807 50534300 		.ascii	"PSC\000"
 1207 080b 0D       		.byte	0xd
 1208 080c A901     		.2byte	0x1a9
 1209 080e CB000000 		.4byte	0xcb
 1210 0812 28       		.byte	0x28
 1211 0813 08       		.uleb128 0x8
 1212 0814 41525200 		.ascii	"ARR\000"
 1213 0818 0D       		.byte	0xd
 1214 0819 AA01     		.2byte	0x1aa
 1215 081b CB000000 		.4byte	0xcb
 1216 081f 2C       		.byte	0x2c
 1217 0820 08       		.uleb128 0x8
 1218 0821 52435200 		.ascii	"RCR\000"
 1219 0825 0D       		.byte	0xd
 1220 0826 AB01     		.2byte	0x1ab
 1221 0828 CB000000 		.4byte	0xcb
 1222 082c 30       		.byte	0x30
 1223 082d 08       		.uleb128 0x8
 1224 082e 43435200 		.ascii	"CCR\000"
 1225 0832 0D       		.byte	0xd
 1226 0833 AC01     		.2byte	0x1ac
 1227 0835 88080000 		.4byte	0x888
 1228 0839 34       		.byte	0x34
 1229 083a 09       		.uleb128 0x9
 1230 083b 28010000 		.4byte	.LASF129
 1231 083f 0D       		.byte	0xd
 1232 0840 AD01     		.2byte	0x1ad
 1233 0842 CB000000 		.4byte	0xcb
 1234 0846 44       		.byte	0x44
 1235 0847 08       		.uleb128 0x8
 1236 0848 44435200 		.ascii	"DCR\000"
 1237 084c 0D       		.byte	0xd
 1238 084d AE01     		.2byte	0x1ae
 1239 084f CB000000 		.4byte	0xcb
 1240 0853 48       		.byte	0x48
 1241 0854 09       		.uleb128 0x9
 1242 0855 88070000 		.4byte	.LASF130
 1243 0859 0D       		.byte	0xd
 1244 085a AF01     		.2byte	0x1af
 1245 085c CB000000 		.4byte	0xcb
 1246 0860 4C       		.byte	0x4c
 1247 0861 08       		.uleb128 0x8
 1248 0862 4F5200   		.ascii	"OR\000"
 1249 0865 0D       		.byte	0xd
 1250 0866 B001     		.2byte	0x1b0
 1251 0868 CB000000 		.4byte	0xcb
 1252 086c 50       		.byte	0x50
 1253 086d 09       		.uleb128 0x9
 1254 086e 64010000 		.4byte	.LASF131
ARM GAS  /tmp/ccYmsJPf.s 			page 23


 1255 0872 0D       		.byte	0xd
 1256 0873 B101     		.2byte	0x1b1
 1257 0875 CB000000 		.4byte	0xcb
 1258 0879 54       		.byte	0x54
 1259 087a 09       		.uleb128 0x9
 1260 087b D4060000 		.4byte	.LASF132
 1261 087f 0D       		.byte	0xd
 1262 0880 B201     		.2byte	0x1b2
 1263 0882 8D080000 		.4byte	0x88d
 1264 0886 58       		.byte	0x58
 1265 0887 00       		.byte	0
 1266 0888 05       		.uleb128 0x5
 1267 0889 21050000 		.4byte	0x521
 1268 088d 05       		.uleb128 0x5
 1269 088e 11050000 		.4byte	0x511
 1270 0892 15       		.uleb128 0x15
 1271 0893 A2080000 		.4byte	.LASF133
 1272 0897 0D       		.byte	0xd
 1273 0898 B301     		.2byte	0x1b3
 1274 089a 7C070000 		.4byte	0x77c
 1275 089e 17       		.uleb128 0x17
 1276 089f 10       		.byte	0x10
 1277 08a0 0E       		.byte	0xe
 1278 08a1 51       		.byte	0x51
 1279 08a2 D7080000 		.4byte	0x8d7
 1280 08a6 07       		.uleb128 0x7
 1281 08a7 7F010000 		.4byte	.LASF134
 1282 08ab 0E       		.byte	0xe
 1283 08ac 55       		.byte	0x55
 1284 08ad 3E010000 		.4byte	0x13e
 1285 08b1 00       		.byte	0
 1286 08b2 07       		.uleb128 0x7
 1287 08b3 DD010000 		.4byte	.LASF135
 1288 08b7 0E       		.byte	0xe
 1289 08b8 59       		.byte	0x59
 1290 08b9 65020000 		.4byte	0x265
 1291 08bd 04       		.byte	0x4
 1292 08be 07       		.uleb128 0x7
 1293 08bf 40090000 		.4byte	.LASF136
 1294 08c3 0E       		.byte	0xe
 1295 08c4 5D       		.byte	0x5d
 1296 08c5 42030000 		.4byte	0x342
 1297 08c9 08       		.byte	0x8
 1298 08ca 07       		.uleb128 0x7
 1299 08cb CD000000 		.4byte	.LASF137
 1300 08cf 0E       		.byte	0xe
 1301 08d0 61       		.byte	0x61
 1302 08d1 9A000000 		.4byte	0x9a
 1303 08d5 0C       		.byte	0xc
 1304 08d6 00       		.byte	0
 1305 08d7 04       		.uleb128 0x4
 1306 08d8 95000000 		.4byte	.LASF138
 1307 08dc 0E       		.byte	0xe
 1308 08dd 62       		.byte	0x62
 1309 08de 9E080000 		.4byte	0x89e
 1310 08e2 18       		.uleb128 0x18
 1311 08e3 0804     		.2byte	0x408
ARM GAS  /tmp/ccYmsJPf.s 			page 24


 1312 08e5 0E       		.byte	0xe
 1313 08e6 67       		.byte	0x67
 1314 08e7 10090000 		.4byte	0x910
 1315 08eb 07       		.uleb128 0x7
 1316 08ec 1E020000 		.4byte	.LASF139
 1317 08f0 0E       		.byte	0xe
 1318 08f1 6B       		.byte	0x6b
 1319 08f2 28000000 		.4byte	0x28
 1320 08f6 00       		.byte	0
 1321 08f7 07       		.uleb128 0x7
 1322 08f8 00000000 		.4byte	.LASF140
 1323 08fc 0E       		.byte	0xe
 1324 08fd 6F       		.byte	0x6f
 1325 08fe 10090000 		.4byte	0x910
 1326 0902 04       		.byte	0x4
 1327 0903 07       		.uleb128 0x7
 1328 0904 F9010000 		.4byte	.LASF141
 1329 0908 0E       		.byte	0xe
 1330 0909 73       		.byte	0x73
 1331 090a 16090000 		.4byte	0x916
 1332 090e 08       		.byte	0x8
 1333 090f 00       		.byte	0
 1334 0910 0A       		.uleb128 0xa
 1335 0911 04       		.byte	0x4
 1336 0912 D7080000 		.4byte	0x8d7
 1337 0916 12       		.uleb128 0x12
 1338 0917 D7080000 		.4byte	0x8d7
 1339 091b 26090000 		.4byte	0x926
 1340 091f 13       		.uleb128 0x13
 1341 0920 B1040000 		.4byte	0x4b1
 1342 0924 3F       		.byte	0x3f
 1343 0925 00       		.byte	0
 1344 0926 04       		.uleb128 0x4
 1345 0927 BB000000 		.4byte	.LASF142
 1346 092b 0E       		.byte	0xe
 1347 092c 74       		.byte	0x74
 1348 092d E2080000 		.4byte	0x8e2
 1349 0931 17       		.uleb128 0x17
 1350 0932 04       		.byte	0x4
 1351 0933 0F       		.byte	0xf
 1352 0934 38       		.byte	0x38
 1353 0935 46090000 		.4byte	0x946
 1354 0939 07       		.uleb128 0x7
 1355 093a 09080000 		.4byte	.LASF143
 1356 093e 0F       		.byte	0xf
 1357 093f 3C       		.byte	0x3c
 1358 0940 D0000000 		.4byte	0xd0
 1359 0944 00       		.byte	0
 1360 0945 00       		.byte	0
 1361 0946 04       		.uleb128 0x4
 1362 0947 99040000 		.4byte	.LASF144
 1363 094b 0F       		.byte	0xf
 1364 094c 3D       		.byte	0x3d
 1365 094d 31090000 		.4byte	0x931
 1366 0951 17       		.uleb128 0x17
 1367 0952 18       		.byte	0x18
 1368 0953 0F       		.byte	0xf
ARM GAS  /tmp/ccYmsJPf.s 			page 25


 1369 0954 48       		.byte	0x48
 1370 0955 94090000 		.4byte	0x994
 1371 0959 07       		.uleb128 0x7
 1372 095a B4070000 		.4byte	.LASF145
 1373 095e 0F       		.byte	0xf
 1374 095f 49       		.byte	0x49
 1375 0960 D0000000 		.4byte	0xd0
 1376 0964 00       		.byte	0
 1377 0965 07       		.uleb128 0x7
 1378 0966 7C000000 		.4byte	.LASF146
 1379 096a 0F       		.byte	0xf
 1380 096b 4A       		.byte	0x4a
 1381 096c D0000000 		.4byte	0xd0
 1382 0970 04       		.byte	0x4
 1383 0971 07       		.uleb128 0x7
 1384 0972 A4010000 		.4byte	.LASF147
 1385 0976 0F       		.byte	0xf
 1386 0977 4B       		.byte	0x4b
 1387 0978 D0000000 		.4byte	0xd0
 1388 097c 08       		.byte	0x8
 1389 097d 16       		.uleb128 0x16
 1390 097e 6E00     		.ascii	"n\000"
 1391 0980 0F       		.byte	0xf
 1392 0981 4C       		.byte	0x4c
 1393 0982 33010000 		.4byte	0x133
 1394 0986 0C       		.byte	0xc
 1395 0987 07       		.uleb128 0x7
 1396 0988 E1040000 		.4byte	.LASF148
 1397 098c 0F       		.byte	0xf
 1398 098d 4D       		.byte	0x4d
 1399 098e DB000000 		.4byte	0xdb
 1400 0992 10       		.byte	0x10
 1401 0993 00       		.byte	0
 1402 0994 04       		.uleb128 0x4
 1403 0995 82000000 		.4byte	.LASF149
 1404 0999 0F       		.byte	0xf
 1405 099a 4E       		.byte	0x4e
 1406 099b 51090000 		.4byte	0x951
 1407 099f 17       		.uleb128 0x17
 1408 09a0 38       		.byte	0x38
 1409 09a1 10       		.byte	0x10
 1410 09a2 38       		.byte	0x38
 1411 09a3 D8090000 		.4byte	0x9d8
 1412 09a7 07       		.uleb128 0x7
 1413 09a8 F0020000 		.4byte	.LASF150
 1414 09ac 10       		.byte	0x10
 1415 09ad 39       		.byte	0x39
 1416 09ae 33010000 		.4byte	0x133
 1417 09b2 00       		.byte	0
 1418 09b3 07       		.uleb128 0x7
 1419 09b4 59050000 		.4byte	.LASF151
 1420 09b8 10       		.byte	0x10
 1421 09b9 3A       		.byte	0x3a
 1422 09ba 33010000 		.4byte	0x133
 1423 09be 04       		.byte	0x4
 1424 09bf 07       		.uleb128 0x7
 1425 09c0 2D090000 		.4byte	.LASF152
ARM GAS  /tmp/ccYmsJPf.s 			page 26


 1426 09c4 10       		.byte	0x10
 1427 09c5 3B       		.byte	0x3b
 1428 09c6 94090000 		.4byte	0x994
 1429 09ca 08       		.byte	0x8
 1430 09cb 07       		.uleb128 0x7
 1431 09cc 71030000 		.4byte	.LASF153
 1432 09d0 10       		.byte	0x10
 1433 09d1 3D       		.byte	0x3d
 1434 09d2 94090000 		.4byte	0x994
 1435 09d6 20       		.byte	0x20
 1436 09d7 00       		.byte	0
 1437 09d8 04       		.uleb128 0x4
 1438 09d9 01030000 		.4byte	.LASF154
 1439 09dd 10       		.byte	0x10
 1440 09de 3F       		.byte	0x3f
 1441 09df 9F090000 		.4byte	0x99f
 1442 09e3 19       		.uleb128 0x19
 1443 09e4 04       		.byte	0x4
 1444 09e5 09       		.byte	0x9
 1445 09e6 FA       		.byte	0xfa
 1446 09e7 400A0000 		.4byte	0xa40
 1447 09eb 1A       		.uleb128 0x1a
 1448 09ec 1F000000 		.4byte	.LASF155
 1449 09f0 09       		.byte	0x9
 1450 09f1 0101     		.2byte	0x101
 1451 09f3 12010000 		.4byte	0x112
 1452 09f7 1A       		.uleb128 0x1a
 1453 09f8 DD000000 		.4byte	.LASF156
 1454 09fc 09       		.byte	0x9
 1455 09fd 0801     		.2byte	0x108
 1456 09ff 12010000 		.4byte	0x112
 1457 0a03 1A       		.uleb128 0x1a
 1458 0a04 60030000 		.4byte	.LASF157
 1459 0a08 09       		.byte	0x9
 1460 0a09 0F01     		.2byte	0x10f
 1461 0a0b 42030000 		.4byte	0x342
 1462 0a0f 1A       		.uleb128 0x1a
 1463 0a10 19000000 		.4byte	.LASF158
 1464 0a14 09       		.byte	0x9
 1465 0a15 1601     		.2byte	0x116
 1466 0a17 400A0000 		.4byte	0xa40
 1467 0a1b 1A       		.uleb128 0x1a
 1468 0a1c D2020000 		.4byte	.LASF159
 1469 0a20 09       		.byte	0x9
 1470 0a21 1E01     		.2byte	0x11e
 1471 0a23 6B0A0000 		.4byte	0xa6b
 1472 0a27 1A       		.uleb128 0x1a
 1473 0a28 81070000 		.4byte	.LASF160
 1474 0a2c 09       		.byte	0x9
 1475 0a2d 2701     		.2byte	0x127
 1476 0a2f A20A0000 		.4byte	0xaa2
 1477 0a33 1A       		.uleb128 0x1a
 1478 0a34 90060000 		.4byte	.LASF161
 1479 0a38 09       		.byte	0x9
 1480 0a39 2F01     		.2byte	0x12f
 1481 0a3b 1D010000 		.4byte	0x11d
 1482 0a3f 00       		.byte	0
ARM GAS  /tmp/ccYmsJPf.s 			page 27


 1483 0a40 0A       		.uleb128 0xa
 1484 0a41 04       		.byte	0x4
 1485 0a42 5A020000 		.4byte	0x25a
 1486 0a46 06       		.uleb128 0x6
 1487 0a47 C7060000 		.4byte	.LASF162
 1488 0a4b 0C       		.byte	0xc
 1489 0a4c 11       		.byte	0x11
 1490 0a4d 34       		.byte	0x34
 1491 0a4e 6B0A0000 		.4byte	0xa6b
 1492 0a52 07       		.uleb128 0x7
 1493 0a53 FC030000 		.4byte	.LASF163
 1494 0a57 11       		.byte	0x11
 1495 0a58 35       		.byte	0x35
 1496 0a59 8F020000 		.4byte	0x28f
 1497 0a5d 00       		.byte	0
 1498 0a5e 07       		.uleb128 0x7
 1499 0a5f F6020000 		.4byte	.LASF164
 1500 0a63 11       		.byte	0x11
 1501 0a64 37       		.byte	0x37
 1502 0a65 28010000 		.4byte	0x128
 1503 0a69 08       		.byte	0x8
 1504 0a6a 00       		.byte	0
 1505 0a6b 0A       		.uleb128 0xa
 1506 0a6c 04       		.byte	0x4
 1507 0a6d 460A0000 		.4byte	0xa46
 1508 0a71 06       		.uleb128 0x6
 1509 0a72 18080000 		.4byte	.LASF165
 1510 0a76 10       		.byte	0x10
 1511 0a77 12       		.byte	0x12
 1512 0a78 39       		.byte	0x39
 1513 0a79 A20A0000 		.4byte	0xaa2
 1514 0a7d 07       		.uleb128 0x7
 1515 0a7e 87010000 		.4byte	.LASF166
 1516 0a82 12       		.byte	0x12
 1517 0a83 3A       		.byte	0x3a
 1518 0a84 8F020000 		.4byte	0x28f
 1519 0a88 00       		.byte	0
 1520 0a89 07       		.uleb128 0x7
 1521 0a8a 38090000 		.4byte	.LASF167
 1522 0a8e 12       		.byte	0x12
 1523 0a8f 3C       		.byte	0x3c
 1524 0a90 65020000 		.4byte	0x265
 1525 0a94 08       		.byte	0x8
 1526 0a95 07       		.uleb128 0x7
 1527 0a96 B9070000 		.4byte	.LASF168
 1528 0a9a 12       		.byte	0x12
 1529 0a9b 3E       		.byte	0x3e
 1530 0a9c E60A0000 		.4byte	0xae6
 1531 0aa0 0C       		.byte	0xc
 1532 0aa1 00       		.byte	0
 1533 0aa2 0A       		.uleb128 0xa
 1534 0aa3 04       		.byte	0x4
 1535 0aa4 710A0000 		.4byte	0xa71
 1536 0aa8 0A       		.uleb128 0xa
 1537 0aa9 04       		.byte	0x4
 1538 0aaa B50A0000 		.4byte	0xab5
 1539 0aae 03       		.uleb128 0x3
ARM GAS  /tmp/ccYmsJPf.s 			page 28


 1540 0aaf 01       		.byte	0x1
 1541 0ab0 08       		.byte	0x8
 1542 0ab1 7C070000 		.4byte	.LASF169
 1543 0ab5 1B       		.uleb128 0x1b
 1544 0ab6 AE0A0000 		.4byte	0xaae
 1545 0aba 0A       		.uleb128 0xa
 1546 0abb 04       		.byte	0x4
 1547 0abc D7060000 		.4byte	0x6d7
 1548 0ac0 0A       		.uleb128 0xa
 1549 0ac1 04       		.byte	0x4
 1550 0ac2 44030000 		.4byte	0x344
 1551 0ac6 05       		.uleb128 0x5
 1552 0ac7 A80A0000 		.4byte	0xaa8
 1553 0acb 12       		.uleb128 0x12
 1554 0acc D7060000 		.4byte	0x6d7
 1555 0ad0 DB0A0000 		.4byte	0xadb
 1556 0ad4 13       		.uleb128 0x13
 1557 0ad5 B1040000 		.4byte	0x4b1
 1558 0ad9 1E       		.byte	0x1e
 1559 0ada 00       		.byte	0
 1560 0adb 04       		.uleb128 0x4
 1561 0adc 71020000 		.4byte	.LASF170
 1562 0ae0 12       		.byte	0x12
 1563 0ae1 34       		.byte	0x34
 1564 0ae2 710A0000 		.4byte	0xa71
 1565 0ae6 0A       		.uleb128 0xa
 1566 0ae7 04       		.byte	0x4
 1567 0ae8 DB0A0000 		.4byte	0xadb
 1568 0aec 03       		.uleb128 0x3
 1569 0aed 01       		.byte	0x1
 1570 0aee 02       		.byte	0x2
 1571 0aef 62050000 		.4byte	.LASF171
 1572 0af3 1C       		.uleb128 0x1c
 1573 0af4 F1070000 		.4byte	.LASF196
 1574 0af8 02       		.byte	0x2
 1575 0af9 2002     		.2byte	0x220
 1576 0afb 03       		.byte	0x3
 1577 0afc 0D0B0000 		.4byte	0xb0d
 1578 0b00 1D       		.uleb128 0x1d
 1579 0b01 79020000 		.4byte	.LASF197
 1580 0b05 02       		.byte	0x2
 1581 0b06 2002     		.2byte	0x220
 1582 0b08 B0000000 		.4byte	0xb0
 1583 0b0c 00       		.byte	0
 1584 0b0d 1E       		.uleb128 0x1e
 1585 0b0e 72000000 		.4byte	.LASF172
 1586 0b12 0C       		.byte	0xc
 1587 0b13 BC01     		.2byte	0x1bc
 1588 0b15 03       		.byte	0x3
 1589 0b16 1E       		.uleb128 0x1e
 1590 0b17 98010000 		.4byte	.LASF173
 1591 0b1b 0C       		.byte	0xc
 1592 0b1c CA01     		.2byte	0x1ca
 1593 0b1e 03       		.byte	0x3
 1594 0b1f 1E       		.uleb128 0x1e
 1595 0b20 4D080000 		.4byte	.LASF174
 1596 0b24 0C       		.byte	0xc
ARM GAS  /tmp/ccYmsJPf.s 			page 29


 1597 0b25 D901     		.2byte	0x1d9
 1598 0b27 03       		.byte	0x3
 1599 0b28 1E       		.uleb128 0x1e
 1600 0b29 D0080000 		.4byte	.LASF175
 1601 0b2d 03       		.byte	0x3
 1602 0b2e 8201     		.2byte	0x182
 1603 0b30 03       		.byte	0x3
 1604 0b31 1E       		.uleb128 0x1e
 1605 0b32 96070000 		.4byte	.LASF176
 1606 0b36 0C       		.byte	0xc
 1607 0b37 E401     		.2byte	0x1e4
 1608 0b39 03       		.byte	0x3
 1609 0b3a 1E       		.uleb128 0x1e
 1610 0b3b 46050000 		.4byte	.LASF177
 1611 0b3f 03       		.byte	0x3
 1612 0b40 9601     		.2byte	0x196
 1613 0b42 03       		.byte	0x3
 1614 0b43 1E       		.uleb128 0x1e
 1615 0b44 07010000 		.4byte	.LASF178
 1616 0b48 04       		.byte	0x4
 1617 0b49 DE01     		.2byte	0x1de
 1618 0b4b 03       		.byte	0x3
 1619 0b4c 1E       		.uleb128 0x1e
 1620 0b4d C9030000 		.4byte	.LASF179
 1621 0b51 04       		.byte	0x4
 1622 0b52 1902     		.2byte	0x219
 1623 0b54 03       		.byte	0x3
 1624 0b55 1E       		.uleb128 0x1e
 1625 0b56 4E020000 		.4byte	.LASF180
 1626 0b5a 04       		.byte	0x4
 1627 0b5b D301     		.2byte	0x1d3
 1628 0b5d 03       		.byte	0x3
 1629 0b5e 1F       		.uleb128 0x1f
 1630 0b5f 8F010000 		.4byte	.LASF181
 1631 0b63 01       		.byte	0x1
 1632 0b64 AD       		.byte	0xad
 1633 0b65 00000000 		.4byte	.LFB258
 1634 0b69 42000000 		.4byte	.LFE258-.LFB258
 1635 0b6d 01       		.uleb128 0x1
 1636 0b6e 9C       		.byte	0x9c
 1637 0b6f A30C0000 		.4byte	0xca3
 1638 0b73 20       		.uleb128 0x20
 1639 0b74 550B0000 		.4byte	0xb55
 1640 0b78 18000000 		.4byte	.LBB54
 1641 0b7c 0E000000 		.4byte	.LBE54-.LBB54
 1642 0b80 01       		.byte	0x1
 1643 0b81 B7       		.byte	0xb7
 1644 0b82 EA0B0000 		.4byte	0xbea
 1645 0b86 21       		.uleb128 0x21
 1646 0b87 280B0000 		.4byte	0xb28
 1647 0b8b 18000000 		.4byte	.LBB55
 1648 0b8f 0E000000 		.4byte	.LBE55-.LBB55
 1649 0b93 04       		.byte	0x4
 1650 0b94 D501     		.2byte	0x1d5
 1651 0b96 22       		.uleb128 0x22
 1652 0b97 1F0B0000 		.4byte	0xb1f
 1653 0b9b 18000000 		.4byte	.LBB57
ARM GAS  /tmp/ccYmsJPf.s 			page 30


 1654 0b9f 06000000 		.4byte	.LBE57-.LBB57
 1655 0ba3 03       		.byte	0x3
 1656 0ba4 8401     		.2byte	0x184
 1657 0ba6 D60B0000 		.4byte	0xbd6
 1658 0baa 21       		.uleb128 0x21
 1659 0bab 0D0B0000 		.4byte	0xb0d
 1660 0baf 18000000 		.4byte	.LBB58
 1661 0bb3 06000000 		.4byte	.LBE58-.LBB58
 1662 0bb7 0C       		.byte	0xc
 1663 0bb8 DB01     		.2byte	0x1db
 1664 0bba 21       		.uleb128 0x21
 1665 0bbb F30A0000 		.4byte	0xaf3
 1666 0bbf 18000000 		.4byte	.LBB59
 1667 0bc3 06000000 		.4byte	.LBE59-.LBB59
 1668 0bc7 0C       		.byte	0xc
 1669 0bc8 BF01     		.2byte	0x1bf
 1670 0bca 23       		.uleb128 0x23
 1671 0bcb 000B0000 		.4byte	0xb00
 1672 0bcf 00000000 		.4byte	.LLST0
 1673 0bd3 00       		.byte	0
 1674 0bd4 00       		.byte	0
 1675 0bd5 00       		.byte	0
 1676 0bd6 24       		.uleb128 0x24
 1677 0bd7 22000000 		.4byte	.LVL4
 1678 0bdb E40C0000 		.4byte	0xce4
 1679 0bdf 24       		.uleb128 0x24
 1680 0be0 26000000 		.4byte	.LVL5
 1681 0be4 EF0C0000 		.4byte	0xcef
 1682 0be8 00       		.byte	0
 1683 0be9 00       		.byte	0
 1684 0bea 20       		.uleb128 0x20
 1685 0beb 4C0B0000 		.4byte	0xb4c
 1686 0bef 26000000 		.4byte	.LBB61
 1687 0bf3 04000000 		.4byte	.LBE61-.LBB61
 1688 0bf7 01       		.byte	0x1
 1689 0bf8 B8       		.byte	0xb8
 1690 0bf9 070C0000 		.4byte	0xc07
 1691 0bfd 24       		.uleb128 0x24
 1692 0bfe 2A000000 		.4byte	.LVL6
 1693 0c02 FA0C0000 		.4byte	0xcfa
 1694 0c06 00       		.byte	0
 1695 0c07 20       		.uleb128 0x20
 1696 0c08 430B0000 		.4byte	0xb43
 1697 0c0c 2A000000 		.4byte	.LBB63
 1698 0c10 0C000000 		.4byte	.LBE63-.LBB63
 1699 0c14 01       		.byte	0x1
 1700 0c15 B9       		.byte	0xb9
 1701 0c16 7E0C0000 		.4byte	0xc7e
 1702 0c1a 21       		.uleb128 0x21
 1703 0c1b 3A0B0000 		.4byte	0xb3a
 1704 0c1f 2A000000 		.4byte	.LBB64
 1705 0c23 0C000000 		.4byte	.LBE64-.LBB64
 1706 0c27 04       		.byte	0x4
 1707 0c28 E001     		.2byte	0x1e0
 1708 0c2a 22       		.uleb128 0x22
 1709 0c2b 310B0000 		.4byte	0xb31
 1710 0c2f 32000000 		.4byte	.LBB66
ARM GAS  /tmp/ccYmsJPf.s 			page 31


 1711 0c33 04000000 		.4byte	.LBE66-.LBB66
 1712 0c37 03       		.byte	0x3
 1713 0c38 9A01     		.2byte	0x19a
 1714 0c3a 6A0C0000 		.4byte	0xc6a
 1715 0c3e 21       		.uleb128 0x21
 1716 0c3f 160B0000 		.4byte	0xb16
 1717 0c43 32000000 		.4byte	.LBB67
 1718 0c47 04000000 		.4byte	.LBE67-.LBB67
 1719 0c4b 0C       		.byte	0xc
 1720 0c4c E601     		.2byte	0x1e6
 1721 0c4e 21       		.uleb128 0x21
 1722 0c4f F30A0000 		.4byte	0xaf3
 1723 0c53 32000000 		.4byte	.LBB68
 1724 0c57 04000000 		.4byte	.LBE68-.LBB68
 1725 0c5b 0C       		.byte	0xc
 1726 0c5c CD01     		.2byte	0x1cd
 1727 0c5e 23       		.uleb128 0x23
 1728 0c5f 000B0000 		.4byte	0xb00
 1729 0c63 15000000 		.4byte	.LLST1
 1730 0c67 00       		.byte	0
 1731 0c68 00       		.byte	0
 1732 0c69 00       		.byte	0
 1733 0c6a 24       		.uleb128 0x24
 1734 0c6b 2E000000 		.4byte	.LVL7
 1735 0c6f 060D0000 		.4byte	0xd06
 1736 0c73 24       		.uleb128 0x24
 1737 0c74 32000000 		.4byte	.LVL8
 1738 0c78 110D0000 		.4byte	0xd11
 1739 0c7c 00       		.byte	0
 1740 0c7d 00       		.byte	0
 1741 0c7e 24       		.uleb128 0x24
 1742 0c7f 06000000 		.4byte	.LVL0
 1743 0c83 1C0D0000 		.4byte	0xd1c
 1744 0c87 24       		.uleb128 0x24
 1745 0c88 0A000000 		.4byte	.LVL1
 1746 0c8c 270D0000 		.4byte	0xd27
 1747 0c90 24       		.uleb128 0x24
 1748 0c91 3A000000 		.4byte	.LVL10
 1749 0c95 320D0000 		.4byte	0xd32
 1750 0c99 25       		.uleb128 0x25
 1751 0c9a 42000000 		.4byte	.LVL11
 1752 0c9e 3D0D0000 		.4byte	0xd3d
 1753 0ca2 00       		.byte	0
 1754 0ca3 1F       		.uleb128 0x1f
 1755 0ca4 1C010000 		.4byte	.LASF182
 1756 0ca8 01       		.byte	0x1
 1757 0ca9 C9       		.byte	0xc9
 1758 0caa 00000000 		.4byte	.LFB259
 1759 0cae 48000000 		.4byte	.LFE259-.LFB259
 1760 0cb2 01       		.uleb128 0x1
 1761 0cb3 9C       		.byte	0x9c
 1762 0cb4 CD0C0000 		.4byte	0xccd
 1763 0cb8 26       		.uleb128 0x26
 1764 0cb9 40000000 		.4byte	.LVL12
 1765 0cbd 490D0000 		.4byte	0xd49
 1766 0cc1 27       		.uleb128 0x27
 1767 0cc2 01       		.uleb128 0x1
ARM GAS  /tmp/ccYmsJPf.s 			page 32


 1768 0cc3 50       		.byte	0x50
 1769 0cc4 01       		.uleb128 0x1
 1770 0cc5 4C       		.byte	0x4c
 1771 0cc6 27       		.uleb128 0x27
 1772 0cc7 01       		.uleb128 0x1
 1773 0cc8 51       		.byte	0x51
 1774 0cc9 01       		.uleb128 0x1
 1775 0cca 38       		.byte	0x38
 1776 0ccb 00       		.byte	0
 1777 0ccc 00       		.byte	0
 1778 0ccd 28       		.uleb128 0x28
 1779 0cce 7E050000 		.4byte	.LASF183
 1780 0cd2 14       		.byte	0x14
 1781 0cd3 A706     		.2byte	0x6a7
 1782 0cd5 C6000000 		.4byte	0xc6
 1783 0cd9 29       		.uleb128 0x29
 1784 0cda 636800   		.ascii	"ch\000"
 1785 0cdd 09       		.byte	0x9
 1786 0cde 0902     		.2byte	0x209
 1787 0ce0 39040000 		.4byte	0x439
 1788 0ce4 2A       		.uleb128 0x2a
 1789 0ce5 A0030000 		.4byte	.LASF184
 1790 0ce9 A0030000 		.4byte	.LASF184
 1791 0ced 10       		.byte	0x10
 1792 0cee 51       		.byte	0x51
 1793 0cef 2A       		.uleb128 0x2a
 1794 0cf0 BD040000 		.4byte	.LASF185
 1795 0cf4 BD040000 		.4byte	.LASF185
 1796 0cf8 0E       		.byte	0xe
 1797 0cf9 DA       		.byte	0xda
 1798 0cfa 2B       		.uleb128 0x2b
 1799 0cfb CA070000 		.4byte	.LASF186
 1800 0cff CA070000 		.4byte	.LASF186
 1801 0d03 03       		.byte	0x3
 1802 0d04 1801     		.2byte	0x118
 1803 0d06 2A       		.uleb128 0x2a
 1804 0d07 77080000 		.4byte	.LASF187
 1805 0d0b 77080000 		.4byte	.LASF187
 1806 0d0f 0E       		.byte	0xe
 1807 0d10 DB       		.byte	0xdb
 1808 0d11 2A       		.uleb128 0x2a
 1809 0d12 10090000 		.4byte	.LASF188
 1810 0d16 10090000 		.4byte	.LASF188
 1811 0d1a 10       		.byte	0x10
 1812 0d1b 52       		.byte	0x52
 1813 0d1c 2A       		.uleb128 0x2a
 1814 0d1d FB060000 		.4byte	.LASF189
 1815 0d21 FB060000 		.4byte	.LASF189
 1816 0d25 10       		.byte	0x10
 1817 0d26 4D       		.byte	0x4d
 1818 0d27 2A       		.uleb128 0x2a
 1819 0d28 74040000 		.4byte	.LASF190
 1820 0d2c 74040000 		.4byte	.LASF190
 1821 0d30 0E       		.byte	0xe
 1822 0d31 DC       		.byte	0xdc
 1823 0d32 2A       		.uleb128 0x2a
 1824 0d33 BD020000 		.4byte	.LASF191
ARM GAS  /tmp/ccYmsJPf.s 			page 33


 1825 0d37 BD020000 		.4byte	.LASF191
 1826 0d3b 0E       		.byte	0xe
 1827 0d3c DD       		.byte	0xdd
 1828 0d3d 2B       		.uleb128 0x2b
 1829 0d3e 4D030000 		.4byte	.LASF192
 1830 0d42 4D030000 		.4byte	.LASF192
 1831 0d46 0C       		.byte	0xc
 1832 0d47 6601     		.2byte	0x166
 1833 0d49 2A       		.uleb128 0x2a
 1834 0d4a 47010000 		.4byte	.LASF193
 1835 0d4e 47010000 		.4byte	.LASF193
 1836 0d52 13       		.byte	0x13
 1837 0d53 4E       		.byte	0x4e
 1838 0d54 00       		.byte	0
 1839              		.section	.debug_abbrev,"",%progbits
 1840              	.Ldebug_abbrev0:
 1841 0000 01       		.uleb128 0x1
 1842 0001 11       		.uleb128 0x11
 1843 0002 01       		.byte	0x1
 1844 0003 25       		.uleb128 0x25
 1845 0004 0E       		.uleb128 0xe
 1846 0005 13       		.uleb128 0x13
 1847 0006 0B       		.uleb128 0xb
 1848 0007 03       		.uleb128 0x3
 1849 0008 0E       		.uleb128 0xe
 1850 0009 55       		.uleb128 0x55
 1851 000a 17       		.uleb128 0x17
 1852 000b 11       		.uleb128 0x11
 1853 000c 01       		.uleb128 0x1
 1854 000d 10       		.uleb128 0x10
 1855 000e 17       		.uleb128 0x17
 1856 000f 00       		.byte	0
 1857 0010 00       		.byte	0
 1858 0011 02       		.uleb128 0x2
 1859 0012 24       		.uleb128 0x24
 1860 0013 00       		.byte	0
 1861 0014 0B       		.uleb128 0xb
 1862 0015 0B       		.uleb128 0xb
 1863 0016 3E       		.uleb128 0x3e
 1864 0017 0B       		.uleb128 0xb
 1865 0018 03       		.uleb128 0x3
 1866 0019 08       		.uleb128 0x8
 1867 001a 00       		.byte	0
 1868 001b 00       		.byte	0
 1869 001c 03       		.uleb128 0x3
 1870 001d 24       		.uleb128 0x24
 1871 001e 00       		.byte	0
 1872 001f 0B       		.uleb128 0xb
 1873 0020 0B       		.uleb128 0xb
 1874 0021 3E       		.uleb128 0x3e
 1875 0022 0B       		.uleb128 0xb
 1876 0023 03       		.uleb128 0x3
 1877 0024 0E       		.uleb128 0xe
 1878 0025 00       		.byte	0
 1879 0026 00       		.byte	0
 1880 0027 04       		.uleb128 0x4
 1881 0028 16       		.uleb128 0x16
ARM GAS  /tmp/ccYmsJPf.s 			page 34


 1882 0029 00       		.byte	0
 1883 002a 03       		.uleb128 0x3
 1884 002b 0E       		.uleb128 0xe
 1885 002c 3A       		.uleb128 0x3a
 1886 002d 0B       		.uleb128 0xb
 1887 002e 3B       		.uleb128 0x3b
 1888 002f 0B       		.uleb128 0xb
 1889 0030 49       		.uleb128 0x49
 1890 0031 13       		.uleb128 0x13
 1891 0032 00       		.byte	0
 1892 0033 00       		.byte	0
 1893 0034 05       		.uleb128 0x5
 1894 0035 35       		.uleb128 0x35
 1895 0036 00       		.byte	0
 1896 0037 49       		.uleb128 0x49
 1897 0038 13       		.uleb128 0x13
 1898 0039 00       		.byte	0
 1899 003a 00       		.byte	0
 1900 003b 06       		.uleb128 0x6
 1901 003c 13       		.uleb128 0x13
 1902 003d 01       		.byte	0x1
 1903 003e 03       		.uleb128 0x3
 1904 003f 0E       		.uleb128 0xe
 1905 0040 0B       		.uleb128 0xb
 1906 0041 0B       		.uleb128 0xb
 1907 0042 3A       		.uleb128 0x3a
 1908 0043 0B       		.uleb128 0xb
 1909 0044 3B       		.uleb128 0x3b
 1910 0045 0B       		.uleb128 0xb
 1911 0046 01       		.uleb128 0x1
 1912 0047 13       		.uleb128 0x13
 1913 0048 00       		.byte	0
 1914 0049 00       		.byte	0
 1915 004a 07       		.uleb128 0x7
 1916 004b 0D       		.uleb128 0xd
 1917 004c 00       		.byte	0
 1918 004d 03       		.uleb128 0x3
 1919 004e 0E       		.uleb128 0xe
 1920 004f 3A       		.uleb128 0x3a
 1921 0050 0B       		.uleb128 0xb
 1922 0051 3B       		.uleb128 0x3b
 1923 0052 0B       		.uleb128 0xb
 1924 0053 49       		.uleb128 0x49
 1925 0054 13       		.uleb128 0x13
 1926 0055 38       		.uleb128 0x38
 1927 0056 0B       		.uleb128 0xb
 1928 0057 00       		.byte	0
 1929 0058 00       		.byte	0
 1930 0059 08       		.uleb128 0x8
 1931 005a 0D       		.uleb128 0xd
 1932 005b 00       		.byte	0
 1933 005c 03       		.uleb128 0x3
 1934 005d 08       		.uleb128 0x8
 1935 005e 3A       		.uleb128 0x3a
 1936 005f 0B       		.uleb128 0xb
 1937 0060 3B       		.uleb128 0x3b
 1938 0061 05       		.uleb128 0x5
ARM GAS  /tmp/ccYmsJPf.s 			page 35


 1939 0062 49       		.uleb128 0x49
 1940 0063 13       		.uleb128 0x13
 1941 0064 38       		.uleb128 0x38
 1942 0065 0B       		.uleb128 0xb
 1943 0066 00       		.byte	0
 1944 0067 00       		.byte	0
 1945 0068 09       		.uleb128 0x9
 1946 0069 0D       		.uleb128 0xd
 1947 006a 00       		.byte	0
 1948 006b 03       		.uleb128 0x3
 1949 006c 0E       		.uleb128 0xe
 1950 006d 3A       		.uleb128 0x3a
 1951 006e 0B       		.uleb128 0xb
 1952 006f 3B       		.uleb128 0x3b
 1953 0070 05       		.uleb128 0x5
 1954 0071 49       		.uleb128 0x49
 1955 0072 13       		.uleb128 0x13
 1956 0073 38       		.uleb128 0x38
 1957 0074 0B       		.uleb128 0xb
 1958 0075 00       		.byte	0
 1959 0076 00       		.byte	0
 1960 0077 0A       		.uleb128 0xa
 1961 0078 0F       		.uleb128 0xf
 1962 0079 00       		.byte	0
 1963 007a 0B       		.uleb128 0xb
 1964 007b 0B       		.uleb128 0xb
 1965 007c 49       		.uleb128 0x49
 1966 007d 13       		.uleb128 0x13
 1967 007e 00       		.byte	0
 1968 007f 00       		.byte	0
 1969 0080 0B       		.uleb128 0xb
 1970 0081 13       		.uleb128 0x13
 1971 0082 01       		.byte	0x1
 1972 0083 03       		.uleb128 0x3
 1973 0084 0E       		.uleb128 0xe
 1974 0085 0B       		.uleb128 0xb
 1975 0086 0B       		.uleb128 0xb
 1976 0087 3A       		.uleb128 0x3a
 1977 0088 0B       		.uleb128 0xb
 1978 0089 3B       		.uleb128 0x3b
 1979 008a 05       		.uleb128 0x5
 1980 008b 01       		.uleb128 0x1
 1981 008c 13       		.uleb128 0x13
 1982 008d 00       		.byte	0
 1983 008e 00       		.byte	0
 1984 008f 0C       		.uleb128 0xc
 1985 0090 15       		.uleb128 0x15
 1986 0091 01       		.byte	0x1
 1987 0092 27       		.uleb128 0x27
 1988 0093 19       		.uleb128 0x19
 1989 0094 01       		.uleb128 0x1
 1990 0095 13       		.uleb128 0x13
 1991 0096 00       		.byte	0
 1992 0097 00       		.byte	0
 1993 0098 0D       		.uleb128 0xd
 1994 0099 05       		.uleb128 0x5
 1995 009a 00       		.byte	0
ARM GAS  /tmp/ccYmsJPf.s 			page 36


 1996 009b 49       		.uleb128 0x49
 1997 009c 13       		.uleb128 0x13
 1998 009d 00       		.byte	0
 1999 009e 00       		.byte	0
 2000 009f 0E       		.uleb128 0xe
 2001 00a0 0F       		.uleb128 0xf
 2002 00a1 00       		.byte	0
 2003 00a2 0B       		.uleb128 0xb
 2004 00a3 0B       		.uleb128 0xb
 2005 00a4 00       		.byte	0
 2006 00a5 00       		.byte	0
 2007 00a6 0F       		.uleb128 0xf
 2008 00a7 13       		.uleb128 0x13
 2009 00a8 01       		.byte	0x1
 2010 00a9 03       		.uleb128 0x3
 2011 00aa 0E       		.uleb128 0xe
 2012 00ab 0B       		.uleb128 0xb
 2013 00ac 05       		.uleb128 0x5
 2014 00ad 3A       		.uleb128 0x3a
 2015 00ae 0B       		.uleb128 0xb
 2016 00af 3B       		.uleb128 0x3b
 2017 00b0 05       		.uleb128 0x5
 2018 00b1 01       		.uleb128 0x1
 2019 00b2 13       		.uleb128 0x13
 2020 00b3 00       		.byte	0
 2021 00b4 00       		.byte	0
 2022 00b5 10       		.uleb128 0x10
 2023 00b6 0D       		.uleb128 0xd
 2024 00b7 00       		.byte	0
 2025 00b8 03       		.uleb128 0x3
 2026 00b9 0E       		.uleb128 0xe
 2027 00ba 3A       		.uleb128 0x3a
 2028 00bb 0B       		.uleb128 0xb
 2029 00bc 3B       		.uleb128 0x3b
 2030 00bd 05       		.uleb128 0x5
 2031 00be 49       		.uleb128 0x49
 2032 00bf 13       		.uleb128 0x13
 2033 00c0 38       		.uleb128 0x38
 2034 00c1 05       		.uleb128 0x5
 2035 00c2 00       		.byte	0
 2036 00c3 00       		.byte	0
 2037 00c4 11       		.uleb128 0x11
 2038 00c5 0D       		.uleb128 0xd
 2039 00c6 00       		.byte	0
 2040 00c7 03       		.uleb128 0x3
 2041 00c8 08       		.uleb128 0x8
 2042 00c9 3A       		.uleb128 0x3a
 2043 00ca 0B       		.uleb128 0xb
 2044 00cb 3B       		.uleb128 0x3b
 2045 00cc 05       		.uleb128 0x5
 2046 00cd 49       		.uleb128 0x49
 2047 00ce 13       		.uleb128 0x13
 2048 00cf 38       		.uleb128 0x38
 2049 00d0 05       		.uleb128 0x5
 2050 00d1 00       		.byte	0
 2051 00d2 00       		.byte	0
 2052 00d3 12       		.uleb128 0x12
ARM GAS  /tmp/ccYmsJPf.s 			page 37


 2053 00d4 01       		.uleb128 0x1
 2054 00d5 01       		.byte	0x1
 2055 00d6 49       		.uleb128 0x49
 2056 00d7 13       		.uleb128 0x13
 2057 00d8 01       		.uleb128 0x1
 2058 00d9 13       		.uleb128 0x13
 2059 00da 00       		.byte	0
 2060 00db 00       		.byte	0
 2061 00dc 13       		.uleb128 0x13
 2062 00dd 21       		.uleb128 0x21
 2063 00de 00       		.byte	0
 2064 00df 49       		.uleb128 0x49
 2065 00e0 13       		.uleb128 0x13
 2066 00e1 2F       		.uleb128 0x2f
 2067 00e2 0B       		.uleb128 0xb
 2068 00e3 00       		.byte	0
 2069 00e4 00       		.byte	0
 2070 00e5 14       		.uleb128 0x14
 2071 00e6 13       		.uleb128 0x13
 2072 00e7 01       		.byte	0x1
 2073 00e8 0B       		.uleb128 0xb
 2074 00e9 0B       		.uleb128 0xb
 2075 00ea 3A       		.uleb128 0x3a
 2076 00eb 0B       		.uleb128 0xb
 2077 00ec 3B       		.uleb128 0x3b
 2078 00ed 05       		.uleb128 0x5
 2079 00ee 01       		.uleb128 0x1
 2080 00ef 13       		.uleb128 0x13
 2081 00f0 00       		.byte	0
 2082 00f1 00       		.byte	0
 2083 00f2 15       		.uleb128 0x15
 2084 00f3 16       		.uleb128 0x16
 2085 00f4 00       		.byte	0
 2086 00f5 03       		.uleb128 0x3
 2087 00f6 0E       		.uleb128 0xe
 2088 00f7 3A       		.uleb128 0x3a
 2089 00f8 0B       		.uleb128 0xb
 2090 00f9 3B       		.uleb128 0x3b
 2091 00fa 05       		.uleb128 0x5
 2092 00fb 49       		.uleb128 0x49
 2093 00fc 13       		.uleb128 0x13
 2094 00fd 00       		.byte	0
 2095 00fe 00       		.byte	0
 2096 00ff 16       		.uleb128 0x16
 2097 0100 0D       		.uleb128 0xd
 2098 0101 00       		.byte	0
 2099 0102 03       		.uleb128 0x3
 2100 0103 08       		.uleb128 0x8
 2101 0104 3A       		.uleb128 0x3a
 2102 0105 0B       		.uleb128 0xb
 2103 0106 3B       		.uleb128 0x3b
 2104 0107 0B       		.uleb128 0xb
 2105 0108 49       		.uleb128 0x49
 2106 0109 13       		.uleb128 0x13
 2107 010a 38       		.uleb128 0x38
 2108 010b 0B       		.uleb128 0xb
 2109 010c 00       		.byte	0
ARM GAS  /tmp/ccYmsJPf.s 			page 38


 2110 010d 00       		.byte	0
 2111 010e 17       		.uleb128 0x17
 2112 010f 13       		.uleb128 0x13
 2113 0110 01       		.byte	0x1
 2114 0111 0B       		.uleb128 0xb
 2115 0112 0B       		.uleb128 0xb
 2116 0113 3A       		.uleb128 0x3a
 2117 0114 0B       		.uleb128 0xb
 2118 0115 3B       		.uleb128 0x3b
 2119 0116 0B       		.uleb128 0xb
 2120 0117 01       		.uleb128 0x1
 2121 0118 13       		.uleb128 0x13
 2122 0119 00       		.byte	0
 2123 011a 00       		.byte	0
 2124 011b 18       		.uleb128 0x18
 2125 011c 13       		.uleb128 0x13
 2126 011d 01       		.byte	0x1
 2127 011e 0B       		.uleb128 0xb
 2128 011f 05       		.uleb128 0x5
 2129 0120 3A       		.uleb128 0x3a
 2130 0121 0B       		.uleb128 0xb
 2131 0122 3B       		.uleb128 0x3b
 2132 0123 0B       		.uleb128 0xb
 2133 0124 01       		.uleb128 0x1
 2134 0125 13       		.uleb128 0x13
 2135 0126 00       		.byte	0
 2136 0127 00       		.byte	0
 2137 0128 19       		.uleb128 0x19
 2138 0129 17       		.uleb128 0x17
 2139 012a 01       		.byte	0x1
 2140 012b 0B       		.uleb128 0xb
 2141 012c 0B       		.uleb128 0xb
 2142 012d 3A       		.uleb128 0x3a
 2143 012e 0B       		.uleb128 0xb
 2144 012f 3B       		.uleb128 0x3b
 2145 0130 0B       		.uleb128 0xb
 2146 0131 01       		.uleb128 0x1
 2147 0132 13       		.uleb128 0x13
 2148 0133 00       		.byte	0
 2149 0134 00       		.byte	0
 2150 0135 1A       		.uleb128 0x1a
 2151 0136 0D       		.uleb128 0xd
 2152 0137 00       		.byte	0
 2153 0138 03       		.uleb128 0x3
 2154 0139 0E       		.uleb128 0xe
 2155 013a 3A       		.uleb128 0x3a
 2156 013b 0B       		.uleb128 0xb
 2157 013c 3B       		.uleb128 0x3b
 2158 013d 05       		.uleb128 0x5
 2159 013e 49       		.uleb128 0x49
 2160 013f 13       		.uleb128 0x13
 2161 0140 00       		.byte	0
 2162 0141 00       		.byte	0
 2163 0142 1B       		.uleb128 0x1b
 2164 0143 26       		.uleb128 0x26
 2165 0144 00       		.byte	0
 2166 0145 49       		.uleb128 0x49
ARM GAS  /tmp/ccYmsJPf.s 			page 39


 2167 0146 13       		.uleb128 0x13
 2168 0147 00       		.byte	0
 2169 0148 00       		.byte	0
 2170 0149 1C       		.uleb128 0x1c
 2171 014a 2E       		.uleb128 0x2e
 2172 014b 01       		.byte	0x1
 2173 014c 03       		.uleb128 0x3
 2174 014d 0E       		.uleb128 0xe
 2175 014e 3A       		.uleb128 0x3a
 2176 014f 0B       		.uleb128 0xb
 2177 0150 3B       		.uleb128 0x3b
 2178 0151 05       		.uleb128 0x5
 2179 0152 27       		.uleb128 0x27
 2180 0153 19       		.uleb128 0x19
 2181 0154 20       		.uleb128 0x20
 2182 0155 0B       		.uleb128 0xb
 2183 0156 01       		.uleb128 0x1
 2184 0157 13       		.uleb128 0x13
 2185 0158 00       		.byte	0
 2186 0159 00       		.byte	0
 2187 015a 1D       		.uleb128 0x1d
 2188 015b 05       		.uleb128 0x5
 2189 015c 00       		.byte	0
 2190 015d 03       		.uleb128 0x3
 2191 015e 0E       		.uleb128 0xe
 2192 015f 3A       		.uleb128 0x3a
 2193 0160 0B       		.uleb128 0xb
 2194 0161 3B       		.uleb128 0x3b
 2195 0162 05       		.uleb128 0x5
 2196 0163 49       		.uleb128 0x49
 2197 0164 13       		.uleb128 0x13
 2198 0165 00       		.byte	0
 2199 0166 00       		.byte	0
 2200 0167 1E       		.uleb128 0x1e
 2201 0168 2E       		.uleb128 0x2e
 2202 0169 00       		.byte	0
 2203 016a 03       		.uleb128 0x3
 2204 016b 0E       		.uleb128 0xe
 2205 016c 3A       		.uleb128 0x3a
 2206 016d 0B       		.uleb128 0xb
 2207 016e 3B       		.uleb128 0x3b
 2208 016f 05       		.uleb128 0x5
 2209 0170 27       		.uleb128 0x27
 2210 0171 19       		.uleb128 0x19
 2211 0172 20       		.uleb128 0x20
 2212 0173 0B       		.uleb128 0xb
 2213 0174 00       		.byte	0
 2214 0175 00       		.byte	0
 2215 0176 1F       		.uleb128 0x1f
 2216 0177 2E       		.uleb128 0x2e
 2217 0178 01       		.byte	0x1
 2218 0179 3F       		.uleb128 0x3f
 2219 017a 19       		.uleb128 0x19
 2220 017b 03       		.uleb128 0x3
 2221 017c 0E       		.uleb128 0xe
 2222 017d 3A       		.uleb128 0x3a
 2223 017e 0B       		.uleb128 0xb
ARM GAS  /tmp/ccYmsJPf.s 			page 40


 2224 017f 3B       		.uleb128 0x3b
 2225 0180 0B       		.uleb128 0xb
 2226 0181 27       		.uleb128 0x27
 2227 0182 19       		.uleb128 0x19
 2228 0183 11       		.uleb128 0x11
 2229 0184 01       		.uleb128 0x1
 2230 0185 12       		.uleb128 0x12
 2231 0186 06       		.uleb128 0x6
 2232 0187 40       		.uleb128 0x40
 2233 0188 18       		.uleb128 0x18
 2234 0189 9742     		.uleb128 0x2117
 2235 018b 19       		.uleb128 0x19
 2236 018c 01       		.uleb128 0x1
 2237 018d 13       		.uleb128 0x13
 2238 018e 00       		.byte	0
 2239 018f 00       		.byte	0
 2240 0190 20       		.uleb128 0x20
 2241 0191 1D       		.uleb128 0x1d
 2242 0192 01       		.byte	0x1
 2243 0193 31       		.uleb128 0x31
 2244 0194 13       		.uleb128 0x13
 2245 0195 11       		.uleb128 0x11
 2246 0196 01       		.uleb128 0x1
 2247 0197 12       		.uleb128 0x12
 2248 0198 06       		.uleb128 0x6
 2249 0199 58       		.uleb128 0x58
 2250 019a 0B       		.uleb128 0xb
 2251 019b 59       		.uleb128 0x59
 2252 019c 0B       		.uleb128 0xb
 2253 019d 01       		.uleb128 0x1
 2254 019e 13       		.uleb128 0x13
 2255 019f 00       		.byte	0
 2256 01a0 00       		.byte	0
 2257 01a1 21       		.uleb128 0x21
 2258 01a2 1D       		.uleb128 0x1d
 2259 01a3 01       		.byte	0x1
 2260 01a4 31       		.uleb128 0x31
 2261 01a5 13       		.uleb128 0x13
 2262 01a6 11       		.uleb128 0x11
 2263 01a7 01       		.uleb128 0x1
 2264 01a8 12       		.uleb128 0x12
 2265 01a9 06       		.uleb128 0x6
 2266 01aa 58       		.uleb128 0x58
 2267 01ab 0B       		.uleb128 0xb
 2268 01ac 59       		.uleb128 0x59
 2269 01ad 05       		.uleb128 0x5
 2270 01ae 00       		.byte	0
 2271 01af 00       		.byte	0
 2272 01b0 22       		.uleb128 0x22
 2273 01b1 1D       		.uleb128 0x1d
 2274 01b2 01       		.byte	0x1
 2275 01b3 31       		.uleb128 0x31
 2276 01b4 13       		.uleb128 0x13
 2277 01b5 11       		.uleb128 0x11
 2278 01b6 01       		.uleb128 0x1
 2279 01b7 12       		.uleb128 0x12
 2280 01b8 06       		.uleb128 0x6
ARM GAS  /tmp/ccYmsJPf.s 			page 41


 2281 01b9 58       		.uleb128 0x58
 2282 01ba 0B       		.uleb128 0xb
 2283 01bb 59       		.uleb128 0x59
 2284 01bc 05       		.uleb128 0x5
 2285 01bd 01       		.uleb128 0x1
 2286 01be 13       		.uleb128 0x13
 2287 01bf 00       		.byte	0
 2288 01c0 00       		.byte	0
 2289 01c1 23       		.uleb128 0x23
 2290 01c2 05       		.uleb128 0x5
 2291 01c3 00       		.byte	0
 2292 01c4 31       		.uleb128 0x31
 2293 01c5 13       		.uleb128 0x13
 2294 01c6 02       		.uleb128 0x2
 2295 01c7 17       		.uleb128 0x17
 2296 01c8 00       		.byte	0
 2297 01c9 00       		.byte	0
 2298 01ca 24       		.uleb128 0x24
 2299 01cb 898201   		.uleb128 0x4109
 2300 01ce 00       		.byte	0
 2301 01cf 11       		.uleb128 0x11
 2302 01d0 01       		.uleb128 0x1
 2303 01d1 31       		.uleb128 0x31
 2304 01d2 13       		.uleb128 0x13
 2305 01d3 00       		.byte	0
 2306 01d4 00       		.byte	0
 2307 01d5 25       		.uleb128 0x25
 2308 01d6 898201   		.uleb128 0x4109
 2309 01d9 00       		.byte	0
 2310 01da 11       		.uleb128 0x11
 2311 01db 01       		.uleb128 0x1
 2312 01dc 9542     		.uleb128 0x2115
 2313 01de 19       		.uleb128 0x19
 2314 01df 31       		.uleb128 0x31
 2315 01e0 13       		.uleb128 0x13
 2316 01e1 00       		.byte	0
 2317 01e2 00       		.byte	0
 2318 01e3 26       		.uleb128 0x26
 2319 01e4 898201   		.uleb128 0x4109
 2320 01e7 01       		.byte	0x1
 2321 01e8 11       		.uleb128 0x11
 2322 01e9 01       		.uleb128 0x1
 2323 01ea 9542     		.uleb128 0x2115
 2324 01ec 19       		.uleb128 0x19
 2325 01ed 31       		.uleb128 0x31
 2326 01ee 13       		.uleb128 0x13
 2327 01ef 00       		.byte	0
 2328 01f0 00       		.byte	0
 2329 01f1 27       		.uleb128 0x27
 2330 01f2 8A8201   		.uleb128 0x410a
 2331 01f5 00       		.byte	0
 2332 01f6 02       		.uleb128 0x2
 2333 01f7 18       		.uleb128 0x18
 2334 01f8 9142     		.uleb128 0x2111
 2335 01fa 18       		.uleb128 0x18
 2336 01fb 00       		.byte	0
 2337 01fc 00       		.byte	0
ARM GAS  /tmp/ccYmsJPf.s 			page 42


 2338 01fd 28       		.uleb128 0x28
 2339 01fe 34       		.uleb128 0x34
 2340 01ff 00       		.byte	0
 2341 0200 03       		.uleb128 0x3
 2342 0201 0E       		.uleb128 0xe
 2343 0202 3A       		.uleb128 0x3a
 2344 0203 0B       		.uleb128 0xb
 2345 0204 3B       		.uleb128 0x3b
 2346 0205 05       		.uleb128 0x5
 2347 0206 49       		.uleb128 0x49
 2348 0207 13       		.uleb128 0x13
 2349 0208 3F       		.uleb128 0x3f
 2350 0209 19       		.uleb128 0x19
 2351 020a 3C       		.uleb128 0x3c
 2352 020b 19       		.uleb128 0x19
 2353 020c 00       		.byte	0
 2354 020d 00       		.byte	0
 2355 020e 29       		.uleb128 0x29
 2356 020f 34       		.uleb128 0x34
 2357 0210 00       		.byte	0
 2358 0211 03       		.uleb128 0x3
 2359 0212 08       		.uleb128 0x8
 2360 0213 3A       		.uleb128 0x3a
 2361 0214 0B       		.uleb128 0xb
 2362 0215 3B       		.uleb128 0x3b
 2363 0216 05       		.uleb128 0x5
 2364 0217 49       		.uleb128 0x49
 2365 0218 13       		.uleb128 0x13
 2366 0219 3F       		.uleb128 0x3f
 2367 021a 19       		.uleb128 0x19
 2368 021b 3C       		.uleb128 0x3c
 2369 021c 19       		.uleb128 0x19
 2370 021d 00       		.byte	0
 2371 021e 00       		.byte	0
 2372 021f 2A       		.uleb128 0x2a
 2373 0220 2E       		.uleb128 0x2e
 2374 0221 00       		.byte	0
 2375 0222 3F       		.uleb128 0x3f
 2376 0223 19       		.uleb128 0x19
 2377 0224 3C       		.uleb128 0x3c
 2378 0225 19       		.uleb128 0x19
 2379 0226 6E       		.uleb128 0x6e
 2380 0227 0E       		.uleb128 0xe
 2381 0228 03       		.uleb128 0x3
 2382 0229 0E       		.uleb128 0xe
 2383 022a 3A       		.uleb128 0x3a
 2384 022b 0B       		.uleb128 0xb
 2385 022c 3B       		.uleb128 0x3b
 2386 022d 0B       		.uleb128 0xb
 2387 022e 00       		.byte	0
 2388 022f 00       		.byte	0
 2389 0230 2B       		.uleb128 0x2b
 2390 0231 2E       		.uleb128 0x2e
 2391 0232 00       		.byte	0
 2392 0233 3F       		.uleb128 0x3f
 2393 0234 19       		.uleb128 0x19
 2394 0235 3C       		.uleb128 0x3c
ARM GAS  /tmp/ccYmsJPf.s 			page 43


 2395 0236 19       		.uleb128 0x19
 2396 0237 6E       		.uleb128 0x6e
 2397 0238 0E       		.uleb128 0xe
 2398 0239 03       		.uleb128 0x3
 2399 023a 0E       		.uleb128 0xe
 2400 023b 3A       		.uleb128 0x3a
 2401 023c 0B       		.uleb128 0xb
 2402 023d 3B       		.uleb128 0x3b
 2403 023e 05       		.uleb128 0x5
 2404 023f 00       		.byte	0
 2405 0240 00       		.byte	0
 2406 0241 00       		.byte	0
 2407              		.section	.debug_loc,"",%progbits
 2408              	.Ldebug_loc0:
 2409              	.LLST0:
 2410 0000 18000000 		.4byte	.LVL2
 2411 0004 1E000000 		.4byte	.LVL3
 2412 0008 0300     		.2byte	0x3
 2413 000a 08       		.byte	0x8
 2414 000b 20       		.byte	0x20
 2415 000c 9F       		.byte	0x9f
 2416 000d 00000000 		.4byte	0
 2417 0011 00000000 		.4byte	0
 2418              	.LLST1:
 2419 0015 32000000 		.4byte	.LVL8
 2420 0019 36000000 		.4byte	.LVL9
 2421 001d 0200     		.2byte	0x2
 2422 001f 30       		.byte	0x30
 2423 0020 9F       		.byte	0x9f
 2424 0021 00000000 		.4byte	0
 2425 0025 00000000 		.4byte	0
 2426              		.section	.debug_aranges,"",%progbits
 2427 0000 24000000 		.4byte	0x24
 2428 0004 0200     		.2byte	0x2
 2429 0006 00000000 		.4byte	.Ldebug_info0
 2430 000a 04       		.byte	0x4
 2431 000b 00       		.byte	0
 2432 000c 0000     		.2byte	0
 2433 000e 0000     		.2byte	0
 2434 0010 00000000 		.4byte	.LFB258
 2435 0014 42000000 		.4byte	.LFE258-.LFB258
 2436 0018 00000000 		.4byte	.LFB259
 2437 001c 48000000 		.4byte	.LFE259-.LFB259
 2438 0020 00000000 		.4byte	0
 2439 0024 00000000 		.4byte	0
 2440              		.section	.debug_ranges,"",%progbits
 2441              	.Ldebug_ranges0:
 2442 0000 00000000 		.4byte	.LFB258
 2443 0004 42000000 		.4byte	.LFE258
 2444 0008 00000000 		.4byte	.LFB259
 2445 000c 48000000 		.4byte	.LFE259
 2446 0010 00000000 		.4byte	0
 2447 0014 00000000 		.4byte	0
 2448              		.section	.debug_line,"",%progbits
 2449              	.Ldebug_line0:
 2450 0000 67030000 		.section	.debug_str,"MS",%progbits,1
 2450      0200ED02 
ARM GAS  /tmp/ccYmsJPf.s 			page 44


 2450      00000201 
 2450      FB0E0D00 
 2450      01010101 
 2451              	.LASF140:
 2452 0000 74625F70 		.ascii	"tb_ptr\000"
 2452      747200
 2453              	.LASF55:
 2454 0007 72656164 		.ascii	"ready_list_t\000"
 2454      795F6C69 
 2454      73745F74 
 2454      00
 2455              	.LASF125:
 2456 0014 44494552 		.ascii	"DIER\000"
 2456      00
 2457              	.LASF158:
 2458 0019 77747472 		.ascii	"wttrp\000"
 2458      7000
 2459              	.LASF155:
 2460 001f 7264796D 		.ascii	"rdymsg\000"
 2460      736700
 2461              	.LASF17:
 2462 0026 75696E74 		.ascii	"uint64_t\000"
 2462      36345F74 
 2462      00
 2463              	.LASF85:
 2464 002f 6B65726E 		.ascii	"kernel_stats\000"
 2464      656C5F73 
 2464      74617473 
 2464      00
 2465              	.LASF7:
 2466 003c 5F5F7569 		.ascii	"__uint8_t\000"
 2466      6E74385F 
 2466      7400
 2467              	.LASF123:
 2468 0046 706F7274 		.ascii	"port_intctx\000"
 2468      5F696E74 
 2468      63747800 
 2469              	.LASF54:
 2470 0052 63685F74 		.ascii	"ch_threads_queue\000"
 2470      68726561 
 2470      64735F71 
 2470      75657565 
 2470      00
 2471              	.LASF74:
 2472 0063 73797374 		.ascii	"system_debug_t\000"
 2472      656D5F64 
 2472      65627567 
 2472      5F7400
 2473              	.LASF172:
 2474 0072 706F7274 		.ascii	"port_lock\000"
 2474      5F6C6F63 
 2474      6B00
 2475              	.LASF146:
 2476 007c 776F7273 		.ascii	"worst\000"
 2476      7400
 2477              	.LASF149:
 2478 0082 74696D65 		.ascii	"time_measurement_t\000"
ARM GAS  /tmp/ccYmsJPf.s 			page 45


 2478      5F6D6561 
 2478      73757265 
 2478      6D656E74 
 2478      5F7400
 2479              	.LASF138:
 2480 0095 63685F73 		.ascii	"ch_swc_event_t\000"
 2480      77635F65 
 2480      76656E74 
 2480      5F7400
 2481              	.LASF13:
 2482 00a4 6C6F6E67 		.ascii	"long long unsigned int\000"
 2482      206C6F6E 
 2482      6720756E 
 2482      7369676E 
 2482      65642069 
 2483              	.LASF142:
 2484 00bb 63685F74 		.ascii	"ch_trace_buffer_t\000"
 2484      72616365 
 2484      5F627566 
 2484      6665725F 
 2484      7400
 2485              	.LASF137:
 2486 00cd 73655F73 		.ascii	"se_state\000"
 2486      74617465 
 2486      00
 2487              	.LASF88:
 2488 00d6 4944434F 		.ascii	"IDCODE\000"
 2488      444500
 2489              	.LASF156:
 2490 00dd 65786974 		.ascii	"exitcode\000"
 2490      636F6465 
 2490      00
 2491              	.LASF84:
 2492 00e6 6D61696E 		.ascii	"mainthread\000"
 2492      74687265 
 2492      616400
 2493              	.LASF71:
 2494 00f1 76697274 		.ascii	"virtual_timers_list_t\000"
 2494      75616C5F 
 2494      74696D65 
 2494      72735F6C 
 2494      6973745F 
 2495              	.LASF178:
 2496 0107 6F73616C 		.ascii	"osalSysUnlockFromISR\000"
 2496      53797355 
 2496      6E6C6F63 
 2496      6B46726F 
 2496      6D495352 
 2497              	.LASF182:
 2498 011c 73745F6C 		.ascii	"st_lld_init\000"
 2498      6C645F69 
 2498      6E697400 
 2499              	.LASF129:
 2500 0128 42445452 		.ascii	"BDTR\000"
 2500      00
 2501              	.LASF19:
 2502 012d 72747469 		.ascii	"rttime_t\000"
ARM GAS  /tmp/ccYmsJPf.s 			page 46


 2502      6D655F74 
 2502      00
 2503              	.LASF108:
 2504 0136 41484231 		.ascii	"AHB1LPENR\000"
 2504      4C50454E 
 2504      5200
 2505              	.LASF32:
 2506 0140 705F7072 		.ascii	"p_prio\000"
 2506      696F00
 2507              	.LASF193:
 2508 0147 6E766963 		.ascii	"nvicEnableVector\000"
 2508      456E6162 
 2508      6C655665 
 2508      63746F72 
 2508      00
 2509              	.LASF126:
 2510 0158 43434D52 		.ascii	"CCMR1\000"
 2510      3100
 2511              	.LASF127:
 2512 015e 43434D52 		.ascii	"CCMR2\000"
 2512      3200
 2513              	.LASF131:
 2514 0164 43434D52 		.ascii	"CCMR3\000"
 2514      3300
 2515              	.LASF3:
 2516 016a 7369676E 		.ascii	"signed char\000"
 2516      65642063 
 2516      68617200 
 2517              	.LASF94:
 2518 0176 41484231 		.ascii	"AHB1RSTR\000"
 2518      52535452 
 2518      00
 2519              	.LASF134:
 2520 017f 73655F74 		.ascii	"se_time\000"
 2520      696D6500 
 2521              	.LASF166:
 2522 0187 6D5F7175 		.ascii	"m_queue\000"
 2522      65756500 
 2523              	.LASF181:
 2524 018f 56656374 		.ascii	"VectorB0\000"
 2524      6F724230 
 2524      00
 2525              	.LASF173:
 2526 0198 706F7274 		.ascii	"port_unlock\000"
 2526      5F756E6C 
 2526      6F636B00 
 2527              	.LASF147:
 2528 01a4 6C617374 		.ascii	"last\000"
 2528      00
 2529              	.LASF81:
 2530 01a9 63685F73 		.ascii	"ch_system\000"
 2530      79737465 
 2530      6D00
 2531              	.LASF9:
 2532 01b3 6C6F6E67 		.ascii	"long int\000"
 2532      20696E74 
 2532      00
ARM GAS  /tmp/ccYmsJPf.s 			page 47


 2533              	.LASF99:
 2534 01bc 41504232 		.ascii	"APB2RSTR\000"
 2534      52535452 
 2534      00
 2535              	.LASF112:
 2536 01c5 41504231 		.ascii	"APB1LPENR\000"
 2536      4C50454E 
 2536      5200
 2537              	.LASF21:
 2538 01cf 74737461 		.ascii	"tstate_t\000"
 2538      74655F74 
 2538      00
 2539              	.LASF128:
 2540 01d8 43434552 		.ascii	"CCER\000"
 2540      00
 2541              	.LASF135:
 2542 01dd 73655F74 		.ascii	"se_tp\000"
 2542      7000
 2543              	.LASF1:
 2544 01e3 6C6F6E67 		.ascii	"long long int\000"
 2544      206C6F6E 
 2544      6720696E 
 2544      7400
 2545              	.LASF34:
 2546 01f1 705F6E65 		.ascii	"p_newer\000"
 2546      77657200 
 2547              	.LASF141:
 2548 01f9 74625F62 		.ascii	"tb_buffer\000"
 2548      75666665 
 2548      7200
 2549              	.LASF92:
 2550 0203 504C4C43 		.ascii	"PLLCFGR\000"
 2550      46475200 
 2551              	.LASF6:
 2552 020b 73686F72 		.ascii	"short unsigned int\000"
 2552      7420756E 
 2552      7369676E 
 2552      65642069 
 2552      6E7400
 2553              	.LASF139:
 2554 021e 74625F73 		.ascii	"tb_size\000"
 2554      697A6500 
 2555              	.LASF60:
 2556 0226 725F6E65 		.ascii	"r_newer\000"
 2556      77657200 
 2557              	.LASF47:
 2558 022e 705F6D70 		.ascii	"p_mpool\000"
 2558      6F6F6C00 
 2559              	.LASF120:
 2560 0236 72656761 		.ascii	"regarm_t\000"
 2560      726D5F74 
 2560      00
 2561              	.LASF67:
 2562 023f 76745F70 		.ascii	"vt_prev\000"
 2562      72657600 
 2563              	.LASF83:
 2564 0247 76746C69 		.ascii	"vtlist\000"
ARM GAS  /tmp/ccYmsJPf.s 			page 48


 2564      737400
 2565              	.LASF180:
 2566 024e 6F73616C 		.ascii	"osalSysLockFromISR\000"
 2566      5379734C 
 2566      6F636B46 
 2566      726F6D49 
 2566      535200
 2567              	.LASF75:
 2568 0261 63685F73 		.ascii	"ch_system_debug\000"
 2568      79737465 
 2568      6D5F6465 
 2568      62756700 
 2569              	.LASF170:
 2570 0271 6D757465 		.ascii	"mutex_t\000"
 2570      785F7400 
 2571              	.LASF197:
 2572 0279 76616C75 		.ascii	"value\000"
 2572      6500
 2573              	.LASF78:
 2574 027f 6C6F636B 		.ascii	"lock_cnt\000"
 2574      5F636E74 
 2574      00
 2575              	.LASF86:
 2576 0288 69646C65 		.ascii	"idle_thread_wa\000"
 2576      5F746872 
 2576      6561645F 
 2576      776100
 2577              	.LASF26:
 2578 0297 636E745F 		.ascii	"cnt_t\000"
 2578      7400
 2579              	.LASF37:
 2580 029d 705F7374 		.ascii	"p_stklimit\000"
 2580      6B6C696D 
 2580      697400
 2581              	.LASF0:
 2582 02a8 756E7369 		.ascii	"unsigned int\000"
 2582      676E6564 
 2582      20696E74 
 2582      00
 2583              	.LASF66:
 2584 02b5 76745F6E 		.ascii	"vt_next\000"
 2584      65787400 
 2585              	.LASF191:
 2586 02bd 5F646267 		.ascii	"_dbg_check_leave_isr\000"
 2586      5F636865 
 2586      636B5F6C 
 2586      65617665 
 2586      5F697372 
 2587              	.LASF159:
 2588 02d2 77747365 		.ascii	"wtsemp\000"
 2588      6D7000
 2589              	.LASF42:
 2590 02d9 705F6D73 		.ascii	"p_msgqueue\000"
 2590      67717565 
 2590      756500
 2591              	.LASF119:
 2592 02e4 5243435F 		.ascii	"RCC_TypeDef\000"
ARM GAS  /tmp/ccYmsJPf.s 			page 49


 2592      54797065 
 2592      44656600 
 2593              	.LASF150:
 2594 02f0 6E5F6972 		.ascii	"n_irq\000"
 2594      7100
 2595              	.LASF164:
 2596 02f6 735F636E 		.ascii	"s_cnt\000"
 2596      7400
 2597              	.LASF124:
 2598 02fc 534D4352 		.ascii	"SMCR\000"
 2598      00
 2599              	.LASF154:
 2600 0301 6B65726E 		.ascii	"kernel_stats_t\000"
 2600      656C5F73 
 2600      74617473 
 2600      5F7400
 2601              	.LASF51:
 2602 0310 63685F74 		.ascii	"ch_thread\000"
 2602      68726561 
 2602      6400
 2603              	.LASF118:
 2604 031a 504C4C49 		.ascii	"PLLI2SCFGR\000"
 2604      32534346 
 2604      475200
 2605              	.LASF24:
 2606 0325 6D73675F 		.ascii	"msg_t\000"
 2606      7400
 2607              	.LASF96:
 2608 032b 41484233 		.ascii	"AHB3RSTR\000"
 2608      52535452 
 2608      00
 2609              	.LASF46:
 2610 0334 705F7265 		.ascii	"p_realprio\000"
 2610      616C7072 
 2610      696F00
 2611              	.LASF27:
 2612 033f 75636E74 		.ascii	"ucnt_t\000"
 2612      5F7400
 2613              	.LASF90:
 2614 0346 41504232 		.ascii	"APB2FZ\000"
 2614      465A00
 2615              	.LASF192:
 2616 034d 5F706F72 		.ascii	"_port_irq_epilogue\000"
 2616      745F6972 
 2616      715F6570 
 2616      696C6F67 
 2616      756500
 2617              	.LASF157:
 2618 0360 77746F62 		.ascii	"wtobjp\000"
 2618      6A7000
 2619              	.LASF113:
 2620 0367 41504232 		.ascii	"APB2LPENR\000"
 2620      4C50454E 
 2620      5200
 2621              	.LASF153:
 2622 0371 6D5F6372 		.ascii	"m_crit_isr\000"
 2622      69745F69 
ARM GAS  /tmp/ccYmsJPf.s 			page 50


 2622      737200
 2623              	.LASF56:
 2624 037c 63685F72 		.ascii	"ch_ready_list\000"
 2624      65616479 
 2624      5F6C6973 
 2624      7400
 2625              	.LASF25:
 2626 038a 6576656E 		.ascii	"eventmask_t\000"
 2626      746D6173 
 2626      6B5F7400 
 2627              	.LASF8:
 2628 0396 5F5F696E 		.ascii	"__int32_t\000"
 2628      7433325F 
 2628      7400
 2629              	.LASF184:
 2630 03a0 5F737461 		.ascii	"_stats_start_measure_crit_isr\000"
 2630      74735F73 
 2630      74617274 
 2630      5F6D6561 
 2630      73757265 
 2631              	.LASF121:
 2632 03be 73746B61 		.ascii	"stkalign_t\000"
 2632      6C69676E 
 2632      5F7400
 2633              	.LASF179:
 2634 03c9 6F73616C 		.ascii	"osalOsTimerHandlerI\000"
 2634      4F735469 
 2634      6D657248 
 2634      616E646C 
 2634      65724900 
 2635              	.LASF50:
 2636 03dd 74687265 		.ascii	"threads_list_t\000"
 2636      6164735F 
 2636      6C697374 
 2636      5F7400
 2637              	.LASF64:
 2638 03ec 76697274 		.ascii	"virtual_timer_t\000"
 2638      75616C5F 
 2638      74696D65 
 2638      725F7400 
 2639              	.LASF163:
 2640 03fc 735F7175 		.ascii	"s_queue\000"
 2640      65756500 
 2641              	.LASF41:
 2642 0404 705F7761 		.ascii	"p_waiting\000"
 2642      6974696E 
 2642      6700
 2643              	.LASF87:
 2644 040e 73697A65 		.ascii	"sizetype\000"
 2644      74797065 
 2644      00
 2645              	.LASF49:
 2646 0417 74687265 		.ascii	"thread_reference_t\000"
 2646      61645F72 
 2646      65666572 
 2646      656E6365 
 2646      5F7400
ARM GAS  /tmp/ccYmsJPf.s 			page 51


 2647              	.LASF72:
 2648 042a 63685F76 		.ascii	"ch_virtual_timers_list\000"
 2648      69727475 
 2648      616C5F74 
 2648      696D6572 
 2648      735F6C69 
 2649              	.LASF2:
 2650 0441 6C6F6E67 		.ascii	"long double\000"
 2650      20646F75 
 2650      626C6500 
 2651              	.LASF57:
 2652 044d 725F7175 		.ascii	"r_queue\000"
 2652      65756500 
 2653              	.LASF44:
 2654 0455 705F6570 		.ascii	"p_epending\000"
 2654      656E6469 
 2654      6E6700
 2655              	.LASF103:
 2656 0460 41484233 		.ascii	"AHB3ENR\000"
 2656      454E5200 
 2657              	.LASF73:
 2658 0468 76745F6C 		.ascii	"vt_lasttime\000"
 2658      61737474 
 2658      696D6500 
 2659              	.LASF190:
 2660 0474 5F646267 		.ascii	"_dbg_check_enter_isr\000"
 2660      5F636865 
 2660      636B5F65 
 2660      6E746572 
 2660      5F697372 
 2661              	.LASF59:
 2662 0489 725F6374 		.ascii	"r_ctx\000"
 2662      7800
 2663              	.LASF109:
 2664 048f 41484232 		.ascii	"AHB2LPENR\000"
 2664      4C50454E 
 2664      5200
 2665              	.LASF144:
 2666 0499 746D5F63 		.ascii	"tm_calibration_t\000"
 2666      616C6962 
 2666      72617469 
 2666      6F6E5F74 
 2666      00
 2667              	.LASF62:
 2668 04aa 725F6375 		.ascii	"r_current\000"
 2668      7272656E 
 2668      7400
 2669              	.LASF98:
 2670 04b4 41504231 		.ascii	"APB1RSTR\000"
 2670      52535452 
 2670      00
 2671              	.LASF185:
 2672 04bd 5F646267 		.ascii	"_dbg_check_lock_from_isr\000"
 2672      5F636865 
 2672      636B5F6C 
 2672      6F636B5F 
 2672      66726F6D 
ARM GAS  /tmp/ccYmsJPf.s 			page 52


 2673              	.LASF12:
 2674 04d6 5F5F7569 		.ascii	"__uint64_t\000"
 2674      6E743634 
 2674      5F7400
 2675              	.LASF148:
 2676 04e1 63756D75 		.ascii	"cumulative\000"
 2676      6C617469 
 2676      766500
 2677              	.LASF89:
 2678 04ec 41504231 		.ascii	"APB1FZ\000"
 2678      465A00
 2679              	.LASF22:
 2680 04f3 74726566 		.ascii	"trefs_t\000"
 2680      735F7400 
 2681              	.LASF97:
 2682 04fb 52455345 		.ascii	"RESERVED0\000"
 2682      52564544 
 2682      3000
 2683              	.LASF100:
 2684 0505 52455345 		.ascii	"RESERVED1\000"
 2684      52564544 
 2684      3100
 2685              	.LASF104:
 2686 050f 52455345 		.ascii	"RESERVED2\000"
 2686      52564544 
 2686      3200
 2687              	.LASF107:
 2688 0519 52455345 		.ascii	"RESERVED3\000"
 2688      52564544 
 2688      3300
 2689              	.LASF111:
 2690 0523 52455345 		.ascii	"RESERVED4\000"
 2690      52564544 
 2690      3400
 2691              	.LASF31:
 2692 052d 705F7072 		.ascii	"p_prev\000"
 2692      657600
 2693              	.LASF116:
 2694 0534 52455345 		.ascii	"RESERVED6\000"
 2694      52564544 
 2694      3600
 2695              	.LASF23:
 2696 053e 74707269 		.ascii	"tprio_t\000"
 2696      6F5F7400 
 2697              	.LASF177:
 2698 0546 63685379 		.ascii	"chSysUnlockFromISR\000"
 2698      73556E6C 
 2698      6F636B46 
 2698      726F6D49 
 2698      535200
 2699              	.LASF151:
 2700 0559 6E5F6374 		.ascii	"n_ctxswc\000"
 2700      78737763 
 2700      00
 2701              	.LASF171:
 2702 0562 5F426F6F 		.ascii	"_Bool\000"
 2702      6C00
ARM GAS  /tmp/ccYmsJPf.s 			page 53


 2703              	.LASF15:
 2704 0568 696E7433 		.ascii	"int32_t\000"
 2704      325F7400 
 2705              	.LASF4:
 2706 0570 756E7369 		.ascii	"unsigned char\000"
 2706      676E6564 
 2706      20636861 
 2706      7200
 2707              	.LASF183:
 2708 057e 49544D5F 		.ascii	"ITM_RxBuffer\000"
 2708      52784275 
 2708      66666572 
 2708      00
 2709              	.LASF45:
 2710 058b 705F6D74 		.ascii	"p_mtxlist\000"
 2710      786C6973 
 2710      7400
 2711              	.LASF5:
 2712 0595 73686F72 		.ascii	"short int\000"
 2712      7420696E 
 2712      7400
 2713              	.LASF38:
 2714 059f 705F7374 		.ascii	"p_state\000"
 2714      61746500 
 2715              	.LASF35:
 2716 05a7 705F6F6C 		.ascii	"p_older\000"
 2716      64657200 
 2717              	.LASF58:
 2718 05af 725F7072 		.ascii	"r_prio\000"
 2718      696F00
 2719              	.LASF194:
 2720 05b6 474E5520 		.ascii	"GNU C11 5.3.1 20160307 (release) [ARM/embedded-5-br"
 2720      43313120 
 2720      352E332E 
 2720      31203230 
 2720      31363033 
 2721 05e9 616E6368 		.ascii	"anch revision 234589] -mcpu=cortex-m4 -mno-thumb-in"
 2721      20726576 
 2721      6973696F 
 2721      6E203233 
 2721      34353839 
 2722 061c 74657277 		.ascii	"terwork -mthumb -ggdb -O2 -fomit-frame-pointer -fal"
 2722      6F726B20 
 2722      2D6D7468 
 2722      756D6220 
 2722      2D676764 
 2723 064f 69676E2D 		.ascii	"ign-functions=16 -ffunction-sections -fdata-section"
 2723      66756E63 
 2723      74696F6E 
 2723      733D3136 
 2723      202D6666 
 2724 0682 73202D66 		.ascii	"s -fno-common\000"
 2724      6E6F2D63 
 2724      6F6D6D6F 
 2724      6E00
 2725              	.LASF161:
 2726 0690 65776D61 		.ascii	"ewmask\000"
ARM GAS  /tmp/ccYmsJPf.s 			page 54


 2726      736B00
 2727              	.LASF30:
 2728 0697 705F6E65 		.ascii	"p_next\000"
 2728      787400
 2729              	.LASF39:
 2730 069e 705F666C 		.ascii	"p_flags\000"
 2730      61677300 
 2731              	.LASF48:
 2732 06a6 705F7374 		.ascii	"p_stats\000"
 2732      61747300 
 2733              	.LASF106:
 2734 06ae 41504232 		.ascii	"APB2ENR\000"
 2734      454E5200 
 2735              	.LASF65:
 2736 06b6 63685F76 		.ascii	"ch_virtual_timer\000"
 2736      69727475 
 2736      616C5F74 
 2736      696D6572 
 2736      00
 2737              	.LASF162:
 2738 06c7 63685F73 		.ascii	"ch_semaphore\000"
 2738      656D6170 
 2738      686F7265 
 2738      00
 2739              	.LASF132:
 2740 06d4 43435852 		.ascii	"CCXR\000"
 2740      00
 2741              	.LASF91:
 2742 06d9 4442474D 		.ascii	"DBGMCU_TypeDef\000"
 2742      43555F54 
 2742      79706544 
 2742      656600
 2743              	.LASF114:
 2744 06e8 52455345 		.ascii	"RESERVED5\000"
 2744      52564544 
 2744      3500
 2745              	.LASF16:
 2746 06f2 75696E74 		.ascii	"uint32_t\000"
 2746      33325F74 
 2746      00
 2747              	.LASF189:
 2748 06fb 5F737461 		.ascii	"_stats_increase_irq\000"
 2748      74735F69 
 2748      6E637265 
 2748      6173655F 
 2748      69727100 
 2749              	.LASF195:
 2750 070f 2F686F6D 		.ascii	"/home/selim/working/ChibiOS/os/hal/ports/STM32/LLD/"
 2750      652F7365 
 2750      6C696D2F 
 2750      776F726B 
 2750      696E672F 
 2751 0742 54494D76 		.ascii	"TIMv1/st_lld.c\000"
 2751      312F7374 
 2751      5F6C6C64 
 2751      2E6300
 2752              	.LASF68:
ARM GAS  /tmp/ccYmsJPf.s 			page 55


 2753 0751 76745F64 		.ascii	"vt_delta\000"
 2753      656C7461 
 2753      00
 2754              	.LASF52:
 2755 075a 63685F74 		.ascii	"ch_threads_list\000"
 2755      68726561 
 2755      64735F6C 
 2755      69737400 
 2756              	.LASF11:
 2757 076a 6C6F6E67 		.ascii	"long unsigned int\000"
 2757      20756E73 
 2757      69676E65 
 2757      6420696E 
 2757      7400
 2758              	.LASF169:
 2759 077c 63686172 		.ascii	"char\000"
 2759      00
 2760              	.LASF160:
 2761 0781 77746D74 		.ascii	"wtmtxp\000"
 2761      787000
 2762              	.LASF130:
 2763 0788 444D4152 		.ascii	"DMAR\000"
 2763      00
 2764              	.LASF95:
 2765 078d 41484232 		.ascii	"AHB2RSTR\000"
 2765      52535452 
 2765      00
 2766              	.LASF176:
 2767 0796 706F7274 		.ascii	"port_unlock_from_isr\000"
 2767      5F756E6C 
 2767      6F636B5F 
 2767      66726F6D 
 2767      5F697372 
 2768              	.LASF29:
 2769 07ab 74687265 		.ascii	"thread_t\000"
 2769      61645F74 
 2769      00
 2770              	.LASF145:
 2771 07b4 62657374 		.ascii	"best\000"
 2771      00
 2772              	.LASF168:
 2773 07b9 6D5F6E65 		.ascii	"m_next\000"
 2773      787400
 2774              	.LASF28:
 2775 07c0 73797374 		.ascii	"systime_t\000"
 2775      696D655F 
 2775      7400
 2776              	.LASF186:
 2777 07ca 63685379 		.ascii	"chSysTimerHandlerI\000"
 2777      7354696D 
 2777      65724861 
 2777      6E646C65 
 2777      724900
 2778              	.LASF63:
 2779 07dd 76746675 		.ascii	"vtfunc_t\000"
 2779      6E635F74 
 2779      00
ARM GAS  /tmp/ccYmsJPf.s 			page 56


 2780              	.LASF10:
 2781 07e6 5F5F7569 		.ascii	"__uint32_t\000"
 2781      6E743332 
 2781      5F7400
 2782              	.LASF196:
 2783 07f1 5F5F7365 		.ascii	"__set_BASEPRI\000"
 2783      745F4241 
 2783      53455052 
 2783      4900
 2784              	.LASF76:
 2785 07ff 70616E69 		.ascii	"panic_msg\000"
 2785      635F6D73 
 2785      6700
 2786              	.LASF143:
 2787 0809 6F666673 		.ascii	"offset\000"
 2787      657400
 2788              	.LASF105:
 2789 0810 41504231 		.ascii	"APB1ENR\000"
 2789      454E5200 
 2790              	.LASF165:
 2791 0818 63685F6D 		.ascii	"ch_mutex\000"
 2791      75746578 
 2791      00
 2792              	.LASF102:
 2793 0821 41484232 		.ascii	"AHB2ENR\000"
 2793      454E5200 
 2794              	.LASF122:
 2795 0829 636F6E74 		.ascii	"context\000"
 2795      65787400 
 2796              	.LASF61:
 2797 0831 725F6F6C 		.ascii	"r_older\000"
 2797      64657200 
 2798              	.LASF80:
 2799 0839 63685F73 		.ascii	"ch_system_t\000"
 2799      79737465 
 2799      6D5F7400 
 2800              	.LASF18:
 2801 0845 7274636E 		.ascii	"rtcnt_t\000"
 2801      745F7400 
 2802              	.LASF174:
 2803 084d 706F7274 		.ascii	"port_lock_from_isr\000"
 2803      5F6C6F63 
 2803      6B5F6672 
 2803      6F6D5F69 
 2803      737200
 2804              	.LASF70:
 2805 0860 76745F70 		.ascii	"vt_par\000"
 2805      617200
 2806              	.LASF117:
 2807 0867 53534347 		.ascii	"SSCGR\000"
 2807      5200
 2808              	.LASF110:
 2809 086d 41484233 		.ascii	"AHB3LPENR\000"
 2809      4C50454E 
 2809      5200
 2810              	.LASF187:
 2811 0877 5F646267 		.ascii	"_dbg_check_unlock_from_isr\000"
ARM GAS  /tmp/ccYmsJPf.s 			page 57


 2811      5F636865 
 2811      636B5F75 
 2811      6E6C6F63 
 2811      6B5F6672 
 2812              	.LASF53:
 2813 0892 74687265 		.ascii	"threads_queue_t\000"
 2813      6164735F 
 2813      71756575 
 2813      655F7400 
 2814              	.LASF133:
 2815 08a2 73746D33 		.ascii	"stm32_tim_t\000"
 2815      325F7469 
 2815      6D5F7400 
 2816              	.LASF40:
 2817 08ae 705F7265 		.ascii	"p_refs\000"
 2817      667300
 2818              	.LASF77:
 2819 08b5 6973725F 		.ascii	"isr_cnt\000"
 2819      636E7400 
 2820              	.LASF115:
 2821 08bd 42444352 		.ascii	"BDCR\000"
 2821      00
 2822              	.LASF82:
 2823 08c2 726C6973 		.ascii	"rlist\000"
 2823      7400
 2824              	.LASF14:
 2825 08c8 75696E74 		.ascii	"uint8_t\000"
 2825      385F7400 
 2826              	.LASF175:
 2827 08d0 63685379 		.ascii	"chSysLockFromISR\000"
 2827      734C6F63 
 2827      6B46726F 
 2827      6D495352 
 2827      00
 2828              	.LASF36:
 2829 08e1 705F6E61 		.ascii	"p_name\000"
 2829      6D6500
 2830              	.LASF101:
 2831 08e8 41484231 		.ascii	"AHB1ENR\000"
 2831      454E5200 
 2832              	.LASF93:
 2833 08f0 43464752 		.ascii	"CFGR\000"
 2833      00
 2834              	.LASF20:
 2835 08f5 746D6F64 		.ascii	"tmode_t\000"
 2835      655F7400 
 2836              	.LASF79:
 2837 08fd 74726163 		.ascii	"trace_buffer\000"
 2837      655F6275 
 2837      66666572 
 2837      00
 2838              	.LASF43:
 2839 090a 705F6D73 		.ascii	"p_msg\000"
 2839      6700
 2840              	.LASF188:
 2841 0910 5F737461 		.ascii	"_stats_stop_measure_crit_isr\000"
 2841      74735F73 
ARM GAS  /tmp/ccYmsJPf.s 			page 58


 2841      746F705F 
 2841      6D656173 
 2841      7572655F 
 2842              	.LASF152:
 2843 092d 6D5F6372 		.ascii	"m_crit_thd\000"
 2843      69745F74 
 2843      686400
 2844              	.LASF167:
 2845 0938 6D5F6F77 		.ascii	"m_owner\000"
 2845      6E657200 
 2846              	.LASF136:
 2847 0940 73655F77 		.ascii	"se_wtobjp\000"
 2847      746F626A 
 2847      7000
 2848              	.LASF33:
 2849 094a 705F6374 		.ascii	"p_ctx\000"
 2849      7800
 2850              	.LASF69:
 2851 0950 76745F66 		.ascii	"vt_func\000"
 2851      756E6300 
 2852              		.ident	"GCC: (GNU Tools for ARM Embedded Processors) 5.3.1 20160307 (release) [ARM/embedded-5-bran
ARM GAS  /tmp/ccYmsJPf.s 			page 59


DEFINED SYMBOLS
                            *ABS*:0000000000000000 st_lld.c
     /tmp/ccYmsJPf.s:20     .text.VectorB0:0000000000000000 $t
     /tmp/ccYmsJPf.s:26     .text.VectorB0:0000000000000000 VectorB0
     /tmp/ccYmsJPf.s:134    .text.st_lld_init:0000000000000000 $t
     /tmp/ccYmsJPf.s:140    .text.st_lld_init:0000000000000000 st_lld_init
     /tmp/ccYmsJPf.s:210    .text.st_lld_init:0000000000000040 $d
                     .debug_frame:0000000000000010 $d

UNDEFINED SYMBOLS
_stats_increase_irq
_dbg_check_enter_isr
_stats_start_measure_crit_isr
_dbg_check_lock_from_isr
chSysTimerHandlerI
_dbg_check_unlock_from_isr
_stats_stop_measure_crit_isr
_dbg_check_leave_isr
_port_irq_epilogue
nvicEnableVector
