ARM GAS  /tmp/ccYmsJPf.s 			page 1


   1              		.syntax unified
   2              		.cpu cortex-m4
   3              		.fpu softvfp
   4              		.eabi_attribute 20, 1
   5              		.eabi_attribute 21, 1
   6              		.eabi_attribute 23, 3
   7              		.eabi_attribute 24, 1
   8              		.eabi_attribute 25, 1
   9              		.eabi_attribute 26, 1
  10              		.eabi_attribute 30, 2
  11              		.eabi_attribute 34, 1
  12              		.eabi_attribute 18, 4
  13              		.thumb
  14              		.syntax unified
  15              		.file	"st_lld.c"
  16              		.text
  17              	.Ltext0:
  18              		.cfi_sections	.debug_frame
  19              		.section	.text.VectorB0,"ax",%progbits
  20              		.align	2
  21              		.p2align 4,,15
  22              		.global	VectorB0
  23              		.thumb
  24              		.thumb_func
  25              		.type	VectorB0, %function
  26              	VectorB0:
  27              	.LFB258:
  28              		.file 1 "/home/selim/working/ChibiOS/os/hal/ports/STM32/LLD/TIMv1/st_lld.c"
  29              		.loc 1 173 0
  30              		.cfi_startproc
  31              		@ args = 0, pretend = 0, frame = 0
  32              		@ frame_needed = 0, uses_anonymous_args = 0
  33 0000 10B5     		push	{r4, lr}
  34              		.cfi_def_cfa_offset 8
  35              		.cfi_offset 4, -8
  36              		.cfi_offset 14, -4
  37              		.loc 1 175 0
  38 0002 FFF7FEFF 		bl	_stats_increase_irq
  39              	.LVL0:
  40 0006 FFF7FEFF 		bl	_dbg_check_enter_isr
  41              	.LVL1:
  42              		.loc 1 180 0
  43 000a 4FF08043 		mov	r3, #1073741824
  44 000e 1A69     		ldr	r2, [r3, #16]
  45 0010 9207     		lsls	r2, r2, #30
  46 0012 10D5     		bpl	.L2
  47              		.loc 1 181 0
  48 0014 0024     		movs	r4, #0
  49 0016 1C61     		str	r4, [r3, #16]
  50              	.LVL2:
  51              	.LBB54:
  52              	.LBB55:
  53              	.LBB56:
  54              	.LBB57:
  55              	.LBB58:
  56              	.LBB59:
  57              	.LBB60:
ARM GAS  /tmp/ccYmsJPf.s 			page 2


  58              		.file 2 "/home/selim/working/ChibiOS/os/ext/CMSIS/include/core_cmFunc.h"
  59              		.loc 2 546 0
  60 0018 2023     		movs	r3, #32
  61              		.syntax unified
  62              	@ 546 "/home/selim/working/ChibiOS/os/ext/CMSIS/include/core_cmFunc.h" 1
  63 001a 83F31188 		MSR basepri, r3
  64              	@ 0 "" 2
  65              	.LVL3:
  66              		.thumb
  67              		.syntax unified
  68              	.LBE60:
  69              	.LBE59:
  70              	.LBE58:
  71              	.LBE57:
  72              		.file 3 "/home/selim/working/ChibiOS/os/rt/include/chsys.h"
  73              		.loc 3 389 0
  74 001e FFF7FEFF 		bl	_stats_start_measure_crit_isr
  75              	.LVL4:
  76              		.loc 3 390 0
  77 0022 FFF7FEFF 		bl	_dbg_check_lock_from_isr
  78              	.LVL5:
  79              	.LBE56:
  80              	.LBE55:
  81              	.LBE54:
  82              	.LBB61:
  83              	.LBB62:
  84              		.file 4 "/home/selim/working/ChibiOS/os/hal/osal/rt/osal.h"
  85              		.loc 4 539 0
  86 0026 FFF7FEFF 		bl	chSysTimerHandlerI
  87              	.LVL6:
  88              	.LBE62:
  89              	.LBE61:
  90              	.LBB63:
  91              	.LBB64:
  92              	.LBB65:
  93              		.loc 3 408 0
  94 002a FFF7FEFF 		bl	_dbg_check_unlock_from_isr
  95              	.LVL7:
  96              		.loc 3 409 0
  97 002e FFF7FEFF 		bl	_stats_stop_measure_crit_isr
  98              	.LVL8:
  99              	.LBB66:
 100              	.LBB67:
 101              	.LBB68:
 102              	.LBB69:
 103              		.loc 2 546 0
 104              		.syntax unified
 105              	@ 546 "/home/selim/working/ChibiOS/os/ext/CMSIS/include/core_cmFunc.h" 1
 106 0032 84F31188 		MSR basepri, r4
 107              	@ 0 "" 2
 108              	.LVL9:
 109              		.thumb
 110              		.syntax unified
 111              	.L2:
 112              	.LBE69:
 113              	.LBE68:
 114              	.LBE67:
ARM GAS  /tmp/ccYmsJPf.s 			page 3


 115              	.LBE66:
 116              	.LBE65:
 117              	.LBE64:
 118              	.LBE63:
 119              		.loc 1 188 0
 120 0036 FFF7FEFF 		bl	_dbg_check_leave_isr
 121              	.LVL10:
 122              		.loc 1 189 0
 123 003a BDE81040 		pop	{r4, lr}
 124              		.cfi_restore 14
 125              		.cfi_restore 4
 126              		.cfi_def_cfa_offset 0
 127              		.loc 1 188 0
 128 003e FFF7FEBF 		b	_port_irq_epilogue
 129              	.LVL11:
 130              		.cfi_endproc
 131              	.LFE258:
 132              		.size	VectorB0, .-VectorB0
 133 0042 00BF     		.section	.text.st_lld_init,"ax",%progbits
 134              		.align	2
 135              		.p2align 4,,15
 136              		.global	st_lld_init
 137              		.thumb
 138              		.thumb_func
 139              		.type	st_lld_init, %function
 140              	st_lld_init:
 141              	.LFB259:
 142              		.loc 1 201 0
 143              		.cfi_startproc
 144              		@ args = 0, pretend = 0, frame = 0
 145              		@ frame_needed = 0, uses_anonymous_args = 0
 146              		@ link register save eliminated.
 147              		.loc 1 207 0
 148 0000 0F4A     		ldr	r2, .L10
 149              		.loc 1 210 0
 150 0002 1048     		ldr	r0, .L10+4
 151              		.loc 1 207 0
 152 0004 136C     		ldr	r3, [r2, #64]
 153              		.loc 1 201 0
 154 0006 70B4     		push	{r4, r5, r6}
 155              		.cfi_def_cfa_offset 12
 156              		.cfi_offset 4, -12
 157              		.cfi_offset 5, -8
 158              		.cfi_offset 6, -4
 159              		.loc 1 207 0
 160 0008 43F00103 		orr	r3, r3, #1
 161 000c 1364     		str	r3, [r2, #64]
 162              		.loc 1 210 0
 163 000e 8168     		ldr	r1, [r0, #8]
 164              		.loc 1 213 0
 165 0010 4FF08043 		mov	r3, #1073741824
 166              		.loc 1 215 0
 167 0014 0022     		movs	r2, #0
 168              		.loc 1 219 0
 169 0016 0124     		movs	r4, #1
 170              		.loc 1 210 0
 171 0018 41F00101 		orr	r1, r1, #1
ARM GAS  /tmp/ccYmsJPf.s 			page 4


 172              		.loc 1 213 0
 173 001c 42F2CF06 		movw	r6, #8399
 174              		.loc 1 214 0
 175 0020 4FF0FF35 		mov	r5, #-1
 176              		.loc 1 210 0
 177 0024 8160     		str	r1, [r0, #8]
 178              		.loc 1 213 0
 179 0026 9E62     		str	r6, [r3, #40]
 180              		.loc 1 223 0
 181 0028 0821     		movs	r1, #8
 182              		.loc 1 214 0
 183 002a DD62     		str	r5, [r3, #44]
 184              		.loc 1 223 0
 185 002c 1C20     		movs	r0, #28
 186              		.loc 1 215 0
 187 002e 9A61     		str	r2, [r3, #24]
 188              		.loc 1 216 0
 189 0030 5A63     		str	r2, [r3, #52]
 190              		.loc 1 217 0
 191 0032 DA60     		str	r2, [r3, #12]
 192              		.loc 1 218 0
 193 0034 5A60     		str	r2, [r3, #4]
 194              		.loc 1 219 0
 195 0036 5C61     		str	r4, [r3, #20]
 196              		.loc 1 220 0
 197 0038 1C60     		str	r4, [r3]
 198              		.loc 1 238 0
 199 003a 70BC     		pop	{r4, r5, r6}
 200              		.cfi_restore 6
 201              		.cfi_restore 5
 202              		.cfi_restore 4
 203              		.cfi_def_cfa_offset 0
 204              		.loc 1 223 0
 205 003c FFF7FEBF 		b	nvicEnableVector
 206              	.LVL12:
 207              	.L11:
 208              		.align	2
 209              	.L10:
 210 0040 00380240 		.word	1073887232
 211 0044 002004E0 		.word	-536600576
 212              		.cfi_endproc
 213              	.LFE259:
 214              		.size	st_lld_init, .-st_lld_init
 215              		.text
 216              	.Letext0:
 217              		.file 5 "/usr/arm-none-eabi/include/machine/_default_types.h"
 218              		.file 6 "/usr/arm-none-eabi/include/sys/_stdint.h"
 219              		.file 7 "/home/selim/working/ChibiOS/os/rt/ports/ARMCMx/compilers/GCC/chtypes.h"
 220              		.file 8 "/home/selim/working/ChibiOS/os/rt/include/chsystypes.h"
 221              		.file 9 "/home/selim/working/ChibiOS/os/rt/include/chschd.h"
 222              		.file 10 "/home/selim/working/ChibiOS/os/ext/CMSIS/ST/stm32f407xx.h"
 223              		.file 11 "/home/selim/working/ChibiOS/os/rt/ports/ARMCMx/chcore.h"
 224              		.file 12 "/home/selim/working/ChibiOS/os/rt/ports/ARMCMx/chcore_v7m.h"
 225              		.file 13 "/home/selim/working/ChibiOS/os/hal/ports/STM32/LLD/TIMv1/stm32_tim.h"
 226              		.file 14 "/home/selim/working/ChibiOS/os/rt/include/chdebug.h"
 227              		.file 15 "/home/selim/working/ChibiOS/os/rt/include/chtm.h"
 228              		.file 16 "/home/selim/working/ChibiOS/os/rt/include/chstats.h"
ARM GAS  /tmp/ccYmsJPf.s 			page 5


 229              		.file 17 "/home/selim/working/ChibiOS/os/rt/include/chsem.h"
 230              		.file 18 "/home/selim/working/ChibiOS/os/rt/include/chmtx.h"
 231              		.file 19 "/home/selim/working/ChibiOS/os/hal/ports/common/ARMCMx/nvic.h"
 232              		.file 20 "/home/selim/working/ChibiOS/os/ext/CMSIS/include/core_cm4.h"