ARM GAS  /tmp/cc9LI0Qt.s 			page 1


   1              		.syntax unified
   2              		.cpu cortex-m4
   3              		.fpu softvfp
   4              		.eabi_attribute 20, 1
   5              		.eabi_attribute 21, 1
   6              		.eabi_attribute 23, 3
   7              		.eabi_attribute 24, 1
   8              		.eabi_attribute 25, 1
   9              		.eabi_attribute 26, 1
  10              		.eabi_attribute 30, 2
  11              		.eabi_attribute 34, 1
  12              		.eabi_attribute 18, 4
  13              		.thumb
  14              		.syntax unified
  15              		.file	"uart_lld.c"
  16              		.text
  17              	.Ltext0:
  18              		.cfi_sections	.debug_frame
  19              		.section	.text.usart_stop,"ax",%progbits
  20              		.align	2
  21              		.p2align 4,,15
  22              		.thumb
  23              		.thumb_func
  24              		.type	usart_stop, %function
  25              	usart_stop:
  26              	.LFB260:
  27              		.file 1 "/home/selim/working/ChibiOS/os/hal/ports/STM32/LLD/USARTv1/uart_lld.c"
  28              		.loc 1 180 0
  29              		.cfi_startproc
  30              		@ args = 0, pretend = 0, frame = 0
  31              		@ frame_needed = 0, uses_anonymous_args = 0
  32              		@ link register save eliminated.
  33              	.LVL0:
  34              		.loc 1 183 0
  35 0000 0169     		ldr	r1, [r0, #16]
  36 0002 0A68     		ldr	r2, [r1]
  37 0004 1368     		ldr	r3, [r2]
  38 0006 23F01F03 		bic	r3, r3, #31
  39 000a 1360     		str	r3, [r2]
  40              	.L2:
  41              		.loc 1 183 0 is_stmt 0 discriminator 2
  42 000c 1368     		ldr	r3, [r2]
  43 000e DB07     		lsls	r3, r3, #31
  44 0010 FCD4     		bmi	.L2
  45              		.loc 1 180 0 is_stmt 1 discriminator 3
  46 0012 30B4     		push	{r4, r5}
  47              		.cfi_def_cfa_offset 8
  48              		.cfi_offset 4, -8
  49              		.cfi_offset 5, -4
  50              		.loc 1 184 0 discriminator 3
  51 0014 4469     		ldr	r4, [r0, #20]
  52              		.loc 1 183 0 discriminator 3
  53 0016 0D7A     		ldrb	r5, [r1, #8]	@ zero_extendqisi2
  54 0018 4968     		ldr	r1, [r1, #4]
  55              		.loc 1 184 0 discriminator 3
  56 001a 2268     		ldr	r2, [r4]
  57              		.loc 1 183 0 discriminator 3
ARM GAS  /tmp/cc9LI0Qt.s 			page 2


  58 001c 3D23     		movs	r3, #61
  59 001e AB40     		lsls	r3, r3, r5
  60 0020 0B60     		str	r3, [r1]
  61              		.loc 1 184 0 discriminator 3
  62 0022 1368     		ldr	r3, [r2]
  63 0024 23F01F03 		bic	r3, r3, #31
  64 0028 1360     		str	r3, [r2]
  65              	.L3:
  66              		.loc 1 184 0 is_stmt 0 discriminator 2
  67 002a 1368     		ldr	r3, [r2]
  68 002c 13F00103 		ands	r3, r3, #1
  69 0030 FBD1     		bne	.L3
  70              		.loc 1 184 0 discriminator 3
  71 0032 257A     		ldrb	r5, [r4, #8]	@ zero_extendqisi2
  72              		.loc 1 187 0 is_stmt 1 discriminator 3
  73 0034 8268     		ldr	r2, [r0, #8]
  74              		.loc 1 184 0 discriminator 3
  75 0036 6068     		ldr	r0, [r4, #4]
  76              	.LVL1:
  77 0038 3D21     		movs	r1, #61
  78 003a A940     		lsls	r1, r1, r5
  79 003c 0160     		str	r1, [r0]
  80              		.loc 1 190 0 discriminator 3
  81 003e 30BC     		pop	{r4, r5}
  82              		.cfi_restore 5
  83              		.cfi_restore 4
  84              		.cfi_def_cfa_offset 0
  85              		.loc 1 187 0 discriminator 3
  86 0040 D360     		str	r3, [r2, #12]
  87              		.loc 1 188 0 discriminator 3
  88 0042 1361     		str	r3, [r2, #16]
  89              		.loc 1 189 0 discriminator 3
  90 0044 5361     		str	r3, [r2, #20]
  91              		.loc 1 190 0 discriminator 3
  92 0046 7047     		bx	lr
  93              		.cfi_endproc
  94              	.LFE260:
  95              		.size	usart_stop, .-usart_stop
  96              		.section	.text.serve_usart_irq,"ax",%progbits
  97              		.align	2
  98              		.p2align 4,,15
  99              		.thumb
 100              		.thumb_func
 101              		.type	serve_usart_irq, %function
 102              	serve_usart_irq:
 103              	.LFB264:
 104              		.loc 1 310 0
 105              		.cfi_startproc
 106              		@ args = 0, pretend = 0, frame = 0
 107              		@ frame_needed = 0, uses_anonymous_args = 0
 108              	.LVL2:
 109 0000 2DE9F041 		push	{r4, r5, r6, r7, r8, lr}
 110              		.cfi_def_cfa_offset 24
 111              		.cfi_offset 4, -24
 112              		.cfi_offset 5, -20
 113              		.cfi_offset 6, -16
 114              		.cfi_offset 7, -12
ARM GAS  /tmp/cc9LI0Qt.s 			page 3


 115              		.cfi_offset 8, -8
 116              		.cfi_offset 14, -4
 117              		.loc 1 312 0
 118 0004 8468     		ldr	r4, [r0, #8]
 119              	.LVL3:
 120              		.loc 1 313 0
 121 0006 E768     		ldr	r7, [r4, #12]
 122              	.LVL4:
 123              		.loc 1 315 0
 124 0008 2668     		ldr	r6, [r4]
 125              	.LVL5:
 126              		.loc 1 316 0
 127 000a 6268     		ldr	r2, [r4, #4]
 128              		.loc 1 318 0
 129 000c 40F20F13 		movw	r3, #271
 130 0010 3340     		ands	r3, r3, r6
 131              		.loc 1 310 0
 132 0012 0546     		mov	r5, r0
 133              		.loc 1 318 0
 134 0014 EBB1     		cbz	r3, .L10
 135              		.loc 1 321 0
 136 0016 4368     		ldr	r3, [r0, #4]
 137 0018 1A69     		ldr	r2, [r3, #16]
 138              		.loc 1 320 0
 139 001a 6FF48073 		mvn	r3, #256
 140 001e 2360     		str	r3, [r4]
 141              		.loc 1 321 0
 142 0020 BAB1     		cbz	r2, .L10
 143              		.loc 1 315 0
 144 0022 B3B2     		uxth	r3, r6
 145              	.LVL6:
 146              	.LBB18:
 147              	.LBB19:
 148              		.loc 1 142 0
 149 0024 13F0080F 		tst	r3, #8
 150 0028 0CBF     		ite	eq
 151 002a 0021     		moveq	r1, #0
 152 002c 1021     		movne	r1, #16
 153              	.LVL7:
 154              		.loc 1 143 0
 155 002e D807     		lsls	r0, r3, #31
 156              	.LVL8:
 157              		.loc 1 144 0
 158 0030 48BF     		it	mi
 159 0032 41F00401 		orrmi	r1, r1, #4
 160              	.LVL9:
 161              		.loc 1 145 0
 162 0036 9807     		lsls	r0, r3, #30
 163              		.loc 1 146 0
 164 0038 48BF     		it	mi
 165 003a 41F00801 		orrmi	r1, r1, #8
 166              	.LVL10:
 167              		.loc 1 147 0
 168 003e 5807     		lsls	r0, r3, #29
 169              		.loc 1 148 0
 170 0040 48BF     		it	mi
 171 0042 41F02001 		orrmi	r1, r1, #32
ARM GAS  /tmp/cc9LI0Qt.s 			page 4


 172              	.LVL11:
 173              		.loc 1 149 0
 174 0046 D805     		lsls	r0, r3, #23
 175              		.loc 1 150 0
 176 0048 48BF     		it	mi
 177 004a 41F04001 		orrmi	r1, r1, #64
 178              	.LVL12:
 179              	.LBE19:
 180              	.LBE18:
 181              		.loc 1 322 0
 182 004e 2846     		mov	r0, r5
 183 0050 9047     		blx	r2
 184              	.LVL13:
 185              	.L10:
 186              		.loc 1 325 0
 187 0052 7206     		lsls	r2, r6, #25
 188 0054 0ED5     		bpl	.L8
 189              		.loc 1 325 0 is_stmt 0 discriminator 1
 190 0056 7B06     		lsls	r3, r7, #25
 191 0058 0CD5     		bpl	.L8
 192              		.loc 1 331 0 is_stmt 1
 193 005a 6B68     		ldr	r3, [r5, #4]
 194 005c 5B68     		ldr	r3, [r3, #4]
 195              		.loc 1 328 0
 196 005e 27F04007 		bic	r7, r7, #64
 197              	.LVL14:
 198              		.loc 1 327 0
 199 0062 6FF04002 		mvn	r2, #64
 200 0066 2260     		str	r2, [r4]
 201              		.loc 1 328 0
 202 0068 E760     		str	r7, [r4, #12]
 203              		.loc 1 331 0
 204 006a 1BB1     		cbz	r3, .L8
 205              		.loc 1 332 0
 206 006c 2846     		mov	r0, r5
 207              		.loc 1 334 0
 208 006e BDE8F041 		pop	{r4, r5, r6, r7, r8, lr}
 209              		.cfi_remember_state
 210              		.cfi_restore 14
 211              		.cfi_restore 8
 212              		.cfi_restore 7
 213              		.cfi_restore 6
 214              		.cfi_restore 5
 215              		.cfi_restore 4
 216              		.cfi_def_cfa_offset 0
 217              	.LVL15:
 218              		.loc 1 332 0
 219 0072 1847     		bx	r3	@ indirect register sibling call
 220              	.LVL16:
 221              	.L8:
 222              		.cfi_restore_state
 223 0074 BDE8F081 		pop	{r4, r5, r6, r7, r8, pc}
 224              		.cfi_endproc
 225              	.LFE264:
 226              		.size	serve_usart_irq, .-serve_usart_irq
 227              		.section	.text.uart_lld_serve_tx_end_irq,"ax",%progbits
 228              		.align	2
ARM GAS  /tmp/cc9LI0Qt.s 			page 5


 229              		.p2align 4,,15
 230              		.thumb
 231              		.thumb_func
 232              		.type	uart_lld_serve_tx_end_irq, %function
 233              	uart_lld_serve_tx_end_irq:
 234              	.LFB263:
 235              		.loc 1 281 0
 236              		.cfi_startproc
 237              		@ args = 0, pretend = 0, frame = 0
 238              		@ frame_needed = 0, uses_anonymous_args = 0
 239              	.LVL17:
 240              		.loc 1 285 0
 241 0000 11F00C0F 		tst	r1, #12
 242              		.loc 1 281 0
 243 0004 38B5     		push	{r3, r4, r5, lr}
 244              		.cfi_def_cfa_offset 16
 245              		.cfi_offset 3, -16
 246              		.cfi_offset 4, -12
 247              		.cfi_offset 5, -8
 248              		.cfi_offset 14, -4
 249              		.loc 1 281 0
 250 0006 0446     		mov	r4, r0
 251              		.loc 1 285 0
 252 0008 1BD1     		bne	.L57
 253              	.LVL18:
 254              	.L44:
 255              		.loc 1 292 0
 256 000a 6169     		ldr	r1, [r4, #20]
 257 000c 0A68     		ldr	r2, [r1]
 258 000e 1368     		ldr	r3, [r2]
 259 0010 23F01F03 		bic	r3, r3, #31
 260 0014 1360     		str	r3, [r2]
 261              	.L45:
 262              		.loc 1 292 0 is_stmt 0 discriminator 2
 263 0016 1368     		ldr	r3, [r2]
 264 0018 DB07     		lsls	r3, r3, #31
 265 001a FCD4     		bmi	.L45
 266              		.loc 1 296 0 is_stmt 1 discriminator 3
 267 001c 6368     		ldr	r3, [r4, #4]
 268              		.loc 1 292 0 discriminator 3
 269 001e 0D7A     		ldrb	r5, [r1, #8]	@ zero_extendqisi2
 270 0020 4868     		ldr	r0, [r1, #4]
 271              		.loc 1 296 0 discriminator 3
 272 0022 1A68     		ldr	r2, [r3]
 273              		.loc 1 292 0 discriminator 3
 274 0024 3D23     		movs	r3, #61
 275 0026 AB40     		lsls	r3, r3, r5
 276              		.loc 1 295 0 discriminator 3
 277 0028 0221     		movs	r1, #2
 278              		.loc 1 292 0 discriminator 3
 279 002a 0360     		str	r3, [r0]
 280              		.loc 1 295 0 discriminator 3
 281 002c 6170     		strb	r1, [r4, #1]
 282              		.loc 1 296 0 discriminator 3
 283 002e 2AB1     		cbz	r2, .L48
 284              		.loc 1 297 0
 285 0030 2046     		mov	r0, r4
ARM GAS  /tmp/cc9LI0Qt.s 			page 6


 286 0032 9047     		blx	r2
 287              	.LVL19:
 288              		.loc 1 301 0
 289 0034 6378     		ldrb	r3, [r4, #1]	@ zero_extendqisi2
 290 0036 022B     		cmp	r3, #2
 291 0038 00D0     		beq	.L48
 292 003a 38BD     		pop	{r3, r4, r5, pc}
 293              	.LVL20:
 294              	.L48:
 295              		.loc 1 302 0
 296 003c 0023     		movs	r3, #0
 297 003e 6370     		strb	r3, [r4, #1]
 298 0040 38BD     		pop	{r3, r4, r5, pc}
 299              	.LVL21:
 300              	.L57:
 301              	.LBB20:
 302              	.LBB21:
 303              		.file 2 "/home/selim/working/ChibiOS/os/hal/osal/rt/osal.h"
 304              		.loc 2 416 0
 305 0042 0248     		ldr	r0, .L58
 306              	.LVL22:
 307 0044 FFF7FEFF 		bl	chSysHalt
 308              	.LVL23:
 309 0048 DFE7     		b	.L44
 310              	.L59:
 311 004a 00BF     		.align	2
 312              	.L58:
 313 004c 00000000 		.word	.LC0
 314              	.LBE21:
 315              	.LBE20:
 316              		.cfi_endproc
 317              	.LFE263:
 318              		.size	uart_lld_serve_tx_end_irq, .-uart_lld_serve_tx_end_irq
 319              		.section	.text.uart_lld_serve_rx_end_irq,"ax",%progbits
 320              		.align	2
 321              		.p2align 4,,15
 322              		.thumb
 323              		.thumb_func
 324              		.type	uart_lld_serve_rx_end_irq, %function
 325              	uart_lld_serve_rx_end_irq:
 326              	.LFB262:
 327              		.loc 1 241 0
 328              		.cfi_startproc
 329              		@ args = 0, pretend = 0, frame = 0
 330              		@ frame_needed = 0, uses_anonymous_args = 0
 331              	.LVL24:
 332              		.loc 1 245 0
 333 0000 11F00C0F 		tst	r1, #12
 334              		.loc 1 241 0
 335 0004 70B5     		push	{r4, r5, r6, lr}
 336              		.cfi_def_cfa_offset 16
 337              		.cfi_offset 4, -16
 338              		.cfi_offset 5, -12
 339              		.cfi_offset 6, -8
 340              		.cfi_offset 14, -4
 341              		.loc 1 241 0
 342 0006 0446     		mov	r4, r0
ARM GAS  /tmp/cc9LI0Qt.s 			page 7


 343              		.loc 1 245 0
 344 0008 3BD1     		bne	.L76
 345              	.LVL25:
 346              	.L61:
 347              		.loc 1 252 0
 348 000a A378     		ldrb	r3, [r4, #2]	@ zero_extendqisi2
 349 000c 4BB9     		cbnz	r3, .L62
 350              		.loc 1 255 0
 351 000e 6368     		ldr	r3, [r4, #4]
 352 0010 DB68     		ldr	r3, [r3, #12]
 353 0012 002B     		cmp	r3, #0
 354 0014 34D0     		beq	.L60
 355              		.loc 1 256 0
 356 0016 218B     		ldrh	r1, [r4, #24]
 357 0018 2046     		mov	r0, r4
 358 001a 89B2     		uxth	r1, r1
 359              		.loc 1 273 0
 360 001c BDE87040 		pop	{r4, r5, r6, lr}
 361              		.cfi_remember_state
 362              		.cfi_restore 14
 363              		.cfi_restore 6
 364              		.cfi_restore 5
 365              		.cfi_restore 4
 366              		.cfi_def_cfa_offset 0
 367              	.LVL26:
 368              		.loc 1 256 0
 369 0020 1847     		bx	r3	@ indirect register sibling call
 370              	.LVL27:
 371              	.L62:
 372              		.cfi_restore_state
 373              	.LBB30:
 374              	.LBB31:
 375              		.loc 1 261 0
 376 0022 2169     		ldr	r1, [r4, #16]
 377 0024 0A68     		ldr	r2, [r1]
 378 0026 1368     		ldr	r3, [r2]
 379 0028 23F01F03 		bic	r3, r3, #31
 380 002c 1360     		str	r3, [r2]
 381              	.L65:
 382 002e 1368     		ldr	r3, [r2]
 383 0030 DB07     		lsls	r3, r3, #31
 384 0032 FCD4     		bmi	.L65
 385              		.loc 1 263 0
 386 0034 6068     		ldr	r0, [r4, #4]
 387              		.loc 1 261 0
 388 0036 0D7A     		ldrb	r5, [r1, #8]	@ zero_extendqisi2
 389 0038 4E68     		ldr	r6, [r1, #4]
 390              		.loc 1 263 0
 391 003a 8168     		ldr	r1, [r0, #8]
 392              		.loc 1 261 0
 393 003c 3D23     		movs	r3, #61
 394 003e AB40     		lsls	r3, r3, r5
 395              		.loc 1 262 0
 396 0040 0225     		movs	r5, #2
 397              		.loc 1 261 0
 398 0042 3360     		str	r3, [r6]
 399              		.loc 1 262 0
ARM GAS  /tmp/cc9LI0Qt.s 			page 8


 400 0044 A570     		strb	r5, [r4, #2]
 401              		.loc 1 263 0
 402 0046 39B1     		cbz	r1, .L66
 403              		.loc 1 264 0
 404 0048 2046     		mov	r0, r4
 405 004a 8847     		blx	r1
 406              	.LVL28:
 407              		.loc 1 268 0
 408 004c A378     		ldrb	r3, [r4, #2]	@ zero_extendqisi2
 409 004e AB42     		cmp	r3, r5
 410 0050 16D1     		bne	.L60
 411 0052 2369     		ldr	r3, [r4, #16]
 412 0054 6068     		ldr	r0, [r4, #4]
 413 0056 1A68     		ldr	r2, [r3]
 414              	.L66:
 415              	.LBB32:
 416              	.LBB33:
 417              		.loc 1 164 0
 418 0058 C168     		ldr	r1, [r0, #12]
 419              		.loc 1 170 0
 420 005a E368     		ldr	r3, [r4, #12]
 421              		.loc 1 165 0
 422 005c 0029     		cmp	r1, #0
 423 005e 14BF     		ite	ne
 424 0060 4FF48871 		movne	r1, #272
 425 0064 4FF48071 		moveq	r1, #256
 426              		.loc 1 170 0
 427 0068 0B43     		orrs	r3, r3, r1
 428              	.LBE33:
 429              	.LBE32:
 430              		.loc 1 269 0
 431 006a 0025     		movs	r5, #0
 432              	.LBB36:
 433              	.LBB34:
 434              		.loc 1 169 0
 435 006c 0121     		movs	r1, #1
 436              		.loc 1 168 0
 437 006e 04F11800 		add	r0, r4, #24
 438              	.LBE34:
 439              	.LBE36:
 440              		.loc 1 269 0
 441 0072 A570     		strb	r5, [r4, #2]
 442              	.LVL29:
 443              	.LBB37:
 444              	.LBB35:
 445              		.loc 1 168 0
 446 0074 D060     		str	r0, [r2, #12]
 447              		.loc 1 169 0
 448 0076 5160     		str	r1, [r2, #4]
 449              		.loc 1 170 0
 450 0078 1360     		str	r3, [r2]
 451              		.loc 1 171 0
 452 007a 1368     		ldr	r3, [r2]
 453 007c 0B43     		orrs	r3, r3, r1
 454 007e 1360     		str	r3, [r2]
 455              	.LVL30:
 456              	.L60:
ARM GAS  /tmp/cc9LI0Qt.s 			page 9


 457 0080 70BD     		pop	{r4, r5, r6, pc}
 458              	.LVL31:
 459              	.L76:
 460              	.LBE35:
 461              	.LBE37:
 462              	.LBE31:
 463              	.LBE30:
 464              	.LBB38:
 465              	.LBB39:
 466              		.loc 2 416 0
 467 0082 0248     		ldr	r0, .L77
 468              	.LVL32:
 469 0084 FFF7FEFF 		bl	chSysHalt
 470              	.LVL33:
 471 0088 BFE7     		b	.L61
 472              	.L78:
 473 008a 00BF     		.align	2
 474              	.L77:
 475 008c 00000000 		.word	.LC0
 476              	.LBE39:
 477              	.LBE38:
 478              		.cfi_endproc
 479              	.LFE262:
 480              		.size	uart_lld_serve_rx_end_irq, .-uart_lld_serve_rx_end_irq
 481              		.section	.text.VectorD4,"ax",%progbits
 482              		.align	2
 483              		.p2align 4,,15
 484              		.global	VectorD4
 485              		.thumb
 486              		.thumb_func
 487              		.type	VectorD4, %function
 488              	VectorD4:
 489              	.LFB265:
 490              		.loc 1 349 0
 491              		.cfi_startproc
 492              		@ args = 0, pretend = 0, frame = 0
 493              		@ frame_needed = 0, uses_anonymous_args = 0
 494 0000 08B5     		push	{r3, lr}
 495              		.cfi_def_cfa_offset 8
 496              		.cfi_offset 3, -8
 497              		.cfi_offset 14, -4
 498              		.loc 1 351 0
 499 0002 FFF7FEFF 		bl	_stats_increase_irq
 500              	.LVL34:
 501 0006 FFF7FEFF 		bl	_dbg_check_enter_isr
 502              	.LVL35:
 503              		.loc 1 353 0
 504 000a 0448     		ldr	r0, .L81
 505 000c FFF7FEFF 		bl	serve_usart_irq
 506              	.LVL36:
 507              		.loc 1 355 0
 508 0010 FFF7FEFF 		bl	_dbg_check_leave_isr
 509              	.LVL37:
 510              		.loc 1 356 0
 511 0014 BDE80840 		pop	{r3, lr}
 512              		.cfi_restore 14
 513              		.cfi_restore 3
ARM GAS  /tmp/cc9LI0Qt.s 			page 10


 514              		.cfi_def_cfa_offset 0
 515              		.loc 1 355 0
 516 0018 FFF7FEBF 		b	_port_irq_epilogue
 517              	.LVL38:
 518              	.L82:
 519              		.align	2
 520              	.L81:
 521 001c 00000000 		.word	.LANCHOR0
 522              		.cfi_endproc
 523              	.LFE265:
 524              		.size	VectorD4, .-VectorD4
 525              		.section	.text.VectorD8,"ax",%progbits
 526              		.align	2
 527              		.p2align 4,,15
 528              		.global	VectorD8
 529              		.thumb
 530              		.thumb_func
 531              		.type	VectorD8, %function
 532              	VectorD8:
 533              	.LFB266:
 534              		.loc 1 368 0
 535              		.cfi_startproc
 536              		@ args = 0, pretend = 0, frame = 0
 537              		@ frame_needed = 0, uses_anonymous_args = 0
 538 0000 08B5     		push	{r3, lr}
 539              		.cfi_def_cfa_offset 8
 540              		.cfi_offset 3, -8
 541              		.cfi_offset 14, -4
 542              		.loc 1 370 0
 543 0002 FFF7FEFF 		bl	_stats_increase_irq
 544              	.LVL39:
 545 0006 FFF7FEFF 		bl	_dbg_check_enter_isr
 546              	.LVL40:
 547              		.loc 1 372 0
 548 000a 0448     		ldr	r0, .L85
 549 000c FFF7FEFF 		bl	serve_usart_irq
 550              	.LVL41:
 551              		.loc 1 374 0
 552 0010 FFF7FEFF 		bl	_dbg_check_leave_isr
 553              	.LVL42:
 554              		.loc 1 375 0
 555 0014 BDE80840 		pop	{r3, lr}
 556              		.cfi_restore 14
 557              		.cfi_restore 3
 558              		.cfi_def_cfa_offset 0
 559              		.loc 1 374 0
 560 0018 FFF7FEBF 		b	_port_irq_epilogue
 561              	.LVL43:
 562              	.L86:
 563              		.align	2
 564              	.L85:
 565 001c 00000000 		.word	.LANCHOR1
 566              		.cfi_endproc
 567              	.LFE266:
 568              		.size	VectorD8, .-VectorD8
 569              		.section	.text.VectorDC,"ax",%progbits
 570              		.align	2
ARM GAS  /tmp/cc9LI0Qt.s 			page 11


 571              		.p2align 4,,15
 572              		.global	VectorDC
 573              		.thumb
 574              		.thumb_func
 575              		.type	VectorDC, %function
 576              	VectorDC:
 577              	.LFB267:
 578              		.loc 1 387 0
 579              		.cfi_startproc
 580              		@ args = 0, pretend = 0, frame = 0
 581              		@ frame_needed = 0, uses_anonymous_args = 0
 582 0000 08B5     		push	{r3, lr}
 583              		.cfi_def_cfa_offset 8
 584              		.cfi_offset 3, -8
 585              		.cfi_offset 14, -4
 586              		.loc 1 389 0
 587 0002 FFF7FEFF 		bl	_stats_increase_irq
 588              	.LVL44:
 589 0006 FFF7FEFF 		bl	_dbg_check_enter_isr
 590              	.LVL45:
 591              		.loc 1 391 0
 592 000a 0448     		ldr	r0, .L89
 593 000c FFF7FEFF 		bl	serve_usart_irq
 594              	.LVL46:
 595              		.loc 1 393 0
 596 0010 FFF7FEFF 		bl	_dbg_check_leave_isr
 597              	.LVL47:
 598              		.loc 1 394 0
 599 0014 BDE80840 		pop	{r3, lr}
 600              		.cfi_restore 14
 601              		.cfi_restore 3
 602              		.cfi_def_cfa_offset 0
 603              		.loc 1 393 0
 604 0018 FFF7FEBF 		b	_port_irq_epilogue
 605              	.LVL48:
 606              	.L90:
 607              		.align	2
 608              	.L89:
 609 001c 00000000 		.word	.LANCHOR2
 610              		.cfi_endproc
 611              	.LFE267:
 612              		.size	VectorDC, .-VectorDC
 613              		.section	.text.Vector110,"ax",%progbits
 614              		.align	2
 615              		.p2align 4,,15
 616              		.global	Vector110
 617              		.thumb
 618              		.thumb_func
 619              		.type	Vector110, %function
 620              	Vector110:
 621              	.LFB268:
 622              		.loc 1 406 0
 623              		.cfi_startproc
 624              		@ args = 0, pretend = 0, frame = 0
 625              		@ frame_needed = 0, uses_anonymous_args = 0
 626 0000 08B5     		push	{r3, lr}
 627              		.cfi_def_cfa_offset 8
ARM GAS  /tmp/cc9LI0Qt.s 			page 12


 628              		.cfi_offset 3, -8
 629              		.cfi_offset 14, -4
 630              		.loc 1 408 0
 631 0002 FFF7FEFF 		bl	_stats_increase_irq
 632              	.LVL49:
 633 0006 FFF7FEFF 		bl	_dbg_check_enter_isr
 634              	.LVL50:
 635              		.loc 1 410 0
 636 000a 0448     		ldr	r0, .L93
 637 000c FFF7FEFF 		bl	serve_usart_irq
 638              	.LVL51:
 639              		.loc 1 412 0
 640 0010 FFF7FEFF 		bl	_dbg_check_leave_isr
 641              	.LVL52:
 642              		.loc 1 413 0
 643 0014 BDE80840 		pop	{r3, lr}
 644              		.cfi_restore 14
 645              		.cfi_restore 3
 646              		.cfi_def_cfa_offset 0
 647              		.loc 1 412 0
 648 0018 FFF7FEBF 		b	_port_irq_epilogue
 649              	.LVL53:
 650              	.L94:
 651              		.align	2
 652              	.L93:
 653 001c 00000000 		.word	.LANCHOR3
 654              		.cfi_endproc
 655              	.LFE268:
 656              		.size	Vector110, .-Vector110
 657              		.section	.text.Vector114,"ax",%progbits
 658              		.align	2
 659              		.p2align 4,,15
 660              		.global	Vector114
 661              		.thumb
 662              		.thumb_func
 663              		.type	Vector114, %function
 664              	Vector114:
 665              	.LFB269:
 666              		.loc 1 425 0
 667              		.cfi_startproc
 668              		@ args = 0, pretend = 0, frame = 0
 669              		@ frame_needed = 0, uses_anonymous_args = 0
 670 0000 08B5     		push	{r3, lr}
 671              		.cfi_def_cfa_offset 8
 672              		.cfi_offset 3, -8
 673              		.cfi_offset 14, -4
 674              		.loc 1 427 0
 675 0002 FFF7FEFF 		bl	_stats_increase_irq
 676              	.LVL54:
 677 0006 FFF7FEFF 		bl	_dbg_check_enter_isr
 678              	.LVL55:
 679              		.loc 1 429 0
 680 000a 0448     		ldr	r0, .L97
 681 000c FFF7FEFF 		bl	serve_usart_irq
 682              	.LVL56:
 683              		.loc 1 431 0
 684 0010 FFF7FEFF 		bl	_dbg_check_leave_isr
ARM GAS  /tmp/cc9LI0Qt.s 			page 13


 685              	.LVL57:
 686              		.loc 1 432 0
 687 0014 BDE80840 		pop	{r3, lr}
 688              		.cfi_restore 14
 689              		.cfi_restore 3
 690              		.cfi_def_cfa_offset 0
 691              		.loc 1 431 0
 692 0018 FFF7FEBF 		b	_port_irq_epilogue
 693              	.LVL58:
 694              	.L98:
 695              		.align	2
 696              	.L97:
 697 001c 00000000 		.word	.LANCHOR4
 698              		.cfi_endproc
 699              	.LFE269:
 700              		.size	Vector114, .-Vector114
 701              		.section	.text.Vector15C,"ax",%progbits
 702              		.align	2
 703              		.p2align 4,,15
 704              		.global	Vector15C
 705              		.thumb
 706              		.thumb_func
 707              		.type	Vector15C, %function
 708              	Vector15C:
 709              	.LFB270:
 710              		.loc 1 444 0
 711              		.cfi_startproc
 712              		@ args = 0, pretend = 0, frame = 0
 713              		@ frame_needed = 0, uses_anonymous_args = 0
 714 0000 08B5     		push	{r3, lr}
 715              		.cfi_def_cfa_offset 8
 716              		.cfi_offset 3, -8
 717              		.cfi_offset 14, -4
 718              		.loc 1 446 0
 719 0002 FFF7FEFF 		bl	_stats_increase_irq
 720              	.LVL59:
 721 0006 FFF7FEFF 		bl	_dbg_check_enter_isr
 722              	.LVL60:
 723              		.loc 1 448 0
 724 000a 0448     		ldr	r0, .L101
 725 000c FFF7FEFF 		bl	serve_usart_irq
 726              	.LVL61:
 727              		.loc 1 450 0
 728 0010 FFF7FEFF 		bl	_dbg_check_leave_isr
 729              	.LVL62:
 730              		.loc 1 451 0
 731 0014 BDE80840 		pop	{r3, lr}
 732              		.cfi_restore 14
 733              		.cfi_restore 3
 734              		.cfi_def_cfa_offset 0
 735              		.loc 1 450 0
 736 0018 FFF7FEBF 		b	_port_irq_epilogue
 737              	.LVL63:
 738              	.L102:
 739              		.align	2
 740              	.L101:
 741 001c 00000000 		.word	.LANCHOR5
ARM GAS  /tmp/cc9LI0Qt.s 			page 14


 742              		.cfi_endproc
 743              	.LFE270:
 744              		.size	Vector15C, .-Vector15C
 745              		.section	.text.uart_lld_init,"ax",%progbits
 746              		.align	2
 747              		.p2align 4,,15
 748              		.global	uart_lld_init
 749              		.thumb
 750              		.thumb_func
 751              		.type	uart_lld_init, %function
 752              	uart_lld_init:
 753              	.LFB271:
 754              		.loc 1 463 0
 755              		.cfi_startproc
 756              		@ args = 0, pretend = 0, frame = 0
 757              		@ frame_needed = 0, uses_anonymous_args = 0
 758 0000 2DE9F84F 		push	{r3, r4, r5, r6, r7, r8, r9, r10, fp, lr}
 759              		.cfi_def_cfa_offset 40
 760              		.cfi_offset 3, -40
 761              		.cfi_offset 4, -36
 762              		.cfi_offset 5, -32
 763              		.cfi_offset 6, -28
 764              		.cfi_offset 7, -24
 765              		.cfi_offset 8, -20
 766              		.cfi_offset 9, -16
 767              		.cfi_offset 10, -12
 768              		.cfi_offset 11, -8
 769              		.cfi_offset 14, -4
 770              		.loc 1 466 0
 771 0004 DFF8E0A0 		ldr	r10, .L105+36
 772              		.loc 1 469 0
 773 0008 2E4C     		ldr	r4, .L105
 774              		.loc 1 474 0
 775 000a DFF8E090 		ldr	r9, .L105+40
 776              		.loc 1 482 0
 777 000e DFF8E080 		ldr	r8, .L105+44
 778              		.loc 1 490 0
 779 0012 2D4F     		ldr	r7, .L105+4
 780              		.loc 1 498 0
 781 0014 2D4D     		ldr	r5, .L105+8
 782              		.loc 1 466 0
 783 0016 5046     		mov	r0, r10
 784 0018 FFF7FEFF 		bl	uartObjectInit
 785              	.LVL64:
 786              		.loc 1 468 0
 787 001c 0626     		movs	r6, #6
 788              		.loc 1 470 0
 789 001e 04F1180B 		add	fp, r4, #24
 790              		.loc 1 467 0
 791 0022 2B4B     		ldr	r3, .L105+12
 792 0024 CAF80830 		str	r3, [r10, #8]
 793              		.loc 1 474 0
 794 0028 4846     		mov	r0, r9
 795              		.loc 1 469 0
 796 002a CAF81040 		str	r4, [r10, #16]
 797              		.loc 1 470 0
 798 002e CAF814B0 		str	fp, [r10, #20]
ARM GAS  /tmp/cc9LI0Qt.s 			page 15


 799              		.loc 1 468 0
 800 0032 CAF80C60 		str	r6, [r10, #12]
 801              		.loc 1 474 0
 802 0036 FFF7FEFF 		bl	uartObjectInit
 803              	.LVL65:
 804              		.loc 1 475 0
 805 003a 264B     		ldr	r3, .L105+16
 806 003c C9F80830 		str	r3, [r9, #8]
 807              		.loc 1 477 0
 808 0040 A4F16003 		sub	r3, r4, #96
 809 0044 C9F81030 		str	r3, [r9, #16]
 810              		.loc 1 482 0
 811 0048 4046     		mov	r0, r8
 812              		.loc 1 478 0
 813 004a A4F15403 		sub	r3, r4, #84
 814 004e C9F81430 		str	r3, [r9, #20]
 815              		.loc 1 476 0
 816 0052 C9F80C60 		str	r6, [r9, #12]
 817              		.loc 1 482 0
 818 0056 FFF7FEFF 		bl	uartObjectInit
 819              	.LVL66:
 820              		.loc 1 483 0
 821 005a 1F4B     		ldr	r3, .L105+20
 822 005c C8F80830 		str	r3, [r8, #8]
 823              		.loc 1 485 0
 824 0060 A4F19003 		sub	r3, r4, #144
 825 0064 C8F81030 		str	r3, [r8, #16]
 826              		.loc 1 490 0
 827 0068 3846     		mov	r0, r7
 828              		.loc 1 486 0
 829 006a A4F17803 		sub	r3, r4, #120
 830              		.loc 1 506 0
 831 006e DFF88490 		ldr	r9, .L105+48
 832              		.loc 1 486 0
 833 0072 C8F81430 		str	r3, [r8, #20]
 834              		.loc 1 484 0
 835 0076 C8F80C60 		str	r6, [r8, #12]
 836              		.loc 1 490 0
 837 007a FFF7FEFF 		bl	uartObjectInit
 838              	.LVL67:
 839              		.loc 1 491 0
 840 007e 174B     		ldr	r3, .L105+24
 841 0080 BB60     		str	r3, [r7, #8]
 842              		.loc 1 493 0
 843 0082 A4F18402 		sub	r2, r4, #132
 844              		.loc 1 494 0
 845 0086 A4F16C03 		sub	r3, r4, #108
 846              		.loc 1 498 0
 847 008a 2846     		mov	r0, r5
 848              		.loc 1 493 0
 849 008c 3A61     		str	r2, [r7, #16]
 850              		.loc 1 494 0
 851 008e 7B61     		str	r3, [r7, #20]
 852              		.loc 1 492 0
 853 0090 FE60     		str	r6, [r7, #12]
 854              		.loc 1 498 0
 855 0092 FFF7FEFF 		bl	uartObjectInit
ARM GAS  /tmp/cc9LI0Qt.s 			page 16


 856              	.LVL68:
 857              		.loc 1 502 0
 858 0096 A4F14803 		sub	r3, r4, #72
 859              		.loc 1 501 0
 860 009a A4F19C02 		sub	r2, r4, #156
 861              		.loc 1 499 0
 862 009e 1049     		ldr	r1, .L105+28
 863              		.loc 1 502 0
 864 00a0 6B61     		str	r3, [r5, #20]
 865              		.loc 1 506 0
 866 00a2 4846     		mov	r0, r9
 867              		.loc 1 500 0
 868 00a4 EE60     		str	r6, [r5, #12]
 869              		.loc 1 499 0
 870 00a6 A960     		str	r1, [r5, #8]
 871              		.loc 1 501 0
 872 00a8 2A61     		str	r2, [r5, #16]
 873              		.loc 1 508 0
 874 00aa 243C     		subs	r4, r4, #36
 875              		.loc 1 506 0
 876 00ac FFF7FEFF 		bl	uartObjectInit
 877              	.LVL69:
 878              		.loc 1 507 0
 879 00b0 0C4B     		ldr	r3, .L105+32
 880              		.loc 1 509 0
 881 00b2 C9F814B0 		str	fp, [r9, #20]
 882              		.loc 1 508 0
 883 00b6 C9F81040 		str	r4, [r9, #16]
 884              		.loc 1 507 0
 885 00ba C9F80830 		str	r3, [r9, #8]
 886 00be BDE8F88F 		pop	{r3, r4, r5, r6, r7, r8, r9, r10, fp, pc}
 887              	.L106:
 888 00c2 00BF     		.align	2
 889              	.L105:
 890 00c4 9C000000 		.word	_stm32_dma_streams+156
 891 00c8 00000000 		.word	.LANCHOR3
 892 00cc 00000000 		.word	.LANCHOR4
 893 00d0 00100140 		.word	1073811456
 894 00d4 00440040 		.word	1073759232
 895 00d8 00480040 		.word	1073760256
 896 00dc 004C0040 		.word	1073761280
 897 00e0 00500040 		.word	1073762304
 898 00e4 00140140 		.word	1073812480
 899 00e8 00000000 		.word	.LANCHOR0
 900 00ec 00000000 		.word	.LANCHOR1
 901 00f0 00000000 		.word	.LANCHOR2
 902 00f4 00000000 		.word	.LANCHOR5
 903              		.cfi_endproc
 904              	.LFE271:
 905              		.size	uart_lld_init, .-uart_lld_init
 906              		.section	.text.uart_lld_start,"ax",%progbits
 907              		.align	2
 908              		.p2align 4,,15
 909              		.global	uart_lld_start
 910              		.thumb
 911              		.thumb_func
 912              		.type	uart_lld_start, %function
ARM GAS  /tmp/cc9LI0Qt.s 			page 17


 913              	uart_lld_start:
 914              	.LFB272:
 915              		.loc 1 520 0
 916              		.cfi_startproc
 917              		@ args = 0, pretend = 0, frame = 0
 918              		@ frame_needed = 0, uses_anonymous_args = 0
 919              	.LVL70:
 920 0000 F8B5     		push	{r3, r4, r5, r6, r7, lr}
 921              		.cfi_def_cfa_offset 24
 922              		.cfi_offset 3, -24
 923              		.cfi_offset 4, -20
 924              		.cfi_offset 5, -16
 925              		.cfi_offset 6, -12
 926              		.cfi_offset 7, -8
 927              		.cfi_offset 14, -4
 928              		.loc 1 522 0
 929 0002 0378     		ldrb	r3, [r0]	@ zero_extendqisi2
 930 0004 012B     		cmp	r3, #1
 931              		.loc 1 520 0
 932 0006 0446     		mov	r4, r0
 933              		.loc 1 522 0
 934 0008 3ED0     		beq	.L108
 935 000a 8568     		ldr	r5, [r0, #8]
 936              	.LVL71:
 937              	.L109:
 938              		.loc 1 664 0
 939 000c 0023     		movs	r3, #0
 940 000e A370     		strb	r3, [r4, #2]
 941              		.loc 1 665 0
 942 0010 6370     		strb	r3, [r4, #1]
 943              	.LVL72:
 944              	.LBB50:
 945              	.LBB51:
 946              		.loc 1 203 0
 947 0012 2046     		mov	r0, r4
 948 0014 FFF7FEFF 		bl	usart_stop
 949              	.LVL73:
 950              		.loc 1 207 0
 951 0018 A368     		ldr	r3, [r4, #8]
 952 001a 9C4A     		ldr	r2, .L210
 953 001c 9342     		cmp	r3, r2
 954 001e 5BD0     		beq	.L133
 955 0020 02F58062 		add	r2, r2, #1024
 956 0024 9342     		cmp	r3, r2
 957 0026 57D0     		beq	.L133
 958              		.loc 1 213 0
 959 0028 6268     		ldr	r2, [r4, #4]
 960 002a 994B     		ldr	r3, .L210+4
 961 002c 5169     		ldr	r1, [r2, #20]
 962 002e B3FBF1F3 		udiv	r3, r3, r1
 963 0032 AB60     		str	r3, [r5, #8]
 964              	.L135:
 965              	.LBB52:
 966              	.LBB53:
 967              		.loc 1 164 0
 968 0034 D768     		ldr	r7, [r2, #12]
 969              	.LBE53:
ARM GAS  /tmp/cc9LI0Qt.s 			page 18


 970              	.LBE52:
 971              		.loc 1 229 0
 972 0036 138B     		ldrh	r3, [r2, #24]
 973              		.loc 1 222 0
 974 0038 508B     		ldrh	r0, [r2, #26]
 975              		.loc 1 223 0
 976 003a 918B     		ldrh	r1, [r2, #28]
 977              	.LBB61:
 978              	.LBB54:
 979              		.loc 1 168 0
 980 003c 2269     		ldr	r2, [r4, #16]
 981              	.LBE54:
 982              	.LBE61:
 983              		.loc 1 216 0
 984 003e 2E68     		ldr	r6, [r5]
 985              		.loc 1 217 0
 986 0040 6E68     		ldr	r6, [r5, #4]
 987              	.LBB62:
 988              	.LBB55:
 989              		.loc 1 170 0
 990 0042 E668     		ldr	r6, [r4, #12]
 991              		.loc 1 168 0
 992 0044 1268     		ldr	r2, [r2]
 993              		.loc 1 165 0
 994 0046 002F     		cmp	r7, #0
 995              	.LBE55:
 996              	.LBE62:
 997              		.loc 1 229 0
 998 0048 43F40453 		orr	r3, r3, #8448
 999              		.loc 1 218 0
 1000 004c 4FF00007 		mov	r7, #0
 1001 0050 2F60     		str	r7, [r5]
 1002              		.loc 1 222 0
 1003 0052 40F04000 		orr	r0, r0, #64
 1004              	.LBB63:
 1005              	.LBB56:
 1006              		.loc 1 165 0
 1007 0056 14BF     		ite	ne
 1008 0058 4FF48877 		movne	r7, #272
 1009 005c 4FF48077 		moveq	r7, #256
 1010              	.LBE56:
 1011              	.LBE63:
 1012              		.loc 1 229 0
 1013 0060 43F00C03 		orr	r3, r3, #12
 1014              		.loc 1 223 0
 1015 0064 41F0C101 		orr	r1, r1, #193
 1016              		.loc 1 229 0
 1017 0068 9BB2     		uxth	r3, r3
 1018              	.LBB64:
 1019              	.LBB57:
 1020              		.loc 1 170 0
 1021 006a 3E43     		orrs	r6, r6, r7
 1022              	.LBE57:
 1023              	.LBE64:
 1024              		.loc 1 222 0
 1025 006c 80B2     		uxth	r0, r0
 1026              	.LBB65:
ARM GAS  /tmp/cc9LI0Qt.s 			page 19


 1027              	.LBB58:
 1028              		.loc 1 169 0
 1029 006e 0127     		movs	r7, #1
 1030              	.LBE58:
 1031              	.LBE65:
 1032              		.loc 1 223 0
 1033 0070 89B2     		uxth	r1, r1
 1034              	.LBB66:
 1035              	.LBB59:
 1036              		.loc 1 168 0
 1037 0072 1834     		adds	r4, r4, #24
 1038              	.LVL74:
 1039              	.LBE59:
 1040              	.LBE66:
 1041              		.loc 1 222 0
 1042 0074 2861     		str	r0, [r5, #16]
 1043              		.loc 1 223 0
 1044 0076 6961     		str	r1, [r5, #20]
 1045              	.LVL75:
 1046              		.loc 1 229 0
 1047 0078 EB60     		str	r3, [r5, #12]
 1048              	.LVL76:
 1049              	.LBB67:
 1050              	.LBB60:
 1051              		.loc 1 168 0
 1052 007a D460     		str	r4, [r2, #12]
 1053              		.loc 1 169 0
 1054 007c 5760     		str	r7, [r2, #4]
 1055              		.loc 1 170 0
 1056 007e 1660     		str	r6, [r2]
 1057              		.loc 1 171 0
 1058 0080 1368     		ldr	r3, [r2]
 1059 0082 3B43     		orrs	r3, r3, r7
 1060 0084 1360     		str	r3, [r2]
 1061              	.LVL77:
 1062 0086 F8BD     		pop	{r3, r4, r5, r6, r7, pc}
 1063              	.LVL78:
 1064              	.L108:
 1065              	.LBE60:
 1066              	.LBE67:
 1067              	.LBE51:
 1068              	.LBE50:
 1069              		.loc 1 524 0
 1070 0088 824D     		ldr	r5, .L210+8
 1071 008a A842     		cmp	r0, r5
 1072 008c 00F0A080 		beq	.L187
 1073              		.loc 1 544 0
 1074 0090 814D     		ldr	r5, .L210+12
 1075 0092 A842     		cmp	r0, r5
 1076 0094 00F0BC80 		beq	.L188
 1077              		.loc 1 564 0
 1078 0098 804D     		ldr	r5, .L210+16
 1079 009a A842     		cmp	r0, r5
 1080 009c 00F0D780 		beq	.L189
 1081              		.loc 1 584 0
 1082 00a0 7F4D     		ldr	r5, .L210+20
 1083 00a2 A842     		cmp	r0, r5
ARM GAS  /tmp/cc9LI0Qt.s 			page 20


 1084 00a4 4DD0     		beq	.L190
 1085              		.loc 1 610 0
 1086 00a6 7F4D     		ldr	r5, .L210+24
 1087 00a8 A842     		cmp	r0, r5
 1088 00aa 1CD0     		beq	.L191
 1089              	.LVL79:
 1090              	.L113:
 1091              		.loc 1 636 0
 1092 00ac 7E4D     		ldr	r5, .L210+28
 1093 00ae AC42     		cmp	r4, r5
 1094 00b0 00F00681 		beq	.L192
 1095              	.L120:
 1096              		.loc 1 657 0
 1097 00b4 6368     		ldr	r3, [r4, #4]
 1098 00b6 1B8B     		ldrh	r3, [r3, #24]
 1099 00b8 03F4A053 		and	r3, r3, #5120
 1100 00bc B3F5805F 		cmp	r3, #4096
 1101 00c0 3AD0     		beq	.L193
 1102              	.L132:
 1103              		.loc 1 659 0
 1104 00c2 2269     		ldr	r2, [r4, #16]
 1105              		.loc 1 660 0
 1106 00c4 6369     		ldr	r3, [r4, #20]
 1107              		.loc 1 659 0
 1108 00c6 A568     		ldr	r5, [r4, #8]
 1109 00c8 1068     		ldr	r0, [r2]
 1110              		.loc 1 660 0
 1111 00ca 1968     		ldr	r1, [r3]
 1112              		.loc 1 661 0
 1113 00cc 0022     		movs	r2, #0
 1114              		.loc 1 659 0
 1115 00ce 2B1D     		adds	r3, r5, #4
 1116 00d0 8360     		str	r3, [r0, #8]
 1117              		.loc 1 660 0
 1118 00d2 8B60     		str	r3, [r1, #8]
 1119              		.loc 1 661 0
 1120 00d4 2283     		strh	r2, [r4, #24]	@ movhi
 1121 00d6 99E7     		b	.L109
 1122              	.LVL80:
 1123              	.L133:
 1124              	.LBB69:
 1125              	.LBB68:
 1126              		.loc 1 211 0
 1127 00d8 6268     		ldr	r2, [r4, #4]
 1128 00da 744B     		ldr	r3, .L210+32
 1129 00dc 5169     		ldr	r1, [r2, #20]
 1130 00de B3FBF1F3 		udiv	r3, r3, r1
 1131 00e2 AB60     		str	r3, [r5, #8]
 1132 00e4 A6E7     		b	.L135
 1133              	.LVL81:
 1134              	.L191:
 1135              	.LBE68:
 1136              	.LBE69:
 1137              	.LBB70:
 1138              		.loc 1 613 0 discriminator 1
 1139 00e6 4268     		ldr	r2, [r0, #4]
 1140 00e8 538B     		ldrh	r3, [r2, #26]
ARM GAS  /tmp/cc9LI0Qt.s 			page 21


 1141 00ea 03F4F853 		and	r3, r3, #7936
 1142 00ee 002B     		cmp	r3, #0
 1143 00f0 69D1     		bne	.L194
 1144              	.LVL82:
 1145              	.L126:
 1146              		.loc 1 615 0 discriminator 1
 1147 00f2 938B     		ldrh	r3, [r2, #28]
 1148 00f4 03F4E663 		and	r3, r3, #1840
 1149 00f8 002B     		cmp	r3, #0
 1150 00fa 60D1     		bne	.L195
 1151              	.L127:
 1152              		.loc 1 618 0
 1153 00fc 694B     		ldr	r3, .L210+24
 1154 00fe 6C4A     		ldr	r2, .L210+36
 1155 0100 2869     		ldr	r0, [r5, #16]
 1156 0102 0C21     		movs	r1, #12
 1157 0104 FFF7FEFF 		bl	dmaStreamAllocate
 1158              	.LVL83:
 1159              		.loc 1 622 0
 1160 0108 0028     		cmp	r0, #0
 1161 010a 54D1     		bne	.L196
 1162              	.LVL84:
 1163              	.L128:
 1164              		.loc 1 623 0
 1165 010c 654B     		ldr	r3, .L210+24
 1166 010e 694A     		ldr	r2, .L210+40
 1167 0110 6869     		ldr	r0, [r5, #20]
 1168 0112 0C21     		movs	r1, #12
 1169 0114 FFF7FEFF 		bl	dmaStreamAllocate
 1170              	.LVL85:
 1171              		.loc 1 627 0
 1172 0118 0028     		cmp	r0, #0
 1173 011a 48D1     		bne	.L197
 1174              	.LVL86:
 1175              	.L129:
 1176              		.loc 1 628 0
 1177 011c 664A     		ldr	r2, .L210+44
 1178 011e 136C     		ldr	r3, [r2, #64]
 1179 0120 43F48013 		orr	r3, r3, #1048576
 1180 0124 1364     		str	r3, [r2, #64]
 1181              		.loc 1 629 0
 1182 0126 0C21     		movs	r1, #12
 1183 0128 3520     		movs	r0, #53
 1184 012a FFF7FEFF 		bl	nvicEnableVector
 1185              	.LVL87:
 1186              		.loc 1 630 0
 1187 012e EB68     		ldr	r3, [r5, #12]
 1188 0130 43F00063 		orr	r3, r3, #134217728
 1189 0134 EB60     		str	r3, [r5, #12]
 1190 0136 BDE7     		b	.L120
 1191              	.L193:
 1192              	.LBE70:
 1193              		.loc 1 658 0
 1194 0138 E368     		ldr	r3, [r4, #12]
 1195 013a 43F42053 		orr	r3, r3, #10240
 1196 013e E360     		str	r3, [r4, #12]
 1197 0140 BFE7     		b	.L132
ARM GAS  /tmp/cc9LI0Qt.s 			page 22


 1198              	.LVL88:
 1199              	.L190:
 1200              	.LBB71:
 1201              		.loc 1 587 0 discriminator 1
 1202 0142 4268     		ldr	r2, [r0, #4]
 1203 0144 538B     		ldrh	r3, [r2, #26]
 1204 0146 03F4F853 		and	r3, r3, #7936
 1205 014a 5BBB     		cbnz	r3, .L198
 1206              	.LVL89:
 1207              	.L122:
 1208              		.loc 1 589 0 discriminator 1
 1209 014c 938B     		ldrh	r3, [r2, #28]
 1210 014e 03F4E663 		and	r3, r3, #1840
 1211 0152 1BBB     		cbnz	r3, .L199
 1212              	.L123:
 1213              		.loc 1 592 0
 1214 0154 524B     		ldr	r3, .L210+20
 1215 0156 564A     		ldr	r2, .L210+36
 1216 0158 2869     		ldr	r0, [r5, #16]
 1217 015a 0C21     		movs	r1, #12
 1218 015c FFF7FEFF 		bl	dmaStreamAllocate
 1219              	.LVL90:
 1220              		.loc 1 596 0
 1221 0160 C0B9     		cbnz	r0, .L200
 1222              	.LVL91:
 1223              	.L124:
 1224              		.loc 1 597 0
 1225 0162 4F4B     		ldr	r3, .L210+20
 1226 0164 534A     		ldr	r2, .L210+40
 1227 0166 6869     		ldr	r0, [r5, #20]
 1228 0168 0C21     		movs	r1, #12
 1229 016a FFF7FEFF 		bl	dmaStreamAllocate
 1230              	.LVL92:
 1231              		.loc 1 601 0
 1232 016e 68B9     		cbnz	r0, .L201
 1233              	.LVL93:
 1234              	.L125:
 1235              		.loc 1 602 0
 1236 0170 514A     		ldr	r2, .L210+44
 1237 0172 136C     		ldr	r3, [r2, #64]
 1238 0174 43F40023 		orr	r3, r3, #524288
 1239 0178 1364     		str	r3, [r2, #64]
 1240              		.loc 1 603 0
 1241 017a 0C21     		movs	r1, #12
 1242 017c 3420     		movs	r0, #52
 1243 017e FFF7FEFF 		bl	nvicEnableVector
 1244              	.LVL94:
 1245              		.loc 1 604 0
 1246 0182 EB68     		ldr	r3, [r5, #12]
 1247 0184 43F00063 		orr	r3, r3, #134217728
 1248 0188 EB60     		str	r3, [r5, #12]
 1249 018a 93E7     		b	.L120
 1250              	.LVL95:
 1251              	.L201:
 1252              		.loc 1 601 0 discriminator 2
 1253 018c 4B48     		ldr	r0, .L210+48
 1254              	.LVL96:
ARM GAS  /tmp/cc9LI0Qt.s 			page 23


 1255 018e FFF7FEFF 		bl	chSysHalt
 1256              	.LVL97:
 1257 0192 EDE7     		b	.L125
 1258              	.LVL98:
 1259              	.L200:
 1260              		.loc 1 596 0 discriminator 2
 1261 0194 4948     		ldr	r0, .L210+48
 1262              	.LVL99:
 1263 0196 FFF7FEFF 		bl	chSysHalt
 1264              	.LVL100:
 1265 019a E2E7     		b	.L124
 1266              	.L199:
 1267              		.loc 1 589 0 discriminator 2
 1268 019c 4748     		ldr	r0, .L210+48
 1269 019e FFF7FEFF 		bl	chSysHalt
 1270              	.LVL101:
 1271 01a2 D7E7     		b	.L123
 1272              	.LVL102:
 1273              	.L198:
 1274              		.loc 1 587 0 discriminator 2
 1275 01a4 4548     		ldr	r0, .L210+48
 1276              	.LVL103:
 1277 01a6 FFF7FEFF 		bl	chSysHalt
 1278              	.LVL104:
 1279 01aa 6268     		ldr	r2, [r4, #4]
 1280 01ac CEE7     		b	.L122
 1281              	.LVL105:
 1282              	.L197:
 1283              	.LBE71:
 1284              	.LBB72:
 1285              		.loc 1 627 0 discriminator 2
 1286 01ae 4348     		ldr	r0, .L210+48
 1287              	.LVL106:
 1288 01b0 FFF7FEFF 		bl	chSysHalt
 1289              	.LVL107:
 1290 01b4 B2E7     		b	.L129
 1291              	.LVL108:
 1292              	.L196:
 1293              		.loc 1 622 0 discriminator 2
 1294 01b6 4148     		ldr	r0, .L210+48
 1295              	.LVL109:
 1296 01b8 FFF7FEFF 		bl	chSysHalt
 1297              	.LVL110:
 1298 01bc A6E7     		b	.L128
 1299              	.L195:
 1300              		.loc 1 615 0 discriminator 2
 1301 01be 3F48     		ldr	r0, .L210+48
 1302 01c0 FFF7FEFF 		bl	chSysHalt
 1303              	.LVL111:
 1304 01c4 9AE7     		b	.L127
 1305              	.LVL112:
 1306              	.L194:
 1307              		.loc 1 613 0 discriminator 2
 1308 01c6 3D48     		ldr	r0, .L210+48
 1309              	.LVL113:
 1310 01c8 FFF7FEFF 		bl	chSysHalt
 1311              	.LVL114:
ARM GAS  /tmp/cc9LI0Qt.s 			page 24


 1312 01cc 6268     		ldr	r2, [r4, #4]
 1313 01ce 90E7     		b	.L126
 1314              	.LVL115:
 1315              	.L187:
 1316              	.LBE72:
 1317              	.LBB73:
 1318              		.loc 1 526 0
 1319 01d0 0346     		mov	r3, r0
 1320 01d2 374A     		ldr	r2, .L210+36
 1321 01d4 0069     		ldr	r0, [r0, #16]
 1322              	.LVL116:
 1323 01d6 0C21     		movs	r1, #12
 1324 01d8 FFF7FEFF 		bl	dmaStreamAllocate
 1325              	.LVL117:
 1326              		.loc 1 530 0
 1327 01dc 0028     		cmp	r0, #0
 1328 01de 40F09F80 		bne	.L202
 1329              	.LVL118:
 1330              	.L111:
 1331              		.loc 1 531 0
 1332 01e2 2C4B     		ldr	r3, .L210+8
 1333 01e4 334A     		ldr	r2, .L210+40
 1334 01e6 6869     		ldr	r0, [r5, #20]
 1335 01e8 0C21     		movs	r1, #12
 1336 01ea FFF7FEFF 		bl	dmaStreamAllocate
 1337              	.LVL119:
 1338              		.loc 1 535 0
 1339 01ee 0028     		cmp	r0, #0
 1340 01f0 40F09280 		bne	.L203
 1341              	.LVL120:
 1342              	.L112:
 1343              		.loc 1 536 0
 1344 01f4 304A     		ldr	r2, .L210+44
 1345 01f6 536C     		ldr	r3, [r2, #68]
 1346 01f8 43F01003 		orr	r3, r3, #16
 1347 01fc 5364     		str	r3, [r2, #68]
 1348              		.loc 1 537 0
 1349 01fe 0C21     		movs	r1, #12
 1350 0200 2520     		movs	r0, #37
 1351 0202 FFF7FEFF 		bl	nvicEnableVector
 1352              	.LVL121:
 1353              		.loc 1 538 0
 1354 0206 EB68     		ldr	r3, [r5, #12]
 1355 0208 43F00063 		orr	r3, r3, #134217728
 1356 020c EB60     		str	r3, [r5, #12]
 1357 020e 4DE7     		b	.L113
 1358              	.LVL122:
 1359              	.L188:
 1360              	.LBE73:
 1361              	.LBB74:
 1362              		.loc 1 546 0
 1363 0210 0346     		mov	r3, r0
 1364 0212 274A     		ldr	r2, .L210+36
 1365 0214 0069     		ldr	r0, [r0, #16]
 1366              	.LVL123:
 1367 0216 0C21     		movs	r1, #12
 1368 0218 FFF7FEFF 		bl	dmaStreamAllocate
ARM GAS  /tmp/cc9LI0Qt.s 			page 25


 1369              	.LVL124:
 1370              		.loc 1 550 0
 1371 021c 0028     		cmp	r0, #0
 1372 021e 40F08780 		bne	.L204
 1373              	.LVL125:
 1374              	.L115:
 1375              		.loc 1 551 0
 1376 0222 1D4B     		ldr	r3, .L210+12
 1377 0224 234A     		ldr	r2, .L210+40
 1378 0226 6869     		ldr	r0, [r5, #20]
 1379 0228 0C21     		movs	r1, #12
 1380 022a FFF7FEFF 		bl	dmaStreamAllocate
 1381              	.LVL126:
 1382              		.loc 1 555 0
 1383 022e 0028     		cmp	r0, #0
 1384 0230 7AD1     		bne	.L205
 1385              	.LVL127:
 1386              	.L116:
 1387              		.loc 1 556 0
 1388 0232 214A     		ldr	r2, .L210+44
 1389 0234 136C     		ldr	r3, [r2, #64]
 1390 0236 43F40033 		orr	r3, r3, #131072
 1391 023a 1364     		str	r3, [r2, #64]
 1392              		.loc 1 557 0
 1393 023c 0C21     		movs	r1, #12
 1394 023e 2620     		movs	r0, #38
 1395 0240 FFF7FEFF 		bl	nvicEnableVector
 1396              	.LVL128:
 1397              		.loc 1 558 0
 1398 0244 EB68     		ldr	r3, [r5, #12]
 1399 0246 43F00063 		orr	r3, r3, #134217728
 1400 024a EB60     		str	r3, [r5, #12]
 1401 024c 2EE7     		b	.L113
 1402              	.LVL129:
 1403              	.L189:
 1404              	.LBE74:
 1405              	.LBB75:
 1406              		.loc 1 566 0
 1407 024e 0346     		mov	r3, r0
 1408 0250 174A     		ldr	r2, .L210+36
 1409 0252 0069     		ldr	r0, [r0, #16]
 1410              	.LVL130:
 1411 0254 0C21     		movs	r1, #12
 1412 0256 FFF7FEFF 		bl	dmaStreamAllocate
 1413              	.LVL131:
 1414              		.loc 1 570 0
 1415 025a 0028     		cmp	r0, #0
 1416 025c 50D1     		bne	.L206
 1417              	.LVL132:
 1418              	.L118:
 1419              		.loc 1 571 0
 1420 025e 0F4B     		ldr	r3, .L210+16
 1421 0260 144A     		ldr	r2, .L210+40
 1422 0262 6869     		ldr	r0, [r5, #20]
 1423 0264 0C21     		movs	r1, #12
 1424 0266 FFF7FEFF 		bl	dmaStreamAllocate
 1425              	.LVL133:
ARM GAS  /tmp/cc9LI0Qt.s 			page 26


 1426              		.loc 1 575 0
 1427 026a 0028     		cmp	r0, #0
 1428 026c 44D1     		bne	.L207
 1429              	.LVL134:
 1430              	.L119:
 1431              		.loc 1 576 0
 1432 026e 124A     		ldr	r2, .L210+44
 1433 0270 136C     		ldr	r3, [r2, #64]
 1434 0272 43F48023 		orr	r3, r3, #262144
 1435 0276 1364     		str	r3, [r2, #64]
 1436              		.loc 1 577 0
 1437 0278 0C21     		movs	r1, #12
 1438 027a 2720     		movs	r0, #39
 1439 027c FFF7FEFF 		bl	nvicEnableVector
 1440              	.LVL135:
 1441              		.loc 1 578 0
 1442 0280 EB68     		ldr	r3, [r5, #12]
 1443 0282 43F00063 		orr	r3, r3, #134217728
 1444 0286 EB60     		str	r3, [r5, #12]
 1445 0288 14E7     		b	.L120
 1446              	.L211:
 1447 028a 00BF     		.align	2
 1448              	.L210:
 1449 028c 00100140 		.word	1073811456
 1450 0290 80DE8002 		.word	42000000
 1451 0294 00000000 		.word	.LANCHOR0
 1452 0298 00000000 		.word	.LANCHOR1
 1453 029c 00000000 		.word	.LANCHOR2
 1454 02a0 00000000 		.word	.LANCHOR3
 1455 02a4 00000000 		.word	.LANCHOR4
 1456 02a8 00000000 		.word	.LANCHOR5
 1457 02ac 00BD0105 		.word	84000000
 1458 02b0 00000000 		.word	uart_lld_serve_rx_end_irq
 1459 02b4 00000000 		.word	uart_lld_serve_tx_end_irq
 1460 02b8 00380240 		.word	1073887232
 1461 02bc 00000000 		.word	.LANCHOR6
 1462              	.L192:
 1463              	.LBE75:
 1464              	.LBB76:
 1465              		.loc 1 638 0
 1466 02c0 2346     		mov	r3, r4
 1467 02c2 1D4A     		ldr	r2, .L212
 1468 02c4 2069     		ldr	r0, [r4, #16]
 1469 02c6 0C21     		movs	r1, #12
 1470 02c8 FFF7FEFF 		bl	dmaStreamAllocate
 1471              	.LVL136:
 1472              		.loc 1 642 0
 1473 02cc 00BB     		cbnz	r0, .L208
 1474              	.LVL137:
 1475              	.L130:
 1476              		.loc 1 643 0
 1477 02ce 1B4B     		ldr	r3, .L212+4
 1478 02d0 1B4A     		ldr	r2, .L212+8
 1479 02d2 6869     		ldr	r0, [r5, #20]
 1480 02d4 0C21     		movs	r1, #12
 1481 02d6 FFF7FEFF 		bl	dmaStreamAllocate
 1482              	.LVL138:
ARM GAS  /tmp/cc9LI0Qt.s 			page 27


 1483              		.loc 1 647 0
 1484 02da A8B9     		cbnz	r0, .L209
 1485              	.LVL139:
 1486              	.L131:
 1487              		.loc 1 648 0
 1488 02dc 194A     		ldr	r2, .L212+12
 1489 02de 536C     		ldr	r3, [r2, #68]
 1490 02e0 43F02003 		orr	r3, r3, #32
 1491 02e4 5364     		str	r3, [r2, #68]
 1492              		.loc 1 649 0
 1493 02e6 0C21     		movs	r1, #12
 1494 02e8 4720     		movs	r0, #71
 1495 02ea FFF7FEFF 		bl	nvicEnableVector
 1496              	.LVL140:
 1497              		.loc 1 650 0
 1498 02ee EB68     		ldr	r3, [r5, #12]
 1499 02f0 43F02063 		orr	r3, r3, #167772160
 1500 02f4 EB60     		str	r3, [r5, #12]
 1501 02f6 DDE6     		b	.L120
 1502              	.LVL141:
 1503              	.L207:
 1504              	.LBE76:
 1505              	.LBB77:
 1506              		.loc 1 575 0 discriminator 2
 1507 02f8 1348     		ldr	r0, .L212+16
 1508              	.LVL142:
 1509 02fa FFF7FEFF 		bl	chSysHalt
 1510              	.LVL143:
 1511 02fe B6E7     		b	.L119
 1512              	.LVL144:
 1513              	.L206:
 1514              		.loc 1 570 0 discriminator 2
 1515 0300 1148     		ldr	r0, .L212+16
 1516              	.LVL145:
 1517 0302 FFF7FEFF 		bl	chSysHalt
 1518              	.LVL146:
 1519 0306 AAE7     		b	.L118
 1520              	.LVL147:
 1521              	.L209:
 1522              	.LBE77:
 1523              	.LBB78:
 1524              		.loc 1 647 0 discriminator 2
 1525 0308 0F48     		ldr	r0, .L212+16
 1526              	.LVL148:
 1527 030a FFF7FEFF 		bl	chSysHalt
 1528              	.LVL149:
 1529 030e E5E7     		b	.L131
 1530              	.LVL150:
 1531              	.L208:
 1532              		.loc 1 642 0 discriminator 2
 1533 0310 0D48     		ldr	r0, .L212+16
 1534              	.LVL151:
 1535 0312 FFF7FEFF 		bl	chSysHalt
 1536              	.LVL152:
 1537 0316 DAE7     		b	.L130
 1538              	.LVL153:
 1539              	.L203:
ARM GAS  /tmp/cc9LI0Qt.s 			page 28


 1540              	.LBE78:
 1541              	.LBB79:
 1542              		.loc 1 535 0 discriminator 2
 1543 0318 0B48     		ldr	r0, .L212+16
 1544              	.LVL154:
 1545 031a FFF7FEFF 		bl	chSysHalt
 1546              	.LVL155:
 1547 031e 69E7     		b	.L112
 1548              	.LVL156:
 1549              	.L202:
 1550              		.loc 1 530 0 discriminator 2
 1551 0320 0948     		ldr	r0, .L212+16
 1552              	.LVL157:
 1553 0322 FFF7FEFF 		bl	chSysHalt
 1554              	.LVL158:
 1555 0326 5CE7     		b	.L111
 1556              	.LVL159:
 1557              	.L205:
 1558              	.LBE79:
 1559              	.LBB80:
 1560              		.loc 1 555 0 discriminator 2
 1561 0328 0748     		ldr	r0, .L212+16
 1562              	.LVL160:
 1563 032a FFF7FEFF 		bl	chSysHalt
 1564              	.LVL161:
 1565 032e 80E7     		b	.L116
 1566              	.LVL162:
 1567              	.L204:
 1568              		.loc 1 550 0 discriminator 2
 1569 0330 0548     		ldr	r0, .L212+16
 1570              	.LVL163:
 1571 0332 FFF7FEFF 		bl	chSysHalt
 1572              	.LVL164:
 1573 0336 74E7     		b	.L115
 1574              	.L213:
 1575              		.align	2
 1576              	.L212:
 1577 0338 00000000 		.word	uart_lld_serve_rx_end_irq
 1578 033c 00000000 		.word	.LANCHOR5
 1579 0340 00000000 		.word	uart_lld_serve_tx_end_irq
 1580 0344 00380240 		.word	1073887232
 1581 0348 00000000 		.word	.LANCHOR6
 1582              	.LBE80:
 1583              		.cfi_endproc
 1584              	.LFE272:
 1585              		.size	uart_lld_start, .-uart_lld_start
 1586              		.section	.text.uart_lld_stop,"ax",%progbits
 1587              		.align	2
 1588              		.p2align 4,,15
 1589              		.global	uart_lld_stop
 1590              		.thumb
 1591              		.thumb_func
 1592              		.type	uart_lld_stop, %function
 1593              	uart_lld_stop:
 1594              	.LFB273:
 1595              		.loc 1 676 0
 1596              		.cfi_startproc
ARM GAS  /tmp/cc9LI0Qt.s 			page 29


 1597              		@ args = 0, pretend = 0, frame = 0
 1598              		@ frame_needed = 0, uses_anonymous_args = 0
 1599              	.LVL165:
 1600              		.loc 1 678 0
 1601 0000 0278     		ldrb	r2, [r0]	@ zero_extendqisi2
 1602 0002 022A     		cmp	r2, #2
 1603 0004 00D0     		beq	.L225
 1604 0006 7047     		bx	lr
 1605              	.L225:
 1606              		.loc 1 676 0
 1607 0008 10B5     		push	{r4, lr}
 1608              		.cfi_def_cfa_offset 8
 1609              		.cfi_offset 4, -8
 1610              		.cfi_offset 14, -4
 1611 000a 0446     		mov	r4, r0
 1612              		.loc 1 679 0
 1613 000c FFF7FEFF 		bl	usart_stop
 1614              	.LVL166:
 1615              		.loc 1 680 0
 1616 0010 2069     		ldr	r0, [r4, #16]
 1617 0012 FFF7FEFF 		bl	dmaStreamRelease
 1618              	.LVL167:
 1619              		.loc 1 681 0
 1620 0016 6069     		ldr	r0, [r4, #20]
 1621 0018 FFF7FEFF 		bl	dmaStreamRelease
 1622              	.LVL168:
 1623              		.loc 1 684 0
 1624 001c 244B     		ldr	r3, .L232
 1625 001e 9C42     		cmp	r4, r3
 1626 0020 18D0     		beq	.L226
 1627              		.loc 1 692 0
 1628 0022 244B     		ldr	r3, .L232+4
 1629 0024 9C42     		cmp	r4, r3
 1630 0026 1ED0     		beq	.L227
 1631              		.loc 1 700 0
 1632 0028 234B     		ldr	r3, .L232+8
 1633 002a 9C42     		cmp	r4, r3
 1634 002c 24D0     		beq	.L228
 1635              		.loc 1 708 0
 1636 002e 234B     		ldr	r3, .L232+12
 1637 0030 9C42     		cmp	r4, r3
 1638 0032 2AD0     		beq	.L229
 1639              		.loc 1 716 0
 1640 0034 224B     		ldr	r3, .L232+16
 1641 0036 9C42     		cmp	r4, r3
 1642 0038 30D0     		beq	.L230
 1643              		.loc 1 724 0
 1644 003a 224B     		ldr	r3, .L232+20
 1645 003c 9C42     		cmp	r4, r3
 1646 003e 00D0     		beq	.L231
 1647              	.L214:
 1648 0040 10BD     		pop	{r4, pc}
 1649              	.LVL169:
 1650              	.L231:
 1651              		.loc 1 725 0
 1652 0042 4720     		movs	r0, #71
 1653 0044 FFF7FEFF 		bl	nvicDisableVector
ARM GAS  /tmp/cc9LI0Qt.s 			page 30


 1654              	.LVL170:
 1655              		.loc 1 726 0
 1656 0048 1F4A     		ldr	r2, .L232+24
 1657 004a 536C     		ldr	r3, [r2, #68]
 1658 004c 23F02003 		bic	r3, r3, #32
 1659 0050 5364     		str	r3, [r2, #68]
 1660              		.loc 1 727 0
 1661 0052 F5E7     		b	.L214
 1662              	.L226:
 1663              		.loc 1 685 0
 1664 0054 2520     		movs	r0, #37
 1665 0056 FFF7FEFF 		bl	nvicDisableVector
 1666              	.LVL171:
 1667              		.loc 1 686 0
 1668 005a 1B4A     		ldr	r2, .L232+24
 1669 005c 536C     		ldr	r3, [r2, #68]
 1670 005e 23F01003 		bic	r3, r3, #16
 1671 0062 5364     		str	r3, [r2, #68]
 1672              		.loc 1 687 0
 1673 0064 10BD     		pop	{r4, pc}
 1674              	.LVL172:
 1675              	.L227:
 1676              		.loc 1 693 0
 1677 0066 2620     		movs	r0, #38
 1678 0068 FFF7FEFF 		bl	nvicDisableVector
 1679              	.LVL173:
 1680              		.loc 1 694 0
 1681 006c 164A     		ldr	r2, .L232+24
 1682 006e 136C     		ldr	r3, [r2, #64]
 1683 0070 23F40033 		bic	r3, r3, #131072
 1684 0074 1364     		str	r3, [r2, #64]
 1685              		.loc 1 695 0
 1686 0076 10BD     		pop	{r4, pc}
 1687              	.LVL174:
 1688              	.L228:
 1689              		.loc 1 701 0
 1690 0078 2720     		movs	r0, #39
 1691 007a FFF7FEFF 		bl	nvicDisableVector
 1692              	.LVL175:
 1693              		.loc 1 702 0
 1694 007e 124A     		ldr	r2, .L232+24
 1695 0080 136C     		ldr	r3, [r2, #64]
 1696 0082 23F48023 		bic	r3, r3, #262144
 1697 0086 1364     		str	r3, [r2, #64]
 1698              		.loc 1 703 0
 1699 0088 10BD     		pop	{r4, pc}
 1700              	.LVL176:
 1701              	.L229:
 1702              		.loc 1 709 0
 1703 008a 3420     		movs	r0, #52
 1704 008c FFF7FEFF 		bl	nvicDisableVector
 1705              	.LVL177:
 1706              		.loc 1 710 0
 1707 0090 0D4A     		ldr	r2, .L232+24
 1708 0092 136C     		ldr	r3, [r2, #64]
 1709 0094 23F40023 		bic	r3, r3, #524288
 1710 0098 1364     		str	r3, [r2, #64]
ARM GAS  /tmp/cc9LI0Qt.s 			page 31


 1711              		.loc 1 711 0
 1712 009a 10BD     		pop	{r4, pc}
 1713              	.LVL178:
 1714              	.L230:
 1715              		.loc 1 717 0
 1716 009c 3520     		movs	r0, #53
 1717 009e FFF7FEFF 		bl	nvicDisableVector
 1718              	.LVL179:
 1719              		.loc 1 718 0
 1720 00a2 094A     		ldr	r2, .L232+24
 1721 00a4 136C     		ldr	r3, [r2, #64]
 1722 00a6 23F48013 		bic	r3, r3, #1048576
 1723 00aa 1364     		str	r3, [r2, #64]
 1724              		.loc 1 719 0
 1725 00ac 10BD     		pop	{r4, pc}
 1726              	.LVL180:
 1727              	.L233:
 1728 00ae 00BF     		.align	2
 1729              	.L232:
 1730 00b0 00000000 		.word	.LANCHOR0
 1731 00b4 00000000 		.word	.LANCHOR1
 1732 00b8 00000000 		.word	.LANCHOR2
 1733 00bc 00000000 		.word	.LANCHOR3
 1734 00c0 00000000 		.word	.LANCHOR4
 1735 00c4 00000000 		.word	.LANCHOR5
 1736 00c8 00380240 		.word	1073887232
 1737              		.cfi_endproc
 1738              	.LFE273:
 1739              		.size	uart_lld_stop, .-uart_lld_stop
 1740              		.section	.text.uart_lld_start_send,"ax",%progbits
 1741              		.align	2
 1742              		.p2align 4,,15
 1743              		.global	uart_lld_start_send
 1744              		.thumb
 1745              		.thumb_func
 1746              		.type	uart_lld_start_send, %function
 1747              	uart_lld_start_send:
 1748              	.LFB274:
 1749              		.loc 1 744 0
 1750              		.cfi_startproc
 1751              		@ args = 0, pretend = 0, frame = 0
 1752              		@ frame_needed = 0, uses_anonymous_args = 0
 1753              		@ link register save eliminated.
 1754              	.LVL181:
 1755 0000 30B4     		push	{r4, r5}
 1756              		.cfi_def_cfa_offset 8
 1757              		.cfi_offset 4, -8
 1758              		.cfi_offset 5, -4
 1759              		.loc 1 747 0
 1760 0002 4369     		ldr	r3, [r0, #20]
 1761              		.loc 1 754 0
 1762 0004 4568     		ldr	r5, [r0, #4]
 1763              		.loc 1 749 0
 1764 0006 C468     		ldr	r4, [r0, #12]
 1765              		.loc 1 747 0
 1766 0008 1B68     		ldr	r3, [r3]
 1767              		.loc 1 754 0
ARM GAS  /tmp/cc9LI0Qt.s 			page 32


 1768 000a 6D68     		ldr	r5, [r5, #4]
 1769              		.loc 1 747 0
 1770 000c DA60     		str	r2, [r3, #12]
 1771              		.loc 1 749 0
 1772 000e 44F48A64 		orr	r4, r4, #1104
 1773              		.loc 1 748 0
 1774 0012 5960     		str	r1, [r3, #4]
 1775              		.loc 1 749 0
 1776 0014 1C60     		str	r4, [r3]
 1777              		.loc 1 754 0
 1778 0016 3DB1     		cbz	r5, .L235
 1779              		.loc 1 755 0
 1780 0018 8268     		ldr	r2, [r0, #8]
 1781              	.LVL182:
 1782 001a 6FF04001 		mvn	r1, #64
 1783              	.LVL183:
 1784 001e 1160     		str	r1, [r2]
 1785              		.loc 1 756 0
 1786 0020 D168     		ldr	r1, [r2, #12]
 1787 0022 41F04001 		orr	r1, r1, #64
 1788 0026 D160     		str	r1, [r2, #12]
 1789              	.L235:
 1790              		.loc 1 760 0
 1791 0028 1A68     		ldr	r2, [r3]
 1792 002a 42F00102 		orr	r2, r2, #1
 1793 002e 1A60     		str	r2, [r3]
 1794              		.loc 1 761 0
 1795 0030 30BC     		pop	{r4, r5}
 1796              		.cfi_restore 5
 1797              		.cfi_restore 4
 1798              		.cfi_def_cfa_offset 0
 1799 0032 7047     		bx	lr
 1800              		.cfi_endproc
 1801              	.LFE274:
 1802              		.size	uart_lld_start_send, .-uart_lld_start_send
 1803              		.section	.text.uart_lld_stop_send,"ax",%progbits
 1804              		.align	2
 1805              		.p2align 4,,15
 1806              		.global	uart_lld_stop_send
 1807              		.thumb
 1808              		.thumb_func
 1809              		.type	uart_lld_stop_send, %function
 1810              	uart_lld_stop_send:
 1811              	.LFB275:
 1812              		.loc 1 774 0
 1813              		.cfi_startproc
 1814              		@ args = 0, pretend = 0, frame = 0
 1815              		@ frame_needed = 0, uses_anonymous_args = 0
 1816              		@ link register save eliminated.
 1817              	.LVL184:
 1818              		.loc 1 776 0
 1819 0000 4169     		ldr	r1, [r0, #20]
 1820 0002 0A68     		ldr	r2, [r1]
 1821 0004 1368     		ldr	r3, [r2]
 1822 0006 23F01F03 		bic	r3, r3, #31
 1823 000a 1360     		str	r3, [r2]
 1824              	.L241:
ARM GAS  /tmp/cc9LI0Qt.s 			page 33


 1825              		.loc 1 776 0 is_stmt 0 discriminator 2
 1826 000c 1368     		ldr	r3, [r2]
 1827 000e DB07     		lsls	r3, r3, #31
 1828 0010 FCD4     		bmi	.L241
 1829              		.loc 1 776 0 discriminator 3
 1830 0012 087A     		ldrb	r0, [r1, #8]	@ zero_extendqisi2
 1831              	.LVL185:
 1832 0014 4968     		ldr	r1, [r1, #4]
 1833 0016 3D23     		movs	r3, #61
 1834 0018 8340     		lsls	r3, r3, r0
 1835 001a 0B60     		str	r3, [r1]
 1836              		.loc 1 778 0 is_stmt 1 discriminator 3
 1837 001c 5068     		ldr	r0, [r2, #4]
 1838              		.loc 1 779 0 discriminator 3
 1839 001e 7047     		bx	lr
 1840              		.cfi_endproc
 1841              	.LFE275:
 1842              		.size	uart_lld_stop_send, .-uart_lld_stop_send
 1843              		.section	.text.uart_lld_start_receive,"ax",%progbits
 1844              		.align	2
 1845              		.p2align 4,,15
 1846              		.global	uart_lld_start_receive
 1847              		.thumb
 1848              		.thumb_func
 1849              		.type	uart_lld_start_receive, %function
 1850              	uart_lld_start_receive:
 1851              	.LFB276:
 1852              		.loc 1 792 0
 1853              		.cfi_startproc
 1854              		@ args = 0, pretend = 0, frame = 0
 1855              		@ frame_needed = 0, uses_anonymous_args = 0
 1856              		@ link register save eliminated.
 1857              	.LVL186:
 1858 0000 70B4     		push	{r4, r5, r6}
 1859              		.cfi_def_cfa_offset 12
 1860              		.cfi_offset 4, -12
 1861              		.cfi_offset 5, -8
 1862              		.cfi_offset 6, -4
 1863              		.loc 1 795 0
 1864 0002 0569     		ldr	r5, [r0, #16]
 1865 0004 2C68     		ldr	r4, [r5]
 1866 0006 2368     		ldr	r3, [r4]
 1867 0008 23F01F03 		bic	r3, r3, #31
 1868 000c 2360     		str	r3, [r4]
 1869              	.L244:
 1870              		.loc 1 795 0 is_stmt 0 discriminator 2
 1871 000e 2368     		ldr	r3, [r4]
 1872 0010 DB07     		lsls	r3, r3, #31
 1873 0012 FCD4     		bmi	.L244
 1874              		.loc 1 795 0 discriminator 3
 1875 0014 2E7A     		ldrb	r6, [r5, #8]	@ zero_extendqisi2
 1876 0016 6D68     		ldr	r5, [r5, #4]
 1877 0018 3D23     		movs	r3, #61
 1878 001a B340     		lsls	r3, r3, r6
 1879 001c 2B60     		str	r3, [r5]
 1880              		.loc 1 800 0 is_stmt 1 discriminator 3
 1881 001e C368     		ldr	r3, [r0, #12]
ARM GAS  /tmp/cc9LI0Qt.s 			page 34


 1882              		.loc 1 798 0 discriminator 3
 1883 0020 E260     		str	r2, [r4, #12]
 1884              		.loc 1 800 0 discriminator 3
 1885 0022 43F48263 		orr	r3, r3, #1040
 1886              		.loc 1 799 0 discriminator 3
 1887 0026 6160     		str	r1, [r4, #4]
 1888              		.loc 1 800 0 discriminator 3
 1889 0028 2360     		str	r3, [r4]
 1890              		.loc 1 804 0 discriminator 3
 1891 002a 2368     		ldr	r3, [r4]
 1892 002c 43F00103 		orr	r3, r3, #1
 1893 0030 2360     		str	r3, [r4]
 1894              		.loc 1 805 0 discriminator 3
 1895 0032 70BC     		pop	{r4, r5, r6}
 1896              		.cfi_restore 6
 1897              		.cfi_restore 5
 1898              		.cfi_restore 4
 1899              		.cfi_def_cfa_offset 0
 1900 0034 7047     		bx	lr
 1901              		.cfi_endproc
 1902              	.LFE276:
 1903              		.size	uart_lld_start_receive, .-uart_lld_start_receive
 1904 0036 00BF     		.section	.text.uart_lld_stop_receive,"ax",%progbits
 1905              		.align	2
 1906              		.p2align 4,,15
 1907              		.global	uart_lld_stop_receive
 1908              		.thumb
 1909              		.thumb_func
 1910              		.type	uart_lld_stop_receive, %function
 1911              	uart_lld_stop_receive:
 1912              	.LFB277:
 1913              		.loc 1 818 0
 1914              		.cfi_startproc
 1915              		@ args = 0, pretend = 0, frame = 0
 1916              		@ frame_needed = 0, uses_anonymous_args = 0
 1917              		@ link register save eliminated.
 1918              	.LVL187:
 1919 0000 0146     		mov	r1, r0
 1920              		.loc 1 821 0
 1921 0002 0069     		ldr	r0, [r0, #16]
 1922              	.LVL188:
 1923 0004 0268     		ldr	r2, [r0]
 1924 0006 1368     		ldr	r3, [r2]
 1925 0008 23F01F03 		bic	r3, r3, #31
 1926 000c 1360     		str	r3, [r2]
 1927              	.L248:
 1928              		.loc 1 821 0 is_stmt 0 discriminator 2
 1929 000e 1368     		ldr	r3, [r2]
 1930 0010 DB07     		lsls	r3, r3, #31
 1931 0012 FCD4     		bmi	.L248
 1932              		.loc 1 818 0 is_stmt 1 discriminator 3
 1933 0014 30B4     		push	{r4, r5}
 1934              		.cfi_def_cfa_offset 8
 1935              		.cfi_offset 4, -8
 1936              		.cfi_offset 5, -4
 1937              	.LBB81:
 1938              	.LBB82:
ARM GAS  /tmp/cc9LI0Qt.s 			page 35


 1939              		.loc 1 164 0 discriminator 3
 1940 0016 4B68     		ldr	r3, [r1, #4]
 1941              	.LBE82:
 1942              	.LBE81:
 1943              		.loc 1 821 0 discriminator 3
 1944 0018 057A     		ldrb	r5, [r0, #8]	@ zero_extendqisi2
 1945              	.LBB86:
 1946              	.LBB83:
 1947              		.loc 1 164 0 discriminator 3
 1948 001a DC68     		ldr	r4, [r3, #12]
 1949              	.LBE83:
 1950              	.LBE86:
 1951              		.loc 1 821 0 discriminator 3
 1952 001c 4068     		ldr	r0, [r0, #4]
 1953 001e 3D23     		movs	r3, #61
 1954 0020 AB40     		lsls	r3, r3, r5
 1955 0022 0360     		str	r3, [r0]
 1956              	.LBB87:
 1957              	.LBB84:
 1958              		.loc 1 170 0 discriminator 3
 1959 0024 CB68     		ldr	r3, [r1, #12]
 1960              	.LBE84:
 1961              	.LBE87:
 1962              		.loc 1 822 0 discriminator 3
 1963 0026 5068     		ldr	r0, [r2, #4]
 1964              	.LVL189:
 1965              	.LBB88:
 1966              	.LBB85:
 1967              		.loc 1 167 0 discriminator 3
 1968 0028 002C     		cmp	r4, #0
 1969 002a 0CBF     		ite	eq
 1970 002c 4FF48074 		moveq	r4, #256
 1971 0030 4FF48874 		movne	r4, #272
 1972              	.LVL190:
 1973              		.loc 1 170 0 discriminator 3
 1974 0034 2343     		orrs	r3, r3, r4
 1975              		.loc 1 168 0 discriminator 3
 1976 0036 1831     		adds	r1, r1, #24
 1977              	.LVL191:
 1978              		.loc 1 169 0 discriminator 3
 1979 0038 0124     		movs	r4, #1
 1980              	.LVL192:
 1981              		.loc 1 168 0 discriminator 3
 1982 003a D160     		str	r1, [r2, #12]
 1983              		.loc 1 169 0 discriminator 3
 1984 003c 5460     		str	r4, [r2, #4]
 1985              		.loc 1 170 0 discriminator 3
 1986 003e 1360     		str	r3, [r2]
 1987              		.loc 1 171 0 discriminator 3
 1988 0040 1368     		ldr	r3, [r2]
 1989 0042 2343     		orrs	r3, r3, r4
 1990 0044 1360     		str	r3, [r2]
 1991              	.LVL193:
 1992              	.LBE85:
 1993              	.LBE88:
 1994              		.loc 1 826 0 discriminator 3
 1995 0046 30BC     		pop	{r4, r5}
ARM GAS  /tmp/cc9LI0Qt.s 			page 36


 1996              		.cfi_restore 5
 1997              		.cfi_restore 4
 1998              		.cfi_def_cfa_offset 0
 1999 0048 7047     		bx	lr
 2000              		.cfi_endproc
 2001              	.LFE277:
 2002              		.size	uart_lld_stop_receive, .-uart_lld_stop_receive
 2003              		.global	UARTD6
 2004              		.global	UARTD5
 2005              		.global	UARTD4
 2006              		.global	UARTD3
 2007              		.global	UARTD2
 2008              		.global	UARTD1
 2009 004a 00BF     		.section	.rodata.__func__.7172,"a",%progbits
 2010              		.align	2
 2011              		.set	.LANCHOR6,. + 0
 2012              		.type	__func__.7172, %object
 2013              		.size	__func__.7172, 15
 2014              	__func__.7172:
 2015 0000 75617274 		.ascii	"uart_lld_start\000"
 2015      5F6C6C64 
 2015      5F737461 
 2015      727400
 2016              		.section	.bss.UARTD1,"aw",%nobits
 2017              		.align	2
 2018              		.set	.LANCHOR0,. + 0
 2019              		.type	UARTD1, %object
 2020              		.size	UARTD1, 28
 2021              	UARTD1:
 2022 0000 00000000 		.space	28
 2022      00000000 
 2022      00000000 
 2022      00000000 
 2022      00000000 
 2023              		.section	.rodata.str1.4,"aMS",%progbits,1
 2024              		.align	2
 2025              	.LC0:
 2026 0000 444D4120 		.ascii	"DMA failure\000"
 2026      6661696C 
 2026      75726500 
 2027              		.section	.bss.UARTD3,"aw",%nobits
 2028              		.align	2
 2029              		.set	.LANCHOR2,. + 0
 2030              		.type	UARTD3, %object
 2031              		.size	UARTD3, 28
 2032              	UARTD3:
 2033 0000 00000000 		.space	28
 2033      00000000 
 2033      00000000 
 2033      00000000 
 2033      00000000 
 2034              		.section	.bss.UARTD4,"aw",%nobits
 2035              		.align	2
 2036              		.set	.LANCHOR3,. + 0
 2037              		.type	UARTD4, %object
 2038              		.size	UARTD4, 28
 2039              	UARTD4:
ARM GAS  /tmp/cc9LI0Qt.s 			page 37


 2040 0000 00000000 		.space	28
 2040      00000000 
 2040      00000000 
 2040      00000000 
 2040      00000000 
 2041              		.section	.bss.UARTD5,"aw",%nobits
 2042              		.align	2
 2043              		.set	.LANCHOR4,. + 0
 2044              		.type	UARTD5, %object
 2045              		.size	UARTD5, 28
 2046              	UARTD5:
 2047 0000 00000000 		.space	28
 2047      00000000 
 2047      00000000 
 2047      00000000 
 2047      00000000 
 2048              		.section	.bss.UARTD6,"aw",%nobits
 2049              		.align	2
 2050              		.set	.LANCHOR5,. + 0
 2051              		.type	UARTD6, %object
 2052              		.size	UARTD6, 28
 2053              	UARTD6:
 2054 0000 00000000 		.space	28
 2054      00000000 
 2054      00000000 
 2054      00000000 
 2054      00000000 
 2055              		.section	.bss.UARTD2,"aw",%nobits
 2056              		.align	2
 2057              		.set	.LANCHOR1,. + 0
 2058              		.type	UARTD2, %object
 2059              		.size	UARTD2, 28
 2060              	UARTD2:
 2061 0000 00000000 		.space	28
 2061      00000000 
 2061      00000000 
 2061      00000000 
 2061      00000000 
 2062              		.text
 2063              	.Letext0:
 2064              		.file 3 "/usr/lib/gcc/arm-none-eabi/5.3.1/include/stddef.h"
 2065              		.file 4 "/usr/arm-none-eabi/include/machine/_default_types.h"
 2066              		.file 5 "/usr/arm-none-eabi/include/sys/_stdint.h"
 2067              		.file 6 "/home/selim/working/ChibiOS/os/rt/ports/ARMCMx/compilers/GCC/chtypes.h"
 2068              		.file 7 "/home/selim/working/ChibiOS/os/rt/include/chsystypes.h"
 2069              		.file 8 "/home/selim/working/ChibiOS/os/rt/include/chschd.h"
 2070              		.file 9 "/home/selim/working/ChibiOS/os/ext/CMSIS/ST/stm32f407xx.h"
 2071              		.file 10 "/home/selim/working/ChibiOS/os/rt/ports/ARMCMx/chcore.h"
 2072              		.file 11 "/home/selim/working/ChibiOS/os/rt/ports/ARMCMx/chcore_v7m.h"
 2073              		.file 12 "/home/selim/working/ChibiOS/os/rt/include/chdebug.h"
 2074              		.file 13 "/home/selim/working/ChibiOS/os/rt/include/chtm.h"
 2075              		.file 14 "/home/selim/working/ChibiOS/os/rt/include/chstats.h"
 2076              		.file 15 "/home/selim/working/ChibiOS/os/rt/include/chsem.h"
 2077              		.file 16 "/home/selim/working/ChibiOS/os/rt/include/chmtx.h"
 2078              		.file 17 "/home/selim/working/ChibiOS/os/hal/ports/STM32/STM32F4xx/stm32_dma.h"
 2079              		.file 18 "/home/selim/working/ChibiOS/os/hal/include/uart.h"
 2080              		.file 19 "/home/selim/working/ChibiOS/os/hal/ports/STM32/LLD/USARTv1/uart_lld.h"
ARM GAS  /tmp/cc9LI0Qt.s 			page 38


 2081              		.file 20 "/home/selim/working/ChibiOS/os/ext/CMSIS/include/core_cm4.h"
 2082              		.file 21 "/home/selim/working/ChibiOS/os/rt/include/chsys.h"
 2083              		.file 22 "/home/selim/working/ChibiOS/os/hal/ports/common/ARMCMx/nvic.h"