ARM GAS  /tmp/ccqtJEVF.s 			page 1


   1              		.syntax unified
   2              		.cpu cortex-m4
   3              		.fpu softvfp
   4              		.eabi_attribute 20, 1
   5              		.eabi_attribute 21, 1
   6              		.eabi_attribute 23, 3
   7              		.eabi_attribute 24, 1
   8              		.eabi_attribute 25, 1
   9              		.eabi_attribute 26, 1
  10              		.eabi_attribute 30, 2
  11              		.eabi_attribute 34, 1
  12              		.eabi_attribute 18, 4
  13              		.thumb
  14              		.syntax unified
  15              		.file	"hal_lld.c"
  16              		.text
  17              	.Ltext0:
  18              		.cfi_sections	.debug_frame
  19              		.section	.text.hal_lld_init,"ax",%progbits
  20              		.align	2
  21              		.p2align 4,,15
  22              		.global	hal_lld_init
  23              		.thumb
  24              		.thumb_func
  25              		.type	hal_lld_init, %function
  26              	hal_lld_init:
  27              	.LFB259:
  28              		.file 1 "/home/selim/working/ChibiOS/os/hal/ports/STM32/STM32F4xx/hal_lld.c"
  29              		.loc 1 114 0
  30              		.cfi_startproc
  31              		@ args = 0, pretend = 0, frame = 0
  32              		@ frame_needed = 0, uses_anonymous_args = 0
  33              		@ link register save eliminated.
  34              		.loc 1 118 0
  35 0000 164B     		ldr	r3, .L8
  36 0002 4FF0FF31 		mov	r1, #-1
  37 0006 1A69     		ldr	r2, [r3, #16]
  38 0008 0022     		movs	r2, #0
  39              		.loc 1 114 0
  40 000a 10B4     		push	{r4}
  41              		.cfi_def_cfa_offset 4
  42              		.cfi_offset 4, -4
  43              		.loc 1 118 0
  44 000c 1961     		str	r1, [r3, #16]
  45 000e 1A61     		str	r2, [r3, #16]
  46              		.loc 1 119 0
  47 0010 5869     		ldr	r0, [r3, #20]
  48 0012 5961     		str	r1, [r3, #20]
  49 0014 5A61     		str	r2, [r3, #20]
  50              		.loc 1 120 0
  51 0016 186A     		ldr	r0, [r3, #32]
  52              	.LBB4:
  53              	.LBB5:
  54              		.loc 1 57 0
  55 0018 114C     		ldr	r4, .L8+4
  56              	.LBE5:
  57              	.LBE4:
ARM GAS  /tmp/ccqtJEVF.s 			page 2


  58              		.loc 1 120 0
  59 001a 60F08050 		orn	r0, r0, #268435456
  60 001e 1862     		str	r0, [r3, #32]
  61 0020 1A62     		str	r2, [r3, #32]
  62              		.loc 1 121 0
  63 0022 586A     		ldr	r0, [r3, #36]
  64 0024 5962     		str	r1, [r3, #36]
  65 0026 5A62     		str	r2, [r3, #36]
  66              		.loc 1 124 0
  67 0028 196C     		ldr	r1, [r3, #64]
  68 002a 41F08051 		orr	r1, r1, #268435456
  69 002e 1964     		str	r1, [r3, #64]
  70              	.LBB8:
  71              	.LBB6:
  72              		.loc 1 57 0
  73 0030 2168     		ldr	r1, [r4]
  74 0032 41F48071 		orr	r1, r1, #256
  75 0036 2160     		str	r1, [r4]
  76              		.loc 1 60 0
  77 0038 196F     		ldr	r1, [r3, #112]
  78 003a 01F44071 		and	r1, r1, #768
  79 003e B1F5007F 		cmp	r1, #512
  80 0042 03D0     		beq	.L2
  81              		.loc 1 62 0
  82 0044 4FF48031 		mov	r1, #65536
  83 0048 1967     		str	r1, [r3, #112]
  84              		.loc 1 63 0
  85 004a 1A67     		str	r2, [r3, #112]
  86              	.L2:
  87              		.loc 1 97 0
  88 004c 044A     		ldr	r2, .L8+4
  89              	.LBE6:
  90              	.LBE8:
  91              		.loc 1 137 0
  92 004e 10BC     		pop	{r4}
  93              		.cfi_restore 4
  94              		.cfi_def_cfa_offset 0
  95              	.LBB9:
  96              	.LBB7:
  97              		.loc 1 97 0
  98 0050 5368     		ldr	r3, [r2, #4]
  99 0052 23F40073 		bic	r3, r3, #512
 100 0056 5360     		str	r3, [r2, #4]
 101              	.LBE7:
 102              	.LBE9:
 103              		.loc 1 130 0
 104 0058 FFF7FEBF 		b	dmaInit
 105              	.LVL0:
 106              	.L9:
 107              		.align	2
 108              	.L8:
 109 005c 00380240 		.word	1073887232
 110 0060 00700040 		.word	1073770496
 111              		.cfi_endproc
 112              	.LFE259:
 113              		.size	hal_lld_init, .-hal_lld_init
 114              		.section	.text.stm32_clock_init,"ax",%progbits
ARM GAS  /tmp/ccqtJEVF.s 			page 3


 115              		.align	2
 116              		.p2align 4,,15
 117              		.global	stm32_clock_init
 118              		.thumb
 119              		.thumb_func
 120              		.type	stm32_clock_init, %function
 121              	stm32_clock_init:
 122              	.LFB260:
 123              		.loc 1 146 0
 124              		.cfi_startproc
 125              		@ args = 0, pretend = 0, frame = 0
 126              		@ frame_needed = 0, uses_anonymous_args = 0
 127              		@ link register save eliminated.
 128              		.loc 1 150 0
 129 0000 2C49     		ldr	r1, .L31
 130              		.loc 1 154 0
 131 0002 2D4B     		ldr	r3, .L31+4
 132              		.loc 1 150 0
 133 0004 4FF08050 		mov	r0, #268435456
 134              		.loc 1 154 0
 135 0008 4FF44042 		mov	r2, #49152
 136              		.loc 1 150 0
 137 000c 0864     		str	r0, [r1, #64]
 138              		.loc 1 154 0
 139 000e 1A60     		str	r2, [r3]
 140              		.loc 1 161 0
 141 0010 0B68     		ldr	r3, [r1]
 142 0012 43F00103 		orr	r3, r3, #1
 143 0016 0B60     		str	r3, [r1]
 144              	.L11:
 145              		.loc 1 162 0 discriminator 1
 146 0018 0A68     		ldr	r2, [r1]
 147 001a 264B     		ldr	r3, .L31
 148 001c 9007     		lsls	r0, r2, #30
 149 001e FBD5     		bpl	.L11
 150              		.loc 1 168 0
 151 0020 9A68     		ldr	r2, [r3, #8]
 152 0022 22F00302 		bic	r2, r2, #3
 153 0026 9A60     		str	r2, [r3, #8]
 154              		.loc 1 169 0
 155 0028 9A68     		ldr	r2, [r3, #8]
 156 002a 9A60     		str	r2, [r3, #8]
 157              		.loc 1 170 0
 158 002c 1946     		mov	r1, r3
 159              	.L12:
 160              		.loc 1 170 0 is_stmt 0 discriminator 1
 161 002e 8B68     		ldr	r3, [r1, #8]
 162 0030 204A     		ldr	r2, .L31
 163 0032 13F00C03 		ands	r3, r3, #12
 164 0036 FAD1     		bne	.L12
 165              		.loc 1 174 0 is_stmt 1
 166 0038 1168     		ldr	r1, [r2]
 167 003a 01F0F901 		and	r1, r1, #249
 168 003e 1160     		str	r1, [r2]
 169              		.loc 1 175 0
 170 0040 9360     		str	r3, [r2, #8]
 171              		.loc 1 184 0
ARM GAS  /tmp/ccqtJEVF.s 			page 4


 172 0042 1368     		ldr	r3, [r2]
 173 0044 43F48033 		orr	r3, r3, #65536
 174 0048 1360     		str	r3, [r2]
 175              	.L13:
 176              		.loc 1 186 0 discriminator 1
 177 004a 1168     		ldr	r1, [r2]
 178 004c 194B     		ldr	r3, .L31
 179 004e 8903     		lsls	r1, r1, #14
 180 0050 FBD5     		bpl	.L13
 181              		.loc 1 192 0
 182 0052 5A6F     		ldr	r2, [r3, #116]
 183 0054 42F00102 		orr	r2, r2, #1
 184 0058 5A67     		str	r2, [r3, #116]
 185              	.L14:
 186              		.loc 1 193 0 discriminator 1
 187 005a 5A6F     		ldr	r2, [r3, #116]
 188 005c 1549     		ldr	r1, .L31
 189 005e 9007     		lsls	r0, r2, #30
 190 0060 FBD5     		bpl	.L14
 191              		.loc 1 199 0
 192 0062 164B     		ldr	r3, .L31+8
 193 0064 4B60     		str	r3, [r1, #4]
 194              		.loc 1 201 0
 195 0066 0B68     		ldr	r3, [r1]
 196              		.loc 1 205 0
 197 0068 134A     		ldr	r2, .L31+4
 198              		.loc 1 201 0
 199 006a 43F08073 		orr	r3, r3, #16777216
 200 006e 0B60     		str	r3, [r1]
 201              	.L15:
 202              		.loc 1 205 0 discriminator 1
 203 0070 5368     		ldr	r3, [r2, #4]
 204 0072 5904     		lsls	r1, r3, #17
 205 0074 FCD5     		bpl	.L15
 206              		.loc 1 221 0 discriminator 1
 207 0076 0F49     		ldr	r1, .L31
 208              	.L25:
 209 0078 0A68     		ldr	r2, [r1]
 210 007a 0E4B     		ldr	r3, .L31
 211 007c 9201     		lsls	r2, r2, #6
 212 007e FBD5     		bpl	.L25
 213              		.loc 1 249 0
 214 0080 0F4A     		ldr	r2, .L31+12
 215              		.loc 1 236 0
 216 0082 1049     		ldr	r1, .L31+16
 217 0084 9960     		str	r1, [r3, #8]
 218              		.loc 1 249 0
 219 0086 40F20571 		movw	r1, #1797
 220 008a 1160     		str	r1, [r2]
 221              		.loc 1 255 0
 222 008c 9A68     		ldr	r2, [r3, #8]
 223 008e 42F00202 		orr	r2, r2, #2
 224 0092 9A60     		str	r2, [r3, #8]
 225              		.loc 1 256 0
 226 0094 1A46     		mov	r2, r3
 227              	.L17:
 228              		.loc 1 256 0 is_stmt 0 discriminator 1
ARM GAS  /tmp/ccqtJEVF.s 			page 5


 229 0096 9368     		ldr	r3, [r2, #8]
 230 0098 0649     		ldr	r1, .L31
 231 009a 03F00C03 		and	r3, r3, #12
 232 009e 082B     		cmp	r3, #8
 233 00a0 F9D1     		bne	.L17
 234              		.loc 1 263 0 is_stmt 1
 235 00a2 4B6C     		ldr	r3, [r1, #68]
 236 00a4 43F48043 		orr	r3, r3, #16384
 237 00a8 4B64     		str	r3, [r1, #68]
 238 00aa 4B6E     		ldr	r3, [r1, #100]
 239 00ac 43F48043 		orr	r3, r3, #16384
 240 00b0 4B66     		str	r3, [r1, #100]
 241 00b2 7047     		bx	lr
 242              	.L32:
 243              		.align	2
 244              	.L31:
 245 00b4 00380240 		.word	1073887232
 246 00b8 00700040 		.word	1073770496
 247 00bc 08544007 		.word	121656328
 248 00c0 003C0240 		.word	1073888256
 249 00c4 00940838 		.word	940086272
 250              		.cfi_endproc
 251              	.LFE260:
 252              		.size	stm32_clock_init, .-stm32_clock_init
 253              		.global	SystemCoreClock
 254              		.section	.data.SystemCoreClock,"aw",%progbits
 255              		.align	2
 256              		.type	SystemCoreClock, %object
 257              		.size	SystemCoreClock, 4
 258              	SystemCoreClock:
 259 0000 007A030A 		.word	168000000
 260              		.text
 261              	.Letext0:
 262              		.file 2 "/usr/lib/gcc/arm-none-eabi/5.3.1/include/stddef.h"
 263              		.file 3 "/usr/arm-none-eabi/include/machine/_default_types.h"
 264              		.file 4 "/usr/arm-none-eabi/include/sys/_stdint.h"
 265              		.file 5 "/home/selim/working/ChibiOS/os/rt/ports/ARMCMx/compilers/GCC/chtypes.h"
 266              		.file 6 "/home/selim/working/ChibiOS/os/rt/include/chsystypes.h"
 267              		.file 7 "/home/selim/working/ChibiOS/os/rt/include/chschd.h"
 268              		.file 8 "/home/selim/working/ChibiOS/os/ext/CMSIS/ST/stm32f407xx.h"
 269              		.file 9 "/home/selim/working/ChibiOS/os/rt/ports/ARMCMx/chcore.h"
 270              		.file 10 "/home/selim/working/ChibiOS/os/rt/ports/ARMCMx/chcore_v7m.h"
 271              		.file 11 "/home/selim/working/ChibiOS/os/rt/include/chtm.h"
 272              		.file 12 "/home/selim/working/ChibiOS/os/rt/include/chsem.h"
 273              		.file 13 "/home/selim/working/ChibiOS/os/rt/include/chmtx.h"
 274              		.file 14 "/home/selim/working/ChibiOS/os/ext/CMSIS/include/core_cm4.h"
 275              		.file 15 "/home/selim/working/ChibiOS/os/hal/ports/STM32/STM32F4xx/stm32_dma.h"
 276              		.section	.debug_info,"",%progbits
 277              	.Ldebug_info0:
 278 0000 F6080000 		.4byte	0x8f6
 279 0004 0400     		.2byte	0x4
 280 0006 00000000 		.4byte	.Ldebug_abbrev0
 281 000a 04       		.byte	0x4
 282 000b 01       		.uleb128 0x1
 283 000c 5C040000 		.4byte	.LASF140
 284 0010 0C       		.byte	0xc
 285 0011 9E010000 		.4byte	.LASF141
ARM GAS  /tmp/ccqtJEVF.s 			page 6


 286 0015 20000000 		.4byte	.Ldebug_ranges0+0x20
 287 0019 00000000 		.4byte	0
 288 001d 00000000 		.4byte	.Ldebug_line0
 289 0021 02       		.uleb128 0x2
 290 0022 04       		.byte	0x4
 291 0023 05       		.byte	0x5
 292 0024 696E7400 		.ascii	"int\000"
 293 0028 03       		.uleb128 0x3
 294 0029 0D000000 		.4byte	.LASF4
 295 002d 02       		.byte	0x2
 296 002e D8       		.byte	0xd8
 297 002f 33000000 		.4byte	0x33
 298 0033 04       		.uleb128 0x4
 299 0034 04       		.byte	0x4
 300 0035 07       		.byte	0x7
 301 0036 FE010000 		.4byte	.LASF0
 302 003a 04       		.uleb128 0x4
 303 003b 08       		.byte	0x8
 304 003c 05       		.byte	0x5
 305 003d DF000000 		.4byte	.LASF1
 306 0041 04       		.uleb128 0x4
 307 0042 08       		.byte	0x8
 308 0043 04       		.byte	0x4
 309 0044 42030000 		.4byte	.LASF2
 310 0048 04       		.uleb128 0x4
 311 0049 01       		.byte	0x1
 312 004a 06       		.byte	0x6
 313 004b ED000000 		.4byte	.LASF3
 314 004f 03       		.uleb128 0x3
 315 0050 24000000 		.4byte	.LASF5
 316 0054 03       		.byte	0x3
 317 0055 1D       		.byte	0x1d
 318 0056 5A000000 		.4byte	0x5a
 319 005a 04       		.uleb128 0x4
 320 005b 01       		.byte	0x1
 321 005c 08       		.byte	0x8
 322 005d 21040000 		.4byte	.LASF6
 323 0061 04       		.uleb128 0x4
 324 0062 02       		.byte	0x2
 325 0063 05       		.byte	0x5
 326 0064 39040000 		.4byte	.LASF7
 327 0068 04       		.uleb128 0x4
 328 0069 02       		.byte	0x2
 329 006a 07       		.byte	0x7
 330 006b 47020000 		.4byte	.LASF8
 331 006f 03       		.uleb128 0x3
 332 0070 D1020000 		.4byte	.LASF9
 333 0074 03       		.byte	0x3
 334 0075 3F       		.byte	0x3f
 335 0076 7A000000 		.4byte	0x7a
 336 007a 04       		.uleb128 0x4
 337 007b 04       		.byte	0x4
 338 007c 05       		.byte	0x5
 339 007d 43010000 		.4byte	.LASF10
 340 0081 03       		.uleb128 0x3
 341 0082 07060000 		.4byte	.LASF11
 342 0086 03       		.byte	0x3
ARM GAS  /tmp/ccqtJEVF.s 			page 7


 343 0087 41       		.byte	0x41
 344 0088 8C000000 		.4byte	0x8c
 345 008c 04       		.uleb128 0x4
 346 008d 04       		.byte	0x4
 347 008e 07       		.byte	0x7
 348 008f B9050000 		.4byte	.LASF12
 349 0093 03       		.uleb128 0x3
 350 0094 A5030000 		.4byte	.LASF13
 351 0098 03       		.byte	0x3
 352 0099 5B       		.byte	0x5b
 353 009a 9E000000 		.4byte	0x9e
 354 009e 04       		.uleb128 0x4
 355 009f 08       		.byte	0x8
 356 00a0 07       		.byte	0x7
 357 00a1 56000000 		.4byte	.LASF14
 358 00a5 03       		.uleb128 0x3
 359 00a6 90060000 		.4byte	.LASF15
 360 00aa 04       		.byte	0x4
 361 00ab 14       		.byte	0x14
 362 00ac 4F000000 		.4byte	0x4f
 363 00b0 03       		.uleb128 0x3
 364 00b1 19040000 		.4byte	.LASF16
 365 00b5 04       		.byte	0x4
 366 00b6 1F       		.byte	0x1f
 367 00b7 6F000000 		.4byte	0x6f
 368 00bb 03       		.uleb128 0x3
 369 00bc 80050000 		.4byte	.LASF17
 370 00c0 04       		.byte	0x4
 371 00c1 20       		.byte	0x20
 372 00c2 81000000 		.4byte	0x81
 373 00c6 03       		.uleb128 0x3
 374 00c7 1B000000 		.4byte	.LASF18
 375 00cb 04       		.byte	0x4
 376 00cc 26       		.byte	0x26
 377 00cd 93000000 		.4byte	0x93
 378 00d1 05       		.uleb128 0x5
 379 00d2 B0000000 		.4byte	0xb0
 380 00d6 05       		.uleb128 0x5
 381 00d7 BB000000 		.4byte	0xbb
 382 00db 03       		.uleb128 0x3
 383 00dc 50060000 		.4byte	.LASF19
 384 00e0 05       		.byte	0x5
 385 00e1 46       		.byte	0x46
 386 00e2 BB000000 		.4byte	0xbb
 387 00e6 03       		.uleb128 0x3
 388 00e7 A5020000 		.4byte	.LASF20
 389 00eb 05       		.byte	0x5
 390 00ec 49       		.byte	0x49
 391 00ed A5000000 		.4byte	0xa5
 392 00f1 03       		.uleb128 0x3
 393 00f2 5F010000 		.4byte	.LASF21
 394 00f6 05       		.byte	0x5
 395 00f7 4A       		.byte	0x4a
 396 00f8 A5000000 		.4byte	0xa5
 397 00fc 03       		.uleb128 0x3
 398 00fd B0030000 		.4byte	.LASF22
 399 0101 05       		.byte	0x5
ARM GAS  /tmp/ccqtJEVF.s 			page 8


 400 0102 4B       		.byte	0x4b
 401 0103 A5000000 		.4byte	0xa5
 402 0107 03       		.uleb128 0x3
 403 0108 FB030000 		.4byte	.LASF23
 404 010c 05       		.byte	0x5
 405 010d 4D       		.byte	0x4d
 406 010e BB000000 		.4byte	0xbb
 407 0112 03       		.uleb128 0x3
 408 0113 6F020000 		.4byte	.LASF24
 409 0117 05       		.byte	0x5
 410 0118 4E       		.byte	0x4e
 411 0119 B0000000 		.4byte	0xb0
 412 011d 03       		.uleb128 0x3
 413 011e C5020000 		.4byte	.LASF25
 414 0122 05       		.byte	0x5
 415 0123 50       		.byte	0x50
 416 0124 BB000000 		.4byte	0xbb
 417 0128 03       		.uleb128 0x3
 418 0129 F8010000 		.4byte	.LASF26
 419 012d 05       		.byte	0x5
 420 012e 52       		.byte	0x52
 421 012f B0000000 		.4byte	0xb0
 422 0133 03       		.uleb128 0x3
 423 0134 E9050000 		.4byte	.LASF27
 424 0138 06       		.byte	0x6
 425 0139 33       		.byte	0x33
 426 013a BB000000 		.4byte	0xbb
 427 013e 03       		.uleb128 0x3
 428 013f D9050000 		.4byte	.LASF28
 429 0143 06       		.byte	0x6
 430 0144 3F       		.byte	0x3f
 431 0145 49010000 		.4byte	0x149
 432 0149 06       		.uleb128 0x6
 433 014a 5A020000 		.4byte	.LASF48
 434 014e 44       		.byte	0x44
 435 014f 07       		.byte	0x7
 436 0150 C2       		.byte	0xc2
 437 0151 36020000 		.4byte	0x236
 438 0155 07       		.uleb128 0x7
 439 0156 4E030000 		.4byte	.LASF29
 440 015a 07       		.byte	0x7
 441 015b C3       		.byte	0xc3
 442 015c 41020000 		.4byte	0x241
 443 0160 00       		.byte	0
 444 0161 07       		.uleb128 0x7
 445 0162 EA030000 		.4byte	.LASF30
 446 0166 07       		.byte	0x7
 447 0167 C5       		.byte	0xc5
 448 0168 41020000 		.4byte	0x241
 449 016c 04       		.byte	0x4
 450 016d 07       		.uleb128 0x7
 451 016e C7000000 		.4byte	.LASF31
 452 0172 07       		.byte	0x7
 453 0173 C7       		.byte	0xc7
 454 0174 07010000 		.4byte	0x107
 455 0178 08       		.byte	0x8
 456 0179 07       		.uleb128 0x7
ARM GAS  /tmp/ccqtJEVF.s 			page 9


 457 017a C1060000 		.4byte	.LASF32
 458 017e 07       		.byte	0x7
 459 017f C8       		.byte	0xc8
 460 0180 BA060000 		.4byte	0x6ba
 461 0184 0C       		.byte	0xc
 462 0185 07       		.uleb128 0x7
 463 0186 70010000 		.4byte	.LASF33
 464 018a 07       		.byte	0x7
 465 018b CA       		.byte	0xca
 466 018c 41020000 		.4byte	0x241
 467 0190 10       		.byte	0x10
 468 0191 07       		.uleb128 0x7
 469 0192 69030000 		.4byte	.LASF34
 470 0196 07       		.byte	0x7
 471 0197 CB       		.byte	0xcb
 472 0198 41020000 		.4byte	0x241
 473 019c 14       		.byte	0x14
 474 019d 07       		.uleb128 0x7
 475 019e 9F060000 		.4byte	.LASF35
 476 01a2 07       		.byte	0x7
 477 01a3 D2       		.byte	0xd2
 478 01a4 39080000 		.4byte	0x839
 479 01a8 18       		.byte	0x18
 480 01a9 07       		.uleb128 0x7
 481 01aa 43040000 		.4byte	.LASF36
 482 01ae 07       		.byte	0x7
 483 01af DD       		.byte	0xdd
 484 01b0 F1000000 		.4byte	0xf1
 485 01b4 1C       		.byte	0x1c
 486 01b5 07       		.uleb128 0x7
 487 01b6 3D050000 		.4byte	.LASF37
 488 01ba 07       		.byte	0x7
 489 01bb E1       		.byte	0xe1
 490 01bc E6000000 		.4byte	0xe6
 491 01c0 1D       		.byte	0x1d
 492 01c1 07       		.uleb128 0x7
 493 01c2 7E060000 		.4byte	.LASF38
 494 01c6 07       		.byte	0x7
 495 01c7 E6       		.byte	0xe6
 496 01c8 FC000000 		.4byte	0xfc
 497 01cc 1E       		.byte	0x1e
 498 01cd 08       		.uleb128 0x8
 499 01ce 705F7500 		.ascii	"p_u\000"
 500 01d2 07       		.byte	0x7
 501 01d3 3101     		.2byte	0x131
 502 01d5 74070000 		.4byte	0x774
 503 01d9 20       		.byte	0x20
 504 01da 09       		.uleb128 0x9
 505 01db 05030000 		.4byte	.LASF39
 506 01df 07       		.byte	0x7
 507 01e0 3601     		.2byte	0x136
 508 01e2 47020000 		.4byte	0x247
 509 01e6 24       		.byte	0x24
 510 01e7 09       		.uleb128 0x9
 511 01e8 2A020000 		.4byte	.LASF40
 512 01ec 07       		.byte	0x7
 513 01ed 3C01     		.2byte	0x13c
ARM GAS  /tmp/ccqtJEVF.s 			page 10


 514 01ef 6B020000 		.4byte	0x26b
 515 01f3 28       		.byte	0x28
 516 01f4 09       		.uleb128 0x9
 517 01f5 B3060000 		.4byte	.LASF41
 518 01f9 07       		.byte	0x7
 519 01fa 4001     		.2byte	0x140
 520 01fc 12010000 		.4byte	0x112
 521 0200 30       		.byte	0x30
 522 0201 09       		.uleb128 0x9
 523 0202 6B050000 		.4byte	.LASF42
 524 0206 07       		.byte	0x7
 525 0207 4601     		.2byte	0x146
 526 0209 1D010000 		.4byte	0x11d
 527 020d 34       		.byte	0x34
 528 020e 09       		.uleb128 0x9
 529 020f 2F040000 		.4byte	.LASF43
 530 0213 07       		.byte	0x7
 531 0214 4D01     		.2byte	0x14d
 532 0216 33080000 		.4byte	0x833
 533 021a 38       		.byte	0x38
 534 021b 09       		.uleb128 0x9
 535 021c F3050000 		.4byte	.LASF44
 536 0220 07       		.byte	0x7
 537 0221 5101     		.2byte	0x151
 538 0223 07010000 		.4byte	0x107
 539 0227 3C       		.byte	0x3c
 540 0228 09       		.uleb128 0x9
 541 0229 10010000 		.4byte	.LASF45
 542 022d 07       		.byte	0x7
 543 022e 5801     		.2byte	0x158
 544 0230 1E030000 		.4byte	0x31e
 545 0234 40       		.byte	0x40
 546 0235 00       		.byte	0
 547 0236 03       		.uleb128 0x3
 548 0237 18030000 		.4byte	.LASF46
 549 023b 06       		.byte	0x6
 550 023c 44       		.byte	0x44
 551 023d 41020000 		.4byte	0x241
 552 0241 0A       		.uleb128 0xa
 553 0242 04       		.byte	0x4
 554 0243 3E010000 		.4byte	0x13e
 555 0247 03       		.uleb128 0x3
 556 0248 E6020000 		.4byte	.LASF47
 557 024c 06       		.byte	0x6
 558 024d 49       		.byte	0x49
 559 024e 52020000 		.4byte	0x252
 560 0252 06       		.uleb128 0x6
 561 0253 A1050000 		.4byte	.LASF49
 562 0257 04       		.byte	0x4
 563 0258 07       		.byte	0x7
 564 0259 B0       		.byte	0xb0
 565 025a 6B020000 		.4byte	0x26b
 566 025e 07       		.uleb128 0x7
 567 025f 4E030000 		.4byte	.LASF29
 568 0263 07       		.byte	0x7
 569 0264 B1       		.byte	0xb1
 570 0265 41020000 		.4byte	0x241
ARM GAS  /tmp/ccqtJEVF.s 			page 11


 571 0269 00       		.byte	0
 572 026a 00       		.byte	0
 573 026b 03       		.uleb128 0x3
 574 026c 65060000 		.4byte	.LASF50
 575 0270 06       		.byte	0x6
 576 0271 50       		.byte	0x50
 577 0272 76020000 		.4byte	0x276
 578 0276 06       		.uleb128 0x6
 579 0277 AC000000 		.4byte	.LASF51
 580 027b 08       		.byte	0x8
 581 027c 07       		.byte	0x7
 582 027d B7       		.byte	0xb7
 583 027e 9B020000 		.4byte	0x29b
 584 0282 07       		.uleb128 0x7
 585 0283 4E030000 		.4byte	.LASF29
 586 0287 07       		.byte	0x7
 587 0288 B8       		.byte	0xb8
 588 0289 41020000 		.4byte	0x241
 589 028d 00       		.byte	0
 590 028e 07       		.uleb128 0x7
 591 028f EA030000 		.4byte	.LASF30
 592 0293 07       		.byte	0x7
 593 0294 B9       		.byte	0xb9
 594 0295 41020000 		.4byte	0x241
 595 0299 04       		.byte	0x4
 596 029a 00       		.byte	0
 597 029b 03       		.uleb128 0x3
 598 029c 00000000 		.4byte	.LASF52
 599 02a0 06       		.byte	0x6
 600 02a1 57       		.byte	0x57
 601 02a2 A6020000 		.4byte	0x2a6
 602 02a6 0B       		.uleb128 0xb
 603 02a7 B7020000 		.4byte	.LASF53
 604 02ab 1C       		.byte	0x1c
 605 02ac 07       		.byte	0x7
 606 02ad 9001     		.2byte	0x190
 607 02af 02030000 		.4byte	0x302
 608 02b3 09       		.uleb128 0x9
 609 02b4 90050000 		.4byte	.LASF54
 610 02b8 07       		.byte	0x7
 611 02b9 9101     		.2byte	0x191
 612 02bb 6B020000 		.4byte	0x26b
 613 02bf 00       		.byte	0
 614 02c0 09       		.uleb128 0x9
 615 02c1 55040000 		.4byte	.LASF55
 616 02c5 07       		.byte	0x7
 617 02c6 9201     		.2byte	0x192
 618 02c8 07010000 		.4byte	0x107
 619 02cc 08       		.byte	0x8
 620 02cd 09       		.uleb128 0x9
 621 02ce 71030000 		.4byte	.LASF56
 622 02d2 07       		.byte	0x7
 623 02d3 9401     		.2byte	0x194
 624 02d5 BA060000 		.4byte	0x6ba
 625 02d9 0C       		.byte	0xc
 626 02da 09       		.uleb128 0x9
 627 02db 80010000 		.4byte	.LASF57
ARM GAS  /tmp/ccqtJEVF.s 			page 12


 628 02df 07       		.byte	0x7
 629 02e0 9701     		.2byte	0x197
 630 02e2 41020000 		.4byte	0x241
 631 02e6 10       		.byte	0x10
 632 02e7 09       		.uleb128 0x9
 633 02e8 3B060000 		.4byte	.LASF58
 634 02ec 07       		.byte	0x7
 635 02ed 9801     		.2byte	0x198
 636 02ef 41020000 		.4byte	0x241
 637 02f3 14       		.byte	0x14
 638 02f4 09       		.uleb128 0x9
 639 02f5 92030000 		.4byte	.LASF59
 640 02f9 07       		.byte	0x7
 641 02fa 9B01     		.2byte	0x19b
 642 02fc 41020000 		.4byte	0x241
 643 0300 18       		.byte	0x18
 644 0301 00       		.byte	0
 645 0302 03       		.uleb128 0x3
 646 0303 FE050000 		.4byte	.LASF60
 647 0307 06       		.byte	0x6
 648 0308 5C       		.byte	0x5c
 649 0309 0D030000 		.4byte	0x30d
 650 030d 0A       		.uleb128 0xa
 651 030e 04       		.byte	0x4
 652 030f 13030000 		.4byte	0x313
 653 0313 0C       		.uleb128 0xc
 654 0314 1E030000 		.4byte	0x31e
 655 0318 0D       		.uleb128 0xd
 656 0319 1E030000 		.4byte	0x31e
 657 031d 00       		.byte	0
 658 031e 0E       		.uleb128 0xe
 659 031f 04       		.byte	0x4
 660 0320 03       		.uleb128 0x3
 661 0321 F5020000 		.4byte	.LASF61
 662 0325 06       		.byte	0x6
 663 0326 61       		.byte	0x61
 664 0327 2B030000 		.4byte	0x32b
 665 032b 0B       		.uleb128 0xb
 666 032c 4D050000 		.4byte	.LASF62
 667 0330 14       		.byte	0x14
 668 0331 07       		.byte	0x7
 669 0332 6B01     		.2byte	0x16b
 670 0334 7A030000 		.4byte	0x37a
 671 0338 09       		.uleb128 0x9
 672 0339 0B020000 		.4byte	.LASF63
 673 033d 07       		.byte	0x7
 674 033e 6C01     		.2byte	0x16c
 675 0340 4B080000 		.4byte	0x84b
 676 0344 00       		.byte	0
 677 0345 09       		.uleb128 0x9
 678 0346 91010000 		.4byte	.LASF64
 679 034a 07       		.byte	0x7
 680 034b 6D01     		.2byte	0x16d
 681 034d 4B080000 		.4byte	0x84b
 682 0351 04       		.byte	0x4
 683 0352 09       		.uleb128 0x9
 684 0353 98050000 		.4byte	.LASF65
ARM GAS  /tmp/ccqtJEVF.s 			page 13


 685 0357 07       		.byte	0x7
 686 0358 6E01     		.2byte	0x16e
 687 035a 33010000 		.4byte	0x133
 688 035e 08       		.byte	0x8
 689 035f 09       		.uleb128 0x9
 690 0360 C7060000 		.4byte	.LASF66
 691 0364 07       		.byte	0x7
 692 0365 6F01     		.2byte	0x16f
 693 0367 02030000 		.4byte	0x302
 694 036b 0C       		.byte	0xc
 695 036c 09       		.uleb128 0x9
 696 036d 58060000 		.4byte	.LASF67
 697 0371 07       		.byte	0x7
 698 0372 7101     		.2byte	0x171
 699 0374 1E030000 		.4byte	0x31e
 700 0378 10       		.byte	0x10
 701 0379 00       		.byte	0
 702 037a 03       		.uleb128 0x3
 703 037b 89000000 		.4byte	.LASF68
 704 037f 06       		.byte	0x6
 705 0380 66       		.byte	0x66
 706 0381 85030000 		.4byte	0x385
 707 0385 0B       		.uleb128 0xb
 708 0386 2B030000 		.4byte	.LASF69
 709 038a 10       		.byte	0x10
 710 038b 07       		.byte	0x7
 711 038c 7B01     		.2byte	0x17b
 712 038e C7030000 		.4byte	0x3c7
 713 0392 09       		.uleb128 0x9
 714 0393 0B020000 		.4byte	.LASF63
 715 0397 07       		.byte	0x7
 716 0398 7C01     		.2byte	0x17c
 717 039a 4B080000 		.4byte	0x84b
 718 039e 00       		.byte	0
 719 039f 09       		.uleb128 0x9
 720 03a0 91010000 		.4byte	.LASF64
 721 03a4 07       		.byte	0x7
 722 03a5 7E01     		.2byte	0x17e
 723 03a7 4B080000 		.4byte	0x84b
 724 03ab 04       		.byte	0x4
 725 03ac 09       		.uleb128 0x9
 726 03ad 98050000 		.4byte	.LASF65
 727 03b1 07       		.byte	0x7
 728 03b2 8001     		.2byte	0x180
 729 03b4 33010000 		.4byte	0x133
 730 03b8 08       		.byte	0x8
 731 03b9 09       		.uleb128 0x9
 732 03ba 5D030000 		.4byte	.LASF70
 733 03be 07       		.byte	0x7
 734 03bf 8801     		.2byte	0x188
 735 03c1 33010000 		.4byte	0x133
 736 03c5 0C       		.byte	0xc
 737 03c6 00       		.byte	0
 738 03c7 03       		.uleb128 0x3
 739 03c8 3A000000 		.4byte	.LASF71
 740 03cc 06       		.byte	0x6
 741 03cd 6B       		.byte	0x6b
ARM GAS  /tmp/ccqtJEVF.s 			page 14


 742 03ce D2030000 		.4byte	0x3d2
 743 03d2 0B       		.uleb128 0xb
 744 03d3 03040000 		.4byte	.LASF72
 745 03d7 04       		.byte	0x4
 746 03d8 07       		.byte	0x7
 747 03d9 A201     		.2byte	0x1a2
 748 03db ED030000 		.4byte	0x3ed
 749 03df 09       		.uleb128 0x9
 750 03e0 12060000 		.4byte	.LASF73
 751 03e4 07       		.byte	0x7
 752 03e5 AA01     		.2byte	0x1aa
 753 03e7 51080000 		.4byte	0x851
 754 03eb 00       		.byte	0
 755 03ec 00       		.byte	0
 756 03ed 03       		.uleb128 0x3
 757 03ee 99020000 		.4byte	.LASF74
 758 03f2 06       		.byte	0x6
 759 03f3 70       		.byte	0x70
 760 03f4 F8030000 		.4byte	0x3f8
 761 03f8 0F       		.uleb128 0xf
 762 03f9 39010000 		.4byte	.LASF75
 763 03fd 5001     		.2byte	0x150
 764 03ff 07       		.byte	0x7
 765 0400 C201     		.2byte	0x1c2
 766 0402 54040000 		.4byte	0x454
 767 0406 09       		.uleb128 0x9
 768 0407 8A060000 		.4byte	.LASF76
 769 040b 07       		.byte	0x7
 770 040c C601     		.2byte	0x1c6
 771 040e 9B020000 		.4byte	0x29b
 772 0412 00       		.byte	0
 773 0413 09       		.uleb128 0x9
 774 0414 20010000 		.4byte	.LASF77
 775 0418 07       		.byte	0x7
 776 0419 CA01     		.2byte	0x1ca
 777 041b 7A030000 		.4byte	0x37a
 778 041f 1C       		.byte	0x1c
 779 0420 08       		.uleb128 0x8
 780 0421 64626700 		.ascii	"dbg\000"
 781 0425 07       		.byte	0x7
 782 0426 CE01     		.2byte	0x1ce
 783 0428 C7030000 		.4byte	0x3c7
 784 042c 2C       		.byte	0x2c
 785 042d 09       		.uleb128 0x9
 786 042e 7E000000 		.4byte	.LASF78
 787 0432 07       		.byte	0x7
 788 0433 D201     		.2byte	0x1d2
 789 0435 3E010000 		.4byte	0x13e
 790 0439 30       		.byte	0x30
 791 043a 08       		.uleb128 0x8
 792 043b 746D00   		.ascii	"tm\000"
 793 043e 07       		.byte	0x7
 794 043f D701     		.2byte	0x1d7
 795 0441 69070000 		.4byte	0x769
 796 0445 74       		.byte	0x74
 797 0446 09       		.uleb128 0x9
 798 0447 E9010000 		.4byte	.LASF79
ARM GAS  /tmp/ccqtJEVF.s 			page 15


 799 044b 07       		.byte	0x7
 800 044c E301     		.2byte	0x1e3
 801 044e 56080000 		.4byte	0x856
 802 0452 78       		.byte	0x78
 803 0453 00       		.byte	0
 804 0454 04       		.uleb128 0x4
 805 0455 04       		.byte	0x4
 806 0456 07       		.byte	0x7
 807 0457 0F030000 		.4byte	.LASF80
 808 045b 10       		.uleb128 0x10
 809 045c BB000000 		.4byte	0xbb
 810 0460 6B040000 		.4byte	0x46b
 811 0464 11       		.uleb128 0x11
 812 0465 54040000 		.4byte	0x454
 813 0469 01       		.byte	0x1
 814 046a 00       		.byte	0
 815 046b 12       		.uleb128 0x12
 816 046c 1C       		.byte	0x1c
 817 046d 08       		.byte	0x8
 818 046e DA01     		.2byte	0x1da
 819 0470 CE040000 		.4byte	0x4ce
 820 0474 08       		.uleb128 0x8
 821 0475 41435200 		.ascii	"ACR\000"
 822 0479 08       		.byte	0x8
 823 047a DC01     		.2byte	0x1dc
 824 047c D6000000 		.4byte	0xd6
 825 0480 00       		.byte	0
 826 0481 09       		.uleb128 0x9
 827 0482 99010000 		.4byte	.LASF81
 828 0486 08       		.byte	0x8
 829 0487 DD01     		.2byte	0x1dd
 830 0489 D6000000 		.4byte	0xd6
 831 048d 04       		.byte	0x4
 832 048e 09       		.uleb128 0x9
 833 048f 68010000 		.4byte	.LASF82
 834 0493 08       		.byte	0x8
 835 0494 DE01     		.2byte	0x1de
 836 0496 D6000000 		.4byte	0xd6
 837 049a 08       		.byte	0x8
 838 049b 08       		.uleb128 0x8
 839 049c 535200   		.ascii	"SR\000"
 840 049f 08       		.byte	0x8
 841 04a0 DF01     		.2byte	0x1df
 842 04a2 D6000000 		.4byte	0xd6
 843 04a6 0C       		.byte	0xc
 844 04a7 08       		.uleb128 0x8
 845 04a8 435200   		.ascii	"CR\000"
 846 04ab 08       		.byte	0x8
 847 04ac E001     		.2byte	0x1e0
 848 04ae D6000000 		.4byte	0xd6
 849 04b2 10       		.byte	0x10
 850 04b3 09       		.uleb128 0x9
 851 04b4 49000000 		.4byte	.LASF83
 852 04b8 08       		.byte	0x8
 853 04b9 E101     		.2byte	0x1e1
 854 04bb D6000000 		.4byte	0xd6
 855 04bf 14       		.byte	0x14
ARM GAS  /tmp/ccqtJEVF.s 			page 16


 856 04c0 09       		.uleb128 0x9
 857 04c1 4F000000 		.4byte	.LASF84
 858 04c5 08       		.byte	0x8
 859 04c6 E201     		.2byte	0x1e2
 860 04c8 D6000000 		.4byte	0xd6
 861 04cc 18       		.byte	0x18
 862 04cd 00       		.byte	0
 863 04ce 13       		.uleb128 0x13
 864 04cf 02010000 		.4byte	.LASF85
 865 04d3 08       		.byte	0x8
 866 04d4 E301     		.2byte	0x1e3
 867 04d6 6B040000 		.4byte	0x46b
 868 04da 12       		.uleb128 0x12
 869 04db 08       		.byte	0x8
 870 04dc 08       		.byte	0x8
 871 04dd 5D02     		.2byte	0x25d
 872 04df FD040000 		.4byte	0x4fd
 873 04e3 08       		.uleb128 0x8
 874 04e4 435200   		.ascii	"CR\000"
 875 04e7 08       		.byte	0x8
 876 04e8 5F02     		.2byte	0x25f
 877 04ea D6000000 		.4byte	0xd6
 878 04ee 00       		.byte	0
 879 04ef 08       		.uleb128 0x8
 880 04f0 43535200 		.ascii	"CSR\000"
 881 04f4 08       		.byte	0x8
 882 04f5 6002     		.2byte	0x260
 883 04f7 D6000000 		.4byte	0xd6
 884 04fb 04       		.byte	0x4
 885 04fc 00       		.byte	0
 886 04fd 13       		.uleb128 0x13
 887 04fe 27010000 		.4byte	.LASF86
 888 0502 08       		.byte	0x8
 889 0503 6102     		.2byte	0x261
 890 0505 DA040000 		.4byte	0x4da
 891 0509 12       		.uleb128 0x12
 892 050a 88       		.byte	0x88
 893 050b 08       		.byte	0x8
 894 050c 6702     		.2byte	0x267
 895 050e 98060000 		.4byte	0x698
 896 0512 08       		.uleb128 0x8
 897 0513 435200   		.ascii	"CR\000"
 898 0516 08       		.byte	0x8
 899 0517 6902     		.2byte	0x269
 900 0519 D6000000 		.4byte	0xd6
 901 051d 00       		.byte	0
 902 051e 09       		.uleb128 0x9
 903 051f 78010000 		.4byte	.LASF87
 904 0523 08       		.byte	0x8
 905 0524 6A02     		.2byte	0x26a
 906 0526 D6000000 		.4byte	0xd6
 907 052a 04       		.byte	0x4
 908 052b 09       		.uleb128 0x9
 909 052c AE060000 		.4byte	.LASF88
 910 0530 08       		.byte	0x8
 911 0531 6B02     		.2byte	0x26b
 912 0533 D6000000 		.4byte	0xd6
ARM GAS  /tmp/ccqtJEVF.s 			page 17


 913 0537 08       		.byte	0x8
 914 0538 08       		.uleb128 0x8
 915 0539 43495200 		.ascii	"CIR\000"
 916 053d 08       		.byte	0x8
 917 053e 6C02     		.2byte	0x26c
 918 0540 D6000000 		.4byte	0xd6
 919 0544 0C       		.byte	0xc
 920 0545 09       		.uleb128 0x9
 921 0546 F9000000 		.4byte	.LASF89
 922 054a 08       		.byte	0x8
 923 054b 6D02     		.2byte	0x26d
 924 054d D6000000 		.4byte	0xd6
 925 0551 10       		.byte	0x10
 926 0552 09       		.uleb128 0x9
 927 0553 D0050000 		.4byte	.LASF90
 928 0557 08       		.byte	0x8
 929 0558 6E02     		.2byte	0x26e
 930 055a D6000000 		.4byte	0xd6
 931 055e 14       		.byte	0x14
 932 055f 09       		.uleb128 0x9
 933 0560 75020000 		.4byte	.LASF91
 934 0564 08       		.byte	0x8
 935 0565 6F02     		.2byte	0x26f
 936 0567 D6000000 		.4byte	0xd6
 937 056b 18       		.byte	0x18
 938 056c 09       		.uleb128 0x9
 939 056d B8030000 		.4byte	.LASF92
 940 0571 08       		.byte	0x8
 941 0572 7002     		.2byte	0x270
 942 0574 BB000000 		.4byte	0xbb
 943 0578 1C       		.byte	0x1c
 944 0579 09       		.uleb128 0x9
 945 057a 9C030000 		.4byte	.LASF93
 946 057e 08       		.byte	0x8
 947 057f 7102     		.2byte	0x271
 948 0581 D6000000 		.4byte	0xd6
 949 0585 20       		.byte	0x20
 950 0586 09       		.uleb128 0x9
 951 0587 4C010000 		.4byte	.LASF94
 952 058b 08       		.byte	0x8
 953 058c 7202     		.2byte	0x272
 954 058e D6000000 		.4byte	0xd6
 955 0592 24       		.byte	0x24
 956 0593 09       		.uleb128 0x9
 957 0594 C2030000 		.4byte	.LASF95
 958 0598 08       		.byte	0x8
 959 0599 7302     		.2byte	0x273
 960 059b 5B040000 		.4byte	0x45b
 961 059f 28       		.byte	0x28
 962 05a0 09       		.uleb128 0x9
 963 05a1 A6060000 		.4byte	.LASF96
 964 05a5 08       		.byte	0x8
 965 05a6 7402     		.2byte	0x274
 966 05a8 D6000000 		.4byte	0xd6
 967 05ac 30       		.byte	0x30
 968 05ad 09       		.uleb128 0x9
 969 05ae 2B060000 		.4byte	.LASF97
ARM GAS  /tmp/ccqtJEVF.s 			page 18


 970 05b2 08       		.byte	0x8
 971 05b3 7502     		.2byte	0x275
 972 05b5 D6000000 		.4byte	0xd6
 973 05b9 34       		.byte	0x34
 974 05ba 09       		.uleb128 0x9
 975 05bb 55030000 		.4byte	.LASF98
 976 05bf 08       		.byte	0x8
 977 05c0 7602     		.2byte	0x276
 978 05c2 D6000000 		.4byte	0xd6
 979 05c6 38       		.byte	0x38
 980 05c7 09       		.uleb128 0x9
 981 05c8 CC030000 		.4byte	.LASF99
 982 05cc 08       		.byte	0x8
 983 05cd 7702     		.2byte	0x277
 984 05cf BB000000 		.4byte	0xbb
 985 05d3 3C       		.byte	0x3c
 986 05d4 09       		.uleb128 0x9
 987 05d5 23060000 		.4byte	.LASF100
 988 05d9 08       		.byte	0x8
 989 05da 7802     		.2byte	0x278
 990 05dc D6000000 		.4byte	0xd6
 991 05e0 40       		.byte	0x40
 992 05e1 09       		.uleb128 0x9
 993 05e2 45050000 		.4byte	.LASF101
 994 05e6 08       		.byte	0x8
 995 05e7 7902     		.2byte	0x279
 996 05e9 D6000000 		.4byte	0xd6
 997 05ed 44       		.byte	0x44
 998 05ee 09       		.uleb128 0x9
 999 05ef D6030000 		.4byte	.LASF102
 1000 05f3 08       		.byte	0x8
 1001 05f4 7A02     		.2byte	0x27a
 1002 05f6 5B040000 		.4byte	0x45b
 1003 05fa 48       		.byte	0x48
 1004 05fb 09       		.uleb128 0x9
 1005 05fc BD000000 		.4byte	.LASF103
 1006 0600 08       		.byte	0x8
 1007 0601 7B02     		.2byte	0x27b
 1008 0603 D6000000 		.4byte	0xd6
 1009 0607 50       		.byte	0x50
 1010 0608 09       		.uleb128 0x9
 1011 0609 77030000 		.4byte	.LASF104
 1012 060d 08       		.byte	0x8
 1013 060e 7C02     		.2byte	0x27c
 1014 0610 D6000000 		.4byte	0xd6
 1015 0614 54       		.byte	0x54
 1016 0615 09       		.uleb128 0x9
 1017 0616 4B040000 		.4byte	.LASF105
 1018 061a 08       		.byte	0x8
 1019 061b 7D02     		.2byte	0x27d
 1020 061d D6000000 		.4byte	0xd6
 1021 0621 58       		.byte	0x58
 1022 0622 09       		.uleb128 0x9
 1023 0623 E0030000 		.4byte	.LASF106
 1024 0627 08       		.byte	0x8
 1025 0628 7E02     		.2byte	0x27e
 1026 062a BB000000 		.4byte	0xbb
ARM GAS  /tmp/ccqtJEVF.s 			page 19


 1027 062e 5C       		.byte	0x5c
 1028 062f 09       		.uleb128 0x9
 1029 0630 55010000 		.4byte	.LASF107
 1030 0634 08       		.byte	0x8
 1031 0635 7F02     		.2byte	0x27f
 1032 0637 D6000000 		.4byte	0xd6
 1033 063b 60       		.byte	0x60
 1034 063c 09       		.uleb128 0x9
 1035 063d AD020000 		.4byte	.LASF108
 1036 0641 08       		.byte	0x8
 1037 0642 8002     		.2byte	0x280
 1038 0644 D6000000 		.4byte	0xd6
 1039 0648 64       		.byte	0x64
 1040 0649 09       		.uleb128 0x9
 1041 064a 76050000 		.4byte	.LASF109
 1042 064e 08       		.byte	0x8
 1043 064f 8102     		.2byte	0x281
 1044 0651 5B040000 		.4byte	0x45b
 1045 0655 68       		.byte	0x68
 1046 0656 09       		.uleb128 0x9
 1047 0657 85060000 		.4byte	.LASF110
 1048 065b 08       		.byte	0x8
 1049 065c 8202     		.2byte	0x282
 1050 065e D6000000 		.4byte	0xd6
 1051 0662 70       		.byte	0x70
 1052 0663 08       		.uleb128 0x8
 1053 0664 43535200 		.ascii	"CSR\000"
 1054 0668 08       		.byte	0x8
 1055 0669 8302     		.2byte	0x283
 1056 066b D6000000 		.4byte	0xd6
 1057 066f 74       		.byte	0x74
 1058 0670 09       		.uleb128 0x9
 1059 0671 F1030000 		.4byte	.LASF111
 1060 0675 08       		.byte	0x8
 1061 0676 8402     		.2byte	0x284
 1062 0678 5B040000 		.4byte	0x45b
 1063 067c 78       		.byte	0x78
 1064 067d 09       		.uleb128 0x9
 1065 067e 5F060000 		.4byte	.LASF112
 1066 0682 08       		.byte	0x8
 1067 0683 8502     		.2byte	0x285
 1068 0685 D6000000 		.4byte	0xd6
 1069 0689 80       		.byte	0x80
 1070 068a 09       		.uleb128 0x9
 1071 068b 64020000 		.4byte	.LASF113
 1072 068f 08       		.byte	0x8
 1073 0690 8602     		.2byte	0x286
 1074 0692 D6000000 		.4byte	0xd6
 1075 0696 84       		.byte	0x84
 1076 0697 00       		.byte	0
 1077 0698 13       		.uleb128 0x13
 1078 0699 35020000 		.4byte	.LASF114
 1079 069d 08       		.byte	0x8
 1080 069e 8802     		.2byte	0x288
 1081 06a0 09050000 		.4byte	0x509
 1082 06a4 03       		.uleb128 0x3
 1083 06a5 88010000 		.4byte	.LASF115
ARM GAS  /tmp/ccqtJEVF.s 			page 20


 1084 06a9 09       		.byte	0x9
 1085 06aa 65       		.byte	0x65
 1086 06ab 1E030000 		.4byte	0x31e
 1087 06af 03       		.uleb128 0x3
 1088 06b0 DB020000 		.4byte	.LASF116
 1089 06b4 09       		.byte	0x9
 1090 06b5 6D       		.byte	0x6d
 1091 06b6 C6000000 		.4byte	0xc6
 1092 06ba 06       		.uleb128 0x6
 1093 06bb 33060000 		.4byte	.LASF117
 1094 06bf 04       		.byte	0x4
 1095 06c0 09       		.byte	0x9
 1096 06c1 89       		.byte	0x89
 1097 06c2 D3060000 		.4byte	0x6d3
 1098 06c6 14       		.uleb128 0x14
 1099 06c7 72313300 		.ascii	"r13\000"
 1100 06cb 09       		.byte	0x9
 1101 06cc 8A       		.byte	0x8a
 1102 06cd 4E070000 		.4byte	0x74e
 1103 06d1 00       		.byte	0
 1104 06d2 00       		.byte	0
 1105 06d3 06       		.uleb128 0x6
 1106 06d4 2E000000 		.4byte	.LASF118
 1107 06d8 24       		.byte	0x24
 1108 06d9 0A       		.byte	0xa
 1109 06da F4       		.byte	0xf4
 1110 06db 4E070000 		.4byte	0x74e
 1111 06df 08       		.uleb128 0x8
 1112 06e0 723400   		.ascii	"r4\000"
 1113 06e3 0A       		.byte	0xa
 1114 06e4 0701     		.2byte	0x107
 1115 06e6 A4060000 		.4byte	0x6a4
 1116 06ea 00       		.byte	0
 1117 06eb 08       		.uleb128 0x8
 1118 06ec 723500   		.ascii	"r5\000"
 1119 06ef 0A       		.byte	0xa
 1120 06f0 0801     		.2byte	0x108
 1121 06f2 A4060000 		.4byte	0x6a4
 1122 06f6 04       		.byte	0x4
 1123 06f7 08       		.uleb128 0x8
 1124 06f8 723600   		.ascii	"r6\000"
 1125 06fb 0A       		.byte	0xa
 1126 06fc 0901     		.2byte	0x109
 1127 06fe A4060000 		.4byte	0x6a4
 1128 0702 08       		.byte	0x8
 1129 0703 08       		.uleb128 0x8
 1130 0704 723700   		.ascii	"r7\000"
 1131 0707 0A       		.byte	0xa
 1132 0708 0A01     		.2byte	0x10a
 1133 070a A4060000 		.4byte	0x6a4
 1134 070e 0C       		.byte	0xc
 1135 070f 08       		.uleb128 0x8
 1136 0710 723800   		.ascii	"r8\000"
 1137 0713 0A       		.byte	0xa
 1138 0714 0B01     		.2byte	0x10b
 1139 0716 A4060000 		.4byte	0x6a4
 1140 071a 10       		.byte	0x10
ARM GAS  /tmp/ccqtJEVF.s 			page 21


 1141 071b 08       		.uleb128 0x8
 1142 071c 723900   		.ascii	"r9\000"
 1143 071f 0A       		.byte	0xa
 1144 0720 0C01     		.2byte	0x10c
 1145 0722 A4060000 		.4byte	0x6a4
 1146 0726 14       		.byte	0x14
 1147 0727 08       		.uleb128 0x8
 1148 0728 72313000 		.ascii	"r10\000"
 1149 072c 0A       		.byte	0xa
 1150 072d 0D01     		.2byte	0x10d
 1151 072f A4060000 		.4byte	0x6a4
 1152 0733 18       		.byte	0x18
 1153 0734 08       		.uleb128 0x8
 1154 0735 72313100 		.ascii	"r11\000"
 1155 0739 0A       		.byte	0xa
 1156 073a 0E01     		.2byte	0x10e
 1157 073c A4060000 		.4byte	0x6a4
 1158 0740 1C       		.byte	0x1c
 1159 0741 08       		.uleb128 0x8
 1160 0742 6C7200   		.ascii	"lr\000"
 1161 0745 0A       		.byte	0xa
 1162 0746 0F01     		.2byte	0x10f
 1163 0748 A4060000 		.4byte	0x6a4
 1164 074c 20       		.byte	0x20
 1165 074d 00       		.byte	0
 1166 074e 0A       		.uleb128 0xa
 1167 074f 04       		.byte	0x4
 1168 0750 D3060000 		.4byte	0x6d3
 1169 0754 15       		.uleb128 0x15
 1170 0755 04       		.byte	0x4
 1171 0756 0B       		.byte	0xb
 1172 0757 38       		.byte	0x38
 1173 0758 69070000 		.4byte	0x769
 1174 075c 07       		.uleb128 0x7
 1175 075d 1C060000 		.4byte	.LASF119
 1176 0761 0B       		.byte	0xb
 1177 0762 3C       		.byte	0x3c
 1178 0763 DB000000 		.4byte	0xdb
 1179 0767 00       		.byte	0
 1180 0768 00       		.byte	0
 1181 0769 03       		.uleb128 0x3
 1182 076a 81030000 		.4byte	.LASF120
 1183 076e 0B       		.byte	0xb
 1184 076f 3D       		.byte	0x3d
 1185 0770 54070000 		.4byte	0x754
 1186 0774 16       		.uleb128 0x16
 1187 0775 04       		.byte	0x4
 1188 0776 07       		.byte	0x7
 1189 0777 FA       		.byte	0xfa
 1190 0778 D1070000 		.4byte	0x7d1
 1191 077c 17       		.uleb128 0x17
 1192 077d 14000000 		.4byte	.LASF121
 1193 0781 07       		.byte	0x7
 1194 0782 0101     		.2byte	0x101
 1195 0784 12010000 		.4byte	0x112
 1196 0788 17       		.uleb128 0x17
 1197 0789 75000000 		.4byte	.LASF122
ARM GAS  /tmp/ccqtJEVF.s 			page 22


 1198 078d 07       		.byte	0x7
 1199 078e 0801     		.2byte	0x108
 1200 0790 12010000 		.4byte	0x112
 1201 0794 17       		.uleb128 0x17
 1202 0795 98060000 		.4byte	.LASF123
 1203 0799 07       		.byte	0x7
 1204 079a 0F01     		.2byte	0x10f
 1205 079c 1E030000 		.4byte	0x31e
 1206 07a0 17       		.uleb128 0x17
 1207 07a1 33010000 		.4byte	.LASF124
 1208 07a5 07       		.byte	0x7
 1209 07a6 1601     		.2byte	0x116
 1210 07a8 D1070000 		.4byte	0x7d1
 1211 07ac 17       		.uleb128 0x17
 1212 07ad 23020000 		.4byte	.LASF125
 1213 07b1 07       		.byte	0x7
 1214 07b2 1E01     		.2byte	0x11e
 1215 07b4 FC070000 		.4byte	0x7fc
 1216 07b8 17       		.uleb128 0x17
 1217 07b9 89050000 		.4byte	.LASF126
 1218 07bd 07       		.byte	0x7
 1219 07be 2701     		.2byte	0x127
 1220 07c0 33080000 		.4byte	0x833
 1221 07c4 17       		.uleb128 0x17
 1222 07c5 36050000 		.4byte	.LASF127
 1223 07c9 07       		.byte	0x7
 1224 07ca 2F01     		.2byte	0x12f
 1225 07cc 1D010000 		.4byte	0x11d
 1226 07d0 00       		.byte	0
 1227 07d1 0A       		.uleb128 0xa
 1228 07d2 04       		.byte	0x4
 1229 07d3 36020000 		.4byte	0x236
 1230 07d7 06       		.uleb128 0x6
 1231 07d8 5E050000 		.4byte	.LASF128
 1232 07dc 0C       		.byte	0xc
 1233 07dd 0C       		.byte	0xc
 1234 07de 34       		.byte	0x34
 1235 07df FC070000 		.4byte	0x7fc
 1236 07e3 07       		.uleb128 0x7
 1237 07e4 6D000000 		.4byte	.LASF129
 1238 07e8 0C       		.byte	0xc
 1239 07e9 35       		.byte	0x35
 1240 07ea 6B020000 		.4byte	0x26b
 1241 07ee 00       		.byte	0
 1242 07ef 07       		.uleb128 0x7
 1243 07f0 41020000 		.4byte	.LASF130
 1244 07f4 0C       		.byte	0xc
 1245 07f5 37       		.byte	0x37
 1246 07f6 28010000 		.4byte	0x128
 1247 07fa 08       		.byte	0x8
 1248 07fb 00       		.byte	0
 1249 07fc 0A       		.uleb128 0xa
 1250 07fd 04       		.byte	0x4
 1251 07fe D7070000 		.4byte	0x7d7
 1252 0802 06       		.uleb128 0x6
 1253 0803 75060000 		.4byte	.LASF131
 1254 0807 10       		.byte	0x10
ARM GAS  /tmp/ccqtJEVF.s 			page 23


 1255 0808 0D       		.byte	0xd
 1256 0809 39       		.byte	0x39
 1257 080a 33080000 		.4byte	0x833
 1258 080e 07       		.uleb128 0x7
 1259 080f 18010000 		.4byte	.LASF132
 1260 0813 0D       		.byte	0xd
 1261 0814 3A       		.byte	0x3a
 1262 0815 6B020000 		.4byte	0x26b
 1263 0819 00       		.byte	0
 1264 081a 07       		.uleb128 0x7
 1265 081b B9060000 		.4byte	.LASF133
 1266 081f 0D       		.byte	0xd
 1267 0820 3C       		.byte	0x3c
 1268 0821 41020000 		.4byte	0x241
 1269 0825 08       		.byte	0x8
 1270 0826 07       		.uleb128 0x7
 1271 0827 E2050000 		.4byte	.LASF134
 1272 082b 0D       		.byte	0xd
 1273 082c 3E       		.byte	0x3e
 1274 082d 71080000 		.4byte	0x871
 1275 0831 0C       		.byte	0xc
 1276 0832 00       		.byte	0
 1277 0833 0A       		.uleb128 0xa
 1278 0834 04       		.byte	0x4
 1279 0835 02080000 		.4byte	0x802
 1280 0839 0A       		.uleb128 0xa
 1281 083a 04       		.byte	0x4
 1282 083b 46080000 		.4byte	0x846
 1283 083f 04       		.uleb128 0x4
 1284 0840 01       		.byte	0x1
 1285 0841 08       		.byte	0x8
 1286 0842 CB050000 		.4byte	.LASF135
 1287 0846 18       		.uleb128 0x18
 1288 0847 3F080000 		.4byte	0x83f
 1289 084b 0A       		.uleb128 0xa
 1290 084c 04       		.byte	0x4
 1291 084d 20030000 		.4byte	0x320
 1292 0851 05       		.uleb128 0x5
 1293 0852 39080000 		.4byte	0x839
 1294 0856 10       		.uleb128 0x10
 1295 0857 AF060000 		.4byte	0x6af
 1296 085b 66080000 		.4byte	0x866
 1297 085f 11       		.uleb128 0x11
 1298 0860 54040000 		.4byte	0x454
 1299 0864 1A       		.byte	0x1a
 1300 0865 00       		.byte	0
 1301 0866 03       		.uleb128 0x3
 1302 0867 E1010000 		.4byte	.LASF136
 1303 086b 0D       		.byte	0xd
 1304 086c 34       		.byte	0x34
 1305 086d 02080000 		.4byte	0x802
 1306 0871 0A       		.uleb128 0xa
 1307 0872 04       		.byte	0x4
 1308 0873 66080000 		.4byte	0x866
 1309 0877 04       		.uleb128 0x4
 1310 0878 01       		.byte	0x1
 1311 0879 02       		.byte	0x2
ARM GAS  /tmp/ccqtJEVF.s 			page 24


 1312 087a 13040000 		.4byte	.LASF137
 1313 087e 19       		.uleb128 0x19
 1314 087f 7E020000 		.4byte	.LASF142
 1315 0883 01       		.byte	0x1
 1316 0884 36       		.byte	0x36
 1317 0885 01       		.byte	0x1
 1318 0886 1A       		.uleb128 0x1a
 1319 0887 43060000 		.4byte	.LASF143
 1320 088b 01       		.byte	0x1
 1321 088c 72       		.byte	0x72
 1322 088d 00000000 		.4byte	.LFB259
 1323 0891 64000000 		.4byte	.LFE259-.LFB259
 1324 0895 01       		.uleb128 0x1
 1325 0896 9C       		.byte	0x9c
 1326 0897 B4080000 		.4byte	0x8b4
 1327 089b 1B       		.uleb128 0x1b
 1328 089c 7E080000 		.4byte	0x87e
 1329 08a0 18000000 		.4byte	.LBB4
 1330 08a4 00000000 		.4byte	.Ldebug_ranges0+0
 1331 08a8 01       		.byte	0x1
 1332 08a9 7F       		.byte	0x7f
 1333 08aa 1C       		.uleb128 0x1c
 1334 08ab 5C000000 		.4byte	.LVL0
 1335 08af ED080000 		.4byte	0x8ed
 1336 08b3 00       		.byte	0
 1337 08b4 1D       		.uleb128 0x1d
 1338 08b5 CE000000 		.4byte	.LASF144
 1339 08b9 01       		.byte	0x1
 1340 08ba 92       		.byte	0x92
 1341 08bb 00000000 		.4byte	.LFB260
 1342 08bf C8000000 		.4byte	.LFE260-.LFB260
 1343 08c3 01       		.uleb128 0x1
 1344 08c4 9C       		.byte	0x9c
 1345 08c5 1E       		.uleb128 0x1e
 1346 08c6 9F000000 		.4byte	.LASF138
 1347 08ca 0E       		.byte	0xe
 1348 08cb A706     		.2byte	0x6a7
 1349 08cd D1000000 		.4byte	0xd1
 1350 08d1 1F       		.uleb128 0x1f
 1351 08d2 13020000 		.4byte	.LASF139
 1352 08d6 01       		.byte	0x1
 1353 08d7 27       		.byte	0x27
 1354 08d8 BB000000 		.4byte	0xbb
 1355 08dc 05       		.uleb128 0x5
 1356 08dd 03       		.byte	0x3
 1357 08de 00000000 		.4byte	SystemCoreClock
 1358 08e2 20       		.uleb128 0x20
 1359 08e3 636800   		.ascii	"ch\000"
 1360 08e6 07       		.byte	0x7
 1361 08e7 0902     		.2byte	0x209
 1362 08e9 ED030000 		.4byte	0x3ed
 1363 08ed 21       		.uleb128 0x21
 1364 08ee B1050000 		.4byte	.LASF145
 1365 08f2 B1050000 		.4byte	.LASF145
 1366 08f6 0F       		.byte	0xf
 1367 08f7 C101     		.2byte	0x1c1
 1368 08f9 00       		.byte	0
ARM GAS  /tmp/ccqtJEVF.s 			page 25


 1369              		.section	.debug_abbrev,"",%progbits
 1370              	.Ldebug_abbrev0:
 1371 0000 01       		.uleb128 0x1
 1372 0001 11       		.uleb128 0x11
 1373 0002 01       		.byte	0x1
 1374 0003 25       		.uleb128 0x25
 1375 0004 0E       		.uleb128 0xe
 1376 0005 13       		.uleb128 0x13
 1377 0006 0B       		.uleb128 0xb
 1378 0007 03       		.uleb128 0x3
 1379 0008 0E       		.uleb128 0xe
 1380 0009 55       		.uleb128 0x55
 1381 000a 17       		.uleb128 0x17
 1382 000b 11       		.uleb128 0x11
 1383 000c 01       		.uleb128 0x1
 1384 000d 10       		.uleb128 0x10
 1385 000e 17       		.uleb128 0x17
 1386 000f 00       		.byte	0
 1387 0010 00       		.byte	0
 1388 0011 02       		.uleb128 0x2
 1389 0012 24       		.uleb128 0x24
 1390 0013 00       		.byte	0
 1391 0014 0B       		.uleb128 0xb
 1392 0015 0B       		.uleb128 0xb
 1393 0016 3E       		.uleb128 0x3e
 1394 0017 0B       		.uleb128 0xb
 1395 0018 03       		.uleb128 0x3
 1396 0019 08       		.uleb128 0x8
 1397 001a 00       		.byte	0
 1398 001b 00       		.byte	0
 1399 001c 03       		.uleb128 0x3
 1400 001d 16       		.uleb128 0x16
 1401 001e 00       		.byte	0
 1402 001f 03       		.uleb128 0x3
 1403 0020 0E       		.uleb128 0xe
 1404 0021 3A       		.uleb128 0x3a
 1405 0022 0B       		.uleb128 0xb
 1406 0023 3B       		.uleb128 0x3b
 1407 0024 0B       		.uleb128 0xb
 1408 0025 49       		.uleb128 0x49
 1409 0026 13       		.uleb128 0x13
 1410 0027 00       		.byte	0
 1411 0028 00       		.byte	0
 1412 0029 04       		.uleb128 0x4
 1413 002a 24       		.uleb128 0x24
 1414 002b 00       		.byte	0
 1415 002c 0B       		.uleb128 0xb
 1416 002d 0B       		.uleb128 0xb
 1417 002e 3E       		.uleb128 0x3e
 1418 002f 0B       		.uleb128 0xb
 1419 0030 03       		.uleb128 0x3
 1420 0031 0E       		.uleb128 0xe
 1421 0032 00       		.byte	0
 1422 0033 00       		.byte	0
 1423 0034 05       		.uleb128 0x5
 1424 0035 35       		.uleb128 0x35
 1425 0036 00       		.byte	0
ARM GAS  /tmp/ccqtJEVF.s 			page 26


 1426 0037 49       		.uleb128 0x49
 1427 0038 13       		.uleb128 0x13
 1428 0039 00       		.byte	0
 1429 003a 00       		.byte	0
 1430 003b 06       		.uleb128 0x6
 1431 003c 13       		.uleb128 0x13
 1432 003d 01       		.byte	0x1
 1433 003e 03       		.uleb128 0x3
 1434 003f 0E       		.uleb128 0xe
 1435 0040 0B       		.uleb128 0xb
 1436 0041 0B       		.uleb128 0xb
 1437 0042 3A       		.uleb128 0x3a
 1438 0043 0B       		.uleb128 0xb
 1439 0044 3B       		.uleb128 0x3b
 1440 0045 0B       		.uleb128 0xb
 1441 0046 01       		.uleb128 0x1
 1442 0047 13       		.uleb128 0x13
 1443 0048 00       		.byte	0
 1444 0049 00       		.byte	0
 1445 004a 07       		.uleb128 0x7
 1446 004b 0D       		.uleb128 0xd
 1447 004c 00       		.byte	0
 1448 004d 03       		.uleb128 0x3
 1449 004e 0E       		.uleb128 0xe
 1450 004f 3A       		.uleb128 0x3a
 1451 0050 0B       		.uleb128 0xb
 1452 0051 3B       		.uleb128 0x3b
 1453 0052 0B       		.uleb128 0xb
 1454 0053 49       		.uleb128 0x49
 1455 0054 13       		.uleb128 0x13
 1456 0055 38       		.uleb128 0x38
 1457 0056 0B       		.uleb128 0xb
 1458 0057 00       		.byte	0
 1459 0058 00       		.byte	0
 1460 0059 08       		.uleb128 0x8
 1461 005a 0D       		.uleb128 0xd
 1462 005b 00       		.byte	0
 1463 005c 03       		.uleb128 0x3
 1464 005d 08       		.uleb128 0x8
 1465 005e 3A       		.uleb128 0x3a
 1466 005f 0B       		.uleb128 0xb
 1467 0060 3B       		.uleb128 0x3b
 1468 0061 05       		.uleb128 0x5
 1469 0062 49       		.uleb128 0x49
 1470 0063 13       		.uleb128 0x13
 1471 0064 38       		.uleb128 0x38
 1472 0065 0B       		.uleb128 0xb
 1473 0066 00       		.byte	0
 1474 0067 00       		.byte	0
 1475 0068 09       		.uleb128 0x9
 1476 0069 0D       		.uleb128 0xd
 1477 006a 00       		.byte	0
 1478 006b 03       		.uleb128 0x3
 1479 006c 0E       		.uleb128 0xe
 1480 006d 3A       		.uleb128 0x3a
 1481 006e 0B       		.uleb128 0xb
 1482 006f 3B       		.uleb128 0x3b
ARM GAS  /tmp/ccqtJEVF.s 			page 27


 1483 0070 05       		.uleb128 0x5
 1484 0071 49       		.uleb128 0x49
 1485 0072 13       		.uleb128 0x13
 1486 0073 38       		.uleb128 0x38
 1487 0074 0B       		.uleb128 0xb
 1488 0075 00       		.byte	0
 1489 0076 00       		.byte	0
 1490 0077 0A       		.uleb128 0xa
 1491 0078 0F       		.uleb128 0xf
 1492 0079 00       		.byte	0
 1493 007a 0B       		.uleb128 0xb
 1494 007b 0B       		.uleb128 0xb
 1495 007c 49       		.uleb128 0x49
 1496 007d 13       		.uleb128 0x13
 1497 007e 00       		.byte	0
 1498 007f 00       		.byte	0
 1499 0080 0B       		.uleb128 0xb
 1500 0081 13       		.uleb128 0x13
 1501 0082 01       		.byte	0x1
 1502 0083 03       		.uleb128 0x3
 1503 0084 0E       		.uleb128 0xe
 1504 0085 0B       		.uleb128 0xb
 1505 0086 0B       		.uleb128 0xb
 1506 0087 3A       		.uleb128 0x3a
 1507 0088 0B       		.uleb128 0xb
 1508 0089 3B       		.uleb128 0x3b
 1509 008a 05       		.uleb128 0x5
 1510 008b 01       		.uleb128 0x1
 1511 008c 13       		.uleb128 0x13
 1512 008d 00       		.byte	0
 1513 008e 00       		.byte	0
 1514 008f 0C       		.uleb128 0xc
 1515 0090 15       		.uleb128 0x15
 1516 0091 01       		.byte	0x1
 1517 0092 27       		.uleb128 0x27
 1518 0093 19       		.uleb128 0x19
 1519 0094 01       		.uleb128 0x1
 1520 0095 13       		.uleb128 0x13
 1521 0096 00       		.byte	0
 1522 0097 00       		.byte	0
 1523 0098 0D       		.uleb128 0xd
 1524 0099 05       		.uleb128 0x5
 1525 009a 00       		.byte	0
 1526 009b 49       		.uleb128 0x49
 1527 009c 13       		.uleb128 0x13
 1528 009d 00       		.byte	0
 1529 009e 00       		.byte	0
 1530 009f 0E       		.uleb128 0xe
 1531 00a0 0F       		.uleb128 0xf
 1532 00a1 00       		.byte	0
 1533 00a2 0B       		.uleb128 0xb
 1534 00a3 0B       		.uleb128 0xb
 1535 00a4 00       		.byte	0
 1536 00a5 00       		.byte	0
 1537 00a6 0F       		.uleb128 0xf
 1538 00a7 13       		.uleb128 0x13
 1539 00a8 01       		.byte	0x1
ARM GAS  /tmp/ccqtJEVF.s 			page 28


 1540 00a9 03       		.uleb128 0x3
 1541 00aa 0E       		.uleb128 0xe
 1542 00ab 0B       		.uleb128 0xb
 1543 00ac 05       		.uleb128 0x5
 1544 00ad 3A       		.uleb128 0x3a
 1545 00ae 0B       		.uleb128 0xb
 1546 00af 3B       		.uleb128 0x3b
 1547 00b0 05       		.uleb128 0x5
 1548 00b1 01       		.uleb128 0x1
 1549 00b2 13       		.uleb128 0x13
 1550 00b3 00       		.byte	0
 1551 00b4 00       		.byte	0
 1552 00b5 10       		.uleb128 0x10
 1553 00b6 01       		.uleb128 0x1
 1554 00b7 01       		.byte	0x1
 1555 00b8 49       		.uleb128 0x49
 1556 00b9 13       		.uleb128 0x13
 1557 00ba 01       		.uleb128 0x1
 1558 00bb 13       		.uleb128 0x13
 1559 00bc 00       		.byte	0
 1560 00bd 00       		.byte	0
 1561 00be 11       		.uleb128 0x11
 1562 00bf 21       		.uleb128 0x21
 1563 00c0 00       		.byte	0
 1564 00c1 49       		.uleb128 0x49
 1565 00c2 13       		.uleb128 0x13
 1566 00c3 2F       		.uleb128 0x2f
 1567 00c4 0B       		.uleb128 0xb
 1568 00c5 00       		.byte	0
 1569 00c6 00       		.byte	0
 1570 00c7 12       		.uleb128 0x12
 1571 00c8 13       		.uleb128 0x13
 1572 00c9 01       		.byte	0x1
 1573 00ca 0B       		.uleb128 0xb
 1574 00cb 0B       		.uleb128 0xb
 1575 00cc 3A       		.uleb128 0x3a
 1576 00cd 0B       		.uleb128 0xb
 1577 00ce 3B       		.uleb128 0x3b
 1578 00cf 05       		.uleb128 0x5
 1579 00d0 01       		.uleb128 0x1
 1580 00d1 13       		.uleb128 0x13
 1581 00d2 00       		.byte	0
 1582 00d3 00       		.byte	0
 1583 00d4 13       		.uleb128 0x13
 1584 00d5 16       		.uleb128 0x16
 1585 00d6 00       		.byte	0
 1586 00d7 03       		.uleb128 0x3
 1587 00d8 0E       		.uleb128 0xe
 1588 00d9 3A       		.uleb128 0x3a
 1589 00da 0B       		.uleb128 0xb
 1590 00db 3B       		.uleb128 0x3b
 1591 00dc 05       		.uleb128 0x5
 1592 00dd 49       		.uleb128 0x49
 1593 00de 13       		.uleb128 0x13
 1594 00df 00       		.byte	0
 1595 00e0 00       		.byte	0
 1596 00e1 14       		.uleb128 0x14
ARM GAS  /tmp/ccqtJEVF.s 			page 29


 1597 00e2 0D       		.uleb128 0xd
 1598 00e3 00       		.byte	0
 1599 00e4 03       		.uleb128 0x3
 1600 00e5 08       		.uleb128 0x8
 1601 00e6 3A       		.uleb128 0x3a
 1602 00e7 0B       		.uleb128 0xb
 1603 00e8 3B       		.uleb128 0x3b
 1604 00e9 0B       		.uleb128 0xb
 1605 00ea 49       		.uleb128 0x49
 1606 00eb 13       		.uleb128 0x13
 1607 00ec 38       		.uleb128 0x38
 1608 00ed 0B       		.uleb128 0xb
 1609 00ee 00       		.byte	0
 1610 00ef 00       		.byte	0
 1611 00f0 15       		.uleb128 0x15
 1612 00f1 13       		.uleb128 0x13
 1613 00f2 01       		.byte	0x1
 1614 00f3 0B       		.uleb128 0xb
 1615 00f4 0B       		.uleb128 0xb
 1616 00f5 3A       		.uleb128 0x3a
 1617 00f6 0B       		.uleb128 0xb
 1618 00f7 3B       		.uleb128 0x3b
 1619 00f8 0B       		.uleb128 0xb
 1620 00f9 01       		.uleb128 0x1
 1621 00fa 13       		.uleb128 0x13
 1622 00fb 00       		.byte	0
 1623 00fc 00       		.byte	0
 1624 00fd 16       		.uleb128 0x16
 1625 00fe 17       		.uleb128 0x17
 1626 00ff 01       		.byte	0x1
 1627 0100 0B       		.uleb128 0xb
 1628 0101 0B       		.uleb128 0xb
 1629 0102 3A       		.uleb128 0x3a
 1630 0103 0B       		.uleb128 0xb
 1631 0104 3B       		.uleb128 0x3b
 1632 0105 0B       		.uleb128 0xb
 1633 0106 01       		.uleb128 0x1
 1634 0107 13       		.uleb128 0x13
 1635 0108 00       		.byte	0
 1636 0109 00       		.byte	0
 1637 010a 17       		.uleb128 0x17
 1638 010b 0D       		.uleb128 0xd
 1639 010c 00       		.byte	0
 1640 010d 03       		.uleb128 0x3
 1641 010e 0E       		.uleb128 0xe
 1642 010f 3A       		.uleb128 0x3a
 1643 0110 0B       		.uleb128 0xb
 1644 0111 3B       		.uleb128 0x3b
 1645 0112 05       		.uleb128 0x5
 1646 0113 49       		.uleb128 0x49
 1647 0114 13       		.uleb128 0x13
 1648 0115 00       		.byte	0
 1649 0116 00       		.byte	0
 1650 0117 18       		.uleb128 0x18
 1651 0118 26       		.uleb128 0x26
 1652 0119 00       		.byte	0
 1653 011a 49       		.uleb128 0x49
ARM GAS  /tmp/ccqtJEVF.s 			page 30


 1654 011b 13       		.uleb128 0x13
 1655 011c 00       		.byte	0
 1656 011d 00       		.byte	0
 1657 011e 19       		.uleb128 0x19
 1658 011f 2E       		.uleb128 0x2e
 1659 0120 00       		.byte	0
 1660 0121 03       		.uleb128 0x3
 1661 0122 0E       		.uleb128 0xe
 1662 0123 3A       		.uleb128 0x3a
 1663 0124 0B       		.uleb128 0xb
 1664 0125 3B       		.uleb128 0x3b
 1665 0126 0B       		.uleb128 0xb
 1666 0127 27       		.uleb128 0x27
 1667 0128 19       		.uleb128 0x19
 1668 0129 20       		.uleb128 0x20
 1669 012a 0B       		.uleb128 0xb
 1670 012b 00       		.byte	0
 1671 012c 00       		.byte	0
 1672 012d 1A       		.uleb128 0x1a
 1673 012e 2E       		.uleb128 0x2e
 1674 012f 01       		.byte	0x1
 1675 0130 3F       		.uleb128 0x3f
 1676 0131 19       		.uleb128 0x19
 1677 0132 03       		.uleb128 0x3
 1678 0133 0E       		.uleb128 0xe
 1679 0134 3A       		.uleb128 0x3a
 1680 0135 0B       		.uleb128 0xb
 1681 0136 3B       		.uleb128 0x3b
 1682 0137 0B       		.uleb128 0xb
 1683 0138 27       		.uleb128 0x27
 1684 0139 19       		.uleb128 0x19
 1685 013a 11       		.uleb128 0x11
 1686 013b 01       		.uleb128 0x1
 1687 013c 12       		.uleb128 0x12
 1688 013d 06       		.uleb128 0x6
 1689 013e 40       		.uleb128 0x40
 1690 013f 18       		.uleb128 0x18
 1691 0140 9742     		.uleb128 0x2117
 1692 0142 19       		.uleb128 0x19
 1693 0143 01       		.uleb128 0x1
 1694 0144 13       		.uleb128 0x13
 1695 0145 00       		.byte	0
 1696 0146 00       		.byte	0
 1697 0147 1B       		.uleb128 0x1b
 1698 0148 1D       		.uleb128 0x1d
 1699 0149 00       		.byte	0
 1700 014a 31       		.uleb128 0x31
 1701 014b 13       		.uleb128 0x13
 1702 014c 52       		.uleb128 0x52
 1703 014d 01       		.uleb128 0x1
 1704 014e 55       		.uleb128 0x55
 1705 014f 17       		.uleb128 0x17
 1706 0150 58       		.uleb128 0x58
 1707 0151 0B       		.uleb128 0xb
 1708 0152 59       		.uleb128 0x59
 1709 0153 0B       		.uleb128 0xb
 1710 0154 00       		.byte	0
ARM GAS  /tmp/ccqtJEVF.s 			page 31


 1711 0155 00       		.byte	0
 1712 0156 1C       		.uleb128 0x1c
 1713 0157 898201   		.uleb128 0x4109
 1714 015a 00       		.byte	0
 1715 015b 11       		.uleb128 0x11
 1716 015c 01       		.uleb128 0x1
 1717 015d 9542     		.uleb128 0x2115
 1718 015f 19       		.uleb128 0x19
 1719 0160 31       		.uleb128 0x31
 1720 0161 13       		.uleb128 0x13
 1721 0162 00       		.byte	0
 1722 0163 00       		.byte	0
 1723 0164 1D       		.uleb128 0x1d
 1724 0165 2E       		.uleb128 0x2e
 1725 0166 00       		.byte	0
 1726 0167 3F       		.uleb128 0x3f
 1727 0168 19       		.uleb128 0x19
 1728 0169 03       		.uleb128 0x3
 1729 016a 0E       		.uleb128 0xe
 1730 016b 3A       		.uleb128 0x3a
 1731 016c 0B       		.uleb128 0xb
 1732 016d 3B       		.uleb128 0x3b
 1733 016e 0B       		.uleb128 0xb
 1734 016f 27       		.uleb128 0x27
 1735 0170 19       		.uleb128 0x19
 1736 0171 11       		.uleb128 0x11
 1737 0172 01       		.uleb128 0x1
 1738 0173 12       		.uleb128 0x12
 1739 0174 06       		.uleb128 0x6
 1740 0175 40       		.uleb128 0x40
 1741 0176 18       		.uleb128 0x18
 1742 0177 9742     		.uleb128 0x2117
 1743 0179 19       		.uleb128 0x19
 1744 017a 00       		.byte	0
 1745 017b 00       		.byte	0
 1746 017c 1E       		.uleb128 0x1e
 1747 017d 34       		.uleb128 0x34
 1748 017e 00       		.byte	0
 1749 017f 03       		.uleb128 0x3
 1750 0180 0E       		.uleb128 0xe
 1751 0181 3A       		.uleb128 0x3a
 1752 0182 0B       		.uleb128 0xb
 1753 0183 3B       		.uleb128 0x3b
 1754 0184 05       		.uleb128 0x5
 1755 0185 49       		.uleb128 0x49
 1756 0186 13       		.uleb128 0x13
 1757 0187 3F       		.uleb128 0x3f
 1758 0188 19       		.uleb128 0x19
 1759 0189 3C       		.uleb128 0x3c
 1760 018a 19       		.uleb128 0x19
 1761 018b 00       		.byte	0
 1762 018c 00       		.byte	0
 1763 018d 1F       		.uleb128 0x1f
 1764 018e 34       		.uleb128 0x34
 1765 018f 00       		.byte	0
 1766 0190 03       		.uleb128 0x3
 1767 0191 0E       		.uleb128 0xe
ARM GAS  /tmp/ccqtJEVF.s 			page 32


 1768 0192 3A       		.uleb128 0x3a
 1769 0193 0B       		.uleb128 0xb
 1770 0194 3B       		.uleb128 0x3b
 1771 0195 0B       		.uleb128 0xb
 1772 0196 49       		.uleb128 0x49
 1773 0197 13       		.uleb128 0x13
 1774 0198 3F       		.uleb128 0x3f
 1775 0199 19       		.uleb128 0x19
 1776 019a 02       		.uleb128 0x2
 1777 019b 18       		.uleb128 0x18
 1778 019c 00       		.byte	0
 1779 019d 00       		.byte	0
 1780 019e 20       		.uleb128 0x20
 1781 019f 34       		.uleb128 0x34
 1782 01a0 00       		.byte	0
 1783 01a1 03       		.uleb128 0x3
 1784 01a2 08       		.uleb128 0x8
 1785 01a3 3A       		.uleb128 0x3a
 1786 01a4 0B       		.uleb128 0xb
 1787 01a5 3B       		.uleb128 0x3b
 1788 01a6 05       		.uleb128 0x5
 1789 01a7 49       		.uleb128 0x49
 1790 01a8 13       		.uleb128 0x13
 1791 01a9 3F       		.uleb128 0x3f
 1792 01aa 19       		.uleb128 0x19
 1793 01ab 3C       		.uleb128 0x3c
 1794 01ac 19       		.uleb128 0x19
 1795 01ad 00       		.byte	0
 1796 01ae 00       		.byte	0
 1797 01af 21       		.uleb128 0x21
 1798 01b0 2E       		.uleb128 0x2e
 1799 01b1 00       		.byte	0
 1800 01b2 3F       		.uleb128 0x3f
 1801 01b3 19       		.uleb128 0x19
 1802 01b4 3C       		.uleb128 0x3c
 1803 01b5 19       		.uleb128 0x19
 1804 01b6 6E       		.uleb128 0x6e
 1805 01b7 0E       		.uleb128 0xe
 1806 01b8 03       		.uleb128 0x3
 1807 01b9 0E       		.uleb128 0xe
 1808 01ba 3A       		.uleb128 0x3a
 1809 01bb 0B       		.uleb128 0xb
 1810 01bc 3B       		.uleb128 0x3b
 1811 01bd 05       		.uleb128 0x5
 1812 01be 00       		.byte	0
 1813 01bf 00       		.byte	0
 1814 01c0 00       		.byte	0
 1815              		.section	.debug_aranges,"",%progbits
 1816 0000 24000000 		.4byte	0x24
 1817 0004 0200     		.2byte	0x2
 1818 0006 00000000 		.4byte	.Ldebug_info0
 1819 000a 04       		.byte	0x4
 1820 000b 00       		.byte	0
 1821 000c 0000     		.2byte	0
 1822 000e 0000     		.2byte	0
 1823 0010 00000000 		.4byte	.LFB259
 1824 0014 64000000 		.4byte	.LFE259-.LFB259
ARM GAS  /tmp/ccqtJEVF.s 			page 33


 1825 0018 00000000 		.4byte	.LFB260
 1826 001c C8000000 		.4byte	.LFE260-.LFB260
 1827 0020 00000000 		.4byte	0
 1828 0024 00000000 		.4byte	0
 1829              		.section	.debug_ranges,"",%progbits
 1830              	.Ldebug_ranges0:
 1831 0000 18000000 		.4byte	.LBB4
 1832 0004 1A000000 		.4byte	.LBE4
 1833 0008 30000000 		.4byte	.LBB8
 1834 000c 4E000000 		.4byte	.LBE8
 1835 0010 50000000 		.4byte	.LBB9
 1836 0014 58000000 		.4byte	.LBE9
 1837 0018 00000000 		.4byte	0
 1838 001c 00000000 		.4byte	0
 1839 0020 00000000 		.4byte	.LFB259
 1840 0024 64000000 		.4byte	.LFE259
 1841 0028 00000000 		.4byte	.LFB260
 1842 002c C8000000 		.4byte	.LFE260
 1843 0030 00000000 		.4byte	0
 1844 0034 00000000 		.4byte	0
 1845              		.section	.debug_line,"",%progbits
 1846              	.Ldebug_line0:
 1847 0000 06030000 		.section	.debug_str,"MS",%progbits,1
 1847      02007702 
 1847      00000201 
 1847      FB0E0D00 
 1847      01010101 
 1848              	.LASF52:
 1849 0000 72656164 		.ascii	"ready_list_t\000"
 1849      795F6C69 
 1849      73745F74 
 1849      00
 1850              	.LASF4:
 1851 000d 73697A65 		.ascii	"size_t\000"
 1851      5F7400
 1852              	.LASF121:
 1853 0014 7264796D 		.ascii	"rdymsg\000"
 1853      736700
 1854              	.LASF18:
 1855 001b 75696E74 		.ascii	"uint64_t\000"
 1855      36345F74 
 1855      00
 1856              	.LASF5:
 1857 0024 5F5F7569 		.ascii	"__uint8_t\000"
 1857      6E74385F 
 1857      7400
 1858              	.LASF118:
 1859 002e 706F7274 		.ascii	"port_intctx\000"
 1859      5F696E74 
 1859      63747800 
 1860              	.LASF71:
 1861 003a 73797374 		.ascii	"system_debug_t\000"
 1861      656D5F64 
 1861      65627567 
 1861      5F7400
 1862              	.LASF83:
 1863 0049 4F505443 		.ascii	"OPTCR\000"
ARM GAS  /tmp/ccqtJEVF.s 			page 34


 1863      5200
 1864              	.LASF84:
 1865 004f 4F505443 		.ascii	"OPTCR1\000"
 1865      523100
 1866              	.LASF14:
 1867 0056 6C6F6E67 		.ascii	"long long unsigned int\000"
 1867      206C6F6E 
 1867      6720756E 
 1867      7369676E 
 1867      65642069 
 1868              	.LASF129:
 1869 006d 735F7175 		.ascii	"s_queue\000"
 1869      65756500 
 1870              	.LASF122:
 1871 0075 65786974 		.ascii	"exitcode\000"
 1871      636F6465 
 1871      00
 1872              	.LASF78:
 1873 007e 6D61696E 		.ascii	"mainthread\000"
 1873      74687265 
 1873      616400
 1874              	.LASF68:
 1875 0089 76697274 		.ascii	"virtual_timers_list_t\000"
 1875      75616C5F 
 1875      74696D65 
 1875      72735F6C 
 1875      6973745F 
 1876              	.LASF138:
 1877 009f 49544D5F 		.ascii	"ITM_RxBuffer\000"
 1877      52784275 
 1877      66666572 
 1877      00
 1878              	.LASF51:
 1879 00ac 63685F74 		.ascii	"ch_threads_queue\000"
 1879      68726561 
 1879      64735F71 
 1879      75657565 
 1879      00
 1880              	.LASF103:
 1881 00bd 41484231 		.ascii	"AHB1LPENR\000"
 1881      4C50454E 
 1881      5200
 1882              	.LASF31:
 1883 00c7 705F7072 		.ascii	"p_prio\000"
 1883      696F00
 1884              	.LASF144:
 1885 00ce 73746D33 		.ascii	"stm32_clock_init\000"
 1885      325F636C 
 1885      6F636B5F 
 1885      696E6974 
 1885      00
 1886              	.LASF1:
 1887 00df 6C6F6E67 		.ascii	"long long int\000"
 1887      206C6F6E 
 1887      6720696E 
 1887      7400
 1888              	.LASF3:
ARM GAS  /tmp/ccqtJEVF.s 			page 35


 1889 00ed 7369676E 		.ascii	"signed char\000"
 1889      65642063 
 1889      68617200 
 1890              	.LASF89:
 1891 00f9 41484231 		.ascii	"AHB1RSTR\000"
 1891      52535452 
 1891      00
 1892              	.LASF85:
 1893 0102 464C4153 		.ascii	"FLASH_TypeDef\000"
 1893      485F5479 
 1893      70654465 
 1893      6600
 1894              	.LASF45:
 1895 0110 705F6D70 		.ascii	"p_mpool\000"
 1895      6F6F6C00 
 1896              	.LASF132:
 1897 0118 6D5F7175 		.ascii	"m_queue\000"
 1897      65756500 
 1898              	.LASF77:
 1899 0120 76746C69 		.ascii	"vtlist\000"
 1899      737400
 1900              	.LASF86:
 1901 0127 5057525F 		.ascii	"PWR_TypeDef\000"
 1901      54797065 
 1901      44656600 
 1902              	.LASF124:
 1903 0133 77747472 		.ascii	"wttrp\000"
 1903      7000
 1904              	.LASF75:
 1905 0139 63685F73 		.ascii	"ch_system\000"
 1905      79737465 
 1905      6D00
 1906              	.LASF10:
 1907 0143 6C6F6E67 		.ascii	"long int\000"
 1907      20696E74 
 1907      00
 1908              	.LASF94:
 1909 014c 41504232 		.ascii	"APB2RSTR\000"
 1909      52535452 
 1909      00
 1910              	.LASF107:
 1911 0155 41504231 		.ascii	"APB1LPENR\000"
 1911      4C50454E 
 1911      5200
 1912              	.LASF21:
 1913 015f 74737461 		.ascii	"tstate_t\000"
 1913      74655F74 
 1913      00
 1914              	.LASF82:
 1915 0168 4F50544B 		.ascii	"OPTKEYR\000"
 1915      45595200 
 1916              	.LASF33:
 1917 0170 705F6E65 		.ascii	"p_newer\000"
 1917      77657200 
 1918              	.LASF87:
 1919 0178 504C4C43 		.ascii	"PLLCFGR\000"
 1919      46475200 
ARM GAS  /tmp/ccqtJEVF.s 			page 36


 1920              	.LASF57:
 1921 0180 725F6E65 		.ascii	"r_newer\000"
 1921      77657200 
 1922              	.LASF115:
 1923 0188 72656761 		.ascii	"regarm_t\000"
 1923      726D5F74 
 1923      00
 1924              	.LASF64:
 1925 0191 76745F70 		.ascii	"vt_prev\000"
 1925      72657600 
 1926              	.LASF81:
 1927 0199 4B455952 		.ascii	"KEYR\000"
 1927      00
 1928              	.LASF141:
 1929 019e 2F686F6D 		.ascii	"/home/selim/working/ChibiOS/os/hal/ports/STM32/STM3"
 1929      652F7365 
 1929      6C696D2F 
 1929      776F726B 
 1929      696E672F 
 1930 01d1 32463478 		.ascii	"2F4xx/hal_lld.c\000"
 1930      782F6861 
 1930      6C5F6C6C 
 1930      642E6300 
 1931              	.LASF136:
 1932 01e1 6D757465 		.ascii	"mutex_t\000"
 1932      785F7400 
 1933              	.LASF79:
 1934 01e9 69646C65 		.ascii	"idle_thread_wa\000"
 1934      5F746872 
 1934      6561645F 
 1934      776100
 1935              	.LASF26:
 1936 01f8 636E745F 		.ascii	"cnt_t\000"
 1936      7400
 1937              	.LASF0:
 1938 01fe 756E7369 		.ascii	"unsigned int\000"
 1938      676E6564 
 1938      20696E74 
 1938      00
 1939              	.LASF63:
 1940 020b 76745F6E 		.ascii	"vt_next\000"
 1940      65787400 
 1941              	.LASF139:
 1942 0213 53797374 		.ascii	"SystemCoreClock\000"
 1942      656D436F 
 1942      7265436C 
 1942      6F636B00 
 1943              	.LASF125:
 1944 0223 77747365 		.ascii	"wtsemp\000"
 1944      6D7000
 1945              	.LASF40:
 1946 022a 705F6D73 		.ascii	"p_msgqueue\000"
 1946      67717565 
 1946      756500
 1947              	.LASF114:
 1948 0235 5243435F 		.ascii	"RCC_TypeDef\000"
 1948      54797065 
ARM GAS  /tmp/ccqtJEVF.s 			page 37


 1948      44656600 
 1949              	.LASF130:
 1950 0241 735F636E 		.ascii	"s_cnt\000"
 1950      7400
 1951              	.LASF8:
 1952 0247 73686F72 		.ascii	"short unsigned int\000"
 1952      7420756E 
 1952      7369676E 
 1952      65642069 
 1952      6E7400
 1953              	.LASF48:
 1954 025a 63685F74 		.ascii	"ch_thread\000"
 1954      68726561 
 1954      6400
 1955              	.LASF113:
 1956 0264 504C4C49 		.ascii	"PLLI2SCFGR\000"
 1956      32534346 
 1956      475200
 1957              	.LASF24:
 1958 026f 6D73675F 		.ascii	"msg_t\000"
 1958      7400
 1959              	.LASF91:
 1960 0275 41484233 		.ascii	"AHB3RSTR\000"
 1960      52535452 
 1960      00
 1961              	.LASF142:
 1962 027e 68616C5F 		.ascii	"hal_lld_backup_domain_init\000"
 1962      6C6C645F 
 1962      6261636B 
 1962      75705F64 
 1962      6F6D6169 
 1963              	.LASF74:
 1964 0299 63685F73 		.ascii	"ch_system_t\000"
 1964      79737465 
 1964      6D5F7400 
 1965              	.LASF20:
 1966 02a5 746D6F64 		.ascii	"tmode_t\000"
 1966      655F7400 
 1967              	.LASF108:
 1968 02ad 41504232 		.ascii	"APB2LPENR\000"
 1968      4C50454E 
 1968      5200
 1969              	.LASF53:
 1970 02b7 63685F72 		.ascii	"ch_ready_list\000"
 1970      65616479 
 1970      5F6C6973 
 1970      7400
 1971              	.LASF25:
 1972 02c5 6576656E 		.ascii	"eventmask_t\000"
 1972      746D6173 
 1972      6B5F7400 
 1973              	.LASF9:
 1974 02d1 5F5F696E 		.ascii	"__int32_t\000"
 1974      7433325F 
 1974      7400
 1975              	.LASF116:
 1976 02db 73746B61 		.ascii	"stkalign_t\000"
ARM GAS  /tmp/ccqtJEVF.s 			page 38


 1976      6C69676E 
 1976      5F7400
 1977              	.LASF47:
 1978 02e6 74687265 		.ascii	"threads_list_t\000"
 1978      6164735F 
 1978      6C697374 
 1978      5F7400
 1979              	.LASF61:
 1980 02f5 76697274 		.ascii	"virtual_timer_t\000"
 1980      75616C5F 
 1980      74696D65 
 1980      725F7400 
 1981              	.LASF39:
 1982 0305 705F7761 		.ascii	"p_waiting\000"
 1982      6974696E 
 1982      6700
 1983              	.LASF80:
 1984 030f 73697A65 		.ascii	"sizetype\000"
 1984      74797065 
 1984      00
 1985              	.LASF46:
 1986 0318 74687265 		.ascii	"thread_reference_t\000"
 1986      61645F72 
 1986      65666572 
 1986      656E6365 
 1986      5F7400
 1987              	.LASF69:
 1988 032b 63685F76 		.ascii	"ch_virtual_timers_list\000"
 1988      69727475 
 1988      616C5F74 
 1988      696D6572 
 1988      735F6C69 
 1989              	.LASF2:
 1990 0342 6C6F6E67 		.ascii	"long double\000"
 1990      20646F75 
 1990      626C6500 
 1991              	.LASF29:
 1992 034e 705F6E65 		.ascii	"p_next\000"
 1992      787400
 1993              	.LASF98:
 1994 0355 41484233 		.ascii	"AHB3ENR\000"
 1994      454E5200 
 1995              	.LASF70:
 1996 035d 76745F6C 		.ascii	"vt_lasttime\000"
 1996      61737474 
 1996      696D6500 
 1997              	.LASF34:
 1998 0369 705F6F6C 		.ascii	"p_older\000"
 1998      64657200 
 1999              	.LASF56:
 2000 0371 725F6374 		.ascii	"r_ctx\000"
 2000      7800
 2001              	.LASF104:
 2002 0377 41484232 		.ascii	"AHB2LPENR\000"
 2002      4C50454E 
 2002      5200
 2003              	.LASF120:
ARM GAS  /tmp/ccqtJEVF.s 			page 39


 2004 0381 746D5F63 		.ascii	"tm_calibration_t\000"
 2004      616C6962 
 2004      72617469 
 2004      6F6E5F74 
 2004      00
 2005              	.LASF59:
 2006 0392 725F6375 		.ascii	"r_current\000"
 2006      7272656E 
 2006      7400
 2007              	.LASF93:
 2008 039c 41504231 		.ascii	"APB1RSTR\000"
 2008      52535452 
 2008      00
 2009              	.LASF13:
 2010 03a5 5F5F7569 		.ascii	"__uint64_t\000"
 2010      6E743634 
 2010      5F7400
 2011              	.LASF22:
 2012 03b0 74726566 		.ascii	"trefs_t\000"
 2012      735F7400 
 2013              	.LASF92:
 2014 03b8 52455345 		.ascii	"RESERVED0\000"
 2014      52564544 
 2014      3000
 2015              	.LASF95:
 2016 03c2 52455345 		.ascii	"RESERVED1\000"
 2016      52564544 
 2016      3100
 2017              	.LASF99:
 2018 03cc 52455345 		.ascii	"RESERVED2\000"
 2018      52564544 
 2018      3200
 2019              	.LASF102:
 2020 03d6 52455345 		.ascii	"RESERVED3\000"
 2020      52564544 
 2020      3300
 2021              	.LASF106:
 2022 03e0 52455345 		.ascii	"RESERVED4\000"
 2022      52564544 
 2022      3400
 2023              	.LASF30:
 2024 03ea 705F7072 		.ascii	"p_prev\000"
 2024      657600
 2025              	.LASF111:
 2026 03f1 52455345 		.ascii	"RESERVED6\000"
 2026      52564544 
 2026      3600
 2027              	.LASF23:
 2028 03fb 74707269 		.ascii	"tprio_t\000"
 2028      6F5F7400 
 2029              	.LASF72:
 2030 0403 63685F73 		.ascii	"ch_system_debug\000"
 2030      79737465 
 2030      6D5F6465 
 2030      62756700 
 2031              	.LASF137:
 2032 0413 5F426F6F 		.ascii	"_Bool\000"
ARM GAS  /tmp/ccqtJEVF.s 			page 40


 2032      6C00
 2033              	.LASF16:
 2034 0419 696E7433 		.ascii	"int32_t\000"
 2034      325F7400 
 2035              	.LASF6:
 2036 0421 756E7369 		.ascii	"unsigned char\000"
 2036      676E6564 
 2036      20636861 
 2036      7200
 2037              	.LASF43:
 2038 042f 705F6D74 		.ascii	"p_mtxlist\000"
 2038      786C6973 
 2038      7400
 2039              	.LASF7:
 2040 0439 73686F72 		.ascii	"short int\000"
 2040      7420696E 
 2040      7400
 2041              	.LASF36:
 2042 0443 705F7374 		.ascii	"p_state\000"
 2042      61746500 
 2043              	.LASF105:
 2044 044b 41484233 		.ascii	"AHB3LPENR\000"
 2044      4C50454E 
 2044      5200
 2045              	.LASF55:
 2046 0455 725F7072 		.ascii	"r_prio\000"
 2046      696F00
 2047              	.LASF140:
 2048 045c 474E5520 		.ascii	"GNU C11 5.3.1 20160307 (release) [ARM/embedded-5-br"
 2048      43313120 
 2048      352E332E 
 2048      31203230 
 2048      31363033 
 2049 048f 616E6368 		.ascii	"anch revision 234589] -mcpu=cortex-m4 -mno-thumb-in"
 2049      20726576 
 2049      6973696F 
 2049      6E203233 
 2049      34353839 
 2050 04c2 74657277 		.ascii	"terwork -mthumb -ggdb -O2 -fomit-frame-pointer -fal"
 2050      6F726B20 
 2050      2D6D7468 
 2050      756D6220 
 2050      2D676764 
 2051 04f5 69676E2D 		.ascii	"ign-functions=16 -ffunction-sections -fdata-section"
 2051      66756E63 
 2051      74696F6E 
 2051      733D3136 
 2051      202D6666 
 2052 0528 73202D66 		.ascii	"s -fno-common\000"
 2052      6E6F2D63 
 2052      6F6D6D6F 
 2052      6E00
 2053              	.LASF127:
 2054 0536 65776D61 		.ascii	"ewmask\000"
 2054      736B00
 2055              	.LASF37:
 2056 053d 705F666C 		.ascii	"p_flags\000"
ARM GAS  /tmp/ccqtJEVF.s 			page 41


 2056      61677300 
 2057              	.LASF101:
 2058 0545 41504232 		.ascii	"APB2ENR\000"
 2058      454E5200 
 2059              	.LASF62:
 2060 054d 63685F76 		.ascii	"ch_virtual_timer\000"
 2060      69727475 
 2060      616C5F74 
 2060      696D6572 
 2060      00
 2061              	.LASF128:
 2062 055e 63685F73 		.ascii	"ch_semaphore\000"
 2062      656D6170 
 2062      686F7265 
 2062      00
 2063              	.LASF42:
 2064 056b 705F6570 		.ascii	"p_epending\000"
 2064      656E6469 
 2064      6E6700
 2065              	.LASF109:
 2066 0576 52455345 		.ascii	"RESERVED5\000"
 2066      52564544 
 2066      3500
 2067              	.LASF17:
 2068 0580 75696E74 		.ascii	"uint32_t\000"
 2068      33325F74 
 2068      00
 2069              	.LASF126:
 2070 0589 77746D74 		.ascii	"wtmtxp\000"
 2070      787000
 2071              	.LASF54:
 2072 0590 725F7175 		.ascii	"r_queue\000"
 2072      65756500 
 2073              	.LASF65:
 2074 0598 76745F64 		.ascii	"vt_delta\000"
 2074      656C7461 
 2074      00
 2075              	.LASF49:
 2076 05a1 63685F74 		.ascii	"ch_threads_list\000"
 2076      68726561 
 2076      64735F6C 
 2076      69737400 
 2077              	.LASF145:
 2078 05b1 646D6149 		.ascii	"dmaInit\000"
 2078      6E697400 
 2079              	.LASF12:
 2080 05b9 6C6F6E67 		.ascii	"long unsigned int\000"
 2080      20756E73 
 2080      69676E65 
 2080      6420696E 
 2080      7400
 2081              	.LASF135:
 2082 05cb 63686172 		.ascii	"char\000"
 2082      00
 2083              	.LASF90:
 2084 05d0 41484232 		.ascii	"AHB2RSTR\000"
 2084      52535452 
ARM GAS  /tmp/ccqtJEVF.s 			page 42


 2084      00
 2085              	.LASF28:
 2086 05d9 74687265 		.ascii	"thread_t\000"
 2086      61645F74 
 2086      00
 2087              	.LASF134:
 2088 05e2 6D5F6E65 		.ascii	"m_next\000"
 2088      787400
 2089              	.LASF27:
 2090 05e9 73797374 		.ascii	"systime_t\000"
 2090      696D655F 
 2090      7400
 2091              	.LASF44:
 2092 05f3 705F7265 		.ascii	"p_realprio\000"
 2092      616C7072 
 2092      696F00
 2093              	.LASF60:
 2094 05fe 76746675 		.ascii	"vtfunc_t\000"
 2094      6E635F74 
 2094      00
 2095              	.LASF11:
 2096 0607 5F5F7569 		.ascii	"__uint32_t\000"
 2096      6E743332 
 2096      5F7400
 2097              	.LASF73:
 2098 0612 70616E69 		.ascii	"panic_msg\000"
 2098      635F6D73 
 2098      6700
 2099              	.LASF119:
 2100 061c 6F666673 		.ascii	"offset\000"
 2100      657400
 2101              	.LASF100:
 2102 0623 41504231 		.ascii	"APB1ENR\000"
 2102      454E5200 
 2103              	.LASF97:
 2104 062b 41484232 		.ascii	"AHB2ENR\000"
 2104      454E5200 
 2105              	.LASF117:
 2106 0633 636F6E74 		.ascii	"context\000"
 2106      65787400 
 2107              	.LASF58:
 2108 063b 725F6F6C 		.ascii	"r_older\000"
 2108      64657200 
 2109              	.LASF143:
 2110 0643 68616C5F 		.ascii	"hal_lld_init\000"
 2110      6C6C645F 
 2110      696E6974 
 2110      00
 2111              	.LASF19:
 2112 0650 7274636E 		.ascii	"rtcnt_t\000"
 2112      745F7400 
 2113              	.LASF67:
 2114 0658 76745F70 		.ascii	"vt_par\000"
 2114      617200
 2115              	.LASF112:
 2116 065f 53534347 		.ascii	"SSCGR\000"
 2116      5200
ARM GAS  /tmp/ccqtJEVF.s 			page 43


 2117              	.LASF50:
 2118 0665 74687265 		.ascii	"threads_queue_t\000"
 2118      6164735F 
 2118      71756575 
 2118      655F7400 
 2119              	.LASF131:
 2120 0675 63685F6D 		.ascii	"ch_mutex\000"
 2120      75746578 
 2120      00
 2121              	.LASF38:
 2122 067e 705F7265 		.ascii	"p_refs\000"
 2122      667300
 2123              	.LASF110:
 2124 0685 42444352 		.ascii	"BDCR\000"
 2124      00
 2125              	.LASF76:
 2126 068a 726C6973 		.ascii	"rlist\000"
 2126      7400
 2127              	.LASF15:
 2128 0690 75696E74 		.ascii	"uint8_t\000"
 2128      385F7400 
 2129              	.LASF123:
 2130 0698 77746F62 		.ascii	"wtobjp\000"
 2130      6A7000
 2131              	.LASF35:
 2132 069f 705F6E61 		.ascii	"p_name\000"
 2132      6D6500
 2133              	.LASF96:
 2134 06a6 41484231 		.ascii	"AHB1ENR\000"
 2134      454E5200 
 2135              	.LASF88:
 2136 06ae 43464752 		.ascii	"CFGR\000"
 2136      00
 2137              	.LASF41:
 2138 06b3 705F6D73 		.ascii	"p_msg\000"
 2138      6700
 2139              	.LASF133:
 2140 06b9 6D5F6F77 		.ascii	"m_owner\000"
 2140      6E657200 
 2141              	.LASF32:
 2142 06c1 705F6374 		.ascii	"p_ctx\000"
 2142      7800
 2143              	.LASF66:
 2144 06c7 76745F66 		.ascii	"vt_func\000"
 2144      756E6300 
 2145              		.ident	"GCC: (GNU Tools for ARM Embedded Processors) 5.3.1 20160307 (release) [ARM/embedded-5-bran
ARM GAS  /tmp/ccqtJEVF.s 			page 44


DEFINED SYMBOLS
                            *ABS*:0000000000000000 hal_lld.c
     /tmp/ccqtJEVF.s:20     .text.hal_lld_init:0000000000000000 $t
     /tmp/ccqtJEVF.s:26     .text.hal_lld_init:0000000000000000 hal_lld_init
     /tmp/ccqtJEVF.s:109    .text.hal_lld_init:000000000000005c $d
     /tmp/ccqtJEVF.s:115    .text.stm32_clock_init:0000000000000000 $t
     /tmp/ccqtJEVF.s:121    .text.stm32_clock_init:0000000000000000 stm32_clock_init
     /tmp/ccqtJEVF.s:245    .text.stm32_clock_init:00000000000000b4 $d
     /tmp/ccqtJEVF.s:258    .data.SystemCoreClock:0000000000000000 SystemCoreClock
     /tmp/ccqtJEVF.s:255    .data.SystemCoreClock:0000000000000000 $d
                     .debug_frame:0000000000000010 $d

UNDEFINED SYMBOLS
dmaInit
