ARM GAS  /tmp/ccgPMAqj.s 			page 1


   1              		.syntax unified
   2              		.cpu cortex-m4
   3              		.fpu softvfp
   4              		.eabi_attribute 20, 1
   5              		.eabi_attribute 21, 1
   6              		.eabi_attribute 23, 3
   7              		.eabi_attribute 24, 1
   8              		.eabi_attribute 25, 1
   9              		.eabi_attribute 26, 1
  10              		.eabi_attribute 30, 2
  11              		.eabi_attribute 34, 1
  12              		.eabi_attribute 18, 4
  13              		.thumb
  14              		.syntax unified
  15              		.file	"chvt.c"
  16              		.text
  17              	.Ltext0:
  18              		.cfi_sections	.debug_frame
  19              		.section	.text._vt_init,"ax",%progbits
  20              		.align	2
  21              		.p2align 4,,15
  22              		.global	_vt_init
  23              		.thumb
  24              		.thumb_func
  25              		.type	_vt_init, %function
  26              	_vt_init:
  27              	.LFB227:
  28              		.file 1 "/home/selim/working/ChibiOS/os/rt/src/chvt.c"
  29              		.loc 1 61 0
  30              		.cfi_startproc
  31              		@ args = 0, pretend = 0, frame = 0
  32              		@ frame_needed = 0, uses_anonymous_args = 0
  33              		@ link register save eliminated.
  34              		.loc 1 63 0
  35 0000 054B     		ldr	r3, .L2
  36              		.loc 1 65 0
  37 0002 4FF0FF30 		mov	r0, #-1
  38              		.loc 1 63 0
  39 0006 03F11C02 		add	r2, r3, #28
  40              		.loc 1 69 0
  41 000a 0021     		movs	r1, #0
  42              		.loc 1 65 0
  43 000c 5862     		str	r0, [r3, #36]
  44              		.loc 1 69 0
  45 000e 9962     		str	r1, [r3, #40]
  46              		.loc 1 63 0
  47 0010 DA61     		str	r2, [r3, #28]
  48              		.loc 1 64 0
  49 0012 1A62     		str	r2, [r3, #32]
  50 0014 7047     		bx	lr
  51              	.L3:
  52 0016 00BF     		.align	2
  53              	.L2:
  54 0018 00000000 		.word	ch
  55              		.cfi_endproc
  56              	.LFE227:
  57              		.size	_vt_init, .-_vt_init
ARM GAS  /tmp/ccgPMAqj.s 			page 2


  58              		.section	.text.chVTDoSetI,"ax",%progbits
  59              		.align	2
  60              		.p2align 4,,15
  61              		.global	chVTDoSetI
  62              		.thumb
  63              		.thumb_func
  64              		.type	chVTDoSetI, %function
  65              	chVTDoSetI:
  66              	.LFB228:
  67              		.loc 1 96 0
  68              		.cfi_startproc
  69              		@ args = 0, pretend = 0, frame = 0
  70              		@ frame_needed = 0, uses_anonymous_args = 0
  71              	.LVL0:
  72 0000 F8B5     		push	{r3, r4, r5, r6, r7, lr}
  73              		.cfi_def_cfa_offset 24
  74              		.cfi_offset 3, -24
  75              		.cfi_offset 4, -20
  76              		.cfi_offset 5, -16
  77              		.cfi_offset 6, -12
  78              		.cfi_offset 7, -8
  79              		.cfi_offset 14, -4
  80              	.LBB27:
  81              		.loc 1 117 0
  82 0002 1C4E     		ldr	r6, .L15
  83 0004 3446     		mov	r4, r6
  84              		.loc 1 113 0
  85 0006 0129     		cmp	r1, #1
  86 0008 98BF     		it	ls
  87 000a 0221     		movls	r1, #2
  88              	.LVL1:
  89              		.loc 1 117 0
  90 000c 54F81C7F 		ldr	r7, [r4, #28]!
  91              	.LBE27:
  92              		.loc 1 103 0
  93 0010 0361     		str	r3, [r0, #16]
  94              	.LBB42:
  95              	.LBB28:
  96              	.LBB29:
  97              	.LBB30:
  98              	.LBB31:
  99              		.file 2 "/home/selim/working/ChibiOS/os/hal/ports/STM32/LLD/TIMv1/st_lld.h"
 100              		.loc 2 129 0
 101 0012 4FF08043 		mov	r3, #1073741824
 102              	.LVL2:
 103              	.LBE31:
 104              	.LBE30:
 105              	.LBE29:
 106              	.LBE28:
 107              		.loc 1 117 0
 108 0016 A742     		cmp	r7, r4
 109              	.LBE42:
 110              		.loc 1 96 0
 111 0018 0546     		mov	r5, r0
 112              		.loc 1 104 0
 113 001a C260     		str	r2, [r0, #12]
 114              	.LBB43:
ARM GAS  /tmp/ccgPMAqj.s 			page 3


 115              	.LBB35:
 116              	.LBB34:
 117              	.LBB33:
 118              	.LBB32:
 119              		.loc 2 129 0
 120 001c 586A     		ldr	r0, [r3, #36]
 121              	.LVL3:
 122              	.LBE32:
 123              	.LBE33:
 124              	.LBE34:
 125              	.LBE35:
 126              		.loc 1 117 0
 127 001e 1ED0     		beq	.L13
 128              		.loc 1 136 0
 129 0020 B46A     		ldr	r4, [r6, #40]
 130              		.loc 1 137 0
 131 0022 BB68     		ldr	r3, [r7, #8]
 132              		.loc 1 136 0
 133 0024 0844     		add	r0, r0, r1
 134 0026 041B     		subs	r4, r0, r4
 135              	.LVL4:
 136              		.loc 1 137 0
 137 0028 9C42     		cmp	r4, r3
 138 002a 15D3     		bcc	.L14
 139              	.LVL5:
 140              	.L7:
 141              	.LBE43:
 142              		.loc 1 150 0
 143 002c F369     		ldr	r3, [r6, #28]
 144              	.LVL6:
 145              		.loc 1 151 0
 146 002e 9A68     		ldr	r2, [r3, #8]
 147 0030 9442     		cmp	r4, r2
 148 0032 04D9     		bls	.L8
 149              	.L9:
 150              		.loc 1 153 0
 151 0034 1B68     		ldr	r3, [r3]
 152              	.LVL7:
 153              		.loc 1 152 0
 154 0036 A41A     		subs	r4, r4, r2
 155              	.LVL8:
 156              		.loc 1 151 0
 157 0038 9A68     		ldr	r2, [r3, #8]
 158 003a A242     		cmp	r2, r4
 159 003c FAD3     		bcc	.L9
 160              	.L8:
 161              		.loc 1 158 0
 162 003e 5A68     		ldr	r2, [r3, #4]
 163 0040 6A60     		str	r2, [r5, #4]
 164              		.loc 1 157 0
 165 0042 2B60     		str	r3, [r5]
 166              		.loc 1 159 0
 167 0044 1560     		str	r5, [r2]
 168              		.loc 1 160 0
 169 0046 5D60     		str	r5, [r3, #4]
 170              		.loc 1 161 0
 171 0048 AC60     		str	r4, [r5, #8]
ARM GAS  /tmp/ccgPMAqj.s 			page 4


 172              		.loc 1 165 0
 173 004a 9A68     		ldr	r2, [r3, #8]
 174              		.loc 1 166 0
 175 004c 4FF0FF31 		mov	r1, #-1
 176              		.loc 1 165 0
 177 0050 141B     		subs	r4, r2, r4
 178              	.LVL9:
 179 0052 9C60     		str	r4, [r3, #8]
 180              	.LVL10:
 181              		.loc 1 166 0
 182 0054 7162     		str	r1, [r6, #36]
 183 0056 F8BD     		pop	{r3, r4, r5, r6, r7, pc}
 184              	.LVL11:
 185              	.L14:
 186              	.LBB44:
 187              	.LBB36:
 188              	.LBB37:
 189              		.file 3 "/home/selim/working/ChibiOS/os/rt/ports/ARMCMx/chcore_timer.h"
 190              		.loc 3 95 0
 191 0058 FFF7FEFF 		bl	stSetAlarm
 192              	.LVL12:
 193 005c E6E7     		b	.L7
 194              	.LVL13:
 195              	.L13:
 196              	.LBE37:
 197              	.LBE36:
 198              		.loc 1 121 0
 199 005e B062     		str	r0, [r6, #40]
 200              		.loc 1 122 0
 201 0060 F561     		str	r5, [r6, #28]
 202              		.loc 1 123 0
 203 0062 3562     		str	r5, [r6, #32]
 204              	.LBB38:
 205              	.LBB39:
 206              		.loc 3 73 0
 207 0064 0844     		add	r0, r0, r1
 208              	.LBE39:
 209              	.LBE38:
 210              		.loc 1 124 0
 211 0066 2F60     		str	r7, [r5]
 212              		.loc 1 125 0
 213 0068 6F60     		str	r7, [r5, #4]
 214              		.loc 1 126 0
 215 006a A960     		str	r1, [r5, #8]
 216              	.LVL14:
 217              	.LBE44:
 218              		.loc 1 167 0
 219 006c BDE8F840 		pop	{r3, r4, r5, r6, r7, lr}
 220              		.cfi_restore 14
 221              		.cfi_restore 7
 222              		.cfi_restore 6
 223              		.cfi_restore 5
 224              		.cfi_restore 4
 225              		.cfi_restore 3
 226              		.cfi_def_cfa_offset 0
 227              	.LVL15:
 228              	.LBB45:
ARM GAS  /tmp/ccgPMAqj.s 			page 5


 229              	.LBB41:
 230              	.LBB40:
 231              		.loc 3 73 0
 232 0070 FFF7FEBF 		b	stStartAlarm
 233              	.LVL16:
 234              	.L16:
 235              		.align	2
 236              	.L15:
 237 0074 00000000 		.word	ch
 238              	.LBE40:
 239              	.LBE41:
 240              	.LBE45:
 241              		.cfi_endproc
 242              	.LFE228:
 243              		.size	chVTDoSetI, .-chVTDoSetI
 244              		.section	.text.chVTDoResetI,"ax",%progbits
 245              		.align	2
 246              		.p2align 4,,15
 247              		.global	chVTDoResetI
 248              		.thumb
 249              		.thumb_func
 250              		.type	chVTDoResetI, %function
 251              	chVTDoResetI:
 252              	.LFB229:
 253              		.loc 1 177 0
 254              		.cfi_startproc
 255              		@ args = 0, pretend = 0, frame = 0
 256              		@ frame_needed = 0, uses_anonymous_args = 0
 257              		@ link register save eliminated.
 258              	.LVL17:
 259              		.loc 1 201 0
 260 0000 194B     		ldr	r3, .L26
 261 0002 DA69     		ldr	r2, [r3, #28]
 262 0004 8242     		cmp	r2, r0
 263              		.loc 1 177 0
 264 0006 10B4     		push	{r4}
 265              		.cfi_def_cfa_offset 4
 266              		.cfi_offset 4, -4
 267              		.loc 1 201 0
 268 0008 0FD0     		beq	.L18
 269              		.loc 1 203 0
 270 000a 4168     		ldr	r1, [r0, #4]
 271 000c 0268     		ldr	r2, [r0]
 272 000e 0A60     		str	r2, [r1]
 273              		.loc 1 204 0
 274 0010 0268     		ldr	r2, [r0]
 275              		.loc 1 208 0
 276 0012 1C33     		adds	r3, r3, #28
 277              		.loc 1 205 0
 278 0014 0024     		movs	r4, #0
 279              		.loc 1 208 0
 280 0016 9A42     		cmp	r2, r3
 281              		.loc 1 204 0
 282 0018 5160     		str	r1, [r2, #4]
 283              		.loc 1 205 0
 284 001a C460     		str	r4, [r0, #12]
 285              		.loc 1 208 0
ARM GAS  /tmp/ccgPMAqj.s 			page 6


 286 001c 03D0     		beq	.L17
 287              		.loc 1 209 0
 288 001e 8368     		ldr	r3, [r0, #8]
 289 0020 9168     		ldr	r1, [r2, #8]
 290 0022 0B44     		add	r3, r3, r1
 291 0024 9360     		str	r3, [r2, #8]
 292              	.LVL18:
 293              	.L17:
 294              		.loc 1 255 0
 295 0026 10BC     		pop	{r4}
 296              		.cfi_remember_state
 297              		.cfi_restore 4
 298              		.cfi_def_cfa_offset 0
 299 0028 7047     		bx	lr
 300              	.LVL19:
 301              	.L18:
 302              		.cfi_restore_state
 303              		.loc 1 215 0
 304 002a 1846     		mov	r0, r3
 305              	.LVL20:
 306 002c 1168     		ldr	r1, [r2]
 307 002e 40F81C1F 		str	r1, [r0, #28]!
 308              		.loc 1 217 0
 309 0032 0024     		movs	r4, #0
 310              		.loc 1 220 0
 311 0034 8142     		cmp	r1, r0
 312              		.loc 1 216 0
 313 0036 4860     		str	r0, [r1, #4]
 314              		.loc 1 217 0
 315 0038 D460     		str	r4, [r2, #12]
 316              		.loc 1 220 0
 317 003a 12D0     		beq	.L25
 318              		.loc 1 227 0
 319 003c 9268     		ldr	r2, [r2, #8]
 320 003e 8868     		ldr	r0, [r1, #8]
 321              		.loc 1 236 0
 322 0040 9C6A     		ldr	r4, [r3, #40]
 323              		.loc 1 227 0
 324 0042 8318     		adds	r3, r0, r2
 325              	.LBB46:
 326              	.LBB47:
 327              	.LBB48:
 328              	.LBB49:
 329              		.loc 2 129 0
 330 0044 4FF08042 		mov	r2, #1073741824
 331              	.LBE49:
 332              	.LBE48:
 333              	.LBE47:
 334              	.LBE46:
 335              		.loc 1 227 0
 336 0048 8B60     		str	r3, [r1, #8]
 337              	.LBB53:
 338              	.LBB52:
 339              	.LBB51:
 340              	.LBB50:
 341              		.loc 2 129 0
 342 004a 506A     		ldr	r0, [r2, #36]
ARM GAS  /tmp/ccgPMAqj.s 			page 7


 343              	.LBE50:
 344              	.LBE51:
 345              	.LBE52:
 346              	.LBE53:
 347              		.loc 1 236 0
 348 004c 021B     		subs	r2, r0, r4
 349              	.LVL21:
 350              		.loc 1 240 0
 351 004e 9342     		cmp	r3, r2
 352 0050 E9D9     		bls	.L17
 353              		.loc 1 245 0
 354 0052 9B1A     		subs	r3, r3, r2
 355              	.LVL22:
 356              		.loc 1 249 0
 357 0054 012B     		cmp	r3, #1
 358              		.loc 1 250 0
 359 0056 98BF     		it	ls
 360 0058 0223     		movls	r3, #2
 361              	.LVL23:
 362              	.LBB54:
 363              	.LBB55:
 364              		.loc 3 95 0
 365 005a 1844     		add	r0, r0, r3
 366              	.LVL24:
 367              	.LBE55:
 368              	.LBE54:
 369              		.loc 1 255 0
 370 005c 10BC     		pop	{r4}
 371              		.cfi_remember_state
 372              		.cfi_restore 4
 373              		.cfi_def_cfa_offset 0
 374              	.LBB57:
 375              	.LBB56:
 376              		.loc 3 95 0
 377 005e FFF7FEBF 		b	stSetAlarm
 378              	.LVL25:
 379              	.L25:
 380              		.cfi_restore_state
 381              	.LBE56:
 382              	.LBE57:
 383              		.loc 1 255 0
 384 0062 10BC     		pop	{r4}
 385              		.cfi_restore 4
 386              		.cfi_def_cfa_offset 0
 387              	.LBB58:
 388              	.LBB59:
 389              		.loc 3 83 0
 390 0064 FFF7FEBF 		b	stStopAlarm
 391              	.LVL26:
 392              	.L27:
 393              		.align	2
 394              	.L26:
 395 0068 00000000 		.word	ch
 396              	.LBE59:
 397              	.LBE58:
 398              		.cfi_endproc
 399              	.LFE229:
ARM GAS  /tmp/ccgPMAqj.s 			page 8


 400              		.size	chVTDoResetI, .-chVTDoResetI
 401              		.text
 402              	.Letext0:
 403              		.file 4 "/usr/arm-none-eabi/include/machine/_default_types.h"
 404              		.file 5 "/usr/arm-none-eabi/include/sys/_stdint.h"
 405              		.file 6 "/home/selim/working/ChibiOS/os/rt/ports/ARMCMx/compilers/GCC/chtypes.h"
 406              		.file 7 "/home/selim/working/ChibiOS/os/rt/include/chsystypes.h"
 407              		.file 8 "/home/selim/working/ChibiOS/os/rt/include/chschd.h"
 408              		.file 9 "/home/selim/working/ChibiOS/os/rt/ports/ARMCMx/chcore.h"
 409              		.file 10 "/home/selim/working/ChibiOS/os/rt/ports/ARMCMx/chcore_v7m.h"
 410              		.file 11 "/home/selim/working/ChibiOS/os/hal/ports/STM32/LLD/TIMv1/stm32_tim.h"
 411              		.file 12 "/home/selim/working/ChibiOS/os/rt/include/chtm.h"
 412              		.file 13 "/home/selim/working/ChibiOS/os/rt/include/chsem.h"
 413              		.file 14 "/home/selim/working/ChibiOS/os/rt/include/chmtx.h"
 414              		.file 15 "/home/selim/working/ChibiOS/os/rt/include/chvt.h"
 415              		.file 16 "/home/selim/working/ChibiOS/os/hal/include/st.h"
 416              		.file 17 "/home/selim/working/ChibiOS/os/ext/CMSIS/include/core_cm4.h"