ARM GAS  /tmp/ccgPMAqj.s 			page 1


   1              		.syntax unified
   2              		.cpu cortex-m4
   3              		.fpu softvfp
   4              		.eabi_attribute 20, 1
   5              		.eabi_attribute 21, 1
   6              		.eabi_attribute 23, 3
   7              		.eabi_attribute 24, 1
   8              		.eabi_attribute 25, 1
   9              		.eabi_attribute 26, 1
  10              		.eabi_attribute 30, 2
  11              		.eabi_attribute 34, 1
  12              		.eabi_attribute 18, 4
  13              		.thumb
  14              		.syntax unified
  15              		.file	"chvt.c"
  16              		.text
  17              	.Ltext0:
  18              		.cfi_sections	.debug_frame
  19              		.section	.text._vt_init,"ax",%progbits
  20              		.align	2
  21              		.p2align 4,,15
  22              		.global	_vt_init
  23              		.thumb
  24              		.thumb_func
  25              		.type	_vt_init, %function
  26              	_vt_init:
  27              	.LFB227:
  28              		.file 1 "/home/selim/working/ChibiOS/os/rt/src/chvt.c"
  29              		.loc 1 61 0
  30              		.cfi_startproc
  31              		@ args = 0, pretend = 0, frame = 0
  32              		@ frame_needed = 0, uses_anonymous_args = 0
  33              		@ link register save eliminated.
  34              		.loc 1 63 0
  35 0000 054B     		ldr	r3, .L2
  36              		.loc 1 65 0
  37 0002 4FF0FF30 		mov	r0, #-1
  38              		.loc 1 63 0
  39 0006 03F11C02 		add	r2, r3, #28
  40              		.loc 1 69 0
  41 000a 0021     		movs	r1, #0
  42              		.loc 1 65 0
  43 000c 5862     		str	r0, [r3, #36]
  44              		.loc 1 69 0
  45 000e 9962     		str	r1, [r3, #40]
  46              		.loc 1 63 0
  47 0010 DA61     		str	r2, [r3, #28]
  48              		.loc 1 64 0
  49 0012 1A62     		str	r2, [r3, #32]
  50 0014 7047     		bx	lr
  51              	.L3:
  52 0016 00BF     		.align	2
  53              	.L2:
  54 0018 00000000 		.word	ch
  55              		.cfi_endproc
  56              	.LFE227:
  57              		.size	_vt_init, .-_vt_init
ARM GAS  /tmp/ccgPMAqj.s 			page 2


  58              		.section	.text.chVTDoSetI,"ax",%progbits
  59              		.align	2
  60              		.p2align 4,,15
  61              		.global	chVTDoSetI
  62              		.thumb
  63              		.thumb_func
  64              		.type	chVTDoSetI, %function
  65              	chVTDoSetI:
  66              	.LFB228:
  67              		.loc 1 96 0
  68              		.cfi_startproc
  69              		@ args = 0, pretend = 0, frame = 0
  70              		@ frame_needed = 0, uses_anonymous_args = 0
  71              	.LVL0:
  72 0000 F8B5     		push	{r3, r4, r5, r6, r7, lr}
  73              		.cfi_def_cfa_offset 24
  74              		.cfi_offset 3, -24
  75              		.cfi_offset 4, -20
  76              		.cfi_offset 5, -16
  77              		.cfi_offset 6, -12
  78              		.cfi_offset 7, -8
  79              		.cfi_offset 14, -4
  80              	.LBB27:
  81              		.loc 1 117 0
  82 0002 1C4E     		ldr	r6, .L15
  83 0004 3446     		mov	r4, r6
  84              		.loc 1 113 0
  85 0006 0129     		cmp	r1, #1
  86 0008 98BF     		it	ls
  87 000a 0221     		movls	r1, #2
  88              	.LVL1:
  89              		.loc 1 117 0
  90 000c 54F81C7F 		ldr	r7, [r4, #28]!
  91              	.LBE27:
  92              		.loc 1 103 0
  93 0010 0361     		str	r3, [r0, #16]
  94              	.LBB42:
  95              	.LBB28:
  96              	.LBB29:
  97              	.LBB30:
  98              	.LBB31:
  99              		.file 2 "/home/selim/working/ChibiOS/os/hal/ports/STM32/LLD/TIMv1/st_lld.h"
 100              		.loc 2 129 0
 101 0012 4FF08043 		mov	r3, #1073741824
 102              	.LVL2:
 103              	.LBE31:
 104              	.LBE30:
 105              	.LBE29:
 106              	.LBE28:
 107              		.loc 1 117 0
 108 0016 A742     		cmp	r7, r4
 109              	.LBE42:
 110              		.loc 1 96 0
 111 0018 0546     		mov	r5, r0
 112              		.loc 1 104 0
 113 001a C260     		str	r2, [r0, #12]
 114              	.LBB43:
ARM GAS  /tmp/ccgPMAqj.s 			page 3


 115              	.LBB35:
 116              	.LBB34:
 117              	.LBB33:
 118              	.LBB32:
 119              		.loc 2 129 0
 120 001c 586A     		ldr	r0, [r3, #36]
 121              	.LVL3:
 122              	.LBE32:
 123              	.LBE33:
 124              	.LBE34:
 125              	.LBE35:
 126              		.loc 1 117 0
 127 001e 1ED0     		beq	.L13
 128              		.loc 1 136 0
 129 0020 B46A     		ldr	r4, [r6, #40]
 130              		.loc 1 137 0
 131 0022 BB68     		ldr	r3, [r7, #8]
 132              		.loc 1 136 0
 133 0024 0844     		add	r0, r0, r1
 134 0026 041B     		subs	r4, r0, r4
 135              	.LVL4:
 136              		.loc 1 137 0
 137 0028 9C42     		cmp	r4, r3
 138 002a 15D3     		bcc	.L14
 139              	.LVL5:
 140              	.L7:
 141              	.LBE43:
 142              		.loc 1 150 0
 143 002c F369     		ldr	r3, [r6, #28]
 144              	.LVL6:
 145              		.loc 1 151 0
 146 002e 9A68     		ldr	r2, [r3, #8]
 147 0030 9442     		cmp	r4, r2
 148 0032 04D9     		bls	.L8
 149              	.L9:
 150              		.loc 1 153 0
 151 0034 1B68     		ldr	r3, [r3]
 152              	.LVL7:
 153              		.loc 1 152 0
 154 0036 A41A     		subs	r4, r4, r2
 155              	.LVL8:
 156              		.loc 1 151 0
 157 0038 9A68     		ldr	r2, [r3, #8]
 158 003a A242     		cmp	r2, r4
 159 003c FAD3     		bcc	.L9
 160              	.L8:
 161              		.loc 1 158 0
 162 003e 5A68     		ldr	r2, [r3, #4]
 163 0040 6A60     		str	r2, [r5, #4]
 164              		.loc 1 157 0
 165 0042 2B60     		str	r3, [r5]
 166              		.loc 1 159 0
 167 0044 1560     		str	r5, [r2]
 168              		.loc 1 160 0
 169 0046 5D60     		str	r5, [r3, #4]
 170              		.loc 1 161 0
 171 0048 AC60     		str	r4, [r5, #8]
ARM GAS  /tmp/ccgPMAqj.s 			page 4


 172              		.loc 1 165 0
 173 004a 9A68     		ldr	r2, [r3, #8]
 174              		.loc 1 166 0
 175 004c 4FF0FF31 		mov	r1, #-1
 176              		.loc 1 165 0
 177 0050 141B     		subs	r4, r2, r4
 178              	.LVL9:
 179 0052 9C60     		str	r4, [r3, #8]
 180              	.LVL10:
 181              		.loc 1 166 0
 182 0054 7162     		str	r1, [r6, #36]
 183 0056 F8BD     		pop	{r3, r4, r5, r6, r7, pc}
 184              	.LVL11:
 185              	.L14:
 186              	.LBB44:
 187              	.LBB36:
 188              	.LBB37:
 189              		.file 3 "/home/selim/working/ChibiOS/os/rt/ports/ARMCMx/chcore_timer.h"
 190              		.loc 3 95 0
 191 0058 FFF7FEFF 		bl	stSetAlarm
 192              	.LVL12:
 193 005c E6E7     		b	.L7
 194              	.LVL13:
 195              	.L13:
 196              	.LBE37:
 197              	.LBE36:
 198              		.loc 1 121 0
 199 005e B062     		str	r0, [r6, #40]
 200              		.loc 1 122 0
 201 0060 F561     		str	r5, [r6, #28]
 202              		.loc 1 123 0
 203 0062 3562     		str	r5, [r6, #32]
 204              	.LBB38:
 205              	.LBB39:
 206              		.loc 3 73 0
 207 0064 0844     		add	r0, r0, r1
 208              	.LBE39:
 209              	.LBE38:
 210              		.loc 1 124 0
 211 0066 2F60     		str	r7, [r5]
 212              		.loc 1 125 0
 213 0068 6F60     		str	r7, [r5, #4]
 214              		.loc 1 126 0
 215 006a A960     		str	r1, [r5, #8]
 216              	.LVL14:
 217              	.LBE44:
 218              		.loc 1 167 0
 219 006c BDE8F840 		pop	{r3, r4, r5, r6, r7, lr}
 220              		.cfi_restore 14
 221              		.cfi_restore 7
 222              		.cfi_restore 6
 223              		.cfi_restore 5
 224              		.cfi_restore 4
 225              		.cfi_restore 3
 226              		.cfi_def_cfa_offset 0
 227              	.LVL15:
 228              	.LBB45:
ARM GAS  /tmp/ccgPMAqj.s 			page 5


 229              	.LBB41:
 230              	.LBB40:
 231              		.loc 3 73 0
 232 0070 FFF7FEBF 		b	stStartAlarm
 233              	.LVL16:
 234              	.L16:
 235              		.align	2
 236              	.L15:
 237 0074 00000000 		.word	ch
 238              	.LBE40:
 239              	.LBE41:
 240              	.LBE45:
 241              		.cfi_endproc
 242              	.LFE228:
 243              		.size	chVTDoSetI, .-chVTDoSetI
 244              		.section	.text.chVTDoResetI,"ax",%progbits
 245              		.align	2
 246              		.p2align 4,,15
 247              		.global	chVTDoResetI
 248              		.thumb
 249              		.thumb_func
 250              		.type	chVTDoResetI, %function
 251              	chVTDoResetI:
 252              	.LFB229:
 253              		.loc 1 177 0
 254              		.cfi_startproc
 255              		@ args = 0, pretend = 0, frame = 0
 256              		@ frame_needed = 0, uses_anonymous_args = 0
 257              		@ link register save eliminated.
 258              	.LVL17:
 259              		.loc 1 201 0
 260 0000 194B     		ldr	r3, .L26
 261 0002 DA69     		ldr	r2, [r3, #28]
 262 0004 8242     		cmp	r2, r0
 263              		.loc 1 177 0
 264 0006 10B4     		push	{r4}
 265              		.cfi_def_cfa_offset 4
 266              		.cfi_offset 4, -4
 267              		.loc 1 201 0
 268 0008 0FD0     		beq	.L18
 269              		.loc 1 203 0
 270 000a 4168     		ldr	r1, [r0, #4]
 271 000c 0268     		ldr	r2, [r0]
 272 000e 0A60     		str	r2, [r1]
 273              		.loc 1 204 0
 274 0010 0268     		ldr	r2, [r0]
 275              		.loc 1 208 0
 276 0012 1C33     		adds	r3, r3, #28
 277              		.loc 1 205 0
 278 0014 0024     		movs	r4, #0
 279              		.loc 1 208 0
 280 0016 9A42     		cmp	r2, r3
 281              		.loc 1 204 0
 282 0018 5160     		str	r1, [r2, #4]
 283              		.loc 1 205 0
 284 001a C460     		str	r4, [r0, #12]
 285              		.loc 1 208 0
ARM GAS  /tmp/ccgPMAqj.s 			page 6


 286 001c 03D0     		beq	.L17
 287              		.loc 1 209 0
 288 001e 8368     		ldr	r3, [r0, #8]
 289 0020 9168     		ldr	r1, [r2, #8]
 290 0022 0B44     		add	r3, r3, r1
 291 0024 9360     		str	r3, [r2, #8]
 292              	.LVL18:
 293              	.L17:
 294              		.loc 1 255 0
 295 0026 10BC     		pop	{r4}
 296              		.cfi_remember_state
 297              		.cfi_restore 4
 298              		.cfi_def_cfa_offset 0
 299 0028 7047     		bx	lr
 300              	.LVL19:
 301              	.L18:
 302              		.cfi_restore_state
 303              		.loc 1 215 0
 304 002a 1846     		mov	r0, r3
 305              	.LVL20:
 306 002c 1168     		ldr	r1, [r2]
 307 002e 40F81C1F 		str	r1, [r0, #28]!
 308              		.loc 1 217 0
 309 0032 0024     		movs	r4, #0
 310              		.loc 1 220 0
 311 0034 8142     		cmp	r1, r0
 312              		.loc 1 216 0
 313 0036 4860     		str	r0, [r1, #4]
 314              		.loc 1 217 0
 315 0038 D460     		str	r4, [r2, #12]
 316              		.loc 1 220 0
 317 003a 12D0     		beq	.L25
 318              		.loc 1 227 0
 319 003c 9268     		ldr	r2, [r2, #8]
 320 003e 8868     		ldr	r0, [r1, #8]
 321              		.loc 1 236 0
 322 0040 9C6A     		ldr	r4, [r3, #40]
 323              		.loc 1 227 0
 324 0042 8318     		adds	r3, r0, r2
 325              	.LBB46:
 326              	.LBB47:
 327              	.LBB48:
 328              	.LBB49:
 329              		.loc 2 129 0
 330 0044 4FF08042 		mov	r2, #1073741824
 331              	.LBE49:
 332              	.LBE48:
 333              	.LBE47:
 334              	.LBE46:
 335              		.loc 1 227 0
 336 0048 8B60     		str	r3, [r1, #8]
 337              	.LBB53:
 338              	.LBB52:
 339              	.LBB51:
 340              	.LBB50:
 341              		.loc 2 129 0
 342 004a 506A     		ldr	r0, [r2, #36]
ARM GAS  /tmp/ccgPMAqj.s 			page 7


 343              	.LBE50:
 344              	.LBE51:
 345              	.LBE52:
 346              	.LBE53:
 347              		.loc 1 236 0
 348 004c 021B     		subs	r2, r0, r4
 349              	.LVL21:
 350              		.loc 1 240 0
 351 004e 9342     		cmp	r3, r2
 352 0050 E9D9     		bls	.L17
 353              		.loc 1 245 0
 354 0052 9B1A     		subs	r3, r3, r2
 355              	.LVL22:
 356              		.loc 1 249 0
 357 0054 012B     		cmp	r3, #1
 358              		.loc 1 250 0
 359 0056 98BF     		it	ls
 360 0058 0223     		movls	r3, #2
 361              	.LVL23:
 362              	.LBB54:
 363              	.LBB55:
 364              		.loc 3 95 0
 365 005a 1844     		add	r0, r0, r3
 366              	.LVL24:
 367              	.LBE55:
 368              	.LBE54:
 369              		.loc 1 255 0
 370 005c 10BC     		pop	{r4}
 371              		.cfi_remember_state
 372              		.cfi_restore 4
 373              		.cfi_def_cfa_offset 0
 374              	.LBB57:
 375              	.LBB56:
 376              		.loc 3 95 0
 377 005e FFF7FEBF 		b	stSetAlarm
 378              	.LVL25:
 379              	.L25:
 380              		.cfi_restore_state
 381              	.LBE56:
 382              	.LBE57:
 383              		.loc 1 255 0
 384 0062 10BC     		pop	{r4}
 385              		.cfi_restore 4
 386              		.cfi_def_cfa_offset 0
 387              	.LBB58:
 388              	.LBB59:
 389              		.loc 3 83 0
 390 0064 FFF7FEBF 		b	stStopAlarm
 391              	.LVL26:
 392              	.L27:
 393              		.align	2
 394              	.L26:
 395 0068 00000000 		.word	ch
 396              	.LBE59:
 397              	.LBE58:
 398              		.cfi_endproc
 399              	.LFE229:
ARM GAS  /tmp/ccgPMAqj.s 			page 8


 400              		.size	chVTDoResetI, .-chVTDoResetI
 401              		.text
 402              	.Letext0:
 403              		.file 4 "/usr/arm-none-eabi/include/machine/_default_types.h"
 404              		.file 5 "/usr/arm-none-eabi/include/sys/_stdint.h"
 405              		.file 6 "/home/selim/working/ChibiOS/os/rt/ports/ARMCMx/compilers/GCC/chtypes.h"
 406              		.file 7 "/home/selim/working/ChibiOS/os/rt/include/chsystypes.h"
 407              		.file 8 "/home/selim/working/ChibiOS/os/rt/include/chschd.h"
 408              		.file 9 "/home/selim/working/ChibiOS/os/rt/ports/ARMCMx/chcore.h"
 409              		.file 10 "/home/selim/working/ChibiOS/os/rt/ports/ARMCMx/chcore_v7m.h"
 410              		.file 11 "/home/selim/working/ChibiOS/os/hal/ports/STM32/LLD/TIMv1/stm32_tim.h"
 411              		.file 12 "/home/selim/working/ChibiOS/os/rt/include/chtm.h"
 412              		.file 13 "/home/selim/working/ChibiOS/os/rt/include/chsem.h"
 413              		.file 14 "/home/selim/working/ChibiOS/os/rt/include/chmtx.h"
 414              		.file 15 "/home/selim/working/ChibiOS/os/rt/include/chvt.h"
 415              		.file 16 "/home/selim/working/ChibiOS/os/hal/include/st.h"
 416              		.file 17 "/home/selim/working/ChibiOS/os/ext/CMSIS/include/core_cm4.h"
 417              		.section	.debug_info,"",%progbits
 418              	.Ldebug_info0:
 419 0000 F2090000 		.4byte	0x9f2
 420 0004 0400     		.2byte	0x4
 421 0006 00000000 		.4byte	.Ldebug_abbrev0
 422 000a 04       		.byte	0x4
 423 000b 01       		.uleb128 0x1
 424 000c 8A030000 		.4byte	.LASF129
 425 0010 0C       		.byte	0xc
 426 0011 EE010000 		.4byte	.LASF130
 427 0015 90000000 		.4byte	.Ldebug_ranges0+0x90
 428 0019 00000000 		.4byte	0
 429 001d 00000000 		.4byte	.Ldebug_line0
 430 0021 02       		.uleb128 0x2
 431 0022 04       		.byte	0x4
 432 0023 05       		.byte	0x5
 433 0024 696E7400 		.ascii	"int\000"
 434 0028 03       		.uleb128 0x3
 435 0029 04       		.byte	0x4
 436 002a 07       		.byte	0x7
 437 002b 18050000 		.4byte	.LASF0
 438 002f 03       		.uleb128 0x3
 439 0030 08       		.byte	0x8
 440 0031 05       		.byte	0x5
 441 0032 34010000 		.4byte	.LASF1
 442 0036 03       		.uleb128 0x3
 443 0037 08       		.byte	0x8
 444 0038 04       		.byte	0x4
 445 0039 B5020000 		.4byte	.LASF2
 446 003d 03       		.uleb128 0x3
 447 003e 01       		.byte	0x1
 448 003f 06       		.byte	0x6
 449 0040 F8000000 		.4byte	.LASF3
 450 0044 04       		.uleb128 0x4
 451 0045 3A000000 		.4byte	.LASF7
 452 0049 04       		.byte	0x4
 453 004a 1D       		.byte	0x1d
 454 004b 4F000000 		.4byte	0x4f
 455 004f 03       		.uleb128 0x3
 456 0050 01       		.byte	0x1
ARM GAS  /tmp/ccgPMAqj.s 			page 9


 457 0051 08       		.byte	0x8
 458 0052 53030000 		.4byte	.LASF4
 459 0056 03       		.uleb128 0x3
 460 0057 02       		.byte	0x2
 461 0058 05       		.byte	0x5
 462 0059 71030000 		.4byte	.LASF5
 463 005d 03       		.uleb128 0x3
 464 005e 02       		.byte	0x2
 465 005f 07       		.byte	0x7
 466 0060 52010000 		.4byte	.LASF6
 467 0064 04       		.uleb128 0x4
 468 0065 63020000 		.4byte	.LASF8
 469 0069 04       		.byte	0x4
 470 006a 3F       		.byte	0x3f
 471 006b 6F000000 		.4byte	0x6f
 472 006f 03       		.uleb128 0x3
 473 0070 04       		.byte	0x4
 474 0071 05       		.byte	0x5
 475 0072 1D010000 		.4byte	.LASF9
 476 0076 04       		.uleb128 0x4
 477 0077 58050000 		.4byte	.LASF10
 478 007b 04       		.byte	0x4
 479 007c 41       		.byte	0x41
 480 007d 81000000 		.4byte	0x81
 481 0081 03       		.uleb128 0x3
 482 0082 04       		.byte	0x4
 483 0083 07       		.byte	0x7
 484 0084 F5040000 		.4byte	.LASF11
 485 0088 04       		.uleb128 0x4
 486 0089 09030000 		.4byte	.LASF12
 487 008d 04       		.byte	0x4
 488 008e 5B       		.byte	0x5b
 489 008f 93000000 		.4byte	0x93
 490 0093 03       		.uleb128 0x3
 491 0094 08       		.byte	0x8
 492 0095 07       		.byte	0x7
 493 0096 6B000000 		.4byte	.LASF13
 494 009a 04       		.uleb128 0x4
 495 009b 72040000 		.4byte	.LASF14
 496 009f 05       		.byte	0x5
 497 00a0 14       		.byte	0x14
 498 00a1 44000000 		.4byte	0x44
 499 00a5 04       		.uleb128 0x4
 500 00a6 4B030000 		.4byte	.LASF15
 501 00aa 05       		.byte	0x5
 502 00ab 1F       		.byte	0x1f
 503 00ac 64000000 		.4byte	0x64
 504 00b0 04       		.uleb128 0x4
 505 00b1 C4040000 		.4byte	.LASF16
 506 00b5 05       		.byte	0x5
 507 00b6 20       		.byte	0x20
 508 00b7 76000000 		.4byte	0x76
 509 00bb 04       		.uleb128 0x4
 510 00bc 25000000 		.4byte	.LASF17
 511 00c0 05       		.byte	0x5
 512 00c1 26       		.byte	0x26
 513 00c2 88000000 		.4byte	0x88
ARM GAS  /tmp/ccgPMAqj.s 			page 10


 514 00c6 05       		.uleb128 0x5
 515 00c7 A5000000 		.4byte	0xa5
 516 00cb 05       		.uleb128 0x5
 517 00cc B0000000 		.4byte	0xb0
 518 00d0 04       		.uleb128 0x4
 519 00d1 9D050000 		.4byte	.LASF18
 520 00d5 06       		.byte	0x6
 521 00d6 46       		.byte	0x46
 522 00d7 B0000000 		.4byte	0xb0
 523 00db 04       		.uleb128 0x4
 524 00dc 2C060000 		.4byte	.LASF19
 525 00e0 06       		.byte	0x6
 526 00e1 49       		.byte	0x49
 527 00e2 9A000000 		.4byte	0x9a
 528 00e6 04       		.uleb128 0x4
 529 00e7 26010000 		.4byte	.LASF20
 530 00eb 06       		.byte	0x6
 531 00ec 4A       		.byte	0x4a
 532 00ed 9A000000 		.4byte	0x9a
 533 00f1 04       		.uleb128 0x4
 534 00f2 14030000 		.4byte	.LASF21
 535 00f6 06       		.byte	0x6
 536 00f7 4B       		.byte	0x4b
 537 00f8 9A000000 		.4byte	0x9a
 538 00fc 04       		.uleb128 0x4
 539 00fd 33030000 		.4byte	.LASF22
 540 0101 06       		.byte	0x6
 541 0102 4D       		.byte	0x4d
 542 0103 B0000000 		.4byte	0xb0
 543 0107 04       		.uleb128 0x4
 544 0108 44000000 		.4byte	.LASF23
 545 010c 06       		.byte	0x6
 546 010d 4E       		.byte	0x4e
 547 010e A5000000 		.4byte	0xa5
 548 0112 04       		.uleb128 0x4
 549 0113 2E000000 		.4byte	.LASF24
 550 0117 06       		.byte	0x6
 551 0118 50       		.byte	0x50
 552 0119 B0000000 		.4byte	0xb0
 553 011d 04       		.uleb128 0x4
 554 011e 9D010000 		.4byte	.LASF25
 555 0122 06       		.byte	0x6
 556 0123 52       		.byte	0x52
 557 0124 A5000000 		.4byte	0xa5
 558 0128 04       		.uleb128 0x4
 559 0129 3A050000 		.4byte	.LASF26
 560 012d 07       		.byte	0x7
 561 012e 33       		.byte	0x33
 562 012f B0000000 		.4byte	0xb0
 563 0133 04       		.uleb128 0x4
 564 0134 2A050000 		.4byte	.LASF27
 565 0138 07       		.byte	0x7
 566 0139 3F       		.byte	0x3f
 567 013a 3E010000 		.4byte	0x13e
 568 013e 06       		.uleb128 0x6
 569 013f E4010000 		.4byte	.LASF47
 570 0143 44       		.byte	0x44
ARM GAS  /tmp/ccgPMAqj.s 			page 11


 571 0144 08       		.byte	0x8
 572 0145 C2       		.byte	0xc2
 573 0146 2B020000 		.4byte	0x22b
 574 014a 07       		.uleb128 0x7
 575 014b 6B040000 		.4byte	.LASF28
 576 014f 08       		.byte	0x8
 577 0150 C3       		.byte	0xc3
 578 0151 36020000 		.4byte	0x236
 579 0155 00       		.byte	0
 580 0156 07       		.uleb128 0x7
 581 0157 2C030000 		.4byte	.LASF29
 582 015b 08       		.byte	0x8
 583 015c C5       		.byte	0xc5
 584 015d 36020000 		.4byte	0x236
 585 0161 04       		.byte	0x4
 586 0162 07       		.uleb128 0x7
 587 0163 DC000000 		.4byte	.LASF30
 588 0167 08       		.byte	0x8
 589 0168 C7       		.byte	0xc7
 590 0169 FC000000 		.4byte	0xfc
 591 016d 08       		.byte	0x8
 592 016e 07       		.uleb128 0x7
 593 016f DB020000 		.4byte	.LASF31
 594 0173 08       		.byte	0x8
 595 0174 C8       		.byte	0xc8
 596 0175 86040000 		.4byte	0x486
 597 0179 0C       		.byte	0xc
 598 017a 07       		.uleb128 0x7
 599 017b 42010000 		.4byte	.LASF32
 600 017f 08       		.byte	0x8
 601 0180 CA       		.byte	0xca
 602 0181 36020000 		.4byte	0x236
 603 0185 10       		.byte	0x10
 604 0186 07       		.uleb128 0x7
 605 0187 CD020000 		.4byte	.LASF33
 606 018b 08       		.byte	0x8
 607 018c CB       		.byte	0xcb
 608 018d 36020000 		.4byte	0x236
 609 0191 14       		.byte	0x14
 610 0192 07       		.uleb128 0x7
 611 0193 16060000 		.4byte	.LASF34
 612 0197 08       		.byte	0x8
 613 0198 D2       		.byte	0xd2
 614 0199 27070000 		.4byte	0x727
 615 019d 18       		.byte	0x18
 616 019e 07       		.uleb128 0x7
 617 019f 7B030000 		.4byte	.LASF35
 618 01a3 08       		.byte	0x8
 619 01a4 DD       		.byte	0xdd
 620 01a5 E6000000 		.4byte	0xe6
 621 01a9 1C       		.byte	0x1c
 622 01aa 07       		.uleb128 0x7
 623 01ab 34060000 		.4byte	.LASF36
 624 01af 08       		.byte	0x8
 625 01b0 E1       		.byte	0xe1
 626 01b1 DB000000 		.4byte	0xdb
 627 01b5 1D       		.byte	0x1d
ARM GAS  /tmp/ccgPMAqj.s 			page 12


 628 01b6 07       		.uleb128 0x7
 629 01b7 CC050000 		.4byte	.LASF37
 630 01bb 08       		.byte	0x8
 631 01bc E6       		.byte	0xe6
 632 01bd F1000000 		.4byte	0xf1
 633 01c1 1E       		.byte	0x1e
 634 01c2 08       		.uleb128 0x8
 635 01c3 705F7500 		.ascii	"p_u\000"
 636 01c7 08       		.byte	0x8
 637 01c8 3101     		.2byte	0x131
 638 01ca 62060000 		.4byte	0x662
 639 01ce 20       		.byte	0x20
 640 01cf 09       		.uleb128 0x9
 641 01d0 78020000 		.4byte	.LASF38
 642 01d4 08       		.byte	0x8
 643 01d5 3601     		.2byte	0x136
 644 01d7 3C020000 		.4byte	0x23c
 645 01db 24       		.byte	0x24
 646 01dc 09       		.uleb128 0x9
 647 01dd CE010000 		.4byte	.LASF39
 648 01e1 08       		.byte	0x8
 649 01e2 3C01     		.2byte	0x13c
 650 01e4 60020000 		.4byte	0x260
 651 01e8 28       		.byte	0x28
 652 01e9 09       		.uleb128 0x9
 653 01ea 3C060000 		.4byte	.LASF40
 654 01ee 08       		.byte	0x8
 655 01ef 4001     		.2byte	0x140
 656 01f1 07010000 		.4byte	0x107
 657 01f5 30       		.byte	0x30
 658 01f6 09       		.uleb128 0x9
 659 01f7 A6040000 		.4byte	.LASF41
 660 01fb 08       		.byte	0x8
 661 01fc 4601     		.2byte	0x146
 662 01fe 12010000 		.4byte	0x112
 663 0202 34       		.byte	0x34
 664 0203 09       		.uleb128 0x9
 665 0204 67030000 		.4byte	.LASF42
 666 0208 08       		.byte	0x8
 667 0209 4D01     		.2byte	0x14d
 668 020b 21070000 		.4byte	0x721
 669 020f 38       		.byte	0x38
 670 0210 09       		.uleb128 0x9
 671 0211 44050000 		.4byte	.LASF43
 672 0215 08       		.byte	0x8
 673 0216 5101     		.2byte	0x151
 674 0218 FC000000 		.4byte	0xfc
 675 021c 3C       		.byte	0x3c
 676 021d 09       		.uleb128 0x9
 677 021e 6D010000 		.4byte	.LASF44
 678 0222 08       		.byte	0x8
 679 0223 5801     		.2byte	0x158
 680 0225 13030000 		.4byte	0x313
 681 0229 40       		.byte	0x40
 682 022a 00       		.byte	0
 683 022b 04       		.uleb128 0x4
 684 022c 8B020000 		.4byte	.LASF45
ARM GAS  /tmp/ccgPMAqj.s 			page 13


 685 0230 07       		.byte	0x7
 686 0231 44       		.byte	0x44
 687 0232 36020000 		.4byte	0x236
 688 0236 0A       		.uleb128 0xa
 689 0237 04       		.byte	0x4
 690 0238 33010000 		.4byte	0x133
 691 023c 04       		.uleb128 0x4
 692 023d 1D060000 		.4byte	.LASF46
 693 0241 07       		.byte	0x7
 694 0242 49       		.byte	0x49
 695 0243 47020000 		.4byte	0x247
 696 0247 06       		.uleb128 0x6
 697 0248 E5040000 		.4byte	.LASF48
 698 024c 04       		.byte	0x4
 699 024d 08       		.byte	0x8
 700 024e B0       		.byte	0xb0
 701 024f 60020000 		.4byte	0x260
 702 0253 07       		.uleb128 0x7
 703 0254 6B040000 		.4byte	.LASF28
 704 0258 08       		.byte	0x8
 705 0259 B1       		.byte	0xb1
 706 025a 36020000 		.4byte	0x236
 707 025e 00       		.byte	0
 708 025f 00       		.byte	0
 709 0260 04       		.uleb128 0x4
 710 0261 B3050000 		.4byte	.LASF49
 711 0265 07       		.byte	0x7
 712 0266 50       		.byte	0x50
 713 0267 6B020000 		.4byte	0x26b
 714 026b 06       		.uleb128 0x6
 715 026c CB000000 		.4byte	.LASF50
 716 0270 08       		.byte	0x8
 717 0271 08       		.byte	0x8
 718 0272 B7       		.byte	0xb7
 719 0273 90020000 		.4byte	0x290
 720 0277 07       		.uleb128 0x7
 721 0278 6B040000 		.4byte	.LASF28
 722 027c 08       		.byte	0x8
 723 027d B8       		.byte	0xb8
 724 027e 36020000 		.4byte	0x236
 725 0282 00       		.byte	0
 726 0283 07       		.uleb128 0x7
 727 0284 2C030000 		.4byte	.LASF29
 728 0288 08       		.byte	0x8
 729 0289 B9       		.byte	0xb9
 730 028a 36020000 		.4byte	0x236
 731 028e 04       		.byte	0x4
 732 028f 00       		.byte	0
 733 0290 04       		.uleb128 0x4
 734 0291 00000000 		.4byte	.LASF51
 735 0295 07       		.byte	0x7
 736 0296 57       		.byte	0x57
 737 0297 9B020000 		.4byte	0x29b
 738 029b 0B       		.uleb128 0xb
 739 029c 4A020000 		.4byte	.LASF52
 740 02a0 1C       		.byte	0x1c
 741 02a1 08       		.byte	0x8
ARM GAS  /tmp/ccgPMAqj.s 			page 14


 742 02a2 9001     		.2byte	0x190
 743 02a4 F7020000 		.4byte	0x2f7
 744 02a8 09       		.uleb128 0x9
 745 02a9 D4040000 		.4byte	.LASF53
 746 02ad 08       		.byte	0x8
 747 02ae 9101     		.2byte	0x191
 748 02b0 60020000 		.4byte	0x260
 749 02b4 00       		.byte	0
 750 02b5 09       		.uleb128 0x9
 751 02b6 83030000 		.4byte	.LASF54
 752 02ba 08       		.byte	0x8
 753 02bb 9201     		.2byte	0x192
 754 02bd FC000000 		.4byte	0xfc
 755 02c1 08       		.byte	0x8
 756 02c2 09       		.uleb128 0x9
 757 02c3 D5020000 		.4byte	.LASF55
 758 02c7 08       		.byte	0x8
 759 02c8 9401     		.2byte	0x194
 760 02ca 86040000 		.4byte	0x486
 761 02ce 0C       		.byte	0xc
 762 02cf 09       		.uleb128 0x9
 763 02d0 65010000 		.4byte	.LASF56
 764 02d4 08       		.byte	0x8
 765 02d5 9701     		.2byte	0x197
 766 02d7 36020000 		.4byte	0x236
 767 02db 10       		.byte	0x10
 768 02dc 09       		.uleb128 0x9
 769 02dd 01030000 		.4byte	.LASF57
 770 02e1 08       		.byte	0x8
 771 02e2 9801     		.2byte	0x198
 772 02e4 36020000 		.4byte	0x236
 773 02e8 14       		.byte	0x14
 774 02e9 09       		.uleb128 0x9
 775 02ea F7020000 		.4byte	.LASF58
 776 02ee 08       		.byte	0x8
 777 02ef 9B01     		.2byte	0x19b
 778 02f1 36020000 		.4byte	0x236
 779 02f5 18       		.byte	0x18
 780 02f6 00       		.byte	0
 781 02f7 04       		.uleb128 0x4
 782 02f8 4F050000 		.4byte	.LASF59
 783 02fc 07       		.byte	0x7
 784 02fd 5C       		.byte	0x5c
 785 02fe 02030000 		.4byte	0x302
 786 0302 0A       		.uleb128 0xa
 787 0303 04       		.byte	0x4
 788 0304 08030000 		.4byte	0x308
 789 0308 0C       		.uleb128 0xc
 790 0309 13030000 		.4byte	0x313
 791 030d 0D       		.uleb128 0xd
 792 030e 13030000 		.4byte	0x313
 793 0312 00       		.byte	0
 794 0313 0E       		.uleb128 0xe
 795 0314 04       		.byte	0x4
 796 0315 04       		.uleb128 0x4
 797 0316 1C030000 		.4byte	.LASF60
 798 031a 07       		.byte	0x7
ARM GAS  /tmp/ccgPMAqj.s 			page 15


 799 031b 61       		.byte	0x61
 800 031c 20030000 		.4byte	0x320
 801 0320 0B       		.uleb128 0xb
 802 0321 83040000 		.4byte	.LASF61
 803 0325 14       		.byte	0x14
 804 0326 08       		.byte	0x8
 805 0327 6B01     		.2byte	0x16b
 806 0329 6F030000 		.4byte	0x36f
 807 032d 09       		.uleb128 0x9
 808 032e BF010000 		.4byte	.LASF62
 809 0332 08       		.byte	0x8
 810 0333 6C01     		.2byte	0x16c
 811 0335 39070000 		.4byte	0x739
 812 0339 00       		.byte	0
 813 033a 09       		.uleb128 0x9
 814 033b 7E010000 		.4byte	.LASF63
 815 033f 08       		.byte	0x8
 816 0340 6D01     		.2byte	0x16d
 817 0342 39070000 		.4byte	0x739
 818 0346 04       		.byte	0x4
 819 0347 09       		.uleb128 0x9
 820 0348 DC040000 		.4byte	.LASF64
 821 034c 08       		.byte	0x8
 822 034d 6E01     		.2byte	0x16e
 823 034f 28010000 		.4byte	0x128
 824 0353 08       		.byte	0x8
 825 0354 09       		.uleb128 0x9
 826 0355 4A060000 		.4byte	.LASF65
 827 0359 08       		.byte	0x8
 828 035a 6F01     		.2byte	0x16f
 829 035c F7020000 		.4byte	0x2f7
 830 0360 0C       		.byte	0xc
 831 0361 09       		.uleb128 0x9
 832 0362 A5050000 		.4byte	.LASF66
 833 0366 08       		.byte	0x8
 834 0367 7101     		.2byte	0x171
 835 0369 13030000 		.4byte	0x313
 836 036d 10       		.byte	0x10
 837 036e 00       		.byte	0
 838 036f 04       		.uleb128 0x4
 839 0370 A3000000 		.4byte	.LASF67
 840 0374 07       		.byte	0x7
 841 0375 66       		.byte	0x66
 842 0376 7A030000 		.4byte	0x37a
 843 037a 0B       		.uleb128 0xb
 844 037b 9E020000 		.4byte	.LASF68
 845 037f 10       		.byte	0x10
 846 0380 08       		.byte	0x8
 847 0381 7B01     		.2byte	0x17b
 848 0383 BC030000 		.4byte	0x3bc
 849 0387 09       		.uleb128 0x9
 850 0388 BF010000 		.4byte	.LASF62
 851 038c 08       		.byte	0x8
 852 038d 7C01     		.2byte	0x17c
 853 038f 39070000 		.4byte	0x739
 854 0393 00       		.byte	0
 855 0394 09       		.uleb128 0x9
ARM GAS  /tmp/ccgPMAqj.s 			page 16


 856 0395 7E010000 		.4byte	.LASF63
 857 0399 08       		.byte	0x8
 858 039a 7E01     		.2byte	0x17e
 859 039c 39070000 		.4byte	0x739
 860 03a0 04       		.byte	0x4
 861 03a1 09       		.uleb128 0x9
 862 03a2 DC040000 		.4byte	.LASF64
 863 03a6 08       		.byte	0x8
 864 03a7 8001     		.2byte	0x180
 865 03a9 28010000 		.4byte	0x128
 866 03ad 08       		.byte	0x8
 867 03ae 09       		.uleb128 0x9
 868 03af C1020000 		.4byte	.LASF69
 869 03b3 08       		.byte	0x8
 870 03b4 8801     		.2byte	0x188
 871 03b6 28010000 		.4byte	0x128
 872 03ba 0C       		.byte	0xc
 873 03bb 00       		.byte	0
 874 03bc 04       		.uleb128 0x4
 875 03bd 56000000 		.4byte	.LASF70
 876 03c1 07       		.byte	0x7
 877 03c2 6B       		.byte	0x6b
 878 03c3 C7030000 		.4byte	0x3c7
 879 03c7 0B       		.uleb128 0xb
 880 03c8 3B030000 		.4byte	.LASF71
 881 03cc 04       		.byte	0x4
 882 03cd 08       		.byte	0x8
 883 03ce A201     		.2byte	0x1a2
 884 03d0 E2030000 		.4byte	0x3e2
 885 03d4 09       		.uleb128 0x9
 886 03d5 63050000 		.4byte	.LASF72
 887 03d9 08       		.byte	0x8
 888 03da AA01     		.2byte	0x1aa
 889 03dc 3F070000 		.4byte	0x73f
 890 03e0 00       		.byte	0
 891 03e1 00       		.byte	0
 892 03e2 04       		.uleb128 0x4
 893 03e3 32020000 		.4byte	.LASF73
 894 03e7 07       		.byte	0x7
 895 03e8 70       		.byte	0x70
 896 03e9 ED030000 		.4byte	0x3ed
 897 03ed 0F       		.uleb128 0xf
 898 03ee 13010000 		.4byte	.LASF74
 899 03f2 5001     		.2byte	0x150
 900 03f4 08       		.byte	0x8
 901 03f5 C201     		.2byte	0x1c2
 902 03f7 49040000 		.4byte	0x449
 903 03fb 09       		.uleb128 0x9
 904 03fc D3050000 		.4byte	.LASF75
 905 0400 08       		.byte	0x8
 906 0401 C601     		.2byte	0x1c6
 907 0403 90020000 		.4byte	0x290
 908 0407 00       		.byte	0
 909 0408 09       		.uleb128 0x9
 910 0409 0C010000 		.4byte	.LASF76
 911 040d 08       		.byte	0x8
 912 040e CA01     		.2byte	0x1ca
ARM GAS  /tmp/ccgPMAqj.s 			page 17


 913 0410 6F030000 		.4byte	0x36f
 914 0414 1C       		.byte	0x1c
 915 0415 08       		.uleb128 0x8
 916 0416 64626700 		.ascii	"dbg\000"
 917 041a 08       		.byte	0x8
 918 041b CE01     		.2byte	0x1ce
 919 041d BC030000 		.4byte	0x3bc
 920 0421 2C       		.byte	0x2c
 921 0422 09       		.uleb128 0x9
 922 0423 98000000 		.4byte	.LASF77
 923 0427 08       		.byte	0x8
 924 0428 D201     		.2byte	0x1d2
 925 042a 33010000 		.4byte	0x133
 926 042e 30       		.byte	0x30
 927 042f 08       		.uleb128 0x8
 928 0430 746D00   		.ascii	"tm\000"
 929 0433 08       		.byte	0x8
 930 0434 D701     		.2byte	0x1d7
 931 0436 57060000 		.4byte	0x657
 932 043a 74       		.byte	0x74
 933 043b 09       		.uleb128 0x9
 934 043c 8E010000 		.4byte	.LASF78
 935 0440 08       		.byte	0x8
 936 0441 E301     		.2byte	0x1e3
 937 0443 44070000 		.4byte	0x744
 938 0447 78       		.byte	0x78
 939 0448 00       		.byte	0
 940 0449 03       		.uleb128 0x3
 941 044a 04       		.byte	0x4
 942 044b 07       		.byte	0x7
 943 044c 82020000 		.4byte	.LASF79
 944 0450 10       		.uleb128 0x10
 945 0451 CB000000 		.4byte	0xcb
 946 0455 60040000 		.4byte	0x460
 947 0459 11       		.uleb128 0x11
 948 045a 49040000 		.4byte	0x449
 949 045e 01       		.byte	0x1
 950 045f 00       		.byte	0
 951 0460 10       		.uleb128 0x10
 952 0461 CB000000 		.4byte	0xcb
 953 0465 70040000 		.4byte	0x470
 954 0469 11       		.uleb128 0x11
 955 046a 49040000 		.4byte	0x449
 956 046e 03       		.byte	0x3
 957 046f 00       		.byte	0
 958 0470 04       		.uleb128 0x4
 959 0471 75010000 		.4byte	.LASF80
 960 0475 09       		.byte	0x9
 961 0476 65       		.byte	0x65
 962 0477 13030000 		.4byte	0x313
 963 047b 04       		.uleb128 0x4
 964 047c 6D020000 		.4byte	.LASF81
 965 0480 09       		.byte	0x9
 966 0481 6D       		.byte	0x6d
 967 0482 BB000000 		.4byte	0xbb
 968 0486 06       		.uleb128 0x6
 969 0487 81050000 		.4byte	.LASF82
ARM GAS  /tmp/ccgPMAqj.s 			page 18


 970 048b 04       		.byte	0x4
 971 048c 09       		.byte	0x9
 972 048d 89       		.byte	0x89
 973 048e 9F040000 		.4byte	0x49f
 974 0492 12       		.uleb128 0x12
 975 0493 72313300 		.ascii	"r13\000"
 976 0497 09       		.byte	0x9
 977 0498 8A       		.byte	0x8a
 978 0499 1A050000 		.4byte	0x51a
 979 049d 00       		.byte	0
 980 049e 00       		.byte	0
 981 049f 06       		.uleb128 0x6
 982 04a0 4A000000 		.4byte	.LASF83
 983 04a4 24       		.byte	0x24
 984 04a5 0A       		.byte	0xa
 985 04a6 F4       		.byte	0xf4
 986 04a7 1A050000 		.4byte	0x51a
 987 04ab 08       		.uleb128 0x8
 988 04ac 723400   		.ascii	"r4\000"
 989 04af 0A       		.byte	0xa
 990 04b0 0701     		.2byte	0x107
 991 04b2 70040000 		.4byte	0x470
 992 04b6 00       		.byte	0
 993 04b7 08       		.uleb128 0x8
 994 04b8 723500   		.ascii	"r5\000"
 995 04bb 0A       		.byte	0xa
 996 04bc 0801     		.2byte	0x108
 997 04be 70040000 		.4byte	0x470
 998 04c2 04       		.byte	0x4
 999 04c3 08       		.uleb128 0x8
 1000 04c4 723600   		.ascii	"r6\000"
 1001 04c7 0A       		.byte	0xa
 1002 04c8 0901     		.2byte	0x109
 1003 04ca 70040000 		.4byte	0x470
 1004 04ce 08       		.byte	0x8
 1005 04cf 08       		.uleb128 0x8
 1006 04d0 723700   		.ascii	"r7\000"
 1007 04d3 0A       		.byte	0xa
 1008 04d4 0A01     		.2byte	0x10a
 1009 04d6 70040000 		.4byte	0x470
 1010 04da 0C       		.byte	0xc
 1011 04db 08       		.uleb128 0x8
 1012 04dc 723800   		.ascii	"r8\000"
 1013 04df 0A       		.byte	0xa
 1014 04e0 0B01     		.2byte	0x10b
 1015 04e2 70040000 		.4byte	0x470
 1016 04e6 10       		.byte	0x10
 1017 04e7 08       		.uleb128 0x8
 1018 04e8 723900   		.ascii	"r9\000"
 1019 04eb 0A       		.byte	0xa
 1020 04ec 0C01     		.2byte	0x10c
 1021 04ee 70040000 		.4byte	0x470
 1022 04f2 14       		.byte	0x14
 1023 04f3 08       		.uleb128 0x8
 1024 04f4 72313000 		.ascii	"r10\000"
 1025 04f8 0A       		.byte	0xa
 1026 04f9 0D01     		.2byte	0x10d
ARM GAS  /tmp/ccgPMAqj.s 			page 19


 1027 04fb 70040000 		.4byte	0x470
 1028 04ff 18       		.byte	0x18
 1029 0500 08       		.uleb128 0x8
 1030 0501 72313100 		.ascii	"r11\000"
 1031 0505 0A       		.byte	0xa
 1032 0506 0E01     		.2byte	0x10e
 1033 0508 70040000 		.4byte	0x470
 1034 050c 1C       		.byte	0x1c
 1035 050d 08       		.uleb128 0x8
 1036 050e 6C7200   		.ascii	"lr\000"
 1037 0511 0A       		.byte	0xa
 1038 0512 0F01     		.2byte	0x10f
 1039 0514 70040000 		.4byte	0x470
 1040 0518 20       		.byte	0x20
 1041 0519 00       		.byte	0
 1042 051a 0A       		.uleb128 0xa
 1043 051b 04       		.byte	0x4
 1044 051c 9F040000 		.4byte	0x49f
 1045 0520 13       		.uleb128 0x13
 1046 0521 60       		.byte	0x60
 1047 0522 0B       		.byte	0xb
 1048 0523 9E01     		.2byte	0x19e
 1049 0525 2C060000 		.4byte	0x62c
 1050 0529 08       		.uleb128 0x8
 1051 052a 43523100 		.ascii	"CR1\000"
 1052 052e 0B       		.byte	0xb
 1053 052f 9F01     		.2byte	0x19f
 1054 0531 CB000000 		.4byte	0xcb
 1055 0535 00       		.byte	0
 1056 0536 08       		.uleb128 0x8
 1057 0537 43523200 		.ascii	"CR2\000"
 1058 053b 0B       		.byte	0xb
 1059 053c A001     		.2byte	0x1a0
 1060 053e CB000000 		.4byte	0xcb
 1061 0542 04       		.byte	0x4
 1062 0543 09       		.uleb128 0x9
 1063 0544 DF010000 		.4byte	.LASF84
 1064 0548 0B       		.byte	0xb
 1065 0549 A101     		.2byte	0x1a1
 1066 054b CB000000 		.4byte	0xcb
 1067 054f 08       		.byte	0x8
 1068 0550 09       		.uleb128 0x9
 1069 0551 0D000000 		.4byte	.LASF85
 1070 0555 0B       		.byte	0xb
 1071 0556 A201     		.2byte	0x1a2
 1072 0558 CB000000 		.4byte	0xcb
 1073 055c 0C       		.byte	0xc
 1074 055d 08       		.uleb128 0x8
 1075 055e 535200   		.ascii	"SR\000"
 1076 0561 0B       		.byte	0xb
 1077 0562 A301     		.2byte	0x1a3
 1078 0564 CB000000 		.4byte	0xcb
 1079 0568 10       		.byte	0x10
 1080 0569 08       		.uleb128 0x8
 1081 056a 45475200 		.ascii	"EGR\000"
 1082 056e 0B       		.byte	0xb
 1083 056f A401     		.2byte	0x1a4
ARM GAS  /tmp/ccgPMAqj.s 			page 20


 1084 0571 CB000000 		.4byte	0xcb
 1085 0575 14       		.byte	0x14
 1086 0576 09       		.uleb128 0x9
 1087 0577 E3000000 		.4byte	.LASF86
 1088 057b 0B       		.byte	0xb
 1089 057c A501     		.2byte	0x1a5
 1090 057e CB000000 		.4byte	0xcb
 1091 0582 18       		.byte	0x18
 1092 0583 09       		.uleb128 0x9
 1093 0584 65000000 		.4byte	.LASF87
 1094 0588 0B       		.byte	0xb
 1095 0589 A601     		.2byte	0x1a6
 1096 058b CB000000 		.4byte	0xcb
 1097 058f 1C       		.byte	0x1c
 1098 0590 09       		.uleb128 0x9
 1099 0591 2F010000 		.4byte	.LASF88
 1100 0595 0B       		.byte	0xb
 1101 0596 A701     		.2byte	0x1a7
 1102 0598 CB000000 		.4byte	0xcb
 1103 059c 20       		.byte	0x20
 1104 059d 08       		.uleb128 0x8
 1105 059e 434E5400 		.ascii	"CNT\000"
 1106 05a2 0B       		.byte	0xb
 1107 05a3 A801     		.2byte	0x1a8
 1108 05a5 CB000000 		.4byte	0xcb
 1109 05a9 24       		.byte	0x24
 1110 05aa 08       		.uleb128 0x8
 1111 05ab 50534300 		.ascii	"PSC\000"
 1112 05af 0B       		.byte	0xb
 1113 05b0 A901     		.2byte	0x1a9
 1114 05b2 CB000000 		.4byte	0xcb
 1115 05b6 28       		.byte	0x28
 1116 05b7 08       		.uleb128 0x8
 1117 05b8 41525200 		.ascii	"ARR\000"
 1118 05bc 0B       		.byte	0xb
 1119 05bd AA01     		.2byte	0x1aa
 1120 05bf CB000000 		.4byte	0xcb
 1121 05c3 2C       		.byte	0x2c
 1122 05c4 08       		.uleb128 0x8
 1123 05c5 52435200 		.ascii	"RCR\000"
 1124 05c9 0B       		.byte	0xb
 1125 05ca AB01     		.2byte	0x1ab
 1126 05cc CB000000 		.4byte	0xcb
 1127 05d0 30       		.byte	0x30
 1128 05d1 08       		.uleb128 0x8
 1129 05d2 43435200 		.ascii	"CCR\000"
 1130 05d6 0B       		.byte	0xb
 1131 05d7 AC01     		.2byte	0x1ac
 1132 05d9 2C060000 		.4byte	0x62c
 1133 05dd 34       		.byte	0x34
 1134 05de 09       		.uleb128 0x9
 1135 05df C6000000 		.4byte	.LASF89
 1136 05e3 0B       		.byte	0xb
 1137 05e4 AD01     		.2byte	0x1ad
 1138 05e6 CB000000 		.4byte	0xcb
 1139 05ea 44       		.byte	0x44
 1140 05eb 08       		.uleb128 0x8
ARM GAS  /tmp/ccgPMAqj.s 			page 21


 1141 05ec 44435200 		.ascii	"DCR\000"
 1142 05f0 0B       		.byte	0xb
 1143 05f1 AE01     		.2byte	0x1ae
 1144 05f3 CB000000 		.4byte	0xcb
 1145 05f7 48       		.byte	0x48
 1146 05f8 09       		.uleb128 0x9
 1147 05f9 25050000 		.4byte	.LASF90
 1148 05fd 0B       		.byte	0xb
 1149 05fe AF01     		.2byte	0x1af
 1150 0600 CB000000 		.4byte	0xcb
 1151 0604 4C       		.byte	0x4c
 1152 0605 08       		.uleb128 0x8
 1153 0606 4F5200   		.ascii	"OR\000"
 1154 0609 0B       		.byte	0xb
 1155 060a B001     		.2byte	0x1b0
 1156 060c CB000000 		.4byte	0xcb
 1157 0610 50       		.byte	0x50
 1158 0611 09       		.uleb128 0x9
 1159 0612 F2000000 		.4byte	.LASF91
 1160 0616 0B       		.byte	0xb
 1161 0617 B101     		.2byte	0x1b1
 1162 0619 CB000000 		.4byte	0xcb
 1163 061d 54       		.byte	0x54
 1164 061e 09       		.uleb128 0x9
 1165 061f A1040000 		.4byte	.LASF92
 1166 0623 0B       		.byte	0xb
 1167 0624 B201     		.2byte	0x1b2
 1168 0626 31060000 		.4byte	0x631
 1169 062a 58       		.byte	0x58
 1170 062b 00       		.byte	0
 1171 062c 05       		.uleb128 0x5
 1172 062d 60040000 		.4byte	0x460
 1173 0631 05       		.uleb128 0x5
 1174 0632 50040000 		.4byte	0x450
 1175 0636 14       		.uleb128 0x14
 1176 0637 3E020000 		.4byte	.LASF93
 1177 063b 0B       		.byte	0xb
 1178 063c B301     		.2byte	0x1b3
 1179 063e 20050000 		.4byte	0x520
 1180 0642 15       		.uleb128 0x15
 1181 0643 04       		.byte	0x4
 1182 0644 0C       		.byte	0xc
 1183 0645 38       		.byte	0x38
 1184 0646 57060000 		.4byte	0x657
 1185 064a 07       		.uleb128 0x7
 1186 064b 6D050000 		.4byte	.LASF94
 1187 064f 0C       		.byte	0xc
 1188 0650 3C       		.byte	0x3c
 1189 0651 D0000000 		.4byte	0xd0
 1190 0655 00       		.byte	0
 1191 0656 00       		.byte	0
 1192 0657 04       		.uleb128 0x4
 1193 0658 E1020000 		.4byte	.LASF95
 1194 065c 0C       		.byte	0xc
 1195 065d 3D       		.byte	0x3d
 1196 065e 42060000 		.4byte	0x642
 1197 0662 16       		.uleb128 0x16
ARM GAS  /tmp/ccgPMAqj.s 			page 22


 1198 0663 04       		.byte	0x4
 1199 0664 08       		.byte	0x8
 1200 0665 FA       		.byte	0xfa
 1201 0666 BF060000 		.4byte	0x6bf
 1202 066a 17       		.uleb128 0x17
 1203 066b 1E000000 		.4byte	.LASF96
 1204 066f 08       		.byte	0x8
 1205 0670 0101     		.2byte	0x101
 1206 0672 07010000 		.4byte	0x107
 1207 0676 17       		.uleb128 0x17
 1208 0677 8F000000 		.4byte	.LASF97
 1209 067b 08       		.byte	0x8
 1210 067c 0801     		.2byte	0x108
 1211 067e 07010000 		.4byte	0x107
 1212 0682 17       		.uleb128 0x17
 1213 0683 0F060000 		.4byte	.LASF98
 1214 0687 08       		.byte	0x8
 1215 0688 0F01     		.2byte	0x10f
 1216 068a 13030000 		.4byte	0x313
 1217 068e 17       		.uleb128 0x17
 1218 068f 12000000 		.4byte	.LASF99
 1219 0693 08       		.byte	0x8
 1220 0694 1601     		.2byte	0x116
 1221 0696 BF060000 		.4byte	0x6bf
 1222 069a 17       		.uleb128 0x17
 1223 069b C7010000 		.4byte	.LASF100
 1224 069f 08       		.byte	0x8
 1225 06a0 1E01     		.2byte	0x11e
 1226 06a2 EA060000 		.4byte	0x6ea
 1227 06a6 17       		.uleb128 0x17
 1228 06a7 CD040000 		.4byte	.LASF101
 1229 06ab 08       		.byte	0x8
 1230 06ac 2701     		.2byte	0x127
 1231 06ae 21070000 		.4byte	0x721
 1232 06b2 17       		.uleb128 0x17
 1233 06b3 64040000 		.4byte	.LASF102
 1234 06b7 08       		.byte	0x8
 1235 06b8 2F01     		.2byte	0x12f
 1236 06ba 12010000 		.4byte	0x112
 1237 06be 00       		.byte	0
 1238 06bf 0A       		.uleb128 0xa
 1239 06c0 04       		.byte	0x4
 1240 06c1 2B020000 		.4byte	0x22b
 1241 06c5 06       		.uleb128 0x6
 1242 06c6 94040000 		.4byte	.LASF103
 1243 06ca 0C       		.byte	0xc
 1244 06cb 0D       		.byte	0xd
 1245 06cc 34       		.byte	0x34
 1246 06cd EA060000 		.4byte	0x6ea
 1247 06d1 07       		.uleb128 0x7
 1248 06d2 4A010000 		.4byte	.LASF104
 1249 06d6 0D       		.byte	0xd
 1250 06d7 35       		.byte	0x35
 1251 06d8 60020000 		.4byte	0x260
 1252 06dc 00       		.byte	0
 1253 06dd 07       		.uleb128 0x7
 1254 06de D9010000 		.4byte	.LASF105
ARM GAS  /tmp/ccgPMAqj.s 			page 23


 1255 06e2 0D       		.byte	0xd
 1256 06e3 37       		.byte	0x37
 1257 06e4 1D010000 		.4byte	0x11d
 1258 06e8 08       		.byte	0x8
 1259 06e9 00       		.byte	0
 1260 06ea 0A       		.uleb128 0xa
 1261 06eb 04       		.byte	0x4
 1262 06ec C5060000 		.4byte	0x6c5
 1263 06f0 06       		.uleb128 0x6
 1264 06f1 C3050000 		.4byte	.LASF106
 1265 06f5 10       		.byte	0x10
 1266 06f6 0E       		.byte	0xe
 1267 06f7 39       		.byte	0x39
 1268 06f8 21070000 		.4byte	0x721
 1269 06fc 07       		.uleb128 0x7
 1270 06fd 04010000 		.4byte	.LASF107
 1271 0701 0E       		.byte	0xe
 1272 0702 3A       		.byte	0x3a
 1273 0703 60020000 		.4byte	0x260
 1274 0707 00       		.byte	0
 1275 0708 07       		.uleb128 0x7
 1276 0709 42060000 		.4byte	.LASF108
 1277 070d 0E       		.byte	0xe
 1278 070e 3C       		.byte	0x3c
 1279 070f 36020000 		.4byte	0x236
 1280 0713 08       		.byte	0x8
 1281 0714 07       		.uleb128 0x7
 1282 0715 33050000 		.4byte	.LASF109
 1283 0719 0E       		.byte	0xe
 1284 071a 3E       		.byte	0x3e
 1285 071b 5F070000 		.4byte	0x75f
 1286 071f 0C       		.byte	0xc
 1287 0720 00       		.byte	0
 1288 0721 0A       		.uleb128 0xa
 1289 0722 04       		.byte	0x4
 1290 0723 F0060000 		.4byte	0x6f0
 1291 0727 0A       		.uleb128 0xa
 1292 0728 04       		.byte	0x4
 1293 0729 34070000 		.4byte	0x734
 1294 072d 03       		.uleb128 0x3
 1295 072e 01       		.byte	0x1
 1296 072f 08       		.byte	0x8
 1297 0730 13050000 		.4byte	.LASF110
 1298 0734 18       		.uleb128 0x18
 1299 0735 2D070000 		.4byte	0x72d
 1300 0739 0A       		.uleb128 0xa
 1301 073a 04       		.byte	0x4
 1302 073b 15030000 		.4byte	0x315
 1303 073f 05       		.uleb128 0x5
 1304 0740 27070000 		.4byte	0x727
 1305 0744 10       		.uleb128 0x10
 1306 0745 7B040000 		.4byte	0x47b
 1307 0749 54070000 		.4byte	0x754
 1308 074d 11       		.uleb128 0x11
 1309 074e 49040000 		.4byte	0x449
 1310 0752 1A       		.byte	0x1a
 1311 0753 00       		.byte	0
ARM GAS  /tmp/ccgPMAqj.s 			page 24


 1312 0754 04       		.uleb128 0x4
 1313 0755 86010000 		.4byte	.LASF111
 1314 0759 0E       		.byte	0xe
 1315 075a 34       		.byte	0x34
 1316 075b F0060000 		.4byte	0x6f0
 1317 075f 0A       		.uleb128 0xa
 1318 0760 04       		.byte	0x4
 1319 0761 54070000 		.4byte	0x754
 1320 0765 19       		.uleb128 0x19
 1321 0766 B1040000 		.4byte	.LASF112
 1322 076a 02       		.byte	0x2
 1323 076b 7F       		.byte	0x7f
 1324 076c 28010000 		.4byte	0x128
 1325 0770 03       		.byte	0x3
 1326 0771 19       		.uleb128 0x19
 1327 0772 89050000 		.4byte	.LASF113
 1328 0776 03       		.byte	0x3
 1329 0777 69       		.byte	0x69
 1330 0778 28010000 		.4byte	0x128
 1331 077c 03       		.byte	0x3
 1332 077d 19       		.uleb128 0x19
 1333 077e A3010000 		.4byte	.LASF114
 1334 0782 0F       		.byte	0xf
 1335 0783 E4       		.byte	0xe4
 1336 0784 28010000 		.4byte	0x128
 1337 0788 03       		.byte	0x3
 1338 0789 1A       		.uleb128 0x1a
 1339 078a 1B020000 		.4byte	.LASF115
 1340 078e 03       		.byte	0x3
 1341 078f 47       		.byte	0x47
 1342 0790 03       		.byte	0x3
 1343 0791 A1070000 		.4byte	0x7a1
 1344 0795 1B       		.uleb128 0x1b
 1345 0796 F2020000 		.4byte	.LASF117
 1346 079a 03       		.byte	0x3
 1347 079b 47       		.byte	0x47
 1348 079c 28010000 		.4byte	0x128
 1349 07a0 00       		.byte	0
 1350 07a1 1A       		.uleb128 0x1a
 1351 07a2 FA050000 		.4byte	.LASF116
 1352 07a6 03       		.byte	0x3
 1353 07a7 5D       		.byte	0x5d
 1354 07a8 03       		.byte	0x3
 1355 07a9 B9070000 		.4byte	0x7b9
 1356 07ad 1B       		.uleb128 0x1b
 1357 07ae F2020000 		.4byte	.LASF117
 1358 07b2 03       		.byte	0x3
 1359 07b3 5D       		.byte	0x5d
 1360 07b4 28010000 		.4byte	0x128
 1361 07b8 00       		.byte	0
 1362 07b9 1C       		.uleb128 0x1c
 1363 07ba E4050000 		.4byte	.LASF131
 1364 07be 03       		.byte	0x3
 1365 07bf 51       		.byte	0x51
 1366 07c0 03       		.byte	0x3
 1367 07c1 1D       		.uleb128 0x1d
 1368 07c2 E9000000 		.4byte	.LASF132
ARM GAS  /tmp/ccgPMAqj.s 			page 25


 1369 07c6 01       		.byte	0x1
 1370 07c7 3D       		.byte	0x3d
 1371 07c8 00000000 		.4byte	.LFB227
 1372 07cc 1C000000 		.4byte	.LFE227-.LFB227
 1373 07d0 01       		.uleb128 0x1
 1374 07d1 9C       		.byte	0x9c
 1375 07d2 1E       		.uleb128 0x1e
 1376 07d3 58020000 		.4byte	.LASF121
 1377 07d7 01       		.byte	0x1
 1378 07d8 5F       		.byte	0x5f
 1379 07d9 00000000 		.4byte	.LFB228
 1380 07dd 78000000 		.4byte	.LFE228-.LFB228
 1381 07e1 01       		.uleb128 0x1
 1382 07e2 9C       		.byte	0x9c
 1383 07e3 D5080000 		.4byte	0x8d5
 1384 07e7 1F       		.uleb128 0x1f
 1385 07e8 76747000 		.ascii	"vtp\000"
 1386 07ec 01       		.byte	0x1
 1387 07ed 5F       		.byte	0x5f
 1388 07ee 39070000 		.4byte	0x739
 1389 07f2 00000000 		.4byte	.LLST0
 1390 07f6 20       		.uleb128 0x20
 1391 07f7 61030000 		.4byte	.LASF118
 1392 07fb 01       		.byte	0x1
 1393 07fc 5F       		.byte	0x5f
 1394 07fd 28010000 		.4byte	0x128
 1395 0801 2C000000 		.4byte	.LLST1
 1396 0805 20       		.uleb128 0x20
 1397 0806 AC050000 		.4byte	.LASF119
 1398 080a 01       		.byte	0x1
 1399 080b 60       		.byte	0x60
 1400 080c F7020000 		.4byte	0x2f7
 1401 0810 D1000000 		.4byte	.LLST2
 1402 0814 1F       		.uleb128 0x1f
 1403 0815 70617200 		.ascii	"par\000"
 1404 0819 01       		.byte	0x1
 1405 081a 60       		.byte	0x60
 1406 081b 13030000 		.4byte	0x313
 1407 081f 24010000 		.4byte	.LLST3
 1408 0823 21       		.uleb128 0x21
 1409 0824 7000     		.ascii	"p\000"
 1410 0826 01       		.byte	0x1
 1411 0827 61       		.byte	0x61
 1412 0828 39070000 		.4byte	0x739
 1413 082c 91010000 		.4byte	.LLST4
 1414 0830 22       		.uleb128 0x22
 1415 0831 18000000 		.4byte	.LASF120
 1416 0835 01       		.byte	0x1
 1417 0836 62       		.byte	0x62
 1418 0837 28010000 		.4byte	0x128
 1419 083b AF010000 		.4byte	.LLST5
 1420 083f 23       		.uleb128 0x23
 1421 0840 7A040000 		.4byte	.LASF123
 1422 0844 E5080000 		.4byte	0x8e5
 1423 0848 24       		.uleb128 0x24
 1424 0849 00000000 		.4byte	.Ldebug_ranges0+0
 1425 084d 25       		.uleb128 0x25
ARM GAS  /tmp/ccgPMAqj.s 			page 26


 1426 084e 6E6F7700 		.ascii	"now\000"
 1427 0852 01       		.byte	0x1
 1428 0853 6C       		.byte	0x6c
 1429 0854 28010000 		.4byte	0x128
 1430 0858 26       		.uleb128 0x26
 1431 0859 7D070000 		.4byte	0x77d
 1432 085d 12000000 		.4byte	.LBB28
 1433 0861 30000000 		.4byte	.Ldebug_ranges0+0x30
 1434 0865 01       		.byte	0x1
 1435 0866 6C       		.byte	0x6c
 1436 0867 8B080000 		.4byte	0x88b
 1437 086b 27       		.uleb128 0x27
 1438 086c 71070000 		.4byte	0x771
 1439 0870 12000000 		.4byte	.LBB29
 1440 0874 30000000 		.4byte	.Ldebug_ranges0+0x30
 1441 0878 0F       		.byte	0xf
 1442 0879 E9       		.byte	0xe9
 1443 087a 28       		.uleb128 0x28
 1444 087b 65070000 		.4byte	0x765
 1445 087f 12000000 		.4byte	.LBB30
 1446 0883 30000000 		.4byte	.Ldebug_ranges0+0x30
 1447 0887 03       		.byte	0x3
 1448 0888 6B       		.byte	0x6b
 1449 0889 00       		.byte	0
 1450 088a 00       		.byte	0
 1451 088b 29       		.uleb128 0x29
 1452 088c A1070000 		.4byte	0x7a1
 1453 0890 58000000 		.4byte	.LBB36
 1454 0894 06000000 		.4byte	.LBE36-.LBB36
 1455 0898 01       		.byte	0x1
 1456 0899 8C       		.byte	0x8c
 1457 089a B1080000 		.4byte	0x8b1
 1458 089e 2A       		.uleb128 0x2a
 1459 089f AD070000 		.4byte	0x7ad
 1460 08a3 DC010000 		.4byte	.LLST6
 1461 08a7 2B       		.uleb128 0x2b
 1462 08a8 5C000000 		.4byte	.LVL12
 1463 08ac D4090000 		.4byte	0x9d4
 1464 08b0 00       		.byte	0
 1465 08b1 27       		.uleb128 0x27
 1466 08b2 89070000 		.4byte	0x789
 1467 08b6 64000000 		.4byte	.LBB38
 1468 08ba 48000000 		.4byte	.Ldebug_ranges0+0x48
 1469 08be 01       		.byte	0x1
 1470 08bf 81       		.byte	0x81
 1471 08c0 2A       		.uleb128 0x2a
 1472 08c1 95070000 		.4byte	0x795
 1473 08c5 EF010000 		.4byte	.LLST7
 1474 08c9 2C       		.uleb128 0x2c
 1475 08ca 74000000 		.4byte	.LVL16
 1476 08ce DF090000 		.4byte	0x9df
 1477 08d2 00       		.byte	0
 1478 08d3 00       		.byte	0
 1479 08d4 00       		.byte	0
 1480 08d5 10       		.uleb128 0x10
 1481 08d6 34070000 		.4byte	0x734
 1482 08da E5080000 		.4byte	0x8e5
ARM GAS  /tmp/ccgPMAqj.s 			page 27


 1483 08de 11       		.uleb128 0x11
 1484 08df 49040000 		.4byte	0x449
 1485 08e3 0A       		.byte	0xa
 1486 08e4 00       		.byte	0
 1487 08e5 18       		.uleb128 0x18
 1488 08e6 D5080000 		.4byte	0x8d5
 1489 08ea 1E       		.uleb128 0x1e
 1490 08eb 82000000 		.4byte	.LASF122
 1491 08ef 01       		.byte	0x1
 1492 08f0 B1       		.byte	0xb1
 1493 08f1 00000000 		.4byte	.LFB229
 1494 08f5 6C000000 		.4byte	.LFE229-.LFB229
 1495 08f9 01       		.uleb128 0x1
 1496 08fa 9C       		.byte	0x9c
 1497 08fb A8090000 		.4byte	0x9a8
 1498 08ff 1F       		.uleb128 0x1f
 1499 0900 76747000 		.ascii	"vtp\000"
 1500 0904 01       		.byte	0x1
 1501 0905 B1       		.byte	0xb1
 1502 0906 39070000 		.4byte	0x739
 1503 090a 0C020000 		.4byte	.LLST8
 1504 090e 23       		.uleb128 0x23
 1505 090f 7A040000 		.4byte	.LASF123
 1506 0913 B8090000 		.4byte	0x9b8
 1507 0917 22       		.uleb128 0x22
 1508 0918 B6010000 		.4byte	.LASF124
 1509 091c 01       		.byte	0x1
 1510 091d C5       		.byte	0xc5
 1511 091e 28010000 		.4byte	0x128
 1512 0922 46020000 		.4byte	.LLST9
 1513 0926 22       		.uleb128 0x22
 1514 0927 18000000 		.4byte	.LASF120
 1515 092b 01       		.byte	0x1
 1516 092c C5       		.byte	0xc5
 1517 092d 28010000 		.4byte	0x128
 1518 0931 59020000 		.4byte	.LLST10
 1519 0935 26       		.uleb128 0x26
 1520 0936 7D070000 		.4byte	0x77d
 1521 093a 44000000 		.4byte	.LBB46
 1522 093e 60000000 		.4byte	.Ldebug_ranges0+0x60
 1523 0942 01       		.byte	0x1
 1524 0943 EC       		.byte	0xec
 1525 0944 68090000 		.4byte	0x968
 1526 0948 27       		.uleb128 0x27
 1527 0949 71070000 		.4byte	0x771
 1528 094d 44000000 		.4byte	.LBB47
 1529 0951 60000000 		.4byte	.Ldebug_ranges0+0x60
 1530 0955 0F       		.byte	0xf
 1531 0956 E9       		.byte	0xe9
 1532 0957 28       		.uleb128 0x28
 1533 0958 65070000 		.4byte	0x765
 1534 095c 44000000 		.4byte	.LBB48
 1535 0960 60000000 		.4byte	.Ldebug_ranges0+0x60
 1536 0964 03       		.byte	0x3
 1537 0965 6B       		.byte	0x6b
 1538 0966 00       		.byte	0
 1539 0967 00       		.byte	0
ARM GAS  /tmp/ccgPMAqj.s 			page 28


 1540 0968 26       		.uleb128 0x26
 1541 0969 A1070000 		.4byte	0x7a1
 1542 096d 5A000000 		.4byte	.LBB54
 1543 0971 78000000 		.4byte	.Ldebug_ranges0+0x78
 1544 0975 01       		.byte	0x1
 1545 0976 FD       		.byte	0xfd
 1546 0977 8E090000 		.4byte	0x98e
 1547 097b 2A       		.uleb128 0x2a
 1548 097c AD070000 		.4byte	0x7ad
 1549 0980 6C020000 		.4byte	.LLST11
 1550 0984 2C       		.uleb128 0x2c
 1551 0985 62000000 		.4byte	.LVL25
 1552 0989 D4090000 		.4byte	0x9d4
 1553 098d 00       		.byte	0
 1554 098e 2D       		.uleb128 0x2d
 1555 098f B9070000 		.4byte	0x7b9
 1556 0993 64000000 		.4byte	.LBB58
 1557 0997 08000000 		.4byte	.LBE58-.LBB58
 1558 099b 01       		.byte	0x1
 1559 099c DD       		.byte	0xdd
 1560 099d 2C       		.uleb128 0x2c
 1561 099e 68000000 		.4byte	.LVL26
 1562 09a2 EA090000 		.4byte	0x9ea
 1563 09a6 00       		.byte	0
 1564 09a7 00       		.byte	0
 1565 09a8 10       		.uleb128 0x10
 1566 09a9 34070000 		.4byte	0x734
 1567 09ad B8090000 		.4byte	0x9b8
 1568 09b1 11       		.uleb128 0x11
 1569 09b2 49040000 		.4byte	0x449
 1570 09b6 0C       		.byte	0xc
 1571 09b7 00       		.byte	0
 1572 09b8 18       		.uleb128 0x18
 1573 09b9 A8090000 		.4byte	0x9a8
 1574 09bd 2E       		.uleb128 0x2e
 1575 09be B9000000 		.4byte	.LASF125
 1576 09c2 11       		.byte	0x11
 1577 09c3 A706     		.2byte	0x6a7
 1578 09c5 C6000000 		.4byte	0xc6
 1579 09c9 2F       		.uleb128 0x2f
 1580 09ca 636800   		.ascii	"ch\000"
 1581 09cd 08       		.byte	0x8
 1582 09ce 0902     		.2byte	0x209
 1583 09d0 E2030000 		.4byte	0x3e2
 1584 09d4 30       		.uleb128 0x30
 1585 09d5 D9050000 		.4byte	.LASF126
 1586 09d9 D9050000 		.4byte	.LASF126
 1587 09dd 10       		.byte	0x10
 1588 09de 59       		.byte	0x59
 1589 09df 30       		.uleb128 0x30
 1590 09e0 74050000 		.4byte	.LASF127
 1591 09e4 74050000 		.4byte	.LASF127
 1592 09e8 10       		.byte	0x10
 1593 09e9 57       		.byte	0x57
 1594 09ea 30       		.uleb128 0x30
 1595 09eb 07050000 		.4byte	.LASF128
 1596 09ef 07050000 		.4byte	.LASF128
ARM GAS  /tmp/ccgPMAqj.s 			page 29


 1597 09f3 10       		.byte	0x10
 1598 09f4 58       		.byte	0x58
 1599 09f5 00       		.byte	0
 1600              		.section	.debug_abbrev,"",%progbits
 1601              	.Ldebug_abbrev0:
 1602 0000 01       		.uleb128 0x1
 1603 0001 11       		.uleb128 0x11
 1604 0002 01       		.byte	0x1
 1605 0003 25       		.uleb128 0x25
 1606 0004 0E       		.uleb128 0xe
 1607 0005 13       		.uleb128 0x13
 1608 0006 0B       		.uleb128 0xb
 1609 0007 03       		.uleb128 0x3
 1610 0008 0E       		.uleb128 0xe
 1611 0009 55       		.uleb128 0x55
 1612 000a 17       		.uleb128 0x17
 1613 000b 11       		.uleb128 0x11
 1614 000c 01       		.uleb128 0x1
 1615 000d 10       		.uleb128 0x10
 1616 000e 17       		.uleb128 0x17
 1617 000f 00       		.byte	0
 1618 0010 00       		.byte	0
 1619 0011 02       		.uleb128 0x2
 1620 0012 24       		.uleb128 0x24
 1621 0013 00       		.byte	0
 1622 0014 0B       		.uleb128 0xb
 1623 0015 0B       		.uleb128 0xb
 1624 0016 3E       		.uleb128 0x3e
 1625 0017 0B       		.uleb128 0xb
 1626 0018 03       		.uleb128 0x3
 1627 0019 08       		.uleb128 0x8
 1628 001a 00       		.byte	0
 1629 001b 00       		.byte	0
 1630 001c 03       		.uleb128 0x3
 1631 001d 24       		.uleb128 0x24
 1632 001e 00       		.byte	0
 1633 001f 0B       		.uleb128 0xb
 1634 0020 0B       		.uleb128 0xb
 1635 0021 3E       		.uleb128 0x3e
 1636 0022 0B       		.uleb128 0xb
 1637 0023 03       		.uleb128 0x3
 1638 0024 0E       		.uleb128 0xe
 1639 0025 00       		.byte	0
 1640 0026 00       		.byte	0
 1641 0027 04       		.uleb128 0x4
 1642 0028 16       		.uleb128 0x16
 1643 0029 00       		.byte	0
 1644 002a 03       		.uleb128 0x3
 1645 002b 0E       		.uleb128 0xe
 1646 002c 3A       		.uleb128 0x3a
 1647 002d 0B       		.uleb128 0xb
 1648 002e 3B       		.uleb128 0x3b
 1649 002f 0B       		.uleb128 0xb
 1650 0030 49       		.uleb128 0x49
 1651 0031 13       		.uleb128 0x13
 1652 0032 00       		.byte	0
 1653 0033 00       		.byte	0
ARM GAS  /tmp/ccgPMAqj.s 			page 30


 1654 0034 05       		.uleb128 0x5
 1655 0035 35       		.uleb128 0x35
 1656 0036 00       		.byte	0
 1657 0037 49       		.uleb128 0x49
 1658 0038 13       		.uleb128 0x13
 1659 0039 00       		.byte	0
 1660 003a 00       		.byte	0
 1661 003b 06       		.uleb128 0x6
 1662 003c 13       		.uleb128 0x13
 1663 003d 01       		.byte	0x1
 1664 003e 03       		.uleb128 0x3
 1665 003f 0E       		.uleb128 0xe
 1666 0040 0B       		.uleb128 0xb
 1667 0041 0B       		.uleb128 0xb
 1668 0042 3A       		.uleb128 0x3a
 1669 0043 0B       		.uleb128 0xb
 1670 0044 3B       		.uleb128 0x3b
 1671 0045 0B       		.uleb128 0xb
 1672 0046 01       		.uleb128 0x1
 1673 0047 13       		.uleb128 0x13
 1674 0048 00       		.byte	0
 1675 0049 00       		.byte	0
 1676 004a 07       		.uleb128 0x7
 1677 004b 0D       		.uleb128 0xd
 1678 004c 00       		.byte	0
 1679 004d 03       		.uleb128 0x3
 1680 004e 0E       		.uleb128 0xe
 1681 004f 3A       		.uleb128 0x3a
 1682 0050 0B       		.uleb128 0xb
 1683 0051 3B       		.uleb128 0x3b
 1684 0052 0B       		.uleb128 0xb
 1685 0053 49       		.uleb128 0x49
 1686 0054 13       		.uleb128 0x13
 1687 0055 38       		.uleb128 0x38
 1688 0056 0B       		.uleb128 0xb
 1689 0057 00       		.byte	0
 1690 0058 00       		.byte	0
 1691 0059 08       		.uleb128 0x8
 1692 005a 0D       		.uleb128 0xd
 1693 005b 00       		.byte	0
 1694 005c 03       		.uleb128 0x3
 1695 005d 08       		.uleb128 0x8
 1696 005e 3A       		.uleb128 0x3a
 1697 005f 0B       		.uleb128 0xb
 1698 0060 3B       		.uleb128 0x3b
 1699 0061 05       		.uleb128 0x5
 1700 0062 49       		.uleb128 0x49
 1701 0063 13       		.uleb128 0x13
 1702 0064 38       		.uleb128 0x38
 1703 0065 0B       		.uleb128 0xb
 1704 0066 00       		.byte	0
 1705 0067 00       		.byte	0
 1706 0068 09       		.uleb128 0x9
 1707 0069 0D       		.uleb128 0xd
 1708 006a 00       		.byte	0
 1709 006b 03       		.uleb128 0x3
 1710 006c 0E       		.uleb128 0xe
ARM GAS  /tmp/ccgPMAqj.s 			page 31


 1711 006d 3A       		.uleb128 0x3a
 1712 006e 0B       		.uleb128 0xb
 1713 006f 3B       		.uleb128 0x3b
 1714 0070 05       		.uleb128 0x5
 1715 0071 49       		.uleb128 0x49
 1716 0072 13       		.uleb128 0x13
 1717 0073 38       		.uleb128 0x38
 1718 0074 0B       		.uleb128 0xb
 1719 0075 00       		.byte	0
 1720 0076 00       		.byte	0
 1721 0077 0A       		.uleb128 0xa
 1722 0078 0F       		.uleb128 0xf
 1723 0079 00       		.byte	0
 1724 007a 0B       		.uleb128 0xb
 1725 007b 0B       		.uleb128 0xb
 1726 007c 49       		.uleb128 0x49
 1727 007d 13       		.uleb128 0x13
 1728 007e 00       		.byte	0
 1729 007f 00       		.byte	0
 1730 0080 0B       		.uleb128 0xb
 1731 0081 13       		.uleb128 0x13
 1732 0082 01       		.byte	0x1
 1733 0083 03       		.uleb128 0x3
 1734 0084 0E       		.uleb128 0xe
 1735 0085 0B       		.uleb128 0xb
 1736 0086 0B       		.uleb128 0xb
 1737 0087 3A       		.uleb128 0x3a
 1738 0088 0B       		.uleb128 0xb
 1739 0089 3B       		.uleb128 0x3b
 1740 008a 05       		.uleb128 0x5
 1741 008b 01       		.uleb128 0x1
 1742 008c 13       		.uleb128 0x13
 1743 008d 00       		.byte	0
 1744 008e 00       		.byte	0
 1745 008f 0C       		.uleb128 0xc
 1746 0090 15       		.uleb128 0x15
 1747 0091 01       		.byte	0x1
 1748 0092 27       		.uleb128 0x27
 1749 0093 19       		.uleb128 0x19
 1750 0094 01       		.uleb128 0x1
 1751 0095 13       		.uleb128 0x13
 1752 0096 00       		.byte	0
 1753 0097 00       		.byte	0
 1754 0098 0D       		.uleb128 0xd
 1755 0099 05       		.uleb128 0x5
 1756 009a 00       		.byte	0
 1757 009b 49       		.uleb128 0x49
 1758 009c 13       		.uleb128 0x13
 1759 009d 00       		.byte	0
 1760 009e 00       		.byte	0
 1761 009f 0E       		.uleb128 0xe
 1762 00a0 0F       		.uleb128 0xf
 1763 00a1 00       		.byte	0
 1764 00a2 0B       		.uleb128 0xb
 1765 00a3 0B       		.uleb128 0xb
 1766 00a4 00       		.byte	0
 1767 00a5 00       		.byte	0
ARM GAS  /tmp/ccgPMAqj.s 			page 32


 1768 00a6 0F       		.uleb128 0xf
 1769 00a7 13       		.uleb128 0x13
 1770 00a8 01       		.byte	0x1
 1771 00a9 03       		.uleb128 0x3
 1772 00aa 0E       		.uleb128 0xe
 1773 00ab 0B       		.uleb128 0xb
 1774 00ac 05       		.uleb128 0x5
 1775 00ad 3A       		.uleb128 0x3a
 1776 00ae 0B       		.uleb128 0xb
 1777 00af 3B       		.uleb128 0x3b
 1778 00b0 05       		.uleb128 0x5
 1779 00b1 01       		.uleb128 0x1
 1780 00b2 13       		.uleb128 0x13
 1781 00b3 00       		.byte	0
 1782 00b4 00       		.byte	0
 1783 00b5 10       		.uleb128 0x10
 1784 00b6 01       		.uleb128 0x1
 1785 00b7 01       		.byte	0x1
 1786 00b8 49       		.uleb128 0x49
 1787 00b9 13       		.uleb128 0x13
 1788 00ba 01       		.uleb128 0x1
 1789 00bb 13       		.uleb128 0x13
 1790 00bc 00       		.byte	0
 1791 00bd 00       		.byte	0
 1792 00be 11       		.uleb128 0x11
 1793 00bf 21       		.uleb128 0x21
 1794 00c0 00       		.byte	0
 1795 00c1 49       		.uleb128 0x49
 1796 00c2 13       		.uleb128 0x13
 1797 00c3 2F       		.uleb128 0x2f
 1798 00c4 0B       		.uleb128 0xb
 1799 00c5 00       		.byte	0
 1800 00c6 00       		.byte	0
 1801 00c7 12       		.uleb128 0x12
 1802 00c8 0D       		.uleb128 0xd
 1803 00c9 00       		.byte	0
 1804 00ca 03       		.uleb128 0x3
 1805 00cb 08       		.uleb128 0x8
 1806 00cc 3A       		.uleb128 0x3a
 1807 00cd 0B       		.uleb128 0xb
 1808 00ce 3B       		.uleb128 0x3b
 1809 00cf 0B       		.uleb128 0xb
 1810 00d0 49       		.uleb128 0x49
 1811 00d1 13       		.uleb128 0x13
 1812 00d2 38       		.uleb128 0x38
 1813 00d3 0B       		.uleb128 0xb
 1814 00d4 00       		.byte	0
 1815 00d5 00       		.byte	0
 1816 00d6 13       		.uleb128 0x13
 1817 00d7 13       		.uleb128 0x13
 1818 00d8 01       		.byte	0x1
 1819 00d9 0B       		.uleb128 0xb
 1820 00da 0B       		.uleb128 0xb
 1821 00db 3A       		.uleb128 0x3a
 1822 00dc 0B       		.uleb128 0xb
 1823 00dd 3B       		.uleb128 0x3b
 1824 00de 05       		.uleb128 0x5
ARM GAS  /tmp/ccgPMAqj.s 			page 33


 1825 00df 01       		.uleb128 0x1
 1826 00e0 13       		.uleb128 0x13
 1827 00e1 00       		.byte	0
 1828 00e2 00       		.byte	0
 1829 00e3 14       		.uleb128 0x14
 1830 00e4 16       		.uleb128 0x16
 1831 00e5 00       		.byte	0
 1832 00e6 03       		.uleb128 0x3
 1833 00e7 0E       		.uleb128 0xe
 1834 00e8 3A       		.uleb128 0x3a
 1835 00e9 0B       		.uleb128 0xb
 1836 00ea 3B       		.uleb128 0x3b
 1837 00eb 05       		.uleb128 0x5
 1838 00ec 49       		.uleb128 0x49
 1839 00ed 13       		.uleb128 0x13
 1840 00ee 00       		.byte	0
 1841 00ef 00       		.byte	0
 1842 00f0 15       		.uleb128 0x15
 1843 00f1 13       		.uleb128 0x13
 1844 00f2 01       		.byte	0x1
 1845 00f3 0B       		.uleb128 0xb
 1846 00f4 0B       		.uleb128 0xb
 1847 00f5 3A       		.uleb128 0x3a
 1848 00f6 0B       		.uleb128 0xb
 1849 00f7 3B       		.uleb128 0x3b
 1850 00f8 0B       		.uleb128 0xb
 1851 00f9 01       		.uleb128 0x1
 1852 00fa 13       		.uleb128 0x13
 1853 00fb 00       		.byte	0
 1854 00fc 00       		.byte	0
 1855 00fd 16       		.uleb128 0x16
 1856 00fe 17       		.uleb128 0x17
 1857 00ff 01       		.byte	0x1
 1858 0100 0B       		.uleb128 0xb
 1859 0101 0B       		.uleb128 0xb
 1860 0102 3A       		.uleb128 0x3a
 1861 0103 0B       		.uleb128 0xb
 1862 0104 3B       		.uleb128 0x3b
 1863 0105 0B       		.uleb128 0xb
 1864 0106 01       		.uleb128 0x1
 1865 0107 13       		.uleb128 0x13
 1866 0108 00       		.byte	0
 1867 0109 00       		.byte	0
 1868 010a 17       		.uleb128 0x17
 1869 010b 0D       		.uleb128 0xd
 1870 010c 00       		.byte	0
 1871 010d 03       		.uleb128 0x3
 1872 010e 0E       		.uleb128 0xe
 1873 010f 3A       		.uleb128 0x3a
 1874 0110 0B       		.uleb128 0xb
 1875 0111 3B       		.uleb128 0x3b
 1876 0112 05       		.uleb128 0x5
 1877 0113 49       		.uleb128 0x49
 1878 0114 13       		.uleb128 0x13
 1879 0115 00       		.byte	0
 1880 0116 00       		.byte	0
 1881 0117 18       		.uleb128 0x18
ARM GAS  /tmp/ccgPMAqj.s 			page 34


 1882 0118 26       		.uleb128 0x26
 1883 0119 00       		.byte	0
 1884 011a 49       		.uleb128 0x49
 1885 011b 13       		.uleb128 0x13
 1886 011c 00       		.byte	0
 1887 011d 00       		.byte	0
 1888 011e 19       		.uleb128 0x19
 1889 011f 2E       		.uleb128 0x2e
 1890 0120 00       		.byte	0
 1891 0121 03       		.uleb128 0x3
 1892 0122 0E       		.uleb128 0xe
 1893 0123 3A       		.uleb128 0x3a
 1894 0124 0B       		.uleb128 0xb
 1895 0125 3B       		.uleb128 0x3b
 1896 0126 0B       		.uleb128 0xb
 1897 0127 27       		.uleb128 0x27
 1898 0128 19       		.uleb128 0x19
 1899 0129 49       		.uleb128 0x49
 1900 012a 13       		.uleb128 0x13
 1901 012b 20       		.uleb128 0x20
 1902 012c 0B       		.uleb128 0xb
 1903 012d 00       		.byte	0
 1904 012e 00       		.byte	0
 1905 012f 1A       		.uleb128 0x1a
 1906 0130 2E       		.uleb128 0x2e
 1907 0131 01       		.byte	0x1
 1908 0132 03       		.uleb128 0x3
 1909 0133 0E       		.uleb128 0xe
 1910 0134 3A       		.uleb128 0x3a
 1911 0135 0B       		.uleb128 0xb
 1912 0136 3B       		.uleb128 0x3b
 1913 0137 0B       		.uleb128 0xb
 1914 0138 27       		.uleb128 0x27
 1915 0139 19       		.uleb128 0x19
 1916 013a 20       		.uleb128 0x20
 1917 013b 0B       		.uleb128 0xb
 1918 013c 01       		.uleb128 0x1
 1919 013d 13       		.uleb128 0x13
 1920 013e 00       		.byte	0
 1921 013f 00       		.byte	0
 1922 0140 1B       		.uleb128 0x1b
 1923 0141 05       		.uleb128 0x5
 1924 0142 00       		.byte	0
 1925 0143 03       		.uleb128 0x3
 1926 0144 0E       		.uleb128 0xe
 1927 0145 3A       		.uleb128 0x3a
 1928 0146 0B       		.uleb128 0xb
 1929 0147 3B       		.uleb128 0x3b
 1930 0148 0B       		.uleb128 0xb
 1931 0149 49       		.uleb128 0x49
 1932 014a 13       		.uleb128 0x13
 1933 014b 00       		.byte	0
 1934 014c 00       		.byte	0
 1935 014d 1C       		.uleb128 0x1c
 1936 014e 2E       		.uleb128 0x2e
 1937 014f 00       		.byte	0
 1938 0150 03       		.uleb128 0x3
ARM GAS  /tmp/ccgPMAqj.s 			page 35


 1939 0151 0E       		.uleb128 0xe
 1940 0152 3A       		.uleb128 0x3a
 1941 0153 0B       		.uleb128 0xb
 1942 0154 3B       		.uleb128 0x3b
 1943 0155 0B       		.uleb128 0xb
 1944 0156 27       		.uleb128 0x27
 1945 0157 19       		.uleb128 0x19
 1946 0158 20       		.uleb128 0x20
 1947 0159 0B       		.uleb128 0xb
 1948 015a 00       		.byte	0
 1949 015b 00       		.byte	0
 1950 015c 1D       		.uleb128 0x1d
 1951 015d 2E       		.uleb128 0x2e
 1952 015e 00       		.byte	0
 1953 015f 3F       		.uleb128 0x3f
 1954 0160 19       		.uleb128 0x19
 1955 0161 03       		.uleb128 0x3
 1956 0162 0E       		.uleb128 0xe
 1957 0163 3A       		.uleb128 0x3a
 1958 0164 0B       		.uleb128 0xb
 1959 0165 3B       		.uleb128 0x3b
 1960 0166 0B       		.uleb128 0xb
 1961 0167 27       		.uleb128 0x27
 1962 0168 19       		.uleb128 0x19
 1963 0169 11       		.uleb128 0x11
 1964 016a 01       		.uleb128 0x1
 1965 016b 12       		.uleb128 0x12
 1966 016c 06       		.uleb128 0x6
 1967 016d 40       		.uleb128 0x40
 1968 016e 18       		.uleb128 0x18
 1969 016f 9742     		.uleb128 0x2117
 1970 0171 19       		.uleb128 0x19
 1971 0172 00       		.byte	0
 1972 0173 00       		.byte	0
 1973 0174 1E       		.uleb128 0x1e
 1974 0175 2E       		.uleb128 0x2e
 1975 0176 01       		.byte	0x1
 1976 0177 3F       		.uleb128 0x3f
 1977 0178 19       		.uleb128 0x19
 1978 0179 03       		.uleb128 0x3
 1979 017a 0E       		.uleb128 0xe
 1980 017b 3A       		.uleb128 0x3a
 1981 017c 0B       		.uleb128 0xb
 1982 017d 3B       		.uleb128 0x3b
 1983 017e 0B       		.uleb128 0xb
 1984 017f 27       		.uleb128 0x27
 1985 0180 19       		.uleb128 0x19
 1986 0181 11       		.uleb128 0x11
 1987 0182 01       		.uleb128 0x1
 1988 0183 12       		.uleb128 0x12
 1989 0184 06       		.uleb128 0x6
 1990 0185 40       		.uleb128 0x40
 1991 0186 18       		.uleb128 0x18
 1992 0187 9742     		.uleb128 0x2117
 1993 0189 19       		.uleb128 0x19
 1994 018a 01       		.uleb128 0x1
 1995 018b 13       		.uleb128 0x13
ARM GAS  /tmp/ccgPMAqj.s 			page 36


 1996 018c 00       		.byte	0
 1997 018d 00       		.byte	0
 1998 018e 1F       		.uleb128 0x1f
 1999 018f 05       		.uleb128 0x5
 2000 0190 00       		.byte	0
 2001 0191 03       		.uleb128 0x3
 2002 0192 08       		.uleb128 0x8
 2003 0193 3A       		.uleb128 0x3a
 2004 0194 0B       		.uleb128 0xb
 2005 0195 3B       		.uleb128 0x3b
 2006 0196 0B       		.uleb128 0xb
 2007 0197 49       		.uleb128 0x49
 2008 0198 13       		.uleb128 0x13
 2009 0199 02       		.uleb128 0x2
 2010 019a 17       		.uleb128 0x17
 2011 019b 00       		.byte	0
 2012 019c 00       		.byte	0
 2013 019d 20       		.uleb128 0x20
 2014 019e 05       		.uleb128 0x5
 2015 019f 00       		.byte	0
 2016 01a0 03       		.uleb128 0x3
 2017 01a1 0E       		.uleb128 0xe
 2018 01a2 3A       		.uleb128 0x3a
 2019 01a3 0B       		.uleb128 0xb
 2020 01a4 3B       		.uleb128 0x3b
 2021 01a5 0B       		.uleb128 0xb
 2022 01a6 49       		.uleb128 0x49
 2023 01a7 13       		.uleb128 0x13
 2024 01a8 02       		.uleb128 0x2
 2025 01a9 17       		.uleb128 0x17
 2026 01aa 00       		.byte	0
 2027 01ab 00       		.byte	0
 2028 01ac 21       		.uleb128 0x21
 2029 01ad 34       		.uleb128 0x34
 2030 01ae 00       		.byte	0
 2031 01af 03       		.uleb128 0x3
 2032 01b0 08       		.uleb128 0x8
 2033 01b1 3A       		.uleb128 0x3a
 2034 01b2 0B       		.uleb128 0xb
 2035 01b3 3B       		.uleb128 0x3b
 2036 01b4 0B       		.uleb128 0xb
 2037 01b5 49       		.uleb128 0x49
 2038 01b6 13       		.uleb128 0x13
 2039 01b7 02       		.uleb128 0x2
 2040 01b8 17       		.uleb128 0x17
 2041 01b9 00       		.byte	0
 2042 01ba 00       		.byte	0
 2043 01bb 22       		.uleb128 0x22
 2044 01bc 34       		.uleb128 0x34
 2045 01bd 00       		.byte	0
 2046 01be 03       		.uleb128 0x3
 2047 01bf 0E       		.uleb128 0xe
 2048 01c0 3A       		.uleb128 0x3a
 2049 01c1 0B       		.uleb128 0xb
 2050 01c2 3B       		.uleb128 0x3b
 2051 01c3 0B       		.uleb128 0xb
 2052 01c4 49       		.uleb128 0x49
ARM GAS  /tmp/ccgPMAqj.s 			page 37


 2053 01c5 13       		.uleb128 0x13
 2054 01c6 02       		.uleb128 0x2
 2055 01c7 17       		.uleb128 0x17
 2056 01c8 00       		.byte	0
 2057 01c9 00       		.byte	0
 2058 01ca 23       		.uleb128 0x23
 2059 01cb 34       		.uleb128 0x34
 2060 01cc 00       		.byte	0
 2061 01cd 03       		.uleb128 0x3
 2062 01ce 0E       		.uleb128 0xe
 2063 01cf 49       		.uleb128 0x49
 2064 01d0 13       		.uleb128 0x13
 2065 01d1 34       		.uleb128 0x34
 2066 01d2 19       		.uleb128 0x19
 2067 01d3 00       		.byte	0
 2068 01d4 00       		.byte	0
 2069 01d5 24       		.uleb128 0x24
 2070 01d6 0B       		.uleb128 0xb
 2071 01d7 01       		.byte	0x1
 2072 01d8 55       		.uleb128 0x55
 2073 01d9 17       		.uleb128 0x17
 2074 01da 00       		.byte	0
 2075 01db 00       		.byte	0
 2076 01dc 25       		.uleb128 0x25
 2077 01dd 34       		.uleb128 0x34
 2078 01de 00       		.byte	0
 2079 01df 03       		.uleb128 0x3
 2080 01e0 08       		.uleb128 0x8
 2081 01e1 3A       		.uleb128 0x3a
 2082 01e2 0B       		.uleb128 0xb
 2083 01e3 3B       		.uleb128 0x3b
 2084 01e4 0B       		.uleb128 0xb
 2085 01e5 49       		.uleb128 0x49
 2086 01e6 13       		.uleb128 0x13
 2087 01e7 00       		.byte	0
 2088 01e8 00       		.byte	0
 2089 01e9 26       		.uleb128 0x26
 2090 01ea 1D       		.uleb128 0x1d
 2091 01eb 01       		.byte	0x1
 2092 01ec 31       		.uleb128 0x31
 2093 01ed 13       		.uleb128 0x13
 2094 01ee 52       		.uleb128 0x52
 2095 01ef 01       		.uleb128 0x1
 2096 01f0 55       		.uleb128 0x55
 2097 01f1 17       		.uleb128 0x17
 2098 01f2 58       		.uleb128 0x58
 2099 01f3 0B       		.uleb128 0xb
 2100 01f4 59       		.uleb128 0x59
 2101 01f5 0B       		.uleb128 0xb
 2102 01f6 01       		.uleb128 0x1
 2103 01f7 13       		.uleb128 0x13
 2104 01f8 00       		.byte	0
 2105 01f9 00       		.byte	0
 2106 01fa 27       		.uleb128 0x27
 2107 01fb 1D       		.uleb128 0x1d
 2108 01fc 01       		.byte	0x1
 2109 01fd 31       		.uleb128 0x31
ARM GAS  /tmp/ccgPMAqj.s 			page 38


 2110 01fe 13       		.uleb128 0x13
 2111 01ff 52       		.uleb128 0x52
 2112 0200 01       		.uleb128 0x1
 2113 0201 55       		.uleb128 0x55
 2114 0202 17       		.uleb128 0x17
 2115 0203 58       		.uleb128 0x58
 2116 0204 0B       		.uleb128 0xb
 2117 0205 59       		.uleb128 0x59
 2118 0206 0B       		.uleb128 0xb
 2119 0207 00       		.byte	0
 2120 0208 00       		.byte	0
 2121 0209 28       		.uleb128 0x28
 2122 020a 1D       		.uleb128 0x1d
 2123 020b 00       		.byte	0
 2124 020c 31       		.uleb128 0x31
 2125 020d 13       		.uleb128 0x13
 2126 020e 52       		.uleb128 0x52
 2127 020f 01       		.uleb128 0x1
 2128 0210 55       		.uleb128 0x55
 2129 0211 17       		.uleb128 0x17
 2130 0212 58       		.uleb128 0x58
 2131 0213 0B       		.uleb128 0xb
 2132 0214 59       		.uleb128 0x59
 2133 0215 0B       		.uleb128 0xb
 2134 0216 00       		.byte	0
 2135 0217 00       		.byte	0
 2136 0218 29       		.uleb128 0x29
 2137 0219 1D       		.uleb128 0x1d
 2138 021a 01       		.byte	0x1
 2139 021b 31       		.uleb128 0x31
 2140 021c 13       		.uleb128 0x13
 2141 021d 11       		.uleb128 0x11
 2142 021e 01       		.uleb128 0x1
 2143 021f 12       		.uleb128 0x12
 2144 0220 06       		.uleb128 0x6
 2145 0221 58       		.uleb128 0x58
 2146 0222 0B       		.uleb128 0xb
 2147 0223 59       		.uleb128 0x59
 2148 0224 0B       		.uleb128 0xb
 2149 0225 01       		.uleb128 0x1
 2150 0226 13       		.uleb128 0x13
 2151 0227 00       		.byte	0
 2152 0228 00       		.byte	0
 2153 0229 2A       		.uleb128 0x2a
 2154 022a 05       		.uleb128 0x5
 2155 022b 00       		.byte	0
 2156 022c 31       		.uleb128 0x31
 2157 022d 13       		.uleb128 0x13
 2158 022e 02       		.uleb128 0x2
 2159 022f 17       		.uleb128 0x17
 2160 0230 00       		.byte	0
 2161 0231 00       		.byte	0
 2162 0232 2B       		.uleb128 0x2b
 2163 0233 898201   		.uleb128 0x4109
 2164 0236 00       		.byte	0
 2165 0237 11       		.uleb128 0x11
 2166 0238 01       		.uleb128 0x1
ARM GAS  /tmp/ccgPMAqj.s 			page 39


 2167 0239 31       		.uleb128 0x31
 2168 023a 13       		.uleb128 0x13
 2169 023b 00       		.byte	0
 2170 023c 00       		.byte	0
 2171 023d 2C       		.uleb128 0x2c
 2172 023e 898201   		.uleb128 0x4109
 2173 0241 00       		.byte	0
 2174 0242 11       		.uleb128 0x11
 2175 0243 01       		.uleb128 0x1
 2176 0244 9542     		.uleb128 0x2115
 2177 0246 19       		.uleb128 0x19
 2178 0247 31       		.uleb128 0x31
 2179 0248 13       		.uleb128 0x13
 2180 0249 00       		.byte	0
 2181 024a 00       		.byte	0
 2182 024b 2D       		.uleb128 0x2d
 2183 024c 1D       		.uleb128 0x1d
 2184 024d 01       		.byte	0x1
 2185 024e 31       		.uleb128 0x31
 2186 024f 13       		.uleb128 0x13
 2187 0250 11       		.uleb128 0x11
 2188 0251 01       		.uleb128 0x1
 2189 0252 12       		.uleb128 0x12
 2190 0253 06       		.uleb128 0x6
 2191 0254 58       		.uleb128 0x58
 2192 0255 0B       		.uleb128 0xb
 2193 0256 59       		.uleb128 0x59
 2194 0257 0B       		.uleb128 0xb
 2195 0258 00       		.byte	0
 2196 0259 00       		.byte	0
 2197 025a 2E       		.uleb128 0x2e
 2198 025b 34       		.uleb128 0x34
 2199 025c 00       		.byte	0
 2200 025d 03       		.uleb128 0x3
 2201 025e 0E       		.uleb128 0xe
 2202 025f 3A       		.uleb128 0x3a
 2203 0260 0B       		.uleb128 0xb
 2204 0261 3B       		.uleb128 0x3b
 2205 0262 05       		.uleb128 0x5
 2206 0263 49       		.uleb128 0x49
 2207 0264 13       		.uleb128 0x13
 2208 0265 3F       		.uleb128 0x3f
 2209 0266 19       		.uleb128 0x19
 2210 0267 3C       		.uleb128 0x3c
 2211 0268 19       		.uleb128 0x19
 2212 0269 00       		.byte	0
 2213 026a 00       		.byte	0
 2214 026b 2F       		.uleb128 0x2f
 2215 026c 34       		.uleb128 0x34
 2216 026d 00       		.byte	0
 2217 026e 03       		.uleb128 0x3
 2218 026f 08       		.uleb128 0x8
 2219 0270 3A       		.uleb128 0x3a
 2220 0271 0B       		.uleb128 0xb
 2221 0272 3B       		.uleb128 0x3b
 2222 0273 05       		.uleb128 0x5
 2223 0274 49       		.uleb128 0x49
ARM GAS  /tmp/ccgPMAqj.s 			page 40


 2224 0275 13       		.uleb128 0x13
 2225 0276 3F       		.uleb128 0x3f
 2226 0277 19       		.uleb128 0x19
 2227 0278 3C       		.uleb128 0x3c
 2228 0279 19       		.uleb128 0x19
 2229 027a 00       		.byte	0
 2230 027b 00       		.byte	0
 2231 027c 30       		.uleb128 0x30
 2232 027d 2E       		.uleb128 0x2e
 2233 027e 00       		.byte	0
 2234 027f 3F       		.uleb128 0x3f
 2235 0280 19       		.uleb128 0x19
 2236 0281 3C       		.uleb128 0x3c
 2237 0282 19       		.uleb128 0x19
 2238 0283 6E       		.uleb128 0x6e
 2239 0284 0E       		.uleb128 0xe
 2240 0285 03       		.uleb128 0x3
 2241 0286 0E       		.uleb128 0xe
 2242 0287 3A       		.uleb128 0x3a
 2243 0288 0B       		.uleb128 0xb
 2244 0289 3B       		.uleb128 0x3b
 2245 028a 0B       		.uleb128 0xb
 2246 028b 00       		.byte	0
 2247 028c 00       		.byte	0
 2248 028d 00       		.byte	0
 2249              		.section	.debug_loc,"",%progbits
 2250              	.Ldebug_loc0:
 2251              	.LLST0:
 2252 0000 00000000 		.4byte	.LVL0
 2253 0004 1E000000 		.4byte	.LVL3
 2254 0008 0100     		.2byte	0x1
 2255 000a 50       		.byte	0x50
 2256 000b 1E000000 		.4byte	.LVL3
 2257 000f 70000000 		.4byte	.LVL15
 2258 0013 0100     		.2byte	0x1
 2259 0015 55       		.byte	0x55
 2260 0016 73000000 		.4byte	.LVL16-1
 2261 001a 78000000 		.4byte	.LFE228
 2262 001e 0400     		.2byte	0x4
 2263 0020 F3       		.byte	0xf3
 2264 0021 01       		.uleb128 0x1
 2265 0022 50       		.byte	0x50
 2266 0023 9F       		.byte	0x9f
 2267 0024 00000000 		.4byte	0
 2268 0028 00000000 		.4byte	0
 2269              	.LLST1:
 2270 002c 00000000 		.4byte	.LVL0
 2271 0030 0C000000 		.4byte	.LVL1
 2272 0034 0100     		.2byte	0x1
 2273 0036 51       		.byte	0x51
 2274 0037 0C000000 		.4byte	.LVL1
 2275 003b 1E000000 		.4byte	.LVL3
 2276 003f 0400     		.2byte	0x4
 2277 0041 F3       		.byte	0xf3
 2278 0042 01       		.uleb128 0x1
 2279 0043 51       		.byte	0x51
 2280 0044 9F       		.byte	0x9f
ARM GAS  /tmp/ccgPMAqj.s 			page 41


 2281 0045 1E000000 		.4byte	.LVL3
 2282 0049 2C000000 		.4byte	.LVL5
 2283 004d 0100     		.2byte	0x1
 2284 004f 51       		.byte	0x51
 2285 0050 2C000000 		.4byte	.LVL5
 2286 0054 58000000 		.4byte	.LVL11
 2287 0058 1700     		.2byte	0x17
 2288 005a F3       		.byte	0xf3
 2289 005b 01       		.uleb128 0x1
 2290 005c 51       		.byte	0x51
 2291 005d 32       		.byte	0x32
 2292 005e F3       		.byte	0xf3
 2293 005f 01       		.uleb128 0x1
 2294 0060 51       		.byte	0x51
 2295 0061 40       		.byte	0x40
 2296 0062 4B       		.byte	0x4b
 2297 0063 24       		.byte	0x24
 2298 0064 22       		.byte	0x22
 2299 0065 0C       		.byte	0xc
 2300 0066 01000080 		.4byte	0x80000001
 2301 006a 2B       		.byte	0x2b
 2302 006b 28       		.byte	0x28
 2303 006c 0100     		.2byte	0x1
 2304 006e 16       		.byte	0x16
 2305 006f 13       		.byte	0x13
 2306 0070 9F       		.byte	0x9f
 2307 0071 58000000 		.4byte	.LVL11
 2308 0075 5B000000 		.4byte	.LVL12-1
 2309 0079 0100     		.2byte	0x1
 2310 007b 51       		.byte	0x51
 2311 007c 5B000000 		.4byte	.LVL12-1
 2312 0080 5E000000 		.4byte	.LVL13
 2313 0084 1700     		.2byte	0x17
 2314 0086 F3       		.byte	0xf3
 2315 0087 01       		.uleb128 0x1
 2316 0088 51       		.byte	0x51
 2317 0089 32       		.byte	0x32
 2318 008a F3       		.byte	0xf3
 2319 008b 01       		.uleb128 0x1
 2320 008c 51       		.byte	0x51
 2321 008d 40       		.byte	0x40
 2322 008e 4B       		.byte	0x4b
 2323 008f 24       		.byte	0x24
 2324 0090 22       		.byte	0x22
 2325 0091 0C       		.byte	0xc
 2326 0092 01000080 		.4byte	0x80000001
 2327 0096 2B       		.byte	0x2b
 2328 0097 28       		.byte	0x28
 2329 0098 0100     		.2byte	0x1
 2330 009a 16       		.byte	0x16
 2331 009b 13       		.byte	0x13
 2332 009c 9F       		.byte	0x9f
 2333 009d 5E000000 		.4byte	.LVL13
 2334 00a1 73000000 		.4byte	.LVL16-1
 2335 00a5 0100     		.2byte	0x1
 2336 00a7 51       		.byte	0x51
 2337 00a8 73000000 		.4byte	.LVL16-1
ARM GAS  /tmp/ccgPMAqj.s 			page 42


 2338 00ac 78000000 		.4byte	.LFE228
 2339 00b0 1700     		.2byte	0x17
 2340 00b2 F3       		.byte	0xf3
 2341 00b3 01       		.uleb128 0x1
 2342 00b4 51       		.byte	0x51
 2343 00b5 32       		.byte	0x32
 2344 00b6 F3       		.byte	0xf3
 2345 00b7 01       		.uleb128 0x1
 2346 00b8 51       		.byte	0x51
 2347 00b9 40       		.byte	0x40
 2348 00ba 4B       		.byte	0x4b
 2349 00bb 24       		.byte	0x24
 2350 00bc 22       		.byte	0x22
 2351 00bd 0C       		.byte	0xc
 2352 00be 01000080 		.4byte	0x80000001
 2353 00c2 2B       		.byte	0x2b
 2354 00c3 28       		.byte	0x28
 2355 00c4 0100     		.2byte	0x1
 2356 00c6 16       		.byte	0x16
 2357 00c7 13       		.byte	0x13
 2358 00c8 9F       		.byte	0x9f
 2359 00c9 00000000 		.4byte	0
 2360 00cd 00000000 		.4byte	0
 2361              	.LLST2:
 2362 00d1 00000000 		.4byte	.LVL0
 2363 00d5 2C000000 		.4byte	.LVL5
 2364 00d9 0100     		.2byte	0x1
 2365 00db 52       		.byte	0x52
 2366 00dc 2C000000 		.4byte	.LVL5
 2367 00e0 58000000 		.4byte	.LVL11
 2368 00e4 0400     		.2byte	0x4
 2369 00e6 F3       		.byte	0xf3
 2370 00e7 01       		.uleb128 0x1
 2371 00e8 52       		.byte	0x52
 2372 00e9 9F       		.byte	0x9f
 2373 00ea 58000000 		.4byte	.LVL11
 2374 00ee 5B000000 		.4byte	.LVL12-1
 2375 00f2 0100     		.2byte	0x1
 2376 00f4 52       		.byte	0x52
 2377 00f5 5B000000 		.4byte	.LVL12-1
 2378 00f9 5E000000 		.4byte	.LVL13
 2379 00fd 0400     		.2byte	0x4
 2380 00ff F3       		.byte	0xf3
 2381 0100 01       		.uleb128 0x1
 2382 0101 52       		.byte	0x52
 2383 0102 9F       		.byte	0x9f
 2384 0103 5E000000 		.4byte	.LVL13
 2385 0107 73000000 		.4byte	.LVL16-1
 2386 010b 0100     		.2byte	0x1
 2387 010d 52       		.byte	0x52
 2388 010e 73000000 		.4byte	.LVL16-1
 2389 0112 78000000 		.4byte	.LFE228
 2390 0116 0400     		.2byte	0x4
 2391 0118 F3       		.byte	0xf3
 2392 0119 01       		.uleb128 0x1
 2393 011a 52       		.byte	0x52
 2394 011b 9F       		.byte	0x9f
ARM GAS  /tmp/ccgPMAqj.s 			page 43


 2395 011c 00000000 		.4byte	0
 2396 0120 00000000 		.4byte	0
 2397              	.LLST3:
 2398 0124 00000000 		.4byte	.LVL0
 2399 0128 16000000 		.4byte	.LVL2
 2400 012c 0100     		.2byte	0x1
 2401 012e 53       		.byte	0x53
 2402 012f 16000000 		.4byte	.LVL2
 2403 0133 1E000000 		.4byte	.LVL3
 2404 0137 0200     		.2byte	0x2
 2405 0139 70       		.byte	0x70
 2406 013a 10       		.sleb128 16
 2407 013b 1E000000 		.4byte	.LVL3
 2408 013f 2C000000 		.4byte	.LVL5
 2409 0143 0200     		.2byte	0x2
 2410 0145 75       		.byte	0x75
 2411 0146 10       		.sleb128 16
 2412 0147 2C000000 		.4byte	.LVL5
 2413 014b 58000000 		.4byte	.LVL11
 2414 014f 0400     		.2byte	0x4
 2415 0151 F3       		.byte	0xf3
 2416 0152 01       		.uleb128 0x1
 2417 0153 53       		.byte	0x53
 2418 0154 9F       		.byte	0x9f
 2419 0155 58000000 		.4byte	.LVL11
 2420 0159 5B000000 		.4byte	.LVL12-1
 2421 015d 0200     		.2byte	0x2
 2422 015f 75       		.byte	0x75
 2423 0160 10       		.sleb128 16
 2424 0161 5B000000 		.4byte	.LVL12-1
 2425 0165 5E000000 		.4byte	.LVL13
 2426 0169 0400     		.2byte	0x4
 2427 016b F3       		.byte	0xf3
 2428 016c 01       		.uleb128 0x1
 2429 016d 53       		.byte	0x53
 2430 016e 9F       		.byte	0x9f
 2431 016f 5E000000 		.4byte	.LVL13
 2432 0173 70000000 		.4byte	.LVL15
 2433 0177 0200     		.2byte	0x2
 2434 0179 75       		.byte	0x75
 2435 017a 10       		.sleb128 16
 2436 017b 73000000 		.4byte	.LVL16-1
 2437 017f 78000000 		.4byte	.LFE228
 2438 0183 0400     		.2byte	0x4
 2439 0185 F3       		.byte	0xf3
 2440 0186 01       		.uleb128 0x1
 2441 0187 53       		.byte	0x53
 2442 0188 9F       		.byte	0x9f
 2443 0189 00000000 		.4byte	0
 2444 018d 00000000 		.4byte	0
 2445              	.LLST4:
 2446 0191 2E000000 		.4byte	.LVL6
 2447 0195 36000000 		.4byte	.LVL7
 2448 0199 0100     		.2byte	0x1
 2449 019b 53       		.byte	0x53
 2450 019c 38000000 		.4byte	.LVL8
 2451 01a0 58000000 		.4byte	.LVL11
ARM GAS  /tmp/ccgPMAqj.s 			page 44


 2452 01a4 0100     		.2byte	0x1
 2453 01a6 53       		.byte	0x53
 2454 01a7 00000000 		.4byte	0
 2455 01ab 00000000 		.4byte	0
 2456              	.LLST5:
 2457 01af 28000000 		.4byte	.LVL4
 2458 01b3 52000000 		.4byte	.LVL9
 2459 01b7 0100     		.2byte	0x1
 2460 01b9 54       		.byte	0x54
 2461 01ba 52000000 		.4byte	.LVL9
 2462 01be 54000000 		.4byte	.LVL10
 2463 01c2 0500     		.2byte	0x5
 2464 01c4 73       		.byte	0x73
 2465 01c5 04       		.sleb128 4
 2466 01c6 06       		.byte	0x6
 2467 01c7 23       		.byte	0x23
 2468 01c8 08       		.uleb128 0x8
 2469 01c9 58000000 		.4byte	.LVL11
 2470 01cd 5E000000 		.4byte	.LVL13
 2471 01d1 0100     		.2byte	0x1
 2472 01d3 54       		.byte	0x54
 2473 01d4 00000000 		.4byte	0
 2474 01d8 00000000 		.4byte	0
 2475              	.LLST6:
 2476 01dc 58000000 		.4byte	.LVL11
 2477 01e0 5B000000 		.4byte	.LVL12-1
 2478 01e4 0100     		.2byte	0x1
 2479 01e6 50       		.byte	0x50
 2480 01e7 00000000 		.4byte	0
 2481 01eb 00000000 		.4byte	0
 2482              	.LLST7:
 2483 01ef 6C000000 		.4byte	.LVL14
 2484 01f3 70000000 		.4byte	.LVL15
 2485 01f7 0B00     		.2byte	0xb
 2486 01f9 76       		.byte	0x76
 2487 01fa 1C       		.sleb128 28
 2488 01fb 06       		.byte	0x6
 2489 01fc 23       		.byte	0x23
 2490 01fd 08       		.uleb128 0x8
 2491 01fe 06       		.byte	0x6
 2492 01ff 76       		.byte	0x76
 2493 0200 28       		.sleb128 40
 2494 0201 06       		.byte	0x6
 2495 0202 22       		.byte	0x22
 2496 0203 9F       		.byte	0x9f
 2497 0204 00000000 		.4byte	0
 2498 0208 00000000 		.4byte	0
 2499              	.LLST8:
 2500 020c 00000000 		.4byte	.LVL17
 2501 0210 26000000 		.4byte	.LVL18
 2502 0214 0100     		.2byte	0x1
 2503 0216 50       		.byte	0x50
 2504 0217 26000000 		.4byte	.LVL18
 2505 021b 2A000000 		.4byte	.LVL19
 2506 021f 0400     		.2byte	0x4
 2507 0221 F3       		.byte	0xf3
 2508 0222 01       		.uleb128 0x1
ARM GAS  /tmp/ccgPMAqj.s 			page 45


 2509 0223 50       		.byte	0x50
 2510 0224 9F       		.byte	0x9f
 2511 0225 2A000000 		.4byte	.LVL19
 2512 0229 2C000000 		.4byte	.LVL20
 2513 022d 0100     		.2byte	0x1
 2514 022f 50       		.byte	0x50
 2515 0230 2C000000 		.4byte	.LVL20
 2516 0234 6C000000 		.4byte	.LFE229
 2517 0238 0400     		.2byte	0x4
 2518 023a F3       		.byte	0xf3
 2519 023b 01       		.uleb128 0x1
 2520 023c 50       		.byte	0x50
 2521 023d 9F       		.byte	0x9f
 2522 023e 00000000 		.4byte	0
 2523 0242 00000000 		.4byte	0
 2524              	.LLST9:
 2525 0246 4E000000 		.4byte	.LVL21
 2526 024a 61000000 		.4byte	.LVL25-1
 2527 024e 0100     		.2byte	0x1
 2528 0250 52       		.byte	0x52
 2529 0251 00000000 		.4byte	0
 2530 0255 00000000 		.4byte	0
 2531              	.LLST10:
 2532 0259 54000000 		.4byte	.LVL22
 2533 025d 61000000 		.4byte	.LVL25-1
 2534 0261 0100     		.2byte	0x1
 2535 0263 53       		.byte	0x53
 2536 0264 00000000 		.4byte	0
 2537 0268 00000000 		.4byte	0
 2538              	.LLST11:
 2539 026c 5A000000 		.4byte	.LVL23
 2540 0270 5C000000 		.4byte	.LVL24
 2541 0274 0600     		.2byte	0x6
 2542 0276 73       		.byte	0x73
 2543 0277 00       		.sleb128 0
 2544 0278 70       		.byte	0x70
 2545 0279 00       		.sleb128 0
 2546 027a 22       		.byte	0x22
 2547 027b 9F       		.byte	0x9f
 2548 027c 5C000000 		.4byte	.LVL24
 2549 0280 61000000 		.4byte	.LVL25-1
 2550 0284 0100     		.2byte	0x1
 2551 0286 50       		.byte	0x50
 2552 0287 00000000 		.4byte	0
 2553 028b 00000000 		.4byte	0
 2554              		.section	.debug_aranges,"",%progbits
 2555 0000 2C000000 		.4byte	0x2c
 2556 0004 0200     		.2byte	0x2
 2557 0006 00000000 		.4byte	.Ldebug_info0
 2558 000a 04       		.byte	0x4
 2559 000b 00       		.byte	0
 2560 000c 0000     		.2byte	0
 2561 000e 0000     		.2byte	0
 2562 0010 00000000 		.4byte	.LFB227
 2563 0014 1C000000 		.4byte	.LFE227-.LFB227
 2564 0018 00000000 		.4byte	.LFB228
 2565 001c 78000000 		.4byte	.LFE228-.LFB228
ARM GAS  /tmp/ccgPMAqj.s 			page 46


 2566 0020 00000000 		.4byte	.LFB229
 2567 0024 6C000000 		.4byte	.LFE229-.LFB229
 2568 0028 00000000 		.4byte	0
 2569 002c 00000000 		.4byte	0
 2570              		.section	.debug_ranges,"",%progbits
 2571              	.Ldebug_ranges0:
 2572 0000 02000000 		.4byte	.LBB27
 2573 0004 10000000 		.4byte	.LBE27
 2574 0008 12000000 		.4byte	.LBB42
 2575 000c 18000000 		.4byte	.LBE42
 2576 0010 1C000000 		.4byte	.LBB43
 2577 0014 2C000000 		.4byte	.LBE43
 2578 0018 58000000 		.4byte	.LBB44
 2579 001c 6C000000 		.4byte	.LBE44
 2580 0020 70000000 		.4byte	.LBB45
 2581 0024 78000000 		.4byte	.LBE45
 2582 0028 00000000 		.4byte	0
 2583 002c 00000000 		.4byte	0
 2584 0030 12000000 		.4byte	.LBB28
 2585 0034 16000000 		.4byte	.LBE28
 2586 0038 1C000000 		.4byte	.LBB35
 2587 003c 1E000000 		.4byte	.LBE35
 2588 0040 00000000 		.4byte	0
 2589 0044 00000000 		.4byte	0
 2590 0048 64000000 		.4byte	.LBB38
 2591 004c 66000000 		.4byte	.LBE38
 2592 0050 70000000 		.4byte	.LBB41
 2593 0054 78000000 		.4byte	.LBE41
 2594 0058 00000000 		.4byte	0
 2595 005c 00000000 		.4byte	0
 2596 0060 44000000 		.4byte	.LBB46
 2597 0064 48000000 		.4byte	.LBE46
 2598 0068 4A000000 		.4byte	.LBB53
 2599 006c 4C000000 		.4byte	.LBE53
 2600 0070 00000000 		.4byte	0
 2601 0074 00000000 		.4byte	0
 2602 0078 5A000000 		.4byte	.LBB54
 2603 007c 5C000000 		.4byte	.LBE54
 2604 0080 5E000000 		.4byte	.LBB57
 2605 0084 62000000 		.4byte	.LBE57
 2606 0088 00000000 		.4byte	0
 2607 008c 00000000 		.4byte	0
 2608 0090 00000000 		.4byte	.LFB227
 2609 0094 1C000000 		.4byte	.LFE227
 2610 0098 00000000 		.4byte	.LFB228
 2611 009c 78000000 		.4byte	.LFE228
 2612 00a0 00000000 		.4byte	.LFB229
 2613 00a4 6C000000 		.4byte	.LFE229
 2614 00a8 00000000 		.4byte	0
 2615 00ac 00000000 		.4byte	0
 2616              		.section	.debug_line,"",%progbits
 2617              	.Ldebug_line0:
 2618 0000 78030000 		.section	.debug_str,"MS",%progbits,1
 2618      02008302 
 2618      00000201 
 2618      FB0E0D00 
 2618      01010101 
ARM GAS  /tmp/ccgPMAqj.s 			page 47


 2619              	.LASF51:
 2620 0000 72656164 		.ascii	"ready_list_t\000"
 2620      795F6C69 
 2620      73745F74 
 2620      00
 2621              	.LASF85:
 2622 000d 44494552 		.ascii	"DIER\000"
 2622      00
 2623              	.LASF99:
 2624 0012 77747472 		.ascii	"wttrp\000"
 2624      7000
 2625              	.LASF120:
 2626 0018 64656C74 		.ascii	"delta\000"
 2626      6100
 2627              	.LASF96:
 2628 001e 7264796D 		.ascii	"rdymsg\000"
 2628      736700
 2629              	.LASF17:
 2630 0025 75696E74 		.ascii	"uint64_t\000"
 2630      36345F74 
 2630      00
 2631              	.LASF24:
 2632 002e 6576656E 		.ascii	"eventmask_t\000"
 2632      746D6173 
 2632      6B5F7400 
 2633              	.LASF7:
 2634 003a 5F5F7569 		.ascii	"__uint8_t\000"
 2634      6E74385F 
 2634      7400
 2635              	.LASF23:
 2636 0044 6D73675F 		.ascii	"msg_t\000"
 2636      7400
 2637              	.LASF83:
 2638 004a 706F7274 		.ascii	"port_intctx\000"
 2638      5F696E74 
 2638      63747800 
 2639              	.LASF70:
 2640 0056 73797374 		.ascii	"system_debug_t\000"
 2640      656D5F64 
 2640      65627567 
 2640      5F7400
 2641              	.LASF87:
 2642 0065 43434D52 		.ascii	"CCMR2\000"
 2642      3200
 2643              	.LASF13:
 2644 006b 6C6F6E67 		.ascii	"long long unsigned int\000"
 2644      206C6F6E 
 2644      6720756E 
 2644      7369676E 
 2644      65642069 
 2645              	.LASF122:
 2646 0082 63685654 		.ascii	"chVTDoResetI\000"
 2646      446F5265 
 2646      73657449 
 2646      00
 2647              	.LASF97:
 2648 008f 65786974 		.ascii	"exitcode\000"
ARM GAS  /tmp/ccgPMAqj.s 			page 48


 2648      636F6465 
 2648      00
 2649              	.LASF77:
 2650 0098 6D61696E 		.ascii	"mainthread\000"
 2650      74687265 
 2650      616400
 2651              	.LASF67:
 2652 00a3 76697274 		.ascii	"virtual_timers_list_t\000"
 2652      75616C5F 
 2652      74696D65 
 2652      72735F6C 
 2652      6973745F 
 2653              	.LASF125:
 2654 00b9 49544D5F 		.ascii	"ITM_RxBuffer\000"
 2654      52784275 
 2654      66666572 
 2654      00
 2655              	.LASF89:
 2656 00c6 42445452 		.ascii	"BDTR\000"
 2656      00
 2657              	.LASF50:
 2658 00cb 63685F74 		.ascii	"ch_threads_queue\000"
 2658      68726561 
 2658      64735F71 
 2658      75657565 
 2658      00
 2659              	.LASF30:
 2660 00dc 705F7072 		.ascii	"p_prio\000"
 2660      696F00
 2661              	.LASF86:
 2662 00e3 43434D52 		.ascii	"CCMR1\000"
 2662      3100
 2663              	.LASF132:
 2664 00e9 5F76745F 		.ascii	"_vt_init\000"
 2664      696E6974 
 2664      00
 2665              	.LASF91:
 2666 00f2 43434D52 		.ascii	"CCMR3\000"
 2666      3300
 2667              	.LASF3:
 2668 00f8 7369676E 		.ascii	"signed char\000"
 2668      65642063 
 2668      68617200 
 2669              	.LASF107:
 2670 0104 6D5F7175 		.ascii	"m_queue\000"
 2670      65756500 
 2671              	.LASF76:
 2672 010c 76746C69 		.ascii	"vtlist\000"
 2672      737400
 2673              	.LASF74:
 2674 0113 63685F73 		.ascii	"ch_system\000"
 2674      79737465 
 2674      6D00
 2675              	.LASF9:
 2676 011d 6C6F6E67 		.ascii	"long int\000"
 2676      20696E74 
 2676      00
ARM GAS  /tmp/ccgPMAqj.s 			page 49


 2677              	.LASF20:
 2678 0126 74737461 		.ascii	"tstate_t\000"
 2678      74655F74 
 2678      00
 2679              	.LASF88:
 2680 012f 43434552 		.ascii	"CCER\000"
 2680      00
 2681              	.LASF1:
 2682 0134 6C6F6E67 		.ascii	"long long int\000"
 2682      206C6F6E 
 2682      6720696E 
 2682      7400
 2683              	.LASF32:
 2684 0142 705F6E65 		.ascii	"p_newer\000"
 2684      77657200 
 2685              	.LASF104:
 2686 014a 735F7175 		.ascii	"s_queue\000"
 2686      65756500 
 2687              	.LASF6:
 2688 0152 73686F72 		.ascii	"short unsigned int\000"
 2688      7420756E 
 2688      7369676E 
 2688      65642069 
 2688      6E7400
 2689              	.LASF56:
 2690 0165 725F6E65 		.ascii	"r_newer\000"
 2690      77657200 
 2691              	.LASF44:
 2692 016d 705F6D70 		.ascii	"p_mpool\000"
 2692      6F6F6C00 
 2693              	.LASF80:
 2694 0175 72656761 		.ascii	"regarm_t\000"
 2694      726D5F74 
 2694      00
 2695              	.LASF63:
 2696 017e 76745F70 		.ascii	"vt_prev\000"
 2696      72657600 
 2697              	.LASF111:
 2698 0186 6D757465 		.ascii	"mutex_t\000"
 2698      785F7400 
 2699              	.LASF78:
 2700 018e 69646C65 		.ascii	"idle_thread_wa\000"
 2700      5F746872 
 2700      6561645F 
 2700      776100
 2701              	.LASF25:
 2702 019d 636E745F 		.ascii	"cnt_t\000"
 2702      7400
 2703              	.LASF114:
 2704 01a3 63685654 		.ascii	"chVTGetSystemTimeX\000"
 2704      47657453 
 2704      79737465 
 2704      6D54696D 
 2704      655800
 2705              	.LASF124:
 2706 01b6 6E6F7764 		.ascii	"nowdelta\000"
 2706      656C7461 
ARM GAS  /tmp/ccgPMAqj.s 			page 50


 2706      00
 2707              	.LASF62:
 2708 01bf 76745F6E 		.ascii	"vt_next\000"
 2708      65787400 
 2709              	.LASF100:
 2710 01c7 77747365 		.ascii	"wtsemp\000"
 2710      6D7000
 2711              	.LASF39:
 2712 01ce 705F6D73 		.ascii	"p_msgqueue\000"
 2712      67717565 
 2712      756500
 2713              	.LASF105:
 2714 01d9 735F636E 		.ascii	"s_cnt\000"
 2714      7400
 2715              	.LASF84:
 2716 01df 534D4352 		.ascii	"SMCR\000"
 2716      00
 2717              	.LASF47:
 2718 01e4 63685F74 		.ascii	"ch_thread\000"
 2718      68726561 
 2718      6400
 2719              	.LASF130:
 2720 01ee 2F686F6D 		.ascii	"/home/selim/working/ChibiOS/os/rt/src/chvt.c\000"
 2720      652F7365 
 2720      6C696D2F 
 2720      776F726B 
 2720      696E672F 
 2721              	.LASF115:
 2722 021b 706F7274 		.ascii	"port_timer_start_alarm\000"
 2722      5F74696D 
 2722      65725F73 
 2722      74617274 
 2722      5F616C61 
 2723              	.LASF73:
 2724 0232 63685F73 		.ascii	"ch_system_t\000"
 2724      79737465 
 2724      6D5F7400 
 2725              	.LASF93:
 2726 023e 73746D33 		.ascii	"stm32_tim_t\000"
 2726      325F7469 
 2726      6D5F7400 
 2727              	.LASF52:
 2728 024a 63685F72 		.ascii	"ch_ready_list\000"
 2728      65616479 
 2728      5F6C6973 
 2728      7400
 2729              	.LASF121:
 2730 0258 63685654 		.ascii	"chVTDoSetI\000"
 2730      446F5365 
 2730      744900
 2731              	.LASF8:
 2732 0263 5F5F696E 		.ascii	"__int32_t\000"
 2732      7433325F 
 2732      7400
 2733              	.LASF81:
 2734 026d 73746B61 		.ascii	"stkalign_t\000"
 2734      6C69676E 
ARM GAS  /tmp/ccgPMAqj.s 			page 51


 2734      5F7400
 2735              	.LASF38:
 2736 0278 705F7761 		.ascii	"p_waiting\000"
 2736      6974696E 
 2736      6700
 2737              	.LASF79:
 2738 0282 73697A65 		.ascii	"sizetype\000"
 2738      74797065 
 2738      00
 2739              	.LASF45:
 2740 028b 74687265 		.ascii	"thread_reference_t\000"
 2740      61645F72 
 2740      65666572 
 2740      656E6365 
 2740      5F7400
 2741              	.LASF68:
 2742 029e 63685F76 		.ascii	"ch_virtual_timers_list\000"
 2742      69727475 
 2742      616C5F74 
 2742      696D6572 
 2742      735F6C69 
 2743              	.LASF2:
 2744 02b5 6C6F6E67 		.ascii	"long double\000"
 2744      20646F75 
 2744      626C6500 
 2745              	.LASF69:
 2746 02c1 76745F6C 		.ascii	"vt_lasttime\000"
 2746      61737474 
 2746      696D6500 
 2747              	.LASF33:
 2748 02cd 705F6F6C 		.ascii	"p_older\000"
 2748      64657200 
 2749              	.LASF55:
 2750 02d5 725F6374 		.ascii	"r_ctx\000"
 2750      7800
 2751              	.LASF31:
 2752 02db 705F6374 		.ascii	"p_ctx\000"
 2752      7800
 2753              	.LASF95:
 2754 02e1 746D5F63 		.ascii	"tm_calibration_t\000"
 2754      616C6962 
 2754      72617469 
 2754      6F6E5F74 
 2754      00
 2755              	.LASF117:
 2756 02f2 74696D65 		.ascii	"time\000"
 2756      00
 2757              	.LASF58:
 2758 02f7 725F6375 		.ascii	"r_current\000"
 2758      7272656E 
 2758      7400
 2759              	.LASF57:
 2760 0301 725F6F6C 		.ascii	"r_older\000"
 2760      64657200 
 2761              	.LASF12:
 2762 0309 5F5F7569 		.ascii	"__uint64_t\000"
 2762      6E743634 
ARM GAS  /tmp/ccgPMAqj.s 			page 52


 2762      5F7400
 2763              	.LASF21:
 2764 0314 74726566 		.ascii	"trefs_t\000"
 2764      735F7400 
 2765              	.LASF60:
 2766 031c 76697274 		.ascii	"virtual_timer_t\000"
 2766      75616C5F 
 2766      74696D65 
 2766      725F7400 
 2767              	.LASF29:
 2768 032c 705F7072 		.ascii	"p_prev\000"
 2768      657600
 2769              	.LASF22:
 2770 0333 74707269 		.ascii	"tprio_t\000"
 2770      6F5F7400 
 2771              	.LASF71:
 2772 033b 63685F73 		.ascii	"ch_system_debug\000"
 2772      79737465 
 2772      6D5F6465 
 2772      62756700 
 2773              	.LASF15:
 2774 034b 696E7433 		.ascii	"int32_t\000"
 2774      325F7400 
 2775              	.LASF4:
 2776 0353 756E7369 		.ascii	"unsigned char\000"
 2776      676E6564 
 2776      20636861 
 2776      7200
 2777              	.LASF118:
 2778 0361 64656C61 		.ascii	"delay\000"
 2778      7900
 2779              	.LASF42:
 2780 0367 705F6D74 		.ascii	"p_mtxlist\000"
 2780      786C6973 
 2780      7400
 2781              	.LASF5:
 2782 0371 73686F72 		.ascii	"short int\000"
 2782      7420696E 
 2782      7400
 2783              	.LASF35:
 2784 037b 705F7374 		.ascii	"p_state\000"
 2784      61746500 
 2785              	.LASF54:
 2786 0383 725F7072 		.ascii	"r_prio\000"
 2786      696F00
 2787              	.LASF129:
 2788 038a 474E5520 		.ascii	"GNU C11 5.3.1 20160307 (release) [ARM/embedded-5-br"
 2788      43313120 
 2788      352E332E 
 2788      31203230 
 2788      31363033 
 2789 03bd 616E6368 		.ascii	"anch revision 234589] -mcpu=cortex-m4 -mno-thumb-in"
 2789      20726576 
 2789      6973696F 
 2789      6E203233 
 2789      34353839 
 2790 03f0 74657277 		.ascii	"terwork -mthumb -ggdb -O2 -fomit-frame-pointer -fal"
ARM GAS  /tmp/ccgPMAqj.s 			page 53


 2790      6F726B20 
 2790      2D6D7468 
 2790      756D6220 
 2790      2D676764 
 2791 0423 69676E2D 		.ascii	"ign-functions=16 -ffunction-sections -fdata-section"
 2791      66756E63 
 2791      74696F6E 
 2791      733D3136 
 2791      202D6666 
 2792 0456 73202D66 		.ascii	"s -fno-common\000"
 2792      6E6F2D63 
 2792      6F6D6D6F 
 2792      6E00
 2793              	.LASF102:
 2794 0464 65776D61 		.ascii	"ewmask\000"
 2794      736B00
 2795              	.LASF28:
 2796 046b 705F6E65 		.ascii	"p_next\000"
 2796      787400
 2797              	.LASF14:
 2798 0472 75696E74 		.ascii	"uint8_t\000"
 2798      385F7400 
 2799              	.LASF123:
 2800 047a 5F5F6675 		.ascii	"__func__\000"
 2800      6E635F5F 
 2800      00
 2801              	.LASF61:
 2802 0483 63685F76 		.ascii	"ch_virtual_timer\000"
 2802      69727475 
 2802      616C5F74 
 2802      696D6572 
 2802      00
 2803              	.LASF103:
 2804 0494 63685F73 		.ascii	"ch_semaphore\000"
 2804      656D6170 
 2804      686F7265 
 2804      00
 2805              	.LASF92:
 2806 04a1 43435852 		.ascii	"CCXR\000"
 2806      00
 2807              	.LASF41:
 2808 04a6 705F6570 		.ascii	"p_epending\000"
 2808      656E6469 
 2808      6E6700
 2809              	.LASF112:
 2810 04b1 73745F6C 		.ascii	"st_lld_get_counter\000"
 2810      6C645F67 
 2810      65745F63 
 2810      6F756E74 
 2810      657200
 2811              	.LASF16:
 2812 04c4 75696E74 		.ascii	"uint32_t\000"
 2812      33325F74 
 2812      00
 2813              	.LASF101:
 2814 04cd 77746D74 		.ascii	"wtmtxp\000"
 2814      787000
ARM GAS  /tmp/ccgPMAqj.s 			page 54


 2815              	.LASF53:
 2816 04d4 725F7175 		.ascii	"r_queue\000"
 2816      65756500 
 2817              	.LASF64:
 2818 04dc 76745F64 		.ascii	"vt_delta\000"
 2818      656C7461 
 2818      00
 2819              	.LASF48:
 2820 04e5 63685F74 		.ascii	"ch_threads_list\000"
 2820      68726561 
 2820      64735F6C 
 2820      69737400 
 2821              	.LASF11:
 2822 04f5 6C6F6E67 		.ascii	"long unsigned int\000"
 2822      20756E73 
 2822      69676E65 
 2822      6420696E 
 2822      7400
 2823              	.LASF128:
 2824 0507 73745374 		.ascii	"stStopAlarm\000"
 2824      6F70416C 
 2824      61726D00 
 2825              	.LASF110:
 2826 0513 63686172 		.ascii	"char\000"
 2826      00
 2827              	.LASF0:
 2828 0518 756E7369 		.ascii	"unsigned int\000"
 2828      676E6564 
 2828      20696E74 
 2828      00
 2829              	.LASF90:
 2830 0525 444D4152 		.ascii	"DMAR\000"
 2830      00
 2831              	.LASF27:
 2832 052a 74687265 		.ascii	"thread_t\000"
 2832      61645F74 
 2832      00
 2833              	.LASF109:
 2834 0533 6D5F6E65 		.ascii	"m_next\000"
 2834      787400
 2835              	.LASF26:
 2836 053a 73797374 		.ascii	"systime_t\000"
 2836      696D655F 
 2836      7400
 2837              	.LASF43:
 2838 0544 705F7265 		.ascii	"p_realprio\000"
 2838      616C7072 
 2838      696F00
 2839              	.LASF59:
 2840 054f 76746675 		.ascii	"vtfunc_t\000"
 2840      6E635F74 
 2840      00
 2841              	.LASF10:
 2842 0558 5F5F7569 		.ascii	"__uint32_t\000"
 2842      6E743332 
 2842      5F7400
 2843              	.LASF72:
ARM GAS  /tmp/ccgPMAqj.s 			page 55


 2844 0563 70616E69 		.ascii	"panic_msg\000"
 2844      635F6D73 
 2844      6700
 2845              	.LASF94:
 2846 056d 6F666673 		.ascii	"offset\000"
 2846      657400
 2847              	.LASF127:
 2848 0574 73745374 		.ascii	"stStartAlarm\000"
 2848      61727441 
 2848      6C61726D 
 2848      00
 2849              	.LASF82:
 2850 0581 636F6E74 		.ascii	"context\000"
 2850      65787400 
 2851              	.LASF113:
 2852 0589 706F7274 		.ascii	"port_timer_get_time\000"
 2852      5F74696D 
 2852      65725F67 
 2852      65745F74 
 2852      696D6500 
 2853              	.LASF18:
 2854 059d 7274636E 		.ascii	"rtcnt_t\000"
 2854      745F7400 
 2855              	.LASF66:
 2856 05a5 76745F70 		.ascii	"vt_par\000"
 2856      617200
 2857              	.LASF119:
 2858 05ac 76746675 		.ascii	"vtfunc\000"
 2858      6E6300
 2859              	.LASF49:
 2860 05b3 74687265 		.ascii	"threads_queue_t\000"
 2860      6164735F 
 2860      71756575 
 2860      655F7400 
 2861              	.LASF106:
 2862 05c3 63685F6D 		.ascii	"ch_mutex\000"
 2862      75746578 
 2862      00
 2863              	.LASF37:
 2864 05cc 705F7265 		.ascii	"p_refs\000"
 2864      667300
 2865              	.LASF75:
 2866 05d3 726C6973 		.ascii	"rlist\000"
 2866      7400
 2867              	.LASF126:
 2868 05d9 73745365 		.ascii	"stSetAlarm\000"
 2868      74416C61 
 2868      726D00
 2869              	.LASF131:
 2870 05e4 706F7274 		.ascii	"port_timer_stop_alarm\000"
 2870      5F74696D 
 2870      65725F73 
 2870      746F705F 
 2870      616C6172 
 2871              	.LASF116:
 2872 05fa 706F7274 		.ascii	"port_timer_set_alarm\000"
 2872      5F74696D 
ARM GAS  /tmp/ccgPMAqj.s 			page 56


 2872      65725F73 
 2872      65745F61 
 2872      6C61726D 
 2873              	.LASF98:
 2874 060f 77746F62 		.ascii	"wtobjp\000"
 2874      6A7000
 2875              	.LASF34:
 2876 0616 705F6E61 		.ascii	"p_name\000"
 2876      6D6500
 2877              	.LASF46:
 2878 061d 74687265 		.ascii	"threads_list_t\000"
 2878      6164735F 
 2878      6C697374 
 2878      5F7400
 2879              	.LASF19:
 2880 062c 746D6F64 		.ascii	"tmode_t\000"
 2880      655F7400 
 2881              	.LASF36:
 2882 0634 705F666C 		.ascii	"p_flags\000"
 2882      61677300 
 2883              	.LASF40:
 2884 063c 705F6D73 		.ascii	"p_msg\000"
 2884      6700
 2885              	.LASF108:
 2886 0642 6D5F6F77 		.ascii	"m_owner\000"
 2886      6E657200 
 2887              	.LASF65:
 2888 064a 76745F66 		.ascii	"vt_func\000"
 2888      756E6300 
 2889              		.ident	"GCC: (GNU Tools for ARM Embedded Processors) 5.3.1 20160307 (release) [ARM/embedded-5-bran
ARM GAS  /tmp/ccgPMAqj.s 			page 57


DEFINED SYMBOLS
                            *ABS*:0000000000000000 chvt.c
     /tmp/ccgPMAqj.s:20     .text._vt_init:0000000000000000 $t
     /tmp/ccgPMAqj.s:26     .text._vt_init:0000000000000000 _vt_init
     /tmp/ccgPMAqj.s:54     .text._vt_init:0000000000000018 $d
     /tmp/ccgPMAqj.s:59     .text.chVTDoSetI:0000000000000000 $t
     /tmp/ccgPMAqj.s:65     .text.chVTDoSetI:0000000000000000 chVTDoSetI
     /tmp/ccgPMAqj.s:237    .text.chVTDoSetI:0000000000000074 $d
     /tmp/ccgPMAqj.s:245    .text.chVTDoResetI:0000000000000000 $t
     /tmp/ccgPMAqj.s:251    .text.chVTDoResetI:0000000000000000 chVTDoResetI
     /tmp/ccgPMAqj.s:395    .text.chVTDoResetI:0000000000000068 $d
                     .debug_frame:0000000000000010 $d

UNDEFINED SYMBOLS
ch
stSetAlarm
stStartAlarm
stStopAlarm
