ARM GAS  /tmp/ccYZ3wWT.s 			page 1


   1              		.syntax unified
   2              		.cpu cortex-m4
   3              		.fpu softvfp
   4              		.eabi_attribute 20, 1
   5              		.eabi_attribute 21, 1
   6              		.eabi_attribute 23, 3
   7              		.eabi_attribute 24, 1
   8              		.eabi_attribute 25, 1
   9              		.eabi_attribute 26, 1
  10              		.eabi_attribute 30, 2
  11              		.eabi_attribute 34, 1
  12              		.eabi_attribute 18, 4
  13              		.thumb
  14              		.syntax unified
  15              		.file	"main.c"
  16              		.text
  17              	.Ltext0:
  18              		.cfi_sections	.debug_frame
  19              		.section	.text.adcerrorcallback,"ax",%progbits
  20              		.align	2
  21              		.p2align 4,,15
  22              		.thumb
  23              		.thumb_func
  24              		.type	adcerrorcallback, %function
  25              	adcerrorcallback:
  26              	.LFB259:
  27              		.file 1 "main.c"
  28              		.loc 1 40 0
  29              		.cfi_startproc
  30              		@ args = 0, pretend = 0, frame = 0
  31              		@ frame_needed = 0, uses_anonymous_args = 0
  32              		@ link register save eliminated.
  33              	.LVL0:
  34 0000 7047     		bx	lr
  35              		.cfi_endproc
  36              	.LFE259:
  37              		.size	adcerrorcallback, .-adcerrorcallback
  38 0002 00BF     		.section	.text.chprintf,"ax",%progbits
  39              		.align	2
  40              		.p2align 4,,15
  41              		.thumb
  42              		.thumb_func
  43              		.type	chprintf, %function
  44              	chprintf:
  45              	.LFB258:
  46              		.file 2 "/home/selim/working/ChibiOS/os/hal/lib/streams/chprintf.h"
  47              		.loc 2 69 0
  48              		.cfi_startproc
  49              		@ args = 4, pretend = 12, frame = 8
  50              		@ frame_needed = 0, uses_anonymous_args = 1
  51              	.LVL1:
  52              		.loc 2 69 0
  53 0000 0EB4     		push	{r1, r2, r3}
  54              		.cfi_def_cfa_offset 12
  55              		.cfi_offset 1, -12
  56              		.cfi_offset 2, -8
  57              		.cfi_offset 3, -4
ARM GAS  /tmp/ccYZ3wWT.s 			page 2


  58 0002 00B5     		push	{lr}
  59              		.cfi_def_cfa_offset 16
  60              		.cfi_offset 14, -16
  61 0004 82B0     		sub	sp, sp, #8
  62              		.cfi_def_cfa_offset 24
  63              		.loc 2 69 0
  64 0006 03AA     		add	r2, sp, #12
  65 0008 52F8041B 		ldr	r1, [r2], #4
  66              		.loc 2 73 0
  67 000c 0192     		str	r2, [sp, #4]
  68              		.loc 2 74 0
  69 000e FFF7FEFF 		bl	chvprintf
  70              	.LVL2:
  71              		.loc 2 78 0
  72 0012 02B0     		add	sp, sp, #8
  73              		.cfi_def_cfa_offset 16
  74              		@ sp needed
  75 0014 5DF804EB 		ldr	lr, [sp], #4
  76              		.cfi_restore 14
  77              		.cfi_def_cfa_offset 12
  78 0018 03B0     		add	sp, sp, #12
  79              		.cfi_restore 3
  80              		.cfi_restore 2
  81              		.cfi_restore 1
  82              		.cfi_def_cfa_offset 0
  83 001a 7047     		bx	lr
  84              		.cfi_endproc
  85              	.LFE258:
  86              		.size	chprintf, .-chprintf
  87              		.global	__aeabi_i2d
  88              		.global	__aeabi_dmul
  89              		.global	__aeabi_dsub
  90              		.global	__aeabi_ddiv
  91              		.global	__aeabi_dadd
  92              		.global	__aeabi_d2f
  93              		.global	__aeabi_f2d
  94              		.section	.text.Thread2,"ax",%progbits
  95              		.align	2
  96              		.p2align 4,,15
  97              		.thumb
  98              		.thumb_func
  99              		.type	Thread2, %function
 100              	Thread2:
 101              	.LFB260:
 102              		.loc 1 73 0
 103              		.cfi_startproc
 104              		@ args = 0, pretend = 0, frame = 8
 105              		@ frame_needed = 0, uses_anonymous_args = 0
 106              	.LVL3:
 107 0000 10B5     		push	{r4, lr}
 108              		.cfi_def_cfa_offset 8
 109              		.cfi_offset 4, -8
 110              		.cfi_offset 14, -4
 111              		.loc 1 75 0
 112 0002 0021     		movs	r1, #0
 113              		.loc 1 73 0
 114 0004 82B0     		sub	sp, sp, #8
ARM GAS  /tmp/ccYZ3wWT.s 			page 3


 115              		.cfi_def_cfa_offset 16
 116              		.loc 1 75 0
 117 0006 2048     		ldr	r0, .L8+16
 118              	.LVL4:
 119 0008 FFF7FEFF 		bl	adcStart
 120              	.LVL5:
 121              		.loc 1 76 0
 122 000c FFF7FEFF 		bl	adcSTM32EnableTSVREFE
 123              	.LVL6:
 124              	.L5:
 125              	.LBB63:
 126              		.loc 1 87 0 discriminator 1
 127 0010 0DF10602 		add	r2, sp, #6
 128 0014 0123     		movs	r3, #1
 129 0016 1D49     		ldr	r1, .L8+20
 130 0018 1B48     		ldr	r0, .L8+16
 131 001a FFF7FEFF 		bl	adcConvert
 132              	.LVL7:
 133              		.loc 1 89 0 discriminator 1
 134 001e BDF80600 		ldrh	r0, [sp, #6]
 135 0022 FFF7FEFF 		bl	__aeabi_i2d
 136              	.LVL8:
 137 0026 0022     		movs	r2, #0
 138 0028 194B     		ldr	r3, .L8+24
 139 002a FFF7FEFF 		bl	__aeabi_dmul
 140              	.LVL9:
 141 002e 0022     		movs	r2, #0
 142 0030 184B     		ldr	r3, .L8+28
 143 0032 FFF7FEFF 		bl	__aeabi_dmul
 144              	.LVL10:
 145 0036 10A3     		adr	r3, .L8
 146 0038 D3E90023 		ldrd	r2, [r3]
 147 003c FFF7FEFF 		bl	__aeabi_dsub
 148              	.LVL11:
 149 0040 0FA3     		adr	r3, .L8+8
 150 0042 D3E90023 		ldrd	r2, [r3]
 151 0046 FFF7FEFF 		bl	__aeabi_ddiv
 152              	.LVL12:
 153 004a 0022     		movs	r2, #0
 154 004c 124B     		ldr	r3, .L8+32
 155 004e FFF7FEFF 		bl	__aeabi_dadd
 156              	.LVL13:
 157 0052 FFF7FEFF 		bl	__aeabi_d2f
 158              	.LVL14:
 159 0056 0446     		mov	r4, r0
 160              	.LVL15:
 161              		.loc 1 91 0 discriminator 1
 162 0058 4FF47A70 		mov	r0, #1000
 163              	.LVL16:
 164 005c FFF7FEFF 		bl	chThdSleep
 165              	.LVL17:
 166              		.loc 1 92 0 discriminator 1
 167 0060 2046     		mov	r0, r4
 168 0062 FFF7FEFF 		bl	__aeabi_f2d
 169              	.LVL18:
 170 0066 0246     		mov	r2, r0
 171 0068 0B46     		mov	r3, r1
ARM GAS  /tmp/ccYZ3wWT.s 			page 4


 172 006a 0C48     		ldr	r0, .L8+36
 173 006c 0C49     		ldr	r1, .L8+40
 174 006e FFF7FEFF 		bl	chprintf
 175              	.LVL19:
 176 0072 CDE7     		b	.L5
 177              	.L9:
 178 0074 AFF30080 		.align	3
 179              	.L8:
 180 0078 00000080 		.word	2147483648
 181 007c EB51E83F 		.word	1072189931
 182 0080 00000040 		.word	1073741824
 183 0084 E17A643F 		.word	1063549665
 184 0088 00000000 		.word	ADCD1
 185 008c 00000000 		.word	.LANCHOR0
 186 0090 00000840 		.word	1074266112
 187 0094 0000303F 		.word	1060110336
 188 0098 00003940 		.word	1077477376
 189 009c 00000000 		.word	.LANCHOR1
 190 00a0 00000000 		.word	.LC0
 191              	.LBE63:
 192              		.cfi_endproc
 193              	.LFE260:
 194              		.size	Thread2, .-Thread2
 195              		.section	.text.Thread1,"ax",%progbits
 196              		.align	2
 197              		.p2align 4,,15
 198              		.thumb
 199              		.thumb_func
 200              		.type	Thread1, %function
 201              	Thread1:
 202              	.LFB264:
 203              		.loc 1 218 0
 204              		.cfi_startproc
 205              		@ args = 0, pretend = 0, frame = 0
 206              		@ frame_needed = 0, uses_anonymous_args = 0
 207              	.LVL20:
 208 0000 F8B5     		push	{r3, r4, r5, r6, r7, lr}
 209              		.cfi_def_cfa_offset 24
 210              		.cfi_offset 3, -24
 211              		.cfi_offset 4, -20
 212              		.cfi_offset 5, -16
 213              		.cfi_offset 6, -12
 214              		.cfi_offset 7, -8
 215              		.cfi_offset 14, -4
 216              		.loc 1 223 0
 217 0002 4C4B     		ldr	r3, .L23
 218 0004 4C4A     		ldr	r2, .L23+4
 219 0006 9B69     		ldr	r3, [r3, #24]
 220              		.loc 1 226 0
 221 0008 4C48     		ldr	r0, .L23+8
 222              	.LVL21:
 223              		.loc 1 223 0
 224 000a 9A61     		str	r2, [r3, #24]
 225              		.loc 1 226 0
 226 000c 2021     		movs	r1, #32
 227 000e 4322     		movs	r2, #67
 228 0010 FFF7FEFF 		bl	lis302dlWriteRegister
ARM GAS  /tmp/ccYZ3wWT.s 			page 5


 229              	.LVL22:
 230              		.loc 1 227 0
 231 0014 0022     		movs	r2, #0
 232 0016 2121     		movs	r1, #33
 233 0018 4848     		ldr	r0, .L23+8
 234 001a FFF7FEFF 		bl	lis302dlWriteRegister
 235              	.LVL23:
 236              		.loc 1 228 0
 237 001e 0022     		movs	r2, #0
 238 0020 2221     		movs	r1, #34
 239 0022 4648     		ldr	r0, .L23+8
 240 0024 FFF7FEFF 		bl	lis302dlWriteRegister
 241              	.LVL24:
 242              	.LBB64:
 243              	.LBB65:
 244              	.LBB66:
 245              	.LBB67:
 246              	.LBB68:
 247              	.LBB69:
 248              		.file 3 "/home/selim/working/ChibiOS/os/ext/CMSIS/include/core_cmFunc.h"
 249              		.loc 3 546 0
 250 0028 2023     		movs	r3, #32
 251              		.syntax unified
 252              	@ 546 "/home/selim/working/ChibiOS/os/ext/CMSIS/include/core_cmFunc.h" 1
 253 002a 83F31188 		MSR basepri, r3
 254              	@ 0 "" 2
 255              	.LVL25:
 256              		.thumb
 257              		.syntax unified
 258              	.LBE69:
 259              	.LBE68:
 260              	.LBE67:
 261              	.LBE66:
 262              	.LBB70:
 263              	.LBB71:
 264              	.LBB72:
 265              	.LBB73:
 266              		.file 4 "/home/selim/working/ChibiOS/os/hal/ports/STM32/LLD/TIMv1/st_lld.h"
 267              		.loc 4 129 0
 268 002e 4FF08042 		mov	r2, #1073741824
 269              	.LBE73:
 270              	.LBE72:
 271              	.LBE71:
 272              	.LBE70:
 273              	.LBB77:
 274              	.LBB78:
 275              	.LBB79:
 276              	.LBB80:
 277              	.LBB81:
 278              		.loc 3 546 0
 279 0032 0023     		movs	r3, #0
 280              	.LBE81:
 281              	.LBE80:
 282              	.LBE79:
 283              	.LBE78:
 284              	.LBE77:
 285              	.LBB86:
ARM GAS  /tmp/ccYZ3wWT.s 			page 6


 286              	.LBB76:
 287              	.LBB75:
 288              	.LBB74:
 289              		.loc 4 129 0
 290 0034 576A     		ldr	r7, [r2, #36]
 291              	.LVL26:
 292              	.LBE74:
 293              	.LBE75:
 294              	.LBE76:
 295              	.LBE86:
 296              	.LBB87:
 297              	.LBB85:
 298              	.LBB84:
 299              	.LBB83:
 300              	.LBB82:
 301              		.loc 3 546 0
 302              		.syntax unified
 303              	@ 546 "/home/selim/working/ChibiOS/os/ext/CMSIS/include/core_cmFunc.h" 1
 304 0036 83F31188 		MSR basepri, r3
 305              	@ 0 "" 2
 306              	.LVL27:
 307              		.thumb
 308              		.syntax unified
 309 003a 414E     		ldr	r6, .L23+12
 310 003c 414D     		ldr	r5, .L23+16
 311              	.L18:
 312              	.LVL28:
 313 003e 4249     		ldr	r1, .L23+20
 314 0040 424A     		ldr	r2, .L23+24
 315 0042 4C1C     		adds	r4, r1, #1
 316 0044 501C     		adds	r0, r2, #1
 317              	.LBE82:
 318              	.LBE83:
 319              	.LBE84:
 320              	.LBE85:
 321              	.LBE87:
 322              	.LBE65:
 323              	.LBE64:
 324              	.LBB88:
 325              		.loc 1 237 0
 326 0046 0323     		movs	r3, #3
 327              	.LVL29:
 328              	.L11:
 329              		.loc 1 238 0 discriminator 3
 330 0048 11F901CD 		ldrsb	ip, [r1, #-1]!
 331              		.loc 1 239 0 discriminator 3
 332 004c 12F901ED 		ldrsb	lr, [r2, #-1]!
 333              		.loc 1 238 0 discriminator 3
 334 0050 04F801CD 		strb	ip, [r4, #-1]!
 335              		.loc 1 237 0 discriminator 3
 336 0054 013B     		subs	r3, r3, #1
 337              	.LVL30:
 338              		.loc 1 239 0 discriminator 3
 339 0056 00F801ED 		strb	lr, [r0, #-1]!
 340              	.LVL31:
 341              		.loc 1 237 0 discriminator 3
 342 005a F5D1     		bne	.L11
ARM GAS  /tmp/ccYZ3wWT.s 			page 7


 343              		.loc 1 243 0
 344 005c 2921     		movs	r1, #41
 345 005e 3748     		ldr	r0, .L23+8
 346 0060 FFF7FEFF 		bl	lis302dlReadRegister
 347              	.LVL32:
 348              		.loc 1 244 0
 349 0064 2B21     		movs	r1, #43
 350              		.loc 1 243 0
 351 0066 3070     		strb	r0, [r6]
 352              		.loc 1 244 0
 353 0068 3448     		ldr	r0, .L23+8
 354 006a FFF7FEFF 		bl	lis302dlReadRegister
 355              	.LVL33:
 356 006e 2870     		strb	r0, [r5]
 357              		.loc 1 247 0
 358 0070 3748     		ldr	r0, .L23+28
 359 0072 FFF7FEFF 		bl	spiSelect
 360              	.LVL34:
 361              		.loc 1 248 0
 362 0076 324A     		ldr	r2, .L23+12
 363 0078 3548     		ldr	r0, .L23+28
 364 007a 0421     		movs	r1, #4
 365 007c FFF7FEFF 		bl	spiSend
 366              	.LVL35:
 367              		.loc 1 249 0
 368 0080 304A     		ldr	r2, .L23+16
 369 0082 3348     		ldr	r0, .L23+28
 370 0084 0421     		movs	r1, #4
 371 0086 FFF7FEFF 		bl	spiSend
 372              	.LVL36:
 373              		.loc 1 250 0
 374 008a 3148     		ldr	r0, .L23+28
 375 008c FFF7FEFF 		bl	spiUnselect
 376              	.LVL37:
 377              		.loc 1 253 0
 378 0090 96F90030 		ldrsb	r3, [r6]
 379 0094 96F90110 		ldrsb	r1, [r6, #1]
 380 0098 96F90220 		ldrsb	r2, [r6, #2]
 381              		.loc 1 255 0
 382 009c 95F90100 		ldrsb	r0, [r5, #1]
 383              		.loc 1 253 0
 384 00a0 96F90340 		ldrsb	r4, [r6, #3]
 385              		.loc 1 255 0
 386 00a4 95F903E0 		ldrsb	lr, [r5, #3]
 387              		.loc 1 253 0
 388 00a8 1944     		add	r1, r1, r3
 389 00aa 8B18     		adds	r3, r1, r2
 390              		.loc 1 255 0
 391 00ac 95F90020 		ldrsb	r2, [r5]
 392 00b0 95F90210 		ldrsb	r1, [r5, #2]
 393 00b4 0244     		add	r2, r2, r0
 394              		.loc 1 253 0
 395 00b6 1B19     		adds	r3, r3, r4
 396              		.loc 1 255 0
 397 00b8 0A44     		add	r2, r2, r1
 398              		.loc 1 253 0
 399 00ba 48BF     		it	mi
ARM GAS  /tmp/ccYZ3wWT.s 			page 8


 400 00bc 0333     		addmi	r3, r3, #3
 401              		.loc 1 255 0
 402 00be 12EB0E02 		adds	r2, r2, lr
 403 00c2 48BF     		it	mi
 404 00c4 0332     		addmi	r2, r2, #3
 405              		.loc 1 259 0
 406 00c6 9210     		asrs	r2, r2, #2
 407              		.loc 1 253 0
 408 00c8 4FEAA304 		asr	r4, r3, #2
 409              	.LVL38:
 410              		.loc 1 259 0
 411 00cc 1AD4     		bmi	.L21
 412              		.loc 1 264 0
 413 00ce 0221     		movs	r1, #2
 414 00d0 2048     		ldr	r0, .L23+32
 415 00d2 FFF7FEFF 		bl	pwmEnableChannel
 416              	.LVL39:
 417              		.loc 1 265 0
 418 00d6 0022     		movs	r2, #0
 419 00d8 1146     		mov	r1, r2
 420 00da 1E48     		ldr	r0, .L23+32
 421 00dc FFF7FEFF 		bl	pwmEnableChannel
 422              	.LVL40:
 423              		.loc 1 267 0
 424 00e0 002C     		cmp	r4, #0
 425 00e2 1BDB     		blt	.L22
 426              	.L16:
 427              		.loc 1 272 0
 428 00e4 2246     		mov	r2, r4
 429 00e6 0321     		movs	r1, #3
 430 00e8 1A48     		ldr	r0, .L23+32
 431 00ea FFF7FEFF 		bl	pwmEnableChannel
 432              	.LVL41:
 433              		.loc 1 273 0
 434 00ee 0022     		movs	r2, #0
 435 00f0 0121     		movs	r1, #1
 436 00f2 1848     		ldr	r0, .L23+32
 437 00f4 FFF7FEFF 		bl	pwmEnableChannel
 438              	.LVL42:
 439              	.L17:
 440              		.loc 1 277 0
 441 00f8 07F57A77 		add	r7, r7, #1000
 442              	.LVL43:
 443 00fc 3846     		mov	r0, r7
 444 00fe FFF7FEFF 		bl	chThdSleepUntil
 445              	.LVL44:
 446              	.LBE88:
 447              		.loc 1 278 0
 448 0102 9CE7     		b	.L18
 449              	.L21:
 450              	.LBB89:
 451              		.loc 1 260 0
 452 0104 5242     		negs	r2, r2
 453 0106 0021     		movs	r1, #0
 454 0108 1248     		ldr	r0, .L23+32
 455 010a FFF7FEFF 		bl	pwmEnableChannel
 456              	.LVL45:
ARM GAS  /tmp/ccYZ3wWT.s 			page 9


 457              		.loc 1 261 0
 458 010e 0022     		movs	r2, #0
 459 0110 0221     		movs	r1, #2
 460 0112 1048     		ldr	r0, .L23+32
 461 0114 FFF7FEFF 		bl	pwmEnableChannel
 462              	.LVL46:
 463              		.loc 1 267 0
 464 0118 002C     		cmp	r4, #0
 465 011a E3DA     		bge	.L16
 466              	.L22:
 467              		.loc 1 268 0
 468 011c 6242     		negs	r2, r4
 469 011e 0121     		movs	r1, #1
 470 0120 0C48     		ldr	r0, .L23+32
 471 0122 FFF7FEFF 		bl	pwmEnableChannel
 472              	.LVL47:
 473              		.loc 1 269 0
 474 0126 0022     		movs	r2, #0
 475 0128 0321     		movs	r1, #3
 476 012a 0A48     		ldr	r0, .L23+32
 477 012c FFF7FEFF 		bl	pwmEnableChannel
 478              	.LVL48:
 479 0130 E2E7     		b	.L17
 480              	.L24:
 481 0132 00BF     		.align	2
 482              	.L23:
 483 0134 00000000 		.word	ch
 484 0138 08000000 		.word	.LC1
 485 013c 00000000 		.word	SPID1
 486 0140 00000000 		.word	.LANCHOR2
 487 0144 00000000 		.word	.LANCHOR3
 488 0148 03000000 		.word	.LANCHOR2+3
 489 014c 03000000 		.word	.LANCHOR3+3
 490 0150 00000000 		.word	SPID2
 491 0154 00000000 		.word	PWMD4
 492              	.LBE89:
 493              		.cfi_endproc
 494              	.LFE264:
 495              		.size	Thread1, .-Thread1
 496              		.section	.text.cmd_test,"ax",%progbits
 497              		.align	2
 498              		.p2align 4,,15
 499              		.thumb
 500              		.thumb_func
 501              		.type	cmd_test, %function
 502              	cmd_test:
 503              	.LFB263:
 504              		.loc 1 134 0
 505              		.cfi_startproc
 506              		@ args = 0, pretend = 0, frame = 0
 507              		@ frame_needed = 0, uses_anonymous_args = 0
 508              	.LVL49:
 509              		.loc 1 138 0
 510 0000 0029     		cmp	r1, #0
 511 0002 02DD     		ble	.L26
 512              		.loc 1 139 0
 513 0004 0E49     		ldr	r1, .L30
ARM GAS  /tmp/ccYZ3wWT.s 			page 10


 514              	.LVL50:
 515 0006 FFF7FEBF 		b	chprintf
 516              	.LVL51:
 517              	.L26:
 518              		.loc 1 134 0
 519 000a 10B5     		push	{r4, lr}
 520              		.cfi_def_cfa_offset 8
 521              		.cfi_offset 4, -8
 522              		.cfi_offset 14, -4
 523              	.LBB96:
 524              	.LBB97:
 525              	.LBB98:
 526              	.LBB99:
 527              	.LBB100:
 528              	.LBB101:
 529              		.file 5 "/home/selim/working/ChibiOS/os/rt/include/chthreads.h"
 530              		.loc 5 176 0
 531 000c 0D4A     		ldr	r2, .L30+4
 532              	.LVL52:
 533              	.LBE101:
 534              	.LBE100:
 535              	.LBE99:
 536              	.LBE98:
 537              		.loc 1 142 0
 538 000e 0E4B     		ldr	r3, .L30+8
 539              	.LBB103:
 540              	.LBB102:
 541              		.loc 5 189 0
 542 0010 9269     		ldr	r2, [r2, #24]
 543              	.LBE102:
 544              	.LBE103:
 545              	.LBE97:
 546              	.LBE96:
 547              		.loc 1 134 0
 548 0012 82B0     		sub	sp, sp, #8
 549              		.cfi_def_cfa_offset 16
 550 0014 0446     		mov	r4, r0
 551              	.LBB107:
 552              	.LBB104:
 553              		.loc 1 142 0
 554 0016 9268     		ldr	r2, [r2, #8]
 555 0018 0090     		str	r0, [sp]
 556 001a 4FF4E471 		mov	r1, #456
 557              	.LVL53:
 558 001e 0020     		movs	r0, #0
 559              	.LVL54:
 560 0020 FFF7FEFF 		bl	chThdCreateFromHeap
 561              	.LVL55:
 562              		.loc 1 144 0
 563 0024 20B1     		cbz	r0, .L29
 564              	.LBE104:
 565              	.LBE107:
 566              		.loc 1 149 0
 567 0026 02B0     		add	sp, sp, #8
 568              		.cfi_remember_state
 569              		.cfi_def_cfa_offset 8
 570              		@ sp needed
ARM GAS  /tmp/ccYZ3wWT.s 			page 11


 571 0028 BDE81040 		pop	{r4, lr}
 572              		.cfi_restore 14
 573              		.cfi_restore 4
 574              		.cfi_def_cfa_offset 0
 575              	.LVL56:
 576              	.LBB108:
 577              	.LBB105:
 578              		.loc 1 148 0
 579 002c FFF7FEBF 		b	chThdWait
 580              	.LVL57:
 581              	.L29:
 582              		.cfi_restore_state
 583              		.loc 1 145 0
 584 0030 0649     		ldr	r1, .L30+12
 585 0032 2046     		mov	r0, r4
 586              	.LVL58:
 587              	.LBE105:
 588              	.LBE108:
 589              		.loc 1 149 0
 590 0034 02B0     		add	sp, sp, #8
 591              		.cfi_def_cfa_offset 8
 592              		@ sp needed
 593 0036 BDE81040 		pop	{r4, lr}
 594              		.cfi_restore 14
 595              		.cfi_restore 4
 596              		.cfi_def_cfa_offset 0
 597              	.LVL59:
 598              	.LBB109:
 599              	.LBB106:
 600              		.loc 1 145 0
 601 003a FFF7FEBF 		b	chprintf
 602              	.LVL60:
 603              	.L31:
 604 003e 00BF     		.align	2
 605              	.L30:
 606 0040 10000000 		.word	.LC2
 607 0044 00000000 		.word	ch
 608 0048 00000000 		.word	TestThread
 609 004c 20000000 		.word	.LC3
 610              	.LBE106:
 611              	.LBE109:
 612              		.cfi_endproc
 613              	.LFE263:
 614              		.size	cmd_test, .-cmd_test
 615              		.section	.text.cmd_threads,"ax",%progbits
 616              		.align	2
 617              		.p2align 4,,15
 618              		.thumb
 619              		.thumb_func
 620              		.type	cmd_threads, %function
 621              	cmd_threads:
 622              	.LFB262:
 623              		.loc 1 114 0
 624              		.cfi_startproc
 625              		@ args = 0, pretend = 0, frame = 0
 626              		@ frame_needed = 0, uses_anonymous_args = 0
 627              	.LVL61:
ARM GAS  /tmp/ccYZ3wWT.s 			page 12


 628              		.loc 1 119 0
 629 0000 0029     		cmp	r1, #0
 630 0002 02DD     		ble	.L33
 631              		.loc 1 120 0
 632 0004 1149     		ldr	r1, .L37
 633              	.LVL62:
 634 0006 FFF7FEBF 		b	chprintf
 635              	.LVL63:
 636              	.L33:
 637              		.loc 1 114 0
 638 000a 70B5     		push	{r4, r5, r6, lr}
 639              		.cfi_def_cfa_offset 16
 640              		.cfi_offset 4, -16
 641              		.cfi_offset 5, -12
 642              		.cfi_offset 6, -8
 643              		.cfi_offset 14, -4
 644              	.LBB112:
 645              	.LBB113:
 646              		.loc 1 123 0
 647 000c 1049     		ldr	r1, .L37+4
 648              	.LVL64:
 649 000e 114E     		ldr	r6, .L37+8
 650              	.LBE113:
 651              	.LBE112:
 652              		.loc 1 114 0
 653 0010 84B0     		sub	sp, sp, #16
 654              		.cfi_def_cfa_offset 32
 655 0012 0546     		mov	r5, r0
 656              	.LVL65:
 657              	.LBB115:
 658              	.LBB114:
 659              		.loc 1 123 0
 660 0014 FFF7FEFF 		bl	chprintf
 661              	.LVL66:
 662              		.loc 1 124 0
 663 0018 FFF7FEFF 		bl	chRegFirstThread
 664              	.LVL67:
 665 001c 0446     		mov	r4, r0
 666              	.LVL68:
 667              	.L34:
 668              		.loc 1 126 0
 669 001e 227F     		ldrb	r2, [r4, #28]	@ zero_extendqisi2
 670 0020 E368     		ldr	r3, [r4, #12]
 671 0022 56F82220 		ldr	r2, [r6, r2, lsl #2]
 672 0026 0292     		str	r2, [sp, #8]
 673 0028 A27F     		ldrb	r2, [r4, #30]	@ zero_extendqisi2
 674 002a 0B49     		ldr	r1, .L37+12
 675 002c 013A     		subs	r2, r2, #1
 676 002e 0192     		str	r2, [sp, #4]
 677 0030 A268     		ldr	r2, [r4, #8]
 678 0032 0092     		str	r2, [sp]
 679 0034 2846     		mov	r0, r5
 680              	.LVL69:
 681 0036 2246     		mov	r2, r4
 682 0038 FFF7FEFF 		bl	chprintf
 683              	.LVL70:
 684              		.loc 1 130 0
ARM GAS  /tmp/ccYZ3wWT.s 			page 13


 685 003c 2046     		mov	r0, r4
 686 003e FFF7FEFF 		bl	chRegNextThread
 687              	.LVL71:
 688              		.loc 1 131 0
 689 0042 0446     		mov	r4, r0
 690 0044 0028     		cmp	r0, #0
 691 0046 EAD1     		bne	.L34
 692              	.LBE114:
 693              	.LBE115:
 694              		.loc 1 132 0
 695 0048 04B0     		add	sp, sp, #16
 696              		.cfi_def_cfa_offset 16
 697              		@ sp needed
 698 004a 70BD     		pop	{r4, r5, r6, pc}
 699              	.LVL72:
 700              	.L38:
 701              		.align	2
 702              	.L37:
 703 004c 30000000 		.word	.LC4
 704 0050 44000000 		.word	.LC5
 705 0054 00000000 		.word	.LANCHOR4
 706 0058 6C000000 		.word	.LC6
 707              		.cfi_endproc
 708              	.LFE262:
 709              		.size	cmd_threads, .-cmd_threads
 710              		.section	.text.cmd_mem,"ax",%progbits
 711              		.align	2
 712              		.p2align 4,,15
 713              		.thumb
 714              		.thumb_func
 715              		.type	cmd_mem, %function
 716              	cmd_mem:
 717              	.LFB261:
 718              		.loc 1 101 0
 719              		.cfi_startproc
 720              		@ args = 0, pretend = 0, frame = 8
 721              		@ frame_needed = 0, uses_anonymous_args = 0
 722              	.LVL73:
 723 0000 30B5     		push	{r4, r5, lr}
 724              		.cfi_def_cfa_offset 12
 725              		.cfi_offset 4, -12
 726              		.cfi_offset 5, -8
 727              		.cfi_offset 14, -4
 728              		.loc 1 104 0
 729 0002 0029     		cmp	r1, #0
 730              		.loc 1 101 0
 731 0004 83B0     		sub	sp, sp, #12
 732              		.cfi_def_cfa_offset 24
 733              		.loc 1 104 0
 734 0006 04DD     		ble	.L40
 735              		.loc 1 105 0
 736 0008 0E49     		ldr	r1, .L43
 737              	.LVL74:
 738 000a FFF7FEFF 		bl	chprintf
 739              	.LVL75:
 740              		.loc 1 112 0
 741 000e 03B0     		add	sp, sp, #12
ARM GAS  /tmp/ccYZ3wWT.s 			page 14


 742              		.cfi_remember_state
 743              		.cfi_def_cfa_offset 12
 744              		@ sp needed
 745 0010 30BD     		pop	{r4, r5, pc}
 746              	.LVL76:
 747              	.L40:
 748              		.cfi_restore_state
 749 0012 0446     		mov	r4, r0
 750              	.LVL77:
 751              	.LBB118:
 752              	.LBB119:
 753              		.loc 1 108 0
 754 0014 01A9     		add	r1, sp, #4
 755              	.LVL78:
 756 0016 0020     		movs	r0, #0
 757              	.LVL79:
 758 0018 FFF7FEFF 		bl	chHeapStatus
 759              	.LVL80:
 760 001c 0546     		mov	r5, r0
 761              	.LVL81:
 762              		.loc 1 109 0
 763 001e FFF7FEFF 		bl	chCoreGetStatusX
 764              	.LVL82:
 765 0022 0949     		ldr	r1, .L43+4
 766 0024 0246     		mov	r2, r0
 767 0026 2046     		mov	r0, r4
 768 0028 FFF7FEFF 		bl	chprintf
 769              	.LVL83:
 770              		.loc 1 110 0
 771 002c 2A46     		mov	r2, r5
 772 002e 0749     		ldr	r1, .L43+8
 773 0030 2046     		mov	r0, r4
 774 0032 FFF7FEFF 		bl	chprintf
 775              	.LVL84:
 776              		.loc 1 111 0
 777 0036 2046     		mov	r0, r4
 778 0038 019A     		ldr	r2, [sp, #4]
 779 003a 0549     		ldr	r1, .L43+12
 780 003c FFF7FEFF 		bl	chprintf
 781              	.LVL85:
 782              	.LBE119:
 783              	.LBE118:
 784              		.loc 1 112 0
 785 0040 03B0     		add	sp, sp, #12
 786              		.cfi_def_cfa_offset 12
 787              		@ sp needed
 788 0042 30BD     		pop	{r4, r5, pc}
 789              	.LVL86:
 790              	.L44:
 791              		.align	2
 792              	.L43:
 793 0044 88000000 		.word	.LC7
 794 0048 98000000 		.word	.LC8
 795 004c B8000000 		.word	.LC9
 796 0050 D0000000 		.word	.LC10
 797              		.cfi_endproc
 798              	.LFE261:
ARM GAS  /tmp/ccYZ3wWT.s 			page 15


 799              		.size	cmd_mem, .-cmd_mem
 800              		.section	.text.startup.main,"ax",%progbits
 801              		.align	2
 802              		.p2align 4,,15
 803              		.global	main
 804              		.thumb
 805              		.thumb_func
 806              		.type	main, %function
 807              	main:
 808              	.LFB265:
 809              		.loc 1 288 0
 810              		.cfi_startproc
 811              		@ args = 0, pretend = 0, frame = 0
 812              		@ frame_needed = 0, uses_anonymous_args = 0
 813              	.LVL87:
 814 0000 70B5     		push	{r4, r5, r6, lr}
 815              		.cfi_def_cfa_offset 16
 816              		.cfi_offset 4, -16
 817              		.cfi_offset 5, -12
 818              		.cfi_offset 6, -8
 819              		.cfi_offset 14, -4
 820 0002 564D     		ldr	r5, .L52
 821              		.loc 1 319 0
 822 0004 564E     		ldr	r6, .L52+4
 823              		.loc 1 353 0
 824 0006 574C     		ldr	r4, .L52+8
 825              		.loc 1 288 0
 826 0008 82B0     		sub	sp, sp, #8
 827              		.cfi_def_cfa_offset 24
 828              		.loc 1 298 0
 829 000a FFF7FEFF 		bl	halInit
 830              	.LVL88:
 831              		.loc 1 299 0
 832 000e FFF7FEFF 		bl	chSysInit
 833              	.LVL89:
 834              		.loc 1 305 0
 835 0012 0322     		movs	r2, #3
 836 0014 0621     		movs	r1, #6
 837 0016 5448     		ldr	r0, .L52+12
 838 0018 FFF7FEFF 		bl	_pal_lld_setgroupmode
 839              	.LVL90:
 840              		.loc 1 312 0
 841 001c FFF7FEFF 		bl	shellInit
 842              	.LVL91:
 843              		.loc 1 318 0
 844 0020 2846     		mov	r0, r5
 845 0022 FFF7FEFF 		bl	sduObjectInit
 846              	.LVL92:
 847              		.loc 1 319 0
 848 0026 3146     		mov	r1, r6
 849 0028 2846     		mov	r0, r5
 850 002a FFF7FEFF 		bl	sduStart
 851              	.LVL93:
 852              		.loc 1 326 0
 853 002e 3368     		ldr	r3, [r6]
 854 0030 1A6D     		ldr	r2, [r3, #80]
 855 0032 936B     		ldr	r3, [r2, #56]
ARM GAS  /tmp/ccYZ3wWT.s 			page 16


 856 0034 23F40023 		bic	r3, r3, #524288
 857 0038 9363     		str	r3, [r2, #56]
 858              		.loc 1 327 0
 859 003a 42F21070 		movw	r0, #10000
 860 003e FFF7FEFF 		bl	chThdSleep
 861              	.LVL94:
 862              		.loc 1 328 0
 863 0042 3068     		ldr	r0, [r6]
 864 0044 4949     		ldr	r1, .L52+16
 865 0046 FFF7FEFF 		bl	usbStart
 866              	.LVL95:
 867              		.loc 1 329 0
 868 004a 3368     		ldr	r3, [r6]
 869              		.loc 1 335 0
 870 004c 4848     		ldr	r0, .L52+20
 871              		.loc 1 329 0
 872 004e 1A6D     		ldr	r2, [r3, #80]
 873 0050 936B     		ldr	r3, [r2, #56]
 874 0052 43F40023 		orr	r3, r3, #524288
 875 0056 9363     		str	r3, [r2, #56]
 876              		.loc 1 335 0
 877 0058 0021     		movs	r1, #0
 878 005a FFF7FEFF 		bl	sdStart
 879              	.LVL96:
 880              		.loc 1 336 0
 881 005e 40F28232 		movw	r2, #898
 882 0062 0421     		movs	r1, #4
 883 0064 4348     		ldr	r0, .L52+24
 884 0066 FFF7FEFF 		bl	_pal_lld_setgroupmode
 885              	.LVL97:
 886              		.loc 1 337 0
 887 006a 40F28232 		movw	r2, #898
 888 006e 0821     		movs	r1, #8
 889 0070 4048     		ldr	r0, .L52+24
 890 0072 FFF7FEFF 		bl	_pal_lld_setgroupmode
 891              	.LVL98:
 892              		.loc 1 343 0
 893 0076 4049     		ldr	r1, .L52+28
 894 0078 4048     		ldr	r0, .L52+32
 895 007a FFF7FEFF 		bl	spiStart
 896              	.LVL99:
 897              		.loc 1 353 0
 898 007e 4FF48056 		mov	r6, #4096
 899              		.loc 1 352 0
 900 0082 3F49     		ldr	r1, .L52+36
 901 0084 3F48     		ldr	r0, .L52+40
 902 0086 FFF7FEFF 		bl	spiStart
 903              	.LVL100:
 904              		.loc 1 354 0
 905 008a 2046     		mov	r0, r4
 906              		.loc 1 353 0
 907 008c 2683     		strh	r6, [r4, #24]	@ movhi
 908              		.loc 1 354 0
 909 008e 3146     		mov	r1, r6
 910 0090 1922     		movs	r2, #25
 911 0092 FFF7FEFF 		bl	_pal_lld_setgroupmode
 912              	.LVL101:
ARM GAS  /tmp/ccYZ3wWT.s 			page 17


 913              		.loc 1 356 0
 914 0096 2046     		mov	r0, r4
 915 0098 40F29A22 		movw	r2, #666
 916 009c 4FF40051 		mov	r1, #8192
 917 00a0 FFF7FEFF 		bl	_pal_lld_setgroupmode
 918              	.LVL102:
 919              		.loc 1 358 0
 920 00a4 2046     		mov	r0, r4
 921 00a6 40F28222 		movw	r2, #642
 922 00aa 4FF48041 		mov	r1, #16384
 923 00ae FFF7FEFF 		bl	_pal_lld_setgroupmode
 924              	.LVL103:
 925              		.loc 1 359 0
 926 00b2 2046     		mov	r0, r4
 927 00b4 40F29A22 		movw	r2, #666
 928 00b8 4FF40041 		mov	r1, #32768
 929 00bc FFF7FEFF 		bl	_pal_lld_setgroupmode
 930              	.LVL104:
 931              		.loc 1 365 0
 932 00c0 3149     		ldr	r1, .L52+44
 933 00c2 3248     		ldr	r0, .L52+48
 934 00c4 FFF7FEFF 		bl	pwmStart
 935              	.LVL105:
 936              		.loc 1 366 0
 937 00c8 3146     		mov	r1, r6
 938 00ca 4FF48172 		mov	r2, #258
 939 00ce 3048     		ldr	r0, .L52+52
 940 00d0 FFF7FEFF 		bl	_pal_lld_setgroupmode
 941              	.LVL106:
 942              		.loc 1 367 0
 943 00d4 4FF48172 		mov	r2, #258
 944 00d8 4FF40051 		mov	r1, #8192
 945 00dc 2C48     		ldr	r0, .L52+52
 946 00de FFF7FEFF 		bl	_pal_lld_setgroupmode
 947              	.LVL107:
 948              		.loc 1 368 0
 949 00e2 4FF48172 		mov	r2, #258
 950 00e6 4FF48041 		mov	r1, #16384
 951 00ea 2948     		ldr	r0, .L52+52
 952 00ec FFF7FEFF 		bl	_pal_lld_setgroupmode
 953              	.LVL108:
 954              		.loc 1 394 0
 955 00f0 0024     		movs	r4, #0
 956              		.loc 1 369 0
 957 00f2 4FF48172 		mov	r2, #258
 958 00f6 4FF40041 		mov	r1, #32768
 959 00fa 2548     		ldr	r0, .L52+52
 960 00fc FFF7FEFF 		bl	_pal_lld_setgroupmode
 961              	.LVL109:
 962              		.loc 1 394 0
 963 0100 244B     		ldr	r3, .L52+56
 964 0102 0094     		str	r4, [sp]
 965 0104 4A22     		movs	r2, #74
 966 0106 4FF4A471 		mov	r1, #328
 967 010a 2348     		ldr	r0, .L52+60
 968 010c FFF7FEFF 		bl	chThdCreateStatic
 969              	.LVL110:
ARM GAS  /tmp/ccYZ3wWT.s 			page 18


 970              		.loc 1 402 0
 971 0110 0094     		str	r4, [sp]
 972 0112 224B     		ldr	r3, .L52+64
 973 0114 2248     		ldr	r0, .L52+68
 974 0116 4A22     		movs	r2, #74
 975 0118 4FF4A471 		mov	r1, #328
 976 011c FFF7FEFF 		bl	chThdCreateStatic
 977              	.LVL111:
 978              		.loc 1 413 0
 979 0120 44B1     		cbz	r4, .L50
 980              	.L46:
 981              		.loc 1 421 0
 982 0122 237F     		ldrb	r3, [r4, #28]	@ zero_extendqisi2
 983 0124 0F2B     		cmp	r3, #15
 984 0126 13D0     		beq	.L51
 985              	.LVL112:
 986              	.L47:
 987              		.loc 1 427 0
 988 0128 41F28830 		movw	r0, #5000
 989 012c FFF7FEFF 		bl	chThdSleep
 990              	.LVL113:
 991              		.loc 1 413 0
 992 0130 002C     		cmp	r4, #0
 993 0132 F6D1     		bne	.L46
 994              	.L50:
 995              	.LVL114:
 996              		.loc 1 414 0
 997 0134 D5F85432 		ldr	r3, [r5, #596]
 998 0138 1B68     		ldr	r3, [r3]
 999 013a 1B78     		ldrb	r3, [r3]	@ zero_extendqisi2
 1000 013c 042B     		cmp	r3, #4
 1001 013e F3D1     		bne	.L47
 1002              		.loc 1 416 0
 1003 0140 4022     		movs	r2, #64
 1004 0142 40F6C801 		movw	r1, #2248
 1005 0146 1748     		ldr	r0, .L52+72
 1006 0148 FFF7FEFF 		bl	shellCreate
 1007              	.LVL115:
 1008 014c 0446     		mov	r4, r0
 1009              	.LVL116:
 1010 014e EBE7     		b	.L47
 1011              	.LVL117:
 1012              	.L51:
 1013              		.loc 1 423 0
 1014 0150 2046     		mov	r0, r4
 1015 0152 FFF7FEFF 		bl	chThdRelease
 1016              	.LVL118:
 1017              		.loc 1 424 0
 1018 0156 0024     		movs	r4, #0
 1019              	.LVL119:
 1020 0158 E6E7     		b	.L47
 1021              	.L53:
 1022 015a 00BF     		.align	2
 1023              	.L52:
 1024 015c 00000000 		.word	.LANCHOR1
 1025 0160 00000000 		.word	serusbcfg
 1026 0164 00040240 		.word	1073873920
ARM GAS  /tmp/ccYZ3wWT.s 			page 19


 1027 0168 00080240 		.word	1073874944
 1028 016c 00000000 		.word	usbcfg
 1029 0170 00000000 		.word	SD2
 1030 0174 00000240 		.word	1073872896
 1031 0178 00000000 		.word	.LANCHOR5
 1032 017c 00000000 		.word	SPID1
 1033 0180 00000000 		.word	.LANCHOR6
 1034 0184 00000000 		.word	SPID2
 1035 0188 00000000 		.word	.LANCHOR7
 1036 018c 00000000 		.word	PWMD4
 1037 0190 000C0240 		.word	1073875968
 1038 0194 00000000 		.word	Thread1
 1039 0198 00000000 		.word	.LANCHOR8
 1040 019c 00000000 		.word	Thread2
 1041 01a0 00000000 		.word	.LANCHOR9
 1042 01a4 00000000 		.word	.LANCHOR10
 1043              		.cfi_endproc
 1044              	.LFE265:
 1045              		.size	main, .-main
 1046              		.global	SDU1
 1047              		.section	.rodata.commands,"a",%progbits
 1048              		.align	2
 1049              		.type	commands, %object
 1050              		.size	commands, 32
 1051              	commands:
 1052 0000 7C010000 		.word	.LC27
 1053 0004 00000000 		.word	cmd_mem
 1054 0008 80010000 		.word	.LC28
 1055 000c 00000000 		.word	cmd_threads
 1056 0010 88010000 		.word	.LC29
 1057 0014 00000000 		.word	cmd_test
 1058 0018 00000000 		.word	0
 1059 001c 00000000 		.word	0
 1060              		.section	.bss.ybuf.7856,"aw",%nobits
 1061              		.align	2
 1062              		.set	.LANCHOR3,. + 0
 1063              		.type	ybuf.7856, %object
 1064              		.size	ybuf.7856, 4
 1065              	ybuf.7856:
 1066 0000 00000000 		.space	4
 1067              		.section	.bss.waThread1,"aw",%nobits
 1068              		.align	3
 1069              		.set	.LANCHOR8,. + 0
 1070              		.type	waThread1, %object
 1071              		.size	waThread1, 328
 1072              	waThread1:
 1073 0000 00000000 		.space	328
 1073      00000000 
 1073      00000000 
 1073      00000000 
 1073      00000000 
 1074              		.section	.bss.waThread2,"aw",%nobits
 1075              		.align	3
 1076              		.set	.LANCHOR9,. + 0
 1077              		.type	waThread2, %object
 1078              		.size	waThread2, 328
 1079              	waThread2:
ARM GAS  /tmp/ccYZ3wWT.s 			page 20


 1080 0000 00000000 		.space	328
 1080      00000000 
 1080      00000000 
 1080      00000000 
 1080      00000000 
 1081              		.section	.bss.SDU1,"aw",%nobits
 1082              		.align	2
 1083              		.set	.LANCHOR1,. + 0
 1084              		.type	SDU1, %object
 1085              		.size	SDU1, 600
 1086              	SDU1:
 1087 0000 00000000 		.space	600
 1087      00000000 
 1087      00000000 
 1087      00000000 
 1087      00000000 
 1088              		.section	.rodata.states.7836,"a",%progbits
 1089              		.align	2
 1090              		.set	.LANCHOR4,. + 0
 1091              		.type	states.7836, %object
 1092              		.size	states.7836, 64
 1093              	states.7836:
 1094 0000 F0000000 		.word	.LC11
 1095 0004 F8000000 		.word	.LC12
 1096 0008 00010000 		.word	.LC13
 1097 000c 08010000 		.word	.LC14
 1098 0010 14010000 		.word	.LC15
 1099 0014 1C010000 		.word	.LC16
 1100 0018 24010000 		.word	.LC17
 1101 001c 2C010000 		.word	.LC18
 1102 0020 34010000 		.word	.LC19
 1103 0024 40010000 		.word	.LC20
 1104 0028 48010000 		.word	.LC21
 1105 002c 50010000 		.word	.LC22
 1106 0030 5C010000 		.word	.LC23
 1107 0034 64010000 		.word	.LC24
 1108 0038 6C010000 		.word	.LC25
 1109 003c 74010000 		.word	.LC26
 1110              		.section	.rodata.spi1cfg,"a",%progbits
 1111              		.align	2
 1112              		.set	.LANCHOR5,. + 0
 1113              		.type	spi1cfg, %object
 1114              		.size	spi1cfg, 12
 1115              	spi1cfg:
 1116 0000 00000000 		.word	0
 1117 0004 00100240 		.word	1073876992
 1118 0008 0300     		.short	3
 1119 000a 1B00     		.short	27
 1120              		.section	.rodata.spi2cfg,"a",%progbits
 1121              		.align	2
 1122              		.set	.LANCHOR6,. + 0
 1123              		.type	spi2cfg, %object
 1124              		.size	spi2cfg, 12
 1125              	spi2cfg:
 1126 0000 00000000 		.word	0
 1127 0004 00040240 		.word	1073873920
 1128 0008 0C00     		.short	12
ARM GAS  /tmp/ccYZ3wWT.s 			page 21


 1129 000a 0000     		.short	0
 1130              		.section	.bss.xbuf.7855,"aw",%nobits
 1131              		.align	2
 1132              		.set	.LANCHOR2,. + 0
 1133              		.type	xbuf.7855, %object
 1134              		.size	xbuf.7855, 4
 1135              	xbuf.7855:
 1136 0000 00000000 		.space	4
 1137              		.section	.rodata.str1.4,"aMS",%progbits,1
 1138              		.align	2
 1139              	.LC0:
 1140 0000 25660D0A 		.ascii	"%f\015\012\000"
 1140      00
 1141 0005 000000   		.space	3
 1142              	.LC1:
 1143 0008 72656164 		.ascii	"reader\000"
 1143      657200
 1144 000f 00       		.space	1
 1145              	.LC2:
 1146 0010 55736167 		.ascii	"Usage: test\015\012\000"
 1146      653A2074 
 1146      6573740D 
 1146      0A00
 1147 001e 0000     		.space	2
 1148              	.LC3:
 1149 0020 6F757420 		.ascii	"out of memory\015\012\000"
 1149      6F66206D 
 1149      656D6F72 
 1149      790D0A00 
 1150              	.LC4:
 1151 0030 55736167 		.ascii	"Usage: threads\015\012\000"
 1151      653A2074 
 1151      68726561 
 1151      64730D0A 
 1151      00
 1152 0041 000000   		.space	3
 1153              	.LC5:
 1154 0044 20202020 		.ascii	"    addr    stack prio refs     state\015\012\000"
 1154      61646472 
 1154      20202020 
 1154      73746163 
 1154      6B207072 
 1155              	.LC6:
 1156 006c 2530386C 		.ascii	"%08lx %08lx %4lu %4lu %9s\015\012\000"
 1156      78202530 
 1156      386C7820 
 1156      25346C75 
 1156      2025346C 
 1157              	.LC7:
 1158 0088 55736167 		.ascii	"Usage: mem\015\012\000"
 1158      653A206D 
 1158      656D0D0A 
 1158      00
 1159 0095 000000   		.space	3
 1160              	.LC8:
 1161 0098 636F7265 		.ascii	"core free memory : %u bytes\015\012\000"
 1161      20667265 
ARM GAS  /tmp/ccYZ3wWT.s 			page 22


 1161      65206D65 
 1161      6D6F7279 
 1161      203A2025 
 1162 00b6 0000     		.space	2
 1163              	.LC9:
 1164 00b8 68656170 		.ascii	"heap fragments   : %u\015\012\000"
 1164      20667261 
 1164      676D656E 
 1164      74732020 
 1164      203A2025 
 1165              	.LC10:
 1166 00d0 68656170 		.ascii	"heap free total  : %u bytes\015\012\000"
 1166      20667265 
 1166      6520746F 
 1166      74616C20 
 1166      203A2025 
 1167 00ee 0000     		.space	2
 1168              	.LC11:
 1169 00f0 52454144 		.ascii	"READY\000"
 1169      5900
 1170 00f6 0000     		.space	2
 1171              	.LC12:
 1172 00f8 43555252 		.ascii	"CURRENT\000"
 1172      454E5400 
 1173              	.LC13:
 1174 0100 57545354 		.ascii	"WTSTART\000"
 1174      41525400 
 1175              	.LC14:
 1176 0108 53555350 		.ascii	"SUSPENDED\000"
 1176      454E4445 
 1176      4400
 1177 0112 0000     		.space	2
 1178              	.LC15:
 1179 0114 51554555 		.ascii	"QUEUED\000"
 1179      454400
 1180 011b 00       		.space	1
 1181              	.LC16:
 1182 011c 57545345 		.ascii	"WTSEM\000"
 1182      4D00
 1183 0122 0000     		.space	2
 1184              	.LC17:
 1185 0124 57544D54 		.ascii	"WTMTX\000"
 1185      5800
 1186 012a 0000     		.space	2
 1187              	.LC18:
 1188 012c 5754434F 		.ascii	"WTCOND\000"
 1188      4E4400
 1189 0133 00       		.space	1
 1190              	.LC19:
 1191 0134 534C4545 		.ascii	"SLEEPING\000"
 1191      50494E47 
 1191      00
 1192 013d 000000   		.space	3
 1193              	.LC20:
 1194 0140 57544558 		.ascii	"WTEXIT\000"
 1194      495400
 1195 0147 00       		.space	1
ARM GAS  /tmp/ccYZ3wWT.s 			page 23


 1196              	.LC21:
 1197 0148 57544F52 		.ascii	"WTOREVT\000"
 1197      45565400 
 1198              	.LC22:
 1199 0150 5754414E 		.ascii	"WTANDEVT\000"
 1199      44455654 
 1199      00
 1200 0159 000000   		.space	3
 1201              	.LC23:
 1202 015c 534E444D 		.ascii	"SNDMSGQ\000"
 1202      53475100 
 1203              	.LC24:
 1204 0164 534E444D 		.ascii	"SNDMSG\000"
 1204      534700
 1205 016b 00       		.space	1
 1206              	.LC25:
 1207 016c 57544D53 		.ascii	"WTMSG\000"
 1207      4700
 1208 0172 0000     		.space	2
 1209              	.LC26:
 1210 0174 46494E41 		.ascii	"FINAL\000"
 1210      4C00
 1211 017a 0000     		.space	2
 1212              	.LC27:
 1213 017c 6D656D00 		.ascii	"mem\000"
 1214              	.LC28:
 1215 0180 74687265 		.ascii	"threads\000"
 1215      61647300 
 1216              	.LC29:
 1217 0188 74657374 		.ascii	"test\000"
 1217      00
 1218              		.section	.rodata.pwmcfg,"a",%progbits
 1219              		.align	2
 1220              		.set	.LANCHOR7,. + 0
 1221              		.type	pwmcfg, %object
 1222              		.size	pwmcfg, 52
 1223              	pwmcfg:
 1224 0000 A0860100 		.word	100000
 1225 0004 80000000 		.word	128
 1226 0008 00000000 		.word	0
 1227 000c 01000000 		.word	1
 1228 0010 00000000 		.word	0
 1229 0014 01000000 		.word	1
 1230 0018 00000000 		.word	0
 1231 001c 01000000 		.word	1
 1232 0020 00000000 		.word	0
 1233 0024 01000000 		.word	1
 1234 0028 00000000 		.word	0
 1235 002c 00000000 		.word	0
 1236 0030 00000000 		.word	0
 1237              		.section	.rodata.adcgrpcfg1,"a",%progbits
 1238              		.align	2
 1239              		.set	.LANCHOR0,. + 0
 1240              		.type	adcgrpcfg1, %object
 1241              		.size	adcgrpcfg1, 40
 1242              	adcgrpcfg1:
 1243 0000 00       		.byte	0
ARM GAS  /tmp/ccYZ3wWT.s 			page 24


 1244 0001 00       		.space	1
 1245 0002 0100     		.short	1
 1246 0004 00000000 		.word	0
 1247 0008 00000000 		.word	adcerrorcallback
 1248 000c 00000000 		.word	0
 1249 0010 00000040 		.word	1073741824
 1250 0014 00001C00 		.word	1835008
 1251 0018 00000000 		.word	0
 1252 001c 00000000 		.word	0
 1253 0020 00000000 		.word	0
 1254 0024 10000000 		.word	16
 1255              		.section	.rodata.shell_cfg1,"a",%progbits
 1256              		.align	2
 1257              		.set	.LANCHOR10,. + 0
 1258              		.type	shell_cfg1, %object
 1259              		.size	shell_cfg1, 8
 1260              	shell_cfg1:
 1261 0000 00000000 		.word	SDU1
 1262 0004 00000000 		.word	commands
 1263              		.text
 1264              	.Letext0:
 1265              		.file 6 "/usr/lib/gcc/arm-none-eabi/5.3.1/include/stddef.h"
 1266              		.file 7 "/usr/arm-none-eabi/include/machine/_default_types.h"
 1267              		.file 8 "/usr/arm-none-eabi/include/sys/_stdint.h"
 1268              		.file 9 "/home/selim/working/ChibiOS/os/rt/ports/ARMCMx/compilers/GCC/chtypes.h"
 1269              		.file 10 "/home/selim/working/ChibiOS/os/rt/include/chsystypes.h"
 1270              		.file 11 "/home/selim/working/ChibiOS/os/rt/include/chschd.h"
 1271              		.file 12 "/home/selim/working/ChibiOS/os/ext/CMSIS/ST/stm32f407xx.h"
 1272              		.file 13 "/home/selim/working/ChibiOS/os/rt/ports/ARMCMx/chcore.h"
 1273              		.file 14 "/home/selim/working/ChibiOS/os/rt/ports/ARMCMx/chcore_v7m.h"
 1274              		.file 15 "/home/selim/working/ChibiOS/os/hal/ports/STM32/LLD/TIMv1/stm32_tim.h"
 1275              		.file 16 "/home/selim/working/ChibiOS/os/rt/include/chtm.h"
 1276              		.file 17 "/home/selim/working/ChibiOS/os/rt/include/chsem.h"
 1277              		.file 18 "/home/selim/working/ChibiOS/os/rt/include/chmtx.h"
 1278              		.file 19 "/home/selim/working/ChibiOS/os/rt/include/chevents.h"
 1279              		.file 20 "/home/selim/working/ChibiOS/os/rt/include/chqueues.h"
 1280              		.file 21 "/home/selim/working/ChibiOS/os/rt/include/chstreams.h"
 1281              		.file 22 "/home/selim/working/ChibiOS/os/hal/ports/STM32/STM32F4xx/stm32_dma.h"
 1282              		.file 23 "/home/selim/working/ChibiOS/os/hal/ports/STM32/LLD/GPIOv2/pal_lld.h"
 1283              		.file 24 "/home/selim/working/ChibiOS/os/hal/include/adc.h"
 1284              		.file 25 "/home/selim/working/ChibiOS/os/hal/ports/STM32/STM32F4xx/adc_lld.h"
 1285              		.file 26 "/home/selim/working/ChibiOS/os/hal/include/pwm.h"
 1286              		.file 27 "/home/selim/working/ChibiOS/os/hal/ports/STM32/LLD/TIMv1/pwm_lld.h"
 1287              		.file 28 "/home/selim/working/ChibiOS/os/hal/include/serial.h"
 1288              		.file 29 "/home/selim/working/ChibiOS/os/hal/include/spi.h"
 1289              		.file 30 "/home/selim/working/ChibiOS/os/hal/ports/STM32/LLD/SPIv1/spi_lld.h"
 1290              		.file 31 "/home/selim/working/ChibiOS/os/hal/include/usb.h"
 1291              		.file 32 "/home/selim/working/ChibiOS/os/hal/ports/STM32/LLD/OTGv1/usb_lld.h"
 1292              		.file 33 "/home/selim/working/ChibiOS/os/hal/ports/STM32/LLD/OTGv1/stm32_otg.h"
 1293              		.file 34 "/home/selim/working/ChibiOS/os/hal/include/serial_usb.h"
 1294              		.file 35 "/usr/lib/gcc/arm-none-eabi/5.3.1/include/stdarg.h"
 1295              		.file 36 "<built-in>"
 1296              		.file 37 "/home/selim/working/ChibiOS/os/various/shell.h"
 1297              		.file 38 "/home/selim/working/ChibiOS/os/rt/ports/ARMCMx/chcore_timer.h"
 1298              		.file 39 "/home/selim/working/ChibiOS/os/rt/include/chsys.h"
 1299              		.file 40 "/home/selim/working/ChibiOS/os/rt/include/chvt.h"
 1300              		.file 41 "/home/selim/working/ChibiOS/os/ext/CMSIS/include/core_cm4.h"
ARM GAS  /tmp/ccYZ3wWT.s 			page 25


 1301              		.file 42 "/home/selim/working/ChibiOS/os/hal/ports/STM32/LLD/USARTv1/serial_lld.h"
 1302              		.file 43 "usbcfg.h"
 1303              		.file 44 "/home/selim/working/ChibiOS/os/various/devices_lib/accel/lis302dl.h"
 1304              		.file 45 "/home/selim/working/ChibiOS/os/rt/include/chdynamic.h"
 1305              		.file 46 "/home/selim/working/ChibiOS/os/rt/include/chregistry.h"
 1306              		.file 47 "/home/selim/working/ChibiOS/os/rt/include/chheap.h"
 1307              		.file 48 "/home/selim/working/ChibiOS/os/rt/include/chmemcore.h"
 1308              		.file 49 "/home/selim/working/ChibiOS/os/hal/include/hal.h"