ARM GAS  /tmp/ccFOhtsz.s 			page 1


   1              		.syntax unified
   2              		.cpu cortex-m4
   3              		.fpu softvfp
   4              		.eabi_attribute 20, 1
   5              		.eabi_attribute 21, 1
   6              		.eabi_attribute 23, 3
   7              		.eabi_attribute 24, 1
   8              		.eabi_attribute 25, 1
   9              		.eabi_attribute 26, 1
  10              		.eabi_attribute 30, 2
  11              		.eabi_attribute 34, 1
  12              		.eabi_attribute 18, 4
  13              		.thumb
  14              		.syntax unified
  15              		.file	"pwm_lld.c"
  16              		.text
  17              	.Ltext0:
  18              		.cfi_sections	.debug_frame
  19              		.section	.text.VectorB8,"ax",%progbits
  20              		.align	2
  21              		.p2align 4,,15
  22              		.global	VectorB8
  23              		.thumb
  24              		.thumb_func
  25              		.type	VectorB8, %function
  26              	VectorB8:
  27              	.LFB259:
  28              		.file 1 "/home/selim/working/ChibiOS/os/hal/ports/STM32/LLD/TIMv1/pwm_lld.c"
  29              		.loc 1 246 0
  30              		.cfi_startproc
  31              		@ args = 0, pretend = 0, frame = 0
  32              		@ frame_needed = 0, uses_anonymous_args = 0
  33              	.LVL0:
  34 0000 38B5     		push	{r3, r4, r5, lr}
  35              		.cfi_def_cfa_offset 16
  36              		.cfi_offset 3, -16
  37              		.cfi_offset 4, -12
  38              		.cfi_offset 5, -8
  39              		.cfi_offset 14, -4
  40              	.LBB4:
  41              	.LBB5:
  42              		.loc 1 114 0
  43 0002 174D     		ldr	r5, .L39
  44 0004 AB69     		ldr	r3, [r5, #24]
  45 0006 1C69     		ldr	r4, [r3, #16]
  46              	.LVL1:
  47              		.loc 1 115 0
  48 0008 DA68     		ldr	r2, [r3, #12]
  49 000a 1440     		ands	r4, r4, r2
  50              	.LVL2:
  51              		.loc 1 116 0
  52 000c E2B2     		uxtb	r2, r4
  53 000e D243     		mvns	r2, r2
  54 0010 1A61     		str	r2, [r3, #16]
  55              		.loc 1 117 0
  56 0012 A307     		lsls	r3, r4, #30
  57 0014 04D5     		bpl	.L2
ARM GAS  /tmp/ccFOhtsz.s 			page 2


  58              		.loc 1 118 0
  59 0016 6B68     		ldr	r3, [r5, #4]
  60 0018 1B69     		ldr	r3, [r3, #16]
  61              		.loc 1 117 0
  62 001a 0BB1     		cbz	r3, .L2
  63              		.loc 1 119 0
  64 001c 2846     		mov	r0, r5
  65 001e 9847     		blx	r3
  66              	.LVL3:
  67              	.L2:
  68              		.loc 1 120 0
  69 0020 6007     		lsls	r0, r4, #29
  70 0022 04D5     		bpl	.L3
  71              		.loc 1 121 0
  72 0024 6B68     		ldr	r3, [r5, #4]
  73 0026 9B69     		ldr	r3, [r3, #24]
  74              		.loc 1 120 0
  75 0028 0BB1     		cbz	r3, .L3
  76              		.loc 1 122 0
  77 002a 0D48     		ldr	r0, .L39
  78 002c 9847     		blx	r3
  79              	.LVL4:
  80              	.L3:
  81              		.loc 1 123 0
  82 002e 2107     		lsls	r1, r4, #28
  83 0030 04D5     		bpl	.L4
  84              		.loc 1 124 0
  85 0032 6B68     		ldr	r3, [r5, #4]
  86 0034 1B6A     		ldr	r3, [r3, #32]
  87              		.loc 1 123 0
  88 0036 0BB1     		cbz	r3, .L4
  89              		.loc 1 125 0
  90 0038 0948     		ldr	r0, .L39
  91 003a 9847     		blx	r3
  92              	.LVL5:
  93              	.L4:
  94              		.loc 1 126 0
  95 003c E206     		lsls	r2, r4, #27
  96 003e 04D5     		bpl	.L5
  97              		.loc 1 127 0
  98 0040 6B68     		ldr	r3, [r5, #4]
  99 0042 9B6A     		ldr	r3, [r3, #40]
 100              		.loc 1 126 0
 101 0044 0BB1     		cbz	r3, .L5
 102              		.loc 1 128 0
 103 0046 0648     		ldr	r0, .L39
 104 0048 9847     		blx	r3
 105              	.LVL6:
 106              	.L5:
 107              		.loc 1 129 0
 108 004a E307     		lsls	r3, r4, #31
 109 004c 04D5     		bpl	.L6
 110 004e 6B68     		ldr	r3, [r5, #4]
 111 0050 9B68     		ldr	r3, [r3, #8]
 112 0052 0BB1     		cbz	r3, .L6
 113              		.loc 1 130 0
 114 0054 0248     		ldr	r0, .L39
ARM GAS  /tmp/ccFOhtsz.s 			page 3


 115 0056 9847     		blx	r3
 116              	.LVL7:
 117              	.L6:
 118              	.LBE5:
 119              	.LBE4:
 120              		.loc 1 253 0
 121 0058 BDE83840 		pop	{r3, r4, r5, lr}
 122              		.cfi_restore 14
 123              		.cfi_restore 5
 124              		.cfi_restore 4
 125              		.cfi_restore 3
 126              		.cfi_def_cfa_offset 0
 127              		.loc 1 252 0
 128 005c FFF7FEBF 		b	_port_irq_epilogue
 129              	.LVL8:
 130              	.L40:
 131              		.align	2
 132              	.L39:
 133 0060 00000000 		.word	.LANCHOR0
 134              		.cfi_endproc
 135              	.LFE259:
 136              		.size	VectorB8, .-VectorB8
 137              		.section	.text.pwm_lld_init,"ax",%progbits
 138              		.align	2
 139              		.p2align 4,,15
 140              		.global	pwm_lld_init
 141              		.thumb
 142              		.thumb_func
 143              		.type	pwm_lld_init, %function
 144              	pwm_lld_init:
 145              	.LFB260:
 146              		.loc 1 364 0
 147              		.cfi_startproc
 148              		@ args = 0, pretend = 0, frame = 0
 149              		@ frame_needed = 0, uses_anonymous_args = 0
 150 0000 10B5     		push	{r4, lr}
 151              		.cfi_def_cfa_offset 8
 152              		.cfi_offset 4, -8
 153              		.cfi_offset 14, -4
 154              		.loc 1 389 0
 155 0002 044C     		ldr	r4, .L43
 156 0004 2046     		mov	r0, r4
 157 0006 FFF7FEFF 		bl	pwmObjectInit
 158              	.LVL9:
 159              		.loc 1 390 0
 160 000a 0422     		movs	r2, #4
 161              		.loc 1 391 0
 162 000c 024B     		ldr	r3, .L43+4
 163              		.loc 1 390 0
 164 000e 2274     		strb	r2, [r4, #16]
 165              		.loc 1 391 0
 166 0010 A361     		str	r3, [r4, #24]
 167 0012 10BD     		pop	{r4, pc}
 168              	.L44:
 169              		.align	2
 170              	.L43:
 171 0014 00000000 		.word	.LANCHOR0
ARM GAS  /tmp/ccFOhtsz.s 			page 4


 172 0018 00080040 		.word	1073743872
 173              		.cfi_endproc
 174              	.LFE260:
 175              		.size	pwm_lld_init, .-pwm_lld_init
 176              		.section	.text.pwm_lld_start,"ax",%progbits
 177              		.align	2
 178              		.p2align 4,,15
 179              		.global	pwm_lld_start
 180              		.thumb
 181              		.thumb_func
 182              		.type	pwm_lld_start, %function
 183              	pwm_lld_start:
 184              	.LFB261:
 185              		.loc 1 425 0
 186              		.cfi_startproc
 187              		@ args = 0, pretend = 0, frame = 0
 188              		@ frame_needed = 0, uses_anonymous_args = 0
 189              	.LVL10:
 190 0000 F8B5     		push	{r3, r4, r5, r6, r7, lr}
 191              		.cfi_def_cfa_offset 24
 192              		.cfi_offset 3, -24
 193              		.cfi_offset 4, -20
 194              		.cfi_offset 5, -16
 195              		.cfi_offset 6, -12
 196              		.cfi_offset 7, -8
 197              		.cfi_offset 14, -4
 198              		.loc 1 429 0
 199 0002 0378     		ldrb	r3, [r0]	@ zero_extendqisi2
 200 0004 012B     		cmp	r3, #1
 201              		.loc 1 425 0
 202 0006 0446     		mov	r4, r0
 203              		.loc 1 429 0
 204 0008 4BD0     		beq	.L73
 205              		.loc 1 512 0
 206 000a 8369     		ldr	r3, [r0, #24]
 207 000c 0022     		movs	r2, #0
 208 000e 1A60     		str	r2, [r3]
 209              		.loc 1 513 0
 210 0010 5A63     		str	r2, [r3, #52]
 211              		.loc 1 514 0
 212 0012 9A63     		str	r2, [r3, #56]
 213              		.loc 1 515 0
 214 0014 DA63     		str	r2, [r3, #60]
 215              		.loc 1 516 0
 216 0016 1A64     		str	r2, [r3, #64]
 217              		.loc 1 523 0
 218 0018 5A62     		str	r2, [r3, #36]
 219              	.LVL11:
 220              	.L48:
 221              		.loc 1 527 0
 222 001a 6168     		ldr	r1, [r4, #4]
 223              		.loc 1 532 0
 224 001c A568     		ldr	r5, [r4, #8]
 225              		.loc 1 537 0
 226 001e CA68     		ldr	r2, [r1, #12]
 227              		.loc 1 527 0
 228 0020 6069     		ldr	r0, [r4, #20]
ARM GAS  /tmp/ccFOhtsz.s 			page 5


 229 0022 0F68     		ldr	r7, [r1]
 230              		.loc 1 533 0
 231 0024 CE6A     		ldr	r6, [r1, #44]
 232              		.loc 1 527 0
 233 0026 B0FBF7F0 		udiv	r0, r0, r7
 234              		.loc 1 537 0
 235 002a 02F00F02 		and	r2, r2, #15
 236              		.loc 1 532 0
 237 002e 6C1E     		subs	r4, r5, #1
 238              	.LVL12:
 239              		.loc 1 527 0
 240 0030 0138     		subs	r0, r0, #1
 241              	.LVL13:
 242              		.loc 1 537 0
 243 0032 012A     		cmp	r2, #1
 244              		.loc 1 531 0
 245 0034 9862     		str	r0, [r3, #40]
 246              		.loc 1 532 0
 247 0036 DC62     		str	r4, [r3, #44]
 248              		.loc 1 533 0
 249 0038 5E60     		str	r6, [r3, #4]
 250              	.LVL14:
 251              		.loc 1 537 0
 252 003a 03D0     		beq	.L49
 253              		.loc 1 536 0
 254 003c 022A     		cmp	r2, #2
 255 003e 0CBF     		ite	eq
 256 0040 0322     		moveq	r2, #3
 257 0042 0022     		movne	r2, #0
 258              	.L49:
 259              	.LVL15:
 260              		.loc 1 545 0
 261 0044 4869     		ldr	r0, [r1, #20]
 262              	.LVL16:
 263 0046 00F00F00 		and	r0, r0, #15
 264 004a 0128     		cmp	r0, #1
 265 004c 26D0     		beq	.L53
 266 004e 0228     		cmp	r0, #2
 267 0050 22D0     		beq	.L74
 268              	.L52:
 269              		.loc 1 553 0
 270 0052 C869     		ldr	r0, [r1, #28]
 271 0054 00F00F00 		and	r0, r0, #15
 272 0058 0128     		cmp	r0, #1
 273 005a 1AD0     		beq	.L56
 274 005c 0228     		cmp	r0, #2
 275 005e 16D0     		beq	.L75
 276              	.L55:
 277              		.loc 1 561 0
 278 0060 486A     		ldr	r0, [r1, #36]
 279 0062 00F00F00 		and	r0, r0, #15
 280 0066 0128     		cmp	r0, #1
 281 0068 03D0     		beq	.L59
 282 006a 0228     		cmp	r0, #2
 283 006c 03D1     		bne	.L58
 284              		.loc 1 563 0
 285 006e 42F40052 		orr	r2, r2, #8192
ARM GAS  /tmp/ccFOhtsz.s 			page 6


 286              	.LVL17:
 287              	.L59:
 288              		.loc 1 565 0
 289 0072 42F48052 		orr	r2, r2, #4096
 290              	.LVL18:
 291              	.L58:
 292              		.loc 1 609 0
 293 0076 096B     		ldr	r1, [r1, #48]
 294              		.loc 1 606 0
 295 0078 1A62     		str	r2, [r3, #32]
 296              		.loc 1 607 0
 297 007a 0124     		movs	r4, #1
 298              		.loc 1 609 0
 299 007c 21F0FF02 		bic	r2, r1, #255
 300              	.LVL19:
 301              		.loc 1 608 0
 302 0080 0020     		movs	r0, #0
 303              		.loc 1 619 0
 304 0082 8521     		movs	r1, #133
 305              		.loc 1 607 0
 306 0084 5C61     		str	r4, [r3, #20]
 307              	.LVL20:
 308              		.loc 1 608 0
 309 0086 1861     		str	r0, [r3, #16]
 310              		.loc 1 609 0
 311 0088 DA60     		str	r2, [r3, #12]
 312              		.loc 1 619 0
 313 008a 1960     		str	r1, [r3]
 314 008c F8BD     		pop	{r3, r4, r5, r6, r7, pc}
 315              	.LVL21:
 316              	.L75:
 317              		.loc 1 555 0
 318 008e 42F40072 		orr	r2, r2, #512
 319              	.LVL22:
 320              	.L56:
 321              		.loc 1 557 0
 322 0092 42F48072 		orr	r2, r2, #256
 323              	.LVL23:
 324 0096 E3E7     		b	.L55
 325              	.L74:
 326              		.loc 1 547 0
 327 0098 42F02002 		orr	r2, r2, #32
 328              	.LVL24:
 329              	.L53:
 330              		.loc 1 549 0
 331 009c 42F01002 		orr	r2, r2, #16
 332              	.LVL25:
 333 00a0 D7E7     		b	.L52
 334              	.LVL26:
 335              	.L73:
 336              		.loc 1 461 0
 337 00a2 0D4B     		ldr	r3, .L77
 338 00a4 9842     		cmp	r0, r3
 339 00a6 05D0     		beq	.L76
 340              	.LVL27:
 341              	.L47:
 342              		.loc 1 501 0
ARM GAS  /tmp/ccFOhtsz.s 			page 7


 343 00a8 A369     		ldr	r3, [r4, #24]
 344 00aa 46F66802 		movw	r2, #26728
 345 00ae 9A61     		str	r2, [r3, #24]
 346              		.loc 1 503 0
 347 00b0 DA61     		str	r2, [r3, #28]
 348 00b2 B2E7     		b	.L48
 349              	.LVL28:
 350              	.L76:
 351              		.loc 1 462 0
 352 00b4 094B     		ldr	r3, .L77+4
 353 00b6 1A6C     		ldr	r2, [r3, #64]
 354 00b8 42F00402 		orr	r2, r2, #4
 355 00bc 1A64     		str	r2, [r3, #64]
 356              		.loc 1 463 0
 357 00be 1A6A     		ldr	r2, [r3, #32]
 358 00c0 0020     		movs	r0, #0
 359              	.LVL29:
 360 00c2 42F00402 		orr	r2, r2, #4
 361 00c6 1A62     		str	r2, [r3, #32]
 362              		.loc 1 464 0
 363 00c8 0721     		movs	r1, #7
 364              		.loc 1 463 0
 365 00ca 1862     		str	r0, [r3, #32]
 366              		.loc 1 464 0
 367 00cc 1E20     		movs	r0, #30
 368 00ce FFF7FEFF 		bl	nvicEnableVector
 369              	.LVL30:
 370              		.loc 1 465 0
 371 00d2 034B     		ldr	r3, .L77+8
 372 00d4 6361     		str	r3, [r4, #20]
 373 00d6 E7E7     		b	.L47
 374              	.L78:
 375              		.align	2
 376              	.L77:
 377 00d8 00000000 		.word	.LANCHOR0
 378 00dc 00380240 		.word	1073887232
 379 00e0 00BD0105 		.word	84000000
 380              		.cfi_endproc
 381              	.LFE261:
 382              		.size	pwm_lld_start, .-pwm_lld_start
 383              		.section	.text.pwm_lld_stop,"ax",%progbits
 384              		.align	2
 385              		.p2align 4,,15
 386              		.global	pwm_lld_stop
 387              		.thumb
 388              		.thumb_func
 389              		.type	pwm_lld_stop, %function
 390              	pwm_lld_stop:
 391              	.LFB262:
 392              		.loc 1 630 0
 393              		.cfi_startproc
 394              		@ args = 0, pretend = 0, frame = 0
 395              		@ frame_needed = 0, uses_anonymous_args = 0
 396              	.LVL31:
 397 0000 08B5     		push	{r3, lr}
 398              		.cfi_def_cfa_offset 8
 399              		.cfi_offset 3, -8
ARM GAS  /tmp/ccFOhtsz.s 			page 8


 400              		.cfi_offset 14, -4
 401              		.loc 1 633 0
 402 0002 0378     		ldrb	r3, [r0]	@ zero_extendqisi2
 403 0004 022B     		cmp	r3, #2
 404 0006 00D0     		beq	.L84
 405              	.LVL32:
 406              	.L79:
 407 0008 08BD     		pop	{r3, pc}
 408              	.LVL33:
 409              	.L84:
 410              		.loc 1 661 0
 411 000a 0849     		ldr	r1, .L85
 412              		.loc 1 634 0
 413 000c 8369     		ldr	r3, [r0, #24]
 414 000e 0022     		movs	r2, #0
 415              		.loc 1 661 0
 416 0010 8842     		cmp	r0, r1
 417              		.loc 1 634 0
 418 0012 1A60     		str	r2, [r3]
 419              		.loc 1 635 0
 420 0014 DA60     		str	r2, [r3, #12]
 421              		.loc 1 636 0
 422 0016 1A61     		str	r2, [r3, #16]
 423              		.loc 1 661 0
 424 0018 F6D1     		bne	.L79
 425              		.loc 1 662 0
 426 001a 1E20     		movs	r0, #30
 427              	.LVL34:
 428 001c FFF7FEFF 		bl	nvicDisableVector
 429              	.LVL35:
 430              		.loc 1 663 0
 431 0020 034A     		ldr	r2, .L85+4
 432 0022 136C     		ldr	r3, [r2, #64]
 433 0024 23F00403 		bic	r3, r3, #4
 434 0028 1364     		str	r3, [r2, #64]
 435              		.loc 1 686 0
 436 002a EDE7     		b	.L79
 437              	.L86:
 438              		.align	2
 439              	.L85:
 440 002c 00000000 		.word	.LANCHOR0
 441 0030 00380240 		.word	1073887232
 442              		.cfi_endproc
 443              	.LFE262:
 444              		.size	pwm_lld_stop, .-pwm_lld_stop
 445              		.section	.text.pwm_lld_enable_channel,"ax",%progbits
 446              		.align	2
 447              		.p2align 4,,15
 448              		.global	pwm_lld_enable_channel
 449              		.thumb
 450              		.thumb_func
 451              		.type	pwm_lld_enable_channel, %function
 452              	pwm_lld_enable_channel:
 453              	.LFB263:
 454              		.loc 1 703 0
 455              		.cfi_startproc
 456              		@ args = 0, pretend = 0, frame = 0
ARM GAS  /tmp/ccFOhtsz.s 			page 9


 457              		@ frame_needed = 0, uses_anonymous_args = 0
 458              		@ link register save eliminated.
 459              	.LVL36:
 460              		.loc 1 707 0
 461 0000 8369     		ldr	r3, [r0, #24]
 462 0002 0C31     		adds	r1, r1, #12
 463              	.LVL37:
 464 0004 03EB8103 		add	r3, r3, r1, lsl #2
 465 0008 5A60     		str	r2, [r3, #4]
 466 000a 7047     		bx	lr
 467              		.cfi_endproc
 468              	.LFE263:
 469              		.size	pwm_lld_enable_channel, .-pwm_lld_enable_channel
 470              		.section	.text.pwm_lld_disable_channel,"ax",%progbits
 471              		.align	2
 472              		.p2align 4,,15
 473              		.global	pwm_lld_disable_channel
 474              		.thumb
 475              		.thumb_func
 476              		.type	pwm_lld_disable_channel, %function
 477              	pwm_lld_disable_channel:
 478              	.LFB264:
 479              		.loc 1 728 0
 480              		.cfi_startproc
 481              		@ args = 0, pretend = 0, frame = 0
 482              		@ frame_needed = 0, uses_anonymous_args = 0
 483              		@ link register save eliminated.
 484              	.LVL38:
 485              		.loc 1 731 0
 486 0000 8369     		ldr	r3, [r0, #24]
 487 0002 01F10C02 		add	r2, r1, #12
 488 0006 03EB8202 		add	r2, r3, r2, lsl #2
 489 000a 0020     		movs	r0, #0
 490              	.LVL39:
 491 000c 5060     		str	r0, [r2, #4]
 492              		.loc 1 732 0
 493 000e DA68     		ldr	r2, [r3, #12]
 494 0010 0220     		movs	r0, #2
 495 0012 00FA01F1 		lsl	r1, r0, r1
 496              	.LVL40:
 497 0016 22EA0101 		bic	r1, r2, r1
 498 001a D960     		str	r1, [r3, #12]
 499 001c 7047     		bx	lr
 500              		.cfi_endproc
 501              	.LFE264:
 502              		.size	pwm_lld_disable_channel, .-pwm_lld_disable_channel
 503 001e 00BF     		.section	.text.pwm_lld_enable_periodic_notification,"ax",%progbits
 504              		.align	2
 505              		.p2align 4,,15
 506              		.global	pwm_lld_enable_periodic_notification
 507              		.thumb
 508              		.thumb_func
 509              		.type	pwm_lld_enable_periodic_notification, %function
 510              	pwm_lld_enable_periodic_notification:
 511              	.LFB265:
 512              		.loc 1 752 0
 513              		.cfi_startproc
ARM GAS  /tmp/ccFOhtsz.s 			page 10


 514              		@ args = 0, pretend = 0, frame = 0
 515              		@ frame_needed = 0, uses_anonymous_args = 0
 516              		@ link register save eliminated.
 517              	.LVL41:
 518              		.loc 1 753 0
 519 0000 8369     		ldr	r3, [r0, #24]
 520 0002 DA68     		ldr	r2, [r3, #12]
 521              	.LVL42:
 522              		.loc 1 757 0
 523 0004 D107     		lsls	r1, r2, #31
 524 0006 06D4     		bmi	.L89
 525              		.loc 1 758 0
 526 0008 42F00102 		orr	r2, r2, #1
 527              	.LVL43:
 528 000c DA60     		str	r2, [r3, #12]
 529              		.loc 1 759 0
 530 000e 1A69     		ldr	r2, [r3, #16]
 531 0010 02F00102 		and	r2, r2, #1
 532 0014 1A61     		str	r2, [r3, #16]
 533              	.L89:
 534 0016 7047     		bx	lr
 535              		.cfi_endproc
 536              	.LFE265:
 537              		.size	pwm_lld_enable_periodic_notification, .-pwm_lld_enable_periodic_notification
 538              		.section	.text.pwm_lld_disable_periodic_notification,"ax",%progbits
 539              		.align	2
 540              		.p2align 4,,15
 541              		.global	pwm_lld_disable_periodic_notification
 542              		.thumb
 543              		.thumb_func
 544              		.type	pwm_lld_disable_periodic_notification, %function
 545              	pwm_lld_disable_periodic_notification:
 546              	.LFB266:
 547              		.loc 1 772 0
 548              		.cfi_startproc
 549              		@ args = 0, pretend = 0, frame = 0
 550              		@ frame_needed = 0, uses_anonymous_args = 0
 551              		@ link register save eliminated.
 552              	.LVL44:
 553              		.loc 1 774 0
 554 0000 8269     		ldr	r2, [r0, #24]
 555 0002 D368     		ldr	r3, [r2, #12]
 556 0004 23F00103 		bic	r3, r3, #1
 557 0008 D360     		str	r3, [r2, #12]
 558 000a 7047     		bx	lr
 559              		.cfi_endproc
 560              	.LFE266:
 561              		.size	pwm_lld_disable_periodic_notification, .-pwm_lld_disable_periodic_notification
 562              		.section	.text.pwm_lld_enable_channel_notification,"ax",%progbits
 563              		.align	2
 564              		.p2align 4,,15
 565              		.global	pwm_lld_enable_channel_notification
 566              		.thumb
 567              		.thumb_func
 568              		.type	pwm_lld_enable_channel_notification, %function
 569              	pwm_lld_enable_channel_notification:
 570              	.LFB267:
ARM GAS  /tmp/ccFOhtsz.s 			page 11


 571              		.loc 1 789 0
 572              		.cfi_startproc
 573              		@ args = 0, pretend = 0, frame = 0
 574              		@ frame_needed = 0, uses_anonymous_args = 0
 575              		@ link register save eliminated.
 576              	.LVL45:
 577              		.loc 1 790 0
 578 0000 8069     		ldr	r0, [r0, #24]
 579              	.LVL46:
 580              		.loc 1 799 0
 581 0002 0223     		movs	r3, #2
 582              		.loc 1 790 0
 583 0004 C268     		ldr	r2, [r0, #12]
 584              	.LVL47:
 585              		.loc 1 799 0
 586 0006 03FA01F1 		lsl	r1, r3, r1
 587              	.LVL48:
 588 000a 0A42     		tst	r2, r1
 589 000c 03D1     		bne	.L92
 590              		.loc 1 800 0
 591 000e 0A43     		orrs	r2, r2, r1
 592              	.LVL49:
 593              		.loc 1 801 0
 594 0010 C943     		mvns	r1, r1
 595              		.loc 1 800 0
 596 0012 C260     		str	r2, [r0, #12]
 597              		.loc 1 801 0
 598 0014 0161     		str	r1, [r0, #16]
 599              	.L92:
 600 0016 7047     		bx	lr
 601              		.cfi_endproc
 602              	.LFE267:
 603              		.size	pwm_lld_enable_channel_notification, .-pwm_lld_enable_channel_notification
 604              		.section	.text.pwm_lld_disable_channel_notification,"ax",%progbits
 605              		.align	2
 606              		.p2align 4,,15
 607              		.global	pwm_lld_disable_channel_notification
 608              		.thumb
 609              		.thumb_func
 610              		.type	pwm_lld_disable_channel_notification, %function
 611              	pwm_lld_disable_channel_notification:
 612              	.LFB268:
 613              		.loc 1 817 0
 614              		.cfi_startproc
 615              		@ args = 0, pretend = 0, frame = 0
 616              		@ frame_needed = 0, uses_anonymous_args = 0
 617              		@ link register save eliminated.
 618              	.LVL50:
 619              		.loc 1 819 0
 620 0000 8069     		ldr	r0, [r0, #24]
 621              	.LVL51:
 622 0002 0222     		movs	r2, #2
 623 0004 C368     		ldr	r3, [r0, #12]
 624 0006 02FA01F1 		lsl	r1, r2, r1
 625              	.LVL52:
 626 000a 23EA0103 		bic	r3, r3, r1
 627 000e C360     		str	r3, [r0, #12]
ARM GAS  /tmp/ccFOhtsz.s 			page 12


 628 0010 7047     		bx	lr
 629              		.cfi_endproc
 630              	.LFE268:
 631              		.size	pwm_lld_disable_channel_notification, .-pwm_lld_disable_channel_notification
 632              		.global	PWMD4
 633 0012 00BF     		.section	.bss.PWMD4,"aw",%nobits
 634              		.align	2
 635              		.set	.LANCHOR0,. + 0
 636              		.type	PWMD4, %object
 637              		.size	PWMD4, 28
 638              	PWMD4:
 639 0000 00000000 		.space	28
 639      00000000 
 639      00000000 
 639      00000000 
 639      00000000 
 640              		.text
 641              	.Letext0:
 642              		.file 2 "/usr/lib/gcc/arm-none-eabi/5.3.1/include/stddef.h"
 643              		.file 3 "/usr/arm-none-eabi/include/machine/_default_types.h"
 644              		.file 4 "/usr/arm-none-eabi/include/sys/_stdint.h"
 645              		.file 5 "/home/selim/working/ChibiOS/os/rt/ports/ARMCMx/compilers/GCC/chtypes.h"
 646              		.file 6 "/home/selim/working/ChibiOS/os/rt/include/chsystypes.h"
 647              		.file 7 "/home/selim/working/ChibiOS/os/rt/include/chschd.h"
 648              		.file 8 "/home/selim/working/ChibiOS/os/ext/CMSIS/ST/stm32f407xx.h"
 649              		.file 9 "/home/selim/working/ChibiOS/os/rt/ports/ARMCMx/chcore.h"
 650              		.file 10 "/home/selim/working/ChibiOS/os/rt/ports/ARMCMx/chcore_v7m.h"
 651              		.file 11 "/home/selim/working/ChibiOS/os/hal/ports/STM32/LLD/TIMv1/stm32_tim.h"
 652              		.file 12 "/home/selim/working/ChibiOS/os/rt/include/chtm.h"
 653              		.file 13 "/home/selim/working/ChibiOS/os/rt/include/chsem.h"
 654              		.file 14 "/home/selim/working/ChibiOS/os/rt/include/chmtx.h"
 655              		.file 15 "/home/selim/working/ChibiOS/os/hal/include/pwm.h"
 656              		.file 16 "/home/selim/working/ChibiOS/os/hal/ports/STM32/LLD/TIMv1/pwm_lld.h"
 657              		.file 17 "/home/selim/working/ChibiOS/os/ext/CMSIS/include/core_cm4.h"
 658              		.file 18 "/home/selim/working/ChibiOS/os/hal/ports/common/ARMCMx/nvic.h"