ARM GAS  /tmp/ccH0TlFv.s 			page 1


   1              		.syntax unified
   2              		.cpu cortex-m4
   3              		.fpu softvfp
   4              		.eabi_attribute 20, 1
   5              		.eabi_attribute 21, 1
   6              		.eabi_attribute 23, 3
   7              		.eabi_attribute 24, 1
   8              		.eabi_attribute 25, 1
   9              		.eabi_attribute 26, 1
  10              		.eabi_attribute 30, 2
  11              		.eabi_attribute 34, 1
  12              		.eabi_attribute 18, 4
  13              		.thumb
  14              		.syntax unified
  15              		.file	"stm32_dma.c"
  16              		.text
  17              	.Ltext0:
  18              		.cfi_sections	.debug_frame
  19              		.section	.text.Vector6C,"ax",%progbits
  20              		.align	2
  21              		.p2align 4,,15
  22              		.global	Vector6C
  23              		.thumb
  24              		.thumb_func
  25              		.type	Vector6C, %function
  26              	Vector6C:
  27              	.LFB258:
  28              		.file 1 "/home/selim/working/ChibiOS/os/hal/ports/STM32/STM32F4xx/stm32_dma.c"
  29              		.loc 1 127 0
  30              		.cfi_startproc
  31              		@ args = 0, pretend = 0, frame = 0
  32              		@ frame_needed = 0, uses_anonymous_args = 0
  33 0000 08B5     		push	{r3, lr}
  34              		.cfi_def_cfa_offset 8
  35              		.cfi_offset 3, -8
  36              		.cfi_offset 14, -4
  37              		.loc 1 132 0
  38 0002 074B     		ldr	r3, .L8
  39              		.loc 1 134 0
  40 0004 074A     		ldr	r2, .L8+4
  41              		.loc 1 132 0
  42 0006 1968     		ldr	r1, [r3]
  43 0008 01F03D01 		and	r1, r1, #61
  44              	.LVL0:
  45              		.loc 1 133 0
  46 000c 9960     		str	r1, [r3, #8]
  47              		.loc 1 134 0
  48 000e 1368     		ldr	r3, [r2]
  49 0010 0BB1     		cbz	r3, .L2
  50              		.loc 1 135 0
  51 0012 5068     		ldr	r0, [r2, #4]
  52 0014 9847     		blx	r3
  53              	.LVL1:
  54              	.L2:
  55              		.loc 1 138 0
  56 0016 BDE80840 		pop	{r3, lr}
  57              		.cfi_restore 14
ARM GAS  /tmp/ccH0TlFv.s 			page 2


  58              		.cfi_restore 3
  59              		.cfi_def_cfa_offset 0
  60              		.loc 1 137 0
  61 001a FFF7FEBF 		b	_port_irq_epilogue
  62              	.LVL2:
  63              	.L9:
  64 001e 00BF     		.align	2
  65              	.L8:
  66 0020 00600240 		.word	1073897472
  67 0024 00000000 		.word	.LANCHOR0
  68              		.cfi_endproc
  69              	.LFE258:
  70              		.size	Vector6C, .-Vector6C
  71              		.section	.text.Vector70,"ax",%progbits
  72              		.align	2
  73              		.p2align 4,,15
  74              		.global	Vector70
  75              		.thumb
  76              		.thumb_func
  77              		.type	Vector70, %function
  78              	Vector70:
  79              	.LFB259:
  80              		.loc 1 145 0
  81              		.cfi_startproc
  82              		@ args = 0, pretend = 0, frame = 0
  83              		@ frame_needed = 0, uses_anonymous_args = 0
  84              		.loc 1 150 0
  85 0000 084B     		ldr	r3, .L16
  86              		.loc 1 152 0
  87 0002 0948     		ldr	r0, .L16+4
  88              		.loc 1 150 0
  89 0004 1968     		ldr	r1, [r3]
  90              		.loc 1 152 0
  91 0006 8268     		ldr	r2, [r0, #8]
  92              		.loc 1 150 0
  93 0008 8909     		lsrs	r1, r1, #6
  94 000a 01F03D01 		and	r1, r1, #61
  95              	.LVL3:
  96              		.loc 1 145 0
  97 000e 10B5     		push	{r4, lr}
  98              		.cfi_def_cfa_offset 8
  99              		.cfi_offset 4, -8
 100              		.cfi_offset 14, -4
 101              		.loc 1 151 0
 102 0010 8C01     		lsls	r4, r1, #6
 103 0012 9C60     		str	r4, [r3, #8]
 104              		.loc 1 152 0
 105 0014 0AB1     		cbz	r2, .L11
 106              		.loc 1 153 0
 107 0016 C068     		ldr	r0, [r0, #12]
 108 0018 9047     		blx	r2
 109              	.LVL4:
 110              	.L11:
 111              		.loc 1 156 0
 112 001a BDE81040 		pop	{r4, lr}
 113              		.cfi_restore 14
 114              		.cfi_restore 4
ARM GAS  /tmp/ccH0TlFv.s 			page 3


 115              		.cfi_def_cfa_offset 0
 116              		.loc 1 155 0
 117 001e FFF7FEBF 		b	_port_irq_epilogue
 118              	.LVL5:
 119              	.L17:
 120 0022 00BF     		.align	2
 121              	.L16:
 122 0024 00600240 		.word	1073897472
 123 0028 00000000 		.word	.LANCHOR0
 124              		.cfi_endproc
 125              	.LFE259:
 126              		.size	Vector70, .-Vector70
 127              		.section	.text.Vector74,"ax",%progbits
 128              		.align	2
 129              		.p2align 4,,15
 130              		.global	Vector74
 131              		.thumb
 132              		.thumb_func
 133              		.type	Vector74, %function
 134              	Vector74:
 135              	.LFB260:
 136              		.loc 1 163 0
 137              		.cfi_startproc
 138              		@ args = 0, pretend = 0, frame = 0
 139              		@ frame_needed = 0, uses_anonymous_args = 0
 140              		.loc 1 168 0
 141 0000 084B     		ldr	r3, .L24
 142              		.loc 1 170 0
 143 0002 0948     		ldr	r0, .L24+4
 144              		.loc 1 168 0
 145 0004 1968     		ldr	r1, [r3]
 146              		.loc 1 170 0
 147 0006 0269     		ldr	r2, [r0, #16]
 148              		.loc 1 168 0
 149 0008 090C     		lsrs	r1, r1, #16
 150 000a 01F03D01 		and	r1, r1, #61
 151              	.LVL6:
 152              		.loc 1 163 0
 153 000e 10B5     		push	{r4, lr}
 154              		.cfi_def_cfa_offset 8
 155              		.cfi_offset 4, -8
 156              		.cfi_offset 14, -4
 157              		.loc 1 169 0
 158 0010 0C04     		lsls	r4, r1, #16
 159 0012 9C60     		str	r4, [r3, #8]
 160              		.loc 1 170 0
 161 0014 0AB1     		cbz	r2, .L19
 162              		.loc 1 171 0
 163 0016 4069     		ldr	r0, [r0, #20]
 164 0018 9047     		blx	r2
 165              	.LVL7:
 166              	.L19:
 167              		.loc 1 174 0
 168 001a BDE81040 		pop	{r4, lr}
 169              		.cfi_restore 14
 170              		.cfi_restore 4
 171              		.cfi_def_cfa_offset 0
ARM GAS  /tmp/ccH0TlFv.s 			page 4


 172              		.loc 1 173 0
 173 001e FFF7FEBF 		b	_port_irq_epilogue
 174              	.LVL8:
 175              	.L25:
 176 0022 00BF     		.align	2
 177              	.L24:
 178 0024 00600240 		.word	1073897472
 179 0028 00000000 		.word	.LANCHOR0
 180              		.cfi_endproc
 181              	.LFE260:
 182              		.size	Vector74, .-Vector74
 183              		.section	.text.Vector78,"ax",%progbits
 184              		.align	2
 185              		.p2align 4,,15
 186              		.global	Vector78
 187              		.thumb
 188              		.thumb_func
 189              		.type	Vector78, %function
 190              	Vector78:
 191              	.LFB261:
 192              		.loc 1 181 0
 193              		.cfi_startproc
 194              		@ args = 0, pretend = 0, frame = 0
 195              		@ frame_needed = 0, uses_anonymous_args = 0
 196              		.loc 1 186 0
 197 0000 084B     		ldr	r3, .L32
 198              		.loc 1 188 0
 199 0002 0948     		ldr	r0, .L32+4
 200              		.loc 1 186 0
 201 0004 1968     		ldr	r1, [r3]
 202              		.loc 1 188 0
 203 0006 8269     		ldr	r2, [r0, #24]
 204              		.loc 1 186 0
 205 0008 890D     		lsrs	r1, r1, #22
 206 000a 01F03D01 		and	r1, r1, #61
 207              	.LVL9:
 208              		.loc 1 181 0
 209 000e 10B5     		push	{r4, lr}
 210              		.cfi_def_cfa_offset 8
 211              		.cfi_offset 4, -8
 212              		.cfi_offset 14, -4
 213              		.loc 1 187 0
 214 0010 8C05     		lsls	r4, r1, #22
 215 0012 9C60     		str	r4, [r3, #8]
 216              		.loc 1 188 0
 217 0014 0AB1     		cbz	r2, .L27
 218              		.loc 1 189 0
 219 0016 C069     		ldr	r0, [r0, #28]
 220 0018 9047     		blx	r2
 221              	.LVL10:
 222              	.L27:
 223              		.loc 1 192 0
 224 001a BDE81040 		pop	{r4, lr}
 225              		.cfi_restore 14
 226              		.cfi_restore 4
 227              		.cfi_def_cfa_offset 0
 228              		.loc 1 191 0
ARM GAS  /tmp/ccH0TlFv.s 			page 5


 229 001e FFF7FEBF 		b	_port_irq_epilogue
 230              	.LVL11:
 231              	.L33:
 232 0022 00BF     		.align	2
 233              	.L32:
 234 0024 00600240 		.word	1073897472
 235 0028 00000000 		.word	.LANCHOR0
 236              		.cfi_endproc
 237              	.LFE261:
 238              		.size	Vector78, .-Vector78
 239              		.section	.text.Vector7C,"ax",%progbits
 240              		.align	2
 241              		.p2align 4,,15
 242              		.global	Vector7C
 243              		.thumb
 244              		.thumb_func
 245              		.type	Vector7C, %function
 246              	Vector7C:
 247              	.LFB262:
 248              		.loc 1 199 0
 249              		.cfi_startproc
 250              		@ args = 0, pretend = 0, frame = 0
 251              		@ frame_needed = 0, uses_anonymous_args = 0
 252 0000 08B5     		push	{r3, lr}
 253              		.cfi_def_cfa_offset 8
 254              		.cfi_offset 3, -8
 255              		.cfi_offset 14, -4
 256              		.loc 1 204 0
 257 0002 074B     		ldr	r3, .L40
 258              		.loc 1 206 0
 259 0004 0748     		ldr	r0, .L40+4
 260              		.loc 1 204 0
 261 0006 5968     		ldr	r1, [r3, #4]
 262              		.loc 1 206 0
 263 0008 026A     		ldr	r2, [r0, #32]
 264              		.loc 1 204 0
 265 000a 01F03D01 		and	r1, r1, #61
 266              	.LVL12:
 267              		.loc 1 205 0
 268 000e D960     		str	r1, [r3, #12]
 269              		.loc 1 206 0
 270 0010 0AB1     		cbz	r2, .L35
 271              		.loc 1 207 0
 272 0012 406A     		ldr	r0, [r0, #36]
 273 0014 9047     		blx	r2
 274              	.LVL13:
 275              	.L35:
 276              		.loc 1 210 0
 277 0016 BDE80840 		pop	{r3, lr}
 278              		.cfi_restore 14
 279              		.cfi_restore 3
 280              		.cfi_def_cfa_offset 0
 281              		.loc 1 209 0
 282 001a FFF7FEBF 		b	_port_irq_epilogue
 283              	.LVL14:
 284              	.L41:
 285 001e 00BF     		.align	2
ARM GAS  /tmp/ccH0TlFv.s 			page 6


 286              	.L40:
 287 0020 00600240 		.word	1073897472
 288 0024 00000000 		.word	.LANCHOR0
 289              		.cfi_endproc
 290              	.LFE262:
 291              		.size	Vector7C, .-Vector7C
 292              		.section	.text.Vector80,"ax",%progbits
 293              		.align	2
 294              		.p2align 4,,15
 295              		.global	Vector80
 296              		.thumb
 297              		.thumb_func
 298              		.type	Vector80, %function
 299              	Vector80:
 300              	.LFB263:
 301              		.loc 1 217 0
 302              		.cfi_startproc
 303              		@ args = 0, pretend = 0, frame = 0
 304              		@ frame_needed = 0, uses_anonymous_args = 0
 305              		.loc 1 222 0
 306 0000 084B     		ldr	r3, .L48
 307              		.loc 1 224 0
 308 0002 0948     		ldr	r0, .L48+4
 309              		.loc 1 222 0
 310 0004 5968     		ldr	r1, [r3, #4]
 311              		.loc 1 224 0
 312 0006 826A     		ldr	r2, [r0, #40]
 313              		.loc 1 222 0
 314 0008 8909     		lsrs	r1, r1, #6
 315 000a 01F03D01 		and	r1, r1, #61
 316              	.LVL15:
 317              		.loc 1 217 0
 318 000e 10B5     		push	{r4, lr}
 319              		.cfi_def_cfa_offset 8
 320              		.cfi_offset 4, -8
 321              		.cfi_offset 14, -4
 322              		.loc 1 223 0
 323 0010 8C01     		lsls	r4, r1, #6
 324 0012 DC60     		str	r4, [r3, #12]
 325              		.loc 1 224 0
 326 0014 0AB1     		cbz	r2, .L43
 327              		.loc 1 225 0
 328 0016 C06A     		ldr	r0, [r0, #44]
 329 0018 9047     		blx	r2
 330              	.LVL16:
 331              	.L43:
 332              		.loc 1 228 0
 333 001a BDE81040 		pop	{r4, lr}
 334              		.cfi_restore 14
 335              		.cfi_restore 4
 336              		.cfi_def_cfa_offset 0
 337              		.loc 1 227 0
 338 001e FFF7FEBF 		b	_port_irq_epilogue
 339              	.LVL17:
 340              	.L49:
 341 0022 00BF     		.align	2
 342              	.L48:
ARM GAS  /tmp/ccH0TlFv.s 			page 7


 343 0024 00600240 		.word	1073897472
 344 0028 00000000 		.word	.LANCHOR0
 345              		.cfi_endproc
 346              	.LFE263:
 347              		.size	Vector80, .-Vector80
 348              		.section	.text.Vector84,"ax",%progbits
 349              		.align	2
 350              		.p2align 4,,15
 351              		.global	Vector84
 352              		.thumb
 353              		.thumb_func
 354              		.type	Vector84, %function
 355              	Vector84:
 356              	.LFB264:
 357              		.loc 1 235 0
 358              		.cfi_startproc
 359              		@ args = 0, pretend = 0, frame = 0
 360              		@ frame_needed = 0, uses_anonymous_args = 0
 361              		.loc 1 240 0
 362 0000 084B     		ldr	r3, .L56
 363              		.loc 1 242 0
 364 0002 0948     		ldr	r0, .L56+4
 365              		.loc 1 240 0
 366 0004 5968     		ldr	r1, [r3, #4]
 367              		.loc 1 242 0
 368 0006 026B     		ldr	r2, [r0, #48]
 369              		.loc 1 240 0
 370 0008 090C     		lsrs	r1, r1, #16
 371 000a 01F03D01 		and	r1, r1, #61
 372              	.LVL18:
 373              		.loc 1 235 0
 374 000e 10B5     		push	{r4, lr}
 375              		.cfi_def_cfa_offset 8
 376              		.cfi_offset 4, -8
 377              		.cfi_offset 14, -4
 378              		.loc 1 241 0
 379 0010 0C04     		lsls	r4, r1, #16
 380 0012 DC60     		str	r4, [r3, #12]
 381              		.loc 1 242 0
 382 0014 0AB1     		cbz	r2, .L51
 383              		.loc 1 243 0
 384 0016 406B     		ldr	r0, [r0, #52]
 385 0018 9047     		blx	r2
 386              	.LVL19:
 387              	.L51:
 388              		.loc 1 246 0
 389 001a BDE81040 		pop	{r4, lr}
 390              		.cfi_restore 14
 391              		.cfi_restore 4
 392              		.cfi_def_cfa_offset 0
 393              		.loc 1 245 0
 394 001e FFF7FEBF 		b	_port_irq_epilogue
 395              	.LVL20:
 396              	.L57:
 397 0022 00BF     		.align	2
 398              	.L56:
 399 0024 00600240 		.word	1073897472
ARM GAS  /tmp/ccH0TlFv.s 			page 8


 400 0028 00000000 		.word	.LANCHOR0
 401              		.cfi_endproc
 402              	.LFE264:
 403              		.size	Vector84, .-Vector84
 404              		.section	.text.VectorFC,"ax",%progbits
 405              		.align	2
 406              		.p2align 4,,15
 407              		.global	VectorFC
 408              		.thumb
 409              		.thumb_func
 410              		.type	VectorFC, %function
 411              	VectorFC:
 412              	.LFB265:
 413              		.loc 1 253 0
 414              		.cfi_startproc
 415              		@ args = 0, pretend = 0, frame = 0
 416              		@ frame_needed = 0, uses_anonymous_args = 0
 417              		.loc 1 258 0
 418 0000 084B     		ldr	r3, .L64
 419              		.loc 1 260 0
 420 0002 0948     		ldr	r0, .L64+4
 421              		.loc 1 258 0
 422 0004 5968     		ldr	r1, [r3, #4]
 423              		.loc 1 260 0
 424 0006 826B     		ldr	r2, [r0, #56]
 425              		.loc 1 258 0
 426 0008 890D     		lsrs	r1, r1, #22
 427 000a 01F03D01 		and	r1, r1, #61
 428              	.LVL21:
 429              		.loc 1 253 0
 430 000e 10B5     		push	{r4, lr}
 431              		.cfi_def_cfa_offset 8
 432              		.cfi_offset 4, -8
 433              		.cfi_offset 14, -4
 434              		.loc 1 259 0
 435 0010 8C05     		lsls	r4, r1, #22
 436 0012 DC60     		str	r4, [r3, #12]
 437              		.loc 1 260 0
 438 0014 0AB1     		cbz	r2, .L59
 439              		.loc 1 261 0
 440 0016 C06B     		ldr	r0, [r0, #60]
 441 0018 9047     		blx	r2
 442              	.LVL22:
 443              	.L59:
 444              		.loc 1 264 0
 445 001a BDE81040 		pop	{r4, lr}
 446              		.cfi_restore 14
 447              		.cfi_restore 4
 448              		.cfi_def_cfa_offset 0
 449              		.loc 1 263 0
 450 001e FFF7FEBF 		b	_port_irq_epilogue
 451              	.LVL23:
 452              	.L65:
 453 0022 00BF     		.align	2
 454              	.L64:
 455 0024 00600240 		.word	1073897472
 456 0028 00000000 		.word	.LANCHOR0
ARM GAS  /tmp/ccH0TlFv.s 			page 9


 457              		.cfi_endproc
 458              	.LFE265:
 459              		.size	VectorFC, .-VectorFC
 460              		.section	.text.Vector120,"ax",%progbits
 461              		.align	2
 462              		.p2align 4,,15
 463              		.global	Vector120
 464              		.thumb
 465              		.thumb_func
 466              		.type	Vector120, %function
 467              	Vector120:
 468              	.LFB266:
 469              		.loc 1 271 0
 470              		.cfi_startproc
 471              		@ args = 0, pretend = 0, frame = 0
 472              		@ frame_needed = 0, uses_anonymous_args = 0
 473 0000 08B5     		push	{r3, lr}
 474              		.cfi_def_cfa_offset 8
 475              		.cfi_offset 3, -8
 476              		.cfi_offset 14, -4
 477              		.loc 1 276 0
 478 0002 074B     		ldr	r3, .L72
 479              		.loc 1 278 0
 480 0004 0748     		ldr	r0, .L72+4
 481              		.loc 1 276 0
 482 0006 1968     		ldr	r1, [r3]
 483              		.loc 1 278 0
 484 0008 026C     		ldr	r2, [r0, #64]
 485              		.loc 1 276 0
 486 000a 01F03D01 		and	r1, r1, #61
 487              	.LVL24:
 488              		.loc 1 277 0
 489 000e 9960     		str	r1, [r3, #8]
 490              		.loc 1 278 0
 491 0010 0AB1     		cbz	r2, .L67
 492              		.loc 1 279 0
 493 0012 406C     		ldr	r0, [r0, #68]
 494 0014 9047     		blx	r2
 495              	.LVL25:
 496              	.L67:
 497              		.loc 1 282 0
 498 0016 BDE80840 		pop	{r3, lr}
 499              		.cfi_restore 14
 500              		.cfi_restore 3
 501              		.cfi_def_cfa_offset 0
 502              		.loc 1 281 0
 503 001a FFF7FEBF 		b	_port_irq_epilogue
 504              	.LVL26:
 505              	.L73:
 506 001e 00BF     		.align	2
 507              	.L72:
 508 0020 00640240 		.word	1073898496
 509 0024 00000000 		.word	.LANCHOR0
 510              		.cfi_endproc
 511              	.LFE266:
 512              		.size	Vector120, .-Vector120
 513              		.section	.text.Vector124,"ax",%progbits
ARM GAS  /tmp/ccH0TlFv.s 			page 10


 514              		.align	2
 515              		.p2align 4,,15
 516              		.global	Vector124
 517              		.thumb
 518              		.thumb_func
 519              		.type	Vector124, %function
 520              	Vector124:
 521              	.LFB267:
 522              		.loc 1 289 0
 523              		.cfi_startproc
 524              		@ args = 0, pretend = 0, frame = 0
 525              		@ frame_needed = 0, uses_anonymous_args = 0
 526              		.loc 1 294 0
 527 0000 084B     		ldr	r3, .L80
 528              		.loc 1 296 0
 529 0002 0948     		ldr	r0, .L80+4
 530              		.loc 1 294 0
 531 0004 1968     		ldr	r1, [r3]
 532              		.loc 1 296 0
 533 0006 826C     		ldr	r2, [r0, #72]
 534              		.loc 1 294 0
 535 0008 8909     		lsrs	r1, r1, #6
 536 000a 01F03D01 		and	r1, r1, #61
 537              	.LVL27:
 538              		.loc 1 289 0
 539 000e 10B5     		push	{r4, lr}
 540              		.cfi_def_cfa_offset 8
 541              		.cfi_offset 4, -8
 542              		.cfi_offset 14, -4
 543              		.loc 1 295 0
 544 0010 8C01     		lsls	r4, r1, #6
 545 0012 9C60     		str	r4, [r3, #8]
 546              		.loc 1 296 0
 547 0014 0AB1     		cbz	r2, .L75
 548              		.loc 1 297 0
 549 0016 C06C     		ldr	r0, [r0, #76]
 550 0018 9047     		blx	r2
 551              	.LVL28:
 552              	.L75:
 553              		.loc 1 300 0
 554 001a BDE81040 		pop	{r4, lr}
 555              		.cfi_restore 14
 556              		.cfi_restore 4
 557              		.cfi_def_cfa_offset 0
 558              		.loc 1 299 0
 559 001e FFF7FEBF 		b	_port_irq_epilogue
 560              	.LVL29:
 561              	.L81:
 562 0022 00BF     		.align	2
 563              	.L80:
 564 0024 00640240 		.word	1073898496
 565 0028 00000000 		.word	.LANCHOR0
 566              		.cfi_endproc
 567              	.LFE267:
 568              		.size	Vector124, .-Vector124
 569              		.section	.text.Vector128,"ax",%progbits
 570              		.align	2
ARM GAS  /tmp/ccH0TlFv.s 			page 11


 571              		.p2align 4,,15
 572              		.global	Vector128
 573              		.thumb
 574              		.thumb_func
 575              		.type	Vector128, %function
 576              	Vector128:
 577              	.LFB268:
 578              		.loc 1 307 0
 579              		.cfi_startproc
 580              		@ args = 0, pretend = 0, frame = 0
 581              		@ frame_needed = 0, uses_anonymous_args = 0
 582              		.loc 1 312 0
 583 0000 084B     		ldr	r3, .L88
 584              		.loc 1 314 0
 585 0002 0948     		ldr	r0, .L88+4
 586              		.loc 1 312 0
 587 0004 1968     		ldr	r1, [r3]
 588              		.loc 1 314 0
 589 0006 026D     		ldr	r2, [r0, #80]
 590              		.loc 1 312 0
 591 0008 090C     		lsrs	r1, r1, #16
 592 000a 01F03D01 		and	r1, r1, #61
 593              	.LVL30:
 594              		.loc 1 307 0
 595 000e 10B5     		push	{r4, lr}
 596              		.cfi_def_cfa_offset 8
 597              		.cfi_offset 4, -8
 598              		.cfi_offset 14, -4
 599              		.loc 1 313 0
 600 0010 0C04     		lsls	r4, r1, #16
 601 0012 9C60     		str	r4, [r3, #8]
 602              		.loc 1 314 0
 603 0014 0AB1     		cbz	r2, .L83
 604              		.loc 1 315 0
 605 0016 406D     		ldr	r0, [r0, #84]
 606 0018 9047     		blx	r2
 607              	.LVL31:
 608              	.L83:
 609              		.loc 1 318 0
 610 001a BDE81040 		pop	{r4, lr}
 611              		.cfi_restore 14
 612              		.cfi_restore 4
 613              		.cfi_def_cfa_offset 0
 614              		.loc 1 317 0
 615 001e FFF7FEBF 		b	_port_irq_epilogue
 616              	.LVL32:
 617              	.L89:
 618 0022 00BF     		.align	2
 619              	.L88:
 620 0024 00640240 		.word	1073898496
 621 0028 00000000 		.word	.LANCHOR0
 622              		.cfi_endproc
 623              	.LFE268:
 624              		.size	Vector128, .-Vector128
 625              		.section	.text.Vector12C,"ax",%progbits
 626              		.align	2
 627              		.p2align 4,,15
ARM GAS  /tmp/ccH0TlFv.s 			page 12


 628              		.global	Vector12C
 629              		.thumb
 630              		.thumb_func
 631              		.type	Vector12C, %function
 632              	Vector12C:
 633              	.LFB269:
 634              		.loc 1 325 0
 635              		.cfi_startproc
 636              		@ args = 0, pretend = 0, frame = 0
 637              		@ frame_needed = 0, uses_anonymous_args = 0
 638              		.loc 1 330 0
 639 0000 084B     		ldr	r3, .L96
 640              		.loc 1 332 0
 641 0002 0948     		ldr	r0, .L96+4
 642              		.loc 1 330 0
 643 0004 1968     		ldr	r1, [r3]
 644              		.loc 1 332 0
 645 0006 826D     		ldr	r2, [r0, #88]
 646              		.loc 1 330 0
 647 0008 890D     		lsrs	r1, r1, #22
 648 000a 01F03D01 		and	r1, r1, #61
 649              	.LVL33:
 650              		.loc 1 325 0
 651 000e 10B5     		push	{r4, lr}
 652              		.cfi_def_cfa_offset 8
 653              		.cfi_offset 4, -8
 654              		.cfi_offset 14, -4
 655              		.loc 1 331 0
 656 0010 8C05     		lsls	r4, r1, #22
 657 0012 9C60     		str	r4, [r3, #8]
 658              		.loc 1 332 0
 659 0014 0AB1     		cbz	r2, .L91
 660              		.loc 1 333 0
 661 0016 C06D     		ldr	r0, [r0, #92]
 662 0018 9047     		blx	r2
 663              	.LVL34:
 664              	.L91:
 665              		.loc 1 336 0
 666 001a BDE81040 		pop	{r4, lr}
 667              		.cfi_restore 14
 668              		.cfi_restore 4
 669              		.cfi_def_cfa_offset 0
 670              		.loc 1 335 0
 671 001e FFF7FEBF 		b	_port_irq_epilogue
 672              	.LVL35:
 673              	.L97:
 674 0022 00BF     		.align	2
 675              	.L96:
 676 0024 00640240 		.word	1073898496
 677 0028 00000000 		.word	.LANCHOR0
 678              		.cfi_endproc
 679              	.LFE269:
 680              		.size	Vector12C, .-Vector12C
 681              		.section	.text.Vector130,"ax",%progbits
 682              		.align	2
 683              		.p2align 4,,15
 684              		.global	Vector130
ARM GAS  /tmp/ccH0TlFv.s 			page 13


 685              		.thumb
 686              		.thumb_func
 687              		.type	Vector130, %function
 688              	Vector130:
 689              	.LFB270:
 690              		.loc 1 343 0
 691              		.cfi_startproc
 692              		@ args = 0, pretend = 0, frame = 0
 693              		@ frame_needed = 0, uses_anonymous_args = 0
 694 0000 08B5     		push	{r3, lr}
 695              		.cfi_def_cfa_offset 8
 696              		.cfi_offset 3, -8
 697              		.cfi_offset 14, -4
 698              		.loc 1 348 0
 699 0002 074B     		ldr	r3, .L104
 700              		.loc 1 350 0
 701 0004 0748     		ldr	r0, .L104+4
 702              		.loc 1 348 0
 703 0006 5968     		ldr	r1, [r3, #4]
 704              		.loc 1 350 0
 705 0008 026E     		ldr	r2, [r0, #96]
 706              		.loc 1 348 0
 707 000a 01F03D01 		and	r1, r1, #61
 708              	.LVL36:
 709              		.loc 1 349 0
 710 000e D960     		str	r1, [r3, #12]
 711              		.loc 1 350 0
 712 0010 0AB1     		cbz	r2, .L99
 713              		.loc 1 351 0
 714 0012 406E     		ldr	r0, [r0, #100]
 715 0014 9047     		blx	r2
 716              	.LVL37:
 717              	.L99:
 718              		.loc 1 354 0
 719 0016 BDE80840 		pop	{r3, lr}
 720              		.cfi_restore 14
 721              		.cfi_restore 3
 722              		.cfi_def_cfa_offset 0
 723              		.loc 1 353 0
 724 001a FFF7FEBF 		b	_port_irq_epilogue
 725              	.LVL38:
 726              	.L105:
 727 001e 00BF     		.align	2
 728              	.L104:
 729 0020 00640240 		.word	1073898496
 730 0024 00000000 		.word	.LANCHOR0
 731              		.cfi_endproc
 732              	.LFE270:
 733              		.size	Vector130, .-Vector130
 734              		.section	.text.Vector150,"ax",%progbits
 735              		.align	2
 736              		.p2align 4,,15
 737              		.global	Vector150
 738              		.thumb
 739              		.thumb_func
 740              		.type	Vector150, %function
 741              	Vector150:
ARM GAS  /tmp/ccH0TlFv.s 			page 14


 742              	.LFB271:
 743              		.loc 1 361 0
 744              		.cfi_startproc
 745              		@ args = 0, pretend = 0, frame = 0
 746              		@ frame_needed = 0, uses_anonymous_args = 0
 747              		.loc 1 366 0
 748 0000 084B     		ldr	r3, .L112
 749              		.loc 1 368 0
 750 0002 0948     		ldr	r0, .L112+4
 751              		.loc 1 366 0
 752 0004 5968     		ldr	r1, [r3, #4]
 753              		.loc 1 368 0
 754 0006 826E     		ldr	r2, [r0, #104]
 755              		.loc 1 366 0
 756 0008 8909     		lsrs	r1, r1, #6
 757 000a 01F03D01 		and	r1, r1, #61
 758              	.LVL39:
 759              		.loc 1 361 0
 760 000e 10B5     		push	{r4, lr}
 761              		.cfi_def_cfa_offset 8
 762              		.cfi_offset 4, -8
 763              		.cfi_offset 14, -4
 764              		.loc 1 367 0
 765 0010 8C01     		lsls	r4, r1, #6
 766 0012 DC60     		str	r4, [r3, #12]
 767              		.loc 1 368 0
 768 0014 0AB1     		cbz	r2, .L107
 769              		.loc 1 369 0
 770 0016 C06E     		ldr	r0, [r0, #108]
 771 0018 9047     		blx	r2
 772              	.LVL40:
 773              	.L107:
 774              		.loc 1 372 0
 775 001a BDE81040 		pop	{r4, lr}
 776              		.cfi_restore 14
 777              		.cfi_restore 4
 778              		.cfi_def_cfa_offset 0
 779              		.loc 1 371 0
 780 001e FFF7FEBF 		b	_port_irq_epilogue
 781              	.LVL41:
 782              	.L113:
 783 0022 00BF     		.align	2
 784              	.L112:
 785 0024 00640240 		.word	1073898496
 786 0028 00000000 		.word	.LANCHOR0
 787              		.cfi_endproc
 788              	.LFE271:
 789              		.size	Vector150, .-Vector150
 790              		.section	.text.Vector154,"ax",%progbits
 791              		.align	2
 792              		.p2align 4,,15
 793              		.global	Vector154
 794              		.thumb
 795              		.thumb_func
 796              		.type	Vector154, %function
 797              	Vector154:
 798              	.LFB272:
ARM GAS  /tmp/ccH0TlFv.s 			page 15


 799              		.loc 1 379 0
 800              		.cfi_startproc
 801              		@ args = 0, pretend = 0, frame = 0
 802              		@ frame_needed = 0, uses_anonymous_args = 0
 803              		.loc 1 384 0
 804 0000 084B     		ldr	r3, .L120
 805              		.loc 1 386 0
 806 0002 0948     		ldr	r0, .L120+4
 807              		.loc 1 384 0
 808 0004 5968     		ldr	r1, [r3, #4]
 809              		.loc 1 386 0
 810 0006 026F     		ldr	r2, [r0, #112]
 811              		.loc 1 384 0
 812 0008 090C     		lsrs	r1, r1, #16
 813 000a 01F03D01 		and	r1, r1, #61
 814              	.LVL42:
 815              		.loc 1 379 0
 816 000e 10B5     		push	{r4, lr}
 817              		.cfi_def_cfa_offset 8
 818              		.cfi_offset 4, -8
 819              		.cfi_offset 14, -4
 820              		.loc 1 385 0
 821 0010 0C04     		lsls	r4, r1, #16
 822 0012 DC60     		str	r4, [r3, #12]
 823              		.loc 1 386 0
 824 0014 0AB1     		cbz	r2, .L115
 825              		.loc 1 387 0
 826 0016 406F     		ldr	r0, [r0, #116]
 827 0018 9047     		blx	r2
 828              	.LVL43:
 829              	.L115:
 830              		.loc 1 390 0
 831 001a BDE81040 		pop	{r4, lr}
 832              		.cfi_restore 14
 833              		.cfi_restore 4
 834              		.cfi_def_cfa_offset 0
 835              		.loc 1 389 0
 836 001e FFF7FEBF 		b	_port_irq_epilogue
 837              	.LVL44:
 838              	.L121:
 839 0022 00BF     		.align	2
 840              	.L120:
 841 0024 00640240 		.word	1073898496
 842 0028 00000000 		.word	.LANCHOR0
 843              		.cfi_endproc
 844              	.LFE272:
 845              		.size	Vector154, .-Vector154
 846              		.section	.text.Vector158,"ax",%progbits
 847              		.align	2
 848              		.p2align 4,,15
 849              		.global	Vector158
 850              		.thumb
 851              		.thumb_func
 852              		.type	Vector158, %function
 853              	Vector158:
 854              	.LFB273:
 855              		.loc 1 397 0
ARM GAS  /tmp/ccH0TlFv.s 			page 16


 856              		.cfi_startproc
 857              		@ args = 0, pretend = 0, frame = 0
 858              		@ frame_needed = 0, uses_anonymous_args = 0
 859              		.loc 1 402 0
 860 0000 084B     		ldr	r3, .L128
 861              		.loc 1 404 0
 862 0002 0948     		ldr	r0, .L128+4
 863              		.loc 1 402 0
 864 0004 5968     		ldr	r1, [r3, #4]
 865              		.loc 1 404 0
 866 0006 826F     		ldr	r2, [r0, #120]
 867              		.loc 1 402 0
 868 0008 890D     		lsrs	r1, r1, #22
 869 000a 01F03D01 		and	r1, r1, #61
 870              	.LVL45:
 871              		.loc 1 397 0
 872 000e 10B5     		push	{r4, lr}
 873              		.cfi_def_cfa_offset 8
 874              		.cfi_offset 4, -8
 875              		.cfi_offset 14, -4
 876              		.loc 1 403 0
 877 0010 8C05     		lsls	r4, r1, #22
 878 0012 DC60     		str	r4, [r3, #12]
 879              		.loc 1 404 0
 880 0014 0AB1     		cbz	r2, .L123
 881              		.loc 1 405 0
 882 0016 C06F     		ldr	r0, [r0, #124]
 883 0018 9047     		blx	r2
 884              	.LVL46:
 885              	.L123:
 886              		.loc 1 408 0
 887 001a BDE81040 		pop	{r4, lr}
 888              		.cfi_restore 14
 889              		.cfi_restore 4
 890              		.cfi_def_cfa_offset 0
 891              		.loc 1 407 0
 892 001e FFF7FEBF 		b	_port_irq_epilogue
 893              	.LVL47:
 894              	.L129:
 895 0022 00BF     		.align	2
 896              	.L128:
 897 0024 00640240 		.word	1073898496
 898 0028 00000000 		.word	.LANCHOR0
 899              		.cfi_endproc
 900              	.LFE273:
 901              		.size	Vector158, .-Vector158
 902              		.section	.text.dmaInit,"ax",%progbits
 903              		.align	2
 904              		.p2align 4,,15
 905              		.global	dmaInit
 906              		.thumb
 907              		.thumb_func
 908              		.type	dmaInit, %function
 909              	dmaInit:
 910              	.LFB274:
 911              		.loc 1 419 0
 912              		.cfi_startproc
ARM GAS  /tmp/ccH0TlFv.s 			page 17


 913              		@ args = 0, pretend = 0, frame = 0
 914              		@ frame_needed = 0, uses_anonymous_args = 0
 915              		@ link register save eliminated.
 916              		.loc 1 422 0
 917 0000 0E49     		ldr	r1, .L136
 918 0002 0F4A     		ldr	r2, .L136+4
 919 0004 0F48     		ldr	r0, .L136+8
 920 0006 0023     		movs	r3, #0
 921              		.loc 1 419 0
 922 0008 10B4     		push	{r4}
 923              		.cfi_def_cfa_offset 4
 924              		.cfi_offset 4, -4
 925              		.loc 1 422 0
 926 000a 0B60     		str	r3, [r1]
 927              	.LVL48:
 928 000c 0E4C     		ldr	r4, .L136+12
 929              		.loc 1 424 0
 930 000e 1946     		mov	r1, r3
 931 0010 01E0     		b	.L132
 932              	.LVL49:
 933              	.L135:
 934 0012 52F80C0C 		ldr	r0, [r2, #-12]
 935              	.LVL50:
 936              	.L132:
 937              		.loc 1 424 0 is_stmt 0 discriminator 3
 938 0016 0160     		str	r1, [r0]
 939              		.loc 1 425 0 is_stmt 1 discriminator 3
 940 0018 44F83310 		str	r1, [r4, r3, lsl #3]
 941              		.loc 1 423 0 discriminator 3
 942 001c 0133     		adds	r3, r3, #1
 943              	.LVL51:
 944 001e 102B     		cmp	r3, #16
 945 0020 02F10C02 		add	r2, r2, #12
 946 0024 F5D1     		bne	.L135
 947              		.loc 1 427 0
 948 0026 0949     		ldr	r1, .L136+16
 949              		.loc 1 429 0
 950 0028 094A     		ldr	r2, .L136+20
 951              		.loc 1 431 0
 952 002a 10BC     		pop	{r4}
 953              		.cfi_restore 4
 954              		.cfi_def_cfa_offset 0
 955              		.loc 1 427 0
 956 002c 4FF0FF33 		mov	r3, #-1
 957              	.LVL52:
 958 0030 8B60     		str	r3, [r1, #8]
 959              		.loc 1 428 0
 960 0032 CB60     		str	r3, [r1, #12]
 961              		.loc 1 429 0
 962 0034 9360     		str	r3, [r2, #8]
 963              		.loc 1 430 0
 964 0036 D360     		str	r3, [r2, #12]
 965              		.loc 1 431 0
 966 0038 7047     		bx	lr
 967              	.L137:
 968 003a 00BF     		.align	2
 969              	.L136:
ARM GAS  /tmp/ccH0TlFv.s 			page 18


 970 003c 00000000 		.word	.LANCHOR1
 971 0040 0C000000 		.word	.LANCHOR2+12
 972 0044 10600240 		.word	1073897488
 973 0048 00000000 		.word	.LANCHOR0
 974 004c 00600240 		.word	1073897472
 975 0050 00640240 		.word	1073898496
 976              		.cfi_endproc
 977              	.LFE274:
 978              		.size	dmaInit, .-dmaInit
 979              		.section	.text.dmaStreamAllocate,"ax",%progbits
 980              		.align	2
 981              		.p2align 4,,15
 982              		.global	dmaStreamAllocate
 983              		.thumb
 984              		.thumb_func
 985              		.type	dmaStreamAllocate, %function
 986              	dmaStreamAllocate:
 987              	.LFB275:
 988              		.loc 1 460 0
 989              		.cfi_startproc
 990              		@ args = 0, pretend = 0, frame = 0
 991              		@ frame_needed = 0, uses_anonymous_args = 0
 992              	.LVL53:
 993 0000 F8B5     		push	{r3, r4, r5, r6, r7, lr}
 994              		.cfi_def_cfa_offset 24
 995              		.cfi_offset 3, -24
 996              		.cfi_offset 4, -20
 997              		.cfi_offset 5, -16
 998              		.cfi_offset 6, -12
 999              		.cfi_offset 7, -8
 1000              		.cfi_offset 14, -4
 1001              		.loc 1 465 0
 1002 0002 1F4F     		ldr	r7, .L154
 1003 0004 467A     		ldrb	r6, [r0, #9]	@ zero_extendqisi2
 1004 0006 3D68     		ldr	r5, [r7]
 1005 0008 0124     		movs	r4, #1
 1006 000a 04FA06FE 		lsl	lr, r4, r6
 1007 000e 1EEA050F 		tst	lr, r5
 1008 0012 31D1     		bne	.L143
 1009              		.loc 1 469 0
 1010 0014 1B4C     		ldr	r4, .L154+4
 1011              		.loc 1 471 0
 1012 0016 4EEA0505 		orr	r5, lr, r5
 1013              		.loc 1 470 0
 1014 001a 04EBC60E 		add	lr, r4, r6, lsl #3
 1015              		.loc 1 474 0
 1016 001e 15F0FF0F 		tst	r5, #255
 1017              		.loc 1 471 0
 1018 0022 3D60     		str	r5, [r7]
 1019              		.loc 1 469 0
 1020 0024 44F83620 		str	r2, [r4, r6, lsl #3]
 1021              		.loc 1 470 0
 1022 0028 CEF80430 		str	r3, [lr, #4]
 1023              		.loc 1 474 0
 1024 002c 04D0     		beq	.L140
 1025              		.loc 1 475 0
 1026 002e 164C     		ldr	r4, .L154+8
ARM GAS  /tmp/ccH0TlFv.s 			page 19


 1027 0030 236B     		ldr	r3, [r4, #48]
 1028              	.LVL54:
 1029 0032 43F40013 		orr	r3, r3, #2097152
 1030 0036 2363     		str	r3, [r4, #48]
 1031              	.L140:
 1032              		.loc 1 476 0
 1033 0038 15F47F4F 		tst	r5, #65280
 1034 003c 16D1     		bne	.L153
 1035              	.L141:
 1036              		.loc 1 480 0
 1037 003e 0568     		ldr	r5, [r0]
 1038 0040 2B68     		ldr	r3, [r5]
 1039 0042 23F01F03 		bic	r3, r3, #31
 1040 0046 2B60     		str	r3, [r5]
 1041              	.L142:
 1042              		.loc 1 480 0 is_stmt 0 discriminator 2
 1043 0048 2B68     		ldr	r3, [r5]
 1044 004a 13F00104 		ands	r4, r3, #1
 1045 004e FBD1     		bne	.L142
 1046              		.loc 1 480 0 discriminator 3
 1047 0050 077A     		ldrb	r7, [r0, #8]	@ zero_extendqisi2
 1048 0052 4668     		ldr	r6, [r0, #4]
 1049 0054 3D23     		movs	r3, #61
 1050 0056 BB40     		lsls	r3, r3, r7
 1051              		.loc 1 482 0 is_stmt 1 discriminator 3
 1052 0058 2127     		movs	r7, #33
 1053              		.loc 1 480 0 discriminator 3
 1054 005a 3360     		str	r3, [r6]
 1055              		.loc 1 481 0 discriminator 3
 1056 005c 2C60     		str	r4, [r5]
 1057              		.loc 1 482 0 discriminator 3
 1058 005e 6F61     		str	r7, [r5, #20]
 1059              		.loc 1 485 0 discriminator 3
 1060 0060 62B1     		cbz	r2, .L144
 1061              		.loc 1 486 0
 1062 0062 807A     		ldrb	r0, [r0, #10]	@ zero_extendqisi2
 1063              	.LVL55:
 1064 0064 FFF7FEFF 		bl	nvicEnableVector
 1065              	.LVL56:
 1066              		.loc 1 488 0
 1067 0068 2046     		mov	r0, r4
 1068 006a F8BD     		pop	{r3, r4, r5, r6, r7, pc}
 1069              	.LVL57:
 1070              	.L153:
 1071              		.loc 1 477 0
 1072 006c 064C     		ldr	r4, .L154+8
 1073 006e 236B     		ldr	r3, [r4, #48]
 1074 0070 43F48003 		orr	r3, r3, #4194304
 1075 0074 2363     		str	r3, [r4, #48]
 1076 0076 E2E7     		b	.L141
 1077              	.LVL58:
 1078              	.L143:
 1079              		.loc 1 466 0
 1080 0078 2046     		mov	r0, r4
 1081              	.LVL59:
 1082 007a F8BD     		pop	{r3, r4, r5, r6, r7, pc}
 1083              	.LVL60:
ARM GAS  /tmp/ccH0TlFv.s 			page 20


 1084              	.L144:
 1085              		.loc 1 488 0
 1086 007c 1046     		mov	r0, r2
 1087              	.LVL61:
 1088              		.loc 1 489 0
 1089 007e F8BD     		pop	{r3, r4, r5, r6, r7, pc}
 1090              	.L155:
 1091              		.align	2
 1092              	.L154:
 1093 0080 00000000 		.word	.LANCHOR1
 1094 0084 00000000 		.word	.LANCHOR0
 1095 0088 00380240 		.word	1073887232
 1096              		.cfi_endproc
 1097              	.LFE275:
 1098              		.size	dmaStreamAllocate, .-dmaStreamAllocate
 1099              		.section	.text.dmaStreamRelease,"ax",%progbits
 1100              		.align	2
 1101              		.p2align 4,,15
 1102              		.global	dmaStreamRelease
 1103              		.thumb
 1104              		.thumb_func
 1105              		.type	dmaStreamRelease, %function
 1106              	dmaStreamRelease:
 1107              	.LFB276:
 1108              		.loc 1 504 0
 1109              		.cfi_startproc
 1110              		@ args = 0, pretend = 0, frame = 0
 1111              		@ frame_needed = 0, uses_anonymous_args = 0
 1112              	.LVL62:
 1113 0000 10B5     		push	{r4, lr}
 1114              		.cfi_def_cfa_offset 8
 1115              		.cfi_offset 4, -8
 1116              		.cfi_offset 14, -4
 1117              		.loc 1 504 0
 1118 0002 0446     		mov	r4, r0
 1119              		.loc 1 513 0
 1120 0004 807A     		ldrb	r0, [r0, #10]	@ zero_extendqisi2
 1121              	.LVL63:
 1122 0006 FFF7FEFF 		bl	nvicDisableVector
 1123              	.LVL64:
 1124              		.loc 1 516 0
 1125 000a 0C49     		ldr	r1, .L160
 1126 000c 607A     		ldrb	r0, [r4, #9]	@ zero_extendqisi2
 1127 000e 0A68     		ldr	r2, [r1]
 1128 0010 0123     		movs	r3, #1
 1129 0012 8340     		lsls	r3, r3, r0
 1130 0014 22EA0303 		bic	r3, r2, r3
 1131              		.loc 1 519 0
 1132 0018 13F0FF0F 		tst	r3, #255
 1133              		.loc 1 516 0
 1134 001c 0B60     		str	r3, [r1]
 1135              		.loc 1 519 0
 1136 001e 04D1     		bne	.L157
 1137              		.loc 1 520 0
 1138 0020 0749     		ldr	r1, .L160+4
 1139 0022 0A6B     		ldr	r2, [r1, #48]
 1140 0024 22F40012 		bic	r2, r2, #2097152
ARM GAS  /tmp/ccH0TlFv.s 			page 21


 1141 0028 0A63     		str	r2, [r1, #48]
 1142              	.L157:
 1143              		.loc 1 521 0
 1144 002a 13F47F4F 		tst	r3, #65280
 1145 002e 04D1     		bne	.L156
 1146              		.loc 1 522 0
 1147 0030 034A     		ldr	r2, .L160+4
 1148 0032 136B     		ldr	r3, [r2, #48]
 1149 0034 23F48003 		bic	r3, r3, #4194304
 1150 0038 1363     		str	r3, [r2, #48]
 1151              	.L156:
 1152 003a 10BD     		pop	{r4, pc}
 1153              	.LVL65:
 1154              	.L161:
 1155              		.align	2
 1156              	.L160:
 1157 003c 00000000 		.word	.LANCHOR1
 1158 0040 00380240 		.word	1073887232
 1159              		.cfi_endproc
 1160              	.LFE276:
 1161              		.size	dmaStreamRelease, .-dmaStreamRelease
 1162              		.global	_stm32_dma_streams
 1163              		.section	.bss.dma_isr_redir,"aw",%nobits
 1164              		.align	2
 1165              		.set	.LANCHOR0,. + 0
 1166              		.type	dma_isr_redir, %object
 1167              		.size	dma_isr_redir, 128
 1168              	dma_isr_redir:
 1169 0000 00000000 		.space	128
 1169      00000000 
 1169      00000000 
 1169      00000000 
 1169      00000000 
 1170              		.section	.rodata._stm32_dma_streams,"a",%progbits
 1171              		.align	2
 1172              		.set	.LANCHOR2,. + 0
 1173              		.type	_stm32_dma_streams, %object
 1174              		.size	_stm32_dma_streams, 192
 1175              	_stm32_dma_streams:
 1176 0000 10600240 		.word	1073897488
 1177 0004 08600240 		.word	1073897480
 1178 0008 00       		.byte	0
 1179 0009 00       		.byte	0
 1180 000a 0B       		.byte	11
 1181 000b 00       		.space	1
 1182 000c 28600240 		.word	1073897512
 1183 0010 08600240 		.word	1073897480
 1184 0014 06       		.byte	6
 1185 0015 01       		.byte	1
 1186 0016 0C       		.byte	12
 1187 0017 00       		.space	1
 1188 0018 40600240 		.word	1073897536
 1189 001c 08600240 		.word	1073897480
 1190 0020 10       		.byte	16
 1191 0021 02       		.byte	2
 1192 0022 0D       		.byte	13
 1193 0023 00       		.space	1
ARM GAS  /tmp/ccH0TlFv.s 			page 22


 1194 0024 58600240 		.word	1073897560
 1195 0028 08600240 		.word	1073897480
 1196 002c 16       		.byte	22
 1197 002d 03       		.byte	3
 1198 002e 0E       		.byte	14
 1199 002f 00       		.space	1
 1200 0030 70600240 		.word	1073897584
 1201 0034 0C600240 		.word	1073897484
 1202 0038 00       		.byte	0
 1203 0039 04       		.byte	4
 1204 003a 0F       		.byte	15
 1205 003b 00       		.space	1
 1206 003c 88600240 		.word	1073897608
 1207 0040 0C600240 		.word	1073897484
 1208 0044 06       		.byte	6
 1209 0045 05       		.byte	5
 1210 0046 10       		.byte	16
 1211 0047 00       		.space	1
 1212 0048 A0600240 		.word	1073897632
 1213 004c 0C600240 		.word	1073897484
 1214 0050 10       		.byte	16
 1215 0051 06       		.byte	6
 1216 0052 11       		.byte	17
 1217 0053 00       		.space	1
 1218 0054 B8600240 		.word	1073897656
 1219 0058 0C600240 		.word	1073897484
 1220 005c 16       		.byte	22
 1221 005d 07       		.byte	7
 1222 005e 2F       		.byte	47
 1223 005f 00       		.space	1
 1224 0060 10640240 		.word	1073898512
 1225 0064 08640240 		.word	1073898504
 1226 0068 00       		.byte	0
 1227 0069 08       		.byte	8
 1228 006a 38       		.byte	56
 1229 006b 00       		.space	1
 1230 006c 28640240 		.word	1073898536
 1231 0070 08640240 		.word	1073898504
 1232 0074 06       		.byte	6
 1233 0075 09       		.byte	9
 1234 0076 39       		.byte	57
 1235 0077 00       		.space	1
 1236 0078 40640240 		.word	1073898560
 1237 007c 08640240 		.word	1073898504
 1238 0080 10       		.byte	16
 1239 0081 0A       		.byte	10
 1240 0082 3A       		.byte	58
 1241 0083 00       		.space	1
 1242 0084 58640240 		.word	1073898584
 1243 0088 08640240 		.word	1073898504
 1244 008c 16       		.byte	22
 1245 008d 0B       		.byte	11
 1246 008e 3B       		.byte	59
 1247 008f 00       		.space	1
 1248 0090 70640240 		.word	1073898608
 1249 0094 0C640240 		.word	1073898508
 1250 0098 00       		.byte	0
ARM GAS  /tmp/ccH0TlFv.s 			page 23


 1251 0099 0C       		.byte	12
 1252 009a 3C       		.byte	60
 1253 009b 00       		.space	1
 1254 009c 88640240 		.word	1073898632
 1255 00a0 0C640240 		.word	1073898508
 1256 00a4 06       		.byte	6
 1257 00a5 0D       		.byte	13
 1258 00a6 44       		.byte	68
 1259 00a7 00       		.space	1
 1260 00a8 A0640240 		.word	1073898656
 1261 00ac 0C640240 		.word	1073898508
 1262 00b0 10       		.byte	16
 1263 00b1 0E       		.byte	14
 1264 00b2 45       		.byte	69
 1265 00b3 00       		.space	1
 1266 00b4 B8640240 		.word	1073898680
 1267 00b8 0C640240 		.word	1073898508
 1268 00bc 16       		.byte	22
 1269 00bd 0F       		.byte	15
 1270 00be 46       		.byte	70
 1271 00bf 00       		.space	1
 1272              		.section	.bss.dma_streams_mask,"aw",%nobits
 1273              		.align	2
 1274              		.set	.LANCHOR1,. + 0
 1275              		.type	dma_streams_mask, %object
 1276              		.size	dma_streams_mask, 4
 1277              	dma_streams_mask:
 1278 0000 00000000 		.space	4
 1279              		.text
 1280              	.Letext0:
 1281              		.file 2 "/usr/lib/gcc/arm-none-eabi/5.3.1/include/stddef.h"
 1282              		.file 3 "/usr/arm-none-eabi/include/machine/_default_types.h"
 1283              		.file 4 "/usr/arm-none-eabi/include/sys/_stdint.h"
 1284              		.file 5 "/home/selim/working/ChibiOS/os/rt/ports/ARMCMx/compilers/GCC/chtypes.h"
 1285              		.file 6 "/home/selim/working/ChibiOS/os/rt/include/chsystypes.h"
 1286              		.file 7 "/home/selim/working/ChibiOS/os/rt/include/chschd.h"
 1287              		.file 8 "/home/selim/working/ChibiOS/os/ext/CMSIS/ST/stm32f407xx.h"
 1288              		.file 9 "/home/selim/working/ChibiOS/os/rt/ports/ARMCMx/chcore.h"
 1289              		.file 10 "/home/selim/working/ChibiOS/os/rt/ports/ARMCMx/chcore_v7m.h"
 1290              		.file 11 "/home/selim/working/ChibiOS/os/rt/include/chtm.h"
 1291              		.file 12 "/home/selim/working/ChibiOS/os/rt/include/chsem.h"
 1292              		.file 13 "/home/selim/working/ChibiOS/os/rt/include/chmtx.h"
 1293              		.file 14 "/home/selim/working/ChibiOS/os/hal/ports/STM32/STM32F4xx/stm32_dma.h"
 1294              		.file 15 "/home/selim/working/ChibiOS/os/ext/CMSIS/include/core_cm4.h"
 1295              		.file 16 "/home/selim/working/ChibiOS/os/hal/ports/common/ARMCMx/nvic.h"
 1296              		.section	.debug_info,"",%progbits
 1297              	.Ldebug_info0:
 1298 0000 D70F0000 		.4byte	0xfd7
 1299 0004 0400     		.2byte	0x4
 1300 0006 00000000 		.4byte	.Ldebug_abbrev0
 1301 000a 04       		.byte	0x4
 1302 000b 01       		.uleb128 0x1
 1303 000c DC0A0000 		.4byte	.LASF271
 1304 0010 0C       		.byte	0xc
 1305 0011 A6030000 		.4byte	.LASF272
 1306 0015 00000000 		.4byte	.Ldebug_ranges0+0
 1307 0019 00000000 		.4byte	0
ARM GAS  /tmp/ccH0TlFv.s 			page 24


 1308 001d 00000000 		.4byte	.Ldebug_line0
 1309 0021 02       		.uleb128 0x2
 1310 0022 04       		.byte	0x4
 1311 0023 05       		.byte	0x5
 1312 0024 696E7400 		.ascii	"int\000"
 1313 0028 03       		.uleb128 0x3
 1314 0029 31000000 		.4byte	.LASF4
 1315 002d 02       		.byte	0x2
 1316 002e D8       		.byte	0xd8
 1317 002f 33000000 		.4byte	0x33
 1318 0033 04       		.uleb128 0x4
 1319 0034 04       		.byte	0x4
 1320 0035 07       		.byte	0x7
 1321 0036 3B070000 		.4byte	.LASF0
 1322 003a 04       		.uleb128 0x4
 1323 003b 08       		.byte	0x8
 1324 003c 05       		.byte	0x5
 1325 003d 74060000 		.4byte	.LASF1
 1326 0041 04       		.uleb128 0x4
 1327 0042 08       		.byte	0x8
 1328 0043 04       		.byte	0x4
 1329 0044 3D080000 		.4byte	.LASF2
 1330 0048 04       		.uleb128 0x4
 1331 0049 01       		.byte	0x1
 1332 004a 06       		.byte	0x6
 1333 004b 3C020000 		.4byte	.LASF3
 1334 004f 03       		.uleb128 0x3
 1335 0050 59010000 		.4byte	.LASF5
 1336 0054 03       		.byte	0x3
 1337 0055 1D       		.byte	0x1d
 1338 0056 5A000000 		.4byte	0x5a
 1339 005a 04       		.uleb128 0x4
 1340 005b 01       		.byte	0x1
 1341 005c 08       		.byte	0x8
 1342 005d 9C020000 		.4byte	.LASF6
 1343 0061 04       		.uleb128 0x4
 1344 0062 02       		.byte	0x2
 1345 0063 05       		.byte	0x5
 1346 0064 850A0000 		.4byte	.LASF7
 1347 0068 04       		.uleb128 0x4
 1348 0069 02       		.byte	0x2
 1349 006a 07       		.byte	0x7
 1350 006b 760C0000 		.4byte	.LASF8
 1351 006f 03       		.uleb128 0x3
 1352 0070 E80C0000 		.4byte	.LASF9
 1353 0074 03       		.byte	0x3
 1354 0075 3F       		.byte	0x3f
 1355 0076 7A000000 		.4byte	0x7a
 1356 007a 04       		.uleb128 0x4
 1357 007b 04       		.byte	0x4
 1358 007c 05       		.byte	0x5
 1359 007d A4010000 		.4byte	.LASF10
 1360 0081 03       		.uleb128 0x3
 1361 0082 5F060000 		.4byte	.LASF11
 1362 0086 03       		.byte	0x3
 1363 0087 41       		.byte	0x41
 1364 0088 8C000000 		.4byte	0x8c
ARM GAS  /tmp/ccH0TlFv.s 			page 25


 1365 008c 04       		.uleb128 0x4
 1366 008d 04       		.byte	0x4
 1367 008e 07       		.byte	0x7
 1368 008f 14050000 		.4byte	.LASF12
 1369 0093 03       		.uleb128 0x3
 1370 0094 FF040000 		.4byte	.LASF13
 1371 0098 03       		.byte	0x3
 1372 0099 5B       		.byte	0x5b
 1373 009a 9E000000 		.4byte	0x9e
 1374 009e 04       		.uleb128 0x4
 1375 009f 08       		.byte	0x8
 1376 00a0 07       		.byte	0x7
 1377 00a1 F3080000 		.4byte	.LASF14
 1378 00a5 03       		.uleb128 0x3
 1379 00a6 4F020000 		.4byte	.LASF15
 1380 00aa 04       		.byte	0x4
 1381 00ab 14       		.byte	0x14
 1382 00ac 4F000000 		.4byte	0x4f
 1383 00b0 03       		.uleb128 0x3
 1384 00b1 8F000000 		.4byte	.LASF16
 1385 00b5 04       		.byte	0x4
 1386 00b6 1F       		.byte	0x1f
 1387 00b7 6F000000 		.4byte	0x6f
 1388 00bb 03       		.uleb128 0x3
 1389 00bc 350C0000 		.4byte	.LASF17
 1390 00c0 04       		.byte	0x4
 1391 00c1 20       		.byte	0x20
 1392 00c2 81000000 		.4byte	0x81
 1393 00c6 03       		.uleb128 0x3
 1394 00c7 8F0A0000 		.4byte	.LASF18
 1395 00cb 04       		.byte	0x4
 1396 00cc 26       		.byte	0x26
 1397 00cd 93000000 		.4byte	0x93
 1398 00d1 05       		.uleb128 0x5
 1399 00d2 B0000000 		.4byte	0xb0
 1400 00d6 05       		.uleb128 0x5
 1401 00d7 BB000000 		.4byte	0xbb
 1402 00db 03       		.uleb128 0x3
 1403 00dc 48070000 		.4byte	.LASF19
 1404 00e0 05       		.byte	0x5
 1405 00e1 46       		.byte	0x46
 1406 00e2 BB000000 		.4byte	0xbb
 1407 00e6 03       		.uleb128 0x3
 1408 00e7 D0090000 		.4byte	.LASF20
 1409 00eb 05       		.byte	0x5
 1410 00ec 49       		.byte	0x49
 1411 00ed A5000000 		.4byte	0xa5
 1412 00f1 03       		.uleb128 0x3
 1413 00f2 CD010000 		.4byte	.LASF21
 1414 00f6 05       		.byte	0x5
 1415 00f7 4A       		.byte	0x4a
 1416 00f8 A5000000 		.4byte	0xa5
 1417 00fc 03       		.uleb128 0x3
 1418 00fd EF0B0000 		.4byte	.LASF22
 1419 0101 05       		.byte	0x5
 1420 0102 4B       		.byte	0x4b
 1421 0103 A5000000 		.4byte	0xa5
ARM GAS  /tmp/ccH0TlFv.s 			page 26


 1422 0107 03       		.uleb128 0x3
 1423 0108 76000000 		.4byte	.LASF23
 1424 010c 05       		.byte	0x5
 1425 010d 4D       		.byte	0x4d
 1426 010e BB000000 		.4byte	0xbb
 1427 0112 03       		.uleb128 0x3
 1428 0113 12090000 		.4byte	.LASF24
 1429 0117 05       		.byte	0x5
 1430 0118 4E       		.byte	0x4e
 1431 0119 B0000000 		.4byte	0xb0
 1432 011d 03       		.uleb128 0x3
 1433 011e 5C020000 		.4byte	.LASF25
 1434 0122 05       		.byte	0x5
 1435 0123 50       		.byte	0x50
 1436 0124 BB000000 		.4byte	0xbb
 1437 0128 03       		.uleb128 0x3
 1438 0129 30040000 		.4byte	.LASF26
 1439 012d 05       		.byte	0x5
 1440 012e 52       		.byte	0x52
 1441 012f B0000000 		.4byte	0xb0
 1442 0133 03       		.uleb128 0x3
 1443 0134 5B000000 		.4byte	.LASF27
 1444 0138 06       		.byte	0x6
 1445 0139 33       		.byte	0x33
 1446 013a BB000000 		.4byte	0xbb
 1447 013e 03       		.uleb128 0x3
 1448 013f 34080000 		.4byte	.LASF28
 1449 0143 06       		.byte	0x6
 1450 0144 3F       		.byte	0x3f
 1451 0145 49010000 		.4byte	0x149
 1452 0149 06       		.uleb128 0x6
 1453 014a 66050000 		.4byte	.LASF48
 1454 014e 44       		.byte	0x44
 1455 014f 07       		.byte	0x7
 1456 0150 C2       		.byte	0xc2
 1457 0151 36020000 		.4byte	0x236
 1458 0155 07       		.uleb128 0x7
 1459 0156 AD010000 		.4byte	.LASF29
 1460 015a 07       		.byte	0x7
 1461 015b C3       		.byte	0xc3
 1462 015c 41020000 		.4byte	0x241
 1463 0160 00       		.byte	0
 1464 0161 07       		.uleb128 0x7
 1465 0162 B4010000 		.4byte	.LASF30
 1466 0166 07       		.byte	0x7
 1467 0167 C5       		.byte	0xc5
 1468 0168 41020000 		.4byte	0x241
 1469 016c 04       		.byte	0x4
 1470 016d 07       		.uleb128 0x7
 1471 016e 71030000 		.4byte	.LASF31
 1472 0172 07       		.byte	0x7
 1473 0173 C7       		.byte	0xc7
 1474 0174 07010000 		.4byte	0x107
 1475 0178 08       		.byte	0x8
 1476 0179 07       		.uleb128 0x7
 1477 017a 70000000 		.4byte	.LASF32
 1478 017e 07       		.byte	0x7
ARM GAS  /tmp/ccH0TlFv.s 			page 27


 1479 017f C8       		.byte	0xc8
 1480 0180 EC080000 		.4byte	0x8ec
 1481 0184 0C       		.byte	0xc
 1482 0185 07       		.uleb128 0x7
 1483 0186 9C010000 		.4byte	.LASF33
 1484 018a 07       		.byte	0x7
 1485 018b CA       		.byte	0xca
 1486 018c 41020000 		.4byte	0x241
 1487 0190 10       		.byte	0x10
 1488 0191 07       		.uleb128 0x7
 1489 0192 0A090000 		.4byte	.LASF34
 1490 0196 07       		.byte	0x7
 1491 0197 CB       		.byte	0xcb
 1492 0198 41020000 		.4byte	0x241
 1493 019c 14       		.byte	0x14
 1494 019d 07       		.uleb128 0x7
 1495 019e FC0C0000 		.4byte	.LASF35
 1496 01a2 07       		.byte	0x7
 1497 01a3 D2       		.byte	0xd2
 1498 01a4 6B0A0000 		.4byte	0xa6b
 1499 01a8 18       		.byte	0x18
 1500 01a9 07       		.uleb128 0x7
 1501 01aa 390D0000 		.4byte	.LASF36
 1502 01ae 07       		.byte	0x7
 1503 01af DD       		.byte	0xdd
 1504 01b0 F1000000 		.4byte	0xf1
 1505 01b4 1C       		.byte	0x1c
 1506 01b5 07       		.uleb128 0x7
 1507 01b6 24070000 		.4byte	.LASF37
 1508 01ba 07       		.byte	0x7
 1509 01bb E1       		.byte	0xe1
 1510 01bc E6000000 		.4byte	0xe6
 1511 01c0 1D       		.byte	0x1d
 1512 01c1 07       		.uleb128 0x7
 1513 01c2 82070000 		.4byte	.LASF38
 1514 01c6 07       		.byte	0x7
 1515 01c7 E6       		.byte	0xe6
 1516 01c8 FC000000 		.4byte	0xfc
 1517 01cc 1E       		.byte	0x1e
 1518 01cd 08       		.uleb128 0x8
 1519 01ce 705F7500 		.ascii	"p_u\000"
 1520 01d2 07       		.byte	0x7
 1521 01d3 3101     		.2byte	0x131
 1522 01d5 A6090000 		.4byte	0x9a6
 1523 01d9 20       		.byte	0x20
 1524 01da 09       		.uleb128 0x9
 1525 01db 09070000 		.4byte	.LASF39
 1526 01df 07       		.byte	0x7
 1527 01e0 3601     		.2byte	0x136
 1528 01e2 47020000 		.4byte	0x247
 1529 01e6 24       		.byte	0x24
 1530 01e7 09       		.uleb128 0x9
 1531 01e8 7E000000 		.4byte	.LASF40
 1532 01ec 07       		.byte	0x7
 1533 01ed 3C01     		.2byte	0x13c
 1534 01ef 6B020000 		.4byte	0x26b
 1535 01f3 28       		.byte	0x28
ARM GAS  /tmp/ccH0TlFv.s 			page 28


 1536 01f4 09       		.uleb128 0x9
 1537 01f5 330D0000 		.4byte	.LASF41
 1538 01f9 07       		.byte	0x7
 1539 01fa 4001     		.2byte	0x140
 1540 01fc 12010000 		.4byte	0x112
 1541 0200 30       		.byte	0x30
 1542 0201 09       		.uleb128 0x9
 1543 0202 4B040000 		.4byte	.LASF42
 1544 0206 07       		.byte	0x7
 1545 0207 4601     		.2byte	0x146
 1546 0209 1D010000 		.4byte	0x11d
 1547 020d 34       		.byte	0x34
 1548 020e 09       		.uleb128 0x9
 1549 020f E6010000 		.4byte	.LASF43
 1550 0213 07       		.byte	0x7
 1551 0214 4D01     		.2byte	0x14d
 1552 0216 650A0000 		.4byte	0xa65
 1553 021a 38       		.byte	0x38
 1554 021b 09       		.uleb128 0x9
 1555 021c 6E080000 		.4byte	.LASF44
 1556 0220 07       		.byte	0x7
 1557 0221 5101     		.2byte	0x151
 1558 0223 07010000 		.4byte	0x107
 1559 0227 3C       		.byte	0x3c
 1560 0228 09       		.uleb128 0x9
 1561 0229 50070000 		.4byte	.LASF45
 1562 022d 07       		.byte	0x7
 1563 022e 5801     		.2byte	0x158
 1564 0230 1E030000 		.4byte	0x31e
 1565 0234 40       		.byte	0x40
 1566 0235 00       		.byte	0
 1567 0236 03       		.uleb128 0x3
 1568 0237 5B080000 		.4byte	.LASF46
 1569 023b 06       		.byte	0x6
 1570 023c 44       		.byte	0x44
 1571 023d 41020000 		.4byte	0x241
 1572 0241 0A       		.uleb128 0xa
 1573 0242 04       		.byte	0x4
 1574 0243 3E010000 		.4byte	0x13e
 1575 0247 03       		.uleb128 0x3
 1576 0248 0B0C0000 		.4byte	.LASF47
 1577 024c 06       		.byte	0x6
 1578 024d 49       		.byte	0x49
 1579 024e 52020000 		.4byte	0x252
 1580 0252 06       		.uleb128 0x6
 1581 0253 F7050000 		.4byte	.LASF49
 1582 0257 04       		.byte	0x4
 1583 0258 07       		.byte	0x7
 1584 0259 B0       		.byte	0xb0
 1585 025a 6B020000 		.4byte	0x26b
 1586 025e 07       		.uleb128 0x7
 1587 025f AD010000 		.4byte	.LASF29
 1588 0263 07       		.byte	0x7
 1589 0264 B1       		.byte	0xb1
 1590 0265 41020000 		.4byte	0x241
 1591 0269 00       		.byte	0
 1592 026a 00       		.byte	0
ARM GAS  /tmp/ccH0TlFv.s 			page 29


 1593 026b 03       		.uleb128 0x3
 1594 026c D6010000 		.4byte	.LASF50
 1595 0270 06       		.byte	0x6
 1596 0271 50       		.byte	0x50
 1597 0272 76020000 		.4byte	0x276
 1598 0276 06       		.uleb128 0x6
 1599 0277 18090000 		.4byte	.LASF51
 1600 027b 08       		.byte	0x8
 1601 027c 07       		.byte	0x7
 1602 027d B7       		.byte	0xb7
 1603 027e 9B020000 		.4byte	0x29b
 1604 0282 07       		.uleb128 0x7
 1605 0283 AD010000 		.4byte	.LASF29
 1606 0287 07       		.byte	0x7
 1607 0288 B8       		.byte	0xb8
 1608 0289 41020000 		.4byte	0x241
 1609 028d 00       		.byte	0
 1610 028e 07       		.uleb128 0x7
 1611 028f B4010000 		.4byte	.LASF30
 1612 0293 07       		.byte	0x7
 1613 0294 B9       		.byte	0xb9
 1614 0295 41020000 		.4byte	0x241
 1615 0299 04       		.byte	0x4
 1616 029a 00       		.byte	0
 1617 029b 03       		.uleb128 0x3
 1618 029c C9050000 		.4byte	.LASF52
 1619 02a0 06       		.byte	0x6
 1620 02a1 57       		.byte	0x57
 1621 02a2 A6020000 		.4byte	0x2a6
 1622 02a6 0B       		.uleb128 0xb
 1623 02a7 5D040000 		.4byte	.LASF53
 1624 02ab 1C       		.byte	0x1c
 1625 02ac 07       		.byte	0x7
 1626 02ad 9001     		.2byte	0x190
 1627 02af 02030000 		.4byte	0x302
 1628 02b3 09       		.uleb128 0x9
 1629 02b4 A4090000 		.4byte	.LASF54
 1630 02b8 07       		.byte	0x7
 1631 02b9 9101     		.2byte	0x191
 1632 02bb 6B020000 		.4byte	0x26b
 1633 02bf 00       		.byte	0
 1634 02c0 09       		.uleb128 0x9
 1635 02c1 B30A0000 		.4byte	.LASF55
 1636 02c5 07       		.byte	0x7
 1637 02c6 9201     		.2byte	0x192
 1638 02c8 07010000 		.4byte	0x107
 1639 02cc 08       		.byte	0x8
 1640 02cd 09       		.uleb128 0x9
 1641 02ce 89000000 		.4byte	.LASF56
 1642 02d2 07       		.byte	0x7
 1643 02d3 9401     		.2byte	0x194
 1644 02d5 EC080000 		.4byte	0x8ec
 1645 02d9 0C       		.byte	0xc
 1646 02da 09       		.uleb128 0x9
 1647 02db FD020000 		.4byte	.LASF57
 1648 02df 07       		.byte	0x7
 1649 02e0 9701     		.2byte	0x197
ARM GAS  /tmp/ccH0TlFv.s 			page 30


 1650 02e2 41020000 		.4byte	0x241
 1651 02e6 10       		.byte	0x10
 1652 02e7 09       		.uleb128 0x9
 1653 02e8 230A0000 		.4byte	.LASF58
 1654 02ec 07       		.byte	0x7
 1655 02ed 9801     		.2byte	0x198
 1656 02ef 41020000 		.4byte	0x241
 1657 02f3 14       		.byte	0x14
 1658 02f4 09       		.uleb128 0x9
 1659 02f5 5D090000 		.4byte	.LASF59
 1660 02f9 07       		.byte	0x7
 1661 02fa 9B01     		.2byte	0x19b
 1662 02fc 41020000 		.4byte	0x241
 1663 0300 18       		.byte	0x18
 1664 0301 00       		.byte	0
 1665 0302 03       		.uleb128 0x3
 1666 0303 97000000 		.4byte	.LASF60
 1667 0307 06       		.byte	0x6
 1668 0308 5C       		.byte	0x5c
 1669 0309 0D030000 		.4byte	0x30d
 1670 030d 0A       		.uleb128 0xa
 1671 030e 04       		.byte	0x4
 1672 030f 13030000 		.4byte	0x313
 1673 0313 0C       		.uleb128 0xc
 1674 0314 1E030000 		.4byte	0x31e
 1675 0318 0D       		.uleb128 0xd
 1676 0319 1E030000 		.4byte	0x31e
 1677 031d 00       		.byte	0
 1678 031e 0E       		.uleb128 0xe
 1679 031f 04       		.byte	0x4
 1680 0320 03       		.uleb128 0x3
 1681 0321 B9050000 		.4byte	.LASF61
 1682 0325 06       		.byte	0x6
 1683 0326 61       		.byte	0x61
 1684 0327 2B030000 		.4byte	0x32b
 1685 032b 0B       		.uleb128 0xb
 1686 032c A9080000 		.4byte	.LASF62
 1687 0330 14       		.byte	0x14
 1688 0331 07       		.byte	0x7
 1689 0332 6B01     		.2byte	0x16b
 1690 0334 7A030000 		.4byte	0x37a
 1691 0338 09       		.uleb128 0x9
 1692 0339 AA060000 		.4byte	.LASF63
 1693 033d 07       		.byte	0x7
 1694 033e 6C01     		.2byte	0x16c
 1695 0340 7D0A0000 		.4byte	0xa7d
 1696 0344 00       		.byte	0
 1697 0345 09       		.uleb128 0x9
 1698 0346 CE060000 		.4byte	.LASF64
 1699 034a 07       		.byte	0x7
 1700 034b 6D01     		.2byte	0x16d
 1701 034d 7D0A0000 		.4byte	0xa7d
 1702 0351 04       		.byte	0x4
 1703 0352 09       		.uleb128 0x9
 1704 0353 85080000 		.4byte	.LASF65
 1705 0357 07       		.byte	0x7
 1706 0358 6E01     		.2byte	0x16e
ARM GAS  /tmp/ccH0TlFv.s 			page 31


 1707 035a 33010000 		.4byte	0x133
 1708 035e 08       		.byte	0x8
 1709 035f 09       		.uleb128 0x9
 1710 0360 43040000 		.4byte	.LASF66
 1711 0364 07       		.byte	0x7
 1712 0365 6F01     		.2byte	0x16f
 1713 0367 02030000 		.4byte	0x302
 1714 036b 0C       		.byte	0xc
 1715 036c 09       		.uleb128 0x9
 1716 036d 3F010000 		.4byte	.LASF67
 1717 0371 07       		.byte	0x7
 1718 0372 7101     		.2byte	0x171
 1719 0374 1E030000 		.4byte	0x31e
 1720 0378 10       		.byte	0x10
 1721 0379 00       		.byte	0
 1722 037a 03       		.uleb128 0x3
 1723 037b 7E050000 		.4byte	.LASF68
 1724 037f 06       		.byte	0x6
 1725 0380 66       		.byte	0x66
 1726 0381 85030000 		.4byte	0x385
 1727 0385 0B       		.uleb128 0xb
 1728 0386 B1000000 		.4byte	.LASF69
 1729 038a 10       		.byte	0x10
 1730 038b 07       		.byte	0x7
 1731 038c 7B01     		.2byte	0x17b
 1732 038e C7030000 		.4byte	0x3c7
 1733 0392 09       		.uleb128 0x9
 1734 0393 AA060000 		.4byte	.LASF63
 1735 0397 07       		.byte	0x7
 1736 0398 7C01     		.2byte	0x17c
 1737 039a 7D0A0000 		.4byte	0xa7d
 1738 039e 00       		.byte	0
 1739 039f 09       		.uleb128 0x9
 1740 03a0 CE060000 		.4byte	.LASF64
 1741 03a4 07       		.byte	0x7
 1742 03a5 7E01     		.2byte	0x17e
 1743 03a7 7D0A0000 		.4byte	0xa7d
 1744 03ab 04       		.byte	0x4
 1745 03ac 09       		.uleb128 0x9
 1746 03ad 85080000 		.4byte	.LASF65
 1747 03b1 07       		.byte	0x7
 1748 03b2 8001     		.2byte	0x180
 1749 03b4 33010000 		.4byte	0x133
 1750 03b8 08       		.byte	0x8
 1751 03b9 09       		.uleb128 0x9
 1752 03ba 6A0C0000 		.4byte	.LASF70
 1753 03be 07       		.byte	0x7
 1754 03bf 8801     		.2byte	0x188
 1755 03c1 33010000 		.4byte	0x133
 1756 03c5 0C       		.byte	0xc
 1757 03c6 00       		.byte	0
 1758 03c7 03       		.uleb128 0x3
 1759 03c8 05030000 		.4byte	.LASF71
 1760 03cc 06       		.byte	0x6
 1761 03cd 6B       		.byte	0x6b
 1762 03ce D2030000 		.4byte	0x3d2
 1763 03d2 0B       		.uleb128 0xb
ARM GAS  /tmp/ccH0TlFv.s 			page 32


 1764 03d3 CC0A0000 		.4byte	.LASF72
 1765 03d7 04       		.byte	0x4
 1766 03d8 07       		.byte	0x7
 1767 03d9 A201     		.2byte	0x1a2
 1768 03db ED030000 		.4byte	0x3ed
 1769 03df 09       		.uleb128 0x9
 1770 03e0 E6020000 		.4byte	.LASF73
 1771 03e4 07       		.byte	0x7
 1772 03e5 AA01     		.2byte	0x1aa
 1773 03e7 830A0000 		.4byte	0xa83
 1774 03eb 00       		.byte	0
 1775 03ec 00       		.byte	0
 1776 03ed 03       		.uleb128 0x3
 1777 03ee A00C0000 		.4byte	.LASF74
 1778 03f2 06       		.byte	0x6
 1779 03f3 70       		.byte	0x70
 1780 03f4 F8030000 		.4byte	0x3f8
 1781 03f8 0F       		.uleb128 0xf
 1782 03f9 1A0C0000 		.4byte	.LASF75
 1783 03fd 5001     		.2byte	0x150
 1784 03ff 07       		.byte	0x7
 1785 0400 C201     		.2byte	0x1c2
 1786 0402 54040000 		.4byte	0x454
 1787 0406 09       		.uleb128 0x9
 1788 0407 CA090000 		.4byte	.LASF76
 1789 040b 07       		.byte	0x7
 1790 040c C601     		.2byte	0x1c6
 1791 040e 9B020000 		.4byte	0x29b
 1792 0412 00       		.byte	0
 1793 0413 09       		.uleb128 0x9
 1794 0414 E00B0000 		.4byte	.LASF77
 1795 0418 07       		.byte	0x7
 1796 0419 CA01     		.2byte	0x1ca
 1797 041b 7A030000 		.4byte	0x37a
 1798 041f 1C       		.byte	0x1c
 1799 0420 08       		.uleb128 0x8
 1800 0421 64626700 		.ascii	"dbg\000"
 1801 0425 07       		.byte	0x7
 1802 0426 CE01     		.2byte	0x1ce
 1803 0428 C7030000 		.4byte	0x3c7
 1804 042c 2C       		.byte	0x2c
 1805 042d 09       		.uleb128 0x9
 1806 042e 85090000 		.4byte	.LASF78
 1807 0432 07       		.byte	0x7
 1808 0433 D201     		.2byte	0x1d2
 1809 0435 3E010000 		.4byte	0x13e
 1810 0439 30       		.byte	0x30
 1811 043a 08       		.uleb128 0x8
 1812 043b 746D00   		.ascii	"tm\000"
 1813 043e 07       		.byte	0x7
 1814 043f D701     		.2byte	0x1d7
 1815 0441 9B090000 		.4byte	0x99b
 1816 0445 74       		.byte	0x74
 1817 0446 09       		.uleb128 0x9
 1818 0447 2C070000 		.4byte	.LASF79
 1819 044b 07       		.byte	0x7
 1820 044c E301     		.2byte	0x1e3
ARM GAS  /tmp/ccH0TlFv.s 			page 33


 1821 044e 880A0000 		.4byte	0xa88
 1822 0452 78       		.byte	0x78
 1823 0453 00       		.byte	0
 1824 0454 10       		.uleb128 0x10
 1825 0455 01       		.byte	0x1
 1826 0456 48000000 		.4byte	0x48
 1827 045a 08       		.byte	0x8
 1828 045b 56       		.byte	0x56
 1829 045c 77060000 		.4byte	0x677
 1830 0460 11       		.uleb128 0x11
 1831 0461 EB040000 		.4byte	.LASF80
 1832 0465 72       		.sleb128 -14
 1833 0466 11       		.uleb128 0x11
 1834 0467 2D050000 		.4byte	.LASF81
 1835 046b 74       		.sleb128 -12
 1836 046c 11       		.uleb128 0x11
 1837 046d 07060000 		.4byte	.LASF82
 1838 0471 75       		.sleb128 -11
 1839 0472 11       		.uleb128 0x11
 1840 0473 4C030000 		.4byte	.LASF83
 1841 0477 76       		.sleb128 -10
 1842 0478 11       		.uleb128 0x11
 1843 0479 D6060000 		.4byte	.LASF84
 1844 047d 7B       		.sleb128 -5
 1845 047e 11       		.uleb128 0x11
 1846 047f 040A0000 		.4byte	.LASF85
 1847 0483 7C       		.sleb128 -4
 1848 0484 11       		.uleb128 0x11
 1849 0485 B70C0000 		.4byte	.LASF86
 1850 0489 7E       		.sleb128 -2
 1851 048a 11       		.uleb128 0x11
 1852 048b 23020000 		.4byte	.LASF87
 1853 048f 7F       		.sleb128 -1
 1854 0490 12       		.uleb128 0x12
 1855 0491 0A050000 		.4byte	.LASF88
 1856 0495 00       		.byte	0
 1857 0496 12       		.uleb128 0x12
 1858 0497 AC090000 		.4byte	.LASF89
 1859 049b 01       		.byte	0x1
 1860 049c 12       		.uleb128 0x12
 1861 049d 56050000 		.4byte	.LASF90
 1862 04a1 02       		.byte	0x2
 1863 04a2 12       		.uleb128 0x12
 1864 04a3 05000000 		.4byte	.LASF91
 1865 04a7 03       		.byte	0x3
 1866 04a8 12       		.uleb128 0x12
 1867 04a9 ED000000 		.4byte	.LASF92
 1868 04ad 04       		.byte	0x4
 1869 04ae 12       		.uleb128 0x12
 1870 04af 980A0000 		.4byte	.LASF93
 1871 04b3 05       		.byte	0x5
 1872 04b4 12       		.uleb128 0x12
 1873 04b5 BF090000 		.4byte	.LASF94
 1874 04b9 06       		.byte	0x6
 1875 04ba 12       		.uleb128 0x12
 1876 04bb 8B040000 		.4byte	.LASF95
 1877 04bf 07       		.byte	0x7
ARM GAS  /tmp/ccH0TlFv.s 			page 34


 1878 04c0 12       		.uleb128 0x12
 1879 04c1 13000000 		.4byte	.LASF96
 1880 04c5 08       		.byte	0x8
 1881 04c6 12       		.uleb128 0x12
 1882 04c7 AC0C0000 		.4byte	.LASF97
 1883 04cb 09       		.byte	0x9
 1884 04cc 12       		.uleb128 0x12
 1885 04cd 95030000 		.4byte	.LASF98
 1886 04d1 0A       		.byte	0xa
 1887 04d2 12       		.uleb128 0x12
 1888 04d3 8E080000 		.4byte	.LASF99
 1889 04d7 0B       		.byte	0xb
 1890 04d8 12       		.uleb128 0x12
 1891 04d9 B5070000 		.4byte	.LASF100
 1892 04dd 0C       		.byte	0xc
 1893 04de 12       		.uleb128 0x12
 1894 04df 76020000 		.4byte	.LASF101
 1895 04e3 0D       		.byte	0xd
 1896 04e4 12       		.uleb128 0x12
 1897 04e5 BA0A0000 		.4byte	.LASF102
 1898 04e9 0E       		.byte	0xe
 1899 04ea 12       		.uleb128 0x12
 1900 04eb D8090000 		.4byte	.LASF103
 1901 04ef 0F       		.byte	0xf
 1902 04f0 12       		.uleb128 0x12
 1903 04f1 A3040000 		.4byte	.LASF104
 1904 04f5 10       		.byte	0x10
 1905 04f6 12       		.uleb128 0x12
 1906 04f7 13080000 		.4byte	.LASF105
 1907 04fb 11       		.byte	0x11
 1908 04fc 12       		.uleb128 0x12
 1909 04fd 7C090000 		.4byte	.LASF106
 1910 0501 12       		.byte	0x12
 1911 0502 12       		.uleb128 0x12
 1912 0503 96040000 		.4byte	.LASF107
 1913 0507 13       		.byte	0x13
 1914 0508 12       		.uleb128 0x12
 1915 0509 87030000 		.4byte	.LASF108
 1916 050d 14       		.byte	0x14
 1917 050e 12       		.uleb128 0x12
 1918 050f 430C0000 		.4byte	.LASF109
 1919 0513 15       		.byte	0x15
 1920 0514 12       		.uleb128 0x12
 1921 0515 70050000 		.4byte	.LASF110
 1922 0519 16       		.byte	0x16
 1923 051a 12       		.uleb128 0x12
 1924 051b 510C0000 		.4byte	.LASF111
 1925 051f 17       		.byte	0x17
 1926 0520 12       		.uleb128 0x12
 1927 0521 31060000 		.4byte	.LASF112
 1928 0525 18       		.byte	0x18
 1929 0526 12       		.uleb128 0x12
 1930 0527 C00B0000 		.4byte	.LASF113
 1931 052b 19       		.byte	0x19
 1932 052c 12       		.uleb128 0x12
 1933 052d F0010000 		.4byte	.LASF114
 1934 0531 1A       		.byte	0x1a
ARM GAS  /tmp/ccH0TlFv.s 			page 35


 1935 0532 12       		.uleb128 0x12
 1936 0533 70040000 		.4byte	.LASF115
 1937 0537 1B       		.byte	0x1b
 1938 0538 12       		.uleb128 0x12
 1939 0539 02010000 		.4byte	.LASF116
 1940 053d 1C       		.byte	0x1c
 1941 053e 12       		.uleb128 0x12
 1942 053f 29090000 		.4byte	.LASF117
 1943 0543 1D       		.byte	0x1d
 1944 0544 12       		.uleb128 0x12
 1945 0545 EB030000 		.4byte	.LASF118
 1946 0549 1E       		.byte	0x1e
 1947 054a 12       		.uleb128 0x12
 1948 054b 36040000 		.4byte	.LASF119
 1949 054f 1F       		.byte	0x1f
 1950 0550 12       		.uleb128 0x12
 1951 0551 F0020000 		.4byte	.LASF120
 1952 0555 20       		.byte	0x20
 1953 0556 12       		.uleb128 0x12
 1954 0557 58070000 		.4byte	.LASF121
 1955 055b 21       		.byte	0x21
 1956 055c 12       		.uleb128 0x12
 1957 055d DF050000 		.4byte	.LASF122
 1958 0561 22       		.byte	0x22
 1959 0562 12       		.uleb128 0x12
 1960 0563 B2060000 		.4byte	.LASF123
 1961 0567 23       		.byte	0x23
 1962 0568 12       		.uleb128 0x12
 1963 0569 74010000 		.4byte	.LASF124
 1964 056d 24       		.byte	0x24
 1965 056e 12       		.uleb128 0x12
 1966 056f 33090000 		.4byte	.LASF125
 1967 0573 25       		.byte	0x25
 1968 0574 12       		.uleb128 0x12
 1969 0575 F5030000 		.4byte	.LASF126
 1970 0579 26       		.byte	0x26
 1971 057a 12       		.uleb128 0x12
 1972 057b 30020000 		.4byte	.LASF127
 1973 057f 27       		.byte	0x27
 1974 0580 12       		.uleb128 0x12
 1975 0581 E4080000 		.4byte	.LASF128
 1976 0585 28       		.byte	0x28
 1977 0586 12       		.uleb128 0x12
 1978 0587 BA080000 		.4byte	.LASF129
 1979 058b 29       		.byte	0x29
 1980 058c 12       		.uleb128 0x12
 1981 058d 13070000 		.4byte	.LASF130
 1982 0591 2A       		.byte	0x2a
 1983 0592 12       		.uleb128 0x12
 1984 0593 7E010000 		.4byte	.LASF131
 1985 0597 2B       		.byte	0x2b
 1986 0598 12       		.uleb128 0x12
 1987 0599 38000000 		.4byte	.LASF132
 1988 059d 2C       		.byte	0x2c
 1989 059e 12       		.uleb128 0x12
 1990 059f B5040000 		.4byte	.LASF133
 1991 05a3 2D       		.byte	0x2d
ARM GAS  /tmp/ccH0TlFv.s 			page 36


 1992 05a4 12       		.uleb128 0x12
 1993 05a5 890C0000 		.4byte	.LASF134
 1994 05a9 2E       		.byte	0x2e
 1995 05aa 12       		.uleb128 0x12
 1996 05ab D60C0000 		.4byte	.LASF135
 1997 05af 2F       		.byte	0x2f
 1998 05b0 12       		.uleb128 0x12
 1999 05b1 B5090000 		.4byte	.LASF136
 2000 05b5 30       		.byte	0x30
 2001 05b6 12       		.uleb128 0x12
 2002 05b7 960C0000 		.4byte	.LASF137
 2003 05bb 31       		.byte	0x31
 2004 05bc 12       		.uleb128 0x12
 2005 05bd 3C030000 		.4byte	.LASF138
 2006 05c1 32       		.byte	0x32
 2007 05c2 12       		.uleb128 0x12
 2008 05c3 E3000000 		.4byte	.LASF139
 2009 05c7 33       		.byte	0x33
 2010 05c8 12       		.uleb128 0x12
 2011 05c9 F4060000 		.4byte	.LASF140
 2012 05cd 34       		.byte	0x34
 2013 05ce 12       		.uleb128 0x12
 2014 05cf 1D060000 		.4byte	.LASF141
 2015 05d3 35       		.byte	0x35
 2016 05d4 12       		.uleb128 0x12
 2017 05d5 130D0000 		.4byte	.LASF142
 2018 05d9 36       		.byte	0x36
 2019 05da 12       		.uleb128 0x12
 2020 05db 6A060000 		.4byte	.LASF143
 2021 05df 37       		.byte	0x37
 2022 05e0 12       		.uleb128 0x12
 2023 05e1 A7050000 		.4byte	.LASF144
 2024 05e5 38       		.byte	0x38
 2025 05e6 12       		.uleb128 0x12
 2026 05e7 D1000000 		.4byte	.LASF145
 2027 05eb 39       		.byte	0x39
 2028 05ec 12       		.uleb128 0x12
 2029 05ed 210D0000 		.4byte	.LASF146
 2030 05f1 3A       		.byte	0x3a
 2031 05f2 12       		.uleb128 0x12
 2032 05f3 C7070000 		.4byte	.LASF147
 2033 05f7 3B       		.byte	0x3b
 2034 05f8 12       		.uleb128 0x12
 2035 05f9 AA020000 		.4byte	.LASF148
 2036 05fd 3C       		.byte	0x3c
 2037 05fe 12       		.uleb128 0x12
 2038 05ff 4A0A0000 		.4byte	.LASF149
 2039 0603 3D       		.byte	0x3d
 2040 0604 12       		.uleb128 0x12
 2041 0605 82060000 		.4byte	.LASF150
 2042 0609 3E       		.byte	0x3e
 2043 060a 12       		.uleb128 0x12
 2044 060b D9070000 		.4byte	.LASF151
 2045 060f 3F       		.byte	0x3f
 2046 0610 12       		.uleb128 0x12
 2047 0611 1D010000 		.4byte	.LASF152
 2048 0615 40       		.byte	0x40
ARM GAS  /tmp/ccH0TlFv.s 			page 37


 2049 0616 12       		.uleb128 0x12
 2050 0617 67090000 		.4byte	.LASF153
 2051 061b 41       		.byte	0x41
 2052 061c 12       		.uleb128 0x12
 2053 061d 14030000 		.4byte	.LASF154
 2054 0621 42       		.byte	0x42
 2055 0622 12       		.uleb128 0x12
 2056 0623 DF040000 		.4byte	.LASF155
 2057 0627 43       		.byte	0x43
 2058 0628 12       		.uleb128 0x12
 2059 0629 BB010000 		.4byte	.LASF156
 2060 062d 44       		.byte	0x44
 2061 062e 12       		.uleb128 0x12
 2062 062f EA090000 		.4byte	.LASF157
 2063 0633 45       		.byte	0x45
 2064 0634 12       		.uleb128 0x12
 2065 0635 CD040000 		.4byte	.LASF158
 2066 0639 46       		.byte	0x46
 2067 063a 12       		.uleb128 0x12
 2068 063b 2B010000 		.4byte	.LASF159
 2069 063f 47       		.byte	0x47
 2070 0640 12       		.uleb128 0x12
 2071 0641 160A0000 		.4byte	.LASF160
 2072 0645 48       		.byte	0x48
 2073 0646 12       		.uleb128 0x12
 2074 0647 D7080000 		.4byte	.LASF161
 2075 064b 49       		.byte	0x49
 2076 064c 12       		.uleb128 0x12
 2077 064d F70B0000 		.4byte	.LASF162
 2078 0651 4A       		.byte	0x4a
 2079 0652 12       		.uleb128 0x12
 2080 0653 C30C0000 		.4byte	.LASF163
 2081 0657 4B       		.byte	0x4b
 2082 0658 12       		.uleb128 0x12
 2083 0659 63010000 		.4byte	.LASF164
 2084 065d 4C       		.byte	0x4c
 2085 065e 12       		.uleb128 0x12
 2086 065f 90060000 		.4byte	.LASF165
 2087 0663 4D       		.byte	0x4d
 2088 0664 12       		.uleb128 0x12
 2089 0665 F8000000 		.4byte	.LASF166
 2090 0669 4E       		.byte	0x4e
 2091 066a 12       		.uleb128 0x12
 2092 066b 7D040000 		.4byte	.LASF167
 2093 066f 50       		.byte	0x50
 2094 0670 12       		.uleb128 0x12
 2095 0671 EB060000 		.4byte	.LASF168
 2096 0675 51       		.byte	0x51
 2097 0676 00       		.byte	0
 2098 0677 04       		.uleb128 0x4
 2099 0678 04       		.byte	0x4
 2100 0679 07       		.byte	0x7
 2101 067a 4B000000 		.4byte	.LASF169
 2102 067e 13       		.uleb128 0x13
 2103 067f BB000000 		.4byte	0xbb
 2104 0683 8E060000 		.4byte	0x68e
 2105 0687 14       		.uleb128 0x14
ARM GAS  /tmp/ccH0TlFv.s 			page 38


 2106 0688 77060000 		.4byte	0x677
 2107 068c 01       		.byte	0x1
 2108 068d 00       		.byte	0
 2109 068e 15       		.uleb128 0x15
 2110 068f 18       		.byte	0x18
 2111 0690 08       		.byte	0x8
 2112 0691 6B01     		.2byte	0x16b
 2113 0693 E5060000 		.4byte	0x6e5
 2114 0697 08       		.uleb128 0x8
 2115 0698 435200   		.ascii	"CR\000"
 2116 069b 08       		.byte	0x8
 2117 069c 6D01     		.2byte	0x16d
 2118 069e D6000000 		.4byte	0xd6
 2119 06a2 00       		.byte	0
 2120 06a3 09       		.uleb128 0x9
 2121 06a4 F20C0000 		.4byte	.LASF170
 2122 06a8 08       		.byte	0x8
 2123 06a9 6E01     		.2byte	0x16e
 2124 06ab D6000000 		.4byte	0xd6
 2125 06af 04       		.byte	0x4
 2126 06b0 08       		.uleb128 0x8
 2127 06b1 50415200 		.ascii	"PAR\000"
 2128 06b5 08       		.byte	0x8
 2129 06b6 6F01     		.2byte	0x16f
 2130 06b8 D6000000 		.4byte	0xd6
 2131 06bc 08       		.byte	0x8
 2132 06bd 09       		.uleb128 0x9
 2133 06be 450A0000 		.4byte	.LASF171
 2134 06c2 08       		.byte	0x8
 2135 06c3 7001     		.2byte	0x170
 2136 06c5 D6000000 		.4byte	0xd6
 2137 06c9 0C       		.byte	0xc
 2138 06ca 09       		.uleb128 0x9
 2139 06cb 00000000 		.4byte	.LASF172
 2140 06cf 08       		.byte	0x8
 2141 06d0 7101     		.2byte	0x171
 2142 06d2 D6000000 		.4byte	0xd6
 2143 06d6 10       		.byte	0x10
 2144 06d7 08       		.uleb128 0x8
 2145 06d8 46435200 		.ascii	"FCR\000"
 2146 06dc 08       		.byte	0x8
 2147 06dd 7201     		.2byte	0x172
 2148 06df D6000000 		.4byte	0xd6
 2149 06e3 14       		.byte	0x14
 2150 06e4 00       		.byte	0
 2151 06e5 16       		.uleb128 0x16
 2152 06e6 E6070000 		.4byte	.LASF173
 2153 06ea 08       		.byte	0x8
 2154 06eb 7301     		.2byte	0x173
 2155 06ed 8E060000 		.4byte	0x68e
 2156 06f1 15       		.uleb128 0x15
 2157 06f2 10       		.byte	0x10
 2158 06f3 08       		.byte	0x8
 2159 06f4 7501     		.2byte	0x175
 2160 06f6 2F070000 		.4byte	0x72f
 2161 06fa 09       		.uleb128 0x9
 2162 06fb 5E0C0000 		.4byte	.LASF174
ARM GAS  /tmp/ccH0TlFv.s 			page 39


 2163 06ff 08       		.byte	0x8
 2164 0700 7701     		.2byte	0x177
 2165 0702 D6000000 		.4byte	0xd6
 2166 0706 00       		.byte	0
 2167 0707 09       		.uleb128 0x9
 2168 0708 3E0C0000 		.4byte	.LASF175
 2169 070c 08       		.byte	0x8
 2170 070d 7801     		.2byte	0x178
 2171 070f D6000000 		.4byte	0xd6
 2172 0713 04       		.byte	0x4
 2173 0714 09       		.uleb128 0x9
 2174 0715 46030000 		.4byte	.LASF176
 2175 0719 08       		.byte	0x8
 2176 071a 7901     		.2byte	0x179
 2177 071c D6000000 		.4byte	0xd6
 2178 0720 08       		.byte	0x8
 2179 0721 09       		.uleb128 0x9
 2180 0722 25080000 		.4byte	.LASF177
 2181 0726 08       		.byte	0x8
 2182 0727 7A01     		.2byte	0x17a
 2183 0729 D6000000 		.4byte	0xd6
 2184 072d 0C       		.byte	0xc
 2185 072e 00       		.byte	0
 2186 072f 16       		.uleb128 0x16
 2187 0730 DA020000 		.4byte	.LASF178
 2188 0734 08       		.byte	0x8
 2189 0735 7B01     		.2byte	0x17b
 2190 0737 F1060000 		.4byte	0x6f1
 2191 073b 15       		.uleb128 0x15
 2192 073c 88       		.byte	0x88
 2193 073d 08       		.byte	0x8
 2194 073e 6702     		.2byte	0x267
 2195 0740 CA080000 		.4byte	0x8ca
 2196 0744 08       		.uleb128 0x8
 2197 0745 435200   		.ascii	"CR\000"
 2198 0748 08       		.byte	0x8
 2199 0749 6902     		.2byte	0x269
 2200 074b D6000000 		.4byte	0xd6
 2201 074f 00       		.byte	0
 2202 0750 09       		.uleb128 0x9
 2203 0751 15060000 		.4byte	.LASF179
 2204 0755 08       		.byte	0x8
 2205 0756 6A02     		.2byte	0x26a
 2206 0758 D6000000 		.4byte	0xd6
 2207 075c 04       		.byte	0x4
 2208 075d 09       		.uleb128 0x9
 2209 075e 6B040000 		.4byte	.LASF180
 2210 0762 08       		.byte	0x8
 2211 0763 6B02     		.2byte	0x26b
 2212 0765 D6000000 		.4byte	0xd6
 2213 0769 08       		.byte	0x8
 2214 076a 08       		.uleb128 0x8
 2215 076b 43495200 		.ascii	"CIR\000"
 2216 076f 08       		.byte	0x8
 2217 0770 6C02     		.2byte	0x26c
 2218 0772 D6000000 		.4byte	0xd6
 2219 0776 0C       		.byte	0xc
ARM GAS  /tmp/ccH0TlFv.s 			page 40


 2220 0777 09       		.uleb128 0x9
 2221 0778 68030000 		.4byte	.LASF181
 2222 077c 08       		.byte	0x8
 2223 077d 6D02     		.2byte	0x26d
 2224 077f D6000000 		.4byte	0xd6
 2225 0783 10       		.byte	0x10
 2226 0784 09       		.uleb128 0x9
 2227 0785 3C0A0000 		.4byte	.LASF182
 2228 0789 08       		.byte	0x8
 2229 078a 6E02     		.2byte	0x26e
 2230 078c D6000000 		.4byte	0xd6
 2231 0790 14       		.byte	0x14
 2232 0791 09       		.uleb128 0x9
 2233 0792 2B080000 		.4byte	.LASF183
 2234 0796 08       		.byte	0x8
 2235 0797 6F02     		.2byte	0x26f
 2236 0799 D6000000 		.4byte	0xd6
 2237 079d 18       		.byte	0x18
 2238 079e 09       		.uleb128 0x9
 2239 079f 88020000 		.4byte	.LASF184
 2240 07a3 08       		.byte	0x8
 2241 07a4 7002     		.2byte	0x270
 2242 07a6 BB000000 		.4byte	0xbb
 2243 07aa 1C       		.byte	0x1c
 2244 07ab 09       		.uleb128 0x9
 2245 07ac A0080000 		.4byte	.LASF185
 2246 07b0 08       		.byte	0x8
 2247 07b1 7102     		.2byte	0x271
 2248 07b3 D6000000 		.4byte	0xd6
 2249 07b7 20       		.byte	0x20
 2250 07b8 09       		.uleb128 0x9
 2251 07b9 E2060000 		.4byte	.LASF186
 2252 07bd 08       		.byte	0x8
 2253 07be 7202     		.2byte	0x272
 2254 07c0 D6000000 		.4byte	0xd6
 2255 07c4 24       		.byte	0x24
 2256 07c5 09       		.uleb128 0x9
 2257 07c6 92020000 		.4byte	.LASF187
 2258 07ca 08       		.byte	0x8
 2259 07cb 7302     		.2byte	0x273
 2260 07cd 7E060000 		.4byte	0x67e
 2261 07d1 28       		.byte	0x28
 2262 07d2 09       		.uleb128 0x9
 2263 07d3 FC090000 		.4byte	.LASF188
 2264 07d7 08       		.byte	0x8
 2265 07d8 7402     		.2byte	0x274
 2266 07da D6000000 		.4byte	0xd6
 2267 07de 30       		.byte	0x30
 2268 07df 09       		.uleb128 0x9
 2269 07e0 78030000 		.4byte	.LASF189
 2270 07e4 08       		.byte	0x8
 2271 07e5 7502     		.2byte	0x275
 2272 07e7 D6000000 		.4byte	0xd6
 2273 07eb 34       		.byte	0x34
 2274 07ec 09       		.uleb128 0x9
 2275 07ed 89070000 		.4byte	.LASF190
 2276 07f1 08       		.byte	0x8
ARM GAS  /tmp/ccH0TlFv.s 			page 41


 2277 07f2 7602     		.2byte	0x276
 2278 07f4 D6000000 		.4byte	0xd6
 2279 07f8 38       		.byte	0x38
 2280 07f9 09       		.uleb128 0x9
 2281 07fa 28030000 		.4byte	.LASF191
 2282 07fe 08       		.byte	0x8
 2283 07ff 7702     		.2byte	0x277
 2284 0801 BB000000 		.4byte	0xbb
 2285 0805 3C       		.byte	0x3c
 2286 0806 09       		.uleb128 0x9
 2287 0807 C9080000 		.4byte	.LASF192
 2288 080b 08       		.byte	0x8
 2289 080c 7802     		.2byte	0x278
 2290 080e D6000000 		.4byte	0xd6
 2291 0812 40       		.byte	0x40
 2292 0813 09       		.uleb128 0x9
 2293 0814 11020000 		.4byte	.LASF193
 2294 0818 08       		.byte	0x8
 2295 0819 7902     		.2byte	0x279
 2296 081b D6000000 		.4byte	0xd6
 2297 081f 44       		.byte	0x44
 2298 0820 09       		.uleb128 0x9
 2299 0821 32030000 		.4byte	.LASF194
 2300 0825 08       		.byte	0x8
 2301 0826 7A02     		.2byte	0x27a
 2302 0828 7E060000 		.4byte	0x67e
 2303 082c 48       		.byte	0x48
 2304 082d 09       		.uleb128 0x9
 2305 082e 19020000 		.4byte	.LASF195
 2306 0832 08       		.byte	0x8
 2307 0833 7B02     		.2byte	0x27b
 2308 0835 D6000000 		.4byte	0xd6
 2309 0839 50       		.byte	0x50
 2310 083a 09       		.uleb128 0x9
 2311 083b 92010000 		.4byte	.LASF196
 2312 083f 08       		.byte	0x8
 2313 0840 7C02     		.2byte	0x27c
 2314 0842 D6000000 		.4byte	0xd6
 2315 0846 54       		.byte	0x54
 2316 0847 09       		.uleb128 0x9
 2317 0848 9A090000 		.4byte	.LASF197
 2318 084c 08       		.byte	0x8
 2319 084d 7D02     		.2byte	0x27d
 2320 084f D6000000 		.4byte	0xd6
 2321 0853 58       		.byte	0x58
 2322 0854 09       		.uleb128 0x9
 2323 0855 BC020000 		.4byte	.LASF198
 2324 0859 08       		.byte	0x8
 2325 085a 7E02     		.2byte	0x27e
 2326 085c BB000000 		.4byte	0xbb
 2327 0860 5C       		.byte	0x5c
 2328 0861 09       		.uleb128 0x9
 2329 0862 AB070000 		.4byte	.LASF199
 2330 0866 08       		.byte	0x8
 2331 0867 7F02     		.2byte	0x27f
 2332 0869 D6000000 		.4byte	0xd6
 2333 086d 60       		.byte	0x60
ARM GAS  /tmp/ccH0TlFv.s 			page 42


 2334 086e 09       		.uleb128 0x9
 2335 086f FF060000 		.4byte	.LASF200
 2336 0873 08       		.byte	0x8
 2337 0874 8002     		.2byte	0x280
 2338 0876 D6000000 		.4byte	0xd6
 2339 087a 64       		.byte	0x64
 2340 087b 09       		.uleb128 0x9
 2341 087c C6020000 		.4byte	.LASF201
 2342 0880 08       		.byte	0x8
 2343 0881 8102     		.2byte	0x281
 2344 0883 7E060000 		.4byte	0x67e
 2345 0887 68       		.byte	0x68
 2346 0888 09       		.uleb128 0x9
 2347 0889 22040000 		.4byte	.LASF202
 2348 088d 08       		.byte	0x8
 2349 088e 8202     		.2byte	0x282
 2350 0890 D6000000 		.4byte	0xd6
 2351 0894 70       		.byte	0x70
 2352 0895 08       		.uleb128 0x8
 2353 0896 43535200 		.ascii	"CSR\000"
 2354 089a 08       		.byte	0x8
 2355 089b 8302     		.2byte	0x283
 2356 089d D6000000 		.4byte	0xd6
 2357 08a1 74       		.byte	0x74
 2358 08a2 09       		.uleb128 0x9
 2359 08a3 D0020000 		.4byte	.LASF203
 2360 08a7 08       		.byte	0x8
 2361 08a8 8402     		.2byte	0x284
 2362 08aa 7E060000 		.4byte	0x67e
 2363 08ae 78       		.byte	0x78
 2364 08af 09       		.uleb128 0x9
 2365 08b0 A4060000 		.4byte	.LASF204
 2366 08b4 08       		.byte	0x8
 2367 08b5 8502     		.2byte	0x285
 2368 08b7 D6000000 		.4byte	0xd6
 2369 08bb 80       		.byte	0x80
 2370 08bc 09       		.uleb128 0x9
 2371 08bd 65000000 		.4byte	.LASF205
 2372 08c1 08       		.byte	0x8
 2373 08c2 8602     		.2byte	0x286
 2374 08c4 D6000000 		.4byte	0xd6
 2375 08c8 84       		.byte	0x84
 2376 08c9 00       		.byte	0
 2377 08ca 16       		.uleb128 0x16
 2378 08cb 790A0000 		.4byte	.LASF206
 2379 08cf 08       		.byte	0x8
 2380 08d0 8802     		.2byte	0x288
 2381 08d2 3B070000 		.4byte	0x73b
 2382 08d6 03       		.uleb128 0x3
 2383 08d7 08020000 		.4byte	.LASF207
 2384 08db 09       		.byte	0x9
 2385 08dc 65       		.byte	0x65
 2386 08dd 1E030000 		.4byte	0x31e
 2387 08e1 03       		.uleb128 0x3
 2388 08e2 EC050000 		.4byte	.LASF208
 2389 08e6 09       		.byte	0x9
 2390 08e7 6D       		.byte	0x6d
ARM GAS  /tmp/ccH0TlFv.s 			page 43


 2391 08e8 C6000000 		.4byte	0xc6
 2392 08ec 06       		.uleb128 0x6
 2393 08ed 68020000 		.4byte	.LASF209
 2394 08f1 04       		.byte	0x4
 2395 08f2 09       		.byte	0x9
 2396 08f3 89       		.byte	0x89
 2397 08f4 05090000 		.4byte	0x905
 2398 08f8 17       		.uleb128 0x17
 2399 08f9 72313300 		.ascii	"r13\000"
 2400 08fd 09       		.byte	0x9
 2401 08fe 8A       		.byte	0x8a
 2402 08ff 80090000 		.4byte	0x980
 2403 0903 00       		.byte	0
 2404 0904 00       		.byte	0
 2405 0905 06       		.uleb128 0x6
 2406 0906 79080000 		.4byte	.LASF210
 2407 090a 24       		.byte	0x24
 2408 090b 0A       		.byte	0xa
 2409 090c F4       		.byte	0xf4
 2410 090d 80090000 		.4byte	0x980
 2411 0911 08       		.uleb128 0x8
 2412 0912 723400   		.ascii	"r4\000"
 2413 0915 0A       		.byte	0xa
 2414 0916 0701     		.2byte	0x107
 2415 0918 D6080000 		.4byte	0x8d6
 2416 091c 00       		.byte	0
 2417 091d 08       		.uleb128 0x8
 2418 091e 723500   		.ascii	"r5\000"
 2419 0921 0A       		.byte	0xa
 2420 0922 0801     		.2byte	0x108
 2421 0924 D6080000 		.4byte	0x8d6
 2422 0928 04       		.byte	0x4
 2423 0929 08       		.uleb128 0x8
 2424 092a 723600   		.ascii	"r6\000"
 2425 092d 0A       		.byte	0xa
 2426 092e 0901     		.2byte	0x109
 2427 0930 D6080000 		.4byte	0x8d6
 2428 0934 08       		.byte	0x8
 2429 0935 08       		.uleb128 0x8
 2430 0936 723700   		.ascii	"r7\000"
 2431 0939 0A       		.byte	0xa
 2432 093a 0A01     		.2byte	0x10a
 2433 093c D6080000 		.4byte	0x8d6
 2434 0940 0C       		.byte	0xc
 2435 0941 08       		.uleb128 0x8
 2436 0942 723800   		.ascii	"r8\000"
 2437 0945 0A       		.byte	0xa
 2438 0946 0B01     		.2byte	0x10b
 2439 0948 D6080000 		.4byte	0x8d6
 2440 094c 10       		.byte	0x10
 2441 094d 08       		.uleb128 0x8
 2442 094e 723900   		.ascii	"r9\000"
 2443 0951 0A       		.byte	0xa
 2444 0952 0C01     		.2byte	0x10c
 2445 0954 D6080000 		.4byte	0x8d6
 2446 0958 14       		.byte	0x14
 2447 0959 08       		.uleb128 0x8
ARM GAS  /tmp/ccH0TlFv.s 			page 44


 2448 095a 72313000 		.ascii	"r10\000"
 2449 095e 0A       		.byte	0xa
 2450 095f 0D01     		.2byte	0x10d
 2451 0961 D6080000 		.4byte	0x8d6
 2452 0965 18       		.byte	0x18
 2453 0966 08       		.uleb128 0x8
 2454 0967 72313100 		.ascii	"r11\000"
 2455 096b 0A       		.byte	0xa
 2456 096c 0E01     		.2byte	0x10e
 2457 096e D6080000 		.4byte	0x8d6
 2458 0972 1C       		.byte	0x1c
 2459 0973 08       		.uleb128 0x8
 2460 0974 6C7200   		.ascii	"lr\000"
 2461 0977 0A       		.byte	0xa
 2462 0978 0F01     		.2byte	0x10f
 2463 097a D6080000 		.4byte	0x8d6
 2464 097e 20       		.byte	0x20
 2465 097f 00       		.byte	0
 2466 0980 0A       		.uleb128 0xa
 2467 0981 04       		.byte	0x4
 2468 0982 05090000 		.4byte	0x905
 2469 0986 18       		.uleb128 0x18
 2470 0987 04       		.byte	0x4
 2471 0988 0B       		.byte	0xb
 2472 0989 38       		.byte	0x38
 2473 098a 9B090000 		.4byte	0x99b
 2474 098e 07       		.uleb128 0x7
 2475 098f A4070000 		.4byte	.LASF211
 2476 0993 0B       		.byte	0xb
 2477 0994 3C       		.byte	0x3c
 2478 0995 DB000000 		.4byte	0xdb
 2479 0999 00       		.byte	0
 2480 099a 00       		.byte	0
 2481 099b 03       		.uleb128 0x3
 2482 099c 2B0A0000 		.4byte	.LASF212
 2483 09a0 0B       		.byte	0xb
 2484 09a1 3D       		.byte	0x3d
 2485 09a2 86090000 		.4byte	0x986
 2486 09a6 19       		.uleb128 0x19
 2487 09a7 04       		.byte	0x4
 2488 09a8 07       		.byte	0x7
 2489 09a9 FA       		.byte	0xfa
 2490 09aa 030A0000 		.4byte	0xa03
 2491 09ae 1A       		.uleb128 0x1a
 2492 09af 630C0000 		.4byte	.LASF213
 2493 09b3 07       		.byte	0x7
 2494 09b4 0101     		.2byte	0x101
 2495 09b6 12010000 		.4byte	0x112
 2496 09ba 1A       		.uleb128 0x1a
 2497 09bb 50010000 		.4byte	.LASF214
 2498 09bf 07       		.byte	0x7
 2499 09c0 0801     		.2byte	0x108
 2500 09c2 12010000 		.4byte	0x112
 2501 09c6 1A       		.uleb128 0x1a
 2502 09c7 80030000 		.4byte	.LASF215
 2503 09cb 07       		.byte	0x7
 2504 09cc 0F01     		.2byte	0x10f
ARM GAS  /tmp/ccH0TlFv.s 			page 45


 2505 09ce 1E030000 		.4byte	0x31e
 2506 09d2 1A       		.uleb128 0x1a
 2507 09d3 70020000 		.4byte	.LASF216
 2508 09d7 07       		.byte	0x7
 2509 09d8 1601     		.2byte	0x116
 2510 09da 030A0000 		.4byte	0xa03
 2511 09de 1A       		.uleb128 0x1a
 2512 09df 54000000 		.4byte	.LASF217
 2513 09e3 07       		.byte	0x7
 2514 09e4 1E01     		.2byte	0x11e
 2515 09e6 2E0A0000 		.4byte	0xa2e
 2516 09ea 1A       		.uleb128 0x1a
 2517 09eb 56040000 		.4byte	.LASF218
 2518 09ef 07       		.byte	0x7
 2519 09f0 2701     		.2byte	0x127
 2520 09f2 650A0000 		.4byte	0xa65
 2521 09f6 1A       		.uleb128 0x1a
 2522 09f7 48020000 		.4byte	.LASF219
 2523 09fb 07       		.byte	0x7
 2524 09fc 2F01     		.2byte	0x12f
 2525 09fe 1D010000 		.4byte	0x11d
 2526 0a02 00       		.byte	0
 2527 0a03 0A       		.uleb128 0xa
 2528 0a04 04       		.byte	0x4
 2529 0a05 36020000 		.4byte	0x236
 2530 0a09 06       		.uleb128 0x6
 2531 0a0a 49050000 		.4byte	.LASF220
 2532 0a0e 0C       		.byte	0xc
 2533 0a0f 0C       		.byte	0xc
 2534 0a10 34       		.byte	0x34
 2535 0a11 2E0A0000 		.4byte	0xa2e
 2536 0a15 07       		.uleb128 0x7
 2537 0a16 530A0000 		.4byte	.LASF221
 2538 0a1a 0C       		.byte	0xc
 2539 0a1b 35       		.byte	0x35
 2540 0a1c 6B020000 		.4byte	0x26b
 2541 0a20 00       		.byte	0
 2542 0a21 07       		.uleb128 0x7
 2543 0a22 D1080000 		.4byte	.LASF222
 2544 0a26 0C       		.byte	0xc
 2545 0a27 37       		.byte	0x37
 2546 0a28 28010000 		.4byte	0x128
 2547 0a2c 08       		.byte	0x8
 2548 0a2d 00       		.byte	0
 2549 0a2e 0A       		.uleb128 0xa
 2550 0a2f 04       		.byte	0x4
 2551 0a30 090A0000 		.4byte	0xa09
 2552 0a34 06       		.uleb128 0x6
 2553 0a35 AA0A0000 		.4byte	.LASF223
 2554 0a39 10       		.byte	0x10
 2555 0a3a 0D       		.byte	0xd
 2556 0a3b 39       		.byte	0x39
 2557 0a3c 650A0000 		.4byte	0xa65
 2558 0a40 07       		.uleb128 0x7
 2559 0a41 9C060000 		.4byte	.LASF224
 2560 0a45 0D       		.byte	0xd
 2561 0a46 3A       		.byte	0x3a
ARM GAS  /tmp/ccH0TlFv.s 			page 46


 2562 0a47 6B020000 		.4byte	0x26b
 2563 0a4b 00       		.byte	0
 2564 0a4c 07       		.uleb128 0x7
 2565 0a4d 37010000 		.4byte	.LASF225
 2566 0a51 0D       		.byte	0xd
 2567 0a52 3C       		.byte	0x3c
 2568 0a53 41020000 		.4byte	0x241
 2569 0a57 08       		.byte	0x8
 2570 0a58 07       		.uleb128 0x7
 2571 0a59 030D0000 		.4byte	.LASF226
 2572 0a5d 0D       		.byte	0xd
 2573 0a5e 3E       		.byte	0x3e
 2574 0a5f A30A0000 		.4byte	0xaa3
 2575 0a63 0C       		.byte	0xc
 2576 0a64 00       		.byte	0
 2577 0a65 0A       		.uleb128 0xa
 2578 0a66 04       		.byte	0x4
 2579 0a67 340A0000 		.4byte	0xa34
 2580 0a6b 0A       		.uleb128 0xa
 2581 0a6c 04       		.byte	0x4
 2582 0a6d 780A0000 		.4byte	0xa78
 2583 0a71 04       		.uleb128 0x4
 2584 0a72 01       		.byte	0x1
 2585 0a73 08       		.byte	0x8
 2586 0a74 5C030000 		.4byte	.LASF227
 2587 0a78 1B       		.uleb128 0x1b
 2588 0a79 710A0000 		.4byte	0xa71
 2589 0a7d 0A       		.uleb128 0xa
 2590 0a7e 04       		.byte	0x4
 2591 0a7f 20030000 		.4byte	0x320
 2592 0a83 05       		.uleb128 0x5
 2593 0a84 6B0A0000 		.4byte	0xa6b
 2594 0a88 13       		.uleb128 0x13
 2595 0a89 E1080000 		.4byte	0x8e1
 2596 0a8d 980A0000 		.4byte	0xa98
 2597 0a91 14       		.uleb128 0x14
 2598 0a92 77060000 		.4byte	0x677
 2599 0a96 1A       		.byte	0x1a
 2600 0a97 00       		.byte	0
 2601 0a98 03       		.uleb128 0x3
 2602 0a99 E70B0000 		.4byte	.LASF228
 2603 0a9d 0D       		.byte	0xd
 2604 0a9e 34       		.byte	0x34
 2605 0a9f 340A0000 		.4byte	0xa34
 2606 0aa3 0A       		.uleb128 0xa
 2607 0aa4 04       		.byte	0x4
 2608 0aa5 980A0000 		.4byte	0xa98
 2609 0aa9 18       		.uleb128 0x18
 2610 0aaa 0C       		.byte	0xc
 2611 0aab 0E       		.byte	0xe
 2612 0aac DA       		.byte	0xda
 2613 0aad EE0A0000 		.4byte	0xaee
 2614 0ab1 07       		.uleb128 0x7
 2615 0ab2 01040000 		.4byte	.LASF229
 2616 0ab6 0E       		.byte	0xe
 2617 0ab7 DB       		.byte	0xdb
 2618 0ab8 EE0A0000 		.4byte	0xaee
ARM GAS  /tmp/ccH0TlFv.s 			page 47


 2619 0abc 00       		.byte	0
 2620 0abd 07       		.uleb128 0x7
 2621 0abe F70C0000 		.4byte	.LASF230
 2622 0ac2 0E       		.byte	0xe
 2623 0ac3 DC       		.byte	0xdc
 2624 0ac4 F40A0000 		.4byte	0xaf4
 2625 0ac8 04       		.byte	0x4
 2626 0ac9 07       		.uleb128 0x7
 2627 0aca 61030000 		.4byte	.LASF231
 2628 0ace 0E       		.byte	0xe
 2629 0acf DD       		.byte	0xdd
 2630 0ad0 A5000000 		.4byte	0xa5
 2631 0ad4 08       		.byte	0x8
 2632 0ad5 07       		.uleb128 0x7
 2633 0ad6 6F0A0000 		.4byte	.LASF232
 2634 0ada 0E       		.byte	0xe
 2635 0adb DF       		.byte	0xdf
 2636 0adc A5000000 		.4byte	0xa5
 2637 0ae0 09       		.byte	0x9
 2638 0ae1 07       		.uleb128 0x7
 2639 0ae2 75090000 		.4byte	.LASF233
 2640 0ae6 0E       		.byte	0xe
 2641 0ae7 E0       		.byte	0xe0
 2642 0ae8 A5000000 		.4byte	0xa5
 2643 0aec 0A       		.byte	0xa
 2644 0aed 00       		.byte	0
 2645 0aee 0A       		.uleb128 0xa
 2646 0aef 04       		.byte	0x4
 2647 0af0 E5060000 		.4byte	0x6e5
 2648 0af4 0A       		.uleb128 0xa
 2649 0af5 04       		.byte	0x4
 2650 0af6 D6000000 		.4byte	0xd6
 2651 0afa 03       		.uleb128 0x3
 2652 0afb 1E000000 		.4byte	.LASF234
 2653 0aff 0E       		.byte	0xe
 2654 0b00 E1       		.byte	0xe1
 2655 0b01 A90A0000 		.4byte	0xaa9
 2656 0b05 03       		.uleb128 0x3
 2657 0b06 73070000 		.4byte	.LASF235
 2658 0b0a 0E       		.byte	0xe
 2659 0b0b EA       		.byte	0xea
 2660 0b0c 100B0000 		.4byte	0xb10
 2661 0b10 0A       		.uleb128 0xa
 2662 0b11 04       		.byte	0x4
 2663 0b12 160B0000 		.4byte	0xb16
 2664 0b16 0C       		.uleb128 0xc
 2665 0b17 260B0000 		.4byte	0xb26
 2666 0b1b 0D       		.uleb128 0xd
 2667 0b1c 1E030000 		.4byte	0x31e
 2668 0b20 0D       		.uleb128 0xd
 2669 0b21 BB000000 		.4byte	0xbb
 2670 0b25 00       		.byte	0
 2671 0b26 04       		.uleb128 0x4
 2672 0b27 01       		.byte	0x1
 2673 0b28 02       		.byte	0x2
 2674 0b29 22030000 		.4byte	.LASF236
 2675 0b2d 0A       		.uleb128 0xa
ARM GAS  /tmp/ccH0TlFv.s 			page 48


 2676 0b2e 04       		.byte	0x4
 2677 0b2f 330B0000 		.4byte	0xb33
 2678 0b33 1B       		.uleb128 0x1b
 2679 0b34 FA0A0000 		.4byte	0xafa
 2680 0b38 18       		.uleb128 0x18
 2681 0b39 08       		.byte	0x8
 2682 0b3a 01       		.byte	0x1
 2683 0b3b 63       		.byte	0x63
 2684 0b3c 590B0000 		.4byte	0xb59
 2685 0b40 07       		.uleb128 0x7
 2686 0b41 27040000 		.4byte	.LASF237
 2687 0b45 01       		.byte	0x1
 2688 0b46 64       		.byte	0x64
 2689 0b47 050B0000 		.4byte	0xb05
 2690 0b4b 00       		.byte	0
 2691 0b4c 07       		.uleb128 0x7
 2692 0b4d B60B0000 		.4byte	.LASF238
 2693 0b51 01       		.byte	0x1
 2694 0b52 65       		.byte	0x65
 2695 0b53 1E030000 		.4byte	0x31e
 2696 0b57 04       		.byte	0x4
 2697 0b58 00       		.byte	0
 2698 0b59 03       		.uleb128 0x3
 2699 0b5a 03080000 		.4byte	.LASF239
 2700 0b5e 01       		.byte	0x1
 2701 0b5f 66       		.byte	0x66
 2702 0b60 380B0000 		.4byte	0xb38
 2703 0b64 1C       		.uleb128 0x1c
 2704 0b65 D6050000 		.4byte	.LASF240
 2705 0b69 01       		.byte	0x1
 2706 0b6a 7F       		.byte	0x7f
 2707 0b6b 00000000 		.4byte	.LFB258
 2708 0b6f 28000000 		.4byte	.LFE258-.LFB258
 2709 0b73 01       		.uleb128 0x1
 2710 0b74 9C       		.byte	0x9c
 2711 0b75 920B0000 		.4byte	0xb92
 2712 0b79 1D       		.uleb128 0x1d
 2713 0b7a A0030000 		.4byte	.LASF242
 2714 0b7e 01       		.byte	0x1
 2715 0b7f 80       		.byte	0x80
 2716 0b80 BB000000 		.4byte	0xbb
 2717 0b84 00000000 		.4byte	.LLST0
 2718 0b88 1E       		.uleb128 0x1e
 2719 0b89 1E000000 		.4byte	.LVL2
 2720 0b8d B80F0000 		.4byte	0xfb8
 2721 0b91 00       		.byte	0
 2722 0b92 1C       		.uleb128 0x1c
 2723 0b93 28060000 		.4byte	.LASF241
 2724 0b97 01       		.byte	0x1
 2725 0b98 91       		.byte	0x91
 2726 0b99 00000000 		.4byte	.LFB259
 2727 0b9d 2C000000 		.4byte	.LFE259-.LFB259
 2728 0ba1 01       		.uleb128 0x1
 2729 0ba2 9C       		.byte	0x9c
 2730 0ba3 C00B0000 		.4byte	0xbc0
 2731 0ba7 1D       		.uleb128 0x1d
 2732 0ba8 A0030000 		.4byte	.LASF242
ARM GAS  /tmp/ccH0TlFv.s 			page 49


 2733 0bac 01       		.byte	0x1
 2734 0bad 92       		.byte	0x92
 2735 0bae BB000000 		.4byte	0xbb
 2736 0bb2 13000000 		.4byte	.LLST1
 2737 0bb6 1E       		.uleb128 0x1e
 2738 0bb7 22000000 		.4byte	.LVL5
 2739 0bbb B80F0000 		.4byte	0xfb8
 2740 0bbf 00       		.byte	0
 2741 0bc0 1C       		.uleb128 0x1c
 2742 0bc1 44060000 		.4byte	.LASF243
 2743 0bc5 01       		.byte	0x1
 2744 0bc6 A3       		.byte	0xa3
 2745 0bc7 00000000 		.4byte	.LFB260
 2746 0bcb 2C000000 		.4byte	.LFE260-.LFB260
 2747 0bcf 01       		.uleb128 0x1
 2748 0bd0 9C       		.byte	0x9c
 2749 0bd1 EE0B0000 		.4byte	0xbee
 2750 0bd5 1D       		.uleb128 0x1d
 2751 0bd6 A0030000 		.4byte	.LASF242
 2752 0bda 01       		.byte	0x1
 2753 0bdb A4       		.byte	0xa4
 2754 0bdc BB000000 		.4byte	0xbb
 2755 0be0 26000000 		.4byte	.LLST2
 2756 0be4 1E       		.uleb128 0x1e
 2757 0be5 22000000 		.4byte	.LVL8
 2758 0be9 B80F0000 		.4byte	0xfb8
 2759 0bed 00       		.byte	0
 2760 0bee 1C       		.uleb128 0x1c
 2761 0bef 4D060000 		.4byte	.LASF244
 2762 0bf3 01       		.byte	0x1
 2763 0bf4 B5       		.byte	0xb5
 2764 0bf5 00000000 		.4byte	.LFB261
 2765 0bf9 2C000000 		.4byte	.LFE261-.LFB261
 2766 0bfd 01       		.uleb128 0x1
 2767 0bfe 9C       		.byte	0x9c
 2768 0bff 1C0C0000 		.4byte	0xc1c
 2769 0c03 1D       		.uleb128 0x1d
 2770 0c04 A0030000 		.4byte	.LASF242
 2771 0c08 01       		.byte	0x1
 2772 0c09 B6       		.byte	0xb6
 2773 0c0a BB000000 		.4byte	0xbb
 2774 0c0e 39000000 		.4byte	.LLST3
 2775 0c12 1E       		.uleb128 0x1e
 2776 0c13 22000000 		.4byte	.LVL11
 2777 0c17 B80F0000 		.4byte	0xfb8
 2778 0c1b 00       		.byte	0
 2779 0c1c 1C       		.uleb128 0x1c
 2780 0c1d 56060000 		.4byte	.LASF245
 2781 0c21 01       		.byte	0x1
 2782 0c22 C7       		.byte	0xc7
 2783 0c23 00000000 		.4byte	.LFB262
 2784 0c27 28000000 		.4byte	.LFE262-.LFB262
 2785 0c2b 01       		.uleb128 0x1
 2786 0c2c 9C       		.byte	0x9c
 2787 0c2d 4A0C0000 		.4byte	0xc4a
 2788 0c31 1D       		.uleb128 0x1d
 2789 0c32 A0030000 		.4byte	.LASF242
ARM GAS  /tmp/ccH0TlFv.s 			page 50


 2790 0c36 01       		.byte	0x1
 2791 0c37 C8       		.byte	0xc8
 2792 0c38 BB000000 		.4byte	0xbb
 2793 0c3c 4C000000 		.4byte	.LLST4
 2794 0c40 1E       		.uleb128 0x1e
 2795 0c41 1E000000 		.4byte	.LVL14
 2796 0c45 B80F0000 		.4byte	0xfb8
 2797 0c49 00       		.byte	0
 2798 0c4a 1C       		.uleb128 0x1c
 2799 0c4b BC060000 		.4byte	.LASF246
 2800 0c4f 01       		.byte	0x1
 2801 0c50 D9       		.byte	0xd9
 2802 0c51 00000000 		.4byte	.LFB263
 2803 0c55 2C000000 		.4byte	.LFE263-.LFB263
 2804 0c59 01       		.uleb128 0x1
 2805 0c5a 9C       		.byte	0x9c
 2806 0c5b 780C0000 		.4byte	0xc78
 2807 0c5f 1D       		.uleb128 0x1d
 2808 0c60 A0030000 		.4byte	.LASF242
 2809 0c64 01       		.byte	0x1
 2810 0c65 DA       		.byte	0xda
 2811 0c66 BB000000 		.4byte	0xbb
 2812 0c6a 5F000000 		.4byte	.LLST5
 2813 0c6e 1E       		.uleb128 0x1e
 2814 0c6f 22000000 		.4byte	.LVL17
 2815 0c73 B80F0000 		.4byte	0xfb8
 2816 0c77 00       		.byte	0
 2817 0c78 1C       		.uleb128 0x1c
 2818 0c79 C5060000 		.4byte	.LASF247
 2819 0c7d 01       		.byte	0x1
 2820 0c7e EB       		.byte	0xeb
 2821 0c7f 00000000 		.4byte	.LFB264
 2822 0c83 2C000000 		.4byte	.LFE264-.LFB264
 2823 0c87 01       		.uleb128 0x1
 2824 0c88 9C       		.byte	0x9c
 2825 0c89 A60C0000 		.4byte	0xca6
 2826 0c8d 1D       		.uleb128 0x1d
 2827 0c8e A0030000 		.4byte	.LASF242
 2828 0c92 01       		.byte	0x1
 2829 0c93 EC       		.byte	0xec
 2830 0c94 BB000000 		.4byte	0xbb
 2831 0c98 72000000 		.4byte	.LLST6
 2832 0c9c 1E       		.uleb128 0x1e
 2833 0c9d 22000000 		.4byte	.LVL20
 2834 0ca1 B80F0000 		.4byte	0xfb8
 2835 0ca5 00       		.byte	0
 2836 0ca6 1C       		.uleb128 0x1c
 2837 0ca7 0A0D0000 		.4byte	.LASF248
 2838 0cab 01       		.byte	0x1
 2839 0cac FD       		.byte	0xfd
 2840 0cad 00000000 		.4byte	.LFB265
 2841 0cb1 2C000000 		.4byte	.LFE265-.LFB265
 2842 0cb5 01       		.uleb128 0x1
 2843 0cb6 9C       		.byte	0x9c
 2844 0cb7 D40C0000 		.4byte	0xcd4
 2845 0cbb 1D       		.uleb128 0x1d
 2846 0cbc A0030000 		.4byte	.LASF242
ARM GAS  /tmp/ccH0TlFv.s 			page 51


 2847 0cc0 01       		.byte	0x1
 2848 0cc1 FE       		.byte	0xfe
 2849 0cc2 BB000000 		.4byte	0xbb
 2850 0cc6 85000000 		.4byte	.LLST7
 2851 0cca 1E       		.uleb128 0x1e
 2852 0ccb 22000000 		.4byte	.LVL23
 2853 0ccf B80F0000 		.4byte	0xfb8
 2854 0cd3 00       		.byte	0
 2855 0cd4 1F       		.uleb128 0x1f
 2856 0cd5 46010000 		.4byte	.LASF249
 2857 0cd9 01       		.byte	0x1
 2858 0cda 0F01     		.2byte	0x10f
 2859 0cdc 00000000 		.4byte	.LFB266
 2860 0ce0 28000000 		.4byte	.LFE266-.LFB266
 2861 0ce4 01       		.uleb128 0x1
 2862 0ce5 9C       		.byte	0x9c
 2863 0ce6 040D0000 		.4byte	0xd04
 2864 0cea 20       		.uleb128 0x20
 2865 0ceb A0030000 		.4byte	.LASF242
 2866 0cef 01       		.byte	0x1
 2867 0cf0 1001     		.2byte	0x110
 2868 0cf2 BB000000 		.4byte	0xbb
 2869 0cf6 98000000 		.4byte	.LLST8
 2870 0cfa 1E       		.uleb128 0x1e
 2871 0cfb 1E000000 		.4byte	.LVL26
 2872 0cff B80F0000 		.4byte	0xfb8
 2873 0d03 00       		.byte	0
 2874 0d04 1F       		.uleb128 0x1f
 2875 0d05 3F090000 		.4byte	.LASF250
 2876 0d09 01       		.byte	0x1
 2877 0d0a 2101     		.2byte	0x121
 2878 0d0c 00000000 		.4byte	.LFB267
 2879 0d10 2C000000 		.4byte	.LFE267-.LFB267
 2880 0d14 01       		.uleb128 0x1
 2881 0d15 9C       		.byte	0x9c
 2882 0d16 340D0000 		.4byte	0xd34
 2883 0d1a 20       		.uleb128 0x20
 2884 0d1b A0030000 		.4byte	.LASF242
 2885 0d1f 01       		.byte	0x1
 2886 0d20 2201     		.2byte	0x122
 2887 0d22 BB000000 		.4byte	0xbb
 2888 0d26 AB000000 		.4byte	.LLST9
 2889 0d2a 1E       		.uleb128 0x1e
 2890 0d2b 22000000 		.4byte	.LVL29
 2891 0d2f B80F0000 		.4byte	0xfb8
 2892 0d33 00       		.byte	0
 2893 0d34 1F       		.uleb128 0x1f
 2894 0d35 49090000 		.4byte	.LASF251
 2895 0d39 01       		.byte	0x1
 2896 0d3a 3301     		.2byte	0x133
 2897 0d3c 00000000 		.4byte	.LFB268
 2898 0d40 2C000000 		.4byte	.LFE268-.LFB268
 2899 0d44 01       		.uleb128 0x1
 2900 0d45 9C       		.byte	0x9c
 2901 0d46 640D0000 		.4byte	0xd64
 2902 0d4a 20       		.uleb128 0x20
 2903 0d4b A0030000 		.4byte	.LASF242
ARM GAS  /tmp/ccH0TlFv.s 			page 52


 2904 0d4f 01       		.byte	0x1
 2905 0d50 3401     		.2byte	0x134
 2906 0d52 BB000000 		.4byte	0xbb
 2907 0d56 BE000000 		.4byte	.LLST10
 2908 0d5a 1E       		.uleb128 0x1e
 2909 0d5b 22000000 		.4byte	.LVL32
 2910 0d5f B80F0000 		.4byte	0xfb8
 2911 0d63 00       		.byte	0
 2912 0d64 1F       		.uleb128 0x1f
 2913 0d65 53090000 		.4byte	.LASF252
 2914 0d69 01       		.byte	0x1
 2915 0d6a 4501     		.2byte	0x145
 2916 0d6c 00000000 		.4byte	.LFB269
 2917 0d70 2C000000 		.4byte	.LFE269-.LFB269
 2918 0d74 01       		.uleb128 0x1
 2919 0d75 9C       		.byte	0x9c
 2920 0d76 940D0000 		.4byte	0xd94
 2921 0d7a 20       		.uleb128 0x20
 2922 0d7b A0030000 		.4byte	.LASF242
 2923 0d7f 01       		.byte	0x1
 2924 0d80 4601     		.2byte	0x146
 2925 0d82 BB000000 		.4byte	0xbb
 2926 0d86 D1000000 		.4byte	.LLST11
 2927 0d8a 1E       		.uleb128 0x1e
 2928 0d8b 22000000 		.4byte	.LVL35
 2929 0d8f B80F0000 		.4byte	0xfb8
 2930 0d93 00       		.byte	0
 2931 0d94 1F       		.uleb128 0x1f
 2932 0d95 90090000 		.4byte	.LASF253
 2933 0d99 01       		.byte	0x1
 2934 0d9a 5701     		.2byte	0x157
 2935 0d9c 00000000 		.4byte	.LFB270
 2936 0da0 28000000 		.4byte	.LFE270-.LFB270
 2937 0da4 01       		.uleb128 0x1
 2938 0da5 9C       		.byte	0x9c
 2939 0da6 C40D0000 		.4byte	0xdc4
 2940 0daa 20       		.uleb128 0x20
 2941 0dab A0030000 		.4byte	.LASF242
 2942 0daf 01       		.byte	0x1
 2943 0db0 5801     		.2byte	0x158
 2944 0db2 BB000000 		.4byte	0xbb
 2945 0db6 E4000000 		.4byte	.LLST12
 2946 0dba 1E       		.uleb128 0x1e
 2947 0dbb 1E000000 		.4byte	.LVL38
 2948 0dbf B80F0000 		.4byte	0xfb8
 2949 0dc3 00       		.byte	0
 2950 0dc4 1F       		.uleb128 0x1f
 2951 0dc5 5B0A0000 		.4byte	.LASF254
 2952 0dc9 01       		.byte	0x1
 2953 0dca 6901     		.2byte	0x169
 2954 0dcc 00000000 		.4byte	.LFB271
 2955 0dd0 2C000000 		.4byte	.LFE271-.LFB271
 2956 0dd4 01       		.uleb128 0x1
 2957 0dd5 9C       		.byte	0x9c
 2958 0dd6 F40D0000 		.4byte	0xdf4
 2959 0dda 20       		.uleb128 0x20
 2960 0ddb A0030000 		.4byte	.LASF242
ARM GAS  /tmp/ccH0TlFv.s 			page 53


 2961 0ddf 01       		.byte	0x1
 2962 0de0 6A01     		.2byte	0x16a
 2963 0de2 BB000000 		.4byte	0xbb
 2964 0de6 F7000000 		.4byte	.LLST13
 2965 0dea 1E       		.uleb128 0x1e
 2966 0deb 22000000 		.4byte	.LVL41
 2967 0def B80F0000 		.4byte	0xfb8
 2968 0df3 00       		.byte	0
 2969 0df4 1F       		.uleb128 0x1f
 2970 0df5 650A0000 		.4byte	.LASF255
 2971 0df9 01       		.byte	0x1
 2972 0dfa 7B01     		.2byte	0x17b
 2973 0dfc 00000000 		.4byte	.LFB272
 2974 0e00 2C000000 		.4byte	.LFE272-.LFB272
 2975 0e04 01       		.uleb128 0x1
 2976 0e05 9C       		.byte	0x9c
 2977 0e06 240E0000 		.4byte	0xe24
 2978 0e0a 20       		.uleb128 0x20
 2979 0e0b A0030000 		.4byte	.LASF242
 2980 0e0f 01       		.byte	0x1
 2981 0e10 7C01     		.2byte	0x17c
 2982 0e12 BB000000 		.4byte	0xbb
 2983 0e16 0A010000 		.4byte	.LLST14
 2984 0e1a 1E       		.uleb128 0x1e
 2985 0e1b 22000000 		.4byte	.LVL44
 2986 0e1f B80F0000 		.4byte	0xfb8
 2987 0e23 00       		.byte	0
 2988 0e24 1F       		.uleb128 0x1f
 2989 0e25 F9070000 		.4byte	.LASF256
 2990 0e29 01       		.byte	0x1
 2991 0e2a 8D01     		.2byte	0x18d
 2992 0e2c 00000000 		.4byte	.LFB273
 2993 0e30 2C000000 		.4byte	.LFE273-.LFB273
 2994 0e34 01       		.uleb128 0x1
 2995 0e35 9C       		.byte	0x9c
 2996 0e36 540E0000 		.4byte	0xe54
 2997 0e3a 20       		.uleb128 0x20
 2998 0e3b A0030000 		.4byte	.LASF242
 2999 0e3f 01       		.byte	0x1
 3000 0e40 8E01     		.2byte	0x18e
 3001 0e42 BB000000 		.4byte	0xbb
 3002 0e46 1D010000 		.4byte	.LLST15
 3003 0e4a 1E       		.uleb128 0x1e
 3004 0e4b 22000000 		.4byte	.LVL47
 3005 0e4f B80F0000 		.4byte	0xfb8
 3006 0e53 00       		.byte	0
 3007 0e54 21       		.uleb128 0x21
 3008 0e55 08040000 		.4byte	.LASF257
 3009 0e59 01       		.byte	0x1
 3010 0e5a A301     		.2byte	0x1a3
 3011 0e5c 00000000 		.4byte	.LFB274
 3012 0e60 54000000 		.4byte	.LFE274-.LFB274
 3013 0e64 01       		.uleb128 0x1
 3014 0e65 9C       		.byte	0x9c
 3015 0e66 790E0000 		.4byte	0xe79
 3016 0e6a 22       		.uleb128 0x22
 3017 0e6b 6900     		.ascii	"i\000"
ARM GAS  /tmp/ccH0TlFv.s 			page 54


 3018 0e6d 01       		.byte	0x1
 3019 0e6e A401     		.2byte	0x1a4
 3020 0e70 21000000 		.4byte	0x21
 3021 0e74 30010000 		.4byte	.LLST16
 3022 0e78 00       		.byte	0
 3023 0e79 23       		.uleb128 0x23
 3024 0e7a 10040000 		.4byte	.LASF273
 3025 0e7e 01       		.byte	0x1
 3026 0e7f C901     		.2byte	0x1c9
 3027 0e81 260B0000 		.4byte	0xb26
 3028 0e85 00000000 		.4byte	.LFB275
 3029 0e89 8C000000 		.4byte	.LFE275-.LFB275
 3030 0e8d 01       		.uleb128 0x1
 3031 0e8e 9C       		.byte	0x9c
 3032 0e8f E60E0000 		.4byte	0xee6
 3033 0e93 24       		.uleb128 0x24
 3034 0e94 26050000 		.4byte	.LASF258
 3035 0e98 01       		.byte	0x1
 3036 0e99 C901     		.2byte	0x1c9
 3037 0e9b 2D0B0000 		.4byte	0xb2d
 3038 0e9f 4F010000 		.4byte	.LLST17
 3039 0ea3 24       		.uleb128 0x24
 3040 0ea4 A10A0000 		.4byte	.LASF259
 3041 0ea8 01       		.byte	0x1
 3042 0ea9 CA01     		.2byte	0x1ca
 3043 0eab BB000000 		.4byte	0xbb
 3044 0eaf A2010000 		.4byte	.LLST18
 3045 0eb3 24       		.uleb128 0x24
 3046 0eb4 57020000 		.4byte	.LASF260
 3047 0eb8 01       		.byte	0x1
 3048 0eb9 CB01     		.2byte	0x1cb
 3049 0ebb 050B0000 		.4byte	0xb05
 3050 0ebf CE010000 		.4byte	.LLST19
 3051 0ec3 24       		.uleb128 0x24
 3052 0ec4 43050000 		.4byte	.LASF261
 3053 0ec8 01       		.byte	0x1
 3054 0ec9 CC01     		.2byte	0x1cc
 3055 0ecb 1E030000 		.4byte	0x31e
 3056 0ecf FA010000 		.4byte	.LLST20
 3057 0ed3 25       		.uleb128 0x25
 3058 0ed4 C8000000 		.4byte	.LASF263
 3059 0ed8 F60E0000 		.4byte	0xef6
 3060 0edc 26       		.uleb128 0x26
 3061 0edd 68000000 		.4byte	.LVL56
 3062 0ee1 C40F0000 		.4byte	0xfc4
 3063 0ee5 00       		.byte	0
 3064 0ee6 13       		.uleb128 0x13
 3065 0ee7 780A0000 		.4byte	0xa78
 3066 0eeb F60E0000 		.4byte	0xef6
 3067 0eef 14       		.uleb128 0x14
 3068 0ef0 77060000 		.4byte	0x677
 3069 0ef4 11       		.byte	0x11
 3070 0ef5 00       		.byte	0
 3071 0ef6 1B       		.uleb128 0x1b
 3072 0ef7 E60E0000 		.4byte	0xee6
 3073 0efb 21       		.uleb128 0x21
 3074 0efc A0000000 		.4byte	.LASF262
ARM GAS  /tmp/ccH0TlFv.s 			page 55


 3075 0f00 01       		.byte	0x1
 3076 0f01 F801     		.2byte	0x1f8
 3077 0f03 00000000 		.4byte	.LFB276
 3078 0f07 44000000 		.4byte	.LFE276-.LFB276
 3079 0f0b 01       		.uleb128 0x1
 3080 0f0c 9C       		.byte	0x9c
 3081 0f0d 340F0000 		.4byte	0xf34
 3082 0f11 24       		.uleb128 0x24
 3083 0f12 26050000 		.4byte	.LASF258
 3084 0f16 01       		.byte	0x1
 3085 0f17 F801     		.2byte	0x1f8
 3086 0f19 2D0B0000 		.4byte	0xb2d
 3087 0f1d 4A020000 		.4byte	.LLST21
 3088 0f21 25       		.uleb128 0x25
 3089 0f22 C8000000 		.4byte	.LASF263
 3090 0f26 440F0000 		.4byte	0xf44
 3091 0f2a 26       		.uleb128 0x26
 3092 0f2b 0A000000 		.4byte	.LVL64
 3093 0f2f CF0F0000 		.4byte	0xfcf
 3094 0f33 00       		.byte	0
 3095 0f34 13       		.uleb128 0x13
 3096 0f35 780A0000 		.4byte	0xa78
 3097 0f39 440F0000 		.4byte	0xf44
 3098 0f3d 14       		.uleb128 0x14
 3099 0f3e 77060000 		.4byte	0x677
 3100 0f42 10       		.byte	0x10
 3101 0f43 00       		.byte	0
 3102 0f44 1B       		.uleb128 0x1b
 3103 0f45 340F0000 		.4byte	0xf34
 3104 0f49 27       		.uleb128 0x27
 3105 0f4a 0C010000 		.4byte	.LASF264
 3106 0f4e 01       		.byte	0x1
 3107 0f4f 6B       		.byte	0x6b
 3108 0f50 BB000000 		.4byte	0xbb
 3109 0f54 05       		.uleb128 0x5
 3110 0f55 03       		.byte	0x3
 3111 0f56 00000000 		.4byte	dma_streams_mask
 3112 0f5a 13       		.uleb128 0x13
 3113 0f5b 590B0000 		.4byte	0xb59
 3114 0f5f 6A0F0000 		.4byte	0xf6a
 3115 0f63 14       		.uleb128 0x14
 3116 0f64 77060000 		.4byte	0x677
 3117 0f68 0F       		.byte	0xf
 3118 0f69 00       		.byte	0
 3119 0f6a 27       		.uleb128 0x27
 3120 0f6b 65070000 		.4byte	.LASF265
 3121 0f6f 01       		.byte	0x1
 3122 0f70 70       		.byte	0x70
 3123 0f71 5A0F0000 		.4byte	0xf5a
 3124 0f75 05       		.uleb128 0x5
 3125 0f76 03       		.byte	0x3
 3126 0f77 00000000 		.4byte	dma_isr_redir
 3127 0f7b 28       		.uleb128 0x28
 3128 0f7c D30B0000 		.4byte	.LASF266
 3129 0f80 0F       		.byte	0xf
 3130 0f81 A706     		.2byte	0x6a7
 3131 0f83 D1000000 		.4byte	0xd1
ARM GAS  /tmp/ccH0TlFv.s 			page 56


 3132 0f87 29       		.uleb128 0x29
 3133 0f88 636800   		.ascii	"ch\000"
 3134 0f8b 07       		.byte	0x7
 3135 0f8c 0902     		.2byte	0x209
 3136 0f8e ED030000 		.4byte	0x3ed
 3137 0f92 13       		.uleb128 0x13
 3138 0f93 330B0000 		.4byte	0xb33
 3139 0f97 A20F0000 		.4byte	0xfa2
 3140 0f9b 14       		.uleb128 0x14
 3141 0f9c 77060000 		.4byte	0x677
 3142 0fa0 0F       		.byte	0xf
 3143 0fa1 00       		.byte	0
 3144 0fa2 2A       		.uleb128 0x2a
 3145 0fa3 94050000 		.4byte	.LASF267
 3146 0fa7 01       		.byte	0x1
 3147 0fa8 49       		.byte	0x49
 3148 0fa9 B30F0000 		.4byte	0xfb3
 3149 0fad 05       		.uleb128 0x5
 3150 0fae 03       		.byte	0x3
 3151 0faf 00000000 		.4byte	_stm32_dma_streams
 3152 0fb3 1B       		.uleb128 0x1b
 3153 0fb4 920F0000 		.4byte	0xf92
 3154 0fb8 2B       		.uleb128 0x2b
 3155 0fb9 91070000 		.4byte	.LASF268
 3156 0fbd 91070000 		.4byte	.LASF268
 3157 0fc1 0A       		.byte	0xa
 3158 0fc2 6601     		.2byte	0x166
 3159 0fc4 2C       		.uleb128 0x2c
 3160 0fc5 240C0000 		.4byte	.LASF269
 3161 0fc9 240C0000 		.4byte	.LASF269
 3162 0fcd 10       		.byte	0x10
 3163 0fce 4E       		.byte	0x4e
 3164 0fcf 2C       		.uleb128 0x2c
 3165 0fd0 49080000 		.4byte	.LASF270
 3166 0fd4 49080000 		.4byte	.LASF270
 3167 0fd8 10       		.byte	0x10
 3168 0fd9 4F       		.byte	0x4f
 3169 0fda 00       		.byte	0
 3170              		.section	.debug_abbrev,"",%progbits
 3171              	.Ldebug_abbrev0:
 3172 0000 01       		.uleb128 0x1
 3173 0001 11       		.uleb128 0x11
 3174 0002 01       		.byte	0x1
 3175 0003 25       		.uleb128 0x25
 3176 0004 0E       		.uleb128 0xe
 3177 0005 13       		.uleb128 0x13
 3178 0006 0B       		.uleb128 0xb
 3179 0007 03       		.uleb128 0x3
 3180 0008 0E       		.uleb128 0xe
 3181 0009 55       		.uleb128 0x55
 3182 000a 17       		.uleb128 0x17
 3183 000b 11       		.uleb128 0x11
 3184 000c 01       		.uleb128 0x1
 3185 000d 10       		.uleb128 0x10
 3186 000e 17       		.uleb128 0x17
 3187 000f 00       		.byte	0
 3188 0010 00       		.byte	0
ARM GAS  /tmp/ccH0TlFv.s 			page 57


 3189 0011 02       		.uleb128 0x2
 3190 0012 24       		.uleb128 0x24
 3191 0013 00       		.byte	0
 3192 0014 0B       		.uleb128 0xb
 3193 0015 0B       		.uleb128 0xb
 3194 0016 3E       		.uleb128 0x3e
 3195 0017 0B       		.uleb128 0xb
 3196 0018 03       		.uleb128 0x3
 3197 0019 08       		.uleb128 0x8
 3198 001a 00       		.byte	0
 3199 001b 00       		.byte	0
 3200 001c 03       		.uleb128 0x3
 3201 001d 16       		.uleb128 0x16
 3202 001e 00       		.byte	0
 3203 001f 03       		.uleb128 0x3
 3204 0020 0E       		.uleb128 0xe
 3205 0021 3A       		.uleb128 0x3a
 3206 0022 0B       		.uleb128 0xb
 3207 0023 3B       		.uleb128 0x3b
 3208 0024 0B       		.uleb128 0xb
 3209 0025 49       		.uleb128 0x49
 3210 0026 13       		.uleb128 0x13
 3211 0027 00       		.byte	0
 3212 0028 00       		.byte	0
 3213 0029 04       		.uleb128 0x4
 3214 002a 24       		.uleb128 0x24
 3215 002b 00       		.byte	0
 3216 002c 0B       		.uleb128 0xb
 3217 002d 0B       		.uleb128 0xb
 3218 002e 3E       		.uleb128 0x3e
 3219 002f 0B       		.uleb128 0xb
 3220 0030 03       		.uleb128 0x3
 3221 0031 0E       		.uleb128 0xe
 3222 0032 00       		.byte	0
 3223 0033 00       		.byte	0
 3224 0034 05       		.uleb128 0x5
 3225 0035 35       		.uleb128 0x35
 3226 0036 00       		.byte	0
 3227 0037 49       		.uleb128 0x49
 3228 0038 13       		.uleb128 0x13
 3229 0039 00       		.byte	0
 3230 003a 00       		.byte	0
 3231 003b 06       		.uleb128 0x6
 3232 003c 13       		.uleb128 0x13
 3233 003d 01       		.byte	0x1
 3234 003e 03       		.uleb128 0x3
 3235 003f 0E       		.uleb128 0xe
 3236 0040 0B       		.uleb128 0xb
 3237 0041 0B       		.uleb128 0xb
 3238 0042 3A       		.uleb128 0x3a
 3239 0043 0B       		.uleb128 0xb
 3240 0044 3B       		.uleb128 0x3b
 3241 0045 0B       		.uleb128 0xb
 3242 0046 01       		.uleb128 0x1
 3243 0047 13       		.uleb128 0x13
 3244 0048 00       		.byte	0
 3245 0049 00       		.byte	0
ARM GAS  /tmp/ccH0TlFv.s 			page 58


 3246 004a 07       		.uleb128 0x7
 3247 004b 0D       		.uleb128 0xd
 3248 004c 00       		.byte	0
 3249 004d 03       		.uleb128 0x3
 3250 004e 0E       		.uleb128 0xe
 3251 004f 3A       		.uleb128 0x3a
 3252 0050 0B       		.uleb128 0xb
 3253 0051 3B       		.uleb128 0x3b
 3254 0052 0B       		.uleb128 0xb
 3255 0053 49       		.uleb128 0x49
 3256 0054 13       		.uleb128 0x13
 3257 0055 38       		.uleb128 0x38
 3258 0056 0B       		.uleb128 0xb
 3259 0057 00       		.byte	0
 3260 0058 00       		.byte	0
 3261 0059 08       		.uleb128 0x8
 3262 005a 0D       		.uleb128 0xd
 3263 005b 00       		.byte	0
 3264 005c 03       		.uleb128 0x3
 3265 005d 08       		.uleb128 0x8
 3266 005e 3A       		.uleb128 0x3a
 3267 005f 0B       		.uleb128 0xb
 3268 0060 3B       		.uleb128 0x3b
 3269 0061 05       		.uleb128 0x5
 3270 0062 49       		.uleb128 0x49
 3271 0063 13       		.uleb128 0x13
 3272 0064 38       		.uleb128 0x38
 3273 0065 0B       		.uleb128 0xb
 3274 0066 00       		.byte	0
 3275 0067 00       		.byte	0
 3276 0068 09       		.uleb128 0x9
 3277 0069 0D       		.uleb128 0xd
 3278 006a 00       		.byte	0
 3279 006b 03       		.uleb128 0x3
 3280 006c 0E       		.uleb128 0xe
 3281 006d 3A       		.uleb128 0x3a
 3282 006e 0B       		.uleb128 0xb
 3283 006f 3B       		.uleb128 0x3b
 3284 0070 05       		.uleb128 0x5
 3285 0071 49       		.uleb128 0x49
 3286 0072 13       		.uleb128 0x13
 3287 0073 38       		.uleb128 0x38
 3288 0074 0B       		.uleb128 0xb
 3289 0075 00       		.byte	0
 3290 0076 00       		.byte	0
 3291 0077 0A       		.uleb128 0xa
 3292 0078 0F       		.uleb128 0xf
 3293 0079 00       		.byte	0
 3294 007a 0B       		.uleb128 0xb
 3295 007b 0B       		.uleb128 0xb
 3296 007c 49       		.uleb128 0x49
 3297 007d 13       		.uleb128 0x13
 3298 007e 00       		.byte	0
 3299 007f 00       		.byte	0
 3300 0080 0B       		.uleb128 0xb
 3301 0081 13       		.uleb128 0x13
 3302 0082 01       		.byte	0x1
ARM GAS  /tmp/ccH0TlFv.s 			page 59


 3303 0083 03       		.uleb128 0x3
 3304 0084 0E       		.uleb128 0xe
 3305 0085 0B       		.uleb128 0xb
 3306 0086 0B       		.uleb128 0xb
 3307 0087 3A       		.uleb128 0x3a
 3308 0088 0B       		.uleb128 0xb
 3309 0089 3B       		.uleb128 0x3b
 3310 008a 05       		.uleb128 0x5
 3311 008b 01       		.uleb128 0x1
 3312 008c 13       		.uleb128 0x13
 3313 008d 00       		.byte	0
 3314 008e 00       		.byte	0
 3315 008f 0C       		.uleb128 0xc
 3316 0090 15       		.uleb128 0x15
 3317 0091 01       		.byte	0x1
 3318 0092 27       		.uleb128 0x27
 3319 0093 19       		.uleb128 0x19
 3320 0094 01       		.uleb128 0x1
 3321 0095 13       		.uleb128 0x13
 3322 0096 00       		.byte	0
 3323 0097 00       		.byte	0
 3324 0098 0D       		.uleb128 0xd
 3325 0099 05       		.uleb128 0x5
 3326 009a 00       		.byte	0
 3327 009b 49       		.uleb128 0x49
 3328 009c 13       		.uleb128 0x13
 3329 009d 00       		.byte	0
 3330 009e 00       		.byte	0
 3331 009f 0E       		.uleb128 0xe
 3332 00a0 0F       		.uleb128 0xf
 3333 00a1 00       		.byte	0
 3334 00a2 0B       		.uleb128 0xb
 3335 00a3 0B       		.uleb128 0xb
 3336 00a4 00       		.byte	0
 3337 00a5 00       		.byte	0
 3338 00a6 0F       		.uleb128 0xf
 3339 00a7 13       		.uleb128 0x13
 3340 00a8 01       		.byte	0x1
 3341 00a9 03       		.uleb128 0x3
 3342 00aa 0E       		.uleb128 0xe
 3343 00ab 0B       		.uleb128 0xb
 3344 00ac 05       		.uleb128 0x5
 3345 00ad 3A       		.uleb128 0x3a
 3346 00ae 0B       		.uleb128 0xb
 3347 00af 3B       		.uleb128 0x3b
 3348 00b0 05       		.uleb128 0x5
 3349 00b1 01       		.uleb128 0x1
 3350 00b2 13       		.uleb128 0x13
 3351 00b3 00       		.byte	0
 3352 00b4 00       		.byte	0
 3353 00b5 10       		.uleb128 0x10
 3354 00b6 04       		.uleb128 0x4
 3355 00b7 01       		.byte	0x1
 3356 00b8 0B       		.uleb128 0xb
 3357 00b9 0B       		.uleb128 0xb
 3358 00ba 49       		.uleb128 0x49
 3359 00bb 13       		.uleb128 0x13
ARM GAS  /tmp/ccH0TlFv.s 			page 60


 3360 00bc 3A       		.uleb128 0x3a
 3361 00bd 0B       		.uleb128 0xb
 3362 00be 3B       		.uleb128 0x3b
 3363 00bf 0B       		.uleb128 0xb
 3364 00c0 01       		.uleb128 0x1
 3365 00c1 13       		.uleb128 0x13
 3366 00c2 00       		.byte	0
 3367 00c3 00       		.byte	0
 3368 00c4 11       		.uleb128 0x11
 3369 00c5 28       		.uleb128 0x28
 3370 00c6 00       		.byte	0
 3371 00c7 03       		.uleb128 0x3
 3372 00c8 0E       		.uleb128 0xe
 3373 00c9 1C       		.uleb128 0x1c
 3374 00ca 0D       		.uleb128 0xd
 3375 00cb 00       		.byte	0
 3376 00cc 00       		.byte	0
 3377 00cd 12       		.uleb128 0x12
 3378 00ce 28       		.uleb128 0x28
 3379 00cf 00       		.byte	0
 3380 00d0 03       		.uleb128 0x3
 3381 00d1 0E       		.uleb128 0xe
 3382 00d2 1C       		.uleb128 0x1c
 3383 00d3 0B       		.uleb128 0xb
 3384 00d4 00       		.byte	0
 3385 00d5 00       		.byte	0
 3386 00d6 13       		.uleb128 0x13
 3387 00d7 01       		.uleb128 0x1
 3388 00d8 01       		.byte	0x1
 3389 00d9 49       		.uleb128 0x49
 3390 00da 13       		.uleb128 0x13
 3391 00db 01       		.uleb128 0x1
 3392 00dc 13       		.uleb128 0x13
 3393 00dd 00       		.byte	0
 3394 00de 00       		.byte	0
 3395 00df 14       		.uleb128 0x14
 3396 00e0 21       		.uleb128 0x21
 3397 00e1 00       		.byte	0
 3398 00e2 49       		.uleb128 0x49
 3399 00e3 13       		.uleb128 0x13
 3400 00e4 2F       		.uleb128 0x2f
 3401 00e5 0B       		.uleb128 0xb
 3402 00e6 00       		.byte	0
 3403 00e7 00       		.byte	0
 3404 00e8 15       		.uleb128 0x15
 3405 00e9 13       		.uleb128 0x13
 3406 00ea 01       		.byte	0x1
 3407 00eb 0B       		.uleb128 0xb
 3408 00ec 0B       		.uleb128 0xb
 3409 00ed 3A       		.uleb128 0x3a
 3410 00ee 0B       		.uleb128 0xb
 3411 00ef 3B       		.uleb128 0x3b
 3412 00f0 05       		.uleb128 0x5
 3413 00f1 01       		.uleb128 0x1
 3414 00f2 13       		.uleb128 0x13
 3415 00f3 00       		.byte	0
 3416 00f4 00       		.byte	0
ARM GAS  /tmp/ccH0TlFv.s 			page 61


 3417 00f5 16       		.uleb128 0x16
 3418 00f6 16       		.uleb128 0x16
 3419 00f7 00       		.byte	0
 3420 00f8 03       		.uleb128 0x3
 3421 00f9 0E       		.uleb128 0xe
 3422 00fa 3A       		.uleb128 0x3a
 3423 00fb 0B       		.uleb128 0xb
 3424 00fc 3B       		.uleb128 0x3b
 3425 00fd 05       		.uleb128 0x5
 3426 00fe 49       		.uleb128 0x49
 3427 00ff 13       		.uleb128 0x13
 3428 0100 00       		.byte	0
 3429 0101 00       		.byte	0
 3430 0102 17       		.uleb128 0x17
 3431 0103 0D       		.uleb128 0xd
 3432 0104 00       		.byte	0
 3433 0105 03       		.uleb128 0x3
 3434 0106 08       		.uleb128 0x8
 3435 0107 3A       		.uleb128 0x3a
 3436 0108 0B       		.uleb128 0xb
 3437 0109 3B       		.uleb128 0x3b
 3438 010a 0B       		.uleb128 0xb
 3439 010b 49       		.uleb128 0x49
 3440 010c 13       		.uleb128 0x13
 3441 010d 38       		.uleb128 0x38
 3442 010e 0B       		.uleb128 0xb
 3443 010f 00       		.byte	0
 3444 0110 00       		.byte	0
 3445 0111 18       		.uleb128 0x18
 3446 0112 13       		.uleb128 0x13
 3447 0113 01       		.byte	0x1
 3448 0114 0B       		.uleb128 0xb
 3449 0115 0B       		.uleb128 0xb
 3450 0116 3A       		.uleb128 0x3a
 3451 0117 0B       		.uleb128 0xb
 3452 0118 3B       		.uleb128 0x3b
 3453 0119 0B       		.uleb128 0xb
 3454 011a 01       		.uleb128 0x1
 3455 011b 13       		.uleb128 0x13
 3456 011c 00       		.byte	0
 3457 011d 00       		.byte	0
 3458 011e 19       		.uleb128 0x19
 3459 011f 17       		.uleb128 0x17
 3460 0120 01       		.byte	0x1
 3461 0121 0B       		.uleb128 0xb
 3462 0122 0B       		.uleb128 0xb
 3463 0123 3A       		.uleb128 0x3a
 3464 0124 0B       		.uleb128 0xb
 3465 0125 3B       		.uleb128 0x3b
 3466 0126 0B       		.uleb128 0xb
 3467 0127 01       		.uleb128 0x1
 3468 0128 13       		.uleb128 0x13
 3469 0129 00       		.byte	0
 3470 012a 00       		.byte	0
 3471 012b 1A       		.uleb128 0x1a
 3472 012c 0D       		.uleb128 0xd
 3473 012d 00       		.byte	0
ARM GAS  /tmp/ccH0TlFv.s 			page 62


 3474 012e 03       		.uleb128 0x3
 3475 012f 0E       		.uleb128 0xe
 3476 0130 3A       		.uleb128 0x3a
 3477 0131 0B       		.uleb128 0xb
 3478 0132 3B       		.uleb128 0x3b
 3479 0133 05       		.uleb128 0x5
 3480 0134 49       		.uleb128 0x49
 3481 0135 13       		.uleb128 0x13
 3482 0136 00       		.byte	0
 3483 0137 00       		.byte	0
 3484 0138 1B       		.uleb128 0x1b
 3485 0139 26       		.uleb128 0x26
 3486 013a 00       		.byte	0
 3487 013b 49       		.uleb128 0x49
 3488 013c 13       		.uleb128 0x13
 3489 013d 00       		.byte	0
 3490 013e 00       		.byte	0
 3491 013f 1C       		.uleb128 0x1c
 3492 0140 2E       		.uleb128 0x2e
 3493 0141 01       		.byte	0x1
 3494 0142 3F       		.uleb128 0x3f
 3495 0143 19       		.uleb128 0x19
 3496 0144 03       		.uleb128 0x3
 3497 0145 0E       		.uleb128 0xe
 3498 0146 3A       		.uleb128 0x3a
 3499 0147 0B       		.uleb128 0xb
 3500 0148 3B       		.uleb128 0x3b
 3501 0149 0B       		.uleb128 0xb
 3502 014a 27       		.uleb128 0x27
 3503 014b 19       		.uleb128 0x19
 3504 014c 11       		.uleb128 0x11
 3505 014d 01       		.uleb128 0x1
 3506 014e 12       		.uleb128 0x12
 3507 014f 06       		.uleb128 0x6
 3508 0150 40       		.uleb128 0x40
 3509 0151 18       		.uleb128 0x18
 3510 0152 9642     		.uleb128 0x2116
 3511 0154 19       		.uleb128 0x19
 3512 0155 01       		.uleb128 0x1
 3513 0156 13       		.uleb128 0x13
 3514 0157 00       		.byte	0
 3515 0158 00       		.byte	0
 3516 0159 1D       		.uleb128 0x1d
 3517 015a 34       		.uleb128 0x34
 3518 015b 00       		.byte	0
 3519 015c 03       		.uleb128 0x3
 3520 015d 0E       		.uleb128 0xe
 3521 015e 3A       		.uleb128 0x3a
 3522 015f 0B       		.uleb128 0xb
 3523 0160 3B       		.uleb128 0x3b
 3524 0161 0B       		.uleb128 0xb
 3525 0162 49       		.uleb128 0x49
 3526 0163 13       		.uleb128 0x13
 3527 0164 02       		.uleb128 0x2
 3528 0165 17       		.uleb128 0x17
 3529 0166 00       		.byte	0
 3530 0167 00       		.byte	0
ARM GAS  /tmp/ccH0TlFv.s 			page 63


 3531 0168 1E       		.uleb128 0x1e
 3532 0169 898201   		.uleb128 0x4109
 3533 016c 00       		.byte	0
 3534 016d 11       		.uleb128 0x11
 3535 016e 01       		.uleb128 0x1
 3536 016f 9542     		.uleb128 0x2115
 3537 0171 19       		.uleb128 0x19
 3538 0172 31       		.uleb128 0x31
 3539 0173 13       		.uleb128 0x13
 3540 0174 00       		.byte	0
 3541 0175 00       		.byte	0
 3542 0176 1F       		.uleb128 0x1f
 3543 0177 2E       		.uleb128 0x2e
 3544 0178 01       		.byte	0x1
 3545 0179 3F       		.uleb128 0x3f
 3546 017a 19       		.uleb128 0x19
 3547 017b 03       		.uleb128 0x3
 3548 017c 0E       		.uleb128 0xe
 3549 017d 3A       		.uleb128 0x3a
 3550 017e 0B       		.uleb128 0xb
 3551 017f 3B       		.uleb128 0x3b
 3552 0180 05       		.uleb128 0x5
 3553 0181 27       		.uleb128 0x27
 3554 0182 19       		.uleb128 0x19
 3555 0183 11       		.uleb128 0x11
 3556 0184 01       		.uleb128 0x1
 3557 0185 12       		.uleb128 0x12
 3558 0186 06       		.uleb128 0x6
 3559 0187 40       		.uleb128 0x40
 3560 0188 18       		.uleb128 0x18
 3561 0189 9642     		.uleb128 0x2116
 3562 018b 19       		.uleb128 0x19
 3563 018c 01       		.uleb128 0x1
 3564 018d 13       		.uleb128 0x13
 3565 018e 00       		.byte	0
 3566 018f 00       		.byte	0
 3567 0190 20       		.uleb128 0x20
 3568 0191 34       		.uleb128 0x34
 3569 0192 00       		.byte	0
 3570 0193 03       		.uleb128 0x3
 3571 0194 0E       		.uleb128 0xe
 3572 0195 3A       		.uleb128 0x3a
 3573 0196 0B       		.uleb128 0xb
 3574 0197 3B       		.uleb128 0x3b
 3575 0198 05       		.uleb128 0x5
 3576 0199 49       		.uleb128 0x49
 3577 019a 13       		.uleb128 0x13
 3578 019b 02       		.uleb128 0x2
 3579 019c 17       		.uleb128 0x17
 3580 019d 00       		.byte	0
 3581 019e 00       		.byte	0
 3582 019f 21       		.uleb128 0x21
 3583 01a0 2E       		.uleb128 0x2e
 3584 01a1 01       		.byte	0x1
 3585 01a2 3F       		.uleb128 0x3f
 3586 01a3 19       		.uleb128 0x19
 3587 01a4 03       		.uleb128 0x3
ARM GAS  /tmp/ccH0TlFv.s 			page 64


 3588 01a5 0E       		.uleb128 0xe
 3589 01a6 3A       		.uleb128 0x3a
 3590 01a7 0B       		.uleb128 0xb
 3591 01a8 3B       		.uleb128 0x3b
 3592 01a9 05       		.uleb128 0x5
 3593 01aa 27       		.uleb128 0x27
 3594 01ab 19       		.uleb128 0x19
 3595 01ac 11       		.uleb128 0x11
 3596 01ad 01       		.uleb128 0x1
 3597 01ae 12       		.uleb128 0x12
 3598 01af 06       		.uleb128 0x6
 3599 01b0 40       		.uleb128 0x40
 3600 01b1 18       		.uleb128 0x18
 3601 01b2 9742     		.uleb128 0x2117
 3602 01b4 19       		.uleb128 0x19
 3603 01b5 01       		.uleb128 0x1
 3604 01b6 13       		.uleb128 0x13
 3605 01b7 00       		.byte	0
 3606 01b8 00       		.byte	0
 3607 01b9 22       		.uleb128 0x22
 3608 01ba 34       		.uleb128 0x34
 3609 01bb 00       		.byte	0
 3610 01bc 03       		.uleb128 0x3
 3611 01bd 08       		.uleb128 0x8
 3612 01be 3A       		.uleb128 0x3a
 3613 01bf 0B       		.uleb128 0xb
 3614 01c0 3B       		.uleb128 0x3b
 3615 01c1 05       		.uleb128 0x5
 3616 01c2 49       		.uleb128 0x49
 3617 01c3 13       		.uleb128 0x13
 3618 01c4 02       		.uleb128 0x2
 3619 01c5 17       		.uleb128 0x17
 3620 01c6 00       		.byte	0
 3621 01c7 00       		.byte	0
 3622 01c8 23       		.uleb128 0x23
 3623 01c9 2E       		.uleb128 0x2e
 3624 01ca 01       		.byte	0x1
 3625 01cb 3F       		.uleb128 0x3f
 3626 01cc 19       		.uleb128 0x19
 3627 01cd 03       		.uleb128 0x3
 3628 01ce 0E       		.uleb128 0xe
 3629 01cf 3A       		.uleb128 0x3a
 3630 01d0 0B       		.uleb128 0xb
 3631 01d1 3B       		.uleb128 0x3b
 3632 01d2 05       		.uleb128 0x5
 3633 01d3 27       		.uleb128 0x27
 3634 01d4 19       		.uleb128 0x19
 3635 01d5 49       		.uleb128 0x49
 3636 01d6 13       		.uleb128 0x13
 3637 01d7 11       		.uleb128 0x11
 3638 01d8 01       		.uleb128 0x1
 3639 01d9 12       		.uleb128 0x12
 3640 01da 06       		.uleb128 0x6
 3641 01db 40       		.uleb128 0x40
 3642 01dc 18       		.uleb128 0x18
 3643 01dd 9742     		.uleb128 0x2117
 3644 01df 19       		.uleb128 0x19
ARM GAS  /tmp/ccH0TlFv.s 			page 65


 3645 01e0 01       		.uleb128 0x1
 3646 01e1 13       		.uleb128 0x13
 3647 01e2 00       		.byte	0
 3648 01e3 00       		.byte	0
 3649 01e4 24       		.uleb128 0x24
 3650 01e5 05       		.uleb128 0x5
 3651 01e6 00       		.byte	0
 3652 01e7 03       		.uleb128 0x3
 3653 01e8 0E       		.uleb128 0xe
 3654 01e9 3A       		.uleb128 0x3a
 3655 01ea 0B       		.uleb128 0xb
 3656 01eb 3B       		.uleb128 0x3b
 3657 01ec 05       		.uleb128 0x5
 3658 01ed 49       		.uleb128 0x49
 3659 01ee 13       		.uleb128 0x13
 3660 01ef 02       		.uleb128 0x2
 3661 01f0 17       		.uleb128 0x17
 3662 01f1 00       		.byte	0
 3663 01f2 00       		.byte	0
 3664 01f3 25       		.uleb128 0x25
 3665 01f4 34       		.uleb128 0x34
 3666 01f5 00       		.byte	0
 3667 01f6 03       		.uleb128 0x3
 3668 01f7 0E       		.uleb128 0xe
 3669 01f8 49       		.uleb128 0x49
 3670 01f9 13       		.uleb128 0x13
 3671 01fa 34       		.uleb128 0x34
 3672 01fb 19       		.uleb128 0x19
 3673 01fc 00       		.byte	0
 3674 01fd 00       		.byte	0
 3675 01fe 26       		.uleb128 0x26
 3676 01ff 898201   		.uleb128 0x4109
 3677 0202 00       		.byte	0
 3678 0203 11       		.uleb128 0x11
 3679 0204 01       		.uleb128 0x1
 3680 0205 31       		.uleb128 0x31
 3681 0206 13       		.uleb128 0x13
 3682 0207 00       		.byte	0
 3683 0208 00       		.byte	0
 3684 0209 27       		.uleb128 0x27
 3685 020a 34       		.uleb128 0x34
 3686 020b 00       		.byte	0
 3687 020c 03       		.uleb128 0x3
 3688 020d 0E       		.uleb128 0xe
 3689 020e 3A       		.uleb128 0x3a
 3690 020f 0B       		.uleb128 0xb
 3691 0210 3B       		.uleb128 0x3b
 3692 0211 0B       		.uleb128 0xb
 3693 0212 49       		.uleb128 0x49
 3694 0213 13       		.uleb128 0x13
 3695 0214 02       		.uleb128 0x2
 3696 0215 18       		.uleb128 0x18
 3697 0216 00       		.byte	0
 3698 0217 00       		.byte	0
 3699 0218 28       		.uleb128 0x28
 3700 0219 34       		.uleb128 0x34
 3701 021a 00       		.byte	0
ARM GAS  /tmp/ccH0TlFv.s 			page 66


 3702 021b 03       		.uleb128 0x3
 3703 021c 0E       		.uleb128 0xe
 3704 021d 3A       		.uleb128 0x3a
 3705 021e 0B       		.uleb128 0xb
 3706 021f 3B       		.uleb128 0x3b
 3707 0220 05       		.uleb128 0x5
 3708 0221 49       		.uleb128 0x49
 3709 0222 13       		.uleb128 0x13
 3710 0223 3F       		.uleb128 0x3f
 3711 0224 19       		.uleb128 0x19
 3712 0225 3C       		.uleb128 0x3c
 3713 0226 19       		.uleb128 0x19
 3714 0227 00       		.byte	0
 3715 0228 00       		.byte	0
 3716 0229 29       		.uleb128 0x29
 3717 022a 34       		.uleb128 0x34
 3718 022b 00       		.byte	0
 3719 022c 03       		.uleb128 0x3
 3720 022d 08       		.uleb128 0x8
 3721 022e 3A       		.uleb128 0x3a
 3722 022f 0B       		.uleb128 0xb
 3723 0230 3B       		.uleb128 0x3b
 3724 0231 05       		.uleb128 0x5
 3725 0232 49       		.uleb128 0x49
 3726 0233 13       		.uleb128 0x13
 3727 0234 3F       		.uleb128 0x3f
 3728 0235 19       		.uleb128 0x19
 3729 0236 3C       		.uleb128 0x3c
 3730 0237 19       		.uleb128 0x19
 3731 0238 00       		.byte	0
 3732 0239 00       		.byte	0
 3733 023a 2A       		.uleb128 0x2a
 3734 023b 34       		.uleb128 0x34
 3735 023c 00       		.byte	0
 3736 023d 03       		.uleb128 0x3
 3737 023e 0E       		.uleb128 0xe
 3738 023f 3A       		.uleb128 0x3a
 3739 0240 0B       		.uleb128 0xb
 3740 0241 3B       		.uleb128 0x3b
 3741 0242 0B       		.uleb128 0xb
 3742 0243 49       		.uleb128 0x49
 3743 0244 13       		.uleb128 0x13
 3744 0245 3F       		.uleb128 0x3f
 3745 0246 19       		.uleb128 0x19
 3746 0247 02       		.uleb128 0x2
 3747 0248 18       		.uleb128 0x18
 3748 0249 00       		.byte	0
 3749 024a 00       		.byte	0
 3750 024b 2B       		.uleb128 0x2b
 3751 024c 2E       		.uleb128 0x2e
 3752 024d 00       		.byte	0
 3753 024e 3F       		.uleb128 0x3f
 3754 024f 19       		.uleb128 0x19
 3755 0250 3C       		.uleb128 0x3c
 3756 0251 19       		.uleb128 0x19
 3757 0252 6E       		.uleb128 0x6e
 3758 0253 0E       		.uleb128 0xe
ARM GAS  /tmp/ccH0TlFv.s 			page 67


 3759 0254 03       		.uleb128 0x3
 3760 0255 0E       		.uleb128 0xe
 3761 0256 3A       		.uleb128 0x3a
 3762 0257 0B       		.uleb128 0xb
 3763 0258 3B       		.uleb128 0x3b
 3764 0259 05       		.uleb128 0x5
 3765 025a 00       		.byte	0
 3766 025b 00       		.byte	0
 3767 025c 2C       		.uleb128 0x2c
 3768 025d 2E       		.uleb128 0x2e
 3769 025e 00       		.byte	0
 3770 025f 3F       		.uleb128 0x3f
 3771 0260 19       		.uleb128 0x19
 3772 0261 3C       		.uleb128 0x3c
 3773 0262 19       		.uleb128 0x19
 3774 0263 6E       		.uleb128 0x6e
 3775 0264 0E       		.uleb128 0xe
 3776 0265 03       		.uleb128 0x3
 3777 0266 0E       		.uleb128 0xe
 3778 0267 3A       		.uleb128 0x3a
 3779 0268 0B       		.uleb128 0xb
 3780 0269 3B       		.uleb128 0x3b
 3781 026a 0B       		.uleb128 0xb
 3782 026b 00       		.byte	0
 3783 026c 00       		.byte	0
 3784 026d 00       		.byte	0
 3785              		.section	.debug_loc,"",%progbits
 3786              	.Ldebug_loc0:
 3787              	.LLST0:
 3788 0000 0C000000 		.4byte	.LVL0
 3789 0004 15000000 		.4byte	.LVL1-1
 3790 0008 0100     		.2byte	0x1
 3791 000a 51       		.byte	0x51
 3792 000b 00000000 		.4byte	0
 3793 000f 00000000 		.4byte	0
 3794              	.LLST1:
 3795 0013 0E000000 		.4byte	.LVL3
 3796 0017 19000000 		.4byte	.LVL4-1
 3797 001b 0100     		.2byte	0x1
 3798 001d 51       		.byte	0x51
 3799 001e 00000000 		.4byte	0
 3800 0022 00000000 		.4byte	0
 3801              	.LLST2:
 3802 0026 0E000000 		.4byte	.LVL6
 3803 002a 19000000 		.4byte	.LVL7-1
 3804 002e 0100     		.2byte	0x1
 3805 0030 51       		.byte	0x51
 3806 0031 00000000 		.4byte	0
 3807 0035 00000000 		.4byte	0
 3808              	.LLST3:
 3809 0039 0E000000 		.4byte	.LVL9
 3810 003d 19000000 		.4byte	.LVL10-1
 3811 0041 0100     		.2byte	0x1
 3812 0043 51       		.byte	0x51
 3813 0044 00000000 		.4byte	0
 3814 0048 00000000 		.4byte	0
 3815              	.LLST4:
ARM GAS  /tmp/ccH0TlFv.s 			page 68


 3816 004c 0E000000 		.4byte	.LVL12
 3817 0050 15000000 		.4byte	.LVL13-1
 3818 0054 0100     		.2byte	0x1
 3819 0056 51       		.byte	0x51
 3820 0057 00000000 		.4byte	0
 3821 005b 00000000 		.4byte	0
 3822              	.LLST5:
 3823 005f 0E000000 		.4byte	.LVL15
 3824 0063 19000000 		.4byte	.LVL16-1
 3825 0067 0100     		.2byte	0x1
 3826 0069 51       		.byte	0x51
 3827 006a 00000000 		.4byte	0
 3828 006e 00000000 		.4byte	0
 3829              	.LLST6:
 3830 0072 0E000000 		.4byte	.LVL18
 3831 0076 19000000 		.4byte	.LVL19-1
 3832 007a 0100     		.2byte	0x1
 3833 007c 51       		.byte	0x51
 3834 007d 00000000 		.4byte	0
 3835 0081 00000000 		.4byte	0
 3836              	.LLST7:
 3837 0085 0E000000 		.4byte	.LVL21
 3838 0089 19000000 		.4byte	.LVL22-1
 3839 008d 0100     		.2byte	0x1
 3840 008f 51       		.byte	0x51
 3841 0090 00000000 		.4byte	0
 3842 0094 00000000 		.4byte	0
 3843              	.LLST8:
 3844 0098 0E000000 		.4byte	.LVL24
 3845 009c 15000000 		.4byte	.LVL25-1
 3846 00a0 0100     		.2byte	0x1
 3847 00a2 51       		.byte	0x51
 3848 00a3 00000000 		.4byte	0
 3849 00a7 00000000 		.4byte	0
 3850              	.LLST9:
 3851 00ab 0E000000 		.4byte	.LVL27
 3852 00af 19000000 		.4byte	.LVL28-1
 3853 00b3 0100     		.2byte	0x1
 3854 00b5 51       		.byte	0x51
 3855 00b6 00000000 		.4byte	0
 3856 00ba 00000000 		.4byte	0
 3857              	.LLST10:
 3858 00be 0E000000 		.4byte	.LVL30
 3859 00c2 19000000 		.4byte	.LVL31-1
 3860 00c6 0100     		.2byte	0x1
 3861 00c8 51       		.byte	0x51
 3862 00c9 00000000 		.4byte	0
 3863 00cd 00000000 		.4byte	0
 3864              	.LLST11:
 3865 00d1 0E000000 		.4byte	.LVL33
 3866 00d5 19000000 		.4byte	.LVL34-1
 3867 00d9 0100     		.2byte	0x1
 3868 00db 51       		.byte	0x51
 3869 00dc 00000000 		.4byte	0
 3870 00e0 00000000 		.4byte	0
 3871              	.LLST12:
 3872 00e4 0E000000 		.4byte	.LVL36
ARM GAS  /tmp/ccH0TlFv.s 			page 69


 3873 00e8 15000000 		.4byte	.LVL37-1
 3874 00ec 0100     		.2byte	0x1
 3875 00ee 51       		.byte	0x51
 3876 00ef 00000000 		.4byte	0
 3877 00f3 00000000 		.4byte	0
 3878              	.LLST13:
 3879 00f7 0E000000 		.4byte	.LVL39
 3880 00fb 19000000 		.4byte	.LVL40-1
 3881 00ff 0100     		.2byte	0x1
 3882 0101 51       		.byte	0x51
 3883 0102 00000000 		.4byte	0
 3884 0106 00000000 		.4byte	0
 3885              	.LLST14:
 3886 010a 0E000000 		.4byte	.LVL42
 3887 010e 19000000 		.4byte	.LVL43-1
 3888 0112 0100     		.2byte	0x1
 3889 0114 51       		.byte	0x51
 3890 0115 00000000 		.4byte	0
 3891 0119 00000000 		.4byte	0
 3892              	.LLST15:
 3893 011d 0E000000 		.4byte	.LVL45
 3894 0121 19000000 		.4byte	.LVL46-1
 3895 0125 0100     		.2byte	0x1
 3896 0127 51       		.byte	0x51
 3897 0128 00000000 		.4byte	0
 3898 012c 00000000 		.4byte	0
 3899              	.LLST16:
 3900 0130 0C000000 		.4byte	.LVL48
 3901 0134 12000000 		.4byte	.LVL49
 3902 0138 0200     		.2byte	0x2
 3903 013a 30       		.byte	0x30
 3904 013b 9F       		.byte	0x9f
 3905 013c 12000000 		.4byte	.LVL49
 3906 0140 30000000 		.4byte	.LVL52
 3907 0144 0100     		.2byte	0x1
 3908 0146 53       		.byte	0x53
 3909 0147 00000000 		.4byte	0
 3910 014b 00000000 		.4byte	0
 3911              	.LLST17:
 3912 014f 00000000 		.4byte	.LVL53
 3913 0153 64000000 		.4byte	.LVL55
 3914 0157 0100     		.2byte	0x1
 3915 0159 50       		.byte	0x50
 3916 015a 64000000 		.4byte	.LVL55
 3917 015e 6C000000 		.4byte	.LVL57
 3918 0162 0400     		.2byte	0x4
 3919 0164 F3       		.byte	0xf3
 3920 0165 01       		.uleb128 0x1
 3921 0166 50       		.byte	0x50
 3922 0167 9F       		.byte	0x9f
 3923 0168 6C000000 		.4byte	.LVL57
 3924 016c 7A000000 		.4byte	.LVL59
 3925 0170 0100     		.2byte	0x1
 3926 0172 50       		.byte	0x50
 3927 0173 7A000000 		.4byte	.LVL59
 3928 0177 7C000000 		.4byte	.LVL60
 3929 017b 0400     		.2byte	0x4
ARM GAS  /tmp/ccH0TlFv.s 			page 70


 3930 017d F3       		.byte	0xf3
 3931 017e 01       		.uleb128 0x1
 3932 017f 50       		.byte	0x50
 3933 0180 9F       		.byte	0x9f
 3934 0181 7C000000 		.4byte	.LVL60
 3935 0185 7E000000 		.4byte	.LVL61
 3936 0189 0100     		.2byte	0x1
 3937 018b 50       		.byte	0x50
 3938 018c 7E000000 		.4byte	.LVL61
 3939 0190 8C000000 		.4byte	.LFE275
 3940 0194 0400     		.2byte	0x4
 3941 0196 F3       		.byte	0xf3
 3942 0197 01       		.uleb128 0x1
 3943 0198 50       		.byte	0x50
 3944 0199 9F       		.byte	0x9f
 3945 019a 00000000 		.4byte	0
 3946 019e 00000000 		.4byte	0
 3947              	.LLST18:
 3948 01a2 00000000 		.4byte	.LVL53
 3949 01a6 67000000 		.4byte	.LVL56-1
 3950 01aa 0100     		.2byte	0x1
 3951 01ac 51       		.byte	0x51
 3952 01ad 67000000 		.4byte	.LVL56-1
 3953 01b1 6C000000 		.4byte	.LVL57
 3954 01b5 0400     		.2byte	0x4
 3955 01b7 F3       		.byte	0xf3
 3956 01b8 01       		.uleb128 0x1
 3957 01b9 51       		.byte	0x51
 3958 01ba 9F       		.byte	0x9f
 3959 01bb 6C000000 		.4byte	.LVL57
 3960 01bf 8C000000 		.4byte	.LFE275
 3961 01c3 0100     		.2byte	0x1
 3962 01c5 51       		.byte	0x51
 3963 01c6 00000000 		.4byte	0
 3964 01ca 00000000 		.4byte	0
 3965              	.LLST19:
 3966 01ce 00000000 		.4byte	.LVL53
 3967 01d2 67000000 		.4byte	.LVL56-1
 3968 01d6 0100     		.2byte	0x1
 3969 01d8 52       		.byte	0x52
 3970 01d9 67000000 		.4byte	.LVL56-1
 3971 01dd 6C000000 		.4byte	.LVL57
 3972 01e1 0400     		.2byte	0x4
 3973 01e3 F3       		.byte	0xf3
 3974 01e4 01       		.uleb128 0x1
 3975 01e5 52       		.byte	0x52
 3976 01e6 9F       		.byte	0x9f
 3977 01e7 6C000000 		.4byte	.LVL57
 3978 01eb 8C000000 		.4byte	.LFE275
 3979 01ef 0100     		.2byte	0x1
 3980 01f1 52       		.byte	0x52
 3981 01f2 00000000 		.4byte	0
 3982 01f6 00000000 		.4byte	0
 3983              	.LLST20:
 3984 01fa 00000000 		.4byte	.LVL53
 3985 01fe 32000000 		.4byte	.LVL54
 3986 0202 0100     		.2byte	0x1
ARM GAS  /tmp/ccH0TlFv.s 			page 71


 3987 0204 53       		.byte	0x53
 3988 0205 32000000 		.4byte	.LVL54
 3989 0209 67000000 		.4byte	.LVL56-1
 3990 020d 0200     		.2byte	0x2
 3991 020f 7E       		.byte	0x7e
 3992 0210 04       		.sleb128 4
 3993 0211 67000000 		.4byte	.LVL56-1
 3994 0215 6C000000 		.4byte	.LVL57
 3995 0219 0400     		.2byte	0x4
 3996 021b F3       		.byte	0xf3
 3997 021c 01       		.uleb128 0x1
 3998 021d 53       		.byte	0x53
 3999 021e 9F       		.byte	0x9f
 4000 021f 6C000000 		.4byte	.LVL57
 4001 0223 78000000 		.4byte	.LVL58
 4002 0227 0200     		.2byte	0x2
 4003 0229 7E       		.byte	0x7e
 4004 022a 04       		.sleb128 4
 4005 022b 78000000 		.4byte	.LVL58
 4006 022f 7C000000 		.4byte	.LVL60
 4007 0233 0100     		.2byte	0x1
 4008 0235 53       		.byte	0x53
 4009 0236 7C000000 		.4byte	.LVL60
 4010 023a 8C000000 		.4byte	.LFE275
 4011 023e 0200     		.2byte	0x2
 4012 0240 7E       		.byte	0x7e
 4013 0241 04       		.sleb128 4
 4014 0242 00000000 		.4byte	0
 4015 0246 00000000 		.4byte	0
 4016              	.LLST21:
 4017 024a 00000000 		.4byte	.LVL62
 4018 024e 06000000 		.4byte	.LVL63
 4019 0252 0100     		.2byte	0x1
 4020 0254 50       		.byte	0x50
 4021 0255 06000000 		.4byte	.LVL63
 4022 0259 3C000000 		.4byte	.LVL65
 4023 025d 0100     		.2byte	0x1
 4024 025f 54       		.byte	0x54
 4025 0260 3C000000 		.4byte	.LVL65
 4026 0264 44000000 		.4byte	.LFE276
 4027 0268 0400     		.2byte	0x4
 4028 026a F3       		.byte	0xf3
 4029 026b 01       		.uleb128 0x1
 4030 026c 50       		.byte	0x50
 4031 026d 9F       		.byte	0x9f
 4032 026e 00000000 		.4byte	0
 4033 0272 00000000 		.4byte	0
 4034              		.section	.debug_aranges,"",%progbits
 4035 0000 AC000000 		.4byte	0xac
 4036 0004 0200     		.2byte	0x2
 4037 0006 00000000 		.4byte	.Ldebug_info0
 4038 000a 04       		.byte	0x4
 4039 000b 00       		.byte	0
 4040 000c 0000     		.2byte	0
 4041 000e 0000     		.2byte	0
 4042 0010 00000000 		.4byte	.LFB258
 4043 0014 28000000 		.4byte	.LFE258-.LFB258
ARM GAS  /tmp/ccH0TlFv.s 			page 72


 4044 0018 00000000 		.4byte	.LFB259
 4045 001c 2C000000 		.4byte	.LFE259-.LFB259
 4046 0020 00000000 		.4byte	.LFB260
 4047 0024 2C000000 		.4byte	.LFE260-.LFB260
 4048 0028 00000000 		.4byte	.LFB261
 4049 002c 2C000000 		.4byte	.LFE261-.LFB261
 4050 0030 00000000 		.4byte	.LFB262
 4051 0034 28000000 		.4byte	.LFE262-.LFB262
 4052 0038 00000000 		.4byte	.LFB263
 4053 003c 2C000000 		.4byte	.LFE263-.LFB263
 4054 0040 00000000 		.4byte	.LFB264
 4055 0044 2C000000 		.4byte	.LFE264-.LFB264
 4056 0048 00000000 		.4byte	.LFB265
 4057 004c 2C000000 		.4byte	.LFE265-.LFB265
 4058 0050 00000000 		.4byte	.LFB266
 4059 0054 28000000 		.4byte	.LFE266-.LFB266
 4060 0058 00000000 		.4byte	.LFB267
 4061 005c 2C000000 		.4byte	.LFE267-.LFB267
 4062 0060 00000000 		.4byte	.LFB268
 4063 0064 2C000000 		.4byte	.LFE268-.LFB268
 4064 0068 00000000 		.4byte	.LFB269
 4065 006c 2C000000 		.4byte	.LFE269-.LFB269
 4066 0070 00000000 		.4byte	.LFB270
 4067 0074 28000000 		.4byte	.LFE270-.LFB270
 4068 0078 00000000 		.4byte	.LFB271
 4069 007c 2C000000 		.4byte	.LFE271-.LFB271
 4070 0080 00000000 		.4byte	.LFB272
 4071 0084 2C000000 		.4byte	.LFE272-.LFB272
 4072 0088 00000000 		.4byte	.LFB273
 4073 008c 2C000000 		.4byte	.LFE273-.LFB273
 4074 0090 00000000 		.4byte	.LFB274
 4075 0094 54000000 		.4byte	.LFE274-.LFB274
 4076 0098 00000000 		.4byte	.LFB275
 4077 009c 8C000000 		.4byte	.LFE275-.LFB275
 4078 00a0 00000000 		.4byte	.LFB276
 4079 00a4 44000000 		.4byte	.LFE276-.LFB276
 4080 00a8 00000000 		.4byte	0
 4081 00ac 00000000 		.4byte	0
 4082              		.section	.debug_ranges,"",%progbits
 4083              	.Ldebug_ranges0:
 4084 0000 00000000 		.4byte	.LFB258
 4085 0004 28000000 		.4byte	.LFE258
 4086 0008 00000000 		.4byte	.LFB259
 4087 000c 2C000000 		.4byte	.LFE259
 4088 0010 00000000 		.4byte	.LFB260
 4089 0014 2C000000 		.4byte	.LFE260
 4090 0018 00000000 		.4byte	.LFB261
 4091 001c 2C000000 		.4byte	.LFE261
 4092 0020 00000000 		.4byte	.LFB262
 4093 0024 28000000 		.4byte	.LFE262
 4094 0028 00000000 		.4byte	.LFB263
 4095 002c 2C000000 		.4byte	.LFE263
 4096 0030 00000000 		.4byte	.LFB264
 4097 0034 2C000000 		.4byte	.LFE264
 4098 0038 00000000 		.4byte	.LFB265
 4099 003c 2C000000 		.4byte	.LFE265
 4100 0040 00000000 		.4byte	.LFB266
ARM GAS  /tmp/ccH0TlFv.s 			page 73


 4101 0044 28000000 		.4byte	.LFE266
 4102 0048 00000000 		.4byte	.LFB267
 4103 004c 2C000000 		.4byte	.LFE267
 4104 0050 00000000 		.4byte	.LFB268
 4105 0054 2C000000 		.4byte	.LFE268
 4106 0058 00000000 		.4byte	.LFB269
 4107 005c 2C000000 		.4byte	.LFE269
 4108 0060 00000000 		.4byte	.LFB270
 4109 0064 28000000 		.4byte	.LFE270
 4110 0068 00000000 		.4byte	.LFB271
 4111 006c 2C000000 		.4byte	.LFE271
 4112 0070 00000000 		.4byte	.LFB272
 4113 0074 2C000000 		.4byte	.LFE272
 4114 0078 00000000 		.4byte	.LFB273
 4115 007c 2C000000 		.4byte	.LFE273
 4116 0080 00000000 		.4byte	.LFB274
 4117 0084 54000000 		.4byte	.LFE274
 4118 0088 00000000 		.4byte	.LFB275
 4119 008c 8C000000 		.4byte	.LFE275
 4120 0090 00000000 		.4byte	.LFB276
 4121 0094 44000000 		.4byte	.LFE276
 4122 0098 00000000 		.4byte	0
 4123 009c 00000000 		.4byte	0
 4124              		.section	.debug_line,"",%progbits
 4125              	.Ldebug_line0:
 4126 0000 FF040000 		.section	.debug_str,"MS",%progbits,1
 4126      0200BA02 
 4126      00000201 
 4126      FB0E0D00 
 4126      01010101 
 4127              	.LASF172:
 4128 0000 4D314152 		.ascii	"M1AR\000"
 4128      00
 4129              	.LASF91:
 4130 0005 5254435F 		.ascii	"RTC_WKUP_IRQn\000"
 4130      574B5550 
 4130      5F495251 
 4130      6E00
 4131              	.LASF96:
 4132 0013 45585449 		.ascii	"EXTI2_IRQn\000"
 4132      325F4952 
 4132      516E00
 4133              	.LASF234:
 4134 001e 73746D33 		.ascii	"stm32_dma_stream_t\000"
 4134      325F646D 
 4134      615F7374 
 4134      7265616D 
 4134      5F7400
 4135              	.LASF4:
 4136 0031 73697A65 		.ascii	"size_t\000"
 4136      5F7400
 4137              	.LASF132:
 4138 0038 54494D38 		.ascii	"TIM8_UP_TIM13_IRQn\000"
 4138      5F55505F 
 4138      54494D31 
 4138      335F4952 
 4138      516E00
ARM GAS  /tmp/ccH0TlFv.s 			page 74


 4139              	.LASF169:
 4140 004b 73697A65 		.ascii	"sizetype\000"
 4140      74797065 
 4140      00
 4141              	.LASF217:
 4142 0054 77747365 		.ascii	"wtsemp\000"
 4142      6D7000
 4143              	.LASF27:
 4144 005b 73797374 		.ascii	"systime_t\000"
 4144      696D655F 
 4144      7400
 4145              	.LASF205:
 4146 0065 504C4C49 		.ascii	"PLLI2SCFGR\000"
 4146      32534346 
 4146      475200
 4147              	.LASF32:
 4148 0070 705F6374 		.ascii	"p_ctx\000"
 4148      7800
 4149              	.LASF23:
 4150 0076 74707269 		.ascii	"tprio_t\000"
 4150      6F5F7400 
 4151              	.LASF40:
 4152 007e 705F6D73 		.ascii	"p_msgqueue\000"
 4152      67717565 
 4152      756500
 4153              	.LASF56:
 4154 0089 725F6374 		.ascii	"r_ctx\000"
 4154      7800
 4155              	.LASF16:
 4156 008f 696E7433 		.ascii	"int32_t\000"
 4156      325F7400 
 4157              	.LASF60:
 4158 0097 76746675 		.ascii	"vtfunc_t\000"
 4158      6E635F74 
 4158      00
 4159              	.LASF262:
 4160 00a0 646D6153 		.ascii	"dmaStreamRelease\000"
 4160      74726561 
 4160      6D52656C 
 4160      65617365 
 4160      00
 4161              	.LASF69:
 4162 00b1 63685F76 		.ascii	"ch_virtual_timers_list\000"
 4162      69727475 
 4162      616C5F74 
 4162      696D6572 
 4162      735F6C69 
 4163              	.LASF263:
 4164 00c8 5F5F6675 		.ascii	"__func__\000"
 4164      6E635F5F 
 4164      00
 4165              	.LASF145:
 4166 00d1 444D4132 		.ascii	"DMA2_Stream1_IRQn\000"
 4166      5F537472 
 4166      65616D31 
 4166      5F495251 
 4166      6E00
ARM GAS  /tmp/ccH0TlFv.s 			page 75


 4167              	.LASF139:
 4168 00e3 53504933 		.ascii	"SPI3_IRQn\000"
 4168      5F495251 
 4168      6E00
 4169              	.LASF92:
 4170 00ed 464C4153 		.ascii	"FLASH_IRQn\000"
 4170      485F4952 
 4170      516E00
 4171              	.LASF166:
 4172 00f8 44434D49 		.ascii	"DCMI_IRQn\000"
 4172      5F495251 
 4172      6E00
 4173              	.LASF116:
 4174 0102 54494D32 		.ascii	"TIM2_IRQn\000"
 4174      5F495251 
 4174      6E00
 4175              	.LASF264:
 4176 010c 646D615F 		.ascii	"dma_streams_mask\000"
 4176      73747265 
 4176      616D735F 
 4176      6D61736B 
 4176      00
 4177              	.LASF152:
 4178 011d 43414E32 		.ascii	"CAN2_RX0_IRQn\000"
 4178      5F525830 
 4178      5F495251 
 4178      6E00
 4179              	.LASF159:
 4180 012b 55534152 		.ascii	"USART6_IRQn\000"
 4180      54365F49 
 4180      52516E00 
 4181              	.LASF225:
 4182 0137 6D5F6F77 		.ascii	"m_owner\000"
 4182      6E657200 
 4183              	.LASF67:
 4184 013f 76745F70 		.ascii	"vt_par\000"
 4184      617200
 4185              	.LASF249:
 4186 0146 56656374 		.ascii	"Vector120\000"
 4186      6F723132 
 4186      3000
 4187              	.LASF214:
 4188 0150 65786974 		.ascii	"exitcode\000"
 4188      636F6465 
 4188      00
 4189              	.LASF5:
 4190 0159 5F5F7569 		.ascii	"__uint8_t\000"
 4190      6E74385F 
 4190      7400
 4191              	.LASF164:
 4192 0163 4F54475F 		.ascii	"OTG_HS_WKUP_IRQn\000"
 4192      48535F57 
 4192      4B55505F 
 4192      4952516E 
 4192      00
 4193              	.LASF124:
 4194 0174 53504932 		.ascii	"SPI2_IRQn\000"
ARM GAS  /tmp/ccH0TlFv.s 			page 76


 4194      5F495251 
 4194      6E00
 4195              	.LASF131:
 4196 017e 54494D38 		.ascii	"TIM8_BRK_TIM12_IRQn\000"
 4196      5F42524B 
 4196      5F54494D 
 4196      31325F49 
 4196      52516E00 
 4197              	.LASF196:
 4198 0192 41484232 		.ascii	"AHB2LPENR\000"
 4198      4C50454E 
 4198      5200
 4199              	.LASF33:
 4200 019c 705F6E65 		.ascii	"p_newer\000"
 4200      77657200 
 4201              	.LASF10:
 4202 01a4 6C6F6E67 		.ascii	"long int\000"
 4202      20696E74 
 4202      00
 4203              	.LASF29:
 4204 01ad 705F6E65 		.ascii	"p_next\000"
 4204      787400
 4205              	.LASF30:
 4206 01b4 705F7072 		.ascii	"p_prev\000"
 4206      657600
 4207              	.LASF156:
 4208 01bb 444D4132 		.ascii	"DMA2_Stream5_IRQn\000"
 4208      5F537472 
 4208      65616D35 
 4208      5F495251 
 4208      6E00
 4209              	.LASF21:
 4210 01cd 74737461 		.ascii	"tstate_t\000"
 4210      74655F74 
 4210      00
 4211              	.LASF50:
 4212 01d6 74687265 		.ascii	"threads_queue_t\000"
 4212      6164735F 
 4212      71756575 
 4212      655F7400 
 4213              	.LASF43:
 4214 01e6 705F6D74 		.ascii	"p_mtxlist\000"
 4214      786C6973 
 4214      7400
 4215              	.LASF114:
 4216 01f0 54494D31 		.ascii	"TIM1_TRG_COM_TIM11_IRQn\000"
 4216      5F545247 
 4216      5F434F4D 
 4216      5F54494D 
 4216      31315F49 
 4217              	.LASF207:
 4218 0208 72656761 		.ascii	"regarm_t\000"
 4218      726D5F74 
 4218      00
 4219              	.LASF193:
 4220 0211 41504232 		.ascii	"APB2ENR\000"
 4220      454E5200 
ARM GAS  /tmp/ccH0TlFv.s 			page 77


 4221              	.LASF195:
 4222 0219 41484231 		.ascii	"AHB1LPENR\000"
 4222      4C50454E 
 4222      5200
 4223              	.LASF87:
 4224 0223 53797354 		.ascii	"SysTick_IRQn\000"
 4224      69636B5F 
 4224      4952516E 
 4224      00
 4225              	.LASF127:
 4226 0230 55534152 		.ascii	"USART3_IRQn\000"
 4226      54335F49 
 4226      52516E00 
 4227              	.LASF3:
 4228 023c 7369676E 		.ascii	"signed char\000"
 4228      65642063 
 4228      68617200 
 4229              	.LASF219:
 4230 0248 65776D61 		.ascii	"ewmask\000"
 4230      736B00
 4231              	.LASF15:
 4232 024f 75696E74 		.ascii	"uint8_t\000"
 4232      385F7400 
 4233              	.LASF260:
 4234 0257 66756E63 		.ascii	"func\000"
 4234      00
 4235              	.LASF25:
 4236 025c 6576656E 		.ascii	"eventmask_t\000"
 4236      746D6173 
 4236      6B5F7400 
 4237              	.LASF209:
 4238 0268 636F6E74 		.ascii	"context\000"
 4238      65787400 
 4239              	.LASF216:
 4240 0270 77747472 		.ascii	"wttrp\000"
 4240      7000
 4241              	.LASF101:
 4242 0276 444D4131 		.ascii	"DMA1_Stream2_IRQn\000"
 4242      5F537472 
 4242      65616D32 
 4242      5F495251 
 4242      6E00
 4243              	.LASF184:
 4244 0288 52455345 		.ascii	"RESERVED0\000"
 4244      52564544 
 4244      3000
 4245              	.LASF187:
 4246 0292 52455345 		.ascii	"RESERVED1\000"
 4246      52564544 
 4246      3100
 4247              	.LASF6:
 4248 029c 756E7369 		.ascii	"unsigned char\000"
 4248      676E6564 
 4248      20636861 
 4248      7200
 4249              	.LASF148:
 4250 02aa 444D4132 		.ascii	"DMA2_Stream4_IRQn\000"
ARM GAS  /tmp/ccH0TlFv.s 			page 78


 4250      5F537472 
 4250      65616D34 
 4250      5F495251 
 4250      6E00
 4251              	.LASF198:
 4252 02bc 52455345 		.ascii	"RESERVED4\000"
 4252      52564544 
 4252      3400
 4253              	.LASF201:
 4254 02c6 52455345 		.ascii	"RESERVED5\000"
 4254      52564544 
 4254      3500
 4255              	.LASF203:
 4256 02d0 52455345 		.ascii	"RESERVED6\000"
 4256      52564544 
 4256      3600
 4257              	.LASF178:
 4258 02da 444D415F 		.ascii	"DMA_TypeDef\000"
 4258      54797065 
 4258      44656600 
 4259              	.LASF73:
 4260 02e6 70616E69 		.ascii	"panic_msg\000"
 4260      635F6D73 
 4260      6700
 4261              	.LASF120:
 4262 02f0 49324331 		.ascii	"I2C1_ER_IRQn\000"
 4262      5F45525F 
 4262      4952516E 
 4262      00
 4263              	.LASF57:
 4264 02fd 725F6E65 		.ascii	"r_newer\000"
 4264      77657200 
 4265              	.LASF71:
 4266 0305 73797374 		.ascii	"system_debug_t\000"
 4266      656D5F64 
 4266      65627567 
 4266      5F7400
 4267              	.LASF154:
 4268 0314 43414E32 		.ascii	"CAN2_SCE_IRQn\000"
 4268      5F534345 
 4268      5F495251 
 4268      6E00
 4269              	.LASF236:
 4270 0322 5F426F6F 		.ascii	"_Bool\000"
 4270      6C00
 4271              	.LASF191:
 4272 0328 52455345 		.ascii	"RESERVED2\000"
 4272      52564544 
 4272      3200
 4273              	.LASF194:
 4274 0332 52455345 		.ascii	"RESERVED3\000"
 4274      52564544 
 4274      3300
 4275              	.LASF138:
 4276 033c 54494D35 		.ascii	"TIM5_IRQn\000"
 4276      5F495251 
 4276      6E00
ARM GAS  /tmp/ccH0TlFv.s 			page 79


 4277              	.LASF176:
 4278 0346 4C494643 		.ascii	"LIFCR\000"
 4278      5200
 4279              	.LASF83:
 4280 034c 55736167 		.ascii	"UsageFault_IRQn\000"
 4280      65466175 
 4280      6C745F49 
 4280      52516E00 
 4281              	.LASF227:
 4282 035c 63686172 		.ascii	"char\000"
 4282      00
 4283              	.LASF231:
 4284 0361 69736869 		.ascii	"ishift\000"
 4284      667400
 4285              	.LASF181:
 4286 0368 41484231 		.ascii	"AHB1RSTR\000"
 4286      52535452 
 4286      00
 4287              	.LASF31:
 4288 0371 705F7072 		.ascii	"p_prio\000"
 4288      696F00
 4289              	.LASF189:
 4290 0378 41484232 		.ascii	"AHB2ENR\000"
 4290      454E5200 
 4291              	.LASF215:
 4292 0380 77746F62 		.ascii	"wtobjp\000"
 4292      6A7000
 4293              	.LASF108:
 4294 0387 43414E31 		.ascii	"CAN1_RX0_IRQn\000"
 4294      5F525830 
 4294      5F495251 
 4294      6E00
 4295              	.LASF98:
 4296 0395 45585449 		.ascii	"EXTI4_IRQn\000"
 4296      345F4952 
 4296      516E00
 4297              	.LASF242:
 4298 03a0 666C6167 		.ascii	"flags\000"
 4298      7300
 4299              	.LASF272:
 4300 03a6 2F686F6D 		.ascii	"/home/selim/working/ChibiOS/os/hal/ports/STM32/STM3"
 4300      652F7365 
 4300      6C696D2F 
 4300      776F726B 
 4300      696E672F 
 4301 03d9 32463478 		.ascii	"2F4xx/stm32_dma.c\000"
 4301      782F7374 
 4301      6D33325F 
 4301      646D612E 
 4301      6300
 4302              	.LASF118:
 4303 03eb 54494D34 		.ascii	"TIM4_IRQn\000"
 4303      5F495251 
 4303      6E00
 4304              	.LASF126:
 4305 03f5 55534152 		.ascii	"USART2_IRQn\000"
 4305      54325F49 
ARM GAS  /tmp/ccH0TlFv.s 			page 80


 4305      52516E00 
 4306              	.LASF229:
 4307 0401 73747265 		.ascii	"stream\000"
 4307      616D00
 4308              	.LASF257:
 4309 0408 646D6149 		.ascii	"dmaInit\000"
 4309      6E697400 
 4310              	.LASF273:
 4311 0410 646D6153 		.ascii	"dmaStreamAllocate\000"
 4311      74726561 
 4311      6D416C6C 
 4311      6F636174 
 4311      6500
 4312              	.LASF202:
 4313 0422 42444352 		.ascii	"BDCR\000"
 4313      00
 4314              	.LASF237:
 4315 0427 646D615F 		.ascii	"dma_func\000"
 4315      66756E63 
 4315      00
 4316              	.LASF26:
 4317 0430 636E745F 		.ascii	"cnt_t\000"
 4317      7400
 4318              	.LASF119:
 4319 0436 49324331 		.ascii	"I2C1_EV_IRQn\000"
 4319      5F45565F 
 4319      4952516E 
 4319      00
 4320              	.LASF66:
 4321 0443 76745F66 		.ascii	"vt_func\000"
 4321      756E6300 
 4322              	.LASF42:
 4323 044b 705F6570 		.ascii	"p_epending\000"
 4323      656E6469 
 4323      6E6700
 4324              	.LASF218:
 4325 0456 77746D74 		.ascii	"wtmtxp\000"
 4325      787000
 4326              	.LASF53:
 4327 045d 63685F72 		.ascii	"ch_ready_list\000"
 4327      65616479 
 4327      5F6C6973 
 4327      7400
 4328              	.LASF180:
 4329 046b 43464752 		.ascii	"CFGR\000"
 4329      00
 4330              	.LASF115:
 4331 0470 54494D31 		.ascii	"TIM1_CC_IRQn\000"
 4331      5F43435F 
 4331      4952516E 
 4331      00
 4332              	.LASF167:
 4333 047d 48415348 		.ascii	"HASH_RNG_IRQn\000"
 4333      5F524E47 
 4333      5F495251 
 4333      6E00
 4334              	.LASF95:
ARM GAS  /tmp/ccH0TlFv.s 			page 81


 4335 048b 45585449 		.ascii	"EXTI1_IRQn\000"
 4335      315F4952 
 4335      516E00
 4336              	.LASF107:
 4337 0496 43414E31 		.ascii	"CAN1_TX_IRQn\000"
 4337      5F54585F 
 4337      4952516E 
 4337      00
 4338              	.LASF104:
 4339 04a3 444D4131 		.ascii	"DMA1_Stream5_IRQn\000"
 4339      5F537472 
 4339      65616D35 
 4339      5F495251 
 4339      6E00
 4340              	.LASF133:
 4341 04b5 54494D38 		.ascii	"TIM8_TRG_COM_TIM14_IRQn\000"
 4341      5F545247 
 4341      5F434F4D 
 4341      5F54494D 
 4341      31345F49 
 4342              	.LASF158:
 4343 04cd 444D4132 		.ascii	"DMA2_Stream7_IRQn\000"
 4343      5F537472 
 4343      65616D37 
 4343      5F495251 
 4343      6E00
 4344              	.LASF155:
 4345 04df 4F54475F 		.ascii	"OTG_FS_IRQn\000"
 4345      46535F49 
 4345      52516E00 
 4346              	.LASF80:
 4347 04eb 4E6F6E4D 		.ascii	"NonMaskableInt_IRQn\000"
 4347      61736B61 
 4347      626C6549 
 4347      6E745F49 
 4347      52516E00 
 4348              	.LASF13:
 4349 04ff 5F5F7569 		.ascii	"__uint64_t\000"
 4349      6E743634 
 4349      5F7400
 4350              	.LASF88:
 4351 050a 57574447 		.ascii	"WWDG_IRQn\000"
 4351      5F495251 
 4351      6E00
 4352              	.LASF12:
 4353 0514 6C6F6E67 		.ascii	"long unsigned int\000"
 4353      20756E73 
 4353      69676E65 
 4353      6420696E 
 4353      7400
 4354              	.LASF258:
 4355 0526 646D6173 		.ascii	"dmastp\000"
 4355      747000
 4356              	.LASF81:
 4357 052d 4D656D6F 		.ascii	"MemoryManagement_IRQn\000"
 4357      72794D61 
 4357      6E616765 
ARM GAS  /tmp/ccH0TlFv.s 			page 82


 4357      6D656E74 
 4357      5F495251 
 4358              	.LASF261:
 4359 0543 70617261 		.ascii	"param\000"
 4359      6D00
 4360              	.LASF220:
 4361 0549 63685F73 		.ascii	"ch_semaphore\000"
 4361      656D6170 
 4361      686F7265 
 4361      00
 4362              	.LASF90:
 4363 0556 54414D50 		.ascii	"TAMP_STAMP_IRQn\000"
 4363      5F535441 
 4363      4D505F49 
 4363      52516E00 
 4364              	.LASF48:
 4365 0566 63685F74 		.ascii	"ch_thread\000"
 4365      68726561 
 4365      6400
 4366              	.LASF110:
 4367 0570 43414E31 		.ascii	"CAN1_SCE_IRQn\000"
 4367      5F534345 
 4367      5F495251 
 4367      6E00
 4368              	.LASF68:
 4369 057e 76697274 		.ascii	"virtual_timers_list_t\000"
 4369      75616C5F 
 4369      74696D65 
 4369      72735F6C 
 4369      6973745F 
 4370              	.LASF267:
 4371 0594 5F73746D 		.ascii	"_stm32_dma_streams\000"
 4371      33325F64 
 4371      6D615F73 
 4371      74726561 
 4371      6D7300
 4372              	.LASF144:
 4373 05a7 444D4132 		.ascii	"DMA2_Stream0_IRQn\000"
 4373      5F537472 
 4373      65616D30 
 4373      5F495251 
 4373      6E00
 4374              	.LASF61:
 4375 05b9 76697274 		.ascii	"virtual_timer_t\000"
 4375      75616C5F 
 4375      74696D65 
 4375      725F7400 
 4376              	.LASF52:
 4377 05c9 72656164 		.ascii	"ready_list_t\000"
 4377      795F6C69 
 4377      73745F74 
 4377      00
 4378              	.LASF240:
 4379 05d6 56656374 		.ascii	"Vector6C\000"
 4379      6F723643 
 4379      00
 4380              	.LASF122:
ARM GAS  /tmp/ccH0TlFv.s 			page 83


 4381 05df 49324332 		.ascii	"I2C2_ER_IRQn\000"
 4381      5F45525F 
 4381      4952516E 
 4381      00
 4382              	.LASF208:
 4383 05ec 73746B61 		.ascii	"stkalign_t\000"
 4383      6C69676E 
 4383      5F7400
 4384              	.LASF49:
 4385 05f7 63685F74 		.ascii	"ch_threads_list\000"
 4385      68726561 
 4385      64735F6C 
 4385      69737400 
 4386              	.LASF82:
 4387 0607 42757346 		.ascii	"BusFault_IRQn\000"
 4387      61756C74 
 4387      5F495251 
 4387      6E00
 4388              	.LASF179:
 4389 0615 504C4C43 		.ascii	"PLLCFGR\000"
 4389      46475200 
 4390              	.LASF141:
 4391 061d 55415254 		.ascii	"UART5_IRQn\000"
 4391      355F4952 
 4391      516E00
 4392              	.LASF241:
 4393 0628 56656374 		.ascii	"Vector70\000"
 4393      6F723730 
 4393      00
 4394              	.LASF112:
 4395 0631 54494D31 		.ascii	"TIM1_BRK_TIM9_IRQn\000"
 4395      5F42524B 
 4395      5F54494D 
 4395      395F4952 
 4395      516E00
 4396              	.LASF243:
 4397 0644 56656374 		.ascii	"Vector74\000"
 4397      6F723734 
 4397      00
 4398              	.LASF244:
 4399 064d 56656374 		.ascii	"Vector78\000"
 4399      6F723738 
 4399      00
 4400              	.LASF245:
 4401 0656 56656374 		.ascii	"Vector7C\000"
 4401      6F723743 
 4401      00
 4402              	.LASF11:
 4403 065f 5F5F7569 		.ascii	"__uint32_t\000"
 4403      6E743332 
 4403      5F7400
 4404              	.LASF143:
 4405 066a 54494D37 		.ascii	"TIM7_IRQn\000"
 4405      5F495251 
 4405      6E00
 4406              	.LASF1:
 4407 0674 6C6F6E67 		.ascii	"long long int\000"
ARM GAS  /tmp/ccH0TlFv.s 			page 84


 4407      206C6F6E 
 4407      6720696E 
 4407      7400
 4408              	.LASF150:
 4409 0682 4554485F 		.ascii	"ETH_WKUP_IRQn\000"
 4409      574B5550 
 4409      5F495251 
 4409      6E00
 4410              	.LASF165:
 4411 0690 4F54475F 		.ascii	"OTG_HS_IRQn\000"
 4411      48535F49 
 4411      52516E00 
 4412              	.LASF224:
 4413 069c 6D5F7175 		.ascii	"m_queue\000"
 4413      65756500 
 4414              	.LASF204:
 4415 06a4 53534347 		.ascii	"SSCGR\000"
 4415      5200
 4416              	.LASF63:
 4417 06aa 76745F6E 		.ascii	"vt_next\000"
 4417      65787400 
 4418              	.LASF123:
 4419 06b2 53504931 		.ascii	"SPI1_IRQn\000"
 4419      5F495251 
 4419      6E00
 4420              	.LASF246:
 4421 06bc 56656374 		.ascii	"Vector80\000"
 4421      6F723830 
 4421      00
 4422              	.LASF247:
 4423 06c5 56656374 		.ascii	"Vector84\000"
 4423      6F723834 
 4423      00
 4424              	.LASF64:
 4425 06ce 76745F70 		.ascii	"vt_prev\000"
 4425      72657600 
 4426              	.LASF84:
 4427 06d6 53564361 		.ascii	"SVCall_IRQn\000"
 4427      6C6C5F49 
 4427      52516E00 
 4428              	.LASF186:
 4429 06e2 41504232 		.ascii	"APB2RSTR\000"
 4429      52535452 
 4429      00
 4430              	.LASF168:
 4431 06eb 4650555F 		.ascii	"FPU_IRQn\000"
 4431      4952516E 
 4431      00
 4432              	.LASF140:
 4433 06f4 55415254 		.ascii	"UART4_IRQn\000"
 4433      345F4952 
 4433      516E00
 4434              	.LASF200:
 4435 06ff 41504232 		.ascii	"APB2LPENR\000"
 4435      4C50454E 
 4435      5200
 4436              	.LASF39:
ARM GAS  /tmp/ccH0TlFv.s 			page 85


 4437 0709 705F7761 		.ascii	"p_waiting\000"
 4437      6974696E 
 4437      6700
 4438              	.LASF130:
 4439 0713 4F54475F 		.ascii	"OTG_FS_WKUP_IRQn\000"
 4439      46535F57 
 4439      4B55505F 
 4439      4952516E 
 4439      00
 4440              	.LASF37:
 4441 0724 705F666C 		.ascii	"p_flags\000"
 4441      61677300 
 4442              	.LASF79:
 4443 072c 69646C65 		.ascii	"idle_thread_wa\000"
 4443      5F746872 
 4443      6561645F 
 4443      776100
 4444              	.LASF0:
 4445 073b 756E7369 		.ascii	"unsigned int\000"
 4445      676E6564 
 4445      20696E74 
 4445      00
 4446              	.LASF19:
 4447 0748 7274636E 		.ascii	"rtcnt_t\000"
 4447      745F7400 
 4448              	.LASF45:
 4449 0750 705F6D70 		.ascii	"p_mpool\000"
 4449      6F6F6C00 
 4450              	.LASF121:
 4451 0758 49324332 		.ascii	"I2C2_EV_IRQn\000"
 4451      5F45565F 
 4451      4952516E 
 4451      00
 4452              	.LASF265:
 4453 0765 646D615F 		.ascii	"dma_isr_redir\000"
 4453      6973725F 
 4453      72656469 
 4453      7200
 4454              	.LASF235:
 4455 0773 73746D33 		.ascii	"stm32_dmaisr_t\000"
 4455      325F646D 
 4455      61697372 
 4455      5F7400
 4456              	.LASF38:
 4457 0782 705F7265 		.ascii	"p_refs\000"
 4457      667300
 4458              	.LASF190:
 4459 0789 41484233 		.ascii	"AHB3ENR\000"
 4459      454E5200 
 4460              	.LASF268:
 4461 0791 5F706F72 		.ascii	"_port_irq_epilogue\000"
 4461      745F6972 
 4461      715F6570 
 4461      696C6F67 
 4461      756500
 4462              	.LASF211:
 4463 07a4 6F666673 		.ascii	"offset\000"
ARM GAS  /tmp/ccH0TlFv.s 			page 86


 4463      657400
 4464              	.LASF199:
 4465 07ab 41504231 		.ascii	"APB1LPENR\000"
 4465      4C50454E 
 4465      5200
 4466              	.LASF100:
 4467 07b5 444D4131 		.ascii	"DMA1_Stream1_IRQn\000"
 4467      5F537472 
 4467      65616D31 
 4467      5F495251 
 4467      6E00
 4468              	.LASF147:
 4469 07c7 444D4132 		.ascii	"DMA2_Stream3_IRQn\000"
 4469      5F537472 
 4469      65616D33 
 4469      5F495251 
 4469      6E00
 4470              	.LASF151:
 4471 07d9 43414E32 		.ascii	"CAN2_TX_IRQn\000"
 4471      5F54585F 
 4471      4952516E 
 4471      00
 4472              	.LASF173:
 4473 07e6 444D415F 		.ascii	"DMA_Stream_TypeDef\000"
 4473      53747265 
 4473      616D5F54 
 4473      79706544 
 4473      656600
 4474              	.LASF256:
 4475 07f9 56656374 		.ascii	"Vector158\000"
 4475      6F723135 
 4475      3800
 4476              	.LASF239:
 4477 0803 646D615F 		.ascii	"dma_isr_redir_t\000"
 4477      6973725F 
 4477      72656469 
 4477      725F7400 
 4478              	.LASF105:
 4479 0813 444D4131 		.ascii	"DMA1_Stream6_IRQn\000"
 4479      5F537472 
 4479      65616D36 
 4479      5F495251 
 4479      6E00
 4480              	.LASF177:
 4481 0825 48494643 		.ascii	"HIFCR\000"
 4481      5200
 4482              	.LASF183:
 4483 082b 41484233 		.ascii	"AHB3RSTR\000"
 4483      52535452 
 4483      00
 4484              	.LASF28:
 4485 0834 74687265 		.ascii	"thread_t\000"
 4485      61645F74 
 4485      00
 4486              	.LASF2:
 4487 083d 6C6F6E67 		.ascii	"long double\000"
 4487      20646F75 
ARM GAS  /tmp/ccH0TlFv.s 			page 87


 4487      626C6500 
 4488              	.LASF270:
 4489 0849 6E766963 		.ascii	"nvicDisableVector\000"
 4489      44697361 
 4489      626C6556 
 4489      6563746F 
 4489      7200
 4490              	.LASF46:
 4491 085b 74687265 		.ascii	"thread_reference_t\000"
 4491      61645F72 
 4491      65666572 
 4491      656E6365 
 4491      5F7400
 4492              	.LASF44:
 4493 086e 705F7265 		.ascii	"p_realprio\000"
 4493      616C7072 
 4493      696F00
 4494              	.LASF210:
 4495 0879 706F7274 		.ascii	"port_intctx\000"
 4495      5F696E74 
 4495      63747800 
 4496              	.LASF65:
 4497 0885 76745F64 		.ascii	"vt_delta\000"
 4497      656C7461 
 4497      00
 4498              	.LASF99:
 4499 088e 444D4131 		.ascii	"DMA1_Stream0_IRQn\000"
 4499      5F537472 
 4499      65616D30 
 4499      5F495251 
 4499      6E00
 4500              	.LASF185:
 4501 08a0 41504231 		.ascii	"APB1RSTR\000"
 4501      52535452 
 4501      00
 4502              	.LASF62:
 4503 08a9 63685F76 		.ascii	"ch_virtual_timer\000"
 4503      69727475 
 4503      616C5F74 
 4503      696D6572 
 4503      00
 4504              	.LASF129:
 4505 08ba 5254435F 		.ascii	"RTC_Alarm_IRQn\000"
 4505      416C6172 
 4505      6D5F4952 
 4505      516E00
 4506              	.LASF192:
 4507 08c9 41504231 		.ascii	"APB1ENR\000"
 4507      454E5200 
 4508              	.LASF222:
 4509 08d1 735F636E 		.ascii	"s_cnt\000"
 4509      7400
 4510              	.LASF161:
 4511 08d7 49324333 		.ascii	"I2C3_ER_IRQn\000"
 4511      5F45525F 
 4511      4952516E 
 4511      00
ARM GAS  /tmp/ccH0TlFv.s 			page 88


 4512              	.LASF128:
 4513 08e4 45585449 		.ascii	"EXTI15_10_IRQn\000"
 4513      31355F31 
 4513      305F4952 
 4513      516E00
 4514              	.LASF14:
 4515 08f3 6C6F6E67 		.ascii	"long long unsigned int\000"
 4515      206C6F6E 
 4515      6720756E 
 4515      7369676E 
 4515      65642069 
 4516              	.LASF34:
 4517 090a 705F6F6C 		.ascii	"p_older\000"
 4517      64657200 
 4518              	.LASF24:
 4519 0912 6D73675F 		.ascii	"msg_t\000"
 4519      7400
 4520              	.LASF51:
 4521 0918 63685F74 		.ascii	"ch_threads_queue\000"
 4521      68726561 
 4521      64735F71 
 4521      75657565 
 4521      00
 4522              	.LASF117:
 4523 0929 54494D33 		.ascii	"TIM3_IRQn\000"
 4523      5F495251 
 4523      6E00
 4524              	.LASF125:
 4525 0933 55534152 		.ascii	"USART1_IRQn\000"
 4525      54315F49 
 4525      52516E00 
 4526              	.LASF250:
 4527 093f 56656374 		.ascii	"Vector124\000"
 4527      6F723132 
 4527      3400
 4528              	.LASF251:
 4529 0949 56656374 		.ascii	"Vector128\000"
 4529      6F723132 
 4529      3800
 4530              	.LASF252:
 4531 0953 56656374 		.ascii	"Vector12C\000"
 4531      6F723132 
 4531      4300
 4532              	.LASF59:
 4533 095d 725F6375 		.ascii	"r_current\000"
 4533      7272656E 
 4533      7400
 4534              	.LASF153:
 4535 0967 43414E32 		.ascii	"CAN2_RX1_IRQn\000"
 4535      5F525831 
 4535      5F495251 
 4535      6E00
 4536              	.LASF233:
 4537 0975 76656374 		.ascii	"vector\000"
 4537      6F7200
 4538              	.LASF106:
 4539 097c 4144435F 		.ascii	"ADC_IRQn\000"
ARM GAS  /tmp/ccH0TlFv.s 			page 89


 4539      4952516E 
 4539      00
 4540              	.LASF78:
 4541 0985 6D61696E 		.ascii	"mainthread\000"
 4541      74687265 
 4541      616400
 4542              	.LASF253:
 4543 0990 56656374 		.ascii	"Vector130\000"
 4543      6F723133 
 4543      3000
 4544              	.LASF197:
 4545 099a 41484233 		.ascii	"AHB3LPENR\000"
 4545      4C50454E 
 4545      5200
 4546              	.LASF54:
 4547 09a4 725F7175 		.ascii	"r_queue\000"
 4547      65756500 
 4548              	.LASF89:
 4549 09ac 5056445F 		.ascii	"PVD_IRQn\000"
 4549      4952516E 
 4549      00
 4550              	.LASF136:
 4551 09b5 46534D43 		.ascii	"FSMC_IRQn\000"
 4551      5F495251 
 4551      6E00
 4552              	.LASF94:
 4553 09bf 45585449 		.ascii	"EXTI0_IRQn\000"
 4553      305F4952 
 4553      516E00
 4554              	.LASF76:
 4555 09ca 726C6973 		.ascii	"rlist\000"
 4555      7400
 4556              	.LASF20:
 4557 09d0 746D6F64 		.ascii	"tmode_t\000"
 4557      655F7400 
 4558              	.LASF103:
 4559 09d8 444D4131 		.ascii	"DMA1_Stream4_IRQn\000"
 4559      5F537472 
 4559      65616D34 
 4559      5F495251 
 4559      6E00
 4560              	.LASF157:
 4561 09ea 444D4132 		.ascii	"DMA2_Stream6_IRQn\000"
 4561      5F537472 
 4561      65616D36 
 4561      5F495251 
 4561      6E00
 4562              	.LASF188:
 4563 09fc 41484231 		.ascii	"AHB1ENR\000"
 4563      454E5200 
 4564              	.LASF85:
 4565 0a04 44656275 		.ascii	"DebugMonitor_IRQn\000"
 4565      674D6F6E 
 4565      69746F72 
 4565      5F495251 
 4565      6E00
 4566              	.LASF160:
ARM GAS  /tmp/ccH0TlFv.s 			page 90


 4567 0a16 49324333 		.ascii	"I2C3_EV_IRQn\000"
 4567      5F45565F 
 4567      4952516E 
 4567      00
 4568              	.LASF58:
 4569 0a23 725F6F6C 		.ascii	"r_older\000"
 4569      64657200 
 4570              	.LASF212:
 4571 0a2b 746D5F63 		.ascii	"tm_calibration_t\000"
 4571      616C6962 
 4571      72617469 
 4571      6F6E5F74 
 4571      00
 4572              	.LASF182:
 4573 0a3c 41484232 		.ascii	"AHB2RSTR\000"
 4573      52535452 
 4573      00
 4574              	.LASF171:
 4575 0a45 4D304152 		.ascii	"M0AR\000"
 4575      00
 4576              	.LASF149:
 4577 0a4a 4554485F 		.ascii	"ETH_IRQn\000"
 4577      4952516E 
 4577      00
 4578              	.LASF221:
 4579 0a53 735F7175 		.ascii	"s_queue\000"
 4579      65756500 
 4580              	.LASF254:
 4581 0a5b 56656374 		.ascii	"Vector150\000"
 4581      6F723135 
 4581      3000
 4582              	.LASF255:
 4583 0a65 56656374 		.ascii	"Vector154\000"
 4583      6F723135 
 4583      3400
 4584              	.LASF232:
 4585 0a6f 73656C66 		.ascii	"selfindex\000"
 4585      696E6465 
 4585      7800
 4586              	.LASF206:
 4587 0a79 5243435F 		.ascii	"RCC_TypeDef\000"
 4587      54797065 
 4587      44656600 
 4588              	.LASF7:
 4589 0a85 73686F72 		.ascii	"short int\000"
 4589      7420696E 
 4589      7400
 4590              	.LASF18:
 4591 0a8f 75696E74 		.ascii	"uint64_t\000"
 4591      36345F74 
 4591      00
 4592              	.LASF93:
 4593 0a98 5243435F 		.ascii	"RCC_IRQn\000"
 4593      4952516E 
 4593      00
 4594              	.LASF259:
 4595 0aa1 7072696F 		.ascii	"priority\000"
ARM GAS  /tmp/ccH0TlFv.s 			page 91


 4595      72697479 
 4595      00
 4596              	.LASF223:
 4597 0aaa 63685F6D 		.ascii	"ch_mutex\000"
 4597      75746578 
 4597      00
 4598              	.LASF55:
 4599 0ab3 725F7072 		.ascii	"r_prio\000"
 4599      696F00
 4600              	.LASF102:
 4601 0aba 444D4131 		.ascii	"DMA1_Stream3_IRQn\000"
 4601      5F537472 
 4601      65616D33 
 4601      5F495251 
 4601      6E00
 4602              	.LASF72:
 4603 0acc 63685F73 		.ascii	"ch_system_debug\000"
 4603      79737465 
 4603      6D5F6465 
 4603      62756700 
 4604              	.LASF271:
 4605 0adc 474E5520 		.ascii	"GNU C11 5.3.1 20160307 (release) [ARM/embedded-5-br"
 4605      43313120 
 4605      352E332E 
 4605      31203230 
 4605      31363033 
 4606 0b0f 616E6368 		.ascii	"anch revision 234589] -mcpu=cortex-m4 -mno-thumb-in"
 4606      20726576 
 4606      6973696F 
 4606      6E203233 
 4606      34353839 
 4607 0b42 74657277 		.ascii	"terwork -mthumb -ggdb -O2 -fomit-frame-pointer -fal"
 4607      6F726B20 
 4607      2D6D7468 
 4607      756D6220 
 4607      2D676764 
 4608 0b75 69676E2D 		.ascii	"ign-functions=16 -ffunction-sections -fdata-section"
 4608      66756E63 
 4608      74696F6E 
 4608      733D3136 
 4608      202D6666 
 4609 0ba8 73202D66 		.ascii	"s -fno-common\000"
 4609      6E6F2D63 
 4609      6F6D6D6F 
 4609      6E00
 4610              	.LASF238:
 4611 0bb6 646D615F 		.ascii	"dma_param\000"
 4611      70617261 
 4611      6D00
 4612              	.LASF113:
 4613 0bc0 54494D31 		.ascii	"TIM1_UP_TIM10_IRQn\000"
 4613      5F55505F 
 4613      54494D31 
 4613      305F4952 
 4613      516E00
 4614              	.LASF266:
 4615 0bd3 49544D5F 		.ascii	"ITM_RxBuffer\000"
ARM GAS  /tmp/ccH0TlFv.s 			page 92


 4615      52784275 
 4615      66666572 
 4615      00
 4616              	.LASF77:
 4617 0be0 76746C69 		.ascii	"vtlist\000"
 4617      737400
 4618              	.LASF228:
 4619 0be7 6D757465 		.ascii	"mutex_t\000"
 4619      785F7400 
 4620              	.LASF22:
 4621 0bef 74726566 		.ascii	"trefs_t\000"
 4621      735F7400 
 4622              	.LASF162:
 4623 0bf7 4F54475F 		.ascii	"OTG_HS_EP1_OUT_IRQn\000"
 4623      48535F45 
 4623      50315F4F 
 4623      55545F49 
 4623      52516E00 
 4624              	.LASF47:
 4625 0c0b 74687265 		.ascii	"threads_list_t\000"
 4625      6164735F 
 4625      6C697374 
 4625      5F7400
 4626              	.LASF75:
 4627 0c1a 63685F73 		.ascii	"ch_system\000"
 4627      79737465 
 4627      6D00
 4628              	.LASF269:
 4629 0c24 6E766963 		.ascii	"nvicEnableVector\000"
 4629      456E6162 
 4629      6C655665 
 4629      63746F72 
 4629      00
 4630              	.LASF17:
 4631 0c35 75696E74 		.ascii	"uint32_t\000"
 4631      33325F74 
 4631      00
 4632              	.LASF175:
 4633 0c3e 48495352 		.ascii	"HISR\000"
 4633      00
 4634              	.LASF109:
 4635 0c43 43414E31 		.ascii	"CAN1_RX1_IRQn\000"
 4635      5F525831 
 4635      5F495251 
 4635      6E00
 4636              	.LASF111:
 4637 0c51 45585449 		.ascii	"EXTI9_5_IRQn\000"
 4637      395F355F 
 4637      4952516E 
 4637      00
 4638              	.LASF174:
 4639 0c5e 4C495352 		.ascii	"LISR\000"
 4639      00
 4640              	.LASF213:
 4641 0c63 7264796D 		.ascii	"rdymsg\000"
 4641      736700
 4642              	.LASF70:
ARM GAS  /tmp/ccH0TlFv.s 			page 93


 4643 0c6a 76745F6C 		.ascii	"vt_lasttime\000"
 4643      61737474 
 4643      696D6500 
 4644              	.LASF8:
 4645 0c76 73686F72 		.ascii	"short unsigned int\000"
 4645      7420756E 
 4645      7369676E 
 4645      65642069 
 4645      6E7400
 4646              	.LASF134:
 4647 0c89 54494D38 		.ascii	"TIM8_CC_IRQn\000"
 4647      5F43435F 
 4647      4952516E 
 4647      00
 4648              	.LASF137:
 4649 0c96 5344494F 		.ascii	"SDIO_IRQn\000"
 4649      5F495251 
 4649      6E00
 4650              	.LASF74:
 4651 0ca0 63685F73 		.ascii	"ch_system_t\000"
 4651      79737465 
 4651      6D5F7400 
 4652              	.LASF97:
 4653 0cac 45585449 		.ascii	"EXTI3_IRQn\000"
 4653      335F4952 
 4653      516E00
 4654              	.LASF86:
 4655 0cb7 50656E64 		.ascii	"PendSV_IRQn\000"
 4655      53565F49 
 4655      52516E00 
 4656              	.LASF163:
 4657 0cc3 4F54475F 		.ascii	"OTG_HS_EP1_IN_IRQn\000"
 4657      48535F45 
 4657      50315F49 
 4657      4E5F4952 
 4657      516E00
 4658              	.LASF135:
 4659 0cd6 444D4131 		.ascii	"DMA1_Stream7_IRQn\000"
 4659      5F537472 
 4659      65616D37 
 4659      5F495251 
 4659      6E00
 4660              	.LASF9:
 4661 0ce8 5F5F696E 		.ascii	"__int32_t\000"
 4661      7433325F 
 4661      7400
 4662              	.LASF170:
 4663 0cf2 4E445452 		.ascii	"NDTR\000"
 4663      00
 4664              	.LASF230:
 4665 0cf7 69666372 		.ascii	"ifcr\000"
 4665      00
 4666              	.LASF35:
 4667 0cfc 705F6E61 		.ascii	"p_name\000"
 4667      6D6500
 4668              	.LASF226:
 4669 0d03 6D5F6E65 		.ascii	"m_next\000"
ARM GAS  /tmp/ccH0TlFv.s 			page 94


 4669      787400
 4670              	.LASF248:
 4671 0d0a 56656374 		.ascii	"VectorFC\000"
 4671      6F724643 
 4671      00
 4672              	.LASF142:
 4673 0d13 54494D36 		.ascii	"TIM6_DAC_IRQn\000"
 4673      5F444143 
 4673      5F495251 
 4673      6E00
 4674              	.LASF146:
 4675 0d21 444D4132 		.ascii	"DMA2_Stream2_IRQn\000"
 4675      5F537472 
 4675      65616D32 
 4675      5F495251 
 4675      6E00
 4676              	.LASF41:
 4677 0d33 705F6D73 		.ascii	"p_msg\000"
 4677      6700
 4678              	.LASF36:
 4679 0d39 705F7374 		.ascii	"p_state\000"
 4679      61746500 
 4680              		.ident	"GCC: (GNU Tools for ARM Embedded Processors) 5.3.1 20160307 (release) [ARM/embedded-5-bran
ARM GAS  /tmp/ccH0TlFv.s 			page 95


DEFINED SYMBOLS
                            *ABS*:0000000000000000 stm32_dma.c
     /tmp/ccH0TlFv.s:20     .text.Vector6C:0000000000000000 $t
     /tmp/ccH0TlFv.s:26     .text.Vector6C:0000000000000000 Vector6C
     /tmp/ccH0TlFv.s:66     .text.Vector6C:0000000000000020 $d
     /tmp/ccH0TlFv.s:72     .text.Vector70:0000000000000000 $t
     /tmp/ccH0TlFv.s:78     .text.Vector70:0000000000000000 Vector70
     /tmp/ccH0TlFv.s:122    .text.Vector70:0000000000000024 $d
     /tmp/ccH0TlFv.s:128    .text.Vector74:0000000000000000 $t
     /tmp/ccH0TlFv.s:134    .text.Vector74:0000000000000000 Vector74
     /tmp/ccH0TlFv.s:178    .text.Vector74:0000000000000024 $d
     /tmp/ccH0TlFv.s:184    .text.Vector78:0000000000000000 $t
     /tmp/ccH0TlFv.s:190    .text.Vector78:0000000000000000 Vector78
     /tmp/ccH0TlFv.s:234    .text.Vector78:0000000000000024 $d
     /tmp/ccH0TlFv.s:240    .text.Vector7C:0000000000000000 $t
     /tmp/ccH0TlFv.s:246    .text.Vector7C:0000000000000000 Vector7C
     /tmp/ccH0TlFv.s:287    .text.Vector7C:0000000000000020 $d
     /tmp/ccH0TlFv.s:293    .text.Vector80:0000000000000000 $t
     /tmp/ccH0TlFv.s:299    .text.Vector80:0000000000000000 Vector80
     /tmp/ccH0TlFv.s:343    .text.Vector80:0000000000000024 $d
     /tmp/ccH0TlFv.s:349    .text.Vector84:0000000000000000 $t
     /tmp/ccH0TlFv.s:355    .text.Vector84:0000000000000000 Vector84
     /tmp/ccH0TlFv.s:399    .text.Vector84:0000000000000024 $d
     /tmp/ccH0TlFv.s:405    .text.VectorFC:0000000000000000 $t
     /tmp/ccH0TlFv.s:411    .text.VectorFC:0000000000000000 VectorFC
     /tmp/ccH0TlFv.s:455    .text.VectorFC:0000000000000024 $d
     /tmp/ccH0TlFv.s:461    .text.Vector120:0000000000000000 $t
     /tmp/ccH0TlFv.s:467    .text.Vector120:0000000000000000 Vector120
     /tmp/ccH0TlFv.s:508    .text.Vector120:0000000000000020 $d
     /tmp/ccH0TlFv.s:514    .text.Vector124:0000000000000000 $t
     /tmp/ccH0TlFv.s:520    .text.Vector124:0000000000000000 Vector124
     /tmp/ccH0TlFv.s:564    .text.Vector124:0000000000000024 $d
     /tmp/ccH0TlFv.s:570    .text.Vector128:0000000000000000 $t
     /tmp/ccH0TlFv.s:576    .text.Vector128:0000000000000000 Vector128
     /tmp/ccH0TlFv.s:620    .text.Vector128:0000000000000024 $d
     /tmp/ccH0TlFv.s:626    .text.Vector12C:0000000000000000 $t
     /tmp/ccH0TlFv.s:632    .text.Vector12C:0000000000000000 Vector12C
     /tmp/ccH0TlFv.s:676    .text.Vector12C:0000000000000024 $d
     /tmp/ccH0TlFv.s:682    .text.Vector130:0000000000000000 $t
     /tmp/ccH0TlFv.s:688    .text.Vector130:0000000000000000 Vector130
     /tmp/ccH0TlFv.s:729    .text.Vector130:0000000000000020 $d
     /tmp/ccH0TlFv.s:735    .text.Vector150:0000000000000000 $t
     /tmp/ccH0TlFv.s:741    .text.Vector150:0000000000000000 Vector150
     /tmp/ccH0TlFv.s:785    .text.Vector150:0000000000000024 $d
     /tmp/ccH0TlFv.s:791    .text.Vector154:0000000000000000 $t
     /tmp/ccH0TlFv.s:797    .text.Vector154:0000000000000000 Vector154
     /tmp/ccH0TlFv.s:841    .text.Vector154:0000000000000024 $d
     /tmp/ccH0TlFv.s:847    .text.Vector158:0000000000000000 $t
     /tmp/ccH0TlFv.s:853    .text.Vector158:0000000000000000 Vector158
     /tmp/ccH0TlFv.s:897    .text.Vector158:0000000000000024 $d
     /tmp/ccH0TlFv.s:903    .text.dmaInit:0000000000000000 $t
     /tmp/ccH0TlFv.s:909    .text.dmaInit:0000000000000000 dmaInit
     /tmp/ccH0TlFv.s:970    .text.dmaInit:000000000000003c $d
     /tmp/ccH0TlFv.s:980    .text.dmaStreamAllocate:0000000000000000 $t
     /tmp/ccH0TlFv.s:986    .text.dmaStreamAllocate:0000000000000000 dmaStreamAllocate
     /tmp/ccH0TlFv.s:1093   .text.dmaStreamAllocate:0000000000000080 $d
     /tmp/ccH0TlFv.s:1100   .text.dmaStreamRelease:0000000000000000 $t
ARM GAS  /tmp/ccH0TlFv.s 			page 96


     /tmp/ccH0TlFv.s:1106   .text.dmaStreamRelease:0000000000000000 dmaStreamRelease
     /tmp/ccH0TlFv.s:1157   .text.dmaStreamRelease:000000000000003c $d
     /tmp/ccH0TlFv.s:1175   .rodata._stm32_dma_streams:0000000000000000 _stm32_dma_streams
     /tmp/ccH0TlFv.s:1164   .bss.dma_isr_redir:0000000000000000 $d
     /tmp/ccH0TlFv.s:1168   .bss.dma_isr_redir:0000000000000000 dma_isr_redir
     /tmp/ccH0TlFv.s:1171   .rodata._stm32_dma_streams:0000000000000000 $d
     /tmp/ccH0TlFv.s:1273   .bss.dma_streams_mask:0000000000000000 $d
     /tmp/ccH0TlFv.s:1277   .bss.dma_streams_mask:0000000000000000 dma_streams_mask
                     .debug_frame:0000000000000010 $d

UNDEFINED SYMBOLS
_port_irq_epilogue
nvicEnableVector
nvicDisableVector
