ARM GAS  /tmp/ccH0TlFv.s 			page 1


   1              		.syntax unified
   2              		.cpu cortex-m4
   3              		.fpu softvfp
   4              		.eabi_attribute 20, 1
   5              		.eabi_attribute 21, 1
   6              		.eabi_attribute 23, 3
   7              		.eabi_attribute 24, 1
   8              		.eabi_attribute 25, 1
   9              		.eabi_attribute 26, 1
  10              		.eabi_attribute 30, 2
  11              		.eabi_attribute 34, 1
  12              		.eabi_attribute 18, 4
  13              		.thumb
  14              		.syntax unified
  15              		.file	"stm32_dma.c"
  16              		.text
  17              	.Ltext0:
  18              		.cfi_sections	.debug_frame
  19              		.section	.text.Vector6C,"ax",%progbits
  20              		.align	2
  21              		.p2align 4,,15
  22              		.global	Vector6C
  23              		.thumb
  24              		.thumb_func
  25              		.type	Vector6C, %function
  26              	Vector6C:
  27              	.LFB258:
  28              		.file 1 "/home/selim/working/ChibiOS/os/hal/ports/STM32/STM32F4xx/stm32_dma.c"
  29              		.loc 1 127 0
  30              		.cfi_startproc
  31              		@ args = 0, pretend = 0, frame = 0
  32              		@ frame_needed = 0, uses_anonymous_args = 0
  33 0000 08B5     		push	{r3, lr}
  34              		.cfi_def_cfa_offset 8
  35              		.cfi_offset 3, -8
  36              		.cfi_offset 14, -4
  37              		.loc 1 132 0
  38 0002 074B     		ldr	r3, .L8
  39              		.loc 1 134 0
  40 0004 074A     		ldr	r2, .L8+4
  41              		.loc 1 132 0
  42 0006 1968     		ldr	r1, [r3]
  43 0008 01F03D01 		and	r1, r1, #61
  44              	.LVL0:
  45              		.loc 1 133 0
  46 000c 9960     		str	r1, [r3, #8]
  47              		.loc 1 134 0
  48 000e 1368     		ldr	r3, [r2]
  49 0010 0BB1     		cbz	r3, .L2
  50              		.loc 1 135 0
  51 0012 5068     		ldr	r0, [r2, #4]
  52 0014 9847     		blx	r3
  53              	.LVL1:
  54              	.L2:
  55              		.loc 1 138 0
  56 0016 BDE80840 		pop	{r3, lr}
  57              		.cfi_restore 14
ARM GAS  /tmp/ccH0TlFv.s 			page 2


  58              		.cfi_restore 3
  59              		.cfi_def_cfa_offset 0
  60              		.loc 1 137 0
  61 001a FFF7FEBF 		b	_port_irq_epilogue
  62              	.LVL2:
  63              	.L9:
  64 001e 00BF     		.align	2
  65              	.L8:
  66 0020 00600240 		.word	1073897472
  67 0024 00000000 		.word	.LANCHOR0
  68              		.cfi_endproc
  69              	.LFE258:
  70              		.size	Vector6C, .-Vector6C
  71              		.section	.text.Vector70,"ax",%progbits
  72              		.align	2
  73              		.p2align 4,,15
  74              		.global	Vector70
  75              		.thumb
  76              		.thumb_func
  77              		.type	Vector70, %function
  78              	Vector70:
  79              	.LFB259:
  80              		.loc 1 145 0
  81              		.cfi_startproc
  82              		@ args = 0, pretend = 0, frame = 0
  83              		@ frame_needed = 0, uses_anonymous_args = 0
  84              		.loc 1 150 0
  85 0000 084B     		ldr	r3, .L16
  86              		.loc 1 152 0
  87 0002 0948     		ldr	r0, .L16+4
  88              		.loc 1 150 0
  89 0004 1968     		ldr	r1, [r3]
  90              		.loc 1 152 0
  91 0006 8268     		ldr	r2, [r0, #8]
  92              		.loc 1 150 0
  93 0008 8909     		lsrs	r1, r1, #6
  94 000a 01F03D01 		and	r1, r1, #61
  95              	.LVL3:
  96              		.loc 1 145 0
  97 000e 10B5     		push	{r4, lr}
  98              		.cfi_def_cfa_offset 8
  99              		.cfi_offset 4, -8
 100              		.cfi_offset 14, -4
 101              		.loc 1 151 0
 102 0010 8C01     		lsls	r4, r1, #6
 103 0012 9C60     		str	r4, [r3, #8]
 104              		.loc 1 152 0
 105 0014 0AB1     		cbz	r2, .L11
 106              		.loc 1 153 0
 107 0016 C068     		ldr	r0, [r0, #12]
 108 0018 9047     		blx	r2
 109              	.LVL4:
 110              	.L11:
 111              		.loc 1 156 0
 112 001a BDE81040 		pop	{r4, lr}
 113              		.cfi_restore 14
 114              		.cfi_restore 4
ARM GAS  /tmp/ccH0TlFv.s 			page 3


 115              		.cfi_def_cfa_offset 0
 116              		.loc 1 155 0
 117 001e FFF7FEBF 		b	_port_irq_epilogue
 118              	.LVL5:
 119              	.L17:
 120 0022 00BF     		.align	2
 121              	.L16:
 122 0024 00600240 		.word	1073897472
 123 0028 00000000 		.word	.LANCHOR0
 124              		.cfi_endproc
 125              	.LFE259:
 126              		.size	Vector70, .-Vector70
 127              		.section	.text.Vector74,"ax",%progbits
 128              		.align	2
 129              		.p2align 4,,15
 130              		.global	Vector74
 131              		.thumb
 132              		.thumb_func
 133              		.type	Vector74, %function
 134              	Vector74:
 135              	.LFB260:
 136              		.loc 1 163 0
 137              		.cfi_startproc
 138              		@ args = 0, pretend = 0, frame = 0
 139              		@ frame_needed = 0, uses_anonymous_args = 0
 140              		.loc 1 168 0
 141 0000 084B     		ldr	r3, .L24
 142              		.loc 1 170 0
 143 0002 0948     		ldr	r0, .L24+4
 144              		.loc 1 168 0
 145 0004 1968     		ldr	r1, [r3]
 146              		.loc 1 170 0
 147 0006 0269     		ldr	r2, [r0, #16]
 148              		.loc 1 168 0
 149 0008 090C     		lsrs	r1, r1, #16
 150 000a 01F03D01 		and	r1, r1, #61
 151              	.LVL6:
 152              		.loc 1 163 0
 153 000e 10B5     		push	{r4, lr}
 154              		.cfi_def_cfa_offset 8
 155              		.cfi_offset 4, -8
 156              		.cfi_offset 14, -4
 157              		.loc 1 169 0
 158 0010 0C04     		lsls	r4, r1, #16
 159 0012 9C60     		str	r4, [r3, #8]
 160              		.loc 1 170 0
 161 0014 0AB1     		cbz	r2, .L19
 162              		.loc 1 171 0
 163 0016 4069     		ldr	r0, [r0, #20]
 164 0018 9047     		blx	r2
 165              	.LVL7:
 166              	.L19:
 167              		.loc 1 174 0
 168 001a BDE81040 		pop	{r4, lr}
 169              		.cfi_restore 14
 170              		.cfi_restore 4
 171              		.cfi_def_cfa_offset 0
ARM GAS  /tmp/ccH0TlFv.s 			page 4


 172              		.loc 1 173 0
 173 001e FFF7FEBF 		b	_port_irq_epilogue
 174              	.LVL8:
 175              	.L25:
 176 0022 00BF     		.align	2
 177              	.L24:
 178 0024 00600240 		.word	1073897472
 179 0028 00000000 		.word	.LANCHOR0
 180              		.cfi_endproc
 181              	.LFE260:
 182              		.size	Vector74, .-Vector74
 183              		.section	.text.Vector78,"ax",%progbits
 184              		.align	2
 185              		.p2align 4,,15
 186              		.global	Vector78
 187              		.thumb
 188              		.thumb_func
 189              		.type	Vector78, %function
 190              	Vector78:
 191              	.LFB261:
 192              		.loc 1 181 0
 193              		.cfi_startproc
 194              		@ args = 0, pretend = 0, frame = 0
 195              		@ frame_needed = 0, uses_anonymous_args = 0
 196              		.loc 1 186 0
 197 0000 084B     		ldr	r3, .L32
 198              		.loc 1 188 0
 199 0002 0948     		ldr	r0, .L32+4
 200              		.loc 1 186 0
 201 0004 1968     		ldr	r1, [r3]
 202              		.loc 1 188 0
 203 0006 8269     		ldr	r2, [r0, #24]
 204              		.loc 1 186 0
 205 0008 890D     		lsrs	r1, r1, #22
 206 000a 01F03D01 		and	r1, r1, #61
 207              	.LVL9:
 208              		.loc 1 181 0
 209 000e 10B5     		push	{r4, lr}
 210              		.cfi_def_cfa_offset 8
 211              		.cfi_offset 4, -8
 212              		.cfi_offset 14, -4
 213              		.loc 1 187 0
 214 0010 8C05     		lsls	r4, r1, #22
 215 0012 9C60     		str	r4, [r3, #8]
 216              		.loc 1 188 0
 217 0014 0AB1     		cbz	r2, .L27
 218              		.loc 1 189 0
 219 0016 C069     		ldr	r0, [r0, #28]
 220 0018 9047     		blx	r2
 221              	.LVL10:
 222              	.L27:
 223              		.loc 1 192 0
 224 001a BDE81040 		pop	{r4, lr}
 225              		.cfi_restore 14
 226              		.cfi_restore 4
 227              		.cfi_def_cfa_offset 0
 228              		.loc 1 191 0
ARM GAS  /tmp/ccH0TlFv.s 			page 5


 229 001e FFF7FEBF 		b	_port_irq_epilogue
 230              	.LVL11:
 231              	.L33:
 232 0022 00BF     		.align	2
 233              	.L32:
 234 0024 00600240 		.word	1073897472
 235 0028 00000000 		.word	.LANCHOR0
 236              		.cfi_endproc
 237              	.LFE261:
 238              		.size	Vector78, .-Vector78
 239              		.section	.text.Vector7C,"ax",%progbits
 240              		.align	2
 241              		.p2align 4,,15
 242              		.global	Vector7C
 243              		.thumb
 244              		.thumb_func
 245              		.type	Vector7C, %function
 246              	Vector7C:
 247              	.LFB262:
 248              		.loc 1 199 0
 249              		.cfi_startproc
 250              		@ args = 0, pretend = 0, frame = 0
 251              		@ frame_needed = 0, uses_anonymous_args = 0
 252 0000 08B5     		push	{r3, lr}
 253              		.cfi_def_cfa_offset 8
 254              		.cfi_offset 3, -8
 255              		.cfi_offset 14, -4
 256              		.loc 1 204 0
 257 0002 074B     		ldr	r3, .L40
 258              		.loc 1 206 0
 259 0004 0748     		ldr	r0, .L40+4
 260              		.loc 1 204 0
 261 0006 5968     		ldr	r1, [r3, #4]
 262              		.loc 1 206 0
 263 0008 026A     		ldr	r2, [r0, #32]
 264              		.loc 1 204 0
 265 000a 01F03D01 		and	r1, r1, #61
 266              	.LVL12:
 267              		.loc 1 205 0
 268 000e D960     		str	r1, [r3, #12]
 269              		.loc 1 206 0
 270 0010 0AB1     		cbz	r2, .L35
 271              		.loc 1 207 0
 272 0012 406A     		ldr	r0, [r0, #36]
 273 0014 9047     		blx	r2
 274              	.LVL13:
 275              	.L35:
 276              		.loc 1 210 0
 277 0016 BDE80840 		pop	{r3, lr}
 278              		.cfi_restore 14
 279              		.cfi_restore 3
 280              		.cfi_def_cfa_offset 0
 281              		.loc 1 209 0
 282 001a FFF7FEBF 		b	_port_irq_epilogue
 283              	.LVL14:
 284              	.L41:
 285 001e 00BF     		.align	2
ARM GAS  /tmp/ccH0TlFv.s 			page 6


 286              	.L40:
 287 0020 00600240 		.word	1073897472
 288 0024 00000000 		.word	.LANCHOR0
 289              		.cfi_endproc
 290              	.LFE262:
 291              		.size	Vector7C, .-Vector7C
 292              		.section	.text.Vector80,"ax",%progbits
 293              		.align	2
 294              		.p2align 4,,15
 295              		.global	Vector80
 296              		.thumb
 297              		.thumb_func
 298              		.type	Vector80, %function
 299              	Vector80:
 300              	.LFB263:
 301              		.loc 1 217 0
 302              		.cfi_startproc
 303              		@ args = 0, pretend = 0, frame = 0
 304              		@ frame_needed = 0, uses_anonymous_args = 0
 305              		.loc 1 222 0
 306 0000 084B     		ldr	r3, .L48
 307              		.loc 1 224 0
 308 0002 0948     		ldr	r0, .L48+4
 309              		.loc 1 222 0
 310 0004 5968     		ldr	r1, [r3, #4]
 311              		.loc 1 224 0
 312 0006 826A     		ldr	r2, [r0, #40]
 313              		.loc 1 222 0
 314 0008 8909     		lsrs	r1, r1, #6
 315 000a 01F03D01 		and	r1, r1, #61
 316              	.LVL15:
 317              		.loc 1 217 0
 318 000e 10B5     		push	{r4, lr}
 319              		.cfi_def_cfa_offset 8
 320              		.cfi_offset 4, -8
 321              		.cfi_offset 14, -4
 322              		.loc 1 223 0
 323 0010 8C01     		lsls	r4, r1, #6
 324 0012 DC60     		str	r4, [r3, #12]
 325              		.loc 1 224 0
 326 0014 0AB1     		cbz	r2, .L43
 327              		.loc 1 225 0
 328 0016 C06A     		ldr	r0, [r0, #44]
 329 0018 9047     		blx	r2
 330              	.LVL16:
 331              	.L43:
 332              		.loc 1 228 0
 333 001a BDE81040 		pop	{r4, lr}
 334              		.cfi_restore 14
 335              		.cfi_restore 4
 336              		.cfi_def_cfa_offset 0
 337              		.loc 1 227 0
 338 001e FFF7FEBF 		b	_port_irq_epilogue
 339              	.LVL17:
 340              	.L49:
 341 0022 00BF     		.align	2
 342              	.L48:
ARM GAS  /tmp/ccH0TlFv.s 			page 7


 343 0024 00600240 		.word	1073897472
 344 0028 00000000 		.word	.LANCHOR0
 345              		.cfi_endproc
 346              	.LFE263:
 347              		.size	Vector80, .-Vector80
 348              		.section	.text.Vector84,"ax",%progbits
 349              		.align	2
 350              		.p2align 4,,15
 351              		.global	Vector84
 352              		.thumb
 353              		.thumb_func
 354              		.type	Vector84, %function
 355              	Vector84:
 356              	.LFB264:
 357              		.loc 1 235 0
 358              		.cfi_startproc
 359              		@ args = 0, pretend = 0, frame = 0
 360              		@ frame_needed = 0, uses_anonymous_args = 0
 361              		.loc 1 240 0
 362 0000 084B     		ldr	r3, .L56
 363              		.loc 1 242 0
 364 0002 0948     		ldr	r0, .L56+4
 365              		.loc 1 240 0
 366 0004 5968     		ldr	r1, [r3, #4]
 367              		.loc 1 242 0
 368 0006 026B     		ldr	r2, [r0, #48]
 369              		.loc 1 240 0
 370 0008 090C     		lsrs	r1, r1, #16
 371 000a 01F03D01 		and	r1, r1, #61
 372              	.LVL18:
 373              		.loc 1 235 0
 374 000e 10B5     		push	{r4, lr}
 375              		.cfi_def_cfa_offset 8
 376              		.cfi_offset 4, -8
 377              		.cfi_offset 14, -4
 378              		.loc 1 241 0
 379 0010 0C04     		lsls	r4, r1, #16
 380 0012 DC60     		str	r4, [r3, #12]
 381              		.loc 1 242 0
 382 0014 0AB1     		cbz	r2, .L51
 383              		.loc 1 243 0
 384 0016 406B     		ldr	r0, [r0, #52]
 385 0018 9047     		blx	r2
 386              	.LVL19:
 387              	.L51:
 388              		.loc 1 246 0
 389 001a BDE81040 		pop	{r4, lr}
 390              		.cfi_restore 14
 391              		.cfi_restore 4
 392              		.cfi_def_cfa_offset 0
 393              		.loc 1 245 0
 394 001e FFF7FEBF 		b	_port_irq_epilogue
 395              	.LVL20:
 396              	.L57:
 397 0022 00BF     		.align	2
 398              	.L56:
 399 0024 00600240 		.word	1073897472
ARM GAS  /tmp/ccH0TlFv.s 			page 8


 400 0028 00000000 		.word	.LANCHOR0
 401              		.cfi_endproc
 402              	.LFE264:
 403              		.size	Vector84, .-Vector84
 404              		.section	.text.VectorFC,"ax",%progbits
 405              		.align	2
 406              		.p2align 4,,15
 407              		.global	VectorFC
 408              		.thumb
 409              		.thumb_func
 410              		.type	VectorFC, %function
 411              	VectorFC:
 412              	.LFB265:
 413              		.loc 1 253 0
 414              		.cfi_startproc
 415              		@ args = 0, pretend = 0, frame = 0
 416              		@ frame_needed = 0, uses_anonymous_args = 0
 417              		.loc 1 258 0
 418 0000 084B     		ldr	r3, .L64
 419              		.loc 1 260 0
 420 0002 0948     		ldr	r0, .L64+4
 421              		.loc 1 258 0
 422 0004 5968     		ldr	r1, [r3, #4]
 423              		.loc 1 260 0
 424 0006 826B     		ldr	r2, [r0, #56]
 425              		.loc 1 258 0
 426 0008 890D     		lsrs	r1, r1, #22
 427 000a 01F03D01 		and	r1, r1, #61
 428              	.LVL21:
 429              		.loc 1 253 0
 430 000e 10B5     		push	{r4, lr}
 431              		.cfi_def_cfa_offset 8
 432              		.cfi_offset 4, -8
 433              		.cfi_offset 14, -4
 434              		.loc 1 259 0
 435 0010 8C05     		lsls	r4, r1, #22
 436 0012 DC60     		str	r4, [r3, #12]
 437              		.loc 1 260 0
 438 0014 0AB1     		cbz	r2, .L59
 439              		.loc 1 261 0
 440 0016 C06B     		ldr	r0, [r0, #60]
 441 0018 9047     		blx	r2
 442              	.LVL22:
 443              	.L59:
 444              		.loc 1 264 0
 445 001a BDE81040 		pop	{r4, lr}
 446              		.cfi_restore 14
 447              		.cfi_restore 4
 448              		.cfi_def_cfa_offset 0
 449              		.loc 1 263 0
 450 001e FFF7FEBF 		b	_port_irq_epilogue
 451              	.LVL23:
 452              	.L65:
 453 0022 00BF     		.align	2
 454              	.L64:
 455 0024 00600240 		.word	1073897472
 456 0028 00000000 		.word	.LANCHOR0
ARM GAS  /tmp/ccH0TlFv.s 			page 9


 457              		.cfi_endproc
 458              	.LFE265:
 459              		.size	VectorFC, .-VectorFC
 460              		.section	.text.Vector120,"ax",%progbits
 461              		.align	2
 462              		.p2align 4,,15
 463              		.global	Vector120
 464              		.thumb
 465              		.thumb_func
 466              		.type	Vector120, %function
 467              	Vector120:
 468              	.LFB266:
 469              		.loc 1 271 0
 470              		.cfi_startproc
 471              		@ args = 0, pretend = 0, frame = 0
 472              		@ frame_needed = 0, uses_anonymous_args = 0
 473 0000 08B5     		push	{r3, lr}
 474              		.cfi_def_cfa_offset 8
 475              		.cfi_offset 3, -8
 476              		.cfi_offset 14, -4
 477              		.loc 1 276 0
 478 0002 074B     		ldr	r3, .L72
 479              		.loc 1 278 0
 480 0004 0748     		ldr	r0, .L72+4
 481              		.loc 1 276 0
 482 0006 1968     		ldr	r1, [r3]
 483              		.loc 1 278 0
 484 0008 026C     		ldr	r2, [r0, #64]
 485              		.loc 1 276 0
 486 000a 01F03D01 		and	r1, r1, #61
 487              	.LVL24:
 488              		.loc 1 277 0
 489 000e 9960     		str	r1, [r3, #8]
 490              		.loc 1 278 0
 491 0010 0AB1     		cbz	r2, .L67
 492              		.loc 1 279 0
 493 0012 406C     		ldr	r0, [r0, #68]
 494 0014 9047     		blx	r2
 495              	.LVL25:
 496              	.L67:
 497              		.loc 1 282 0
 498 0016 BDE80840 		pop	{r3, lr}
 499              		.cfi_restore 14
 500              		.cfi_restore 3
 501              		.cfi_def_cfa_offset 0
 502              		.loc 1 281 0
 503 001a FFF7FEBF 		b	_port_irq_epilogue
 504              	.LVL26:
 505              	.L73:
 506 001e 00BF     		.align	2
 507              	.L72:
 508 0020 00640240 		.word	1073898496
 509 0024 00000000 		.word	.LANCHOR0
 510              		.cfi_endproc
 511              	.LFE266:
 512              		.size	Vector120, .-Vector120
 513              		.section	.text.Vector124,"ax",%progbits
ARM GAS  /tmp/ccH0TlFv.s 			page 10


 514              		.align	2
 515              		.p2align 4,,15
 516              		.global	Vector124
 517              		.thumb
 518              		.thumb_func
 519              		.type	Vector124, %function
 520              	Vector124:
 521              	.LFB267:
 522              		.loc 1 289 0
 523              		.cfi_startproc
 524              		@ args = 0, pretend = 0, frame = 0
 525              		@ frame_needed = 0, uses_anonymous_args = 0
 526              		.loc 1 294 0
 527 0000 084B     		ldr	r3, .L80
 528              		.loc 1 296 0
 529 0002 0948     		ldr	r0, .L80+4
 530              		.loc 1 294 0
 531 0004 1968     		ldr	r1, [r3]
 532              		.loc 1 296 0
 533 0006 826C     		ldr	r2, [r0, #72]
 534              		.loc 1 294 0
 535 0008 8909     		lsrs	r1, r1, #6
 536 000a 01F03D01 		and	r1, r1, #61
 537              	.LVL27:
 538              		.loc 1 289 0
 539 000e 10B5     		push	{r4, lr}
 540              		.cfi_def_cfa_offset 8
 541              		.cfi_offset 4, -8
 542              		.cfi_offset 14, -4
 543              		.loc 1 295 0
 544 0010 8C01     		lsls	r4, r1, #6
 545 0012 9C60     		str	r4, [r3, #8]
 546              		.loc 1 296 0
 547 0014 0AB1     		cbz	r2, .L75
 548              		.loc 1 297 0
 549 0016 C06C     		ldr	r0, [r0, #76]
 550 0018 9047     		blx	r2
 551              	.LVL28:
 552              	.L75:
 553              		.loc 1 300 0
 554 001a BDE81040 		pop	{r4, lr}
 555              		.cfi_restore 14
 556              		.cfi_restore 4
 557              		.cfi_def_cfa_offset 0
 558              		.loc 1 299 0
 559 001e FFF7FEBF 		b	_port_irq_epilogue
 560              	.LVL29:
 561              	.L81:
 562 0022 00BF     		.align	2
 563              	.L80:
 564 0024 00640240 		.word	1073898496
 565 0028 00000000 		.word	.LANCHOR0
 566              		.cfi_endproc
 567              	.LFE267:
 568              		.size	Vector124, .-Vector124
 569              		.section	.text.Vector128,"ax",%progbits
 570              		.align	2
ARM GAS  /tmp/ccH0TlFv.s 			page 11


 571              		.p2align 4,,15
 572              		.global	Vector128
 573              		.thumb
 574              		.thumb_func
 575              		.type	Vector128, %function
 576              	Vector128:
 577              	.LFB268:
 578              		.loc 1 307 0
 579              		.cfi_startproc
 580              		@ args = 0, pretend = 0, frame = 0
 581              		@ frame_needed = 0, uses_anonymous_args = 0
 582              		.loc 1 312 0
 583 0000 084B     		ldr	r3, .L88
 584              		.loc 1 314 0
 585 0002 0948     		ldr	r0, .L88+4
 586              		.loc 1 312 0
 587 0004 1968     		ldr	r1, [r3]
 588              		.loc 1 314 0
 589 0006 026D     		ldr	r2, [r0, #80]
 590              		.loc 1 312 0
 591 0008 090C     		lsrs	r1, r1, #16
 592 000a 01F03D01 		and	r1, r1, #61
 593              	.LVL30:
 594              		.loc 1 307 0
 595 000e 10B5     		push	{r4, lr}
 596              		.cfi_def_cfa_offset 8
 597              		.cfi_offset 4, -8
 598              		.cfi_offset 14, -4
 599              		.loc 1 313 0
 600 0010 0C04     		lsls	r4, r1, #16
 601 0012 9C60     		str	r4, [r3, #8]
 602              		.loc 1 314 0
 603 0014 0AB1     		cbz	r2, .L83
 604              		.loc 1 315 0
 605 0016 406D     		ldr	r0, [r0, #84]
 606 0018 9047     		blx	r2
 607              	.LVL31:
 608              	.L83:
 609              		.loc 1 318 0
 610 001a BDE81040 		pop	{r4, lr}
 611              		.cfi_restore 14
 612              		.cfi_restore 4
 613              		.cfi_def_cfa_offset 0
 614              		.loc 1 317 0
 615 001e FFF7FEBF 		b	_port_irq_epilogue
 616              	.LVL32:
 617              	.L89:
 618 0022 00BF     		.align	2
 619              	.L88:
 620 0024 00640240 		.word	1073898496
 621 0028 00000000 		.word	.LANCHOR0
 622              		.cfi_endproc
 623              	.LFE268:
 624              		.size	Vector128, .-Vector128
 625              		.section	.text.Vector12C,"ax",%progbits
 626              		.align	2
 627              		.p2align 4,,15
ARM GAS  /tmp/ccH0TlFv.s 			page 12


 628              		.global	Vector12C
 629              		.thumb
 630              		.thumb_func
 631              		.type	Vector12C, %function
 632              	Vector12C:
 633              	.LFB269:
 634              		.loc 1 325 0
 635              		.cfi_startproc
 636              		@ args = 0, pretend = 0, frame = 0
 637              		@ frame_needed = 0, uses_anonymous_args = 0
 638              		.loc 1 330 0
 639 0000 084B     		ldr	r3, .L96
 640              		.loc 1 332 0
 641 0002 0948     		ldr	r0, .L96+4
 642              		.loc 1 330 0
 643 0004 1968     		ldr	r1, [r3]
 644              		.loc 1 332 0
 645 0006 826D     		ldr	r2, [r0, #88]
 646              		.loc 1 330 0
 647 0008 890D     		lsrs	r1, r1, #22
 648 000a 01F03D01 		and	r1, r1, #61
 649              	.LVL33:
 650              		.loc 1 325 0
 651 000e 10B5     		push	{r4, lr}
 652              		.cfi_def_cfa_offset 8
 653              		.cfi_offset 4, -8
 654              		.cfi_offset 14, -4
 655              		.loc 1 331 0
 656 0010 8C05     		lsls	r4, r1, #22
 657 0012 9C60     		str	r4, [r3, #8]
 658              		.loc 1 332 0
 659 0014 0AB1     		cbz	r2, .L91
 660              		.loc 1 333 0
 661 0016 C06D     		ldr	r0, [r0, #92]
 662 0018 9047     		blx	r2
 663              	.LVL34:
 664              	.L91:
 665              		.loc 1 336 0
 666 001a BDE81040 		pop	{r4, lr}
 667              		.cfi_restore 14
 668              		.cfi_restore 4
 669              		.cfi_def_cfa_offset 0
 670              		.loc 1 335 0
 671 001e FFF7FEBF 		b	_port_irq_epilogue
 672              	.LVL35:
 673              	.L97:
 674 0022 00BF     		.align	2
 675              	.L96:
 676 0024 00640240 		.word	1073898496
 677 0028 00000000 		.word	.LANCHOR0
 678              		.cfi_endproc
 679              	.LFE269:
 680              		.size	Vector12C, .-Vector12C
 681              		.section	.text.Vector130,"ax",%progbits
 682              		.align	2
 683              		.p2align 4,,15
 684              		.global	Vector130
ARM GAS  /tmp/ccH0TlFv.s 			page 13


 685              		.thumb
 686              		.thumb_func
 687              		.type	Vector130, %function
 688              	Vector130:
 689              	.LFB270:
 690              		.loc 1 343 0
 691              		.cfi_startproc
 692              		@ args = 0, pretend = 0, frame = 0
 693              		@ frame_needed = 0, uses_anonymous_args = 0
 694 0000 08B5     		push	{r3, lr}
 695              		.cfi_def_cfa_offset 8
 696              		.cfi_offset 3, -8
 697              		.cfi_offset 14, -4
 698              		.loc 1 348 0
 699 0002 074B     		ldr	r3, .L104
 700              		.loc 1 350 0
 701 0004 0748     		ldr	r0, .L104+4
 702              		.loc 1 348 0
 703 0006 5968     		ldr	r1, [r3, #4]
 704              		.loc 1 350 0
 705 0008 026E     		ldr	r2, [r0, #96]
 706              		.loc 1 348 0
 707 000a 01F03D01 		and	r1, r1, #61
 708              	.LVL36:
 709              		.loc 1 349 0
 710 000e D960     		str	r1, [r3, #12]
 711              		.loc 1 350 0
 712 0010 0AB1     		cbz	r2, .L99
 713              		.loc 1 351 0
 714 0012 406E     		ldr	r0, [r0, #100]
 715 0014 9047     		blx	r2
 716              	.LVL37:
 717              	.L99:
 718              		.loc 1 354 0
 719 0016 BDE80840 		pop	{r3, lr}
 720              		.cfi_restore 14
 721              		.cfi_restore 3
 722              		.cfi_def_cfa_offset 0
 723              		.loc 1 353 0
 724 001a FFF7FEBF 		b	_port_irq_epilogue
 725              	.LVL38:
 726              	.L105:
 727 001e 00BF     		.align	2
 728              	.L104:
 729 0020 00640240 		.word	1073898496
 730 0024 00000000 		.word	.LANCHOR0
 731              		.cfi_endproc
 732              	.LFE270:
 733              		.size	Vector130, .-Vector130
 734              		.section	.text.Vector150,"ax",%progbits
 735              		.align	2
 736              		.p2align 4,,15
 737              		.global	Vector150
 738              		.thumb
 739              		.thumb_func
 740              		.type	Vector150, %function
 741              	Vector150:
ARM GAS  /tmp/ccH0TlFv.s 			page 14


 742              	.LFB271:
 743              		.loc 1 361 0
 744              		.cfi_startproc
 745              		@ args = 0, pretend = 0, frame = 0
 746              		@ frame_needed = 0, uses_anonymous_args = 0
 747              		.loc 1 366 0
 748 0000 084B     		ldr	r3, .L112
 749              		.loc 1 368 0
 750 0002 0948     		ldr	r0, .L112+4
 751              		.loc 1 366 0
 752 0004 5968     		ldr	r1, [r3, #4]
 753              		.loc 1 368 0
 754 0006 826E     		ldr	r2, [r0, #104]
 755              		.loc 1 366 0
 756 0008 8909     		lsrs	r1, r1, #6
 757 000a 01F03D01 		and	r1, r1, #61
 758              	.LVL39:
 759              		.loc 1 361 0
 760 000e 10B5     		push	{r4, lr}
 761              		.cfi_def_cfa_offset 8
 762              		.cfi_offset 4, -8
 763              		.cfi_offset 14, -4
 764              		.loc 1 367 0
 765 0010 8C01     		lsls	r4, r1, #6
 766 0012 DC60     		str	r4, [r3, #12]
 767              		.loc 1 368 0
 768 0014 0AB1     		cbz	r2, .L107
 769              		.loc 1 369 0
 770 0016 C06E     		ldr	r0, [r0, #108]
 771 0018 9047     		blx	r2
 772              	.LVL40:
 773              	.L107:
 774              		.loc 1 372 0
 775 001a BDE81040 		pop	{r4, lr}
 776              		.cfi_restore 14
 777              		.cfi_restore 4
 778              		.cfi_def_cfa_offset 0
 779              		.loc 1 371 0
 780 001e FFF7FEBF 		b	_port_irq_epilogue
 781              	.LVL41:
 782              	.L113:
 783 0022 00BF     		.align	2
 784              	.L112:
 785 0024 00640240 		.word	1073898496
 786 0028 00000000 		.word	.LANCHOR0
 787              		.cfi_endproc
 788              	.LFE271:
 789              		.size	Vector150, .-Vector150
 790              		.section	.text.Vector154,"ax",%progbits
 791              		.align	2
 792              		.p2align 4,,15
 793              		.global	Vector154
 794              		.thumb
 795              		.thumb_func
 796              		.type	Vector154, %function
 797              	Vector154:
 798              	.LFB272:
ARM GAS  /tmp/ccH0TlFv.s 			page 15


 799              		.loc 1 379 0
 800              		.cfi_startproc
 801              		@ args = 0, pretend = 0, frame = 0
 802              		@ frame_needed = 0, uses_anonymous_args = 0
 803              		.loc 1 384 0
 804 0000 084B     		ldr	r3, .L120
 805              		.loc 1 386 0
 806 0002 0948     		ldr	r0, .L120+4
 807              		.loc 1 384 0
 808 0004 5968     		ldr	r1, [r3, #4]
 809              		.loc 1 386 0
 810 0006 026F     		ldr	r2, [r0, #112]
 811              		.loc 1 384 0
 812 0008 090C     		lsrs	r1, r1, #16
 813 000a 01F03D01 		and	r1, r1, #61
 814              	.LVL42:
 815              		.loc 1 379 0
 816 000e 10B5     		push	{r4, lr}
 817              		.cfi_def_cfa_offset 8
 818              		.cfi_offset 4, -8
 819              		.cfi_offset 14, -4
 820              		.loc 1 385 0
 821 0010 0C04     		lsls	r4, r1, #16
 822 0012 DC60     		str	r4, [r3, #12]
 823              		.loc 1 386 0
 824 0014 0AB1     		cbz	r2, .L115
 825              		.loc 1 387 0
 826 0016 406F     		ldr	r0, [r0, #116]
 827 0018 9047     		blx	r2
 828              	.LVL43:
 829              	.L115:
 830              		.loc 1 390 0
 831 001a BDE81040 		pop	{r4, lr}
 832              		.cfi_restore 14
 833              		.cfi_restore 4
 834              		.cfi_def_cfa_offset 0
 835              		.loc 1 389 0
 836 001e FFF7FEBF 		b	_port_irq_epilogue
 837              	.LVL44:
 838              	.L121:
 839 0022 00BF     		.align	2
 840              	.L120:
 841 0024 00640240 		.word	1073898496
 842 0028 00000000 		.word	.LANCHOR0
 843              		.cfi_endproc
 844              	.LFE272:
 845              		.size	Vector154, .-Vector154
 846              		.section	.text.Vector158,"ax",%progbits
 847              		.align	2
 848              		.p2align 4,,15
 849              		.global	Vector158
 850              		.thumb
 851              		.thumb_func
 852              		.type	Vector158, %function
 853              	Vector158:
 854              	.LFB273:
 855              		.loc 1 397 0
ARM GAS  /tmp/ccH0TlFv.s 			page 16


 856              		.cfi_startproc
 857              		@ args = 0, pretend = 0, frame = 0
 858              		@ frame_needed = 0, uses_anonymous_args = 0
 859              		.loc 1 402 0
 860 0000 084B     		ldr	r3, .L128
 861              		.loc 1 404 0
 862 0002 0948     		ldr	r0, .L128+4
 863              		.loc 1 402 0
 864 0004 5968     		ldr	r1, [r3, #4]
 865              		.loc 1 404 0
 866 0006 826F     		ldr	r2, [r0, #120]
 867              		.loc 1 402 0
 868 0008 890D     		lsrs	r1, r1, #22
 869 000a 01F03D01 		and	r1, r1, #61
 870              	.LVL45:
 871              		.loc 1 397 0
 872 000e 10B5     		push	{r4, lr}
 873              		.cfi_def_cfa_offset 8
 874              		.cfi_offset 4, -8
 875              		.cfi_offset 14, -4
 876              		.loc 1 403 0
 877 0010 8C05     		lsls	r4, r1, #22
 878 0012 DC60     		str	r4, [r3, #12]
 879              		.loc 1 404 0
 880 0014 0AB1     		cbz	r2, .L123
 881              		.loc 1 405 0
 882 0016 C06F     		ldr	r0, [r0, #124]
 883 0018 9047     		blx	r2
 884              	.LVL46:
 885              	.L123:
 886              		.loc 1 408 0
 887 001a BDE81040 		pop	{r4, lr}
 888              		.cfi_restore 14
 889              		.cfi_restore 4
 890              		.cfi_def_cfa_offset 0
 891              		.loc 1 407 0
 892 001e FFF7FEBF 		b	_port_irq_epilogue
 893              	.LVL47:
 894              	.L129:
 895 0022 00BF     		.align	2
 896              	.L128:
 897 0024 00640240 		.word	1073898496
 898 0028 00000000 		.word	.LANCHOR0
 899              		.cfi_endproc
 900              	.LFE273:
 901              		.size	Vector158, .-Vector158
 902              		.section	.text.dmaInit,"ax",%progbits
 903              		.align	2
 904              		.p2align 4,,15
 905              		.global	dmaInit
 906              		.thumb
 907              		.thumb_func
 908              		.type	dmaInit, %function
 909              	dmaInit:
 910              	.LFB274:
 911              		.loc 1 419 0
 912              		.cfi_startproc
ARM GAS  /tmp/ccH0TlFv.s 			page 17


 913              		@ args = 0, pretend = 0, frame = 0
 914              		@ frame_needed = 0, uses_anonymous_args = 0
 915              		@ link register save eliminated.
 916              		.loc 1 422 0
 917 0000 0E49     		ldr	r1, .L136
 918 0002 0F4A     		ldr	r2, .L136+4
 919 0004 0F48     		ldr	r0, .L136+8
 920 0006 0023     		movs	r3, #0
 921              		.loc 1 419 0
 922 0008 10B4     		push	{r4}
 923              		.cfi_def_cfa_offset 4
 924              		.cfi_offset 4, -4
 925              		.loc 1 422 0
 926 000a 0B60     		str	r3, [r1]
 927              	.LVL48:
 928 000c 0E4C     		ldr	r4, .L136+12
 929              		.loc 1 424 0
 930 000e 1946     		mov	r1, r3
 931 0010 01E0     		b	.L132
 932              	.LVL49:
 933              	.L135:
 934 0012 52F80C0C 		ldr	r0, [r2, #-12]
 935              	.LVL50:
 936              	.L132:
 937              		.loc 1 424 0 is_stmt 0 discriminator 3
 938 0016 0160     		str	r1, [r0]
 939              		.loc 1 425 0 is_stmt 1 discriminator 3
 940 0018 44F83310 		str	r1, [r4, r3, lsl #3]
 941              		.loc 1 423 0 discriminator 3
 942 001c 0133     		adds	r3, r3, #1
 943              	.LVL51:
 944 001e 102B     		cmp	r3, #16
 945 0020 02F10C02 		add	r2, r2, #12
 946 0024 F5D1     		bne	.L135
 947              		.loc 1 427 0
 948 0026 0949     		ldr	r1, .L136+16
 949              		.loc 1 429 0
 950 0028 094A     		ldr	r2, .L136+20
 951              		.loc 1 431 0
 952 002a 10BC     		pop	{r4}
 953              		.cfi_restore 4
 954              		.cfi_def_cfa_offset 0
 955              		.loc 1 427 0
 956 002c 4FF0FF33 		mov	r3, #-1
 957              	.LVL52:
 958 0030 8B60     		str	r3, [r1, #8]
 959              		.loc 1 428 0
 960 0032 CB60     		str	r3, [r1, #12]
 961              		.loc 1 429 0
 962 0034 9360     		str	r3, [r2, #8]
 963              		.loc 1 430 0
 964 0036 D360     		str	r3, [r2, #12]
 965              		.loc 1 431 0
 966 0038 7047     		bx	lr
 967              	.L137:
 968 003a 00BF     		.align	2
 969              	.L136:
ARM GAS  /tmp/ccH0TlFv.s 			page 18


 970 003c 00000000 		.word	.LANCHOR1
 971 0040 0C000000 		.word	.LANCHOR2+12
 972 0044 10600240 		.word	1073897488
 973 0048 00000000 		.word	.LANCHOR0
 974 004c 00600240 		.word	1073897472
 975 0050 00640240 		.word	1073898496
 976              		.cfi_endproc
 977              	.LFE274:
 978              		.size	dmaInit, .-dmaInit
 979              		.section	.text.dmaStreamAllocate,"ax",%progbits
 980              		.align	2
 981              		.p2align 4,,15
 982              		.global	dmaStreamAllocate
 983              		.thumb
 984              		.thumb_func
 985              		.type	dmaStreamAllocate, %function
 986              	dmaStreamAllocate:
 987              	.LFB275:
 988              		.loc 1 460 0
 989              		.cfi_startproc
 990              		@ args = 0, pretend = 0, frame = 0
 991              		@ frame_needed = 0, uses_anonymous_args = 0
 992              	.LVL53:
 993 0000 F8B5     		push	{r3, r4, r5, r6, r7, lr}
 994              		.cfi_def_cfa_offset 24
 995              		.cfi_offset 3, -24
 996              		.cfi_offset 4, -20
 997              		.cfi_offset 5, -16
 998              		.cfi_offset 6, -12
 999              		.cfi_offset 7, -8
 1000              		.cfi_offset 14, -4
 1001              		.loc 1 465 0
 1002 0002 1F4F     		ldr	r7, .L154
 1003 0004 467A     		ldrb	r6, [r0, #9]	@ zero_extendqisi2
 1004 0006 3D68     		ldr	r5, [r7]
 1005 0008 0124     		movs	r4, #1
 1006 000a 04FA06FE 		lsl	lr, r4, r6
 1007 000e 1EEA050F 		tst	lr, r5
 1008 0012 31D1     		bne	.L143
 1009              		.loc 1 469 0
 1010 0014 1B4C     		ldr	r4, .L154+4
 1011              		.loc 1 471 0
 1012 0016 4EEA0505 		orr	r5, lr, r5
 1013              		.loc 1 470 0
 1014 001a 04EBC60E 		add	lr, r4, r6, lsl #3
 1015              		.loc 1 474 0
 1016 001e 15F0FF0F 		tst	r5, #255
 1017              		.loc 1 471 0
 1018 0022 3D60     		str	r5, [r7]
 1019              		.loc 1 469 0
 1020 0024 44F83620 		str	r2, [r4, r6, lsl #3]
 1021              		.loc 1 470 0
 1022 0028 CEF80430 		str	r3, [lr, #4]
 1023              		.loc 1 474 0
 1024 002c 04D0     		beq	.L140
 1025              		.loc 1 475 0
 1026 002e 164C     		ldr	r4, .L154+8
ARM GAS  /tmp/ccH0TlFv.s 			page 19


 1027 0030 236B     		ldr	r3, [r4, #48]
 1028              	.LVL54:
 1029 0032 43F40013 		orr	r3, r3, #2097152
 1030 0036 2363     		str	r3, [r4, #48]
 1031              	.L140:
 1032              		.loc 1 476 0
 1033 0038 15F47F4F 		tst	r5, #65280
 1034 003c 16D1     		bne	.L153
 1035              	.L141:
 1036              		.loc 1 480 0
 1037 003e 0568     		ldr	r5, [r0]
 1038 0040 2B68     		ldr	r3, [r5]
 1039 0042 23F01F03 		bic	r3, r3, #31
 1040 0046 2B60     		str	r3, [r5]
 1041              	.L142:
 1042              		.loc 1 480 0 is_stmt 0 discriminator 2
 1043 0048 2B68     		ldr	r3, [r5]
 1044 004a 13F00104 		ands	r4, r3, #1
 1045 004e FBD1     		bne	.L142
 1046              		.loc 1 480 0 discriminator 3
 1047 0050 077A     		ldrb	r7, [r0, #8]	@ zero_extendqisi2
 1048 0052 4668     		ldr	r6, [r0, #4]
 1049 0054 3D23     		movs	r3, #61
 1050 0056 BB40     		lsls	r3, r3, r7
 1051              		.loc 1 482 0 is_stmt 1 discriminator 3
 1052 0058 2127     		movs	r7, #33
 1053              		.loc 1 480 0 discriminator 3
 1054 005a 3360     		str	r3, [r6]
 1055              		.loc 1 481 0 discriminator 3
 1056 005c 2C60     		str	r4, [r5]
 1057              		.loc 1 482 0 discriminator 3
 1058 005e 6F61     		str	r7, [r5, #20]
 1059              		.loc 1 485 0 discriminator 3
 1060 0060 62B1     		cbz	r2, .L144
 1061              		.loc 1 486 0
 1062 0062 807A     		ldrb	r0, [r0, #10]	@ zero_extendqisi2
 1063              	.LVL55:
 1064 0064 FFF7FEFF 		bl	nvicEnableVector
 1065              	.LVL56:
 1066              		.loc 1 488 0
 1067 0068 2046     		mov	r0, r4
 1068 006a F8BD     		pop	{r3, r4, r5, r6, r7, pc}
 1069              	.LVL57:
 1070              	.L153:
 1071              		.loc 1 477 0
 1072 006c 064C     		ldr	r4, .L154+8
 1073 006e 236B     		ldr	r3, [r4, #48]
 1074 0070 43F48003 		orr	r3, r3, #4194304
 1075 0074 2363     		str	r3, [r4, #48]
 1076 0076 E2E7     		b	.L141
 1077              	.LVL58:
 1078              	.L143:
 1079              		.loc 1 466 0
 1080 0078 2046     		mov	r0, r4
 1081              	.LVL59:
 1082 007a F8BD     		pop	{r3, r4, r5, r6, r7, pc}
 1083              	.LVL60:
ARM GAS  /tmp/ccH0TlFv.s 			page 20


 1084              	.L144:
 1085              		.loc 1 488 0
 1086 007c 1046     		mov	r0, r2
 1087              	.LVL61:
 1088              		.loc 1 489 0
 1089 007e F8BD     		pop	{r3, r4, r5, r6, r7, pc}
 1090              	.L155:
 1091              		.align	2
 1092              	.L154:
 1093 0080 00000000 		.word	.LANCHOR1
 1094 0084 00000000 		.word	.LANCHOR0
 1095 0088 00380240 		.word	1073887232
 1096              		.cfi_endproc
 1097              	.LFE275:
 1098              		.size	dmaStreamAllocate, .-dmaStreamAllocate
 1099              		.section	.text.dmaStreamRelease,"ax",%progbits
 1100              		.align	2
 1101              		.p2align 4,,15
 1102              		.global	dmaStreamRelease
 1103              		.thumb
 1104              		.thumb_func
 1105              		.type	dmaStreamRelease, %function
 1106              	dmaStreamRelease:
 1107              	.LFB276:
 1108              		.loc 1 504 0
 1109              		.cfi_startproc
 1110              		@ args = 0, pretend = 0, frame = 0
 1111              		@ frame_needed = 0, uses_anonymous_args = 0
 1112              	.LVL62:
 1113 0000 10B5     		push	{r4, lr}
 1114              		.cfi_def_cfa_offset 8
 1115              		.cfi_offset 4, -8
 1116              		.cfi_offset 14, -4
 1117              		.loc 1 504 0
 1118 0002 0446     		mov	r4, r0
 1119              		.loc 1 513 0
 1120 0004 807A     		ldrb	r0, [r0, #10]	@ zero_extendqisi2
 1121              	.LVL63:
 1122 0006 FFF7FEFF 		bl	nvicDisableVector
 1123              	.LVL64:
 1124              		.loc 1 516 0
 1125 000a 0C49     		ldr	r1, .L160
 1126 000c 607A     		ldrb	r0, [r4, #9]	@ zero_extendqisi2
 1127 000e 0A68     		ldr	r2, [r1]
 1128 0010 0123     		movs	r3, #1
 1129 0012 8340     		lsls	r3, r3, r0
 1130 0014 22EA0303 		bic	r3, r2, r3
 1131              		.loc 1 519 0
 1132 0018 13F0FF0F 		tst	r3, #255
 1133              		.loc 1 516 0
 1134 001c 0B60     		str	r3, [r1]
 1135              		.loc 1 519 0
 1136 001e 04D1     		bne	.L157
 1137              		.loc 1 520 0
 1138 0020 0749     		ldr	r1, .L160+4
 1139 0022 0A6B     		ldr	r2, [r1, #48]
 1140 0024 22F40012 		bic	r2, r2, #2097152
ARM GAS  /tmp/ccH0TlFv.s 			page 21


 1141 0028 0A63     		str	r2, [r1, #48]
 1142              	.L157:
 1143              		.loc 1 521 0
 1144 002a 13F47F4F 		tst	r3, #65280
 1145 002e 04D1     		bne	.L156
 1146              		.loc 1 522 0
 1147 0030 034A     		ldr	r2, .L160+4
 1148 0032 136B     		ldr	r3, [r2, #48]
 1149 0034 23F48003 		bic	r3, r3, #4194304
 1150 0038 1363     		str	r3, [r2, #48]
 1151              	.L156:
 1152 003a 10BD     		pop	{r4, pc}
 1153              	.LVL65:
 1154              	.L161:
 1155              		.align	2
 1156              	.L160:
 1157 003c 00000000 		.word	.LANCHOR1
 1158 0040 00380240 		.word	1073887232
 1159              		.cfi_endproc
 1160              	.LFE276:
 1161              		.size	dmaStreamRelease, .-dmaStreamRelease
 1162              		.global	_stm32_dma_streams
 1163              		.section	.bss.dma_isr_redir,"aw",%nobits
 1164              		.align	2
 1165              		.set	.LANCHOR0,. + 0
 1166              		.type	dma_isr_redir, %object
 1167              		.size	dma_isr_redir, 128
 1168              	dma_isr_redir:
 1169 0000 00000000 		.space	128
 1169      00000000 
 1169      00000000 
 1169      00000000 
 1169      00000000 
 1170              		.section	.rodata._stm32_dma_streams,"a",%progbits
 1171              		.align	2
 1172              		.set	.LANCHOR2,. + 0
 1173              		.type	_stm32_dma_streams, %object
 1174              		.size	_stm32_dma_streams, 192
 1175              	_stm32_dma_streams:
 1176 0000 10600240 		.word	1073897488
 1177 0004 08600240 		.word	1073897480
 1178 0008 00       		.byte	0
 1179 0009 00       		.byte	0
 1180 000a 0B       		.byte	11
 1181 000b 00       		.space	1
 1182 000c 28600240 		.word	1073897512
 1183 0010 08600240 		.word	1073897480
 1184 0014 06       		.byte	6
 1185 0015 01       		.byte	1
 1186 0016 0C       		.byte	12
 1187 0017 00       		.space	1
 1188 0018 40600240 		.word	1073897536
 1189 001c 08600240 		.word	1073897480
 1190 0020 10       		.byte	16
 1191 0021 02       		.byte	2
 1192 0022 0D       		.byte	13
 1193 0023 00       		.space	1
ARM GAS  /tmp/ccH0TlFv.s 			page 22


 1194 0024 58600240 		.word	1073897560
 1195 0028 08600240 		.word	1073897480
 1196 002c 16       		.byte	22
 1197 002d 03       		.byte	3
 1198 002e 0E       		.byte	14
 1199 002f 00       		.space	1
 1200 0030 70600240 		.word	1073897584
 1201 0034 0C600240 		.word	1073897484
 1202 0038 00       		.byte	0
 1203 0039 04       		.byte	4
 1204 003a 0F       		.byte	15
 1205 003b 00       		.space	1
 1206 003c 88600240 		.word	1073897608
 1207 0040 0C600240 		.word	1073897484
 1208 0044 06       		.byte	6
 1209 0045 05       		.byte	5
 1210 0046 10       		.byte	16
 1211 0047 00       		.space	1
 1212 0048 A0600240 		.word	1073897632
 1213 004c 0C600240 		.word	1073897484
 1214 0050 10       		.byte	16
 1215 0051 06       		.byte	6
 1216 0052 11       		.byte	17
 1217 0053 00       		.space	1
 1218 0054 B8600240 		.word	1073897656
 1219 0058 0C600240 		.word	1073897484
 1220 005c 16       		.byte	22
 1221 005d 07       		.byte	7
 1222 005e 2F       		.byte	47
 1223 005f 00       		.space	1
 1224 0060 10640240 		.word	1073898512
 1225 0064 08640240 		.word	1073898504
 1226 0068 00       		.byte	0
 1227 0069 08       		.byte	8
 1228 006a 38       		.byte	56
 1229 006b 00       		.space	1
 1230 006c 28640240 		.word	1073898536
 1231 0070 08640240 		.word	1073898504
 1232 0074 06       		.byte	6
 1233 0075 09       		.byte	9
 1234 0076 39       		.byte	57
 1235 0077 00       		.space	1
 1236 0078 40640240 		.word	1073898560
 1237 007c 08640240 		.word	1073898504
 1238 0080 10       		.byte	16
 1239 0081 0A       		.byte	10
 1240 0082 3A       		.byte	58
 1241 0083 00       		.space	1
 1242 0084 58640240 		.word	1073898584
 1243 0088 08640240 		.word	1073898504
 1244 008c 16       		.byte	22
 1245 008d 0B       		.byte	11
 1246 008e 3B       		.byte	59
 1247 008f 00       		.space	1
 1248 0090 70640240 		.word	1073898608
 1249 0094 0C640240 		.word	1073898508
 1250 0098 00       		.byte	0
ARM GAS  /tmp/ccH0TlFv.s 			page 23


 1251 0099 0C       		.byte	12
 1252 009a 3C       		.byte	60
 1253 009b 00       		.space	1
 1254 009c 88640240 		.word	1073898632
 1255 00a0 0C640240 		.word	1073898508
 1256 00a4 06       		.byte	6
 1257 00a5 0D       		.byte	13
 1258 00a6 44       		.byte	68
 1259 00a7 00       		.space	1
 1260 00a8 A0640240 		.word	1073898656
 1261 00ac 0C640240 		.word	1073898508
 1262 00b0 10       		.byte	16
 1263 00b1 0E       		.byte	14
 1264 00b2 45       		.byte	69
 1265 00b3 00       		.space	1
 1266 00b4 B8640240 		.word	1073898680
 1267 00b8 0C640240 		.word	1073898508
 1268 00bc 16       		.byte	22
 1269 00bd 0F       		.byte	15
 1270 00be 46       		.byte	70
 1271 00bf 00       		.space	1
 1272              		.section	.bss.dma_streams_mask,"aw",%nobits
 1273              		.align	2
 1274              		.set	.LANCHOR1,. + 0
 1275              		.type	dma_streams_mask, %object
 1276              		.size	dma_streams_mask, 4
 1277              	dma_streams_mask:
 1278 0000 00000000 		.space	4
 1279              		.text
 1280              	.Letext0:
 1281              		.file 2 "/usr/lib/gcc/arm-none-eabi/5.3.1/include/stddef.h"
 1282              		.file 3 "/usr/arm-none-eabi/include/machine/_default_types.h"
 1283              		.file 4 "/usr/arm-none-eabi/include/sys/_stdint.h"
 1284              		.file 5 "/home/selim/working/ChibiOS/os/rt/ports/ARMCMx/compilers/GCC/chtypes.h"
 1285              		.file 6 "/home/selim/working/ChibiOS/os/rt/include/chsystypes.h"
 1286              		.file 7 "/home/selim/working/ChibiOS/os/rt/include/chschd.h"
 1287              		.file 8 "/home/selim/working/ChibiOS/os/ext/CMSIS/ST/stm32f407xx.h"
 1288              		.file 9 "/home/selim/working/ChibiOS/os/rt/ports/ARMCMx/chcore.h"
 1289              		.file 10 "/home/selim/working/ChibiOS/os/rt/ports/ARMCMx/chcore_v7m.h"
 1290              		.file 11 "/home/selim/working/ChibiOS/os/rt/include/chtm.h"
 1291              		.file 12 "/home/selim/working/ChibiOS/os/rt/include/chsem.h"
 1292              		.file 13 "/home/selim/working/ChibiOS/os/rt/include/chmtx.h"
 1293              		.file 14 "/home/selim/working/ChibiOS/os/hal/ports/STM32/STM32F4xx/stm32_dma.h"
 1294              		.file 15 "/home/selim/working/ChibiOS/os/ext/CMSIS/include/core_cm4.h"
 1295              		.file 16 "/home/selim/working/ChibiOS/os/hal/ports/common/ARMCMx/nvic.h"