ARM GAS  /tmp/cc7KTv09.s 			page 1


   1              		.syntax unified
   2              		.cpu cortex-m4
   3              		.fpu softvfp
   4              		.eabi_attribute 20, 1
   5              		.eabi_attribute 21, 1
   6              		.eabi_attribute 23, 3
   7              		.eabi_attribute 24, 1
   8              		.eabi_attribute 25, 1
   9              		.eabi_attribute 26, 1
  10              		.eabi_attribute 30, 2
  11              		.eabi_attribute 34, 1
  12              		.eabi_attribute 18, 4
  13              		.thumb
  14              		.syntax unified
  15              		.file	"testqueues.c"
  16              		.text
  17              	.Ltext0:
  18              		.cfi_sections	.debug_frame
  19              		.section	.text.notify,"ax",%progbits
  20              		.align	2
  21              		.p2align 4,,15
  22              		.thumb
  23              		.thumb_func
  24              		.type	notify, %function
  25              	notify:
  26              	.LFB227:
  27              		.file 1 "/home/selim/working/ChibiOS/test/rt/testqueues.c"
  28              		.loc 1 57 0
  29              		.cfi_startproc
  30              		@ args = 0, pretend = 0, frame = 0
  31              		@ frame_needed = 0, uses_anonymous_args = 0
  32              		@ link register save eliminated.
  33              	.LVL0:
  34 0000 7047     		bx	lr
  35              		.cfi_endproc
  36              	.LFE227:
  37              		.size	notify, .-notify
  38 0002 00BF     		.section	.text.thread1,"ax",%progbits
  39              		.align	2
  40              		.p2align 4,,15
  41              		.thumb
  42              		.thumb_func
  43              		.type	thread1, %function
  44              	thread1:
  45              	.LFB229:
  46              		.loc 1 83 0
  47              		.cfi_startproc
  48              		@ args = 0, pretend = 0, frame = 0
  49              		@ frame_needed = 0, uses_anonymous_args = 0
  50              		@ link register save eliminated.
  51              	.LVL1:
  52              		.loc 1 86 0
  53 0000 4FF4FA61 		mov	r1, #2000
  54 0004 0148     		ldr	r0, .L3
  55              	.LVL2:
  56 0006 FFF7FEBF 		b	chIQGetTimeout
  57              	.LVL3:
ARM GAS  /tmp/cc7KTv09.s 			page 2


  58              	.L4:
  59 000a 00BF     		.align	2
  60              	.L3:
  61 000c 00000000 		.word	.LANCHOR0
  62              		.cfi_endproc
  63              	.LFE229:
  64              		.size	thread1, .-thread1
  65              		.section	.text.queues1_setup,"ax",%progbits
  66              		.align	2
  67              		.p2align 4,,15
  68              		.thumb
  69              		.thumb_func
  70              		.type	queues1_setup, %function
  71              	queues1_setup:
  72              	.LFB228:
  73              		.loc 1 78 0
  74              		.cfi_startproc
  75              		@ args = 0, pretend = 0, frame = 0
  76              		@ frame_needed = 0, uses_anonymous_args = 0
  77 0000 00B5     		push	{lr}
  78              		.cfi_def_cfa_offset 4
  79              		.cfi_offset 14, -4
  80              		.loc 1 80 0
  81 0002 064A     		ldr	r2, .L7
  82 0004 064B     		ldr	r3, .L7+4
  83 0006 1168     		ldr	r1, [r2]
  84 0008 0648     		ldr	r0, .L7+8
  85              		.loc 1 78 0
  86 000a 83B0     		sub	sp, sp, #12
  87              		.cfi_def_cfa_offset 16
  88              		.loc 1 80 0
  89 000c 0022     		movs	r2, #0
  90 000e 0092     		str	r2, [sp]
  91 0010 0422     		movs	r2, #4
  92 0012 FFF7FEFF 		bl	chIQObjectInit
  93              	.LVL4:
  94              		.loc 1 81 0
  95 0016 03B0     		add	sp, sp, #12
  96              		.cfi_def_cfa_offset 4
  97              		@ sp needed
  98 0018 5DF804FB 		ldr	pc, [sp], #4
  99              	.L8:
 100              		.align	2
 101              	.L7:
 102 001c 00000000 		.word	wa
 103 0020 00000000 		.word	notify
 104 0024 00000000 		.word	.LANCHOR0
 105              		.cfi_endproc
 106              	.LFE228:
 107              		.size	queues1_setup, .-queues1_setup
 108              		.section	.text.thread2,"ax",%progbits
 109              		.align	2
 110              		.p2align 4,,15
 111              		.thumb
 112              		.thumb_func
 113              		.type	thread2, %function
 114              	thread2:
ARM GAS  /tmp/cc7KTv09.s 			page 3


 115              	.LFB232:
 116              		.loc 1 169 0
 117              		.cfi_startproc
 118              		@ args = 0, pretend = 0, frame = 0
 119              		@ frame_needed = 0, uses_anonymous_args = 0
 120              		@ link register save eliminated.
 121              	.LVL5:
 122              		.loc 1 172 0
 123 0000 4FF4FA62 		mov	r2, #2000
 124 0004 0021     		movs	r1, #0
 125 0006 0148     		ldr	r0, .L10
 126              	.LVL6:
 127 0008 FFF7FEBF 		b	chOQPutTimeout
 128              	.LVL7:
 129              	.L11:
 130              		.align	2
 131              	.L10:
 132 000c 00000000 		.word	.LANCHOR1
 133              		.cfi_endproc
 134              	.LFE232:
 135              		.size	thread2, .-thread2
 136              		.section	.text.queues2_setup,"ax",%progbits
 137              		.align	2
 138              		.p2align 4,,15
 139              		.thumb
 140              		.thumb_func
 141              		.type	queues2_setup, %function
 142              	queues2_setup:
 143              	.LFB231:
 144              		.loc 1 164 0
 145              		.cfi_startproc
 146              		@ args = 0, pretend = 0, frame = 0
 147              		@ frame_needed = 0, uses_anonymous_args = 0
 148 0000 00B5     		push	{lr}
 149              		.cfi_def_cfa_offset 4
 150              		.cfi_offset 14, -4
 151              		.loc 1 166 0
 152 0002 064A     		ldr	r2, .L14
 153 0004 064B     		ldr	r3, .L14+4
 154 0006 1168     		ldr	r1, [r2]
 155 0008 0648     		ldr	r0, .L14+8
 156              		.loc 1 164 0
 157 000a 83B0     		sub	sp, sp, #12
 158              		.cfi_def_cfa_offset 16
 159              		.loc 1 166 0
 160 000c 0022     		movs	r2, #0
 161 000e 0092     		str	r2, [sp]
 162 0010 0422     		movs	r2, #4
 163 0012 FFF7FEFF 		bl	chOQObjectInit
 164              	.LVL8:
 165              		.loc 1 167 0
 166 0016 03B0     		add	sp, sp, #12
 167              		.cfi_def_cfa_offset 4
 168              		@ sp needed
 169 0018 5DF804FB 		ldr	pc, [sp], #4
 170              	.L15:
 171              		.align	2
ARM GAS  /tmp/cc7KTv09.s 			page 4


 172              	.L14:
 173 001c 00000000 		.word	wa
 174 0020 00000000 		.word	notify
 175 0024 00000000 		.word	.LANCHOR1
 176              		.cfi_endproc
 177              	.LFE231:
 178              		.size	queues2_setup, .-queues2_setup
 179              		.section	.text.queues1_execute,"ax",%progbits
 180              		.align	2
 181              		.p2align 4,,15
 182              		.thumb
 183              		.thumb_func
 184              		.type	queues1_execute, %function
 185              	queues1_execute:
 186              	.LFB230:
 187              		.loc 1 89 0
 188              		.cfi_startproc
 189              		@ args = 0, pretend = 0, frame = 0
 190              		@ frame_needed = 0, uses_anonymous_args = 0
 191              	.LVL9:
 192 0000 2DE9F041 		push	{r4, r5, r6, r7, r8, lr}
 193              		.cfi_def_cfa_offset 24
 194              		.cfi_offset 4, -24
 195              		.cfi_offset 5, -20
 196              		.cfi_offset 6, -16
 197              		.cfi_offset 7, -12
 198              		.cfi_offset 8, -8
 199              		.cfi_offset 14, -4
 200              	.LBB882:
 201              	.LBB883:
 202              	.LBB884:
 203              	.LBB885:
 204              		.file 2 "/home/selim/working/ChibiOS/os/ext/CMSIS/include/core_cmFunc.h"
 205              		.loc 2 546 0
 206 0004 2024     		movs	r4, #32
 207              	.LBE885:
 208              	.LBE884:
 209              	.LBE883:
 210              	.LBE882:
 211              		.loc 1 89 0
 212 0006 82B0     		sub	sp, sp, #8
 213              		.cfi_def_cfa_offset 32
 214              	.LBB889:
 215              	.LBB888:
 216              	.LBB887:
 217              	.LBB886:
 218              		.loc 2 546 0
 219              		.syntax unified
 220              	@ 546 "/home/selim/working/ChibiOS/os/ext/CMSIS/include/core_cmFunc.h" 1
 221 0008 84F31188 		MSR basepri, r4
 222              	@ 0 "" 2
 223              	.LVL10:
 224              		.thumb
 225              		.syntax unified
 226 000c 904B     		ldr	r3, .L45
 227              	.LBE886:
 228              	.LBE887:
ARM GAS  /tmp/cc7KTv09.s 			page 5


 229              	.LBE888:
 230              	.LBE889:
 231              		.loc 1 94 0
 232 000e 9968     		ldr	r1, [r3, #8]
 233 0010 B1FA81F1 		clz	r1, r1
 234 0014 4909     		lsrs	r1, r1, #5
 235 0016 0120     		movs	r0, #1
 236 0018 FFF7FEFF 		bl	_test_assert
 237              	.LVL11:
 238 001c F0B9     		cbnz	r0, .L39
 239 001e 0646     		mov	r6, r0
 240              	.LVL12:
 241              	.LBB890:
 242              	.LBB891:
 243              	.LBB892:
 244              	.LBB893:
 245              	.LBB894:
 246              		.loc 2 546 0
 247              		.syntax unified
 248              	@ 546 "/home/selim/working/ChibiOS/os/ext/CMSIS/include/core_cmFunc.h" 1
 249 0020 80F31188 		MSR basepri, r0
 250              	@ 0 "" 2
 251              	.LVL13:
 252              		.thumb
 253              		.syntax unified
 254              	.LBE894:
 255              	.LBE893:
 256              	.LBE892:
 257              	.LBE891:
 258              	.LBE890:
 259              	.LBB895:
 260              	.LBB896:
 261              	.LBB897:
 262              	.LBB898:
 263              		.syntax unified
 264              	@ 546 "/home/selim/working/ChibiOS/os/ext/CMSIS/include/core_cmFunc.h" 1
 265 0024 84F31188 		MSR basepri, r4
 266              	@ 0 "" 2
 267              	.LVL14:
 268              		.thumb
 269              		.syntax unified
 270 0028 4124     		movs	r4, #65
 271              	.LVL15:
 272              	.L19:
 273              	.LBE898:
 274              	.LBE897:
 275              	.LBE896:
 276              	.LBE895:
 277              		.loc 1 99 0 discriminator 3
 278 002a 894D     		ldr	r5, .L45
 279 002c 2146     		mov	r1, r4
 280 002e 0134     		adds	r4, r4, #1
 281 0030 2846     		mov	r0, r5
 282 0032 E4B2     		uxtb	r4, r4
 283 0034 FFF7FEFF 		bl	chIQPutI
 284              	.LVL16:
 285              		.loc 1 98 0 discriminator 3
ARM GAS  /tmp/cc7KTv09.s 			page 6


 286 0038 452C     		cmp	r4, #69
 287 003a F6D1     		bne	.L19
 288              	.LVL17:
 289              	.LBB899:
 290              	.LBB900:
 291              	.LBB901:
 292              	.LBB902:
 293              	.LBB903:
 294              		.loc 2 546 0
 295 003c 0023     		movs	r3, #0
 296              		.syntax unified
 297              	@ 546 "/home/selim/working/ChibiOS/os/ext/CMSIS/include/core_cmFunc.h" 1
 298 003e 83F31188 		MSR basepri, r3
 299              	@ 0 "" 2
 300              	.LVL18:
 301              		.thumb
 302              		.syntax unified
 303              	.LBE903:
 304              	.LBE902:
 305              	.LBE901:
 306              	.LBE900:
 307              	.LBE899:
 308              	.LBB904:
 309              	.LBB905:
 310              	.LBB906:
 311              	.LBB907:
 312 0042 2023     		movs	r3, #32
 313              		.syntax unified
 314              	@ 546 "/home/selim/working/ChibiOS/os/ext/CMSIS/include/core_cmFunc.h" 1
 315 0044 83F31188 		MSR basepri, r3
 316              	@ 0 "" 2
 317              	.LVL19:
 318              		.thumb
 319              		.syntax unified
 320              	.LBE907:
 321              	.LBE906:
 322              	.LBE905:
 323              	.LBE904:
 324              	.LBB908:
 325              	.LBB909:
 326              		.file 3 "/home/selim/working/ChibiOS/os/rt/include/chqueues.h"
 327              		.loc 3 324 0
 328 0048 6A69     		ldr	r2, [r5, #20]
 329 004a AB69     		ldr	r3, [r5, #24]
 330 004c 9A42     		cmp	r2, r3
 331 004e 3AD0     		beq	.L42
 332              	.L20:
 333              	.LVL20:
 334              	.LBE909:
 335              	.LBE908:
 336              		.loc 1 101 0
 337 0050 3146     		mov	r1, r6
 338 0052 0220     		movs	r0, #2
 339 0054 FFF7FEFF 		bl	_test_assert
 340              	.LVL21:
 341 0058 0446     		mov	r4, r0
 342 005a 28B1     		cbz	r0, .L21
ARM GAS  /tmp/cc7KTv09.s 			page 7


 343              	.L39:
 344              	.LVL22:
 345              	.LBB911:
 346              	.LBB912:
 347              	.LBB913:
 348              	.LBB914:
 349              	.LBB915:
 350              		.loc 2 546 0
 351 005c 0023     		movs	r3, #0
 352              		.syntax unified
 353              	@ 546 "/home/selim/working/ChibiOS/os/ext/CMSIS/include/core_cmFunc.h" 1
 354 005e 83F31188 		MSR basepri, r3
 355              	@ 0 "" 2
 356              	.LVL23:
 357              		.thumb
 358              		.syntax unified
 359              	.L16:
 360              	.LBE915:
 361              	.LBE914:
 362              	.LBE913:
 363              	.LBE912:
 364              	.LBE911:
 365              		.loc 1 146 0
 366 0062 02B0     		add	sp, sp, #8
 367              		.cfi_remember_state
 368              		.cfi_def_cfa_offset 24
 369              		@ sp needed
 370 0064 BDE8F081 		pop	{r4, r5, r6, r7, r8, pc}
 371              	.L21:
 372              		.cfi_restore_state
 373              	.LVL24:
 374              	.LBB916:
 375              	.LBB917:
 376              	.LBB918:
 377              	.LBB919:
 378              	.LBB920:
 379              	.LBB921:
 380              	.LBB922:
 381              		.loc 2 546 0
 382              		.syntax unified
 383              	@ 546 "/home/selim/working/ChibiOS/os/ext/CMSIS/include/core_cmFunc.h" 1
 384 0068 80F31188 		MSR basepri, r0
 385              	@ 0 "" 2
 386              	.LVL25:
 387              		.thumb
 388              		.syntax unified
 389              	.LBE922:
 390              	.LBE921:
 391              	.LBE920:
 392              	.LBE919:
 393              	.LBE918:
 394              	.LBB923:
 395              	.LBB924:
 396              	.LBB925:
 397              	.LBB926:
 398 006c 2023     		movs	r3, #32
 399              		.syntax unified
ARM GAS  /tmp/cc7KTv09.s 			page 8


 400              	@ 546 "/home/selim/working/ChibiOS/os/ext/CMSIS/include/core_cmFunc.h" 1
 401 006e 83F31188 		MSR basepri, r3
 402              	@ 0 "" 2
 403              	.LVL26:
 404              		.thumb
 405              		.syntax unified
 406              	.LBE926:
 407              	.LBE925:
 408              	.LBE924:
 409              	.LBE923:
 410              		.loc 1 102 0
 411 0072 7748     		ldr	r0, .L45
 412 0074 2146     		mov	r1, r4
 413 0076 FFF7FEFF 		bl	chIQPutI
 414              	.LVL27:
 415 007a 0430     		adds	r0, r0, #4
 416 007c 14BF     		ite	ne
 417 007e 0021     		movne	r1, #0
 418 0080 0121     		moveq	r1, #1
 419 0082 0320     		movs	r0, #3
 420 0084 FFF7FEFF 		bl	_test_assert
 421              	.LVL28:
 422 0088 C0B9     		cbnz	r0, .L40
 423              	.LVL29:
 424              	.LBB927:
 425              	.LBB928:
 426              	.LBB929:
 427              	.LBB930:
 428              	.LBB931:
 429              		.loc 2 546 0
 430              		.syntax unified
 431              	@ 546 "/home/selim/working/ChibiOS/os/ext/CMSIS/include/core_cmFunc.h" 1
 432 008a 80F31188 		MSR basepri, r0
 433              	@ 0 "" 2
 434              	.LVL30:
 435              		.thumb
 436              		.syntax unified
 437 008e 0424     		movs	r4, #4
 438              	.LVL31:
 439              	.L23:
 440              	.LBE931:
 441              	.LBE930:
 442              	.LBE929:
 443              	.LBE928:
 444              	.LBE927:
 445              	.LBB932:
 446              	.LBB933:
 447              		.loc 3 341 0
 448 0090 6F4D     		ldr	r5, .L45
 449 0092 4FF0FF31 		mov	r1, #-1
 450 0096 2846     		mov	r0, r5
 451 0098 FFF7FEFF 		bl	chIQGetTimeout
 452              	.LVL32:
 453              	.LBE933:
 454              	.LBE932:
 455              		.loc 1 106 0
 456 009c C0B2     		uxtb	r0, r0
ARM GAS  /tmp/cc7KTv09.s 			page 9


 457 009e FFF7FEFF 		bl	test_emit_token
 458              	.LVL33:
 459              		.loc 1 105 0
 460 00a2 013C     		subs	r4, r4, #1
 461              	.LVL34:
 462 00a4 F4D1     		bne	.L23
 463              	.LVL35:
 464              	.LBB934:
 465              	.LBB935:
 466              	.LBB936:
 467              	.LBB937:
 468              		.loc 2 546 0
 469 00a6 2026     		movs	r6, #32
 470              		.syntax unified
 471              	@ 546 "/home/selim/working/ChibiOS/os/ext/CMSIS/include/core_cmFunc.h" 1
 472 00a8 86F31188 		MSR basepri, r6
 473              	@ 0 "" 2
 474              	.LVL36:
 475              		.thumb
 476              		.syntax unified
 477              	.LBE937:
 478              	.LBE936:
 479              	.LBE935:
 480              	.LBE934:
 481              		.loc 1 107 0
 482 00ac A968     		ldr	r1, [r5, #8]
 483 00ae B1FA81F1 		clz	r1, r1
 484 00b2 4909     		lsrs	r1, r1, #5
 485 00b4 0420     		movs	r0, #4
 486 00b6 FFF7FEFF 		bl	_test_assert
 487              	.LVL37:
 488 00ba 48B1     		cbz	r0, .L43
 489              	.LVL38:
 490              	.L40:
 491              	.LBB938:
 492              	.LBB939:
 493              	.LBB940:
 494              	.LBB941:
 495              	.LBB942:
 496              		.loc 2 546 0
 497              		.syntax unified
 498              	@ 546 "/home/selim/working/ChibiOS/os/ext/CMSIS/include/core_cmFunc.h" 1
 499 00bc 84F31188 		MSR basepri, r4
 500              	@ 0 "" 2
 501              	.LVL39:
 502              		.thumb
 503              		.syntax unified
 504              	.LBE942:
 505              	.LBE941:
 506              	.LBE940:
 507              	.LBE939:
 508              	.LBE938:
 509              	.LBE917:
 510              	.LBE916:
 511              		.loc 1 146 0
 512 00c0 02B0     		add	sp, sp, #8
 513              		.cfi_remember_state
ARM GAS  /tmp/cc7KTv09.s 			page 10


 514              		.cfi_def_cfa_offset 24
 515              		@ sp needed
 516 00c2 BDE8F081 		pop	{r4, r5, r6, r7, r8, pc}
 517              	.LVL40:
 518              	.L42:
 519              		.cfi_restore_state
 520              	.LBB1024:
 521              	.LBB910:
 522              		.loc 3 324 0
 523 00c6 AE68     		ldr	r6, [r5, #8]
 524 00c8 0036     		adds	r6, r6, #0
 525 00ca 18BF     		it	ne
 526 00cc 0126     		movne	r6, #1
 527 00ce BFE7     		b	.L20
 528              	.LVL41:
 529              	.L43:
 530              	.LBE910:
 531              	.LBE1024:
 532              	.LBB1025:
 533              	.LBB1022:
 534              	.LBB943:
 535              	.LBB944:
 536              	.LBB945:
 537              	.LBB946:
 538              	.LBB947:
 539              		.loc 2 546 0
 540              		.syntax unified
 541              	@ 546 "/home/selim/working/ChibiOS/os/ext/CMSIS/include/core_cmFunc.h" 1
 542 00d0 84F31188 		MSR basepri, r4
 543              	@ 0 "" 2
 544              	.LVL42:
 545              		.thumb
 546              		.syntax unified
 547              	.LBE947:
 548              	.LBE946:
 549              	.LBE945:
 550              	.LBE944:
 551              	.LBE943:
 552              		.loc 1 108 0
 553 00d4 5F49     		ldr	r1, .L45+4
 554 00d6 0520     		movs	r0, #5
 555 00d8 FFF7FEFF 		bl	_test_assert_sequence
 556              	.LVL43:
 557 00dc 0028     		cmp	r0, #0
 558 00de C0D1     		bne	.L16
 559              	.LVL44:
 560              	.LBB948:
 561              	.LBB949:
 562              	.LBB950:
 563              	.LBB951:
 564              		.loc 2 546 0
 565              		.syntax unified
 566              	@ 546 "/home/selim/working/ChibiOS/os/ext/CMSIS/include/core_cmFunc.h" 1
 567 00e0 86F31188 		MSR basepri, r6
 568              	@ 0 "" 2
 569              	.LVL45:
 570              		.thumb
ARM GAS  /tmp/cc7KTv09.s 			page 11


 571              		.syntax unified
 572 00e4 4124     		movs	r4, #65
 573              	.LVL46:
 574              	.L26:
 575              	.LBE951:
 576              	.LBE950:
 577              	.LBE949:
 578              	.LBE948:
 579              		.loc 1 113 0
 580 00e6 5A4D     		ldr	r5, .L45
 581 00e8 2146     		mov	r1, r4
 582 00ea 0134     		adds	r4, r4, #1
 583 00ec 2846     		mov	r0, r5
 584 00ee E4B2     		uxtb	r4, r4
 585 00f0 FFF7FEFF 		bl	chIQPutI
 586              	.LVL47:
 587              		.loc 1 112 0
 588 00f4 452C     		cmp	r4, #69
 589 00f6 F6D1     		bne	.L26
 590              	.LVL48:
 591              	.LBB952:
 592              	.LBB953:
 593              	.LBB954:
 594              	.LBB955:
 595              	.LBB956:
 596              		.loc 2 546 0
 597 00f8 0023     		movs	r3, #0
 598              		.syntax unified
 599              	@ 546 "/home/selim/working/ChibiOS/os/ext/CMSIS/include/core_cmFunc.h" 1
 600 00fa 83F31188 		MSR basepri, r3
 601              	@ 0 "" 2
 602              	.LVL49:
 603              		.thumb
 604              		.syntax unified
 605              	.LBE956:
 606              	.LBE955:
 607              	.LBE954:
 608              	.LBE953:
 609              	.LBE952:
 610              		.loc 1 117 0
 611 00fe 564E     		ldr	r6, .L45+8
 612 0100 0822     		movs	r2, #8
 613 0102 7168     		ldr	r1, [r6, #4]
 614 0104 2846     		mov	r0, r5
 615 0106 FFF7FEFF 		bl	chIQReadTimeout
 616              	.LVL50:
 617              		.loc 1 118 0
 618 010a A0F10401 		sub	r1, r0, #4
 619 010e B1FA81F1 		clz	r1, r1
 620 0112 4909     		lsrs	r1, r1, #5
 621 0114 0620     		movs	r0, #6
 622              	.LVL51:
 623 0116 FFF7FEFF 		bl	_test_assert
 624              	.LVL52:
 625 011a 0446     		mov	r4, r0
 626 011c 0028     		cmp	r0, #0
 627 011e A0D1     		bne	.L16
ARM GAS  /tmp/cc7KTv09.s 			page 12


 628              	.LVL53:
 629              	.LBB957:
 630              	.LBB958:
 631              	.LBB959:
 632              	.LBB960:
 633              		.loc 2 546 0
 634 0120 2027     		movs	r7, #32
 635              		.syntax unified
 636              	@ 546 "/home/selim/working/ChibiOS/os/ext/CMSIS/include/core_cmFunc.h" 1
 637 0122 87F31188 		MSR basepri, r7
 638              	@ 0 "" 2
 639              	.LVL54:
 640              		.thumb
 641              		.syntax unified
 642              	.LBE960:
 643              	.LBE959:
 644              	.LBE958:
 645              	.LBE957:
 646              		.loc 1 119 0
 647 0126 A968     		ldr	r1, [r5, #8]
 648 0128 B1FA81F1 		clz	r1, r1
 649 012c 4909     		lsrs	r1, r1, #5
 650 012e 0720     		movs	r0, #7
 651 0130 FFF7FEFF 		bl	_test_assert
 652              	.LVL55:
 653 0134 0028     		cmp	r0, #0
 654 0136 C1D1     		bne	.L40
 655              	.LVL56:
 656              	.LBB961:
 657              	.LBB962:
 658              	.LBB963:
 659              	.LBB964:
 660              	.LBB965:
 661              		.loc 2 546 0
 662              		.syntax unified
 663              	@ 546 "/home/selim/working/ChibiOS/os/ext/CMSIS/include/core_cmFunc.h" 1
 664 0138 80F31188 		MSR basepri, r0
 665              	@ 0 "" 2
 666              	.LVL57:
 667              		.thumb
 668              		.syntax unified
 669              	.LBE965:
 670              	.LBE964:
 671              	.LBE963:
 672              	.LBE962:
 673              	.LBE961:
 674              	.LBB966:
 675              	.LBB967:
 676              	.LBB968:
 677              	.LBB969:
 678              		.syntax unified
 679              	@ 546 "/home/selim/working/ChibiOS/os/ext/CMSIS/include/core_cmFunc.h" 1
 680 013c 87F31188 		MSR basepri, r7
 681              	@ 0 "" 2
 682              	.LVL58:
 683              		.thumb
 684              		.syntax unified
ARM GAS  /tmp/cc7KTv09.s 			page 13


 685 0140 4124     		movs	r4, #65
 686              	.LVL59:
 687              	.L29:
 688              	.LBE969:
 689              	.LBE968:
 690              	.LBE967:
 691              	.LBE966:
 692              		.loc 1 124 0
 693 0142 434D     		ldr	r5, .L45
 694 0144 2146     		mov	r1, r4
 695 0146 0134     		adds	r4, r4, #1
 696 0148 2846     		mov	r0, r5
 697 014a E4B2     		uxtb	r4, r4
 698 014c FFF7FEFF 		bl	chIQPutI
 699              	.LVL60:
 700              		.loc 1 123 0
 701 0150 452C     		cmp	r4, #69
 702 0152 F6D1     		bne	.L29
 703              	.LVL61:
 704              	.LBB970:
 705              	.LBB971:
 706              	.LBB972:
 707              	.LBB973:
 708              	.LBB974:
 709              		.loc 2 546 0
 710 0154 0023     		movs	r3, #0
 711              		.syntax unified
 712              	@ 546 "/home/selim/working/ChibiOS/os/ext/CMSIS/include/core_cmFunc.h" 1
 713 0156 83F31188 		MSR basepri, r3
 714              	@ 0 "" 2
 715              	.LVL62:
 716              		.thumb
 717              		.syntax unified
 718              	.LBE974:
 719              	.LBE973:
 720              	.LBE972:
 721              	.LBE971:
 722              	.LBE970:
 723              		.loc 1 128 0
 724 015a 7468     		ldr	r4, [r6, #4]
 725 015c DFF8F880 		ldr	r8, .L45+8
 726 0160 2146     		mov	r1, r4
 727 0162 2846     		mov	r0, r5
 728 0164 0222     		movs	r2, #2
 729 0166 FFF7FEFF 		bl	chIQReadTimeout
 730              	.LVL63:
 731              		.loc 1 129 0
 732 016a A0F10201 		sub	r1, r0, #2
 733 016e B1FA81F1 		clz	r1, r1
 734 0172 4909     		lsrs	r1, r1, #5
 735 0174 0820     		movs	r0, #8
 736              	.LVL64:
 737 0176 FFF7FEFF 		bl	_test_assert
 738              	.LVL65:
 739 017a 0028     		cmp	r0, #0
 740 017c 7FF471AF 		bne	.L16
 741              		.loc 1 130 0
ARM GAS  /tmp/cc7KTv09.s 			page 14


 742 0180 0346     		mov	r3, r0
 743 0182 2146     		mov	r1, r4
 744 0184 0222     		movs	r2, #2
 745 0186 2846     		mov	r0, r5
 746 0188 FFF7FEFF 		bl	chIQReadTimeout
 747              	.LVL66:
 748              		.loc 1 131 0
 749 018c A0F10201 		sub	r1, r0, #2
 750 0190 B1FA81F1 		clz	r1, r1
 751 0194 4909     		lsrs	r1, r1, #5
 752 0196 0920     		movs	r0, #9
 753              	.LVL67:
 754 0198 FFF7FEFF 		bl	_test_assert
 755              	.LVL68:
 756 019c 0646     		mov	r6, r0
 757 019e 0028     		cmp	r0, #0
 758 01a0 7FF45FAF 		bne	.L16
 759              	.LVL69:
 760              	.LBB975:
 761              	.LBB976:
 762              	.LBB977:
 763              	.LBB978:
 764              		.loc 2 546 0
 765 01a4 2027     		movs	r7, #32
 766              		.syntax unified
 767              	@ 546 "/home/selim/working/ChibiOS/os/ext/CMSIS/include/core_cmFunc.h" 1
 768 01a6 87F31188 		MSR basepri, r7
 769              	@ 0 "" 2
 770              	.LVL70:
 771              		.thumb
 772              		.syntax unified
 773              	.LBE978:
 774              	.LBE977:
 775              	.LBE976:
 776              	.LBE975:
 777              		.loc 1 132 0
 778 01aa A968     		ldr	r1, [r5, #8]
 779 01ac B1FA81F1 		clz	r1, r1
 780 01b0 4909     		lsrs	r1, r1, #5
 781 01b2 0A20     		movs	r0, #10
 782 01b4 FFF7FEFF 		bl	_test_assert
 783              	.LVL71:
 784 01b8 0446     		mov	r4, r0
 785 01ba 10B1     		cbz	r0, .L44
 786              	.L38:
 787              	.LVL72:
 788              	.LBB979:
 789              	.LBB980:
 790              	.LBB981:
 791              	.LBB982:
 792              	.LBB983:
 793              		.loc 2 546 0
 794              		.syntax unified
 795              	@ 546 "/home/selim/working/ChibiOS/os/ext/CMSIS/include/core_cmFunc.h" 1
 796 01bc 86F31188 		MSR basepri, r6
 797              	@ 0 "" 2
 798              	.LVL73:
ARM GAS  /tmp/cc7KTv09.s 			page 15


 799              		.thumb
 800              		.syntax unified
 801 01c0 4FE7     		b	.L16
 802              	.L44:
 803              	.LVL74:
 804              	.LBE983:
 805              	.LBE982:
 806              	.LBE981:
 807              	.LBE980:
 808              	.LBE979:
 809              	.LBB984:
 810              	.LBB985:
 811              	.LBB986:
 812              	.LBB987:
 813              	.LBB988:
 814              		.syntax unified
 815              	@ 546 "/home/selim/working/ChibiOS/os/ext/CMSIS/include/core_cmFunc.h" 1
 816 01c2 80F31188 		MSR basepri, r0
 817              	@ 0 "" 2
 818              	.LVL75:
 819              		.thumb
 820              		.syntax unified
 821              	.LBE988:
 822              	.LBE987:
 823              	.LBE986:
 824              	.LBE985:
 825              	.LBE984:
 826              	.LBB989:
 827              	.LBB990:
 828              	.LBB991:
 829              	.LBB992:
 830              		.syntax unified
 831              	@ 546 "/home/selim/working/ChibiOS/os/ext/CMSIS/include/core_cmFunc.h" 1
 832 01c6 87F31188 		MSR basepri, r7
 833              	@ 0 "" 2
 834              	.LVL76:
 835              		.thumb
 836              		.syntax unified
 837              	.LBE992:
 838              	.LBE991:
 839              	.LBE990:
 840              	.LBE989:
 841              		.loc 1 136 0
 842 01ca 0146     		mov	r1, r0
 843 01cc 2846     		mov	r0, r5
 844 01ce FFF7FEFF 		bl	chIQPutI
 845              	.LVL77:
 846              		.loc 1 137 0
 847 01d2 2846     		mov	r0, r5
 848 01d4 FFF7FEFF 		bl	chIQResetI
 849              	.LVL78:
 850              	.LBB993:
 851              	.LBB994:
 852              	.LBB995:
 853              	.LBB996:
 854              	.LBB997:
 855              		.loc 2 546 0
ARM GAS  /tmp/cc7KTv09.s 			page 16


 856              		.syntax unified
 857              	@ 546 "/home/selim/working/ChibiOS/os/ext/CMSIS/include/core_cmFunc.h" 1
 858 01d8 84F31188 		MSR basepri, r4
 859              	@ 0 "" 2
 860              	.LVL79:
 861              		.thumb
 862              		.syntax unified
 863              	.LBE997:
 864              	.LBE996:
 865              	.LBE995:
 866              	.LBE994:
 867              	.LBE993:
 868              	.LBB998:
 869              	.LBB999:
 870              	.LBB1000:
 871              	.LBB1001:
 872              		.syntax unified
 873              	@ 546 "/home/selim/working/ChibiOS/os/ext/CMSIS/include/core_cmFunc.h" 1
 874 01dc 87F31188 		MSR basepri, r7
 875              	@ 0 "" 2
 876              	.LVL80:
 877              		.thumb
 878              		.syntax unified
 879              	.LBE1001:
 880              	.LBE1000:
 881              	.LBE999:
 882              	.LBE998:
 883              		.loc 1 139 0
 884 01e0 A968     		ldr	r1, [r5, #8]
 885 01e2 B1FA81F1 		clz	r1, r1
 886 01e6 4909     		lsrs	r1, r1, #5
 887 01e8 0B20     		movs	r0, #11
 888 01ea FFF7FEFF 		bl	_test_assert
 889              	.LVL81:
 890 01ee 0646     		mov	r6, r0
 891 01f0 0028     		cmp	r0, #0
 892 01f2 7FF463AF 		bne	.L40
 893              	.LVL82:
 894              	.LBB1002:
 895              	.LBB1003:
 896              	.LBB1004:
 897              	.LBB1005:
 898              	.LBB1006:
 899              		.loc 2 546 0
 900              		.syntax unified
 901              	@ 546 "/home/selim/working/ChibiOS/os/ext/CMSIS/include/core_cmFunc.h" 1
 902 01f6 80F31188 		MSR basepri, r0
 903              	@ 0 "" 2
 904              	.LVL83:
 905              		.thumb
 906              		.syntax unified
 907              	.LBE1006:
 908              	.LBE1005:
 909              	.LBE1004:
 910              	.LBE1003:
 911              	.LBE1002:
 912              	.LBB1007:
ARM GAS  /tmp/cc7KTv09.s 			page 17


 913              	.LBB1008:
 914              	.LBB1009:
 915              	.LBB1010:
 916              		.file 4 "/home/selim/working/ChibiOS/os/rt/include/chthreads.h"
 917              		.loc 4 176 0
 918 01fa 184B     		ldr	r3, .L45+12
 919              	.LBE1010:
 920              	.LBE1009:
 921              	.LBE1008:
 922              	.LBE1007:
 923              		.loc 1 140 0
 924 01fc D8F80000 		ldr	r0, [r8]
 925              	.LBB1012:
 926              	.LBB1011:
 927              		.loc 4 189 0
 928 0200 9A69     		ldr	r2, [r3, #24]
 929              	.LBE1011:
 930              	.LBE1012:
 931              		.loc 1 140 0
 932 0202 174B     		ldr	r3, .L45+16
 933 0204 9268     		ldr	r2, [r2, #8]
 934 0206 0096     		str	r6, [sp]
 935 0208 0132     		adds	r2, r2, #1
 936 020a 4FF4A471 		mov	r1, #328
 937 020e FFF7FEFF 		bl	chThdCreateStatic
 938              	.LVL84:
 939 0212 144B     		ldr	r3, .L45+20
 940 0214 1860     		str	r0, [r3]
 941              	.LVL85:
 942              	.LBB1013:
 943              	.LBB1014:
 944              	.LBB1015:
 945              	.LBB1016:
 946              		.loc 2 546 0
 947              		.syntax unified
 948              	@ 546 "/home/selim/working/ChibiOS/os/ext/CMSIS/include/core_cmFunc.h" 1
 949 0216 87F31188 		MSR basepri, r7
 950              	@ 0 "" 2
 951              	.LVL86:
 952              		.thumb
 953              		.syntax unified
 954              	.LBE1016:
 955              	.LBE1015:
 956              	.LBE1014:
 957              	.LBE1013:
 958              		.loc 1 141 0
 959 021a A968     		ldr	r1, [r5, #8]
 960 021c B1FA81F1 		clz	r1, r1
 961 0220 4909     		lsrs	r1, r1, #5
 962 0222 0C20     		movs	r0, #12
 963 0224 FFF7FEFF 		bl	_test_assert
 964              	.LVL87:
 965 0228 0028     		cmp	r0, #0
 966 022a C7D1     		bne	.L38
 967              	.LVL88:
 968              	.LBB1017:
 969              	.LBB1018:
ARM GAS  /tmp/cc7KTv09.s 			page 18


 970              	.LBB1019:
 971              	.LBB1020:
 972              	.LBB1021:
 973              		.loc 2 546 0
 974              		.syntax unified
 975              	@ 546 "/home/selim/working/ChibiOS/os/ext/CMSIS/include/core_cmFunc.h" 1
 976 022c 80F31188 		MSR basepri, r0
 977              	@ 0 "" 2
 978              	.LVL89:
 979              		.thumb
 980              		.syntax unified
 981              	.LBE1021:
 982              	.LBE1020:
 983              	.LBE1019:
 984              	.LBE1018:
 985              	.LBE1017:
 986              		.loc 1 142 0
 987 0230 FFF7FEFF 		bl	test_wait_threads
 988              	.LVL90:
 989              		.loc 1 145 0
 990 0234 2846     		mov	r0, r5
 991 0236 0A21     		movs	r1, #10
 992 0238 FFF7FEFF 		bl	chIQGetTimeout
 993              	.LVL91:
 994 023c 431C     		adds	r3, r0, #1
 995 023e 5942     		rsbs	r1, r3, #0
 996 0240 5941     		adcs	r1, r1, r3
 997 0242 0D20     		movs	r0, #13
 998              	.LBE1022:
 999              	.LBE1025:
 1000              		.loc 1 146 0
 1001 0244 02B0     		add	sp, sp, #8
 1002              		.cfi_def_cfa_offset 24
 1003              		@ sp needed
 1004 0246 BDE8F041 		pop	{r4, r5, r6, r7, r8, lr}
 1005              		.cfi_restore 14
 1006              		.cfi_restore 8
 1007              		.cfi_restore 7
 1008              		.cfi_restore 6
 1009              		.cfi_restore 5
 1010              		.cfi_restore 4
 1011              		.cfi_def_cfa_offset 0
 1012              	.LBB1026:
 1013              	.LBB1023:
 1014              		.loc 1 145 0
 1015 024a FFF7FEBF 		b	_test_assert
 1016              	.LVL92:
 1017              	.L46:
 1018 024e 00BF     		.align	2
 1019              	.L45:
 1020 0250 00000000 		.word	.LANCHOR0
 1021 0254 00000000 		.word	.LC0
 1022 0258 00000000 		.word	wa
 1023 025c 00000000 		.word	ch
 1024 0260 00000000 		.word	thread1
 1025 0264 00000000 		.word	threads
 1026              	.LBE1023:
ARM GAS  /tmp/cc7KTv09.s 			page 19


 1027              	.LBE1026:
 1028              		.cfi_endproc
 1029              	.LFE230:
 1030              		.size	queues1_execute, .-queues1_execute
 1031              		.section	.text.queues2_execute,"ax",%progbits
 1032              		.align	2
 1033              		.p2align 4,,15
 1034              		.thumb
 1035              		.thumb_func
 1036              		.type	queues2_execute, %function
 1037              	queues2_execute:
 1038              	.LFB233:
 1039              		.loc 1 175 0
 1040              		.cfi_startproc
 1041              		@ args = 0, pretend = 0, frame = 0
 1042              		@ frame_needed = 0, uses_anonymous_args = 0
 1043              	.LVL93:
 1044 0000 2DE9F043 		push	{r4, r5, r6, r7, r8, r9, lr}
 1045              		.cfi_def_cfa_offset 28
 1046              		.cfi_offset 4, -28
 1047              		.cfi_offset 5, -24
 1048              		.cfi_offset 6, -20
 1049              		.cfi_offset 7, -16
 1050              		.cfi_offset 8, -12
 1051              		.cfi_offset 9, -8
 1052              		.cfi_offset 14, -4
 1053              	.LBB1209:
 1054              	.LBB1210:
 1055              	.LBB1211:
 1056              	.LBB1212:
 1057              		.loc 2 546 0
 1058 0004 2023     		movs	r3, #32
 1059              	.LBE1212:
 1060              	.LBE1211:
 1061              	.LBE1210:
 1062              	.LBE1209:
 1063              		.loc 1 175 0
 1064 0006 83B0     		sub	sp, sp, #12
 1065              		.cfi_def_cfa_offset 40
 1066              	.LBB1216:
 1067              	.LBB1215:
 1068              	.LBB1214:
 1069              	.LBB1213:
 1070              		.loc 2 546 0
 1071              		.syntax unified
 1072              	@ 546 "/home/selim/working/ChibiOS/os/ext/CMSIS/include/core_cmFunc.h" 1
 1073 0008 83F31188 		MSR basepri, r3
 1074              	@ 0 "" 2
 1075              	.LVL94:
 1076              		.thumb
 1077              		.syntax unified
 1078              	.LBE1213:
 1079              	.LBE1214:
 1080              	.LBE1215:
 1081              	.LBE1216:
 1082              	.LBB1217:
 1083              	.LBB1218:
ARM GAS  /tmp/cc7KTv09.s 			page 20


 1084              		.loc 3 390 0
 1085 000c 854B     		ldr	r3, .L72
 1086 000e 9969     		ldr	r1, [r3, #24]
 1087 0010 5A69     		ldr	r2, [r3, #20]
 1088 0012 9142     		cmp	r1, r2
 1089 0014 5DD0     		beq	.L69
 1090 0016 0021     		movs	r1, #0
 1091              	.L48:
 1092              	.LVL95:
 1093              	.LBE1218:
 1094              	.LBE1217:
 1095              		.loc 1 180 0
 1096 0018 0120     		movs	r0, #1
 1097 001a FFF7FEFF 		bl	_test_assert
 1098              	.LVL96:
 1099 001e B8BB     		cbnz	r0, .L68
 1100              	.LVL97:
 1101              	.LBB1220:
 1102              	.LBB1221:
 1103              	.LBB1222:
 1104              	.LBB1223:
 1105              	.LBB1224:
 1106              		.loc 2 546 0
 1107              		.syntax unified
 1108              	@ 546 "/home/selim/working/ChibiOS/os/ext/CMSIS/include/core_cmFunc.h" 1
 1109 0020 80F31188 		MSR basepri, r0
 1110              	@ 0 "" 2
 1111              	.LVL98:
 1112              		.thumb
 1113              		.syntax unified
 1114 0024 4124     		movs	r4, #65
 1115              	.LVL99:
 1116              	.L51:
 1117              	.LBE1224:
 1118              	.LBE1223:
 1119              	.LBE1222:
 1120              	.LBE1221:
 1121              	.LBE1220:
 1122              	.LBB1225:
 1123              	.LBB1226:
 1124              		.loc 3 426 0 discriminator 3
 1125 0026 7F4D     		ldr	r5, .L72
 1126 0028 2146     		mov	r1, r4
 1127 002a 0134     		adds	r4, r4, #1
 1128              	.LVL100:
 1129 002c 4FF0FF32 		mov	r2, #-1
 1130 0030 2846     		mov	r0, r5
 1131 0032 E4B2     		uxtb	r4, r4
 1132 0034 FFF7FEFF 		bl	chOQPutTimeout
 1133              	.LVL101:
 1134              	.LBE1226:
 1135              	.LBE1225:
 1136              		.loc 1 183 0 discriminator 3
 1137 0038 452C     		cmp	r4, #69
 1138 003a F4D1     		bne	.L51
 1139              	.LVL102:
 1140              	.LBB1227:
ARM GAS  /tmp/cc7KTv09.s 			page 21


 1141              	.LBB1228:
 1142              	.LBB1229:
 1143              	.LBB1230:
 1144              		.loc 2 546 0
 1145 003c 2026     		movs	r6, #32
 1146              		.syntax unified
 1147              	@ 546 "/home/selim/working/ChibiOS/os/ext/CMSIS/include/core_cmFunc.h" 1
 1148 003e 86F31188 		MSR basepri, r6
 1149              	@ 0 "" 2
 1150              	.LVL103:
 1151              		.thumb
 1152              		.syntax unified
 1153              	.LBE1230:
 1154              	.LBE1229:
 1155              	.LBE1228:
 1156              	.LBE1227:
 1157              		.loc 1 185 0
 1158 0042 A968     		ldr	r1, [r5, #8]
 1159 0044 B1FA81F1 		clz	r1, r1
 1160 0048 4909     		lsrs	r1, r1, #5
 1161 004a 0220     		movs	r0, #2
 1162 004c FFF7FEFF 		bl	_test_assert
 1163              	.LVL104:
 1164 0050 0746     		mov	r7, r0
 1165 0052 E8B9     		cbnz	r0, .L68
 1166              	.LVL105:
 1167              	.LBB1231:
 1168              	.LBB1232:
 1169              	.LBB1233:
 1170              	.LBB1234:
 1171              	.LBB1235:
 1172              	.LBB1236:
 1173              	.LBB1237:
 1174              		.loc 2 546 0
 1175              		.syntax unified
 1176              	@ 546 "/home/selim/working/ChibiOS/os/ext/CMSIS/include/core_cmFunc.h" 1
 1177 0054 80F31188 		MSR basepri, r0
 1178              	@ 0 "" 2
 1179              	.LVL106:
 1180              		.thumb
 1181              		.syntax unified
 1182 0058 0424     		movs	r4, #4
 1183              	.LBE1237:
 1184              	.LBE1236:
 1185              	.LBE1235:
 1186              	.LBE1234:
 1187              	.LBE1233:
 1188              	.LBB1238:
 1189              	.LBB1239:
 1190              	.LBB1240:
 1191              	.LBB1241:
 1192              	.LBB1242:
 1193              	.LBB1243:
 1194 005a 8146     		mov	r9, r0
 1195              	.LVL107:
 1196              	.L53:
 1197              	.LBE1243:
ARM GAS  /tmp/cc7KTv09.s 			page 22


 1198              	.LBE1242:
 1199              	.LBE1241:
 1200              	.LBE1240:
 1201              	.LBE1239:
 1202              	.LBB1248:
 1203              	.LBB1249:
 1204              	.LBB1250:
 1205              	.LBB1251:
 1206 005c 4FF02008 		mov	r8, #32
 1207              		.syntax unified
 1208              	@ 546 "/home/selim/working/ChibiOS/os/ext/CMSIS/include/core_cmFunc.h" 1
 1209 0060 86F31188 		MSR basepri, r6
 1210              	@ 0 "" 2
 1211              	.LVL108:
 1212              		.thumb
 1213              		.syntax unified
 1214              	.LBE1251:
 1215              	.LBE1250:
 1216              	.LBE1249:
 1217              	.LBE1248:
 1218              		.loc 1 192 0
 1219 0064 6F4D     		ldr	r5, .L72
 1220 0066 2846     		mov	r0, r5
 1221 0068 FFF7FEFF 		bl	chOQGetI
 1222              	.LVL109:
 1223              	.LBB1252:
 1224              	.LBB1247:
 1225              	.LBB1246:
 1226              	.LBB1245:
 1227              	.LBB1244:
 1228              		.loc 2 546 0
 1229              		.syntax unified
 1230              	@ 546 "/home/selim/working/ChibiOS/os/ext/CMSIS/include/core_cmFunc.h" 1
 1231 006c 89F31188 		MSR basepri, r9
 1232              	@ 0 "" 2
 1233              	.LVL110:
 1234              		.thumb
 1235              		.syntax unified
 1236              	.LBE1244:
 1237              	.LBE1245:
 1238              	.LBE1246:
 1239              	.LBE1247:
 1240              	.LBE1252:
 1241              		.loc 1 194 0
 1242 0070 C0B2     		uxtb	r0, r0
 1243 0072 FFF7FEFF 		bl	test_emit_token
 1244              	.LVL111:
 1245              	.LBE1238:
 1246              		.loc 1 188 0
 1247 0076 013C     		subs	r4, r4, #1
 1248              	.LVL112:
 1249 0078 F0D1     		bne	.L53
 1250              	.LVL113:
 1251              	.LBB1253:
 1252              	.LBB1254:
 1253              	.LBB1255:
 1254              	.LBB1256:
ARM GAS  /tmp/cc7KTv09.s 			page 23


 1255              		.loc 2 546 0
 1256              		.syntax unified
 1257              	@ 546 "/home/selim/working/ChibiOS/os/ext/CMSIS/include/core_cmFunc.h" 1
 1258 007a 88F31188 		MSR basepri, r8
 1259              	@ 0 "" 2
 1260              	.LVL114:
 1261              		.thumb
 1262              		.syntax unified
 1263              	.LBE1256:
 1264              	.LBE1255:
 1265              	.LBE1254:
 1266              	.LBE1253:
 1267              	.LBB1257:
 1268              	.LBB1258:
 1269              		.loc 3 390 0
 1270 007e 6A69     		ldr	r2, [r5, #20]
 1271 0080 AB69     		ldr	r3, [r5, #24]
 1272 0082 9A42     		cmp	r2, r3
 1273 0084 2AD0     		beq	.L70
 1274              	.L54:
 1275              	.LVL115:
 1276              	.LBE1258:
 1277              	.LBE1257:
 1278              		.loc 1 196 0
 1279 0086 3946     		mov	r1, r7
 1280 0088 0320     		movs	r0, #3
 1281 008a FFF7FEFF 		bl	_test_assert
 1282              	.LVL116:
 1283 008e 28B1     		cbz	r0, .L71
 1284              	.LVL117:
 1285              	.L68:
 1286              	.LBB1260:
 1287              	.LBB1261:
 1288              	.LBB1262:
 1289              	.LBB1263:
 1290              	.LBB1264:
 1291              		.loc 2 546 0
 1292 0090 0023     		movs	r3, #0
 1293              		.syntax unified
 1294              	@ 546 "/home/selim/working/ChibiOS/os/ext/CMSIS/include/core_cmFunc.h" 1
 1295 0092 83F31188 		MSR basepri, r3
 1296              	@ 0 "" 2
 1297              	.LVL118:
 1298              		.thumb
 1299              		.syntax unified
 1300              	.L47:
 1301              	.LBE1264:
 1302              	.LBE1263:
 1303              	.LBE1262:
 1304              	.LBE1261:
 1305              	.LBE1260:
 1306              	.LBE1232:
 1307              	.LBE1231:
 1308              		.loc 1 223 0
 1309 0096 03B0     		add	sp, sp, #12
 1310              		.cfi_remember_state
 1311              		.cfi_def_cfa_offset 28
ARM GAS  /tmp/cc7KTv09.s 			page 24


 1312              		@ sp needed
 1313 0098 BDE8F083 		pop	{r4, r5, r6, r7, r8, r9, pc}
 1314              	.LVL119:
 1315              	.L71:
 1316              		.cfi_restore_state
 1317              	.LBB1354:
 1318              	.LBB1351:
 1319              	.LBB1265:
 1320              	.LBB1266:
 1321              	.LBB1267:
 1322              	.LBB1268:
 1323              	.LBB1269:
 1324              		.loc 2 546 0
 1325              		.syntax unified
 1326              	@ 546 "/home/selim/working/ChibiOS/os/ext/CMSIS/include/core_cmFunc.h" 1
 1327 009c 80F31188 		MSR basepri, r0
 1328              	@ 0 "" 2
 1329              	.LVL120:
 1330              		.thumb
 1331              		.syntax unified
 1332              	.LBE1269:
 1333              	.LBE1268:
 1334              	.LBE1267:
 1335              	.LBE1266:
 1336              	.LBE1265:
 1337              		.loc 1 197 0
 1338 00a0 6149     		ldr	r1, .L72+4
 1339 00a2 0420     		movs	r0, #4
 1340 00a4 FFF7FEFF 		bl	_test_assert_sequence
 1341              	.LVL121:
 1342 00a8 0446     		mov	r4, r0
 1343              	.LVL122:
 1344 00aa 0028     		cmp	r0, #0
 1345 00ac F3D1     		bne	.L47
 1346              	.LVL123:
 1347              	.LBB1270:
 1348              	.LBB1271:
 1349              	.LBB1272:
 1350              	.LBB1273:
 1351              		.loc 2 546 0
 1352 00ae 2026     		movs	r6, #32
 1353              		.syntax unified
 1354              	@ 546 "/home/selim/working/ChibiOS/os/ext/CMSIS/include/core_cmFunc.h" 1
 1355 00b0 86F31188 		MSR basepri, r6
 1356              	@ 0 "" 2
 1357              	.LVL124:
 1358              		.thumb
 1359              		.syntax unified
 1360              	.LBE1273:
 1361              	.LBE1272:
 1362              	.LBE1271:
 1363              	.LBE1270:
 1364              		.loc 1 198 0
 1365 00b4 5B4D     		ldr	r5, .L72
 1366 00b6 2846     		mov	r0, r5
 1367 00b8 FFF7FEFF 		bl	chOQGetI
 1368              	.LVL125:
ARM GAS  /tmp/cc7KTv09.s 			page 25


 1369 00bc 0330     		adds	r0, r0, #3
 1370 00be 14BF     		ite	ne
 1371 00c0 0021     		movne	r1, #0
 1372 00c2 0121     		moveq	r1, #1
 1373 00c4 0520     		movs	r0, #5
 1374 00c6 FFF7FEFF 		bl	_test_assert
 1375              	.LVL126:
 1376 00ca 60B1     		cbz	r0, .L57
 1377              	.LVL127:
 1378              	.LBB1274:
 1379              	.LBB1275:
 1380              	.LBB1276:
 1381              	.LBB1277:
 1382              	.LBB1278:
 1383              		.loc 2 546 0
 1384              		.syntax unified
 1385              	@ 546 "/home/selim/working/ChibiOS/os/ext/CMSIS/include/core_cmFunc.h" 1
 1386 00cc 84F31188 		MSR basepri, r4
 1387              	@ 0 "" 2
 1388              	.LVL128:
 1389              		.thumb
 1390              		.syntax unified
 1391 00d0 E1E7     		b	.L47
 1392              	.LVL129:
 1393              	.L69:
 1394              	.LBE1278:
 1395              	.LBE1277:
 1396              	.LBE1276:
 1397              	.LBE1275:
 1398              	.LBE1274:
 1399              	.LBE1351:
 1400              	.LBE1354:
 1401              	.LBB1355:
 1402              	.LBB1219:
 1403              		.loc 3 390 0
 1404 00d2 9968     		ldr	r1, [r3, #8]
 1405 00d4 0031     		adds	r1, r1, #0
 1406 00d6 18BF     		it	ne
 1407 00d8 0121     		movne	r1, #1
 1408 00da 9DE7     		b	.L48
 1409              	.LVL130:
 1410              	.L70:
 1411              	.LBE1219:
 1412              	.LBE1355:
 1413              	.LBB1356:
 1414              	.LBB1352:
 1415              	.LBB1279:
 1416              	.LBB1259:
 1417 00dc AF68     		ldr	r7, [r5, #8]
 1418 00de 0037     		adds	r7, r7, #0
 1419 00e0 18BF     		it	ne
 1420 00e2 0127     		movne	r7, #1
 1421 00e4 CFE7     		b	.L54
 1422              	.LVL131:
 1423              	.L57:
 1424              	.LBE1259:
 1425              	.LBE1279:
ARM GAS  /tmp/cc7KTv09.s 			page 26


 1426              	.LBB1280:
 1427              	.LBB1281:
 1428              	.LBB1282:
 1429              	.LBB1283:
 1430              	.LBB1284:
 1431              		.loc 2 546 0
 1432              		.syntax unified
 1433              	@ 546 "/home/selim/working/ChibiOS/os/ext/CMSIS/include/core_cmFunc.h" 1
 1434 00e6 80F31188 		MSR basepri, r0
 1435              	@ 0 "" 2
 1436              	.LVL132:
 1437              		.thumb
 1438              		.syntax unified
 1439              	.LBE1284:
 1440              	.LBE1283:
 1441              	.LBE1282:
 1442              	.LBE1281:
 1443              	.LBE1280:
 1444              		.loc 1 201 0
 1445 00ea 504F     		ldr	r7, .L72+8
 1446 00ec 7C68     		ldr	r4, [r7, #4]
 1447 00ee 0346     		mov	r3, r0
 1448 00f0 2146     		mov	r1, r4
 1449 00f2 0822     		movs	r2, #8
 1450 00f4 2846     		mov	r0, r5
 1451 00f6 FFF7FEFF 		bl	chOQWriteTimeout
 1452              	.LVL133:
 1453              		.loc 1 202 0
 1454 00fa A0F10401 		sub	r1, r0, #4
 1455 00fe B1FA81F1 		clz	r1, r1
 1456 0102 4909     		lsrs	r1, r1, #5
 1457 0104 0620     		movs	r0, #6
 1458              	.LVL134:
 1459 0106 FFF7FEFF 		bl	_test_assert
 1460              	.LVL135:
 1461 010a 8046     		mov	r8, r0
 1462 010c 0028     		cmp	r0, #0
 1463 010e C2D1     		bne	.L47
 1464              	.LVL136:
 1465              	.LBB1285:
 1466              	.LBB1286:
 1467              	.LBB1287:
 1468              	.LBB1288:
 1469              		.loc 2 546 0
 1470              		.syntax unified
 1471              	@ 546 "/home/selim/working/ChibiOS/os/ext/CMSIS/include/core_cmFunc.h" 1
 1472 0110 86F31188 		MSR basepri, r6
 1473              	@ 0 "" 2
 1474              	.LVL137:
 1475              		.thumb
 1476              		.syntax unified
 1477              	.LBE1288:
 1478              	.LBE1287:
 1479              	.LBE1286:
 1480              	.LBE1285:
 1481              		.loc 1 203 0
 1482 0114 A968     		ldr	r1, [r5, #8]
ARM GAS  /tmp/cc7KTv09.s 			page 27


 1483 0116 B1FA81F1 		clz	r1, r1
 1484 011a 4909     		lsrs	r1, r1, #5
 1485 011c 0720     		movs	r0, #7
 1486 011e FFF7FEFF 		bl	_test_assert
 1487              	.LVL138:
 1488 0122 8146     		mov	r9, r0
 1489 0124 10B1     		cbz	r0, .L59
 1490              	.LVL139:
 1491              	.LBB1289:
 1492              	.LBB1290:
 1493              	.LBB1291:
 1494              	.LBB1292:
 1495              	.LBB1293:
 1496              		.loc 2 546 0
 1497              		.syntax unified
 1498              	@ 546 "/home/selim/working/ChibiOS/os/ext/CMSIS/include/core_cmFunc.h" 1
 1499 0126 88F31188 		MSR basepri, r8
 1500              	@ 0 "" 2
 1501              	.LVL140:
 1502              		.thumb
 1503              		.syntax unified
 1504 012a B4E7     		b	.L47
 1505              	.L59:
 1506              	.LVL141:
 1507              	.LBE1293:
 1508              	.LBE1292:
 1509              	.LBE1291:
 1510              	.LBE1290:
 1511              	.LBE1289:
 1512              	.LBB1294:
 1513              	.LBB1295:
 1514              	.LBB1296:
 1515              	.LBB1297:
 1516              	.LBB1298:
 1517              		.syntax unified
 1518              	@ 546 "/home/selim/working/ChibiOS/os/ext/CMSIS/include/core_cmFunc.h" 1
 1519 012c 80F31188 		MSR basepri, r0
 1520              	@ 0 "" 2
 1521              	.LVL142:
 1522              		.thumb
 1523              		.syntax unified
 1524              	.LBE1298:
 1525              	.LBE1297:
 1526              	.LBE1296:
 1527              	.LBE1295:
 1528              	.LBE1294:
 1529              	.LBB1299:
 1530              	.LBB1300:
 1531              	.LBB1301:
 1532              	.LBB1302:
 1533              		.loc 4 176 0
 1534 0130 3F4B     		ldr	r3, .L72+12
 1535              	.LBE1302:
 1536              	.LBE1301:
 1537              	.LBE1300:
 1538              	.LBE1299:
 1539              		.loc 1 204 0
ARM GAS  /tmp/cc7KTv09.s 			page 28


 1540 0132 3868     		ldr	r0, [r7]
 1541              	.LBB1304:
 1542              	.LBB1303:
 1543              		.loc 4 189 0
 1544 0134 9A69     		ldr	r2, [r3, #24]
 1545              	.LBE1303:
 1546              	.LBE1304:
 1547              		.loc 1 204 0
 1548 0136 3F4B     		ldr	r3, .L72+16
 1549 0138 9268     		ldr	r2, [r2, #8]
 1550 013a CDF80090 		str	r9, [sp]
 1551 013e 0132     		adds	r2, r2, #1
 1552 0140 4FF4A471 		mov	r1, #328
 1553 0144 FFF7FEFF 		bl	chThdCreateStatic
 1554              	.LVL143:
 1555 0148 3B4B     		ldr	r3, .L72+20
 1556 014a 1860     		str	r0, [r3]
 1557              	.LVL144:
 1558              	.LBB1305:
 1559              	.LBB1306:
 1560              	.LBB1307:
 1561              	.LBB1308:
 1562              		.loc 2 546 0
 1563              		.syntax unified
 1564              	@ 546 "/home/selim/working/ChibiOS/os/ext/CMSIS/include/core_cmFunc.h" 1
 1565 014c 86F31188 		MSR basepri, r6
 1566              	@ 0 "" 2
 1567              	.LVL145:
 1568              		.thumb
 1569              		.syntax unified
 1570              	.LBE1308:
 1571              	.LBE1307:
 1572              	.LBE1306:
 1573              	.LBE1305:
 1574              		.loc 1 205 0
 1575 0150 E968     		ldr	r1, [r5, #12]
 1576 0152 2B69     		ldr	r3, [r5, #16]
 1577 0154 AA68     		ldr	r2, [r5, #8]
 1578 0156 5B1A     		subs	r3, r3, r1
 1579 0158 991A     		subs	r1, r3, r2
 1580 015a A1F10401 		sub	r1, #4
 1581 015e B1FA81F1 		clz	r1, r1
 1582 0162 4909     		lsrs	r1, r1, #5
 1583 0164 0820     		movs	r0, #8
 1584 0166 FFF7FEFF 		bl	_test_assert
 1585              	.LVL146:
 1586 016a 0746     		mov	r7, r0
 1587 016c 10B1     		cbz	r0, .L60
 1588              	.LVL147:
 1589              	.LBB1309:
 1590              	.LBB1310:
 1591              	.LBB1311:
 1592              	.LBB1312:
 1593              	.LBB1313:
 1594              		.loc 2 546 0
 1595              		.syntax unified
 1596              	@ 546 "/home/selim/working/ChibiOS/os/ext/CMSIS/include/core_cmFunc.h" 1
ARM GAS  /tmp/cc7KTv09.s 			page 29


 1597 016e 89F31188 		MSR basepri, r9
 1598              	@ 0 "" 2
 1599              	.LVL148:
 1600              		.thumb
 1601              		.syntax unified
 1602 0172 90E7     		b	.L47
 1603              	.L60:
 1604              	.LVL149:
 1605              	.LBE1313:
 1606              	.LBE1312:
 1607              	.LBE1311:
 1608              	.LBE1310:
 1609              	.LBE1309:
 1610              	.LBB1314:
 1611              	.LBB1315:
 1612              	.LBB1316:
 1613              	.LBB1317:
 1614              	.LBB1318:
 1615              		.syntax unified
 1616              	@ 546 "/home/selim/working/ChibiOS/os/ext/CMSIS/include/core_cmFunc.h" 1
 1617 0174 80F31188 		MSR basepri, r0
 1618              	@ 0 "" 2
 1619              	.LVL150:
 1620              		.thumb
 1621              		.syntax unified
 1622              	.LBE1318:
 1623              	.LBE1317:
 1624              	.LBE1316:
 1625              	.LBE1315:
 1626              	.LBE1314:
 1627              		.loc 1 206 0
 1628 0178 FFF7FEFF 		bl	test_wait_threads
 1629              	.LVL151:
 1630              	.LBB1319:
 1631              	.LBB1320:
 1632              	.LBB1321:
 1633              	.LBB1322:
 1634              		.loc 2 546 0
 1635              		.syntax unified
 1636              	@ 546 "/home/selim/working/ChibiOS/os/ext/CMSIS/include/core_cmFunc.h" 1
 1637 017c 86F31188 		MSR basepri, r6
 1638              	@ 0 "" 2
 1639              	.LVL152:
 1640              		.thumb
 1641              		.syntax unified
 1642              	.LBE1322:
 1643              	.LBE1321:
 1644              	.LBE1320:
 1645              	.LBE1319:
 1646              		.loc 1 210 0
 1647 0180 2846     		mov	r0, r5
 1648 0182 FFF7FEFF 		bl	chOQResetI
 1649              	.LVL153:
 1650              	.LBB1323:
 1651              	.LBB1324:
 1652              	.LBB1325:
 1653              	.LBB1326:
ARM GAS  /tmp/cc7KTv09.s 			page 30


 1654              	.LBB1327:
 1655              		.loc 2 546 0
 1656              		.syntax unified
 1657              	@ 546 "/home/selim/working/ChibiOS/os/ext/CMSIS/include/core_cmFunc.h" 1
 1658 0186 87F31188 		MSR basepri, r7
 1659              	@ 0 "" 2
 1660              	.LVL154:
 1661              		.thumb
 1662              		.syntax unified
 1663              	.LBE1327:
 1664              	.LBE1326:
 1665              	.LBE1325:
 1666              	.LBE1324:
 1667              	.LBE1323:
 1668              	.LBB1328:
 1669              	.LBB1329:
 1670              	.LBB1330:
 1671              	.LBB1331:
 1672              		.syntax unified
 1673              	@ 546 "/home/selim/working/ChibiOS/os/ext/CMSIS/include/core_cmFunc.h" 1
 1674 018a 86F31188 		MSR basepri, r6
 1675              	@ 0 "" 2
 1676              	.LVL155:
 1677              		.thumb
 1678              		.syntax unified
 1679              	.LBE1331:
 1680              	.LBE1330:
 1681              	.LBE1329:
 1682              	.LBE1328:
 1683              		.loc 1 212 0
 1684 018e 05F10801 		add	r1, r5, #8
 1685 0192 0EC9     		ldmia	r1, {r1, r2, r3}
 1686 0194 9B1A     		subs	r3, r3, r2
 1687 0196 591A     		subs	r1, r3, r1
 1688 0198 B1FA81F1 		clz	r1, r1
 1689 019c 4909     		lsrs	r1, r1, #5
 1690 019e 0920     		movs	r0, #9
 1691 01a0 FFF7FEFF 		bl	_test_assert
 1692              	.LVL156:
 1693 01a4 0346     		mov	r3, r0
 1694 01a6 10B1     		cbz	r0, .L61
 1695              	.LVL157:
 1696              	.LBB1332:
 1697              	.LBB1333:
 1698              	.LBB1334:
 1699              	.LBB1335:
 1700              	.LBB1336:
 1701              		.loc 2 546 0
 1702              		.syntax unified
 1703              	@ 546 "/home/selim/working/ChibiOS/os/ext/CMSIS/include/core_cmFunc.h" 1
 1704 01a8 87F31188 		MSR basepri, r7
 1705              	@ 0 "" 2
 1706              	.LVL158:
 1707              		.thumb
 1708              		.syntax unified
 1709 01ac 73E7     		b	.L47
 1710              	.L61:
ARM GAS  /tmp/cc7KTv09.s 			page 31


 1711              	.LVL159:
 1712              	.LBE1336:
 1713              	.LBE1335:
 1714              	.LBE1334:
 1715              	.LBE1333:
 1716              	.LBE1332:
 1717              	.LBB1337:
 1718              	.LBB1338:
 1719              	.LBB1339:
 1720              	.LBB1340:
 1721              	.LBB1341:
 1722              		.syntax unified
 1723              	@ 546 "/home/selim/working/ChibiOS/os/ext/CMSIS/include/core_cmFunc.h" 1
 1724 01ae 80F31188 		MSR basepri, r0
 1725              	@ 0 "" 2
 1726              	.LVL160:
 1727              		.thumb
 1728              		.syntax unified
 1729              	.LBE1341:
 1730              	.LBE1340:
 1731              	.LBE1339:
 1732              	.LBE1338:
 1733              	.LBE1337:
 1734              		.loc 1 215 0
 1735 01b2 0222     		movs	r2, #2
 1736 01b4 2146     		mov	r1, r4
 1737 01b6 2846     		mov	r0, r5
 1738 01b8 FFF7FEFF 		bl	chOQWriteTimeout
 1739              	.LVL161:
 1740              		.loc 1 216 0
 1741 01bc 0238     		subs	r0, r0, #2
 1742              	.LVL162:
 1743 01be 4142     		rsbs	r1, r0, #0
 1744 01c0 4141     		adcs	r1, r1, r0
 1745 01c2 0A20     		movs	r0, #10
 1746              	.LVL163:
 1747 01c4 FFF7FEFF 		bl	_test_assert
 1748              	.LVL164:
 1749 01c8 0346     		mov	r3, r0
 1750 01ca 0028     		cmp	r0, #0
 1751 01cc 7FF463AF 		bne	.L47
 1752              		.loc 1 217 0
 1753 01d0 2146     		mov	r1, r4
 1754 01d2 0222     		movs	r2, #2
 1755 01d4 2846     		mov	r0, r5
 1756 01d6 FFF7FEFF 		bl	chOQWriteTimeout
 1757              	.LVL165:
 1758              		.loc 1 218 0
 1759 01da 821E     		subs	r2, r0, #2
 1760 01dc 5142     		rsbs	r1, r2, #0
 1761 01de 5141     		adcs	r1, r1, r2
 1762 01e0 0B20     		movs	r0, #11
 1763              	.LVL166:
 1764 01e2 FFF7FEFF 		bl	_test_assert
 1765              	.LVL167:
 1766 01e6 0028     		cmp	r0, #0
 1767 01e8 7FF455AF 		bne	.L47
ARM GAS  /tmp/cc7KTv09.s 			page 32


 1768              	.LVL168:
 1769              	.LBB1342:
 1770              	.LBB1343:
 1771              	.LBB1344:
 1772              	.LBB1345:
 1773              		.loc 2 546 0
 1774              		.syntax unified
 1775              	@ 546 "/home/selim/working/ChibiOS/os/ext/CMSIS/include/core_cmFunc.h" 1
 1776 01ec 86F31188 		MSR basepri, r6
 1777              	@ 0 "" 2
 1778              	.LVL169:
 1779              		.thumb
 1780              		.syntax unified
 1781              	.LBE1345:
 1782              	.LBE1344:
 1783              	.LBE1343:
 1784              	.LBE1342:
 1785              		.loc 1 219 0
 1786 01f0 A968     		ldr	r1, [r5, #8]
 1787 01f2 B1FA81F1 		clz	r1, r1
 1788 01f6 4909     		lsrs	r1, r1, #5
 1789 01f8 0C20     		movs	r0, #12
 1790 01fa FFF7FEFF 		bl	_test_assert
 1791              	.LVL170:
 1792 01fe 0028     		cmp	r0, #0
 1793 0200 7FF446AF 		bne	.L68
 1794              	.LVL171:
 1795              	.LBB1346:
 1796              	.LBB1347:
 1797              	.LBB1348:
 1798              	.LBB1349:
 1799              	.LBB1350:
 1800              		.loc 2 546 0
 1801 0204 0021     		movs	r1, #0
 1802              		.syntax unified
 1803              	@ 546 "/home/selim/working/ChibiOS/os/ext/CMSIS/include/core_cmFunc.h" 1
 1804 0206 81F31188 		MSR basepri, r1
 1805              	@ 0 "" 2
 1806              	.LVL172:
 1807              		.thumb
 1808              		.syntax unified
 1809              	.LBE1350:
 1810              	.LBE1349:
 1811              	.LBE1348:
 1812              	.LBE1347:
 1813              	.LBE1346:
 1814              		.loc 1 222 0
 1815 020a 0A22     		movs	r2, #10
 1816 020c 0548     		ldr	r0, .L72
 1817 020e FFF7FEFF 		bl	chOQPutTimeout
 1818              	.LVL173:
 1819 0212 431C     		adds	r3, r0, #1
 1820 0214 5942     		rsbs	r1, r3, #0
 1821 0216 5941     		adcs	r1, r1, r3
 1822 0218 0D20     		movs	r0, #13
 1823              	.LBE1352:
 1824              	.LBE1356:
ARM GAS  /tmp/cc7KTv09.s 			page 33


 1825              		.loc 1 223 0
 1826 021a 03B0     		add	sp, sp, #12
 1827              		.cfi_def_cfa_offset 28
 1828              		@ sp needed
 1829 021c BDE8F043 		pop	{r4, r5, r6, r7, r8, r9, lr}
 1830              		.cfi_restore 14
 1831              		.cfi_restore 9
 1832              		.cfi_restore 8
 1833              		.cfi_restore 7
 1834              		.cfi_restore 6
 1835              		.cfi_restore 5
 1836              		.cfi_restore 4
 1837              		.cfi_def_cfa_offset 0
 1838              	.LBB1357:
 1839              	.LBB1353:
 1840              		.loc 1 222 0
 1841 0220 FFF7FEBF 		b	_test_assert
 1842              	.LVL174:
 1843              	.L73:
 1844              		.align	2
 1845              	.L72:
 1846 0224 00000000 		.word	.LANCHOR1
 1847 0228 00000000 		.word	.LC0
 1848 022c 00000000 		.word	wa
 1849 0230 00000000 		.word	ch
 1850 0234 00000000 		.word	thread2
 1851 0238 00000000 		.word	threads
 1852              	.LBE1353:
 1853              	.LBE1357:
 1854              		.cfi_endproc
 1855              	.LFE233:
 1856              		.size	queues2_execute, .-queues2_execute
 1857              		.global	patternqueues
 1858              		.global	testqueues2
 1859              		.global	testqueues1
 1860              		.section	.rodata.patternqueues,"a",%progbits
 1861              		.align	2
 1862              		.type	patternqueues, %object
 1863              		.size	patternqueues, 12
 1864              	patternqueues:
 1865 0000 00000000 		.word	testqueues1
 1866 0004 00000000 		.word	testqueues2
 1867 0008 00000000 		.word	0
 1868              		.section	.rodata.testqueues2,"a",%progbits
 1869              		.align	2
 1870              		.type	testqueues2, %object
 1871              		.size	testqueues2, 16
 1872              	testqueues2:
 1873 0000 08000000 		.word	.LC1
 1874 0004 00000000 		.word	queues2_setup
 1875 0008 00000000 		.word	0
 1876 000c 00000000 		.word	queues2_execute
 1877              		.section	.rodata.str1.4,"aMS",%progbits,1
 1878              		.align	2
 1879              	.LC0:
 1880 0000 41424344 		.ascii	"ABCD\000"
 1880      00
ARM GAS  /tmp/cc7KTv09.s 			page 34


 1881 0005 000000   		.space	3
 1882              	.LC1:
 1883 0008 51756575 		.ascii	"Queues, output queues\000"
 1883      65732C20 
 1883      6F757470 
 1883      75742071 
 1883      75657565 
 1884 001e 0000     		.space	2
 1885              	.LC2:
 1886 0020 51756575 		.ascii	"Queues, input queues\000"
 1886      65732C20 
 1886      696E7075 
 1886      74207175 
 1886      65756573 
 1887              		.section	.rodata.testqueues1,"a",%progbits
 1888              		.align	2
 1889              		.type	testqueues1, %object
 1890              		.size	testqueues1, 16
 1891              	testqueues1:
 1892 0000 20000000 		.word	.LC2
 1893 0004 00000000 		.word	queues1_setup
 1894 0008 00000000 		.word	0
 1895 000c 00000000 		.word	queues1_execute
 1896              		.section	.data.oq,"aw",%progbits
 1897              		.align	2
 1898              		.set	.LANCHOR1,. + 0
 1899              		.type	oq, %object
 1900              		.size	oq, 36
 1901              	oq:
 1902 0000 00000000 		.word	oq
 1903 0004 00000000 		.word	oq
 1904 0008 04000000 		.word	4
 1905 000c 48010000 		.word	test+328
 1906 0010 4C010000 		.word	test+332
 1907 0014 48010000 		.word	test+328
 1908 0018 48010000 		.word	test+328
 1909 001c 00000000 		.word	notify
 1910 0020 00000000 		.word	0
 1911              		.section	.data.iq,"aw",%progbits
 1912              		.align	2
 1913              		.set	.LANCHOR0,. + 0
 1914              		.type	iq, %object
 1915              		.size	iq, 36
 1916              	iq:
 1917 0000 00000000 		.word	iq
 1918 0004 00000000 		.word	iq
 1919 0008 00000000 		.word	0
 1920 000c 00000000 		.word	test
 1921 0010 04000000 		.word	test+4
 1922 0014 00000000 		.word	test
 1923 0018 00000000 		.word	test
 1924 001c 00000000 		.word	notify
 1925 0020 00000000 		.word	0
 1926              		.text
 1927              	.Letext0:
 1928              		.file 5 "/usr/lib/gcc/arm-none-eabi/5.3.1/include/stddef.h"
 1929              		.file 6 "/usr/arm-none-eabi/include/machine/_default_types.h"
ARM GAS  /tmp/cc7KTv09.s 			page 35


 1930              		.file 7 "/usr/arm-none-eabi/include/sys/_stdint.h"
 1931              		.file 8 "/home/selim/working/ChibiOS/os/rt/ports/ARMCMx/compilers/GCC/chtypes.h"
 1932              		.file 9 "/home/selim/working/ChibiOS/os/rt/include/chsystypes.h"
 1933              		.file 10 "/home/selim/working/ChibiOS/os/rt/include/chschd.h"
 1934              		.file 11 "/home/selim/working/ChibiOS/os/rt/ports/ARMCMx/chcore.h"
 1935              		.file 12 "/home/selim/working/ChibiOS/os/rt/ports/ARMCMx/chcore_v7m.h"
 1936              		.file 13 "/home/selim/working/ChibiOS/os/rt/include/chtm.h"
 1937              		.file 14 "/home/selim/working/ChibiOS/os/rt/include/chsem.h"
 1938              		.file 15 "/home/selim/working/ChibiOS/os/rt/include/chmtx.h"
 1939              		.file 16 "/home/selim/working/ChibiOS/test/rt/test.h"
 1940              		.file 17 "/home/selim/working/ChibiOS/os/rt/include/chsys.h"
 1941              		.file 18 "/home/selim/working/ChibiOS/os/ext/CMSIS/include/core_cm4.h"