ARM GAS  /tmp/ccBqT5WX.s 			page 1


   1              		.syntax unified
   2              		.cpu cortex-m4
   3              		.fpu softvfp
   4              		.eabi_attribute 20, 1
   5              		.eabi_attribute 21, 1
   6              		.eabi_attribute 23, 3
   7              		.eabi_attribute 24, 1
   8              		.eabi_attribute 25, 1
   9              		.eabi_attribute 26, 1
  10              		.eabi_attribute 30, 2
  11              		.eabi_attribute 34, 1
  12              		.eabi_attribute 18, 4
  13              		.thumb
  14              		.syntax unified
  15              		.file	"chmtx.c"
  16              		.text
  17              	.Ltext0:
  18              		.cfi_sections	.debug_frame
  19              		.section	.text.chMtxObjectInit,"ax",%progbits
  20              		.align	2
  21              		.p2align 4,,15
  22              		.global	chMtxObjectInit
  23              		.thumb
  24              		.thumb_func
  25              		.type	chMtxObjectInit, %function
  26              	chMtxObjectInit:
  27              	.LFB227:
  28              		.file 1 "/home/selim/working/ChibiOS/os/rt/src/chmtx.c"
  29              		.loc 1 103 0
  30              		.cfi_startproc
  31              		@ args = 0, pretend = 0, frame = 0
  32              		@ frame_needed = 0, uses_anonymous_args = 0
  33              		@ link register save eliminated.
  34              	.LVL0:
  35              		.loc 1 108 0
  36 0000 0023     		movs	r3, #0
  37              	.LBB103:
  38              	.LBB104:
  39              		.file 2 "/home/selim/working/ChibiOS/os/rt/include/chschd.h"
  40              		.loc 2 604 0
  41 0002 0060     		str	r0, [r0]
  42              		.loc 2 605 0
  43 0004 4060     		str	r0, [r0, #4]
  44              	.LVL1:
  45              	.LBE104:
  46              	.LBE103:
  47              		.loc 1 108 0
  48 0006 8360     		str	r3, [r0, #8]
  49 0008 7047     		bx	lr
  50              		.cfi_endproc
  51              	.LFE227:
  52              		.size	chMtxObjectInit, .-chMtxObjectInit
  53 000a 00BF     		.section	.text.chMtxLockS,"ax",%progbits
  54              		.align	2
  55              		.p2align 4,,15
  56              		.global	chMtxLockS
  57              		.thumb
ARM GAS  /tmp/ccBqT5WX.s 			page 2


  58              		.thumb_func
  59              		.type	chMtxLockS, %function
  60              	chMtxLockS:
  61              	.LFB229:
  62              		.loc 1 139 0
  63              		.cfi_startproc
  64              		@ args = 0, pretend = 0, frame = 0
  65              		@ frame_needed = 0, uses_anonymous_args = 0
  66              	.LVL2:
  67              		.loc 1 140 0
  68 0000 304B     		ldr	r3, .L28
  69              		.loc 1 146 0
  70 0002 8268     		ldr	r2, [r0, #8]
  71              		.loc 1 139 0
  72 0004 70B5     		push	{r4, r5, r6, lr}
  73              		.cfi_def_cfa_offset 16
  74              		.cfi_offset 4, -16
  75              		.cfi_offset 5, -12
  76              		.cfi_offset 6, -8
  77              		.cfi_offset 14, -4
  78              		.loc 1 140 0
  79 0006 9C69     		ldr	r4, [r3, #24]
  80              	.LVL3:
  81              		.loc 1 146 0
  82 0008 002A     		cmp	r2, #0
  83 000a 55D0     		beq	.L3
  84              	.LBB105:
  85              		.loc 1 165 0
  86 000c A168     		ldr	r1, [r4, #8]
  87 000e 9368     		ldr	r3, [r2, #8]
  88 0010 8B42     		cmp	r3, r1
  89 0012 0546     		mov	r5, r0
  90              	.LVL4:
  91 0014 06D2     		bcs	.L5
  92              	.LVL5:
  93              	.L10:
  94              		.loc 1 170 0
  95 0016 137F     		ldrb	r3, [r2, #28]	@ zero_extendqisi2
  96              		.loc 1 167 0
  97 0018 9160     		str	r1, [r2, #8]
  98              		.loc 1 170 0
  99 001a 062B     		cmp	r3, #6
 100 001c 33D0     		beq	.L6
 101 001e 072B     		cmp	r3, #7
 102 0020 1DD0     		beq	.L7
 103 0022 9BB1     		cbz	r3, .L27
 104              	.LVL6:
 105              	.L5:
 106              	.LBB106:
 107              	.LBB107:
 108              		.loc 2 653 0
 109 0024 2B46     		mov	r3, r5
 110 0026 03E0     		b	.L18
 111              	.LVL7:
 112              	.L17:
 113              		.loc 2 656 0
 114 0028 9968     		ldr	r1, [r3, #8]
ARM GAS  /tmp/ccBqT5WX.s 			page 3


 115 002a A268     		ldr	r2, [r4, #8]
 116 002c 9142     		cmp	r1, r2
 117 002e 02D3     		bcc	.L19
 118              	.L18:
 119              		.loc 2 655 0
 120 0030 1B68     		ldr	r3, [r3]
 121              	.LVL8:
 122              		.loc 2 656 0
 123 0032 9D42     		cmp	r5, r3
 124 0034 F8D1     		bne	.L17
 125              	.L19:
 126              		.loc 2 658 0
 127 0036 5A68     		ldr	r2, [r3, #4]
 128 0038 6260     		str	r2, [r4, #4]
 129              		.loc 2 657 0
 130 003a 2360     		str	r3, [r4]
 131              		.loc 2 659 0
 132 003c 1460     		str	r4, [r2]
 133              		.loc 2 660 0
 134 003e 5C60     		str	r4, [r3, #4]
 135              	.LVL9:
 136              	.LBE107:
 137              	.LBE106:
 138              		.loc 1 213 0
 139 0040 2562     		str	r5, [r4, #32]
 140              		.loc 1 214 0
 141 0042 0620     		movs	r0, #6
 142              	.LBE105:
 143              		.loc 1 236 0
 144 0044 BDE87040 		pop	{r4, r5, r6, lr}
 145              		.cfi_remember_state
 146              		.cfi_restore 14
 147              		.cfi_restore 6
 148              		.cfi_restore 5
 149              		.cfi_restore 4
 150              		.cfi_def_cfa_offset 0
 151              	.LVL10:
 152              	.LBB120:
 153              		.loc 1 214 0
 154 0048 FFF7FEBF 		b	chSchGoSleepS
 155              	.LVL11:
 156              	.L27:
 157              		.cfi_restore_state
 158              	.LBB108:
 159              	.LBB109:
 160              		.loc 2 691 0
 161 004c 92E80A00 		ldmia	r2, {r1, r3}
 162 0050 1960     		str	r1, [r3]
 163              		.loc 2 692 0
 164 0052 1168     		ldr	r1, [r2]
 165              	.LBE109:
 166              	.LBE108:
 167              		.loc 1 202 0
 168 0054 1046     		mov	r0, r2
 169              	.LBB111:
 170              	.LBB110:
 171              		.loc 2 692 0
ARM GAS  /tmp/ccBqT5WX.s 			page 4


 172 0056 4B60     		str	r3, [r1, #4]
 173              	.LVL12:
 174              	.LBE110:
 175              	.LBE111:
 176              		.loc 1 202 0
 177 0058 FFF7FEFF 		bl	chSchReadyI
 178              	.LVL13:
 179              		.loc 1 203 0
 180 005c E2E7     		b	.L5
 181              	.LVL14:
 182              	.L7:
 183              	.LBB112:
 184              	.LBB113:
 185              		.loc 2 691 0
 186 005e 92E80900 		ldmia	r2, {r0, r3}
 187 0062 1860     		str	r0, [r3]
 188              		.loc 2 692 0
 189 0064 1068     		ldr	r0, [r2]
 190 0066 4360     		str	r3, [r0, #4]
 191              	.LVL15:
 192              	.LBE113:
 193              	.LBE112:
 194              		.loc 1 193 0
 195 0068 166A     		ldr	r6, [r2, #32]
 196              	.LVL16:
 197              	.LBB114:
 198              	.LBB115:
 199              		.loc 2 653 0
 200 006a 3346     		mov	r3, r6
 201 006c 02E0     		b	.L15
 202              	.LVL17:
 203              	.L14:
 204              		.loc 2 656 0
 205 006e 9868     		ldr	r0, [r3, #8]
 206 0070 8842     		cmp	r0, r1
 207 0072 02D3     		bcc	.L16
 208              	.LVL18:
 209              	.L15:
 210              		.loc 2 655 0
 211 0074 1B68     		ldr	r3, [r3]
 212              	.LVL19:
 213              		.loc 2 656 0
 214 0076 9E42     		cmp	r6, r3
 215 0078 F9D1     		bne	.L14
 216              	.L16:
 217              		.loc 2 658 0
 218 007a 5968     		ldr	r1, [r3, #4]
 219 007c 5160     		str	r1, [r2, #4]
 220              		.loc 2 657 0
 221 007e 1360     		str	r3, [r2]
 222              		.loc 2 659 0
 223 0080 0A60     		str	r2, [r1]
 224              		.loc 2 660 0
 225 0082 5A60     		str	r2, [r3, #4]
 226 0084 CEE7     		b	.L5
 227              	.LVL20:
 228              	.L6:
ARM GAS  /tmp/ccBqT5WX.s 			page 5


 229              	.LBE115:
 230              	.LBE114:
 231              	.LBB116:
 232              	.LBB117:
 233              		.loc 2 691 0
 234 0086 92E80900 		ldmia	r2, {r0, r3}
 235 008a 1860     		str	r0, [r3]
 236              		.loc 2 692 0
 237 008c 1068     		ldr	r0, [r2]
 238 008e 4360     		str	r3, [r0, #4]
 239              	.LVL21:
 240              	.LBE117:
 241              	.LBE116:
 242              		.loc 1 173 0
 243 0090 166A     		ldr	r6, [r2, #32]
 244              	.LVL22:
 245              	.LBB118:
 246              	.LBB119:
 247              		.loc 2 653 0
 248 0092 3346     		mov	r3, r6
 249 0094 02E0     		b	.L12
 250              	.LVL23:
 251              	.L9:
 252              		.loc 2 656 0
 253 0096 9868     		ldr	r0, [r3, #8]
 254 0098 8842     		cmp	r0, r1
 255 009a 02D3     		bcc	.L13
 256              	.LVL24:
 257              	.L12:
 258              		.loc 2 655 0
 259 009c 1B68     		ldr	r3, [r3]
 260              	.LVL25:
 261              		.loc 2 656 0
 262 009e 9E42     		cmp	r6, r3
 263 00a0 F9D1     		bne	.L9
 264              	.L13:
 265              		.loc 2 658 0
 266 00a2 5968     		ldr	r1, [r3, #4]
 267 00a4 5160     		str	r1, [r2, #4]
 268              		.loc 2 657 0
 269 00a6 1360     		str	r3, [r2]
 270              		.loc 2 659 0
 271 00a8 0A60     		str	r2, [r1]
 272              		.loc 2 660 0
 273 00aa 5A60     		str	r2, [r3, #4]
 274              	.LVL26:
 275              	.LBE119:
 276              	.LBE118:
 277              		.loc 1 174 0
 278 00ac B268     		ldr	r2, [r6, #8]
 279              	.LVL27:
 280              		.loc 1 165 0
 281 00ae A168     		ldr	r1, [r4, #8]
 282 00b0 9368     		ldr	r3, [r2, #8]
 283              	.LVL28:
 284 00b2 8B42     		cmp	r3, r1
 285 00b4 AFD3     		bcc	.L10
ARM GAS  /tmp/ccBqT5WX.s 			page 6


 286 00b6 B5E7     		b	.L5
 287              	.LVL29:
 288              	.L3:
 289              	.LBE120:
 290              		.loc 1 233 0
 291 00b8 A36B     		ldr	r3, [r4, #56]
 292 00ba C360     		str	r3, [r0, #12]
 293              		.loc 1 232 0
 294 00bc 8460     		str	r4, [r0, #8]
 295              		.loc 1 234 0
 296 00be A063     		str	r0, [r4, #56]
 297 00c0 70BD     		pop	{r4, r5, r6, pc}
 298              	.LVL30:
 299              	.L29:
 300 00c2 00BF     		.align	2
 301              	.L28:
 302 00c4 00000000 		.word	ch
 303              		.cfi_endproc
 304              	.LFE229:
 305              		.size	chMtxLockS, .-chMtxLockS
 306              		.section	.text.chMtxLock,"ax",%progbits
 307              		.align	2
 308              		.p2align 4,,15
 309              		.global	chMtxLock
 310              		.thumb
 311              		.thumb_func
 312              		.type	chMtxLock, %function
 313              	chMtxLock:
 314              	.LFB228:
 315              		.loc 1 123 0
 316              		.cfi_startproc
 317              		@ args = 0, pretend = 0, frame = 0
 318              		@ frame_needed = 0, uses_anonymous_args = 0
 319              	.LVL31:
 320 0000 08B5     		push	{r3, lr}
 321              		.cfi_def_cfa_offset 8
 322              		.cfi_offset 3, -8
 323              		.cfi_offset 14, -4
 324              	.LBB121:
 325              	.LBB122:
 326              	.LBB123:
 327              	.LBB124:
 328              		.file 3 "/home/selim/working/ChibiOS/os/ext/CMSIS/include/core_cmFunc.h"
 329              		.loc 3 546 0
 330 0002 2023     		movs	r3, #32
 331              		.syntax unified
 332              	@ 546 "/home/selim/working/ChibiOS/os/ext/CMSIS/include/core_cmFunc.h" 1
 333 0004 83F31188 		MSR basepri, r3
 334              	@ 0 "" 2
 335              	.LVL32:
 336              		.thumb
 337              		.syntax unified
 338              	.LBE124:
 339              	.LBE123:
 340              	.LBE122:
 341              	.LBE121:
 342              		.loc 1 126 0
ARM GAS  /tmp/ccBqT5WX.s 			page 7


 343 0008 FFF7FEFF 		bl	chMtxLockS
 344              	.LVL33:
 345              	.LBB125:
 346              	.LBB126:
 347              	.LBB127:
 348              	.LBB128:
 349              	.LBB129:
 350              		.loc 3 546 0
 351 000c 0023     		movs	r3, #0
 352              		.syntax unified
 353              	@ 546 "/home/selim/working/ChibiOS/os/ext/CMSIS/include/core_cmFunc.h" 1
 354 000e 83F31188 		MSR basepri, r3
 355              	@ 0 "" 2
 356              	.LVL34:
 357              		.thumb
 358              		.syntax unified
 359 0012 08BD     		pop	{r3, pc}
 360              	.LBE129:
 361              	.LBE128:
 362              	.LBE127:
 363              	.LBE126:
 364              	.LBE125:
 365              		.cfi_endproc
 366              	.LFE228:
 367              		.size	chMtxLock, .-chMtxLock
 368              		.section	.text.chMtxTryLock,"ax",%progbits
 369              		.align	2
 370              		.p2align 4,,15
 371              		.global	chMtxTryLock
 372              		.thumb
 373              		.thumb_func
 374              		.type	chMtxTryLock, %function
 375              	chMtxTryLock:
 376              	.LFB230:
 377              		.loc 1 255 0
 378              		.cfi_startproc
 379              		@ args = 0, pretend = 0, frame = 0
 380              		@ frame_needed = 0, uses_anonymous_args = 0
 381              		@ link register save eliminated.
 382              	.LVL35:
 383              		.loc 1 255 0
 384 0000 0346     		mov	r3, r0
 385              	.LBB143:
 386              	.LBB144:
 387              	.LBB145:
 388              	.LBB146:
 389              		.loc 3 546 0
 390 0002 2022     		movs	r2, #32
 391              		.syntax unified
 392              	@ 546 "/home/selim/working/ChibiOS/os/ext/CMSIS/include/core_cmFunc.h" 1
 393 0004 82F31188 		MSR basepri, r2
 394              	@ 0 "" 2
 395              	.LVL36:
 396              		.thumb
 397              		.syntax unified
 398              	.LBE146:
 399              	.LBE145:
ARM GAS  /tmp/ccBqT5WX.s 			page 8


 400              	.LBE144:
 401              	.LBE143:
 402              	.LBB147:
 403              	.LBB148:
 404              		.loc 1 287 0
 405 0008 8268     		ldr	r2, [r0, #8]
 406              		.loc 1 297 0
 407 000a 0020     		movs	r0, #0
 408              	.LVL37:
 409              		.loc 1 287 0
 410 000c 1AB1     		cbz	r2, .L35
 411              	.LVL38:
 412              	.LBE148:
 413              	.LBE147:
 414              	.LBB152:
 415              	.LBB153:
 416              	.LBB154:
 417              	.LBB155:
 418              	.LBB156:
 419              		.loc 3 546 0
 420 000e 0023     		movs	r3, #0
 421              	.LVL39:
 422              		.syntax unified
 423              	@ 546 "/home/selim/working/ChibiOS/os/ext/CMSIS/include/core_cmFunc.h" 1
 424 0010 83F31188 		MSR basepri, r3
 425              	@ 0 "" 2
 426              	.LVL40:
 427              		.thumb
 428              		.syntax unified
 429              	.LBE156:
 430              	.LBE155:
 431              	.LBE154:
 432              	.LBE153:
 433              	.LBE152:
 434              		.loc 1 263 0
 435 0014 7047     		bx	lr
 436              	.LVL41:
 437              	.L35:
 438              	.LBB161:
 439              	.LBB151:
 440              	.LBB149:
 441              	.LBB150:
 442              		.loc 1 305 0
 443 0016 054A     		ldr	r2, .L36
 444 0018 9269     		ldr	r2, [r2, #24]
 445 001a 9A60     		str	r2, [r3, #8]
 446              		.loc 1 306 0
 447 001c 916B     		ldr	r1, [r2, #56]
 448 001e D960     		str	r1, [r3, #12]
 449              		.loc 1 307 0
 450 0020 0120     		movs	r0, #1
 451 0022 9363     		str	r3, [r2, #56]
 452              	.LVL42:
 453              	.LBE150:
 454              	.LBE149:
 455              	.LBE151:
 456              	.LBE161:
ARM GAS  /tmp/ccBqT5WX.s 			page 9


 457              	.LBB162:
 458              	.LBB160:
 459              	.LBB159:
 460              	.LBB158:
 461              	.LBB157:
 462              		.loc 3 546 0
 463 0024 0023     		movs	r3, #0
 464              	.LVL43:
 465              		.syntax unified
 466              	@ 546 "/home/selim/working/ChibiOS/os/ext/CMSIS/include/core_cmFunc.h" 1
 467 0026 83F31188 		MSR basepri, r3
 468              	@ 0 "" 2
 469              	.LVL44:
 470              		.thumb
 471              		.syntax unified
 472              	.LBE157:
 473              	.LBE158:
 474              	.LBE159:
 475              	.LBE160:
 476              	.LBE162:
 477              		.loc 1 263 0
 478 002a 7047     		bx	lr
 479              	.L37:
 480              		.align	2
 481              	.L36:
 482 002c 00000000 		.word	ch
 483              		.cfi_endproc
 484              	.LFE230:
 485              		.size	chMtxTryLock, .-chMtxTryLock
 486              		.section	.text.chMtxTryLockS,"ax",%progbits
 487              		.align	2
 488              		.p2align 4,,15
 489              		.global	chMtxTryLockS
 490              		.thumb
 491              		.thumb_func
 492              		.type	chMtxTryLockS, %function
 493              	chMtxTryLockS:
 494              	.LFB231:
 495              		.loc 1 282 0
 496              		.cfi_startproc
 497              		@ args = 0, pretend = 0, frame = 0
 498              		@ frame_needed = 0, uses_anonymous_args = 0
 499              		@ link register save eliminated.
 500              	.LVL45:
 501              		.loc 1 287 0
 502 0000 8268     		ldr	r2, [r0, #8]
 503              		.loc 1 282 0
 504 0002 0346     		mov	r3, r0
 505              		.loc 1 287 0
 506 0004 0AB1     		cbz	r2, .L41
 507              		.loc 1 297 0
 508 0006 0020     		movs	r0, #0
 509              	.LVL46:
 510              		.loc 1 309 0
 511 0008 7047     		bx	lr
 512              	.LVL47:
 513              	.L41:
ARM GAS  /tmp/ccBqT5WX.s 			page 10


 514              	.LBB165:
 515              	.LBB166:
 516              		.loc 1 305 0
 517 000a 044A     		ldr	r2, .L42
 518 000c 9269     		ldr	r2, [r2, #24]
 519 000e 8260     		str	r2, [r0, #8]
 520              		.loc 1 306 0
 521 0010 916B     		ldr	r1, [r2, #56]
 522 0012 C160     		str	r1, [r0, #12]
 523              		.loc 1 307 0
 524 0014 0120     		movs	r0, #1
 525              	.LVL48:
 526 0016 9363     		str	r3, [r2, #56]
 527              	.LVL49:
 528 0018 7047     		bx	lr
 529              	.L43:
 530 001a 00BF     		.align	2
 531              	.L42:
 532 001c 00000000 		.word	ch
 533              	.LBE166:
 534              	.LBE165:
 535              		.cfi_endproc
 536              	.LFE231:
 537              		.size	chMtxTryLockS, .-chMtxTryLockS
 538              		.section	.text.chMtxUnlock,"ax",%progbits
 539              		.align	2
 540              		.p2align 4,,15
 541              		.global	chMtxUnlock
 542              		.thumb
 543              		.thumb_func
 544              		.type	chMtxUnlock, %function
 545              	chMtxUnlock:
 546              	.LFB232:
 547              		.loc 1 323 0
 548              		.cfi_startproc
 549              		@ args = 0, pretend = 0, frame = 0
 550              		@ frame_needed = 0, uses_anonymous_args = 0
 551              	.LVL50:
 552              		.loc 1 324 0
 553 0000 164B     		ldr	r3, .L55
 554              		.loc 1 323 0
 555 0002 70B5     		push	{r4, r5, r6, lr}
 556              		.cfi_def_cfa_offset 16
 557              		.cfi_offset 4, -16
 558              		.cfi_offset 5, -12
 559              		.cfi_offset 6, -8
 560              		.cfi_offset 14, -4
 561              		.loc 1 324 0
 562 0004 9D69     		ldr	r5, [r3, #24]
 563              	.LVL51:
 564              	.LBB167:
 565              	.LBB168:
 566              	.LBB169:
 567              	.LBB170:
 568              		.loc 3 546 0
 569 0006 2023     		movs	r3, #32
 570              		.syntax unified
ARM GAS  /tmp/ccBqT5WX.s 			page 11


 571              	@ 546 "/home/selim/working/ChibiOS/os/ext/CMSIS/include/core_cmFunc.h" 1
 572 0008 83F31188 		MSR basepri, r3
 573              	@ 0 "" 2
 574              	.LVL52:
 575              		.thumb
 576              		.syntax unified
 577              	.LBE170:
 578              	.LBE169:
 579              	.LBE168:
 580              	.LBE167:
 581              	.LBB171:
 582              	.LBB172:
 583              	.LBB173:
 584              	.LBB174:
 585              		.loc 2 631 0
 586 000c 0468     		ldr	r4, [r0]
 587              	.LBE174:
 588              	.LBE173:
 589              	.LBE172:
 590              	.LBE171:
 591              		.loc 1 344 0
 592 000e C368     		ldr	r3, [r0, #12]
 593 0010 AB63     		str	r3, [r5, #56]
 594              		.loc 1 347 0
 595 0012 8442     		cmp	r4, r0
 596 0014 1CD0     		beq	.L45
 597              	.LBB175:
 598              		.loc 1 352 0
 599 0016 E96B     		ldr	r1, [r5, #60]
 600              	.LVL53:
 601              		.loc 1 354 0
 602 0018 4BB1     		cbz	r3, .L46
 603              	.L48:
 604              	.LVL54:
 605              	.LBB176:
 606              	.LBB177:
 607              	.LBB178:
 608              	.LBB179:
 609              		.loc 2 631 0
 610 001a 1A68     		ldr	r2, [r3]
 611              	.LVL55:
 612              	.LBE179:
 613              	.LBE178:
 614              	.LBE177:
 615              	.LBE176:
 616              		.loc 1 358 0
 617 001c 9342     		cmp	r3, r2
 618 001e 03D0     		beq	.L47
 619              		.loc 1 359 0 discriminator 1
 620 0020 9268     		ldr	r2, [r2, #8]
 621 0022 9142     		cmp	r1, r2
 622 0024 38BF     		it	cc
 623 0026 1146     		movcc	r1, r2
 624              	.LVL56:
 625              	.L47:
 626              		.loc 1 362 0
 627 0028 DB68     		ldr	r3, [r3, #12]
ARM GAS  /tmp/ccBqT5WX.s 			page 12


 628              	.LVL57:
 629              		.loc 1 354 0
 630 002a 002B     		cmp	r3, #0
 631 002c F5D1     		bne	.L48
 632              	.L46:
 633 002e 0346     		mov	r3, r0
 634              	.LVL58:
 635              	.LBB180:
 636              	.LBB181:
 637              		.loc 2 674 0
 638 0030 2268     		ldr	r2, [r4]
 639              	.LBE181:
 640              	.LBE180:
 641              		.loc 1 376 0
 642 0032 A66B     		ldr	r6, [r4, #56]
 643              		.loc 1 367 0
 644 0034 A960     		str	r1, [r5, #8]
 645              	.LVL59:
 646              		.loc 1 378 0
 647 0036 2046     		mov	r0, r4
 648              	.LVL60:
 649              	.LBB184:
 650              	.LBB182:
 651              		.loc 2 674 0
 652 0038 1A60     		str	r2, [r3]
 653              	.LBE182:
 654              	.LBE184:
 655              		.loc 1 378 0
 656 003a 0021     		movs	r1, #0
 657              	.LVL61:
 658              	.LBB185:
 659              	.LBB183:
 660              		.loc 2 675 0
 661 003c 5360     		str	r3, [r2, #4]
 662              	.LVL62:
 663              	.LBE183:
 664              	.LBE185:
 665              		.loc 1 375 0
 666 003e 9C60     		str	r4, [r3, #8]
 667              		.loc 1 376 0
 668 0040 DE60     		str	r6, [r3, #12]
 669              		.loc 1 377 0
 670 0042 A363     		str	r3, [r4, #56]
 671              		.loc 1 378 0
 672 0044 FFF7FEFF 		bl	chSchWakeupS
 673              	.LVL63:
 674              	.LBE175:
 675              	.LBB186:
 676              	.LBB187:
 677              	.LBB188:
 678              	.LBB189:
 679              	.LBB190:
 680              		.loc 3 546 0
 681 0048 0023     		movs	r3, #0
 682              		.syntax unified
 683              	@ 546 "/home/selim/working/ChibiOS/os/ext/CMSIS/include/core_cmFunc.h" 1
 684 004a 83F31188 		MSR basepri, r3
ARM GAS  /tmp/ccBqT5WX.s 			page 13


 685              	@ 0 "" 2
 686              	.LVL64:
 687              		.thumb
 688              		.syntax unified
 689 004e 70BD     		pop	{r4, r5, r6, pc}
 690              	.LVL65:
 691              	.L45:
 692              	.LBE190:
 693              	.LBE189:
 694              	.LBE188:
 695              	.LBE187:
 696              	.LBE186:
 697              		.loc 1 381 0
 698 0050 0023     		movs	r3, #0
 699 0052 A360     		str	r3, [r4, #8]
 700              	.LVL66:
 701              	.LBB195:
 702              	.LBB194:
 703              	.LBB193:
 704              	.LBB192:
 705              	.LBB191:
 706              		.loc 3 546 0
 707 0054 0023     		movs	r3, #0
 708              		.syntax unified
 709              	@ 546 "/home/selim/working/ChibiOS/os/ext/CMSIS/include/core_cmFunc.h" 1
 710 0056 83F31188 		MSR basepri, r3
 711              	@ 0 "" 2
 712              	.LVL67:
 713              		.thumb
 714              		.syntax unified
 715 005a 70BD     		pop	{r4, r5, r6, pc}
 716              	.LVL68:
 717              	.L56:
 718              		.align	2
 719              	.L55:
 720 005c 00000000 		.word	ch
 721              	.LBE191:
 722              	.LBE192:
 723              	.LBE193:
 724              	.LBE194:
 725              	.LBE195:
 726              		.cfi_endproc
 727              	.LFE232:
 728              		.size	chMtxUnlock, .-chMtxUnlock
 729              		.section	.text.chMtxUnlockS,"ax",%progbits
 730              		.align	2
 731              		.p2align 4,,15
 732              		.global	chMtxUnlockS
 733              		.thumb
 734              		.thumb_func
 735              		.type	chMtxUnlockS, %function
 736              	chMtxUnlockS:
 737              	.LFB233:
 738              		.loc 1 404 0
 739              		.cfi_startproc
 740              		@ args = 0, pretend = 0, frame = 0
 741              		@ frame_needed = 0, uses_anonymous_args = 0
ARM GAS  /tmp/ccBqT5WX.s 			page 14


 742              		@ link register save eliminated.
 743              	.LVL69:
 744              		.loc 1 405 0
 745 0000 124B     		ldr	r3, .L67
 746              		.loc 1 404 0
 747 0002 30B4     		push	{r4, r5}
 748              		.cfi_def_cfa_offset 8
 749              		.cfi_offset 4, -8
 750              		.cfi_offset 5, -4
 751              		.loc 1 404 0
 752 0004 0446     		mov	r4, r0
 753              	.LBB196:
 754              	.LBB197:
 755              	.LBB198:
 756              	.LBB199:
 757              		.loc 2 631 0
 758 0006 0568     		ldr	r5, [r0]
 759              	.LBE199:
 760              	.LBE198:
 761              	.LBE197:
 762              	.LBE196:
 763              		.loc 1 405 0
 764 0008 9869     		ldr	r0, [r3, #24]
 765              	.LVL70:
 766              		.loc 1 424 0
 767 000a E368     		ldr	r3, [r4, #12]
 768 000c 8363     		str	r3, [r0, #56]
 769              		.loc 1 427 0
 770 000e A542     		cmp	r5, r4
 771 0010 17D0     		beq	.L58
 772              	.LBB200:
 773              		.loc 1 432 0
 774 0012 C16B     		ldr	r1, [r0, #60]
 775              	.LVL71:
 776              		.loc 1 434 0
 777 0014 4BB1     		cbz	r3, .L59
 778              	.L61:
 779              	.LVL72:
 780              	.LBB201:
 781              	.LBB202:
 782              	.LBB203:
 783              	.LBB204:
 784              		.loc 2 631 0
 785 0016 1A68     		ldr	r2, [r3]
 786              	.LVL73:
 787              	.LBE204:
 788              	.LBE203:
 789              	.LBE202:
 790              	.LBE201:
 791              		.loc 1 438 0
 792 0018 9342     		cmp	r3, r2
 793 001a 03D0     		beq	.L60
 794              		.loc 1 439 0 discriminator 1
 795 001c 9268     		ldr	r2, [r2, #8]
 796 001e 9142     		cmp	r1, r2
 797 0020 38BF     		it	cc
 798 0022 1146     		movcc	r1, r2
ARM GAS  /tmp/ccBqT5WX.s 			page 15


 799              	.LVL74:
 800              	.L60:
 801              		.loc 1 442 0
 802 0024 DB68     		ldr	r3, [r3, #12]
 803              	.LVL75:
 804              		.loc 1 434 0
 805 0026 002B     		cmp	r3, #0
 806 0028 F5D1     		bne	.L61
 807              	.L59:
 808              	.LBB205:
 809              	.LBB206:
 810              		.loc 2 674 0
 811 002a 2B68     		ldr	r3, [r5]
 812              	.LVL76:
 813              	.LBE206:
 814              	.LBE205:
 815              		.loc 1 456 0
 816 002c AA6B     		ldr	r2, [r5, #56]
 817              		.loc 1 447 0
 818 002e 8160     		str	r1, [r0, #8]
 819              	.LVL77:
 820              	.LBB209:
 821              	.LBB207:
 822              		.loc 2 674 0
 823 0030 2360     		str	r3, [r4]
 824              	.LBE207:
 825              	.LBE209:
 826              		.loc 1 458 0
 827 0032 2846     		mov	r0, r5
 828              	.LVL78:
 829              	.LBB210:
 830              	.LBB208:
 831              		.loc 2 675 0
 832 0034 5C60     		str	r4, [r3, #4]
 833              	.LVL79:
 834              	.LBE208:
 835              	.LBE210:
 836              		.loc 1 455 0
 837 0036 A560     		str	r5, [r4, #8]
 838              		.loc 1 456 0
 839 0038 E260     		str	r2, [r4, #12]
 840              		.loc 1 457 0
 841 003a AC63     		str	r4, [r5, #56]
 842              	.LBE200:
 843              		.loc 1 466 0
 844 003c 30BC     		pop	{r4, r5}
 845              		.cfi_remember_state
 846              		.cfi_restore 5
 847              		.cfi_restore 4
 848              		.cfi_def_cfa_offset 0
 849              	.LVL80:
 850              	.LBB211:
 851              		.loc 1 458 0
 852 003e FFF7FEBF 		b	chSchReadyI
 853              	.LVL81:
 854              	.L58:
 855              		.cfi_restore_state
ARM GAS  /tmp/ccBqT5WX.s 			page 16


 856              	.LBE211:
 857              		.loc 1 461 0
 858 0042 0023     		movs	r3, #0
 859 0044 AB60     		str	r3, [r5, #8]
 860              		.loc 1 466 0
 861 0046 30BC     		pop	{r4, r5}
 862              		.cfi_restore 5
 863              		.cfi_restore 4
 864              		.cfi_def_cfa_offset 0
 865              	.LVL82:
 866 0048 7047     		bx	lr
 867              	.L68:
 868 004a 00BF     		.align	2
 869              	.L67:
 870 004c 00000000 		.word	ch
 871              		.cfi_endproc
 872              	.LFE233:
 873              		.size	chMtxUnlockS, .-chMtxUnlockS
 874              		.section	.text.chMtxUnlockAll,"ax",%progbits
 875              		.align	2
 876              		.p2align 4,,15
 877              		.global	chMtxUnlockAll
 878              		.thumb
 879              		.thumb_func
 880              		.type	chMtxUnlockAll, %function
 881              	chMtxUnlockAll:
 882              	.LFB234:
 883              		.loc 1 479 0
 884              		.cfi_startproc
 885              		@ args = 0, pretend = 0, frame = 0
 886              		@ frame_needed = 0, uses_anonymous_args = 0
 887              		.loc 1 480 0
 888 0000 134A     		ldr	r2, .L81
 889              		.loc 1 479 0
 890 0002 70B5     		push	{r4, r5, r6, lr}
 891              		.cfi_def_cfa_offset 16
 892              		.cfi_offset 4, -16
 893              		.cfi_offset 5, -12
 894              		.cfi_offset 6, -8
 895              		.cfi_offset 14, -4
 896              	.LBB212:
 897              	.LBB213:
 898              	.LBB214:
 899              	.LBB215:
 900              		.loc 3 546 0
 901 0004 2023     		movs	r3, #32
 902              	.LBE215:
 903              	.LBE214:
 904              	.LBE213:
 905              	.LBE212:
 906              		.loc 1 480 0
 907 0006 9469     		ldr	r4, [r2, #24]
 908              	.LVL83:
 909              	.LBB219:
 910              	.LBB218:
 911              	.LBB217:
 912              	.LBB216:
ARM GAS  /tmp/ccBqT5WX.s 			page 17


 913              		.loc 3 546 0
 914              		.syntax unified
 915              	@ 546 "/home/selim/working/ChibiOS/os/ext/CMSIS/include/core_cmFunc.h" 1
 916 0008 83F31188 		MSR basepri, r3
 917              	@ 0 "" 2
 918              	.LVL84:
 919              		.thumb
 920              		.syntax unified
 921              	.LBE216:
 922              	.LBE217:
 923              	.LBE218:
 924              	.LBE219:
 925              		.loc 1 483 0
 926 000c A36B     		ldr	r3, [r4, #56]
 927 000e D3B1     		cbz	r3, .L70
 928              	.LBB220:
 929              		.loc 1 501 0
 930 0010 0026     		movs	r6, #0
 931 0012 0AE0     		b	.L73
 932              	.LVL85:
 933              	.L80:
 934              	.LBB221:
 935              	.LBB222:
 936              	.LBB223:
 937              		.loc 2 674 0
 938 0014 1168     		ldr	r1, [r2]
 939              	.LBE223:
 940              	.LBE222:
 941              		.loc 1 493 0
 942 0016 956B     		ldr	r5, [r2, #56]
 943              	.LBB225:
 944              	.LBB224:
 945              		.loc 2 674 0
 946 0018 1960     		str	r1, [r3]
 947              		.loc 2 675 0
 948 001a 4B60     		str	r3, [r1, #4]
 949              	.LVL86:
 950              	.LBE224:
 951              	.LBE225:
 952              		.loc 1 492 0
 953 001c 9A60     		str	r2, [r3, #8]
 954              		.loc 1 493 0
 955 001e DD60     		str	r5, [r3, #12]
 956              		.loc 1 494 0
 957 0020 9363     		str	r3, [r2, #56]
 958              		.loc 1 495 0
 959 0022 FFF7FEFF 		bl	chSchReadyI
 960              	.LVL87:
 961              	.LBE221:
 962              	.LBE220:
 963              		.loc 1 503 0
 964 0026 A36B     		ldr	r3, [r4, #56]
 965 0028 4BB1     		cbz	r3, .L79
 966              	.L73:
 967              	.LVL88:
 968              	.LBB231:
 969              	.LBB226:
ARM GAS  /tmp/ccBqT5WX.s 			page 18


 970              	.LBB227:
 971              	.LBB228:
 972              	.LBB229:
 973              		.loc 2 631 0
 974 002a 1A68     		ldr	r2, [r3]
 975              	.LVL89:
 976              	.LBE229:
 977              	.LBE228:
 978              	.LBE227:
 979              	.LBE226:
 980              		.loc 1 486 0
 981 002c D968     		ldr	r1, [r3, #12]
 982 002e A163     		str	r1, [r4, #56]
 983              	.LVL90:
 984              		.loc 1 487 0
 985 0030 9342     		cmp	r3, r2
 986              	.LBB230:
 987              		.loc 1 495 0
 988 0032 1046     		mov	r0, r2
 989              	.LBE230:
 990              		.loc 1 487 0
 991 0034 EED1     		bne	.L80
 992              		.loc 1 501 0
 993 0036 9E60     		str	r6, [r3, #8]
 994              	.LBE231:
 995              		.loc 1 503 0
 996 0038 A36B     		ldr	r3, [r4, #56]
 997              	.LVL91:
 998 003a 002B     		cmp	r3, #0
 999 003c F5D1     		bne	.L73
 1000              	.LVL92:
 1001              	.L79:
 1002              		.loc 1 504 0
 1003 003e E36B     		ldr	r3, [r4, #60]
 1004 0040 A360     		str	r3, [r4, #8]
 1005              		.loc 1 505 0
 1006 0042 FFF7FEFF 		bl	chSchRescheduleS
 1007              	.LVL93:
 1008              	.L70:
 1009              	.LBB232:
 1010              	.LBB233:
 1011              	.LBB234:
 1012              	.LBB235:
 1013              	.LBB236:
 1014              		.loc 3 546 0
 1015 0046 0023     		movs	r3, #0
 1016              		.syntax unified
 1017              	@ 546 "/home/selim/working/ChibiOS/os/ext/CMSIS/include/core_cmFunc.h" 1
 1018 0048 83F31188 		MSR basepri, r3
 1019              	@ 0 "" 2
 1020              	.LVL94:
 1021              		.thumb
 1022              		.syntax unified
 1023 004c 70BD     		pop	{r4, r5, r6, pc}
 1024              	.LVL95:
 1025              	.L82:
 1026 004e 00BF     		.align	2
ARM GAS  /tmp/ccBqT5WX.s 			page 19


 1027              	.L81:
 1028 0050 00000000 		.word	ch
 1029              	.LBE236:
 1030              	.LBE235:
 1031              	.LBE234:
 1032              	.LBE233:
 1033              	.LBE232:
 1034              		.cfi_endproc
 1035              	.LFE234:
 1036              		.size	chMtxUnlockAll, .-chMtxUnlockAll
 1037              		.text
 1038              	.Letext0:
 1039              		.file 4 "/usr/arm-none-eabi/include/machine/_default_types.h"
 1040              		.file 5 "/usr/arm-none-eabi/include/sys/_stdint.h"
 1041              		.file 6 "/home/selim/working/ChibiOS/os/rt/ports/ARMCMx/compilers/GCC/chtypes.h"
 1042              		.file 7 "/home/selim/working/ChibiOS/os/rt/include/chsystypes.h"
 1043              		.file 8 "/home/selim/working/ChibiOS/os/rt/ports/ARMCMx/chcore.h"
 1044              		.file 9 "/home/selim/working/ChibiOS/os/rt/ports/ARMCMx/chcore_v7m.h"
 1045              		.file 10 "/home/selim/working/ChibiOS/os/rt/include/chtm.h"
 1046              		.file 11 "/home/selim/working/ChibiOS/os/rt/include/chsem.h"
 1047              		.file 12 "/home/selim/working/ChibiOS/os/rt/include/chmtx.h"
 1048              		.file 13 "/home/selim/working/ChibiOS/os/rt/include/chsys.h"
 1049              		.file 14 "/home/selim/working/ChibiOS/os/ext/CMSIS/include/core_cm4.h"