ARM GAS  /tmp/ccQsbdz4.s 			page 1


   1              		.syntax unified
   2              		.cpu cortex-m4
   3              		.fpu softvfp
   4              		.eabi_attribute 20, 1
   5              		.eabi_attribute 21, 1
   6              		.eabi_attribute 23, 3
   7              		.eabi_attribute 24, 1
   8              		.eabi_attribute 25, 1
   9              		.eabi_attribute 26, 1
  10              		.eabi_attribute 30, 2
  11              		.eabi_attribute 34, 1
  12              		.eabi_attribute 18, 4
  13              		.thumb
  14              		.syntax unified
  15              		.file	"main.c"
  16              		.text
  17              	.Ltext0:
  18              		.cfi_sections	.debug_frame
  19              		.section	.text.adcerrorcallback,"ax",%progbits
  20              		.align	2
  21              		.p2align 4,,15
  22              		.thumb
  23              		.thumb_func
  24              		.type	adcerrorcallback, %function
  25              	adcerrorcallback:
  26              	.LFB259:
  27              		.file 1 "main.c"
  28              		.loc 1 40 0
  29              		.cfi_startproc
  30              		@ args = 0, pretend = 0, frame = 0
  31              		@ frame_needed = 0, uses_anonymous_args = 0
  32              		@ link register save eliminated.
  33              	.LVL0:
  34 0000 7047     		bx	lr
  35              		.cfi_endproc
  36              	.LFE259:
  37              		.size	adcerrorcallback, .-adcerrorcallback
  38 0002 00BF     		.section	.text.chprintf,"ax",%progbits
  39              		.align	2
  40              		.p2align 4,,15
  41              		.thumb
  42              		.thumb_func
  43              		.type	chprintf, %function
  44              	chprintf:
  45              	.LFB258:
  46              		.file 2 "/home/selim/working/ChibiOS/os/hal/lib/streams/chprintf.h"
  47              		.loc 2 69 0
  48              		.cfi_startproc
  49              		@ args = 4, pretend = 12, frame = 8
  50              		@ frame_needed = 0, uses_anonymous_args = 1
  51              	.LVL1:
  52              		.loc 2 69 0
  53 0000 0EB4     		push	{r1, r2, r3}
  54              		.cfi_def_cfa_offset 12
  55              		.cfi_offset 1, -12
  56              		.cfi_offset 2, -8
  57              		.cfi_offset 3, -4
ARM GAS  /tmp/ccQsbdz4.s 			page 2


  58 0002 00B5     		push	{lr}
  59              		.cfi_def_cfa_offset 16
  60              		.cfi_offset 14, -16
  61 0004 82B0     		sub	sp, sp, #8
  62              		.cfi_def_cfa_offset 24
  63              		.loc 2 69 0
  64 0006 03AA     		add	r2, sp, #12
  65 0008 52F8041B 		ldr	r1, [r2], #4
  66              		.loc 2 73 0
  67 000c 0192     		str	r2, [sp, #4]
  68              		.loc 2 74 0
  69 000e FFF7FEFF 		bl	chvprintf
  70              	.LVL2:
  71              		.loc 2 78 0
  72 0012 02B0     		add	sp, sp, #8
  73              		.cfi_def_cfa_offset 16
  74              		@ sp needed
  75 0014 5DF804EB 		ldr	lr, [sp], #4
  76              		.cfi_restore 14
  77              		.cfi_def_cfa_offset 12
  78 0018 03B0     		add	sp, sp, #12
  79              		.cfi_restore 3
  80              		.cfi_restore 2
  81              		.cfi_restore 1
  82              		.cfi_def_cfa_offset 0
  83 001a 7047     		bx	lr
  84              		.cfi_endproc
  85              	.LFE258:
  86              		.size	chprintf, .-chprintf
  87              		.global	__aeabi_i2d
  88              		.global	__aeabi_dmul
  89              		.global	__aeabi_ddiv
  90              		.global	__aeabi_d2f
  91              		.global	__aeabi_dsub
  92              		.global	__aeabi_dadd
  93              		.global	__aeabi_f2d
  94              		.section	.text.Thread2,"ax",%progbits
  95              		.align	2
  96              		.p2align 4,,15
  97              		.thumb
  98              		.thumb_func
  99              		.type	Thread2, %function
 100              	Thread2:
 101              	.LFB260:
 102              		.loc 1 73 0
 103              		.cfi_startproc
 104              		@ args = 0, pretend = 0, frame = 8
 105              		@ frame_needed = 0, uses_anonymous_args = 0
 106              	.LVL3:
 107 0000 70B5     		push	{r4, r5, r6, lr}
 108              		.cfi_def_cfa_offset 16
 109              		.cfi_offset 4, -16
 110              		.cfi_offset 5, -12
 111              		.cfi_offset 6, -8
 112              		.cfi_offset 14, -4
 113              		.loc 1 75 0
 114 0002 0021     		movs	r1, #0
ARM GAS  /tmp/ccQsbdz4.s 			page 3


 115              		.loc 1 73 0
 116 0004 84B0     		sub	sp, sp, #16
 117              		.cfi_def_cfa_offset 32
 118              		.loc 1 75 0
 119 0006 2E48     		ldr	r0, .L8+24
 120              	.LVL4:
 121 0008 FFF7FEFF 		bl	adcStart
 122              	.LVL5:
 123              		.loc 1 76 0
 124 000c FFF7FEFF 		bl	adcSTM32EnableTSVREFE
 125              	.LVL6:
 126              	.L5:
 127              	.LBB63:
 128              		.loc 1 87 0 discriminator 1
 129 0010 03AA     		add	r2, sp, #12
 130 0012 0123     		movs	r3, #1
 131 0014 2B49     		ldr	r1, .L8+28
 132 0016 2A48     		ldr	r0, .L8+24
 133 0018 FFF7FEFF 		bl	adcConvert
 134              	.LVL7:
 135              		.loc 1 89 0 discriminator 1
 136 001c BDF80C00 		ldrh	r0, [sp, #12]
 137 0020 FFF7FEFF 		bl	__aeabi_i2d
 138              	.LVL8:
 139 0024 0022     		movs	r2, #0
 140 0026 284B     		ldr	r3, .L8+32
 141 0028 FFF7FEFF 		bl	__aeabi_dmul
 142              	.LVL9:
 143 002c 0022     		movs	r2, #0
 144 002e 274B     		ldr	r3, .L8+36
 145 0030 FFF7FEFF 		bl	__aeabi_dmul
 146              	.LVL10:
 147 0034 1CA3     		adr	r3, .L8
 148 0036 D3E90023 		ldrd	r2, [r3]
 149 003a FFF7FEFF 		bl	__aeabi_ddiv
 150              	.LVL11:
 151 003e FFF7FEFF 		bl	__aeabi_d2f
 152              	.LVL12:
 153 0042 0646     		mov	r6, r0
 154              	.LVL13:
 155              		.loc 1 90 0 discriminator 1
 156 0044 BDF80E00 		ldrh	r0, [sp, #14]
 157              	.LVL14:
 158 0048 FFF7FEFF 		bl	__aeabi_i2d
 159              	.LVL15:
 160 004c 0022     		movs	r2, #0
 161 004e 1E4B     		ldr	r3, .L8+32
 162 0050 FFF7FEFF 		bl	__aeabi_dmul
 163              	.LVL16:
 164 0054 0022     		movs	r2, #0
 165 0056 1D4B     		ldr	r3, .L8+36
 166 0058 FFF7FEFF 		bl	__aeabi_dmul
 167              	.LVL17:
 168 005c 14A3     		adr	r3, .L8+8
 169 005e D3E90023 		ldrd	r2, [r3]
 170 0062 FFF7FEFF 		bl	__aeabi_dsub
 171              	.LVL18:
ARM GAS  /tmp/ccQsbdz4.s 			page 4


 172 0066 14A3     		adr	r3, .L8+16
 173 0068 D3E90023 		ldrd	r2, [r3]
 174 006c FFF7FEFF 		bl	__aeabi_ddiv
 175              	.LVL19:
 176 0070 0022     		movs	r2, #0
 177 0072 174B     		ldr	r3, .L8+40
 178 0074 FFF7FEFF 		bl	__aeabi_dadd
 179              	.LVL20:
 180 0078 FFF7FEFF 		bl	__aeabi_d2f
 181              	.LVL21:
 182 007c 0446     		mov	r4, r0
 183              	.LVL22:
 184              		.loc 1 91 0 discriminator 1
 185 007e 41F28830 		movw	r0, #5000
 186              	.LVL23:
 187 0082 FFF7FEFF 		bl	chThdSleep
 188              	.LVL24:
 189              		.loc 1 93 0 discriminator 1
 190 0086 2046     		mov	r0, r4
 191 0088 FFF7FEFF 		bl	__aeabi_f2d
 192              	.LVL25:
 193 008c 0446     		mov	r4, r0
 194              	.LVL26:
 195 008e 3046     		mov	r0, r6
 196 0090 0D46     		mov	r5, r1
 197 0092 FFF7FEFF 		bl	__aeabi_f2d
 198              	.LVL27:
 199 0096 2246     		mov	r2, r4
 200 0098 CDE90001 		strd	r0, [sp]
 201 009c 2B46     		mov	r3, r5
 202 009e 0D49     		ldr	r1, .L8+44
 203 00a0 0D48     		ldr	r0, .L8+48
 204 00a2 FFF7FEFF 		bl	chprintf
 205              	.LVL28:
 206 00a6 B3E7     		b	.L5
 207              	.L9:
 208              		.align	3
 209              	.L8:
 210 00a8 7B14AE47 		.word	1202590843
 211 00ac E17A843F 		.word	1065646817
 212 00b0 00000080 		.word	2147483648
 213 00b4 EB51E83F 		.word	1072189931
 214 00b8 00000040 		.word	1073741824
 215 00bc E17A643F 		.word	1063549665
 216 00c0 00000000 		.word	ADCD1
 217 00c4 00000000 		.word	.LANCHOR0
 218 00c8 00000840 		.word	1074266112
 219 00cc 0000303F 		.word	1060110336
 220 00d0 00003940 		.word	1077477376
 221 00d4 00000000 		.word	.LC0
 222 00d8 00000000 		.word	.LANCHOR1
 223              	.LBE63:
 224              		.cfi_endproc
 225              	.LFE260:
 226              		.size	Thread2, .-Thread2
 227              		.section	.text.Thread1,"ax",%progbits
 228              		.align	2
ARM GAS  /tmp/ccQsbdz4.s 			page 5


 229              		.p2align 4,,15
 230              		.thumb
 231              		.thumb_func
 232              		.type	Thread1, %function
 233              	Thread1:
 234              	.LFB264:
 235              		.loc 1 219 0
 236              		.cfi_startproc
 237              		@ args = 0, pretend = 0, frame = 0
 238              		@ frame_needed = 0, uses_anonymous_args = 0
 239              	.LVL29:
 240 0000 F8B5     		push	{r3, r4, r5, r6, r7, lr}
 241              		.cfi_def_cfa_offset 24
 242              		.cfi_offset 3, -24
 243              		.cfi_offset 4, -20
 244              		.cfi_offset 5, -16
 245              		.cfi_offset 6, -12
 246              		.cfi_offset 7, -8
 247              		.cfi_offset 14, -4
 248              		.loc 1 224 0
 249 0002 4C4B     		ldr	r3, .L23
 250 0004 4C4A     		ldr	r2, .L23+4
 251 0006 9B69     		ldr	r3, [r3, #24]
 252              		.loc 1 227 0
 253 0008 4C48     		ldr	r0, .L23+8
 254              	.LVL30:
 255              		.loc 1 224 0
 256 000a 9A61     		str	r2, [r3, #24]
 257              		.loc 1 227 0
 258 000c 2021     		movs	r1, #32
 259 000e 4322     		movs	r2, #67
 260 0010 FFF7FEFF 		bl	lis302dlWriteRegister
 261              	.LVL31:
 262              		.loc 1 228 0
 263 0014 0022     		movs	r2, #0
 264 0016 2121     		movs	r1, #33
 265 0018 4848     		ldr	r0, .L23+8
 266 001a FFF7FEFF 		bl	lis302dlWriteRegister
 267              	.LVL32:
 268              		.loc 1 229 0
 269 001e 0022     		movs	r2, #0
 270 0020 2221     		movs	r1, #34
 271 0022 4648     		ldr	r0, .L23+8
 272 0024 FFF7FEFF 		bl	lis302dlWriteRegister
 273              	.LVL33:
 274              	.LBB64:
 275              	.LBB65:
 276              	.LBB66:
 277              	.LBB67:
 278              	.LBB68:
 279              	.LBB69:
 280              		.file 3 "/home/selim/working/ChibiOS/os/ext/CMSIS/include/core_cmFunc.h"
 281              		.loc 3 546 0
 282 0028 2023     		movs	r3, #32
 283              		.syntax unified
 284              	@ 546 "/home/selim/working/ChibiOS/os/ext/CMSIS/include/core_cmFunc.h" 1
 285 002a 83F31188 		MSR basepri, r3
ARM GAS  /tmp/ccQsbdz4.s 			page 6


 286              	@ 0 "" 2
 287              	.LVL34:
 288              		.thumb
 289              		.syntax unified
 290              	.LBE69:
 291              	.LBE68:
 292              	.LBE67:
 293              	.LBE66:
 294              	.LBB70:
 295              	.LBB71:
 296              	.LBB72:
 297              	.LBB73:
 298              		.file 4 "/home/selim/working/ChibiOS/os/hal/ports/STM32/LLD/TIMv1/st_lld.h"
 299              		.loc 4 129 0
 300 002e 4FF08042 		mov	r2, #1073741824
 301              	.LBE73:
 302              	.LBE72:
 303              	.LBE71:
 304              	.LBE70:
 305              	.LBB77:
 306              	.LBB78:
 307              	.LBB79:
 308              	.LBB80:
 309              	.LBB81:
 310              		.loc 3 546 0
 311 0032 0023     		movs	r3, #0
 312              	.LBE81:
 313              	.LBE80:
 314              	.LBE79:
 315              	.LBE78:
 316              	.LBE77:
 317              	.LBB86:
 318              	.LBB76:
 319              	.LBB75:
 320              	.LBB74:
 321              		.loc 4 129 0
 322 0034 576A     		ldr	r7, [r2, #36]
 323              	.LVL35:
 324              	.LBE74:
 325              	.LBE75:
 326              	.LBE76:
 327              	.LBE86:
 328              	.LBB87:
 329              	.LBB85:
 330              	.LBB84:
 331              	.LBB83:
 332              	.LBB82:
 333              		.loc 3 546 0
 334              		.syntax unified
 335              	@ 546 "/home/selim/working/ChibiOS/os/ext/CMSIS/include/core_cmFunc.h" 1
 336 0036 83F31188 		MSR basepri, r3
 337              	@ 0 "" 2
 338              	.LVL36:
 339              		.thumb
 340              		.syntax unified
 341 003a 414E     		ldr	r6, .L23+12
 342 003c 414D     		ldr	r5, .L23+16
ARM GAS  /tmp/ccQsbdz4.s 			page 7


 343              	.L18:
 344              	.LVL37:
 345 003e 4249     		ldr	r1, .L23+20
 346 0040 424A     		ldr	r2, .L23+24
 347 0042 4C1C     		adds	r4, r1, #1
 348 0044 501C     		adds	r0, r2, #1
 349              	.LBE82:
 350              	.LBE83:
 351              	.LBE84:
 352              	.LBE85:
 353              	.LBE87:
 354              	.LBE65:
 355              	.LBE64:
 356              	.LBB88:
 357              		.loc 1 238 0
 358 0046 0323     		movs	r3, #3
 359              	.LVL38:
 360              	.L11:
 361              		.loc 1 239 0 discriminator 3
 362 0048 11F901CD 		ldrsb	ip, [r1, #-1]!
 363              		.loc 1 240 0 discriminator 3
 364 004c 12F901ED 		ldrsb	lr, [r2, #-1]!
 365              		.loc 1 239 0 discriminator 3
 366 0050 04F801CD 		strb	ip, [r4, #-1]!
 367              		.loc 1 238 0 discriminator 3
 368 0054 013B     		subs	r3, r3, #1
 369              	.LVL39:
 370              		.loc 1 240 0 discriminator 3
 371 0056 00F801ED 		strb	lr, [r0, #-1]!
 372              	.LVL40:
 373              		.loc 1 238 0 discriminator 3
 374 005a F5D1     		bne	.L11
 375              		.loc 1 244 0
 376 005c 2921     		movs	r1, #41
 377 005e 3748     		ldr	r0, .L23+8
 378 0060 FFF7FEFF 		bl	lis302dlReadRegister
 379              	.LVL41:
 380              		.loc 1 245 0
 381 0064 2B21     		movs	r1, #43
 382              		.loc 1 244 0
 383 0066 3070     		strb	r0, [r6]
 384              		.loc 1 245 0
 385 0068 3448     		ldr	r0, .L23+8
 386 006a FFF7FEFF 		bl	lis302dlReadRegister
 387              	.LVL42:
 388 006e 2870     		strb	r0, [r5]
 389              		.loc 1 248 0
 390 0070 3748     		ldr	r0, .L23+28
 391 0072 FFF7FEFF 		bl	spiSelect
 392              	.LVL43:
 393              		.loc 1 249 0
 394 0076 324A     		ldr	r2, .L23+12
 395 0078 3548     		ldr	r0, .L23+28
 396 007a 0421     		movs	r1, #4
 397 007c FFF7FEFF 		bl	spiSend
 398              	.LVL44:
 399              		.loc 1 250 0
ARM GAS  /tmp/ccQsbdz4.s 			page 8


 400 0080 304A     		ldr	r2, .L23+16
 401 0082 3348     		ldr	r0, .L23+28
 402 0084 0421     		movs	r1, #4
 403 0086 FFF7FEFF 		bl	spiSend
 404              	.LVL45:
 405              		.loc 1 251 0
 406 008a 3148     		ldr	r0, .L23+28
 407 008c FFF7FEFF 		bl	spiUnselect
 408              	.LVL46:
 409              		.loc 1 254 0
 410 0090 96F90030 		ldrsb	r3, [r6]
 411 0094 96F90110 		ldrsb	r1, [r6, #1]
 412 0098 96F90220 		ldrsb	r2, [r6, #2]
 413              		.loc 1 256 0
 414 009c 95F90100 		ldrsb	r0, [r5, #1]
 415              		.loc 1 254 0
 416 00a0 96F90340 		ldrsb	r4, [r6, #3]
 417              		.loc 1 256 0
 418 00a4 95F903E0 		ldrsb	lr, [r5, #3]
 419              		.loc 1 254 0
 420 00a8 1944     		add	r1, r1, r3
 421 00aa 8B18     		adds	r3, r1, r2
 422              		.loc 1 256 0
 423 00ac 95F90020 		ldrsb	r2, [r5]
 424 00b0 95F90210 		ldrsb	r1, [r5, #2]
 425 00b4 0244     		add	r2, r2, r0
 426              		.loc 1 254 0
 427 00b6 1B19     		adds	r3, r3, r4
 428              		.loc 1 256 0
 429 00b8 0A44     		add	r2, r2, r1
 430              		.loc 1 254 0
 431 00ba 48BF     		it	mi
 432 00bc 0333     		addmi	r3, r3, #3
 433              		.loc 1 256 0
 434 00be 12EB0E02 		adds	r2, r2, lr
 435 00c2 48BF     		it	mi
 436 00c4 0332     		addmi	r2, r2, #3
 437              		.loc 1 260 0
 438 00c6 9210     		asrs	r2, r2, #2
 439              		.loc 1 254 0
 440 00c8 4FEAA304 		asr	r4, r3, #2
 441              	.LVL47:
 442              		.loc 1 260 0
 443 00cc 1AD4     		bmi	.L21
 444              		.loc 1 265 0
 445 00ce 0221     		movs	r1, #2
 446 00d0 2048     		ldr	r0, .L23+32
 447 00d2 FFF7FEFF 		bl	pwmEnableChannel
 448              	.LVL48:
 449              		.loc 1 266 0
 450 00d6 0022     		movs	r2, #0
 451 00d8 1146     		mov	r1, r2
 452 00da 1E48     		ldr	r0, .L23+32
 453 00dc FFF7FEFF 		bl	pwmEnableChannel
 454              	.LVL49:
 455              		.loc 1 268 0
 456 00e0 002C     		cmp	r4, #0
ARM GAS  /tmp/ccQsbdz4.s 			page 9


 457 00e2 1BDB     		blt	.L22
 458              	.L16:
 459              		.loc 1 273 0
 460 00e4 2246     		mov	r2, r4
 461 00e6 0321     		movs	r1, #3
 462 00e8 1A48     		ldr	r0, .L23+32
 463 00ea FFF7FEFF 		bl	pwmEnableChannel
 464              	.LVL50:
 465              		.loc 1 274 0
 466 00ee 0022     		movs	r2, #0
 467 00f0 0121     		movs	r1, #1
 468 00f2 1848     		ldr	r0, .L23+32
 469 00f4 FFF7FEFF 		bl	pwmEnableChannel
 470              	.LVL51:
 471              	.L17:
 472              		.loc 1 278 0
 473 00f8 07F57A77 		add	r7, r7, #1000
 474              	.LVL52:
 475 00fc 3846     		mov	r0, r7
 476 00fe FFF7FEFF 		bl	chThdSleepUntil
 477              	.LVL53:
 478              	.LBE88:
 479              		.loc 1 279 0
 480 0102 9CE7     		b	.L18
 481              	.L21:
 482              	.LBB89:
 483              		.loc 1 261 0
 484 0104 5242     		negs	r2, r2
 485 0106 0021     		movs	r1, #0
 486 0108 1248     		ldr	r0, .L23+32
 487 010a FFF7FEFF 		bl	pwmEnableChannel
 488              	.LVL54:
 489              		.loc 1 262 0
 490 010e 0022     		movs	r2, #0
 491 0110 0221     		movs	r1, #2
 492 0112 1048     		ldr	r0, .L23+32
 493 0114 FFF7FEFF 		bl	pwmEnableChannel
 494              	.LVL55:
 495              		.loc 1 268 0
 496 0118 002C     		cmp	r4, #0
 497 011a E3DA     		bge	.L16
 498              	.L22:
 499              		.loc 1 269 0
 500 011c 6242     		negs	r2, r4
 501 011e 0121     		movs	r1, #1
 502 0120 0C48     		ldr	r0, .L23+32
 503 0122 FFF7FEFF 		bl	pwmEnableChannel
 504              	.LVL56:
 505              		.loc 1 270 0
 506 0126 0022     		movs	r2, #0
 507 0128 0321     		movs	r1, #3
 508 012a 0A48     		ldr	r0, .L23+32
 509 012c FFF7FEFF 		bl	pwmEnableChannel
 510              	.LVL57:
 511 0130 E2E7     		b	.L17
 512              	.L24:
 513 0132 00BF     		.align	2
ARM GAS  /tmp/ccQsbdz4.s 			page 10


 514              	.L23:
 515 0134 00000000 		.word	ch
 516 0138 20000000 		.word	.LC1
 517 013c 00000000 		.word	SPID1
 518 0140 00000000 		.word	.LANCHOR2
 519 0144 00000000 		.word	.LANCHOR3
 520 0148 03000000 		.word	.LANCHOR2+3
 521 014c 03000000 		.word	.LANCHOR3+3
 522 0150 00000000 		.word	SPID2
 523 0154 00000000 		.word	PWMD4
 524              	.LBE89:
 525              		.cfi_endproc
 526              	.LFE264:
 527              		.size	Thread1, .-Thread1
 528              		.section	.text.cmd_test,"ax",%progbits
 529              		.align	2
 530              		.p2align 4,,15
 531              		.thumb
 532              		.thumb_func
 533              		.type	cmd_test, %function
 534              	cmd_test:
 535              	.LFB263:
 536              		.loc 1 135 0
 537              		.cfi_startproc
 538              		@ args = 0, pretend = 0, frame = 0
 539              		@ frame_needed = 0, uses_anonymous_args = 0
 540              	.LVL58:
 541              		.loc 1 139 0
 542 0000 0029     		cmp	r1, #0
 543 0002 02DD     		ble	.L26
 544              		.loc 1 140 0
 545 0004 0E49     		ldr	r1, .L30
 546              	.LVL59:
 547 0006 FFF7FEBF 		b	chprintf
 548              	.LVL60:
 549              	.L26:
 550              		.loc 1 135 0
 551 000a 10B5     		push	{r4, lr}
 552              		.cfi_def_cfa_offset 8
 553              		.cfi_offset 4, -8
 554              		.cfi_offset 14, -4
 555              	.LBB96:
 556              	.LBB97:
 557              	.LBB98:
 558              	.LBB99:
 559              	.LBB100:
 560              	.LBB101:
 561              		.file 5 "/home/selim/working/ChibiOS/os/rt/include/chthreads.h"
 562              		.loc 5 176 0
 563 000c 0D4A     		ldr	r2, .L30+4
 564              	.LVL61:
 565              	.LBE101:
 566              	.LBE100:
 567              	.LBE99:
 568              	.LBE98:
 569              		.loc 1 143 0
 570 000e 0E4B     		ldr	r3, .L30+8
ARM GAS  /tmp/ccQsbdz4.s 			page 11


 571              	.LBB103:
 572              	.LBB102:
 573              		.loc 5 189 0
 574 0010 9269     		ldr	r2, [r2, #24]
 575              	.LBE102:
 576              	.LBE103:
 577              	.LBE97:
 578              	.LBE96:
 579              		.loc 1 135 0
 580 0012 82B0     		sub	sp, sp, #8
 581              		.cfi_def_cfa_offset 16
 582 0014 0446     		mov	r4, r0
 583              	.LBB107:
 584              	.LBB104:
 585              		.loc 1 143 0
 586 0016 9268     		ldr	r2, [r2, #8]
 587 0018 0090     		str	r0, [sp]
 588 001a 4FF4E471 		mov	r1, #456
 589              	.LVL62:
 590 001e 0020     		movs	r0, #0
 591              	.LVL63:
 592 0020 FFF7FEFF 		bl	chThdCreateFromHeap
 593              	.LVL64:
 594              		.loc 1 145 0
 595 0024 20B1     		cbz	r0, .L29
 596              	.LBE104:
 597              	.LBE107:
 598              		.loc 1 150 0
 599 0026 02B0     		add	sp, sp, #8
 600              		.cfi_remember_state
 601              		.cfi_def_cfa_offset 8
 602              		@ sp needed
 603 0028 BDE81040 		pop	{r4, lr}
 604              		.cfi_restore 14
 605              		.cfi_restore 4
 606              		.cfi_def_cfa_offset 0
 607              	.LVL65:
 608              	.LBB108:
 609              	.LBB105:
 610              		.loc 1 149 0
 611 002c FFF7FEBF 		b	chThdWait
 612              	.LVL66:
 613              	.L29:
 614              		.cfi_restore_state
 615              		.loc 1 146 0
 616 0030 0649     		ldr	r1, .L30+12
 617 0032 2046     		mov	r0, r4
 618              	.LVL67:
 619              	.LBE105:
 620              	.LBE108:
 621              		.loc 1 150 0
 622 0034 02B0     		add	sp, sp, #8
 623              		.cfi_def_cfa_offset 8
 624              		@ sp needed
 625 0036 BDE81040 		pop	{r4, lr}
 626              		.cfi_restore 14
 627              		.cfi_restore 4
ARM GAS  /tmp/ccQsbdz4.s 			page 12


 628              		.cfi_def_cfa_offset 0
 629              	.LVL68:
 630              	.LBB109:
 631              	.LBB106:
 632              		.loc 1 146 0
 633 003a FFF7FEBF 		b	chprintf
 634              	.LVL69:
 635              	.L31:
 636 003e 00BF     		.align	2
 637              	.L30:
 638 0040 28000000 		.word	.LC2
 639 0044 00000000 		.word	ch
 640 0048 00000000 		.word	TestThread
 641 004c 38000000 		.word	.LC3
 642              	.LBE106:
 643              	.LBE109:
 644              		.cfi_endproc
 645              	.LFE263:
 646              		.size	cmd_test, .-cmd_test
 647              		.section	.text.cmd_threads,"ax",%progbits
 648              		.align	2
 649              		.p2align 4,,15
 650              		.thumb
 651              		.thumb_func
 652              		.type	cmd_threads, %function
 653              	cmd_threads:
 654              	.LFB262:
 655              		.loc 1 115 0
 656              		.cfi_startproc
 657              		@ args = 0, pretend = 0, frame = 0
 658              		@ frame_needed = 0, uses_anonymous_args = 0
 659              	.LVL70:
 660              		.loc 1 120 0
 661 0000 0029     		cmp	r1, #0
 662 0002 02DD     		ble	.L33
 663              		.loc 1 121 0
 664 0004 1149     		ldr	r1, .L37
 665              	.LVL71:
 666 0006 FFF7FEBF 		b	chprintf
 667              	.LVL72:
 668              	.L33:
 669              		.loc 1 115 0
 670 000a 70B5     		push	{r4, r5, r6, lr}
 671              		.cfi_def_cfa_offset 16
 672              		.cfi_offset 4, -16
 673              		.cfi_offset 5, -12
 674              		.cfi_offset 6, -8
 675              		.cfi_offset 14, -4
 676              	.LBB112:
 677              	.LBB113:
 678              		.loc 1 124 0
 679 000c 1049     		ldr	r1, .L37+4
 680              	.LVL73:
 681 000e 114E     		ldr	r6, .L37+8
 682              	.LBE113:
 683              	.LBE112:
 684              		.loc 1 115 0
ARM GAS  /tmp/ccQsbdz4.s 			page 13


 685 0010 84B0     		sub	sp, sp, #16
 686              		.cfi_def_cfa_offset 32
 687 0012 0546     		mov	r5, r0
 688              	.LVL74:
 689              	.LBB115:
 690              	.LBB114:
 691              		.loc 1 124 0
 692 0014 FFF7FEFF 		bl	chprintf
 693              	.LVL75:
 694              		.loc 1 125 0
 695 0018 FFF7FEFF 		bl	chRegFirstThread
 696              	.LVL76:
 697 001c 0446     		mov	r4, r0
 698              	.LVL77:
 699              	.L34:
 700              		.loc 1 127 0
 701 001e 227F     		ldrb	r2, [r4, #28]	@ zero_extendqisi2
 702 0020 E368     		ldr	r3, [r4, #12]
 703 0022 56F82220 		ldr	r2, [r6, r2, lsl #2]
 704 0026 0292     		str	r2, [sp, #8]
 705 0028 A27F     		ldrb	r2, [r4, #30]	@ zero_extendqisi2
 706 002a 0B49     		ldr	r1, .L37+12
 707 002c 013A     		subs	r2, r2, #1
 708 002e 0192     		str	r2, [sp, #4]
 709 0030 A268     		ldr	r2, [r4, #8]
 710 0032 0092     		str	r2, [sp]
 711 0034 2846     		mov	r0, r5
 712              	.LVL78:
 713 0036 2246     		mov	r2, r4
 714 0038 FFF7FEFF 		bl	chprintf
 715              	.LVL79:
 716              		.loc 1 131 0
 717 003c 2046     		mov	r0, r4
 718 003e FFF7FEFF 		bl	chRegNextThread
 719              	.LVL80:
 720              		.loc 1 132 0
 721 0042 0446     		mov	r4, r0
 722 0044 0028     		cmp	r0, #0
 723 0046 EAD1     		bne	.L34
 724              	.LBE114:
 725              	.LBE115:
 726              		.loc 1 133 0
 727 0048 04B0     		add	sp, sp, #16
 728              		.cfi_def_cfa_offset 16
 729              		@ sp needed
 730 004a 70BD     		pop	{r4, r5, r6, pc}
 731              	.LVL81:
 732              	.L38:
 733              		.align	2
 734              	.L37:
 735 004c 48000000 		.word	.LC4
 736 0050 5C000000 		.word	.LC5
 737 0054 00000000 		.word	.LANCHOR4
 738 0058 84000000 		.word	.LC6
 739              		.cfi_endproc
 740              	.LFE262:
 741              		.size	cmd_threads, .-cmd_threads
ARM GAS  /tmp/ccQsbdz4.s 			page 14


 742              		.section	.text.cmd_mem,"ax",%progbits
 743              		.align	2
 744              		.p2align 4,,15
 745              		.thumb
 746              		.thumb_func
 747              		.type	cmd_mem, %function
 748              	cmd_mem:
 749              	.LFB261:
 750              		.loc 1 102 0
 751              		.cfi_startproc
 752              		@ args = 0, pretend = 0, frame = 8
 753              		@ frame_needed = 0, uses_anonymous_args = 0
 754              	.LVL82:
 755 0000 30B5     		push	{r4, r5, lr}
 756              		.cfi_def_cfa_offset 12
 757              		.cfi_offset 4, -12
 758              		.cfi_offset 5, -8
 759              		.cfi_offset 14, -4
 760              		.loc 1 105 0
 761 0002 0029     		cmp	r1, #0
 762              		.loc 1 102 0
 763 0004 83B0     		sub	sp, sp, #12
 764              		.cfi_def_cfa_offset 24
 765              		.loc 1 105 0
 766 0006 04DD     		ble	.L40
 767              		.loc 1 106 0
 768 0008 0E49     		ldr	r1, .L43
 769              	.LVL83:
 770 000a FFF7FEFF 		bl	chprintf
 771              	.LVL84:
 772              		.loc 1 113 0
 773 000e 03B0     		add	sp, sp, #12
 774              		.cfi_remember_state
 775              		.cfi_def_cfa_offset 12
 776              		@ sp needed
 777 0010 30BD     		pop	{r4, r5, pc}
 778              	.LVL85:
 779              	.L40:
 780              		.cfi_restore_state
 781 0012 0446     		mov	r4, r0
 782              	.LVL86:
 783              	.LBB118:
 784              	.LBB119:
 785              		.loc 1 109 0
 786 0014 01A9     		add	r1, sp, #4
 787              	.LVL87:
 788 0016 0020     		movs	r0, #0
 789              	.LVL88:
 790 0018 FFF7FEFF 		bl	chHeapStatus
 791              	.LVL89:
 792 001c 0546     		mov	r5, r0
 793              	.LVL90:
 794              		.loc 1 110 0
 795 001e FFF7FEFF 		bl	chCoreGetStatusX
 796              	.LVL91:
 797 0022 0949     		ldr	r1, .L43+4
 798 0024 0246     		mov	r2, r0
ARM GAS  /tmp/ccQsbdz4.s 			page 15


 799 0026 2046     		mov	r0, r4
 800 0028 FFF7FEFF 		bl	chprintf
 801              	.LVL92:
 802              		.loc 1 111 0
 803 002c 2A46     		mov	r2, r5
 804 002e 0749     		ldr	r1, .L43+8
 805 0030 2046     		mov	r0, r4
 806 0032 FFF7FEFF 		bl	chprintf
 807              	.LVL93:
 808              		.loc 1 112 0
 809 0036 2046     		mov	r0, r4
 810 0038 019A     		ldr	r2, [sp, #4]
 811 003a 0549     		ldr	r1, .L43+12
 812 003c FFF7FEFF 		bl	chprintf
 813              	.LVL94:
 814              	.LBE119:
 815              	.LBE118:
 816              		.loc 1 113 0
 817 0040 03B0     		add	sp, sp, #12
 818              		.cfi_def_cfa_offset 12
 819              		@ sp needed
 820 0042 30BD     		pop	{r4, r5, pc}
 821              	.LVL95:
 822              	.L44:
 823              		.align	2
 824              	.L43:
 825 0044 A0000000 		.word	.LC7
 826 0048 B0000000 		.word	.LC8
 827 004c D0000000 		.word	.LC9
 828 0050 E8000000 		.word	.LC10
 829              		.cfi_endproc
 830              	.LFE261:
 831              		.size	cmd_mem, .-cmd_mem
 832              		.section	.text.startup.main,"ax",%progbits
 833              		.align	2
 834              		.p2align 4,,15
 835              		.global	main
 836              		.thumb
 837              		.thumb_func
 838              		.type	main, %function
 839              	main:
 840              	.LFB265:
 841              		.loc 1 289 0
 842              		.cfi_startproc
 843              		@ args = 0, pretend = 0, frame = 0
 844              		@ frame_needed = 0, uses_anonymous_args = 0
 845              	.LVL96:
 846 0000 70B5     		push	{r4, r5, r6, lr}
 847              		.cfi_def_cfa_offset 16
 848              		.cfi_offset 4, -16
 849              		.cfi_offset 5, -12
 850              		.cfi_offset 6, -8
 851              		.cfi_offset 14, -4
 852 0002 564D     		ldr	r5, .L52
 853              		.loc 1 320 0
 854 0004 564E     		ldr	r6, .L52+4
 855              		.loc 1 354 0
ARM GAS  /tmp/ccQsbdz4.s 			page 16


 856 0006 574C     		ldr	r4, .L52+8
 857              		.loc 1 289 0
 858 0008 82B0     		sub	sp, sp, #8
 859              		.cfi_def_cfa_offset 24
 860              		.loc 1 299 0
 861 000a FFF7FEFF 		bl	halInit
 862              	.LVL97:
 863              		.loc 1 300 0
 864 000e FFF7FEFF 		bl	chSysInit
 865              	.LVL98:
 866              		.loc 1 306 0
 867 0012 0322     		movs	r2, #3
 868 0014 0621     		movs	r1, #6
 869 0016 5448     		ldr	r0, .L52+12
 870 0018 FFF7FEFF 		bl	_pal_lld_setgroupmode
 871              	.LVL99:
 872              		.loc 1 313 0
 873 001c FFF7FEFF 		bl	shellInit
 874              	.LVL100:
 875              		.loc 1 319 0
 876 0020 2846     		mov	r0, r5
 877 0022 FFF7FEFF 		bl	sduObjectInit
 878              	.LVL101:
 879              		.loc 1 320 0
 880 0026 3146     		mov	r1, r6
 881 0028 2846     		mov	r0, r5
 882 002a FFF7FEFF 		bl	sduStart
 883              	.LVL102:
 884              		.loc 1 327 0
 885 002e 3368     		ldr	r3, [r6]
 886 0030 1A6D     		ldr	r2, [r3, #80]
 887 0032 936B     		ldr	r3, [r2, #56]
 888 0034 23F40023 		bic	r3, r3, #524288
 889 0038 9363     		str	r3, [r2, #56]
 890              		.loc 1 328 0
 891 003a 42F21070 		movw	r0, #10000
 892 003e FFF7FEFF 		bl	chThdSleep
 893              	.LVL103:
 894              		.loc 1 329 0
 895 0042 3068     		ldr	r0, [r6]
 896 0044 4949     		ldr	r1, .L52+16
 897 0046 FFF7FEFF 		bl	usbStart
 898              	.LVL104:
 899              		.loc 1 330 0
 900 004a 3368     		ldr	r3, [r6]
 901              		.loc 1 336 0
 902 004c 4848     		ldr	r0, .L52+20
 903              		.loc 1 330 0
 904 004e 1A6D     		ldr	r2, [r3, #80]
 905 0050 936B     		ldr	r3, [r2, #56]
 906 0052 43F40023 		orr	r3, r3, #524288
 907 0056 9363     		str	r3, [r2, #56]
 908              		.loc 1 336 0
 909 0058 0021     		movs	r1, #0
 910 005a FFF7FEFF 		bl	sdStart
 911              	.LVL105:
 912              		.loc 1 337 0
ARM GAS  /tmp/ccQsbdz4.s 			page 17


 913 005e 40F28232 		movw	r2, #898
 914 0062 0421     		movs	r1, #4
 915 0064 4348     		ldr	r0, .L52+24
 916 0066 FFF7FEFF 		bl	_pal_lld_setgroupmode
 917              	.LVL106:
 918              		.loc 1 338 0
 919 006a 40F28232 		movw	r2, #898
 920 006e 0821     		movs	r1, #8
 921 0070 4048     		ldr	r0, .L52+24
 922 0072 FFF7FEFF 		bl	_pal_lld_setgroupmode
 923              	.LVL107:
 924              		.loc 1 344 0
 925 0076 4049     		ldr	r1, .L52+28
 926 0078 4048     		ldr	r0, .L52+32
 927 007a FFF7FEFF 		bl	spiStart
 928              	.LVL108:
 929              		.loc 1 354 0
 930 007e 4FF48056 		mov	r6, #4096
 931              		.loc 1 353 0
 932 0082 3F49     		ldr	r1, .L52+36
 933 0084 3F48     		ldr	r0, .L52+40
 934 0086 FFF7FEFF 		bl	spiStart
 935              	.LVL109:
 936              		.loc 1 355 0
 937 008a 2046     		mov	r0, r4
 938              		.loc 1 354 0
 939 008c 2683     		strh	r6, [r4, #24]	@ movhi
 940              		.loc 1 355 0
 941 008e 3146     		mov	r1, r6
 942 0090 1922     		movs	r2, #25
 943 0092 FFF7FEFF 		bl	_pal_lld_setgroupmode
 944              	.LVL110:
 945              		.loc 1 357 0
 946 0096 2046     		mov	r0, r4
 947 0098 40F29A22 		movw	r2, #666
 948 009c 4FF40051 		mov	r1, #8192
 949 00a0 FFF7FEFF 		bl	_pal_lld_setgroupmode
 950              	.LVL111:
 951              		.loc 1 359 0
 952 00a4 2046     		mov	r0, r4
 953 00a6 40F28222 		movw	r2, #642
 954 00aa 4FF48041 		mov	r1, #16384
 955 00ae FFF7FEFF 		bl	_pal_lld_setgroupmode
 956              	.LVL112:
 957              		.loc 1 360 0
 958 00b2 2046     		mov	r0, r4
 959 00b4 40F29A22 		movw	r2, #666
 960 00b8 4FF40041 		mov	r1, #32768
 961 00bc FFF7FEFF 		bl	_pal_lld_setgroupmode
 962              	.LVL113:
 963              		.loc 1 366 0
 964 00c0 3149     		ldr	r1, .L52+44
 965 00c2 3248     		ldr	r0, .L52+48
 966 00c4 FFF7FEFF 		bl	pwmStart
 967              	.LVL114:
 968              		.loc 1 367 0
 969 00c8 3146     		mov	r1, r6
ARM GAS  /tmp/ccQsbdz4.s 			page 18


 970 00ca 4FF48172 		mov	r2, #258
 971 00ce 3048     		ldr	r0, .L52+52
 972 00d0 FFF7FEFF 		bl	_pal_lld_setgroupmode
 973              	.LVL115:
 974              		.loc 1 368 0
 975 00d4 4FF48172 		mov	r2, #258
 976 00d8 4FF40051 		mov	r1, #8192
 977 00dc 2C48     		ldr	r0, .L52+52
 978 00de FFF7FEFF 		bl	_pal_lld_setgroupmode
 979              	.LVL116:
 980              		.loc 1 369 0
 981 00e2 4FF48172 		mov	r2, #258
 982 00e6 4FF48041 		mov	r1, #16384
 983 00ea 2948     		ldr	r0, .L52+52
 984 00ec FFF7FEFF 		bl	_pal_lld_setgroupmode
 985              	.LVL117:
 986              		.loc 1 395 0
 987 00f0 0024     		movs	r4, #0
 988              		.loc 1 370 0
 989 00f2 4FF48172 		mov	r2, #258
 990 00f6 4FF40041 		mov	r1, #32768
 991 00fa 2548     		ldr	r0, .L52+52
 992 00fc FFF7FEFF 		bl	_pal_lld_setgroupmode
 993              	.LVL118:
 994              		.loc 1 395 0
 995 0100 244B     		ldr	r3, .L52+56
 996 0102 0094     		str	r4, [sp]
 997 0104 4A22     		movs	r2, #74
 998 0106 4FF4A471 		mov	r1, #328
 999 010a 2348     		ldr	r0, .L52+60
 1000 010c FFF7FEFF 		bl	chThdCreateStatic
 1001              	.LVL119:
 1002              		.loc 1 403 0
 1003 0110 0094     		str	r4, [sp]
 1004 0112 224B     		ldr	r3, .L52+64
 1005 0114 2248     		ldr	r0, .L52+68
 1006 0116 4A22     		movs	r2, #74
 1007 0118 4FF4A471 		mov	r1, #328
 1008 011c FFF7FEFF 		bl	chThdCreateStatic
 1009              	.LVL120:
 1010              		.loc 1 414 0
 1011 0120 44B1     		cbz	r4, .L50
 1012              	.L46:
 1013              		.loc 1 422 0
 1014 0122 237F     		ldrb	r3, [r4, #28]	@ zero_extendqisi2
 1015 0124 0F2B     		cmp	r3, #15
 1016 0126 13D0     		beq	.L51
 1017              	.LVL121:
 1018              	.L47:
 1019              		.loc 1 428 0
 1020 0128 41F28830 		movw	r0, #5000
 1021 012c FFF7FEFF 		bl	chThdSleep
 1022              	.LVL122:
 1023              		.loc 1 414 0
 1024 0130 002C     		cmp	r4, #0
 1025 0132 F6D1     		bne	.L46
 1026              	.L50:
ARM GAS  /tmp/ccQsbdz4.s 			page 19


 1027              	.LVL123:
 1028              		.loc 1 415 0
 1029 0134 D5F85432 		ldr	r3, [r5, #596]
 1030 0138 1B68     		ldr	r3, [r3]
 1031 013a 1B78     		ldrb	r3, [r3]	@ zero_extendqisi2
 1032 013c 042B     		cmp	r3, #4
 1033 013e F3D1     		bne	.L47
 1034              		.loc 1 417 0
 1035 0140 4022     		movs	r2, #64
 1036 0142 40F6C801 		movw	r1, #2248
 1037 0146 1748     		ldr	r0, .L52+72
 1038 0148 FFF7FEFF 		bl	shellCreate
 1039              	.LVL124:
 1040 014c 0446     		mov	r4, r0
 1041              	.LVL125:
 1042 014e EBE7     		b	.L47
 1043              	.LVL126:
 1044              	.L51:
 1045              		.loc 1 424 0
 1046 0150 2046     		mov	r0, r4
 1047 0152 FFF7FEFF 		bl	chThdRelease
 1048              	.LVL127:
 1049              		.loc 1 425 0
 1050 0156 0024     		movs	r4, #0
 1051              	.LVL128:
 1052 0158 E6E7     		b	.L47
 1053              	.L53:
 1054 015a 00BF     		.align	2
 1055              	.L52:
 1056 015c 00000000 		.word	.LANCHOR1
 1057 0160 00000000 		.word	serusbcfg
 1058 0164 00040240 		.word	1073873920
 1059 0168 00080240 		.word	1073874944
 1060 016c 00000000 		.word	usbcfg
 1061 0170 00000000 		.word	SD2
 1062 0174 00000240 		.word	1073872896
 1063 0178 00000000 		.word	.LANCHOR5
 1064 017c 00000000 		.word	SPID1
 1065 0180 00000000 		.word	.LANCHOR6
 1066 0184 00000000 		.word	SPID2
 1067 0188 00000000 		.word	.LANCHOR7
 1068 018c 00000000 		.word	PWMD4
 1069 0190 000C0240 		.word	1073875968
 1070 0194 00000000 		.word	Thread1
 1071 0198 00000000 		.word	.LANCHOR8
 1072 019c 00000000 		.word	Thread2
 1073 01a0 00000000 		.word	.LANCHOR9
 1074 01a4 00000000 		.word	.LANCHOR10
 1075              		.cfi_endproc
 1076              	.LFE265:
 1077              		.size	main, .-main
 1078              		.global	SDU1
 1079              		.section	.rodata.commands,"a",%progbits
 1080              		.align	2
 1081              		.type	commands, %object
 1082              		.size	commands, 32
 1083              	commands:
ARM GAS  /tmp/ccQsbdz4.s 			page 20


 1084 0000 94010000 		.word	.LC27
 1085 0004 00000000 		.word	cmd_mem
 1086 0008 98010000 		.word	.LC28
 1087 000c 00000000 		.word	cmd_threads
 1088 0010 A0010000 		.word	.LC29
 1089 0014 00000000 		.word	cmd_test
 1090 0018 00000000 		.word	0
 1091 001c 00000000 		.word	0
 1092              		.section	.bss.ybuf.7857,"aw",%nobits
 1093              		.align	2
 1094              		.set	.LANCHOR3,. + 0
 1095              		.type	ybuf.7857, %object
 1096              		.size	ybuf.7857, 4
 1097              	ybuf.7857:
 1098 0000 00000000 		.space	4
 1099              		.section	.bss.waThread2,"aw",%nobits
 1100              		.align	3
 1101              		.set	.LANCHOR9,. + 0
 1102              		.type	waThread2, %object
 1103              		.size	waThread2, 328
 1104              	waThread2:
 1105 0000 00000000 		.space	328
 1105      00000000 
 1105      00000000 
 1105      00000000 
 1105      00000000 
 1106              		.section	.bss.SDU1,"aw",%nobits
 1107              		.align	2
 1108              		.set	.LANCHOR1,. + 0
 1109              		.type	SDU1, %object
 1110              		.size	SDU1, 600
 1111              	SDU1:
 1112 0000 00000000 		.space	600
 1112      00000000 
 1112      00000000 
 1112      00000000 
 1112      00000000 
 1113              		.section	.bss.waThread1,"aw",%nobits
 1114              		.align	3
 1115              		.set	.LANCHOR8,. + 0
 1116              		.type	waThread1, %object
 1117              		.size	waThread1, 328
 1118              	waThread1:
 1119 0000 00000000 		.space	328
 1119      00000000 
 1119      00000000 
 1119      00000000 
 1119      00000000 
 1120              		.section	.rodata.states.7837,"a",%progbits
 1121              		.align	2
 1122              		.set	.LANCHOR4,. + 0
 1123              		.type	states.7837, %object
 1124              		.size	states.7837, 64
 1125              	states.7837:
 1126 0000 08010000 		.word	.LC11
 1127 0004 10010000 		.word	.LC12
 1128 0008 18010000 		.word	.LC13
ARM GAS  /tmp/ccQsbdz4.s 			page 21


 1129 000c 20010000 		.word	.LC14
 1130 0010 2C010000 		.word	.LC15
 1131 0014 34010000 		.word	.LC16
 1132 0018 3C010000 		.word	.LC17
 1133 001c 44010000 		.word	.LC18
 1134 0020 4C010000 		.word	.LC19
 1135 0024 58010000 		.word	.LC20
 1136 0028 60010000 		.word	.LC21
 1137 002c 68010000 		.word	.LC22
 1138 0030 74010000 		.word	.LC23
 1139 0034 7C010000 		.word	.LC24
 1140 0038 84010000 		.word	.LC25
 1141 003c 8C010000 		.word	.LC26
 1142              		.section	.rodata.spi2cfg,"a",%progbits
 1143              		.align	2
 1144              		.set	.LANCHOR6,. + 0
 1145              		.type	spi2cfg, %object
 1146              		.size	spi2cfg, 12
 1147              	spi2cfg:
 1148 0000 00000000 		.word	0
 1149 0004 00040240 		.word	1073873920
 1150 0008 0C00     		.short	12
 1151 000a 0000     		.short	0
 1152              		.section	.rodata.str1.4,"aMS",%progbits,1
 1153              		.align	2
 1154              	.LC0:
 1155 0000 73746D20 		.ascii	"stm sensor : %f, lm35 : %f\015\012\000"
 1155      73656E73 
 1155      6F72203A 
 1155      2025662C 
 1155      206C6D33 
 1156 001d 000000   		.space	3
 1157              	.LC1:
 1158 0020 72656164 		.ascii	"reader\000"
 1158      657200
 1159 0027 00       		.space	1
 1160              	.LC2:
 1161 0028 55736167 		.ascii	"Usage: test\015\012\000"
 1161      653A2074 
 1161      6573740D 
 1161      0A00
 1162 0036 0000     		.space	2
 1163              	.LC3:
 1164 0038 6F757420 		.ascii	"out of memory\015\012\000"
 1164      6F66206D 
 1164      656D6F72 
 1164      790D0A00 
 1165              	.LC4:
 1166 0048 55736167 		.ascii	"Usage: threads\015\012\000"
 1166      653A2074 
 1166      68726561 
 1166      64730D0A 
 1166      00
 1167 0059 000000   		.space	3
 1168              	.LC5:
 1169 005c 20202020 		.ascii	"    addr    stack prio refs     state\015\012\000"
 1169      61646472 
ARM GAS  /tmp/ccQsbdz4.s 			page 22


 1169      20202020 
 1169      73746163 
 1169      6B207072 
 1170              	.LC6:
 1171 0084 2530386C 		.ascii	"%08lx %08lx %4lu %4lu %9s\015\012\000"
 1171      78202530 
 1171      386C7820 
 1171      25346C75 
 1171      2025346C 
 1172              	.LC7:
 1173 00a0 55736167 		.ascii	"Usage: mem\015\012\000"
 1173      653A206D 
 1173      656D0D0A 
 1173      00
 1174 00ad 000000   		.space	3
 1175              	.LC8:
 1176 00b0 636F7265 		.ascii	"core free memory : %u bytes\015\012\000"
 1176      20667265 
 1176      65206D65 
 1176      6D6F7279 
 1176      203A2025 
 1177 00ce 0000     		.space	2
 1178              	.LC9:
 1179 00d0 68656170 		.ascii	"heap fragments   : %u\015\012\000"
 1179      20667261 
 1179      676D656E 
 1179      74732020 
 1179      203A2025 
 1180              	.LC10:
 1181 00e8 68656170 		.ascii	"heap free total  : %u bytes\015\012\000"
 1181      20667265 
 1181      6520746F 
 1181      74616C20 
 1181      203A2025 
 1182 0106 0000     		.space	2
 1183              	.LC11:
 1184 0108 52454144 		.ascii	"READY\000"
 1184      5900
 1185 010e 0000     		.space	2
 1186              	.LC12:
 1187 0110 43555252 		.ascii	"CURRENT\000"
 1187      454E5400 
 1188              	.LC13:
 1189 0118 57545354 		.ascii	"WTSTART\000"
 1189      41525400 
 1190              	.LC14:
 1191 0120 53555350 		.ascii	"SUSPENDED\000"
 1191      454E4445 
 1191      4400
 1192 012a 0000     		.space	2
 1193              	.LC15:
 1194 012c 51554555 		.ascii	"QUEUED\000"
 1194      454400
 1195 0133 00       		.space	1
 1196              	.LC16:
 1197 0134 57545345 		.ascii	"WTSEM\000"
 1197      4D00
ARM GAS  /tmp/ccQsbdz4.s 			page 23


 1198 013a 0000     		.space	2
 1199              	.LC17:
 1200 013c 57544D54 		.ascii	"WTMTX\000"
 1200      5800
 1201 0142 0000     		.space	2
 1202              	.LC18:
 1203 0144 5754434F 		.ascii	"WTCOND\000"
 1203      4E4400
 1204 014b 00       		.space	1
 1205              	.LC19:
 1206 014c 534C4545 		.ascii	"SLEEPING\000"
 1206      50494E47 
 1206      00
 1207 0155 000000   		.space	3
 1208              	.LC20:
 1209 0158 57544558 		.ascii	"WTEXIT\000"
 1209      495400
 1210 015f 00       		.space	1
 1211              	.LC21:
 1212 0160 57544F52 		.ascii	"WTOREVT\000"
 1212      45565400 
 1213              	.LC22:
 1214 0168 5754414E 		.ascii	"WTANDEVT\000"
 1214      44455654 
 1214      00
 1215 0171 000000   		.space	3
 1216              	.LC23:
 1217 0174 534E444D 		.ascii	"SNDMSGQ\000"
 1217      53475100 
 1218              	.LC24:
 1219 017c 534E444D 		.ascii	"SNDMSG\000"
 1219      534700
 1220 0183 00       		.space	1
 1221              	.LC25:
 1222 0184 57544D53 		.ascii	"WTMSG\000"
 1222      4700
 1223 018a 0000     		.space	2
 1224              	.LC26:
 1225 018c 46494E41 		.ascii	"FINAL\000"
 1225      4C00
 1226 0192 0000     		.space	2
 1227              	.LC27:
 1228 0194 6D656D00 		.ascii	"mem\000"
 1229              	.LC28:
 1230 0198 74687265 		.ascii	"threads\000"
 1230      61647300 
 1231              	.LC29:
 1232 01a0 74657374 		.ascii	"test\000"
 1232      00
 1233              		.section	.bss.xbuf.7856,"aw",%nobits
 1234              		.align	2
 1235              		.set	.LANCHOR2,. + 0
 1236              		.type	xbuf.7856, %object
 1237              		.size	xbuf.7856, 4
 1238              	xbuf.7856:
 1239 0000 00000000 		.space	4
 1240              		.section	.rodata.adcgrpcfg1,"a",%progbits
ARM GAS  /tmp/ccQsbdz4.s 			page 24


 1241              		.align	2
 1242              		.set	.LANCHOR0,. + 0
 1243              		.type	adcgrpcfg1, %object
 1244              		.size	adcgrpcfg1, 40
 1245              	adcgrpcfg1:
 1246 0000 00       		.byte	0
 1247 0001 00       		.space	1
 1248 0002 0200     		.short	2
 1249 0004 00000000 		.word	0
 1250 0008 00000000 		.word	adcerrorcallback
 1251 000c 00000000 		.word	0
 1252 0010 00000040 		.word	1073741824
 1253 0014 38001C00 		.word	1835064
 1254 0018 00000000 		.word	0
 1255 001c 00001000 		.word	1048576
 1256 0020 00000000 		.word	0
 1257 0024 0B020000 		.word	523
 1258              		.section	.rodata.pwmcfg,"a",%progbits
 1259              		.align	2
 1260              		.set	.LANCHOR7,. + 0
 1261              		.type	pwmcfg, %object
 1262              		.size	pwmcfg, 52
 1263              	pwmcfg:
 1264 0000 A0860100 		.word	100000
 1265 0004 80000000 		.word	128
 1266 0008 00000000 		.word	0
 1267 000c 01000000 		.word	1
 1268 0010 00000000 		.word	0
 1269 0014 01000000 		.word	1
 1270 0018 00000000 		.word	0
 1271 001c 01000000 		.word	1
 1272 0020 00000000 		.word	0
 1273 0024 01000000 		.word	1
 1274 0028 00000000 		.word	0
 1275 002c 00000000 		.word	0
 1276 0030 00000000 		.word	0
 1277              		.section	.rodata.shell_cfg1,"a",%progbits
 1278              		.align	2
 1279              		.set	.LANCHOR10,. + 0
 1280              		.type	shell_cfg1, %object
 1281              		.size	shell_cfg1, 8
 1282              	shell_cfg1:
 1283 0000 00000000 		.word	SDU1
 1284 0004 00000000 		.word	commands
 1285              		.section	.rodata.spi1cfg,"a",%progbits
 1286              		.align	2
 1287              		.set	.LANCHOR5,. + 0
 1288              		.type	spi1cfg, %object
 1289              		.size	spi1cfg, 12
 1290              	spi1cfg:
 1291 0000 00000000 		.word	0
 1292 0004 00100240 		.word	1073876992
 1293 0008 0300     		.short	3
 1294 000a 1B00     		.short	27
 1295              		.text
 1296              	.Letext0:
 1297              		.file 6 "/usr/lib/gcc/arm-none-eabi/5.3.1/include/stddef.h"
ARM GAS  /tmp/ccQsbdz4.s 			page 25


 1298              		.file 7 "/usr/arm-none-eabi/include/machine/_default_types.h"
 1299              		.file 8 "/usr/arm-none-eabi/include/sys/_stdint.h"
 1300              		.file 9 "/home/selim/working/ChibiOS/os/rt/ports/ARMCMx/compilers/GCC/chtypes.h"
 1301              		.file 10 "/home/selim/working/ChibiOS/os/rt/include/chsystypes.h"
 1302              		.file 11 "/home/selim/working/ChibiOS/os/rt/include/chschd.h"
 1303              		.file 12 "/home/selim/working/ChibiOS/os/ext/CMSIS/ST/stm32f407xx.h"
 1304              		.file 13 "/home/selim/working/ChibiOS/os/rt/ports/ARMCMx/chcore.h"
 1305              		.file 14 "/home/selim/working/ChibiOS/os/rt/ports/ARMCMx/chcore_v7m.h"
 1306              		.file 15 "/home/selim/working/ChibiOS/os/hal/ports/STM32/LLD/TIMv1/stm32_tim.h"
 1307              		.file 16 "/home/selim/working/ChibiOS/os/rt/include/chtm.h"
 1308              		.file 17 "/home/selim/working/ChibiOS/os/rt/include/chsem.h"
 1309              		.file 18 "/home/selim/working/ChibiOS/os/rt/include/chmtx.h"
 1310              		.file 19 "/home/selim/working/ChibiOS/os/rt/include/chevents.h"
 1311              		.file 20 "/home/selim/working/ChibiOS/os/rt/include/chqueues.h"
 1312              		.file 21 "/home/selim/working/ChibiOS/os/rt/include/chstreams.h"
 1313              		.file 22 "/home/selim/working/ChibiOS/os/hal/ports/STM32/STM32F4xx/stm32_dma.h"
 1314              		.file 23 "/home/selim/working/ChibiOS/os/hal/ports/STM32/LLD/GPIOv2/pal_lld.h"
 1315              		.file 24 "/home/selim/working/ChibiOS/os/hal/include/adc.h"
 1316              		.file 25 "/home/selim/working/ChibiOS/os/hal/ports/STM32/STM32F4xx/adc_lld.h"
 1317              		.file 26 "/home/selim/working/ChibiOS/os/hal/include/pwm.h"
 1318              		.file 27 "/home/selim/working/ChibiOS/os/hal/ports/STM32/LLD/TIMv1/pwm_lld.h"
 1319              		.file 28 "/home/selim/working/ChibiOS/os/hal/include/serial.h"
 1320              		.file 29 "/home/selim/working/ChibiOS/os/hal/include/spi.h"
 1321              		.file 30 "/home/selim/working/ChibiOS/os/hal/ports/STM32/LLD/SPIv1/spi_lld.h"
 1322              		.file 31 "/home/selim/working/ChibiOS/os/hal/include/usb.h"
 1323              		.file 32 "/home/selim/working/ChibiOS/os/hal/ports/STM32/LLD/OTGv1/usb_lld.h"
 1324              		.file 33 "/home/selim/working/ChibiOS/os/hal/ports/STM32/LLD/OTGv1/stm32_otg.h"
 1325              		.file 34 "/home/selim/working/ChibiOS/os/hal/include/serial_usb.h"
 1326              		.file 35 "/usr/lib/gcc/arm-none-eabi/5.3.1/include/stdarg.h"
 1327              		.file 36 "<built-in>"
 1328              		.file 37 "/home/selim/working/ChibiOS/os/various/shell.h"
 1329              		.file 38 "/home/selim/working/ChibiOS/os/rt/ports/ARMCMx/chcore_timer.h"
 1330              		.file 39 "/home/selim/working/ChibiOS/os/rt/include/chsys.h"
 1331              		.file 40 "/home/selim/working/ChibiOS/os/rt/include/chvt.h"
 1332              		.file 41 "/home/selim/working/ChibiOS/os/ext/CMSIS/include/core_cm4.h"
 1333              		.file 42 "/home/selim/working/ChibiOS/os/hal/ports/STM32/LLD/USARTv1/serial_lld.h"
 1334              		.file 43 "usbcfg.h"
 1335              		.file 44 "/home/selim/working/ChibiOS/os/various/devices_lib/accel/lis302dl.h"
 1336              		.file 45 "/home/selim/working/ChibiOS/os/rt/include/chdynamic.h"
 1337              		.file 46 "/home/selim/working/ChibiOS/os/rt/include/chregistry.h"
 1338              		.file 47 "/home/selim/working/ChibiOS/os/rt/include/chheap.h"
 1339              		.file 48 "/home/selim/working/ChibiOS/os/rt/include/chmemcore.h"
 1340              		.file 49 "/home/selim/working/ChibiOS/os/hal/include/hal.h"