ARM GAS  /tmp/cc4Hnzzp.s 			page 1


   1              		.syntax unified
   2              		.cpu cortex-m4
   3              		.fpu softvfp
   4              		.eabi_attribute 20, 1
   5              		.eabi_attribute 21, 1
   6              		.eabi_attribute 23, 3
   7              		.eabi_attribute 24, 1
   8              		.eabi_attribute 25, 1
   9              		.eabi_attribute 26, 1
  10              		.eabi_attribute 30, 2
  11              		.eabi_attribute 34, 1
  12              		.eabi_attribute 18, 4
  13              		.thumb
  14              		.syntax unified
  15              		.file	"spi_lld.c"
  16              		.text
  17              	.Ltext0:
  18              		.cfi_sections	.debug_frame
  19              		.section	.text.spi_lld_serve_tx_interrupt,"ax",%progbits
  20              		.align	2
  21              		.p2align 4,,15
  22              		.thumb
  23              		.thumb_func
  24              		.type	spi_lld_serve_tx_interrupt, %function
  25              	spi_lld_serve_tx_interrupt:
  26              	.LFB259:
  27              		.file 1 "/home/selim/working/ChibiOS/os/hal/ports/STM32/LLD/SPIv1/spi_lld.c"
  28              		.loc 1 158 0
  29              		.cfi_startproc
  30              		@ args = 0, pretend = 0, frame = 0
  31              		@ frame_needed = 0, uses_anonymous_args = 0
  32              		@ link register save eliminated.
  33              	.LVL0:
  34              		.loc 1 163 0
  35 0000 11F00C0F 		tst	r1, #12
  36 0004 00D1     		bne	.L4
  37 0006 7047     		bx	lr
  38              	.L4:
  39              	.LVL1:
  40              	.LBB56:
  41              	.LBB57:
  42              		.file 2 "/home/selim/working/ChibiOS/os/hal/osal/rt/osal.h"
  43              		.loc 2 416 0
  44 0008 0148     		ldr	r0, .L5
  45              	.LVL2:
  46 000a FFF7FEBF 		b	chSysHalt
  47              	.LVL3:
  48              	.L6:
  49 000e 00BF     		.align	2
  50              	.L5:
  51 0010 00000000 		.word	.LC0
  52              	.LBE57:
  53              	.LBE56:
  54              		.cfi_endproc
  55              	.LFE259:
  56              		.size	spi_lld_serve_tx_interrupt, .-spi_lld_serve_tx_interrupt
  57              		.section	.text.spi_lld_serve_rx_interrupt,"ax",%progbits
ARM GAS  /tmp/cc4Hnzzp.s 			page 2


  58              		.align	2
  59              		.p2align 4,,15
  60              		.thumb
  61              		.thumb_func
  62              		.type	spi_lld_serve_rx_interrupt, %function
  63              	spi_lld_serve_rx_interrupt:
  64              	.LFB258:
  65              		.loc 1 132 0
  66              		.cfi_startproc
  67              		@ args = 0, pretend = 0, frame = 0
  68              		@ frame_needed = 0, uses_anonymous_args = 0
  69              	.LVL4:
  70              		.loc 1 136 0
  71 0000 11F00C0F 		tst	r1, #12
  72              		.loc 1 132 0
  73 0004 38B5     		push	{r3, r4, r5, lr}
  74              		.cfi_def_cfa_offset 16
  75              		.cfi_offset 3, -16
  76              		.cfi_offset 4, -12
  77              		.cfi_offset 5, -8
  78              		.cfi_offset 14, -4
  79              		.loc 1 132 0
  80 0006 0446     		mov	r4, r0
  81              		.loc 1 136 0
  82 0008 34D1     		bne	.L22
  83              	.LVL5:
  84              	.L8:
  85              		.loc 1 144 0
  86 000a 606A     		ldr	r0, [r4, #36]
  87 000c 0268     		ldr	r2, [r0]
  88 000e 1368     		ldr	r3, [r2]
  89 0010 23F01F03 		bic	r3, r3, #31
  90 0014 1360     		str	r3, [r2]
  91              	.L9:
  92              		.loc 1 144 0 is_stmt 0 discriminator 2
  93 0016 1368     		ldr	r3, [r2]
  94 0018 D907     		lsls	r1, r3, #31
  95 001a FCD4     		bmi	.L9
  96              		.loc 1 144 0 discriminator 3
  97 001c 057A     		ldrb	r5, [r0, #8]	@ zero_extendqisi2
  98              		.loc 1 145 0 is_stmt 1 discriminator 3
  99 001e 216A     		ldr	r1, [r4, #32]
 100              		.loc 1 144 0 discriminator 3
 101 0020 4068     		ldr	r0, [r0, #4]
 102              		.loc 1 145 0 discriminator 3
 103 0022 0A68     		ldr	r2, [r1]
 104              		.loc 1 144 0 discriminator 3
 105 0024 3D23     		movs	r3, #61
 106 0026 AB40     		lsls	r3, r3, r5
 107 0028 0360     		str	r3, [r0]
 108              		.loc 1 145 0 discriminator 3
 109 002a 1368     		ldr	r3, [r2]
 110 002c 23F01F03 		bic	r3, r3, #31
 111 0030 1360     		str	r3, [r2]
 112              	.L10:
 113              		.loc 1 145 0 is_stmt 0 discriminator 2
 114 0032 1368     		ldr	r3, [r2]
ARM GAS  /tmp/cc4Hnzzp.s 			page 3


 115 0034 DB07     		lsls	r3, r3, #31
 116 0036 FCD4     		bmi	.L10
 117              		.loc 1 149 0 is_stmt 1 discriminator 3
 118 0038 6368     		ldr	r3, [r4, #4]
 119              		.loc 1 145 0 discriminator 3
 120 003a 087A     		ldrb	r0, [r1, #8]	@ zero_extendqisi2
 121              		.loc 1 149 0 discriminator 3
 122 003c 1A68     		ldr	r2, [r3]
 123              		.loc 1 145 0 discriminator 3
 124 003e 4968     		ldr	r1, [r1, #4]
 125 0040 3D23     		movs	r3, #61
 126 0042 8340     		lsls	r3, r3, r0
 127 0044 0B60     		str	r3, [r1]
 128              		.loc 1 149 0 discriminator 3
 129 0046 92B1     		cbz	r2, .L11
 130              		.loc 1 149 0 is_stmt 0 discriminator 1
 131 0048 0423     		movs	r3, #4
 132 004a 2370     		strb	r3, [r4]
 133 004c 2046     		mov	r0, r4
 134 004e 9047     		blx	r2
 135              	.LVL6:
 136 0050 2378     		ldrb	r3, [r4]	@ zero_extendqisi2
 137 0052 042B     		cmp	r3, #4
 138 0054 0BD0     		beq	.L11
 139              	.L12:
 140              	.LVL7:
 141              	.LBB58:
 142              	.LBB59:
 143              	.LBB60:
 144              	.LBB61:
 145              	.LBB62:
 146              	.LBB63:
 147              		.file 3 "/home/selim/working/ChibiOS/os/ext/CMSIS/include/core_cmFunc.h"
 148              		.loc 3 546 0 is_stmt 1 discriminator 4
 149 0056 2023     		movs	r3, #32
 150              		.syntax unified
 151              	@ 546 "/home/selim/working/ChibiOS/os/ext/CMSIS/include/core_cmFunc.h" 1
 152 0058 83F31188 		MSR basepri, r3
 153              	@ 0 "" 2
 154              	.LVL8:
 155              		.thumb
 156              		.syntax unified
 157              	.LBE63:
 158              	.LBE62:
 159              	.LBE61:
 160              	.LBE60:
 161              	.LBE59:
 162              	.LBE58:
 163              	.LBB64:
 164              	.LBB65:
 165              		.loc 2 682 0 discriminator 4
 166 005c 0021     		movs	r1, #0
 167 005e 04F10800 		add	r0, r4, #8
 168              	.LVL9:
 169 0062 FFF7FEFF 		bl	chThdResumeI
 170              	.LVL10:
 171              	.LBE65:
ARM GAS  /tmp/cc4Hnzzp.s 			page 4


 172              	.LBE64:
 173              	.LBB66:
 174              	.LBB67:
 175              	.LBB68:
 176              	.LBB69:
 177              	.LBB70:
 178              	.LBB71:
 179              		.loc 3 546 0 discriminator 4
 180 0066 0023     		movs	r3, #0
 181              		.syntax unified
 182              	@ 546 "/home/selim/working/ChibiOS/os/ext/CMSIS/include/core_cmFunc.h" 1
 183 0068 83F31188 		MSR basepri, r3
 184              	@ 0 "" 2
 185              	.LVL11:
 186              		.thumb
 187              		.syntax unified
 188 006c 38BD     		pop	{r3, r4, r5, pc}
 189              	.LVL12:
 190              	.L11:
 191              	.LBE71:
 192              	.LBE70:
 193              	.LBE69:
 194              	.LBE68:
 195              	.LBE67:
 196              	.LBE66:
 197              		.loc 1 149 0 discriminator 3
 198 006e 0223     		movs	r3, #2
 199 0070 2370     		strb	r3, [r4]
 200 0072 F0E7     		b	.L12
 201              	.LVL13:
 202              	.L22:
 203              	.LBB72:
 204              	.LBB73:
 205              		.loc 2 416 0
 206 0074 0148     		ldr	r0, .L23
 207              	.LVL14:
 208 0076 FFF7FEFF 		bl	chSysHalt
 209              	.LVL15:
 210 007a C6E7     		b	.L8
 211              	.L24:
 212              		.align	2
 213              	.L23:
 214 007c 00000000 		.word	.LC0
 215              	.LBE73:
 216              	.LBE72:
 217              		.cfi_endproc
 218              	.LFE258:
 219              		.size	spi_lld_serve_rx_interrupt, .-spi_lld_serve_rx_interrupt
 220              		.section	.text.spi_lld_init,"ax",%progbits
 221              		.align	2
 222              		.p2align 4,,15
 223              		.global	spi_lld_init
 224              		.thumb
 225              		.thumb_func
 226              		.type	spi_lld_init, %function
 227              	spi_lld_init:
 228              	.LFB260:
ARM GAS  /tmp/cc4Hnzzp.s 			page 5


 229              		.loc 1 185 0
 230              		.cfi_startproc
 231              		@ args = 0, pretend = 0, frame = 0
 232              		@ frame_needed = 0, uses_anonymous_args = 0
 233 0000 70B5     		push	{r4, r5, r6, lr}
 234              		.cfi_def_cfa_offset 16
 235              		.cfi_offset 4, -16
 236              		.cfi_offset 5, -12
 237              		.cfi_offset 6, -8
 238              		.cfi_offset 14, -4
 239              		.loc 1 190 0
 240 0002 114E     		ldr	r6, .L27
 241              		.loc 1 187 0
 242 0004 114B     		ldr	r3, .L27+4
 243              		.loc 1 208 0
 244 0006 124C     		ldr	r4, .L27+8
 245              		.loc 1 192 0
 246 0008 124D     		ldr	r5, .L27+12
 247              		.loc 1 187 0
 248 000a 4FF6FF72 		movw	r2, #65535
 249              		.loc 1 190 0
 250 000e 3046     		mov	r0, r6
 251              		.loc 1 187 0
 252 0010 1A80     		strh	r2, [r3]	@ movhi
 253              		.loc 1 190 0
 254 0012 FFF7FEFF 		bl	spiObjectInit
 255              	.LVL16:
 256              		.loc 1 191 0
 257 0016 1049     		ldr	r1, .L27+16
 258              		.loc 1 194 0
 259 0018 104A     		ldr	r2, .L27+20
 260              		.loc 1 200 0
 261 001a 114B     		ldr	r3, .L27+24
 262              		.loc 1 191 0
 263 001c F161     		str	r1, [r6, #28]
 264              		.loc 1 208 0
 265 001e 2046     		mov	r0, r4
 266              		.loc 1 193 0
 267 0020 05F12401 		add	r1, r5, #36
 268              		.loc 1 192 0
 269 0024 3562     		str	r5, [r6, #32]
 270              		.loc 1 193 0
 271 0026 7162     		str	r1, [r6, #36]
 272              		.loc 1 194 0
 273 0028 B262     		str	r2, [r6, #40]
 274              		.loc 1 200 0
 275 002a F362     		str	r3, [r6, #44]
 276              		.loc 1 208 0
 277 002c FFF7FEFF 		bl	spiObjectInit
 278              	.LVL17:
 279              		.loc 1 209 0
 280 0030 0C49     		ldr	r1, .L27+28
 281              		.loc 1 212 0
 282 0032 0D4A     		ldr	r2, .L27+32
 283              		.loc 1 218 0
 284 0034 0D4B     		ldr	r3, .L27+36
 285              		.loc 1 209 0
ARM GAS  /tmp/cc4Hnzzp.s 			page 6


 286 0036 E161     		str	r1, [r4, #28]
 287              		.loc 1 210 0
 288 0038 A5F13C01 		sub	r1, r5, #60
 289              		.loc 1 211 0
 290 003c 303D     		subs	r5, r5, #48
 291              		.loc 1 210 0
 292 003e 2162     		str	r1, [r4, #32]
 293              		.loc 1 211 0
 294 0040 6562     		str	r5, [r4, #36]
 295              		.loc 1 212 0
 296 0042 A262     		str	r2, [r4, #40]
 297              		.loc 1 218 0
 298 0044 E362     		str	r3, [r4, #44]
 299 0046 70BD     		pop	{r4, r5, r6, pc}
 300              	.L28:
 301              		.align	2
 302              	.L27:
 303 0048 00000000 		.word	.LANCHOR1
 304 004c 00000000 		.word	.LANCHOR0
 305 0050 00000000 		.word	.LANCHOR2
 306 0054 60000000 		.word	_stm32_dma_streams+96
 307 0058 00300140 		.word	1073819648
 308 005c 16000106 		.word	100728854
 309 0060 46000106 		.word	100728902
 310 0064 00380040 		.word	1073756160
 311 0068 16000100 		.word	65558
 312 006c 46000100 		.word	65606
 313              		.cfi_endproc
 314              	.LFE260:
 315              		.size	spi_lld_init, .-spi_lld_init
 316              		.section	.text.spi_lld_start,"ax",%progbits
 317              		.align	2
 318              		.p2align 4,,15
 319              		.global	spi_lld_start
 320              		.thumb
 321              		.thumb_func
 322              		.type	spi_lld_start, %function
 323              	spi_lld_start:
 324              	.LFB261:
 325              		.loc 1 305 0
 326              		.cfi_startproc
 327              		@ args = 0, pretend = 0, frame = 0
 328              		@ frame_needed = 0, uses_anonymous_args = 0
 329              	.LVL18:
 330              		.loc 1 308 0
 331 0000 0378     		ldrb	r3, [r0]	@ zero_extendqisi2
 332 0002 012B     		cmp	r3, #1
 333              		.loc 1 305 0
 334 0004 10B5     		push	{r4, lr}
 335              		.cfi_def_cfa_offset 8
 336              		.cfi_offset 4, -8
 337              		.cfi_offset 14, -4
 338              		.loc 1 305 0
 339 0006 0446     		mov	r4, r0
 340              		.loc 1 308 0
 341 0008 1DD0     		beq	.L36
 342 000a C369     		ldr	r3, [r0, #28]
ARM GAS  /tmp/cc4Hnzzp.s 			page 7


 343              	.LVL19:
 344              	.L30:
 345              		.loc 1 412 0
 346 000c 6268     		ldr	r2, [r4, #4]
 347              		.loc 1 414 0
 348 000e A06A     		ldr	r0, [r4, #40]
 349              		.loc 1 412 0
 350 0010 5289     		ldrh	r2, [r2, #10]
 351              		.loc 1 416 0
 352 0012 E16A     		ldr	r1, [r4, #44]
 353              		.loc 1 414 0
 354 0014 20F4F040 		bic	r0, r0, #30720
 355              		.loc 1 416 0
 356 0018 21F4F041 		bic	r1, r1, #30720
 357              		.loc 1 412 0
 358 001c 12F4006F 		tst	r2, #2048
 359              		.loc 1 421 0
 360 0020 1CBF     		itt	ne
 361 0022 40F42050 		orrne	r0, r0, #10240
 362              		.loc 1 423 0
 363 0026 41F42051 		orrne	r1, r1, #10240
 364              		.loc 1 421 0
 365 002a A062     		str	r0, [r4, #40]
 366              		.loc 1 423 0
 367 002c E162     		str	r1, [r4, #44]
 368              		.loc 1 428 0
 369 002e 42F44172 		orr	r2, r2, #772
 370              		.loc 1 427 0
 371 0032 0020     		movs	r0, #0
 372              		.loc 1 430 0
 373 0034 0721     		movs	r1, #7
 374              		.loc 1 427 0
 375 0036 1860     		str	r0, [r3]
 376              		.loc 1 428 0
 377 0038 1A60     		str	r2, [r3]
 378              		.loc 1 430 0
 379 003a 5960     		str	r1, [r3, #4]
 380              		.loc 1 431 0
 381 003c 1A68     		ldr	r2, [r3]
 382 003e 42F04002 		orr	r2, r2, #64
 383 0042 1A60     		str	r2, [r3]
 384 0044 10BD     		pop	{r4, pc}
 385              	.LVL20:
 386              	.L36:
 387              		.loc 1 310 0
 388 0046 1A4B     		ldr	r3, .L41
 389 0048 9842     		cmp	r0, r3
 390 004a 0CD0     		beq	.L39
 391              		.loc 1 326 0
 392 004c 194B     		ldr	r3, .L41+4
 393 004e 9842     		cmp	r0, r3
 394 0050 1BD0     		beq	.L40
 395              	.LVL21:
 396              	.L32:
 397              		.loc 1 407 0
 398 0052 216A     		ldr	r1, [r4, #32]
 399              		.loc 1 408 0
ARM GAS  /tmp/cc4Hnzzp.s 			page 8


 400 0054 626A     		ldr	r2, [r4, #36]
 401              		.loc 1 407 0
 402 0056 E369     		ldr	r3, [r4, #28]
 403 0058 0868     		ldr	r0, [r1]
 404              		.loc 1 408 0
 405 005a 1168     		ldr	r1, [r2]
 406              		.loc 1 407 0
 407 005c 03F10C02 		add	r2, r3, #12
 408 0060 8260     		str	r2, [r0, #8]
 409              		.loc 1 408 0
 410 0062 8A60     		str	r2, [r1, #8]
 411 0064 D2E7     		b	.L30
 412              	.LVL22:
 413              	.L39:
 414              	.LBB74:
 415              		.loc 1 312 0
 416 0066 0346     		mov	r3, r0
 417 0068 134A     		ldr	r2, .L41+8
 418 006a 006A     		ldr	r0, [r0, #32]
 419              	.LVL23:
 420 006c 0A21     		movs	r1, #10
 421 006e FFF7FEFF 		bl	dmaStreamAllocate
 422              	.LVL24:
 423              		.loc 1 317 0
 424 0072 2346     		mov	r3, r4
 425 0074 114A     		ldr	r2, .L41+12
 426 0076 606A     		ldr	r0, [r4, #36]
 427 0078 0A21     		movs	r1, #10
 428 007a FFF7FEFF 		bl	dmaStreamAllocate
 429              	.LVL25:
 430              		.loc 1 322 0
 431 007e 104A     		ldr	r2, .L41+16
 432 0080 536C     		ldr	r3, [r2, #68]
 433 0082 43F48053 		orr	r3, r3, #4096
 434 0086 5364     		str	r3, [r2, #68]
 435 0088 E3E7     		b	.L32
 436              	.LVL26:
 437              	.L40:
 438              	.LBE74:
 439              	.LBB75:
 440              		.loc 1 328 0
 441 008a 0346     		mov	r3, r0
 442 008c 0A4A     		ldr	r2, .L41+8
 443 008e 006A     		ldr	r0, [r0, #32]
 444              	.LVL27:
 445 0090 0A21     		movs	r1, #10
 446 0092 FFF7FEFF 		bl	dmaStreamAllocate
 447              	.LVL28:
 448              		.loc 1 333 0
 449 0096 2346     		mov	r3, r4
 450 0098 084A     		ldr	r2, .L41+12
 451 009a 606A     		ldr	r0, [r4, #36]
 452 009c 0A21     		movs	r1, #10
 453 009e FFF7FEFF 		bl	dmaStreamAllocate
 454              	.LVL29:
 455              		.loc 1 338 0
 456 00a2 074A     		ldr	r2, .L41+16
ARM GAS  /tmp/cc4Hnzzp.s 			page 9


 457 00a4 136C     		ldr	r3, [r2, #64]
 458 00a6 43F48043 		orr	r3, r3, #16384
 459 00aa 1364     		str	r3, [r2, #64]
 460 00ac D1E7     		b	.L32
 461              	.L42:
 462 00ae 00BF     		.align	2
 463              	.L41:
 464 00b0 00000000 		.word	.LANCHOR1
 465 00b4 00000000 		.word	.LANCHOR2
 466 00b8 00000000 		.word	spi_lld_serve_rx_interrupt
 467 00bc 00000000 		.word	spi_lld_serve_tx_interrupt
 468 00c0 00380240 		.word	1073887232
 469              	.LBE75:
 470              		.cfi_endproc
 471              	.LFE261:
 472              		.size	spi_lld_start, .-spi_lld_start
 473              		.section	.text.spi_lld_stop,"ax",%progbits
 474              		.align	2
 475              		.p2align 4,,15
 476              		.global	spi_lld_stop
 477              		.thumb
 478              		.thumb_func
 479              		.type	spi_lld_stop, %function
 480              	spi_lld_stop:
 481              	.LFB262:
 482              		.loc 1 441 0
 483              		.cfi_startproc
 484              		@ args = 0, pretend = 0, frame = 0
 485              		@ frame_needed = 0, uses_anonymous_args = 0
 486              	.LVL30:
 487              		.loc 1 444 0
 488 0000 0378     		ldrb	r3, [r0]	@ zero_extendqisi2
 489 0002 022B     		cmp	r3, #2
 490 0004 00D0     		beq	.L50
 491 0006 7047     		bx	lr
 492              	.L50:
 493              		.loc 1 447 0
 494 0008 C369     		ldr	r3, [r0, #28]
 495              		.loc 1 441 0
 496 000a 10B5     		push	{r4, lr}
 497              		.cfi_def_cfa_offset 8
 498              		.cfi_offset 4, -8
 499              		.cfi_offset 14, -4
 500              		.loc 1 447 0
 501 000c 0022     		movs	r2, #0
 502 000e 0446     		mov	r4, r0
 503              		.loc 1 449 0
 504 0010 006A     		ldr	r0, [r0, #32]
 505              	.LVL31:
 506              		.loc 1 447 0
 507 0012 1A60     		str	r2, [r3]
 508              		.loc 1 448 0
 509 0014 5A60     		str	r2, [r3, #4]
 510              		.loc 1 449 0
 511 0016 FFF7FEFF 		bl	dmaStreamRelease
 512              	.LVL32:
 513              		.loc 1 450 0
ARM GAS  /tmp/cc4Hnzzp.s 			page 10


 514 001a 606A     		ldr	r0, [r4, #36]
 515 001c FFF7FEFF 		bl	dmaStreamRelease
 516              	.LVL33:
 517              		.loc 1 453 0
 518 0020 094B     		ldr	r3, .L53
 519 0022 9C42     		cmp	r4, r3
 520 0024 09D0     		beq	.L51
 521              		.loc 1 457 0
 522 0026 094B     		ldr	r3, .L53+4
 523 0028 9C42     		cmp	r4, r3
 524 002a 00D0     		beq	.L52
 525              	.L43:
 526 002c 10BD     		pop	{r4, pc}
 527              	.LVL34:
 528              	.L52:
 529              		.loc 1 458 0
 530 002e 084A     		ldr	r2, .L53+8
 531 0030 136C     		ldr	r3, [r2, #64]
 532 0032 23F48043 		bic	r3, r3, #16384
 533 0036 1364     		str	r3, [r2, #64]
 534              		.loc 1 477 0
 535 0038 F8E7     		b	.L43
 536              	.L51:
 537              		.loc 1 454 0
 538 003a 054A     		ldr	r2, .L53+8
 539 003c 536C     		ldr	r3, [r2, #68]
 540 003e 23F48053 		bic	r3, r3, #4096
 541 0042 5364     		str	r3, [r2, #68]
 542 0044 10BD     		pop	{r4, pc}
 543              	.LVL35:
 544              	.L54:
 545 0046 00BF     		.align	2
 546              	.L53:
 547 0048 00000000 		.word	.LANCHOR1
 548 004c 00000000 		.word	.LANCHOR2
 549 0050 00380240 		.word	1073887232
 550              		.cfi_endproc
 551              	.LFE262:
 552              		.size	spi_lld_stop, .-spi_lld_stop
 553              		.section	.text.spi_lld_select,"ax",%progbits
 554              		.align	2
 555              		.p2align 4,,15
 556              		.global	spi_lld_select
 557              		.thumb
 558              		.thumb_func
 559              		.type	spi_lld_select, %function
 560              	spi_lld_select:
 561              	.LFB263:
 562              		.loc 1 486 0
 563              		.cfi_startproc
 564              		@ args = 0, pretend = 0, frame = 0
 565              		@ frame_needed = 0, uses_anonymous_args = 0
 566              		@ link register save eliminated.
 567              	.LVL36:
 568              		.loc 1 488 0
 569 0000 4268     		ldr	r2, [r0, #4]
 570 0002 1189     		ldrh	r1, [r2, #8]
ARM GAS  /tmp/cc4Hnzzp.s 			page 11


 571 0004 5268     		ldr	r2, [r2, #4]
 572 0006 0123     		movs	r3, #1
 573 0008 8B40     		lsls	r3, r3, r1
 574 000a 9BB2     		uxth	r3, r3
 575 000c 5383     		strh	r3, [r2, #26]	@ movhi
 576 000e 7047     		bx	lr
 577              		.cfi_endproc
 578              	.LFE263:
 579              		.size	spi_lld_select, .-spi_lld_select
 580              		.section	.text.spi_lld_unselect,"ax",%progbits
 581              		.align	2
 582              		.p2align 4,,15
 583              		.global	spi_lld_unselect
 584              		.thumb
 585              		.thumb_func
 586              		.type	spi_lld_unselect, %function
 587              	spi_lld_unselect:
 588              	.LFB264:
 589              		.loc 1 499 0
 590              		.cfi_startproc
 591              		@ args = 0, pretend = 0, frame = 0
 592              		@ frame_needed = 0, uses_anonymous_args = 0
 593              		@ link register save eliminated.
 594              	.LVL37:
 595              		.loc 1 501 0
 596 0000 4268     		ldr	r2, [r0, #4]
 597 0002 1189     		ldrh	r1, [r2, #8]
 598 0004 5268     		ldr	r2, [r2, #4]
 599 0006 0123     		movs	r3, #1
 600 0008 8B40     		lsls	r3, r3, r1
 601 000a 9BB2     		uxth	r3, r3
 602 000c 1383     		strh	r3, [r2, #24]	@ movhi
 603 000e 7047     		bx	lr
 604              		.cfi_endproc
 605              	.LFE264:
 606              		.size	spi_lld_unselect, .-spi_lld_unselect
 607              		.section	.text.spi_lld_ignore,"ax",%progbits
 608              		.align	2
 609              		.p2align 4,,15
 610              		.global	spi_lld_ignore
 611              		.thumb
 612              		.thumb_func
 613              		.type	spi_lld_ignore, %function
 614              	spi_lld_ignore:
 615              	.LFB265:
 616              		.loc 1 515 0
 617              		.cfi_startproc
 618              		@ args = 0, pretend = 0, frame = 0
 619              		@ frame_needed = 0, uses_anonymous_args = 0
 620              		@ link register save eliminated.
 621              	.LVL38:
 622              		.loc 1 517 0
 623 0000 026A     		ldr	r2, [r0, #32]
 624              		.loc 1 521 0
 625 0002 436A     		ldr	r3, [r0, #36]
 626              		.loc 1 517 0
 627 0004 1268     		ldr	r2, [r2]
ARM GAS  /tmp/cc4Hnzzp.s 			page 12


 628              		.loc 1 521 0
 629 0006 1B68     		ldr	r3, [r3]
 630              		.loc 1 515 0
 631 0008 70B4     		push	{r4, r5, r6}
 632              		.cfi_def_cfa_offset 12
 633              		.cfi_offset 4, -12
 634              		.cfi_offset 5, -8
 635              		.cfi_offset 6, -4
 636              		.loc 1 519 0
 637 000a 856A     		ldr	r5, [r0, #40]
 638              		.loc 1 517 0
 639 000c 094E     		ldr	r6, .L59
 640              		.loc 1 523 0
 641 000e C06A     		ldr	r0, [r0, #44]
 642              	.LVL39:
 643              		.loc 1 521 0
 644 0010 094C     		ldr	r4, .L59+4
 645              		.loc 1 517 0
 646 0012 D660     		str	r6, [r2, #12]
 647              		.loc 1 518 0
 648 0014 5160     		str	r1, [r2, #4]
 649              		.loc 1 519 0
 650 0016 1560     		str	r5, [r2]
 651              		.loc 1 521 0
 652 0018 DC60     		str	r4, [r3, #12]
 653              		.loc 1 522 0
 654 001a 5960     		str	r1, [r3, #4]
 655              		.loc 1 523 0
 656 001c 1860     		str	r0, [r3]
 657              		.loc 1 525 0
 658 001e 1168     		ldr	r1, [r2]
 659              	.LVL40:
 660 0020 41F00101 		orr	r1, r1, #1
 661 0024 1160     		str	r1, [r2]
 662              		.loc 1 526 0
 663 0026 1A68     		ldr	r2, [r3]
 664 0028 42F00102 		orr	r2, r2, #1
 665 002c 1A60     		str	r2, [r3]
 666              		.loc 1 527 0
 667 002e 70BC     		pop	{r4, r5, r6}
 668              		.cfi_restore 6
 669              		.cfi_restore 5
 670              		.cfi_restore 4
 671              		.cfi_def_cfa_offset 0
 672 0030 7047     		bx	lr
 673              	.L60:
 674 0032 00BF     		.align	2
 675              	.L59:
 676 0034 00000000 		.word	.LANCHOR3
 677 0038 00000000 		.word	.LANCHOR0
 678              		.cfi_endproc
 679              	.LFE265:
 680              		.size	spi_lld_ignore, .-spi_lld_ignore
 681              		.section	.text.spi_lld_exchange,"ax",%progbits
 682              		.align	2
 683              		.p2align 4,,15
 684              		.global	spi_lld_exchange
ARM GAS  /tmp/cc4Hnzzp.s 			page 13


 685              		.thumb
 686              		.thumb_func
 687              		.type	spi_lld_exchange, %function
 688              	spi_lld_exchange:
 689              	.LFB266:
 690              		.loc 1 545 0
 691              		.cfi_startproc
 692              		@ args = 0, pretend = 0, frame = 0
 693              		@ frame_needed = 0, uses_anonymous_args = 0
 694              		@ link register save eliminated.
 695              	.LVL41:
 696 0000 F0B4     		push	{r4, r5, r6, r7}
 697              		.cfi_def_cfa_offset 16
 698              		.cfi_offset 4, -16
 699              		.cfi_offset 5, -12
 700              		.cfi_offset 6, -8
 701              		.cfi_offset 7, -4
 702              		.loc 1 547 0
 703 0002 046A     		ldr	r4, [r0, #32]
 704              		.loc 1 551 0
 705 0004 476A     		ldr	r7, [r0, #36]
 706              		.loc 1 549 0
 707 0006 866A     		ldr	r6, [r0, #40]
 708              		.loc 1 553 0
 709 0008 C56A     		ldr	r5, [r0, #44]
 710              		.loc 1 547 0
 711 000a 2468     		ldr	r4, [r4]
 712              		.loc 1 551 0
 713 000c 3868     		ldr	r0, [r7]
 714              	.LVL42:
 715              		.loc 1 547 0
 716 000e E360     		str	r3, [r4, #12]
 717              		.loc 1 549 0
 718 0010 46F48066 		orr	r6, r6, #1024
 719              		.loc 1 553 0
 720 0014 45F48065 		orr	r5, r5, #1024
 721              		.loc 1 548 0
 722 0018 6160     		str	r1, [r4, #4]
 723              		.loc 1 549 0
 724 001a 2660     		str	r6, [r4]
 725              		.loc 1 551 0
 726 001c C260     		str	r2, [r0, #12]
 727              		.loc 1 552 0
 728 001e 4160     		str	r1, [r0, #4]
 729              		.loc 1 553 0
 730 0020 0560     		str	r5, [r0]
 731              		.loc 1 555 0
 732 0022 2368     		ldr	r3, [r4]
 733              	.LVL43:
 734 0024 43F00103 		orr	r3, r3, #1
 735 0028 2360     		str	r3, [r4]
 736              		.loc 1 556 0
 737 002a 0368     		ldr	r3, [r0]
 738 002c 43F00103 		orr	r3, r3, #1
 739 0030 0360     		str	r3, [r0]
 740              		.loc 1 557 0
 741 0032 F0BC     		pop	{r4, r5, r6, r7}
ARM GAS  /tmp/cc4Hnzzp.s 			page 14


 742              		.cfi_restore 7
 743              		.cfi_restore 6
 744              		.cfi_restore 5
 745              		.cfi_restore 4
 746              		.cfi_def_cfa_offset 0
 747 0034 7047     		bx	lr
 748              		.cfi_endproc
 749              	.LFE266:
 750              		.size	spi_lld_exchange, .-spi_lld_exchange
 751 0036 00BF     		.section	.text.spi_lld_send,"ax",%progbits
 752              		.align	2
 753              		.p2align 4,,15
 754              		.global	spi_lld_send
 755              		.thumb
 756              		.thumb_func
 757              		.type	spi_lld_send, %function
 758              	spi_lld_send:
 759              	.LFB267:
 760              		.loc 1 572 0
 761              		.cfi_startproc
 762              		@ args = 0, pretend = 0, frame = 0
 763              		@ frame_needed = 0, uses_anonymous_args = 0
 764              		@ link register save eliminated.
 765              	.LVL44:
 766 0000 70B4     		push	{r4, r5, r6}
 767              		.cfi_def_cfa_offset 12
 768              		.cfi_offset 4, -12
 769              		.cfi_offset 5, -8
 770              		.cfi_offset 6, -4
 771              		.loc 1 578 0
 772 0002 436A     		ldr	r3, [r0, #36]
 773              		.loc 1 574 0
 774 0004 046A     		ldr	r4, [r0, #32]
 775              		.loc 1 580 0
 776 0006 C56A     		ldr	r5, [r0, #44]
 777              		.loc 1 574 0
 778 0008 2468     		ldr	r4, [r4]
 779              		.loc 1 578 0
 780 000a 1B68     		ldr	r3, [r3]
 781              		.loc 1 576 0
 782 000c 806A     		ldr	r0, [r0, #40]
 783              	.LVL45:
 784              		.loc 1 574 0
 785 000e 094E     		ldr	r6, .L65
 786 0010 E660     		str	r6, [r4, #12]
 787              		.loc 1 580 0
 788 0012 45F48065 		orr	r5, r5, #1024
 789              		.loc 1 575 0
 790 0016 6160     		str	r1, [r4, #4]
 791              		.loc 1 576 0
 792 0018 2060     		str	r0, [r4]
 793              		.loc 1 578 0
 794 001a DA60     		str	r2, [r3, #12]
 795              		.loc 1 579 0
 796 001c 5960     		str	r1, [r3, #4]
 797              		.loc 1 580 0
 798 001e 1D60     		str	r5, [r3]
ARM GAS  /tmp/cc4Hnzzp.s 			page 15


 799              		.loc 1 582 0
 800 0020 2268     		ldr	r2, [r4]
 801              	.LVL46:
 802 0022 42F00102 		orr	r2, r2, #1
 803 0026 2260     		str	r2, [r4]
 804              		.loc 1 583 0
 805 0028 1A68     		ldr	r2, [r3]
 806 002a 42F00102 		orr	r2, r2, #1
 807 002e 1A60     		str	r2, [r3]
 808              		.loc 1 584 0
 809 0030 70BC     		pop	{r4, r5, r6}
 810              		.cfi_restore 6
 811              		.cfi_restore 5
 812              		.cfi_restore 4
 813              		.cfi_def_cfa_offset 0
 814 0032 7047     		bx	lr
 815              	.L66:
 816              		.align	2
 817              	.L65:
 818 0034 00000000 		.word	.LANCHOR3
 819              		.cfi_endproc
 820              	.LFE267:
 821              		.size	spi_lld_send, .-spi_lld_send
 822              		.section	.text.spi_lld_receive,"ax",%progbits
 823              		.align	2
 824              		.p2align 4,,15
 825              		.global	spi_lld_receive
 826              		.thumb
 827              		.thumb_func
 828              		.type	spi_lld_receive, %function
 829              	spi_lld_receive:
 830              	.LFB268:
 831              		.loc 1 599 0
 832              		.cfi_startproc
 833              		@ args = 0, pretend = 0, frame = 0
 834              		@ frame_needed = 0, uses_anonymous_args = 0
 835              		@ link register save eliminated.
 836              	.LVL47:
 837 0000 70B4     		push	{r4, r5, r6}
 838              		.cfi_def_cfa_offset 12
 839              		.cfi_offset 4, -12
 840              		.cfi_offset 5, -8
 841              		.cfi_offset 6, -4
 842              		.loc 1 605 0
 843 0002 436A     		ldr	r3, [r0, #36]
 844              		.loc 1 601 0
 845 0004 046A     		ldr	r4, [r0, #32]
 846              		.loc 1 603 0
 847 0006 856A     		ldr	r5, [r0, #40]
 848              		.loc 1 601 0
 849 0008 2468     		ldr	r4, [r4]
 850              		.loc 1 605 0
 851 000a 1B68     		ldr	r3, [r3]
 852              		.loc 1 607 0
 853 000c C06A     		ldr	r0, [r0, #44]
 854              	.LVL48:
 855              		.loc 1 605 0
ARM GAS  /tmp/cc4Hnzzp.s 			page 16


 856 000e 094E     		ldr	r6, .L69
 857              		.loc 1 601 0
 858 0010 E260     		str	r2, [r4, #12]
 859              		.loc 1 603 0
 860 0012 45F48065 		orr	r5, r5, #1024
 861              		.loc 1 602 0
 862 0016 6160     		str	r1, [r4, #4]
 863              		.loc 1 603 0
 864 0018 2560     		str	r5, [r4]
 865              		.loc 1 605 0
 866 001a DE60     		str	r6, [r3, #12]
 867              		.loc 1 606 0
 868 001c 5960     		str	r1, [r3, #4]
 869              		.loc 1 607 0
 870 001e 1860     		str	r0, [r3]
 871              		.loc 1 609 0
 872 0020 2268     		ldr	r2, [r4]
 873              	.LVL49:
 874 0022 42F00102 		orr	r2, r2, #1
 875 0026 2260     		str	r2, [r4]
 876              		.loc 1 610 0
 877 0028 1A68     		ldr	r2, [r3]
 878 002a 42F00102 		orr	r2, r2, #1
 879 002e 1A60     		str	r2, [r3]
 880              		.loc 1 611 0
 881 0030 70BC     		pop	{r4, r5, r6}
 882              		.cfi_restore 6
 883              		.cfi_restore 5
 884              		.cfi_restore 4
 885              		.cfi_def_cfa_offset 0
 886 0032 7047     		bx	lr
 887              	.L70:
 888              		.align	2
 889              	.L69:
 890 0034 00000000 		.word	.LANCHOR0
 891              		.cfi_endproc
 892              	.LFE268:
 893              		.size	spi_lld_receive, .-spi_lld_receive
 894              		.section	.text.spi_lld_polled_exchange,"ax",%progbits
 895              		.align	2
 896              		.p2align 4,,15
 897              		.global	spi_lld_polled_exchange
 898              		.thumb
 899              		.thumb_func
 900              		.type	spi_lld_polled_exchange, %function
 901              	spi_lld_polled_exchange:
 902              	.LFB269:
 903              		.loc 1 625 0
 904              		.cfi_startproc
 905              		@ args = 0, pretend = 0, frame = 0
 906              		@ frame_needed = 0, uses_anonymous_args = 0
 907              		@ link register save eliminated.
 908              	.LVL50:
 909              		.loc 1 627 0
 910 0000 C269     		ldr	r2, [r0, #28]
 911 0002 D160     		str	r1, [r2, #12]
 912              	.L72:
ARM GAS  /tmp/cc4Hnzzp.s 			page 17


 913              		.loc 1 628 0 discriminator 1
 914 0004 9368     		ldr	r3, [r2, #8]
 915 0006 DB07     		lsls	r3, r3, #31
 916 0008 FCD5     		bpl	.L72
 917              		.loc 1 630 0
 918 000a D068     		ldr	r0, [r2, #12]
 919              	.LVL51:
 920              		.loc 1 631 0
 921 000c 80B2     		uxth	r0, r0
 922 000e 7047     		bx	lr
 923              		.cfi_endproc
 924              	.LFE269:
 925              		.size	spi_lld_polled_exchange, .-spi_lld_polled_exchange
 926              		.global	SPID2
 927              		.global	SPID1
 928              		.section	.bss.dummytx,"aw",%nobits
 929              		.align	1
 930              		.set	.LANCHOR0,. + 0
 931              		.type	dummytx, %object
 932              		.size	dummytx, 2
 933              	dummytx:
 934 0000 0000     		.space	2
 935              		.section	.bss.SPID1,"aw",%nobits
 936              		.align	2
 937              		.set	.LANCHOR1,. + 0
 938              		.type	SPID1, %object
 939              		.size	SPID1, 48
 940              	SPID1:
 941 0000 00000000 		.space	48
 941      00000000 
 941      00000000 
 941      00000000 
 941      00000000 
 942              		.section	.bss.SPID2,"aw",%nobits
 943              		.align	2
 944              		.set	.LANCHOR2,. + 0
 945              		.type	SPID2, %object
 946              		.size	SPID2, 48
 947              	SPID2:
 948 0000 00000000 		.space	48
 948      00000000 
 948      00000000 
 948      00000000 
 948      00000000 
 949              		.section	.rodata.str1.4,"aMS",%progbits,1
 950              		.align	2
 951              	.LC0:
 952 0000 444D4120 		.ascii	"DMA failure\000"
 952      6661696C 
 952      75726500 
 953              		.section	.bss.dummyrx,"aw",%nobits
 954              		.align	1
 955              		.set	.LANCHOR3,. + 0
 956              		.type	dummyrx, %object
 957              		.size	dummyrx, 2
 958              	dummyrx:
 959 0000 0000     		.space	2
ARM GAS  /tmp/cc4Hnzzp.s 			page 18


 960              		.text
 961              	.Letext0:
 962              		.file 4 "/usr/lib/gcc/arm-none-eabi/5.3.1/include/stddef.h"
 963              		.file 5 "/usr/arm-none-eabi/include/machine/_default_types.h"
 964              		.file 6 "/usr/arm-none-eabi/include/sys/_stdint.h"
 965              		.file 7 "/home/selim/working/ChibiOS/os/rt/ports/ARMCMx/compilers/GCC/chtypes.h"
 966              		.file 8 "/home/selim/working/ChibiOS/os/rt/include/chsystypes.h"
 967              		.file 9 "/home/selim/working/ChibiOS/os/rt/include/chschd.h"
 968              		.file 10 "/home/selim/working/ChibiOS/os/ext/CMSIS/ST/stm32f407xx.h"
 969              		.file 11 "/home/selim/working/ChibiOS/os/rt/ports/ARMCMx/chcore.h"
 970              		.file 12 "/home/selim/working/ChibiOS/os/rt/ports/ARMCMx/chcore_v7m.h"
 971              		.file 13 "/home/selim/working/ChibiOS/os/rt/include/chtm.h"
 972              		.file 14 "/home/selim/working/ChibiOS/os/rt/include/chsem.h"
 973              		.file 15 "/home/selim/working/ChibiOS/os/rt/include/chmtx.h"
 974              		.file 16 "/home/selim/working/ChibiOS/os/hal/ports/STM32/STM32F4xx/stm32_dma.h"
 975              		.file 17 "/home/selim/working/ChibiOS/os/hal/ports/STM32/LLD/GPIOv2/pal_lld.h"
 976              		.file 18 "/home/selim/working/ChibiOS/os/hal/include/spi.h"
 977              		.file 19 "/home/selim/working/ChibiOS/os/hal/ports/STM32/LLD/SPIv1/spi_lld.h"
 978              		.file 20 "/home/selim/working/ChibiOS/os/rt/include/chsys.h"
 979              		.file 21 "/home/selim/working/ChibiOS/os/ext/CMSIS/include/core_cm4.h"
 980              		.file 22 "/home/selim/working/ChibiOS/os/rt/include/chthreads.h"