ARM GAS  /tmp/cctJfva8.s 			page 1


   1              		.syntax unified
   2              		.cpu cortex-m4
   3              		.fpu softvfp
   4              		.eabi_attribute 20, 1
   5              		.eabi_attribute 21, 1
   6              		.eabi_attribute 23, 3
   7              		.eabi_attribute 24, 1
   8              		.eabi_attribute 25, 1
   9              		.eabi_attribute 26, 1
  10              		.eabi_attribute 30, 2
  11              		.eabi_attribute 34, 1
  12              		.eabi_attribute 18, 4
  13              		.thumb
  14              		.syntax unified
  15              		.file	"adc.c"
  16              		.text
  17              	.Ltext0:
  18              		.cfi_sections	.debug_frame
  19              		.section	.text.adcInit,"ax",%progbits
  20              		.align	2
  21              		.p2align 4,,15
  22              		.global	adcInit
  23              		.thumb
  24              		.thumb_func
  25              		.type	adcInit, %function
  26              	adcInit:
  27              	.LFB258:
  28              		.file 1 "/home/selim/working/ChibiOS/os/hal/src/adc.c"
  29              		.loc 1 56 0
  30              		.cfi_startproc
  31              		@ args = 0, pretend = 0, frame = 0
  32              		@ frame_needed = 0, uses_anonymous_args = 0
  33              		@ link register save eliminated.
  34              		.loc 1 58 0
  35 0000 FFF7FEBF 		b	adc_lld_init
  36              	.LVL0:
  37              		.cfi_endproc
  38              	.LFE258:
  39              		.size	adcInit, .-adcInit
  40              		.section	.text.adcObjectInit,"ax",%progbits
  41              		.align	2
  42              		.p2align 4,,15
  43              		.global	adcObjectInit
  44              		.thumb
  45              		.thumb_func
  46              		.type	adcObjectInit, %function
  47              	adcObjectInit:
  48              	.LFB259:
  49              		.loc 1 68 0
  50              		.cfi_startproc
  51              		@ args = 0, pretend = 0, frame = 0
  52              		@ frame_needed = 0, uses_anonymous_args = 0
  53              		@ link register save eliminated.
  54              	.LVL1:
  55              		.loc 1 71 0
  56 0000 0023     		movs	r3, #0
  57              		.loc 1 70 0
ARM GAS  /tmp/cctJfva8.s 			page 2


  58 0002 0122     		movs	r2, #1
  59 0004 0270     		strb	r2, [r0]
  60              		.loc 1 71 0
  61 0006 4360     		str	r3, [r0, #4]
  62              		.loc 1 72 0
  63 0008 8360     		str	r3, [r0, #8]
  64              		.loc 1 73 0
  65 000a C360     		str	r3, [r0, #12]
  66              		.loc 1 74 0
  67 000c 0361     		str	r3, [r0, #16]
  68              		.loc 1 76 0
  69 000e 4361     		str	r3, [r0, #20]
  70              	.LVL2:
  71              	.LBB76:
  72              	.LBB77:
  73              		.file 2 "/home/selim/working/ChibiOS/os/hal/osal/rt/osal.h"
  74              		.loc 2 841 0
  75 0010 1830     		adds	r0, r0, #24
  76              	.LVL3:
  77 0012 FFF7FEBF 		b	chMtxObjectInit
  78              	.LVL4:
  79              	.LBE77:
  80              	.LBE76:
  81              		.cfi_endproc
  82              	.LFE259:
  83              		.size	adcObjectInit, .-adcObjectInit
  84 0016 00BF     		.section	.text.adcStart,"ax",%progbits
  85              		.align	2
  86              		.p2align 4,,15
  87              		.global	adcStart
  88              		.thumb
  89              		.thumb_func
  90              		.type	adcStart, %function
  91              	adcStart:
  92              	.LFB260:
  93              		.loc 1 95 0
  94              		.cfi_startproc
  95              		@ args = 0, pretend = 0, frame = 0
  96              		@ frame_needed = 0, uses_anonymous_args = 0
  97              	.LVL5:
  98 0000 38B5     		push	{r3, r4, r5, lr}
  99              		.cfi_def_cfa_offset 16
 100              		.cfi_offset 3, -16
 101              		.cfi_offset 4, -12
 102              		.cfi_offset 5, -8
 103              		.cfi_offset 14, -4
 104              		.loc 1 95 0
 105 0002 0D46     		mov	r5, r1
 106              		.loc 1 97 0
 107 0004 0446     		mov	r4, r0
 108 0006 38B3     		cbz	r0, .L9
 109              	.LVL6:
 110              	.L4:
 111              	.LBB91:
 112              	.LBB92:
 113              	.LBB93:
 114              	.LBB94:
ARM GAS  /tmp/cctJfva8.s 			page 3


 115              	.LBB95:
 116              	.LBB96:
 117              		.file 3 "/home/selim/working/ChibiOS/os/ext/CMSIS/include/core_cmFunc.h"
 118              		.loc 3 546 0
 119 0008 2023     		movs	r3, #32
 120              		.syntax unified
 121              	@ 546 "/home/selim/working/ChibiOS/os/ext/CMSIS/include/core_cmFunc.h" 1
 122 000a 83F31188 		MSR basepri, r3
 123              	@ 0 "" 2
 124              	.LVL7:
 125              		.thumb
 126              		.syntax unified
 127              	.LBE96:
 128              	.LBE95:
 129              	.LBE94:
 130              		.file 4 "/home/selim/working/ChibiOS/os/rt/include/chsys.h"
 131              		.loc 4 349 0
 132 000e FFF7FEFF 		bl	_stats_start_measure_crit_thd
 133              	.LVL8:
 134              		.loc 4 350 0
 135 0012 FFF7FEFF 		bl	_dbg_check_lock
 136              	.LVL9:
 137              	.LBE93:
 138              	.LBE92:
 139              	.LBE91:
 140              		.loc 1 100 0
 141 0016 2378     		ldrb	r3, [r4]	@ zero_extendqisi2
 142 0018 013B     		subs	r3, r3, #1
 143 001a 012B     		cmp	r3, #1
 144 001c 02D9     		bls	.L5
 145              		.loc 1 100 0 is_stmt 0 discriminator 2
 146 001e 1048     		ldr	r0, .L10
 147 0020 FFF7FEFF 		bl	chSysHalt
 148              	.LVL10:
 149              	.L5:
 150              		.loc 1 103 0 is_stmt 1
 151 0024 2046     		mov	r0, r4
 152              		.loc 1 102 0
 153 0026 6560     		str	r5, [r4, #4]
 154              		.loc 1 103 0
 155 0028 FFF7FEFF 		bl	adc_lld_start
 156              	.LVL11:
 157              		.loc 1 104 0
 158 002c 0223     		movs	r3, #2
 159 002e 2370     		strb	r3, [r4]
 160              	.LBB97:
 161              	.LBB98:
 162              	.LBB99:
 163              		.loc 4 360 0
 164 0030 FFF7FEFF 		bl	_dbg_check_unlock
 165              	.LVL12:
 166              		.loc 4 361 0
 167 0034 FFF7FEFF 		bl	_stats_stop_measure_crit_thd
 168              	.LVL13:
 169              		.loc 4 367 0
 170 0038 0A4B     		ldr	r3, .L10+4
 171 003a 1A68     		ldr	r2, [r3]
ARM GAS  /tmp/cctJfva8.s 			page 4


 172 003c 9A42     		cmp	r2, r3
 173 003e 07D0     		beq	.L6
 174 0040 9969     		ldr	r1, [r3, #24]
 175 0042 9368     		ldr	r3, [r2, #8]
 176 0044 8A68     		ldr	r2, [r1, #8]
 177 0046 9A42     		cmp	r2, r3
 178 0048 02D2     		bcs	.L6
 179 004a 0748     		ldr	r0, .L10+8
 180 004c FFF7FEFF 		bl	chSysHalt
 181              	.LVL14:
 182              	.L6:
 183              	.LBB100:
 184              	.LBB101:
 185              	.LBB102:
 186              		.loc 3 546 0
 187 0050 0023     		movs	r3, #0
 188              		.syntax unified
 189              	@ 546 "/home/selim/working/ChibiOS/os/ext/CMSIS/include/core_cmFunc.h" 1
 190 0052 83F31188 		MSR basepri, r3
 191              	@ 0 "" 2
 192              	.LVL15:
 193              		.thumb
 194              		.syntax unified
 195 0056 38BD     		pop	{r3, r4, r5, pc}
 196              	.LVL16:
 197              	.L9:
 198              	.LBE102:
 199              	.LBE101:
 200              	.LBE100:
 201              	.LBE99:
 202              	.LBE98:
 203              	.LBE97:
 204              		.loc 1 97 0 discriminator 2
 205 0058 0148     		ldr	r0, .L10
 206              	.LVL17:
 207 005a FFF7FEFF 		bl	chSysHalt
 208              	.LVL18:
 209 005e D3E7     		b	.L4
 210              	.L11:
 211              		.align	2
 212              	.L10:
 213 0060 00000000 		.word	.LANCHOR0
 214 0064 00000000 		.word	ch
 215 0068 00000000 		.word	.LANCHOR1
 216              		.cfi_endproc
 217              	.LFE260:
 218              		.size	adcStart, .-adcStart
 219              		.section	.text.adcStop,"ax",%progbits
 220              		.align	2
 221              		.p2align 4,,15
 222              		.global	adcStop
 223              		.thumb
 224              		.thumb_func
 225              		.type	adcStop, %function
 226              	adcStop:
 227              	.LFB261:
 228              		.loc 1 115 0
ARM GAS  /tmp/cctJfva8.s 			page 5


 229              		.cfi_startproc
 230              		@ args = 0, pretend = 0, frame = 0
 231              		@ frame_needed = 0, uses_anonymous_args = 0
 232              	.LVL19:
 233 0000 10B5     		push	{r4, lr}
 234              		.cfi_def_cfa_offset 8
 235              		.cfi_offset 4, -8
 236              		.cfi_offset 14, -4
 237              		.loc 1 117 0
 238 0002 0446     		mov	r4, r0
 239 0004 30B3     		cbz	r0, .L17
 240              	.LVL20:
 241              	.L13:
 242              	.LBB116:
 243              	.LBB117:
 244              	.LBB118:
 245              	.LBB119:
 246              	.LBB120:
 247              	.LBB121:
 248              		.loc 3 546 0
 249 0006 2023     		movs	r3, #32
 250              		.syntax unified
 251              	@ 546 "/home/selim/working/ChibiOS/os/ext/CMSIS/include/core_cmFunc.h" 1
 252 0008 83F31188 		MSR basepri, r3
 253              	@ 0 "" 2
 254              	.LVL21:
 255              		.thumb
 256              		.syntax unified
 257              	.LBE121:
 258              	.LBE120:
 259              	.LBE119:
 260              		.loc 4 349 0
 261 000c FFF7FEFF 		bl	_stats_start_measure_crit_thd
 262              	.LVL22:
 263              		.loc 4 350 0
 264 0010 FFF7FEFF 		bl	_dbg_check_lock
 265              	.LVL23:
 266              	.LBE118:
 267              	.LBE117:
 268              	.LBE116:
 269              		.loc 1 120 0
 270 0014 2378     		ldrb	r3, [r4]	@ zero_extendqisi2
 271 0016 013B     		subs	r3, r3, #1
 272 0018 012B     		cmp	r3, #1
 273 001a 02D9     		bls	.L14
 274              		.loc 1 120 0 is_stmt 0 discriminator 2
 275 001c 0F48     		ldr	r0, .L18
 276 001e FFF7FEFF 		bl	chSysHalt
 277              	.LVL24:
 278              	.L14:
 279              		.loc 1 122 0 is_stmt 1
 280 0022 2046     		mov	r0, r4
 281 0024 FFF7FEFF 		bl	adc_lld_stop
 282              	.LVL25:
 283              		.loc 1 123 0
 284 0028 0123     		movs	r3, #1
 285 002a 2370     		strb	r3, [r4]
ARM GAS  /tmp/cctJfva8.s 			page 6


 286              	.LBB122:
 287              	.LBB123:
 288              	.LBB124:
 289              		.loc 4 360 0
 290 002c FFF7FEFF 		bl	_dbg_check_unlock
 291              	.LVL26:
 292              		.loc 4 361 0
 293 0030 FFF7FEFF 		bl	_stats_stop_measure_crit_thd
 294              	.LVL27:
 295              		.loc 4 367 0
 296 0034 0A4B     		ldr	r3, .L18+4
 297 0036 1A68     		ldr	r2, [r3]
 298 0038 9A42     		cmp	r2, r3
 299 003a 07D0     		beq	.L15
 300 003c 9969     		ldr	r1, [r3, #24]
 301 003e 9368     		ldr	r3, [r2, #8]
 302 0040 8A68     		ldr	r2, [r1, #8]
 303 0042 9A42     		cmp	r2, r3
 304 0044 02D2     		bcs	.L15
 305 0046 0748     		ldr	r0, .L18+8
 306 0048 FFF7FEFF 		bl	chSysHalt
 307              	.LVL28:
 308              	.L15:
 309              	.LBB125:
 310              	.LBB126:
 311              	.LBB127:
 312              		.loc 3 546 0
 313 004c 0023     		movs	r3, #0
 314              		.syntax unified
 315              	@ 546 "/home/selim/working/ChibiOS/os/ext/CMSIS/include/core_cmFunc.h" 1
 316 004e 83F31188 		MSR basepri, r3
 317              	@ 0 "" 2
 318              	.LVL29:
 319              		.thumb
 320              		.syntax unified
 321 0052 10BD     		pop	{r4, pc}
 322              	.LVL30:
 323              	.L17:
 324              	.LBE127:
 325              	.LBE126:
 326              	.LBE125:
 327              	.LBE124:
 328              	.LBE123:
 329              	.LBE122:
 330              		.loc 1 117 0 discriminator 2
 331 0054 0148     		ldr	r0, .L18
 332              	.LVL31:
 333 0056 FFF7FEFF 		bl	chSysHalt
 334              	.LVL32:
 335 005a D4E7     		b	.L13
 336              	.L19:
 337              		.align	2
 338              	.L18:
 339 005c 00000000 		.word	.LANCHOR2
 340 0060 00000000 		.word	ch
 341 0064 00000000 		.word	.LANCHOR1
 342              		.cfi_endproc
ARM GAS  /tmp/cctJfva8.s 			page 7


 343              	.LFE261:
 344              		.size	adcStop, .-adcStop
 345              		.section	.text.adcStartConversionI,"ax",%progbits
 346              		.align	2
 347              		.p2align 4,,15
 348              		.global	adcStartConversionI
 349              		.thumb
 350              		.thumb_func
 351              		.type	adcStartConversionI, %function
 352              	adcStartConversionI:
 353              	.LFB263:
 354              		.loc 1 174 0
 355              		.cfi_startproc
 356              		@ args = 0, pretend = 0, frame = 0
 357              		@ frame_needed = 0, uses_anonymous_args = 0
 358              	.LVL33:
 359 0000 F8B5     		push	{r3, r4, r5, r6, r7, lr}
 360              		.cfi_def_cfa_offset 24
 361              		.cfi_offset 3, -24
 362              		.cfi_offset 4, -20
 363              		.cfi_offset 5, -16
 364              		.cfi_offset 6, -12
 365              		.cfi_offset 7, -8
 366              		.cfi_offset 14, -4
 367              		.loc 1 174 0
 368 0002 0446     		mov	r4, r0
 369 0004 0E46     		mov	r6, r1
 370 0006 1746     		mov	r7, r2
 371 0008 1D46     		mov	r5, r3
 372              		.loc 1 176 0
 373 000a FFF7FEFF 		bl	chDbgCheckClassI
 374              	.LVL34:
 375              		.loc 1 177 0
 376 000e C4B1     		cbz	r4, .L21
 377              		.loc 1 177 0 is_stmt 0 discriminator 3
 378 0010 BEB1     		cbz	r6, .L21
 379              		.loc 1 177 0 discriminator 5
 380 0012 B7B1     		cbz	r7, .L21
 381              		.loc 1 177 0 discriminator 7
 382 0014 012D     		cmp	r5, #1
 383 0016 01D0     		beq	.L22
 384              		.loc 1 177 0 discriminator 8
 385 0018 EB07     		lsls	r3, r5, #31
 386 001a 12D4     		bmi	.L21
 387              	.L22:
 388              		.loc 1 179 0 is_stmt 1 discriminator 1
 389 001c 2378     		ldrb	r3, [r4]	@ zero_extendqisi2
 390 001e 022B     		cmp	r3, #2
 391 0020 05D0     		beq	.L23
 392              		.loc 1 179 0 is_stmt 0 discriminator 2
 393 0022 043B     		subs	r3, r3, #4
 394 0024 012B     		cmp	r3, #1
 395 0026 02D9     		bls	.L23
 396              		.loc 1 179 0 discriminator 4
 397 0028 0848     		ldr	r0, .L43
 398 002a FFF7FEFF 		bl	chSysHalt
 399              	.LVL35:
ARM GAS  /tmp/cctJfva8.s 			page 8


 400              	.L23:
 401              		.loc 1 187 0 is_stmt 1
 402 002e 0323     		movs	r3, #3
 403              		.loc 1 184 0
 404 0030 A760     		str	r7, [r4, #8]
 405              		.loc 1 185 0
 406 0032 E560     		str	r5, [r4, #12]
 407              		.loc 1 186 0
 408 0034 2661     		str	r6, [r4, #16]
 409              		.loc 1 187 0
 410 0036 2370     		strb	r3, [r4]
 411              		.loc 1 188 0
 412 0038 2046     		mov	r0, r4
 413              		.loc 1 189 0
 414 003a BDE8F840 		pop	{r3, r4, r5, r6, r7, lr}
 415              		.cfi_remember_state
 416              		.cfi_restore 14
 417              		.cfi_restore 7
 418              		.cfi_restore 6
 419              		.cfi_restore 5
 420              		.cfi_restore 4
 421              		.cfi_restore 3
 422              		.cfi_def_cfa_offset 0
 423              	.LVL36:
 424              		.loc 1 188 0
 425 003e FFF7FEBF 		b	adc_lld_start_conversion
 426              	.LVL37:
 427              	.L21:
 428              		.cfi_restore_state
 429              		.loc 1 177 0 discriminator 9
 430 0042 0248     		ldr	r0, .L43
 431 0044 FFF7FEFF 		bl	chSysHalt
 432              	.LVL38:
 433 0048 E8E7     		b	.L22
 434              	.L44:
 435 004a 00BF     		.align	2
 436              	.L43:
 437 004c 00000000 		.word	.LANCHOR3
 438              		.cfi_endproc
 439              	.LFE263:
 440              		.size	adcStartConversionI, .-adcStartConversionI
 441              		.section	.text.adcStartConversion,"ax",%progbits
 442              		.align	2
 443              		.p2align 4,,15
 444              		.global	adcStartConversion
 445              		.thumb
 446              		.thumb_func
 447              		.type	adcStartConversion, %function
 448              	adcStartConversion:
 449              	.LFB262:
 450              		.loc 1 146 0
 451              		.cfi_startproc
 452              		@ args = 0, pretend = 0, frame = 0
 453              		@ frame_needed = 0, uses_anonymous_args = 0
 454              	.LVL39:
 455 0000 F8B5     		push	{r3, r4, r5, r6, r7, lr}
 456              		.cfi_def_cfa_offset 24
ARM GAS  /tmp/cctJfva8.s 			page 9


 457              		.cfi_offset 3, -24
 458              		.cfi_offset 4, -20
 459              		.cfi_offset 5, -16
 460              		.cfi_offset 6, -12
 461              		.cfi_offset 7, -8
 462              		.cfi_offset 14, -4
 463              		.loc 1 146 0
 464 0002 1F46     		mov	r7, r3
 465 0004 0446     		mov	r4, r0
 466 0006 0D46     		mov	r5, r1
 467 0008 1646     		mov	r6, r2
 468              	.LBB141:
 469              	.LBB142:
 470              	.LBB143:
 471              	.LBB144:
 472              	.LBB145:
 473              	.LBB146:
 474              		.loc 3 546 0
 475 000a 2023     		movs	r3, #32
 476              	.LVL40:
 477              		.syntax unified
 478              	@ 546 "/home/selim/working/ChibiOS/os/ext/CMSIS/include/core_cmFunc.h" 1
 479 000c 83F31188 		MSR basepri, r3
 480              	@ 0 "" 2
 481              	.LVL41:
 482              		.thumb
 483              		.syntax unified
 484              	.LBE146:
 485              	.LBE145:
 486              	.LBE144:
 487              		.loc 4 349 0
 488 0010 FFF7FEFF 		bl	_stats_start_measure_crit_thd
 489              	.LVL42:
 490              		.loc 4 350 0
 491 0014 FFF7FEFF 		bl	_dbg_check_lock
 492              	.LVL43:
 493              	.LBE143:
 494              	.LBE142:
 495              	.LBE141:
 496              		.loc 1 149 0
 497 0018 3B46     		mov	r3, r7
 498 001a 3246     		mov	r2, r6
 499 001c 2946     		mov	r1, r5
 500 001e 2046     		mov	r0, r4
 501 0020 FFF7FEFF 		bl	adcStartConversionI
 502              	.LVL44:
 503              	.LBB147:
 504              	.LBB148:
 505              	.LBB149:
 506              		.loc 4 360 0
 507 0024 FFF7FEFF 		bl	_dbg_check_unlock
 508              	.LVL45:
 509              		.loc 4 361 0
 510 0028 FFF7FEFF 		bl	_stats_stop_measure_crit_thd
 511              	.LVL46:
 512              		.loc 4 367 0
 513 002c 074B     		ldr	r3, .L48
ARM GAS  /tmp/cctJfva8.s 			page 10


 514 002e 1A68     		ldr	r2, [r3]
 515 0030 9A42     		cmp	r2, r3
 516 0032 07D0     		beq	.L46
 517 0034 9969     		ldr	r1, [r3, #24]
 518 0036 9368     		ldr	r3, [r2, #8]
 519 0038 8A68     		ldr	r2, [r1, #8]
 520 003a 9A42     		cmp	r2, r3
 521 003c 02D2     		bcs	.L46
 522 003e 0448     		ldr	r0, .L48+4
 523 0040 FFF7FEFF 		bl	chSysHalt
 524              	.LVL47:
 525              	.L46:
 526              	.LBB150:
 527              	.LBB151:
 528              	.LBB152:
 529              		.loc 3 546 0
 530 0044 0023     		movs	r3, #0
 531              		.syntax unified
 532              	@ 546 "/home/selim/working/ChibiOS/os/ext/CMSIS/include/core_cmFunc.h" 1
 533 0046 83F31188 		MSR basepri, r3
 534              	@ 0 "" 2
 535              	.LVL48:
 536              		.thumb
 537              		.syntax unified
 538 004a F8BD     		pop	{r3, r4, r5, r6, r7, pc}
 539              	.LVL49:
 540              	.L49:
 541              		.align	2
 542              	.L48:
 543 004c 00000000 		.word	ch
 544 0050 00000000 		.word	.LANCHOR1
 545              	.LBE152:
 546              	.LBE151:
 547              	.LBE150:
 548              	.LBE149:
 549              	.LBE148:
 550              	.LBE147:
 551              		.cfi_endproc
 552              	.LFE262:
 553              		.size	adcStartConversion, .-adcStartConversion
 554              		.section	.text.adcStopConversion,"ax",%progbits
 555              		.align	2
 556              		.p2align 4,,15
 557              		.global	adcStopConversion
 558              		.thumb
 559              		.thumb_func
 560              		.type	adcStopConversion, %function
 561              	adcStopConversion:
 562              	.LFB264:
 563              		.loc 1 201 0
 564              		.cfi_startproc
 565              		@ args = 0, pretend = 0, frame = 0
 566              		@ frame_needed = 0, uses_anonymous_args = 0
 567              	.LVL50:
 568 0000 10B5     		push	{r4, lr}
 569              		.cfi_def_cfa_offset 8
 570              		.cfi_offset 4, -8
ARM GAS  /tmp/cctJfva8.s 			page 11


 571              		.cfi_offset 14, -4
 572              		.loc 1 203 0
 573 0002 0446     		mov	r4, r0
 574 0004 88B3     		cbz	r0, .L59
 575              	.LVL51:
 576              	.L51:
 577              	.LBB168:
 578              	.LBB169:
 579              	.LBB170:
 580              	.LBB171:
 581              	.LBB172:
 582              	.LBB173:
 583              		.loc 3 546 0
 584 0006 2023     		movs	r3, #32
 585              		.syntax unified
 586              	@ 546 "/home/selim/working/ChibiOS/os/ext/CMSIS/include/core_cmFunc.h" 1
 587 0008 83F31188 		MSR basepri, r3
 588              	@ 0 "" 2
 589              	.LVL52:
 590              		.thumb
 591              		.syntax unified
 592              	.LBE173:
 593              	.LBE172:
 594              	.LBE171:
 595              		.loc 4 349 0
 596 000c FFF7FEFF 		bl	_stats_start_measure_crit_thd
 597              	.LVL53:
 598              		.loc 4 350 0
 599 0010 FFF7FEFF 		bl	_dbg_check_lock
 600              	.LVL54:
 601              	.LBE170:
 602              	.LBE169:
 603              	.LBE168:
 604              		.loc 1 206 0
 605 0014 2378     		ldrb	r3, [r4]	@ zero_extendqisi2
 606 0016 9A1E     		subs	r2, r3, #2
 607 0018 012A     		cmp	r2, #1
 608 001a 03D9     		bls	.L52
 609              		.loc 1 206 0 is_stmt 0 discriminator 2
 610 001c 1548     		ldr	r0, .L60
 611 001e FFF7FEFF 		bl	chSysHalt
 612              	.LVL55:
 613 0022 2378     		ldrb	r3, [r4]	@ zero_extendqisi2
 614              	.L52:
 615              		.loc 1 208 0 is_stmt 1
 616 0024 022B     		cmp	r3, #2
 617 0026 0CD0     		beq	.L53
 618              		.loc 1 209 0
 619 0028 2046     		mov	r0, r4
 620 002a FFF7FEFF 		bl	adc_lld_stop_conversion
 621              	.LVL56:
 622              		.loc 1 211 0
 623 002e 2046     		mov	r0, r4
 624              		.loc 1 210 0
 625 0030 0022     		movs	r2, #0
 626              		.loc 1 211 0
 627 0032 0223     		movs	r3, #2
ARM GAS  /tmp/cctJfva8.s 			page 12


 628              		.loc 1 210 0
 629 0034 2261     		str	r2, [r4, #16]
 630              	.LBB174:
 631              	.LBB175:
 632              		.loc 2 697 0
 633 0036 6FF00101 		mvn	r1, #1
 634              	.LBE175:
 635              	.LBE174:
 636              		.loc 1 211 0
 637 003a 00F8143B 		strb	r3, [r0], #20
 638              	.LVL57:
 639              	.LBB177:
 640              	.LBB176:
 641              		.loc 2 697 0
 642 003e FFF7FEFF 		bl	chThdResumeS
 643              	.LVL58:
 644              	.L53:
 645              	.LBE176:
 646              	.LBE177:
 647              	.LBB178:
 648              	.LBB179:
 649              	.LBB180:
 650              		.loc 4 360 0
 651 0042 FFF7FEFF 		bl	_dbg_check_unlock
 652              	.LVL59:
 653              		.loc 4 361 0
 654 0046 FFF7FEFF 		bl	_stats_stop_measure_crit_thd
 655              	.LVL60:
 656              		.loc 4 367 0
 657 004a 0B4B     		ldr	r3, .L60+4
 658 004c 1A68     		ldr	r2, [r3]
 659 004e 9A42     		cmp	r2, r3
 660 0050 07D0     		beq	.L54
 661 0052 9969     		ldr	r1, [r3, #24]
 662 0054 9368     		ldr	r3, [r2, #8]
 663 0056 8A68     		ldr	r2, [r1, #8]
 664 0058 9A42     		cmp	r2, r3
 665 005a 02D2     		bcs	.L54
 666 005c 0748     		ldr	r0, .L60+8
 667 005e FFF7FEFF 		bl	chSysHalt
 668              	.LVL61:
 669              	.L54:
 670              	.LBB181:
 671              	.LBB182:
 672              	.LBB183:
 673              		.loc 3 546 0
 674 0062 0023     		movs	r3, #0
 675              		.syntax unified
 676              	@ 546 "/home/selim/working/ChibiOS/os/ext/CMSIS/include/core_cmFunc.h" 1
 677 0064 83F31188 		MSR basepri, r3
 678              	@ 0 "" 2
 679              	.LVL62:
 680              		.thumb
 681              		.syntax unified
 682 0068 10BD     		pop	{r4, pc}
 683              	.LVL63:
 684              	.L59:
ARM GAS  /tmp/cctJfva8.s 			page 13


 685              	.LBE183:
 686              	.LBE182:
 687              	.LBE181:
 688              	.LBE180:
 689              	.LBE179:
 690              	.LBE178:
 691              		.loc 1 203 0 discriminator 2
 692 006a 0248     		ldr	r0, .L60
 693              	.LVL64:
 694 006c FFF7FEFF 		bl	chSysHalt
 695              	.LVL65:
 696 0070 C9E7     		b	.L51
 697              	.L61:
 698 0072 00BF     		.align	2
 699              	.L60:
 700 0074 00000000 		.word	.LANCHOR4
 701 0078 00000000 		.word	ch
 702 007c 00000000 		.word	.LANCHOR1
 703              		.cfi_endproc
 704              	.LFE264:
 705              		.size	adcStopConversion, .-adcStopConversion
 706              		.section	.text.adcStopConversionI,"ax",%progbits
 707              		.align	2
 708              		.p2align 4,,15
 709              		.global	adcStopConversionI
 710              		.thumb
 711              		.thumb_func
 712              		.type	adcStopConversionI, %function
 713              	adcStopConversionI:
 714              	.LFB265:
 715              		.loc 1 227 0
 716              		.cfi_startproc
 717              		@ args = 0, pretend = 0, frame = 0
 718              		@ frame_needed = 0, uses_anonymous_args = 0
 719              	.LVL66:
 720 0000 10B5     		push	{r4, lr}
 721              		.cfi_def_cfa_offset 8
 722              		.cfi_offset 4, -8
 723              		.cfi_offset 14, -4
 724              		.loc 1 227 0
 725 0002 0446     		mov	r4, r0
 726              		.loc 1 229 0
 727 0004 FFF7FEFF 		bl	chDbgCheckClassI
 728              	.LVL67:
 729              		.loc 1 230 0
 730 0008 D4B1     		cbz	r4, .L67
 731              	.L63:
 732              		.loc 1 231 0 discriminator 1
 733 000a 2378     		ldrb	r3, [r4]	@ zero_extendqisi2
 734 000c 9A1E     		subs	r2, r3, #2
 735 000e 022A     		cmp	r2, #2
 736 0010 11D8     		bhi	.L68
 737              	.L64:
 738              		.loc 1 236 0
 739 0012 022B     		cmp	r3, #2
 740 0014 0ED0     		beq	.L62
 741              		.loc 1 237 0
ARM GAS  /tmp/cctJfva8.s 			page 14


 742 0016 2046     		mov	r0, r4
 743 0018 FFF7FEFF 		bl	adc_lld_stop_conversion
 744              	.LVL68:
 745              		.loc 1 239 0
 746 001c 2046     		mov	r0, r4
 747              		.loc 1 238 0
 748 001e 0022     		movs	r2, #0
 749              		.loc 1 239 0
 750 0020 0223     		movs	r3, #2
 751              		.loc 1 238 0
 752 0022 2261     		str	r2, [r4, #16]
 753              	.LBB184:
 754              	.LBB185:
 755              		.loc 2 682 0
 756 0024 6FF00101 		mvn	r1, #1
 757              	.LBE185:
 758              	.LBE184:
 759              		.loc 1 239 0
 760 0028 00F8143B 		strb	r3, [r0], #20
 761              	.LVL69:
 762              		.loc 1 242 0
 763 002c BDE81040 		pop	{r4, lr}
 764              		.cfi_remember_state
 765              		.cfi_restore 14
 766              		.cfi_restore 4
 767              		.cfi_def_cfa_offset 0
 768              	.LVL70:
 769              	.LBB187:
 770              	.LBB186:
 771              		.loc 2 682 0
 772 0030 FFF7FEBF 		b	chThdResumeI
 773              	.LVL71:
 774              	.L62:
 775              		.cfi_restore_state
 776 0034 10BD     		pop	{r4, pc}
 777              	.LVL72:
 778              	.L68:
 779              	.LBE186:
 780              	.LBE187:
 781              		.loc 1 231 0 discriminator 2
 782 0036 0448     		ldr	r0, .L69
 783 0038 FFF7FEFF 		bl	chSysHalt
 784              	.LVL73:
 785 003c 2378     		ldrb	r3, [r4]	@ zero_extendqisi2
 786 003e E8E7     		b	.L64
 787              	.L67:
 788              		.loc 1 230 0 discriminator 2
 789 0040 0148     		ldr	r0, .L69
 790 0042 FFF7FEFF 		bl	chSysHalt
 791              	.LVL74:
 792 0046 E0E7     		b	.L63
 793              	.L70:
 794              		.align	2
 795              	.L69:
 796 0048 00000000 		.word	.LANCHOR5
 797              		.cfi_endproc
 798              	.LFE265:
ARM GAS  /tmp/cctJfva8.s 			page 15


 799              		.size	adcStopConversionI, .-adcStopConversionI
 800              		.section	.text.adcConvert,"ax",%progbits
 801              		.align	2
 802              		.p2align 4,,15
 803              		.global	adcConvert
 804              		.thumb
 805              		.thumb_func
 806              		.type	adcConvert, %function
 807              	adcConvert:
 808              	.LFB266:
 809              		.loc 1 271 0
 810              		.cfi_startproc
 811              		@ args = 0, pretend = 0, frame = 0
 812              		@ frame_needed = 0, uses_anonymous_args = 0
 813              	.LVL75:
 814 0000 F8B5     		push	{r3, r4, r5, r6, r7, lr}
 815              		.cfi_def_cfa_offset 24
 816              		.cfi_offset 3, -24
 817              		.cfi_offset 4, -20
 818              		.cfi_offset 5, -16
 819              		.cfi_offset 6, -12
 820              		.cfi_offset 7, -8
 821              		.cfi_offset 14, -4
 822              		.loc 1 271 0
 823 0002 1F46     		mov	r7, r3
 824 0004 0446     		mov	r4, r0
 825 0006 0D46     		mov	r5, r1
 826 0008 1646     		mov	r6, r2
 827              	.LBB203:
 828              	.LBB204:
 829              	.LBB205:
 830              	.LBB206:
 831              	.LBB207:
 832              	.LBB208:
 833              		.loc 3 546 0
 834 000a 2023     		movs	r3, #32
 835              	.LVL76:
 836              		.syntax unified
 837              	@ 546 "/home/selim/working/ChibiOS/os/ext/CMSIS/include/core_cmFunc.h" 1
 838 000c 83F31188 		MSR basepri, r3
 839              	@ 0 "" 2
 840              	.LVL77:
 841              		.thumb
 842              		.syntax unified
 843              	.LBE208:
 844              	.LBE207:
 845              	.LBE206:
 846              		.loc 4 349 0
 847 0010 FFF7FEFF 		bl	_stats_start_measure_crit_thd
 848              	.LVL78:
 849              		.loc 4 350 0
 850 0014 FFF7FEFF 		bl	_dbg_check_lock
 851              	.LVL79:
 852              	.LBE205:
 853              	.LBE204:
 854              	.LBE203:
 855              		.loc 1 275 0
ARM GAS  /tmp/cctJfva8.s 			page 16


 856 0018 6369     		ldr	r3, [r4, #20]
 857 001a 13B1     		cbz	r3, .L72
 858              		.loc 1 275 0 is_stmt 0 discriminator 2
 859 001c 1148     		ldr	r0, .L78
 860 001e FFF7FEFF 		bl	chSysHalt
 861              	.LVL80:
 862              	.L72:
 863              		.loc 1 276 0 is_stmt 1
 864 0022 3B46     		mov	r3, r7
 865 0024 3246     		mov	r2, r6
 866 0026 2946     		mov	r1, r5
 867 0028 2046     		mov	r0, r4
 868 002a FFF7FEFF 		bl	adcStartConversionI
 869              	.LVL81:
 870              	.LBB209:
 871              	.LBB210:
 872              		.loc 2 642 0
 873 002e 04F11400 		add	r0, r4, #20
 874              	.LVL82:
 875 0032 FFF7FEFF 		bl	chThdSuspendS
 876              	.LVL83:
 877 0036 0446     		mov	r4, r0
 878              	.LVL84:
 879              	.LBE210:
 880              	.LBE209:
 881              	.LBB211:
 882              	.LBB212:
 883              	.LBB213:
 884              		.loc 4 360 0
 885 0038 FFF7FEFF 		bl	_dbg_check_unlock
 886              	.LVL85:
 887              		.loc 4 361 0
 888 003c FFF7FEFF 		bl	_stats_stop_measure_crit_thd
 889              	.LVL86:
 890              		.loc 4 367 0
 891 0040 094B     		ldr	r3, .L78+4
 892 0042 1A68     		ldr	r2, [r3]
 893 0044 9A42     		cmp	r2, r3
 894 0046 07D0     		beq	.L73
 895 0048 9969     		ldr	r1, [r3, #24]
 896 004a 9368     		ldr	r3, [r2, #8]
 897 004c 8A68     		ldr	r2, [r1, #8]
 898 004e 9A42     		cmp	r2, r3
 899 0050 02D2     		bcs	.L73
 900 0052 0648     		ldr	r0, .L78+8
 901 0054 FFF7FEFF 		bl	chSysHalt
 902              	.LVL87:
 903              	.L73:
 904              	.LBB214:
 905              	.LBB215:
 906              	.LBB216:
 907              		.loc 3 546 0
 908 0058 0023     		movs	r3, #0
 909              		.syntax unified
 910              	@ 546 "/home/selim/working/ChibiOS/os/ext/CMSIS/include/core_cmFunc.h" 1
 911 005a 83F31188 		MSR basepri, r3
 912              	@ 0 "" 2
ARM GAS  /tmp/cctJfva8.s 			page 17


 913              	.LVL88:
 914              		.thumb
 915              		.syntax unified
 916              	.LBE216:
 917              	.LBE215:
 918              	.LBE214:
 919              	.LBE213:
 920              	.LBE212:
 921              	.LBE211:
 922              		.loc 1 280 0
 923 005e 2046     		mov	r0, r4
 924 0060 F8BD     		pop	{r3, r4, r5, r6, r7, pc}
 925              	.LVL89:
 926              	.L79:
 927 0062 00BF     		.align	2
 928              	.L78:
 929 0064 00000000 		.word	.LANCHOR6
 930 0068 00000000 		.word	ch
 931 006c 00000000 		.word	.LANCHOR1
 932              		.cfi_endproc
 933              	.LFE266:
 934              		.size	adcConvert, .-adcConvert
 935              		.section	.text.adcAcquireBus,"ax",%progbits
 936              		.align	2
 937              		.p2align 4,,15
 938              		.global	adcAcquireBus
 939              		.thumb
 940              		.thumb_func
 941              		.type	adcAcquireBus, %function
 942              	adcAcquireBus:
 943              	.LFB267:
 944              		.loc 1 295 0
 945              		.cfi_startproc
 946              		@ args = 0, pretend = 0, frame = 0
 947              		@ frame_needed = 0, uses_anonymous_args = 0
 948              	.LVL90:
 949 0000 10B5     		push	{r4, lr}
 950              		.cfi_def_cfa_offset 8
 951              		.cfi_offset 4, -8
 952              		.cfi_offset 14, -4
 953              		.loc 1 297 0
 954 0002 0446     		mov	r4, r0
 955 0004 28B1     		cbz	r0, .L83
 956              	.LVL91:
 957              	.LBB217:
 958              	.LBB218:
 959              		.loc 2 861 0
 960 0006 04F11800 		add	r0, r4, #24
 961              	.LVL92:
 962              	.LBE218:
 963              	.LBE217:
 964              		.loc 1 300 0
 965 000a BDE81040 		pop	{r4, lr}
 966              		.cfi_remember_state
 967              		.cfi_restore 14
 968              		.cfi_restore 4
 969              		.cfi_def_cfa_offset 0
ARM GAS  /tmp/cctJfva8.s 			page 18


 970              	.LVL93:
 971              	.LBB222:
 972              	.LBB219:
 973              		.loc 2 861 0
 974 000e FFF7FEBF 		b	chMtxLock
 975              	.LVL94:
 976              	.L83:
 977              		.cfi_restore_state
 978              	.LBE219:
 979              	.LBE222:
 980              		.loc 1 297 0 discriminator 2
 981 0012 0448     		ldr	r0, .L84
 982              	.LVL95:
 983 0014 FFF7FEFF 		bl	chSysHalt
 984              	.LVL96:
 985              	.LBB223:
 986              	.LBB220:
 987              		.loc 2 861 0 discriminator 2
 988 0018 04F11800 		add	r0, r4, #24
 989              	.LVL97:
 990              	.LBE220:
 991              	.LBE223:
 992              		.loc 1 300 0 discriminator 2
 993 001c BDE81040 		pop	{r4, lr}
 994              		.cfi_restore 4
 995              		.cfi_restore 14
 996              		.cfi_def_cfa_offset 0
 997              	.LVL98:
 998              	.LBB224:
 999              	.LBB221:
 1000              		.loc 2 861 0 discriminator 2
 1001 0020 FFF7FEBF 		b	chMtxLock
 1002              	.LVL99:
 1003              	.L85:
 1004              		.align	2
 1005              	.L84:
 1006 0024 00000000 		.word	.LANCHOR7
 1007              	.LBE221:
 1008              	.LBE224:
 1009              		.cfi_endproc
 1010              	.LFE267:
 1011              		.size	adcAcquireBus, .-adcAcquireBus
 1012              		.section	.text.adcReleaseBus,"ax",%progbits
 1013              		.align	2
 1014              		.p2align 4,,15
 1015              		.global	adcReleaseBus
 1016              		.thumb
 1017              		.thumb_func
 1018              		.type	adcReleaseBus, %function
 1019              	adcReleaseBus:
 1020              	.LFB268:
 1021              		.loc 1 311 0
 1022              		.cfi_startproc
 1023              		@ args = 0, pretend = 0, frame = 0
 1024              		@ frame_needed = 0, uses_anonymous_args = 0
 1025              	.LVL100:
 1026 0000 10B5     		push	{r4, lr}
ARM GAS  /tmp/cctJfva8.s 			page 19


 1027              		.cfi_def_cfa_offset 8
 1028              		.cfi_offset 4, -8
 1029              		.cfi_offset 14, -4
 1030              		.loc 1 313 0
 1031 0002 0446     		mov	r4, r0
 1032 0004 28B1     		cbz	r0, .L89
 1033              	.LVL101:
 1034              	.LBB225:
 1035              	.LBB226:
 1036              		.loc 2 885 0
 1037 0006 04F11800 		add	r0, r4, #24
 1038              	.LVL102:
 1039              	.LBE226:
 1040              	.LBE225:
 1041              		.loc 1 316 0
 1042 000a BDE81040 		pop	{r4, lr}
 1043              		.cfi_remember_state
 1044              		.cfi_restore 14
 1045              		.cfi_restore 4
 1046              		.cfi_def_cfa_offset 0
 1047              	.LVL103:
 1048              	.LBB230:
 1049              	.LBB227:
 1050              		.loc 2 885 0
 1051 000e FFF7FEBF 		b	chMtxUnlock
 1052              	.LVL104:
 1053              	.L89:
 1054              		.cfi_restore_state
 1055              	.LBE227:
 1056              	.LBE230:
 1057              		.loc 1 313 0 discriminator 2
 1058 0012 0448     		ldr	r0, .L90
 1059              	.LVL105:
 1060 0014 FFF7FEFF 		bl	chSysHalt
 1061              	.LVL106:
 1062              	.LBB231:
 1063              	.LBB228:
 1064              		.loc 2 885 0 discriminator 2
 1065 0018 04F11800 		add	r0, r4, #24
 1066              	.LVL107:
 1067              	.LBE228:
 1068              	.LBE231:
 1069              		.loc 1 316 0 discriminator 2
 1070 001c BDE81040 		pop	{r4, lr}
 1071              		.cfi_restore 4
 1072              		.cfi_restore 14
 1073              		.cfi_def_cfa_offset 0
 1074              	.LVL108:
 1075              	.LBB232:
 1076              	.LBB229:
 1077              		.loc 2 885 0 discriminator 2
 1078 0020 FFF7FEBF 		b	chMtxUnlock
 1079              	.LVL109:
 1080              	.L91:
 1081              		.align	2
 1082              	.L90:
 1083 0024 00000000 		.word	.LANCHOR8
ARM GAS  /tmp/cctJfva8.s 			page 20


 1084              	.LBE229:
 1085              	.LBE232:
 1086              		.cfi_endproc
 1087              	.LFE268:
 1088              		.size	adcReleaseBus, .-adcReleaseBus
 1089              		.section	.rodata.__func__.7149,"a",%progbits
 1090              		.align	2
 1091              		.set	.LANCHOR8,. + 0
 1092              		.type	__func__.7149, %object
 1093              		.size	__func__.7149, 14
 1094              	__func__.7149:
 1095 0000 61646352 		.ascii	"adcReleaseBus\000"
 1095      656C6561 
 1095      73654275 
 1095      7300
 1096              		.section	.rodata.__func__.7112,"a",%progbits
 1097              		.align	2
 1098              		.set	.LANCHOR2,. + 0
 1099              		.type	__func__.7112, %object
 1100              		.size	__func__.7112, 8
 1101              	__func__.7112:
 1102 0000 61646353 		.ascii	"adcStop\000"
 1102      746F7000 
 1103              		.section	.rodata.__func__.7108,"a",%progbits
 1104              		.align	2
 1105              		.set	.LANCHOR0,. + 0
 1106              		.type	__func__.7108, %object
 1107              		.size	__func__.7108, 9
 1108              	__func__.7108:
 1109 0000 61646353 		.ascii	"adcStart\000"
 1109      74617274 
 1109      00
 1110              		.section	.rodata.__func__.7125,"a",%progbits
 1111              		.align	2
 1112              		.set	.LANCHOR3,. + 0
 1113              		.type	__func__.7125, %object
 1114              		.size	__func__.7125, 20
 1115              	__func__.7125:
 1116 0000 61646353 		.ascii	"adcStartConversionI\000"
 1116      74617274 
 1116      436F6E76 
 1116      65727369 
 1116      6F6E4900 
 1117              		.section	.rodata.__func__.7133,"a",%progbits
 1118              		.align	2
 1119              		.set	.LANCHOR5,. + 0
 1120              		.type	__func__.7133, %object
 1121              		.size	__func__.7133, 19
 1122              	__func__.7133:
 1123 0000 61646353 		.ascii	"adcStopConversionI\000"
 1123      746F7043 
 1123      6F6E7665 
 1123      7273696F 
 1123      6E4900
 1124              		.section	.rodata.__func__.7129,"a",%progbits
 1125              		.align	2
 1126              		.set	.LANCHOR4,. + 0
ARM GAS  /tmp/cctJfva8.s 			page 21


 1127              		.type	__func__.7129, %object
 1128              		.size	__func__.7129, 18
 1129              	__func__.7129:
 1130 0000 61646353 		.ascii	"adcStopConversion\000"
 1130      746F7043 
 1130      6F6E7665 
 1130      7273696F 
 1130      6E00
 1131              		.section	.rodata.__func__.5969,"a",%progbits
 1132              		.align	2
 1133              		.set	.LANCHOR1,. + 0
 1134              		.type	__func__.5969, %object
 1135              		.size	__func__.5969, 12
 1136              	__func__.5969:
 1137 0000 63685379 		.ascii	"chSysUnlock\000"
 1137      73556E6C 
 1137      6F636B00 
 1138              		.section	.rodata.__func__.7141,"a",%progbits
 1139              		.align	2
 1140              		.set	.LANCHOR6,. + 0
 1141              		.type	__func__.7141, %object
 1142              		.size	__func__.7141, 11
 1143              	__func__.7141:
 1144 0000 61646343 		.ascii	"adcConvert\000"
 1144      6F6E7665 
 1144      727400
 1145              		.section	.rodata.__func__.7145,"a",%progbits
 1146              		.align	2
 1147              		.set	.LANCHOR7,. + 0
 1148              		.type	__func__.7145, %object
 1149              		.size	__func__.7145, 14
 1150              	__func__.7145:
 1151 0000 61646341 		.ascii	"adcAcquireBus\000"
 1151      63717569 
 1151      72654275 
 1151      7300
 1152              		.text
 1153              	.Letext0:
 1154              		.file 5 "/usr/lib/gcc/arm-none-eabi/5.3.1/include/stddef.h"
 1155              		.file 6 "/usr/arm-none-eabi/include/machine/_default_types.h"
 1156              		.file 7 "/usr/arm-none-eabi/include/sys/_stdint.h"
 1157              		.file 8 "/home/selim/working/ChibiOS/os/rt/ports/ARMCMx/compilers/GCC/chtypes.h"
 1158              		.file 9 "/home/selim/working/ChibiOS/os/rt/include/chsystypes.h"
 1159              		.file 10 "/home/selim/working/ChibiOS/os/rt/include/chschd.h"
 1160              		.file 11 "/home/selim/working/ChibiOS/os/ext/CMSIS/ST/stm32f407xx.h"
 1161              		.file 12 "/home/selim/working/ChibiOS/os/rt/ports/ARMCMx/chcore.h"
 1162              		.file 13 "/home/selim/working/ChibiOS/os/rt/ports/ARMCMx/chcore_v7m.h"
 1163              		.file 14 "/home/selim/working/ChibiOS/os/rt/include/chdebug.h"
 1164              		.file 15 "/home/selim/working/ChibiOS/os/rt/include/chtm.h"
 1165              		.file 16 "/home/selim/working/ChibiOS/os/rt/include/chstats.h"
 1166              		.file 17 "/home/selim/working/ChibiOS/os/rt/include/chsem.h"
 1167              		.file 18 "/home/selim/working/ChibiOS/os/rt/include/chmtx.h"
 1168              		.file 19 "/home/selim/working/ChibiOS/os/hal/ports/STM32/STM32F4xx/stm32_dma.h"
 1169              		.file 20 "/home/selim/working/ChibiOS/os/hal/include/adc.h"
 1170              		.file 21 "/home/selim/working/ChibiOS/os/hal/ports/STM32/STM32F4xx/adc_lld.h"
 1171              		.file 22 "/home/selim/working/ChibiOS/os/rt/include/chthreads.h"
 1172              		.file 23 "/home/selim/working/ChibiOS/os/ext/CMSIS/include/core_cm4.h"
ARM GAS  /tmp/cctJfva8.s 			page 22

