ARM GAS  /tmp/ccqiY2pZ.s 			page 1


   1              		.syntax unified
   2              		.cpu cortex-m4
   3              		.fpu softvfp
   4              		.eabi_attribute 20, 1
   5              		.eabi_attribute 21, 1
   6              		.eabi_attribute 23, 3
   7              		.eabi_attribute 24, 1
   8              		.eabi_attribute 25, 1
   9              		.eabi_attribute 26, 1
  10              		.eabi_attribute 30, 2
  11              		.eabi_attribute 34, 1
  12              		.eabi_attribute 18, 4
  13              		.thumb
  14              		.syntax unified
  15              		.file	"adc_lld.c"
  16              		.text
  17              	.Ltext0:
  18              		.cfi_sections	.debug_frame
  19              		.section	.text.adc_lld_serve_rx_interrupt,"ax",%progbits
  20              		.align	2
  21              		.p2align 4,,15
  22              		.thumb
  23              		.thumb_func
  24              		.type	adc_lld_serve_rx_interrupt, %function
  25              	adc_lld_serve_rx_interrupt:
  26              	.LFB258:
  27              		.file 1 "/home/selim/working/ChibiOS/os/hal/ports/STM32/STM32F4xx/adc_lld.c"
  28              		.loc 1 75 0
  29              		.cfi_startproc
  30              		@ args = 0, pretend = 0, frame = 0
  31              		@ frame_needed = 0, uses_anonymous_args = 0
  32              	.LVL0:
  33              		.loc 1 78 0
  34 0000 11F00C0F 		tst	r1, #12
  35              		.loc 1 75 0
  36 0004 2DE9F041 		push	{r4, r5, r6, r7, r8, lr}
  37              		.cfi_def_cfa_offset 24
  38              		.cfi_offset 4, -24
  39              		.cfi_offset 5, -20
  40              		.cfi_offset 6, -16
  41              		.cfi_offset 7, -12
  42              		.cfi_offset 8, -8
  43              		.cfi_offset 14, -4
  44              		.loc 1 75 0
  45 0008 0446     		mov	r4, r0
  46              		.loc 1 78 0
  47 000a 36D0     		beq	.L2
  48              	.LVL1:
  49              	.LBB137:
  50              	.LBB138:
  51              		.loc 1 375 0
  52 000c C06A     		ldr	r0, [r0, #44]
  53              	.LVL2:
  54 000e 0368     		ldr	r3, [r0]
  55 0010 1A68     		ldr	r2, [r3]
  56 0012 22F01F02 		bic	r2, r2, #31
  57 0016 1A60     		str	r2, [r3]
ARM GAS  /tmp/ccqiY2pZ.s 			page 2


  58              	.LVL3:
  59              	.L3:
  60 0018 1968     		ldr	r1, [r3]
  61 001a 11F00101 		ands	r1, r1, #1
  62 001e FBD1     		bne	.L3
  63              	.LBE138:
  64              	.LBE137:
  65              		.loc 1 81 0
  66 0020 2269     		ldr	r2, [r4, #16]
  67              	.LBB141:
  68              	.LBB139:
  69              		.loc 1 375 0
  70 0022 077A     		ldrb	r7, [r0, #8]	@ zero_extendqisi2
  71 0024 4668     		ldr	r6, [r0, #4]
  72              	.LBE139:
  73              	.LBE141:
  74              		.loc 1 81 0
  75 0026 9568     		ldr	r5, [r2, #8]
  76              	.LBB142:
  77              	.LBB140:
  78              		.loc 1 376 0
  79 0028 A36A     		ldr	r3, [r4, #40]
  80              		.loc 1 375 0
  81 002a 3D22     		movs	r2, #61
  82 002c BA40     		lsls	r2, r2, r7
  83              		.loc 1 378 0
  84 002e 0120     		movs	r0, #1
  85              		.loc 1 375 0
  86 0030 3260     		str	r2, [r6]
  87              		.loc 1 376 0
  88 0032 5960     		str	r1, [r3, #4]
  89              		.loc 1 377 0
  90 0034 9960     		str	r1, [r3, #8]
  91              		.loc 1 378 0
  92 0036 9860     		str	r0, [r3, #8]
  93              	.LVL4:
  94              	.LBE140:
  95              	.LBE142:
  96              		.loc 1 81 0
  97 0038 45B1     		cbz	r5, .L5
  98              		.loc 1 81 0 is_stmt 0 discriminator 1
  99 003a 0523     		movs	r3, #5
 100 003c 2370     		strb	r3, [r4]
 101 003e 2046     		mov	r0, r4
 102 0040 A847     		blx	r5
 103              	.LVL5:
 104 0042 2378     		ldrb	r3, [r4]	@ zero_extendqisi2
 105 0044 052B     		cmp	r3, #5
 106 0046 04BF     		itt	eq
 107 0048 0223     		moveq	r3, #2
 108 004a 2370     		strbeq	r3, [r4]
 109              	.L5:
 110              		.loc 1 81 0 discriminator 5
 111 004c 0025     		movs	r5, #0
 112 004e 2561     		str	r5, [r4, #16]
 113              	.LVL6:
 114              	.LBB143:
ARM GAS  /tmp/ccqiY2pZ.s 			page 3


 115              	.LBB144:
 116              	.LBB145:
 117              	.LBB146:
 118              	.LBB147:
 119              	.LBB148:
 120              	.LBB149:
 121              		.file 2 "/home/selim/working/ChibiOS/os/ext/CMSIS/include/core_cmFunc.h"
 122              		.loc 2 546 0 is_stmt 1 discriminator 5
 123 0050 2023     		movs	r3, #32
 124              		.syntax unified
 125              	@ 546 "/home/selim/working/ChibiOS/os/ext/CMSIS/include/core_cmFunc.h" 1
 126 0052 83F31188 		MSR basepri, r3
 127              	@ 0 "" 2
 128              	.LVL7:
 129              		.thumb
 130              		.syntax unified
 131              	.LBE149:
 132              	.LBE148:
 133              	.LBE147:
 134              	.LBE146:
 135              		.file 3 "/home/selim/working/ChibiOS/os/rt/include/chsys.h"
 136              		.loc 3 389 0 discriminator 5
 137 0056 FFF7FEFF 		bl	_stats_start_measure_crit_isr
 138              	.LVL8:
 139              		.loc 3 390 0 discriminator 5
 140 005a FFF7FEFF 		bl	_dbg_check_lock_from_isr
 141              	.LVL9:
 142              	.LBE145:
 143              	.LBE144:
 144              	.LBE143:
 145              	.LBB150:
 146              	.LBB151:
 147              		.file 4 "/home/selim/working/ChibiOS/os/hal/osal/rt/osal.h"
 148              		.loc 4 682 0 discriminator 5
 149 005e 04F11400 		add	r0, r4, #20
 150              	.LVL10:
 151 0062 4FF0FF31 		mov	r1, #-1
 152 0066 FFF7FEFF 		bl	chThdResumeI
 153              	.LVL11:
 154              	.LBE151:
 155              	.LBE150:
 156              	.LBB152:
 157              	.LBB153:
 158              	.LBB154:
 159              		.loc 3 408 0 discriminator 5
 160 006a FFF7FEFF 		bl	_dbg_check_unlock_from_isr
 161              	.LVL12:
 162              		.loc 3 409 0 discriminator 5
 163 006e FFF7FEFF 		bl	_stats_stop_measure_crit_isr
 164              	.LVL13:
 165              	.LBB155:
 166              	.LBB156:
 167              	.LBB157:
 168              	.LBB158:
 169              		.loc 2 546 0 discriminator 5
 170              		.syntax unified
 171              	@ 546 "/home/selim/working/ChibiOS/os/ext/CMSIS/include/core_cmFunc.h" 1
ARM GAS  /tmp/ccqiY2pZ.s 			page 4


 172 0072 85F31188 		MSR basepri, r5
 173              	@ 0 "" 2
 174              	.LVL14:
 175              		.thumb
 176              		.syntax unified
 177 0076 BDE8F081 		pop	{r4, r5, r6, r7, r8, pc}
 178              	.LVL15:
 179              	.L2:
 180              	.LBE158:
 181              	.LBE157:
 182              	.LBE156:
 183              	.LBE155:
 184              	.LBE154:
 185              	.LBE153:
 186              	.LBE152:
 187              		.loc 1 86 0
 188 007a 0569     		ldr	r5, [r0, #16]
 189 007c A5B1     		cbz	r5, .L1
 190              		.loc 1 87 0
 191 007e 8A06     		lsls	r2, r1, #26
 192 0080 10D5     		bpl	.L8
 193              		.loc 1 89 0
 194 0082 2B78     		ldrb	r3, [r5]	@ zero_extendqisi2
 195 0084 DBB1     		cbz	r3, .L9
 196              		.loc 1 89 0 is_stmt 0 discriminator 1
 197 0086 6B68     		ldr	r3, [r5, #4]
 198 0088 73B1     		cbz	r3, .L1
 199              		.loc 1 89 0 discriminator 3
 200 008a C268     		ldr	r2, [r0, #12]
 201 008c 012A     		cmp	r2, #1
 202 008e 4FD9     		bls	.L10
 203              	.LBB159:
 204              		.loc 1 89 0 discriminator 4
 205 0090 6988     		ldrh	r1, [r5, #2]
 206              	.LVL16:
 207 0092 8468     		ldr	r4, [r0, #8]
 208 0094 5208     		lsrs	r2, r2, #1
 209              	.LVL17:
 210 0096 02FB01F1 		mul	r1, r2, r1
 211 009a 04EB4101 		add	r1, r4, r1, lsl #1
 212              	.LBE159:
 213              		.loc 1 97 0 is_stmt 1 discriminator 4
 214 009e BDE8F041 		pop	{r4, r5, r6, r7, r8, lr}
 215              		.cfi_remember_state
 216              		.cfi_restore 14
 217              		.cfi_restore 8
 218              		.cfi_restore 7
 219              		.cfi_restore 6
 220              		.cfi_restore 5
 221              		.cfi_restore 4
 222              		.cfi_def_cfa_offset 0
 223              	.LVL18:
 224              	.LBB160:
 225              		.loc 1 89 0 discriminator 4
 226 00a2 1847     		bx	r3	@ indirect register sibling call
 227              	.LVL19:
 228              	.L8:
ARM GAS  /tmp/ccqiY2pZ.s 			page 5


 229              		.cfi_restore_state
 230              	.LBE160:
 231              		.loc 1 91 0
 232 00a4 CB06     		lsls	r3, r1, #27
 233 00a6 01D4     		bmi	.L33
 234              	.L1:
 235 00a8 BDE8F081 		pop	{r4, r5, r6, r7, r8, pc}
 236              	.L33:
 237              		.loc 1 93 0
 238 00ac 6B68     		ldr	r3, [r5, #4]
 239 00ae 002B     		cmp	r3, #0
 240 00b0 FAD0     		beq	.L1
 241              		.loc 1 93 0 is_stmt 0 discriminator 1
 242 00b2 C268     		ldr	r2, [r0, #12]
 243 00b4 8168     		ldr	r1, [r0, #8]
 244              	.LVL20:
 245 00b6 5208     		lsrs	r2, r2, #1
 246              		.loc 1 97 0 is_stmt 1 discriminator 1
 247 00b8 BDE8F041 		pop	{r4, r5, r6, r7, r8, lr}
 248              		.cfi_remember_state
 249              		.cfi_restore 14
 250              		.cfi_restore 8
 251              		.cfi_restore 7
 252              		.cfi_restore 6
 253              		.cfi_restore 5
 254              		.cfi_restore 4
 255              		.cfi_def_cfa_offset 0
 256              		.loc 1 93 0 discriminator 1
 257 00bc 1847     		bx	r3	@ indirect register sibling call
 258              	.LVL21:
 259              	.L9:
 260              		.cfi_restore_state
 261              	.LBB161:
 262              	.LBB162:
 263              		.loc 1 375 0
 264 00be C06A     		ldr	r0, [r0, #44]
 265              	.LVL22:
 266 00c0 0268     		ldr	r2, [r0]
 267 00c2 1368     		ldr	r3, [r2]
 268 00c4 23F01F03 		bic	r3, r3, #31
 269 00c8 1360     		str	r3, [r2]
 270              	.L11:
 271 00ca 1368     		ldr	r3, [r2]
 272 00cc 13F00103 		ands	r3, r3, #1
 273 00d0 FBD1     		bne	.L11
 274 00d2 077A     		ldrb	r7, [r0, #8]	@ zero_extendqisi2
 275 00d4 4668     		ldr	r6, [r0, #4]
 276              	.LBE162:
 277              	.LBE161:
 278              		.loc 1 89 0
 279 00d6 6D68     		ldr	r5, [r5, #4]
 280              	.LBB164:
 281              	.LBB163:
 282              		.loc 1 376 0
 283 00d8 A26A     		ldr	r2, [r4, #40]
 284              		.loc 1 375 0
 285 00da 3D21     		movs	r1, #61
ARM GAS  /tmp/ccqiY2pZ.s 			page 6


 286              	.LVL23:
 287 00dc B940     		lsls	r1, r1, r7
 288              		.loc 1 378 0
 289 00de 0120     		movs	r0, #1
 290              		.loc 1 375 0
 291 00e0 3160     		str	r1, [r6]
 292              		.loc 1 376 0
 293 00e2 5360     		str	r3, [r2, #4]
 294              		.loc 1 377 0
 295 00e4 9360     		str	r3, [r2, #8]
 296              		.loc 1 378 0
 297 00e6 9060     		str	r0, [r2, #8]
 298              	.LVL24:
 299              	.LBE163:
 300              	.LBE164:
 301              		.loc 1 89 0
 302 00e8 EDB1     		cbz	r5, .L12
 303              		.loc 1 89 0 is_stmt 0 discriminator 6
 304 00ea 0423     		movs	r3, #4
 305 00ec 2370     		strb	r3, [r4]
 306 00ee E268     		ldr	r2, [r4, #12]
 307 00f0 A168     		ldr	r1, [r4, #8]
 308 00f2 2046     		mov	r0, r4
 309 00f4 A847     		blx	r5
 310              	.LVL25:
 311 00f6 2378     		ldrb	r3, [r4]	@ zero_extendqisi2
 312 00f8 042B     		cmp	r3, #4
 313 00fa 14D0     		beq	.L12
 314              	.L13:
 315              	.LVL26:
 316              	.LBB165:
 317              	.LBB166:
 318              	.LBB167:
 319              	.LBB168:
 320              	.LBB169:
 321              	.LBB170:
 322              	.LBB171:
 323              		.loc 2 546 0 is_stmt 1 discriminator 9
 324 00fc 2023     		movs	r3, #32
 325              		.syntax unified
 326              	@ 546 "/home/selim/working/ChibiOS/os/ext/CMSIS/include/core_cmFunc.h" 1
 327 00fe 83F31188 		MSR basepri, r3
 328              	@ 0 "" 2
 329              	.LVL27:
 330              		.thumb
 331              		.syntax unified
 332              	.LBE171:
 333              	.LBE170:
 334              	.LBE169:
 335              	.LBE168:
 336              		.loc 3 389 0 discriminator 9
 337 0102 FFF7FEFF 		bl	_stats_start_measure_crit_isr
 338              	.LVL28:
 339              		.loc 3 390 0 discriminator 9
 340 0106 FFF7FEFF 		bl	_dbg_check_lock_from_isr
 341              	.LVL29:
 342              	.LBE167:
ARM GAS  /tmp/ccqiY2pZ.s 			page 7


 343              	.LBE166:
 344              	.LBE165:
 345              	.LBB172:
 346              	.LBB173:
 347              		.loc 4 682 0 discriminator 9
 348 010a 04F11400 		add	r0, r4, #20
 349              	.LVL30:
 350 010e 0021     		movs	r1, #0
 351 0110 FFF7FEFF 		bl	chThdResumeI
 352              	.LVL31:
 353              	.LBE173:
 354              	.LBE172:
 355              	.LBB174:
 356              	.LBB175:
 357              	.LBB176:
 358              		.loc 3 408 0 discriminator 9
 359 0114 FFF7FEFF 		bl	_dbg_check_unlock_from_isr
 360              	.LVL32:
 361              		.loc 3 409 0 discriminator 9
 362 0118 FFF7FEFF 		bl	_stats_stop_measure_crit_isr
 363              	.LVL33:
 364              	.LBB177:
 365              	.LBB178:
 366              	.LBB179:
 367              	.LBB180:
 368              		.loc 2 546 0 discriminator 9
 369 011c 0023     		movs	r3, #0
 370              		.syntax unified
 371              	@ 546 "/home/selim/working/ChibiOS/os/ext/CMSIS/include/core_cmFunc.h" 1
 372 011e 83F31188 		MSR basepri, r3
 373              	@ 0 "" 2
 374              	.LVL34:
 375              		.thumb
 376              		.syntax unified
 377 0122 BDE8F081 		pop	{r4, r5, r6, r7, r8, pc}
 378              	.LVL35:
 379              	.L12:
 380              	.LBE180:
 381              	.LBE179:
 382              	.LBE178:
 383              	.LBE177:
 384              	.LBE176:
 385              	.LBE175:
 386              	.LBE174:
 387              		.loc 1 89 0 discriminator 8
 388 0126 0222     		movs	r2, #2
 389 0128 0023     		movs	r3, #0
 390 012a 2270     		strb	r2, [r4]
 391 012c 2361     		str	r3, [r4, #16]
 392 012e E5E7     		b	.L13
 393              	.LVL36:
 394              	.L10:
 395              		.loc 1 89 0 is_stmt 0 discriminator 5
 396 0130 8168     		ldr	r1, [r0, #8]
 397              	.LVL37:
 398              		.loc 1 97 0 is_stmt 1 discriminator 5
 399 0132 BDE8F041 		pop	{r4, r5, r6, r7, r8, lr}
ARM GAS  /tmp/ccqiY2pZ.s 			page 8


 400              		.cfi_restore 14
 401              		.cfi_restore 8
 402              		.cfi_restore 7
 403              		.cfi_restore 6
 404              		.cfi_restore 5
 405              		.cfi_restore 4
 406              		.cfi_def_cfa_offset 0
 407              		.loc 1 89 0 discriminator 5
 408 0136 1847     		bx	r3	@ indirect register sibling call
 409              	.LVL38:
 410              		.cfi_endproc
 411              	.LFE258:
 412              		.size	adc_lld_serve_rx_interrupt, .-adc_lld_serve_rx_interrupt
 413              		.section	.text.Vector88,"ax",%progbits
 414              		.align	2
 415              		.p2align 4,,15
 416              		.global	Vector88
 417              		.thumb
 418              		.thumb_func
 419              		.type	Vector88, %function
 420              	Vector88:
 421              	.LFB259:
 422              		.loc 1 110 0
 423              		.cfi_startproc
 424              		@ args = 0, pretend = 0, frame = 0
 425              		@ frame_needed = 0, uses_anonymous_args = 0
 426 0000 F8B5     		push	{r3, r4, r5, r6, r7, lr}
 427              		.cfi_def_cfa_offset 24
 428              		.cfi_offset 3, -24
 429              		.cfi_offset 4, -20
 430              		.cfi_offset 5, -16
 431              		.cfi_offset 6, -12
 432              		.cfi_offset 7, -8
 433              		.cfi_offset 14, -4
 434              		.loc 1 113 0
 435 0002 FFF7FEFF 		bl	_stats_increase_irq
 436              	.LVL39:
 437 0006 FFF7FEFF 		bl	_dbg_check_enter_isr
 438              	.LVL40:
 439              		.loc 1 116 0
 440 000a 664B     		ldr	r3, .L81
 441 000c 1A68     		ldr	r2, [r3]
 442              	.LVL41:
 443              		.loc 1 117 0
 444 000e 0021     		movs	r1, #0
 445 0010 1960     		str	r1, [r3]
 446              		.loc 1 120 0
 447 0012 9106     		lsls	r1, r2, #26
 448 0014 3BD5     		bpl	.L35
 449              		.loc 1 120 0 is_stmt 0 discriminator 1
 450 0016 644C     		ldr	r4, .L81+4
 451 0018 E16A     		ldr	r1, [r4, #44]
 452 001a 0A68     		ldr	r2, [r1]
 453              	.LVL42:
 454 001c 5368     		ldr	r3, [r2, #4]
 455 001e 002B     		cmp	r3, #0
 456 0020 35D0     		beq	.L35
ARM GAS  /tmp/ccqiY2pZ.s 			page 9


 457              		.loc 1 123 0 is_stmt 1
 458 0022 2569     		ldr	r5, [r4, #16]
 459 0024 002D     		cmp	r5, #0
 460 0026 32D0     		beq	.L35
 461              	.LVL43:
 462              	.LBB181:
 463              	.LBB182:
 464              		.loc 1 375 0
 465 0028 1368     		ldr	r3, [r2]
 466 002a 23F01F03 		bic	r3, r3, #31
 467 002e 1360     		str	r3, [r2]
 468              	.L36:
 469 0030 1368     		ldr	r3, [r2]
 470 0032 13F00103 		ands	r3, r3, #1
 471 0036 FBD1     		bne	.L36
 472 0038 087A     		ldrb	r0, [r1, #8]	@ zero_extendqisi2
 473              	.LBE182:
 474              	.LBE181:
 475              		.loc 1 124 0
 476 003a AE68     		ldr	r6, [r5, #8]
 477              	.LBB184:
 478              	.LBB183:
 479              		.loc 1 375 0
 480 003c 4F68     		ldr	r7, [r1, #4]
 481              		.loc 1 376 0
 482 003e A26A     		ldr	r2, [r4, #40]
 483 0040 594D     		ldr	r5, .L81+4
 484              		.loc 1 375 0
 485 0042 3D21     		movs	r1, #61
 486 0044 01FA00F0 		lsl	r0, r1, r0
 487              		.loc 1 378 0
 488 0048 0121     		movs	r1, #1
 489              		.loc 1 375 0
 490 004a 3860     		str	r0, [r7]
 491              		.loc 1 376 0
 492 004c 5360     		str	r3, [r2, #4]
 493              		.loc 1 377 0
 494 004e 9360     		str	r3, [r2, #8]
 495              		.loc 1 378 0
 496 0050 9160     		str	r1, [r2, #8]
 497              	.LVL44:
 498              	.LBE183:
 499              	.LBE184:
 500              		.loc 1 124 0
 501 0052 46B1     		cbz	r6, .L38
 502              		.loc 1 124 0 is_stmt 0 discriminator 1
 503 0054 0523     		movs	r3, #5
 504 0056 2B70     		strb	r3, [r5]
 505 0058 2846     		mov	r0, r5
 506 005a B047     		blx	r6
 507              	.LVL45:
 508 005c 2B78     		ldrb	r3, [r5]	@ zero_extendqisi2
 509 005e 052B     		cmp	r3, #5
 510 0060 04BF     		itt	eq
 511 0062 0223     		moveq	r3, #2
 512 0064 2B70     		strbeq	r3, [r5]
 513              	.L38:
ARM GAS  /tmp/ccqiY2pZ.s 			page 10


 514              		.loc 1 124 0 discriminator 5
 515 0066 0025     		movs	r5, #0
 516 0068 2561     		str	r5, [r4, #16]
 517              	.LVL46:
 518              	.LBB185:
 519              	.LBB186:
 520              	.LBB187:
 521              	.LBB188:
 522              	.LBB189:
 523              	.LBB190:
 524              	.LBB191:
 525              		.loc 2 546 0 is_stmt 1 discriminator 5
 526 006a 2023     		movs	r3, #32
 527              		.syntax unified
 528              	@ 546 "/home/selim/working/ChibiOS/os/ext/CMSIS/include/core_cmFunc.h" 1
 529 006c 83F31188 		MSR basepri, r3
 530              	@ 0 "" 2
 531              	.LVL47:
 532              		.thumb
 533              		.syntax unified
 534              	.LBE191:
 535              	.LBE190:
 536              	.LBE189:
 537              	.LBE188:
 538              		.loc 3 389 0 discriminator 5
 539 0070 FFF7FEFF 		bl	_stats_start_measure_crit_isr
 540              	.LVL48:
 541              		.loc 3 390 0 discriminator 5
 542 0074 FFF7FEFF 		bl	_dbg_check_lock_from_isr
 543              	.LVL49:
 544              	.LBE187:
 545              	.LBE186:
 546              	.LBE185:
 547              	.LBB192:
 548              	.LBB193:
 549              		.loc 4 682 0 discriminator 5
 550 0078 4FF0FF31 		mov	r1, #-1
 551 007c 4B48     		ldr	r0, .L81+8
 552 007e FFF7FEFF 		bl	chThdResumeI
 553              	.LVL50:
 554              	.LBE193:
 555              	.LBE192:
 556              	.LBB194:
 557              	.LBB195:
 558              	.LBB196:
 559              		.loc 3 408 0 discriminator 5
 560 0082 FFF7FEFF 		bl	_dbg_check_unlock_from_isr
 561              	.LVL51:
 562              		.loc 3 409 0 discriminator 5
 563 0086 FFF7FEFF 		bl	_stats_stop_measure_crit_isr
 564              	.LVL52:
 565              	.LBB197:
 566              	.LBB198:
 567              	.LBB199:
 568              	.LBB200:
 569              		.loc 2 546 0 discriminator 5
 570              		.syntax unified
ARM GAS  /tmp/ccqiY2pZ.s 			page 11


 571              	@ 546 "/home/selim/working/ChibiOS/os/ext/CMSIS/include/core_cmFunc.h" 1
 572 008a 85F31188 		MSR basepri, r5
 573              	@ 0 "" 2
 574              	.LVL53:
 575              		.thumb
 576              		.syntax unified
 577              	.L35:
 578              	.LBE200:
 579              	.LBE199:
 580              	.LBE198:
 581              	.LBE197:
 582              	.LBE196:
 583              	.LBE195:
 584              	.LBE194:
 585              		.loc 1 130 0
 586 008e 484B     		ldr	r3, .L81+12
 587 0090 1A68     		ldr	r2, [r3]
 588              	.LVL54:
 589              		.loc 1 131 0
 590 0092 0021     		movs	r1, #0
 591              		.loc 1 134 0
 592 0094 9206     		lsls	r2, r2, #26
 593              	.LVL55:
 594              		.loc 1 131 0
 595 0096 1960     		str	r1, [r3]
 596              		.loc 1 134 0
 597 0098 3BD5     		bpl	.L40
 598              		.loc 1 134 0 is_stmt 0 discriminator 1
 599 009a 464C     		ldr	r4, .L81+16
 600 009c E16A     		ldr	r1, [r4, #44]
 601 009e 0A68     		ldr	r2, [r1]
 602 00a0 5368     		ldr	r3, [r2, #4]
 603 00a2 002B     		cmp	r3, #0
 604 00a4 35D0     		beq	.L40
 605              		.loc 1 137 0 is_stmt 1
 606 00a6 2569     		ldr	r5, [r4, #16]
 607 00a8 002D     		cmp	r5, #0
 608 00aa 32D0     		beq	.L40
 609              	.LVL56:
 610              	.LBB201:
 611              	.LBB202:
 612              		.loc 1 375 0
 613 00ac 1368     		ldr	r3, [r2]
 614 00ae 23F01F03 		bic	r3, r3, #31
 615 00b2 1360     		str	r3, [r2]
 616              	.L41:
 617 00b4 1368     		ldr	r3, [r2]
 618 00b6 13F00103 		ands	r3, r3, #1
 619 00ba FBD1     		bne	.L41
 620 00bc 087A     		ldrb	r0, [r1, #8]	@ zero_extendqisi2
 621              	.LBE202:
 622              	.LBE201:
 623              		.loc 1 138 0
 624 00be AE68     		ldr	r6, [r5, #8]
 625              	.LBB204:
 626              	.LBB203:
 627              		.loc 1 375 0
ARM GAS  /tmp/ccqiY2pZ.s 			page 12


 628 00c0 4F68     		ldr	r7, [r1, #4]
 629              		.loc 1 376 0
 630 00c2 A26A     		ldr	r2, [r4, #40]
 631 00c4 3B4D     		ldr	r5, .L81+16
 632              		.loc 1 375 0
 633 00c6 3D21     		movs	r1, #61
 634 00c8 01FA00F0 		lsl	r0, r1, r0
 635              		.loc 1 378 0
 636 00cc 0121     		movs	r1, #1
 637              		.loc 1 375 0
 638 00ce 3860     		str	r0, [r7]
 639              		.loc 1 376 0
 640 00d0 5360     		str	r3, [r2, #4]
 641              		.loc 1 377 0
 642 00d2 9360     		str	r3, [r2, #8]
 643              		.loc 1 378 0
 644 00d4 9160     		str	r1, [r2, #8]
 645              	.LVL57:
 646              	.LBE203:
 647              	.LBE204:
 648              		.loc 1 138 0
 649 00d6 46B1     		cbz	r6, .L43
 650              		.loc 1 138 0 is_stmt 0 discriminator 1
 651 00d8 0523     		movs	r3, #5
 652 00da 2B70     		strb	r3, [r5]
 653 00dc 2846     		mov	r0, r5
 654 00de B047     		blx	r6
 655              	.LVL58:
 656 00e0 2B78     		ldrb	r3, [r5]	@ zero_extendqisi2
 657 00e2 052B     		cmp	r3, #5
 658 00e4 04BF     		itt	eq
 659 00e6 0223     		moveq	r3, #2
 660 00e8 2B70     		strbeq	r3, [r5]
 661              	.L43:
 662              		.loc 1 138 0 discriminator 5
 663 00ea 0025     		movs	r5, #0
 664 00ec 2561     		str	r5, [r4, #16]
 665              	.LVL59:
 666              	.LBB205:
 667              	.LBB206:
 668              	.LBB207:
 669              	.LBB208:
 670              	.LBB209:
 671              	.LBB210:
 672              	.LBB211:
 673              		.loc 2 546 0 is_stmt 1 discriminator 5
 674 00ee 2023     		movs	r3, #32
 675              		.syntax unified
 676              	@ 546 "/home/selim/working/ChibiOS/os/ext/CMSIS/include/core_cmFunc.h" 1
 677 00f0 83F31188 		MSR basepri, r3
 678              	@ 0 "" 2
 679              	.LVL60:
 680              		.thumb
 681              		.syntax unified
 682              	.LBE211:
 683              	.LBE210:
 684              	.LBE209:
ARM GAS  /tmp/ccqiY2pZ.s 			page 13


 685              	.LBE208:
 686              		.loc 3 389 0 discriminator 5
 687 00f4 FFF7FEFF 		bl	_stats_start_measure_crit_isr
 688              	.LVL61:
 689              		.loc 3 390 0 discriminator 5
 690 00f8 FFF7FEFF 		bl	_dbg_check_lock_from_isr
 691              	.LVL62:
 692              	.LBE207:
 693              	.LBE206:
 694              	.LBE205:
 695              	.LBB212:
 696              	.LBB213:
 697              		.loc 4 682 0 discriminator 5
 698 00fc 4FF0FF31 		mov	r1, #-1
 699 0100 2D48     		ldr	r0, .L81+20
 700 0102 FFF7FEFF 		bl	chThdResumeI
 701              	.LVL63:
 702              	.LBE213:
 703              	.LBE212:
 704              	.LBB214:
 705              	.LBB215:
 706              	.LBB216:
 707              		.loc 3 408 0 discriminator 5
 708 0106 FFF7FEFF 		bl	_dbg_check_unlock_from_isr
 709              	.LVL64:
 710              		.loc 3 409 0 discriminator 5
 711 010a FFF7FEFF 		bl	_stats_stop_measure_crit_isr
 712              	.LVL65:
 713              	.LBB217:
 714              	.LBB218:
 715              	.LBB219:
 716              	.LBB220:
 717              		.loc 2 546 0 discriminator 5
 718              		.syntax unified
 719              	@ 546 "/home/selim/working/ChibiOS/os/ext/CMSIS/include/core_cmFunc.h" 1
 720 010e 85F31188 		MSR basepri, r5
 721              	@ 0 "" 2
 722              	.LVL66:
 723              		.thumb
 724              		.syntax unified
 725              	.L40:
 726              	.LBE220:
 727              	.LBE219:
 728              	.LBE218:
 729              	.LBE217:
 730              	.LBE216:
 731              	.LBE215:
 732              	.LBE214:
 733              		.loc 1 144 0
 734 0112 2A4B     		ldr	r3, .L81+24
 735 0114 1A68     		ldr	r2, [r3]
 736              	.LVL67:
 737              		.loc 1 145 0
 738 0116 0021     		movs	r1, #0
 739 0118 1960     		str	r1, [r3]
 740              		.loc 1 148 0
 741 011a 9306     		lsls	r3, r2, #26
ARM GAS  /tmp/ccqiY2pZ.s 			page 14


 742 011c 3BD5     		bpl	.L45
 743              		.loc 1 148 0 is_stmt 0 discriminator 1
 744 011e 284C     		ldr	r4, .L81+28
 745 0120 E16A     		ldr	r1, [r4, #44]
 746 0122 0A68     		ldr	r2, [r1]
 747              	.LVL68:
 748 0124 5368     		ldr	r3, [r2, #4]
 749 0126 002B     		cmp	r3, #0
 750 0128 35D0     		beq	.L45
 751              		.loc 1 151 0 is_stmt 1
 752 012a 2569     		ldr	r5, [r4, #16]
 753 012c 002D     		cmp	r5, #0
 754 012e 32D0     		beq	.L45
 755              	.LVL69:
 756              	.LBB221:
 757              	.LBB222:
 758              		.loc 1 375 0
 759 0130 1368     		ldr	r3, [r2]
 760 0132 23F01F03 		bic	r3, r3, #31
 761 0136 1360     		str	r3, [r2]
 762              	.L46:
 763 0138 1368     		ldr	r3, [r2]
 764 013a 13F00103 		ands	r3, r3, #1
 765 013e FBD1     		bne	.L46
 766 0140 087A     		ldrb	r0, [r1, #8]	@ zero_extendqisi2
 767              	.LBE222:
 768              	.LBE221:
 769              		.loc 1 152 0
 770 0142 AE68     		ldr	r6, [r5, #8]
 771              	.LBB224:
 772              	.LBB223:
 773              		.loc 1 375 0
 774 0144 4F68     		ldr	r7, [r1, #4]
 775              		.loc 1 376 0
 776 0146 A26A     		ldr	r2, [r4, #40]
 777 0148 1D4D     		ldr	r5, .L81+28
 778              		.loc 1 375 0
 779 014a 3D21     		movs	r1, #61
 780 014c 01FA00F0 		lsl	r0, r1, r0
 781              		.loc 1 378 0
 782 0150 0121     		movs	r1, #1
 783              		.loc 1 375 0
 784 0152 3860     		str	r0, [r7]
 785              		.loc 1 376 0
 786 0154 5360     		str	r3, [r2, #4]
 787              		.loc 1 377 0
 788 0156 9360     		str	r3, [r2, #8]
 789              		.loc 1 378 0
 790 0158 9160     		str	r1, [r2, #8]
 791              	.LVL70:
 792              	.LBE223:
 793              	.LBE224:
 794              		.loc 1 152 0
 795 015a 46B1     		cbz	r6, .L48
 796              		.loc 1 152 0 is_stmt 0 discriminator 1
 797 015c 0523     		movs	r3, #5
 798 015e 2B70     		strb	r3, [r5]
ARM GAS  /tmp/ccqiY2pZ.s 			page 15


 799 0160 2846     		mov	r0, r5
 800 0162 B047     		blx	r6
 801              	.LVL71:
 802 0164 2B78     		ldrb	r3, [r5]	@ zero_extendqisi2
 803 0166 052B     		cmp	r3, #5
 804 0168 04BF     		itt	eq
 805 016a 0223     		moveq	r3, #2
 806 016c 2B70     		strbeq	r3, [r5]
 807              	.L48:
 808              		.loc 1 152 0 discriminator 5
 809 016e 0025     		movs	r5, #0
 810 0170 2561     		str	r5, [r4, #16]
 811              	.LVL72:
 812              	.LBB225:
 813              	.LBB226:
 814              	.LBB227:
 815              	.LBB228:
 816              	.LBB229:
 817              	.LBB230:
 818              	.LBB231:
 819              		.loc 2 546 0 is_stmt 1 discriminator 5
 820 0172 2023     		movs	r3, #32
 821              		.syntax unified
 822              	@ 546 "/home/selim/working/ChibiOS/os/ext/CMSIS/include/core_cmFunc.h" 1
 823 0174 83F31188 		MSR basepri, r3
 824              	@ 0 "" 2
 825              	.LVL73:
 826              		.thumb
 827              		.syntax unified
 828              	.LBE231:
 829              	.LBE230:
 830              	.LBE229:
 831              	.LBE228:
 832              		.loc 3 389 0 discriminator 5
 833 0178 FFF7FEFF 		bl	_stats_start_measure_crit_isr
 834              	.LVL74:
 835              		.loc 3 390 0 discriminator 5
 836 017c FFF7FEFF 		bl	_dbg_check_lock_from_isr
 837              	.LVL75:
 838              	.LBE227:
 839              	.LBE226:
 840              	.LBE225:
 841              	.LBB232:
 842              	.LBB233:
 843              		.loc 4 682 0 discriminator 5
 844 0180 4FF0FF31 		mov	r1, #-1
 845 0184 0F48     		ldr	r0, .L81+32
 846 0186 FFF7FEFF 		bl	chThdResumeI
 847              	.LVL76:
 848              	.LBE233:
 849              	.LBE232:
 850              	.LBB234:
 851              	.LBB235:
 852              	.LBB236:
 853              		.loc 3 408 0 discriminator 5
 854 018a FFF7FEFF 		bl	_dbg_check_unlock_from_isr
 855              	.LVL77:
ARM GAS  /tmp/ccqiY2pZ.s 			page 16


 856              		.loc 3 409 0 discriminator 5
 857 018e FFF7FEFF 		bl	_stats_stop_measure_crit_isr
 858              	.LVL78:
 859              	.LBB237:
 860              	.LBB238:
 861              	.LBB239:
 862              	.LBB240:
 863              		.loc 2 546 0 discriminator 5
 864              		.syntax unified
 865              	@ 546 "/home/selim/working/ChibiOS/os/ext/CMSIS/include/core_cmFunc.h" 1
 866 0192 85F31188 		MSR basepri, r5
 867              	@ 0 "" 2
 868              	.LVL79:
 869              		.thumb
 870              		.syntax unified
 871              	.L45:
 872              	.LBE240:
 873              	.LBE239:
 874              	.LBE238:
 875              	.LBE237:
 876              	.LBE236:
 877              	.LBE235:
 878              	.LBE234:
 879              		.loc 1 157 0
 880 0196 FFF7FEFF 		bl	_dbg_check_leave_isr
 881              	.LVL80:
 882              		.loc 1 158 0
 883 019a BDE8F840 		pop	{r3, r4, r5, r6, r7, lr}
 884              		.cfi_restore 14
 885              		.cfi_restore 7
 886              		.cfi_restore 6
 887              		.cfi_restore 5
 888              		.cfi_restore 4
 889              		.cfi_restore 3
 890              		.cfi_def_cfa_offset 0
 891              		.loc 1 157 0
 892 019e FFF7FEBF 		b	_port_irq_epilogue
 893              	.LVL81:
 894              	.L82:
 895 01a2 00BF     		.align	2
 896              	.L81:
 897 01a4 00200140 		.word	1073815552
 898 01a8 00000000 		.word	.LANCHOR0
 899 01ac 14000000 		.word	.LANCHOR0+20
 900 01b0 00210140 		.word	1073815808
 901 01b4 00000000 		.word	.LANCHOR1
 902 01b8 14000000 		.word	.LANCHOR1+20
 903 01bc 00220140 		.word	1073816064
 904 01c0 00000000 		.word	.LANCHOR2
 905 01c4 14000000 		.word	.LANCHOR2+20
 906              		.cfi_endproc
 907              	.LFE259:
 908              		.size	Vector88, .-Vector88
 909              		.section	.text.adc_lld_init,"ax",%progbits
 910              		.align	2
 911              		.p2align 4,,15
 912              		.global	adc_lld_init
ARM GAS  /tmp/ccqiY2pZ.s 			page 17


 913              		.thumb
 914              		.thumb_func
 915              		.type	adc_lld_init, %function
 916              	adc_lld_init:
 917              	.LFB260:
 918              		.loc 1 170 0
 919              		.cfi_startproc
 920              		@ args = 0, pretend = 0, frame = 0
 921              		@ frame_needed = 0, uses_anonymous_args = 0
 922 0000 F8B5     		push	{r3, r4, r5, r6, r7, lr}
 923              		.cfi_def_cfa_offset 24
 924              		.cfi_offset 3, -24
 925              		.cfi_offset 4, -20
 926              		.cfi_offset 5, -16
 927              		.cfi_offset 6, -12
 928              		.cfi_offset 7, -8
 929              		.cfi_offset 14, -4
 930              		.loc 1 174 0
 931 0002 124F     		ldr	r7, .L85
 932              		.loc 1 187 0
 933 0004 124E     		ldr	r6, .L85+4
 934              		.loc 1 200 0
 935 0006 134D     		ldr	r5, .L85+8
 936              		.loc 1 176 0
 937 0008 134C     		ldr	r4, .L85+12
 938              		.loc 1 174 0
 939 000a 3846     		mov	r0, r7
 940 000c FFF7FEFF 		bl	adcObjectInit
 941              	.LVL82:
 942              		.loc 1 175 0
 943 0010 124A     		ldr	r2, .L85+16
 944              		.loc 1 177 0
 945 0012 134B     		ldr	r3, .L85+20
 946              		.loc 1 175 0
 947 0014 BA62     		str	r2, [r7, #40]
 948              		.loc 1 187 0
 949 0016 3046     		mov	r0, r6
 950              		.loc 1 177 0
 951 0018 3B63     		str	r3, [r7, #48]
 952              		.loc 1 176 0
 953 001a FC62     		str	r4, [r7, #44]
 954              		.loc 1 187 0
 955 001c FFF7FEFF 		bl	adcObjectInit
 956              	.LVL83:
 957              		.loc 1 188 0
 958 0020 104A     		ldr	r2, .L85+24
 959              		.loc 1 190 0
 960 0022 114B     		ldr	r3, .L85+28
 961              		.loc 1 188 0
 962 0024 B262     		str	r2, [r6, #40]
 963              		.loc 1 200 0
 964 0026 2846     		mov	r0, r5
 965              		.loc 1 189 0
 966 0028 A4F11802 		sub	r2, r4, #24
 967 002c F262     		str	r2, [r6, #44]
 968              		.loc 1 190 0
 969 002e 3363     		str	r3, [r6, #48]
ARM GAS  /tmp/ccqiY2pZ.s 			page 18


 970              		.loc 1 202 0
 971 0030 243C     		subs	r4, r4, #36
 972              		.loc 1 200 0
 973 0032 FFF7FEFF 		bl	adcObjectInit
 974              	.LVL84:
 975              		.loc 1 203 0
 976 0036 0D4B     		ldr	r3, .L85+32
 977              		.loc 1 201 0
 978 0038 0D4A     		ldr	r2, .L85+36
 979              		.loc 1 202 0
 980 003a EC62     		str	r4, [r5, #44]
 981              		.loc 1 201 0
 982 003c AA62     		str	r2, [r5, #40]
 983              		.loc 1 203 0
 984 003e 2B63     		str	r3, [r5, #48]
 985              		.loc 1 213 0
 986 0040 0621     		movs	r1, #6
 987 0042 1220     		movs	r0, #18
 988              		.loc 1 214 0
 989 0044 BDE8F840 		pop	{r3, r4, r5, r6, r7, lr}
 990              		.cfi_restore 14
 991              		.cfi_restore 7
 992              		.cfi_restore 6
 993              		.cfi_restore 5
 994              		.cfi_restore 4
 995              		.cfi_restore 3
 996              		.cfi_def_cfa_offset 0
 997              		.loc 1 213 0
 998 0048 FFF7FEBF 		b	nvicEnableVector
 999              	.LVL85:
 1000              	.L86:
 1001              		.align	2
 1002              	.L85:
 1003 004c 00000000 		.word	.LANCHOR0
 1004 0050 00000000 		.word	.LANCHOR1
 1005 0054 00000000 		.word	.LANCHOR2
 1006 0058 90000000 		.word	_stm32_dma_streams+144
 1007 005c 00200140 		.word	1073815552
 1008 0060 162C0200 		.word	142358
 1009 0064 00210140 		.word	1073815808
 1010 0068 162C0202 		.word	33696790
 1011 006c 162C0204 		.word	67251222
 1012 0070 00220140 		.word	1073816064
 1013              		.cfi_endproc
 1014              	.LFE260:
 1015              		.size	adc_lld_init, .-adc_lld_init
 1016              		.section	.text.adc_lld_start,"ax",%progbits
 1017              		.align	2
 1018              		.p2align 4,,15
 1019              		.global	adc_lld_start
 1020              		.thumb
 1021              		.thumb_func
 1022              		.type	adc_lld_start, %function
 1023              	adc_lld_start:
 1024              	.LFB261:
 1025              		.loc 1 223 0
 1026              		.cfi_startproc
ARM GAS  /tmp/ccqiY2pZ.s 			page 19


 1027              		@ args = 0, pretend = 0, frame = 0
 1028              		@ frame_needed = 0, uses_anonymous_args = 0
 1029              	.LVL86:
 1030 0000 38B5     		push	{r3, r4, r5, lr}
 1031              		.cfi_def_cfa_offset 16
 1032              		.cfi_offset 3, -16
 1033              		.cfi_offset 4, -12
 1034              		.cfi_offset 5, -8
 1035              		.cfi_offset 14, -4
 1036              		.loc 1 226 0
 1037 0002 0378     		ldrb	r3, [r0]	@ zero_extendqisi2
 1038 0004 012B     		cmp	r3, #1
 1039 0006 00D0     		beq	.L105
 1040 0008 38BD     		pop	{r3, r4, r5, pc}
 1041              	.L105:
 1042              		.loc 1 228 0
 1043 000a 2C4D     		ldr	r5, .L112
 1044 000c A842     		cmp	r0, r5
 1045 000e 0446     		mov	r4, r0
 1046 0010 13D0     		beq	.L106
 1047              		.loc 1 241 0
 1048 0012 2B4D     		ldr	r5, .L112+4
 1049 0014 A842     		cmp	r0, r5
 1050 0016 22D0     		beq	.L107
 1051              		.loc 1 254 0
 1052 0018 2A4D     		ldr	r5, .L112+8
 1053 001a A842     		cmp	r0, r5
 1054 001c 30D0     		beq	.L108
 1055              	.LVL87:
 1056              	.L91:
 1057              		.loc 1 268 0
 1058 001e 2A48     		ldr	r0, .L112+12
 1059              		.loc 1 273 0
 1060 0020 A26A     		ldr	r2, [r4, #40]
 1061              		.loc 1 268 0
 1062 0022 4368     		ldr	r3, [r0, #4]
 1063 0024 03F44003 		and	r3, r3, #12582912
 1064              		.loc 1 273 0
 1065 0028 0021     		movs	r1, #0
 1066              		.loc 1 268 0
 1067 002a 43F48033 		orr	r3, r3, #65536
 1068              		.loc 1 275 0
 1069 002e 0124     		movs	r4, #1
 1070              	.LVL88:
 1071              		.loc 1 268 0
 1072 0030 4360     		str	r3, [r0, #4]
 1073              		.loc 1 273 0
 1074 0032 5160     		str	r1, [r2, #4]
 1075              		.loc 1 274 0
 1076 0034 9160     		str	r1, [r2, #8]
 1077              		.loc 1 275 0
 1078 0036 9460     		str	r4, [r2, #8]
 1079 0038 38BD     		pop	{r3, r4, r5, pc}
 1080              	.LVL89:
 1081              	.L106:
 1082              	.LBB241:
 1083              		.loc 1 230 0
ARM GAS  /tmp/ccqiY2pZ.s 			page 20


 1084 003a 0346     		mov	r3, r0
 1085 003c 234A     		ldr	r2, .L112+16
 1086 003e C06A     		ldr	r0, [r0, #44]
 1087              	.LVL90:
 1088 0040 0621     		movs	r1, #6
 1089 0042 FFF7FEFF 		bl	dmaStreamAllocate
 1090              	.LVL91:
 1091              		.loc 1 234 0
 1092 0046 0028     		cmp	r0, #0
 1093 0048 2BD1     		bne	.L109
 1094              	.LVL92:
 1095              	.L90:
 1096              		.loc 1 235 0
 1097 004a EB6A     		ldr	r3, [r5, #44]
 1098              		.loc 1 236 0
 1099 004c 204A     		ldr	r2, .L112+20
 1100              		.loc 1 235 0
 1101 004e 1B68     		ldr	r3, [r3]
 1102 0050 2049     		ldr	r1, .L112+24
 1103 0052 9960     		str	r1, [r3, #8]
 1104              		.loc 1 236 0
 1105 0054 536C     		ldr	r3, [r2, #68]
 1106 0056 43F48073 		orr	r3, r3, #256
 1107 005a 5364     		str	r3, [r2, #68]
 1108 005c DFE7     		b	.L91
 1109              	.LVL93:
 1110              	.L107:
 1111              	.LBE241:
 1112              	.LBB242:
 1113              		.loc 1 243 0
 1114 005e 0346     		mov	r3, r0
 1115 0060 1A4A     		ldr	r2, .L112+16
 1116 0062 C06A     		ldr	r0, [r0, #44]
 1117              	.LVL94:
 1118 0064 0621     		movs	r1, #6
 1119 0066 FFF7FEFF 		bl	dmaStreamAllocate
 1120              	.LVL95:
 1121              		.loc 1 247 0
 1122 006a F0B9     		cbnz	r0, .L110
 1123              	.LVL96:
 1124              	.L93:
 1125              		.loc 1 248 0
 1126 006c EB6A     		ldr	r3, [r5, #44]
 1127              		.loc 1 249 0
 1128 006e 184A     		ldr	r2, .L112+20
 1129              		.loc 1 248 0
 1130 0070 1B68     		ldr	r3, [r3]
 1131 0072 1949     		ldr	r1, .L112+28
 1132 0074 9960     		str	r1, [r3, #8]
 1133              		.loc 1 249 0
 1134 0076 536C     		ldr	r3, [r2, #68]
 1135 0078 43F40073 		orr	r3, r3, #512
 1136 007c 5364     		str	r3, [r2, #68]
 1137 007e CEE7     		b	.L91
 1138              	.LVL97:
 1139              	.L108:
 1140              	.LBE242:
ARM GAS  /tmp/ccqiY2pZ.s 			page 21


 1141              	.LBB243:
 1142              		.loc 1 256 0
 1143 0080 0346     		mov	r3, r0
 1144 0082 124A     		ldr	r2, .L112+16
 1145 0084 C06A     		ldr	r0, [r0, #44]
 1146              	.LVL98:
 1147 0086 0621     		movs	r1, #6
 1148 0088 FFF7FEFF 		bl	dmaStreamAllocate
 1149              	.LVL99:
 1150              		.loc 1 260 0
 1151 008c 88B9     		cbnz	r0, .L111
 1152              	.LVL100:
 1153              	.L94:
 1154              		.loc 1 261 0
 1155 008e EB6A     		ldr	r3, [r5, #44]
 1156              		.loc 1 262 0
 1157 0090 0F4A     		ldr	r2, .L112+20
 1158              		.loc 1 261 0
 1159 0092 1B68     		ldr	r3, [r3]
 1160 0094 1149     		ldr	r1, .L112+32
 1161 0096 9960     		str	r1, [r3, #8]
 1162              		.loc 1 262 0
 1163 0098 536C     		ldr	r3, [r2, #68]
 1164 009a 43F48063 		orr	r3, r3, #1024
 1165 009e 5364     		str	r3, [r2, #68]
 1166 00a0 BDE7     		b	.L91
 1167              	.LVL101:
 1168              	.L109:
 1169              	.LBE243:
 1170              	.LBB244:
 1171              		.loc 1 234 0 discriminator 2
 1172 00a2 0F48     		ldr	r0, .L112+36
 1173              	.LVL102:
 1174 00a4 FFF7FEFF 		bl	chSysHalt
 1175              	.LVL103:
 1176 00a8 CFE7     		b	.L90
 1177              	.LVL104:
 1178              	.L110:
 1179              	.LBE244:
 1180              	.LBB245:
 1181              		.loc 1 247 0 discriminator 2
 1182 00aa 0D48     		ldr	r0, .L112+36
 1183              	.LVL105:
 1184 00ac FFF7FEFF 		bl	chSysHalt
 1185              	.LVL106:
 1186 00b0 DCE7     		b	.L93
 1187              	.LVL107:
 1188              	.L111:
 1189              	.LBE245:
 1190              	.LBB246:
 1191              		.loc 1 260 0 discriminator 2
 1192 00b2 0B48     		ldr	r0, .L112+36
 1193              	.LVL108:
 1194 00b4 FFF7FEFF 		bl	chSysHalt
 1195              	.LVL109:
 1196 00b8 E9E7     		b	.L94
 1197              	.L113:
ARM GAS  /tmp/ccqiY2pZ.s 			page 22


 1198 00ba 00BF     		.align	2
 1199              	.L112:
 1200 00bc 00000000 		.word	.LANCHOR0
 1201 00c0 00000000 		.word	.LANCHOR1
 1202 00c4 00000000 		.word	.LANCHOR2
 1203 00c8 00230140 		.word	1073816320
 1204 00cc 00000000 		.word	adc_lld_serve_rx_interrupt
 1205 00d0 00380240 		.word	1073887232
 1206 00d4 4C200140 		.word	1073815628
 1207 00d8 4C210140 		.word	1073815884
 1208 00dc 4C220140 		.word	1073816140
 1209 00e0 00000000 		.word	.LANCHOR3
 1210              	.LBE246:
 1211              		.cfi_endproc
 1212              	.LFE261:
 1213              		.size	adc_lld_start, .-adc_lld_start
 1214              		.section	.text.adc_lld_stop,"ax",%progbits
 1215              		.align	2
 1216              		.p2align 4,,15
 1217              		.global	adc_lld_stop
 1218              		.thumb
 1219              		.thumb_func
 1220              		.type	adc_lld_stop, %function
 1221              	adc_lld_stop:
 1222              	.LFB262:
 1223              		.loc 1 286 0
 1224              		.cfi_startproc
 1225              		@ args = 0, pretend = 0, frame = 0
 1226              		@ frame_needed = 0, uses_anonymous_args = 0
 1227              	.LVL110:
 1228              		.loc 1 289 0
 1229 0000 0378     		ldrb	r3, [r0]	@ zero_extendqisi2
 1230 0002 022B     		cmp	r3, #2
 1231 0004 00D0     		beq	.L122
 1232 0006 7047     		bx	lr
 1233              	.L122:
 1234              		.loc 1 286 0
 1235 0008 10B5     		push	{r4, lr}
 1236              		.cfi_def_cfa_offset 8
 1237              		.cfi_offset 4, -8
 1238              		.cfi_offset 14, -4
 1239 000a 0446     		mov	r4, r0
 1240              		.loc 1 290 0
 1241 000c C06A     		ldr	r0, [r0, #44]
 1242              	.LVL111:
 1243 000e FFF7FEFF 		bl	dmaStreamRelease
 1244              	.LVL112:
 1245              		.loc 1 295 0
 1246 0012 1049     		ldr	r1, .L126
 1247              		.loc 1 291 0
 1248 0014 A36A     		ldr	r3, [r4, #40]
 1249 0016 0022     		movs	r2, #0
 1250              		.loc 1 295 0
 1251 0018 8C42     		cmp	r4, r1
 1252              		.loc 1 291 0
 1253 001a 5A60     		str	r2, [r3, #4]
 1254              		.loc 1 292 0
ARM GAS  /tmp/ccqiY2pZ.s 			page 23


 1255 001c 9A60     		str	r2, [r3, #8]
 1256              		.loc 1 295 0
 1257 001e 12D0     		beq	.L123
 1258              		.loc 1 300 0
 1259 0020 0D4B     		ldr	r3, .L126+4
 1260 0022 9C42     		cmp	r4, r3
 1261 0024 09D0     		beq	.L124
 1262              		.loc 1 305 0
 1263 0026 0D4B     		ldr	r3, .L126+8
 1264 0028 9C42     		cmp	r4, r3
 1265 002a 00D0     		beq	.L125
 1266              	.L114:
 1267 002c 10BD     		pop	{r4, pc}
 1268              	.LVL113:
 1269              	.L125:
 1270              		.loc 1 306 0
 1271 002e 0C4A     		ldr	r2, .L126+12
 1272 0030 536C     		ldr	r3, [r2, #68]
 1273 0032 23F48063 		bic	r3, r3, #1024
 1274 0036 5364     		str	r3, [r2, #68]
 1275              		.loc 1 309 0
 1276 0038 F8E7     		b	.L114
 1277              	.L124:
 1278              		.loc 1 301 0
 1279 003a 094A     		ldr	r2, .L126+12
 1280 003c 536C     		ldr	r3, [r2, #68]
 1281 003e 23F40073 		bic	r3, r3, #512
 1282 0042 5364     		str	r3, [r2, #68]
 1283 0044 10BD     		pop	{r4, pc}
 1284              	.LVL114:
 1285              	.L123:
 1286              		.loc 1 296 0
 1287 0046 064A     		ldr	r2, .L126+12
 1288 0048 536C     		ldr	r3, [r2, #68]
 1289 004a 23F48073 		bic	r3, r3, #256
 1290 004e 5364     		str	r3, [r2, #68]
 1291 0050 10BD     		pop	{r4, pc}
 1292              	.LVL115:
 1293              	.L127:
 1294 0052 00BF     		.align	2
 1295              	.L126:
 1296 0054 00000000 		.word	.LANCHOR0
 1297 0058 00000000 		.word	.LANCHOR1
 1298 005c 00000000 		.word	.LANCHOR2
 1299 0060 00380240 		.word	1073887232
 1300              		.cfi_endproc
 1301              	.LFE262:
 1302              		.size	adc_lld_stop, .-adc_lld_stop
 1303              		.section	.text.adc_lld_start_conversion,"ax",%progbits
 1304              		.align	2
 1305              		.p2align 4,,15
 1306              		.global	adc_lld_start_conversion
 1307              		.thumb
 1308              		.thumb_func
 1309              		.type	adc_lld_start_conversion, %function
 1310              	adc_lld_start_conversion:
 1311              	.LFB263:
ARM GAS  /tmp/ccqiY2pZ.s 			page 24


 1312              		.loc 1 318 0
 1313              		.cfi_startproc
 1314              		@ args = 0, pretend = 0, frame = 0
 1315              		@ frame_needed = 0, uses_anonymous_args = 0
 1316              	.LVL116:
 1317              		.loc 1 321 0
 1318 0000 0369     		ldr	r3, [r0, #16]
 1319              	.LVL117:
 1320              		.loc 1 324 0
 1321 0002 016B     		ldr	r1, [r0, #48]
 1322              	.LVL118:
 1323              		.loc 1 325 0
 1324 0004 1A78     		ldrb	r2, [r3]	@ zero_extendqisi2
 1325              		.loc 1 318 0
 1326 0006 F0B5     		push	{r4, r5, r6, r7, lr}
 1327              		.cfi_def_cfa_offset 20
 1328              		.cfi_offset 4, -20
 1329              		.cfi_offset 5, -16
 1330              		.cfi_offset 6, -12
 1331              		.cfi_offset 7, -8
 1332              		.cfi_offset 14, -4
 1333              		.loc 1 325 0
 1334 0008 002A     		cmp	r2, #0
 1335 000a 2BD1     		bne	.L129
 1336 000c C268     		ldr	r2, [r0, #12]
 1337              	.L130:
 1338              		.loc 1 333 0
 1339 000e C56A     		ldr	r5, [r0, #44]
 1340              		.loc 1 334 0
 1341 0010 5C88     		ldrh	r4, [r3, #2]
 1342              		.loc 1 333 0
 1343 0012 2D68     		ldr	r5, [r5]
 1344 0014 8668     		ldr	r6, [r0, #8]
 1345 0016 EE60     		str	r6, [r5, #12]
 1346              		.loc 1 334 0
 1347 0018 02FB04F2 		mul	r2, r2, r4
 1348 001c 6A60     		str	r2, [r5, #4]
 1349              		.loc 1 348 0
 1350 001e DC68     		ldr	r4, [r3, #12]
 1351              		.loc 1 336 0
 1352 0020 2960     		str	r1, [r5]
 1353              		.loc 1 337 0
 1354 0022 2E68     		ldr	r6, [r5]
 1355              		.loc 1 340 0
 1356 0024 826A     		ldr	r2, [r0, #40]
 1357              		.loc 1 351 0
 1358 0026 1969     		ldr	r1, [r3, #16]
 1359              	.LVL119:
 1360              		.loc 1 341 0
 1361 0028 D3F814E0 		ldr	lr, [r3, #20]
 1362              		.loc 1 342 0
 1363 002c 9F69     		ldr	r7, [r3, #24]
 1364              		.loc 1 348 0
 1365 002e 44F08060 		orr	r0, r4, #67108864
 1366              	.LVL120:
 1367              		.loc 1 337 0
 1368 0032 46F00104 		orr	r4, r6, #1
ARM GAS  /tmp/ccqiY2pZ.s 			page 25


 1369 0036 2C60     		str	r4, [r5]
 1370              	.LVL121:
 1371              		.loc 1 340 0
 1372 0038 0024     		movs	r4, #0
 1373              		.loc 1 343 0
 1374 003a DD69     		ldr	r5, [r3, #28]
 1375              		.loc 1 340 0
 1376 003c 1460     		str	r4, [r2]
 1377              		.loc 1 344 0
 1378 003e 1C6A     		ldr	r4, [r3, #32]
 1379              		.loc 1 345 0
 1380 0040 5B6A     		ldr	r3, [r3, #36]
 1381              	.LVL122:
 1382              		.loc 1 341 0
 1383 0042 C2F80CE0 		str	lr, [r2, #12]
 1384              		.loc 1 348 0
 1385 0046 40F48070 		orr	r0, r0, #256
 1386              		.loc 1 342 0
 1387 004a 1761     		str	r7, [r2, #16]
 1388              		.loc 1 343 0
 1389 004c D562     		str	r5, [r2, #44]
 1390              		.loc 1 344 0
 1391 004e 1463     		str	r4, [r2, #48]
 1392              		.loc 1 345 0
 1393 0050 5363     		str	r3, [r2, #52]
 1394              		.loc 1 355 0
 1395 0052 4B00     		lsls	r3, r1, #1
 1396              		.loc 1 348 0
 1397 0054 5060     		str	r0, [r2, #4]
 1398              		.loc 1 355 0
 1399 0056 0DD4     		bmi	.L135
 1400              		.loc 1 351 0
 1401 0058 41F44071 		orr	r1, r1, #768
 1402              	.LVL123:
 1403 005c 41F00101 		orr	r1, r1, #1
 1404              		.loc 1 363 0
 1405 0060 9160     		str	r1, [r2, #8]
 1406              	.LVL124:
 1407 0062 F0BD     		pop	{r4, r5, r6, r7, pc}
 1408              	.LVL125:
 1409              	.L129:
 1410              		.loc 1 327 0
 1411 0064 C268     		ldr	r2, [r0, #12]
 1412 0066 012A     		cmp	r2, #1
 1413              		.loc 1 326 0
 1414 0068 94BF     		ite	ls
 1415 006a 41F48071 		orrls	r1, r1, #256
 1416              	.LVL126:
 1417              		.loc 1 330 0
 1418 006e 41F48471 		orrhi	r1, r1, #264
 1419              	.LVL127:
 1420 0072 CCE7     		b	.L130
 1421              	.LVL128:
 1422              	.L135:
 1423              		.loc 1 357 0
 1424 0074 21F08043 		bic	r3, r1, #1073741824
 1425 0078 23F00203 		bic	r3, r3, #2
ARM GAS  /tmp/ccqiY2pZ.s 			page 26


 1426 007c 43F44073 		orr	r3, r3, #768
 1427              		.loc 1 360 0
 1428 0080 41F44071 		orr	r1, r1, #768
 1429              	.LVL129:
 1430              		.loc 1 357 0
 1431 0084 43F00303 		orr	r3, r3, #3
 1432              		.loc 1 360 0
 1433 0088 41F00301 		orr	r1, r1, #3
 1434              		.loc 1 357 0
 1435 008c 9360     		str	r3, [r2, #8]
 1436              		.loc 1 360 0
 1437 008e 9160     		str	r1, [r2, #8]
 1438              	.LVL130:
 1439 0090 F0BD     		pop	{r4, r5, r6, r7, pc}
 1440              		.cfi_endproc
 1441              	.LFE263:
 1442              		.size	adc_lld_start_conversion, .-adc_lld_start_conversion
 1443 0092 00BF     		.section	.text.adc_lld_stop_conversion,"ax",%progbits
 1444              		.align	2
 1445              		.p2align 4,,15
 1446              		.global	adc_lld_stop_conversion
 1447              		.thumb
 1448              		.thumb_func
 1449              		.type	adc_lld_stop_conversion, %function
 1450              	adc_lld_stop_conversion:
 1451              	.LFB264:
 1452              		.loc 1 373 0
 1453              		.cfi_startproc
 1454              		@ args = 0, pretend = 0, frame = 0
 1455              		@ frame_needed = 0, uses_anonymous_args = 0
 1456              		@ link register save eliminated.
 1457              	.LVL131:
 1458 0000 30B4     		push	{r4, r5}
 1459              		.cfi_def_cfa_offset 8
 1460              		.cfi_offset 4, -8
 1461              		.cfi_offset 5, -4
 1462              		.loc 1 375 0
 1463 0002 C46A     		ldr	r4, [r0, #44]
 1464 0004 2268     		ldr	r2, [r4]
 1465 0006 1368     		ldr	r3, [r2]
 1466 0008 23F01F03 		bic	r3, r3, #31
 1467 000c 1360     		str	r3, [r2]
 1468              	.L137:
 1469              		.loc 1 375 0 is_stmt 0 discriminator 2
 1470 000e 1368     		ldr	r3, [r2]
 1471 0010 13F00103 		ands	r3, r3, #1
 1472 0014 FBD1     		bne	.L137
 1473              		.loc 1 375 0 discriminator 3
 1474 0016 257A     		ldrb	r5, [r4, #8]	@ zero_extendqisi2
 1475              		.loc 1 376 0 is_stmt 1 discriminator 3
 1476 0018 826A     		ldr	r2, [r0, #40]
 1477              		.loc 1 375 0 discriminator 3
 1478 001a 6468     		ldr	r4, [r4, #4]
 1479 001c 3D21     		movs	r1, #61
 1480 001e A940     		lsls	r1, r1, r5
 1481              		.loc 1 378 0 discriminator 3
 1482 0020 0120     		movs	r0, #1
ARM GAS  /tmp/ccqiY2pZ.s 			page 27


 1483              	.LVL132:
 1484              		.loc 1 375 0 discriminator 3
 1485 0022 2160     		str	r1, [r4]
 1486              		.loc 1 376 0 discriminator 3
 1487 0024 5360     		str	r3, [r2, #4]
 1488              		.loc 1 379 0 discriminator 3
 1489 0026 30BC     		pop	{r4, r5}
 1490              		.cfi_restore 5
 1491              		.cfi_restore 4
 1492              		.cfi_def_cfa_offset 0
 1493              		.loc 1 377 0 discriminator 3
 1494 0028 9360     		str	r3, [r2, #8]
 1495              		.loc 1 378 0 discriminator 3
 1496 002a 9060     		str	r0, [r2, #8]
 1497              		.loc 1 379 0 discriminator 3
 1498 002c 7047     		bx	lr
 1499              		.cfi_endproc
 1500              	.LFE264:
 1501              		.size	adc_lld_stop_conversion, .-adc_lld_stop_conversion
 1502 002e 00BF     		.section	.text.adcSTM32EnableTSVREFE,"ax",%progbits
 1503              		.align	2
 1504              		.p2align 4,,15
 1505              		.global	adcSTM32EnableTSVREFE
 1506              		.thumb
 1507              		.thumb_func
 1508              		.type	adcSTM32EnableTSVREFE, %function
 1509              	adcSTM32EnableTSVREFE:
 1510              	.LFB265:
 1511              		.loc 1 387 0
 1512              		.cfi_startproc
 1513              		@ args = 0, pretend = 0, frame = 0
 1514              		@ frame_needed = 0, uses_anonymous_args = 0
 1515              		@ link register save eliminated.
 1516              		.loc 1 389 0
 1517 0000 024A     		ldr	r2, .L141
 1518 0002 5368     		ldr	r3, [r2, #4]
 1519 0004 43F40003 		orr	r3, r3, #8388608
 1520 0008 5360     		str	r3, [r2, #4]
 1521 000a 7047     		bx	lr
 1522              	.L142:
 1523              		.align	2
 1524              	.L141:
 1525 000c 00230140 		.word	1073816320
 1526              		.cfi_endproc
 1527              	.LFE265:
 1528              		.size	adcSTM32EnableTSVREFE, .-adcSTM32EnableTSVREFE
 1529              		.section	.text.adcSTM32DisableTSVREFE,"ax",%progbits
 1530              		.align	2
 1531              		.p2align 4,,15
 1532              		.global	adcSTM32DisableTSVREFE
 1533              		.thumb
 1534              		.thumb_func
 1535              		.type	adcSTM32DisableTSVREFE, %function
 1536              	adcSTM32DisableTSVREFE:
 1537              	.LFB266:
 1538              		.loc 1 398 0
 1539              		.cfi_startproc
ARM GAS  /tmp/ccqiY2pZ.s 			page 28


 1540              		@ args = 0, pretend = 0, frame = 0
 1541              		@ frame_needed = 0, uses_anonymous_args = 0
 1542              		@ link register save eliminated.
 1543              		.loc 1 400 0
 1544 0000 024A     		ldr	r2, .L144
 1545 0002 5368     		ldr	r3, [r2, #4]
 1546 0004 23F40003 		bic	r3, r3, #8388608
 1547 0008 5360     		str	r3, [r2, #4]
 1548 000a 7047     		bx	lr
 1549              	.L145:
 1550              		.align	2
 1551              	.L144:
 1552 000c 00230140 		.word	1073816320
 1553              		.cfi_endproc
 1554              	.LFE266:
 1555              		.size	adcSTM32DisableTSVREFE, .-adcSTM32DisableTSVREFE
 1556              		.section	.text.adcSTM32EnableVBATE,"ax",%progbits
 1557              		.align	2
 1558              		.p2align 4,,15
 1559              		.global	adcSTM32EnableVBATE
 1560              		.thumb
 1561              		.thumb_func
 1562              		.type	adcSTM32EnableVBATE, %function
 1563              	adcSTM32EnableVBATE:
 1564              	.LFB267:
 1565              		.loc 1 409 0
 1566              		.cfi_startproc
 1567              		@ args = 0, pretend = 0, frame = 0
 1568              		@ frame_needed = 0, uses_anonymous_args = 0
 1569              		@ link register save eliminated.
 1570              		.loc 1 411 0
 1571 0000 024A     		ldr	r2, .L147
 1572 0002 5368     		ldr	r3, [r2, #4]
 1573 0004 43F48003 		orr	r3, r3, #4194304
 1574 0008 5360     		str	r3, [r2, #4]
 1575 000a 7047     		bx	lr
 1576              	.L148:
 1577              		.align	2
 1578              	.L147:
 1579 000c 00230140 		.word	1073816320
 1580              		.cfi_endproc
 1581              	.LFE267:
 1582              		.size	adcSTM32EnableVBATE, .-adcSTM32EnableVBATE
 1583              		.section	.text.adcSTM32DisableVBATE,"ax",%progbits
 1584              		.align	2
 1585              		.p2align 4,,15
 1586              		.global	adcSTM32DisableVBATE
 1587              		.thumb
 1588              		.thumb_func
 1589              		.type	adcSTM32DisableVBATE, %function
 1590              	adcSTM32DisableVBATE:
 1591              	.LFB268:
 1592              		.loc 1 420 0
 1593              		.cfi_startproc
 1594              		@ args = 0, pretend = 0, frame = 0
 1595              		@ frame_needed = 0, uses_anonymous_args = 0
 1596              		@ link register save eliminated.
ARM GAS  /tmp/ccqiY2pZ.s 			page 29


 1597              		.loc 1 422 0
 1598 0000 024A     		ldr	r2, .L150
 1599 0002 5368     		ldr	r3, [r2, #4]
 1600 0004 23F48003 		bic	r3, r3, #4194304
 1601 0008 5360     		str	r3, [r2, #4]
 1602 000a 7047     		bx	lr
 1603              	.L151:
 1604              		.align	2
 1605              	.L150:
 1606 000c 00230140 		.word	1073816320
 1607              		.cfi_endproc
 1608              	.LFE268:
 1609              		.size	adcSTM32DisableVBATE, .-adcSTM32DisableVBATE
 1610              		.global	ADCD3
 1611              		.global	ADCD2
 1612              		.global	ADCD1
 1613              		.section	.bss.ADCD1,"aw",%nobits
 1614              		.align	2
 1615              		.set	.LANCHOR0,. + 0
 1616              		.type	ADCD1, %object
 1617              		.size	ADCD1, 52
 1618              	ADCD1:
 1619 0000 00000000 		.space	52
 1619      00000000 
 1619      00000000 
 1619      00000000 
 1619      00000000 
 1620              		.section	.bss.ADCD2,"aw",%nobits
 1621              		.align	2
 1622              		.set	.LANCHOR1,. + 0
 1623              		.type	ADCD2, %object
 1624              		.size	ADCD2, 52
 1625              	ADCD2:
 1626 0000 00000000 		.space	52
 1626      00000000 
 1626      00000000 
 1626      00000000 
 1626      00000000 
 1627              		.section	.bss.ADCD3,"aw",%nobits
 1628              		.align	2
 1629              		.set	.LANCHOR2,. + 0
 1630              		.type	ADCD3, %object
 1631              		.size	ADCD3, 52
 1632              	ADCD3:
 1633 0000 00000000 		.space	52
 1633      00000000 
 1633      00000000 
 1633      00000000 
 1633      00000000 
 1634              		.section	.rodata.__func__.7118,"a",%progbits
 1635              		.align	2
 1636              		.set	.LANCHOR3,. + 0
 1637              		.type	__func__.7118, %object
 1638              		.size	__func__.7118, 14
 1639              	__func__.7118:
 1640 0000 6164635F 		.ascii	"adc_lld_start\000"
 1640      6C6C645F 
ARM GAS  /tmp/ccqiY2pZ.s 			page 30


 1640      73746172 
 1640      7400
 1641              		.text
 1642              	.Letext0:
 1643              		.file 5 "/usr/lib/gcc/arm-none-eabi/5.3.1/include/stddef.h"
 1644              		.file 6 "/usr/arm-none-eabi/include/machine/_default_types.h"
 1645              		.file 7 "/usr/arm-none-eabi/include/sys/_stdint.h"
 1646              		.file 8 "/home/selim/working/ChibiOS/os/rt/ports/ARMCMx/compilers/GCC/chtypes.h"
 1647              		.file 9 "/home/selim/working/ChibiOS/os/rt/include/chsystypes.h"
 1648              		.file 10 "/home/selim/working/ChibiOS/os/rt/include/chschd.h"
 1649              		.file 11 "/home/selim/working/ChibiOS/os/ext/CMSIS/ST/stm32f407xx.h"
 1650              		.file 12 "/home/selim/working/ChibiOS/os/rt/ports/ARMCMx/chcore.h"
 1651              		.file 13 "/home/selim/working/ChibiOS/os/rt/ports/ARMCMx/chcore_v7m.h"
 1652              		.file 14 "/home/selim/working/ChibiOS/os/rt/include/chdebug.h"
 1653              		.file 15 "/home/selim/working/ChibiOS/os/rt/include/chtm.h"
 1654              		.file 16 "/home/selim/working/ChibiOS/os/rt/include/chstats.h"
 1655              		.file 17 "/home/selim/working/ChibiOS/os/rt/include/chsem.h"
 1656              		.file 18 "/home/selim/working/ChibiOS/os/rt/include/chmtx.h"
 1657              		.file 19 "/home/selim/working/ChibiOS/os/hal/ports/STM32/STM32F4xx/stm32_dma.h"
 1658              		.file 20 "/home/selim/working/ChibiOS/os/hal/include/adc.h"
 1659              		.file 21 "/home/selim/working/ChibiOS/os/hal/ports/STM32/STM32F4xx/adc_lld.h"
 1660              		.file 22 "/home/selim/working/ChibiOS/os/ext/CMSIS/include/core_cm4.h"
 1661              		.file 23 "/home/selim/working/ChibiOS/os/rt/include/chthreads.h"
 1662              		.file 24 "/home/selim/working/ChibiOS/os/hal/ports/common/ARMCMx/nvic.h"