ARM GAS  /tmp/ccEhAe9k.s 			page 1


   1              		.syntax unified
   2              		.cpu cortex-m4
   3              		.fpu softvfp
   4              		.eabi_attribute 20, 1
   5              		.eabi_attribute 21, 1
   6              		.eabi_attribute 23, 3
   7              		.eabi_attribute 24, 1
   8              		.eabi_attribute 25, 1
   9              		.eabi_attribute 26, 1
  10              		.eabi_attribute 30, 2
  11              		.eabi_attribute 34, 1
  12              		.eabi_attribute 18, 4
  13              		.thumb
  14              		.syntax unified
  15              		.file	"chheap.c"
  16              		.text
  17              	.Ltext0:
  18              		.cfi_sections	.debug_frame
  19              		.section	.text._heap_init,"ax",%progbits
  20              		.align	2
  21              		.p2align 4,,15
  22              		.global	_heap_init
  23              		.thumb
  24              		.thumb_func
  25              		.type	_heap_init, %function
  26              	_heap_init:
  27              	.LFB227:
  28              		.file 1 "/home/selim/working/ChibiOS/os/rt/src/chheap.c"
  29              		.loc 1 91 0
  30              		.cfi_startproc
  31              		@ args = 0, pretend = 0, frame = 0
  32              		@ frame_needed = 0, uses_anonymous_args = 0
  33              		@ link register save eliminated.
  34              		.loc 1 93 0
  35 0000 044B     		ldr	r3, .L2
  36 0002 054A     		ldr	r2, .L2+4
  37 0004 1A60     		str	r2, [r3]
  38              		.loc 1 97 0
  39 0006 03F11000 		add	r0, r3, #16
  40              		.loc 1 94 0
  41 000a 0022     		movs	r2, #0
  42 000c 9A60     		str	r2, [r3, #8]
  43              		.loc 1 95 0
  44 000e DA60     		str	r2, [r3, #12]
  45              		.loc 1 97 0
  46 0010 FFF7FEBF 		b	chMtxObjectInit
  47              	.LVL0:
  48              	.L3:
  49              		.align	2
  50              	.L2:
  51 0014 00000000 		.word	.LANCHOR0
  52 0018 00000000 		.word	chCoreAlloc
  53              		.cfi_endproc
  54              	.LFE227:
  55              		.size	_heap_init, .-_heap_init
  56              		.section	.text.chHeapObjectInit,"ax",%progbits
  57              		.align	2
ARM GAS  /tmp/ccEhAe9k.s 			page 2


  58              		.p2align 4,,15
  59              		.global	chHeapObjectInit
  60              		.thumb
  61              		.thumb_func
  62              		.type	chHeapObjectInit, %function
  63              	chHeapObjectInit:
  64              	.LFB228:
  65              		.loc 1 114 0
  66              		.cfi_startproc
  67              		@ args = 0, pretend = 0, frame = 0
  68              		@ frame_needed = 0, uses_anonymous_args = 0
  69              	.LVL1:
  70              		.loc 1 117 0
  71 0000 41EA0203 		orr	r3, r1, r2
  72 0004 5B07     		lsls	r3, r3, #29
  73              		.loc 1 114 0
  74 0006 70B5     		push	{r4, r5, r6, lr}
  75              		.cfi_def_cfa_offset 16
  76              		.cfi_offset 4, -16
  77              		.cfi_offset 5, -12
  78              		.cfi_offset 6, -8
  79              		.cfi_offset 14, -4
  80              		.loc 1 114 0
  81 0008 0C46     		mov	r4, r1
  82              	.LVL2:
  83 000a 1546     		mov	r5, r2
  84 000c 0646     		mov	r6, r0
  85              		.loc 1 117 0
  86 000e 02D0     		beq	.L5
  87              		.loc 1 117 0 is_stmt 0 discriminator 4
  88 0010 0748     		ldr	r0, .L11
  89              	.LVL3:
  90 0012 FFF7FEFF 		bl	chSysHalt
  91              	.LVL4:
  92              	.L5:
  93              		.loc 1 119 0 is_stmt 1
  94 0016 0023     		movs	r3, #0
  95              		.loc 1 123 0
  96 0018 083D     		subs	r5, r5, #8
  97              	.LVL5:
  98              		.loc 1 120 0
  99 001a B460     		str	r4, [r6, #8]
 100              		.loc 1 119 0
 101 001c 3360     		str	r3, [r6]
 102              		.loc 1 121 0
 103 001e F360     		str	r3, [r6, #12]
 104              		.loc 1 122 0
 105 0020 84E82800 		stmia	r4, {r3, r5}
 106              		.loc 1 125 0
 107 0024 06F11000 		add	r0, r6, #16
 108              		.loc 1 129 0
 109 0028 BDE87040 		pop	{r4, r5, r6, lr}
 110              		.cfi_restore 14
 111              		.cfi_restore 6
 112              		.cfi_restore 5
 113              		.cfi_restore 4
 114              		.cfi_def_cfa_offset 0
ARM GAS  /tmp/ccEhAe9k.s 			page 3


 115              	.LVL6:
 116              		.loc 1 125 0
 117 002c FFF7FEBF 		b	chMtxObjectInit
 118              	.LVL7:
 119              	.L12:
 120              		.align	2
 121              	.L11:
 122 0030 00000000 		.word	.LANCHOR1
 123              		.cfi_endproc
 124              	.LFE228:
 125              		.size	chHeapObjectInit, .-chHeapObjectInit
 126              		.section	.text.chHeapAlloc,"ax",%progbits
 127              		.align	2
 128              		.p2align 4,,15
 129              		.global	chHeapAlloc
 130              		.thumb
 131              		.thumb_func
 132              		.type	chHeapAlloc, %function
 133              	chHeapAlloc:
 134              	.LFB229:
 135              		.loc 1 147 0
 136              		.cfi_startproc
 137              		@ args = 0, pretend = 0, frame = 0
 138              		@ frame_needed = 0, uses_anonymous_args = 0
 139              	.LVL8:
 140 0000 F8B5     		push	{r3, r4, r5, r6, r7, lr}
 141              		.cfi_def_cfa_offset 24
 142              		.cfi_offset 3, -24
 143              		.cfi_offset 4, -20
 144              		.cfi_offset 5, -16
 145              		.cfi_offset 6, -12
 146              		.cfi_offset 7, -8
 147              		.cfi_offset 14, -4
 148              		.loc 1 151 0
 149 0002 214E     		ldr	r6, .L28
 150 0004 0028     		cmp	r0, #0
 151 0006 18BF     		it	ne
 152 0008 0646     		movne	r6, r0
 153              	.LVL9:
 154              		.loc 1 157 0
 155 000a 06F11007 		add	r7, r6, #16
 156              		.loc 1 154 0
 157 000e 0731     		adds	r1, r1, #7
 158              	.LVL10:
 159              		.loc 1 157 0
 160 0010 3846     		mov	r0, r7
 161              		.loc 1 154 0
 162 0012 21F00705 		bic	r5, r1, #7
 163              	.LVL11:
 164              		.loc 1 155 0
 165 0016 06F10804 		add	r4, r6, #8
 166              	.LVL12:
 167              		.loc 1 157 0
 168 001a FFF7FEFF 		bl	chMtxLock
 169              	.LVL13:
 170              		.loc 1 158 0
 171 001e 03E0     		b	.L15
ARM GAS  /tmp/ccEhAe9k.s 			page 4


 172              	.LVL14:
 173              	.L19:
 174              		.loc 1 160 0
 175 0020 4368     		ldr	r3, [r0, #4]
 176 0022 9D42     		cmp	r5, r3
 177 0024 12D9     		bls	.L27
 178 0026 0446     		mov	r4, r0
 179              	.LVL15:
 180              	.L15:
 181              		.loc 1 158 0
 182 0028 2068     		ldr	r0, [r4]
 183              	.LVL16:
 184 002a 0028     		cmp	r0, #0
 185 002c F8D1     		bne	.L19
 186              		.loc 1 186 0
 187 002e 3846     		mov	r0, r7
 188              	.LVL17:
 189 0030 FFF7FEFF 		bl	chMtxUnlock
 190              	.LVL18:
 191              		.loc 1 190 0
 192 0034 3368     		ldr	r3, [r6]
 193 0036 2BB3     		cbz	r3, .L21
 194              		.loc 1 191 0
 195 0038 05F10800 		add	r0, r5, #8
 196 003c 9847     		blx	r3
 197              	.LVL19:
 198              		.loc 1 192 0
 199 003e 08B3     		cbz	r0, .L21
 200              		.loc 1 193 0
 201 0040 0660     		str	r6, [r0]
 202              		.loc 1 194 0
 203 0042 4560     		str	r5, [r0, #4]
 204              		.loc 1 195 0
 205 0044 00F10804 		add	r4, r0, #8
 206              	.LVL20:
 207              	.L18:
 208              		.loc 1 204 0
 209 0048 2046     		mov	r0, r4
 210 004a F8BD     		pop	{r3, r4, r5, r6, r7, pc}
 211              	.LVL21:
 212              	.L27:
 213              		.loc 1 161 0
 214 004c 05F10802 		add	r2, r5, #8
 215 0050 9342     		cmp	r3, r2
 216 0052 09D2     		bcs	.L16
 217              		.loc 1 165 0
 218 0054 0368     		ldr	r3, [r0]
 219 0056 2360     		str	r3, [r4]
 220              	.L17:
 221              		.loc 1 177 0
 222 0058 0446     		mov	r4, r0
 223              	.LVL22:
 224              		.loc 1 178 0
 225 005a 3846     		mov	r0, r7
 226              	.LVL23:
 227              		.loc 1 177 0
 228 005c 44F8086B 		str	r6, [r4], #8
ARM GAS  /tmp/ccEhAe9k.s 			page 5


 229              	.LVL24:
 230              		.loc 1 178 0
 231 0060 FFF7FEFF 		bl	chMtxUnlock
 232              	.LVL25:
 233              		.loc 1 204 0
 234 0064 2046     		mov	r0, r4
 235 0066 F8BD     		pop	{r3, r4, r5, r6, r7, pc}
 236              	.LVL26:
 237              	.L16:
 238              		.loc 1 173 0
 239 0068 6FF00701 		mvn	r1, #7
 240 006c 491B     		subs	r1, r1, r5
 241              		.loc 1 170 0
 242 006e 00EB020E 		add	lr, r0, r2
 243              	.LVL27:
 244              		.loc 1 173 0
 245 0072 0B44     		add	r3, r3, r1
 246              		.loc 1 172 0
 247 0074 0168     		ldr	r1, [r0]
 248 0076 8150     		str	r1, [r0, r2]
 249              		.loc 1 173 0
 250 0078 CEF80430 		str	r3, [lr, #4]
 251              		.loc 1 174 0
 252 007c C4F800E0 		str	lr, [r4]
 253              		.loc 1 175 0
 254 0080 4560     		str	r5, [r0, #4]
 255 0082 E9E7     		b	.L17
 256              	.LVL28:
 257              	.L21:
 258              		.loc 1 203 0
 259 0084 0024     		movs	r4, #0
 260              	.LVL29:
 261 0086 DFE7     		b	.L18
 262              	.L29:
 263              		.align	2
 264              	.L28:
 265 0088 00000000 		.word	.LANCHOR0
 266              		.cfi_endproc
 267              	.LFE229:
 268              		.size	chHeapAlloc, .-chHeapAlloc
 269              		.section	.text.chHeapFree,"ax",%progbits
 270              		.align	2
 271              		.p2align 4,,15
 272              		.global	chHeapFree
 273              		.thumb
 274              		.thumb_func
 275              		.type	chHeapFree, %function
 276              	chHeapFree:
 277              	.LFB230:
 278              		.loc 1 213 0
 279              		.cfi_startproc
 280              		@ args = 0, pretend = 0, frame = 0
 281              		@ frame_needed = 0, uses_anonymous_args = 0
 282              	.LVL30:
 283 0000 2DE9F041 		push	{r4, r5, r6, r7, r8, lr}
 284              		.cfi_def_cfa_offset 24
 285              		.cfi_offset 4, -24
ARM GAS  /tmp/ccEhAe9k.s 			page 6


 286              		.cfi_offset 5, -20
 287              		.cfi_offset 6, -16
 288              		.cfi_offset 7, -12
 289              		.cfi_offset 8, -8
 290              		.cfi_offset 14, -4
 291              		.loc 1 217 0
 292 0004 8046     		mov	r8, r0
 293 0006 0028     		cmp	r0, #0
 294 0008 58D0     		beq	.L45
 295              	.LVL31:
 296              	.L31:
 297              		.loc 1 222 0
 298 000a 58F8086C 		ldr	r6, [r8, #-8]
 299              		.loc 1 225 0
 300 000e 06F11007 		add	r7, r6, #16
 301 0012 3846     		mov	r0, r7
 302 0014 FFF7FEFF 		bl	chMtxLock
 303              	.LVL32:
 304              		.loc 1 223 0
 305 0018 0836     		adds	r6, r6, #8
 306 001a 3446     		mov	r4, r6
 307              		.loc 1 220 0
 308 001c A8F10805 		sub	r5, r8, #8
 309              	.LVL33:
 310              	.L39:
 311              		.loc 1 227 0 discriminator 1
 312 0020 AC42     		cmp	r4, r5
 313 0022 04D8     		bhi	.L32
 314              		.loc 1 227 0 is_stmt 0 discriminator 2
 315 0024 6368     		ldr	r3, [r4, #4]
 316 0026 0833     		adds	r3, r3, #8
 317 0028 2344     		add	r3, r3, r4
 318 002a 9D42     		cmp	r5, r3
 319 002c 0BD3     		bcc	.L46
 320              	.L32:
 321              		.loc 1 229 0 is_stmt 1
 322 002e B442     		cmp	r4, r6
 323 0030 0ED0     		beq	.L33
 324              	.L47:
 325              		.loc 1 229 0 is_stmt 0 discriminator 2
 326 0032 AC42     		cmp	r4, r5
 327 0034 0CD3     		bcc	.L33
 328 0036 2468     		ldr	r4, [r4]
 329              	.LVL34:
 330              		.loc 1 227 0 is_stmt 1
 331 0038 AC42     		cmp	r4, r5
 332 003a F8D8     		bhi	.L32
 333 003c 6368     		ldr	r3, [r4, #4]
 334 003e 0833     		adds	r3, r3, #8
 335 0040 2344     		add	r3, r3, r4
 336 0042 9D42     		cmp	r5, r3
 337 0044 F3D2     		bcs	.L32
 338              	.L46:
 339              		.loc 1 227 0 is_stmt 0 discriminator 3
 340 0046 1F48     		ldr	r0, .L50
 341 0048 FFF7FEFF 		bl	chSysHalt
 342              	.LVL35:
ARM GAS  /tmp/ccEhAe9k.s 			page 7


 343              		.loc 1 229 0 is_stmt 1 discriminator 3
 344 004c B442     		cmp	r4, r6
 345 004e F0D1     		bne	.L47
 346              	.L33:
 347              		.loc 1 230 0 discriminator 3
 348 0050 2368     		ldr	r3, [r4]
 349              		.loc 1 229 0 discriminator 3
 350 0052 1BB1     		cbz	r3, .L35
 351              		.loc 1 230 0
 352 0054 9D42     		cmp	r5, r3
 353 0056 01D3     		bcc	.L35
 354 0058 1C46     		mov	r4, r3
 355              	.LVL36:
 356              		.loc 1 248 0
 357 005a E1E7     		b	.L39
 358              	.LVL37:
 359              	.L35:
 360              		.loc 1 232 0
 361 005c 48F8083C 		str	r3, [r8, #-8]
 362              		.loc 1 233 0
 363 0060 2560     		str	r5, [r4]
 364              		.loc 1 235 0
 365 0062 18E90500 		ldmdb	r8, {r0, r2}
 366 0066 02F10803 		add	r3, r2, #8
 367 006a E918     		adds	r1, r5, r3
 368 006c 8142     		cmp	r1, r0
 369 006e 0AD0     		beq	.L48
 370              		.loc 1 240 0
 371 0070 6268     		ldr	r2, [r4, #4]
 372 0072 02F10803 		add	r3, r2, #8
 373 0076 2344     		add	r3, r3, r4
 374 0078 9D42     		cmp	r5, r3
 375 007a 12D0     		beq	.L49
 376              	.L38:
 377              		.loc 1 249 0
 378 007c 3846     		mov	r0, r7
 379              		.loc 1 252 0
 380 007e BDE8F041 		pop	{r4, r5, r6, r7, r8, lr}
 381              		.cfi_remember_state
 382              		.cfi_restore 14
 383              		.cfi_restore 8
 384              		.cfi_restore 7
 385              		.cfi_restore 6
 386              		.cfi_restore 5
 387              		.cfi_restore 4
 388              		.cfi_def_cfa_offset 0
 389              	.LVL38:
 390              		.loc 1 249 0
 391 0082 FFF7FEBF 		b	chMtxUnlock
 392              	.LVL39:
 393              	.L48:
 394              		.cfi_restore_state
 395              		.loc 1 237 0
 396 0086 4968     		ldr	r1, [r1, #4]
 397 0088 0A44     		add	r2, r2, r1
 398 008a 0832     		adds	r2, r2, #8
 399 008c 48F8042C 		str	r2, [r8, #-4]
ARM GAS  /tmp/ccEhAe9k.s 			page 8


 400              		.loc 1 238 0
 401 0090 EB58     		ldr	r3, [r5, r3]
 402 0092 48F8083C 		str	r3, [r8, #-8]
 403              		.loc 1 240 0
 404 0096 6268     		ldr	r2, [r4, #4]
 405 0098 02F10803 		add	r3, r2, #8
 406 009c 2344     		add	r3, r3, r4
 407 009e 9D42     		cmp	r5, r3
 408 00a0 ECD1     		bne	.L38
 409              	.L49:
 410              		.loc 1 242 0
 411 00a2 58F8043C 		ldr	r3, [r8, #-4]
 412 00a6 1344     		add	r3, r3, r2
 413 00a8 0833     		adds	r3, r3, #8
 414 00aa 6360     		str	r3, [r4, #4]
 415              		.loc 1 243 0
 416 00ac 58F8083C 		ldr	r3, [r8, #-8]
 417 00b0 2360     		str	r3, [r4]
 418              		.loc 1 249 0
 419 00b2 3846     		mov	r0, r7
 420              		.loc 1 252 0
 421 00b4 BDE8F041 		pop	{r4, r5, r6, r7, r8, lr}
 422              		.cfi_remember_state
 423              		.cfi_restore 4
 424              		.cfi_restore 5
 425              		.cfi_restore 6
 426              		.cfi_restore 7
 427              		.cfi_restore 8
 428              		.cfi_restore 14
 429              		.cfi_def_cfa_offset 0
 430              	.LVL40:
 431              		.loc 1 249 0
 432 00b8 FFF7FEBF 		b	chMtxUnlock
 433              	.LVL41:
 434              	.L45:
 435              		.cfi_restore_state
 436              		.loc 1 217 0 discriminator 2
 437 00bc 0148     		ldr	r0, .L50
 438              	.LVL42:
 439 00be FFF7FEFF 		bl	chSysHalt
 440              	.LVL43:
 441 00c2 A2E7     		b	.L31
 442              	.L51:
 443              		.align	2
 444              	.L50:
 445 00c4 00000000 		.word	.LANCHOR2
 446              		.cfi_endproc
 447              	.LFE230:
 448              		.size	chHeapFree, .-chHeapFree
 449              		.section	.text.chHeapStatus,"ax",%progbits
 450              		.align	2
 451              		.p2align 4,,15
 452              		.global	chHeapStatus
 453              		.thumb
 454              		.thumb_func
 455              		.type	chHeapStatus, %function
 456              	chHeapStatus:
ARM GAS  /tmp/ccEhAe9k.s 			page 9


 457              	.LFB231:
 458              		.loc 1 267 0
 459              		.cfi_startproc
 460              		@ args = 0, pretend = 0, frame = 0
 461              		@ frame_needed = 0, uses_anonymous_args = 0
 462              	.LVL44:
 463 0000 70B5     		push	{r4, r5, r6, lr}
 464              		.cfi_def_cfa_offset 16
 465              		.cfi_offset 4, -16
 466              		.cfi_offset 5, -12
 467              		.cfi_offset 6, -8
 468              		.cfi_offset 14, -4
 469              		.loc 1 272 0
 470 0002 0F4C     		ldr	r4, .L63
 471 0004 0028     		cmp	r0, #0
 472 0006 18BF     		it	ne
 473 0008 0446     		movne	r4, r0
 474              	.LVL45:
 475              		.loc 1 275 0
 476 000a 04F11005 		add	r5, r4, #16
 477 000e 2846     		mov	r0, r5
 478              		.loc 1 267 0
 479 0010 0E46     		mov	r6, r1
 480              		.loc 1 275 0
 481 0012 FFF7FEFF 		bl	chMtxLock
 482              	.LVL46:
 483              		.loc 1 279 0
 484 0016 A368     		ldr	r3, [r4, #8]
 485 0018 73B1     		cbz	r3, .L57
 486 001a 0022     		movs	r2, #0
 487 001c 1446     		mov	r4, r2
 488              	.LVL47:
 489              	.L55:
 490              		.loc 1 280 0
 491 001e 5868     		ldr	r0, [r3, #4]
 492              		.loc 1 279 0
 493 0020 1B68     		ldr	r3, [r3]
 494              		.loc 1 281 0
 495 0022 0134     		adds	r4, r4, #1
 496              	.LVL48:
 497              		.loc 1 280 0
 498 0024 0244     		add	r2, r2, r0
 499              	.LVL49:
 500              		.loc 1 279 0
 501 0026 002B     		cmp	r3, #0
 502 0028 F9D1     		bne	.L55
 503              	.LVL50:
 504              	.L54:
 505              		.loc 1 284 0
 506 002a 06B1     		cbz	r6, .L56
 507              		.loc 1 285 0
 508 002c 3260     		str	r2, [r6]
 509              	.L56:
 510              		.loc 1 287 0
 511 002e 2846     		mov	r0, r5
 512 0030 FFF7FEFF 		bl	chMtxUnlock
 513              	.LVL51:
ARM GAS  /tmp/ccEhAe9k.s 			page 10


 514              		.loc 1 290 0
 515 0034 2046     		mov	r0, r4
 516 0036 70BD     		pop	{r4, r5, r6, pc}
 517              	.LVL52:
 518              	.L57:
 519              		.loc 1 276 0
 520 0038 1A46     		mov	r2, r3
 521              		.loc 1 277 0
 522 003a 1C46     		mov	r4, r3
 523              	.LVL53:
 524 003c F5E7     		b	.L54
 525              	.L64:
 526 003e 00BF     		.align	2
 527              	.L63:
 528 0040 00000000 		.word	.LANCHOR0
 529              		.cfi_endproc
 530              	.LFE231:
 531              		.size	chHeapStatus, .-chHeapStatus
 532              		.section	.rodata.__func__.6664,"a",%progbits
 533              		.align	2
 534              		.set	.LANCHOR1,. + 0
 535              		.type	__func__.6664, %object
 536              		.size	__func__.6664, 17
 537              	__func__.6664:
 538 0000 63684865 		.ascii	"chHeapObjectInit\000"
 538      61704F62 
 538      6A656374 
 538      496E6974 
 538      00
 539              		.section	.rodata.__func__.6681,"a",%progbits
 540              		.align	2
 541              		.set	.LANCHOR2,. + 0
 542              		.type	__func__.6681, %object
 543              		.size	__func__.6681, 11
 544              	__func__.6681:
 545 0000 63684865 		.ascii	"chHeapFree\000"
 545      61704672 
 545      656500
 546              		.section	.bss.default_heap,"aw",%nobits
 547              		.align	3
 548              		.set	.LANCHOR0,. + 0
 549              		.type	default_heap, %object
 550              		.size	default_heap, 32
 551              	default_heap:
 552 0000 00000000 		.space	32
 552      00000000 
 552      00000000 
 552      00000000 
 552      00000000 
 553              		.text
 554              	.Letext0:
 555              		.file 2 "/usr/lib/gcc/arm-none-eabi/5.3.1/include/stddef.h"
 556              		.file 3 "/usr/arm-none-eabi/include/machine/_default_types.h"
 557              		.file 4 "/usr/arm-none-eabi/include/sys/_stdint.h"
 558              		.file 5 "/home/selim/working/ChibiOS/os/rt/ports/ARMCMx/compilers/GCC/chtypes.h"
 559              		.file 6 "/home/selim/working/ChibiOS/os/rt/include/chsystypes.h"
 560              		.file 7 "/home/selim/working/ChibiOS/os/rt/include/chschd.h"
ARM GAS  /tmp/ccEhAe9k.s 			page 11


 561              		.file 8 "/home/selim/working/ChibiOS/os/rt/ports/ARMCMx/chcore.h"
 562              		.file 9 "/home/selim/working/ChibiOS/os/rt/ports/ARMCMx/chcore_v7m.h"
 563              		.file 10 "/home/selim/working/ChibiOS/os/rt/include/chdebug.h"
 564              		.file 11 "/home/selim/working/ChibiOS/os/rt/include/chtm.h"
 565              		.file 12 "/home/selim/working/ChibiOS/os/rt/include/chstats.h"
 566              		.file 13 "/home/selim/working/ChibiOS/os/rt/include/chsem.h"
 567              		.file 14 "/home/selim/working/ChibiOS/os/rt/include/chmtx.h"
 568              		.file 15 "/home/selim/working/ChibiOS/os/rt/include/chmemcore.h"
 569              		.file 16 "/home/selim/working/ChibiOS/os/rt/include/chheap.h"
 570              		.file 17 "/home/selim/working/ChibiOS/os/rt/include/chsys.h"
 571              		.file 18 "/home/selim/working/ChibiOS/os/ext/CMSIS/include/core_cm4.h"