ARM GAS  /tmp/ccKyWVgg.s 			page 1


   1              		.syntax unified
   2              		.cpu cortex-m4
   3              		.fpu softvfp
   4              		.eabi_attribute 20, 1
   5              		.eabi_attribute 21, 1
   6              		.eabi_attribute 23, 3
   7              		.eabi_attribute 24, 1
   8              		.eabi_attribute 25, 1
   9              		.eabi_attribute 26, 1
  10              		.eabi_attribute 30, 2
  11              		.eabi_attribute 34, 1
  12              		.eabi_attribute 18, 4
  13              		.thumb
  14              		.syntax unified
  15              		.file	"chmemcore.c"
  16              		.text
  17              	.Ltext0:
  18              		.cfi_sections	.debug_frame
  19              		.section	.text._core_init,"ax",%progbits
  20              		.align	2
  21              		.p2align 4,,15
  22              		.global	_core_init
  23              		.thumb
  24              		.thumb_func
  25              		.type	_core_init, %function
  26              	_core_init:
  27              	.LFB227:
  28              		.file 1 "/home/selim/working/ChibiOS/os/rt/src/chmemcore.c"
  29              		.loc 1 78 0
  30              		.cfi_startproc
  31              		@ args = 0, pretend = 0, frame = 0
  32              		@ frame_needed = 0, uses_anonymous_args = 0
  33              		@ link register save eliminated.
  34              		.loc 1 84 0
  35 0000 054A     		ldr	r2, .L2
  36              		.loc 1 85 0
  37 0002 064B     		ldr	r3, .L2+4
  38              		.loc 1 84 0
  39 0004 0648     		ldr	r0, .L2+8
  40              		.loc 1 85 0
  41 0006 0749     		ldr	r1, .L2+12
  42              		.loc 1 84 0
  43 0008 22F00702 		bic	r2, r2, #7
  44              		.loc 1 85 0
  45 000c 23F00703 		bic	r3, r3, #7
  46              		.loc 1 84 0
  47 0010 0260     		str	r2, [r0]
  48              		.loc 1 85 0
  49 0012 0B60     		str	r3, [r1]
  50 0014 7047     		bx	lr
  51              	.L3:
  52 0016 00BF     		.align	2
  53              	.L2:
  54 0018 07000000 		.word	__heap_base__+7
  55 001c 00000000 		.word	__heap_end__
  56 0020 00000000 		.word	.LANCHOR0
  57 0024 00000000 		.word	.LANCHOR1
ARM GAS  /tmp/ccKyWVgg.s 			page 2


  58              		.cfi_endproc
  59              	.LFE227:
  60              		.size	_core_init, .-_core_init
  61              		.section	.text.chCoreAlloc,"ax",%progbits
  62              		.align	2
  63              		.p2align 4,,15
  64              		.global	chCoreAlloc
  65              		.thumb
  66              		.thumb_func
  67              		.type	chCoreAlloc, %function
  68              	chCoreAlloc:
  69              	.LFB228:
  70              		.loc 1 109 0
  71              		.cfi_startproc
  72              		@ args = 0, pretend = 0, frame = 0
  73              		@ frame_needed = 0, uses_anonymous_args = 0
  74              	.LVL0:
  75 0000 10B5     		push	{r4, lr}
  76              		.cfi_def_cfa_offset 8
  77              		.cfi_offset 4, -8
  78              		.cfi_offset 14, -4
  79              	.LBB33:
  80              	.LBB34:
  81              	.LBB35:
  82              	.LBB36:
  83              	.LBB37:
  84              		.file 2 "/home/selim/working/ChibiOS/os/ext/CMSIS/include/core_cmFunc.h"
  85              		.loc 2 546 0
  86 0002 2023     		movs	r3, #32
  87              	.LBE37:
  88              	.LBE36:
  89              	.LBE35:
  90              	.LBE34:
  91              	.LBE33:
  92              		.loc 1 109 0
  93 0004 0446     		mov	r4, r0
  94              	.LBB42:
  95              	.LBB41:
  96              	.LBB40:
  97              	.LBB39:
  98              	.LBB38:
  99              		.loc 2 546 0
 100              		.syntax unified
 101              	@ 546 "/home/selim/working/ChibiOS/os/ext/CMSIS/include/core_cmFunc.h" 1
 102 0006 83F31188 		MSR basepri, r3
 103              	@ 0 "" 2
 104              	.LVL1:
 105              		.thumb
 106              		.syntax unified
 107              	.LBE38:
 108              	.LBE39:
 109              	.LBE40:
 110              		.file 3 "/home/selim/working/ChibiOS/os/rt/include/chsys.h"
 111              		.loc 3 349 0
 112 000a FFF7FEFF 		bl	_stats_start_measure_crit_thd
 113              	.LVL2:
 114              		.loc 3 350 0
ARM GAS  /tmp/ccKyWVgg.s 			page 3


 115 000e FFF7FEFF 		bl	_dbg_check_lock
 116              	.LVL3:
 117              	.LBE41:
 118              	.LBE42:
 119              	.LBB43:
 120              	.LBB44:
 121              		.loc 1 134 0
 122 0012 FFF7FEFF 		bl	chDbgCheckClassI
 123              	.LVL4:
 124              		.loc 1 138 0
 125 0016 1149     		ldr	r1, .L10
 126 0018 114B     		ldr	r3, .L10+4
 127 001a 0868     		ldr	r0, [r1]
 128 001c 1A68     		ldr	r2, [r3]
 129              		.loc 1 136 0
 130 001e E31D     		adds	r3, r4, #7
 131 0020 23F00703 		bic	r3, r3, #7
 132              	.LVL5:
 133              		.loc 1 138 0
 134 0024 121A     		subs	r2, r2, r0
 135 0026 9342     		cmp	r3, r2
 136              	.LVL6:
 137              		.loc 1 143 0
 138 0028 9DBF     		ittte	ls
 139 002a 1B18     		addls	r3, r3, r0
 140              	.LVL7:
 141 002c 0B60     		strls	r3, [r1]
 142              		.loc 1 145 0
 143 002e 0446     		movls	r4, r0
 144              	.LVL8:
 145              		.loc 1 140 0
 146 0030 0024     		movhi	r4, #0
 147              	.LVL9:
 148              	.LBE44:
 149              	.LBE43:
 150              	.LBB45:
 151              	.LBB46:
 152              		.loc 3 360 0
 153 0032 FFF7FEFF 		bl	_dbg_check_unlock
 154              	.LVL10:
 155              		.loc 3 361 0
 156 0036 FFF7FEFF 		bl	_stats_stop_measure_crit_thd
 157              	.LVL11:
 158              		.loc 3 367 0
 159 003a 0A4B     		ldr	r3, .L10+8
 160 003c 1A68     		ldr	r2, [r3]
 161 003e 9A42     		cmp	r2, r3
 162 0040 07D0     		beq	.L6
 163 0042 9969     		ldr	r1, [r3, #24]
 164 0044 9368     		ldr	r3, [r2, #8]
 165 0046 8A68     		ldr	r2, [r1, #8]
 166 0048 9A42     		cmp	r2, r3
 167 004a 02D2     		bcs	.L6
 168 004c 0648     		ldr	r0, .L10+12
 169 004e FFF7FEFF 		bl	chSysHalt
 170              	.LVL12:
 171              	.L6:
ARM GAS  /tmp/ccKyWVgg.s 			page 4


 172              	.LBB47:
 173              	.LBB48:
 174              	.LBB49:
 175              		.loc 2 546 0
 176 0052 0023     		movs	r3, #0
 177              		.syntax unified
 178              	@ 546 "/home/selim/working/ChibiOS/os/ext/CMSIS/include/core_cmFunc.h" 1
 179 0054 83F31188 		MSR basepri, r3
 180              	@ 0 "" 2
 181              	.LVL13:
 182              		.thumb
 183              		.syntax unified
 184              	.LBE49:
 185              	.LBE48:
 186              	.LBE47:
 187              	.LBE46:
 188              	.LBE45:
 189              		.loc 1 117 0
 190 0058 2046     		mov	r0, r4
 191 005a 10BD     		pop	{r4, pc}
 192              	.L11:
 193              		.align	2
 194              	.L10:
 195 005c 00000000 		.word	.LANCHOR0
 196 0060 00000000 		.word	.LANCHOR1
 197 0064 00000000 		.word	ch
 198 0068 00000000 		.word	.LANCHOR2
 199              		.cfi_endproc
 200              	.LFE228:
 201              		.size	chCoreAlloc, .-chCoreAlloc
 202              		.section	.text.chCoreAllocI,"ax",%progbits
 203              		.align	2
 204              		.p2align 4,,15
 205              		.global	chCoreAllocI
 206              		.thumb
 207              		.thumb_func
 208              		.type	chCoreAllocI, %function
 209              	chCoreAllocI:
 210              	.LFB229:
 211              		.loc 1 131 0
 212              		.cfi_startproc
 213              		@ args = 0, pretend = 0, frame = 0
 214              		@ frame_needed = 0, uses_anonymous_args = 0
 215              	.LVL14:
 216 0000 10B5     		push	{r4, lr}
 217              		.cfi_def_cfa_offset 8
 218              		.cfi_offset 4, -8
 219              		.cfi_offset 14, -4
 220              		.loc 1 131 0
 221 0002 0446     		mov	r4, r0
 222              		.loc 1 134 0
 223 0004 FFF7FEFF 		bl	chDbgCheckClassI
 224              	.LVL15:
 225              		.loc 1 138 0
 226 0008 0649     		ldr	r1, .L16
 227 000a 074B     		ldr	r3, .L16+4
 228 000c 0868     		ldr	r0, [r1]
ARM GAS  /tmp/ccKyWVgg.s 			page 5


 229 000e 1A68     		ldr	r2, [r3]
 230              		.loc 1 136 0
 231 0010 E31D     		adds	r3, r4, #7
 232 0012 23F00703 		bic	r3, r3, #7
 233              	.LVL16:
 234              		.loc 1 138 0
 235 0016 121A     		subs	r2, r2, r0
 236 0018 9342     		cmp	r3, r2
 237              	.LVL17:
 238              		.loc 1 143 0
 239 001a 9ABF     		itte	ls
 240 001c 1B18     		addls	r3, r3, r0
 241              	.LVL18:
 242 001e 0B60     		strls	r3, [r1]
 243              		.loc 1 140 0
 244 0020 0020     		movhi	r0, #0
 245              	.LVL19:
 246              		.loc 1 146 0
 247 0022 10BD     		pop	{r4, pc}
 248              	.LVL20:
 249              	.L17:
 250              		.align	2
 251              	.L16:
 252 0024 00000000 		.word	.LANCHOR0
 253 0028 00000000 		.word	.LANCHOR1
 254              		.cfi_endproc
 255              	.LFE229:
 256              		.size	chCoreAllocI, .-chCoreAllocI
 257              		.section	.text.chCoreGetStatusX,"ax",%progbits
 258              		.align	2
 259              		.p2align 4,,15
 260              		.global	chCoreGetStatusX
 261              		.thumb
 262              		.thumb_func
 263              		.type	chCoreGetStatusX, %function
 264              	chCoreGetStatusX:
 265              	.LFB230:
 266              		.loc 1 155 0
 267              		.cfi_startproc
 268              		@ args = 0, pretend = 0, frame = 0
 269              		@ frame_needed = 0, uses_anonymous_args = 0
 270              		@ link register save eliminated.
 271              		.loc 1 158 0
 272 0000 024A     		ldr	r2, .L19
 273 0002 034B     		ldr	r3, .L19+4
 274 0004 1068     		ldr	r0, [r2]
 275 0006 1B68     		ldr	r3, [r3]
 276              		.loc 1 160 0
 277 0008 C01A     		subs	r0, r0, r3
 278 000a 7047     		bx	lr
 279              	.L20:
 280              		.align	2
 281              	.L19:
 282 000c 00000000 		.word	.LANCHOR1
 283 0010 00000000 		.word	.LANCHOR0
 284              		.cfi_endproc
 285              	.LFE230:
ARM GAS  /tmp/ccKyWVgg.s 			page 6


 286              		.size	chCoreGetStatusX, .-chCoreGetStatusX
 287              		.section	.bss.endmem,"aw",%nobits
 288              		.align	2
 289              		.set	.LANCHOR1,. + 0
 290              		.type	endmem, %object
 291              		.size	endmem, 4
 292              	endmem:
 293 0000 00000000 		.space	4
 294              		.section	.bss.nextmem,"aw",%nobits
 295              		.align	2
 296              		.set	.LANCHOR0,. + 0
 297              		.type	nextmem, %object
 298              		.size	nextmem, 4
 299              	nextmem:
 300 0000 00000000 		.space	4
 301              		.section	.rodata.__func__.5969,"a",%progbits
 302              		.align	2
 303              		.set	.LANCHOR2,. + 0
 304              		.type	__func__.5969, %object
 305              		.size	__func__.5969, 12
 306              	__func__.5969:
 307 0000 63685379 		.ascii	"chSysUnlock\000"
 307      73556E6C 
 307      6F636B00 
 308              		.text
 309              	.Letext0:
 310              		.file 4 "/usr/lib/gcc/arm-none-eabi/5.3.1/include/stddef.h"
 311              		.file 5 "/usr/arm-none-eabi/include/machine/_default_types.h"
 312              		.file 6 "/usr/arm-none-eabi/include/sys/_stdint.h"
 313              		.file 7 "/home/selim/working/ChibiOS/os/rt/ports/ARMCMx/compilers/GCC/chtypes.h"
 314              		.file 8 "/home/selim/working/ChibiOS/os/rt/include/chsystypes.h"
 315              		.file 9 "/home/selim/working/ChibiOS/os/rt/include/chschd.h"
 316              		.file 10 "/home/selim/working/ChibiOS/os/rt/ports/ARMCMx/chcore.h"
 317              		.file 11 "/home/selim/working/ChibiOS/os/rt/ports/ARMCMx/chcore_v7m.h"
 318              		.file 12 "/home/selim/working/ChibiOS/os/rt/include/chdebug.h"
 319              		.file 13 "/home/selim/working/ChibiOS/os/rt/include/chtm.h"
 320              		.file 14 "/home/selim/working/ChibiOS/os/rt/include/chstats.h"
 321              		.file 15 "/home/selim/working/ChibiOS/os/rt/include/chsem.h"
 322              		.file 16 "/home/selim/working/ChibiOS/os/rt/include/chmtx.h"
 323              		.file 17 "/home/selim/working/ChibiOS/os/ext/CMSIS/include/core_cm4.h"
 324              		.section	.debug_info,"",%progbits
 325              	.Ldebug_info0:
 326 0000 8F0A0000 		.4byte	0xa8f
 327 0004 0400     		.2byte	0x4
 328 0006 00000000 		.4byte	.Ldebug_abbrev0
 329 000a 04       		.byte	0x4
 330 000b 01       		.uleb128 0x1
 331 000c AD040000 		.4byte	.LASF149
 332 0010 0C       		.byte	0xc
 333 0011 2C010000 		.4byte	.LASF150
 334 0015 30000000 		.4byte	.Ldebug_ranges0+0x30
 335 0019 00000000 		.4byte	0
 336 001d 00000000 		.4byte	.Ldebug_line0
 337 0021 02       		.uleb128 0x2
 338 0022 04       		.byte	0x4
 339 0023 05       		.byte	0x5
 340 0024 696E7400 		.ascii	"int\000"
ARM GAS  /tmp/ccKyWVgg.s 			page 7


 341 0028 03       		.uleb128 0x3
 342 0029 1C000000 		.4byte	.LASF4
 343 002d 04       		.byte	0x4
 344 002e D8       		.byte	0xd8
 345 002f 33000000 		.4byte	0x33
 346 0033 04       		.uleb128 0x4
 347 0034 04       		.byte	0x4
 348 0035 07       		.byte	0x7
 349 0036 73020000 		.4byte	.LASF0
 350 003a 04       		.uleb128 0x4
 351 003b 08       		.byte	0x8
 352 003c 05       		.byte	0x5
 353 003d 6E010000 		.4byte	.LASF1
 354 0041 04       		.uleb128 0x4
 355 0042 08       		.byte	0x8
 356 0043 04       		.byte	0x4
 357 0044 AD030000 		.4byte	.LASF2
 358 0048 04       		.uleb128 0x4
 359 0049 01       		.byte	0x1
 360 004a 06       		.byte	0x6
 361 004b 7C010000 		.4byte	.LASF3
 362 004f 03       		.uleb128 0x3
 363 0050 4C000000 		.4byte	.LASF5
 364 0054 05       		.byte	0x5
 365 0055 1D       		.byte	0x1d
 366 0056 5A000000 		.4byte	0x5a
 367 005a 04       		.uleb128 0x4
 368 005b 01       		.byte	0x1
 369 005c 08       		.byte	0x8
 370 005d 64040000 		.4byte	.LASF6
 371 0061 04       		.uleb128 0x4
 372 0062 02       		.byte	0x2
 373 0063 05       		.byte	0x5
 374 0064 87040000 		.4byte	.LASF7
 375 0068 04       		.uleb128 0x4
 376 0069 02       		.byte	0x2
 377 006a 07       		.byte	0x7
 378 006b A6020000 		.4byte	.LASF8
 379 006f 03       		.uleb128 0x3
 380 0070 2E030000 		.4byte	.LASF9
 381 0074 05       		.byte	0x5
 382 0075 3F       		.byte	0x3f
 383 0076 7A000000 		.4byte	0x7a
 384 007a 04       		.uleb128 0x4
 385 007b 04       		.byte	0x4
 386 007c 05       		.byte	0x5
 387 007d CC010000 		.4byte	.LASF10
 388 0081 03       		.uleb128 0x3
 389 0082 64060000 		.4byte	.LASF11
 390 0086 05       		.byte	0x5
 391 0087 41       		.byte	0x41
 392 0088 8C000000 		.4byte	0x8c
 393 008c 04       		.uleb128 0x4
 394 008d 04       		.byte	0x4
 395 008e 07       		.byte	0x7
 396 008f 12060000 		.4byte	.LASF12
 397 0093 03       		.uleb128 0x3
ARM GAS  /tmp/ccKyWVgg.s 			page 8


 398 0094 0C040000 		.4byte	.LASF13
 399 0098 05       		.byte	0x5
 400 0099 5B       		.byte	0x5b
 401 009a 9E000000 		.4byte	0x9e
 402 009e 04       		.uleb128 0x4
 403 009f 08       		.byte	0x8
 404 00a0 07       		.byte	0x7
 405 00a1 A5000000 		.4byte	.LASF14
 406 00a5 03       		.uleb128 0x3
 407 00a6 E1060000 		.4byte	.LASF15
 408 00aa 06       		.byte	0x6
 409 00ab 14       		.byte	0x14
 410 00ac 4F000000 		.4byte	0x4f
 411 00b0 03       		.uleb128 0x3
 412 00b1 5C040000 		.4byte	.LASF16
 413 00b5 06       		.byte	0x6
 414 00b6 1F       		.byte	0x1f
 415 00b7 6F000000 		.4byte	0x6f
 416 00bb 03       		.uleb128 0x3
 417 00bc E1050000 		.4byte	.LASF17
 418 00c0 06       		.byte	0x6
 419 00c1 20       		.byte	0x20
 420 00c2 81000000 		.4byte	0x81
 421 00c6 03       		.uleb128 0x3
 422 00c7 2A000000 		.4byte	.LASF18
 423 00cb 06       		.byte	0x6
 424 00cc 26       		.byte	0x26
 425 00cd 93000000 		.4byte	0x93
 426 00d1 05       		.uleb128 0x5
 427 00d2 B0000000 		.4byte	0xb0
 428 00d6 03       		.uleb128 0x3
 429 00d7 96060000 		.4byte	.LASF19
 430 00db 07       		.byte	0x7
 431 00dc 46       		.byte	0x46
 432 00dd BB000000 		.4byte	0xbb
 433 00e1 03       		.uleb128 0x3
 434 00e2 5E010000 		.4byte	.LASF20
 435 00e6 07       		.byte	0x7
 436 00e7 47       		.byte	0x47
 437 00e8 C6000000 		.4byte	0xc6
 438 00ec 03       		.uleb128 0x3
 439 00ed 01030000 		.4byte	.LASF21
 440 00f1 07       		.byte	0x7
 441 00f2 49       		.byte	0x49
 442 00f3 A5000000 		.4byte	0xa5
 443 00f7 03       		.uleb128 0x3
 444 00f8 D5010000 		.4byte	.LASF22
 445 00fc 07       		.byte	0x7
 446 00fd 4A       		.byte	0x4a
 447 00fe A5000000 		.4byte	0xa5
 448 0102 03       		.uleb128 0x3
 449 0103 22040000 		.4byte	.LASF23
 450 0107 07       		.byte	0x7
 451 0108 4B       		.byte	0x4b
 452 0109 A5000000 		.4byte	0xa5
 453 010d 03       		.uleb128 0x3
 454 010e 4B040000 		.4byte	.LASF24
ARM GAS  /tmp/ccKyWVgg.s 			page 9


 455 0112 07       		.byte	0x7
 456 0113 4D       		.byte	0x4d
 457 0114 BB000000 		.4byte	0xbb
 458 0118 03       		.uleb128 0x3
 459 0119 D2020000 		.4byte	.LASF25
 460 011d 07       		.byte	0x7
 461 011e 4E       		.byte	0x4e
 462 011f B0000000 		.4byte	0xb0
 463 0123 03       		.uleb128 0x3
 464 0124 22030000 		.4byte	.LASF26
 465 0128 07       		.byte	0x7
 466 0129 50       		.byte	0x50
 467 012a BB000000 		.4byte	0xbb
 468 012e 03       		.uleb128 0x3
 469 012f 62020000 		.4byte	.LASF27
 470 0133 07       		.byte	0x7
 471 0134 52       		.byte	0x52
 472 0135 B0000000 		.4byte	0xb0
 473 0139 03       		.uleb128 0x3
 474 013a DD020000 		.4byte	.LASF28
 475 013e 07       		.byte	0x7
 476 013f 53       		.byte	0x53
 477 0140 BB000000 		.4byte	0xbb
 478 0144 03       		.uleb128 0x3
 479 0145 46060000 		.4byte	.LASF29
 480 0149 08       		.byte	0x8
 481 014a 33       		.byte	0x33
 482 014b BB000000 		.4byte	0xbb
 483 014f 03       		.uleb128 0x3
 484 0150 29060000 		.4byte	.LASF30
 485 0154 08       		.byte	0x8
 486 0155 3F       		.byte	0x3f
 487 0156 5A010000 		.4byte	0x15a
 488 015a 06       		.uleb128 0x6
 489 015b C8020000 		.4byte	.LASF52
 490 015f 60       		.byte	0x60
 491 0160 09       		.byte	0x9
 492 0161 C2       		.byte	0xc2
 493 0162 60020000 		.4byte	0x260
 494 0166 07       		.uleb128 0x7
 495 0167 8E050000 		.4byte	.LASF31
 496 016b 09       		.byte	0x9
 497 016c C3       		.byte	0xc3
 498 016d 6B020000 		.4byte	0x26b
 499 0171 00       		.byte	0
 500 0172 07       		.uleb128 0x7
 501 0173 44040000 		.4byte	.LASF32
 502 0177 09       		.byte	0x9
 503 0178 C5       		.byte	0xc5
 504 0179 6B020000 		.4byte	0x26b
 505 017d 04       		.byte	0x4
 506 017e 07       		.uleb128 0x7
 507 017f 67010000 		.4byte	.LASF33
 508 0183 09       		.byte	0x9
 509 0184 C7       		.byte	0xc7
 510 0185 0D010000 		.4byte	0x10d
 511 0189 08       		.byte	0x8
ARM GAS  /tmp/ccKyWVgg.s 			page 10


 512 018a 07       		.uleb128 0x7
 513 018b 59070000 		.4byte	.LASF34
 514 018f 09       		.byte	0x9
 515 0190 C8       		.byte	0xc8
 516 0191 D4040000 		.4byte	0x4d4
 517 0195 0C       		.byte	0xc
 518 0196 07       		.uleb128 0x7
 519 0197 E4010000 		.4byte	.LASF35
 520 019b 09       		.byte	0x9
 521 019c CA       		.byte	0xca
 522 019d 6B020000 		.4byte	0x26b
 523 01a1 10       		.byte	0x10
 524 01a2 07       		.uleb128 0x7
 525 01a3 DB030000 		.4byte	.LASF36
 526 01a7 09       		.byte	0x9
 527 01a8 CB       		.byte	0xcb
 528 01a9 6B020000 		.4byte	0x26b
 529 01ad 14       		.byte	0x14
 530 01ae 07       		.uleb128 0x7
 531 01af 02070000 		.4byte	.LASF37
 532 01b3 09       		.byte	0x9
 533 01b4 D2       		.byte	0xd2
 534 01b5 78070000 		.4byte	0x778
 535 01b9 18       		.byte	0x18
 536 01ba 07       		.uleb128 0x7
 537 01bb 68020000 		.4byte	.LASF38
 538 01bf 09       		.byte	0x9
 539 01c0 D8       		.byte	0xd8
 540 01c1 8A070000 		.4byte	0x78a
 541 01c5 1C       		.byte	0x1c
 542 01c6 07       		.uleb128 0x7
 543 01c7 91040000 		.4byte	.LASF39
 544 01cb 09       		.byte	0x9
 545 01cc DD       		.byte	0xdd
 546 01cd F7000000 		.4byte	0xf7
 547 01d1 20       		.byte	0x20
 548 01d2 07       		.uleb128 0x7
 549 01d3 95050000 		.4byte	.LASF40
 550 01d7 09       		.byte	0x9
 551 01d8 E1       		.byte	0xe1
 552 01d9 EC000000 		.4byte	0xec
 553 01dd 21       		.byte	0x21
 554 01de 07       		.uleb128 0x7
 555 01df CC060000 		.4byte	.LASF41
 556 01e3 09       		.byte	0x9
 557 01e4 E6       		.byte	0xe6
 558 01e5 02010000 		.4byte	0x102
 559 01e9 22       		.byte	0x22
 560 01ea 08       		.uleb128 0x8
 561 01eb 705F7500 		.ascii	"p_u\000"
 562 01ef 09       		.byte	0x9
 563 01f0 3101     		.2byte	0x131
 564 01f2 B3060000 		.4byte	0x6b3
 565 01f6 24       		.byte	0x24
 566 01f7 09       		.uleb128 0x9
 567 01f8 43030000 		.4byte	.LASF42
 568 01fc 09       		.byte	0x9
ARM GAS  /tmp/ccKyWVgg.s 			page 11


 569 01fd 3601     		.2byte	0x136
 570 01ff 71020000 		.4byte	0x271
 571 0203 28       		.byte	0x28
 572 0204 09       		.uleb128 0x9
 573 0205 8F020000 		.4byte	.LASF43
 574 0209 09       		.byte	0x9
 575 020a 3C01     		.2byte	0x13c
 576 020c 95020000 		.4byte	0x295
 577 0210 2C       		.byte	0x2c
 578 0211 09       		.uleb128 0x9
 579 0212 36070000 		.4byte	.LASF44
 580 0216 09       		.byte	0x9
 581 0217 4001     		.2byte	0x140
 582 0219 18010000 		.4byte	0x118
 583 021d 34       		.byte	0x34
 584 021e 09       		.uleb128 0x9
 585 021f D6050000 		.4byte	.LASF45
 586 0223 09       		.byte	0x9
 587 0224 4601     		.2byte	0x146
 588 0226 23010000 		.4byte	0x123
 589 022a 38       		.byte	0x38
 590 022b 09       		.uleb128 0x9
 591 022c 7D040000 		.4byte	.LASF46
 592 0230 09       		.byte	0x9
 593 0231 4D01     		.2byte	0x14d
 594 0233 72070000 		.4byte	0x772
 595 0237 3C       		.byte	0x3c
 596 0238 09       		.uleb128 0x9
 597 0239 50060000 		.4byte	.LASF47
 598 023d 09       		.byte	0x9
 599 023e 5101     		.2byte	0x151
 600 0240 0D010000 		.4byte	0x10d
 601 0244 40       		.byte	0x40
 602 0245 09       		.uleb128 0x9
 603 0246 88010000 		.4byte	.LASF48
 604 024a 09       		.byte	0x9
 605 024b 5801     		.2byte	0x158
 606 024d 48030000 		.4byte	0x348
 607 0251 44       		.byte	0x44
 608 0252 09       		.uleb128 0x9
 609 0253 A6050000 		.4byte	.LASF49
 610 0257 09       		.byte	0x9
 611 0258 5E01     		.2byte	0x15e
 612 025a 64060000 		.4byte	0x664
 613 025e 48       		.byte	0x48
 614 025f 00       		.byte	0
 615 0260 03       		.uleb128 0x3
 616 0261 73030000 		.4byte	.LASF50
 617 0265 08       		.byte	0x8
 618 0266 44       		.byte	0x44
 619 0267 6B020000 		.4byte	0x26b
 620 026b 0A       		.uleb128 0xa
 621 026c 04       		.byte	0x4
 622 026d 4F010000 		.4byte	0x14f
 623 0271 03       		.uleb128 0x3
 624 0272 0E070000 		.4byte	.LASF51
 625 0276 08       		.byte	0x8
ARM GAS  /tmp/ccKyWVgg.s 			page 12


 626 0277 49       		.byte	0x49
 627 0278 7C020000 		.4byte	0x27c
 628 027c 06       		.uleb128 0x6
 629 027d 02060000 		.4byte	.LASF53
 630 0281 04       		.byte	0x4
 631 0282 09       		.byte	0x9
 632 0283 B0       		.byte	0xb0
 633 0284 95020000 		.4byte	0x295
 634 0288 07       		.uleb128 0x7
 635 0289 8E050000 		.4byte	.LASF31
 636 028d 09       		.byte	0x9
 637 028e B1       		.byte	0xb1
 638 028f 6B020000 		.4byte	0x26b
 639 0293 00       		.byte	0
 640 0294 00       		.byte	0
 641 0295 03       		.uleb128 0x3
 642 0296 B3060000 		.4byte	.LASF54
 643 029a 08       		.byte	0x8
 644 029b 50       		.byte	0x50
 645 029c A0020000 		.4byte	0x2a0
 646 02a0 06       		.uleb128 0x6
 647 02a1 62000000 		.4byte	.LASF55
 648 02a5 08       		.byte	0x8
 649 02a6 09       		.byte	0x9
 650 02a7 B7       		.byte	0xb7
 651 02a8 C5020000 		.4byte	0x2c5
 652 02ac 07       		.uleb128 0x7
 653 02ad 8E050000 		.4byte	.LASF31
 654 02b1 09       		.byte	0x9
 655 02b2 B8       		.byte	0xb8
 656 02b3 6B020000 		.4byte	0x26b
 657 02b7 00       		.byte	0
 658 02b8 07       		.uleb128 0x7
 659 02b9 44040000 		.4byte	.LASF32
 660 02bd 09       		.byte	0x9
 661 02be B9       		.byte	0xb9
 662 02bf 6B020000 		.4byte	0x26b
 663 02c3 04       		.byte	0x4
 664 02c4 00       		.byte	0
 665 02c5 03       		.uleb128 0x3
 666 02c6 07000000 		.4byte	.LASF56
 667 02ca 08       		.byte	0x8
 668 02cb 57       		.byte	0x57
 669 02cc D0020000 		.4byte	0x2d0
 670 02d0 0B       		.uleb128 0xb
 671 02d1 14030000 		.4byte	.LASF57
 672 02d5 1C       		.byte	0x1c
 673 02d6 09       		.byte	0x9
 674 02d7 9001     		.2byte	0x190
 675 02d9 2C030000 		.4byte	0x32c
 676 02dd 09       		.uleb128 0x9
 677 02de F1050000 		.4byte	.LASF58
 678 02e2 09       		.byte	0x9
 679 02e3 9101     		.2byte	0x191
 680 02e5 95020000 		.4byte	0x295
 681 02e9 00       		.byte	0
 682 02ea 09       		.uleb128 0x9
ARM GAS  /tmp/ccKyWVgg.s 			page 13


 683 02eb A6040000 		.4byte	.LASF59
 684 02ef 09       		.byte	0x9
 685 02f0 9201     		.2byte	0x192
 686 02f2 0D010000 		.4byte	0x10d
 687 02f6 08       		.byte	0x8
 688 02f7 09       		.uleb128 0x9
 689 02f8 E3030000 		.4byte	.LASF60
 690 02fc 09       		.byte	0x9
 691 02fd 9401     		.2byte	0x194
 692 02ff D4040000 		.4byte	0x4d4
 693 0303 0C       		.byte	0xc
 694 0304 09       		.uleb128 0x9
 695 0305 09020000 		.4byte	.LASF61
 696 0309 09       		.byte	0x9
 697 030a 9701     		.2byte	0x197
 698 030c 6B020000 		.4byte	0x26b
 699 0310 10       		.byte	0x10
 700 0311 09       		.uleb128 0x9
 701 0312 04040000 		.4byte	.LASF62
 702 0316 09       		.byte	0x9
 703 0317 9801     		.2byte	0x198
 704 0319 6B020000 		.4byte	0x26b
 705 031d 14       		.byte	0x14
 706 031e 09       		.uleb128 0x9
 707 031f FA030000 		.4byte	.LASF63
 708 0323 09       		.byte	0x9
 709 0324 9B01     		.2byte	0x19b
 710 0326 6B020000 		.4byte	0x26b
 711 032a 18       		.byte	0x18
 712 032b 00       		.byte	0
 713 032c 03       		.uleb128 0x3
 714 032d 5B060000 		.4byte	.LASF64
 715 0331 08       		.byte	0x8
 716 0332 5C       		.byte	0x5c
 717 0333 37030000 		.4byte	0x337
 718 0337 0A       		.uleb128 0xa
 719 0338 04       		.byte	0x4
 720 0339 3D030000 		.4byte	0x33d
 721 033d 0C       		.uleb128 0xc
 722 033e 48030000 		.4byte	0x348
 723 0342 0D       		.uleb128 0xd
 724 0343 48030000 		.4byte	0x348
 725 0347 00       		.byte	0
 726 0348 0E       		.uleb128 0xe
 727 0349 04       		.byte	0x4
 728 034a 03       		.uleb128 0x3
 729 034b 34040000 		.4byte	.LASF65
 730 034f 08       		.byte	0x8
 731 0350 61       		.byte	0x61
 732 0351 55030000 		.4byte	0x355
 733 0355 0B       		.uleb128 0xb
 734 0356 B8050000 		.4byte	.LASF66
 735 035a 14       		.byte	0x14
 736 035b 09       		.byte	0x9
 737 035c 6B01     		.2byte	0x16b
 738 035e A4030000 		.4byte	0x3a4
 739 0362 09       		.uleb128 0x9
ARM GAS  /tmp/ccKyWVgg.s 			page 14


 740 0363 80020000 		.4byte	.LASF67
 741 0367 09       		.byte	0x9
 742 0368 6C01     		.2byte	0x16c
 743 036a 90070000 		.4byte	0x790
 744 036e 00       		.byte	0
 745 036f 09       		.uleb128 0x9
 746 0370 1A020000 		.4byte	.LASF68
 747 0374 09       		.byte	0x9
 748 0375 6D01     		.2byte	0x16d
 749 0377 90070000 		.4byte	0x790
 750 037b 04       		.byte	0x4
 751 037c 09       		.uleb128 0x9
 752 037d F9050000 		.4byte	.LASF69
 753 0381 09       		.byte	0x9
 754 0382 6E01     		.2byte	0x16e
 755 0384 44010000 		.4byte	0x144
 756 0388 08       		.byte	0x8
 757 0389 09       		.uleb128 0x9
 758 038a 5F070000 		.4byte	.LASF70
 759 038e 09       		.byte	0x9
 760 038f 6F01     		.2byte	0x16f
 761 0391 2C030000 		.4byte	0x32c
 762 0395 0C       		.byte	0xc
 763 0396 09       		.uleb128 0x9
 764 0397 9E060000 		.4byte	.LASF71
 765 039b 09       		.byte	0x9
 766 039c 7101     		.2byte	0x171
 767 039e 48030000 		.4byte	0x348
 768 03a2 10       		.byte	0x10
 769 03a3 00       		.byte	0
 770 03a4 03       		.uleb128 0x3
 771 03a5 09010000 		.4byte	.LASF72
 772 03a9 08       		.byte	0x8
 773 03aa 66       		.byte	0x66
 774 03ab AF030000 		.4byte	0x3af
 775 03af 0B       		.uleb128 0xb
 776 03b0 96030000 		.4byte	.LASF73
 777 03b4 10       		.byte	0x10
 778 03b5 09       		.byte	0x9
 779 03b6 7B01     		.2byte	0x17b
 780 03b8 F1030000 		.4byte	0x3f1
 781 03bc 09       		.uleb128 0x9
 782 03bd 80020000 		.4byte	.LASF67
 783 03c1 09       		.byte	0x9
 784 03c2 7C01     		.2byte	0x17c
 785 03c4 90070000 		.4byte	0x790
 786 03c8 00       		.byte	0
 787 03c9 09       		.uleb128 0x9
 788 03ca 1A020000 		.4byte	.LASF68
 789 03ce 09       		.byte	0x9
 790 03cf 7E01     		.2byte	0x17e
 791 03d1 90070000 		.4byte	0x790
 792 03d5 04       		.byte	0x4
 793 03d6 09       		.uleb128 0x9
 794 03d7 F9050000 		.4byte	.LASF69
 795 03db 09       		.byte	0x9
 796 03dc 8001     		.2byte	0x180
ARM GAS  /tmp/ccKyWVgg.s 			page 15


 797 03de 44010000 		.4byte	0x144
 798 03e2 08       		.byte	0x8
 799 03e3 09       		.uleb128 0x9
 800 03e4 CF030000 		.4byte	.LASF74
 801 03e8 09       		.byte	0x9
 802 03e9 8801     		.2byte	0x188
 803 03eb 44010000 		.4byte	0x144
 804 03ef 0C       		.byte	0xc
 805 03f0 00       		.byte	0
 806 03f1 03       		.uleb128 0x3
 807 03f2 73000000 		.4byte	.LASF75
 808 03f6 08       		.byte	0x8
 809 03f7 6B       		.byte	0x6b
 810 03f8 FC030000 		.4byte	0x3fc
 811 03fc 0F       		.uleb128 0xf
 812 03fd 2C020000 		.4byte	.LASF76
 813 0401 1404     		.2byte	0x414
 814 0403 09       		.byte	0x9
 815 0404 A201     		.2byte	0x1a2
 816 0406 3F040000 		.4byte	0x43f
 817 040a 09       		.uleb128 0x9
 818 040b 7D060000 		.4byte	.LASF77
 819 040f 09       		.byte	0x9
 820 0410 AA01     		.2byte	0x1aa
 821 0412 96070000 		.4byte	0x796
 822 0416 00       		.byte	0
 823 0417 09       		.uleb128 0x9
 824 0418 D3060000 		.4byte	.LASF78
 825 041c 09       		.byte	0x9
 826 041d AF01     		.2byte	0x1af
 827 041f 2E010000 		.4byte	0x12e
 828 0423 04       		.byte	0x4
 829 0424 09       		.uleb128 0x9
 830 0425 4A020000 		.4byte	.LASF79
 831 0429 09       		.byte	0x9
 832 042a B301     		.2byte	0x1b3
 833 042c 2E010000 		.4byte	0x12e
 834 0430 08       		.byte	0x8
 835 0431 09       		.uleb128 0x9
 836 0432 1D070000 		.4byte	.LASF80
 837 0436 09       		.byte	0x9
 838 0437 B901     		.2byte	0x1b9
 839 0439 F6050000 		.4byte	0x5f6
 840 043d 0C       		.byte	0xc
 841 043e 00       		.byte	0
 842 043f 03       		.uleb128 0x3
 843 0440 F5020000 		.4byte	.LASF81
 844 0444 08       		.byte	0x8
 845 0445 70       		.byte	0x70
 846 0446 4A040000 		.4byte	0x44a
 847 044a 0F       		.uleb128 0xf
 848 044b C2010000 		.4byte	.LASF82
 849 044f D805     		.2byte	0x5d8
 850 0451 09       		.byte	0x9
 851 0452 C201     		.2byte	0x1c2
 852 0454 B7040000 		.4byte	0x4b7
 853 0458 09       		.uleb128 0x9
ARM GAS  /tmp/ccKyWVgg.s 			page 16


 854 0459 DB060000 		.4byte	.LASF83
 855 045d 09       		.byte	0x9
 856 045e C601     		.2byte	0x1c6
 857 0460 C5020000 		.4byte	0x2c5
 858 0464 00       		.byte	0
 859 0465 09       		.uleb128 0x9
 860 0466 98010000 		.4byte	.LASF84
 861 046a 09       		.byte	0x9
 862 046b CA01     		.2byte	0x1ca
 863 046d A4030000 		.4byte	0x3a4
 864 0471 1C       		.byte	0x1c
 865 0472 08       		.uleb128 0x8
 866 0473 64626700 		.ascii	"dbg\000"
 867 0477 09       		.byte	0x9
 868 0478 CE01     		.2byte	0x1ce
 869 047a F1030000 		.4byte	0x3f1
 870 047e 2C       		.byte	0x2c
 871 047f 10       		.uleb128 0x10
 872 0480 E0000000 		.4byte	.LASF85
 873 0484 09       		.byte	0x9
 874 0485 D201     		.2byte	0x1d2
 875 0487 4F010000 		.4byte	0x14f
 876 048b 4004     		.2byte	0x440
 877 048d 11       		.uleb128 0x11
 878 048e 746D00   		.ascii	"tm\000"
 879 0491 09       		.byte	0x9
 880 0492 D701     		.2byte	0x1d7
 881 0494 16060000 		.4byte	0x616
 882 0498 A004     		.2byte	0x4a0
 883 049a 10       		.uleb128 0x10
 884 049b 33000000 		.4byte	.LASF86
 885 049f 09       		.byte	0x9
 886 04a0 DD01     		.2byte	0x1dd
 887 04a2 A8060000 		.4byte	0x6a8
 888 04a6 A804     		.2byte	0x4a8
 889 04a8 10       		.uleb128 0x10
 890 04a9 53020000 		.4byte	.LASF87
 891 04ad 09       		.byte	0x9
 892 04ae E301     		.2byte	0x1e3
 893 04b0 9B070000 		.4byte	0x79b
 894 04b4 E004     		.2byte	0x4e0
 895 04b6 00       		.byte	0
 896 04b7 04       		.uleb128 0x4
 897 04b8 04       		.byte	0x4
 898 04b9 07       		.byte	0x7
 899 04ba 6A030000 		.4byte	.LASF88
 900 04be 03       		.uleb128 0x3
 901 04bf 11020000 		.4byte	.LASF89
 902 04c3 0A       		.byte	0xa
 903 04c4 65       		.byte	0x65
 904 04c5 48030000 		.4byte	0x348
 905 04c9 03       		.uleb128 0x3
 906 04ca 38030000 		.4byte	.LASF90
 907 04ce 0A       		.byte	0xa
 908 04cf 6D       		.byte	0x6d
 909 04d0 C6000000 		.4byte	0xc6
 910 04d4 06       		.uleb128 0x6
ARM GAS  /tmp/ccKyWVgg.s 			page 17


 911 04d5 8E060000 		.4byte	.LASF91
 912 04d9 04       		.byte	0x4
 913 04da 0A       		.byte	0xa
 914 04db 89       		.byte	0x89
 915 04dc ED040000 		.4byte	0x4ed
 916 04e0 12       		.uleb128 0x12
 917 04e1 72313300 		.ascii	"r13\000"
 918 04e5 0A       		.byte	0xa
 919 04e6 8A       		.byte	0x8a
 920 04e7 68050000 		.4byte	0x568
 921 04eb 00       		.byte	0
 922 04ec 00       		.byte	0
 923 04ed 06       		.uleb128 0x6
 924 04ee 56000000 		.4byte	.LASF92
 925 04f2 24       		.byte	0x24
 926 04f3 0B       		.byte	0xb
 927 04f4 F4       		.byte	0xf4
 928 04f5 68050000 		.4byte	0x568
 929 04f9 08       		.uleb128 0x8
 930 04fa 723400   		.ascii	"r4\000"
 931 04fd 0B       		.byte	0xb
 932 04fe 0701     		.2byte	0x107
 933 0500 BE040000 		.4byte	0x4be
 934 0504 00       		.byte	0
 935 0505 08       		.uleb128 0x8
 936 0506 723500   		.ascii	"r5\000"
 937 0509 0B       		.byte	0xb
 938 050a 0801     		.2byte	0x108
 939 050c BE040000 		.4byte	0x4be
 940 0510 04       		.byte	0x4
 941 0511 08       		.uleb128 0x8
 942 0512 723600   		.ascii	"r6\000"
 943 0515 0B       		.byte	0xb
 944 0516 0901     		.2byte	0x109
 945 0518 BE040000 		.4byte	0x4be
 946 051c 08       		.byte	0x8
 947 051d 08       		.uleb128 0x8
 948 051e 723700   		.ascii	"r7\000"
 949 0521 0B       		.byte	0xb
 950 0522 0A01     		.2byte	0x10a
 951 0524 BE040000 		.4byte	0x4be
 952 0528 0C       		.byte	0xc
 953 0529 08       		.uleb128 0x8
 954 052a 723800   		.ascii	"r8\000"
 955 052d 0B       		.byte	0xb
 956 052e 0B01     		.2byte	0x10b
 957 0530 BE040000 		.4byte	0x4be
 958 0534 10       		.byte	0x10
 959 0535 08       		.uleb128 0x8
 960 0536 723900   		.ascii	"r9\000"
 961 0539 0B       		.byte	0xb
 962 053a 0C01     		.2byte	0x10c
 963 053c BE040000 		.4byte	0x4be
 964 0540 14       		.byte	0x14
 965 0541 08       		.uleb128 0x8
 966 0542 72313000 		.ascii	"r10\000"
 967 0546 0B       		.byte	0xb
ARM GAS  /tmp/ccKyWVgg.s 			page 18


 968 0547 0D01     		.2byte	0x10d
 969 0549 BE040000 		.4byte	0x4be
 970 054d 18       		.byte	0x18
 971 054e 08       		.uleb128 0x8
 972 054f 72313100 		.ascii	"r11\000"
 973 0553 0B       		.byte	0xb
 974 0554 0E01     		.2byte	0x10e
 975 0556 BE040000 		.4byte	0x4be
 976 055a 1C       		.byte	0x1c
 977 055b 08       		.uleb128 0x8
 978 055c 6C7200   		.ascii	"lr\000"
 979 055f 0B       		.byte	0xb
 980 0560 0F01     		.2byte	0x10f
 981 0562 BE040000 		.4byte	0x4be
 982 0566 20       		.byte	0x20
 983 0567 00       		.byte	0
 984 0568 0A       		.uleb128 0xa
 985 0569 04       		.byte	0x4
 986 056a ED040000 		.4byte	0x4ed
 987 056e 13       		.uleb128 0x13
 988 056f 10       		.byte	0x10
 989 0570 0C       		.byte	0xc
 990 0571 51       		.byte	0x51
 991 0572 A7050000 		.4byte	0x5a7
 992 0576 07       		.uleb128 0x7
 993 0577 14000000 		.4byte	.LASF93
 994 057b 0C       		.byte	0xc
 995 057c 55       		.byte	0x55
 996 057d 44010000 		.4byte	0x144
 997 0581 00       		.byte	0
 998 0582 07       		.uleb128 0x7
 999 0583 DE010000 		.4byte	.LASF94
 1000 0587 0C       		.byte	0xc
 1001 0588 59       		.byte	0x59
 1002 0589 6B020000 		.4byte	0x26b
 1003 058d 04       		.byte	0x4
 1004 058e 07       		.uleb128 0x7
 1005 058f 4F070000 		.4byte	.LASF95
 1006 0593 0C       		.byte	0xc
 1007 0594 5D       		.byte	0x5d
 1008 0595 48030000 		.4byte	0x348
 1009 0599 08       		.byte	0x8
 1010 059a 07       		.uleb128 0x7
 1011 059b CE000000 		.4byte	.LASF96
 1012 059f 0C       		.byte	0xc
 1013 05a0 61       		.byte	0x61
 1014 05a1 A5000000 		.4byte	0xa5
 1015 05a5 0C       		.byte	0xc
 1016 05a6 00       		.byte	0
 1017 05a7 03       		.uleb128 0x3
 1018 05a8 C0030000 		.4byte	.LASF97
 1019 05ac 0C       		.byte	0xc
 1020 05ad 62       		.byte	0x62
 1021 05ae 6E050000 		.4byte	0x56e
 1022 05b2 14       		.uleb128 0x14
 1023 05b3 0804     		.2byte	0x408
 1024 05b5 0C       		.byte	0xc
ARM GAS  /tmp/ccKyWVgg.s 			page 19


 1025 05b6 67       		.byte	0x67
 1026 05b7 E0050000 		.4byte	0x5e0
 1027 05bb 07       		.uleb128 0x7
 1028 05bc 01020000 		.4byte	.LASF98
 1029 05c0 0C       		.byte	0xc
 1030 05c1 6B       		.byte	0x6b
 1031 05c2 33000000 		.4byte	0x33
 1032 05c6 00       		.byte	0
 1033 05c7 07       		.uleb128 0x7
 1034 05c8 B9030000 		.4byte	.LASF99
 1035 05cc 0C       		.byte	0xc
 1036 05cd 6F       		.byte	0x6f
 1037 05ce E0050000 		.4byte	0x5e0
 1038 05d2 04       		.byte	0x4
 1039 05d3 07       		.uleb128 0x7
 1040 05d4 2A040000 		.4byte	.LASF100
 1041 05d8 0C       		.byte	0xc
 1042 05d9 73       		.byte	0x73
 1043 05da E6050000 		.4byte	0x5e6
 1044 05de 08       		.byte	0x8
 1045 05df 00       		.byte	0
 1046 05e0 0A       		.uleb128 0xa
 1047 05e1 04       		.byte	0x4
 1048 05e2 A7050000 		.4byte	0x5a7
 1049 05e6 15       		.uleb128 0x15
 1050 05e7 A7050000 		.4byte	0x5a7
 1051 05eb F6050000 		.4byte	0x5f6
 1052 05ef 16       		.uleb128 0x16
 1053 05f0 B7040000 		.4byte	0x4b7
 1054 05f4 3F       		.byte	0x3f
 1055 05f5 00       		.byte	0
 1056 05f6 03       		.uleb128 0x3
 1057 05f7 BC000000 		.4byte	.LASF101
 1058 05fb 0C       		.byte	0xc
 1059 05fc 74       		.byte	0x74
 1060 05fd B2050000 		.4byte	0x5b2
 1061 0601 13       		.uleb128 0x13
 1062 0602 04       		.byte	0x4
 1063 0603 0D       		.byte	0xd
 1064 0604 38       		.byte	0x38
 1065 0605 16060000 		.4byte	0x616
 1066 0609 07       		.uleb128 0x7
 1067 060a 87060000 		.4byte	.LASF102
 1068 060e 0D       		.byte	0xd
 1069 060f 3C       		.byte	0x3c
 1070 0610 D6000000 		.4byte	0xd6
 1071 0614 00       		.byte	0
 1072 0615 00       		.byte	0
 1073 0616 03       		.uleb128 0x3
 1074 0617 E9030000 		.4byte	.LASF103
 1075 061b 0D       		.byte	0xd
 1076 061c 3D       		.byte	0x3d
 1077 061d 01060000 		.4byte	0x601
 1078 0621 13       		.uleb128 0x13
 1079 0622 18       		.byte	0x18
 1080 0623 0D       		.byte	0xd
 1081 0624 48       		.byte	0x48
ARM GAS  /tmp/ccKyWVgg.s 			page 20


 1082 0625 64060000 		.4byte	0x664
 1083 0629 07       		.uleb128 0x7
 1084 062a 32060000 		.4byte	.LASF104
 1085 062e 0D       		.byte	0xd
 1086 062f 49       		.byte	0x49
 1087 0630 D6000000 		.4byte	0xd6
 1088 0634 00       		.byte	0
 1089 0635 07       		.uleb128 0x7
 1090 0636 8C000000 		.4byte	.LASF105
 1091 063a 0D       		.byte	0xd
 1092 063b 4A       		.byte	0x4a
 1093 063c D6000000 		.4byte	0xd6
 1094 0640 04       		.byte	0x4
 1095 0641 07       		.uleb128 0x7
 1096 0642 D8020000 		.4byte	.LASF106
 1097 0646 0D       		.byte	0xd
 1098 0647 4B       		.byte	0x4b
 1099 0648 D6000000 		.4byte	0xd6
 1100 064c 08       		.byte	0x8
 1101 064d 12       		.uleb128 0x12
 1102 064e 6E00     		.ascii	"n\000"
 1103 0650 0D       		.byte	0xd
 1104 0651 4C       		.byte	0x4c
 1105 0652 39010000 		.4byte	0x139
 1106 0656 0C       		.byte	0xc
 1107 0657 07       		.uleb128 0x7
 1108 0658 17040000 		.4byte	.LASF107
 1109 065c 0D       		.byte	0xd
 1110 065d 4D       		.byte	0x4d
 1111 065e E1000000 		.4byte	0xe1
 1112 0662 10       		.byte	0x10
 1113 0663 00       		.byte	0
 1114 0664 03       		.uleb128 0x3
 1115 0665 92000000 		.4byte	.LASF108
 1116 0669 0D       		.byte	0xd
 1117 066a 4E       		.byte	0x4e
 1118 066b 21060000 		.4byte	0x621
 1119 066f 13       		.uleb128 0x13
 1120 0670 38       		.byte	0x38
 1121 0671 0E       		.byte	0xe
 1122 0672 38       		.byte	0x38
 1123 0673 A8060000 		.4byte	0x6a8
 1124 0677 07       		.uleb128 0x7
 1125 0678 9A020000 		.4byte	.LASF109
 1126 067c 0E       		.byte	0xe
 1127 067d 39       		.byte	0x39
 1128 067e 39010000 		.4byte	0x139
 1129 0682 00       		.byte	0
 1130 0683 07       		.uleb128 0x7
 1131 0684 53040000 		.4byte	.LASF110
 1132 0688 0E       		.byte	0xe
 1133 0689 3A       		.byte	0x3a
 1134 068a 39010000 		.4byte	0x139
 1135 068e 04       		.byte	0x4
 1136 068f 07       		.uleb128 0x7
 1137 0690 3C070000 		.4byte	.LASF111
 1138 0694 0E       		.byte	0xe
ARM GAS  /tmp/ccKyWVgg.s 			page 21


 1139 0695 3B       		.byte	0x3b
 1140 0696 64060000 		.4byte	0x664
 1141 069a 08       		.byte	0x8
 1142 069b 07       		.uleb128 0x7
 1143 069c 09030000 		.4byte	.LASF112
 1144 06a0 0E       		.byte	0xe
 1145 06a1 3D       		.byte	0x3d
 1146 06a2 64060000 		.4byte	0x664
 1147 06a6 20       		.byte	0x20
 1148 06a7 00       		.byte	0
 1149 06a8 03       		.uleb128 0x3
 1150 06a9 B9020000 		.4byte	.LASF113
 1151 06ad 0E       		.byte	0xe
 1152 06ae 3F       		.byte	0x3f
 1153 06af 6F060000 		.4byte	0x66f
 1154 06b3 17       		.uleb128 0x17
 1155 06b4 04       		.byte	0x4
 1156 06b5 09       		.byte	0x9
 1157 06b6 FA       		.byte	0xfa
 1158 06b7 10070000 		.4byte	0x710
 1159 06bb 18       		.uleb128 0x18
 1160 06bc 23000000 		.4byte	.LASF114
 1161 06c0 09       		.byte	0x9
 1162 06c1 0101     		.2byte	0x101
 1163 06c3 18010000 		.4byte	0x118
 1164 06c7 18       		.uleb128 0x18
 1165 06c8 D7000000 		.4byte	.LASF115
 1166 06cc 09       		.byte	0x9
 1167 06cd 0801     		.2byte	0x108
 1168 06cf 18010000 		.4byte	0x118
 1169 06d3 18       		.uleb128 0x18
 1170 06d4 FB060000 		.4byte	.LASF116
 1171 06d8 09       		.byte	0x9
 1172 06d9 0F01     		.2byte	0x10f
 1173 06db 48030000 		.4byte	0x348
 1174 06df 18       		.uleb128 0x18
 1175 06e0 BC010000 		.4byte	.LASF117
 1176 06e4 09       		.byte	0x9
 1177 06e5 1601     		.2byte	0x116
 1178 06e7 10070000 		.4byte	0x710
 1179 06eb 18       		.uleb128 0x18
 1180 06ec 88020000 		.4byte	.LASF118
 1181 06f0 09       		.byte	0x9
 1182 06f1 1E01     		.2byte	0x11e
 1183 06f3 3B070000 		.4byte	0x73b
 1184 06f7 18       		.uleb128 0x18
 1185 06f8 EA050000 		.4byte	.LASF119
 1186 06fc 09       		.byte	0x9
 1187 06fd 2701     		.2byte	0x127
 1188 06ff 72070000 		.4byte	0x772
 1189 0703 18       		.uleb128 0x18
 1190 0704 87050000 		.4byte	.LASF120
 1191 0708 09       		.byte	0x9
 1192 0709 2F01     		.2byte	0x12f
 1193 070b 23010000 		.4byte	0x123
 1194 070f 00       		.byte	0
 1195 0710 0A       		.uleb128 0xa
ARM GAS  /tmp/ccKyWVgg.s 			page 22


 1196 0711 04       		.byte	0x4
 1197 0712 60020000 		.4byte	0x260
 1198 0716 06       		.uleb128 0x6
 1199 0717 C9050000 		.4byte	.LASF121
 1200 071b 0C       		.byte	0xc
 1201 071c 0F       		.byte	0xf
 1202 071d 34       		.byte	0x34
 1203 071e 3B070000 		.4byte	0x73b
 1204 0722 07       		.uleb128 0x7
 1205 0723 EC010000 		.4byte	.LASF122
 1206 0727 0F       		.byte	0xf
 1207 0728 35       		.byte	0x35
 1208 0729 95020000 		.4byte	0x295
 1209 072d 00       		.byte	0
 1210 072e 07       		.uleb128 0x7
 1211 072f A0020000 		.4byte	.LASF123
 1212 0733 0F       		.byte	0xf
 1213 0734 37       		.byte	0x37
 1214 0735 2E010000 		.4byte	0x12e
 1215 0739 08       		.byte	0x8
 1216 073a 00       		.byte	0
 1217 073b 0A       		.uleb128 0xa
 1218 073c 04       		.byte	0x4
 1219 073d 16070000 		.4byte	0x716
 1220 0741 06       		.uleb128 0x6
 1221 0742 C3060000 		.4byte	.LASF124
 1222 0746 10       		.byte	0x10
 1223 0747 10       		.byte	0x10
 1224 0748 39       		.byte	0x39
 1225 0749 72070000 		.4byte	0x772
 1226 074d 07       		.uleb128 0x7
 1227 074e 90010000 		.4byte	.LASF125
 1228 0752 10       		.byte	0x10
 1229 0753 3A       		.byte	0x3a
 1230 0754 95020000 		.4byte	0x295
 1231 0758 00       		.byte	0
 1232 0759 07       		.uleb128 0x7
 1233 075a 47070000 		.4byte	.LASF126
 1234 075e 10       		.byte	0x10
 1235 075f 3C       		.byte	0x3c
 1236 0760 6B020000 		.4byte	0x26b
 1237 0764 08       		.byte	0x8
 1238 0765 07       		.uleb128 0x7
 1239 0766 3F060000 		.4byte	.LASF127
 1240 076a 10       		.byte	0x10
 1241 076b 3E       		.byte	0x3e
 1242 076c B6070000 		.4byte	0x7b6
 1243 0770 0C       		.byte	0xc
 1244 0771 00       		.byte	0
 1245 0772 0A       		.uleb128 0xa
 1246 0773 04       		.byte	0x4
 1247 0774 41070000 		.4byte	0x741
 1248 0778 0A       		.uleb128 0xa
 1249 0779 04       		.byte	0x4
 1250 077a 85070000 		.4byte	0x785
 1251 077e 04       		.uleb128 0x4
 1252 077f 01       		.byte	0x1
ARM GAS  /tmp/ccKyWVgg.s 			page 23


 1253 0780 08       		.byte	0x8
 1254 0781 24060000 		.4byte	.LASF128
 1255 0785 19       		.uleb128 0x19
 1256 0786 7E070000 		.4byte	0x77e
 1257 078a 0A       		.uleb128 0xa
 1258 078b 04       		.byte	0x4
 1259 078c C9040000 		.4byte	0x4c9
 1260 0790 0A       		.uleb128 0xa
 1261 0791 04       		.byte	0x4
 1262 0792 4A030000 		.4byte	0x34a
 1263 0796 05       		.uleb128 0x5
 1264 0797 78070000 		.4byte	0x778
 1265 079b 15       		.uleb128 0x15
 1266 079c C9040000 		.4byte	0x4c9
 1267 07a0 AB070000 		.4byte	0x7ab
 1268 07a4 16       		.uleb128 0x16
 1269 07a5 B7040000 		.4byte	0x4b7
 1270 07a9 1E       		.byte	0x1e
 1271 07aa 00       		.byte	0
 1272 07ab 03       		.uleb128 0x3
 1273 07ac 3C020000 		.4byte	.LASF129
 1274 07b0 10       		.byte	0x10
 1275 07b1 34       		.byte	0x34
 1276 07b2 41070000 		.4byte	0x741
 1277 07b6 0A       		.uleb128 0xa
 1278 07b7 04       		.byte	0x4
 1279 07b8 AB070000 		.4byte	0x7ab
 1280 07bc 0A       		.uleb128 0xa
 1281 07bd 04       		.byte	0x4
 1282 07be A5000000 		.4byte	0xa5
 1283 07c2 1A       		.uleb128 0x1a
 1284 07c3 6F060000 		.4byte	.LASF137
 1285 07c7 02       		.byte	0x2
 1286 07c8 2002     		.2byte	0x220
 1287 07ca 03       		.byte	0x3
 1288 07cb DC070000 		.4byte	0x7dc
 1289 07cf 1B       		.uleb128 0x1b
 1290 07d0 44020000 		.4byte	.LASF132
 1291 07d4 02       		.byte	0x2
 1292 07d5 2002     		.2byte	0x220
 1293 07d7 BB000000 		.4byte	0xbb
 1294 07db 00       		.byte	0
 1295 07dc 1C       		.uleb128 0x1c
 1296 07dd 82000000 		.4byte	.LASF130
 1297 07e1 0B       		.byte	0xb
 1298 07e2 BC01     		.2byte	0x1bc
 1299 07e4 03       		.byte	0x3
 1300 07e5 1C       		.uleb128 0x1c
 1301 07e6 9F010000 		.4byte	.LASF131
 1302 07ea 0B       		.byte	0xb
 1303 07eb CA01     		.2byte	0x1ca
 1304 07ed 03       		.byte	0x3
 1305 07ee 1D       		.uleb128 0x1d
 1306 07ef F4010000 		.4byte	.LASF151
 1307 07f3 01       		.byte	0x1
 1308 07f4 83       		.byte	0x83
 1309 07f5 48030000 		.4byte	0x348
ARM GAS  /tmp/ccKyWVgg.s 			page 24


 1310 07f9 01       		.byte	0x1
 1311 07fa 13080000 		.4byte	0x813
 1312 07fe 1E       		.uleb128 0x1e
 1313 07ff 09070000 		.4byte	.LASF133
 1314 0803 01       		.byte	0x1
 1315 0804 83       		.byte	0x83
 1316 0805 28000000 		.4byte	0x28
 1317 0809 1F       		.uleb128 0x1f
 1318 080a 7000     		.ascii	"p\000"
 1319 080c 01       		.byte	0x1
 1320 080d 84       		.byte	0x84
 1321 080e 48030000 		.4byte	0x348
 1322 0812 00       		.byte	0
 1323 0813 1C       		.uleb128 0x1c
 1324 0814 AE050000 		.4byte	.LASF134
 1325 0818 03       		.byte	0x3
 1326 0819 5A01     		.2byte	0x15a
 1327 081b 03       		.byte	0x3
 1328 081c 20       		.uleb128 0x20
 1329 081d 72040000 		.4byte	.LASF152
 1330 0821 01       		.byte	0x1
 1331 0822 4E       		.byte	0x4e
 1332 0823 00000000 		.4byte	.LFB227
 1333 0827 28000000 		.4byte	.LFE227-.LFB227
 1334 082b 01       		.uleb128 0x1
 1335 082c 9C       		.byte	0x9c
 1336 082d 48080000 		.4byte	0x848
 1337 0831 21       		.uleb128 0x21
 1338 0832 A5060000 		.4byte	.LASF135
 1339 0836 01       		.byte	0x1
 1340 0837 50       		.byte	0x50
 1341 0838 48080000 		.4byte	0x848
 1342 083c 21       		.uleb128 0x21
 1343 083d 99040000 		.4byte	.LASF136
 1344 0841 01       		.byte	0x1
 1345 0842 51       		.byte	0x51
 1346 0843 48080000 		.4byte	0x848
 1347 0847 00       		.byte	0
 1348 0848 15       		.uleb128 0x15
 1349 0849 A5000000 		.4byte	0xa5
 1350 084d 53080000 		.4byte	0x853
 1351 0851 22       		.uleb128 0x22
 1352 0852 00       		.byte	0
 1353 0853 1A       		.uleb128 0x1a
 1354 0854 2A070000 		.4byte	.LASF138
 1355 0858 03       		.byte	0x3
 1356 0859 6601     		.2byte	0x166
 1357 085b 03       		.byte	0x3
 1358 085c 6E080000 		.4byte	0x86e
 1359 0860 23       		.uleb128 0x23
 1360 0861 9D050000 		.4byte	.LASF139
 1361 0865 7E080000 		.4byte	0x87e
 1362 0869 2A070000 		.4byte	.LASF138
 1363 086d 00       		.byte	0
 1364 086e 15       		.uleb128 0x15
 1365 086f 85070000 		.4byte	0x785
 1366 0873 7E080000 		.4byte	0x87e
ARM GAS  /tmp/ccKyWVgg.s 			page 25


 1367 0877 16       		.uleb128 0x16
 1368 0878 B7040000 		.4byte	0x4b7
 1369 087c 0B       		.byte	0xb
 1370 087d 00       		.byte	0
 1371 087e 19       		.uleb128 0x19
 1372 087f 6E080000 		.4byte	0x86e
 1373 0883 24       		.uleb128 0x24
 1374 0884 40000000 		.4byte	.LASF153
 1375 0888 01       		.byte	0x1
 1376 0889 6D       		.byte	0x6d
 1377 088a 48030000 		.4byte	0x348
 1378 088e 00000000 		.4byte	.LFB228
 1379 0892 6C000000 		.4byte	.LFE228-.LFB228
 1380 0896 01       		.uleb128 0x1
 1381 0897 9C       		.byte	0x9c
 1382 0898 BC090000 		.4byte	0x9bc
 1383 089c 25       		.uleb128 0x25
 1384 089d 09070000 		.4byte	.LASF133
 1385 08a1 01       		.byte	0x1
 1386 08a2 6D       		.byte	0x6d
 1387 08a3 28000000 		.4byte	0x28
 1388 08a7 00000000 		.4byte	.LLST0
 1389 08ab 1F       		.uleb128 0x1f
 1390 08ac 7000     		.ascii	"p\000"
 1391 08ae 01       		.byte	0x1
 1392 08af 6E       		.byte	0x6e
 1393 08b0 48030000 		.4byte	0x348
 1394 08b4 26       		.uleb128 0x26
 1395 08b5 13080000 		.4byte	0x813
 1396 08b9 02000000 		.4byte	.LBB33
 1397 08bd 00000000 		.4byte	.Ldebug_ranges0+0
 1398 08c1 01       		.byte	0x1
 1399 08c2 70       		.byte	0x70
 1400 08c3 09090000 		.4byte	0x909
 1401 08c7 27       		.uleb128 0x27
 1402 08c8 DC070000 		.4byte	0x7dc
 1403 08cc 02000000 		.4byte	.LBB35
 1404 08d0 18000000 		.4byte	.Ldebug_ranges0+0x18
 1405 08d4 03       		.byte	0x3
 1406 08d5 5C01     		.2byte	0x15c
 1407 08d7 F6080000 		.4byte	0x8f6
 1408 08db 28       		.uleb128 0x28
 1409 08dc C2070000 		.4byte	0x7c2
 1410 08e0 02000000 		.4byte	.LBB36
 1411 08e4 18000000 		.4byte	.Ldebug_ranges0+0x18
 1412 08e8 0B       		.byte	0xb
 1413 08e9 BF01     		.2byte	0x1bf
 1414 08eb 29       		.uleb128 0x29
 1415 08ec CF070000 		.4byte	0x7cf
 1416 08f0 2C000000 		.4byte	.LLST1
 1417 08f4 00       		.byte	0
 1418 08f5 00       		.byte	0
 1419 08f6 2A       		.uleb128 0x2a
 1420 08f7 0E000000 		.4byte	.LVL2
 1421 08fb 4F0A0000 		.4byte	0xa4f
 1422 08ff 2A       		.uleb128 0x2a
 1423 0900 12000000 		.4byte	.LVL3
ARM GAS  /tmp/ccKyWVgg.s 			page 26


 1424 0904 5A0A0000 		.4byte	0xa5a
 1425 0908 00       		.byte	0
 1426 0909 2B       		.uleb128 0x2b
 1427 090a EE070000 		.4byte	0x7ee
 1428 090e 12000000 		.4byte	.LBB43
 1429 0912 20000000 		.4byte	.LBE43-.LBB43
 1430 0916 01       		.byte	0x1
 1431 0917 71       		.byte	0x71
 1432 0918 42090000 		.4byte	0x942
 1433 091c 29       		.uleb128 0x29
 1434 091d FE070000 		.4byte	0x7fe
 1435 0921 41000000 		.4byte	.LLST2
 1436 0925 2C       		.uleb128 0x2c
 1437 0926 12000000 		.4byte	.LBB44
 1438 092a 20000000 		.4byte	.LBE44-.LBB44
 1439 092e 2D       		.uleb128 0x2d
 1440 092f 09080000 		.4byte	0x809
 1441 0933 82000000 		.4byte	.LLST3
 1442 0937 2A       		.uleb128 0x2a
 1443 0938 16000000 		.4byte	.LVL4
 1444 093c 650A0000 		.4byte	0xa65
 1445 0940 00       		.byte	0
 1446 0941 00       		.byte	0
 1447 0942 2E       		.uleb128 0x2e
 1448 0943 53080000 		.4byte	0x853
 1449 0947 32000000 		.4byte	.LBB45
 1450 094b 26000000 		.4byte	.LBE45-.LBB45
 1451 094f 01       		.byte	0x1
 1452 0950 72       		.byte	0x72
 1453 0951 2C       		.uleb128 0x2c
 1454 0952 32000000 		.4byte	.LBB46
 1455 0956 26000000 		.4byte	.LBE46-.LBB46
 1456 095a 2F       		.uleb128 0x2f
 1457 095b 60080000 		.4byte	0x860
 1458 095f 05       		.uleb128 0x5
 1459 0960 03       		.byte	0x3
 1460 0961 00000000 		.4byte	__func__.5969
 1461 0965 30       		.uleb128 0x30
 1462 0966 E5070000 		.4byte	0x7e5
 1463 096a 52000000 		.4byte	.LBB47
 1464 096e 06000000 		.4byte	.LBE47-.LBB47
 1465 0972 03       		.byte	0x3
 1466 0973 7301     		.2byte	0x173
 1467 0975 94090000 		.4byte	0x994
 1468 0979 31       		.uleb128 0x31
 1469 097a C2070000 		.4byte	0x7c2
 1470 097e 52000000 		.4byte	.LBB48
 1471 0982 06000000 		.4byte	.LBE48-.LBB48
 1472 0986 0B       		.byte	0xb
 1473 0987 CD01     		.2byte	0x1cd
 1474 0989 29       		.uleb128 0x29
 1475 098a CF070000 		.4byte	0x7cf
 1476 098e 95000000 		.4byte	.LLST4
 1477 0992 00       		.byte	0
 1478 0993 00       		.byte	0
 1479 0994 2A       		.uleb128 0x2a
 1480 0995 36000000 		.4byte	.LVL10
ARM GAS  /tmp/ccKyWVgg.s 			page 27


 1481 0999 700A0000 		.4byte	0xa70
 1482 099d 2A       		.uleb128 0x2a
 1483 099e 3A000000 		.4byte	.LVL11
 1484 09a2 7B0A0000 		.4byte	0xa7b
 1485 09a6 32       		.uleb128 0x32
 1486 09a7 52000000 		.4byte	.LVL12
 1487 09ab 860A0000 		.4byte	0xa86
 1488 09af 33       		.uleb128 0x33
 1489 09b0 01       		.uleb128 0x1
 1490 09b1 50       		.byte	0x50
 1491 09b2 05       		.uleb128 0x5
 1492 09b3 03       		.byte	0x3
 1493 09b4 00000000 		.4byte	.LANCHOR2
 1494 09b8 00       		.byte	0
 1495 09b9 00       		.byte	0
 1496 09ba 00       		.byte	0
 1497 09bb 00       		.byte	0
 1498 09bc 34       		.uleb128 0x34
 1499 09bd EE070000 		.4byte	0x7ee
 1500 09c1 00000000 		.4byte	.LFB229
 1501 09c5 2C000000 		.4byte	.LFE229-.LFB229
 1502 09c9 01       		.uleb128 0x1
 1503 09ca 9C       		.byte	0x9c
 1504 09cb EB090000 		.4byte	0x9eb
 1505 09cf 29       		.uleb128 0x29
 1506 09d0 FE070000 		.4byte	0x7fe
 1507 09d4 A9000000 		.4byte	.LLST5
 1508 09d8 2D       		.uleb128 0x2d
 1509 09d9 09080000 		.4byte	0x809
 1510 09dd F5000000 		.4byte	.LLST6
 1511 09e1 2A       		.uleb128 0x2a
 1512 09e2 08000000 		.4byte	.LVL15
 1513 09e6 650A0000 		.4byte	0xa65
 1514 09ea 00       		.byte	0
 1515 09eb 35       		.uleb128 0x35
 1516 09ec AB010000 		.4byte	.LASF154
 1517 09f0 01       		.byte	0x1
 1518 09f1 9B       		.byte	0x9b
 1519 09f2 28000000 		.4byte	0x28
 1520 09f6 00000000 		.4byte	.LFB230
 1521 09fa 14000000 		.4byte	.LFE230-.LFB230
 1522 09fe 01       		.uleb128 0x1
 1523 09ff 9C       		.byte	0x9c
 1524 0a00 36       		.uleb128 0x36
 1525 0a01 37060000 		.4byte	.LASF140
 1526 0a05 01       		.byte	0x1
 1527 0a06 3E       		.byte	0x3e
 1528 0a07 BC070000 		.4byte	0x7bc
 1529 0a0b 05       		.uleb128 0x5
 1530 0a0c 03       		.byte	0x3
 1531 0a0d 00000000 		.4byte	nextmem
 1532 0a11 36       		.uleb128 0x36
 1533 0a12 00000000 		.4byte	.LASF141
 1534 0a16 01       		.byte	0x1
 1535 0a17 3F       		.byte	0x3f
 1536 0a18 BC070000 		.4byte	0x7bc
 1537 0a1c 05       		.uleb128 0x5
ARM GAS  /tmp/ccKyWVgg.s 			page 28


 1538 0a1d 03       		.byte	0x3
 1539 0a1e 00000000 		.4byte	endmem
 1540 0a22 37       		.uleb128 0x37
 1541 0a23 1F010000 		.4byte	.LASF142
 1542 0a27 11       		.byte	0x11
 1543 0a28 A706     		.2byte	0x6a7
 1544 0a2a D1000000 		.4byte	0xd1
 1545 0a2e 38       		.uleb128 0x38
 1546 0a2f 636800   		.ascii	"ch\000"
 1547 0a32 09       		.byte	0x9
 1548 0a33 0902     		.2byte	0x209
 1549 0a35 3F040000 		.4byte	0x43f
 1550 0a39 21       		.uleb128 0x21
 1551 0a3a A5060000 		.4byte	.LASF135
 1552 0a3e 01       		.byte	0x1
 1553 0a3f 50       		.byte	0x50
 1554 0a40 48080000 		.4byte	0x848
 1555 0a44 21       		.uleb128 0x21
 1556 0a45 99040000 		.4byte	.LASF136
 1557 0a49 01       		.byte	0x1
 1558 0a4a 51       		.byte	0x51
 1559 0a4b 48080000 		.4byte	0x848
 1560 0a4f 39       		.uleb128 0x39
 1561 0a50 EB000000 		.4byte	.LASF143
 1562 0a54 EB000000 		.4byte	.LASF143
 1563 0a58 0E       		.byte	0xe
 1564 0a59 4F       		.byte	0x4f
 1565 0a5a 39       		.uleb128 0x39
 1566 0a5b 86030000 		.4byte	.LASF144
 1567 0a5f 86030000 		.4byte	.LASF144
 1568 0a63 0C       		.byte	0xc
 1569 0a64 D8       		.byte	0xd8
 1570 0a65 39       		.uleb128 0x39
 1571 0a66 E4020000 		.4byte	.LASF145
 1572 0a6a E4020000 		.4byte	.LASF145
 1573 0a6e 0C       		.byte	0xc
 1574 0a6f DE       		.byte	0xde
 1575 0a70 39       		.uleb128 0x39
 1576 0a71 E9060000 		.4byte	.LASF146
 1577 0a75 E9060000 		.4byte	.LASF146
 1578 0a79 0C       		.byte	0xc
 1579 0a7a D9       		.byte	0xd9
 1580 0a7b 39       		.uleb128 0x39
 1581 0a7c 4D030000 		.4byte	.LASF147
 1582 0a80 4D030000 		.4byte	.LASF147
 1583 0a84 0E       		.byte	0xe
 1584 0a85 50       		.byte	0x50
 1585 0a86 3A       		.uleb128 0x3a
 1586 0a87 22020000 		.4byte	.LASF148
 1587 0a8b 22020000 		.4byte	.LASF148
 1588 0a8f 03       		.byte	0x3
 1589 0a90 1601     		.2byte	0x116
 1590 0a92 00       		.byte	0
 1591              		.section	.debug_abbrev,"",%progbits
 1592              	.Ldebug_abbrev0:
 1593 0000 01       		.uleb128 0x1
 1594 0001 11       		.uleb128 0x11
ARM GAS  /tmp/ccKyWVgg.s 			page 29


 1595 0002 01       		.byte	0x1
 1596 0003 25       		.uleb128 0x25
 1597 0004 0E       		.uleb128 0xe
 1598 0005 13       		.uleb128 0x13
 1599 0006 0B       		.uleb128 0xb
 1600 0007 03       		.uleb128 0x3
 1601 0008 0E       		.uleb128 0xe
 1602 0009 55       		.uleb128 0x55
 1603 000a 17       		.uleb128 0x17
 1604 000b 11       		.uleb128 0x11
 1605 000c 01       		.uleb128 0x1
 1606 000d 10       		.uleb128 0x10
 1607 000e 17       		.uleb128 0x17
 1608 000f 00       		.byte	0
 1609 0010 00       		.byte	0
 1610 0011 02       		.uleb128 0x2
 1611 0012 24       		.uleb128 0x24
 1612 0013 00       		.byte	0
 1613 0014 0B       		.uleb128 0xb
 1614 0015 0B       		.uleb128 0xb
 1615 0016 3E       		.uleb128 0x3e
 1616 0017 0B       		.uleb128 0xb
 1617 0018 03       		.uleb128 0x3
 1618 0019 08       		.uleb128 0x8
 1619 001a 00       		.byte	0
 1620 001b 00       		.byte	0
 1621 001c 03       		.uleb128 0x3
 1622 001d 16       		.uleb128 0x16
 1623 001e 00       		.byte	0
 1624 001f 03       		.uleb128 0x3
 1625 0020 0E       		.uleb128 0xe
 1626 0021 3A       		.uleb128 0x3a
 1627 0022 0B       		.uleb128 0xb
 1628 0023 3B       		.uleb128 0x3b
 1629 0024 0B       		.uleb128 0xb
 1630 0025 49       		.uleb128 0x49
 1631 0026 13       		.uleb128 0x13
 1632 0027 00       		.byte	0
 1633 0028 00       		.byte	0
 1634 0029 04       		.uleb128 0x4
 1635 002a 24       		.uleb128 0x24
 1636 002b 00       		.byte	0
 1637 002c 0B       		.uleb128 0xb
 1638 002d 0B       		.uleb128 0xb
 1639 002e 3E       		.uleb128 0x3e
 1640 002f 0B       		.uleb128 0xb
 1641 0030 03       		.uleb128 0x3
 1642 0031 0E       		.uleb128 0xe
 1643 0032 00       		.byte	0
 1644 0033 00       		.byte	0
 1645 0034 05       		.uleb128 0x5
 1646 0035 35       		.uleb128 0x35
 1647 0036 00       		.byte	0
 1648 0037 49       		.uleb128 0x49
 1649 0038 13       		.uleb128 0x13
 1650 0039 00       		.byte	0
 1651 003a 00       		.byte	0
ARM GAS  /tmp/ccKyWVgg.s 			page 30


 1652 003b 06       		.uleb128 0x6
 1653 003c 13       		.uleb128 0x13
 1654 003d 01       		.byte	0x1
 1655 003e 03       		.uleb128 0x3
 1656 003f 0E       		.uleb128 0xe
 1657 0040 0B       		.uleb128 0xb
 1658 0041 0B       		.uleb128 0xb
 1659 0042 3A       		.uleb128 0x3a
 1660 0043 0B       		.uleb128 0xb
 1661 0044 3B       		.uleb128 0x3b
 1662 0045 0B       		.uleb128 0xb
 1663 0046 01       		.uleb128 0x1
 1664 0047 13       		.uleb128 0x13
 1665 0048 00       		.byte	0
 1666 0049 00       		.byte	0
 1667 004a 07       		.uleb128 0x7
 1668 004b 0D       		.uleb128 0xd
 1669 004c 00       		.byte	0
 1670 004d 03       		.uleb128 0x3
 1671 004e 0E       		.uleb128 0xe
 1672 004f 3A       		.uleb128 0x3a
 1673 0050 0B       		.uleb128 0xb
 1674 0051 3B       		.uleb128 0x3b
 1675 0052 0B       		.uleb128 0xb
 1676 0053 49       		.uleb128 0x49
 1677 0054 13       		.uleb128 0x13
 1678 0055 38       		.uleb128 0x38
 1679 0056 0B       		.uleb128 0xb
 1680 0057 00       		.byte	0
 1681 0058 00       		.byte	0
 1682 0059 08       		.uleb128 0x8
 1683 005a 0D       		.uleb128 0xd
 1684 005b 00       		.byte	0
 1685 005c 03       		.uleb128 0x3
 1686 005d 08       		.uleb128 0x8
 1687 005e 3A       		.uleb128 0x3a
 1688 005f 0B       		.uleb128 0xb
 1689 0060 3B       		.uleb128 0x3b
 1690 0061 05       		.uleb128 0x5
 1691 0062 49       		.uleb128 0x49
 1692 0063 13       		.uleb128 0x13
 1693 0064 38       		.uleb128 0x38
 1694 0065 0B       		.uleb128 0xb
 1695 0066 00       		.byte	0
 1696 0067 00       		.byte	0
 1697 0068 09       		.uleb128 0x9
 1698 0069 0D       		.uleb128 0xd
 1699 006a 00       		.byte	0
 1700 006b 03       		.uleb128 0x3
 1701 006c 0E       		.uleb128 0xe
 1702 006d 3A       		.uleb128 0x3a
 1703 006e 0B       		.uleb128 0xb
 1704 006f 3B       		.uleb128 0x3b
 1705 0070 05       		.uleb128 0x5
 1706 0071 49       		.uleb128 0x49
 1707 0072 13       		.uleb128 0x13
 1708 0073 38       		.uleb128 0x38
ARM GAS  /tmp/ccKyWVgg.s 			page 31


 1709 0074 0B       		.uleb128 0xb
 1710 0075 00       		.byte	0
 1711 0076 00       		.byte	0
 1712 0077 0A       		.uleb128 0xa
 1713 0078 0F       		.uleb128 0xf
 1714 0079 00       		.byte	0
 1715 007a 0B       		.uleb128 0xb
 1716 007b 0B       		.uleb128 0xb
 1717 007c 49       		.uleb128 0x49
 1718 007d 13       		.uleb128 0x13
 1719 007e 00       		.byte	0
 1720 007f 00       		.byte	0
 1721 0080 0B       		.uleb128 0xb
 1722 0081 13       		.uleb128 0x13
 1723 0082 01       		.byte	0x1
 1724 0083 03       		.uleb128 0x3
 1725 0084 0E       		.uleb128 0xe
 1726 0085 0B       		.uleb128 0xb
 1727 0086 0B       		.uleb128 0xb
 1728 0087 3A       		.uleb128 0x3a
 1729 0088 0B       		.uleb128 0xb
 1730 0089 3B       		.uleb128 0x3b
 1731 008a 05       		.uleb128 0x5
 1732 008b 01       		.uleb128 0x1
 1733 008c 13       		.uleb128 0x13
 1734 008d 00       		.byte	0
 1735 008e 00       		.byte	0
 1736 008f 0C       		.uleb128 0xc
 1737 0090 15       		.uleb128 0x15
 1738 0091 01       		.byte	0x1
 1739 0092 27       		.uleb128 0x27
 1740 0093 19       		.uleb128 0x19
 1741 0094 01       		.uleb128 0x1
 1742 0095 13       		.uleb128 0x13
 1743 0096 00       		.byte	0
 1744 0097 00       		.byte	0
 1745 0098 0D       		.uleb128 0xd
 1746 0099 05       		.uleb128 0x5
 1747 009a 00       		.byte	0
 1748 009b 49       		.uleb128 0x49
 1749 009c 13       		.uleb128 0x13
 1750 009d 00       		.byte	0
 1751 009e 00       		.byte	0
 1752 009f 0E       		.uleb128 0xe
 1753 00a0 0F       		.uleb128 0xf
 1754 00a1 00       		.byte	0
 1755 00a2 0B       		.uleb128 0xb
 1756 00a3 0B       		.uleb128 0xb
 1757 00a4 00       		.byte	0
 1758 00a5 00       		.byte	0
 1759 00a6 0F       		.uleb128 0xf
 1760 00a7 13       		.uleb128 0x13
 1761 00a8 01       		.byte	0x1
 1762 00a9 03       		.uleb128 0x3
 1763 00aa 0E       		.uleb128 0xe
 1764 00ab 0B       		.uleb128 0xb
 1765 00ac 05       		.uleb128 0x5
ARM GAS  /tmp/ccKyWVgg.s 			page 32


 1766 00ad 3A       		.uleb128 0x3a
 1767 00ae 0B       		.uleb128 0xb
 1768 00af 3B       		.uleb128 0x3b
 1769 00b0 05       		.uleb128 0x5
 1770 00b1 01       		.uleb128 0x1
 1771 00b2 13       		.uleb128 0x13
 1772 00b3 00       		.byte	0
 1773 00b4 00       		.byte	0
 1774 00b5 10       		.uleb128 0x10
 1775 00b6 0D       		.uleb128 0xd
 1776 00b7 00       		.byte	0
 1777 00b8 03       		.uleb128 0x3
 1778 00b9 0E       		.uleb128 0xe
 1779 00ba 3A       		.uleb128 0x3a
 1780 00bb 0B       		.uleb128 0xb
 1781 00bc 3B       		.uleb128 0x3b
 1782 00bd 05       		.uleb128 0x5
 1783 00be 49       		.uleb128 0x49
 1784 00bf 13       		.uleb128 0x13
 1785 00c0 38       		.uleb128 0x38
 1786 00c1 05       		.uleb128 0x5
 1787 00c2 00       		.byte	0
 1788 00c3 00       		.byte	0
 1789 00c4 11       		.uleb128 0x11
 1790 00c5 0D       		.uleb128 0xd
 1791 00c6 00       		.byte	0
 1792 00c7 03       		.uleb128 0x3
 1793 00c8 08       		.uleb128 0x8
 1794 00c9 3A       		.uleb128 0x3a
 1795 00ca 0B       		.uleb128 0xb
 1796 00cb 3B       		.uleb128 0x3b
 1797 00cc 05       		.uleb128 0x5
 1798 00cd 49       		.uleb128 0x49
 1799 00ce 13       		.uleb128 0x13
 1800 00cf 38       		.uleb128 0x38
 1801 00d0 05       		.uleb128 0x5
 1802 00d1 00       		.byte	0
 1803 00d2 00       		.byte	0
 1804 00d3 12       		.uleb128 0x12
 1805 00d4 0D       		.uleb128 0xd
 1806 00d5 00       		.byte	0
 1807 00d6 03       		.uleb128 0x3
 1808 00d7 08       		.uleb128 0x8
 1809 00d8 3A       		.uleb128 0x3a
 1810 00d9 0B       		.uleb128 0xb
 1811 00da 3B       		.uleb128 0x3b
 1812 00db 0B       		.uleb128 0xb
 1813 00dc 49       		.uleb128 0x49
 1814 00dd 13       		.uleb128 0x13
 1815 00de 38       		.uleb128 0x38
 1816 00df 0B       		.uleb128 0xb
 1817 00e0 00       		.byte	0
 1818 00e1 00       		.byte	0
 1819 00e2 13       		.uleb128 0x13
 1820 00e3 13       		.uleb128 0x13
 1821 00e4 01       		.byte	0x1
 1822 00e5 0B       		.uleb128 0xb
ARM GAS  /tmp/ccKyWVgg.s 			page 33


 1823 00e6 0B       		.uleb128 0xb
 1824 00e7 3A       		.uleb128 0x3a
 1825 00e8 0B       		.uleb128 0xb
 1826 00e9 3B       		.uleb128 0x3b
 1827 00ea 0B       		.uleb128 0xb
 1828 00eb 01       		.uleb128 0x1
 1829 00ec 13       		.uleb128 0x13
 1830 00ed 00       		.byte	0
 1831 00ee 00       		.byte	0
 1832 00ef 14       		.uleb128 0x14
 1833 00f0 13       		.uleb128 0x13
 1834 00f1 01       		.byte	0x1
 1835 00f2 0B       		.uleb128 0xb
 1836 00f3 05       		.uleb128 0x5
 1837 00f4 3A       		.uleb128 0x3a
 1838 00f5 0B       		.uleb128 0xb
 1839 00f6 3B       		.uleb128 0x3b
 1840 00f7 0B       		.uleb128 0xb
 1841 00f8 01       		.uleb128 0x1
 1842 00f9 13       		.uleb128 0x13
 1843 00fa 00       		.byte	0
 1844 00fb 00       		.byte	0
 1845 00fc 15       		.uleb128 0x15
 1846 00fd 01       		.uleb128 0x1
 1847 00fe 01       		.byte	0x1
 1848 00ff 49       		.uleb128 0x49
 1849 0100 13       		.uleb128 0x13
 1850 0101 01       		.uleb128 0x1
 1851 0102 13       		.uleb128 0x13
 1852 0103 00       		.byte	0
 1853 0104 00       		.byte	0
 1854 0105 16       		.uleb128 0x16
 1855 0106 21       		.uleb128 0x21
 1856 0107 00       		.byte	0
 1857 0108 49       		.uleb128 0x49
 1858 0109 13       		.uleb128 0x13
 1859 010a 2F       		.uleb128 0x2f
 1860 010b 0B       		.uleb128 0xb
 1861 010c 00       		.byte	0
 1862 010d 00       		.byte	0
 1863 010e 17       		.uleb128 0x17
 1864 010f 17       		.uleb128 0x17
 1865 0110 01       		.byte	0x1
 1866 0111 0B       		.uleb128 0xb
 1867 0112 0B       		.uleb128 0xb
 1868 0113 3A       		.uleb128 0x3a
 1869 0114 0B       		.uleb128 0xb
 1870 0115 3B       		.uleb128 0x3b
 1871 0116 0B       		.uleb128 0xb
 1872 0117 01       		.uleb128 0x1
 1873 0118 13       		.uleb128 0x13
 1874 0119 00       		.byte	0
 1875 011a 00       		.byte	0
 1876 011b 18       		.uleb128 0x18
 1877 011c 0D       		.uleb128 0xd
 1878 011d 00       		.byte	0
 1879 011e 03       		.uleb128 0x3
ARM GAS  /tmp/ccKyWVgg.s 			page 34


 1880 011f 0E       		.uleb128 0xe
 1881 0120 3A       		.uleb128 0x3a
 1882 0121 0B       		.uleb128 0xb
 1883 0122 3B       		.uleb128 0x3b
 1884 0123 05       		.uleb128 0x5
 1885 0124 49       		.uleb128 0x49
 1886 0125 13       		.uleb128 0x13
 1887 0126 00       		.byte	0
 1888 0127 00       		.byte	0
 1889 0128 19       		.uleb128 0x19
 1890 0129 26       		.uleb128 0x26
 1891 012a 00       		.byte	0
 1892 012b 49       		.uleb128 0x49
 1893 012c 13       		.uleb128 0x13
 1894 012d 00       		.byte	0
 1895 012e 00       		.byte	0
 1896 012f 1A       		.uleb128 0x1a
 1897 0130 2E       		.uleb128 0x2e
 1898 0131 01       		.byte	0x1
 1899 0132 03       		.uleb128 0x3
 1900 0133 0E       		.uleb128 0xe
 1901 0134 3A       		.uleb128 0x3a
 1902 0135 0B       		.uleb128 0xb
 1903 0136 3B       		.uleb128 0x3b
 1904 0137 05       		.uleb128 0x5
 1905 0138 27       		.uleb128 0x27
 1906 0139 19       		.uleb128 0x19
 1907 013a 20       		.uleb128 0x20
 1908 013b 0B       		.uleb128 0xb
 1909 013c 01       		.uleb128 0x1
 1910 013d 13       		.uleb128 0x13
 1911 013e 00       		.byte	0
 1912 013f 00       		.byte	0
 1913 0140 1B       		.uleb128 0x1b
 1914 0141 05       		.uleb128 0x5
 1915 0142 00       		.byte	0
 1916 0143 03       		.uleb128 0x3
 1917 0144 0E       		.uleb128 0xe
 1918 0145 3A       		.uleb128 0x3a
 1919 0146 0B       		.uleb128 0xb
 1920 0147 3B       		.uleb128 0x3b
 1921 0148 05       		.uleb128 0x5
 1922 0149 49       		.uleb128 0x49
 1923 014a 13       		.uleb128 0x13
 1924 014b 00       		.byte	0
 1925 014c 00       		.byte	0
 1926 014d 1C       		.uleb128 0x1c
 1927 014e 2E       		.uleb128 0x2e
 1928 014f 00       		.byte	0
 1929 0150 03       		.uleb128 0x3
 1930 0151 0E       		.uleb128 0xe
 1931 0152 3A       		.uleb128 0x3a
 1932 0153 0B       		.uleb128 0xb
 1933 0154 3B       		.uleb128 0x3b
 1934 0155 05       		.uleb128 0x5
 1935 0156 27       		.uleb128 0x27
 1936 0157 19       		.uleb128 0x19
ARM GAS  /tmp/ccKyWVgg.s 			page 35


 1937 0158 20       		.uleb128 0x20
 1938 0159 0B       		.uleb128 0xb
 1939 015a 00       		.byte	0
 1940 015b 00       		.byte	0
 1941 015c 1D       		.uleb128 0x1d
 1942 015d 2E       		.uleb128 0x2e
 1943 015e 01       		.byte	0x1
 1944 015f 3F       		.uleb128 0x3f
 1945 0160 19       		.uleb128 0x19
 1946 0161 03       		.uleb128 0x3
 1947 0162 0E       		.uleb128 0xe
 1948 0163 3A       		.uleb128 0x3a
 1949 0164 0B       		.uleb128 0xb
 1950 0165 3B       		.uleb128 0x3b
 1951 0166 0B       		.uleb128 0xb
 1952 0167 27       		.uleb128 0x27
 1953 0168 19       		.uleb128 0x19
 1954 0169 49       		.uleb128 0x49
 1955 016a 13       		.uleb128 0x13
 1956 016b 20       		.uleb128 0x20
 1957 016c 0B       		.uleb128 0xb
 1958 016d 01       		.uleb128 0x1
 1959 016e 13       		.uleb128 0x13
 1960 016f 00       		.byte	0
 1961 0170 00       		.byte	0
 1962 0171 1E       		.uleb128 0x1e
 1963 0172 05       		.uleb128 0x5
 1964 0173 00       		.byte	0
 1965 0174 03       		.uleb128 0x3
 1966 0175 0E       		.uleb128 0xe
 1967 0176 3A       		.uleb128 0x3a
 1968 0177 0B       		.uleb128 0xb
 1969 0178 3B       		.uleb128 0x3b
 1970 0179 0B       		.uleb128 0xb
 1971 017a 49       		.uleb128 0x49
 1972 017b 13       		.uleb128 0x13
 1973 017c 00       		.byte	0
 1974 017d 00       		.byte	0
 1975 017e 1F       		.uleb128 0x1f
 1976 017f 34       		.uleb128 0x34
 1977 0180 00       		.byte	0
 1978 0181 03       		.uleb128 0x3
 1979 0182 08       		.uleb128 0x8
 1980 0183 3A       		.uleb128 0x3a
 1981 0184 0B       		.uleb128 0xb
 1982 0185 3B       		.uleb128 0x3b
 1983 0186 0B       		.uleb128 0xb
 1984 0187 49       		.uleb128 0x49
 1985 0188 13       		.uleb128 0x13
 1986 0189 00       		.byte	0
 1987 018a 00       		.byte	0
 1988 018b 20       		.uleb128 0x20
 1989 018c 2E       		.uleb128 0x2e
 1990 018d 01       		.byte	0x1
 1991 018e 3F       		.uleb128 0x3f
 1992 018f 19       		.uleb128 0x19
 1993 0190 03       		.uleb128 0x3
ARM GAS  /tmp/ccKyWVgg.s 			page 36


 1994 0191 0E       		.uleb128 0xe
 1995 0192 3A       		.uleb128 0x3a
 1996 0193 0B       		.uleb128 0xb
 1997 0194 3B       		.uleb128 0x3b
 1998 0195 0B       		.uleb128 0xb
 1999 0196 27       		.uleb128 0x27
 2000 0197 19       		.uleb128 0x19
 2001 0198 11       		.uleb128 0x11
 2002 0199 01       		.uleb128 0x1
 2003 019a 12       		.uleb128 0x12
 2004 019b 06       		.uleb128 0x6
 2005 019c 40       		.uleb128 0x40
 2006 019d 18       		.uleb128 0x18
 2007 019e 9742     		.uleb128 0x2117
 2008 01a0 19       		.uleb128 0x19
 2009 01a1 01       		.uleb128 0x1
 2010 01a2 13       		.uleb128 0x13
 2011 01a3 00       		.byte	0
 2012 01a4 00       		.byte	0
 2013 01a5 21       		.uleb128 0x21
 2014 01a6 34       		.uleb128 0x34
 2015 01a7 00       		.byte	0
 2016 01a8 03       		.uleb128 0x3
 2017 01a9 0E       		.uleb128 0xe
 2018 01aa 3A       		.uleb128 0x3a
 2019 01ab 0B       		.uleb128 0xb
 2020 01ac 3B       		.uleb128 0x3b
 2021 01ad 0B       		.uleb128 0xb
 2022 01ae 49       		.uleb128 0x49
 2023 01af 13       		.uleb128 0x13
 2024 01b0 3F       		.uleb128 0x3f
 2025 01b1 19       		.uleb128 0x19
 2026 01b2 3C       		.uleb128 0x3c
 2027 01b3 19       		.uleb128 0x19
 2028 01b4 00       		.byte	0
 2029 01b5 00       		.byte	0
 2030 01b6 22       		.uleb128 0x22
 2031 01b7 21       		.uleb128 0x21
 2032 01b8 00       		.byte	0
 2033 01b9 00       		.byte	0
 2034 01ba 00       		.byte	0
 2035 01bb 23       		.uleb128 0x23
 2036 01bc 34       		.uleb128 0x34
 2037 01bd 00       		.byte	0
 2038 01be 03       		.uleb128 0x3
 2039 01bf 0E       		.uleb128 0xe
 2040 01c0 49       		.uleb128 0x49
 2041 01c1 13       		.uleb128 0x13
 2042 01c2 34       		.uleb128 0x34
 2043 01c3 19       		.uleb128 0x19
 2044 01c4 1C       		.uleb128 0x1c
 2045 01c5 0E       		.uleb128 0xe
 2046 01c6 00       		.byte	0
 2047 01c7 00       		.byte	0
 2048 01c8 24       		.uleb128 0x24
 2049 01c9 2E       		.uleb128 0x2e
 2050 01ca 01       		.byte	0x1
ARM GAS  /tmp/ccKyWVgg.s 			page 37


 2051 01cb 3F       		.uleb128 0x3f
 2052 01cc 19       		.uleb128 0x19
 2053 01cd 03       		.uleb128 0x3
 2054 01ce 0E       		.uleb128 0xe
 2055 01cf 3A       		.uleb128 0x3a
 2056 01d0 0B       		.uleb128 0xb
 2057 01d1 3B       		.uleb128 0x3b
 2058 01d2 0B       		.uleb128 0xb
 2059 01d3 27       		.uleb128 0x27
 2060 01d4 19       		.uleb128 0x19
 2061 01d5 49       		.uleb128 0x49
 2062 01d6 13       		.uleb128 0x13
 2063 01d7 11       		.uleb128 0x11
 2064 01d8 01       		.uleb128 0x1
 2065 01d9 12       		.uleb128 0x12
 2066 01da 06       		.uleb128 0x6
 2067 01db 40       		.uleb128 0x40
 2068 01dc 18       		.uleb128 0x18
 2069 01dd 9742     		.uleb128 0x2117
 2070 01df 19       		.uleb128 0x19
 2071 01e0 01       		.uleb128 0x1
 2072 01e1 13       		.uleb128 0x13
 2073 01e2 00       		.byte	0
 2074 01e3 00       		.byte	0
 2075 01e4 25       		.uleb128 0x25
 2076 01e5 05       		.uleb128 0x5
 2077 01e6 00       		.byte	0
 2078 01e7 03       		.uleb128 0x3
 2079 01e8 0E       		.uleb128 0xe
 2080 01e9 3A       		.uleb128 0x3a
 2081 01ea 0B       		.uleb128 0xb
 2082 01eb 3B       		.uleb128 0x3b
 2083 01ec 0B       		.uleb128 0xb
 2084 01ed 49       		.uleb128 0x49
 2085 01ee 13       		.uleb128 0x13
 2086 01ef 02       		.uleb128 0x2
 2087 01f0 17       		.uleb128 0x17
 2088 01f1 00       		.byte	0
 2089 01f2 00       		.byte	0
 2090 01f3 26       		.uleb128 0x26
 2091 01f4 1D       		.uleb128 0x1d
 2092 01f5 01       		.byte	0x1
 2093 01f6 31       		.uleb128 0x31
 2094 01f7 13       		.uleb128 0x13
 2095 01f8 52       		.uleb128 0x52
 2096 01f9 01       		.uleb128 0x1
 2097 01fa 55       		.uleb128 0x55
 2098 01fb 17       		.uleb128 0x17
 2099 01fc 58       		.uleb128 0x58
 2100 01fd 0B       		.uleb128 0xb
 2101 01fe 59       		.uleb128 0x59
 2102 01ff 0B       		.uleb128 0xb
 2103 0200 01       		.uleb128 0x1
 2104 0201 13       		.uleb128 0x13
 2105 0202 00       		.byte	0
 2106 0203 00       		.byte	0
 2107 0204 27       		.uleb128 0x27
ARM GAS  /tmp/ccKyWVgg.s 			page 38


 2108 0205 1D       		.uleb128 0x1d
 2109 0206 01       		.byte	0x1
 2110 0207 31       		.uleb128 0x31
 2111 0208 13       		.uleb128 0x13
 2112 0209 52       		.uleb128 0x52
 2113 020a 01       		.uleb128 0x1
 2114 020b 55       		.uleb128 0x55
 2115 020c 17       		.uleb128 0x17
 2116 020d 58       		.uleb128 0x58
 2117 020e 0B       		.uleb128 0xb
 2118 020f 59       		.uleb128 0x59
 2119 0210 05       		.uleb128 0x5
 2120 0211 01       		.uleb128 0x1
 2121 0212 13       		.uleb128 0x13
 2122 0213 00       		.byte	0
 2123 0214 00       		.byte	0
 2124 0215 28       		.uleb128 0x28
 2125 0216 1D       		.uleb128 0x1d
 2126 0217 01       		.byte	0x1
 2127 0218 31       		.uleb128 0x31
 2128 0219 13       		.uleb128 0x13
 2129 021a 52       		.uleb128 0x52
 2130 021b 01       		.uleb128 0x1
 2131 021c 55       		.uleb128 0x55
 2132 021d 17       		.uleb128 0x17
 2133 021e 58       		.uleb128 0x58
 2134 021f 0B       		.uleb128 0xb
 2135 0220 59       		.uleb128 0x59
 2136 0221 05       		.uleb128 0x5
 2137 0222 00       		.byte	0
 2138 0223 00       		.byte	0
 2139 0224 29       		.uleb128 0x29
 2140 0225 05       		.uleb128 0x5
 2141 0226 00       		.byte	0
 2142 0227 31       		.uleb128 0x31
 2143 0228 13       		.uleb128 0x13
 2144 0229 02       		.uleb128 0x2
 2145 022a 17       		.uleb128 0x17
 2146 022b 00       		.byte	0
 2147 022c 00       		.byte	0
 2148 022d 2A       		.uleb128 0x2a
 2149 022e 898201   		.uleb128 0x4109
 2150 0231 00       		.byte	0
 2151 0232 11       		.uleb128 0x11
 2152 0233 01       		.uleb128 0x1
 2153 0234 31       		.uleb128 0x31
 2154 0235 13       		.uleb128 0x13
 2155 0236 00       		.byte	0
 2156 0237 00       		.byte	0
 2157 0238 2B       		.uleb128 0x2b
 2158 0239 1D       		.uleb128 0x1d
 2159 023a 01       		.byte	0x1
 2160 023b 31       		.uleb128 0x31
 2161 023c 13       		.uleb128 0x13
 2162 023d 11       		.uleb128 0x11
 2163 023e 01       		.uleb128 0x1
 2164 023f 12       		.uleb128 0x12
ARM GAS  /tmp/ccKyWVgg.s 			page 39


 2165 0240 06       		.uleb128 0x6
 2166 0241 58       		.uleb128 0x58
 2167 0242 0B       		.uleb128 0xb
 2168 0243 59       		.uleb128 0x59
 2169 0244 0B       		.uleb128 0xb
 2170 0245 01       		.uleb128 0x1
 2171 0246 13       		.uleb128 0x13
 2172 0247 00       		.byte	0
 2173 0248 00       		.byte	0
 2174 0249 2C       		.uleb128 0x2c
 2175 024a 0B       		.uleb128 0xb
 2176 024b 01       		.byte	0x1
 2177 024c 11       		.uleb128 0x11
 2178 024d 01       		.uleb128 0x1
 2179 024e 12       		.uleb128 0x12
 2180 024f 06       		.uleb128 0x6
 2181 0250 00       		.byte	0
 2182 0251 00       		.byte	0
 2183 0252 2D       		.uleb128 0x2d
 2184 0253 34       		.uleb128 0x34
 2185 0254 00       		.byte	0
 2186 0255 31       		.uleb128 0x31
 2187 0256 13       		.uleb128 0x13
 2188 0257 02       		.uleb128 0x2
 2189 0258 17       		.uleb128 0x17
 2190 0259 00       		.byte	0
 2191 025a 00       		.byte	0
 2192 025b 2E       		.uleb128 0x2e
 2193 025c 1D       		.uleb128 0x1d
 2194 025d 01       		.byte	0x1
 2195 025e 31       		.uleb128 0x31
 2196 025f 13       		.uleb128 0x13
 2197 0260 11       		.uleb128 0x11
 2198 0261 01       		.uleb128 0x1
 2199 0262 12       		.uleb128 0x12
 2200 0263 06       		.uleb128 0x6
 2201 0264 58       		.uleb128 0x58
 2202 0265 0B       		.uleb128 0xb
 2203 0266 59       		.uleb128 0x59
 2204 0267 0B       		.uleb128 0xb
 2205 0268 00       		.byte	0
 2206 0269 00       		.byte	0
 2207 026a 2F       		.uleb128 0x2f
 2208 026b 34       		.uleb128 0x34
 2209 026c 00       		.byte	0
 2210 026d 31       		.uleb128 0x31
 2211 026e 13       		.uleb128 0x13
 2212 026f 02       		.uleb128 0x2
 2213 0270 18       		.uleb128 0x18
 2214 0271 00       		.byte	0
 2215 0272 00       		.byte	0
 2216 0273 30       		.uleb128 0x30
 2217 0274 1D       		.uleb128 0x1d
 2218 0275 01       		.byte	0x1
 2219 0276 31       		.uleb128 0x31
 2220 0277 13       		.uleb128 0x13
 2221 0278 11       		.uleb128 0x11
ARM GAS  /tmp/ccKyWVgg.s 			page 40


 2222 0279 01       		.uleb128 0x1
 2223 027a 12       		.uleb128 0x12
 2224 027b 06       		.uleb128 0x6
 2225 027c 58       		.uleb128 0x58
 2226 027d 0B       		.uleb128 0xb
 2227 027e 59       		.uleb128 0x59
 2228 027f 05       		.uleb128 0x5
 2229 0280 01       		.uleb128 0x1
 2230 0281 13       		.uleb128 0x13
 2231 0282 00       		.byte	0
 2232 0283 00       		.byte	0
 2233 0284 31       		.uleb128 0x31
 2234 0285 1D       		.uleb128 0x1d
 2235 0286 01       		.byte	0x1
 2236 0287 31       		.uleb128 0x31
 2237 0288 13       		.uleb128 0x13
 2238 0289 11       		.uleb128 0x11
 2239 028a 01       		.uleb128 0x1
 2240 028b 12       		.uleb128 0x12
 2241 028c 06       		.uleb128 0x6
 2242 028d 58       		.uleb128 0x58
 2243 028e 0B       		.uleb128 0xb
 2244 028f 59       		.uleb128 0x59
 2245 0290 05       		.uleb128 0x5
 2246 0291 00       		.byte	0
 2247 0292 00       		.byte	0
 2248 0293 32       		.uleb128 0x32
 2249 0294 898201   		.uleb128 0x4109
 2250 0297 01       		.byte	0x1
 2251 0298 11       		.uleb128 0x11
 2252 0299 01       		.uleb128 0x1
 2253 029a 31       		.uleb128 0x31
 2254 029b 13       		.uleb128 0x13
 2255 029c 00       		.byte	0
 2256 029d 00       		.byte	0
 2257 029e 33       		.uleb128 0x33
 2258 029f 8A8201   		.uleb128 0x410a
 2259 02a2 00       		.byte	0
 2260 02a3 02       		.uleb128 0x2
 2261 02a4 18       		.uleb128 0x18
 2262 02a5 9142     		.uleb128 0x2111
 2263 02a7 18       		.uleb128 0x18
 2264 02a8 00       		.byte	0
 2265 02a9 00       		.byte	0
 2266 02aa 34       		.uleb128 0x34
 2267 02ab 2E       		.uleb128 0x2e
 2268 02ac 01       		.byte	0x1
 2269 02ad 31       		.uleb128 0x31
 2270 02ae 13       		.uleb128 0x13
 2271 02af 11       		.uleb128 0x11
 2272 02b0 01       		.uleb128 0x1
 2273 02b1 12       		.uleb128 0x12
 2274 02b2 06       		.uleb128 0x6
 2275 02b3 40       		.uleb128 0x40
 2276 02b4 18       		.uleb128 0x18
 2277 02b5 9742     		.uleb128 0x2117
 2278 02b7 19       		.uleb128 0x19
ARM GAS  /tmp/ccKyWVgg.s 			page 41


 2279 02b8 01       		.uleb128 0x1
 2280 02b9 13       		.uleb128 0x13
 2281 02ba 00       		.byte	0
 2282 02bb 00       		.byte	0
 2283 02bc 35       		.uleb128 0x35
 2284 02bd 2E       		.uleb128 0x2e
 2285 02be 00       		.byte	0
 2286 02bf 3F       		.uleb128 0x3f
 2287 02c0 19       		.uleb128 0x19
 2288 02c1 03       		.uleb128 0x3
 2289 02c2 0E       		.uleb128 0xe
 2290 02c3 3A       		.uleb128 0x3a
 2291 02c4 0B       		.uleb128 0xb
 2292 02c5 3B       		.uleb128 0x3b
 2293 02c6 0B       		.uleb128 0xb
 2294 02c7 27       		.uleb128 0x27
 2295 02c8 19       		.uleb128 0x19
 2296 02c9 49       		.uleb128 0x49
 2297 02ca 13       		.uleb128 0x13
 2298 02cb 11       		.uleb128 0x11
 2299 02cc 01       		.uleb128 0x1
 2300 02cd 12       		.uleb128 0x12
 2301 02ce 06       		.uleb128 0x6
 2302 02cf 40       		.uleb128 0x40
 2303 02d0 18       		.uleb128 0x18
 2304 02d1 9742     		.uleb128 0x2117
 2305 02d3 19       		.uleb128 0x19
 2306 02d4 00       		.byte	0
 2307 02d5 00       		.byte	0
 2308 02d6 36       		.uleb128 0x36
 2309 02d7 34       		.uleb128 0x34
 2310 02d8 00       		.byte	0
 2311 02d9 03       		.uleb128 0x3
 2312 02da 0E       		.uleb128 0xe
 2313 02db 3A       		.uleb128 0x3a
 2314 02dc 0B       		.uleb128 0xb
 2315 02dd 3B       		.uleb128 0x3b
 2316 02de 0B       		.uleb128 0xb
 2317 02df 49       		.uleb128 0x49
 2318 02e0 13       		.uleb128 0x13
 2319 02e1 02       		.uleb128 0x2
 2320 02e2 18       		.uleb128 0x18
 2321 02e3 00       		.byte	0
 2322 02e4 00       		.byte	0
 2323 02e5 37       		.uleb128 0x37
 2324 02e6 34       		.uleb128 0x34
 2325 02e7 00       		.byte	0
 2326 02e8 03       		.uleb128 0x3
 2327 02e9 0E       		.uleb128 0xe
 2328 02ea 3A       		.uleb128 0x3a
 2329 02eb 0B       		.uleb128 0xb
 2330 02ec 3B       		.uleb128 0x3b
 2331 02ed 05       		.uleb128 0x5
 2332 02ee 49       		.uleb128 0x49
 2333 02ef 13       		.uleb128 0x13
 2334 02f0 3F       		.uleb128 0x3f
 2335 02f1 19       		.uleb128 0x19
ARM GAS  /tmp/ccKyWVgg.s 			page 42


 2336 02f2 3C       		.uleb128 0x3c
 2337 02f3 19       		.uleb128 0x19
 2338 02f4 00       		.byte	0
 2339 02f5 00       		.byte	0
 2340 02f6 38       		.uleb128 0x38
 2341 02f7 34       		.uleb128 0x34
 2342 02f8 00       		.byte	0
 2343 02f9 03       		.uleb128 0x3
 2344 02fa 08       		.uleb128 0x8
 2345 02fb 3A       		.uleb128 0x3a
 2346 02fc 0B       		.uleb128 0xb
 2347 02fd 3B       		.uleb128 0x3b
 2348 02fe 05       		.uleb128 0x5
 2349 02ff 49       		.uleb128 0x49
 2350 0300 13       		.uleb128 0x13
 2351 0301 3F       		.uleb128 0x3f
 2352 0302 19       		.uleb128 0x19
 2353 0303 3C       		.uleb128 0x3c
 2354 0304 19       		.uleb128 0x19
 2355 0305 00       		.byte	0
 2356 0306 00       		.byte	0
 2357 0307 39       		.uleb128 0x39
 2358 0308 2E       		.uleb128 0x2e
 2359 0309 00       		.byte	0
 2360 030a 3F       		.uleb128 0x3f
 2361 030b 19       		.uleb128 0x19
 2362 030c 3C       		.uleb128 0x3c
 2363 030d 19       		.uleb128 0x19
 2364 030e 6E       		.uleb128 0x6e
 2365 030f 0E       		.uleb128 0xe
 2366 0310 03       		.uleb128 0x3
 2367 0311 0E       		.uleb128 0xe
 2368 0312 3A       		.uleb128 0x3a
 2369 0313 0B       		.uleb128 0xb
 2370 0314 3B       		.uleb128 0x3b
 2371 0315 0B       		.uleb128 0xb
 2372 0316 00       		.byte	0
 2373 0317 00       		.byte	0
 2374 0318 3A       		.uleb128 0x3a
 2375 0319 2E       		.uleb128 0x2e
 2376 031a 00       		.byte	0
 2377 031b 3F       		.uleb128 0x3f
 2378 031c 19       		.uleb128 0x19
 2379 031d 3C       		.uleb128 0x3c
 2380 031e 19       		.uleb128 0x19
 2381 031f 6E       		.uleb128 0x6e
 2382 0320 0E       		.uleb128 0xe
 2383 0321 03       		.uleb128 0x3
 2384 0322 0E       		.uleb128 0xe
 2385 0323 3A       		.uleb128 0x3a
 2386 0324 0B       		.uleb128 0xb
 2387 0325 3B       		.uleb128 0x3b
 2388 0326 05       		.uleb128 0x5
 2389 0327 00       		.byte	0
 2390 0328 00       		.byte	0
 2391 0329 00       		.byte	0
 2392              		.section	.debug_loc,"",%progbits
ARM GAS  /tmp/ccKyWVgg.s 			page 43


 2393              	.Ldebug_loc0:
 2394              	.LLST0:
 2395 0000 00000000 		.4byte	.LVL0
 2396 0004 0D000000 		.4byte	.LVL2-1
 2397 0008 0100     		.2byte	0x1
 2398 000a 50       		.byte	0x50
 2399 000b 0D000000 		.4byte	.LVL2-1
 2400 000f 30000000 		.4byte	.LVL8
 2401 0013 0100     		.2byte	0x1
 2402 0015 54       		.byte	0x54
 2403 0016 30000000 		.4byte	.LVL8
 2404 001a 6C000000 		.4byte	.LFE228
 2405 001e 0400     		.2byte	0x4
 2406 0020 F3       		.byte	0xf3
 2407 0021 01       		.uleb128 0x1
 2408 0022 50       		.byte	0x50
 2409 0023 9F       		.byte	0x9f
 2410 0024 00000000 		.4byte	0
 2411 0028 00000000 		.4byte	0
 2412              	.LLST1:
 2413 002c 00000000 		.4byte	.LVL0
 2414 0030 0A000000 		.4byte	.LVL1
 2415 0034 0300     		.2byte	0x3
 2416 0036 08       		.byte	0x8
 2417 0037 20       		.byte	0x20
 2418 0038 9F       		.byte	0x9f
 2419 0039 00000000 		.4byte	0
 2420 003d 00000000 		.4byte	0
 2421              	.LLST2:
 2422 0041 12000000 		.4byte	.LVL3
 2423 0045 24000000 		.4byte	.LVL5
 2424 0049 0100     		.2byte	0x1
 2425 004b 54       		.byte	0x54
 2426 004c 24000000 		.4byte	.LVL5
 2427 0050 2C000000 		.4byte	.LVL7
 2428 0054 0100     		.2byte	0x1
 2429 0056 53       		.byte	0x53
 2430 0057 2C000000 		.4byte	.LVL7
 2431 005b 30000000 		.4byte	.LVL8
 2432 005f 0600     		.2byte	0x6
 2433 0061 74       		.byte	0x74
 2434 0062 07       		.sleb128 7
 2435 0063 09       		.byte	0x9
 2436 0064 F8       		.byte	0xf8
 2437 0065 1A       		.byte	0x1a
 2438 0066 9F       		.byte	0x9f
 2439 0067 30000000 		.4byte	.LVL8
 2440 006b 32000000 		.4byte	.LVL9
 2441 006f 0900     		.2byte	0x9
 2442 0071 F3       		.byte	0xf3
 2443 0072 01       		.uleb128 0x1
 2444 0073 50       		.byte	0x50
 2445 0074 23       		.byte	0x23
 2446 0075 07       		.uleb128 0x7
 2447 0076 09       		.byte	0x9
 2448 0077 F8       		.byte	0xf8
 2449 0078 1A       		.byte	0x1a
ARM GAS  /tmp/ccKyWVgg.s 			page 44


 2450 0079 9F       		.byte	0x9f
 2451 007a 00000000 		.4byte	0
 2452 007e 00000000 		.4byte	0
 2453              	.LLST3:
 2454 0082 28000000 		.4byte	.LVL6
 2455 0086 35000000 		.4byte	.LVL10-1
 2456 008a 0100     		.2byte	0x1
 2457 008c 50       		.byte	0x50
 2458 008d 00000000 		.4byte	0
 2459 0091 00000000 		.4byte	0
 2460              	.LLST4:
 2461 0095 52000000 		.4byte	.LVL12
 2462 0099 58000000 		.4byte	.LVL13
 2463 009d 0200     		.2byte	0x2
 2464 009f 30       		.byte	0x30
 2465 00a0 9F       		.byte	0x9f
 2466 00a1 00000000 		.4byte	0
 2467 00a5 00000000 		.4byte	0
 2468              	.LLST5:
 2469 00a9 00000000 		.4byte	.LVL14
 2470 00ad 07000000 		.4byte	.LVL15-1
 2471 00b1 0100     		.2byte	0x1
 2472 00b3 50       		.byte	0x50
 2473 00b4 07000000 		.4byte	.LVL15-1
 2474 00b8 16000000 		.4byte	.LVL16
 2475 00bc 0100     		.2byte	0x1
 2476 00be 54       		.byte	0x54
 2477 00bf 16000000 		.4byte	.LVL16
 2478 00c3 1E000000 		.4byte	.LVL18
 2479 00c7 0100     		.2byte	0x1
 2480 00c9 53       		.byte	0x53
 2481 00ca 1E000000 		.4byte	.LVL18
 2482 00ce 24000000 		.4byte	.LVL20
 2483 00d2 0600     		.2byte	0x6
 2484 00d4 74       		.byte	0x74
 2485 00d5 07       		.sleb128 7
 2486 00d6 09       		.byte	0x9
 2487 00d7 F8       		.byte	0xf8
 2488 00d8 1A       		.byte	0x1a
 2489 00d9 9F       		.byte	0x9f
 2490 00da 24000000 		.4byte	.LVL20
 2491 00de 2C000000 		.4byte	.LFE229
 2492 00e2 0900     		.2byte	0x9
 2493 00e4 F3       		.byte	0xf3
 2494 00e5 01       		.uleb128 0x1
 2495 00e6 50       		.byte	0x50
 2496 00e7 23       		.byte	0x23
 2497 00e8 07       		.uleb128 0x7
 2498 00e9 09       		.byte	0x9
 2499 00ea F8       		.byte	0xf8
 2500 00eb 1A       		.byte	0x1a
 2501 00ec 9F       		.byte	0x9f
 2502 00ed 00000000 		.4byte	0
 2503 00f1 00000000 		.4byte	0
 2504              	.LLST6:
 2505 00f5 1A000000 		.4byte	.LVL17
 2506 00f9 22000000 		.4byte	.LVL19
ARM GAS  /tmp/ccKyWVgg.s 			page 45


 2507 00fd 0100     		.2byte	0x1
 2508 00ff 50       		.byte	0x50
 2509 0100 22000000 		.4byte	.LVL19
 2510 0104 2C000000 		.4byte	.LFE229
 2511 0108 0500     		.2byte	0x5
 2512 010a 03       		.byte	0x3
 2513 010b 00000000 		.4byte	nextmem
 2514 010f 00000000 		.4byte	0
 2515 0113 00000000 		.4byte	0
 2516              		.section	.debug_aranges,"",%progbits
 2517 0000 34000000 		.4byte	0x34
 2518 0004 0200     		.2byte	0x2
 2519 0006 00000000 		.4byte	.Ldebug_info0
 2520 000a 04       		.byte	0x4
 2521 000b 00       		.byte	0
 2522 000c 0000     		.2byte	0
 2523 000e 0000     		.2byte	0
 2524 0010 00000000 		.4byte	.LFB227
 2525 0014 28000000 		.4byte	.LFE227-.LFB227
 2526 0018 00000000 		.4byte	.LFB228
 2527 001c 6C000000 		.4byte	.LFE228-.LFB228
 2528 0020 00000000 		.4byte	.LFB229
 2529 0024 2C000000 		.4byte	.LFE229-.LFB229
 2530 0028 00000000 		.4byte	.LFB230
 2531 002c 14000000 		.4byte	.LFE230-.LFB230
 2532 0030 00000000 		.4byte	0
 2533 0034 00000000 		.4byte	0
 2534              		.section	.debug_ranges,"",%progbits
 2535              	.Ldebug_ranges0:
 2536 0000 02000000 		.4byte	.LBB33
 2537 0004 04000000 		.4byte	.LBE33
 2538 0008 06000000 		.4byte	.LBB42
 2539 000c 12000000 		.4byte	.LBE42
 2540 0010 00000000 		.4byte	0
 2541 0014 00000000 		.4byte	0
 2542 0018 02000000 		.4byte	.LBB35
 2543 001c 04000000 		.4byte	.LBE35
 2544 0020 06000000 		.4byte	.LBB40
 2545 0024 0A000000 		.4byte	.LBE40
 2546 0028 00000000 		.4byte	0
 2547 002c 00000000 		.4byte	0
 2548 0030 00000000 		.4byte	.LFB227
 2549 0034 28000000 		.4byte	.LFE227
 2550 0038 00000000 		.4byte	.LFB228
 2551 003c 6C000000 		.4byte	.LFE228
 2552 0040 00000000 		.4byte	.LFB229
 2553 0044 2C000000 		.4byte	.LFE229
 2554 0048 00000000 		.4byte	.LFB230
 2555 004c 14000000 		.4byte	.LFE230
 2556 0050 00000000 		.4byte	0
 2557 0054 00000000 		.4byte	0
 2558              		.section	.debug_line,"",%progbits
 2559              	.Ldebug_line0:
 2560 0000 E1020000 		.section	.debug_str,"MS",%progbits,1
 2560      02005002 
 2560      00000201 
 2560      FB0E0D00 
ARM GAS  /tmp/ccKyWVgg.s 			page 46


 2560      01010101 
 2561              	.LASF141:
 2562 0000 656E646D 		.ascii	"endmem\000"
 2562      656D00
 2563              	.LASF56:
 2564 0007 72656164 		.ascii	"ready_list_t\000"
 2564      795F6C69 
 2564      73745F74 
 2564      00
 2565              	.LASF93:
 2566 0014 73655F74 		.ascii	"se_time\000"
 2566      696D6500 
 2567              	.LASF4:
 2568 001c 73697A65 		.ascii	"size_t\000"
 2568      5F7400
 2569              	.LASF114:
 2570 0023 7264796D 		.ascii	"rdymsg\000"
 2570      736700
 2571              	.LASF18:
 2572 002a 75696E74 		.ascii	"uint64_t\000"
 2572      36345F74 
 2572      00
 2573              	.LASF86:
 2574 0033 6B65726E 		.ascii	"kernel_stats\000"
 2574      656C5F73 
 2574      74617473 
 2574      00
 2575              	.LASF153:
 2576 0040 6368436F 		.ascii	"chCoreAlloc\000"
 2576      7265416C 
 2576      6C6F6300 
 2577              	.LASF5:
 2578 004c 5F5F7569 		.ascii	"__uint8_t\000"
 2578      6E74385F 
 2578      7400
 2579              	.LASF92:
 2580 0056 706F7274 		.ascii	"port_intctx\000"
 2580      5F696E74 
 2580      63747800 
 2581              	.LASF55:
 2582 0062 63685F74 		.ascii	"ch_threads_queue\000"
 2582      68726561 
 2582      64735F71 
 2582      75657565 
 2582      00
 2583              	.LASF75:
 2584 0073 73797374 		.ascii	"system_debug_t\000"
 2584      656D5F64 
 2584      65627567 
 2584      5F7400
 2585              	.LASF130:
 2586 0082 706F7274 		.ascii	"port_lock\000"
 2586      5F6C6F63 
 2586      6B00
 2587              	.LASF105:
 2588 008c 776F7273 		.ascii	"worst\000"
 2588      7400
ARM GAS  /tmp/ccKyWVgg.s 			page 47


 2589              	.LASF108:
 2590 0092 74696D65 		.ascii	"time_measurement_t\000"
 2590      5F6D6561 
 2590      73757265 
 2590      6D656E74 
 2590      5F7400
 2591              	.LASF14:
 2592 00a5 6C6F6E67 		.ascii	"long long unsigned int\000"
 2592      206C6F6E 
 2592      6720756E 
 2592      7369676E 
 2592      65642069 
 2593              	.LASF101:
 2594 00bc 63685F74 		.ascii	"ch_trace_buffer_t\000"
 2594      72616365 
 2594      5F627566 
 2594      6665725F 
 2594      7400
 2595              	.LASF96:
 2596 00ce 73655F73 		.ascii	"se_state\000"
 2596      74617465 
 2596      00
 2597              	.LASF115:
 2598 00d7 65786974 		.ascii	"exitcode\000"
 2598      636F6465 
 2598      00
 2599              	.LASF85:
 2600 00e0 6D61696E 		.ascii	"mainthread\000"
 2600      74687265 
 2600      616400
 2601              	.LASF143:
 2602 00eb 5F737461 		.ascii	"_stats_start_measure_crit_thd\000"
 2602      74735F73 
 2602      74617274 
 2602      5F6D6561 
 2602      73757265 
 2603              	.LASF72:
 2604 0109 76697274 		.ascii	"virtual_timers_list_t\000"
 2604      75616C5F 
 2604      74696D65 
 2604      72735F6C 
 2604      6973745F 
 2605              	.LASF142:
 2606 011f 49544D5F 		.ascii	"ITM_RxBuffer\000"
 2606      52784275 
 2606      66666572 
 2606      00
 2607              	.LASF150:
 2608 012c 2F686F6D 		.ascii	"/home/selim/working/ChibiOS/os/rt/src/chmemcore.c\000"
 2608      652F7365 
 2608      6C696D2F 
 2608      776F726B 
 2608      696E672F 
 2609              	.LASF20:
 2610 015e 72747469 		.ascii	"rttime_t\000"
 2610      6D655F74 
 2610      00
ARM GAS  /tmp/ccKyWVgg.s 			page 48


 2611              	.LASF33:
 2612 0167 705F7072 		.ascii	"p_prio\000"
 2612      696F00
 2613              	.LASF1:
 2614 016e 6C6F6E67 		.ascii	"long long int\000"
 2614      206C6F6E 
 2614      6720696E 
 2614      7400
 2615              	.LASF3:
 2616 017c 7369676E 		.ascii	"signed char\000"
 2616      65642063 
 2616      68617200 
 2617              	.LASF48:
 2618 0188 705F6D70 		.ascii	"p_mpool\000"
 2618      6F6F6C00 
 2619              	.LASF125:
 2620 0190 6D5F7175 		.ascii	"m_queue\000"
 2620      65756500 
 2621              	.LASF84:
 2622 0198 76746C69 		.ascii	"vtlist\000"
 2622      737400
 2623              	.LASF131:
 2624 019f 706F7274 		.ascii	"port_unlock\000"
 2624      5F756E6C 
 2624      6F636B00 
 2625              	.LASF154:
 2626 01ab 6368436F 		.ascii	"chCoreGetStatusX\000"
 2626      72654765 
 2626      74537461 
 2626      74757358 
 2626      00
 2627              	.LASF117:
 2628 01bc 77747472 		.ascii	"wttrp\000"
 2628      7000
 2629              	.LASF82:
 2630 01c2 63685F73 		.ascii	"ch_system\000"
 2630      79737465 
 2630      6D00
 2631              	.LASF10:
 2632 01cc 6C6F6E67 		.ascii	"long int\000"
 2632      20696E74 
 2632      00
 2633              	.LASF22:
 2634 01d5 74737461 		.ascii	"tstate_t\000"
 2634      74655F74 
 2634      00
 2635              	.LASF94:
 2636 01de 73655F74 		.ascii	"se_tp\000"
 2636      7000
 2637              	.LASF35:
 2638 01e4 705F6E65 		.ascii	"p_newer\000"
 2638      77657200 
 2639              	.LASF122:
 2640 01ec 735F7175 		.ascii	"s_queue\000"
 2640      65756500 
 2641              	.LASF151:
 2642 01f4 6368436F 		.ascii	"chCoreAllocI\000"
ARM GAS  /tmp/ccKyWVgg.s 			page 49


 2642      7265416C 
 2642      6C6F6349 
 2642      00
 2643              	.LASF98:
 2644 0201 74625F73 		.ascii	"tb_size\000"
 2644      697A6500 
 2645              	.LASF61:
 2646 0209 725F6E65 		.ascii	"r_newer\000"
 2646      77657200 
 2647              	.LASF89:
 2648 0211 72656761 		.ascii	"regarm_t\000"
 2648      726D5F74 
 2648      00
 2649              	.LASF68:
 2650 021a 76745F70 		.ascii	"vt_prev\000"
 2650      72657600 
 2651              	.LASF148:
 2652 0222 63685379 		.ascii	"chSysHalt\000"
 2652      7348616C 
 2652      7400
 2653              	.LASF76:
 2654 022c 63685F73 		.ascii	"ch_system_debug\000"
 2654      79737465 
 2654      6D5F6465 
 2654      62756700 
 2655              	.LASF129:
 2656 023c 6D757465 		.ascii	"mutex_t\000"
 2656      785F7400 
 2657              	.LASF132:
 2658 0244 76616C75 		.ascii	"value\000"
 2658      6500
 2659              	.LASF79:
 2660 024a 6C6F636B 		.ascii	"lock_cnt\000"
 2660      5F636E74 
 2660      00
 2661              	.LASF87:
 2662 0253 69646C65 		.ascii	"idle_thread_wa\000"
 2662      5F746872 
 2662      6561645F 
 2662      776100
 2663              	.LASF27:
 2664 0262 636E745F 		.ascii	"cnt_t\000"
 2664      7400
 2665              	.LASF38:
 2666 0268 705F7374 		.ascii	"p_stklimit\000"
 2666      6B6C696D 
 2666      697400
 2667              	.LASF0:
 2668 0273 756E7369 		.ascii	"unsigned int\000"
 2668      676E6564 
 2668      20696E74 
 2668      00
 2669              	.LASF67:
 2670 0280 76745F6E 		.ascii	"vt_next\000"
 2670      65787400 
 2671              	.LASF118:
 2672 0288 77747365 		.ascii	"wtsemp\000"
ARM GAS  /tmp/ccKyWVgg.s 			page 50


 2672      6D7000
 2673              	.LASF43:
 2674 028f 705F6D73 		.ascii	"p_msgqueue\000"
 2674      67717565 
 2674      756500
 2675              	.LASF109:
 2676 029a 6E5F6972 		.ascii	"n_irq\000"
 2676      7100
 2677              	.LASF123:
 2678 02a0 735F636E 		.ascii	"s_cnt\000"
 2678      7400
 2679              	.LASF8:
 2680 02a6 73686F72 		.ascii	"short unsigned int\000"
 2680      7420756E 
 2680      7369676E 
 2680      65642069 
 2680      6E7400
 2681              	.LASF113:
 2682 02b9 6B65726E 		.ascii	"kernel_stats_t\000"
 2682      656C5F73 
 2682      74617473 
 2682      5F7400
 2683              	.LASF52:
 2684 02c8 63685F74 		.ascii	"ch_thread\000"
 2684      68726561 
 2684      6400
 2685              	.LASF25:
 2686 02d2 6D73675F 		.ascii	"msg_t\000"
 2686      7400
 2687              	.LASF106:
 2688 02d8 6C617374 		.ascii	"last\000"
 2688      00
 2689              	.LASF28:
 2690 02dd 75636E74 		.ascii	"ucnt_t\000"
 2690      5F7400
 2691              	.LASF145:
 2692 02e4 63684462 		.ascii	"chDbgCheckClassI\000"
 2692      67436865 
 2692      636B436C 
 2692      61737349 
 2692      00
 2693              	.LASF81:
 2694 02f5 63685F73 		.ascii	"ch_system_t\000"
 2694      79737465 
 2694      6D5F7400 
 2695              	.LASF21:
 2696 0301 746D6F64 		.ascii	"tmode_t\000"
 2696      655F7400 
 2697              	.LASF112:
 2698 0309 6D5F6372 		.ascii	"m_crit_isr\000"
 2698      69745F69 
 2698      737200
 2699              	.LASF57:
 2700 0314 63685F72 		.ascii	"ch_ready_list\000"
 2700      65616479 
 2700      5F6C6973 
 2700      7400
ARM GAS  /tmp/ccKyWVgg.s 			page 51


 2701              	.LASF26:
 2702 0322 6576656E 		.ascii	"eventmask_t\000"
 2702      746D6173 
 2702      6B5F7400 
 2703              	.LASF9:
 2704 032e 5F5F696E 		.ascii	"__int32_t\000"
 2704      7433325F 
 2704      7400
 2705              	.LASF90:
 2706 0338 73746B61 		.ascii	"stkalign_t\000"
 2706      6C69676E 
 2706      5F7400
 2707              	.LASF42:
 2708 0343 705F7761 		.ascii	"p_waiting\000"
 2708      6974696E 
 2708      6700
 2709              	.LASF147:
 2710 034d 5F737461 		.ascii	"_stats_stop_measure_crit_thd\000"
 2710      74735F73 
 2710      746F705F 
 2710      6D656173 
 2710      7572655F 
 2711              	.LASF88:
 2712 036a 73697A65 		.ascii	"sizetype\000"
 2712      74797065 
 2712      00
 2713              	.LASF50:
 2714 0373 74687265 		.ascii	"thread_reference_t\000"
 2714      61645F72 
 2714      65666572 
 2714      656E6365 
 2714      5F7400
 2715              	.LASF144:
 2716 0386 5F646267 		.ascii	"_dbg_check_lock\000"
 2716      5F636865 
 2716      636B5F6C 
 2716      6F636B00 
 2717              	.LASF73:
 2718 0396 63685F76 		.ascii	"ch_virtual_timers_list\000"
 2718      69727475 
 2718      616C5F74 
 2718      696D6572 
 2718      735F6C69 
 2719              	.LASF2:
 2720 03ad 6C6F6E67 		.ascii	"long double\000"
 2720      20646F75 
 2720      626C6500 
 2721              	.LASF99:
 2722 03b9 74625F70 		.ascii	"tb_ptr\000"
 2722      747200
 2723              	.LASF97:
 2724 03c0 63685F73 		.ascii	"ch_swc_event_t\000"
 2724      77635F65 
 2724      76656E74 
 2724      5F7400
 2725              	.LASF74:
 2726 03cf 76745F6C 		.ascii	"vt_lasttime\000"
ARM GAS  /tmp/ccKyWVgg.s 			page 52


 2726      61737474 
 2726      696D6500 
 2727              	.LASF36:
 2728 03db 705F6F6C 		.ascii	"p_older\000"
 2728      64657200 
 2729              	.LASF60:
 2730 03e3 725F6374 		.ascii	"r_ctx\000"
 2730      7800
 2731              	.LASF103:
 2732 03e9 746D5F63 		.ascii	"tm_calibration_t\000"
 2732      616C6962 
 2732      72617469 
 2732      6F6E5F74 
 2732      00
 2733              	.LASF63:
 2734 03fa 725F6375 		.ascii	"r_current\000"
 2734      7272656E 
 2734      7400
 2735              	.LASF62:
 2736 0404 725F6F6C 		.ascii	"r_older\000"
 2736      64657200 
 2737              	.LASF13:
 2738 040c 5F5F7569 		.ascii	"__uint64_t\000"
 2738      6E743634 
 2738      5F7400
 2739              	.LASF107:
 2740 0417 63756D75 		.ascii	"cumulative\000"
 2740      6C617469 
 2740      766500
 2741              	.LASF23:
 2742 0422 74726566 		.ascii	"trefs_t\000"
 2742      735F7400 
 2743              	.LASF100:
 2744 042a 74625F62 		.ascii	"tb_buffer\000"
 2744      75666665 
 2744      7200
 2745              	.LASF65:
 2746 0434 76697274 		.ascii	"virtual_timer_t\000"
 2746      75616C5F 
 2746      74696D65 
 2746      725F7400 
 2747              	.LASF32:
 2748 0444 705F7072 		.ascii	"p_prev\000"
 2748      657600
 2749              	.LASF24:
 2750 044b 74707269 		.ascii	"tprio_t\000"
 2750      6F5F7400 
 2751              	.LASF110:
 2752 0453 6E5F6374 		.ascii	"n_ctxswc\000"
 2752      78737763 
 2752      00
 2753              	.LASF16:
 2754 045c 696E7433 		.ascii	"int32_t\000"
 2754      325F7400 
 2755              	.LASF6:
 2756 0464 756E7369 		.ascii	"unsigned char\000"
 2756      676E6564 
ARM GAS  /tmp/ccKyWVgg.s 			page 53


 2756      20636861 
 2756      7200
 2757              	.LASF152:
 2758 0472 5F636F72 		.ascii	"_core_init\000"
 2758      655F696E 
 2758      697400
 2759              	.LASF46:
 2760 047d 705F6D74 		.ascii	"p_mtxlist\000"
 2760      786C6973 
 2760      7400
 2761              	.LASF7:
 2762 0487 73686F72 		.ascii	"short int\000"
 2762      7420696E 
 2762      7400
 2763              	.LASF39:
 2764 0491 705F7374 		.ascii	"p_state\000"
 2764      61746500 
 2765              	.LASF136:
 2766 0499 5F5F6865 		.ascii	"__heap_end__\000"
 2766      61705F65 
 2766      6E645F5F 
 2766      00
 2767              	.LASF59:
 2768 04a6 725F7072 		.ascii	"r_prio\000"
 2768      696F00
 2769              	.LASF149:
 2770 04ad 474E5520 		.ascii	"GNU C11 5.3.1 20160307 (release) [ARM/embedded-5-br"
 2770      43313120 
 2770      352E332E 
 2770      31203230 
 2770      31363033 
 2771 04e0 616E6368 		.ascii	"anch revision 234589] -mcpu=cortex-m4 -mno-thumb-in"
 2771      20726576 
 2771      6973696F 
 2771      6E203233 
 2771      34353839 
 2772 0513 74657277 		.ascii	"terwork -mthumb -ggdb -O2 -fomit-frame-pointer -fal"
 2772      6F726B20 
 2772      2D6D7468 
 2772      756D6220 
 2772      2D676764 
 2773 0546 69676E2D 		.ascii	"ign-functions=16 -ffunction-sections -fdata-section"
 2773      66756E63 
 2773      74696F6E 
 2773      733D3136 
 2773      202D6666 
 2774 0579 73202D66 		.ascii	"s -fno-common\000"
 2774      6E6F2D63 
 2774      6F6D6D6F 
 2774      6E00
 2775              	.LASF120:
 2776 0587 65776D61 		.ascii	"ewmask\000"
 2776      736B00
 2777              	.LASF31:
 2778 058e 705F6E65 		.ascii	"p_next\000"
 2778      787400
 2779              	.LASF40:
ARM GAS  /tmp/ccKyWVgg.s 			page 54


 2780 0595 705F666C 		.ascii	"p_flags\000"
 2780      61677300 
 2781              	.LASF139:
 2782 059d 5F5F6675 		.ascii	"__func__\000"
 2782      6E635F5F 
 2782      00
 2783              	.LASF49:
 2784 05a6 705F7374 		.ascii	"p_stats\000"
 2784      61747300 
 2785              	.LASF134:
 2786 05ae 63685379 		.ascii	"chSysLock\000"
 2786      734C6F63 
 2786      6B00
 2787              	.LASF66:
 2788 05b8 63685F76 		.ascii	"ch_virtual_timer\000"
 2788      69727475 
 2788      616C5F74 
 2788      696D6572 
 2788      00
 2789              	.LASF121:
 2790 05c9 63685F73 		.ascii	"ch_semaphore\000"
 2790      656D6170 
 2790      686F7265 
 2790      00
 2791              	.LASF45:
 2792 05d6 705F6570 		.ascii	"p_epending\000"
 2792      656E6469 
 2792      6E6700
 2793              	.LASF17:
 2794 05e1 75696E74 		.ascii	"uint32_t\000"
 2794      33325F74 
 2794      00
 2795              	.LASF119:
 2796 05ea 77746D74 		.ascii	"wtmtxp\000"
 2796      787000
 2797              	.LASF58:
 2798 05f1 725F7175 		.ascii	"r_queue\000"
 2798      65756500 
 2799              	.LASF69:
 2800 05f9 76745F64 		.ascii	"vt_delta\000"
 2800      656C7461 
 2800      00
 2801              	.LASF53:
 2802 0602 63685F74 		.ascii	"ch_threads_list\000"
 2802      68726561 
 2802      64735F6C 
 2802      69737400 
 2803              	.LASF12:
 2804 0612 6C6F6E67 		.ascii	"long unsigned int\000"
 2804      20756E73 
 2804      69676E65 
 2804      6420696E 
 2804      7400
 2805              	.LASF128:
 2806 0624 63686172 		.ascii	"char\000"
 2806      00
 2807              	.LASF30:
ARM GAS  /tmp/ccKyWVgg.s 			page 55


 2808 0629 74687265 		.ascii	"thread_t\000"
 2808      61645F74 
 2808      00
 2809              	.LASF104:
 2810 0632 62657374 		.ascii	"best\000"
 2810      00
 2811              	.LASF140:
 2812 0637 6E657874 		.ascii	"nextmem\000"
 2812      6D656D00 
 2813              	.LASF127:
 2814 063f 6D5F6E65 		.ascii	"m_next\000"
 2814      787400
 2815              	.LASF29:
 2816 0646 73797374 		.ascii	"systime_t\000"
 2816      696D655F 
 2816      7400
 2817              	.LASF47:
 2818 0650 705F7265 		.ascii	"p_realprio\000"
 2818      616C7072 
 2818      696F00
 2819              	.LASF64:
 2820 065b 76746675 		.ascii	"vtfunc_t\000"
 2820      6E635F74 
 2820      00
 2821              	.LASF11:
 2822 0664 5F5F7569 		.ascii	"__uint32_t\000"
 2822      6E743332 
 2822      5F7400
 2823              	.LASF137:
 2824 066f 5F5F7365 		.ascii	"__set_BASEPRI\000"
 2824      745F4241 
 2824      53455052 
 2824      4900
 2825              	.LASF77:
 2826 067d 70616E69 		.ascii	"panic_msg\000"
 2826      635F6D73 
 2826      6700
 2827              	.LASF102:
 2828 0687 6F666673 		.ascii	"offset\000"
 2828      657400
 2829              	.LASF91:
 2830 068e 636F6E74 		.ascii	"context\000"
 2830      65787400 
 2831              	.LASF19:
 2832 0696 7274636E 		.ascii	"rtcnt_t\000"
 2832      745F7400 
 2833              	.LASF71:
 2834 069e 76745F70 		.ascii	"vt_par\000"
 2834      617200
 2835              	.LASF135:
 2836 06a5 5F5F6865 		.ascii	"__heap_base__\000"
 2836      61705F62 
 2836      6173655F 
 2836      5F00
 2837              	.LASF54:
 2838 06b3 74687265 		.ascii	"threads_queue_t\000"
 2838      6164735F 
ARM GAS  /tmp/ccKyWVgg.s 			page 56


 2838      71756575 
 2838      655F7400 
 2839              	.LASF124:
 2840 06c3 63685F6D 		.ascii	"ch_mutex\000"
 2840      75746578 
 2840      00
 2841              	.LASF41:
 2842 06cc 705F7265 		.ascii	"p_refs\000"
 2842      667300
 2843              	.LASF78:
 2844 06d3 6973725F 		.ascii	"isr_cnt\000"
 2844      636E7400 
 2845              	.LASF83:
 2846 06db 726C6973 		.ascii	"rlist\000"
 2846      7400
 2847              	.LASF15:
 2848 06e1 75696E74 		.ascii	"uint8_t\000"
 2848      385F7400 
 2849              	.LASF146:
 2850 06e9 5F646267 		.ascii	"_dbg_check_unlock\000"
 2850      5F636865 
 2850      636B5F75 
 2850      6E6C6F63 
 2850      6B00
 2851              	.LASF116:
 2852 06fb 77746F62 		.ascii	"wtobjp\000"
 2852      6A7000
 2853              	.LASF37:
 2854 0702 705F6E61 		.ascii	"p_name\000"
 2854      6D6500
 2855              	.LASF133:
 2856 0709 73697A65 		.ascii	"size\000"
 2856      00
 2857              	.LASF51:
 2858 070e 74687265 		.ascii	"threads_list_t\000"
 2858      6164735F 
 2858      6C697374 
 2858      5F7400
 2859              	.LASF80:
 2860 071d 74726163 		.ascii	"trace_buffer\000"
 2860      655F6275 
 2860      66666572 
 2860      00
 2861              	.LASF138:
 2862 072a 63685379 		.ascii	"chSysUnlock\000"
 2862      73556E6C 
 2862      6F636B00 
 2863              	.LASF44:
 2864 0736 705F6D73 		.ascii	"p_msg\000"
 2864      6700
 2865              	.LASF111:
 2866 073c 6D5F6372 		.ascii	"m_crit_thd\000"
 2866      69745F74 
 2866      686400
 2867              	.LASF126:
 2868 0747 6D5F6F77 		.ascii	"m_owner\000"
 2868      6E657200 
ARM GAS  /tmp/ccKyWVgg.s 			page 57


 2869              	.LASF95:
 2870 074f 73655F77 		.ascii	"se_wtobjp\000"
 2870      746F626A 
 2870      7000
 2871              	.LASF34:
 2872 0759 705F6374 		.ascii	"p_ctx\000"
 2872      7800
 2873              	.LASF70:
 2874 075f 76745F66 		.ascii	"vt_func\000"
 2874      756E6300 
 2875              		.ident	"GCC: (GNU Tools for ARM Embedded Processors) 5.3.1 20160307 (release) [ARM/embedded-5-bran
ARM GAS  /tmp/ccKyWVgg.s 			page 58


DEFINED SYMBOLS
                            *ABS*:0000000000000000 chmemcore.c
     /tmp/ccKyWVgg.s:20     .text._core_init:0000000000000000 $t
     /tmp/ccKyWVgg.s:26     .text._core_init:0000000000000000 _core_init
     /tmp/ccKyWVgg.s:54     .text._core_init:0000000000000018 $d
     /tmp/ccKyWVgg.s:62     .text.chCoreAlloc:0000000000000000 $t
     /tmp/ccKyWVgg.s:68     .text.chCoreAlloc:0000000000000000 chCoreAlloc
     /tmp/ccKyWVgg.s:195    .text.chCoreAlloc:000000000000005c $d
     /tmp/ccKyWVgg.s:203    .text.chCoreAllocI:0000000000000000 $t
     /tmp/ccKyWVgg.s:209    .text.chCoreAllocI:0000000000000000 chCoreAllocI
     /tmp/ccKyWVgg.s:252    .text.chCoreAllocI:0000000000000024 $d
     /tmp/ccKyWVgg.s:258    .text.chCoreGetStatusX:0000000000000000 $t
     /tmp/ccKyWVgg.s:264    .text.chCoreGetStatusX:0000000000000000 chCoreGetStatusX
     /tmp/ccKyWVgg.s:282    .text.chCoreGetStatusX:000000000000000c $d
     /tmp/ccKyWVgg.s:288    .bss.endmem:0000000000000000 $d
     /tmp/ccKyWVgg.s:292    .bss.endmem:0000000000000000 endmem
     /tmp/ccKyWVgg.s:295    .bss.nextmem:0000000000000000 $d
     /tmp/ccKyWVgg.s:299    .bss.nextmem:0000000000000000 nextmem
     /tmp/ccKyWVgg.s:302    .rodata.__func__.5969:0000000000000000 $d
     /tmp/ccKyWVgg.s:306    .rodata.__func__.5969:0000000000000000 __func__.5969
                     .debug_frame:0000000000000010 $d

UNDEFINED SYMBOLS
__heap_base__
__heap_end__
_stats_start_measure_crit_thd
_dbg_check_lock
chDbgCheckClassI
_dbg_check_unlock
_stats_stop_measure_crit_thd
chSysHalt
ch
