ARM GAS  /tmp/ccxhgADi.s 			page 1


   1              		.syntax unified
   2              		.cpu cortex-m4
   3              		.fpu softvfp
   4              		.eabi_attribute 20, 1
   5              		.eabi_attribute 21, 1
   6              		.eabi_attribute 23, 3
   7              		.eabi_attribute 24, 1
   8              		.eabi_attribute 25, 1
   9              		.eabi_attribute 26, 1
  10              		.eabi_attribute 30, 2
  11              		.eabi_attribute 34, 1
  12              		.eabi_attribute 18, 4
  13              		.thumb
  14              		.syntax unified
  15              		.file	"chmempools.c"
  16              		.text
  17              	.Ltext0:
  18              		.cfi_sections	.debug_frame
  19              		.section	.text.chPoolObjectInit,"ax",%progbits
  20              		.align	2
  21              		.p2align 4,,15
  22              		.global	chPoolObjectInit
  23              		.thumb
  24              		.thumb_func
  25              		.type	chPoolObjectInit, %function
  26              	chPoolObjectInit:
  27              	.LFB227:
  28              		.file 1 "/home/selim/working/ChibiOS/os/rt/src/chmempools.c"
  29              		.loc 1 75 0
  30              		.cfi_startproc
  31              		@ args = 0, pretend = 0, frame = 0
  32              		@ frame_needed = 0, uses_anonymous_args = 0
  33              	.LVL0:
  34 0000 70B5     		push	{r4, r5, r6, lr}
  35              		.cfi_def_cfa_offset 16
  36              		.cfi_offset 4, -16
  37              		.cfi_offset 5, -12
  38              		.cfi_offset 6, -8
  39              		.cfi_offset 14, -4
  40              		.loc 1 75 0
  41 0002 0D46     		mov	r5, r1
  42 0004 1646     		mov	r6, r2
  43              		.loc 1 77 0
  44 0006 0446     		mov	r4, r0
  45 0008 08B1     		cbz	r0, .L2
  46              		.loc 1 77 0 is_stmt 0 discriminator 3
  47 000a 0329     		cmp	r1, #3
  48 000c 02D8     		bhi	.L3
  49              	.L2:
  50              		.loc 1 77 0 discriminator 4
  51 000e 0348     		ldr	r0, .L9
  52              	.LVL1:
  53 0010 FFF7FEFF 		bl	chSysHalt
  54              	.LVL2:
  55              	.L3:
  56              		.loc 1 79 0 is_stmt 1
  57 0014 0023     		movs	r3, #0
ARM GAS  /tmp/ccxhgADi.s 			page 2


  58 0016 84E86800 		stmia	r4, {r3, r5, r6}
  59 001a 70BD     		pop	{r4, r5, r6, pc}
  60              	.LVL3:
  61              	.L10:
  62              		.align	2
  63              	.L9:
  64 001c 00000000 		.word	.LANCHOR0
  65              		.cfi_endproc
  66              	.LFE227:
  67              		.size	chPoolObjectInit, .-chPoolObjectInit
  68              		.section	.text.chPoolAllocI,"ax",%progbits
  69              		.align	2
  70              		.p2align 4,,15
  71              		.global	chPoolAllocI
  72              		.thumb
  73              		.thumb_func
  74              		.type	chPoolAllocI, %function
  75              	chPoolAllocI:
  76              	.LFB229:
  77              		.loc 1 120 0
  78              		.cfi_startproc
  79              		@ args = 0, pretend = 0, frame = 0
  80              		@ frame_needed = 0, uses_anonymous_args = 0
  81              	.LVL4:
  82 0000 10B5     		push	{r4, lr}
  83              		.cfi_def_cfa_offset 8
  84              		.cfi_offset 4, -8
  85              		.cfi_offset 14, -4
  86              		.loc 1 120 0
  87 0002 0446     		mov	r4, r0
  88              		.loc 1 123 0
  89 0004 FFF7FEFF 		bl	chDbgCheckClassI
  90              	.LVL5:
  91              		.loc 1 124 0
  92 0008 5CB1     		cbz	r4, .L19
  93              	.L12:
  94              		.loc 1 126 0
  95 000a 2068     		ldr	r0, [r4]
  96              	.LVL6:
  97              		.loc 1 128 0
  98 000c 10B1     		cbz	r0, .L13
  99              		.loc 1 129 0
 100 000e 0368     		ldr	r3, [r0]
 101 0010 2360     		str	r3, [r4]
 102 0012 10BD     		pop	{r4, pc}
 103              	.LVL7:
 104              	.L13:
 105              		.loc 1 131 0
 106 0014 A368     		ldr	r3, [r4, #8]
 107 0016 1BB1     		cbz	r3, .L14
 108              		.loc 1 132 0
 109 0018 6068     		ldr	r0, [r4, #4]
 110              	.LVL8:
 111              		.loc 1 137 0
 112 001a BDE81040 		pop	{r4, lr}
 113              		.cfi_remember_state
 114              		.cfi_restore 14
ARM GAS  /tmp/ccxhgADi.s 			page 3


 115              		.cfi_restore 4
 116              		.cfi_def_cfa_offset 0
 117              	.LVL9:
 118              		.loc 1 132 0
 119 001e 1847     		bx	r3
 120              	.LVL10:
 121              	.L14:
 122              		.cfi_restore_state
 123              		.loc 1 137 0
 124 0020 10BD     		pop	{r4, pc}
 125              	.LVL11:
 126              	.L19:
 127              		.loc 1 124 0 discriminator 2
 128 0022 0248     		ldr	r0, .L20
 129 0024 FFF7FEFF 		bl	chSysHalt
 130              	.LVL12:
 131 0028 EFE7     		b	.L12
 132              	.L21:
 133 002a 00BF     		.align	2
 134              	.L20:
 135 002c 00000000 		.word	.LANCHOR1
 136              		.cfi_endproc
 137              	.LFE229:
 138              		.size	chPoolAllocI, .-chPoolAllocI
 139              		.section	.text.chPoolAlloc,"ax",%progbits
 140              		.align	2
 141              		.p2align 4,,15
 142              		.global	chPoolAlloc
 143              		.thumb
 144              		.thumb_func
 145              		.type	chPoolAlloc, %function
 146              	chPoolAlloc:
 147              	.LFB230:
 148              		.loc 1 149 0
 149              		.cfi_startproc
 150              		@ args = 0, pretend = 0, frame = 0
 151              		@ frame_needed = 0, uses_anonymous_args = 0
 152              	.LVL13:
 153 0000 10B5     		push	{r4, lr}
 154              		.cfi_def_cfa_offset 8
 155              		.cfi_offset 4, -8
 156              		.cfi_offset 14, -4
 157              	.LBB36:
 158              	.LBB37:
 159              	.LBB38:
 160              	.LBB39:
 161              	.LBB40:
 162              		.file 2 "/home/selim/working/ChibiOS/os/ext/CMSIS/include/core_cmFunc.h"
 163              		.loc 2 546 0
 164 0002 2023     		movs	r3, #32
 165              	.LBE40:
 166              	.LBE39:
 167              	.LBE38:
 168              	.LBE37:
 169              	.LBE36:
 170              		.loc 1 149 0
 171 0004 0446     		mov	r4, r0
ARM GAS  /tmp/ccxhgADi.s 			page 4


 172              	.LBB45:
 173              	.LBB44:
 174              	.LBB43:
 175              	.LBB42:
 176              	.LBB41:
 177              		.loc 2 546 0
 178              		.syntax unified
 179              	@ 546 "/home/selim/working/ChibiOS/os/ext/CMSIS/include/core_cmFunc.h" 1
 180 0006 83F31188 		MSR basepri, r3
 181              	@ 0 "" 2
 182              	.LVL14:
 183              		.thumb
 184              		.syntax unified
 185              	.LBE41:
 186              	.LBE42:
 187              	.LBE43:
 188              		.file 3 "/home/selim/working/ChibiOS/os/rt/include/chsys.h"
 189              		.loc 3 349 0
 190 000a FFF7FEFF 		bl	_stats_start_measure_crit_thd
 191              	.LVL15:
 192              		.loc 3 350 0
 193 000e FFF7FEFF 		bl	_dbg_check_lock
 194              	.LVL16:
 195              	.LBE44:
 196              	.LBE45:
 197              		.loc 1 153 0
 198 0012 2046     		mov	r0, r4
 199 0014 FFF7FEFF 		bl	chPoolAllocI
 200              	.LVL17:
 201 0018 0446     		mov	r4, r0
 202              	.LVL18:
 203              	.LBB46:
 204              	.LBB47:
 205              		.loc 3 360 0
 206 001a FFF7FEFF 		bl	_dbg_check_unlock
 207              	.LVL19:
 208              		.loc 3 361 0
 209 001e FFF7FEFF 		bl	_stats_stop_measure_crit_thd
 210              	.LVL20:
 211              		.loc 3 367 0
 212 0022 084B     		ldr	r3, .L25
 213 0024 1A68     		ldr	r2, [r3]
 214 0026 9A42     		cmp	r2, r3
 215 0028 07D0     		beq	.L23
 216 002a 9969     		ldr	r1, [r3, #24]
 217 002c 9368     		ldr	r3, [r2, #8]
 218 002e 8A68     		ldr	r2, [r1, #8]
 219 0030 9A42     		cmp	r2, r3
 220 0032 02D2     		bcs	.L23
 221 0034 0448     		ldr	r0, .L25+4
 222 0036 FFF7FEFF 		bl	chSysHalt
 223              	.LVL21:
 224              	.L23:
 225              	.LBB48:
 226              	.LBB49:
 227              	.LBB50:
 228              		.loc 2 546 0
ARM GAS  /tmp/ccxhgADi.s 			page 5


 229 003a 0023     		movs	r3, #0
 230              		.syntax unified
 231              	@ 546 "/home/selim/working/ChibiOS/os/ext/CMSIS/include/core_cmFunc.h" 1
 232 003c 83F31188 		MSR basepri, r3
 233              	@ 0 "" 2
 234              	.LVL22:
 235              		.thumb
 236              		.syntax unified
 237              	.LBE50:
 238              	.LBE49:
 239              	.LBE48:
 240              	.LBE47:
 241              	.LBE46:
 242              		.loc 1 157 0
 243 0040 2046     		mov	r0, r4
 244 0042 10BD     		pop	{r4, pc}
 245              	.LVL23:
 246              	.L26:
 247              		.align	2
 248              	.L25:
 249 0044 00000000 		.word	ch
 250 0048 00000000 		.word	.LANCHOR2
 251              		.cfi_endproc
 252              	.LFE230:
 253              		.size	chPoolAlloc, .-chPoolAlloc
 254              		.section	.text.chPoolFreeI,"ax",%progbits
 255              		.align	2
 256              		.p2align 4,,15
 257              		.global	chPoolFreeI
 258              		.thumb
 259              		.thumb_func
 260              		.type	chPoolFreeI, %function
 261              	chPoolFreeI:
 262              	.LFB231:
 263              		.loc 1 171 0
 264              		.cfi_startproc
 265              		@ args = 0, pretend = 0, frame = 0
 266              		@ frame_needed = 0, uses_anonymous_args = 0
 267              	.LVL24:
 268 0000 38B5     		push	{r3, r4, r5, lr}
 269              		.cfi_def_cfa_offset 16
 270              		.cfi_offset 3, -16
 271              		.cfi_offset 4, -12
 272              		.cfi_offset 5, -8
 273              		.cfi_offset 14, -4
 274              		.loc 1 171 0
 275 0002 0446     		mov	r4, r0
 276 0004 0D46     		mov	r5, r1
 277              	.LVL25:
 278              		.loc 1 174 0
 279 0006 FFF7FEFF 		bl	chDbgCheckClassI
 280              	.LVL26:
 281              		.loc 1 175 0
 282 000a 24B1     		cbz	r4, .L28
 283              		.loc 1 175 0 is_stmt 0 discriminator 3
 284 000c 1DB1     		cbz	r5, .L28
 285              		.loc 1 177 0 is_stmt 1
ARM GAS  /tmp/ccxhgADi.s 			page 6


 286 000e 2368     		ldr	r3, [r4]
 287 0010 2B60     		str	r3, [r5]
 288              		.loc 1 178 0
 289 0012 2560     		str	r5, [r4]
 290 0014 38BD     		pop	{r3, r4, r5, pc}
 291              	.LVL27:
 292              	.L28:
 293              		.loc 1 175 0 discriminator 4
 294 0016 0348     		ldr	r0, .L34
 295 0018 FFF7FEFF 		bl	chSysHalt
 296              	.LVL28:
 297              		.loc 1 177 0 discriminator 4
 298 001c 2368     		ldr	r3, [r4]
 299 001e 2B60     		str	r3, [r5]
 300              		.loc 1 178 0 discriminator 4
 301 0020 2560     		str	r5, [r4]
 302 0022 38BD     		pop	{r3, r4, r5, pc}
 303              	.LVL29:
 304              	.L35:
 305              		.align	2
 306              	.L34:
 307 0024 00000000 		.word	.LANCHOR3
 308              		.cfi_endproc
 309              	.LFE231:
 310              		.size	chPoolFreeI, .-chPoolFreeI
 311              		.section	.text.chPoolFree,"ax",%progbits
 312              		.align	2
 313              		.p2align 4,,15
 314              		.global	chPoolFree
 315              		.thumb
 316              		.thumb_func
 317              		.type	chPoolFree, %function
 318              	chPoolFree:
 319              	.LFB232:
 320              		.loc 1 193 0
 321              		.cfi_startproc
 322              		@ args = 0, pretend = 0, frame = 0
 323              		@ frame_needed = 0, uses_anonymous_args = 0
 324              	.LVL30:
 325 0000 38B5     		push	{r3, r4, r5, lr}
 326              		.cfi_def_cfa_offset 16
 327              		.cfi_offset 3, -16
 328              		.cfi_offset 4, -12
 329              		.cfi_offset 5, -8
 330              		.cfi_offset 14, -4
 331              		.loc 1 193 0
 332 0002 0446     		mov	r4, r0
 333 0004 0D46     		mov	r5, r1
 334              	.LBB61:
 335              	.LBB62:
 336              	.LBB63:
 337              	.LBB64:
 338              	.LBB65:
 339              		.loc 2 546 0
 340 0006 2023     		movs	r3, #32
 341              		.syntax unified
 342              	@ 546 "/home/selim/working/ChibiOS/os/ext/CMSIS/include/core_cmFunc.h" 1
ARM GAS  /tmp/ccxhgADi.s 			page 7


 343 0008 83F31188 		MSR basepri, r3
 344              	@ 0 "" 2
 345              	.LVL31:
 346              		.thumb
 347              		.syntax unified
 348              	.LBE65:
 349              	.LBE64:
 350              	.LBE63:
 351              		.loc 3 349 0
 352 000c FFF7FEFF 		bl	_stats_start_measure_crit_thd
 353              	.LVL32:
 354              		.loc 3 350 0
 355 0010 FFF7FEFF 		bl	_dbg_check_lock
 356              	.LVL33:
 357              	.LBE62:
 358              	.LBE61:
 359              		.loc 1 196 0
 360 0014 2946     		mov	r1, r5
 361 0016 2046     		mov	r0, r4
 362 0018 FFF7FEFF 		bl	chPoolFreeI
 363              	.LVL34:
 364              	.LBB66:
 365              	.LBB67:
 366              		.loc 3 360 0
 367 001c FFF7FEFF 		bl	_dbg_check_unlock
 368              	.LVL35:
 369              		.loc 3 361 0
 370 0020 FFF7FEFF 		bl	_stats_stop_measure_crit_thd
 371              	.LVL36:
 372              		.loc 3 367 0
 373 0024 074B     		ldr	r3, .L39
 374 0026 1A68     		ldr	r2, [r3]
 375 0028 9A42     		cmp	r2, r3
 376 002a 07D0     		beq	.L37
 377 002c 9969     		ldr	r1, [r3, #24]
 378 002e 9368     		ldr	r3, [r2, #8]
 379 0030 8A68     		ldr	r2, [r1, #8]
 380 0032 9A42     		cmp	r2, r3
 381 0034 02D2     		bcs	.L37
 382 0036 0448     		ldr	r0, .L39+4
 383 0038 FFF7FEFF 		bl	chSysHalt
 384              	.LVL37:
 385              	.L37:
 386              	.LBB68:
 387              	.LBB69:
 388              	.LBB70:
 389              		.loc 2 546 0
 390 003c 0023     		movs	r3, #0
 391              		.syntax unified
 392              	@ 546 "/home/selim/working/ChibiOS/os/ext/CMSIS/include/core_cmFunc.h" 1
 393 003e 83F31188 		MSR basepri, r3
 394              	@ 0 "" 2
 395              	.LVL38:
 396              		.thumb
 397              		.syntax unified
 398 0042 38BD     		pop	{r3, r4, r5, pc}
 399              	.LVL39:
ARM GAS  /tmp/ccxhgADi.s 			page 8


 400              	.L40:
 401              		.align	2
 402              	.L39:
 403 0044 00000000 		.word	ch
 404 0048 00000000 		.word	.LANCHOR2
 405              	.LBE70:
 406              	.LBE69:
 407              	.LBE68:
 408              	.LBE67:
 409              	.LBE66:
 410              		.cfi_endproc
 411              	.LFE232:
 412              		.size	chPoolFree, .-chPoolFree
 413              		.section	.text.chPoolLoadArray,"ax",%progbits
 414              		.align	2
 415              		.p2align 4,,15
 416              		.global	chPoolLoadArray
 417              		.thumb
 418              		.thumb_func
 419              		.type	chPoolLoadArray, %function
 420              	chPoolLoadArray:
 421              	.LFB228:
 422              		.loc 1 97 0
 423              		.cfi_startproc
 424              		@ args = 0, pretend = 0, frame = 0
 425              		@ frame_needed = 0, uses_anonymous_args = 0
 426              	.LVL40:
 427 0000 70B5     		push	{r4, r5, r6, lr}
 428              		.cfi_def_cfa_offset 16
 429              		.cfi_offset 4, -16
 430              		.cfi_offset 5, -12
 431              		.cfi_offset 6, -8
 432              		.cfi_offset 14, -4
 433              		.loc 1 97 0
 434 0002 0D46     		mov	r5, r1
 435 0004 1446     		mov	r4, r2
 436              		.loc 1 99 0
 437 0006 0646     		mov	r6, r0
 438 0008 28B1     		cbz	r0, .L42
 439              		.loc 1 99 0 is_stmt 0 discriminator 3
 440 000a 42B9     		cbnz	r2, .L44
 441              		.loc 1 99 0
 442 000c 0948     		ldr	r0, .L49
 443              	.LVL41:
 444              		.loc 1 108 0 is_stmt 1
 445 000e BDE87040 		pop	{r4, r5, r6, lr}
 446              		.cfi_remember_state
 447              		.cfi_restore 14
 448              		.cfi_restore 6
 449              		.cfi_restore 5
 450              		.cfi_restore 4
 451              		.cfi_def_cfa_offset 0
 452              	.LVL42:
 453              		.loc 1 99 0
 454 0012 FFF7FEBF 		b	chSysHalt
 455              	.LVL43:
 456              	.L42:
ARM GAS  /tmp/ccxhgADi.s 			page 9


 457              		.cfi_restore_state
 458              		.loc 1 99 0 is_stmt 0 discriminator 4
 459 0016 0748     		ldr	r0, .L49
 460              	.LVL44:
 461 0018 FFF7FEFF 		bl	chSysHalt
 462              	.LVL45:
 463              		.loc 1 101 0 is_stmt 1 discriminator 4
 464 001c 44B1     		cbz	r4, .L41
 465              	.LVL46:
 466              	.L44:
 467              	.LBB71:
 468              	.LBB72:
 469              		.file 4 "/home/selim/working/ChibiOS/os/rt/include/chmempools.h"
 470              		.loc 4 139 0
 471 001e 2946     		mov	r1, r5
 472 0020 3046     		mov	r0, r6
 473 0022 FFF7FEFF 		bl	chPoolFree
 474              	.LVL47:
 475              	.LBE72:
 476              	.LBE71:
 477              		.loc 1 104 0
 478 0026 7368     		ldr	r3, [r6, #4]
 479              		.loc 1 101 0
 480 0028 013C     		subs	r4, r4, #1
 481              	.LVL48:
 482              		.loc 1 104 0
 483 002a 1D44     		add	r5, r5, r3
 484              	.LVL49:
 485              		.loc 1 101 0
 486 002c F7D1     		bne	.L44
 487 002e 70BD     		pop	{r4, r5, r6, pc}
 488              	.LVL50:
 489              	.L41:
 490 0030 70BD     		pop	{r4, r5, r6, pc}
 491              	.LVL51:
 492              	.L50:
 493 0032 00BF     		.align	2
 494              	.L49:
 495 0034 00000000 		.word	.LANCHOR4
 496              		.cfi_endproc
 497              	.LFE228:
 498              		.size	chPoolLoadArray, .-chPoolLoadArray
 499              		.section	.rodata.__func__.6659,"a",%progbits
 500              		.align	2
 501              		.set	.LANCHOR0,. + 0
 502              		.type	__func__.6659, %object
 503              		.size	__func__.6659, 17
 504              	__func__.6659:
 505 0000 6368506F 		.ascii	"chPoolObjectInit\000"
 505      6F6C4F62 
 505      6A656374 
 505      496E6974 
 505      00
 506              		.section	.rodata.__func__.6665,"a",%progbits
 507              		.align	2
 508              		.set	.LANCHOR4,. + 0
 509              		.type	__func__.6665, %object
ARM GAS  /tmp/ccxhgADi.s 			page 10


 510              		.size	__func__.6665, 16
 511              	__func__.6665:
 512 0000 6368506F 		.ascii	"chPoolLoadArray\000"
 512      6F6C4C6F 
 512      61644172 
 512      72617900 
 513              		.section	.rodata.__func__.6673,"a",%progbits
 514              		.align	2
 515              		.set	.LANCHOR1,. + 0
 516              		.type	__func__.6673, %object
 517              		.size	__func__.6673, 13
 518              	__func__.6673:
 519 0000 6368506F 		.ascii	"chPoolAllocI\000"
 519      6F6C416C 
 519      6C6F6349 
 519      00
 520              		.section	.rodata.__func__.6683,"a",%progbits
 521              		.align	2
 522              		.set	.LANCHOR3,. + 0
 523              		.type	__func__.6683, %object
 524              		.size	__func__.6683, 12
 525              	__func__.6683:
 526 0000 6368506F 		.ascii	"chPoolFreeI\000"
 526      6F6C4672 
 526      65654900 
 527              		.section	.rodata.__func__.5969,"a",%progbits
 528              		.align	2
 529              		.set	.LANCHOR2,. + 0
 530              		.type	__func__.5969, %object
 531              		.size	__func__.5969, 12
 532              	__func__.5969:
 533 0000 63685379 		.ascii	"chSysUnlock\000"
 533      73556E6C 
 533      6F636B00 
 534              		.text
 535              	.Letext0:
 536              		.file 5 "/usr/lib/gcc/arm-none-eabi/5.3.1/include/stddef.h"
 537              		.file 6 "/usr/arm-none-eabi/include/machine/_default_types.h"
 538              		.file 7 "/usr/arm-none-eabi/include/sys/_stdint.h"
 539              		.file 8 "/home/selim/working/ChibiOS/os/rt/ports/ARMCMx/compilers/GCC/chtypes.h"
 540              		.file 9 "/home/selim/working/ChibiOS/os/rt/include/chsystypes.h"
 541              		.file 10 "/home/selim/working/ChibiOS/os/rt/include/chschd.h"
 542              		.file 11 "/home/selim/working/ChibiOS/os/rt/ports/ARMCMx/chcore.h"
 543              		.file 12 "/home/selim/working/ChibiOS/os/rt/ports/ARMCMx/chcore_v7m.h"
 544              		.file 13 "/home/selim/working/ChibiOS/os/rt/include/chdebug.h"
 545              		.file 14 "/home/selim/working/ChibiOS/os/rt/include/chtm.h"
 546              		.file 15 "/home/selim/working/ChibiOS/os/rt/include/chstats.h"
 547              		.file 16 "/home/selim/working/ChibiOS/os/rt/include/chsem.h"
 548              		.file 17 "/home/selim/working/ChibiOS/os/rt/include/chmtx.h"
 549              		.file 18 "/home/selim/working/ChibiOS/os/rt/include/chmemcore.h"
 550              		.file 19 "/home/selim/working/ChibiOS/os/ext/CMSIS/include/core_cm4.h"