ARM GAS  /tmp/ccKyWVgg.s 			page 1


   1              		.syntax unified
   2              		.cpu cortex-m4
   3              		.fpu softvfp
   4              		.eabi_attribute 20, 1
   5              		.eabi_attribute 21, 1
   6              		.eabi_attribute 23, 3
   7              		.eabi_attribute 24, 1
   8              		.eabi_attribute 25, 1
   9              		.eabi_attribute 26, 1
  10              		.eabi_attribute 30, 2
  11              		.eabi_attribute 34, 1
  12              		.eabi_attribute 18, 4
  13              		.thumb
  14              		.syntax unified
  15              		.file	"chmemcore.c"
  16              		.text
  17              	.Ltext0:
  18              		.cfi_sections	.debug_frame
  19              		.section	.text._core_init,"ax",%progbits
  20              		.align	2
  21              		.p2align 4,,15
  22              		.global	_core_init
  23              		.thumb
  24              		.thumb_func
  25              		.type	_core_init, %function
  26              	_core_init:
  27              	.LFB227:
  28              		.file 1 "/home/selim/working/ChibiOS/os/rt/src/chmemcore.c"
  29              		.loc 1 78 0
  30              		.cfi_startproc
  31              		@ args = 0, pretend = 0, frame = 0
  32              		@ frame_needed = 0, uses_anonymous_args = 0
  33              		@ link register save eliminated.
  34              		.loc 1 84 0
  35 0000 054A     		ldr	r2, .L2
  36              		.loc 1 85 0
  37 0002 064B     		ldr	r3, .L2+4
  38              		.loc 1 84 0
  39 0004 0648     		ldr	r0, .L2+8
  40              		.loc 1 85 0
  41 0006 0749     		ldr	r1, .L2+12
  42              		.loc 1 84 0
  43 0008 22F00702 		bic	r2, r2, #7
  44              		.loc 1 85 0
  45 000c 23F00703 		bic	r3, r3, #7
  46              		.loc 1 84 0
  47 0010 0260     		str	r2, [r0]
  48              		.loc 1 85 0
  49 0012 0B60     		str	r3, [r1]
  50 0014 7047     		bx	lr
  51              	.L3:
  52 0016 00BF     		.align	2
  53              	.L2:
  54 0018 07000000 		.word	__heap_base__+7
  55 001c 00000000 		.word	__heap_end__
  56 0020 00000000 		.word	.LANCHOR0
  57 0024 00000000 		.word	.LANCHOR1
ARM GAS  /tmp/ccKyWVgg.s 			page 2


  58              		.cfi_endproc
  59              	.LFE227:
  60              		.size	_core_init, .-_core_init
  61              		.section	.text.chCoreAlloc,"ax",%progbits
  62              		.align	2
  63              		.p2align 4,,15
  64              		.global	chCoreAlloc
  65              		.thumb
  66              		.thumb_func
  67              		.type	chCoreAlloc, %function
  68              	chCoreAlloc:
  69              	.LFB228:
  70              		.loc 1 109 0
  71              		.cfi_startproc
  72              		@ args = 0, pretend = 0, frame = 0
  73              		@ frame_needed = 0, uses_anonymous_args = 0
  74              	.LVL0:
  75 0000 10B5     		push	{r4, lr}
  76              		.cfi_def_cfa_offset 8
  77              		.cfi_offset 4, -8
  78              		.cfi_offset 14, -4
  79              	.LBB33:
  80              	.LBB34:
  81              	.LBB35:
  82              	.LBB36:
  83              	.LBB37:
  84              		.file 2 "/home/selim/working/ChibiOS/os/ext/CMSIS/include/core_cmFunc.h"
  85              		.loc 2 546 0
  86 0002 2023     		movs	r3, #32
  87              	.LBE37:
  88              	.LBE36:
  89              	.LBE35:
  90              	.LBE34:
  91              	.LBE33:
  92              		.loc 1 109 0
  93 0004 0446     		mov	r4, r0
  94              	.LBB42:
  95              	.LBB41:
  96              	.LBB40:
  97              	.LBB39:
  98              	.LBB38:
  99              		.loc 2 546 0
 100              		.syntax unified
 101              	@ 546 "/home/selim/working/ChibiOS/os/ext/CMSIS/include/core_cmFunc.h" 1
 102 0006 83F31188 		MSR basepri, r3
 103              	@ 0 "" 2
 104              	.LVL1:
 105              		.thumb
 106              		.syntax unified
 107              	.LBE38:
 108              	.LBE39:
 109              	.LBE40:
 110              		.file 3 "/home/selim/working/ChibiOS/os/rt/include/chsys.h"
 111              		.loc 3 349 0
 112 000a FFF7FEFF 		bl	_stats_start_measure_crit_thd
 113              	.LVL2:
 114              		.loc 3 350 0
ARM GAS  /tmp/ccKyWVgg.s 			page 3


 115 000e FFF7FEFF 		bl	_dbg_check_lock
 116              	.LVL3:
 117              	.LBE41:
 118              	.LBE42:
 119              	.LBB43:
 120              	.LBB44:
 121              		.loc 1 134 0
 122 0012 FFF7FEFF 		bl	chDbgCheckClassI
 123              	.LVL4:
 124              		.loc 1 138 0
 125 0016 1149     		ldr	r1, .L10
 126 0018 114B     		ldr	r3, .L10+4
 127 001a 0868     		ldr	r0, [r1]
 128 001c 1A68     		ldr	r2, [r3]
 129              		.loc 1 136 0
 130 001e E31D     		adds	r3, r4, #7
 131 0020 23F00703 		bic	r3, r3, #7
 132              	.LVL5:
 133              		.loc 1 138 0
 134 0024 121A     		subs	r2, r2, r0
 135 0026 9342     		cmp	r3, r2
 136              	.LVL6:
 137              		.loc 1 143 0
 138 0028 9DBF     		ittte	ls
 139 002a 1B18     		addls	r3, r3, r0
 140              	.LVL7:
 141 002c 0B60     		strls	r3, [r1]
 142              		.loc 1 145 0
 143 002e 0446     		movls	r4, r0
 144              	.LVL8:
 145              		.loc 1 140 0
 146 0030 0024     		movhi	r4, #0
 147              	.LVL9:
 148              	.LBE44:
 149              	.LBE43:
 150              	.LBB45:
 151              	.LBB46:
 152              		.loc 3 360 0
 153 0032 FFF7FEFF 		bl	_dbg_check_unlock
 154              	.LVL10:
 155              		.loc 3 361 0
 156 0036 FFF7FEFF 		bl	_stats_stop_measure_crit_thd
 157              	.LVL11:
 158              		.loc 3 367 0
 159 003a 0A4B     		ldr	r3, .L10+8
 160 003c 1A68     		ldr	r2, [r3]
 161 003e 9A42     		cmp	r2, r3
 162 0040 07D0     		beq	.L6
 163 0042 9969     		ldr	r1, [r3, #24]
 164 0044 9368     		ldr	r3, [r2, #8]
 165 0046 8A68     		ldr	r2, [r1, #8]
 166 0048 9A42     		cmp	r2, r3
 167 004a 02D2     		bcs	.L6
 168 004c 0648     		ldr	r0, .L10+12
 169 004e FFF7FEFF 		bl	chSysHalt
 170              	.LVL12:
 171              	.L6:
ARM GAS  /tmp/ccKyWVgg.s 			page 4


 172              	.LBB47:
 173              	.LBB48:
 174              	.LBB49:
 175              		.loc 2 546 0
 176 0052 0023     		movs	r3, #0
 177              		.syntax unified
 178              	@ 546 "/home/selim/working/ChibiOS/os/ext/CMSIS/include/core_cmFunc.h" 1
 179 0054 83F31188 		MSR basepri, r3
 180              	@ 0 "" 2
 181              	.LVL13:
 182              		.thumb
 183              		.syntax unified
 184              	.LBE49:
 185              	.LBE48:
 186              	.LBE47:
 187              	.LBE46:
 188              	.LBE45:
 189              		.loc 1 117 0
 190 0058 2046     		mov	r0, r4
 191 005a 10BD     		pop	{r4, pc}
 192              	.L11:
 193              		.align	2
 194              	.L10:
 195 005c 00000000 		.word	.LANCHOR0
 196 0060 00000000 		.word	.LANCHOR1
 197 0064 00000000 		.word	ch
 198 0068 00000000 		.word	.LANCHOR2
 199              		.cfi_endproc
 200              	.LFE228:
 201              		.size	chCoreAlloc, .-chCoreAlloc
 202              		.section	.text.chCoreAllocI,"ax",%progbits
 203              		.align	2
 204              		.p2align 4,,15
 205              		.global	chCoreAllocI
 206              		.thumb
 207              		.thumb_func
 208              		.type	chCoreAllocI, %function
 209              	chCoreAllocI:
 210              	.LFB229:
 211              		.loc 1 131 0
 212              		.cfi_startproc
 213              		@ args = 0, pretend = 0, frame = 0
 214              		@ frame_needed = 0, uses_anonymous_args = 0
 215              	.LVL14:
 216 0000 10B5     		push	{r4, lr}
 217              		.cfi_def_cfa_offset 8
 218              		.cfi_offset 4, -8
 219              		.cfi_offset 14, -4
 220              		.loc 1 131 0
 221 0002 0446     		mov	r4, r0
 222              		.loc 1 134 0
 223 0004 FFF7FEFF 		bl	chDbgCheckClassI
 224              	.LVL15:
 225              		.loc 1 138 0
 226 0008 0649     		ldr	r1, .L16
 227 000a 074B     		ldr	r3, .L16+4
 228 000c 0868     		ldr	r0, [r1]
ARM GAS  /tmp/ccKyWVgg.s 			page 5


 229 000e 1A68     		ldr	r2, [r3]
 230              		.loc 1 136 0
 231 0010 E31D     		adds	r3, r4, #7
 232 0012 23F00703 		bic	r3, r3, #7
 233              	.LVL16:
 234              		.loc 1 138 0
 235 0016 121A     		subs	r2, r2, r0
 236 0018 9342     		cmp	r3, r2
 237              	.LVL17:
 238              		.loc 1 143 0
 239 001a 9ABF     		itte	ls
 240 001c 1B18     		addls	r3, r3, r0
 241              	.LVL18:
 242 001e 0B60     		strls	r3, [r1]
 243              		.loc 1 140 0
 244 0020 0020     		movhi	r0, #0
 245              	.LVL19:
 246              		.loc 1 146 0
 247 0022 10BD     		pop	{r4, pc}
 248              	.LVL20:
 249              	.L17:
 250              		.align	2
 251              	.L16:
 252 0024 00000000 		.word	.LANCHOR0
 253 0028 00000000 		.word	.LANCHOR1
 254              		.cfi_endproc
 255              	.LFE229:
 256              		.size	chCoreAllocI, .-chCoreAllocI
 257              		.section	.text.chCoreGetStatusX,"ax",%progbits
 258              		.align	2
 259              		.p2align 4,,15
 260              		.global	chCoreGetStatusX
 261              		.thumb
 262              		.thumb_func
 263              		.type	chCoreGetStatusX, %function
 264              	chCoreGetStatusX:
 265              	.LFB230:
 266              		.loc 1 155 0
 267              		.cfi_startproc
 268              		@ args = 0, pretend = 0, frame = 0
 269              		@ frame_needed = 0, uses_anonymous_args = 0
 270              		@ link register save eliminated.
 271              		.loc 1 158 0
 272 0000 024A     		ldr	r2, .L19
 273 0002 034B     		ldr	r3, .L19+4
 274 0004 1068     		ldr	r0, [r2]
 275 0006 1B68     		ldr	r3, [r3]
 276              		.loc 1 160 0
 277 0008 C01A     		subs	r0, r0, r3
 278 000a 7047     		bx	lr
 279              	.L20:
 280              		.align	2
 281              	.L19:
 282 000c 00000000 		.word	.LANCHOR1
 283 0010 00000000 		.word	.LANCHOR0
 284              		.cfi_endproc
 285              	.LFE230:
ARM GAS  /tmp/ccKyWVgg.s 			page 6


 286              		.size	chCoreGetStatusX, .-chCoreGetStatusX
 287              		.section	.bss.endmem,"aw",%nobits
 288              		.align	2
 289              		.set	.LANCHOR1,. + 0
 290              		.type	endmem, %object
 291              		.size	endmem, 4
 292              	endmem:
 293 0000 00000000 		.space	4
 294              		.section	.bss.nextmem,"aw",%nobits
 295              		.align	2
 296              		.set	.LANCHOR0,. + 0
 297              		.type	nextmem, %object
 298              		.size	nextmem, 4
 299              	nextmem:
 300 0000 00000000 		.space	4
 301              		.section	.rodata.__func__.5969,"a",%progbits
 302              		.align	2
 303              		.set	.LANCHOR2,. + 0
 304              		.type	__func__.5969, %object
 305              		.size	__func__.5969, 12
 306              	__func__.5969:
 307 0000 63685379 		.ascii	"chSysUnlock\000"
 307      73556E6C 
 307      6F636B00 
 308              		.text
 309              	.Letext0:
 310              		.file 4 "/usr/lib/gcc/arm-none-eabi/5.3.1/include/stddef.h"
 311              		.file 5 "/usr/arm-none-eabi/include/machine/_default_types.h"
 312              		.file 6 "/usr/arm-none-eabi/include/sys/_stdint.h"
 313              		.file 7 "/home/selim/working/ChibiOS/os/rt/ports/ARMCMx/compilers/GCC/chtypes.h"
 314              		.file 8 "/home/selim/working/ChibiOS/os/rt/include/chsystypes.h"
 315              		.file 9 "/home/selim/working/ChibiOS/os/rt/include/chschd.h"
 316              		.file 10 "/home/selim/working/ChibiOS/os/rt/ports/ARMCMx/chcore.h"
 317              		.file 11 "/home/selim/working/ChibiOS/os/rt/ports/ARMCMx/chcore_v7m.h"
 318              		.file 12 "/home/selim/working/ChibiOS/os/rt/include/chdebug.h"
 319              		.file 13 "/home/selim/working/ChibiOS/os/rt/include/chtm.h"
 320              		.file 14 "/home/selim/working/ChibiOS/os/rt/include/chstats.h"
 321              		.file 15 "/home/selim/working/ChibiOS/os/rt/include/chsem.h"
 322              		.file 16 "/home/selim/working/ChibiOS/os/rt/include/chmtx.h"
 323              		.file 17 "/home/selim/working/ChibiOS/os/ext/CMSIS/include/core_cm4.h"