ARM GAS  /tmp/ccK3jbnN.s 			page 1


   1              		.syntax unified
   2              		.cpu cortex-m4
   3              		.fpu softvfp
   4              		.eabi_attribute 20, 1
   5              		.eabi_attribute 21, 1
   6              		.eabi_attribute 23, 3
   7              		.eabi_attribute 24, 1
   8              		.eabi_attribute 25, 1
   9              		.eabi_attribute 26, 1
  10              		.eabi_attribute 30, 2
  11              		.eabi_attribute 34, 1
  12              		.eabi_attribute 18, 4
  13              		.thumb
  14              		.syntax unified
  15              		.file	"chmsg.c"
  16              		.text
  17              	.Ltext0:
  18              		.cfi_sections	.debug_frame
  19              		.section	.text.chMsgSend,"ax",%progbits
  20              		.align	2
  21              		.p2align 4,,15
  22              		.global	chMsgSend
  23              		.thumb
  24              		.thumb_func
  25              		.type	chMsgSend, %function
  26              	chMsgSend:
  27              	.LFB227:
  28              		.file 1 "/home/selim/working/ChibiOS/os/rt/src/chmsg.c"
  29              		.loc 1 87 0
  30              		.cfi_startproc
  31              		@ args = 0, pretend = 0, frame = 0
  32              		@ frame_needed = 0, uses_anonymous_args = 0
  33              	.LVL0:
  34 0000 F8B5     		push	{r3, r4, r5, r6, r7, lr}
  35              		.cfi_def_cfa_offset 24
  36              		.cfi_offset 3, -24
  37              		.cfi_offset 4, -20
  38              		.cfi_offset 5, -16
  39              		.cfi_offset 6, -12
  40              		.cfi_offset 7, -8
  41              		.cfi_offset 14, -4
  42              		.loc 1 88 0
  43 0002 1D4E     		ldr	r6, .L9
  44              		.loc 1 87 0
  45 0004 0F46     		mov	r7, r1
  46              		.loc 1 88 0
  47 0006 B469     		ldr	r4, [r6, #24]
  48              	.LVL1:
  49              		.loc 1 90 0
  50 0008 0546     		mov	r5, r0
  51 000a 80B3     		cbz	r0, .L7
  52              	.LVL2:
  53              	.L2:
  54              	.LBB49:
  55              	.LBB50:
  56              	.LBB51:
  57              	.LBB52:
ARM GAS  /tmp/ccK3jbnN.s 			page 2


  58              	.LBB53:
  59              		.file 2 "/home/selim/working/ChibiOS/os/ext/CMSIS/include/core_cmFunc.h"
  60              		.loc 2 546 0
  61 000c 2023     		movs	r3, #32
  62              		.syntax unified
  63              	@ 546 "/home/selim/working/ChibiOS/os/ext/CMSIS/include/core_cmFunc.h" 1
  64 000e 83F31188 		MSR basepri, r3
  65              	@ 0 "" 2
  66              	.LVL3:
  67              		.thumb
  68              		.syntax unified
  69              	.LBE53:
  70              	.LBE52:
  71              	.LBE51:
  72              		.file 3 "/home/selim/working/ChibiOS/os/rt/include/chsys.h"
  73              		.loc 3 349 0
  74 0012 FFF7FEFF 		bl	_stats_start_measure_crit_thd
  75              	.LVL4:
  76              		.loc 3 350 0
  77 0016 FFF7FEFF 		bl	_dbg_check_lock
  78              	.LVL5:
  79              	.LBE50:
  80              	.LBE49:
  81              		.loc 1 94 0
  82 001a 05F12C02 		add	r2, r5, #44
  83 001e 6262     		str	r2, [r4, #36]
  84              	.LVL6:
  85              	.LBB54:
  86              	.LBB55:
  87              		.file 4 "/home/selim/working/ChibiOS/os/rt/include/chschd.h"
  88              		.loc 4 666 0
  89 0020 2B6B     		ldr	r3, [r5, #48]
  90              	.LBE55:
  91              	.LBE54:
  92              		.loc 1 93 0
  93 0022 6763     		str	r7, [r4, #52]
  94              	.LBB58:
  95              	.LBB56:
  96              		.loc 4 666 0
  97 0024 84E80C00 		stmia	r4, {r2, r3}
  98              		.loc 4 667 0
  99 0028 1C60     		str	r4, [r3]
 100              	.LBE56:
 101              	.LBE58:
 102              		.loc 1 96 0
 103 002a 95F82030 		ldrb	r3, [r5, #32]	@ zero_extendqisi2
 104              	.LBB59:
 105              	.LBB57:
 106              		.loc 4 668 0
 107 002e 2C63     		str	r4, [r5, #48]
 108              	.LVL7:
 109              	.LBE57:
 110              	.LBE59:
 111              		.loc 1 96 0
 112 0030 0E2B     		cmp	r3, #14
 113 0032 18D0     		beq	.L8
 114              	.L3:
ARM GAS  /tmp/ccK3jbnN.s 			page 3


 115              		.loc 1 99 0
 116 0034 0C20     		movs	r0, #12
 117 0036 FFF7FEFF 		bl	chSchGoSleepS
 118              	.LVL8:
 119              		.loc 1 100 0
 120 003a 646A     		ldr	r4, [r4, #36]
 121              	.LVL9:
 122              	.LBB60:
 123              	.LBB61:
 124              		.loc 3 360 0
 125 003c FFF7FEFF 		bl	_dbg_check_unlock
 126              	.LVL10:
 127              		.loc 3 361 0
 128 0040 FFF7FEFF 		bl	_stats_stop_measure_crit_thd
 129              	.LVL11:
 130              		.loc 3 367 0
 131 0044 3368     		ldr	r3, [r6]
 132 0046 0C4A     		ldr	r2, .L9
 133 0048 B342     		cmp	r3, r6
 134 004a 07D0     		beq	.L4
 135 004c 9269     		ldr	r2, [r2, #24]
 136 004e 9B68     		ldr	r3, [r3, #8]
 137 0050 9268     		ldr	r2, [r2, #8]
 138 0052 9A42     		cmp	r2, r3
 139 0054 02D2     		bcs	.L4
 140 0056 0948     		ldr	r0, .L9+4
 141 0058 FFF7FEFF 		bl	chSysHalt
 142              	.LVL12:
 143              	.L4:
 144              	.LBB62:
 145              	.LBB63:
 146              	.LBB64:
 147              		.loc 2 546 0
 148 005c 0023     		movs	r3, #0
 149              		.syntax unified
 150              	@ 546 "/home/selim/working/ChibiOS/os/ext/CMSIS/include/core_cmFunc.h" 1
 151 005e 83F31188 		MSR basepri, r3
 152              	@ 0 "" 2
 153              	.LVL13:
 154              		.thumb
 155              		.syntax unified
 156              	.LBE64:
 157              	.LBE63:
 158              	.LBE62:
 159              	.LBE61:
 160              	.LBE60:
 161              		.loc 1 104 0
 162 0062 2046     		mov	r0, r4
 163 0064 F8BD     		pop	{r3, r4, r5, r6, r7, pc}
 164              	.LVL14:
 165              	.L8:
 166              		.loc 1 97 0
 167 0066 2846     		mov	r0, r5
 168 0068 FFF7FEFF 		bl	chSchReadyI
 169              	.LVL15:
 170 006c E2E7     		b	.L3
 171              	.LVL16:
ARM GAS  /tmp/ccK3jbnN.s 			page 4


 172              	.L7:
 173              		.loc 1 90 0 discriminator 2
 174 006e 0448     		ldr	r0, .L9+8
 175              	.LVL17:
 176 0070 FFF7FEFF 		bl	chSysHalt
 177              	.LVL18:
 178 0074 CAE7     		b	.L2
 179              	.L10:
 180 0076 00BF     		.align	2
 181              	.L9:
 182 0078 00000000 		.word	ch
 183 007c 00000000 		.word	.LANCHOR1
 184 0080 00000000 		.word	.LANCHOR0
 185              		.cfi_endproc
 186              	.LFE227:
 187              		.size	chMsgSend, .-chMsgSend
 188              		.section	.text.chMsgWait,"ax",%progbits
 189              		.align	2
 190              		.p2align 4,,15
 191              		.global	chMsgWait
 192              		.thumb
 193              		.thumb_func
 194              		.type	chMsgWait, %function
 195              	chMsgWait:
 196              	.LFB228:
 197              		.loc 1 120 0
 198              		.cfi_startproc
 199              		@ args = 0, pretend = 0, frame = 0
 200              		@ frame_needed = 0, uses_anonymous_args = 0
 201              	.LVL19:
 202 0000 70B5     		push	{r4, r5, r6, lr}
 203              		.cfi_def_cfa_offset 16
 204              		.cfi_offset 4, -16
 205              		.cfi_offset 5, -12
 206              		.cfi_offset 6, -8
 207              		.cfi_offset 14, -4
 208              	.LBB79:
 209              	.LBB80:
 210              	.LBB81:
 211              	.LBB82:
 212              	.LBB83:
 213              		.loc 2 546 0
 214 0002 2023     		movs	r3, #32
 215              		.syntax unified
 216              	@ 546 "/home/selim/working/ChibiOS/os/ext/CMSIS/include/core_cmFunc.h" 1
 217 0004 83F31188 		MSR basepri, r3
 218              	@ 0 "" 2
 219              	.LVL20:
 220              		.thumb
 221              		.syntax unified
 222              	.LBE83:
 223              	.LBE82:
 224              	.LBE81:
 225              	.LBE80:
 226              	.LBE79:
 227              		.loc 1 124 0
 228 0008 164C     		ldr	r4, .L16
ARM GAS  /tmp/ccK3jbnN.s 			page 5


 229              	.LBB85:
 230              	.LBB84:
 231              		.loc 3 349 0
 232 000a FFF7FEFF 		bl	_stats_start_measure_crit_thd
 233              	.LVL21:
 234              		.loc 3 350 0
 235 000e FFF7FEFF 		bl	_dbg_check_lock
 236              	.LVL22:
 237              	.LBE84:
 238              	.LBE85:
 239              		.loc 1 124 0
 240 0012 A569     		ldr	r5, [r4, #24]
 241              	.LVL23:
 242              	.LBB86:
 243              	.LBB87:
 244              		.file 5 "/home/selim/working/ChibiOS/os/rt/include/chmsg.h"
 245              		.loc 5 81 0
 246 0014 FFF7FEFF 		bl	chDbgCheckClassI
 247              	.LVL24:
 248              	.LBE87:
 249              	.LBE86:
 250              		.loc 1 124 0
 251 0018 EB6A     		ldr	r3, [r5, #44]
 252              	.LBB89:
 253              	.LBB88:
 254              		.loc 5 83 0
 255 001a 2C35     		adds	r5, r5, #44
 256              	.LBE88:
 257              	.LBE89:
 258              		.loc 1 124 0
 259 001c AB42     		cmp	r3, r5
 260 001e 1DD0     		beq	.L15
 261              	.L12:
 262              		.loc 1 127 0
 263 0020 A369     		ldr	r3, [r4, #24]
 264              	.LVL25:
 265 0022 104E     		ldr	r6, .L16
 266              	.LBB90:
 267              	.LBB91:
 268              		.loc 4 672 0
 269 0024 DD6A     		ldr	r5, [r3, #44]
 270              	.LVL26:
 271              		.loc 4 674 0
 272 0026 2A68     		ldr	r2, [r5]
 273 0028 43F82C2F 		str	r2, [r3, #44]!
 274              	.LVL27:
 275              	.LBE91:
 276              	.LBE90:
 277              		.loc 1 128 0
 278 002c 0D21     		movs	r1, #13
 279              	.LBB93:
 280              	.LBB92:
 281              		.loc 4 675 0
 282 002e 5360     		str	r3, [r2, #4]
 283              	.LVL28:
 284              	.LBE92:
 285              	.LBE93:
ARM GAS  /tmp/ccK3jbnN.s 			page 6


 286              		.loc 1 128 0
 287 0030 85F82010 		strb	r1, [r5, #32]
 288              	.LBB94:
 289              	.LBB95:
 290              		.loc 3 360 0
 291 0034 FFF7FEFF 		bl	_dbg_check_unlock
 292              	.LVL29:
 293              		.loc 3 361 0
 294 0038 FFF7FEFF 		bl	_stats_stop_measure_crit_thd
 295              	.LVL30:
 296              		.loc 3 367 0
 297 003c 2368     		ldr	r3, [r4]
 298 003e A342     		cmp	r3, r4
 299 0040 07D0     		beq	.L13
 300 0042 B269     		ldr	r2, [r6, #24]
 301 0044 9B68     		ldr	r3, [r3, #8]
 302 0046 9268     		ldr	r2, [r2, #8]
 303 0048 9A42     		cmp	r2, r3
 304 004a 02D2     		bcs	.L13
 305 004c 0648     		ldr	r0, .L16+4
 306 004e FFF7FEFF 		bl	chSysHalt
 307              	.LVL31:
 308              	.L13:
 309              	.LBB96:
 310              	.LBB97:
 311              	.LBB98:
 312              		.loc 2 546 0
 313 0052 0023     		movs	r3, #0
 314              		.syntax unified
 315              	@ 546 "/home/selim/working/ChibiOS/os/ext/CMSIS/include/core_cmFunc.h" 1
 316 0054 83F31188 		MSR basepri, r3
 317              	@ 0 "" 2
 318              	.LVL32:
 319              		.thumb
 320              		.syntax unified
 321              	.LBE98:
 322              	.LBE97:
 323              	.LBE96:
 324              	.LBE95:
 325              	.LBE94:
 326              		.loc 1 132 0
 327 0058 2846     		mov	r0, r5
 328 005a 70BD     		pop	{r4, r5, r6, pc}
 329              	.L15:
 330              		.loc 1 125 0
 331 005c 0E20     		movs	r0, #14
 332 005e FFF7FEFF 		bl	chSchGoSleepS
 333              	.LVL33:
 334 0062 DDE7     		b	.L12
 335              	.L17:
 336              		.align	2
 337              	.L16:
 338 0064 00000000 		.word	ch
 339 0068 00000000 		.word	.LANCHOR1
 340              		.cfi_endproc
 341              	.LFE228:
 342              		.size	chMsgWait, .-chMsgWait
ARM GAS  /tmp/ccK3jbnN.s 			page 7


 343              		.section	.text.chMsgRelease,"ax",%progbits
 344              		.align	2
 345              		.p2align 4,,15
 346              		.global	chMsgRelease
 347              		.thumb
 348              		.thumb_func
 349              		.type	chMsgRelease, %function
 350              	chMsgRelease:
 351              	.LFB229:
 352              		.loc 1 144 0
 353              		.cfi_startproc
 354              		@ args = 0, pretend = 0, frame = 0
 355              		@ frame_needed = 0, uses_anonymous_args = 0
 356              	.LVL34:
 357 0000 38B5     		push	{r3, r4, r5, lr}
 358              		.cfi_def_cfa_offset 16
 359              		.cfi_offset 3, -16
 360              		.cfi_offset 4, -12
 361              		.cfi_offset 5, -8
 362              		.cfi_offset 14, -4
 363              		.loc 1 144 0
 364 0002 0446     		mov	r4, r0
 365 0004 0D46     		mov	r5, r1
 366              	.LBB111:
 367              	.LBB112:
 368              	.LBB113:
 369              	.LBB114:
 370              	.LBB115:
 371              		.loc 2 546 0
 372 0006 2023     		movs	r3, #32
 373              		.syntax unified
 374              	@ 546 "/home/selim/working/ChibiOS/os/ext/CMSIS/include/core_cmFunc.h" 1
 375 0008 83F31188 		MSR basepri, r3
 376              	@ 0 "" 2
 377              	.LVL35:
 378              		.thumb
 379              		.syntax unified
 380              	.LBE115:
 381              	.LBE114:
 382              	.LBE113:
 383              		.loc 3 349 0
 384 000c FFF7FEFF 		bl	_stats_start_measure_crit_thd
 385              	.LVL36:
 386              		.loc 3 350 0
 387 0010 FFF7FEFF 		bl	_dbg_check_lock
 388              	.LVL37:
 389              	.LBE112:
 390              	.LBE111:
 391              		.loc 1 147 0
 392 0014 94F82030 		ldrb	r3, [r4, #32]	@ zero_extendqisi2
 393 0018 0D2B     		cmp	r3, #13
 394 001a 02D0     		beq	.L19
 395              		.loc 1 147 0 is_stmt 0 discriminator 2
 396 001c 0E48     		ldr	r0, .L25
 397 001e FFF7FEFF 		bl	chSysHalt
 398              	.LVL38:
 399              	.L19:
ARM GAS  /tmp/ccK3jbnN.s 			page 8


 400              	.LBB116:
 401              	.LBB117:
 402              		.loc 5 113 0 is_stmt 1
 403 0022 FFF7FEFF 		bl	chDbgCheckClassS
 404              	.LVL39:
 405              		.loc 5 115 0
 406 0026 2946     		mov	r1, r5
 407 0028 2046     		mov	r0, r4
 408 002a FFF7FEFF 		bl	chSchWakeupS
 409              	.LVL40:
 410              	.LBE117:
 411              	.LBE116:
 412              	.LBB118:
 413              	.LBB119:
 414              		.loc 3 360 0
 415 002e FFF7FEFF 		bl	_dbg_check_unlock
 416              	.LVL41:
 417              		.loc 3 361 0
 418 0032 FFF7FEFF 		bl	_stats_stop_measure_crit_thd
 419              	.LVL42:
 420              		.loc 3 367 0
 421 0036 094B     		ldr	r3, .L25+4
 422 0038 1A68     		ldr	r2, [r3]
 423 003a 9A42     		cmp	r2, r3
 424 003c 07D0     		beq	.L20
 425 003e 9969     		ldr	r1, [r3, #24]
 426 0040 9368     		ldr	r3, [r2, #8]
 427 0042 8A68     		ldr	r2, [r1, #8]
 428 0044 9A42     		cmp	r2, r3
 429 0046 02D2     		bcs	.L20
 430 0048 0548     		ldr	r0, .L25+8
 431 004a FFF7FEFF 		bl	chSysHalt
 432              	.LVL43:
 433              	.L20:
 434              	.LBB120:
 435              	.LBB121:
 436              	.LBB122:
 437              		.loc 2 546 0
 438 004e 0023     		movs	r3, #0
 439              		.syntax unified
 440              	@ 546 "/home/selim/working/ChibiOS/os/ext/CMSIS/include/core_cmFunc.h" 1
 441 0050 83F31188 		MSR basepri, r3
 442              	@ 0 "" 2
 443              	.LVL44:
 444              		.thumb
 445              		.syntax unified
 446 0054 38BD     		pop	{r3, r4, r5, pc}
 447              	.LVL45:
 448              	.L26:
 449 0056 00BF     		.align	2
 450              	.L25:
 451 0058 00000000 		.word	.LANCHOR2
 452 005c 00000000 		.word	ch
 453 0060 00000000 		.word	.LANCHOR1
 454              	.LBE122:
 455              	.LBE121:
 456              	.LBE120:
ARM GAS  /tmp/ccK3jbnN.s 			page 9


 457              	.LBE119:
 458              	.LBE118:
 459              		.cfi_endproc
 460              	.LFE229:
 461              		.size	chMsgRelease, .-chMsgRelease
 462              		.section	.rodata.__func__.6659,"a",%progbits
 463              		.align	2
 464              		.set	.LANCHOR0,. + 0
 465              		.type	__func__.6659, %object
 466              		.size	__func__.6659, 10
 467              	__func__.6659:
 468 0000 63684D73 		.ascii	"chMsgSend\000"
 468      6753656E 
 468      6400
 469              		.section	.rodata.__func__.6668,"a",%progbits
 470              		.align	2
 471              		.set	.LANCHOR2,. + 0
 472              		.type	__func__.6668, %object
 473              		.size	__func__.6668, 13
 474              	__func__.6668:
 475 0000 63684D73 		.ascii	"chMsgRelease\000"
 475      6752656C 
 475      65617365 
 475      00
 476              		.section	.rodata.__func__.5969,"a",%progbits
 477              		.align	2
 478              		.set	.LANCHOR1,. + 0
 479              		.type	__func__.5969, %object
 480              		.size	__func__.5969, 12
 481              	__func__.5969:
 482 0000 63685379 		.ascii	"chSysUnlock\000"
 482      73556E6C 
 482      6F636B00 
 483              		.text
 484              	.Letext0:
 485              		.file 6 "/usr/arm-none-eabi/include/machine/_default_types.h"
 486              		.file 7 "/usr/arm-none-eabi/include/sys/_stdint.h"
 487              		.file 8 "/home/selim/working/ChibiOS/os/rt/ports/ARMCMx/compilers/GCC/chtypes.h"
 488              		.file 9 "/home/selim/working/ChibiOS/os/rt/include/chsystypes.h"
 489              		.file 10 "/home/selim/working/ChibiOS/os/rt/ports/ARMCMx/chcore.h"
 490              		.file 11 "/home/selim/working/ChibiOS/os/rt/ports/ARMCMx/chcore_v7m.h"
 491              		.file 12 "/home/selim/working/ChibiOS/os/rt/include/chdebug.h"
 492              		.file 13 "/home/selim/working/ChibiOS/os/rt/include/chtm.h"
 493              		.file 14 "/home/selim/working/ChibiOS/os/rt/include/chstats.h"
 494              		.file 15 "/home/selim/working/ChibiOS/os/rt/include/chsem.h"
 495              		.file 16 "/home/selim/working/ChibiOS/os/rt/include/chmtx.h"
 496              		.file 17 "/home/selim/working/ChibiOS/os/ext/CMSIS/include/core_cm4.h"