ARM GAS  /tmp/ccDqJhgM.s 			page 1


   1              		.syntax unified
   2              		.cpu cortex-m4
   3              		.fpu softvfp
   4              		.eabi_attribute 20, 1
   5              		.eabi_attribute 21, 1
   6              		.eabi_attribute 23, 3
   7              		.eabi_attribute 24, 1
   8              		.eabi_attribute 25, 1
   9              		.eabi_attribute 26, 1
  10              		.eabi_attribute 30, 2
  11              		.eabi_attribute 34, 1
  12              		.eabi_attribute 18, 4
  13              		.thumb
  14              		.syntax unified
  15              		.file	"chstats.c"
  16              		.text
  17              	.Ltext0:
  18              		.cfi_sections	.debug_frame
  19              		.section	.text._stats_init,"ax",%progbits
  20              		.align	2
  21              		.p2align 4,,15
  22              		.global	_stats_init
  23              		.thumb
  24              		.thumb_func
  25              		.type	_stats_init, %function
  26              	_stats_init:
  27              	.LFB227:
  28              		.file 1 "/home/selim/working/ChibiOS/os/rt/src/chstats.c"
  29              		.loc 1 62 0
  30              		.cfi_startproc
  31              		@ args = 0, pretend = 0, frame = 0
  32              		@ frame_needed = 0, uses_anonymous_args = 0
  33 0000 10B5     		push	{r4, lr}
  34              		.cfi_def_cfa_offset 8
  35              		.cfi_offset 4, -8
  36              		.cfi_offset 14, -4
  37              		.loc 1 64 0
  38 0002 084C     		ldr	r4, .L3
  39 0004 0023     		movs	r3, #0
  40              		.loc 1 66 0
  41 0006 04F59660 		add	r0, r4, #1200
  42              		.loc 1 64 0
  43 000a C4F8A834 		str	r3, [r4, #1192]
  44              		.loc 1 65 0
  45 000e C4F8AC34 		str	r3, [r4, #1196]
  46              		.loc 1 66 0
  47 0012 FFF7FEFF 		bl	chTMObjectInit
  48              	.LVL0:
  49              		.loc 1 67 0
  50 0016 04F59960 		add	r0, r4, #1224
  51              		.loc 1 68 0
  52 001a BDE81040 		pop	{r4, lr}
  53              		.cfi_restore 14
  54              		.cfi_restore 4
  55              		.cfi_def_cfa_offset 0
  56              		.loc 1 67 0
  57 001e FFF7FEBF 		b	chTMObjectInit
ARM GAS  /tmp/ccDqJhgM.s 			page 2


  58              	.LVL1:
  59              	.L4:
  60 0022 00BF     		.align	2
  61              	.L3:
  62 0024 00000000 		.word	ch
  63              		.cfi_endproc
  64              	.LFE227:
  65              		.size	_stats_init, .-_stats_init
  66              		.section	.text._stats_increase_irq,"ax",%progbits
  67              		.align	2
  68              		.p2align 4,,15
  69              		.global	_stats_increase_irq
  70              		.thumb
  71              		.thumb_func
  72              		.type	_stats_increase_irq, %function
  73              	_stats_increase_irq:
  74              	.LFB228:
  75              		.loc 1 73 0
  76              		.cfi_startproc
  77              		@ args = 0, pretend = 0, frame = 0
  78              		@ frame_needed = 0, uses_anonymous_args = 0
  79              		@ link register save eliminated.
  80              		.loc 1 75 0
  81 0000 034A     		ldr	r2, .L6
  82 0002 D2F8A834 		ldr	r3, [r2, #1192]
  83 0006 0133     		adds	r3, r3, #1
  84 0008 C2F8A834 		str	r3, [r2, #1192]
  85 000c 7047     		bx	lr
  86              	.L7:
  87 000e 00BF     		.align	2
  88              	.L6:
  89 0010 00000000 		.word	ch
  90              		.cfi_endproc
  91              	.LFE228:
  92              		.size	_stats_increase_irq, .-_stats_increase_irq
  93              		.section	.text._stats_ctxswc,"ax",%progbits
  94              		.align	2
  95              		.p2align 4,,15
  96              		.global	_stats_ctxswc
  97              		.thumb
  98              		.thumb_func
  99              		.type	_stats_ctxswc, %function
 100              	_stats_ctxswc:
 101              	.LFB229:
 102              		.loc 1 84 0
 103              		.cfi_startproc
 104              		@ args = 0, pretend = 0, frame = 0
 105              		@ frame_needed = 0, uses_anonymous_args = 0
 106              		@ link register save eliminated.
 107              	.LVL2:
 108              		.loc 1 86 0
 109 0000 074A     		ldr	r2, .L10
 110 0002 D2F8AC34 		ldr	r3, [r2, #1196]
 111              		.loc 1 84 0
 112 0006 10B4     		push	{r4}
 113              		.cfi_def_cfa_offset 4
 114              		.cfi_offset 4, -4
ARM GAS  /tmp/ccDqJhgM.s 			page 3


 115              		.loc 1 87 0
 116 0008 01F14804 		add	r4, r1, #72
 117              		.loc 1 86 0
 118 000c 0133     		adds	r3, r3, #1
 119              		.loc 1 87 0
 120 000e 00F14801 		add	r1, r0, #72
 121              	.LVL3:
 122 0012 2046     		mov	r0, r4
 123              	.LVL4:
 124              		.loc 1 88 0
 125 0014 10BC     		pop	{r4}
 126              		.cfi_restore 4
 127              		.cfi_def_cfa_offset 0
 128              	.LVL5:
 129              		.loc 1 86 0
 130 0016 C2F8AC34 		str	r3, [r2, #1196]
 131              		.loc 1 87 0
 132 001a FFF7FEBF 		b	chTMChainMeasurementToX
 133              	.LVL6:
 134              	.L11:
 135 001e 00BF     		.align	2
 136              	.L10:
 137 0020 00000000 		.word	ch
 138              		.cfi_endproc
 139              	.LFE229:
 140              		.size	_stats_ctxswc, .-_stats_ctxswc
 141              		.section	.text._stats_start_measure_crit_thd,"ax",%progbits
 142              		.align	2
 143              		.p2align 4,,15
 144              		.global	_stats_start_measure_crit_thd
 145              		.thumb
 146              		.thumb_func
 147              		.type	_stats_start_measure_crit_thd, %function
 148              	_stats_start_measure_crit_thd:
 149              	.LFB230:
 150              		.loc 1 93 0
 151              		.cfi_startproc
 152              		@ args = 0, pretend = 0, frame = 0
 153              		@ frame_needed = 0, uses_anonymous_args = 0
 154              		@ link register save eliminated.
 155              		.loc 1 95 0
 156 0000 0148     		ldr	r0, .L13
 157 0002 FFF7FEBF 		b	chTMStartMeasurementX
 158              	.LVL7:
 159              	.L14:
 160 0006 00BF     		.align	2
 161              	.L13:
 162 0008 B0040000 		.word	ch+1200
 163              		.cfi_endproc
 164              	.LFE230:
 165              		.size	_stats_start_measure_crit_thd, .-_stats_start_measure_crit_thd
 166              		.section	.text._stats_stop_measure_crit_thd,"ax",%progbits
 167              		.align	2
 168              		.p2align 4,,15
 169              		.global	_stats_stop_measure_crit_thd
 170              		.thumb
 171              		.thumb_func
ARM GAS  /tmp/ccDqJhgM.s 			page 4


 172              		.type	_stats_stop_measure_crit_thd, %function
 173              	_stats_stop_measure_crit_thd:
 174              	.LFB231:
 175              		.loc 1 101 0
 176              		.cfi_startproc
 177              		@ args = 0, pretend = 0, frame = 0
 178              		@ frame_needed = 0, uses_anonymous_args = 0
 179              		@ link register save eliminated.
 180              		.loc 1 103 0
 181 0000 0148     		ldr	r0, .L16
 182 0002 FFF7FEBF 		b	chTMStopMeasurementX
 183              	.LVL8:
 184              	.L17:
 185 0006 00BF     		.align	2
 186              	.L16:
 187 0008 B0040000 		.word	ch+1200
 188              		.cfi_endproc
 189              	.LFE231:
 190              		.size	_stats_stop_measure_crit_thd, .-_stats_stop_measure_crit_thd
 191              		.section	.text._stats_start_measure_crit_isr,"ax",%progbits
 192              		.align	2
 193              		.p2align 4,,15
 194              		.global	_stats_start_measure_crit_isr
 195              		.thumb
 196              		.thumb_func
 197              		.type	_stats_start_measure_crit_isr, %function
 198              	_stats_start_measure_crit_isr:
 199              	.LFB232:
 200              		.loc 1 109 0
 201              		.cfi_startproc
 202              		@ args = 0, pretend = 0, frame = 0
 203              		@ frame_needed = 0, uses_anonymous_args = 0
 204              		@ link register save eliminated.
 205              		.loc 1 111 0
 206 0000 0148     		ldr	r0, .L19
 207 0002 FFF7FEBF 		b	chTMStartMeasurementX
 208              	.LVL9:
 209              	.L20:
 210 0006 00BF     		.align	2
 211              	.L19:
 212 0008 C8040000 		.word	ch+1224
 213              		.cfi_endproc
 214              	.LFE232:
 215              		.size	_stats_start_measure_crit_isr, .-_stats_start_measure_crit_isr
 216              		.section	.text._stats_stop_measure_crit_isr,"ax",%progbits
 217              		.align	2
 218              		.p2align 4,,15
 219              		.global	_stats_stop_measure_crit_isr
 220              		.thumb
 221              		.thumb_func
 222              		.type	_stats_stop_measure_crit_isr, %function
 223              	_stats_stop_measure_crit_isr:
 224              	.LFB233:
 225              		.loc 1 117 0
 226              		.cfi_startproc
 227              		@ args = 0, pretend = 0, frame = 0
 228              		@ frame_needed = 0, uses_anonymous_args = 0
ARM GAS  /tmp/ccDqJhgM.s 			page 5


 229              		@ link register save eliminated.
 230              		.loc 1 119 0
 231 0000 0148     		ldr	r0, .L22
 232 0002 FFF7FEBF 		b	chTMStopMeasurementX
 233              	.LVL10:
 234              	.L23:
 235 0006 00BF     		.align	2
 236              	.L22:
 237 0008 C8040000 		.word	ch+1224
 238              		.cfi_endproc
 239              	.LFE233:
 240              		.size	_stats_stop_measure_crit_isr, .-_stats_stop_measure_crit_isr
 241              		.text
 242              	.Letext0:
 243              		.file 2 "/usr/arm-none-eabi/include/machine/_default_types.h"
 244              		.file 3 "/usr/arm-none-eabi/include/sys/_stdint.h"
 245              		.file 4 "/home/selim/working/ChibiOS/os/rt/ports/ARMCMx/compilers/GCC/chtypes.h"
 246              		.file 5 "/home/selim/working/ChibiOS/os/rt/include/chsystypes.h"
 247              		.file 6 "/home/selim/working/ChibiOS/os/rt/include/chschd.h"
 248              		.file 7 "/home/selim/working/ChibiOS/os/rt/ports/ARMCMx/chcore.h"
 249              		.file 8 "/home/selim/working/ChibiOS/os/rt/ports/ARMCMx/chcore_v7m.h"
 250              		.file 9 "/home/selim/working/ChibiOS/os/rt/include/chdebug.h"
 251              		.file 10 "/home/selim/working/ChibiOS/os/rt/include/chtm.h"
 252              		.file 11 "/home/selim/working/ChibiOS/os/rt/include/chstats.h"
 253              		.file 12 "/home/selim/working/ChibiOS/os/rt/include/chsem.h"
 254              		.file 13 "/home/selim/working/ChibiOS/os/rt/include/chmtx.h"
 255              		.file 14 "/home/selim/working/ChibiOS/os/ext/CMSIS/include/core_cm4.h"