ARM GAS  /tmp/cc3boly3.s 			page 1


   1              		.syntax unified
   2              		.cpu cortex-m4
   3              		.fpu softvfp
   4              		.eabi_attribute 20, 1
   5              		.eabi_attribute 21, 1
   6              		.eabi_attribute 23, 3
   7              		.eabi_attribute 24, 1
   8              		.eabi_attribute 25, 1
   9              		.eabi_attribute 26, 1
  10              		.eabi_attribute 30, 2
  11              		.eabi_attribute 34, 1
  12              		.eabi_attribute 18, 4
  13              		.thumb
  14              		.syntax unified
  15              		.file	"chsys.c"
  16              		.text
  17              	.Ltext0:
  18              		.cfi_sections	.debug_frame
  19              		.section	.text._idle_thread,"ax",%progbits
  20              		.align	2
  21              		.p2align 4,,15
  22              		.thumb
  23              		.thumb_func
  24              		.type	_idle_thread, %function
  25              	_idle_thread:
  26              	.LFB227:
  27              		.file 1 "/home/selim/working/ChibiOS/os/rt/src/chsys.c"
  28              		.loc 1 65 0
  29              		.cfi_startproc
  30              		@ Volatile: function does not return.
  31              		@ args = 0, pretend = 0, frame = 0
  32              		@ frame_needed = 0, uses_anonymous_args = 0
  33              		@ link register save eliminated.
  34              	.LVL0:
  35              		.loc 1 68 0
  36 0000 024B     		ldr	r3, .L4
  37 0002 034A     		ldr	r2, .L4+4
  38 0004 9B69     		ldr	r3, [r3, #24]
  39 0006 9A61     		str	r2, [r3, #24]
  40              	.L2:
  41 0008 FEE7     		b	.L2
  42              	.L5:
  43 000a 00BF     		.align	2
  44              	.L4:
  45 000c 00000000 		.word	ch
  46 0010 00000000 		.word	.LC0
  47              		.cfi_endproc
  48              	.LFE227:
  49              		.size	_idle_thread, .-_idle_thread
  50              		.section	.text.chSysInit,"ax",%progbits
  51              		.align	2
  52              		.p2align 4,,15
  53              		.global	chSysInit
  54              		.thumb
  55              		.thumb_func
  56              		.type	chSysInit, %function
  57              	chSysInit:
ARM GAS  /tmp/cc3boly3.s 			page 2


  58              	.LFB228:
  59              		.loc 1 93 0
  60              		.cfi_startproc
  61              		@ args = 0, pretend = 0, frame = 0
  62              		@ frame_needed = 0, uses_anonymous_args = 0
  63              	.LBB162:
  64              	.LBB163:
  65              		.file 2 "/home/selim/working/ChibiOS/os/rt/ports/ARMCMx/chcore_v7m.h"
  66              		.loc 2 377 0
  67 0000 234B     		ldr	r3, .L8
  68              	.LBB164:
  69              	.LBB165:
  70              		.file 3 "/home/selim/working/ChibiOS/os/ext/CMSIS/include/core_cm4.h"
  71              		.loc 3 1442 0
  72 0002 244A     		ldr	r2, .L8+4
  73              	.LBE165:
  74              	.LBE164:
  75              		.loc 2 384 0
  76 0004 2448     		ldr	r0, .L8+8
  77              	.LBE163:
  78              	.LBE162:
  79              		.loc 1 93 0
  80 0006 F0B5     		push	{r4, r5, r6, r7, lr}
  81              		.cfi_def_cfa_offset 20
  82              		.cfi_offset 4, -20
  83              		.cfi_offset 5, -16
  84              		.cfi_offset 6, -12
  85              		.cfi_offset 7, -8
  86              		.cfi_offset 14, -4
  87              	.LBB181:
  88              	.LBB178:
  89              		.loc 2 377 0
  90 0008 0024     		movs	r4, #0
  91 000a 9C60     		str	r4, [r3, #8]
  92              	.LVL1:
  93              	.LBB168:
  94              	.LBB166:
  95              		.loc 3 1440 0
  96 000c DF68     		ldr	r7, [r3, #12]
  97              	.LVL2:
  98              	.LBE166:
  99              	.LBE168:
 100              		.loc 2 383 0
 101 000e 234E     		ldr	r6, .L8+12
 102              	.LBE178:
 103              	.LBE181:
 104              		.loc 1 119 0
 105 0010 234D     		ldr	r5, .L8+16
 106              	.LBB182:
 107              	.LBB179:
 108              	.LBB169:
 109              	.LBB167:
 110              		.loc 3 1441 0
 111 0012 4FF6FF01 		movw	r1, #63743
 112 0016 3940     		ands	r1, r1, r7
 113              	.LVL3:
 114              		.loc 3 1442 0
ARM GAS  /tmp/cc3boly3.s 			page 3


 115 0018 0A43     		orrs	r2, r2, r1
 116              	.LVL4:
 117              		.loc 3 1445 0
 118 001a DA60     		str	r2, [r3, #12]
 119              	.LVL5:
 120              	.LBE167:
 121              	.LBE169:
 122              		.loc 2 383 0
 123 001c F268     		ldr	r2, [r6, #12]
 124 001e 42F08072 		orr	r2, r2, #16777216
 125 0022 F260     		str	r2, [r6, #12]
 126              		.loc 2 384 0
 127 0024 0268     		ldr	r2, [r0]
 128              	.LBB170:
 129              	.LBB171:
 130              		.loc 3 1553 0
 131 0026 2021     		movs	r1, #32
 132              	.LBE171:
 133              	.LBE170:
 134              		.loc 2 384 0
 135 0028 42F00102 		orr	r2, r2, #1
 136              	.LBB173:
 137              	.LBB174:
 138              		.loc 3 1553 0
 139 002c 1026     		movs	r6, #16
 140              	.LBE174:
 141              	.LBE173:
 142              		.loc 2 384 0
 143 002e 0260     		str	r2, [r0]
 144              	.LVL6:
 145              	.LBE179:
 146              	.LBE182:
 147              		.loc 1 93 0
 148 0030 83B0     		sub	sp, sp, #12
 149              		.cfi_def_cfa_offset 32
 150              	.LBB183:
 151              	.LBB180:
 152              	.LBB176:
 153              	.LBB175:
 154              		.loc 3 1553 0
 155 0032 DE77     		strb	r6, [r3, #31]
 156              	.LVL7:
 157              	.LBE175:
 158              	.LBE176:
 159              	.LBB177:
 160              	.LBB172:
 161 0034 83F82210 		strb	r1, [r3, #34]
 162              	.LVL8:
 163              	.LBE172:
 164              	.LBE177:
 165              	.LBE180:
 166              	.LBE183:
 167              		.loc 1 99 0
 168 0038 FFF7FEFF 		bl	_scheduler_init
 169              	.LVL9:
 170              		.loc 1 100 0
 171 003c FFF7FEFF 		bl	_vt_init
ARM GAS  /tmp/cc3boly3.s 			page 4


 172              	.LVL10:
 173              		.loc 1 102 0
 174 0040 FFF7FEFF 		bl	_tm_init
 175              	.LVL11:
 176              		.loc 1 105 0
 177 0044 FFF7FEFF 		bl	_core_init
 178              	.LVL12:
 179              		.loc 1 108 0
 180 0048 FFF7FEFF 		bl	_heap_init
 181              	.LVL13:
 182              		.loc 1 111 0
 183 004c FFF7FEFF 		bl	_stats_init
 184              	.LVL14:
 185              		.loc 1 114 0
 186 0050 FFF7FEFF 		bl	_dbg_trace_init
 187              	.LVL15:
 188              		.loc 1 119 0
 189 0054 4021     		movs	r1, #64
 190 0056 2846     		mov	r0, r5
 191 0058 FFF7FEFF 		bl	_thread_init
 192              	.LVL16:
 193 005c A5F58867 		sub	r7, r5, #1088
 194              		.loc 1 129 0
 195 0060 104B     		ldr	r3, .L8+20
 196 0062 C361     		str	r3, [r0, #28]
 197              		.loc 1 125 0
 198 0064 0126     		movs	r6, #1
 199 0066 80F82060 		strb	r6, [r0, #32]
 200              		.loc 1 119 0
 201 006a B861     		str	r0, [r7, #24]
 202              	.LBB184:
 203              	.LBB185:
 204              		.file 4 "/home/selim/working/ChibiOS/os/rt/include/chsys.h"
 205              		.loc 4 337 0
 206 006c FFF7FEFF 		bl	_dbg_check_enable
 207              	.LVL17:
 208              	.LBB186:
 209              	.LBB187:
 210              	.LBB188:
 211              		.file 5 "/home/selim/working/ChibiOS/os/ext/CMSIS/include/core_cmFunc.h"
 212              		.loc 5 546 0
 213              		.syntax unified
 214              	@ 546 "/home/selim/working/ChibiOS/os/ext/CMSIS/include/core_cmFunc.h" 1
 215 0070 84F31188 		MSR basepri, r4
 216              	@ 0 "" 2
 217              	.LVL18:
 218              		.thumb
 219              		.syntax unified
 220              	.LBE188:
 221              	.LBE187:
 222              	.LBB189:
 223              	.LBB190:
 224              		.loc 5 331 0
 225              		.syntax unified
 226              	@ 331 "/home/selim/working/ChibiOS/os/ext/CMSIS/include/core_cmFunc.h" 1
 227 0074 62B6     		cpsie i
 228              	@ 0 "" 2
ARM GAS  /tmp/cc3boly3.s 			page 5


 229              		.thumb
 230              		.syntax unified
 231              	.LBE190:
 232              	.LBE189:
 233              	.LBE186:
 234              	.LBE185:
 235              	.LBE184:
 236              		.loc 1 135 0
 237 0076 BB69     		ldr	r3, [r7, #24]
 238 0078 0B4A     		ldr	r2, .L8+24
 239 007a 9A61     		str	r2, [r3, #24]
 240              		.loc 1 141 0
 241 007c 05F1A000 		add	r0, r5, #160
 242 0080 3246     		mov	r2, r6
 243 0082 0094     		str	r4, [sp]
 244 0084 094B     		ldr	r3, .L8+28
 245 0086 F821     		movs	r1, #248
 246 0088 FFF7FEFF 		bl	chThdCreateStatic
 247              	.LVL19:
 248              		.loc 1 144 0
 249 008c 03B0     		add	sp, sp, #12
 250              		.cfi_def_cfa_offset 20
 251              		@ sp needed
 252 008e F0BD     		pop	{r4, r5, r6, r7, pc}
 253              	.L9:
 254              		.align	2
 255              	.L8:
 256 0090 00ED00E0 		.word	-536810240
 257 0094 0003FA05 		.word	100270848
 258 0098 001000E0 		.word	-536866816
 259 009c F0ED00E0 		.word	-536810000
 260 00a0 40040000 		.word	ch+1088
 261 00a4 00000000 		.word	__main_thread_stack_base__
 262 00a8 00000000 		.word	ch_debug
 263 00ac 00000000 		.word	_idle_thread
 264              		.cfi_endproc
 265              	.LFE228:
 266              		.size	chSysInit, .-chSysInit
 267              		.section	.text.chSysHalt,"ax",%progbits
 268              		.align	2
 269              		.p2align 4,,15
 270              		.global	chSysHalt
 271              		.thumb
 272              		.thumb_func
 273              		.type	chSysHalt, %function
 274              	chSysHalt:
 275              	.LFB229:
 276              		.loc 1 158 0
 277              		.cfi_startproc
 278              		@ Volatile: function does not return.
 279              		@ args = 0, pretend = 0, frame = 0
 280              		@ frame_needed = 0, uses_anonymous_args = 0
 281              		@ link register save eliminated.
 282              	.LVL20:
 283              	.LBB191:
 284              	.LBB192:
 285              	.LBB193:
ARM GAS  /tmp/cc3boly3.s 			page 6


 286              		.loc 5 342 0
 287              		.syntax unified
 288              	@ 342 "/home/selim/working/ChibiOS/os/ext/CMSIS/include/core_cmFunc.h" 1
 289 0000 72B6     		cpsid i
 290              	@ 0 "" 2
 291              		.thumb
 292              		.syntax unified
 293              	.LBE193:
 294              	.LBE192:
 295              	.LBE191:
 296              		.loc 1 167 0
 297 0002 014B     		ldr	r3, .L12
 298 0004 D862     		str	r0, [r3, #44]
 299              	.L11:
 300 0006 FEE7     		b	.L11
 301              	.L13:
 302              		.align	2
 303              	.L12:
 304 0008 00000000 		.word	ch
 305              		.cfi_endproc
 306              	.LFE229:
 307              		.size	chSysHalt, .-chSysHalt
 308              		.section	.text.chSysIntegrityCheckI,"ax",%progbits
 309              		.align	2
 310              		.p2align 4,,15
 311              		.global	chSysIntegrityCheckI
 312              		.thumb
 313              		.thumb_func
 314              		.type	chSysIntegrityCheckI, %function
 315              	chSysIntegrityCheckI:
 316              	.LFB230:
 317              		.loc 1 198 0
 318              		.cfi_startproc
 319              		@ args = 0, pretend = 0, frame = 0
 320              		@ frame_needed = 0, uses_anonymous_args = 0
 321              	.LVL21:
 322 0000 10B5     		push	{r4, lr}
 323              		.cfi_def_cfa_offset 8
 324              		.cfi_offset 4, -8
 325              		.cfi_offset 14, -4
 326              		.loc 1 198 0
 327 0002 0446     		mov	r4, r0
 328              		.loc 1 201 0
 329 0004 FFF7FEFF 		bl	chDbgCheckClassI
 330              	.LVL22:
 331              		.loc 1 204 0
 332 0008 E207     		lsls	r2, r4, #31
 333 000a 13D5     		bpl	.L15
 334              	.LVL23:
 335              	.LBB194:
 336              		.loc 1 209 0
 337 000c 2B4A     		ldr	r2, .L53
 338 000e 1168     		ldr	r1, [r2]
 339              	.LVL24:
 340              		.loc 1 210 0
 341 0010 9142     		cmp	r1, r2
 342 0012 47D0     		beq	.L16
ARM GAS  /tmp/cc3boly3.s 			page 7


 343 0014 0023     		movs	r3, #0
 344              	.LVL25:
 345              	.L17:
 346              		.loc 1 212 0
 347 0016 0968     		ldr	r1, [r1]
 348              	.LVL26:
 349              		.loc 1 210 0
 350 0018 9142     		cmp	r1, r2
 351              		.loc 1 211 0
 352 001a 03F10103 		add	r3, r3, #1
 353              	.LVL27:
 354              		.loc 1 210 0
 355 001e FAD1     		bne	.L17
 356              		.loc 1 216 0
 357 0020 4868     		ldr	r0, [r1, #4]
 358              	.LVL28:
 359              		.loc 1 217 0
 360 0022 8842     		cmp	r0, r1
 361 0024 3CD0     		beq	.L35
 362              	.LVL29:
 363              	.L19:
 364              		.loc 1 219 0
 365 0026 4068     		ldr	r0, [r0, #4]
 366              	.LVL30:
 367              		.loc 1 217 0
 368 0028 9042     		cmp	r0, r2
 369              		.loc 1 218 0
 370 002a 03F1FF33 		add	r3, r3, #-1
 371              	.LVL31:
 372              		.loc 1 217 0
 373 002e FAD1     		bne	.L19
 374              		.loc 1 223 0
 375 0030 002B     		cmp	r3, #0
 376 0032 35D1     		bne	.L35
 377              	.LVL32:
 378              	.L15:
 379              	.LBE194:
 380              		.loc 1 229 0
 381 0034 A307     		lsls	r3, r4, #30
 382 0036 14D5     		bpl	.L20
 383              	.LVL33:
 384              	.LBB195:
 385              		.loc 1 234 0
 386 0038 204A     		ldr	r2, .L53
 387 003a 1046     		mov	r0, r2
 388 003c 50F81C1F 		ldr	r1, [r0, #28]!
 389              	.LVL34:
 390              		.loc 1 235 0
 391 0040 8142     		cmp	r1, r0
 392 0042 35D0     		beq	.L21
 393 0044 0023     		movs	r3, #0
 394              	.LVL35:
 395              	.L22:
 396              		.loc 1 237 0
 397 0046 0968     		ldr	r1, [r1]
 398              	.LVL36:
 399              		.loc 1 235 0
ARM GAS  /tmp/cc3boly3.s 			page 8


 400 0048 8142     		cmp	r1, r0
 401              		.loc 1 236 0
 402 004a 03F10103 		add	r3, r3, #1
 403              	.LVL37:
 404              		.loc 1 235 0
 405 004e FAD1     		bne	.L22
 406              		.loc 1 241 0
 407 0050 126A     		ldr	r2, [r2, #32]
 408              	.LVL38:
 409              		.loc 1 242 0
 410 0052 8A42     		cmp	r2, r1
 411 0054 24D0     		beq	.L35
 412              	.LVL39:
 413              	.L23:
 414              		.loc 1 244 0
 415 0056 5268     		ldr	r2, [r2, #4]
 416              	.LVL40:
 417              		.loc 1 242 0
 418 0058 8242     		cmp	r2, r0
 419              		.loc 1 243 0
 420 005a 03F1FF33 		add	r3, r3, #-1
 421              	.LVL41:
 422              		.loc 1 242 0
 423 005e FAD1     		bne	.L23
 424              		.loc 1 248 0
 425 0060 F3B9     		cbnz	r3, .L35
 426              	.LVL42:
 427              	.L20:
 428              	.LBE195:
 429              		.loc 1 254 0
 430 0062 14F00400 		ands	r0, r4, #4
 431 0066 1AD0     		beq	.L51
 432              	.LVL43:
 433              	.LBB196:
 434              		.loc 1 259 0
 435 0068 144A     		ldr	r2, .L53
 436 006a 1369     		ldr	r3, [r2, #16]
 437              	.LVL44:
 438              		.loc 1 260 0
 439 006c 9342     		cmp	r3, r2
 440 006e 11D0     		beq	.L24
 441 0070 0020     		movs	r0, #0
 442              	.LVL45:
 443              	.L25:
 444              		.loc 1 262 0
 445 0072 1B69     		ldr	r3, [r3, #16]
 446              	.LVL46:
 447              		.loc 1 260 0
 448 0074 9342     		cmp	r3, r2
 449              		.loc 1 261 0
 450 0076 00F10100 		add	r0, r0, #1
 451              	.LVL47:
 452              		.loc 1 260 0
 453 007a FAD1     		bne	.L25
 454              		.loc 1 266 0
 455 007c 5969     		ldr	r1, [r3, #20]
 456              	.LVL48:
ARM GAS  /tmp/cc3boly3.s 			page 9


 457              		.loc 1 267 0
 458 007e 9942     		cmp	r1, r3
 459 0080 0ED0     		beq	.L35
 460              	.LVL49:
 461              	.L26:
 462              		.loc 1 269 0
 463 0082 4969     		ldr	r1, [r1, #20]
 464              	.LVL50:
 465              		.loc 1 267 0
 466 0084 9142     		cmp	r1, r2
 467              		.loc 1 268 0
 468 0086 00F1FF30 		add	r0, r0, #-1
 469              	.LVL51:
 470              		.loc 1 267 0
 471 008a FAD1     		bne	.L26
 472              		.loc 1 273 0
 473 008c 0030     		adds	r0, r0, #0
 474 008e 18BF     		it	ne
 475 0090 0120     		movne	r0, #1
 476              	.LVL52:
 477 0092 10BD     		pop	{r4, pc}
 478              	.LVL53:
 479              	.L24:
 480              		.loc 1 266 0
 481 0094 5969     		ldr	r1, [r3, #20]
 482              	.LVL54:
 483              		.loc 1 267 0
 484 0096 9942     		cmp	r1, r3
 485              		.loc 1 258 0
 486 0098 4FF00000 		mov	r0, #0
 487              		.loc 1 267 0
 488 009c F1D1     		bne	.L26
 489              	.LVL55:
 490              	.L51:
 491              	.LBE196:
 492              		.loc 1 286 0
 493 009e 10BD     		pop	{r4, pc}
 494              	.LVL56:
 495              	.L35:
 496              	.LBB197:
 497              		.loc 1 224 0
 498 00a0 0120     		movs	r0, #1
 499 00a2 10BD     		pop	{r4, pc}
 500              	.LVL57:
 501              	.L16:
 502              		.loc 1 216 0
 503 00a4 5068     		ldr	r0, [r2, #4]
 504              	.LVL58:
 505              		.loc 1 217 0
 506 00a6 9042     		cmp	r0, r2
 507              		.loc 1 208 0
 508 00a8 18BF     		it	ne
 509 00aa 0023     		movne	r3, #0
 510              		.loc 1 217 0
 511 00ac BBD1     		bne	.L19
 512 00ae C1E7     		b	.L15
 513              	.LVL59:
ARM GAS  /tmp/cc3boly3.s 			page 10


 514              	.L21:
 515              	.LBE197:
 516              	.LBB198:
 517              		.loc 1 241 0
 518 00b0 126A     		ldr	r2, [r2, #32]
 519              	.LVL60:
 520              		.loc 1 242 0
 521 00b2 8242     		cmp	r2, r0
 522              		.loc 1 233 0
 523 00b4 18BF     		it	ne
 524 00b6 0023     		movne	r3, #0
 525              		.loc 1 242 0
 526 00b8 CDD1     		bne	.L23
 527 00ba D2E7     		b	.L20
 528              	.L54:
 529              		.align	2
 530              	.L53:
 531 00bc 00000000 		.word	ch
 532              	.LBE198:
 533              		.cfi_endproc
 534              	.LFE230:
 535              		.size	chSysIntegrityCheckI, .-chSysIntegrityCheckI
 536              		.section	.text.chSysTimerHandlerI,"ax",%progbits
 537              		.align	2
 538              		.p2align 4,,15
 539              		.global	chSysTimerHandlerI
 540              		.thumb
 541              		.thumb_func
 542              		.type	chSysTimerHandlerI, %function
 543              	chSysTimerHandlerI:
 544              	.LFB231:
 545              		.loc 1 299 0
 546              		.cfi_startproc
 547              		@ args = 0, pretend = 0, frame = 0
 548              		@ frame_needed = 0, uses_anonymous_args = 0
 549 0000 2DE9F047 		push	{r4, r5, r6, r7, r8, r9, r10, lr}
 550              		.cfi_def_cfa_offset 32
 551              		.cfi_offset 4, -32
 552              		.cfi_offset 5, -28
 553              		.cfi_offset 6, -24
 554              		.cfi_offset 7, -20
 555              		.cfi_offset 8, -16
 556              		.cfi_offset 9, -12
 557              		.cfi_offset 10, -8
 558              		.cfi_offset 14, -4
 559              	.LBB235:
 560              	.LBB236:
 561              		.file 6 "/home/selim/working/ChibiOS/os/rt/include/chvt.h"
 562              		.loc 6 494 0
 563 0004 274D     		ldr	r5, .L68
 564              	.LBB237:
 565              	.LBB238:
 566              	.LBB239:
 567              	.LBB240:
 568              		.file 7 "/home/selim/working/ChibiOS/os/hal/ports/STM32/LLD/TIMv1/st_lld.h"
 569              		.loc 7 129 0
 570 0006 4FF08046 		mov	r6, #1073741824
ARM GAS  /tmp/cc3boly3.s 			page 11


 571              	.LBE240:
 572              	.LBE239:
 573              	.LBE238:
 574              	.LBE237:
 575              	.LBE236:
 576              	.LBE235:
 577              		.loc 1 301 0
 578 000a FFF7FEFF 		bl	chDbgCheckClassI
 579              	.LVL61:
 580              	.LBB287:
 581              	.LBB286:
 582              		.loc 6 468 0
 583 000e FFF7FEFF 		bl	chDbgCheckClassI
 584              	.LVL62:
 585              		.loc 6 494 0
 586 0012 EC69     		ldr	r4, [r5, #28]
 587              	.LVL63:
 588              		.loc 6 501 0
 589 0014 AB6A     		ldr	r3, [r5, #40]
 590              	.LBB244:
 591              	.LBB243:
 592              	.LBB242:
 593              	.LBB241:
 594              		.loc 7 129 0
 595 0016 726A     		ldr	r2, [r6, #36]
 596              	.LVL64:
 597              	.LBE241:
 598              	.LBE242:
 599              	.LBE243:
 600              	.LBE244:
 601              		.loc 6 501 0
 602 0018 A168     		ldr	r1, [r4, #8]
 603 001a D01A     		subs	r0, r2, r3
 604 001c 8842     		cmp	r0, r1
 605 001e 05F11C0A 		add	r10, r5, #28
 606 0022 22D3     		bcc	.L56
 607              	.LBB245:
 608              		.loc 6 510 0
 609 0024 0027     		movs	r7, #0
 610              	.LBB246:
 611              	.LBB247:
 612              	.LBB248:
 613              	.LBB249:
 614              	.LBB250:
 615              	.LBB251:
 616              		.loc 5 546 0
 617 0026 4FF02008 		mov	r8, #32
 618              	.L58:
 619              	.LBE251:
 620              	.LBE250:
 621              	.LBE249:
 622              	.LBE248:
 623              	.LBE247:
 624              	.LBE246:
 625              		.loc 6 507 0
 626 002a 2268     		ldr	r2, [r4]
 627              		.loc 6 509 0
ARM GAS  /tmp/cc3boly3.s 			page 12


 628 002c D4F80C90 		ldr	r9, [r4, #12]
 629              	.LVL65:
 630              		.loc 6 505 0
 631 0030 0B44     		add	r3, r3, r1
 632              		.loc 6 513 0
 633 0032 5245     		cmp	r2, r10
 634              		.loc 6 505 0
 635 0034 AB62     		str	r3, [r5, #40]
 636              		.loc 6 507 0
 637 0036 C2F804A0 		str	r10, [r2, #4]
 638              		.loc 6 508 0
 639 003a EA61     		str	r2, [r5, #28]
 640              		.loc 6 510 0
 641 003c E760     		str	r7, [r4, #12]
 642              		.loc 6 513 0
 643 003e 2ED0     		beq	.L67
 644              	.L57:
 645              	.LBB257:
 646              	.LBB258:
 647              		.loc 4 408 0
 648 0040 FFF7FEFF 		bl	_dbg_check_unlock_from_isr
 649              	.LVL66:
 650              		.loc 4 409 0
 651 0044 FFF7FEFF 		bl	_stats_stop_measure_crit_isr
 652              	.LVL67:
 653              	.LBB259:
 654              	.LBB260:
 655              	.LBB261:
 656              	.LBB262:
 657              		.loc 5 546 0
 658              		.syntax unified
 659              	@ 546 "/home/selim/working/ChibiOS/os/ext/CMSIS/include/core_cmFunc.h" 1
 660 0048 87F31188 		MSR basepri, r7
 661              	@ 0 "" 2
 662              	.LVL68:
 663              		.thumb
 664              		.syntax unified
 665              	.LBE262:
 666              	.LBE261:
 667              	.LBE260:
 668              	.LBE259:
 669              	.LBE258:
 670              	.LBE257:
 671              		.loc 6 523 0
 672 004c 2069     		ldr	r0, [r4, #16]
 673 004e C847     		blx	r9
 674              	.LVL69:
 675              	.LBB263:
 676              	.LBB256:
 677              	.LBB255:
 678              	.LBB254:
 679              	.LBB253:
 680              	.LBB252:
 681              		.loc 5 546 0
 682              		.syntax unified
 683              	@ 546 "/home/selim/working/ChibiOS/os/ext/CMSIS/include/core_cmFunc.h" 1
 684 0050 88F31188 		MSR basepri, r8
ARM GAS  /tmp/cc3boly3.s 			page 13


 685              	@ 0 "" 2
 686              	.LVL70:
 687              		.thumb
 688              		.syntax unified
 689              	.LBE252:
 690              	.LBE253:
 691              	.LBE254:
 692              	.LBE255:
 693              		.loc 4 389 0
 694 0054 FFF7FEFF 		bl	_stats_start_measure_crit_isr
 695              	.LVL71:
 696              		.loc 4 390 0
 697 0058 FFF7FEFF 		bl	_dbg_check_lock_from_isr
 698              	.LVL72:
 699              	.LBE256:
 700              	.LBE263:
 701              		.loc 6 531 0
 702 005c EC69     		ldr	r4, [r5, #28]
 703              	.LVL73:
 704              	.LBB264:
 705              	.LBB265:
 706              	.LBB266:
 707              	.LBB267:
 708              		.loc 7 129 0
 709 005e 726A     		ldr	r2, [r6, #36]
 710              	.LBE267:
 711              	.LBE266:
 712              	.LBE265:
 713              	.LBE264:
 714              	.LBE245:
 715              		.loc 6 501 0
 716 0060 AB6A     		ldr	r3, [r5, #40]
 717 0062 A168     		ldr	r1, [r4, #8]
 718 0064 D01A     		subs	r0, r2, r3
 719 0066 8142     		cmp	r1, r0
 720 0068 DFD9     		bls	.L58
 721              	.LVL74:
 722              	.L56:
 723              		.loc 6 536 0
 724 006a 5445     		cmp	r4, r10
 725 006c 15D0     		beq	.L55
 726              		.loc 6 541 0
 727 006e 0B44     		add	r3, r3, r1
 728 0070 9B1A     		subs	r3, r3, r2
 729              	.LVL75:
 730              		.loc 6 543 0
 731 0072 012B     		cmp	r3, #1
 732 0074 98BF     		it	ls
 733 0076 0223     		movls	r3, #2
 734              	.LVL76:
 735              		.loc 6 545 0
 736 0078 9C18     		adds	r4, r3, r2
 737              	.LVL77:
 738              	.LBB270:
 739              	.LBB271:
 740              		.file 8 "/home/selim/working/ChibiOS/os/rt/ports/ARMCMx/chcore_timer.h"
 741              		.loc 8 95 0
ARM GAS  /tmp/cc3boly3.s 			page 14


 742 007a 2046     		mov	r0, r4
 743 007c FFF7FEFF 		bl	stSetAlarm
 744              	.LVL78:
 745              	.LBE271:
 746              	.LBE270:
 747              	.LBB272:
 748              	.LBB273:
 749              	.LBB274:
 750              	.LBB275:
 751              		.loc 7 129 0
 752 0080 4FF08043 		mov	r3, #1073741824
 753              	.LBE275:
 754              	.LBE274:
 755              	.LBE273:
 756              	.LBE272:
 757              		.loc 6 547 0
 758 0084 A96A     		ldr	r1, [r5, #40]
 759              	.LBB279:
 760              	.LBB278:
 761              	.LBB277:
 762              	.LBB276:
 763              		.loc 7 129 0
 764 0086 5A6A     		ldr	r2, [r3, #36]
 765              	.LBE276:
 766              	.LBE277:
 767              	.LBE278:
 768              	.LBE279:
 769              		.loc 6 547 0
 770 0088 0648     		ldr	r0, .L68
 771 008a 631A     		subs	r3, r4, r1
 772 008c 521A     		subs	r2, r2, r1
 773 008e 9A42     		cmp	r2, r3
 774 0090 03D9     		bls	.L55
 775              	.LVL79:
 776              	.LBB280:
 777              	.LBB281:
 778              	.LBB282:
 779              	.LBB283:
 780              	.LBB284:
 781              		.loc 5 342 0
 782              		.syntax unified
 783              	@ 342 "/home/selim/working/ChibiOS/os/ext/CMSIS/include/core_cmFunc.h" 1
 784 0092 72B6     		cpsid i
 785              	@ 0 "" 2
 786              		.thumb
 787              		.syntax unified
 788              	.LBE284:
 789              	.LBE283:
 790              	.LBE282:
 791              		.loc 1 167 0
 792 0094 044B     		ldr	r3, .L68+4
 793 0096 C362     		str	r3, [r0, #44]
 794              	.L61:
 795 0098 FEE7     		b	.L61
 796              	.LVL80:
 797              	.L55:
 798 009a BDE8F087 		pop	{r4, r5, r6, r7, r8, r9, r10, pc}
ARM GAS  /tmp/cc3boly3.s 			page 15


 799              	.LVL81:
 800              	.L67:
 801              	.LBE281:
 802              	.LBE280:
 803              	.LBB285:
 804              	.LBB268:
 805              	.LBB269:
 806              		.loc 8 83 0
 807 009e FFF7FEFF 		bl	stStopAlarm
 808              	.LVL82:
 809 00a2 CDE7     		b	.L57
 810              	.L69:
 811              		.align	2
 812              	.L68:
 813 00a4 00000000 		.word	ch
 814 00a8 00000000 		.word	.LANCHOR0
 815              	.LBE269:
 816              	.LBE268:
 817              	.LBE285:
 818              	.LBE286:
 819              	.LBE287:
 820              		.cfi_endproc
 821              	.LFE231:
 822              		.size	chSysTimerHandlerI, .-chSysTimerHandlerI
 823              		.section	.text.chSysGetStatusAndLockX,"ax",%progbits
 824              		.align	2
 825              		.p2align 4,,15
 826              		.global	chSysGetStatusAndLockX
 827              		.thumb
 828              		.thumb_func
 829              		.type	chSysGetStatusAndLockX, %function
 830              	chSysGetStatusAndLockX:
 831              	.LFB232:
 832              		.loc 1 332 0
 833              		.cfi_startproc
 834              		@ args = 0, pretend = 0, frame = 0
 835              		@ frame_needed = 0, uses_anonymous_args = 0
 836 0000 10B5     		push	{r4, lr}
 837              		.cfi_def_cfa_offset 8
 838              		.cfi_offset 4, -8
 839              		.cfi_offset 14, -4
 840              	.LBB288:
 841              	.LBB289:
 842              	.LBB290:
 843              	.LBB291:
 844              		.loc 5 533 0
 845              		.syntax unified
 846              	@ 533 "/home/selim/working/ChibiOS/os/ext/CMSIS/include/core_cmFunc.h" 1
 847 0002 EFF31284 		MRS r4, basepri_max
 848              	@ 0 "" 2
 849              		.thumb
 850              		.syntax unified
 851              	.LBE291:
 852              	.LBE290:
 853              	.LBE289:
 854              	.LBE288:
 855              		.loc 1 335 0
ARM GAS  /tmp/cc3boly3.s 			page 16


 856 0006 5CB9     		cbnz	r4, .L71
 857              	.LBB292:
 858              	.LBB293:
 859              	.LBB294:
 860              	.LBB295:
 861              		.loc 5 383 0
 862              		.syntax unified
 863              	@ 383 "/home/selim/working/ChibiOS/os/ext/CMSIS/include/core_cmFunc.h" 1
 864 0008 EFF30583 		MRS r3, ipsr
 865              	@ 0 "" 2
 866              		.thumb
 867              		.syntax unified
 868              	.LBE295:
 869              	.LBE294:
 870              	.LBE293:
 871              	.LBE292:
 872              		.loc 1 336 0
 873 000c C3F30803 		ubfx	r3, r3, #0, #9
 874 0010 43B9     		cbnz	r3, .L74
 875              	.LVL83:
 876              	.LBB296:
 877              	.LBB297:
 878              	.LBB298:
 879              	.LBB299:
 880              	.LBB300:
 881              		.loc 5 546 0
 882 0012 2023     		movs	r3, #32
 883              		.syntax unified
 884              	@ 546 "/home/selim/working/ChibiOS/os/ext/CMSIS/include/core_cmFunc.h" 1
 885 0014 83F31188 		MSR basepri, r3
 886              	@ 0 "" 2
 887              	.LVL84:
 888              		.thumb
 889              		.syntax unified
 890              	.LBE300:
 891              	.LBE299:
 892              	.LBE298:
 893              		.loc 4 349 0
 894 0018 FFF7FEFF 		bl	_stats_start_measure_crit_thd
 895              	.LVL85:
 896              		.loc 4 350 0
 897 001c FFF7FEFF 		bl	_dbg_check_lock
 898              	.LVL86:
 899              	.L71:
 900              	.LBE297:
 901              	.LBE296:
 902              		.loc 1 344 0
 903 0020 2046     		mov	r0, r4
 904 0022 10BD     		pop	{r4, pc}
 905              	.L74:
 906              	.LVL87:
 907              	.LBB301:
 908              	.LBB302:
 909              	.LBB303:
 910              	.LBB304:
 911              	.LBB305:
 912              	.LBB306:
ARM GAS  /tmp/cc3boly3.s 			page 17


 913              		.loc 5 546 0
 914 0024 2023     		movs	r3, #32
 915              		.syntax unified
 916              	@ 546 "/home/selim/working/ChibiOS/os/ext/CMSIS/include/core_cmFunc.h" 1
 917 0026 83F31188 		MSR basepri, r3
 918              	@ 0 "" 2
 919              	.LVL88:
 920              		.thumb
 921              		.syntax unified
 922              	.LBE306:
 923              	.LBE305:
 924              	.LBE304:
 925              	.LBE303:
 926              		.loc 4 389 0
 927 002a FFF7FEFF 		bl	_stats_start_measure_crit_isr
 928              	.LVL89:
 929              		.loc 4 390 0
 930 002e FFF7FEFF 		bl	_dbg_check_lock_from_isr
 931              	.LVL90:
 932              	.LBE302:
 933              	.LBE301:
 934              		.loc 1 344 0
 935 0032 2046     		mov	r0, r4
 936 0034 10BD     		pop	{r4, pc}
 937              		.cfi_endproc
 938              	.LFE232:
 939              		.size	chSysGetStatusAndLockX, .-chSysGetStatusAndLockX
 940 0036 00BF     		.section	.text.chSysRestoreStatusX,"ax",%progbits
 941              		.align	2
 942              		.p2align 4,,15
 943              		.global	chSysRestoreStatusX
 944              		.thumb
 945              		.thumb_func
 946              		.type	chSysRestoreStatusX, %function
 947              	chSysRestoreStatusX:
 948              	.LFB233:
 949              		.loc 1 355 0
 950              		.cfi_startproc
 951              		@ args = 0, pretend = 0, frame = 0
 952              		@ frame_needed = 0, uses_anonymous_args = 0
 953              	.LVL91:
 954              		.loc 1 357 0
 955 0000 C8B9     		cbnz	r0, .L81
 956              		.loc 1 355 0
 957 0002 10B5     		push	{r4, lr}
 958              		.cfi_def_cfa_offset 8
 959              		.cfi_offset 4, -8
 960              		.cfi_offset 14, -4
 961 0004 0446     		mov	r4, r0
 962              	.LBB327:
 963              	.LBB328:
 964              	.LBB329:
 965              	.LBB330:
 966              		.loc 5 383 0
 967              		.syntax unified
 968              	@ 383 "/home/selim/working/ChibiOS/os/ext/CMSIS/include/core_cmFunc.h" 1
 969 0006 EFF30583 		MRS r3, ipsr
ARM GAS  /tmp/cc3boly3.s 			page 18


 970              	@ 0 "" 2
 971              		.thumb
 972              		.syntax unified
 973              	.LBE330:
 974              	.LBE329:
 975              	.LBE328:
 976              	.LBE327:
 977              		.loc 1 358 0
 978 000a C3F30803 		ubfx	r3, r3, #0, #9
 979 000e BBB9     		cbnz	r3, .L82
 980              		.loc 1 362 0
 981 0010 FFF7FEFF 		bl	chSchRescheduleS
 982              	.LVL92:
 983              	.LBB331:
 984              	.LBB332:
 985              		.loc 4 360 0
 986 0014 FFF7FEFF 		bl	_dbg_check_unlock
 987              	.LVL93:
 988              		.loc 4 361 0
 989 0018 FFF7FEFF 		bl	_stats_stop_measure_crit_thd
 990              	.LVL94:
 991              		.loc 4 367 0
 992 001c 0C4B     		ldr	r3, .L83
 993 001e 1A68     		ldr	r2, [r3]
 994 0020 9A42     		cmp	r2, r3
 995 0022 09D0     		beq	.L78
 996 0024 9969     		ldr	r1, [r3, #24]
 997 0026 9268     		ldr	r2, [r2, #8]
 998 0028 8968     		ldr	r1, [r1, #8]
 999 002a 9142     		cmp	r1, r2
 1000 002c 04D2     		bcs	.L78
 1001              	.LVL95:
 1002              	.LBB333:
 1003              	.LBB334:
 1004              	.LBB335:
 1005              	.LBB336:
 1006              	.LBB337:
 1007              		.loc 5 342 0
 1008              		.syntax unified
 1009              	@ 342 "/home/selim/working/ChibiOS/os/ext/CMSIS/include/core_cmFunc.h" 1
 1010 002e 72B6     		cpsid i
 1011              	@ 0 "" 2
 1012              		.thumb
 1013              		.syntax unified
 1014              	.LBE337:
 1015              	.LBE336:
 1016              	.LBE335:
 1017              		.loc 1 167 0
 1018 0030 084A     		ldr	r2, .L83+4
 1019 0032 DA62     		str	r2, [r3, #44]
 1020              	.L79:
 1021 0034 FEE7     		b	.L79
 1022              	.LVL96:
 1023              	.L81:
 1024              		.cfi_def_cfa_offset 0
 1025              		.cfi_restore 4
 1026              		.cfi_restore 14
ARM GAS  /tmp/cc3boly3.s 			page 19


 1027 0036 7047     		bx	lr
 1028              	.LVL97:
 1029              	.L78:
 1030              		.cfi_def_cfa_offset 8
 1031              		.cfi_offset 4, -8
 1032              		.cfi_offset 14, -4
 1033              	.LBE334:
 1034              	.LBE333:
 1035              	.LBB338:
 1036              	.LBB339:
 1037              	.LBB340:
 1038              		.loc 5 546 0
 1039 0038 0023     		movs	r3, #0
 1040              		.syntax unified
 1041              	@ 546 "/home/selim/working/ChibiOS/os/ext/CMSIS/include/core_cmFunc.h" 1
 1042 003a 83F31188 		MSR basepri, r3
 1043              	@ 0 "" 2
 1044              	.LVL98:
 1045              		.thumb
 1046              		.syntax unified
 1047 003e 10BD     		pop	{r4, pc}
 1048              	.LVL99:
 1049              	.L82:
 1050              	.LBE340:
 1051              	.LBE339:
 1052              	.LBE338:
 1053              	.LBE332:
 1054              	.LBE331:
 1055              	.LBB341:
 1056              	.LBB342:
 1057              		.loc 4 408 0
 1058 0040 FFF7FEFF 		bl	_dbg_check_unlock_from_isr
 1059              	.LVL100:
 1060              		.loc 4 409 0
 1061 0044 FFF7FEFF 		bl	_stats_stop_measure_crit_isr
 1062              	.LVL101:
 1063              	.LBB343:
 1064              	.LBB344:
 1065              	.LBB345:
 1066              	.LBB346:
 1067              		.loc 5 546 0
 1068              		.syntax unified
 1069              	@ 546 "/home/selim/working/ChibiOS/os/ext/CMSIS/include/core_cmFunc.h" 1
 1070 0048 84F31188 		MSR basepri, r4
 1071              	@ 0 "" 2
 1072              	.LVL102:
 1073              		.thumb
 1074              		.syntax unified
 1075 004c 10BD     		pop	{r4, pc}
 1076              	.LVL103:
 1077              	.L84:
 1078 004e 00BF     		.align	2
 1079              	.L83:
 1080 0050 00000000 		.word	ch
 1081 0054 00000000 		.word	.LANCHOR1
 1082              	.LBE346:
 1083              	.LBE345:
ARM GAS  /tmp/cc3boly3.s 			page 20


 1084              	.LBE344:
 1085              	.LBE343:
 1086              	.LBE342:
 1087              	.LBE341:
 1088              		.cfi_endproc
 1089              	.LFE233:
 1090              		.size	chSysRestoreStatusX, .-chSysRestoreStatusX
 1091              		.section	.text.chSysIsCounterWithinX,"ax",%progbits
 1092              		.align	2
 1093              		.p2align 4,,15
 1094              		.global	chSysIsCounterWithinX
 1095              		.thumb
 1096              		.thumb_func
 1097              		.type	chSysIsCounterWithinX, %function
 1098              	chSysIsCounterWithinX:
 1099              	.LFB234:
 1100              		.loc 1 387 0
 1101              		.cfi_startproc
 1102              		@ args = 0, pretend = 0, frame = 0
 1103              		@ frame_needed = 0, uses_anonymous_args = 0
 1104              		@ link register save eliminated.
 1105              	.LVL104:
 1106              		.loc 1 389 0
 1107 0000 401A     		subs	r0, r0, r1
 1108              	.LVL105:
 1109 0002 521A     		subs	r2, r2, r1
 1110              	.LVL106:
 1111              		.loc 1 390 0
 1112 0004 9042     		cmp	r0, r2
 1113 0006 2CBF     		ite	cs
 1114 0008 0020     		movcs	r0, #0
 1115 000a 0120     		movcc	r0, #1
 1116 000c 7047     		bx	lr
 1117              		.cfi_endproc
 1118              	.LFE234:
 1119              		.size	chSysIsCounterWithinX, .-chSysIsCounterWithinX
 1120 000e 00BF     		.section	.text.chSysPolledDelayX,"ax",%progbits
 1121              		.align	2
 1122              		.p2align 4,,15
 1123              		.global	chSysPolledDelayX
 1124              		.thumb
 1125              		.thumb_func
 1126              		.type	chSysPolledDelayX, %function
 1127              	chSysPolledDelayX:
 1128              	.LFB235:
 1129              		.loc 1 403 0
 1130              		.cfi_startproc
 1131              		@ args = 0, pretend = 0, frame = 0
 1132              		@ frame_needed = 0, uses_anonymous_args = 0
 1133              		@ link register save eliminated.
 1134              	.LVL107:
 1135              	.LBB347:
 1136              	.LBB348:
 1137              		.loc 2 548 0
 1138 0000 034A     		ldr	r2, .L89
 1139 0002 5168     		ldr	r1, [r2, #4]
 1140              	.LVL108:
ARM GAS  /tmp/cc3boly3.s 			page 21


 1141              	.L87:
 1142              	.LBE348:
 1143              	.LBE347:
 1144              	.LBB349:
 1145              	.LBB350:
 1146              		.loc 2 548 0 is_stmt 0 discriminator 1
 1147 0004 5368     		ldr	r3, [r2, #4]
 1148              	.LBE350:
 1149              	.LBE349:
 1150              		.loc 1 407 0 is_stmt 1 discriminator 1
 1151 0006 5B1A     		subs	r3, r3, r1
 1152 0008 8342     		cmp	r3, r0
 1153 000a FBD3     		bcc	.L87
 1154              		.loc 1 409 0
 1155 000c 7047     		bx	lr
 1156              	.L90:
 1157 000e 00BF     		.align	2
 1158              	.L89:
 1159 0010 001000E0 		.word	-536866816
 1160              		.cfi_endproc
 1161              	.LFE235:
 1162              		.size	chSysPolledDelayX, .-chSysPolledDelayX
 1163              		.section	.rodata.__func__.6055,"a",%progbits
 1164              		.align	2
 1165              		.set	.LANCHOR0,. + 0
 1166              		.type	__func__.6055, %object
 1167              		.size	__func__.6055, 12
 1168              	__func__.6055:
 1169 0000 63685654 		.ascii	"chVTDoTickI\000"
 1169      446F5469 
 1169      636B4900 
 1170              		.section	.rodata.str1.4,"aMS",%progbits,1
 1171              		.align	2
 1172              	.LC0:
 1173 0000 69646C65 		.ascii	"idle\000"
 1173      00
 1174              		.section	.rodata.__func__.5969,"a",%progbits
 1175              		.align	2
 1176              		.set	.LANCHOR1,. + 0
 1177              		.type	__func__.5969, %object
 1178              		.size	__func__.5969, 12
 1179              	__func__.5969:
 1180 0000 63685379 		.ascii	"chSysUnlock\000"
 1180      73556E6C 
 1180      6F636B00 
 1181              		.text
 1182              	.Letext0:
 1183              		.file 9 "/usr/arm-none-eabi/include/machine/_default_types.h"
 1184              		.file 10 "/usr/arm-none-eabi/include/sys/_stdint.h"
 1185              		.file 11 "/home/selim/working/ChibiOS/os/rt/ports/ARMCMx/compilers/GCC/chtypes.h"
 1186              		.file 12 "/home/selim/working/ChibiOS/os/rt/include/chsystypes.h"
 1187              		.file 13 "/home/selim/working/ChibiOS/os/rt/include/chschd.h"
 1188              		.file 14 "/home/selim/working/ChibiOS/os/ext/CMSIS/ST/stm32f407xx.h"
 1189              		.file 15 "/home/selim/working/ChibiOS/os/rt/ports/ARMCMx/chcore.h"
 1190              		.file 16 "/home/selim/working/ChibiOS/os/hal/ports/STM32/LLD/TIMv1/stm32_tim.h"
 1191              		.file 17 "/home/selim/working/ChibiOS/os/rt/include/chdebug.h"
 1192              		.file 18 "/home/selim/working/ChibiOS/os/rt/include/chtm.h"
ARM GAS  /tmp/cc3boly3.s 			page 22


 1193              		.file 19 "/home/selim/working/ChibiOS/os/rt/include/chstats.h"
 1194              		.file 20 "/home/selim/working/ChibiOS/os/rt/include/chsem.h"
 1195              		.file 21 "/home/selim/working/ChibiOS/os/rt/include/chmtx.h"
 1196              		.file 22 "/home/selim/working/ChibiOS/os/rt/include/chthreads.h"
 1197              		.file 23 "/home/selim/working/ChibiOS/os/rt/include/chregistry.h"
 1198              		.file 24 "/home/selim/working/ChibiOS/os/rt/include/chmemcore.h"
 1199              		.file 25 "/home/selim/working/ChibiOS/os/rt/include/chheap.h"
 1200              		.file 26 "/home/selim/working/ChibiOS/os/hal/include/st.h"