ARM GAS  /tmp/cco9WT3o.s 			page 1


   1              		.syntax unified
   2              		.cpu cortex-m4
   3              		.fpu softvfp
   4              		.eabi_attribute 20, 1
   5              		.eabi_attribute 21, 1
   6              		.eabi_attribute 23, 3
   7              		.eabi_attribute 24, 1
   8              		.eabi_attribute 25, 1
   9              		.eabi_attribute 26, 1
  10              		.eabi_attribute 30, 2
  11              		.eabi_attribute 34, 1
  12              		.eabi_attribute 18, 4
  13              		.thumb
  14              		.syntax unified
  15              		.file	"chthreads.c"
  16              		.text
  17              	.Ltext0:
  18              		.cfi_sections	.debug_frame
  19              		.section	.text._thread_init,"ax",%progbits
  20              		.align	2
  21              		.p2align 4,,15
  22              		.global	_thread_init
  23              		.thumb
  24              		.thumb_func
  25              		.type	_thread_init, %function
  26              	_thread_init:
  27              	.LFB227:
  28              		.file 1 "/home/selim/working/ChibiOS/os/rt/src/chthreads.c"
  29              		.loc 1 91 0
  30              		.cfi_startproc
  31              		@ args = 0, pretend = 0, frame = 0
  32              		@ frame_needed = 0, uses_anonymous_args = 0
  33              	.LVL0:
  34              		.loc 1 114 0
  35 0000 154A     		ldr	r2, .L3
  36              		.loc 1 91 0
  37 0002 F8B5     		push	{r3, r4, r5, r6, r7, lr}
  38              		.cfi_def_cfa_offset 24
  39              		.cfi_offset 3, -24
  40              		.cfi_offset 4, -20
  41              		.cfi_offset 5, -16
  42              		.cfi_offset 6, -12
  43              		.cfi_offset 7, -8
  44              		.cfi_offset 14, -4
  45              		.loc 1 91 0
  46 0004 0446     		mov	r4, r0
  47              		.loc 1 94 0
  48 0006 0225     		movs	r5, #2
  49              		.loc 1 114 0
  50 0008 5069     		ldr	r0, [r2, #20]
  51              	.LVL1:
  52              		.loc 1 100 0
  53 000a 2164     		str	r1, [r4, #64]
  54              		.loc 1 95 0
  55 000c 0023     		movs	r3, #0
  56              		.loc 1 93 0
  57 000e A160     		str	r1, [r4, #8]
ARM GAS  /tmp/cco9WT3o.s 			page 2


  58              		.loc 1 110 0
  59 0010 4FF0010E 		mov	lr, #1
  60              		.loc 1 120 0
  61 0014 04F12C01 		add	r1, r4, #44
  62              	.LVL2:
  63              		.loc 1 94 0
  64 0018 84F82050 		strb	r5, [r4, #32]
  65              		.loc 1 117 0
  66 001c 04F12807 		add	r7, r4, #40
  67              		.loc 1 126 0
  68 0020 04F14805 		add	r5, r4, #72
  69              		.loc 1 123 0
  70 0024 04F16006 		add	r6, r4, #96
  71              		.loc 1 114 0
  72 0028 2261     		str	r2, [r4, #16]
  73 002a 6061     		str	r0, [r4, #20]
  74              		.loc 1 110 0
  75 002c 84F822E0 		strb	lr, [r4, #34]
  76              		.loc 1 95 0
  77 0030 84F82130 		strb	r3, [r4, #33]
  78              		.loc 1 101 0
  79 0034 E363     		str	r3, [r4, #60]
  80              		.loc 1 104 0
  81 0036 A363     		str	r3, [r4, #56]
  82              		.loc 1 113 0
  83 0038 A361     		str	r3, [r4, #24]
  84              		.loc 1 114 0
  85 003a 0461     		str	r4, [r0, #16]
  86              		.loc 1 126 0
  87 003c 2846     		mov	r0, r5
  88              	.LBB119:
  89              	.LBB120:
  90              		.file 2 "/home/selim/working/ChibiOS/os/rt/include/chschd.h"
  91              		.loc 2 604 0
  92 003e E162     		str	r1, [r4, #44]
  93              		.loc 2 605 0
  94 0040 2163     		str	r1, [r4, #48]
  95              	.LBE120:
  96              	.LBE119:
  97              	.LBB121:
  98              	.LBB122:
  99              		.loc 2 566 0
 100 0042 A762     		str	r7, [r4, #40]
 101              	.LBE122:
 102              	.LBE121:
 103              		.loc 1 123 0
 104 0044 E661     		str	r6, [r4, #28]
 105              		.loc 1 114 0
 106 0046 5461     		str	r4, [r2, #20]
 107              		.loc 1 126 0
 108 0048 FFF7FEFF 		bl	chTMObjectInit
 109              	.LVL3:
 110              		.loc 1 127 0
 111 004c 2846     		mov	r0, r5
 112 004e FFF7FEFF 		bl	chTMStartMeasurementX
 113              	.LVL4:
 114              		.loc 1 133 0
ARM GAS  /tmp/cco9WT3o.s 			page 3


 115 0052 2046     		mov	r0, r4
 116 0054 F8BD     		pop	{r3, r4, r5, r6, r7, pc}
 117              	.LVL5:
 118              	.L4:
 119 0056 00BF     		.align	2
 120              	.L3:
 121 0058 00000000 		.word	ch
 122              		.cfi_endproc
 123              	.LFE227:
 124              		.size	_thread_init, .-_thread_init
 125              		.section	.text._thread_memfill,"ax",%progbits
 126              		.align	2
 127              		.p2align 4,,15
 128              		.global	_thread_memfill
 129              		.thumb
 130              		.thumb_func
 131              		.type	_thread_memfill, %function
 132              	_thread_memfill:
 133              	.LFB228:
 134              		.loc 1 145 0
 135              		.cfi_startproc
 136              		@ args = 0, pretend = 0, frame = 0
 137              		@ frame_needed = 0, uses_anonymous_args = 0
 138              		@ link register save eliminated.
 139              	.LVL6:
 140              		.loc 1 147 0
 141 0000 8842     		cmp	r0, r1
 142 0002 03D2     		bcs	.L5
 143              	.L7:
 144              		.loc 1 148 0
 145 0004 00F8012B 		strb	r2, [r0], #1
 146              	.LVL7:
 147              		.loc 1 147 0
 148 0008 8142     		cmp	r1, r0
 149 000a FBD1     		bne	.L7
 150              	.L5:
 151 000c 7047     		bx	lr
 152              		.cfi_endproc
 153              	.LFE228:
 154              		.size	_thread_memfill, .-_thread_memfill
 155 000e 00BF     		.section	.text.chThdCreateI,"ax",%progbits
 156              		.align	2
 157              		.p2align 4,,15
 158              		.global	chThdCreateI
 159              		.thumb
 160              		.thumb_func
 161              		.type	chThdCreateI, %function
 162              	chThdCreateI:
 163              	.LFB229:
 164              		.loc 1 178 0
 165              		.cfi_startproc
 166              		@ args = 4, pretend = 0, frame = 0
 167              		@ frame_needed = 0, uses_anonymous_args = 0
 168              	.LVL8:
 169 0000 2DE9F041 		push	{r4, r5, r6, r7, r8, lr}
 170              		.cfi_def_cfa_offset 24
 171              		.cfi_offset 4, -24
ARM GAS  /tmp/cco9WT3o.s 			page 4


 172              		.cfi_offset 5, -20
 173              		.cfi_offset 6, -16
 174              		.cfi_offset 7, -12
 175              		.cfi_offset 8, -8
 176              		.cfi_offset 14, -4
 177              		.loc 1 178 0
 178 0004 0446     		mov	r4, r0
 179              	.LVL9:
 180 0006 0D46     		mov	r5, r1
 181 0008 1646     		mov	r6, r2
 182 000a 1F46     		mov	r7, r3
 183 000c DDF81880 		ldr	r8, [sp, #24]
 184              		.loc 1 183 0
 185 0010 FFF7FEFF 		bl	chDbgCheckClassI
 186              	.LVL10:
 187              		.loc 1 184 0
 188 0014 0CB1     		cbz	r4, .L12
 189              		.loc 1 184 0 is_stmt 0 discriminator 3
 190 0016 E72D     		cmp	r5, #231
 191 0018 11D8     		bhi	.L18
 192              	.L12:
 193              		.loc 1 184 0 discriminator 8
 194 001a 0B48     		ldr	r0, .L19
 195 001c FFF7FEFF 		bl	chSysHalt
 196              	.LVL11:
 197              	.L13:
 198              		.loc 1 187 0 is_stmt 1
 199 0020 A5F12403 		sub	r3, r5, #36
 200 0024 E218     		adds	r2, r4, r3
 201 0026 094D     		ldr	r5, .L19+4
 202              	.LVL12:
 203 0028 E260     		str	r2, [r4, #12]
 204              		.loc 1 189 0
 205 002a 3146     		mov	r1, r6
 206              		.loc 1 187 0
 207 002c E750     		str	r7, [r4, r3]
 208              		.loc 1 189 0
 209 002e 2046     		mov	r0, r4
 210              		.loc 1 187 0
 211 0030 C2F80480 		str	r8, [r2, #4]
 212 0034 1562     		str	r5, [r2, #32]
 213              		.loc 1 190 0
 214 0036 BDE8F041 		pop	{r4, r5, r6, r7, r8, lr}
 215              		.cfi_remember_state
 216              		.cfi_restore 14
 217              		.cfi_restore 8
 218              		.cfi_restore 7
 219              		.cfi_restore 6
 220              		.cfi_restore 5
 221              		.cfi_restore 4
 222              		.cfi_def_cfa_offset 0
 223              	.LVL13:
 224              		.loc 1 189 0
 225 003a FFF7FEBF 		b	_thread_init
 226              	.LVL14:
 227              	.L18:
 228              		.cfi_restore_state
ARM GAS  /tmp/cco9WT3o.s 			page 5


 229              		.loc 1 184 0 discriminator 5
 230 003e 7F2E     		cmp	r6, #127
 231 0040 EBD8     		bhi	.L12
 232              		.loc 1 184 0 is_stmt 0 discriminator 7
 233 0042 002F     		cmp	r7, #0
 234 0044 ECD1     		bne	.L13
 235 0046 E8E7     		b	.L12
 236              	.L20:
 237              		.align	2
 238              	.L19:
 239 0048 00000000 		.word	.LANCHOR0
 240 004c 00000000 		.word	_port_thread_start
 241              		.cfi_endproc
 242              	.LFE229:
 243              		.size	chThdCreateI, .-chThdCreateI
 244              		.section	.text.chThdCreateStatic,"ax",%progbits
 245              		.align	2
 246              		.p2align 4,,15
 247              		.global	chThdCreateStatic
 248              		.thumb
 249              		.thumb_func
 250              		.type	chThdCreateStatic, %function
 251              	chThdCreateStatic:
 252              	.LFB230:
 253              		.loc 1 209 0 is_stmt 1
 254              		.cfi_startproc
 255              		@ args = 4, pretend = 0, frame = 0
 256              		@ frame_needed = 0, uses_anonymous_args = 0
 257              	.LVL15:
 258 0000 2DE9F04F 		push	{r4, r5, r6, r7, r8, r9, r10, fp, lr}
 259              		.cfi_def_cfa_offset 36
 260              		.cfi_offset 4, -36
 261              		.cfi_offset 5, -32
 262              		.cfi_offset 6, -28
 263              		.cfi_offset 7, -24
 264              		.cfi_offset 8, -20
 265              		.cfi_offset 9, -16
 266              		.cfi_offset 10, -12
 267              		.cfi_offset 11, -8
 268              		.cfi_offset 14, -4
 269 0004 83B0     		sub	sp, sp, #12
 270              		.cfi_def_cfa_offset 48
 271              		.loc 1 209 0
 272 0006 8046     		mov	r8, r0
 273 0008 0C9F     		ldr	r7, [sp, #48]
 274 000a 8946     		mov	r9, r1
 275 000c 9246     		mov	r10, r2
 276 000e 9B46     		mov	fp, r3
 277              		.loc 1 213 0
 278 0010 00F16005 		add	r5, r0, #96
 279              	.LVL16:
 280 0014 0446     		mov	r4, r0
 281              	.LBB137:
 282              	.LBB138:
 283              		.loc 1 148 0
 284 0016 FF26     		movs	r6, #255
 285              	.LVL17:
ARM GAS  /tmp/cco9WT3o.s 			page 6


 286              	.L22:
 287 0018 04F8016B 		strb	r6, [r4], #1
 288              	.LVL18:
 289              		.loc 1 147 0
 290 001c A542     		cmp	r5, r4
 291 001e FBD1     		bne	.L22
 292              	.LVL19:
 293              	.LBE138:
 294              	.LBE137:
 295              		.loc 1 216 0
 296 0020 08EB0904 		add	r4, r8, r9
 297              	.LVL20:
 298              	.LBB139:
 299              	.LBB140:
 300              		.loc 1 147 0
 301 0024 A542     		cmp	r5, r4
 302              		.loc 1 148 0
 303 0026 38BF     		it	cc
 304 0028 5526     		movcc	r6, #85
 305              		.loc 1 147 0
 306 002a 03D2     		bcs	.L27
 307              	.L26:
 308              		.loc 1 148 0
 309 002c 05F8016B 		strb	r6, [r5], #1
 310              	.LVL21:
 311              		.loc 1 147 0
 312 0030 AC42     		cmp	r4, r5
 313 0032 FBD1     		bne	.L26
 314              	.L27:
 315              	.LVL22:
 316              	.LBE140:
 317              	.LBE139:
 318              	.LBB141:
 319              	.LBB142:
 320              	.LBB143:
 321              	.LBB144:
 322              	.LBB145:
 323              		.file 3 "/home/selim/working/ChibiOS/os/ext/CMSIS/include/core_cmFunc.h"
 324              		.loc 3 546 0
 325 0034 2023     		movs	r3, #32
 326              	.LVL23:
 327              		.syntax unified
 328              	@ 546 "/home/selim/working/ChibiOS/os/ext/CMSIS/include/core_cmFunc.h" 1
 329 0036 83F31188 		MSR basepri, r3
 330              	@ 0 "" 2
 331              	.LVL24:
 332              		.thumb
 333              		.syntax unified
 334              	.LBE145:
 335              	.LBE144:
 336              	.LBE143:
 337              		.file 4 "/home/selim/working/ChibiOS/os/rt/include/chsys.h"
 338              		.loc 4 349 0
 339 003a FFF7FEFF 		bl	_stats_start_measure_crit_thd
 340              	.LVL25:
 341              		.loc 4 350 0
 342 003e FFF7FEFF 		bl	_dbg_check_lock
ARM GAS  /tmp/cco9WT3o.s 			page 7


 343              	.LVL26:
 344              	.LBE142:
 345              	.LBE141:
 346              		.loc 1 222 0
 347 0042 5B46     		mov	r3, fp
 348 0044 5246     		mov	r2, r10
 349 0046 4946     		mov	r1, r9
 350 0048 0097     		str	r7, [sp]
 351 004a 4046     		mov	r0, r8
 352 004c FFF7FEFF 		bl	chThdCreateI
 353              	.LVL27:
 354              		.loc 1 223 0
 355 0050 0021     		movs	r1, #0
 356              		.loc 1 222 0
 357 0052 0446     		mov	r4, r0
 358              	.LVL28:
 359              		.loc 1 223 0
 360 0054 FFF7FEFF 		bl	chSchWakeupS
 361              	.LVL29:
 362              	.LBB146:
 363              	.LBB147:
 364              		.loc 4 360 0
 365 0058 FFF7FEFF 		bl	_dbg_check_unlock
 366              	.LVL30:
 367              		.loc 4 361 0
 368 005c FFF7FEFF 		bl	_stats_stop_measure_crit_thd
 369              	.LVL31:
 370              		.loc 4 367 0
 371 0060 094B     		ldr	r3, .L31
 372 0062 1A68     		ldr	r2, [r3]
 373 0064 9A42     		cmp	r2, r3
 374 0066 07D0     		beq	.L25
 375 0068 9969     		ldr	r1, [r3, #24]
 376 006a 9368     		ldr	r3, [r2, #8]
 377 006c 8A68     		ldr	r2, [r1, #8]
 378 006e 9A42     		cmp	r2, r3
 379 0070 02D2     		bcs	.L25
 380 0072 0648     		ldr	r0, .L31+4
 381 0074 FFF7FEFF 		bl	chSysHalt
 382              	.LVL32:
 383              	.L25:
 384              	.LBB148:
 385              	.LBB149:
 386              	.LBB150:
 387              		.loc 3 546 0
 388 0078 0023     		movs	r3, #0
 389              		.syntax unified
 390              	@ 546 "/home/selim/working/ChibiOS/os/ext/CMSIS/include/core_cmFunc.h" 1
 391 007a 83F31188 		MSR basepri, r3
 392              	@ 0 "" 2
 393              	.LVL33:
 394              		.thumb
 395              		.syntax unified
 396              	.LBE150:
 397              	.LBE149:
 398              	.LBE148:
 399              	.LBE147:
ARM GAS  /tmp/cco9WT3o.s 			page 8


 400              	.LBE146:
 401              		.loc 1 227 0
 402 007e 2046     		mov	r0, r4
 403 0080 03B0     		add	sp, sp, #12
 404              		.cfi_def_cfa_offset 36
 405              		@ sp needed
 406 0082 BDE8F08F 		pop	{r4, r5, r6, r7, r8, r9, r10, fp, pc}
 407              	.LVL34:
 408              	.L32:
 409 0086 00BF     		.align	2
 410              	.L31:
 411 0088 00000000 		.word	ch
 412 008c 00000000 		.word	.LANCHOR1
 413              		.cfi_endproc
 414              	.LFE230:
 415              		.size	chThdCreateStatic, .-chThdCreateStatic
 416              		.section	.text.chThdStart,"ax",%progbits
 417              		.align	2
 418              		.p2align 4,,15
 419              		.global	chThdStart
 420              		.thumb
 421              		.thumb_func
 422              		.type	chThdStart, %function
 423              	chThdStart:
 424              	.LFB231:
 425              		.loc 1 238 0
 426              		.cfi_startproc
 427              		@ args = 0, pretend = 0, frame = 0
 428              		@ frame_needed = 0, uses_anonymous_args = 0
 429              	.LVL35:
 430 0000 10B5     		push	{r4, lr}
 431              		.cfi_def_cfa_offset 8
 432              		.cfi_offset 4, -8
 433              		.cfi_offset 14, -4
 434              	.LBB163:
 435              	.LBB164:
 436              	.LBB165:
 437              	.LBB166:
 438              	.LBB167:
 439              		.loc 3 546 0
 440 0002 2023     		movs	r3, #32
 441              	.LBE167:
 442              	.LBE166:
 443              	.LBE165:
 444              	.LBE164:
 445              	.LBE163:
 446              		.loc 1 238 0
 447 0004 0446     		mov	r4, r0
 448              	.LBB172:
 449              	.LBB171:
 450              	.LBB170:
 451              	.LBB169:
 452              	.LBB168:
 453              		.loc 3 546 0
 454              		.syntax unified
 455              	@ 546 "/home/selim/working/ChibiOS/os/ext/CMSIS/include/core_cmFunc.h" 1
 456 0006 83F31188 		MSR basepri, r3
ARM GAS  /tmp/cco9WT3o.s 			page 9


 457              	@ 0 "" 2
 458              	.LVL36:
 459              		.thumb
 460              		.syntax unified
 461              	.LBE168:
 462              	.LBE169:
 463              	.LBE170:
 464              		.loc 4 349 0
 465 000a FFF7FEFF 		bl	_stats_start_measure_crit_thd
 466              	.LVL37:
 467              		.loc 4 350 0
 468 000e FFF7FEFF 		bl	_dbg_check_lock
 469              	.LVL38:
 470              	.LBE171:
 471              	.LBE172:
 472              	.LBB173:
 473              	.LBB174:
 474              		.file 5 "/home/selim/working/ChibiOS/os/rt/include/chthreads.h"
 475              		.loc 5 247 0
 476 0012 94F82030 		ldrb	r3, [r4, #32]	@ zero_extendqisi2
 477 0016 022B     		cmp	r3, #2
 478 0018 02D0     		beq	.L34
 479 001a 0E48     		ldr	r0, .L40
 480 001c FFF7FEFF 		bl	chSysHalt
 481              	.LVL39:
 482              	.L34:
 483              		.loc 5 249 0
 484 0020 2046     		mov	r0, r4
 485 0022 FFF7FEFF 		bl	chSchReadyI
 486              	.LVL40:
 487 0026 0446     		mov	r4, r0
 488              	.LVL41:
 489              	.LBE174:
 490              	.LBE173:
 491              	.LBB175:
 492              	.LBB176:
 493              		.loc 4 360 0
 494 0028 FFF7FEFF 		bl	_dbg_check_unlock
 495              	.LVL42:
 496              		.loc 4 361 0
 497 002c FFF7FEFF 		bl	_stats_stop_measure_crit_thd
 498              	.LVL43:
 499              		.loc 4 367 0
 500 0030 094B     		ldr	r3, .L40+4
 501 0032 1A68     		ldr	r2, [r3]
 502 0034 9A42     		cmp	r2, r3
 503 0036 07D0     		beq	.L35
 504 0038 9969     		ldr	r1, [r3, #24]
 505 003a 9368     		ldr	r3, [r2, #8]
 506 003c 8A68     		ldr	r2, [r1, #8]
 507 003e 9A42     		cmp	r2, r3
 508 0040 02D2     		bcs	.L35
 509 0042 0648     		ldr	r0, .L40+8
 510 0044 FFF7FEFF 		bl	chSysHalt
 511              	.LVL44:
 512              	.L35:
 513              	.LBB177:
ARM GAS  /tmp/cco9WT3o.s 			page 10


 514              	.LBB178:
 515              	.LBB179:
 516              		.loc 3 546 0
 517 0048 0023     		movs	r3, #0
 518              		.syntax unified
 519              	@ 546 "/home/selim/working/ChibiOS/os/ext/CMSIS/include/core_cmFunc.h" 1
 520 004a 83F31188 		MSR basepri, r3
 521              	@ 0 "" 2
 522              	.LVL45:
 523              		.thumb
 524              		.syntax unified
 525              	.LBE179:
 526              	.LBE178:
 527              	.LBE177:
 528              	.LBE176:
 529              	.LBE175:
 530              		.loc 1 245 0
 531 004e 2046     		mov	r0, r4
 532 0050 10BD     		pop	{r4, pc}
 533              	.L41:
 534 0052 00BF     		.align	2
 535              	.L40:
 536 0054 00000000 		.word	.LANCHOR2
 537 0058 00000000 		.word	ch
 538 005c 00000000 		.word	.LANCHOR1
 539              		.cfi_endproc
 540              	.LFE231:
 541              		.size	chThdStart, .-chThdStart
 542              		.section	.text.chThdSetPriority,"ax",%progbits
 543              		.align	2
 544              		.p2align 4,,15
 545              		.global	chThdSetPriority
 546              		.thumb
 547              		.thumb_func
 548              		.type	chThdSetPriority, %function
 549              	chThdSetPriority:
 550              	.LFB232:
 551              		.loc 1 259 0
 552              		.cfi_startproc
 553              		@ args = 0, pretend = 0, frame = 0
 554              		@ frame_needed = 0, uses_anonymous_args = 0
 555              	.LVL46:
 556              		.loc 1 262 0
 557 0000 7F28     		cmp	r0, #127
 558              		.loc 1 259 0
 559 0002 70B5     		push	{r4, r5, r6, lr}
 560              		.cfi_def_cfa_offset 16
 561              		.cfi_offset 4, -16
 562              		.cfi_offset 5, -12
 563              		.cfi_offset 6, -8
 564              		.cfi_offset 14, -4
 565              		.loc 1 259 0
 566 0004 0446     		mov	r4, r0
 567              		.loc 1 262 0
 568 0006 27D8     		bhi	.L48
 569              	.LVL47:
 570              	.L43:
ARM GAS  /tmp/cco9WT3o.s 			page 11


 571              	.LBB190:
 572              	.LBB191:
 573              	.LBB192:
 574              	.LBB193:
 575              	.LBB194:
 576              		.loc 3 546 0
 577 0008 2023     		movs	r3, #32
 578              		.syntax unified
 579              	@ 546 "/home/selim/working/ChibiOS/os/ext/CMSIS/include/core_cmFunc.h" 1
 580 000a 83F31188 		MSR basepri, r3
 581              	@ 0 "" 2
 582              	.LVL48:
 583              		.thumb
 584              		.syntax unified
 585              	.LBE194:
 586              	.LBE193:
 587              	.LBE192:
 588              	.LBE191:
 589              	.LBE190:
 590              		.loc 1 266 0
 591 000e 144D     		ldr	r5, .L49
 592              	.LBB196:
 593              	.LBB195:
 594              		.loc 4 349 0
 595 0010 FFF7FEFF 		bl	_stats_start_measure_crit_thd
 596              	.LVL49:
 597              		.loc 4 350 0
 598 0014 FFF7FEFF 		bl	_dbg_check_lock
 599              	.LVL50:
 600              	.LBE195:
 601              	.LBE196:
 602              		.loc 1 266 0
 603 0018 AB69     		ldr	r3, [r5, #24]
 604 001a 1E6C     		ldr	r6, [r3, #64]
 605              	.LVL51:
 606              		.loc 1 267 0
 607 001c 9A68     		ldr	r2, [r3, #8]
 608 001e 9642     		cmp	r6, r2
 609 0020 01D0     		beq	.L44
 610              		.loc 1 267 0 is_stmt 0 discriminator 1
 611 0022 9442     		cmp	r4, r2
 612 0024 00D9     		bls	.L45
 613              	.L44:
 614              		.loc 1 268 0 is_stmt 1
 615 0026 9C60     		str	r4, [r3, #8]
 616              	.L45:
 617              		.loc 1 270 0
 618 0028 1C64     		str	r4, [r3, #64]
 619              		.loc 1 275 0
 620 002a FFF7FEFF 		bl	chSchRescheduleS
 621              	.LVL52:
 622              	.LBB197:
 623              	.LBB198:
 624              		.loc 4 360 0
 625 002e FFF7FEFF 		bl	_dbg_check_unlock
 626              	.LVL53:
 627              		.loc 4 361 0
ARM GAS  /tmp/cco9WT3o.s 			page 12


 628 0032 FFF7FEFF 		bl	_stats_stop_measure_crit_thd
 629              	.LVL54:
 630              		.loc 4 367 0
 631 0036 2B68     		ldr	r3, [r5]
 632 0038 094A     		ldr	r2, .L49
 633 003a AB42     		cmp	r3, r5
 634 003c 07D0     		beq	.L46
 635 003e 9269     		ldr	r2, [r2, #24]
 636 0040 9B68     		ldr	r3, [r3, #8]
 637 0042 9268     		ldr	r2, [r2, #8]
 638 0044 9A42     		cmp	r2, r3
 639 0046 02D2     		bcs	.L46
 640 0048 0648     		ldr	r0, .L49+4
 641 004a FFF7FEFF 		bl	chSysHalt
 642              	.LVL55:
 643              	.L46:
 644              	.LBB199:
 645              	.LBB200:
 646              	.LBB201:
 647              		.loc 3 546 0
 648 004e 0023     		movs	r3, #0
 649              		.syntax unified
 650              	@ 546 "/home/selim/working/ChibiOS/os/ext/CMSIS/include/core_cmFunc.h" 1
 651 0050 83F31188 		MSR basepri, r3
 652              	@ 0 "" 2
 653              	.LVL56:
 654              		.thumb
 655              		.syntax unified
 656              	.LBE201:
 657              	.LBE200:
 658              	.LBE199:
 659              	.LBE198:
 660              	.LBE197:
 661              		.loc 1 279 0
 662 0054 3046     		mov	r0, r6
 663 0056 70BD     		pop	{r4, r5, r6, pc}
 664              	.LVL57:
 665              	.L48:
 666              		.loc 1 262 0 discriminator 2
 667 0058 0348     		ldr	r0, .L49+8
 668              	.LVL58:
 669 005a FFF7FEFF 		bl	chSysHalt
 670              	.LVL59:
 671 005e D3E7     		b	.L43
 672              	.L50:
 673              		.align	2
 674              	.L49:
 675 0060 00000000 		.word	ch
 676 0064 00000000 		.word	.LANCHOR1
 677 0068 00000000 		.word	.LANCHOR3
 678              		.cfi_endproc
 679              	.LFE232:
 680              		.size	chThdSetPriority, .-chThdSetPriority
 681              		.section	.text.chThdTerminate,"ax",%progbits
 682              		.align	2
 683              		.p2align 4,,15
 684              		.global	chThdTerminate
ARM GAS  /tmp/cco9WT3o.s 			page 13


 685              		.thumb
 686              		.thumb_func
 687              		.type	chThdTerminate, %function
 688              	chThdTerminate:
 689              	.LFB233:
 690              		.loc 1 293 0
 691              		.cfi_startproc
 692              		@ args = 0, pretend = 0, frame = 0
 693              		@ frame_needed = 0, uses_anonymous_args = 0
 694              	.LVL60:
 695 0000 10B5     		push	{r4, lr}
 696              		.cfi_def_cfa_offset 8
 697              		.cfi_offset 4, -8
 698              		.cfi_offset 14, -4
 699              	.LBB212:
 700              	.LBB213:
 701              	.LBB214:
 702              	.LBB215:
 703              	.LBB216:
 704              		.loc 3 546 0
 705 0002 2023     		movs	r3, #32
 706              	.LBE216:
 707              	.LBE215:
 708              	.LBE214:
 709              	.LBE213:
 710              	.LBE212:
 711              		.loc 1 293 0
 712 0004 0446     		mov	r4, r0
 713              	.LBB221:
 714              	.LBB220:
 715              	.LBB219:
 716              	.LBB218:
 717              	.LBB217:
 718              		.loc 3 546 0
 719              		.syntax unified
 720              	@ 546 "/home/selim/working/ChibiOS/os/ext/CMSIS/include/core_cmFunc.h" 1
 721 0006 83F31188 		MSR basepri, r3
 722              	@ 0 "" 2
 723              	.LVL61:
 724              		.thumb
 725              		.syntax unified
 726              	.LBE217:
 727              	.LBE218:
 728              	.LBE219:
 729              		.loc 4 349 0
 730 000a FFF7FEFF 		bl	_stats_start_measure_crit_thd
 731              	.LVL62:
 732              		.loc 4 350 0
 733 000e FFF7FEFF 		bl	_dbg_check_lock
 734              	.LVL63:
 735              	.LBE220:
 736              	.LBE221:
 737              		.loc 1 296 0
 738 0012 94F82130 		ldrb	r3, [r4, #33]	@ zero_extendqisi2
 739 0016 43F00403 		orr	r3, r3, #4
 740 001a 84F82130 		strb	r3, [r4, #33]
 741              	.LBB222:
ARM GAS  /tmp/cco9WT3o.s 			page 14


 742              	.LBB223:
 743              		.loc 4 360 0
 744 001e FFF7FEFF 		bl	_dbg_check_unlock
 745              	.LVL64:
 746              		.loc 4 361 0
 747 0022 FFF7FEFF 		bl	_stats_stop_measure_crit_thd
 748              	.LVL65:
 749              		.loc 4 367 0
 750 0026 084B     		ldr	r3, .L54
 751 0028 1A68     		ldr	r2, [r3]
 752 002a 9A42     		cmp	r2, r3
 753 002c 07D0     		beq	.L52
 754 002e 9969     		ldr	r1, [r3, #24]
 755 0030 9368     		ldr	r3, [r2, #8]
 756 0032 8A68     		ldr	r2, [r1, #8]
 757 0034 9A42     		cmp	r2, r3
 758 0036 02D2     		bcs	.L52
 759 0038 0448     		ldr	r0, .L54+4
 760 003a FFF7FEFF 		bl	chSysHalt
 761              	.LVL66:
 762              	.L52:
 763              	.LBB224:
 764              	.LBB225:
 765              	.LBB226:
 766              		.loc 3 546 0
 767 003e 0023     		movs	r3, #0
 768              		.syntax unified
 769              	@ 546 "/home/selim/working/ChibiOS/os/ext/CMSIS/include/core_cmFunc.h" 1
 770 0040 83F31188 		MSR basepri, r3
 771              	@ 0 "" 2
 772              	.LVL67:
 773              		.thumb
 774              		.syntax unified
 775 0044 10BD     		pop	{r4, pc}
 776              	.LVL68:
 777              	.L55:
 778 0046 00BF     		.align	2
 779              	.L54:
 780 0048 00000000 		.word	ch
 781 004c 00000000 		.word	.LANCHOR1
 782              	.LBE226:
 783              	.LBE225:
 784              	.LBE224:
 785              	.LBE223:
 786              	.LBE222:
 787              		.cfi_endproc
 788              	.LFE233:
 789              		.size	chThdTerminate, .-chThdTerminate
 790              		.section	.text.chThdSleep,"ax",%progbits
 791              		.align	2
 792              		.p2align 4,,15
 793              		.global	chThdSleep
 794              		.thumb
 795              		.thumb_func
 796              		.type	chThdSleep, %function
 797              	chThdSleep:
 798              	.LFB234:
ARM GAS  /tmp/cco9WT3o.s 			page 15


 799              		.loc 1 312 0
 800              		.cfi_startproc
 801              		@ args = 0, pretend = 0, frame = 0
 802              		@ frame_needed = 0, uses_anonymous_args = 0
 803              	.LVL69:
 804 0000 10B5     		push	{r4, lr}
 805              		.cfi_def_cfa_offset 8
 806              		.cfi_offset 4, -8
 807              		.cfi_offset 14, -4
 808              	.LBB239:
 809              	.LBB240:
 810              	.LBB241:
 811              	.LBB242:
 812              	.LBB243:
 813              		.loc 3 546 0
 814 0002 2023     		movs	r3, #32
 815              	.LBE243:
 816              	.LBE242:
 817              	.LBE241:
 818              	.LBE240:
 819              	.LBE239:
 820              		.loc 1 312 0
 821 0004 0446     		mov	r4, r0
 822              	.LBB248:
 823              	.LBB247:
 824              	.LBB246:
 825              	.LBB245:
 826              	.LBB244:
 827              		.loc 3 546 0
 828              		.syntax unified
 829              	@ 546 "/home/selim/working/ChibiOS/os/ext/CMSIS/include/core_cmFunc.h" 1
 830 0006 83F31188 		MSR basepri, r3
 831              	@ 0 "" 2
 832              	.LVL70:
 833              		.thumb
 834              		.syntax unified
 835              	.LBE244:
 836              	.LBE245:
 837              	.LBE246:
 838              		.loc 4 349 0
 839 000a FFF7FEFF 		bl	_stats_start_measure_crit_thd
 840              	.LVL71:
 841              		.loc 4 350 0
 842 000e FFF7FEFF 		bl	_dbg_check_lock
 843              	.LVL72:
 844              	.LBE247:
 845              	.LBE248:
 846              	.LBB249:
 847              	.LBB250:
 848              		.loc 5 266 0
 849 0012 14B9     		cbnz	r4, .L57
 850 0014 0D48     		ldr	r0, .L60
 851 0016 FFF7FEFF 		bl	chSysHalt
 852              	.LVL73:
 853              	.L57:
 854              		.loc 5 268 0
 855 001a 2146     		mov	r1, r4
ARM GAS  /tmp/cco9WT3o.s 			page 16


 856 001c 0820     		movs	r0, #8
 857 001e FFF7FEFF 		bl	chSchGoSleepTimeoutS
 858              	.LVL74:
 859              	.LBE250:
 860              	.LBE249:
 861              	.LBB251:
 862              	.LBB252:
 863              		.loc 4 360 0
 864 0022 FFF7FEFF 		bl	_dbg_check_unlock
 865              	.LVL75:
 866              		.loc 4 361 0
 867 0026 FFF7FEFF 		bl	_stats_stop_measure_crit_thd
 868              	.LVL76:
 869              		.loc 4 367 0
 870 002a 094B     		ldr	r3, .L60+4
 871 002c 1A68     		ldr	r2, [r3]
 872 002e 9A42     		cmp	r2, r3
 873 0030 07D0     		beq	.L58
 874 0032 9969     		ldr	r1, [r3, #24]
 875 0034 9368     		ldr	r3, [r2, #8]
 876 0036 8A68     		ldr	r2, [r1, #8]
 877 0038 9A42     		cmp	r2, r3
 878 003a 02D2     		bcs	.L58
 879 003c 0548     		ldr	r0, .L60+8
 880 003e FFF7FEFF 		bl	chSysHalt
 881              	.LVL77:
 882              	.L58:
 883              	.LBB253:
 884              	.LBB254:
 885              	.LBB255:
 886              		.loc 3 546 0
 887 0042 0023     		movs	r3, #0
 888              		.syntax unified
 889              	@ 546 "/home/selim/working/ChibiOS/os/ext/CMSIS/include/core_cmFunc.h" 1
 890 0044 83F31188 		MSR basepri, r3
 891              	@ 0 "" 2
 892              	.LVL78:
 893              		.thumb
 894              		.syntax unified
 895 0048 10BD     		pop	{r4, pc}
 896              	.LVL79:
 897              	.L61:
 898 004a 00BF     		.align	2
 899              	.L60:
 900 004c 00000000 		.word	.LANCHOR4
 901 0050 00000000 		.word	ch
 902 0054 00000000 		.word	.LANCHOR1
 903              	.LBE255:
 904              	.LBE254:
 905              	.LBE253:
 906              	.LBE252:
 907              	.LBE251:
 908              		.cfi_endproc
 909              	.LFE234:
 910              		.size	chThdSleep, .-chThdSleep
 911              		.section	.text.chThdSleepUntil,"ax",%progbits
 912              		.align	2
ARM GAS  /tmp/cco9WT3o.s 			page 17


 913              		.p2align 4,,15
 914              		.global	chThdSleepUntil
 915              		.thumb
 916              		.thumb_func
 917              		.type	chThdSleepUntil, %function
 918              	chThdSleepUntil:
 919              	.LFB235:
 920              		.loc 1 332 0
 921              		.cfi_startproc
 922              		@ args = 0, pretend = 0, frame = 0
 923              		@ frame_needed = 0, uses_anonymous_args = 0
 924              	.LVL80:
 925 0000 10B5     		push	{r4, lr}
 926              		.cfi_def_cfa_offset 8
 927              		.cfi_offset 4, -8
 928              		.cfi_offset 14, -4
 929              	.LBB272:
 930              	.LBB273:
 931              	.LBB274:
 932              	.LBB275:
 933              	.LBB276:
 934              		.loc 3 546 0
 935 0002 2023     		movs	r3, #32
 936              	.LBE276:
 937              	.LBE275:
 938              	.LBE274:
 939              	.LBE273:
 940              	.LBE272:
 941              		.loc 1 332 0
 942 0004 0446     		mov	r4, r0
 943              	.LBB281:
 944              	.LBB280:
 945              	.LBB279:
 946              	.LBB278:
 947              	.LBB277:
 948              		.loc 3 546 0
 949              		.syntax unified
 950              	@ 546 "/home/selim/working/ChibiOS/os/ext/CMSIS/include/core_cmFunc.h" 1
 951 0006 83F31188 		MSR basepri, r3
 952              	@ 0 "" 2
 953              	.LVL81:
 954              		.thumb
 955              		.syntax unified
 956              	.LBE277:
 957              	.LBE278:
 958              	.LBE279:
 959              		.loc 4 349 0
 960 000a FFF7FEFF 		bl	_stats_start_measure_crit_thd
 961              	.LVL82:
 962              		.loc 4 350 0
 963 000e FFF7FEFF 		bl	_dbg_check_lock
 964              	.LVL83:
 965              	.LBE280:
 966              	.LBE281:
 967              	.LBB282:
 968              	.LBB283:
 969              	.LBB284:
ARM GAS  /tmp/cco9WT3o.s 			page 18


 970              	.LBB285:
 971              		.file 6 "/home/selim/working/ChibiOS/os/hal/ports/STM32/LLD/TIMv1/st_lld.h"
 972              		.loc 6 129 0
 973 0012 4FF08043 		mov	r3, #1073741824
 974 0016 596A     		ldr	r1, [r3, #36]
 975              	.LVL84:
 976              	.LBE285:
 977              	.LBE284:
 978              	.LBE283:
 979              	.LBE282:
 980              		.loc 1 336 0
 981 0018 611A     		subs	r1, r4, r1
 982              	.LVL85:
 983 001a 02D0     		beq	.L63
 984              	.LVL86:
 985              	.LBB286:
 986              	.LBB287:
 987              		.loc 5 268 0
 988 001c 0820     		movs	r0, #8
 989 001e FFF7FEFF 		bl	chSchGoSleepTimeoutS
 990              	.LVL87:
 991              	.L63:
 992              	.LBE287:
 993              	.LBE286:
 994              	.LBB288:
 995              	.LBB289:
 996              		.loc 4 360 0
 997 0022 FFF7FEFF 		bl	_dbg_check_unlock
 998              	.LVL88:
 999              		.loc 4 361 0
 1000 0026 FFF7FEFF 		bl	_stats_stop_measure_crit_thd
 1001              	.LVL89:
 1002              		.loc 4 367 0
 1003 002a 084B     		ldr	r3, .L69
 1004 002c 1A68     		ldr	r2, [r3]
 1005 002e 9A42     		cmp	r2, r3
 1006 0030 07D0     		beq	.L64
 1007 0032 9969     		ldr	r1, [r3, #24]
 1008 0034 9368     		ldr	r3, [r2, #8]
 1009 0036 8A68     		ldr	r2, [r1, #8]
 1010 0038 9A42     		cmp	r2, r3
 1011 003a 02D2     		bcs	.L64
 1012 003c 0448     		ldr	r0, .L69+4
 1013 003e FFF7FEFF 		bl	chSysHalt
 1014              	.LVL90:
 1015              	.L64:
 1016              	.LBB290:
 1017              	.LBB291:
 1018              	.LBB292:
 1019              		.loc 3 546 0
 1020 0042 0023     		movs	r3, #0
 1021              		.syntax unified
 1022              	@ 546 "/home/selim/working/ChibiOS/os/ext/CMSIS/include/core_cmFunc.h" 1
 1023 0044 83F31188 		MSR basepri, r3
 1024              	@ 0 "" 2
 1025              	.LVL91:
 1026              		.thumb
ARM GAS  /tmp/cco9WT3o.s 			page 19


 1027              		.syntax unified
 1028 0048 10BD     		pop	{r4, pc}
 1029              	.L70:
 1030 004a 00BF     		.align	2
 1031              	.L69:
 1032 004c 00000000 		.word	ch
 1033 0050 00000000 		.word	.LANCHOR1
 1034              	.LBE292:
 1035              	.LBE291:
 1036              	.LBE290:
 1037              	.LBE289:
 1038              	.LBE288:
 1039              		.cfi_endproc
 1040              	.LFE235:
 1041              		.size	chThdSleepUntil, .-chThdSleepUntil
 1042              		.section	.text.chThdSleepUntilWindowed,"ax",%progbits
 1043              		.align	2
 1044              		.p2align 4,,15
 1045              		.global	chThdSleepUntilWindowed
 1046              		.thumb
 1047              		.thumb_func
 1048              		.type	chThdSleepUntilWindowed, %function
 1049              	chThdSleepUntilWindowed:
 1050              	.LFB236:
 1051              		.loc 1 356 0
 1052              		.cfi_startproc
 1053              		@ args = 0, pretend = 0, frame = 0
 1054              		@ frame_needed = 0, uses_anonymous_args = 0
 1055              	.LVL92:
 1056 0000 38B5     		push	{r3, r4, r5, lr}
 1057              		.cfi_def_cfa_offset 16
 1058              		.cfi_offset 3, -16
 1059              		.cfi_offset 4, -12
 1060              		.cfi_offset 5, -8
 1061              		.cfi_offset 14, -4
 1062              		.loc 1 356 0
 1063 0002 0446     		mov	r4, r0
 1064 0004 0D46     		mov	r5, r1
 1065              	.LBB311:
 1066              	.LBB312:
 1067              	.LBB313:
 1068              	.LBB314:
 1069              	.LBB315:
 1070              		.loc 3 546 0
 1071 0006 2023     		movs	r3, #32
 1072              		.syntax unified
 1073              	@ 546 "/home/selim/working/ChibiOS/os/ext/CMSIS/include/core_cmFunc.h" 1
 1074 0008 83F31188 		MSR basepri, r3
 1075              	@ 0 "" 2
 1076              	.LVL93:
 1077              		.thumb
 1078              		.syntax unified
 1079              	.LBE315:
 1080              	.LBE314:
 1081              	.LBE313:
 1082              		.loc 4 349 0
 1083 000c FFF7FEFF 		bl	_stats_start_measure_crit_thd
ARM GAS  /tmp/cco9WT3o.s 			page 20


 1084              	.LVL94:
 1085              		.loc 4 350 0
 1086 0010 FFF7FEFF 		bl	_dbg_check_lock
 1087              	.LVL95:
 1088              	.LBE312:
 1089              	.LBE311:
 1090              	.LBB316:
 1091              	.LBB317:
 1092              	.LBB318:
 1093              	.LBB319:
 1094              		.loc 6 129 0
 1095 0014 4FF08042 		mov	r2, #1073741824
 1096              	.LBE319:
 1097              	.LBE318:
 1098              	.LBE317:
 1099              	.LBE316:
 1100              		.loc 1 361 0
 1101 0018 2B1B     		subs	r3, r5, r4
 1102              	.LBB323:
 1103              	.LBB322:
 1104              	.LBB321:
 1105              	.LBB320:
 1106              		.loc 6 129 0
 1107 001a 516A     		ldr	r1, [r2, #36]
 1108              	.LBE320:
 1109              	.LBE321:
 1110              	.LBE322:
 1111              	.LBE323:
 1112              		.loc 1 361 0
 1113 001c 0C1B     		subs	r4, r1, r4
 1114              	.LVL96:
 1115 001e 9C42     		cmp	r4, r3
 1116 0020 14D3     		bcc	.L76
 1117              	.L72:
 1118              	.LBB324:
 1119              	.LBB325:
 1120              		.loc 4 360 0
 1121 0022 FFF7FEFF 		bl	_dbg_check_unlock
 1122              	.LVL97:
 1123              		.loc 4 361 0
 1124 0026 FFF7FEFF 		bl	_stats_stop_measure_crit_thd
 1125              	.LVL98:
 1126              		.loc 4 367 0
 1127 002a 0D4B     		ldr	r3, .L77
 1128 002c 1A68     		ldr	r2, [r3]
 1129 002e 9A42     		cmp	r2, r3
 1130 0030 07D0     		beq	.L74
 1131 0032 9969     		ldr	r1, [r3, #24]
 1132 0034 9368     		ldr	r3, [r2, #8]
 1133 0036 8A68     		ldr	r2, [r1, #8]
 1134 0038 9A42     		cmp	r2, r3
 1135 003a 02D2     		bcs	.L74
 1136 003c 0948     		ldr	r0, .L77+4
 1137 003e FFF7FEFF 		bl	chSysHalt
 1138              	.LVL99:
 1139              	.L74:
 1140              	.LBB326:
ARM GAS  /tmp/cco9WT3o.s 			page 21


 1141              	.LBB327:
 1142              	.LBB328:
 1143              		.loc 3 546 0
 1144 0042 0023     		movs	r3, #0
 1145              		.syntax unified
 1146              	@ 546 "/home/selim/working/ChibiOS/os/ext/CMSIS/include/core_cmFunc.h" 1
 1147 0044 83F31188 		MSR basepri, r3
 1148              	@ 0 "" 2
 1149              	.LVL100:
 1150              		.thumb
 1151              		.syntax unified
 1152              	.LBE328:
 1153              	.LBE327:
 1154              	.LBE326:
 1155              	.LBE325:
 1156              	.LBE324:
 1157              		.loc 1 367 0
 1158 0048 2846     		mov	r0, r5
 1159 004a 38BD     		pop	{r3, r4, r5, pc}
 1160              	.LVL101:
 1161              	.L76:
 1162              	.LBB329:
 1163              	.LBB330:
 1164              		.loc 5 266 0
 1165 004c 6C1A     		subs	r4, r5, r1
 1166              	.LVL102:
 1167 004e 02D1     		bne	.L73
 1168 0050 0548     		ldr	r0, .L77+8
 1169 0052 FFF7FEFF 		bl	chSysHalt
 1170              	.LVL103:
 1171              	.L73:
 1172              		.loc 5 268 0
 1173 0056 2146     		mov	r1, r4
 1174 0058 0820     		movs	r0, #8
 1175 005a FFF7FEFF 		bl	chSchGoSleepTimeoutS
 1176              	.LVL104:
 1177 005e E0E7     		b	.L72
 1178              	.L78:
 1179              		.align	2
 1180              	.L77:
 1181 0060 00000000 		.word	ch
 1182 0064 00000000 		.word	.LANCHOR1
 1183 0068 00000000 		.word	.LANCHOR4
 1184              	.LBE330:
 1185              	.LBE329:
 1186              		.cfi_endproc
 1187              	.LFE236:
 1188              		.size	chThdSleepUntilWindowed, .-chThdSleepUntilWindowed
 1189              		.section	.text.chThdYield,"ax",%progbits
 1190              		.align	2
 1191              		.p2align 4,,15
 1192              		.global	chThdYield
 1193              		.thumb
 1194              		.thumb_func
 1195              		.type	chThdYield, %function
 1196              	chThdYield:
 1197              	.LFB237:
ARM GAS  /tmp/cco9WT3o.s 			page 22


 1198              		.loc 1 376 0
 1199              		.cfi_startproc
 1200              		@ args = 0, pretend = 0, frame = 0
 1201              		@ frame_needed = 0, uses_anonymous_args = 0
 1202              	.LVL105:
 1203 0000 10B5     		push	{r4, lr}
 1204              		.cfi_def_cfa_offset 8
 1205              		.cfi_offset 4, -8
 1206              		.cfi_offset 14, -4
 1207              	.LBB345:
 1208              	.LBB346:
 1209              	.LBB347:
 1210              	.LBB348:
 1211              	.LBB349:
 1212              		.loc 3 546 0
 1213 0002 2023     		movs	r3, #32
 1214              		.syntax unified
 1215              	@ 546 "/home/selim/working/ChibiOS/os/ext/CMSIS/include/core_cmFunc.h" 1
 1216 0004 83F31188 		MSR basepri, r3
 1217              	@ 0 "" 2
 1218              	.LVL106:
 1219              		.thumb
 1220              		.syntax unified
 1221              	.LBE349:
 1222              	.LBE348:
 1223              	.LBE347:
 1224              	.LBE346:
 1225              	.LBE345:
 1226              	.LBB351:
 1227              	.LBB352:
 1228              	.LBB353:
 1229              	.LBB354:
 1230              		.loc 2 731 0
 1231 0008 124C     		ldr	r4, .L83
 1232              	.LBE354:
 1233              	.LBE353:
 1234              	.LBE352:
 1235              	.LBE351:
 1236              	.LBB358:
 1237              	.LBB350:
 1238              		.loc 4 349 0
 1239 000a FFF7FEFF 		bl	_stats_start_measure_crit_thd
 1240              	.LVL107:
 1241              		.loc 4 350 0
 1242 000e FFF7FEFF 		bl	_dbg_check_lock
 1243              	.LVL108:
 1244              	.LBE350:
 1245              	.LBE358:
 1246              	.LBB359:
 1247              	.LBB357:
 1248              		.loc 2 743 0
 1249 0012 FFF7FEFF 		bl	chDbgCheckClassS
 1250              	.LVL109:
 1251              	.LBB356:
 1252              	.LBB355:
 1253              		.loc 2 729 0
 1254 0016 FFF7FEFF 		bl	chDbgCheckClassS
ARM GAS  /tmp/cco9WT3o.s 			page 23


 1255              	.LVL110:
 1256              		.loc 2 731 0
 1257 001a 2268     		ldr	r2, [r4]
 1258 001c A369     		ldr	r3, [r4, #24]
 1259              	.LBE355:
 1260              	.LBE356:
 1261              		.loc 2 745 0
 1262 001e 9268     		ldr	r2, [r2, #8]
 1263 0020 9B68     		ldr	r3, [r3, #8]
 1264 0022 9A42     		cmp	r2, r3
 1265 0024 01D3     		bcc	.L80
 1266              		.loc 2 746 0
 1267 0026 FFF7FEFF 		bl	chSchDoRescheduleBehind
 1268              	.LVL111:
 1269              	.L80:
 1270              	.LBE357:
 1271              	.LBE359:
 1272              	.LBB360:
 1273              	.LBB361:
 1274              		.loc 4 360 0
 1275 002a FFF7FEFF 		bl	_dbg_check_unlock
 1276              	.LVL112:
 1277              		.loc 4 361 0
 1278 002e FFF7FEFF 		bl	_stats_stop_measure_crit_thd
 1279              	.LVL113:
 1280              		.loc 4 367 0
 1281 0032 2368     		ldr	r3, [r4]
 1282 0034 074A     		ldr	r2, .L83
 1283 0036 A342     		cmp	r3, r4
 1284 0038 07D0     		beq	.L81
 1285 003a 9269     		ldr	r2, [r2, #24]
 1286 003c 9B68     		ldr	r3, [r3, #8]
 1287 003e 9268     		ldr	r2, [r2, #8]
 1288 0040 9A42     		cmp	r2, r3
 1289 0042 02D2     		bcs	.L81
 1290 0044 0448     		ldr	r0, .L83+4
 1291 0046 FFF7FEFF 		bl	chSysHalt
 1292              	.LVL114:
 1293              	.L81:
 1294              	.LBB362:
 1295              	.LBB363:
 1296              	.LBB364:
 1297              		.loc 3 546 0
 1298 004a 0023     		movs	r3, #0
 1299              		.syntax unified
 1300              	@ 546 "/home/selim/working/ChibiOS/os/ext/CMSIS/include/core_cmFunc.h" 1
 1301 004c 83F31188 		MSR basepri, r3
 1302              	@ 0 "" 2
 1303              	.LVL115:
 1304              		.thumb
 1305              		.syntax unified
 1306 0050 10BD     		pop	{r4, pc}
 1307              	.L84:
 1308 0052 00BF     		.align	2
 1309              	.L83:
 1310 0054 00000000 		.word	ch
 1311 0058 00000000 		.word	.LANCHOR1
ARM GAS  /tmp/cco9WT3o.s 			page 24


 1312              	.LBE364:
 1313              	.LBE363:
 1314              	.LBE362:
 1315              	.LBE361:
 1316              	.LBE360:
 1317              		.cfi_endproc
 1318              	.LFE237:
 1319              		.size	chThdYield, .-chThdYield
 1320              		.section	.text.chThdExitS,"ax",%progbits
 1321              		.align	2
 1322              		.p2align 4,,15
 1323              		.global	chThdExitS
 1324              		.thumb
 1325              		.thumb_func
 1326              		.type	chThdExitS, %function
 1327              	chThdExitS:
 1328              	.LFB239:
 1329              		.loc 1 418 0
 1330              		.cfi_startproc
 1331              		@ args = 0, pretend = 0, frame = 0
 1332              		@ frame_needed = 0, uses_anonymous_args = 0
 1333              	.LVL116:
 1334 0000 38B5     		push	{r3, r4, r5, lr}
 1335              		.cfi_def_cfa_offset 16
 1336              		.cfi_offset 3, -16
 1337              		.cfi_offset 4, -12
 1338              		.cfi_offset 5, -8
 1339              		.cfi_offset 14, -4
 1340              		.loc 1 419 0
 1341 0002 104B     		ldr	r3, .L93
 1342 0004 9C69     		ldr	r4, [r3, #24]
 1343              	.LVL117:
 1344              	.LBB365:
 1345              	.LBB366:
 1346              		.loc 2 592 0
 1347 0006 A36A     		ldr	r3, [r4, #40]
 1348              	.LBE366:
 1349              	.LBE365:
 1350              		.loc 1 421 0
 1351 0008 6062     		str	r0, [r4, #36]
 1352              		.loc 1 426 0
 1353 000a 04F12805 		add	r5, r4, #40
 1354 000e 9D42     		cmp	r5, r3
 1355 0010 07D0     		beq	.L90
 1356              	.LVL118:
 1357              	.L89:
 1358              	.LBB368:
 1359              	.LBB369:
 1360              		.loc 2 646 0
 1361 0012 1A68     		ldr	r2, [r3]
 1362 0014 A262     		str	r2, [r4, #40]
 1363              	.LVL119:
 1364              	.LBE369:
 1365              	.LBE368:
 1366              		.loc 1 427 0
 1367 0016 1846     		mov	r0, r3
 1368 0018 FFF7FEFF 		bl	chSchReadyI
ARM GAS  /tmp/cco9WT3o.s 			page 25


 1369              	.LVL120:
 1370              	.LBB370:
 1371              	.LBB367:
 1372              		.loc 2 592 0
 1373 001c A36A     		ldr	r3, [r4, #40]
 1374              	.LVL121:
 1375              	.LBE367:
 1376              	.LBE370:
 1377              		.loc 1 426 0
 1378 001e AB42     		cmp	r3, r5
 1379 0020 F7D1     		bne	.L89
 1380              	.L90:
 1381              		.loc 1 433 0
 1382 0022 94F82130 		ldrb	r3, [r4, #33]	@ zero_extendqisi2
 1383 0026 9B07     		lsls	r3, r3, #30
 1384 0028 04D1     		bne	.L88
 1385              		.loc 1 434 0
 1386 002a 6369     		ldr	r3, [r4, #20]
 1387 002c 2269     		ldr	r2, [r4, #16]
 1388 002e 1A61     		str	r2, [r3, #16]
 1389 0030 2269     		ldr	r2, [r4, #16]
 1390 0032 5361     		str	r3, [r2, #20]
 1391              	.L88:
 1392              		.loc 1 437 0
 1393 0034 0F20     		movs	r0, #15
 1394 0036 FFF7FEFF 		bl	chSchGoSleepS
 1395              	.LVL122:
 1396              		.loc 1 440 0
 1397 003a 0348     		ldr	r0, .L93+4
 1398              		.loc 1 441 0
 1399 003c BDE83840 		pop	{r3, r4, r5, lr}
 1400              		.cfi_restore 14
 1401              		.cfi_restore 5
 1402              		.cfi_restore 4
 1403              		.cfi_restore 3
 1404              		.cfi_def_cfa_offset 0
 1405              	.LVL123:
 1406              		.loc 1 440 0
 1407 0040 FFF7FEBF 		b	chSysHalt
 1408              	.LVL124:
 1409              	.L94:
 1410              		.align	2
 1411              	.L93:
 1412 0044 00000000 		.word	ch
 1413 0048 00000000 		.word	.LANCHOR5
 1414              		.cfi_endproc
 1415              	.LFE239:
 1416              		.size	chThdExitS, .-chThdExitS
 1417              		.section	.text.chThdExit,"ax",%progbits
 1418              		.align	2
 1419              		.p2align 4,,15
 1420              		.global	chThdExit
 1421              		.thumb
 1422              		.thumb_func
 1423              		.type	chThdExit, %function
 1424              	chThdExit:
 1425              	.LFB238:
ARM GAS  /tmp/cco9WT3o.s 			page 26


 1426              		.loc 1 397 0
 1427              		.cfi_startproc
 1428              		@ args = 0, pretend = 0, frame = 0
 1429              		@ frame_needed = 0, uses_anonymous_args = 0
 1430              	.LVL125:
 1431 0000 10B5     		push	{r4, lr}
 1432              		.cfi_def_cfa_offset 8
 1433              		.cfi_offset 4, -8
 1434              		.cfi_offset 14, -4
 1435              	.LBB371:
 1436              	.LBB372:
 1437              	.LBB373:
 1438              	.LBB374:
 1439              	.LBB375:
 1440              		.loc 3 546 0
 1441 0002 2023     		movs	r3, #32
 1442              	.LBE375:
 1443              	.LBE374:
 1444              	.LBE373:
 1445              	.LBE372:
 1446              	.LBE371:
 1447              		.loc 1 397 0
 1448 0004 0446     		mov	r4, r0
 1449              	.LBB380:
 1450              	.LBB379:
 1451              	.LBB378:
 1452              	.LBB377:
 1453              	.LBB376:
 1454              		.loc 3 546 0
 1455              		.syntax unified
 1456              	@ 546 "/home/selim/working/ChibiOS/os/ext/CMSIS/include/core_cmFunc.h" 1
 1457 0006 83F31188 		MSR basepri, r3
 1458              	@ 0 "" 2
 1459              	.LVL126:
 1460              		.thumb
 1461              		.syntax unified
 1462              	.LBE376:
 1463              	.LBE377:
 1464              	.LBE378:
 1465              		.loc 4 349 0
 1466 000a FFF7FEFF 		bl	_stats_start_measure_crit_thd
 1467              	.LVL127:
 1468              		.loc 4 350 0
 1469 000e FFF7FEFF 		bl	_dbg_check_lock
 1470              	.LVL128:
 1471              	.LBE379:
 1472              	.LBE380:
 1473              		.loc 1 400 0
 1474 0012 2046     		mov	r0, r4
 1475              		.loc 1 402 0
 1476 0014 BDE81040 		pop	{r4, lr}
 1477              		.cfi_restore 14
 1478              		.cfi_restore 4
 1479              		.cfi_def_cfa_offset 0
 1480              	.LVL129:
 1481              		.loc 1 400 0
 1482 0018 FFF7FEBF 		b	chThdExitS
ARM GAS  /tmp/cco9WT3o.s 			page 27


 1483              	.LVL130:
 1484              		.cfi_endproc
 1485              	.LFE238:
 1486              		.size	chThdExit, .-chThdExit
 1487              		.section	.text.chThdWait,"ax",%progbits
 1488              		.align	2
 1489              		.p2align 4,,15
 1490              		.global	chThdWait
 1491              		.thumb
 1492              		.thumb_func
 1493              		.type	chThdWait, %function
 1494              	chThdWait:
 1495              	.LFB240:
 1496              		.loc 1 475 0
 1497              		.cfi_startproc
 1498              		@ args = 0, pretend = 0, frame = 0
 1499              		@ frame_needed = 0, uses_anonymous_args = 0
 1500              	.LVL131:
 1501 0000 70B5     		push	{r4, r5, r6, lr}
 1502              		.cfi_def_cfa_offset 16
 1503              		.cfi_offset 4, -16
 1504              		.cfi_offset 5, -12
 1505              		.cfi_offset 6, -8
 1506              		.cfi_offset 14, -4
 1507              		.loc 1 478 0
 1508 0002 0446     		mov	r4, r0
 1509 0004 0028     		cmp	r0, #0
 1510 0006 39D0     		beq	.L107
 1511              	.LVL132:
 1512              	.L98:
 1513              	.LBB393:
 1514              	.LBB394:
 1515              	.LBB395:
 1516              	.LBB396:
 1517              	.LBB397:
 1518              		.loc 3 546 0
 1519 0008 2023     		movs	r3, #32
 1520              		.syntax unified
 1521              	@ 546 "/home/selim/working/ChibiOS/os/ext/CMSIS/include/core_cmFunc.h" 1
 1522 000a 83F31188 		MSR basepri, r3
 1523              	@ 0 "" 2
 1524              	.LVL133:
 1525              		.thumb
 1526              		.syntax unified
 1527              	.LBE397:
 1528              	.LBE396:
 1529              	.LBE395:
 1530              	.LBE394:
 1531              	.LBE393:
 1532              		.loc 1 481 0
 1533 000e 1D4D     		ldr	r5, .L110
 1534              	.LBB399:
 1535              	.LBB398:
 1536              		.loc 4 349 0
 1537 0010 FFF7FEFF 		bl	_stats_start_measure_crit_thd
 1538              	.LVL134:
 1539              		.loc 4 350 0
ARM GAS  /tmp/cco9WT3o.s 			page 28


 1540 0014 FFF7FEFF 		bl	_dbg_check_lock
 1541              	.LVL135:
 1542              	.LBE398:
 1543              	.LBE399:
 1544              		.loc 1 481 0
 1545 0018 AB69     		ldr	r3, [r5, #24]
 1546 001a 9C42     		cmp	r4, r3
 1547 001c 2AD0     		beq	.L108
 1548              	.L99:
 1549              		.loc 1 483 0 discriminator 1
 1550 001e 94F82230 		ldrb	r3, [r4, #34]	@ zero_extendqisi2
 1551 0022 1BB3     		cbz	r3, .L109
 1552              	.L100:
 1553              		.loc 1 485 0
 1554 0024 94F82030 		ldrb	r3, [r4, #32]	@ zero_extendqisi2
 1555 0028 0F2B     		cmp	r3, #15
 1556 002a 06D0     		beq	.L101
 1557              		.loc 1 486 0
 1558 002c AB69     		ldr	r3, [r5, #24]
 1559              	.LVL136:
 1560              	.LBB400:
 1561              	.LBB401:
 1562              		.loc 2 639 0
 1563 002e A26A     		ldr	r2, [r4, #40]
 1564 0030 1A60     		str	r2, [r3]
 1565              	.LBE401:
 1566              	.LBE400:
 1567              		.loc 1 487 0
 1568 0032 0920     		movs	r0, #9
 1569              	.LBB403:
 1570              	.LBB402:
 1571              		.loc 2 640 0
 1572 0034 A362     		str	r3, [r4, #40]
 1573              	.LVL137:
 1574              	.LBE402:
 1575              	.LBE403:
 1576              		.loc 1 487 0
 1577 0036 FFF7FEFF 		bl	chSchGoSleepS
 1578              	.LVL138:
 1579              	.L101:
 1580              		.loc 1 489 0
 1581 003a 666A     		ldr	r6, [r4, #36]
 1582              	.LVL139:
 1583              	.LBB404:
 1584              	.LBB405:
 1585              		.loc 4 360 0
 1586 003c FFF7FEFF 		bl	_dbg_check_unlock
 1587              	.LVL140:
 1588              		.loc 4 361 0
 1589 0040 FFF7FEFF 		bl	_stats_stop_measure_crit_thd
 1590              	.LVL141:
 1591              		.loc 4 367 0
 1592 0044 2B68     		ldr	r3, [r5]
 1593 0046 0F4A     		ldr	r2, .L110
 1594 0048 AB42     		cmp	r3, r5
 1595 004a 07D0     		beq	.L102
 1596 004c 9269     		ldr	r2, [r2, #24]
ARM GAS  /tmp/cco9WT3o.s 			page 29


 1597 004e 9B68     		ldr	r3, [r3, #8]
 1598 0050 9268     		ldr	r2, [r2, #8]
 1599 0052 9A42     		cmp	r2, r3
 1600 0054 02D2     		bcs	.L102
 1601 0056 0C48     		ldr	r0, .L110+4
 1602 0058 FFF7FEFF 		bl	chSysHalt
 1603              	.LVL142:
 1604              	.L102:
 1605              	.LBB406:
 1606              	.LBB407:
 1607              	.LBB408:
 1608              		.loc 3 546 0
 1609 005c 0023     		movs	r3, #0
 1610              		.syntax unified
 1611              	@ 546 "/home/selim/working/ChibiOS/os/ext/CMSIS/include/core_cmFunc.h" 1
 1612 005e 83F31188 		MSR basepri, r3
 1613              	@ 0 "" 2
 1614              	.LVL143:
 1615              		.thumb
 1616              		.syntax unified
 1617              	.LBE408:
 1618              	.LBE407:
 1619              	.LBE406:
 1620              	.LBE405:
 1621              	.LBE404:
 1622              		.loc 1 494 0
 1623 0062 2046     		mov	r0, r4
 1624 0064 FFF7FEFF 		bl	chThdRelease
 1625              	.LVL144:
 1626              		.loc 1 498 0
 1627 0068 3046     		mov	r0, r6
 1628 006a 70BD     		pop	{r4, r5, r6, pc}
 1629              	.LVL145:
 1630              	.L109:
 1631              		.loc 1 483 0 discriminator 2
 1632 006c 0748     		ldr	r0, .L110+8
 1633 006e FFF7FEFF 		bl	chSysHalt
 1634              	.LVL146:
 1635 0072 D7E7     		b	.L100
 1636              	.L108:
 1637              		.loc 1 481 0 discriminator 2
 1638 0074 0548     		ldr	r0, .L110+8
 1639 0076 FFF7FEFF 		bl	chSysHalt
 1640              	.LVL147:
 1641 007a D0E7     		b	.L99
 1642              	.LVL148:
 1643              	.L107:
 1644              		.loc 1 478 0 discriminator 2
 1645 007c 0348     		ldr	r0, .L110+8
 1646              	.LVL149:
 1647 007e FFF7FEFF 		bl	chSysHalt
 1648              	.LVL150:
 1649 0082 C1E7     		b	.L98
 1650              	.L111:
 1651              		.align	2
 1652              	.L110:
 1653 0084 00000000 		.word	ch
ARM GAS  /tmp/cco9WT3o.s 			page 30


 1654 0088 00000000 		.word	.LANCHOR1
 1655 008c 00000000 		.word	.LANCHOR6
 1656              		.cfi_endproc
 1657              	.LFE240:
 1658              		.size	chThdWait, .-chThdWait
 1659              		.section	.text.chThdSuspendS,"ax",%progbits
 1660              		.align	2
 1661              		.p2align 4,,15
 1662              		.global	chThdSuspendS
 1663              		.thumb
 1664              		.thumb_func
 1665              		.type	chThdSuspendS, %function
 1666              	chThdSuspendS:
 1667              	.LFB241:
 1668              		.loc 1 511 0
 1669              		.cfi_startproc
 1670              		@ args = 0, pretend = 0, frame = 0
 1671              		@ frame_needed = 0, uses_anonymous_args = 0
 1672              	.LVL151:
 1673 0000 70B5     		push	{r4, r5, r6, lr}
 1674              		.cfi_def_cfa_offset 16
 1675              		.cfi_offset 4, -16
 1676              		.cfi_offset 5, -12
 1677              		.cfi_offset 6, -8
 1678              		.cfi_offset 14, -4
 1679              		.loc 1 514 0
 1680 0002 0368     		ldr	r3, [r0]
 1681              	.LBB409:
 1682              	.LBB410:
 1683              		.loc 5 176 0
 1684 0004 074D     		ldr	r5, .L118
 1685              	.LBE410:
 1686              	.LBE409:
 1687              		.loc 1 511 0
 1688 0006 0446     		mov	r4, r0
 1689              	.LBB412:
 1690              	.LBB411:
 1691              		.loc 5 176 0
 1692 0008 AE69     		ldr	r6, [r5, #24]
 1693              	.LBE411:
 1694              	.LBE412:
 1695              		.loc 1 514 0
 1696 000a 13B1     		cbz	r3, .L113
 1697              		.loc 1 514 0 is_stmt 0 discriminator 2
 1698 000c 0648     		ldr	r0, .L118+4
 1699              	.LVL152:
 1700 000e FFF7FEFF 		bl	chSysHalt
 1701              	.LVL153:
 1702              	.L113:
 1703              		.loc 1 516 0 is_stmt 1
 1704 0012 2660     		str	r6, [r4]
 1705              		.loc 1 518 0
 1706 0014 0320     		movs	r0, #3
 1707              		.loc 1 517 0
 1708 0016 7462     		str	r4, [r6, #36]
 1709              		.loc 1 518 0
 1710 0018 FFF7FEFF 		bl	chSchGoSleepS
ARM GAS  /tmp/cco9WT3o.s 			page 31


 1711              	.LVL154:
 1712              		.loc 1 520 0
 1713 001c AB69     		ldr	r3, [r5, #24]
 1714              		.loc 1 521 0
 1715 001e 586A     		ldr	r0, [r3, #36]
 1716 0020 70BD     		pop	{r4, r5, r6, pc}
 1717              	.LVL155:
 1718              	.L119:
 1719 0022 00BF     		.align	2
 1720              	.L118:
 1721 0024 00000000 		.word	ch
 1722 0028 00000000 		.word	.LANCHOR7
 1723              		.cfi_endproc
 1724              	.LFE241:
 1725              		.size	chThdSuspendS, .-chThdSuspendS
 1726              		.section	.text.chThdSuspendTimeoutS,"ax",%progbits
 1727              		.align	2
 1728              		.p2align 4,,15
 1729              		.global	chThdSuspendTimeoutS
 1730              		.thumb
 1731              		.thumb_func
 1732              		.type	chThdSuspendTimeoutS, %function
 1733              	chThdSuspendTimeoutS:
 1734              	.LFB242:
 1735              		.loc 1 542 0
 1736              		.cfi_startproc
 1737              		@ args = 0, pretend = 0, frame = 0
 1738              		@ frame_needed = 0, uses_anonymous_args = 0
 1739              	.LVL156:
 1740              	.LBB413:
 1741              	.LBB414:
 1742              		.loc 5 176 0
 1743 0000 0A4A     		ldr	r2, .L127
 1744              	.LBE414:
 1745              	.LBE413:
 1746              		.loc 1 545 0
 1747 0002 0368     		ldr	r3, [r0]
 1748              		.loc 1 542 0
 1749 0004 70B5     		push	{r4, r5, r6, lr}
 1750              		.cfi_def_cfa_offset 16
 1751              		.cfi_offset 4, -16
 1752              		.cfi_offset 5, -12
 1753              		.cfi_offset 6, -8
 1754              		.cfi_offset 14, -4
 1755              		.loc 1 542 0
 1756 0006 0446     		mov	r4, r0
 1757              	.LBB416:
 1758              	.LBB415:
 1759              		.loc 5 176 0
 1760 0008 9669     		ldr	r6, [r2, #24]
 1761              	.LBE415:
 1762              	.LBE416:
 1763              		.loc 1 542 0
 1764 000a 0D46     		mov	r5, r1
 1765              		.loc 1 545 0
 1766 000c 13B1     		cbz	r3, .L121
 1767              		.loc 1 545 0 is_stmt 0 discriminator 2
ARM GAS  /tmp/cco9WT3o.s 			page 32


 1768 000e 0848     		ldr	r0, .L127+4
 1769              	.LVL157:
 1770 0010 FFF7FEFF 		bl	chSysHalt
 1771              	.LVL158:
 1772              	.L121:
 1773              		.loc 1 547 0 is_stmt 1
 1774 0014 3DB1     		cbz	r5, .L122
 1775              		.loc 1 551 0
 1776 0016 2660     		str	r6, [r4]
 1777              		.loc 1 552 0
 1778 0018 7462     		str	r4, [r6, #36]
 1779              		.loc 1 554 0
 1780 001a 2946     		mov	r1, r5
 1781 001c 0320     		movs	r0, #3
 1782              		.loc 1 555 0
 1783 001e BDE87040 		pop	{r4, r5, r6, lr}
 1784              		.cfi_remember_state
 1785              		.cfi_restore 14
 1786              		.cfi_restore 6
 1787              		.cfi_restore 5
 1788              		.cfi_restore 4
 1789              		.cfi_def_cfa_offset 0
 1790              	.LVL159:
 1791              		.loc 1 554 0
 1792 0022 FFF7FEBF 		b	chSchGoSleepTimeoutS
 1793              	.LVL160:
 1794              	.L122:
 1795              		.cfi_restore_state
 1796              		.loc 1 555 0
 1797 0026 4FF0FF30 		mov	r0, #-1
 1798 002a 70BD     		pop	{r4, r5, r6, pc}
 1799              	.LVL161:
 1800              	.L128:
 1801              		.align	2
 1802              	.L127:
 1803 002c 00000000 		.word	ch
 1804 0030 00000000 		.word	.LANCHOR8
 1805              		.cfi_endproc
 1806              	.LFE242:
 1807              		.size	chThdSuspendTimeoutS, .-chThdSuspendTimeoutS
 1808              		.section	.text.chThdResumeI,"ax",%progbits
 1809              		.align	2
 1810              		.p2align 4,,15
 1811              		.global	chThdResumeI
 1812              		.thumb
 1813              		.thumb_func
 1814              		.type	chThdResumeI, %function
 1815              	chThdResumeI:
 1816              	.LFB243:
 1817              		.loc 1 567 0
 1818              		.cfi_startproc
 1819              		@ args = 0, pretend = 0, frame = 0
 1820              		@ frame_needed = 0, uses_anonymous_args = 0
 1821              	.LVL162:
 1822 0000 70B5     		push	{r4, r5, r6, lr}
 1823              		.cfi_def_cfa_offset 16
 1824              		.cfi_offset 4, -16
ARM GAS  /tmp/cco9WT3o.s 			page 33


 1825              		.cfi_offset 5, -12
 1826              		.cfi_offset 6, -8
 1827              		.cfi_offset 14, -4
 1828              		.loc 1 569 0
 1829 0002 0468     		ldr	r4, [r0]
 1830 0004 84B1     		cbz	r4, .L129
 1831              	.LBB417:
 1832              		.loc 1 572 0
 1833 0006 94F82030 		ldrb	r3, [r4, #32]	@ zero_extendqisi2
 1834 000a 032B     		cmp	r3, #3
 1835 000c 0E46     		mov	r6, r1
 1836 000e 0546     		mov	r5, r0
 1837              	.LVL163:
 1838 0010 02D0     		beq	.L131
 1839              		.loc 1 572 0 is_stmt 0 discriminator 2
 1840 0012 0648     		ldr	r0, .L136
 1841              	.LVL164:
 1842 0014 FFF7FEFF 		bl	chSysHalt
 1843              	.LVL165:
 1844              	.L131:
 1845              		.loc 1 575 0 is_stmt 1
 1846 0018 0023     		movs	r3, #0
 1847 001a 2B60     		str	r3, [r5]
 1848              		.loc 1 576 0
 1849 001c 6662     		str	r6, [r4, #36]
 1850              		.loc 1 577 0
 1851 001e 2046     		mov	r0, r4
 1852              	.LBE417:
 1853              		.loc 1 579 0
 1854 0020 BDE87040 		pop	{r4, r5, r6, lr}
 1855              		.cfi_remember_state
 1856              		.cfi_restore 14
 1857              		.cfi_restore 6
 1858              		.cfi_restore 5
 1859              		.cfi_restore 4
 1860              		.cfi_def_cfa_offset 0
 1861              	.LVL166:
 1862              	.LBB418:
 1863              		.loc 1 577 0
 1864 0024 FFF7FEBF 		b	chSchReadyI
 1865              	.LVL167:
 1866              	.L129:
 1867              		.cfi_restore_state
 1868 0028 70BD     		pop	{r4, r5, r6, pc}
 1869              	.L137:
 1870 002a 00BF     		.align	2
 1871              	.L136:
 1872 002c 00000000 		.word	.LANCHOR9
 1873              	.LBE418:
 1874              		.cfi_endproc
 1875              	.LFE243:
 1876              		.size	chThdResumeI, .-chThdResumeI
 1877              		.section	.text.chThdResumeS,"ax",%progbits
 1878              		.align	2
 1879              		.p2align 4,,15
 1880              		.global	chThdResumeS
 1881              		.thumb
ARM GAS  /tmp/cco9WT3o.s 			page 34


 1882              		.thumb_func
 1883              		.type	chThdResumeS, %function
 1884              	chThdResumeS:
 1885              	.LFB244:
 1886              		.loc 1 591 0
 1887              		.cfi_startproc
 1888              		@ args = 0, pretend = 0, frame = 0
 1889              		@ frame_needed = 0, uses_anonymous_args = 0
 1890              	.LVL168:
 1891 0000 70B5     		push	{r4, r5, r6, lr}
 1892              		.cfi_def_cfa_offset 16
 1893              		.cfi_offset 4, -16
 1894              		.cfi_offset 5, -12
 1895              		.cfi_offset 6, -8
 1896              		.cfi_offset 14, -4
 1897              		.loc 1 593 0
 1898 0002 0568     		ldr	r5, [r0]
 1899 0004 85B1     		cbz	r5, .L138
 1900              	.LBB419:
 1901              		.loc 1 596 0
 1902 0006 95F82030 		ldrb	r3, [r5, #32]	@ zero_extendqisi2
 1903 000a 032B     		cmp	r3, #3
 1904 000c 0E46     		mov	r6, r1
 1905 000e 0446     		mov	r4, r0
 1906              	.LVL169:
 1907 0010 02D0     		beq	.L140
 1908              		.loc 1 596 0 is_stmt 0 discriminator 2
 1909 0012 0648     		ldr	r0, .L145
 1910              	.LVL170:
 1911 0014 FFF7FEFF 		bl	chSysHalt
 1912              	.LVL171:
 1913              	.L140:
 1914              		.loc 1 599 0 is_stmt 1
 1915 0018 0023     		movs	r3, #0
 1916              		.loc 1 600 0
 1917 001a 3146     		mov	r1, r6
 1918 001c 2846     		mov	r0, r5
 1919              		.loc 1 599 0
 1920 001e 2360     		str	r3, [r4]
 1921              	.LBE419:
 1922              		.loc 1 602 0
 1923 0020 BDE87040 		pop	{r4, r5, r6, lr}
 1924              		.cfi_remember_state
 1925              		.cfi_restore 14
 1926              		.cfi_restore 6
 1927              		.cfi_restore 5
 1928              		.cfi_restore 4
 1929              		.cfi_def_cfa_offset 0
 1930              	.LVL172:
 1931              	.LBB420:
 1932              		.loc 1 600 0
 1933 0024 FFF7FEBF 		b	chSchWakeupS
 1934              	.LVL173:
 1935              	.L138:
 1936              		.cfi_restore_state
 1937 0028 70BD     		pop	{r4, r5, r6, pc}
 1938              	.L146:
ARM GAS  /tmp/cco9WT3o.s 			page 35


 1939 002a 00BF     		.align	2
 1940              	.L145:
 1941 002c 00000000 		.word	.LANCHOR10
 1942              	.LBE420:
 1943              		.cfi_endproc
 1944              	.LFE244:
 1945              		.size	chThdResumeS, .-chThdResumeS
 1946              		.section	.text.chThdResume,"ax",%progbits
 1947              		.align	2
 1948              		.p2align 4,,15
 1949              		.global	chThdResume
 1950              		.thumb
 1951              		.thumb_func
 1952              		.type	chThdResume, %function
 1953              	chThdResume:
 1954              	.LFB245:
 1955              		.loc 1 614 0
 1956              		.cfi_startproc
 1957              		@ args = 0, pretend = 0, frame = 0
 1958              		@ frame_needed = 0, uses_anonymous_args = 0
 1959              	.LVL174:
 1960 0000 38B5     		push	{r3, r4, r5, lr}
 1961              		.cfi_def_cfa_offset 16
 1962              		.cfi_offset 3, -16
 1963              		.cfi_offset 4, -12
 1964              		.cfi_offset 5, -8
 1965              		.cfi_offset 14, -4
 1966              		.loc 1 614 0
 1967 0002 0446     		mov	r4, r0
 1968 0004 0D46     		mov	r5, r1
 1969              	.LBB431:
 1970              	.LBB432:
 1971              	.LBB433:
 1972              	.LBB434:
 1973              	.LBB435:
 1974              		.loc 3 546 0
 1975 0006 2023     		movs	r3, #32
 1976              		.syntax unified
 1977              	@ 546 "/home/selim/working/ChibiOS/os/ext/CMSIS/include/core_cmFunc.h" 1
 1978 0008 83F31188 		MSR basepri, r3
 1979              	@ 0 "" 2
 1980              	.LVL175:
 1981              		.thumb
 1982              		.syntax unified
 1983              	.LBE435:
 1984              	.LBE434:
 1985              	.LBE433:
 1986              		.loc 4 349 0
 1987 000c FFF7FEFF 		bl	_stats_start_measure_crit_thd
 1988              	.LVL176:
 1989              		.loc 4 350 0
 1990 0010 FFF7FEFF 		bl	_dbg_check_lock
 1991              	.LVL177:
 1992              	.LBE432:
 1993              	.LBE431:
 1994              		.loc 1 617 0
 1995 0014 2946     		mov	r1, r5
ARM GAS  /tmp/cco9WT3o.s 			page 36


 1996 0016 2046     		mov	r0, r4
 1997 0018 FFF7FEFF 		bl	chThdResumeS
 1998              	.LVL178:
 1999              	.LBB436:
 2000              	.LBB437:
 2001              		.loc 4 360 0
 2002 001c FFF7FEFF 		bl	_dbg_check_unlock
 2003              	.LVL179:
 2004              		.loc 4 361 0
 2005 0020 FFF7FEFF 		bl	_stats_stop_measure_crit_thd
 2006              	.LVL180:
 2007              		.loc 4 367 0
 2008 0024 074B     		ldr	r3, .L150
 2009 0026 1A68     		ldr	r2, [r3]
 2010 0028 9A42     		cmp	r2, r3
 2011 002a 07D0     		beq	.L148
 2012 002c 9969     		ldr	r1, [r3, #24]
 2013 002e 9368     		ldr	r3, [r2, #8]
 2014 0030 8A68     		ldr	r2, [r1, #8]
 2015 0032 9A42     		cmp	r2, r3
 2016 0034 02D2     		bcs	.L148
 2017 0036 0448     		ldr	r0, .L150+4
 2018 0038 FFF7FEFF 		bl	chSysHalt
 2019              	.LVL181:
 2020              	.L148:
 2021              	.LBB438:
 2022              	.LBB439:
 2023              	.LBB440:
 2024              		.loc 3 546 0
 2025 003c 0023     		movs	r3, #0
 2026              		.syntax unified
 2027              	@ 546 "/home/selim/working/ChibiOS/os/ext/CMSIS/include/core_cmFunc.h" 1
 2028 003e 83F31188 		MSR basepri, r3
 2029              	@ 0 "" 2
 2030              	.LVL182:
 2031              		.thumb
 2032              		.syntax unified
 2033 0042 38BD     		pop	{r3, r4, r5, pc}
 2034              	.LVL183:
 2035              	.L151:
 2036              		.align	2
 2037              	.L150:
 2038 0044 00000000 		.word	ch
 2039 0048 00000000 		.word	.LANCHOR1
 2040              	.LBE440:
 2041              	.LBE439:
 2042              	.LBE438:
 2043              	.LBE437:
 2044              	.LBE436:
 2045              		.cfi_endproc
 2046              	.LFE245:
 2047              		.size	chThdResume, .-chThdResume
 2048              		.section	.text.chThdEnqueueTimeoutS,"ax",%progbits
 2049              		.align	2
 2050              		.p2align 4,,15
 2051              		.global	chThdEnqueueTimeoutS
 2052              		.thumb
ARM GAS  /tmp/cco9WT3o.s 			page 37


 2053              		.thumb_func
 2054              		.type	chThdEnqueueTimeoutS, %function
 2055              	chThdEnqueueTimeoutS:
 2056              	.LFB246:
 2057              		.loc 1 644 0
 2058              		.cfi_startproc
 2059              		@ args = 0, pretend = 0, frame = 0
 2060              		@ frame_needed = 0, uses_anonymous_args = 0
 2061              		@ link register save eliminated.
 2062              	.LVL184:
 2063              		.loc 1 646 0
 2064 0000 61B1     		cbz	r1, .L153
 2065              		.loc 1 650 0
 2066 0002 084B     		ldr	r3, .L155
 2067              		.loc 1 644 0
 2068 0004 10B4     		push	{r4}
 2069              		.cfi_def_cfa_offset 4
 2070              		.cfi_offset 4, -4
 2071 0006 0246     		mov	r2, r0
 2072              	.LBB441:
 2073              	.LBB442:
 2074              		.loc 2 666 0
 2075 0008 4468     		ldr	r4, [r0, #4]
 2076              	.LBE442:
 2077              	.LBE441:
 2078              		.loc 1 650 0
 2079 000a 9B69     		ldr	r3, [r3, #24]
 2080              	.LVL185:
 2081              		.loc 1 652 0
 2082 000c 0420     		movs	r0, #4
 2083              	.LVL186:
 2084              	.LBB444:
 2085              	.LBB443:
 2086              		.loc 2 666 0
 2087 000e 83E81400 		stmia	r3, {r2, r4}
 2088              		.loc 2 667 0
 2089 0012 2360     		str	r3, [r4]
 2090              		.loc 2 668 0
 2091 0014 5360     		str	r3, [r2, #4]
 2092              	.LVL187:
 2093              	.LBE443:
 2094              	.LBE444:
 2095              		.loc 1 653 0
 2096 0016 10BC     		pop	{r4}
 2097              		.cfi_restore 4
 2098              		.cfi_def_cfa_offset 0
 2099              		.loc 1 652 0
 2100 0018 FFF7FEBF 		b	chSchGoSleepTimeoutS
 2101              	.LVL188:
 2102              	.L153:
 2103              		.loc 1 653 0
 2104 001c 4FF0FF30 		mov	r0, #-1
 2105              	.LVL189:
 2106 0020 7047     		bx	lr
 2107              	.L156:
 2108 0022 00BF     		.align	2
 2109              	.L155:
ARM GAS  /tmp/cco9WT3o.s 			page 38


 2110 0024 00000000 		.word	ch
 2111              		.cfi_endproc
 2112              	.LFE246:
 2113              		.size	chThdEnqueueTimeoutS, .-chThdEnqueueTimeoutS
 2114              		.section	.text.chThdDequeueNextI,"ax",%progbits
 2115              		.align	2
 2116              		.p2align 4,,15
 2117              		.global	chThdDequeueNextI
 2118              		.thumb
 2119              		.thumb_func
 2120              		.type	chThdDequeueNextI, %function
 2121              	chThdDequeueNextI:
 2122              	.LFB247:
 2123              		.loc 1 664 0
 2124              		.cfi_startproc
 2125              		@ args = 0, pretend = 0, frame = 0
 2126              		@ frame_needed = 0, uses_anonymous_args = 0
 2127              	.LVL190:
 2128 0000 38B5     		push	{r3, r4, r5, lr}
 2129              		.cfi_def_cfa_offset 16
 2130              		.cfi_offset 3, -16
 2131              		.cfi_offset 4, -12
 2132              		.cfi_offset 5, -8
 2133              		.cfi_offset 14, -4
 2134              	.LBB453:
 2135              	.LBB454:
 2136              		.loc 2 631 0
 2137 0002 0468     		ldr	r4, [r0]
 2138              	.LVL191:
 2139              	.LBE454:
 2140              	.LBE453:
 2141              		.loc 1 666 0
 2142 0004 A042     		cmp	r0, r4
 2143 0006 10D0     		beq	.L157
 2144              	.LBB455:
 2145              	.LBB456:
 2146              	.LBB457:
 2147              	.LBB458:
 2148              		.loc 2 674 0
 2149 0008 2368     		ldr	r3, [r4]
 2150 000a 0360     		str	r3, [r0]
 2151              		.loc 2 675 0
 2152 000c 5860     		str	r0, [r3, #4]
 2153              	.LBE458:
 2154              	.LBE457:
 2155              		.loc 5 319 0
 2156 000e 94F82030 		ldrb	r3, [r4, #32]	@ zero_extendqisi2
 2157 0012 042B     		cmp	r3, #4
 2158 0014 0D46     		mov	r5, r1
 2159              	.LVL192:
 2160 0016 02D0     		beq	.L159
 2161 0018 0448     		ldr	r0, .L164
 2162              	.LVL193:
 2163 001a FFF7FEFF 		bl	chSysHalt
 2164              	.LVL194:
 2165              	.L159:
 2166              		.loc 5 321 0
ARM GAS  /tmp/cco9WT3o.s 			page 39


 2167 001e 6562     		str	r5, [r4, #36]
 2168              		.loc 5 322 0
 2169 0020 2046     		mov	r0, r4
 2170              	.LBE456:
 2171              	.LBE455:
 2172              		.loc 1 669 0
 2173 0022 BDE83840 		pop	{r3, r4, r5, lr}
 2174              		.cfi_remember_state
 2175              		.cfi_restore 14
 2176              		.cfi_restore 5
 2177              		.cfi_restore 4
 2178              		.cfi_restore 3
 2179              		.cfi_def_cfa_offset 0
 2180              	.LVL195:
 2181              	.LBB460:
 2182              	.LBB459:
 2183              		.loc 5 322 0
 2184 0026 FFF7FEBF 		b	chSchReadyI
 2185              	.LVL196:
 2186              	.L157:
 2187              		.cfi_restore_state
 2188 002a 38BD     		pop	{r3, r4, r5, pc}
 2189              	.L165:
 2190              		.align	2
 2191              	.L164:
 2192 002c 00000000 		.word	.LANCHOR11
 2193              	.LBE459:
 2194              	.LBE460:
 2195              		.cfi_endproc
 2196              	.LFE247:
 2197              		.size	chThdDequeueNextI, .-chThdDequeueNextI
 2198              		.section	.text.chThdDequeueAllI,"ax",%progbits
 2199              		.align	2
 2200              		.p2align 4,,15
 2201              		.global	chThdDequeueAllI
 2202              		.thumb
 2203              		.thumb_func
 2204              		.type	chThdDequeueAllI, %function
 2205              	chThdDequeueAllI:
 2206              	.LFB248:
 2207              		.loc 1 679 0
 2208              		.cfi_startproc
 2209              		@ args = 0, pretend = 0, frame = 0
 2210              		@ frame_needed = 0, uses_anonymous_args = 0
 2211              	.LVL197:
 2212 0000 70B5     		push	{r4, r5, r6, lr}
 2213              		.cfi_def_cfa_offset 16
 2214              		.cfi_offset 4, -16
 2215              		.cfi_offset 5, -12
 2216              		.cfi_offset 6, -8
 2217              		.cfi_offset 14, -4
 2218              	.LBB469:
 2219              	.LBB470:
 2220              		.loc 2 631 0
 2221 0002 0468     		ldr	r4, [r0]
 2222              	.LVL198:
 2223              	.LBE470:
ARM GAS  /tmp/cco9WT3o.s 			page 40


 2224              	.LBE469:
 2225              		.loc 1 681 0
 2226 0004 A042     		cmp	r0, r4
 2227 0006 12D0     		beq	.L166
 2228 0008 0546     		mov	r5, r0
 2229 000a 0E46     		mov	r6, r1
 2230              	.LVL199:
 2231              	.L169:
 2232              	.LBB472:
 2233              	.LBB473:
 2234              	.LBB474:
 2235              	.LBB475:
 2236              		.loc 2 674 0
 2237 000c 2368     		ldr	r3, [r4]
 2238 000e 2B60     		str	r3, [r5]
 2239              	.LVL200:
 2240              		.loc 2 675 0
 2241 0010 5D60     		str	r5, [r3, #4]
 2242              	.LVL201:
 2243              	.LBE475:
 2244              	.LBE474:
 2245              		.loc 5 319 0
 2246 0012 94F82030 		ldrb	r3, [r4, #32]	@ zero_extendqisi2
 2247 0016 0648     		ldr	r0, .L176
 2248 0018 042B     		cmp	r3, #4
 2249 001a 01D0     		beq	.L168
 2250 001c FFF7FEFF 		bl	chSysHalt
 2251              	.LVL202:
 2252              	.L168:
 2253              		.loc 5 321 0
 2254 0020 6662     		str	r6, [r4, #36]
 2255              		.loc 5 322 0
 2256 0022 2046     		mov	r0, r4
 2257 0024 FFF7FEFF 		bl	chSchReadyI
 2258              	.LVL203:
 2259              	.LBE473:
 2260              	.LBE472:
 2261              	.LBB476:
 2262              	.LBB471:
 2263              		.loc 2 631 0
 2264 0028 2C68     		ldr	r4, [r5]
 2265              	.LVL204:
 2266              	.LBE471:
 2267              	.LBE476:
 2268              		.loc 1 681 0
 2269 002a A542     		cmp	r5, r4
 2270 002c EED1     		bne	.L169
 2271              	.LVL205:
 2272              	.L166:
 2273 002e 70BD     		pop	{r4, r5, r6, pc}
 2274              	.L177:
 2275              		.align	2
 2276              	.L176:
 2277 0030 00000000 		.word	.LANCHOR11
 2278              		.cfi_endproc
 2279              	.LFE248:
 2280              		.size	chThdDequeueAllI, .-chThdDequeueAllI
ARM GAS  /tmp/cco9WT3o.s 			page 41


 2281              		.section	.rodata.__func__.6718,"a",%progbits
 2282              		.align	2
 2283              		.set	.LANCHOR5,. + 0
 2284              		.type	__func__.6718, %object
 2285              		.size	__func__.6718, 11
 2286              	__func__.6718:
 2287 0000 63685468 		.ascii	"chThdExitS\000"
 2287      64457869 
 2287      745300
 2288              		.section	.rodata.__func__.6674,"a",%progbits
 2289              		.align	2
 2290              		.set	.LANCHOR0,. + 0
 2291              		.type	__func__.6674, %object
 2292              		.size	__func__.6674, 13
 2293              	__func__.6674:
 2294 0000 63685468 		.ascii	"chThdCreateI\000"
 2294      64437265 
 2294      61746549 
 2294      00
 2295              		.section	.rodata.__func__.6740,"a",%progbits
 2296              		.align	2
 2297              		.set	.LANCHOR9,. + 0
 2298              		.type	__func__.6740, %object
 2299              		.size	__func__.6740, 13
 2300              	__func__.6740:
 2301 0000 63685468 		.ascii	"chThdResumeI\000"
 2301      64526573 
 2301      756D6549 
 2301      00
 2302              		.section	.rodata.__func__.6728,"a",%progbits
 2303              		.align	2
 2304              		.set	.LANCHOR7,. + 0
 2305              		.type	__func__.6728, %object
 2306              		.size	__func__.6728, 14
 2307              	__func__.6728:
 2308 0000 63685468 		.ascii	"chThdSuspendS\000"
 2308      64537573 
 2308      70656E64 
 2308      5300
 2309              		.section	.rodata.__func__.6734,"a",%progbits
 2310              		.align	2
 2311              		.set	.LANCHOR8,. + 0
 2312              		.type	__func__.6734, %object
 2313              		.size	__func__.6734, 21
 2314              	__func__.6734:
 2315 0000 63685468 		.ascii	"chThdSuspendTimeoutS\000"
 2315      64537573 
 2315      70656E64 
 2315      54696D65 
 2315      6F757453 
 2316              		.section	.rodata.__func__.6690,"a",%progbits
 2317              		.align	2
 2318              		.set	.LANCHOR3,. + 0
 2319              		.type	__func__.6690, %object
 2320              		.size	__func__.6690, 17
 2321              	__func__.6690:
 2322 0000 63685468 		.ascii	"chThdSetPriority\000"
ARM GAS  /tmp/cco9WT3o.s 			page 42


 2322      64536574 
 2322      5072696F 
 2322      72697479 
 2322      00
 2323              		.section	.rodata.__func__.6723,"a",%progbits
 2324              		.align	2
 2325              		.set	.LANCHOR6,. + 0
 2326              		.type	__func__.6723, %object
 2327              		.size	__func__.6723, 10
 2328              	__func__.6723:
 2329 0000 63685468 		.ascii	"chThdWait\000"
 2329      64576169 
 2329      7400
 2330              		.section	.rodata.__func__.6140,"a",%progbits
 2331              		.align	2
 2332              		.set	.LANCHOR4,. + 0
 2333              		.type	__func__.6140, %object
 2334              		.size	__func__.6140, 12
 2335              	__func__.6140:
 2336 0000 63685468 		.ascii	"chThdSleepS\000"
 2336      64536C65 
 2336      65705300 
 2337              		.section	.rodata.__func__.5969,"a",%progbits
 2338              		.align	2
 2339              		.set	.LANCHOR1,. + 0
 2340              		.type	__func__.5969, %object
 2341              		.size	__func__.5969, 12
 2342              	__func__.5969:
 2343 0000 63685379 		.ascii	"chSysUnlock\000"
 2343      73556E6C 
 2343      6F636B00 
 2344              		.section	.rodata.__func__.6136,"a",%progbits
 2345              		.align	2
 2346              		.set	.LANCHOR2,. + 0
 2347              		.type	__func__.6136, %object
 2348              		.size	__func__.6136, 12
 2349              	__func__.6136:
 2350 0000 63685468 		.ascii	"chThdStartI\000"
 2350      64537461 
 2350      72744900 
 2351              		.section	.rodata.__func__.6746,"a",%progbits
 2352              		.align	2
 2353              		.set	.LANCHOR10,. + 0
 2354              		.type	__func__.6746, %object
 2355              		.size	__func__.6746, 13
 2356              	__func__.6746:
 2357 0000 63685468 		.ascii	"chThdResumeS\000"
 2357      64526573 
 2357      756D6553 
 2357      00
 2358              		.section	.rodata.__func__.6152,"a",%progbits
 2359              		.align	2
 2360              		.set	.LANCHOR11,. + 0
 2361              		.type	__func__.6152, %object
 2362              		.size	__func__.6152, 20
 2363              	__func__.6152:
 2364 0000 63685468 		.ascii	"chThdDoDequeueNextI\000"
ARM GAS  /tmp/cco9WT3o.s 			page 43


 2364      64446F44 
 2364      65717565 
 2364      75654E65 
 2364      78744900 
 2365              		.text
 2366              	.Letext0:
 2367              		.file 7 "/usr/lib/gcc/arm-none-eabi/5.3.1/include/stddef.h"
 2368              		.file 8 "/usr/arm-none-eabi/include/machine/_default_types.h"
 2369              		.file 9 "/usr/arm-none-eabi/include/sys/_stdint.h"
 2370              		.file 10 "/home/selim/working/ChibiOS/os/rt/ports/ARMCMx/compilers/GCC/chtypes.h"
 2371              		.file 11 "/home/selim/working/ChibiOS/os/rt/include/chsystypes.h"
 2372              		.file 12 "/home/selim/working/ChibiOS/os/rt/ports/ARMCMx/chcore.h"
 2373              		.file 13 "/home/selim/working/ChibiOS/os/rt/ports/ARMCMx/chcore_v7m.h"
 2374              		.file 14 "/home/selim/working/ChibiOS/os/hal/ports/STM32/LLD/TIMv1/stm32_tim.h"
 2375              		.file 15 "/home/selim/working/ChibiOS/os/rt/include/chdebug.h"
 2376              		.file 16 "/home/selim/working/ChibiOS/os/rt/include/chtm.h"
 2377              		.file 17 "/home/selim/working/ChibiOS/os/rt/include/chstats.h"
 2378              		.file 18 "/home/selim/working/ChibiOS/os/rt/include/chsem.h"
 2379              		.file 19 "/home/selim/working/ChibiOS/os/rt/include/chmtx.h"
 2380              		.file 20 "/home/selim/working/ChibiOS/os/rt/ports/ARMCMx/chcore_timer.h"
 2381              		.file 21 "/home/selim/working/ChibiOS/os/rt/include/chvt.h"
 2382              		.file 22 "/home/selim/working/ChibiOS/os/rt/include/chdynamic.h"
 2383              		.file 23 "/home/selim/working/ChibiOS/os/ext/CMSIS/include/core_cm4.h"