ARM GAS  /tmp/ccd1Z52j.s 			page 1


   1              		.syntax unified
   2              		.cpu cortex-m4
   3              		.fpu softvfp
   4              		.eabi_attribute 20, 1
   5              		.eabi_attribute 21, 1
   6              		.eabi_attribute 23, 3
   7              		.eabi_attribute 24, 1
   8              		.eabi_attribute 25, 1
   9              		.eabi_attribute 26, 1
  10              		.eabi_attribute 30, 2
  11              		.eabi_attribute 34, 1
  12              		.eabi_attribute 18, 4
  13              		.thumb
  14              		.syntax unified
  15              		.file	"pal.c"
  16              		.text
  17              	.Ltext0:
  18              		.cfi_sections	.debug_frame
  19              		.section	.text.palReadBus,"ax",%progbits
  20              		.align	2
  21              		.p2align 4,,15
  22              		.global	palReadBus
  23              		.thumb
  24              		.thumb_func
  25              		.type	palReadBus, %function
  26              	palReadBus:
  27              	.LFB258:
  28              		.file 1 "/home/selim/working/ChibiOS/os/hal/src/pal.c"
  29              		.loc 1 65 0
  30              		.cfi_startproc
  31              		@ args = 0, pretend = 0, frame = 0
  32              		@ frame_needed = 0, uses_anonymous_args = 0
  33              	.LVL0:
  34 0000 10B5     		push	{r4, lr}
  35              		.cfi_def_cfa_offset 8
  36              		.cfi_offset 4, -8
  37              		.cfi_offset 14, -4
  38              		.loc 1 67 0
  39 0002 0446     		mov	r4, r0
  40 0004 10B1     		cbz	r0, .L2
  41              		.loc 1 67 0 is_stmt 0 discriminator 3
  42 0006 8268     		ldr	r2, [r0, #8]
  43 0008 0F2A     		cmp	r2, #15
  44 000a 03D9     		bls	.L3
  45              	.L2:
  46              		.loc 1 67 0 discriminator 4
  47 000c 0448     		ldr	r0, .L9
  48              	.LVL1:
  49 000e FFF7FEFF 		bl	chSysHalt
  50              	.LVL2:
  51 0012 A268     		ldr	r2, [r4, #8]
  52              	.L3:
  53              		.loc 1 69 0 is_stmt 1
  54 0014 2368     		ldr	r3, [r4]
  55 0016 6068     		ldr	r0, [r4, #4]
  56 0018 1B69     		ldr	r3, [r3, #16]
  57 001a D340     		lsrs	r3, r3, r2
ARM GAS  /tmp/ccd1Z52j.s 			page 2


  58              		.loc 1 70 0
  59 001c 1840     		ands	r0, r0, r3
  60 001e 10BD     		pop	{r4, pc}
  61              	.LVL3:
  62              	.L10:
  63              		.align	2
  64              	.L9:
  65 0020 00000000 		.word	.LANCHOR0
  66              		.cfi_endproc
  67              	.LFE258:
  68              		.size	palReadBus, .-palReadBus
  69              		.section	.text.palWriteBus,"ax",%progbits
  70              		.align	2
  71              		.p2align 4,,15
  72              		.global	palWriteBus
  73              		.thumb
  74              		.thumb_func
  75              		.type	palWriteBus, %function
  76              	palWriteBus:
  77              	.LFB259:
  78              		.loc 1 90 0
  79              		.cfi_startproc
  80              		@ args = 0, pretend = 0, frame = 0
  81              		@ frame_needed = 0, uses_anonymous_args = 0
  82              	.LVL4:
  83 0000 38B5     		push	{r3, r4, r5, lr}
  84              		.cfi_def_cfa_offset 16
  85              		.cfi_offset 3, -16
  86              		.cfi_offset 4, -12
  87              		.cfi_offset 5, -8
  88              		.cfi_offset 14, -4
  89              		.loc 1 90 0
  90 0002 0D46     		mov	r5, r1
  91              		.loc 1 92 0
  92 0004 0446     		mov	r4, r0
  93 0006 10B1     		cbz	r0, .L12
  94              		.loc 1 92 0 is_stmt 0 discriminator 3
  95 0008 8268     		ldr	r2, [r0, #8]
  96 000a 0F2A     		cmp	r2, #15
  97 000c 03D9     		bls	.L13
  98              	.L12:
  99              		.loc 1 92 0 discriminator 4
 100 000e 0948     		ldr	r0, .L18
 101              	.LVL5:
 102 0010 FFF7FEFF 		bl	chSysHalt
 103              	.LVL6:
 104 0014 A268     		ldr	r2, [r4, #8]
 105              	.L13:
 106              		.loc 1 94 0 is_stmt 1
 107 0016 6368     		ldr	r3, [r4, #4]
 108 0018 2468     		ldr	r4, [r4]
 109              	.LVL7:
 110 001a 23EA0500 		bic	r0, r3, r5
 111 001e 05EA0301 		and	r1, r5, r3
 112 0022 02F11003 		add	r3, r2, #16
 113 0026 9140     		lsls	r1, r1, r2
 114 0028 00FA03F3 		lsl	r3, r0, r3
ARM GAS  /tmp/ccd1Z52j.s 			page 3


 115 002c 0B43     		orrs	r3, r3, r1
 116 002e A361     		str	r3, [r4, #24]
 117 0030 38BD     		pop	{r3, r4, r5, pc}
 118              	.LVL8:
 119              	.L19:
 120 0032 00BF     		.align	2
 121              	.L18:
 122 0034 00000000 		.word	.LANCHOR1
 123              		.cfi_endproc
 124              	.LFE259:
 125              		.size	palWriteBus, .-palWriteBus
 126              		.section	.text.palSetBusMode,"ax",%progbits
 127              		.align	2
 128              		.p2align 4,,15
 129              		.global	palSetBusMode
 130              		.thumb
 131              		.thumb_func
 132              		.type	palSetBusMode, %function
 133              	palSetBusMode:
 134              	.LFB260:
 135              		.loc 1 113 0
 136              		.cfi_startproc
 137              		@ args = 0, pretend = 0, frame = 0
 138              		@ frame_needed = 0, uses_anonymous_args = 0
 139              	.LVL9:
 140 0000 70B5     		push	{r4, r5, r6, lr}
 141              		.cfi_def_cfa_offset 16
 142              		.cfi_offset 4, -16
 143              		.cfi_offset 5, -12
 144              		.cfi_offset 6, -8
 145              		.cfi_offset 14, -4
 146              		.loc 1 113 0
 147 0002 0E46     		mov	r6, r1
 148              		.loc 1 115 0
 149 0004 0446     		mov	r4, r0
 150 0006 10B1     		cbz	r0, .L21
 151              		.loc 1 115 0 is_stmt 0 discriminator 3
 152 0008 8168     		ldr	r1, [r0, #8]
 153              	.LVL10:
 154 000a 0F29     		cmp	r1, #15
 155 000c 03D9     		bls	.L22
 156              	.L21:
 157              		.loc 1 115 0 discriminator 4
 158 000e 0648     		ldr	r0, .L27
 159              	.LVL11:
 160 0010 FFF7FEFF 		bl	chSysHalt
 161              	.LVL12:
 162 0014 A168     		ldr	r1, [r4, #8]
 163              	.L22:
 164              		.loc 1 117 0 is_stmt 1
 165 0016 94E82100 		ldmia	r4, {r0, r5}
 166 001a 3246     		mov	r2, r6
 167 001c 05FA01F1 		lsl	r1, r5, r1
 168              		.loc 1 118 0
 169 0020 BDE87040 		pop	{r4, r5, r6, lr}
 170              		.cfi_restore 14
 171              		.cfi_restore 6
ARM GAS  /tmp/ccd1Z52j.s 			page 4


 172              		.cfi_restore 5
 173              		.cfi_restore 4
 174              		.cfi_def_cfa_offset 0
 175              	.LVL13:
 176              		.loc 1 117 0
 177 0024 FFF7FEBF 		b	_pal_lld_setgroupmode
 178              	.LVL14:
 179              	.L28:
 180              		.align	2
 181              	.L27:
 182 0028 00000000 		.word	.LANCHOR2
 183              		.cfi_endproc
 184              	.LFE260:
 185              		.size	palSetBusMode, .-palSetBusMode
 186              		.section	.rodata.__func__.7101,"a",%progbits
 187              		.align	2
 188              		.set	.LANCHOR0,. + 0
 189              		.type	__func__.7101, %object
 190              		.size	__func__.7101, 11
 191              	__func__.7101:
 192 0000 70616C52 		.ascii	"palReadBus\000"
 192      65616442 
 192      757300
 193              		.section	.rodata.__func__.7106,"a",%progbits
 194              		.align	2
 195              		.set	.LANCHOR1,. + 0
 196              		.type	__func__.7106, %object
 197              		.size	__func__.7106, 12
 198              	__func__.7106:
 199 0000 70616C57 		.ascii	"palWriteBus\000"
 199      72697465 
 199      42757300 
 200              		.section	.rodata.__func__.7111,"a",%progbits
 201              		.align	2
 202              		.set	.LANCHOR2,. + 0
 203              		.type	__func__.7111, %object
 204              		.size	__func__.7111, 14
 205              	__func__.7111:
 206 0000 70616C53 		.ascii	"palSetBusMode\000"
 206      65744275 
 206      734D6F64 
 206      6500
 207              		.text
 208              	.Letext0:
 209              		.file 2 "/usr/arm-none-eabi/include/machine/_default_types.h"
 210              		.file 3 "/usr/arm-none-eabi/include/sys/_stdint.h"
 211              		.file 4 "/usr/arm-none-eabi/include/stdint.h"
 212              		.file 5 "/home/selim/working/ChibiOS/os/rt/ports/ARMCMx/compilers/GCC/chtypes.h"
 213              		.file 6 "/home/selim/working/ChibiOS/os/rt/include/chsystypes.h"
 214              		.file 7 "/home/selim/working/ChibiOS/os/rt/include/chschd.h"
 215              		.file 8 "/home/selim/working/ChibiOS/os/rt/ports/ARMCMx/chcore.h"
 216              		.file 9 "/home/selim/working/ChibiOS/os/rt/ports/ARMCMx/chcore_v7m.h"
 217              		.file 10 "/home/selim/working/ChibiOS/os/rt/include/chdebug.h"
 218              		.file 11 "/home/selim/working/ChibiOS/os/rt/include/chtm.h"
 219              		.file 12 "/home/selim/working/ChibiOS/os/rt/include/chstats.h"
 220              		.file 13 "/home/selim/working/ChibiOS/os/rt/include/chsem.h"
 221              		.file 14 "/home/selim/working/ChibiOS/os/rt/include/chmtx.h"
ARM GAS  /tmp/ccd1Z52j.s 			page 5


 222              		.file 15 "/home/selim/working/ChibiOS/os/hal/ports/STM32/LLD/GPIOv2/pal_lld.h"
 223              		.file 16 "/home/selim/working/ChibiOS/os/hal/include/pal.h"
 224              		.file 17 "/home/selim/working/ChibiOS/os/rt/include/chsys.h"
 225              		.file 18 "/home/selim/working/ChibiOS/os/ext/CMSIS/include/core_cm4.h"
 226              		.section	.debug_info,"",%progbits
 227              	.Ldebug_info0:
 228 0000 960A0000 		.4byte	0xa96
 229 0004 0400     		.2byte	0x4
 230 0006 00000000 		.4byte	.Ldebug_abbrev0
 231 000a 04       		.byte	0x4
 232 000b 01       		.uleb128 0x1
 233 000c 2C040000 		.4byte	.LASF157
 234 0010 0C       		.byte	0xc
 235 0011 57060000 		.4byte	.LASF158
 236 0015 00000000 		.4byte	.Ldebug_ranges0+0
 237 0019 00000000 		.4byte	0
 238 001d 00000000 		.4byte	.Ldebug_line0
 239 0021 02       		.uleb128 0x2
 240 0022 04       		.byte	0x4
 241 0023 05       		.byte	0x5
 242 0024 696E7400 		.ascii	"int\000"
 243 0028 03       		.uleb128 0x3
 244 0029 04       		.byte	0x4
 245 002a 07       		.byte	0x7
 246 002b 10020000 		.4byte	.LASF0
 247 002f 03       		.uleb128 0x3
 248 0030 08       		.byte	0x8
 249 0031 05       		.byte	0x5
 250 0032 27010000 		.4byte	.LASF1
 251 0036 03       		.uleb128 0x3
 252 0037 08       		.byte	0x8
 253 0038 04       		.byte	0x4
 254 0039 31030000 		.4byte	.LASF2
 255 003d 03       		.uleb128 0x3
 256 003e 01       		.byte	0x1
 257 003f 06       		.byte	0x6
 258 0040 35010000 		.4byte	.LASF3
 259 0044 04       		.uleb128 0x4
 260 0045 3F000000 		.4byte	.LASF6
 261 0049 02       		.byte	0x2
 262 004a 1D       		.byte	0x1d
 263 004b 4F000000 		.4byte	0x4f
 264 004f 03       		.uleb128 0x3
 265 0050 01       		.byte	0x1
 266 0051 08       		.byte	0x8
 267 0052 FB030000 		.4byte	.LASF4
 268 0056 03       		.uleb128 0x3
 269 0057 02       		.byte	0x2
 270 0058 05       		.byte	0x5
 271 0059 13040000 		.4byte	.LASF5
 272 005d 04       		.uleb128 0x4
 273 005e C5050000 		.4byte	.LASF7
 274 0062 02       		.byte	0x2
 275 0063 2B       		.byte	0x2b
 276 0064 68000000 		.4byte	0x68
 277 0068 03       		.uleb128 0x3
 278 0069 02       		.byte	0x2
ARM GAS  /tmp/ccd1Z52j.s 			page 6


 279 006a 07       		.byte	0x7
 280 006b 48020000 		.4byte	.LASF8
 281 006f 04       		.uleb128 0x4
 282 0070 BF020000 		.4byte	.LASF9
 283 0074 02       		.byte	0x2
 284 0075 3F       		.byte	0x3f
 285 0076 7A000000 		.4byte	0x7a
 286 007a 03       		.uleb128 0x3
 287 007b 04       		.byte	0x4
 288 007c 05       		.byte	0x5
 289 007d 62010000 		.4byte	.LASF10
 290 0081 04       		.uleb128 0x4
 291 0082 03060000 		.4byte	.LASF11
 292 0086 02       		.byte	0x2
 293 0087 41       		.byte	0x41
 294 0088 8C000000 		.4byte	0x8c
 295 008c 03       		.uleb128 0x3
 296 008d 04       		.byte	0x4
 297 008e 07       		.byte	0x7
 298 008f 9E050000 		.4byte	.LASF12
 299 0093 04       		.uleb128 0x4
 300 0094 E3020000 		.4byte	.LASF13
 301 0098 02       		.byte	0x2
 302 0099 5B       		.byte	0x5b
 303 009a 9E000000 		.4byte	0x9e
 304 009e 03       		.uleb128 0x3
 305 009f 08       		.byte	0x8
 306 00a0 07       		.byte	0x7
 307 00a1 A8000000 		.4byte	.LASF14
 308 00a5 04       		.uleb128 0x4
 309 00a6 BE060000 		.4byte	.LASF15
 310 00aa 03       		.byte	0x3
 311 00ab 14       		.byte	0x14
 312 00ac 44000000 		.4byte	0x44
 313 00b0 04       		.uleb128 0x4
 314 00b1 7A010000 		.4byte	.LASF16
 315 00b5 03       		.byte	0x3
 316 00b6 1A       		.byte	0x1a
 317 00b7 5D000000 		.4byte	0x5d
 318 00bb 04       		.uleb128 0x4
 319 00bc F3030000 		.4byte	.LASF17
 320 00c0 03       		.byte	0x3
 321 00c1 1F       		.byte	0x1f
 322 00c2 6F000000 		.4byte	0x6f
 323 00c6 04       		.uleb128 0x4
 324 00c7 6D050000 		.4byte	.LASF18
 325 00cb 03       		.byte	0x3
 326 00cc 20       		.byte	0x20
 327 00cd 81000000 		.4byte	0x81
 328 00d1 04       		.uleb128 0x4
 329 00d2 29000000 		.4byte	.LASF19
 330 00d6 03       		.byte	0x3
 331 00d7 26       		.byte	0x26
 332 00d8 93000000 		.4byte	0x93
 333 00dc 04       		.uleb128 0x4
 334 00dd 14050000 		.4byte	.LASF20
 335 00e1 04       		.byte	0x4
ARM GAS  /tmp/ccd1Z52j.s 			page 7


 336 00e2 34       		.byte	0x34
 337 00e3 28000000 		.4byte	0x28
 338 00e7 05       		.uleb128 0x5
 339 00e8 BB000000 		.4byte	0xbb
 340 00ec 05       		.uleb128 0x5
 341 00ed C6000000 		.4byte	0xc6
 342 00f1 04       		.uleb128 0x4
 343 00f2 48060000 		.4byte	.LASF21
 344 00f6 05       		.byte	0x5
 345 00f7 46       		.byte	0x46
 346 00f8 C6000000 		.4byte	0xc6
 347 00fc 04       		.uleb128 0x4
 348 00fd 17010000 		.4byte	.LASF22
 349 0101 05       		.byte	0x5
 350 0102 47       		.byte	0x47
 351 0103 D1000000 		.4byte	0xd1
 352 0107 04       		.uleb128 0x4
 353 0108 92020000 		.4byte	.LASF23
 354 010c 05       		.byte	0x5
 355 010d 49       		.byte	0x49
 356 010e A5000000 		.4byte	0xa5
 357 0112 04       		.uleb128 0x4
 358 0113 6B010000 		.4byte	.LASF24
 359 0117 05       		.byte	0x5
 360 0118 4A       		.byte	0x4a
 361 0119 A5000000 		.4byte	0xa5
 362 011d 04       		.uleb128 0x4
 363 011e B3030000 		.4byte	.LASF25
 364 0122 05       		.byte	0x5
 365 0123 4B       		.byte	0x4b
 366 0124 A5000000 		.4byte	0xa5
 367 0128 04       		.uleb128 0x4
 368 0129 DC030000 		.4byte	.LASF26
 369 012d 05       		.byte	0x5
 370 012e 4D       		.byte	0x4d
 371 012f C6000000 		.4byte	0xc6
 372 0133 04       		.uleb128 0x4
 373 0134 74020000 		.4byte	.LASF27
 374 0138 05       		.byte	0x5
 375 0139 4E       		.byte	0x4e
 376 013a BB000000 		.4byte	0xbb
 377 013e 04       		.uleb128 0x4
 378 013f B3020000 		.4byte	.LASF28
 379 0143 05       		.byte	0x5
 380 0144 50       		.byte	0x50
 381 0145 C6000000 		.4byte	0xc6
 382 0149 04       		.uleb128 0x4
 383 014a FF010000 		.4byte	.LASF29
 384 014e 05       		.byte	0x5
 385 014f 52       		.byte	0x52
 386 0150 BB000000 		.4byte	0xbb
 387 0154 04       		.uleb128 0x4
 388 0155 7F020000 		.4byte	.LASF30
 389 0159 05       		.byte	0x5
 390 015a 53       		.byte	0x53
 391 015b C6000000 		.4byte	0xc6
 392 015f 04       		.uleb128 0x4
ARM GAS  /tmp/ccd1Z52j.s 			page 8


 393 0160 E5050000 		.4byte	.LASF31
 394 0164 06       		.byte	0x6
 395 0165 33       		.byte	0x33
 396 0166 C6000000 		.4byte	0xc6
 397 016a 04       		.uleb128 0x4
 398 016b D0050000 		.4byte	.LASF32
 399 016f 06       		.byte	0x6
 400 0170 3F       		.byte	0x3f
 401 0171 75010000 		.4byte	0x175
 402 0175 06       		.uleb128 0x6
 403 0176 6A020000 		.4byte	.LASF54
 404 017a 60       		.byte	0x60
 405 017b 07       		.byte	0x7
 406 017c C2       		.byte	0xc2
 407 017d 7B020000 		.4byte	0x27b
 408 0181 07       		.uleb128 0x7
 409 0182 0D050000 		.4byte	.LASF33
 410 0186 07       		.byte	0x7
 411 0187 C3       		.byte	0xc3
 412 0188 86020000 		.4byte	0x286
 413 018c 00       		.byte	0
 414 018d 07       		.uleb128 0x7
 415 018e D5030000 		.4byte	.LASF34
 416 0192 07       		.byte	0x7
 417 0193 C5       		.byte	0xc5
 418 0194 86020000 		.4byte	0x286
 419 0198 04       		.byte	0x4
 420 0199 07       		.uleb128 0x7
 421 019a 20010000 		.4byte	.LASF35
 422 019e 07       		.byte	0x7
 423 019f C7       		.byte	0xc7
 424 01a0 28010000 		.4byte	0x128
 425 01a4 08       		.byte	0x8
 426 01a5 07       		.uleb128 0x7
 427 01a6 1C070000 		.4byte	.LASF36
 428 01aa 07       		.byte	0x7
 429 01ab C8       		.byte	0xc8
 430 01ac EF040000 		.4byte	0x4ef
 431 01b0 0C       		.byte	0xc
 432 01b1 07       		.uleb128 0x7
 433 01b2 83010000 		.4byte	.LASF37
 434 01b6 07       		.byte	0x7
 435 01b7 CA       		.byte	0xca
 436 01b8 86020000 		.4byte	0x286
 437 01bc 10       		.byte	0x10
 438 01bd 07       		.uleb128 0x7
 439 01be 58030000 		.4byte	.LASF38
 440 01c2 07       		.byte	0x7
 441 01c3 CB       		.byte	0xcb
 442 01c4 86020000 		.4byte	0x286
 443 01c8 14       		.byte	0x14
 444 01c9 07       		.uleb128 0x7
 445 01ca CD060000 		.4byte	.LASF39
 446 01ce 07       		.byte	0x7
 447 01cf D2       		.byte	0xd2
 448 01d0 93070000 		.4byte	0x793
 449 01d4 18       		.byte	0x18
ARM GAS  /tmp/ccd1Z52j.s 			page 9


 450 01d5 07       		.uleb128 0x7
 451 01d6 05020000 		.4byte	.LASF40
 452 01da 07       		.byte	0x7
 453 01db D8       		.byte	0xd8
 454 01dc A5070000 		.4byte	0x7a5
 455 01e0 1C       		.byte	0x1c
 456 01e1 07       		.uleb128 0x7
 457 01e2 1D040000 		.4byte	.LASF41
 458 01e6 07       		.byte	0x7
 459 01e7 DD       		.byte	0xdd
 460 01e8 12010000 		.4byte	0x112
 461 01ec 20       		.byte	0x20
 462 01ed 07       		.uleb128 0x7
 463 01ee 21050000 		.4byte	.LASF42
 464 01f2 07       		.byte	0x7
 465 01f3 E1       		.byte	0xe1
 466 01f4 07010000 		.4byte	0x107
 467 01f8 21       		.byte	0x21
 468 01f9 07       		.uleb128 0x7
 469 01fa A9060000 		.4byte	.LASF43
 470 01fe 07       		.byte	0x7
 471 01ff E6       		.byte	0xe6
 472 0200 1D010000 		.4byte	0x11d
 473 0204 22       		.byte	0x22
 474 0205 08       		.uleb128 0x8
 475 0206 705F7500 		.ascii	"p_u\000"
 476 020a 07       		.byte	0x7
 477 020b 3101     		.2byte	0x131
 478 020d CE060000 		.4byte	0x6ce
 479 0211 24       		.byte	0x24
 480 0212 09       		.uleb128 0x9
 481 0213 EE020000 		.4byte	.LASF44
 482 0217 07       		.byte	0x7
 483 0218 3601     		.2byte	0x136
 484 021a 8C020000 		.4byte	0x28c
 485 021e 28       		.byte	0x28
 486 021f 09       		.uleb128 0x9
 487 0220 2C020000 		.4byte	.LASF45
 488 0224 07       		.byte	0x7
 489 0225 3C01     		.2byte	0x13c
 490 0227 B0020000 		.4byte	0x2b0
 491 022b 2C       		.byte	0x2c
 492 022c 09       		.uleb128 0x9
 493 022d F0060000 		.4byte	.LASF46
 494 0231 07       		.byte	0x7
 495 0232 4001     		.2byte	0x140
 496 0234 33010000 		.4byte	0x133
 497 0238 34       		.byte	0x34
 498 0239 09       		.uleb128 0x9
 499 023a 62050000 		.4byte	.LASF47
 500 023e 07       		.byte	0x7
 501 023f 4601     		.2byte	0x146
 502 0241 3E010000 		.4byte	0x13e
 503 0245 38       		.byte	0x38
 504 0246 09       		.uleb128 0x9
 505 0247 09040000 		.4byte	.LASF48
 506 024b 07       		.byte	0x7
ARM GAS  /tmp/ccd1Z52j.s 			page 10


 507 024c 4D01     		.2byte	0x14d
 508 024e 8D070000 		.4byte	0x78d
 509 0252 3C       		.byte	0x3c
 510 0253 09       		.uleb128 0x9
 511 0254 EF050000 		.4byte	.LASF49
 512 0258 07       		.byte	0x7
 513 0259 5101     		.2byte	0x151
 514 025b 28010000 		.4byte	0x128
 515 025f 40       		.byte	0x40
 516 0260 09       		.uleb128 0x9
 517 0261 46010000 		.4byte	.LASF50
 518 0265 07       		.byte	0x7
 519 0266 5801     		.2byte	0x158
 520 0268 63030000 		.4byte	0x363
 521 026c 44       		.byte	0x44
 522 026d 09       		.uleb128 0x9
 523 026e 32050000 		.4byte	.LASF51
 524 0272 07       		.byte	0x7
 525 0273 5E01     		.2byte	0x15e
 526 0275 7F060000 		.4byte	0x67f
 527 0279 48       		.byte	0x48
 528 027a 00       		.byte	0
 529 027b 04       		.uleb128 0x4
 530 027c 01030000 		.4byte	.LASF52
 531 0280 06       		.byte	0x6
 532 0281 44       		.byte	0x44
 533 0282 86020000 		.4byte	0x286
 534 0286 0A       		.uleb128 0xa
 535 0287 04       		.byte	0x4
 536 0288 6A010000 		.4byte	0x16a
 537 028c 04       		.uleb128 0x4
 538 028d D4060000 		.4byte	.LASF53
 539 0291 06       		.byte	0x6
 540 0292 49       		.byte	0x49
 541 0293 97020000 		.4byte	0x297
 542 0297 06       		.uleb128 0x6
 543 0298 8E050000 		.4byte	.LASF55
 544 029c 04       		.byte	0x4
 545 029d 07       		.byte	0x7
 546 029e B0       		.byte	0xb0
 547 029f B0020000 		.4byte	0x2b0
 548 02a3 07       		.uleb128 0x7
 549 02a4 0D050000 		.4byte	.LASF33
 550 02a8 07       		.byte	0x7
 551 02a9 B1       		.byte	0xb1
 552 02aa 86020000 		.4byte	0x286
 553 02ae 00       		.byte	0
 554 02af 00       		.byte	0
 555 02b0 04       		.uleb128 0x4
 556 02b1 90060000 		.4byte	.LASF56
 557 02b5 06       		.byte	0x6
 558 02b6 50       		.byte	0x50
 559 02b7 BB020000 		.4byte	0x2bb
 560 02bb 06       		.uleb128 0x6
 561 02bc 5C000000 		.4byte	.LASF57
 562 02c0 08       		.byte	0x8
 563 02c1 07       		.byte	0x7
ARM GAS  /tmp/ccd1Z52j.s 			page 11


 564 02c2 B7       		.byte	0xb7
 565 02c3 E0020000 		.4byte	0x2e0
 566 02c7 07       		.uleb128 0x7
 567 02c8 0D050000 		.4byte	.LASF33
 568 02cc 07       		.byte	0x7
 569 02cd B8       		.byte	0xb8
 570 02ce 86020000 		.4byte	0x286
 571 02d2 00       		.byte	0
 572 02d3 07       		.uleb128 0x7
 573 02d4 D5030000 		.4byte	.LASF34
 574 02d8 07       		.byte	0x7
 575 02d9 B9       		.byte	0xb9
 576 02da 86020000 		.4byte	0x286
 577 02de 04       		.byte	0x4
 578 02df 00       		.byte	0
 579 02e0 04       		.uleb128 0x4
 580 02e1 07000000 		.4byte	.LASF58
 581 02e5 06       		.byte	0x6
 582 02e6 57       		.byte	0x57
 583 02e7 EB020000 		.4byte	0x2eb
 584 02eb 0B       		.uleb128 0xb
 585 02ec A5020000 		.4byte	.LASF59
 586 02f0 1C       		.byte	0x1c
 587 02f1 07       		.byte	0x7
 588 02f2 9001     		.2byte	0x190
 589 02f4 47030000 		.4byte	0x347
 590 02f8 09       		.uleb128 0x9
 591 02f9 7D050000 		.4byte	.LASF60
 592 02fd 07       		.byte	0x7
 593 02fe 9101     		.2byte	0x191
 594 0300 B0020000 		.4byte	0x2b0
 595 0304 00       		.byte	0
 596 0305 09       		.uleb128 0x9
 597 0306 25040000 		.4byte	.LASF61
 598 030a 07       		.byte	0x7
 599 030b 9201     		.2byte	0x192
 600 030d 28010000 		.4byte	0x128
 601 0311 08       		.byte	0x8
 602 0312 09       		.uleb128 0x9
 603 0313 60030000 		.4byte	.LASF62
 604 0317 07       		.byte	0x7
 605 0318 9401     		.2byte	0x194
 606 031a EF040000 		.4byte	0x4ef
 607 031e 0C       		.byte	0xc
 608 031f 09       		.uleb128 0x9
 609 0320 A3010000 		.4byte	.LASF63
 610 0324 07       		.byte	0x7
 611 0325 9701     		.2byte	0x197
 612 0327 86020000 		.4byte	0x286
 613 032b 10       		.byte	0x10
 614 032c 09       		.uleb128 0x9
 615 032d 81030000 		.4byte	.LASF64
 616 0331 07       		.byte	0x7
 617 0332 9801     		.2byte	0x198
 618 0334 86020000 		.4byte	0x286
 619 0338 14       		.byte	0x14
 620 0339 09       		.uleb128 0x9
ARM GAS  /tmp/ccd1Z52j.s 			page 12


 621 033a 77030000 		.4byte	.LASF65
 622 033e 07       		.byte	0x7
 623 033f 9B01     		.2byte	0x19b
 624 0341 86020000 		.4byte	0x286
 625 0345 18       		.byte	0x18
 626 0346 00       		.byte	0
 627 0347 04       		.uleb128 0x4
 628 0348 FA050000 		.4byte	.LASF66
 629 034c 06       		.byte	0x6
 630 034d 5C       		.byte	0x5c
 631 034e 52030000 		.4byte	0x352
 632 0352 0A       		.uleb128 0xa
 633 0353 04       		.byte	0x4
 634 0354 58030000 		.4byte	0x358
 635 0358 0C       		.uleb128 0xc
 636 0359 63030000 		.4byte	0x363
 637 035d 0D       		.uleb128 0xd
 638 035e 63030000 		.4byte	0x363
 639 0362 00       		.byte	0
 640 0363 0E       		.uleb128 0xe
 641 0364 04       		.byte	0x4
 642 0365 04       		.uleb128 0x4
 643 0366 C5030000 		.4byte	.LASF67
 644 036a 06       		.byte	0x6
 645 036b 61       		.byte	0x61
 646 036c 70030000 		.4byte	0x370
 647 0370 0B       		.uleb128 0xb
 648 0371 44050000 		.4byte	.LASF68
 649 0375 14       		.byte	0x14
 650 0376 07       		.byte	0x7
 651 0377 6B01     		.2byte	0x16b
 652 0379 BF030000 		.4byte	0x3bf
 653 037d 09       		.uleb128 0x9
 654 037e 1D020000 		.4byte	.LASF69
 655 0382 07       		.byte	0x7
 656 0383 6C01     		.2byte	0x16c
 657 0385 AB070000 		.4byte	0x7ab
 658 0389 00       		.byte	0
 659 038a 09       		.uleb128 0x9
 660 038b B9010000 		.4byte	.LASF70
 661 038f 07       		.byte	0x7
 662 0390 6D01     		.2byte	0x16d
 663 0392 AB070000 		.4byte	0x7ab
 664 0396 04       		.byte	0x4
 665 0397 09       		.uleb128 0x9
 666 0398 85050000 		.4byte	.LASF71
 667 039c 07       		.byte	0x7
 668 039d 6E01     		.2byte	0x16e
 669 039f 5F010000 		.4byte	0x15f
 670 03a3 08       		.byte	0x8
 671 03a4 09       		.uleb128 0x9
 672 03a5 22070000 		.4byte	.LASF72
 673 03a9 07       		.byte	0x7
 674 03aa 6F01     		.2byte	0x16f
 675 03ac 47030000 		.4byte	0x347
 676 03b0 0C       		.byte	0xc
 677 03b1 09       		.uleb128 0x9
ARM GAS  /tmp/ccd1Z52j.s 			page 13


 678 03b2 50060000 		.4byte	.LASF73
 679 03b6 07       		.byte	0x7
 680 03b7 7101     		.2byte	0x171
 681 03b9 63030000 		.4byte	0x363
 682 03bd 10       		.byte	0x10
 683 03be 00       		.byte	0
 684 03bf 04       		.uleb128 0x4
 685 03c0 F4000000 		.4byte	.LASF74
 686 03c4 06       		.byte	0x6
 687 03c5 66       		.byte	0x66
 688 03c6 CA030000 		.4byte	0x3ca
 689 03ca 0B       		.uleb128 0xb
 690 03cb 14030000 		.4byte	.LASF75
 691 03cf 10       		.byte	0x10
 692 03d0 07       		.byte	0x7
 693 03d1 7B01     		.2byte	0x17b
 694 03d3 0C040000 		.4byte	0x40c
 695 03d7 09       		.uleb128 0x9
 696 03d8 1D020000 		.4byte	.LASF69
 697 03dc 07       		.byte	0x7
 698 03dd 7C01     		.2byte	0x17c
 699 03df AB070000 		.4byte	0x7ab
 700 03e3 00       		.byte	0
 701 03e4 09       		.uleb128 0x9
 702 03e5 B9010000 		.4byte	.LASF70
 703 03e9 07       		.byte	0x7
 704 03ea 7E01     		.2byte	0x17e
 705 03ec AB070000 		.4byte	0x7ab
 706 03f0 04       		.byte	0x4
 707 03f1 09       		.uleb128 0x9
 708 03f2 85050000 		.4byte	.LASF71
 709 03f6 07       		.byte	0x7
 710 03f7 8001     		.2byte	0x180
 711 03f9 5F010000 		.4byte	0x15f
 712 03fd 08       		.byte	0x8
 713 03fe 09       		.uleb128 0x9
 714 03ff 4C030000 		.4byte	.LASF76
 715 0403 07       		.byte	0x7
 716 0404 8801     		.2byte	0x188
 717 0406 5F010000 		.4byte	0x15f
 718 040a 0C       		.byte	0xc
 719 040b 00       		.byte	0
 720 040c 04       		.uleb128 0x4
 721 040d 6D000000 		.4byte	.LASF77
 722 0411 06       		.byte	0x6
 723 0412 6B       		.byte	0x6b
 724 0413 17040000 		.4byte	0x417
 725 0417 0F       		.uleb128 0xf
 726 0418 CB010000 		.4byte	.LASF78
 727 041c 1404     		.2byte	0x414
 728 041e 07       		.byte	0x7
 729 041f A201     		.2byte	0x1a2
 730 0421 5A040000 		.4byte	0x45a
 731 0425 09       		.uleb128 0x9
 732 0426 0E060000 		.4byte	.LASF79
 733 042a 07       		.byte	0x7
 734 042b AA01     		.2byte	0x1aa
ARM GAS  /tmp/ccd1Z52j.s 			page 14


 735 042d B1070000 		.4byte	0x7b1
 736 0431 00       		.byte	0
 737 0432 09       		.uleb128 0x9
 738 0433 B0060000 		.4byte	.LASF80
 739 0437 07       		.byte	0x7
 740 0438 AF01     		.2byte	0x1af
 741 043a 49010000 		.4byte	0x149
 742 043e 04       		.byte	0x4
 743 043f 09       		.uleb128 0x9
 744 0440 F0010000 		.4byte	.LASF81
 745 0444 07       		.byte	0x7
 746 0445 B301     		.2byte	0x1b3
 747 0447 49010000 		.4byte	0x149
 748 044b 08       		.byte	0x8
 749 044c 09       		.uleb128 0x9
 750 044d E3060000 		.4byte	.LASF82
 751 0451 07       		.byte	0x7
 752 0452 B901     		.2byte	0x1b9
 753 0454 11060000 		.4byte	0x611
 754 0458 0C       		.byte	0xc
 755 0459 00       		.byte	0
 756 045a 04       		.uleb128 0x4
 757 045b 86020000 		.4byte	.LASF83
 758 045f 06       		.byte	0x6
 759 0460 70       		.byte	0x70
 760 0461 65040000 		.4byte	0x465
 761 0465 0F       		.uleb128 0xf
 762 0466 3A050000 		.4byte	.LASF84
 763 046a D805     		.2byte	0x5d8
 764 046c 07       		.byte	0x7
 765 046d C201     		.2byte	0x1c2
 766 046f D2040000 		.4byte	0x4d2
 767 0473 09       		.uleb128 0x9
 768 0474 B8060000 		.4byte	.LASF85
 769 0478 07       		.byte	0x7
 770 0479 C601     		.2byte	0x1c6
 771 047b E0020000 		.4byte	0x2e0
 772 047f 00       		.byte	0
 773 0480 09       		.uleb128 0x9
 774 0481 56010000 		.4byte	.LASF86
 775 0485 07       		.byte	0x7
 776 0486 CA01     		.2byte	0x1ca
 777 0488 BF030000 		.4byte	0x3bf
 778 048c 1C       		.byte	0x1c
 779 048d 08       		.uleb128 0x8
 780 048e 64626700 		.ascii	"dbg\000"
 781 0492 07       		.byte	0x7
 782 0493 CE01     		.2byte	0x1ce
 783 0495 0C040000 		.4byte	0x40c
 784 0499 2C       		.byte	0x2c
 785 049a 10       		.uleb128 0x10
 786 049b E9000000 		.4byte	.LASF87
 787 049f 07       		.byte	0x7
 788 04a0 D201     		.2byte	0x1d2
 789 04a2 6A010000 		.4byte	0x16a
 790 04a6 4004     		.2byte	0x440
 791 04a8 11       		.uleb128 0x11
ARM GAS  /tmp/ccd1Z52j.s 			page 15


 792 04a9 746D00   		.ascii	"tm\000"
 793 04ac 07       		.byte	0x7
 794 04ad D701     		.2byte	0x1d7
 795 04af 31060000 		.4byte	0x631
 796 04b3 A004     		.2byte	0x4a0
 797 04b5 10       		.uleb128 0x10
 798 04b6 32000000 		.4byte	.LASF88
 799 04ba 07       		.byte	0x7
 800 04bb DD01     		.2byte	0x1dd
 801 04bd C3060000 		.4byte	0x6c3
 802 04c1 A804     		.2byte	0x4a8
 803 04c3 10       		.uleb128 0x10
 804 04c4 C9020000 		.4byte	.LASF89
 805 04c8 07       		.byte	0x7
 806 04c9 E301     		.2byte	0x1e3
 807 04cb B6070000 		.4byte	0x7b6
 808 04cf E004     		.2byte	0x4e0
 809 04d1 00       		.byte	0
 810 04d2 03       		.uleb128 0x3
 811 04d3 04       		.byte	0x4
 812 04d4 07       		.byte	0x7
 813 04d5 F8020000 		.4byte	.LASF90
 814 04d9 04       		.uleb128 0x4
 815 04da B0010000 		.4byte	.LASF91
 816 04de 08       		.byte	0x8
 817 04df 65       		.byte	0x65
 818 04e0 63030000 		.4byte	0x363
 819 04e4 04       		.uleb128 0x4
 820 04e5 D8020000 		.4byte	.LASF92
 821 04e9 08       		.byte	0x8
 822 04ea 6D       		.byte	0x6d
 823 04eb D1000000 		.4byte	0xd1
 824 04ef 06       		.uleb128 0x6
 825 04f0 2A060000 		.4byte	.LASF93
 826 04f4 04       		.byte	0x4
 827 04f5 08       		.byte	0x8
 828 04f6 89       		.byte	0x89
 829 04f7 08050000 		.4byte	0x508
 830 04fb 12       		.uleb128 0x12
 831 04fc 72313300 		.ascii	"r13\000"
 832 0500 08       		.byte	0x8
 833 0501 8A       		.byte	0x8a
 834 0502 83050000 		.4byte	0x583
 835 0506 00       		.byte	0
 836 0507 00       		.byte	0
 837 0508 06       		.uleb128 0x6
 838 0509 50000000 		.4byte	.LASF94
 839 050d 24       		.byte	0x24
 840 050e 09       		.byte	0x9
 841 050f F4       		.byte	0xf4
 842 0510 83050000 		.4byte	0x583
 843 0514 08       		.uleb128 0x8
 844 0515 723400   		.ascii	"r4\000"
 845 0518 09       		.byte	0x9
 846 0519 0701     		.2byte	0x107
 847 051b D9040000 		.4byte	0x4d9
 848 051f 00       		.byte	0
ARM GAS  /tmp/ccd1Z52j.s 			page 16


 849 0520 08       		.uleb128 0x8
 850 0521 723500   		.ascii	"r5\000"
 851 0524 09       		.byte	0x9
 852 0525 0801     		.2byte	0x108
 853 0527 D9040000 		.4byte	0x4d9
 854 052b 04       		.byte	0x4
 855 052c 08       		.uleb128 0x8
 856 052d 723600   		.ascii	"r6\000"
 857 0530 09       		.byte	0x9
 858 0531 0901     		.2byte	0x109
 859 0533 D9040000 		.4byte	0x4d9
 860 0537 08       		.byte	0x8
 861 0538 08       		.uleb128 0x8
 862 0539 723700   		.ascii	"r7\000"
 863 053c 09       		.byte	0x9
 864 053d 0A01     		.2byte	0x10a
 865 053f D9040000 		.4byte	0x4d9
 866 0543 0C       		.byte	0xc
 867 0544 08       		.uleb128 0x8
 868 0545 723800   		.ascii	"r8\000"
 869 0548 09       		.byte	0x9
 870 0549 0B01     		.2byte	0x10b
 871 054b D9040000 		.4byte	0x4d9
 872 054f 10       		.byte	0x10
 873 0550 08       		.uleb128 0x8
 874 0551 723900   		.ascii	"r9\000"
 875 0554 09       		.byte	0x9
 876 0555 0C01     		.2byte	0x10c
 877 0557 D9040000 		.4byte	0x4d9
 878 055b 14       		.byte	0x14
 879 055c 08       		.uleb128 0x8
 880 055d 72313000 		.ascii	"r10\000"
 881 0561 09       		.byte	0x9
 882 0562 0D01     		.2byte	0x10d
 883 0564 D9040000 		.4byte	0x4d9
 884 0568 18       		.byte	0x18
 885 0569 08       		.uleb128 0x8
 886 056a 72313100 		.ascii	"r11\000"
 887 056e 09       		.byte	0x9
 888 056f 0E01     		.2byte	0x10e
 889 0571 D9040000 		.4byte	0x4d9
 890 0575 1C       		.byte	0x1c
 891 0576 08       		.uleb128 0x8
 892 0577 6C7200   		.ascii	"lr\000"
 893 057a 09       		.byte	0x9
 894 057b 0F01     		.2byte	0x10f
 895 057d D9040000 		.4byte	0x4d9
 896 0581 20       		.byte	0x20
 897 0582 00       		.byte	0
 898 0583 0A       		.uleb128 0xa
 899 0584 04       		.byte	0x4
 900 0585 08050000 		.4byte	0x508
 901 0589 13       		.uleb128 0x13
 902 058a 10       		.byte	0x10
 903 058b 0A       		.byte	0xa
 904 058c 51       		.byte	0x51
 905 058d C2050000 		.4byte	0x5c2
ARM GAS  /tmp/ccd1Z52j.s 			page 17


 906 0591 07       		.uleb128 0x7
 907 0592 14000000 		.4byte	.LASF95
 908 0596 0A       		.byte	0xa
 909 0597 55       		.byte	0x55
 910 0598 5F010000 		.4byte	0x15f
 911 059c 00       		.byte	0
 912 059d 07       		.uleb128 0x7
 913 059e 74010000 		.4byte	.LASF96
 914 05a2 0A       		.byte	0xa
 915 05a3 59       		.byte	0x59
 916 05a4 86020000 		.4byte	0x286
 917 05a8 04       		.byte	0x4
 918 05a9 07       		.uleb128 0x7
 919 05aa 12070000 		.4byte	.LASF97
 920 05ae 0A       		.byte	0xa
 921 05af 5D       		.byte	0x5d
 922 05b0 63030000 		.4byte	0x363
 923 05b4 08       		.byte	0x8
 924 05b5 07       		.uleb128 0x7
 925 05b6 D1000000 		.4byte	.LASF98
 926 05ba 0A       		.byte	0xa
 927 05bb 61       		.byte	0x61
 928 05bc A5000000 		.4byte	0xa5
 929 05c0 0C       		.byte	0xc
 930 05c1 00       		.byte	0
 931 05c2 04       		.uleb128 0x4
 932 05c3 3D030000 		.4byte	.LASF99
 933 05c7 0A       		.byte	0xa
 934 05c8 62       		.byte	0x62
 935 05c9 89050000 		.4byte	0x589
 936 05cd 14       		.uleb128 0x14
 937 05ce 0804     		.2byte	0x408
 938 05d0 0A       		.byte	0xa
 939 05d1 67       		.byte	0x67
 940 05d2 FB050000 		.4byte	0x5fb
 941 05d6 07       		.uleb128 0x7
 942 05d7 93010000 		.4byte	.LASF100
 943 05db 0A       		.byte	0xa
 944 05dc 6B       		.byte	0x6b
 945 05dd 28000000 		.4byte	0x28
 946 05e1 00       		.byte	0
 947 05e2 07       		.uleb128 0x7
 948 05e3 00000000 		.4byte	.LASF101
 949 05e7 0A       		.byte	0xa
 950 05e8 6F       		.byte	0x6f
 951 05e9 FB050000 		.4byte	0x5fb
 952 05ed 04       		.byte	0x4
 953 05ee 07       		.uleb128 0x7
 954 05ef BB030000 		.4byte	.LASF102
 955 05f3 0A       		.byte	0xa
 956 05f4 73       		.byte	0x73
 957 05f5 01060000 		.4byte	0x601
 958 05f9 08       		.byte	0x8
 959 05fa 00       		.byte	0
 960 05fb 0A       		.uleb128 0xa
 961 05fc 04       		.byte	0x4
 962 05fd C2050000 		.4byte	0x5c2
ARM GAS  /tmp/ccd1Z52j.s 			page 18


 963 0601 15       		.uleb128 0x15
 964 0602 C2050000 		.4byte	0x5c2
 965 0606 11060000 		.4byte	0x611
 966 060a 16       		.uleb128 0x16
 967 060b D2040000 		.4byte	0x4d2
 968 060f 3F       		.byte	0x3f
 969 0610 00       		.byte	0
 970 0611 04       		.uleb128 0x4
 971 0612 BF000000 		.4byte	.LASF103
 972 0616 0A       		.byte	0xa
 973 0617 74       		.byte	0x74
 974 0618 CD050000 		.4byte	0x5cd
 975 061c 13       		.uleb128 0x13
 976 061d 04       		.byte	0x4
 977 061e 0B       		.byte	0xb
 978 061f 38       		.byte	0x38
 979 0620 31060000 		.4byte	0x631
 980 0624 07       		.uleb128 0x7
 981 0625 18060000 		.4byte	.LASF104
 982 0629 0B       		.byte	0xb
 983 062a 3C       		.byte	0x3c
 984 062b F1000000 		.4byte	0xf1
 985 062f 00       		.byte	0
 986 0630 00       		.byte	0
 987 0631 04       		.uleb128 0x4
 988 0632 66030000 		.4byte	.LASF105
 989 0636 0B       		.byte	0xb
 990 0637 3D       		.byte	0x3d
 991 0638 1C060000 		.4byte	0x61c
 992 063c 13       		.uleb128 0x13
 993 063d 18       		.byte	0x18
 994 063e 0B       		.byte	0xb
 995 063f 48       		.byte	0x48
 996 0640 7F060000 		.4byte	0x67f
 997 0644 07       		.uleb128 0x7
 998 0645 D9050000 		.4byte	.LASF106
 999 0649 0B       		.byte	0xb
 1000 064a 49       		.byte	0x49
 1001 064b F1000000 		.4byte	0xf1
 1002 064f 00       		.byte	0
 1003 0650 07       		.uleb128 0x7
 1004 0651 89000000 		.4byte	.LASF107
 1005 0655 0B       		.byte	0xb
 1006 0656 4A       		.byte	0x4a
 1007 0657 F1000000 		.4byte	0xf1
 1008 065b 04       		.byte	0x4
 1009 065c 07       		.uleb128 0x7
 1010 065d 7A020000 		.4byte	.LASF108
 1011 0661 0B       		.byte	0xb
 1012 0662 4B       		.byte	0x4b
 1013 0663 F1000000 		.4byte	0xf1
 1014 0667 08       		.byte	0x8
 1015 0668 12       		.uleb128 0x12
 1016 0669 6E00     		.ascii	"n\000"
 1017 066b 0B       		.byte	0xb
 1018 066c 4C       		.byte	0x4c
 1019 066d 54010000 		.4byte	0x154
ARM GAS  /tmp/ccd1Z52j.s 			page 19


 1020 0671 0C       		.byte	0xc
 1021 0672 07       		.uleb128 0x7
 1022 0673 95030000 		.4byte	.LASF109
 1023 0677 0B       		.byte	0xb
 1024 0678 4D       		.byte	0x4d
 1025 0679 FC000000 		.4byte	0xfc
 1026 067d 10       		.byte	0x10
 1027 067e 00       		.byte	0
 1028 067f 04       		.uleb128 0x4
 1029 0680 8F000000 		.4byte	.LASF110
 1030 0684 0B       		.byte	0xb
 1031 0685 4E       		.byte	0x4e
 1032 0686 3C060000 		.4byte	0x63c
 1033 068a 13       		.uleb128 0x13
 1034 068b 38       		.byte	0x38
 1035 068c 0C       		.byte	0xc
 1036 068d 38       		.byte	0x38
 1037 068e C3060000 		.4byte	0x6c3
 1038 0692 07       		.uleb128 0x7
 1039 0693 3C020000 		.4byte	.LASF111
 1040 0697 0C       		.byte	0xc
 1041 0698 39       		.byte	0x39
 1042 0699 54010000 		.4byte	0x154
 1043 069d 00       		.byte	0
 1044 069e 07       		.uleb128 0x7
 1045 069f E4030000 		.4byte	.LASF112
 1046 06a3 0C       		.byte	0xc
 1047 06a4 3A       		.byte	0x3a
 1048 06a5 54010000 		.4byte	0x154
 1049 06a9 04       		.byte	0x4
 1050 06aa 07       		.uleb128 0x7
 1051 06ab FF060000 		.4byte	.LASF113
 1052 06af 0C       		.byte	0xc
 1053 06b0 3B       		.byte	0x3b
 1054 06b1 7F060000 		.4byte	0x67f
 1055 06b5 08       		.byte	0x8
 1056 06b6 07       		.uleb128 0x7
 1057 06b7 9A020000 		.4byte	.LASF114
 1058 06bb 0C       		.byte	0xc
 1059 06bc 3D       		.byte	0x3d
 1060 06bd 7F060000 		.4byte	0x67f
 1061 06c1 20       		.byte	0x20
 1062 06c2 00       		.byte	0
 1063 06c3 04       		.uleb128 0x4
 1064 06c4 5B020000 		.4byte	.LASF115
 1065 06c8 0C       		.byte	0xc
 1066 06c9 3F       		.byte	0x3f
 1067 06ca 8A060000 		.4byte	0x68a
 1068 06ce 17       		.uleb128 0x17
 1069 06cf 04       		.byte	0x4
 1070 06d0 07       		.byte	0x7
 1071 06d1 FA       		.byte	0xfa
 1072 06d2 2B070000 		.4byte	0x72b
 1073 06d6 18       		.uleb128 0x18
 1074 06d7 22000000 		.4byte	.LASF116
 1075 06db 07       		.byte	0x7
 1076 06dc 0101     		.2byte	0x101
ARM GAS  /tmp/ccd1Z52j.s 			page 20


 1077 06de 33010000 		.4byte	0x133
 1078 06e2 18       		.uleb128 0x18
 1079 06e3 E0000000 		.4byte	.LASF117
 1080 06e7 07       		.byte	0x7
 1081 06e8 0801     		.2byte	0x108
 1082 06ea 33010000 		.4byte	0x133
 1083 06ee 18       		.uleb128 0x18
 1084 06ef C6060000 		.4byte	.LASF118
 1085 06f3 07       		.byte	0x7
 1086 06f4 0F01     		.2byte	0x10f
 1087 06f6 63030000 		.4byte	0x363
 1088 06fa 18       		.uleb128 0x18
 1089 06fb 1C000000 		.4byte	.LASF119
 1090 06ff 07       		.byte	0x7
 1091 0700 1601     		.2byte	0x116
 1092 0702 2B070000 		.4byte	0x72b
 1093 0706 18       		.uleb128 0x18
 1094 0707 25020000 		.4byte	.LASF120
 1095 070b 07       		.byte	0x7
 1096 070c 1E01     		.2byte	0x11e
 1097 070e 56070000 		.4byte	0x756
 1098 0712 18       		.uleb128 0x18
 1099 0713 76050000 		.4byte	.LASF121
 1100 0717 07       		.byte	0x7
 1101 0718 2701     		.2byte	0x127
 1102 071a 8D070000 		.4byte	0x78d
 1103 071e 18       		.uleb128 0x18
 1104 071f 06050000 		.4byte	.LASF122
 1105 0723 07       		.byte	0x7
 1106 0724 2F01     		.2byte	0x12f
 1107 0726 3E010000 		.4byte	0x13e
 1108 072a 00       		.byte	0
 1109 072b 0A       		.uleb128 0xa
 1110 072c 04       		.byte	0x4
 1111 072d 7B020000 		.4byte	0x27b
 1112 0731 06       		.uleb128 0x6
 1113 0732 55050000 		.4byte	.LASF123
 1114 0736 0C       		.byte	0xc
 1115 0737 0D       		.byte	0xd
 1116 0738 34       		.byte	0x34
 1117 0739 56070000 		.4byte	0x756
 1118 073d 07       		.uleb128 0x7
 1119 073e 8B010000 		.4byte	.LASF124
 1120 0742 0D       		.byte	0xd
 1121 0743 35       		.byte	0x35
 1122 0744 B0020000 		.4byte	0x2b0
 1123 0748 00       		.byte	0
 1124 0749 07       		.uleb128 0x7
 1125 074a 42020000 		.4byte	.LASF125
 1126 074e 0D       		.byte	0xd
 1127 074f 37       		.byte	0x37
 1128 0750 49010000 		.4byte	0x149
 1129 0754 08       		.byte	0x8
 1130 0755 00       		.byte	0
 1131 0756 0A       		.uleb128 0xa
 1132 0757 04       		.byte	0x4
 1133 0758 31070000 		.4byte	0x731
ARM GAS  /tmp/ccd1Z52j.s 			page 21


 1134 075c 06       		.uleb128 0x6
 1135 075d A0060000 		.4byte	.LASF126
 1136 0761 10       		.byte	0x10
 1137 0762 0E       		.byte	0xe
 1138 0763 39       		.byte	0x39
 1139 0764 8D070000 		.4byte	0x78d
 1140 0768 07       		.uleb128 0x7
 1141 0769 4E010000 		.4byte	.LASF127
 1142 076d 0E       		.byte	0xe
 1143 076e 3A       		.byte	0x3a
 1144 076f B0020000 		.4byte	0x2b0
 1145 0773 00       		.byte	0
 1146 0774 07       		.uleb128 0x7
 1147 0775 0A070000 		.4byte	.LASF128
 1148 0779 0E       		.byte	0xe
 1149 077a 3C       		.byte	0x3c
 1150 077b 86020000 		.4byte	0x286
 1151 077f 08       		.byte	0x8
 1152 0780 07       		.uleb128 0x7
 1153 0781 DE050000 		.4byte	.LASF129
 1154 0785 0E       		.byte	0xe
 1155 0786 3E       		.byte	0x3e
 1156 0787 D1070000 		.4byte	0x7d1
 1157 078b 0C       		.byte	0xc
 1158 078c 00       		.byte	0
 1159 078d 0A       		.uleb128 0xa
 1160 078e 04       		.byte	0x4
 1161 078f 5C070000 		.4byte	0x75c
 1162 0793 0A       		.uleb128 0xa
 1163 0794 04       		.byte	0x4
 1164 0795 A0070000 		.4byte	0x7a0
 1165 0799 03       		.uleb128 0x3
 1166 079a 01       		.byte	0x1
 1167 079b 08       		.byte	0x8
 1168 079c B0050000 		.4byte	.LASF130
 1169 07a0 19       		.uleb128 0x19
 1170 07a1 99070000 		.4byte	0x799
 1171 07a5 0A       		.uleb128 0xa
 1172 07a6 04       		.byte	0x4
 1173 07a7 E4040000 		.4byte	0x4e4
 1174 07ab 0A       		.uleb128 0xa
 1175 07ac 04       		.byte	0x4
 1176 07ad 65030000 		.4byte	0x365
 1177 07b1 05       		.uleb128 0x5
 1178 07b2 93070000 		.4byte	0x793
 1179 07b6 15       		.uleb128 0x15
 1180 07b7 E4040000 		.4byte	0x4e4
 1181 07bb C6070000 		.4byte	0x7c6
 1182 07bf 16       		.uleb128 0x16
 1183 07c0 D2040000 		.4byte	0x4d2
 1184 07c4 1E       		.byte	0x1e
 1185 07c5 00       		.byte	0
 1186 07c6 04       		.uleb128 0x4
 1187 07c7 E8010000 		.4byte	.LASF131
 1188 07cb 0E       		.byte	0xe
 1189 07cc 34       		.byte	0x34
 1190 07cd 5C070000 		.4byte	0x75c
ARM GAS  /tmp/ccd1Z52j.s 			page 22


 1191 07d1 0A       		.uleb128 0xa
 1192 07d2 04       		.byte	0x4
 1193 07d3 C6070000 		.4byte	0x7c6
 1194 07d7 03       		.uleb128 0x3
 1195 07d8 01       		.byte	0x1
 1196 07d9 02       		.byte	0x2
 1197 07da ED030000 		.4byte	.LASF132
 1198 07de 13       		.uleb128 0x13
 1199 07df 04       		.byte	0x4
 1200 07e0 0F       		.byte	0xf
 1201 07e1 B3       		.byte	0xb3
 1202 07e2 FF070000 		.4byte	0x7ff
 1203 07e6 12       		.uleb128 0x12
 1204 07e7 73657400 		.ascii	"set\000"
 1205 07eb 0F       		.byte	0xf
 1206 07ec B4       		.byte	0xb4
 1207 07ed B0000000 		.4byte	0xb0
 1208 07f1 00       		.byte	0
 1209 07f2 07       		.uleb128 0x7
 1210 07f3 2B030000 		.4byte	.LASF133
 1211 07f7 0F       		.byte	0xf
 1212 07f8 B5       		.byte	0xb5
 1213 07f9 B0000000 		.4byte	0xb0
 1214 07fd 02       		.byte	0x2
 1215 07fe 00       		.byte	0
 1216 07ff 17       		.uleb128 0x17
 1217 0800 04       		.byte	0x4
 1218 0801 0F       		.byte	0xf
 1219 0802 B1       		.byte	0xb1
 1220 0803 1A080000 		.4byte	0x81a
 1221 0807 1A       		.uleb128 0x1a
 1222 0808 5700     		.ascii	"W\000"
 1223 080a 0F       		.byte	0xf
 1224 080b B2       		.byte	0xb2
 1225 080c C6000000 		.4byte	0xc6
 1226 0810 1A       		.uleb128 0x1a
 1227 0811 4800     		.ascii	"H\000"
 1228 0813 0F       		.byte	0xf
 1229 0814 B6       		.byte	0xb6
 1230 0815 DE070000 		.4byte	0x7de
 1231 0819 00       		.byte	0
 1232 081a 13       		.uleb128 0x13
 1233 081b 2C       		.byte	0x2c
 1234 081c 0F       		.byte	0xf
 1235 081d A9       		.byte	0xa9
 1236 081e A7080000 		.4byte	0x8a7
 1237 0822 07       		.uleb128 0x7
 1238 0823 A2000000 		.4byte	.LASF134
 1239 0827 0F       		.byte	0xf
 1240 0828 AB       		.byte	0xab
 1241 0829 EC000000 		.4byte	0xec
 1242 082d 00       		.byte	0
 1243 082e 07       		.uleb128 0x7
 1244 082f 49000000 		.4byte	.LASF135
 1245 0833 0F       		.byte	0xf
 1246 0834 AC       		.byte	0xac
 1247 0835 EC000000 		.4byte	0xec
ARM GAS  /tmp/ccd1Z52j.s 			page 23


 1248 0839 04       		.byte	0x4
 1249 083a 07       		.uleb128 0x7
 1250 083b 9B010000 		.4byte	.LASF136
 1251 083f 0F       		.byte	0xf
 1252 0840 AD       		.byte	0xad
 1253 0841 EC000000 		.4byte	0xec
 1254 0845 08       		.byte	0x8
 1255 0846 07       		.uleb128 0x7
 1256 0847 DA000000 		.4byte	.LASF137
 1257 084b 0F       		.byte	0xf
 1258 084c AE       		.byte	0xae
 1259 084d EC000000 		.4byte	0xec
 1260 0851 0C       		.byte	0xc
 1261 0852 12       		.uleb128 0x12
 1262 0853 49445200 		.ascii	"IDR\000"
 1263 0857 0F       		.byte	0xf
 1264 0858 AF       		.byte	0xaf
 1265 0859 EC000000 		.4byte	0xec
 1266 085d 10       		.byte	0x10
 1267 085e 12       		.uleb128 0x12
 1268 085f 4F445200 		.ascii	"ODR\000"
 1269 0863 0F       		.byte	0xf
 1270 0864 B0       		.byte	0xb0
 1271 0865 EC000000 		.4byte	0xec
 1272 0869 14       		.byte	0x14
 1273 086a 07       		.uleb128 0x7
 1274 086b 41010000 		.4byte	.LASF138
 1275 086f 0F       		.byte	0xf
 1276 0870 B7       		.byte	0xb7
 1277 0871 A7080000 		.4byte	0x8a7
 1278 0875 18       		.byte	0x18
 1279 0876 07       		.uleb128 0x7
 1280 0877 37020000 		.4byte	.LASF139
 1281 087b 0F       		.byte	0xf
 1282 087c B8       		.byte	0xb8
 1283 087d EC000000 		.4byte	0xec
 1284 0881 1C       		.byte	0x1c
 1285 0882 07       		.uleb128 0x7
 1286 0883 AE030000 		.4byte	.LASF140
 1287 0887 0F       		.byte	0xf
 1288 0888 B9       		.byte	0xb9
 1289 0889 EC000000 		.4byte	0xec
 1290 088d 20       		.byte	0x20
 1291 088e 07       		.uleb128 0x7
 1292 088f 90030000 		.4byte	.LASF141
 1293 0893 0F       		.byte	0xf
 1294 0894 BA       		.byte	0xba
 1295 0895 EC000000 		.4byte	0xec
 1296 0899 24       		.byte	0x24
 1297 089a 12       		.uleb128 0x12
 1298 089b 42525200 		.ascii	"BRR\000"
 1299 089f 0F       		.byte	0xf
 1300 08a0 BB       		.byte	0xbb
 1301 08a1 EC000000 		.4byte	0xec
 1302 08a5 28       		.byte	0x28
 1303 08a6 00       		.byte	0
 1304 08a7 05       		.uleb128 0x5
ARM GAS  /tmp/ccd1Z52j.s 			page 24


 1305 08a8 FF070000 		.4byte	0x7ff
 1306 08ac 04       		.uleb128 0x4
 1307 08ad DB010000 		.4byte	.LASF142
 1308 08b1 0F       		.byte	0xf
 1309 08b2 BC       		.byte	0xbc
 1310 08b3 1A080000 		.4byte	0x81a
 1311 08b7 1B       		.uleb128 0x1b
 1312 08b8 7C000000 		.4byte	.LASF143
 1313 08bc 0F       		.byte	0xf
 1314 08bd 0E01     		.2byte	0x10e
 1315 08bf C6000000 		.4byte	0xc6
 1316 08c3 1B       		.uleb128 0x1b
 1317 08c4 F6060000 		.4byte	.LASF144
 1318 08c8 0F       		.byte	0xf
 1319 08c9 1301     		.2byte	0x113
 1320 08cb C6000000 		.4byte	0xc6
 1321 08cf 1B       		.uleb128 0x1b
 1322 08d0 1F060000 		.4byte	.LASF145
 1323 08d4 0F       		.byte	0xf
 1324 08d5 1B01     		.2byte	0x11b
 1325 08d7 DB080000 		.4byte	0x8db
 1326 08db 0A       		.uleb128 0xa
 1327 08dc 04       		.byte	0x4
 1328 08dd AC080000 		.4byte	0x8ac
 1329 08e1 13       		.uleb128 0x13
 1330 08e2 0C       		.byte	0xc
 1331 08e3 10       		.byte	0x10
 1332 08e4 7A       		.byte	0x7a
 1333 08e5 0E090000 		.4byte	0x90e
 1334 08e9 07       		.uleb128 0x7
 1335 08ea 89030000 		.4byte	.LASF146
 1336 08ee 10       		.byte	0x10
 1337 08ef 7E       		.byte	0x7e
 1338 08f0 CF080000 		.4byte	0x8cf
 1339 08f4 00       		.byte	0
 1340 08f5 07       		.uleb128 0x7
 1341 08f6 AB010000 		.4byte	.LASF147
 1342 08fa 10       		.byte	0x10
 1343 08fb 84       		.byte	0x84
 1344 08fc B7080000 		.4byte	0x8b7
 1345 0900 04       		.byte	0x4
 1346 0901 07       		.uleb128 0x7
 1347 0902 18060000 		.4byte	.LASF104
 1348 0906 10       		.byte	0x10
 1349 0907 88       		.byte	0x88
 1350 0908 DC000000 		.4byte	0xdc
 1351 090c 08       		.byte	0x8
 1352 090d 00       		.byte	0
 1353 090e 04       		.uleb128 0x4
 1354 090f F9010000 		.4byte	.LASF148
 1355 0913 10       		.byte	0x10
 1356 0914 89       		.byte	0x89
 1357 0915 E1080000 		.4byte	0x8e1
 1358 0919 1C       		.uleb128 0x1c
 1359 091a BA050000 		.4byte	.LASF159
 1360 091e 01       		.byte	0x1
 1361 091f 41       		.byte	0x41
ARM GAS  /tmp/ccd1Z52j.s 			page 25


 1362 0920 B7080000 		.4byte	0x8b7
 1363 0924 00000000 		.4byte	.LFB258
 1364 0928 24000000 		.4byte	.LFE258-.LFB258
 1365 092c 01       		.uleb128 0x1
 1366 092d 9C       		.byte	0x9c
 1367 092e 64090000 		.4byte	0x964
 1368 0932 1D       		.uleb128 0x1d
 1369 0933 62757300 		.ascii	"bus\000"
 1370 0937 01       		.byte	0x1
 1371 0938 41       		.byte	0x41
 1372 0939 64090000 		.4byte	0x964
 1373 093d 00000000 		.4byte	.LLST0
 1374 0941 1E       		.uleb128 0x1e
 1375 0942 29050000 		.4byte	.LASF150
 1376 0946 7A090000 		.4byte	0x97a
 1377 094a 05       		.uleb128 0x5
 1378 094b 03       		.byte	0x3
 1379 094c 00000000 		.4byte	__func__.7101
 1380 0950 1F       		.uleb128 0x1f
 1381 0951 12000000 		.4byte	.LVL2
 1382 0955 810A0000 		.4byte	0xa81
 1383 0959 20       		.uleb128 0x20
 1384 095a 01       		.uleb128 0x1
 1385 095b 50       		.byte	0x50
 1386 095c 05       		.uleb128 0x5
 1387 095d 03       		.byte	0x3
 1388 095e 00000000 		.4byte	.LANCHOR0
 1389 0962 00       		.byte	0
 1390 0963 00       		.byte	0
 1391 0964 0A       		.uleb128 0xa
 1392 0965 04       		.byte	0x4
 1393 0966 0E090000 		.4byte	0x90e
 1394 096a 15       		.uleb128 0x15
 1395 096b A0070000 		.4byte	0x7a0
 1396 096f 7A090000 		.4byte	0x97a
 1397 0973 16       		.uleb128 0x16
 1398 0974 D2040000 		.4byte	0x4d2
 1399 0978 0A       		.byte	0xa
 1400 0979 00       		.byte	0
 1401 097a 19       		.uleb128 0x19
 1402 097b 6A090000 		.4byte	0x96a
 1403 097f 21       		.uleb128 0x21
 1404 0980 84060000 		.4byte	.LASF151
 1405 0984 01       		.byte	0x1
 1406 0985 5A       		.byte	0x5a
 1407 0986 00000000 		.4byte	.LFB259
 1408 098a 38000000 		.4byte	.LFE259-.LFB259
 1409 098e 01       		.uleb128 0x1
 1410 098f 9C       		.byte	0x9c
 1411 0990 D5090000 		.4byte	0x9d5
 1412 0994 1D       		.uleb128 0x1d
 1413 0995 62757300 		.ascii	"bus\000"
 1414 0999 01       		.byte	0x1
 1415 099a 5A       		.byte	0x5a
 1416 099b 64090000 		.4byte	0x964
 1417 099f 2C000000 		.4byte	.LLST1
 1418 09a3 22       		.uleb128 0x22
ARM GAS  /tmp/ccd1Z52j.s 			page 26


 1419 09a4 5D010000 		.4byte	.LASF149
 1420 09a8 01       		.byte	0x1
 1421 09a9 5A       		.byte	0x5a
 1422 09aa B7080000 		.4byte	0x8b7
 1423 09ae 58000000 		.4byte	.LLST2
 1424 09b2 1E       		.uleb128 0x1e
 1425 09b3 29050000 		.4byte	.LASF150
 1426 09b7 E5090000 		.4byte	0x9e5
 1427 09bb 05       		.uleb128 0x5
 1428 09bc 03       		.byte	0x3
 1429 09bd 00000000 		.4byte	__func__.7106
 1430 09c1 1F       		.uleb128 0x1f
 1431 09c2 14000000 		.4byte	.LVL6
 1432 09c6 810A0000 		.4byte	0xa81
 1433 09ca 20       		.uleb128 0x20
 1434 09cb 01       		.uleb128 0x1
 1435 09cc 50       		.byte	0x50
 1436 09cd 05       		.uleb128 0x5
 1437 09ce 03       		.byte	0x3
 1438 09cf 00000000 		.4byte	.LANCHOR1
 1439 09d3 00       		.byte	0
 1440 09d4 00       		.byte	0
 1441 09d5 15       		.uleb128 0x15
 1442 09d6 A0070000 		.4byte	0x7a0
 1443 09da E5090000 		.4byte	0x9e5
 1444 09de 16       		.uleb128 0x16
 1445 09df D2040000 		.4byte	0x4d2
 1446 09e3 0B       		.byte	0xb
 1447 09e4 00       		.byte	0
 1448 09e5 19       		.uleb128 0x19
 1449 09e6 D5090000 		.4byte	0x9d5
 1450 09ea 21       		.uleb128 0x21
 1451 09eb A0030000 		.4byte	.LASF152
 1452 09ef 01       		.byte	0x1
 1453 09f0 71       		.byte	0x71
 1454 09f1 00000000 		.4byte	.LFB260
 1455 09f5 2C000000 		.4byte	.LFE260-.LFB260
 1456 09f9 01       		.uleb128 0x1
 1457 09fa 9C       		.byte	0x9c
 1458 09fb 550A0000 		.4byte	0xa55
 1459 09ff 1D       		.uleb128 0x1d
 1460 0a00 62757300 		.ascii	"bus\000"
 1461 0a04 01       		.byte	0x1
 1462 0a05 71       		.byte	0x71
 1463 0a06 64090000 		.4byte	0x964
 1464 0a0a 84000000 		.4byte	.LLST3
 1465 0a0e 22       		.uleb128 0x22
 1466 0a0f B5050000 		.4byte	.LASF153
 1467 0a13 01       		.byte	0x1
 1468 0a14 71       		.byte	0x71
 1469 0a15 C3080000 		.4byte	0x8c3
 1470 0a19 B0000000 		.4byte	.LLST4
 1471 0a1d 1E       		.uleb128 0x1e
 1472 0a1e 29050000 		.4byte	.LASF150
 1473 0a22 650A0000 		.4byte	0xa65
 1474 0a26 05       		.uleb128 0x5
 1475 0a27 03       		.byte	0x3
ARM GAS  /tmp/ccd1Z52j.s 			page 27


 1476 0a28 00000000 		.4byte	__func__.7111
 1477 0a2c 23       		.uleb128 0x23
 1478 0a2d 14000000 		.4byte	.LVL12
 1479 0a31 810A0000 		.4byte	0xa81
 1480 0a35 430A0000 		.4byte	0xa43
 1481 0a39 20       		.uleb128 0x20
 1482 0a3a 01       		.uleb128 0x1
 1483 0a3b 50       		.byte	0x50
 1484 0a3c 05       		.uleb128 0x5
 1485 0a3d 03       		.byte	0x3
 1486 0a3e 00000000 		.4byte	.LANCHOR2
 1487 0a42 00       		.byte	0
 1488 0a43 24       		.uleb128 0x24
 1489 0a44 28000000 		.4byte	.LVL14
 1490 0a48 8D0A0000 		.4byte	0xa8d
 1491 0a4c 20       		.uleb128 0x20
 1492 0a4d 01       		.uleb128 0x1
 1493 0a4e 52       		.byte	0x52
 1494 0a4f 03       		.uleb128 0x3
 1495 0a50 F3       		.byte	0xf3
 1496 0a51 01       		.uleb128 0x1
 1497 0a52 51       		.byte	0x51
 1498 0a53 00       		.byte	0
 1499 0a54 00       		.byte	0
 1500 0a55 15       		.uleb128 0x15
 1501 0a56 A0070000 		.4byte	0x7a0
 1502 0a5a 650A0000 		.4byte	0xa65
 1503 0a5e 16       		.uleb128 0x16
 1504 0a5f D2040000 		.4byte	0x4d2
 1505 0a63 0D       		.byte	0xd
 1506 0a64 00       		.byte	0
 1507 0a65 19       		.uleb128 0x19
 1508 0a66 550A0000 		.4byte	0xa55
 1509 0a6a 25       		.uleb128 0x25
 1510 0a6b 0A010000 		.4byte	.LASF154
 1511 0a6f 12       		.byte	0x12
 1512 0a70 A706     		.2byte	0x6a7
 1513 0a72 E7000000 		.4byte	0xe7
 1514 0a76 26       		.uleb128 0x26
 1515 0a77 636800   		.ascii	"ch\000"
 1516 0a7a 07       		.byte	0x7
 1517 0a7b 0902     		.2byte	0x209
 1518 0a7d 5A040000 		.4byte	0x45a
 1519 0a81 27       		.uleb128 0x27
 1520 0a82 C1010000 		.4byte	.LASF155
 1521 0a86 C1010000 		.4byte	.LASF155
 1522 0a8a 11       		.byte	0x11
 1523 0a8b 1601     		.2byte	0x116
 1524 0a8d 27       		.uleb128 0x27
 1525 0a8e 32060000 		.4byte	.LASF156
 1526 0a92 32060000 		.4byte	.LASF156
 1527 0a96 0F       		.byte	0xf
 1528 0a97 E001     		.2byte	0x1e0
 1529 0a99 00       		.byte	0
 1530              		.section	.debug_abbrev,"",%progbits
 1531              	.Ldebug_abbrev0:
 1532 0000 01       		.uleb128 0x1
ARM GAS  /tmp/ccd1Z52j.s 			page 28


 1533 0001 11       		.uleb128 0x11
 1534 0002 01       		.byte	0x1
 1535 0003 25       		.uleb128 0x25
 1536 0004 0E       		.uleb128 0xe
 1537 0005 13       		.uleb128 0x13
 1538 0006 0B       		.uleb128 0xb
 1539 0007 03       		.uleb128 0x3
 1540 0008 0E       		.uleb128 0xe
 1541 0009 55       		.uleb128 0x55
 1542 000a 17       		.uleb128 0x17
 1543 000b 11       		.uleb128 0x11
 1544 000c 01       		.uleb128 0x1
 1545 000d 10       		.uleb128 0x10
 1546 000e 17       		.uleb128 0x17
 1547 000f 00       		.byte	0
 1548 0010 00       		.byte	0
 1549 0011 02       		.uleb128 0x2
 1550 0012 24       		.uleb128 0x24
 1551 0013 00       		.byte	0
 1552 0014 0B       		.uleb128 0xb
 1553 0015 0B       		.uleb128 0xb
 1554 0016 3E       		.uleb128 0x3e
 1555 0017 0B       		.uleb128 0xb
 1556 0018 03       		.uleb128 0x3
 1557 0019 08       		.uleb128 0x8
 1558 001a 00       		.byte	0
 1559 001b 00       		.byte	0
 1560 001c 03       		.uleb128 0x3
 1561 001d 24       		.uleb128 0x24
 1562 001e 00       		.byte	0
 1563 001f 0B       		.uleb128 0xb
 1564 0020 0B       		.uleb128 0xb
 1565 0021 3E       		.uleb128 0x3e
 1566 0022 0B       		.uleb128 0xb
 1567 0023 03       		.uleb128 0x3
 1568 0024 0E       		.uleb128 0xe
 1569 0025 00       		.byte	0
 1570 0026 00       		.byte	0
 1571 0027 04       		.uleb128 0x4
 1572 0028 16       		.uleb128 0x16
 1573 0029 00       		.byte	0
 1574 002a 03       		.uleb128 0x3
 1575 002b 0E       		.uleb128 0xe
 1576 002c 3A       		.uleb128 0x3a
 1577 002d 0B       		.uleb128 0xb
 1578 002e 3B       		.uleb128 0x3b
 1579 002f 0B       		.uleb128 0xb
 1580 0030 49       		.uleb128 0x49
 1581 0031 13       		.uleb128 0x13
 1582 0032 00       		.byte	0
 1583 0033 00       		.byte	0
 1584 0034 05       		.uleb128 0x5
 1585 0035 35       		.uleb128 0x35
 1586 0036 00       		.byte	0
 1587 0037 49       		.uleb128 0x49
 1588 0038 13       		.uleb128 0x13
 1589 0039 00       		.byte	0
ARM GAS  /tmp/ccd1Z52j.s 			page 29


 1590 003a 00       		.byte	0
 1591 003b 06       		.uleb128 0x6
 1592 003c 13       		.uleb128 0x13
 1593 003d 01       		.byte	0x1
 1594 003e 03       		.uleb128 0x3
 1595 003f 0E       		.uleb128 0xe
 1596 0040 0B       		.uleb128 0xb
 1597 0041 0B       		.uleb128 0xb
 1598 0042 3A       		.uleb128 0x3a
 1599 0043 0B       		.uleb128 0xb
 1600 0044 3B       		.uleb128 0x3b
 1601 0045 0B       		.uleb128 0xb
 1602 0046 01       		.uleb128 0x1
 1603 0047 13       		.uleb128 0x13
 1604 0048 00       		.byte	0
 1605 0049 00       		.byte	0
 1606 004a 07       		.uleb128 0x7
 1607 004b 0D       		.uleb128 0xd
 1608 004c 00       		.byte	0
 1609 004d 03       		.uleb128 0x3
 1610 004e 0E       		.uleb128 0xe
 1611 004f 3A       		.uleb128 0x3a
 1612 0050 0B       		.uleb128 0xb
 1613 0051 3B       		.uleb128 0x3b
 1614 0052 0B       		.uleb128 0xb
 1615 0053 49       		.uleb128 0x49
 1616 0054 13       		.uleb128 0x13
 1617 0055 38       		.uleb128 0x38
 1618 0056 0B       		.uleb128 0xb
 1619 0057 00       		.byte	0
 1620 0058 00       		.byte	0
 1621 0059 08       		.uleb128 0x8
 1622 005a 0D       		.uleb128 0xd
 1623 005b 00       		.byte	0
 1624 005c 03       		.uleb128 0x3
 1625 005d 08       		.uleb128 0x8
 1626 005e 3A       		.uleb128 0x3a
 1627 005f 0B       		.uleb128 0xb
 1628 0060 3B       		.uleb128 0x3b
 1629 0061 05       		.uleb128 0x5
 1630 0062 49       		.uleb128 0x49
 1631 0063 13       		.uleb128 0x13
 1632 0064 38       		.uleb128 0x38
 1633 0065 0B       		.uleb128 0xb
 1634 0066 00       		.byte	0
 1635 0067 00       		.byte	0
 1636 0068 09       		.uleb128 0x9
 1637 0069 0D       		.uleb128 0xd
 1638 006a 00       		.byte	0
 1639 006b 03       		.uleb128 0x3
 1640 006c 0E       		.uleb128 0xe
 1641 006d 3A       		.uleb128 0x3a
 1642 006e 0B       		.uleb128 0xb
 1643 006f 3B       		.uleb128 0x3b
 1644 0070 05       		.uleb128 0x5
 1645 0071 49       		.uleb128 0x49
 1646 0072 13       		.uleb128 0x13
ARM GAS  /tmp/ccd1Z52j.s 			page 30


 1647 0073 38       		.uleb128 0x38
 1648 0074 0B       		.uleb128 0xb
 1649 0075 00       		.byte	0
 1650 0076 00       		.byte	0
 1651 0077 0A       		.uleb128 0xa
 1652 0078 0F       		.uleb128 0xf
 1653 0079 00       		.byte	0
 1654 007a 0B       		.uleb128 0xb
 1655 007b 0B       		.uleb128 0xb
 1656 007c 49       		.uleb128 0x49
 1657 007d 13       		.uleb128 0x13
 1658 007e 00       		.byte	0
 1659 007f 00       		.byte	0
 1660 0080 0B       		.uleb128 0xb
 1661 0081 13       		.uleb128 0x13
 1662 0082 01       		.byte	0x1
 1663 0083 03       		.uleb128 0x3
 1664 0084 0E       		.uleb128 0xe
 1665 0085 0B       		.uleb128 0xb
 1666 0086 0B       		.uleb128 0xb
 1667 0087 3A       		.uleb128 0x3a
 1668 0088 0B       		.uleb128 0xb
 1669 0089 3B       		.uleb128 0x3b
 1670 008a 05       		.uleb128 0x5
 1671 008b 01       		.uleb128 0x1
 1672 008c 13       		.uleb128 0x13
 1673 008d 00       		.byte	0
 1674 008e 00       		.byte	0
 1675 008f 0C       		.uleb128 0xc
 1676 0090 15       		.uleb128 0x15
 1677 0091 01       		.byte	0x1
 1678 0092 27       		.uleb128 0x27
 1679 0093 19       		.uleb128 0x19
 1680 0094 01       		.uleb128 0x1
 1681 0095 13       		.uleb128 0x13
 1682 0096 00       		.byte	0
 1683 0097 00       		.byte	0
 1684 0098 0D       		.uleb128 0xd
 1685 0099 05       		.uleb128 0x5
 1686 009a 00       		.byte	0
 1687 009b 49       		.uleb128 0x49
 1688 009c 13       		.uleb128 0x13
 1689 009d 00       		.byte	0
 1690 009e 00       		.byte	0
 1691 009f 0E       		.uleb128 0xe
 1692 00a0 0F       		.uleb128 0xf
 1693 00a1 00       		.byte	0
 1694 00a2 0B       		.uleb128 0xb
 1695 00a3 0B       		.uleb128 0xb
 1696 00a4 00       		.byte	0
 1697 00a5 00       		.byte	0
 1698 00a6 0F       		.uleb128 0xf
 1699 00a7 13       		.uleb128 0x13
 1700 00a8 01       		.byte	0x1
 1701 00a9 03       		.uleb128 0x3
 1702 00aa 0E       		.uleb128 0xe
 1703 00ab 0B       		.uleb128 0xb
ARM GAS  /tmp/ccd1Z52j.s 			page 31


 1704 00ac 05       		.uleb128 0x5
 1705 00ad 3A       		.uleb128 0x3a
 1706 00ae 0B       		.uleb128 0xb
 1707 00af 3B       		.uleb128 0x3b
 1708 00b0 05       		.uleb128 0x5
 1709 00b1 01       		.uleb128 0x1
 1710 00b2 13       		.uleb128 0x13
 1711 00b3 00       		.byte	0
 1712 00b4 00       		.byte	0
 1713 00b5 10       		.uleb128 0x10
 1714 00b6 0D       		.uleb128 0xd
 1715 00b7 00       		.byte	0
 1716 00b8 03       		.uleb128 0x3
 1717 00b9 0E       		.uleb128 0xe
 1718 00ba 3A       		.uleb128 0x3a
 1719 00bb 0B       		.uleb128 0xb
 1720 00bc 3B       		.uleb128 0x3b
 1721 00bd 05       		.uleb128 0x5
 1722 00be 49       		.uleb128 0x49
 1723 00bf 13       		.uleb128 0x13
 1724 00c0 38       		.uleb128 0x38
 1725 00c1 05       		.uleb128 0x5
 1726 00c2 00       		.byte	0
 1727 00c3 00       		.byte	0
 1728 00c4 11       		.uleb128 0x11
 1729 00c5 0D       		.uleb128 0xd
 1730 00c6 00       		.byte	0
 1731 00c7 03       		.uleb128 0x3
 1732 00c8 08       		.uleb128 0x8
 1733 00c9 3A       		.uleb128 0x3a
 1734 00ca 0B       		.uleb128 0xb
 1735 00cb 3B       		.uleb128 0x3b
 1736 00cc 05       		.uleb128 0x5
 1737 00cd 49       		.uleb128 0x49
 1738 00ce 13       		.uleb128 0x13
 1739 00cf 38       		.uleb128 0x38
 1740 00d0 05       		.uleb128 0x5
 1741 00d1 00       		.byte	0
 1742 00d2 00       		.byte	0
 1743 00d3 12       		.uleb128 0x12
 1744 00d4 0D       		.uleb128 0xd
 1745 00d5 00       		.byte	0
 1746 00d6 03       		.uleb128 0x3
 1747 00d7 08       		.uleb128 0x8
 1748 00d8 3A       		.uleb128 0x3a
 1749 00d9 0B       		.uleb128 0xb
 1750 00da 3B       		.uleb128 0x3b
 1751 00db 0B       		.uleb128 0xb
 1752 00dc 49       		.uleb128 0x49
 1753 00dd 13       		.uleb128 0x13
 1754 00de 38       		.uleb128 0x38
 1755 00df 0B       		.uleb128 0xb
 1756 00e0 00       		.byte	0
 1757 00e1 00       		.byte	0
 1758 00e2 13       		.uleb128 0x13
 1759 00e3 13       		.uleb128 0x13
 1760 00e4 01       		.byte	0x1
ARM GAS  /tmp/ccd1Z52j.s 			page 32


 1761 00e5 0B       		.uleb128 0xb
 1762 00e6 0B       		.uleb128 0xb
 1763 00e7 3A       		.uleb128 0x3a
 1764 00e8 0B       		.uleb128 0xb
 1765 00e9 3B       		.uleb128 0x3b
 1766 00ea 0B       		.uleb128 0xb
 1767 00eb 01       		.uleb128 0x1
 1768 00ec 13       		.uleb128 0x13
 1769 00ed 00       		.byte	0
 1770 00ee 00       		.byte	0
 1771 00ef 14       		.uleb128 0x14
 1772 00f0 13       		.uleb128 0x13
 1773 00f1 01       		.byte	0x1
 1774 00f2 0B       		.uleb128 0xb
 1775 00f3 05       		.uleb128 0x5
 1776 00f4 3A       		.uleb128 0x3a
 1777 00f5 0B       		.uleb128 0xb
 1778 00f6 3B       		.uleb128 0x3b
 1779 00f7 0B       		.uleb128 0xb
 1780 00f8 01       		.uleb128 0x1
 1781 00f9 13       		.uleb128 0x13
 1782 00fa 00       		.byte	0
 1783 00fb 00       		.byte	0
 1784 00fc 15       		.uleb128 0x15
 1785 00fd 01       		.uleb128 0x1
 1786 00fe 01       		.byte	0x1
 1787 00ff 49       		.uleb128 0x49
 1788 0100 13       		.uleb128 0x13
 1789 0101 01       		.uleb128 0x1
 1790 0102 13       		.uleb128 0x13
 1791 0103 00       		.byte	0
 1792 0104 00       		.byte	0
 1793 0105 16       		.uleb128 0x16
 1794 0106 21       		.uleb128 0x21
 1795 0107 00       		.byte	0
 1796 0108 49       		.uleb128 0x49
 1797 0109 13       		.uleb128 0x13
 1798 010a 2F       		.uleb128 0x2f
 1799 010b 0B       		.uleb128 0xb
 1800 010c 00       		.byte	0
 1801 010d 00       		.byte	0
 1802 010e 17       		.uleb128 0x17
 1803 010f 17       		.uleb128 0x17
 1804 0110 01       		.byte	0x1
 1805 0111 0B       		.uleb128 0xb
 1806 0112 0B       		.uleb128 0xb
 1807 0113 3A       		.uleb128 0x3a
 1808 0114 0B       		.uleb128 0xb
 1809 0115 3B       		.uleb128 0x3b
 1810 0116 0B       		.uleb128 0xb
 1811 0117 01       		.uleb128 0x1
 1812 0118 13       		.uleb128 0x13
 1813 0119 00       		.byte	0
 1814 011a 00       		.byte	0
 1815 011b 18       		.uleb128 0x18
 1816 011c 0D       		.uleb128 0xd
 1817 011d 00       		.byte	0
ARM GAS  /tmp/ccd1Z52j.s 			page 33


 1818 011e 03       		.uleb128 0x3
 1819 011f 0E       		.uleb128 0xe
 1820 0120 3A       		.uleb128 0x3a
 1821 0121 0B       		.uleb128 0xb
 1822 0122 3B       		.uleb128 0x3b
 1823 0123 05       		.uleb128 0x5
 1824 0124 49       		.uleb128 0x49
 1825 0125 13       		.uleb128 0x13
 1826 0126 00       		.byte	0
 1827 0127 00       		.byte	0
 1828 0128 19       		.uleb128 0x19
 1829 0129 26       		.uleb128 0x26
 1830 012a 00       		.byte	0
 1831 012b 49       		.uleb128 0x49
 1832 012c 13       		.uleb128 0x13
 1833 012d 00       		.byte	0
 1834 012e 00       		.byte	0
 1835 012f 1A       		.uleb128 0x1a
 1836 0130 0D       		.uleb128 0xd
 1837 0131 00       		.byte	0
 1838 0132 03       		.uleb128 0x3
 1839 0133 08       		.uleb128 0x8
 1840 0134 3A       		.uleb128 0x3a
 1841 0135 0B       		.uleb128 0xb
 1842 0136 3B       		.uleb128 0x3b
 1843 0137 0B       		.uleb128 0xb
 1844 0138 49       		.uleb128 0x49
 1845 0139 13       		.uleb128 0x13
 1846 013a 00       		.byte	0
 1847 013b 00       		.byte	0
 1848 013c 1B       		.uleb128 0x1b
 1849 013d 16       		.uleb128 0x16
 1850 013e 00       		.byte	0
 1851 013f 03       		.uleb128 0x3
 1852 0140 0E       		.uleb128 0xe
 1853 0141 3A       		.uleb128 0x3a
 1854 0142 0B       		.uleb128 0xb
 1855 0143 3B       		.uleb128 0x3b
 1856 0144 05       		.uleb128 0x5
 1857 0145 49       		.uleb128 0x49
 1858 0146 13       		.uleb128 0x13
 1859 0147 00       		.byte	0
 1860 0148 00       		.byte	0
 1861 0149 1C       		.uleb128 0x1c
 1862 014a 2E       		.uleb128 0x2e
 1863 014b 01       		.byte	0x1
 1864 014c 3F       		.uleb128 0x3f
 1865 014d 19       		.uleb128 0x19
 1866 014e 03       		.uleb128 0x3
 1867 014f 0E       		.uleb128 0xe
 1868 0150 3A       		.uleb128 0x3a
 1869 0151 0B       		.uleb128 0xb
 1870 0152 3B       		.uleb128 0x3b
 1871 0153 0B       		.uleb128 0xb
 1872 0154 27       		.uleb128 0x27
 1873 0155 19       		.uleb128 0x19
 1874 0156 49       		.uleb128 0x49
ARM GAS  /tmp/ccd1Z52j.s 			page 34


 1875 0157 13       		.uleb128 0x13
 1876 0158 11       		.uleb128 0x11
 1877 0159 01       		.uleb128 0x1
 1878 015a 12       		.uleb128 0x12
 1879 015b 06       		.uleb128 0x6
 1880 015c 40       		.uleb128 0x40
 1881 015d 18       		.uleb128 0x18
 1882 015e 9742     		.uleb128 0x2117
 1883 0160 19       		.uleb128 0x19
 1884 0161 01       		.uleb128 0x1
 1885 0162 13       		.uleb128 0x13
 1886 0163 00       		.byte	0
 1887 0164 00       		.byte	0
 1888 0165 1D       		.uleb128 0x1d
 1889 0166 05       		.uleb128 0x5
 1890 0167 00       		.byte	0
 1891 0168 03       		.uleb128 0x3
 1892 0169 08       		.uleb128 0x8
 1893 016a 3A       		.uleb128 0x3a
 1894 016b 0B       		.uleb128 0xb
 1895 016c 3B       		.uleb128 0x3b
 1896 016d 0B       		.uleb128 0xb
 1897 016e 49       		.uleb128 0x49
 1898 016f 13       		.uleb128 0x13
 1899 0170 02       		.uleb128 0x2
 1900 0171 17       		.uleb128 0x17
 1901 0172 00       		.byte	0
 1902 0173 00       		.byte	0
 1903 0174 1E       		.uleb128 0x1e
 1904 0175 34       		.uleb128 0x34
 1905 0176 00       		.byte	0
 1906 0177 03       		.uleb128 0x3
 1907 0178 0E       		.uleb128 0xe
 1908 0179 49       		.uleb128 0x49
 1909 017a 13       		.uleb128 0x13
 1910 017b 34       		.uleb128 0x34
 1911 017c 19       		.uleb128 0x19
 1912 017d 02       		.uleb128 0x2
 1913 017e 18       		.uleb128 0x18
 1914 017f 00       		.byte	0
 1915 0180 00       		.byte	0
 1916 0181 1F       		.uleb128 0x1f
 1917 0182 898201   		.uleb128 0x4109
 1918 0185 01       		.byte	0x1
 1919 0186 11       		.uleb128 0x11
 1920 0187 01       		.uleb128 0x1
 1921 0188 31       		.uleb128 0x31
 1922 0189 13       		.uleb128 0x13
 1923 018a 00       		.byte	0
 1924 018b 00       		.byte	0
 1925 018c 20       		.uleb128 0x20
 1926 018d 8A8201   		.uleb128 0x410a
 1927 0190 00       		.byte	0
 1928 0191 02       		.uleb128 0x2
 1929 0192 18       		.uleb128 0x18
 1930 0193 9142     		.uleb128 0x2111
 1931 0195 18       		.uleb128 0x18
ARM GAS  /tmp/ccd1Z52j.s 			page 35


 1932 0196 00       		.byte	0
 1933 0197 00       		.byte	0
 1934 0198 21       		.uleb128 0x21
 1935 0199 2E       		.uleb128 0x2e
 1936 019a 01       		.byte	0x1
 1937 019b 3F       		.uleb128 0x3f
 1938 019c 19       		.uleb128 0x19
 1939 019d 03       		.uleb128 0x3
 1940 019e 0E       		.uleb128 0xe
 1941 019f 3A       		.uleb128 0x3a
 1942 01a0 0B       		.uleb128 0xb
 1943 01a1 3B       		.uleb128 0x3b
 1944 01a2 0B       		.uleb128 0xb
 1945 01a3 27       		.uleb128 0x27
 1946 01a4 19       		.uleb128 0x19
 1947 01a5 11       		.uleb128 0x11
 1948 01a6 01       		.uleb128 0x1
 1949 01a7 12       		.uleb128 0x12
 1950 01a8 06       		.uleb128 0x6
 1951 01a9 40       		.uleb128 0x40
 1952 01aa 18       		.uleb128 0x18
 1953 01ab 9742     		.uleb128 0x2117
 1954 01ad 19       		.uleb128 0x19
 1955 01ae 01       		.uleb128 0x1
 1956 01af 13       		.uleb128 0x13
 1957 01b0 00       		.byte	0
 1958 01b1 00       		.byte	0
 1959 01b2 22       		.uleb128 0x22
 1960 01b3 05       		.uleb128 0x5
 1961 01b4 00       		.byte	0
 1962 01b5 03       		.uleb128 0x3
 1963 01b6 0E       		.uleb128 0xe
 1964 01b7 3A       		.uleb128 0x3a
 1965 01b8 0B       		.uleb128 0xb
 1966 01b9 3B       		.uleb128 0x3b
 1967 01ba 0B       		.uleb128 0xb
 1968 01bb 49       		.uleb128 0x49
 1969 01bc 13       		.uleb128 0x13
 1970 01bd 02       		.uleb128 0x2
 1971 01be 17       		.uleb128 0x17
 1972 01bf 00       		.byte	0
 1973 01c0 00       		.byte	0
 1974 01c1 23       		.uleb128 0x23
 1975 01c2 898201   		.uleb128 0x4109
 1976 01c5 01       		.byte	0x1
 1977 01c6 11       		.uleb128 0x11
 1978 01c7 01       		.uleb128 0x1
 1979 01c8 31       		.uleb128 0x31
 1980 01c9 13       		.uleb128 0x13
 1981 01ca 01       		.uleb128 0x1
 1982 01cb 13       		.uleb128 0x13
 1983 01cc 00       		.byte	0
 1984 01cd 00       		.byte	0
 1985 01ce 24       		.uleb128 0x24
 1986 01cf 898201   		.uleb128 0x4109
 1987 01d2 01       		.byte	0x1
 1988 01d3 11       		.uleb128 0x11
ARM GAS  /tmp/ccd1Z52j.s 			page 36


 1989 01d4 01       		.uleb128 0x1
 1990 01d5 9542     		.uleb128 0x2115
 1991 01d7 19       		.uleb128 0x19
 1992 01d8 31       		.uleb128 0x31
 1993 01d9 13       		.uleb128 0x13
 1994 01da 00       		.byte	0
 1995 01db 00       		.byte	0
 1996 01dc 25       		.uleb128 0x25
 1997 01dd 34       		.uleb128 0x34
 1998 01de 00       		.byte	0
 1999 01df 03       		.uleb128 0x3
 2000 01e0 0E       		.uleb128 0xe
 2001 01e1 3A       		.uleb128 0x3a
 2002 01e2 0B       		.uleb128 0xb
 2003 01e3 3B       		.uleb128 0x3b
 2004 01e4 05       		.uleb128 0x5
 2005 01e5 49       		.uleb128 0x49
 2006 01e6 13       		.uleb128 0x13
 2007 01e7 3F       		.uleb128 0x3f
 2008 01e8 19       		.uleb128 0x19
 2009 01e9 3C       		.uleb128 0x3c
 2010 01ea 19       		.uleb128 0x19
 2011 01eb 00       		.byte	0
 2012 01ec 00       		.byte	0
 2013 01ed 26       		.uleb128 0x26
 2014 01ee 34       		.uleb128 0x34
 2015 01ef 00       		.byte	0
 2016 01f0 03       		.uleb128 0x3
 2017 01f1 08       		.uleb128 0x8
 2018 01f2 3A       		.uleb128 0x3a
 2019 01f3 0B       		.uleb128 0xb
 2020 01f4 3B       		.uleb128 0x3b
 2021 01f5 05       		.uleb128 0x5
 2022 01f6 49       		.uleb128 0x49
 2023 01f7 13       		.uleb128 0x13
 2024 01f8 3F       		.uleb128 0x3f
 2025 01f9 19       		.uleb128 0x19
 2026 01fa 3C       		.uleb128 0x3c
 2027 01fb 19       		.uleb128 0x19
 2028 01fc 00       		.byte	0
 2029 01fd 00       		.byte	0
 2030 01fe 27       		.uleb128 0x27
 2031 01ff 2E       		.uleb128 0x2e
 2032 0200 00       		.byte	0
 2033 0201 3F       		.uleb128 0x3f
 2034 0202 19       		.uleb128 0x19
 2035 0203 3C       		.uleb128 0x3c
 2036 0204 19       		.uleb128 0x19
 2037 0205 6E       		.uleb128 0x6e
 2038 0206 0E       		.uleb128 0xe
 2039 0207 03       		.uleb128 0x3
 2040 0208 0E       		.uleb128 0xe
 2041 0209 3A       		.uleb128 0x3a
 2042 020a 0B       		.uleb128 0xb
 2043 020b 3B       		.uleb128 0x3b
 2044 020c 05       		.uleb128 0x5
 2045 020d 00       		.byte	0
ARM GAS  /tmp/ccd1Z52j.s 			page 37


 2046 020e 00       		.byte	0
 2047 020f 00       		.byte	0
 2048              		.section	.debug_loc,"",%progbits
 2049              	.Ldebug_loc0:
 2050              	.LLST0:
 2051 0000 00000000 		.4byte	.LVL0
 2052 0004 0E000000 		.4byte	.LVL1
 2053 0008 0100     		.2byte	0x1
 2054 000a 50       		.byte	0x50
 2055 000b 0E000000 		.4byte	.LVL1
 2056 000f 20000000 		.4byte	.LVL3
 2057 0013 0100     		.2byte	0x1
 2058 0015 54       		.byte	0x54
 2059 0016 20000000 		.4byte	.LVL3
 2060 001a 24000000 		.4byte	.LFE258
 2061 001e 0400     		.2byte	0x4
 2062 0020 F3       		.byte	0xf3
 2063 0021 01       		.uleb128 0x1
 2064 0022 50       		.byte	0x50
 2065 0023 9F       		.byte	0x9f
 2066 0024 00000000 		.4byte	0
 2067 0028 00000000 		.4byte	0
 2068              	.LLST1:
 2069 002c 00000000 		.4byte	.LVL4
 2070 0030 10000000 		.4byte	.LVL5
 2071 0034 0100     		.2byte	0x1
 2072 0036 50       		.byte	0x50
 2073 0037 10000000 		.4byte	.LVL5
 2074 003b 1A000000 		.4byte	.LVL7
 2075 003f 0100     		.2byte	0x1
 2076 0041 54       		.byte	0x54
 2077 0042 1A000000 		.4byte	.LVL7
 2078 0046 38000000 		.4byte	.LFE259
 2079 004a 0400     		.2byte	0x4
 2080 004c F3       		.byte	0xf3
 2081 004d 01       		.uleb128 0x1
 2082 004e 50       		.byte	0x50
 2083 004f 9F       		.byte	0x9f
 2084 0050 00000000 		.4byte	0
 2085 0054 00000000 		.4byte	0
 2086              	.LLST2:
 2087 0058 00000000 		.4byte	.LVL4
 2088 005c 13000000 		.4byte	.LVL6-1
 2089 0060 0100     		.2byte	0x1
 2090 0062 51       		.byte	0x51
 2091 0063 13000000 		.4byte	.LVL6-1
 2092 0067 32000000 		.4byte	.LVL8
 2093 006b 0100     		.2byte	0x1
 2094 006d 55       		.byte	0x55
 2095 006e 32000000 		.4byte	.LVL8
 2096 0072 38000000 		.4byte	.LFE259
 2097 0076 0400     		.2byte	0x4
 2098 0078 F3       		.byte	0xf3
 2099 0079 01       		.uleb128 0x1
 2100 007a 51       		.byte	0x51
 2101 007b 9F       		.byte	0x9f
 2102 007c 00000000 		.4byte	0
ARM GAS  /tmp/ccd1Z52j.s 			page 38


 2103 0080 00000000 		.4byte	0
 2104              	.LLST3:
 2105 0084 00000000 		.4byte	.LVL9
 2106 0088 10000000 		.4byte	.LVL11
 2107 008c 0100     		.2byte	0x1
 2108 008e 50       		.byte	0x50
 2109 008f 10000000 		.4byte	.LVL11
 2110 0093 24000000 		.4byte	.LVL13
 2111 0097 0100     		.2byte	0x1
 2112 0099 54       		.byte	0x54
 2113 009a 24000000 		.4byte	.LVL13
 2114 009e 2C000000 		.4byte	.LFE260
 2115 00a2 0400     		.2byte	0x4
 2116 00a4 F3       		.byte	0xf3
 2117 00a5 01       		.uleb128 0x1
 2118 00a6 50       		.byte	0x50
 2119 00a7 9F       		.byte	0x9f
 2120 00a8 00000000 		.4byte	0
 2121 00ac 00000000 		.4byte	0
 2122              	.LLST4:
 2123 00b0 00000000 		.4byte	.LVL9
 2124 00b4 0A000000 		.4byte	.LVL10
 2125 00b8 0100     		.2byte	0x1
 2126 00ba 51       		.byte	0x51
 2127 00bb 0A000000 		.4byte	.LVL10
 2128 00bf 24000000 		.4byte	.LVL13
 2129 00c3 0100     		.2byte	0x1
 2130 00c5 56       		.byte	0x56
 2131 00c6 24000000 		.4byte	.LVL13
 2132 00ca 27000000 		.4byte	.LVL14-1
 2133 00ce 0100     		.2byte	0x1
 2134 00d0 52       		.byte	0x52
 2135 00d1 27000000 		.4byte	.LVL14-1
 2136 00d5 2C000000 		.4byte	.LFE260
 2137 00d9 0400     		.2byte	0x4
 2138 00db F3       		.byte	0xf3
 2139 00dc 01       		.uleb128 0x1
 2140 00dd 51       		.byte	0x51
 2141 00de 9F       		.byte	0x9f
 2142 00df 00000000 		.4byte	0
 2143 00e3 00000000 		.4byte	0
 2144              		.section	.debug_aranges,"",%progbits
 2145 0000 2C000000 		.4byte	0x2c
 2146 0004 0200     		.2byte	0x2
 2147 0006 00000000 		.4byte	.Ldebug_info0
 2148 000a 04       		.byte	0x4
 2149 000b 00       		.byte	0
 2150 000c 0000     		.2byte	0
 2151 000e 0000     		.2byte	0
 2152 0010 00000000 		.4byte	.LFB258
 2153 0014 24000000 		.4byte	.LFE258-.LFB258
 2154 0018 00000000 		.4byte	.LFB259
 2155 001c 38000000 		.4byte	.LFE259-.LFB259
 2156 0020 00000000 		.4byte	.LFB260
 2157 0024 2C000000 		.4byte	.LFE260-.LFB260
 2158 0028 00000000 		.4byte	0
 2159 002c 00000000 		.4byte	0
ARM GAS  /tmp/ccd1Z52j.s 			page 39


 2160              		.section	.debug_ranges,"",%progbits
 2161              	.Ldebug_ranges0:
 2162 0000 00000000 		.4byte	.LFB258
 2163 0004 24000000 		.4byte	.LFE258
 2164 0008 00000000 		.4byte	.LFB259
 2165 000c 38000000 		.4byte	.LFE259
 2166 0010 00000000 		.4byte	.LFB260
 2167 0014 2C000000 		.4byte	.LFE260
 2168 0018 00000000 		.4byte	0
 2169 001c 00000000 		.4byte	0
 2170              		.section	.debug_line,"",%progbits
 2171              	.Ldebug_line0:
 2172 0000 0B030000 		.section	.debug_str,"MS",%progbits,1
 2172      0200A702 
 2172      00000201 
 2172      FB0E0D00 
 2172      01010101 
 2173              	.LASF101:
 2174 0000 74625F70 		.ascii	"tb_ptr\000"
 2174      747200
 2175              	.LASF58:
 2176 0007 72656164 		.ascii	"ready_list_t\000"
 2176      795F6C69 
 2176      73745F74 
 2176      00
 2177              	.LASF95:
 2178 0014 73655F74 		.ascii	"se_time\000"
 2178      696D6500 
 2179              	.LASF119:
 2180 001c 77747472 		.ascii	"wttrp\000"
 2180      7000
 2181              	.LASF116:
 2182 0022 7264796D 		.ascii	"rdymsg\000"
 2182      736700
 2183              	.LASF19:
 2184 0029 75696E74 		.ascii	"uint64_t\000"
 2184      36345F74 
 2184      00
 2185              	.LASF88:
 2186 0032 6B65726E 		.ascii	"kernel_stats\000"
 2186      656C5F73 
 2186      74617473 
 2186      00
 2187              	.LASF6:
 2188 003f 5F5F7569 		.ascii	"__uint8_t\000"
 2188      6E74385F 
 2188      7400
 2189              	.LASF135:
 2190 0049 4F545950 		.ascii	"OTYPER\000"
 2190      455200
 2191              	.LASF94:
 2192 0050 706F7274 		.ascii	"port_intctx\000"
 2192      5F696E74 
 2192      63747800 
 2193              	.LASF57:
 2194 005c 63685F74 		.ascii	"ch_threads_queue\000"
 2194      68726561 
ARM GAS  /tmp/ccd1Z52j.s 			page 40


 2194      64735F71 
 2194      75657565 
 2194      00
 2195              	.LASF77:
 2196 006d 73797374 		.ascii	"system_debug_t\000"
 2196      656D5F64 
 2196      65627567 
 2196      5F7400
 2197              	.LASF143:
 2198 007c 696F706F 		.ascii	"ioportmask_t\000"
 2198      72746D61 
 2198      736B5F74 
 2198      00
 2199              	.LASF107:
 2200 0089 776F7273 		.ascii	"worst\000"
 2200      7400
 2201              	.LASF110:
 2202 008f 74696D65 		.ascii	"time_measurement_t\000"
 2202      5F6D6561 
 2202      73757265 
 2202      6D656E74 
 2202      5F7400
 2203              	.LASF134:
 2204 00a2 4D4F4445 		.ascii	"MODER\000"
 2204      5200
 2205              	.LASF14:
 2206 00a8 6C6F6E67 		.ascii	"long long unsigned int\000"
 2206      206C6F6E 
 2206      6720756E 
 2206      7369676E 
 2206      65642069 
 2207              	.LASF103:
 2208 00bf 63685F74 		.ascii	"ch_trace_buffer_t\000"
 2208      72616365 
 2208      5F627566 
 2208      6665725F 
 2208      7400
 2209              	.LASF98:
 2210 00d1 73655F73 		.ascii	"se_state\000"
 2210      74617465 
 2210      00
 2211              	.LASF137:
 2212 00da 50555044 		.ascii	"PUPDR\000"
 2212      5200
 2213              	.LASF117:
 2214 00e0 65786974 		.ascii	"exitcode\000"
 2214      636F6465 
 2214      00
 2215              	.LASF87:
 2216 00e9 6D61696E 		.ascii	"mainthread\000"
 2216      74687265 
 2216      616400
 2217              	.LASF74:
 2218 00f4 76697274 		.ascii	"virtual_timers_list_t\000"
 2218      75616C5F 
 2218      74696D65 
 2218      72735F6C 
ARM GAS  /tmp/ccd1Z52j.s 			page 41


 2218      6973745F 
 2219              	.LASF154:
 2220 010a 49544D5F 		.ascii	"ITM_RxBuffer\000"
 2220      52784275 
 2220      66666572 
 2220      00
 2221              	.LASF22:
 2222 0117 72747469 		.ascii	"rttime_t\000"
 2222      6D655F74 
 2222      00
 2223              	.LASF35:
 2224 0120 705F7072 		.ascii	"p_prio\000"
 2224      696F00
 2225              	.LASF1:
 2226 0127 6C6F6E67 		.ascii	"long long int\000"
 2226      206C6F6E 
 2226      6720696E 
 2226      7400
 2227              	.LASF3:
 2228 0135 7369676E 		.ascii	"signed char\000"
 2228      65642063 
 2228      68617200 
 2229              	.LASF138:
 2230 0141 42535252 		.ascii	"BSRR\000"
 2230      00
 2231              	.LASF50:
 2232 0146 705F6D70 		.ascii	"p_mpool\000"
 2232      6F6F6C00 
 2233              	.LASF127:
 2234 014e 6D5F7175 		.ascii	"m_queue\000"
 2234      65756500 
 2235              	.LASF86:
 2236 0156 76746C69 		.ascii	"vtlist\000"
 2236      737400
 2237              	.LASF149:
 2238 015d 62697473 		.ascii	"bits\000"
 2238      00
 2239              	.LASF10:
 2240 0162 6C6F6E67 		.ascii	"long int\000"
 2240      20696E74 
 2240      00
 2241              	.LASF24:
 2242 016b 74737461 		.ascii	"tstate_t\000"
 2242      74655F74 
 2242      00
 2243              	.LASF96:
 2244 0174 73655F74 		.ascii	"se_tp\000"
 2244      7000
 2245              	.LASF16:
 2246 017a 75696E74 		.ascii	"uint16_t\000"
 2246      31365F74 
 2246      00
 2247              	.LASF37:
 2248 0183 705F6E65 		.ascii	"p_newer\000"
 2248      77657200 
 2249              	.LASF124:
 2250 018b 735F7175 		.ascii	"s_queue\000"
ARM GAS  /tmp/ccd1Z52j.s 			page 42


 2250      65756500 
 2251              	.LASF100:
 2252 0193 74625F73 		.ascii	"tb_size\000"
 2252      697A6500 
 2253              	.LASF136:
 2254 019b 4F535045 		.ascii	"OSPEEDR\000"
 2254      45445200 
 2255              	.LASF63:
 2256 01a3 725F6E65 		.ascii	"r_newer\000"
 2256      77657200 
 2257              	.LASF147:
 2258 01ab 6D61736B 		.ascii	"mask\000"
 2258      00
 2259              	.LASF91:
 2260 01b0 72656761 		.ascii	"regarm_t\000"
 2260      726D5F74 
 2260      00
 2261              	.LASF70:
 2262 01b9 76745F70 		.ascii	"vt_prev\000"
 2262      72657600 
 2263              	.LASF155:
 2264 01c1 63685379 		.ascii	"chSysHalt\000"
 2264      7348616C 
 2264      7400
 2265              	.LASF78:
 2266 01cb 63685F73 		.ascii	"ch_system_debug\000"
 2266      79737465 
 2266      6D5F6465 
 2266      62756700 
 2267              	.LASF142:
 2268 01db 73746D33 		.ascii	"stm32_gpio_t\000"
 2268      325F6770 
 2268      696F5F74 
 2268      00
 2269              	.LASF131:
 2270 01e8 6D757465 		.ascii	"mutex_t\000"
 2270      785F7400 
 2271              	.LASF81:
 2272 01f0 6C6F636B 		.ascii	"lock_cnt\000"
 2272      5F636E74 
 2272      00
 2273              	.LASF148:
 2274 01f9 494F4275 		.ascii	"IOBus\000"
 2274      7300
 2275              	.LASF29:
 2276 01ff 636E745F 		.ascii	"cnt_t\000"
 2276      7400
 2277              	.LASF40:
 2278 0205 705F7374 		.ascii	"p_stklimit\000"
 2278      6B6C696D 
 2278      697400
 2279              	.LASF0:
 2280 0210 756E7369 		.ascii	"unsigned int\000"
 2280      676E6564 
 2280      20696E74 
 2280      00
 2281              	.LASF69:
ARM GAS  /tmp/ccd1Z52j.s 			page 43


 2282 021d 76745F6E 		.ascii	"vt_next\000"
 2282      65787400 
 2283              	.LASF120:
 2284 0225 77747365 		.ascii	"wtsemp\000"
 2284      6D7000
 2285              	.LASF45:
 2286 022c 705F6D73 		.ascii	"p_msgqueue\000"
 2286      67717565 
 2286      756500
 2287              	.LASF139:
 2288 0237 4C434B52 		.ascii	"LCKR\000"
 2288      00
 2289              	.LASF111:
 2290 023c 6E5F6972 		.ascii	"n_irq\000"
 2290      7100
 2291              	.LASF125:
 2292 0242 735F636E 		.ascii	"s_cnt\000"
 2292      7400
 2293              	.LASF8:
 2294 0248 73686F72 		.ascii	"short unsigned int\000"
 2294      7420756E 
 2294      7369676E 
 2294      65642069 
 2294      6E7400
 2295              	.LASF115:
 2296 025b 6B65726E 		.ascii	"kernel_stats_t\000"
 2296      656C5F73 
 2296      74617473 
 2296      5F7400
 2297              	.LASF54:
 2298 026a 63685F74 		.ascii	"ch_thread\000"
 2298      68726561 
 2298      6400
 2299              	.LASF27:
 2300 0274 6D73675F 		.ascii	"msg_t\000"
 2300      7400
 2301              	.LASF108:
 2302 027a 6C617374 		.ascii	"last\000"
 2302      00
 2303              	.LASF30:
 2304 027f 75636E74 		.ascii	"ucnt_t\000"
 2304      5F7400
 2305              	.LASF83:
 2306 0286 63685F73 		.ascii	"ch_system_t\000"
 2306      79737465 
 2306      6D5F7400 
 2307              	.LASF23:
 2308 0292 746D6F64 		.ascii	"tmode_t\000"
 2308      655F7400 
 2309              	.LASF114:
 2310 029a 6D5F6372 		.ascii	"m_crit_isr\000"
 2310      69745F69 
 2310      737200
 2311              	.LASF59:
 2312 02a5 63685F72 		.ascii	"ch_ready_list\000"
 2312      65616479 
 2312      5F6C6973 
ARM GAS  /tmp/ccd1Z52j.s 			page 44


 2312      7400
 2313              	.LASF28:
 2314 02b3 6576656E 		.ascii	"eventmask_t\000"
 2314      746D6173 
 2314      6B5F7400 
 2315              	.LASF9:
 2316 02bf 5F5F696E 		.ascii	"__int32_t\000"
 2316      7433325F 
 2316      7400
 2317              	.LASF89:
 2318 02c9 69646C65 		.ascii	"idle_thread_wa\000"
 2318      5F746872 
 2318      6561645F 
 2318      776100
 2319              	.LASF92:
 2320 02d8 73746B61 		.ascii	"stkalign_t\000"
 2320      6C69676E 
 2320      5F7400
 2321              	.LASF13:
 2322 02e3 5F5F7569 		.ascii	"__uint64_t\000"
 2322      6E743634 
 2322      5F7400
 2323              	.LASF44:
 2324 02ee 705F7761 		.ascii	"p_waiting\000"
 2324      6974696E 
 2324      6700
 2325              	.LASF90:
 2326 02f8 73697A65 		.ascii	"sizetype\000"
 2326      74797065 
 2326      00
 2327              	.LASF52:
 2328 0301 74687265 		.ascii	"thread_reference_t\000"
 2328      61645F72 
 2328      65666572 
 2328      656E6365 
 2328      5F7400
 2329              	.LASF75:
 2330 0314 63685F76 		.ascii	"ch_virtual_timers_list\000"
 2330      69727475 
 2330      616C5F74 
 2330      696D6572 
 2330      735F6C69 
 2331              	.LASF133:
 2332 032b 636C6561 		.ascii	"clear\000"
 2332      7200
 2333              	.LASF2:
 2334 0331 6C6F6E67 		.ascii	"long double\000"
 2334      20646F75 
 2334      626C6500 
 2335              	.LASF99:
 2336 033d 63685F73 		.ascii	"ch_swc_event_t\000"
 2336      77635F65 
 2336      76656E74 
 2336      5F7400
 2337              	.LASF76:
 2338 034c 76745F6C 		.ascii	"vt_lasttime\000"
 2338      61737474 
ARM GAS  /tmp/ccd1Z52j.s 			page 45


 2338      696D6500 
 2339              	.LASF38:
 2340 0358 705F6F6C 		.ascii	"p_older\000"
 2340      64657200 
 2341              	.LASF62:
 2342 0360 725F6374 		.ascii	"r_ctx\000"
 2342      7800
 2343              	.LASF105:
 2344 0366 746D5F63 		.ascii	"tm_calibration_t\000"
 2344      616C6962 
 2344      72617469 
 2344      6F6E5F74 
 2344      00
 2345              	.LASF65:
 2346 0377 725F6375 		.ascii	"r_current\000"
 2346      7272656E 
 2346      7400
 2347              	.LASF64:
 2348 0381 725F6F6C 		.ascii	"r_older\000"
 2348      64657200 
 2349              	.LASF146:
 2350 0389 706F7274 		.ascii	"portid\000"
 2350      696400
 2351              	.LASF141:
 2352 0390 41465248 		.ascii	"AFRH\000"
 2352      00
 2353              	.LASF109:
 2354 0395 63756D75 		.ascii	"cumulative\000"
 2354      6C617469 
 2354      766500
 2355              	.LASF152:
 2356 03a0 70616C53 		.ascii	"palSetBusMode\000"
 2356      65744275 
 2356      734D6F64 
 2356      6500
 2357              	.LASF140:
 2358 03ae 4146524C 		.ascii	"AFRL\000"
 2358      00
 2359              	.LASF25:
 2360 03b3 74726566 		.ascii	"trefs_t\000"
 2360      735F7400 
 2361              	.LASF102:
 2362 03bb 74625F62 		.ascii	"tb_buffer\000"
 2362      75666665 
 2362      7200
 2363              	.LASF67:
 2364 03c5 76697274 		.ascii	"virtual_timer_t\000"
 2364      75616C5F 
 2364      74696D65 
 2364      725F7400 
 2365              	.LASF34:
 2366 03d5 705F7072 		.ascii	"p_prev\000"
 2366      657600
 2367              	.LASF26:
 2368 03dc 74707269 		.ascii	"tprio_t\000"
 2368      6F5F7400 
 2369              	.LASF112:
ARM GAS  /tmp/ccd1Z52j.s 			page 46


 2370 03e4 6E5F6374 		.ascii	"n_ctxswc\000"
 2370      78737763 
 2370      00
 2371              	.LASF132:
 2372 03ed 5F426F6F 		.ascii	"_Bool\000"
 2372      6C00
 2373              	.LASF17:
 2374 03f3 696E7433 		.ascii	"int32_t\000"
 2374      325F7400 
 2375              	.LASF4:
 2376 03fb 756E7369 		.ascii	"unsigned char\000"
 2376      676E6564 
 2376      20636861 
 2376      7200
 2377              	.LASF48:
 2378 0409 705F6D74 		.ascii	"p_mtxlist\000"
 2378      786C6973 
 2378      7400
 2379              	.LASF5:
 2380 0413 73686F72 		.ascii	"short int\000"
 2380      7420696E 
 2380      7400
 2381              	.LASF41:
 2382 041d 705F7374 		.ascii	"p_state\000"
 2382      61746500 
 2383              	.LASF61:
 2384 0425 725F7072 		.ascii	"r_prio\000"
 2384      696F00
 2385              	.LASF157:
 2386 042c 474E5520 		.ascii	"GNU C11 5.3.1 20160307 (release) [ARM/embedded-5-br"
 2386      43313120 
 2386      352E332E 
 2386      31203230 
 2386      31363033 
 2387 045f 616E6368 		.ascii	"anch revision 234589] -mcpu=cortex-m4 -mno-thumb-in"
 2387      20726576 
 2387      6973696F 
 2387      6E203233 
 2387      34353839 
 2388 0492 74657277 		.ascii	"terwork -mthumb -ggdb -O2 -fomit-frame-pointer -fal"
 2388      6F726B20 
 2388      2D6D7468 
 2388      756D6220 
 2388      2D676764 
 2389 04c5 69676E2D 		.ascii	"ign-functions=16 -ffunction-sections -fdata-section"
 2389      66756E63 
 2389      74696F6E 
 2389      733D3136 
 2389      202D6666 
 2390 04f8 73202D66 		.ascii	"s -fno-common\000"
 2390      6E6F2D63 
 2390      6F6D6D6F 
 2390      6E00
 2391              	.LASF122:
 2392 0506 65776D61 		.ascii	"ewmask\000"
 2392      736B00
 2393              	.LASF33:
ARM GAS  /tmp/ccd1Z52j.s 			page 47


 2394 050d 705F6E65 		.ascii	"p_next\000"
 2394      787400
 2395              	.LASF20:
 2396 0514 75696E74 		.ascii	"uint_fast8_t\000"
 2396      5F666173 
 2396      74385F74 
 2396      00
 2397              	.LASF42:
 2398 0521 705F666C 		.ascii	"p_flags\000"
 2398      61677300 
 2399              	.LASF150:
 2400 0529 5F5F6675 		.ascii	"__func__\000"
 2400      6E635F5F 
 2400      00
 2401              	.LASF51:
 2402 0532 705F7374 		.ascii	"p_stats\000"
 2402      61747300 
 2403              	.LASF84:
 2404 053a 63685F73 		.ascii	"ch_system\000"
 2404      79737465 
 2404      6D00
 2405              	.LASF68:
 2406 0544 63685F76 		.ascii	"ch_virtual_timer\000"
 2406      69727475 
 2406      616C5F74 
 2406      696D6572 
 2406      00
 2407              	.LASF123:
 2408 0555 63685F73 		.ascii	"ch_semaphore\000"
 2408      656D6170 
 2408      686F7265 
 2408      00
 2409              	.LASF47:
 2410 0562 705F6570 		.ascii	"p_epending\000"
 2410      656E6469 
 2410      6E6700
 2411              	.LASF18:
 2412 056d 75696E74 		.ascii	"uint32_t\000"
 2412      33325F74 
 2412      00
 2413              	.LASF121:
 2414 0576 77746D74 		.ascii	"wtmtxp\000"
 2414      787000
 2415              	.LASF60:
 2416 057d 725F7175 		.ascii	"r_queue\000"
 2416      65756500 
 2417              	.LASF71:
 2418 0585 76745F64 		.ascii	"vt_delta\000"
 2418      656C7461 
 2418      00
 2419              	.LASF55:
 2420 058e 63685F74 		.ascii	"ch_threads_list\000"
 2420      68726561 
 2420      64735F6C 
 2420      69737400 
 2421              	.LASF12:
 2422 059e 6C6F6E67 		.ascii	"long unsigned int\000"
ARM GAS  /tmp/ccd1Z52j.s 			page 48


 2422      20756E73 
 2422      69676E65 
 2422      6420696E 
 2422      7400
 2423              	.LASF130:
 2424 05b0 63686172 		.ascii	"char\000"
 2424      00
 2425              	.LASF153:
 2426 05b5 6D6F6465 		.ascii	"mode\000"
 2426      00
 2427              	.LASF159:
 2428 05ba 70616C52 		.ascii	"palReadBus\000"
 2428      65616442 
 2428      757300
 2429              	.LASF7:
 2430 05c5 5F5F7569 		.ascii	"__uint16_t\000"
 2430      6E743136 
 2430      5F7400
 2431              	.LASF32:
 2432 05d0 74687265 		.ascii	"thread_t\000"
 2432      61645F74 
 2432      00
 2433              	.LASF106:
 2434 05d9 62657374 		.ascii	"best\000"
 2434      00
 2435              	.LASF129:
 2436 05de 6D5F6E65 		.ascii	"m_next\000"
 2436      787400
 2437              	.LASF31:
 2438 05e5 73797374 		.ascii	"systime_t\000"
 2438      696D655F 
 2438      7400
 2439              	.LASF49:
 2440 05ef 705F7265 		.ascii	"p_realprio\000"
 2440      616C7072 
 2440      696F00
 2441              	.LASF66:
 2442 05fa 76746675 		.ascii	"vtfunc_t\000"
 2442      6E635F74 
 2442      00
 2443              	.LASF11:
 2444 0603 5F5F7569 		.ascii	"__uint32_t\000"
 2444      6E743332 
 2444      5F7400
 2445              	.LASF79:
 2446 060e 70616E69 		.ascii	"panic_msg\000"
 2446      635F6D73 
 2446      6700
 2447              	.LASF104:
 2448 0618 6F666673 		.ascii	"offset\000"
 2448      657400
 2449              	.LASF145:
 2450 061f 696F706F 		.ascii	"ioportid_t\000"
 2450      72746964 
 2450      5F7400
 2451              	.LASF93:
 2452 062a 636F6E74 		.ascii	"context\000"
ARM GAS  /tmp/ccd1Z52j.s 			page 49


 2452      65787400 
 2453              	.LASF156:
 2454 0632 5F70616C 		.ascii	"_pal_lld_setgroupmode\000"
 2454      5F6C6C64 
 2454      5F736574 
 2454      67726F75 
 2454      706D6F64 
 2455              	.LASF21:
 2456 0648 7274636E 		.ascii	"rtcnt_t\000"
 2456      745F7400 
 2457              	.LASF73:
 2458 0650 76745F70 		.ascii	"vt_par\000"
 2458      617200
 2459              	.LASF158:
 2460 0657 2F686F6D 		.ascii	"/home/selim/working/ChibiOS/os/hal/src/pal.c\000"
 2460      652F7365 
 2460      6C696D2F 
 2460      776F726B 
 2460      696E672F 
 2461              	.LASF151:
 2462 0684 70616C57 		.ascii	"palWriteBus\000"
 2462      72697465 
 2462      42757300 
 2463              	.LASF56:
 2464 0690 74687265 		.ascii	"threads_queue_t\000"
 2464      6164735F 
 2464      71756575 
 2464      655F7400 
 2465              	.LASF126:
 2466 06a0 63685F6D 		.ascii	"ch_mutex\000"
 2466      75746578 
 2466      00
 2467              	.LASF43:
 2468 06a9 705F7265 		.ascii	"p_refs\000"
 2468      667300
 2469              	.LASF80:
 2470 06b0 6973725F 		.ascii	"isr_cnt\000"
 2470      636E7400 
 2471              	.LASF85:
 2472 06b8 726C6973 		.ascii	"rlist\000"
 2472      7400
 2473              	.LASF15:
 2474 06be 75696E74 		.ascii	"uint8_t\000"
 2474      385F7400 
 2475              	.LASF118:
 2476 06c6 77746F62 		.ascii	"wtobjp\000"
 2476      6A7000
 2477              	.LASF39:
 2478 06cd 705F6E61 		.ascii	"p_name\000"
 2478      6D6500
 2479              	.LASF53:
 2480 06d4 74687265 		.ascii	"threads_list_t\000"
 2480      6164735F 
 2480      6C697374 
 2480      5F7400
 2481              	.LASF82:
 2482 06e3 74726163 		.ascii	"trace_buffer\000"
ARM GAS  /tmp/ccd1Z52j.s 			page 50


 2482      655F6275 
 2482      66666572 
 2482      00
 2483              	.LASF46:
 2484 06f0 705F6D73 		.ascii	"p_msg\000"
 2484      6700
 2485              	.LASF144:
 2486 06f6 696F6D6F 		.ascii	"iomode_t\000"
 2486      64655F74 
 2486      00
 2487              	.LASF113:
 2488 06ff 6D5F6372 		.ascii	"m_crit_thd\000"
 2488      69745F74 
 2488      686400
 2489              	.LASF128:
 2490 070a 6D5F6F77 		.ascii	"m_owner\000"
 2490      6E657200 
 2491              	.LASF97:
 2492 0712 73655F77 		.ascii	"se_wtobjp\000"
 2492      746F626A 
 2492      7000
 2493              	.LASF36:
 2494 071c 705F6374 		.ascii	"p_ctx\000"
 2494      7800
 2495              	.LASF72:
 2496 0722 76745F66 		.ascii	"vt_func\000"
 2496      756E6300 
 2497              		.ident	"GCC: (GNU Tools for ARM Embedded Processors) 5.3.1 20160307 (release) [ARM/embedded-5-bran
ARM GAS  /tmp/ccd1Z52j.s 			page 51


DEFINED SYMBOLS
                            *ABS*:0000000000000000 pal.c
     /tmp/ccd1Z52j.s:20     .text.palReadBus:0000000000000000 $t
     /tmp/ccd1Z52j.s:26     .text.palReadBus:0000000000000000 palReadBus
     /tmp/ccd1Z52j.s:65     .text.palReadBus:0000000000000020 $d
     /tmp/ccd1Z52j.s:70     .text.palWriteBus:0000000000000000 $t
     /tmp/ccd1Z52j.s:76     .text.palWriteBus:0000000000000000 palWriteBus
     /tmp/ccd1Z52j.s:122    .text.palWriteBus:0000000000000034 $d
     /tmp/ccd1Z52j.s:127    .text.palSetBusMode:0000000000000000 $t
     /tmp/ccd1Z52j.s:133    .text.palSetBusMode:0000000000000000 palSetBusMode
     /tmp/ccd1Z52j.s:182    .text.palSetBusMode:0000000000000028 $d
     /tmp/ccd1Z52j.s:187    .rodata.__func__.7101:0000000000000000 $d
     /tmp/ccd1Z52j.s:191    .rodata.__func__.7101:0000000000000000 __func__.7101
     /tmp/ccd1Z52j.s:194    .rodata.__func__.7106:0000000000000000 $d
     /tmp/ccd1Z52j.s:198    .rodata.__func__.7106:0000000000000000 __func__.7106
     /tmp/ccd1Z52j.s:201    .rodata.__func__.7111:0000000000000000 $d
     /tmp/ccd1Z52j.s:205    .rodata.__func__.7111:0000000000000000 __func__.7111
                     .debug_frame:0000000000000010 $d

UNDEFINED SYMBOLS
chSysHalt
_pal_lld_setgroupmode
