ARM GAS  /tmp/ccYuBRwd.s 			page 1


   1              		.syntax unified
   2              		.cpu cortex-m4
   3              		.fpu softvfp
   4              		.eabi_attribute 20, 1
   5              		.eabi_attribute 21, 1
   6              		.eabi_attribute 23, 3
   7              		.eabi_attribute 24, 1
   8              		.eabi_attribute 25, 1
   9              		.eabi_attribute 26, 1
  10              		.eabi_attribute 30, 2
  11              		.eabi_attribute 34, 1
  12              		.eabi_attribute 18, 4
  13              		.thumb
  14              		.syntax unified
  15              		.file	"pal_lld.c"
  16              		.text
  17              	.Ltext0:
  18              		.cfi_sections	.debug_frame
  19              		.section	.text._pal_lld_init,"ax",%progbits
  20              		.align	2
  21              		.p2align 4,,15
  22              		.global	_pal_lld_init
  23              		.thumb
  24              		.thumb_func
  25              		.type	_pal_lld_init, %function
  26              	_pal_lld_init:
  27              	.LFB259:
  28              		.file 1 "/home/selim/working/ChibiOS/os/hal/ports/STM32/LLD/GPIOv2/pal_lld.c"
  29              		.loc 1 92 0
  30              		.cfi_startproc
  31              		@ args = 0, pretend = 0, frame = 0
  32              		@ frame_needed = 0, uses_anonymous_args = 0
  33              		@ link register save eliminated.
  34              	.LVL0:
  35 0000 F0B4     		push	{r4, r5, r6, r7}
  36              		.cfi_def_cfa_offset 16
  37              		.cfi_offset 4, -16
  38              		.cfi_offset 5, -12
  39              		.cfi_offset 6, -8
  40              		.cfi_offset 7, -4
  41              		.loc 1 105 0
  42 0002 654D     		ldr	r5, .L3
  43              	.LBB20:
  44              	.LBB21:
  45              		.loc 1 67 0
  46 0004 654C     		ldr	r4, .L3+4
  47              	.LBE21:
  48              	.LBE20:
  49              		.loc 1 105 0
  50 0006 2F6B     		ldr	r7, [r5, #48]
  51              	.LBB23:
  52              	.LBB24:
  53              		.loc 1 67 0
  54 0008 6549     		ldr	r1, .L3+8
  55              	.LBE24:
  56              	.LBE23:
  57              	.LBB26:
ARM GAS  /tmp/ccYuBRwd.s 			page 2


  58              	.LBB27:
  59 000a 664A     		ldr	r2, .L3+12
  60              	.LBE27:
  61              	.LBE26:
  62              	.LBB29:
  63              	.LBB30:
  64 000c 664B     		ldr	r3, .L3+16
  65              	.LBE30:
  66              	.LBE29:
  67              		.loc 1 105 0
  68 000e 40F2FF16 		movw	r6, #511
  69 0012 3743     		orrs	r7, r7, r6
  70 0014 2F63     		str	r7, [r5, #48]
  71              		.loc 1 106 0
  72 0016 2F6D     		ldr	r7, [r5, #80]
  73 0018 3E43     		orrs	r6, r6, r7
  74 001a 2E65     		str	r6, [r5, #80]
  75              	.LVL1:
  76              	.LBB32:
  77              	.LBB22:
  78              		.loc 1 67 0
  79 001c 4568     		ldr	r5, [r0, #4]
  80 001e 6560     		str	r5, [r4, #4]
  81              		.loc 1 68 0
  82 0020 8568     		ldr	r5, [r0, #8]
  83 0022 A560     		str	r5, [r4, #8]
  84              		.loc 1 69 0
  85 0024 C568     		ldr	r5, [r0, #12]
  86 0026 E560     		str	r5, [r4, #12]
  87              		.loc 1 70 0
  88 0028 0569     		ldr	r5, [r0, #16]
  89 002a 6561     		str	r5, [r4, #20]
  90              		.loc 1 71 0
  91 002c 4569     		ldr	r5, [r0, #20]
  92 002e 2562     		str	r5, [r4, #32]
  93              		.loc 1 72 0
  94 0030 8569     		ldr	r5, [r0, #24]
  95 0032 6562     		str	r5, [r4, #36]
  96              		.loc 1 73 0
  97 0034 0568     		ldr	r5, [r0]
  98 0036 2560     		str	r5, [r4]
  99              	.LVL2:
 100              	.LBE22:
 101              	.LBE32:
 102              	.LBB33:
 103              	.LBB25:
 104              		.loc 1 67 0
 105 0038 046A     		ldr	r4, [r0, #32]
 106 003a 4C60     		str	r4, [r1, #4]
 107              		.loc 1 68 0
 108 003c 446A     		ldr	r4, [r0, #36]
 109 003e 8C60     		str	r4, [r1, #8]
 110              		.loc 1 69 0
 111 0040 846A     		ldr	r4, [r0, #40]
 112 0042 CC60     		str	r4, [r1, #12]
 113              		.loc 1 70 0
 114 0044 C46A     		ldr	r4, [r0, #44]
ARM GAS  /tmp/ccYuBRwd.s 			page 3


 115 0046 4C61     		str	r4, [r1, #20]
 116              		.loc 1 71 0
 117 0048 046B     		ldr	r4, [r0, #48]
 118 004a 0C62     		str	r4, [r1, #32]
 119              		.loc 1 72 0
 120 004c 446B     		ldr	r4, [r0, #52]
 121 004e 4C62     		str	r4, [r1, #36]
 122              		.loc 1 73 0
 123 0050 C469     		ldr	r4, [r0, #28]
 124 0052 0C60     		str	r4, [r1]
 125              	.LVL3:
 126              	.LBE25:
 127              	.LBE33:
 128              	.LBB34:
 129              	.LBB28:
 130              		.loc 1 67 0
 131 0054 C16B     		ldr	r1, [r0, #60]
 132 0056 5160     		str	r1, [r2, #4]
 133              		.loc 1 68 0
 134 0058 016C     		ldr	r1, [r0, #64]
 135 005a 9160     		str	r1, [r2, #8]
 136              		.loc 1 69 0
 137 005c 416C     		ldr	r1, [r0, #68]
 138 005e D160     		str	r1, [r2, #12]
 139              		.loc 1 70 0
 140 0060 816C     		ldr	r1, [r0, #72]
 141 0062 5161     		str	r1, [r2, #20]
 142              		.loc 1 71 0
 143 0064 C16C     		ldr	r1, [r0, #76]
 144 0066 1162     		str	r1, [r2, #32]
 145              		.loc 1 72 0
 146 0068 016D     		ldr	r1, [r0, #80]
 147 006a 5162     		str	r1, [r2, #36]
 148              		.loc 1 73 0
 149 006c 816B     		ldr	r1, [r0, #56]
 150 006e 1160     		str	r1, [r2]
 151              	.LVL4:
 152              	.LBE28:
 153              	.LBE34:
 154              	.LBB35:
 155              	.LBB31:
 156              		.loc 1 67 0
 157 0070 826D     		ldr	r2, [r0, #88]
 158 0072 5A60     		str	r2, [r3, #4]
 159              		.loc 1 68 0
 160 0074 C26D     		ldr	r2, [r0, #92]
 161 0076 9A60     		str	r2, [r3, #8]
 162              		.loc 1 69 0
 163 0078 026E     		ldr	r2, [r0, #96]
 164 007a DA60     		str	r2, [r3, #12]
 165              		.loc 1 70 0
 166 007c 426E     		ldr	r2, [r0, #100]
 167 007e 5A61     		str	r2, [r3, #20]
 168              		.loc 1 71 0
 169 0080 826E     		ldr	r2, [r0, #104]
 170 0082 1A62     		str	r2, [r3, #32]
 171              		.loc 1 72 0
ARM GAS  /tmp/ccYuBRwd.s 			page 4


 172 0084 C26E     		ldr	r2, [r0, #108]
 173 0086 5A62     		str	r2, [r3, #36]
 174              		.loc 1 73 0
 175 0088 426D     		ldr	r2, [r0, #84]
 176 008a 1A60     		str	r2, [r3]
 177              	.LVL5:
 178              	.LBE31:
 179              	.LBE35:
 180              	.LBB36:
 181              	.LBB37:
 182              		.loc 1 67 0
 183 008c 426F     		ldr	r2, [r0, #116]
 184 008e C3F80424 		str	r2, [r3, #1028]
 185              		.loc 1 68 0
 186 0092 826F     		ldr	r2, [r0, #120]
 187 0094 C3F80824 		str	r2, [r3, #1032]
 188              		.loc 1 69 0
 189 0098 C26F     		ldr	r2, [r0, #124]
 190 009a C3F80C24 		str	r2, [r3, #1036]
 191              		.loc 1 70 0
 192 009e D0F88020 		ldr	r2, [r0, #128]
 193 00a2 C3F81424 		str	r2, [r3, #1044]
 194              		.loc 1 71 0
 195 00a6 D0F88420 		ldr	r2, [r0, #132]
 196 00aa C3F82024 		str	r2, [r3, #1056]
 197              		.loc 1 72 0
 198 00ae D0F88820 		ldr	r2, [r0, #136]
 199 00b2 C3F82424 		str	r2, [r3, #1060]
 200              		.loc 1 73 0
 201 00b6 026F     		ldr	r2, [r0, #112]
 202 00b8 C3F80024 		str	r2, [r3, #1024]
 203              	.LVL6:
 204              	.LBE37:
 205              	.LBE36:
 206              	.LBB38:
 207              	.LBB39:
 208              		.loc 1 67 0
 209 00bc D0F89020 		ldr	r2, [r0, #144]
 210 00c0 C3F80428 		str	r2, [r3, #2052]
 211              		.loc 1 68 0
 212 00c4 D0F89420 		ldr	r2, [r0, #148]
 213 00c8 C3F80828 		str	r2, [r3, #2056]
 214              		.loc 1 69 0
 215 00cc D0F89820 		ldr	r2, [r0, #152]
 216 00d0 C3F80C28 		str	r2, [r3, #2060]
 217              		.loc 1 70 0
 218 00d4 D0F89C20 		ldr	r2, [r0, #156]
 219 00d8 C3F81428 		str	r2, [r3, #2068]
 220              		.loc 1 71 0
 221 00dc D0F8A020 		ldr	r2, [r0, #160]
 222 00e0 C3F82028 		str	r2, [r3, #2080]
 223              		.loc 1 72 0
 224 00e4 D0F8A420 		ldr	r2, [r0, #164]
 225 00e8 C3F82428 		str	r2, [r3, #2084]
 226              		.loc 1 73 0
 227 00ec D0F88C20 		ldr	r2, [r0, #140]
 228 00f0 C3F80028 		str	r2, [r3, #2048]
ARM GAS  /tmp/ccYuBRwd.s 			page 5


 229              	.LVL7:
 230              	.LBE39:
 231              	.LBE38:
 232              	.LBB40:
 233              	.LBB41:
 234              		.loc 1 67 0
 235 00f4 03F54063 		add	r3, r3, #3072
 236 00f8 D0F8AC20 		ldr	r2, [r0, #172]
 237 00fc 5A60     		str	r2, [r3, #4]
 238              		.loc 1 68 0
 239 00fe D0F8B020 		ldr	r2, [r0, #176]
 240 0102 9A60     		str	r2, [r3, #8]
 241              		.loc 1 69 0
 242 0104 D0F8B420 		ldr	r2, [r0, #180]
 243 0108 DA60     		str	r2, [r3, #12]
 244              		.loc 1 70 0
 245 010a D0F8B820 		ldr	r2, [r0, #184]
 246 010e 5A61     		str	r2, [r3, #20]
 247              		.loc 1 71 0
 248 0110 D0F8BC20 		ldr	r2, [r0, #188]
 249 0114 1A62     		str	r2, [r3, #32]
 250              		.loc 1 72 0
 251 0116 D0F8C020 		ldr	r2, [r0, #192]
 252 011a 5A62     		str	r2, [r3, #36]
 253              		.loc 1 73 0
 254 011c D0F8A820 		ldr	r2, [r0, #168]
 255 0120 1A60     		str	r2, [r3]
 256              	.LVL8:
 257              	.LBE41:
 258              	.LBE40:
 259              	.LBB42:
 260              	.LBB43:
 261              		.loc 1 67 0
 262 0122 D0F8C820 		ldr	r2, [r0, #200]
 263 0126 C3F80424 		str	r2, [r3, #1028]
 264              		.loc 1 68 0
 265 012a D0F8CC20 		ldr	r2, [r0, #204]
 266 012e C3F80824 		str	r2, [r3, #1032]
 267              		.loc 1 69 0
 268 0132 D0F8D020 		ldr	r2, [r0, #208]
 269 0136 C3F80C24 		str	r2, [r3, #1036]
 270              		.loc 1 70 0
 271 013a D0F8D420 		ldr	r2, [r0, #212]
 272 013e C3F81424 		str	r2, [r3, #1044]
 273              		.loc 1 71 0
 274 0142 D0F8D820 		ldr	r2, [r0, #216]
 275 0146 C3F82024 		str	r2, [r3, #1056]
 276              		.loc 1 72 0
 277 014a D0F8DC20 		ldr	r2, [r0, #220]
 278 014e C3F82424 		str	r2, [r3, #1060]
 279              		.loc 1 73 0
 280 0152 D0F8C420 		ldr	r2, [r0, #196]
 281 0156 C3F80024 		str	r2, [r3, #1024]
 282              	.LVL9:
 283              	.LBE43:
 284              	.LBE42:
 285              	.LBB44:
ARM GAS  /tmp/ccYuBRwd.s 			page 6


 286              	.LBB45:
 287              		.loc 1 67 0
 288 015a D0F8E420 		ldr	r2, [r0, #228]
 289 015e C3F80428 		str	r2, [r3, #2052]
 290              		.loc 1 68 0
 291 0162 D0F8E820 		ldr	r2, [r0, #232]
 292 0166 C3F80828 		str	r2, [r3, #2056]
 293              		.loc 1 69 0
 294 016a D0F8EC20 		ldr	r2, [r0, #236]
 295 016e C3F80C28 		str	r2, [r3, #2060]
 296              		.loc 1 70 0
 297 0172 D0F8F020 		ldr	r2, [r0, #240]
 298 0176 C3F81428 		str	r2, [r3, #2068]
 299              		.loc 1 71 0
 300 017a D0F8F420 		ldr	r2, [r0, #244]
 301 017e C3F82028 		str	r2, [r3, #2080]
 302              		.loc 1 72 0
 303 0182 D0F8F820 		ldr	r2, [r0, #248]
 304 0186 C3F82428 		str	r2, [r3, #2084]
 305              		.loc 1 73 0
 306 018a D0F8E020 		ldr	r2, [r0, #224]
 307 018e C3F80028 		str	r2, [r3, #2048]
 308              	.LVL10:
 309              	.LBE45:
 310              	.LBE44:
 311              		.loc 1 139 0
 312 0192 F0BC     		pop	{r4, r5, r6, r7}
 313              		.cfi_restore 7
 314              		.cfi_restore 6
 315              		.cfi_restore 5
 316              		.cfi_restore 4
 317              		.cfi_def_cfa_offset 0
 318 0194 7047     		bx	lr
 319              	.L4:
 320 0196 00BF     		.align	2
 321              	.L3:
 322 0198 00380240 		.word	1073887232
 323 019c 00000240 		.word	1073872896
 324 01a0 00040240 		.word	1073873920
 325 01a4 00080240 		.word	1073874944
 326 01a8 000C0240 		.word	1073875968
 327              		.cfi_endproc
 328              	.LFE259:
 329              		.size	_pal_lld_init, .-_pal_lld_init
 330              		.section	.text._pal_lld_setgroupmode,"ax",%progbits
 331              		.align	2
 332              		.p2align 4,,15
 333              		.global	_pal_lld_setgroupmode
 334              		.thumb
 335              		.thumb_func
 336              		.type	_pal_lld_setgroupmode, %function
 337              	_pal_lld_setgroupmode:
 338              	.LFB260:
 339              		.loc 1 157 0
 340              		.cfi_startproc
 341              		@ args = 0, pretend = 0, frame = 0
 342              		@ frame_needed = 0, uses_anonymous_args = 0
ARM GAS  /tmp/ccYuBRwd.s 			page 7


 343              	.LVL11:
 344 0000 2DE9F04F 		push	{r4, r5, r6, r7, r8, r9, r10, fp, lr}
 345              		.cfi_def_cfa_offset 36
 346              		.cfi_offset 4, -36
 347              		.cfi_offset 5, -32
 348              		.cfi_offset 6, -28
 349              		.cfi_offset 7, -24
 350              		.cfi_offset 8, -20
 351              		.cfi_offset 9, -16
 352              		.cfi_offset 10, -12
 353              		.cfi_offset 11, -8
 354              		.cfi_offset 14, -4
 355              	.LBB46:
 356              		.loc 1 170 0
 357 0004 4FF00F0C 		mov	ip, #15
 358              	.LBE46:
 359              		.loc 1 159 0
 360 0008 02F0030E 		and	lr, r2, #3
 361              	.LVL12:
 362              		.loc 1 160 0
 363 000c C2F38007 		ubfx	r7, r2, #2, #1
 364              	.LVL13:
 365              		.loc 1 161 0
 366 0010 C2F3C106 		ubfx	r6, r2, #3, #2
 367              	.LVL14:
 368              		.loc 1 162 0
 369 0014 C2F34115 		ubfx	r5, r2, #5, #2
 370              	.LVL15:
 371              		.loc 1 164 0
 372 0018 0024     		movs	r4, #0
 373              		.loc 1 163 0
 374 001a C2F3C312 		ubfx	r2, r2, #7, #4
 375              	.LVL16:
 376              	.LBB47:
 377              		.loc 1 176 0
 378 001e 4FF00109 		mov	r9, #1
 379              		.loc 1 178 0
 380 0022 4FF00308 		mov	r8, #3
 381 0026 30E0     		b	.L10
 382              	.LVL17:
 383              	.L16:
 384              		.loc 1 172 0
 385 0028 D0F820B0 		ldr	fp, [r0, #32]
 386 002c 2BEA0303 		bic	r3, fp, r3
 387              	.LVL18:
 388 0030 43EA0A03 		orr	r3, r3, r10
 389 0034 0362     		str	r3, [r0, #32]
 390              	.L8:
 391              	.LVL19:
 392              		.loc 1 176 0
 393 0036 4368     		ldr	r3, [r0, #4]
 394 0038 09FA04FA 		lsl	r10, r9, r4
 395              	.LVL20:
 396 003c 23EA0A03 		bic	r3, r3, r10
 397 0040 3B43     		orrs	r3, r3, r7
 398 0042 4360     		str	r3, [r0, #4]
 399              	.LVL21:
ARM GAS  /tmp/ccYuBRwd.s 			page 8


 400              		.loc 1 178 0
 401 0044 6300     		lsls	r3, r4, #1
 402 0046 D0F808A0 		ldr	r10, [r0, #8]
 403 004a 08FA03F3 		lsl	r3, r8, r3
 404 004e DB43     		mvns	r3, r3
 405 0050 0AEA030A 		and	r10, r10, r3
 406 0054 4AEA060A 		orr	r10, r10, r6
 407 0058 C0F808A0 		str	r10, [r0, #8]
 408              		.loc 1 179 0
 409 005c D0F80CA0 		ldr	r10, [r0, #12]
 410 0060 03EA0A0A 		and	r10, r3, r10
 411 0064 4AEA050A 		orr	r10, r10, r5
 412 0068 C0F80CA0 		str	r10, [r0, #12]
 413              		.loc 1 180 0
 414 006c D0F800A0 		ldr	r10, [r0]
 415 0070 03EA0A03 		and	r3, r3, r10
 416 0074 43EA0E03 		orr	r3, r3, lr
 417 0078 0360     		str	r3, [r0]
 418              	.LVL22:
 419              	.L6:
 420              	.LBE47:
 421              		.loc 1 183 0
 422 007a 4908     		lsrs	r1, r1, #1
 423              	.LVL23:
 424 007c 19D0     		beq	.L5
 425              		.loc 1 185 0
 426 007e 7F00     		lsls	r7, r7, #1
 427              	.LVL24:
 428              		.loc 1 186 0
 429 0080 B600     		lsls	r6, r6, #2
 430              	.LVL25:
 431              		.loc 1 187 0
 432 0082 AD00     		lsls	r5, r5, #2
 433              	.LVL26:
 434              		.loc 1 188 0
 435 0084 4FEA8E0E 		lsl	lr, lr, #2
 436              	.LVL27:
 437              		.loc 1 189 0
 438 0088 0134     		adds	r4, r4, #1
 439              	.LVL28:
 440              	.L10:
 441              	.LBB48:
 442              		.loc 1 169 0
 443 008a 04F00703 		and	r3, r4, #7
 444 008e 9B00     		lsls	r3, r3, #2
 445              	.LBE48:
 446              		.loc 1 166 0
 447 0090 11F0010F 		tst	r1, #1
 448              	.LBB49:
 449              		.loc 1 169 0
 450 0094 02FA03FA 		lsl	r10, r2, r3
 451              	.LVL29:
 452              		.loc 1 170 0
 453 0098 0CFA03F3 		lsl	r3, ip, r3
 454              	.LVL30:
 455              	.LBE49:
 456              		.loc 1 166 0
ARM GAS  /tmp/ccYuBRwd.s 			page 9


 457 009c EDD0     		beq	.L6
 458              	.LBB50:
 459              		.loc 1 171 0
 460 009e 072C     		cmp	r4, #7
 461 00a0 C2D9     		bls	.L16
 462              		.loc 1 174 0
 463 00a2 D0F824B0 		ldr	fp, [r0, #36]
 464 00a6 2BEA0303 		bic	r3, fp, r3
 465              	.LVL31:
 466 00aa 43EA0A03 		orr	r3, r3, r10
 467 00ae 4362     		str	r3, [r0, #36]
 468 00b0 C1E7     		b	.L8
 469              	.LVL32:
 470              	.L5:
 471 00b2 BDE8F08F 		pop	{r4, r5, r6, r7, r8, r9, r10, fp, pc}
 472              	.LBE50:
 473              		.cfi_endproc
 474              	.LFE260:
 475              		.size	_pal_lld_setgroupmode, .-_pal_lld_setgroupmode
 476 00b6 00BF     		.text
 477              	.Letext0:
 478              		.file 2 "/usr/arm-none-eabi/include/machine/_default_types.h"
 479              		.file 3 "/usr/arm-none-eabi/include/sys/_stdint.h"
 480              		.file 4 "/home/selim/working/ChibiOS/os/rt/ports/ARMCMx/compilers/GCC/chtypes.h"
 481              		.file 5 "/home/selim/working/ChibiOS/os/rt/include/chsystypes.h"
 482              		.file 6 "/home/selim/working/ChibiOS/os/rt/include/chschd.h"
 483              		.file 7 "/home/selim/working/ChibiOS/os/ext/CMSIS/ST/stm32f407xx.h"
 484              		.file 8 "/home/selim/working/ChibiOS/os/rt/ports/ARMCMx/chcore.h"
 485              		.file 9 "/home/selim/working/ChibiOS/os/rt/ports/ARMCMx/chcore_v7m.h"
 486              		.file 10 "/home/selim/working/ChibiOS/os/rt/include/chdebug.h"
 487              		.file 11 "/home/selim/working/ChibiOS/os/rt/include/chtm.h"
 488              		.file 12 "/home/selim/working/ChibiOS/os/rt/include/chstats.h"
 489              		.file 13 "/home/selim/working/ChibiOS/os/rt/include/chsem.h"
 490              		.file 14 "/home/selim/working/ChibiOS/os/rt/include/chmtx.h"
 491              		.file 15 "/home/selim/working/ChibiOS/os/hal/ports/STM32/LLD/GPIOv2/pal_lld.h"
 492              		.file 16 "/home/selim/working/ChibiOS/os/ext/CMSIS/include/core_cm4.h"
 493              		.section	.debug_info,"",%progbits
 494              	.Ldebug_info0:
 495 0000 FB0D0000 		.4byte	0xdfb
 496 0004 0400     		.2byte	0x4
 497 0006 00000000 		.4byte	.Ldebug_abbrev0
 498 000a 04       		.byte	0x4
 499 000b 01       		.uleb128 0x1
 500 000c 66050000 		.4byte	.LASF200
 501 0010 0C       		.byte	0xc
 502 0011 93020000 		.4byte	.LASF201
 503 0015 90000000 		.4byte	.Ldebug_ranges0+0x90
 504 0019 00000000 		.4byte	0
 505 001d 00000000 		.4byte	.Ldebug_line0
 506 0021 02       		.uleb128 0x2
 507 0022 04       		.byte	0x4
 508 0023 05       		.byte	0x5
 509 0024 696E7400 		.ascii	"int\000"
 510 0028 03       		.uleb128 0x3
 511 0029 04       		.byte	0x4
 512 002a 07       		.byte	0x7
 513 002b 6C020000 		.4byte	.LASF0
ARM GAS  /tmp/ccYuBRwd.s 			page 10


 514 002f 03       		.uleb128 0x3
 515 0030 08       		.byte	0x8
 516 0031 05       		.byte	0x5
 517 0032 3E010000 		.4byte	.LASF1
 518 0036 03       		.uleb128 0x3
 519 0037 08       		.byte	0x8
 520 0038 04       		.byte	0x4
 521 0039 12040000 		.4byte	.LASF2
 522 003d 03       		.uleb128 0x3
 523 003e 01       		.byte	0x1
 524 003f 06       		.byte	0x6
 525 0040 4C010000 		.4byte	.LASF3
 526 0044 04       		.uleb128 0x4
 527 0045 45000000 		.4byte	.LASF6
 528 0049 02       		.byte	0x2
 529 004a 1D       		.byte	0x1d
 530 004b 4F000000 		.4byte	0x4f
 531 004f 03       		.uleb128 0x3
 532 0050 01       		.byte	0x1
 533 0051 08       		.byte	0x8
 534 0052 20050000 		.4byte	.LASF4
 535 0056 03       		.uleb128 0x3
 536 0057 02       		.byte	0x2
 537 0058 05       		.byte	0x5
 538 0059 43050000 		.4byte	.LASF5
 539 005d 04       		.uleb128 0x4
 540 005e 0E070000 		.4byte	.LASF7
 541 0062 02       		.byte	0x2
 542 0063 2B       		.byte	0x2b
 543 0064 68000000 		.4byte	0x68
 544 0068 03       		.uleb128 0x3
 545 0069 02       		.byte	0x2
 546 006a 07       		.byte	0x7
 547 006b F1020000 		.4byte	.LASF8
 548 006f 04       		.uleb128 0x4
 549 0070 8C030000 		.4byte	.LASF9
 550 0074 02       		.byte	0x2
 551 0075 3F       		.byte	0x3f
 552 0076 7A000000 		.4byte	0x7a
 553 007a 03       		.uleb128 0x3
 554 007b 04       		.byte	0x4
 555 007c 05       		.byte	0x5
 556 007d 92010000 		.4byte	.LASF10
 557 0081 04       		.uleb128 0x4
 558 0082 55070000 		.4byte	.LASF11
 559 0086 02       		.byte	0x2
 560 0087 41       		.byte	0x41
 561 0088 8C000000 		.4byte	0x8c
 562 008c 03       		.uleb128 0x3
 563 008d 04       		.byte	0x4
 564 008e 07       		.byte	0x7
 565 008f E6060000 		.4byte	.LASF12
 566 0093 04       		.uleb128 0x4
 567 0094 89040000 		.4byte	.LASF13
 568 0098 02       		.byte	0x2
 569 0099 5B       		.byte	0x5b
 570 009a 9E000000 		.4byte	0x9e
ARM GAS  /tmp/ccYuBRwd.s 			page 11


 571 009e 03       		.uleb128 0x3
 572 009f 08       		.byte	0x8
 573 00a0 07       		.byte	0x7
 574 00a1 B5000000 		.4byte	.LASF14
 575 00a5 04       		.uleb128 0x4
 576 00a6 20080000 		.4byte	.LASF15
 577 00aa 03       		.byte	0x3
 578 00ab 14       		.byte	0x14
 579 00ac 44000000 		.4byte	0x44
 580 00b0 04       		.uleb128 0x4
 581 00b1 BB010000 		.4byte	.LASF16
 582 00b5 03       		.byte	0x3
 583 00b6 1A       		.byte	0x1a
 584 00b7 5D000000 		.4byte	0x5d
 585 00bb 04       		.uleb128 0x4
 586 00bc 18050000 		.4byte	.LASF17
 587 00c0 03       		.byte	0x3
 588 00c1 1F       		.byte	0x1f
 589 00c2 6F000000 		.4byte	0x6f
 590 00c6 04       		.uleb128 0x4
 591 00c7 B5060000 		.4byte	.LASF18
 592 00cb 03       		.byte	0x3
 593 00cc 20       		.byte	0x20
 594 00cd 81000000 		.4byte	0x81
 595 00d1 04       		.uleb128 0x4
 596 00d2 3C000000 		.4byte	.LASF19
 597 00d6 03       		.byte	0x3
 598 00d7 26       		.byte	0x26
 599 00d8 93000000 		.4byte	0x93
 600 00dc 05       		.uleb128 0x5
 601 00dd BB000000 		.4byte	0xbb
 602 00e1 05       		.uleb128 0x5
 603 00e2 C6000000 		.4byte	0xc6
 604 00e6 04       		.uleb128 0x4
 605 00e7 C0070000 		.4byte	.LASF20
 606 00eb 04       		.byte	0x4
 607 00ec 46       		.byte	0x46
 608 00ed C6000000 		.4byte	0xc6
 609 00f1 04       		.uleb128 0x4
 610 00f2 24010000 		.4byte	.LASF21
 611 00f6 04       		.byte	0x4
 612 00f7 47       		.byte	0x47
 613 00f8 D1000000 		.4byte	0xd1
 614 00fc 04       		.uleb128 0x4
 615 00fd 55060000 		.4byte	.LASF22
 616 0101 04       		.byte	0x4
 617 0102 49       		.byte	0x49
 618 0103 A5000000 		.4byte	0xa5
 619 0107 04       		.uleb128 0x4
 620 0108 AC010000 		.4byte	.LASF23
 621 010c 04       		.byte	0x4
 622 010d 4A       		.byte	0x4a
 623 010e A5000000 		.4byte	0xa5
 624 0112 04       		.uleb128 0x4
 625 0113 B6040000 		.4byte	.LASF24
 626 0117 04       		.byte	0x4
 627 0118 4B       		.byte	0x4b
ARM GAS  /tmp/ccYuBRwd.s 			page 12


 628 0119 A5000000 		.4byte	0xa5
 629 011d 04       		.uleb128 0x4
 630 011e 01050000 		.4byte	.LASF25
 631 0122 04       		.byte	0x4
 632 0123 4D       		.byte	0x4d
 633 0124 C6000000 		.4byte	0xc6
 634 0128 04       		.uleb128 0x4
 635 0129 31030000 		.4byte	.LASF26
 636 012d 04       		.byte	0x4
 637 012e 4E       		.byte	0x4e
 638 012f BB000000 		.4byte	0xbb
 639 0133 04       		.uleb128 0x4
 640 0134 80030000 		.4byte	.LASF27
 641 0138 04       		.byte	0x4
 642 0139 50       		.byte	0x50
 643 013a C6000000 		.4byte	0xc6
 644 013e 04       		.uleb128 0x4
 645 013f 5B020000 		.4byte	.LASF28
 646 0143 04       		.byte	0x4
 647 0144 52       		.byte	0x52
 648 0145 BB000000 		.4byte	0xbb
 649 0149 04       		.uleb128 0x4
 650 014a 40030000 		.4byte	.LASF29
 651 014e 04       		.byte	0x4
 652 014f 53       		.byte	0x53
 653 0150 C6000000 		.4byte	0xc6
 654 0154 04       		.uleb128 0x4
 655 0155 37070000 		.4byte	.LASF30
 656 0159 05       		.byte	0x5
 657 015a 33       		.byte	0x33
 658 015b C6000000 		.4byte	0xc6
 659 015f 04       		.uleb128 0x4
 660 0160 22070000 		.4byte	.LASF31
 661 0164 05       		.byte	0x5
 662 0165 3F       		.byte	0x3f
 663 0166 6A010000 		.4byte	0x16a
 664 016a 06       		.uleb128 0x6
 665 016b 13030000 		.4byte	.LASF53
 666 016f 60       		.byte	0x60
 667 0170 06       		.byte	0x6
 668 0171 C2       		.byte	0xc2
 669 0172 70020000 		.4byte	0x270
 670 0176 07       		.uleb128 0x7
 671 0177 4E060000 		.4byte	.LASF32
 672 017b 06       		.byte	0x6
 673 017c C3       		.byte	0xc3
 674 017d 7B020000 		.4byte	0x27b
 675 0181 00       		.byte	0
 676 0182 07       		.uleb128 0x7
 677 0183 F0040000 		.4byte	.LASF33
 678 0187 06       		.byte	0x6
 679 0188 C5       		.byte	0xc5
 680 0189 7B020000 		.4byte	0x27b
 681 018d 04       		.byte	0x4
 682 018e 07       		.uleb128 0x7
 683 018f 37010000 		.4byte	.LASF34
 684 0193 06       		.byte	0x6
ARM GAS  /tmp/ccYuBRwd.s 			page 13


 685 0194 C7       		.byte	0xc7
 686 0195 1D010000 		.4byte	0x11d
 687 0199 08       		.byte	0x8
 688 019a 07       		.uleb128 0x7
 689 019b 90080000 		.4byte	.LASF35
 690 019f 06       		.byte	0x6
 691 01a0 C8       		.byte	0xc8
 692 01a1 8F060000 		.4byte	0x68f
 693 01a5 0C       		.byte	0xc
 694 01a6 07       		.uleb128 0x7
 695 01a7 CD010000 		.4byte	.LASF36
 696 01ab 06       		.byte	0x6
 697 01ac CA       		.byte	0xca
 698 01ad 7B020000 		.4byte	0x27b
 699 01b1 10       		.byte	0x10
 700 01b2 07       		.uleb128 0x7
 701 01b3 41040000 		.4byte	.LASF37
 702 01b7 06       		.byte	0x6
 703 01b8 CB       		.byte	0xcb
 704 01b9 7B020000 		.4byte	0x27b
 705 01bd 14       		.byte	0x14
 706 01be 07       		.uleb128 0x7
 707 01bf 35080000 		.4byte	.LASF38
 708 01c3 06       		.byte	0x6
 709 01c4 D2       		.byte	0xd2
 710 01c5 33090000 		.4byte	0x933
 711 01c9 18       		.byte	0x18
 712 01ca 07       		.uleb128 0x7
 713 01cb 61020000 		.4byte	.LASF39
 714 01cf 06       		.byte	0x6
 715 01d0 D8       		.byte	0xd8
 716 01d1 45090000 		.4byte	0x945
 717 01d5 1C       		.byte	0x1c
 718 01d6 07       		.uleb128 0x7
 719 01d7 4D050000 		.4byte	.LASF40
 720 01db 06       		.byte	0x6
 721 01dc DD       		.byte	0xdd
 722 01dd 07010000 		.4byte	0x107
 723 01e1 20       		.byte	0x20
 724 01e2 07       		.uleb128 0x7
 725 01e3 5D060000 		.4byte	.LASF41
 726 01e7 06       		.byte	0x6
 727 01e8 E1       		.byte	0xe1
 728 01e9 FC000000 		.4byte	0xfc
 729 01ed 21       		.byte	0x21
 730 01ee 07       		.uleb128 0x7
 731 01ef F8070000 		.4byte	.LASF42
 732 01f3 06       		.byte	0x6
 733 01f4 E6       		.byte	0xe6
 734 01f5 12010000 		.4byte	0x112
 735 01f9 22       		.byte	0x22
 736 01fa 08       		.uleb128 0x8
 737 01fb 705F7500 		.ascii	"p_u\000"
 738 01ff 06       		.byte	0x6
 739 0200 3101     		.2byte	0x131
 740 0202 6E080000 		.4byte	0x86e
 741 0206 24       		.byte	0x24
ARM GAS  /tmp/ccYuBRwd.s 			page 14


 742 0207 09       		.uleb128 0x9
 743 0208 CF030000 		.4byte	.LASF43
 744 020c 06       		.byte	0x6
 745 020d 3601     		.2byte	0x136
 746 020f 81020000 		.4byte	0x281
 747 0213 28       		.byte	0x28
 748 0214 09       		.uleb128 0x9
 749 0215 88020000 		.4byte	.LASF44
 750 0219 06       		.byte	0x6
 751 021a 3C01     		.2byte	0x13c
 752 021c A5020000 		.4byte	0x2a5
 753 0220 2C       		.byte	0x2c
 754 0221 09       		.uleb128 0x9
 755 0222 5D080000 		.4byte	.LASF45
 756 0226 06       		.byte	0x6
 757 0227 4001     		.2byte	0x140
 758 0229 28010000 		.4byte	0x128
 759 022d 34       		.byte	0x34
 760 022e 09       		.uleb128 0x9
 761 022f A0060000 		.4byte	.LASF46
 762 0233 06       		.byte	0x6
 763 0234 4601     		.2byte	0x146
 764 0236 33010000 		.4byte	0x133
 765 023a 38       		.byte	0x38
 766 023b 09       		.uleb128 0x9
 767 023c 39050000 		.4byte	.LASF47
 768 0240 06       		.byte	0x6
 769 0241 4D01     		.2byte	0x14d
 770 0243 2D090000 		.4byte	0x92d
 771 0247 3C       		.byte	0x3c
 772 0248 09       		.uleb128 0x9
 773 0249 41070000 		.4byte	.LASF48
 774 024d 06       		.byte	0x6
 775 024e 5101     		.2byte	0x151
 776 0250 1D010000 		.4byte	0x11d
 777 0254 40       		.byte	0x40
 778 0255 09       		.uleb128 0x9
 779 0256 66010000 		.4byte	.LASF49
 780 025a 06       		.byte	0x6
 781 025b 5801     		.2byte	0x158
 782 025d 58030000 		.4byte	0x358
 783 0261 44       		.byte	0x44
 784 0262 09       		.uleb128 0x9
 785 0263 65060000 		.4byte	.LASF50
 786 0267 06       		.byte	0x6
 787 0268 5E01     		.2byte	0x15e
 788 026a 1F080000 		.4byte	0x81f
 789 026e 48       		.byte	0x48
 790 026f 00       		.byte	0
 791 0270 04       		.uleb128 0x4
 792 0271 E2030000 		.4byte	.LASF51
 793 0275 05       		.byte	0x5
 794 0276 44       		.byte	0x44
 795 0277 7B020000 		.4byte	0x27b
 796 027b 0A       		.uleb128 0xa
 797 027c 04       		.byte	0x4
 798 027d 5F010000 		.4byte	0x15f
ARM GAS  /tmp/ccYuBRwd.s 			page 15


 799 0281 04       		.uleb128 0x4
 800 0282 A8030000 		.4byte	.LASF52
 801 0286 05       		.byte	0x5
 802 0287 49       		.byte	0x49
 803 0288 8C020000 		.4byte	0x28c
 804 028c 06       		.uleb128 0x6
 805 028d D6060000 		.4byte	.LASF54
 806 0291 04       		.byte	0x4
 807 0292 06       		.byte	0x6
 808 0293 B0       		.byte	0xb0
 809 0294 A5020000 		.4byte	0x2a5
 810 0298 07       		.uleb128 0x7
 811 0299 4E060000 		.4byte	.LASF32
 812 029d 06       		.byte	0x6
 813 029e B1       		.byte	0xb1
 814 029f 7B020000 		.4byte	0x27b
 815 02a3 00       		.byte	0
 816 02a4 00       		.byte	0
 817 02a5 04       		.uleb128 0x4
 818 02a6 DF070000 		.4byte	.LASF55
 819 02aa 05       		.byte	0x5
 820 02ab 50       		.byte	0x50
 821 02ac B0020000 		.4byte	0x2b0
 822 02b0 06       		.uleb128 0x6
 823 02b1 62000000 		.4byte	.LASF56
 824 02b5 08       		.byte	0x8
 825 02b6 06       		.byte	0x6
 826 02b7 B7       		.byte	0xb7
 827 02b8 D5020000 		.4byte	0x2d5
 828 02bc 07       		.uleb128 0x7
 829 02bd 4E060000 		.4byte	.LASF32
 830 02c1 06       		.byte	0x6
 831 02c2 B8       		.byte	0xb8
 832 02c3 7B020000 		.4byte	0x27b
 833 02c7 00       		.byte	0
 834 02c8 07       		.uleb128 0x7
 835 02c9 F0040000 		.4byte	.LASF33
 836 02cd 06       		.byte	0x6
 837 02ce B9       		.byte	0xb9
 838 02cf 7B020000 		.4byte	0x27b
 839 02d3 04       		.byte	0x4
 840 02d4 00       		.byte	0
 841 02d5 04       		.uleb128 0x4
 842 02d6 1A000000 		.4byte	.LASF57
 843 02da 05       		.byte	0x5
 844 02db 57       		.byte	0x57
 845 02dc E0020000 		.4byte	0x2e0
 846 02e0 0B       		.uleb128 0xb
 847 02e1 72030000 		.4byte	.LASF58
 848 02e5 1C       		.byte	0x1c
 849 02e6 06       		.byte	0x6
 850 02e7 9001     		.2byte	0x190
 851 02e9 3C030000 		.4byte	0x33c
 852 02ed 09       		.uleb128 0x9
 853 02ee C5060000 		.4byte	.LASF59
 854 02f2 06       		.byte	0x6
 855 02f3 9101     		.2byte	0x191
ARM GAS  /tmp/ccYuBRwd.s 			page 16


 856 02f5 A5020000 		.4byte	0x2a5
 857 02f9 00       		.byte	0
 858 02fa 09       		.uleb128 0x9
 859 02fb 5F050000 		.4byte	.LASF60
 860 02ff 06       		.byte	0x6
 861 0300 9201     		.2byte	0x192
 862 0302 1D010000 		.4byte	0x11d
 863 0306 08       		.byte	0x8
 864 0307 09       		.uleb128 0x9
 865 0308 49040000 		.4byte	.LASF61
 866 030c 06       		.byte	0x6
 867 030d 9401     		.2byte	0x194
 868 030f 8F060000 		.4byte	0x68f
 869 0313 0C       		.byte	0xc
 870 0314 09       		.uleb128 0x9
 871 0315 ED010000 		.4byte	.LASF62
 872 0319 06       		.byte	0x6
 873 031a 9701     		.2byte	0x197
 874 031c 7B020000 		.4byte	0x27b
 875 0320 10       		.byte	0x10
 876 0321 09       		.uleb128 0x9
 877 0322 A2070000 		.4byte	.LASF63
 878 0326 06       		.byte	0x6
 879 0327 9801     		.2byte	0x198
 880 0329 7B020000 		.4byte	0x27b
 881 032d 14       		.byte	0x14
 882 032e 09       		.uleb128 0x9
 883 032f 76040000 		.4byte	.LASF64
 884 0333 06       		.byte	0x6
 885 0334 9B01     		.2byte	0x19b
 886 0336 7B020000 		.4byte	0x27b
 887 033a 18       		.byte	0x18
 888 033b 00       		.byte	0
 889 033c 04       		.uleb128 0x4
 890 033d 4C070000 		.4byte	.LASF65
 891 0341 05       		.byte	0x5
 892 0342 5C       		.byte	0x5c
 893 0343 47030000 		.4byte	0x347
 894 0347 0A       		.uleb128 0xa
 895 0348 04       		.byte	0x4
 896 0349 4D030000 		.4byte	0x34d
 897 034d 0C       		.uleb128 0xc
 898 034e 58030000 		.4byte	0x358
 899 0352 0D       		.uleb128 0xd
 900 0353 58030000 		.4byte	0x358
 901 0357 00       		.byte	0
 902 0358 0E       		.uleb128 0xe
 903 0359 04       		.byte	0x4
 904 035a 04       		.uleb128 0x4
 905 035b B7030000 		.4byte	.LASF66
 906 035f 05       		.byte	0x5
 907 0360 61       		.byte	0x61
 908 0361 65030000 		.4byte	0x365
 909 0365 0B       		.uleb128 0xb
 910 0366 82060000 		.4byte	.LASF67
 911 036a 14       		.byte	0x14
 912 036b 06       		.byte	0x6
ARM GAS  /tmp/ccYuBRwd.s 			page 17


 913 036c 6B01     		.2byte	0x16b
 914 036e B4030000 		.4byte	0x3b4
 915 0372 09       		.uleb128 0x9
 916 0373 79020000 		.4byte	.LASF68
 917 0377 06       		.byte	0x6
 918 0378 6C01     		.2byte	0x16c
 919 037a 4B090000 		.4byte	0x94b
 920 037e 00       		.byte	0
 921 037f 09       		.uleb128 0x9
 922 0380 03020000 		.4byte	.LASF69
 923 0384 06       		.byte	0x6
 924 0385 6D01     		.2byte	0x16d
 925 0387 4B090000 		.4byte	0x94b
 926 038b 04       		.byte	0x4
 927 038c 09       		.uleb128 0x9
 928 038d CD060000 		.4byte	.LASF70
 929 0391 06       		.byte	0x6
 930 0392 6E01     		.2byte	0x16e
 931 0394 54010000 		.4byte	0x154
 932 0398 08       		.byte	0x8
 933 0399 09       		.uleb128 0x9
 934 039a 96080000 		.4byte	.LASF71
 935 039e 06       		.byte	0x6
 936 039f 6F01     		.2byte	0x16f
 937 03a1 3C030000 		.4byte	0x33c
 938 03a5 0C       		.byte	0xc
 939 03a6 09       		.uleb128 0x9
 940 03a7 C8070000 		.4byte	.LASF72
 941 03ab 06       		.byte	0x6
 942 03ac 7101     		.2byte	0x171
 943 03ae 58030000 		.4byte	0x358
 944 03b2 10       		.byte	0x10
 945 03b3 00       		.byte	0
 946 03b4 04       		.uleb128 0x4
 947 03b5 01010000 		.4byte	.LASF73
 948 03b9 05       		.byte	0x5
 949 03ba 66       		.byte	0x66
 950 03bb BF030000 		.4byte	0x3bf
 951 03bf 0B       		.uleb128 0xb
 952 03c0 F5030000 		.4byte	.LASF74
 953 03c4 10       		.byte	0x10
 954 03c5 06       		.byte	0x6
 955 03c6 7B01     		.2byte	0x17b
 956 03c8 01040000 		.4byte	0x401
 957 03cc 09       		.uleb128 0x9
 958 03cd 79020000 		.4byte	.LASF68
 959 03d1 06       		.byte	0x6
 960 03d2 7C01     		.2byte	0x17c
 961 03d4 4B090000 		.4byte	0x94b
 962 03d8 00       		.byte	0
 963 03d9 09       		.uleb128 0x9
 964 03da 03020000 		.4byte	.LASF69
 965 03de 06       		.byte	0x6
 966 03df 7E01     		.2byte	0x17e
 967 03e1 4B090000 		.4byte	0x94b
 968 03e5 04       		.byte	0x4
 969 03e6 09       		.uleb128 0x9
ARM GAS  /tmp/ccYuBRwd.s 			page 18


 970 03e7 CD060000 		.4byte	.LASF70
 971 03eb 06       		.byte	0x6
 972 03ec 8001     		.2byte	0x180
 973 03ee 54010000 		.4byte	0x154
 974 03f2 08       		.byte	0x8
 975 03f3 09       		.uleb128 0x9
 976 03f4 35040000 		.4byte	.LASF75
 977 03f8 06       		.byte	0x6
 978 03f9 8801     		.2byte	0x188
 979 03fb 54010000 		.4byte	0x154
 980 03ff 0C       		.byte	0xc
 981 0400 00       		.byte	0
 982 0401 04       		.uleb128 0x4
 983 0402 73000000 		.4byte	.LASF76
 984 0406 05       		.byte	0x5
 985 0407 6B       		.byte	0x6b
 986 0408 0C040000 		.4byte	0x40c
 987 040c 0F       		.uleb128 0xf
 988 040d 12020000 		.4byte	.LASF77
 989 0411 1404     		.2byte	0x414
 990 0413 06       		.byte	0x6
 991 0414 A201     		.2byte	0x1a2
 992 0416 4F040000 		.4byte	0x44f
 993 041a 09       		.uleb128 0x9
 994 041b 6E070000 		.4byte	.LASF78
 995 041f 06       		.byte	0x6
 996 0420 AA01     		.2byte	0x1aa
 997 0422 51090000 		.4byte	0x951
 998 0426 00       		.byte	0
 999 0427 09       		.uleb128 0x9
 1000 0428 FF070000 		.4byte	.LASF79
 1001 042c 06       		.byte	0x6
 1002 042d AF01     		.2byte	0x1af
 1003 042f 3E010000 		.4byte	0x13e
 1004 0433 04       		.byte	0x4
 1005 0434 09       		.uleb128 0x9
 1006 0435 43020000 		.4byte	.LASF80
 1007 0439 06       		.byte	0x6
 1008 043a B301     		.2byte	0x1b3
 1009 043c 3E010000 		.4byte	0x13e
 1010 0440 08       		.byte	0x8
 1011 0441 09       		.uleb128 0x9
 1012 0442 50080000 		.4byte	.LASF81
 1013 0446 06       		.byte	0x6
 1014 0447 B901     		.2byte	0x1b9
 1015 0449 B1070000 		.4byte	0x7b1
 1016 044d 0C       		.byte	0xc
 1017 044e 00       		.byte	0
 1018 044f 04       		.uleb128 0x4
 1019 0450 47030000 		.4byte	.LASF82
 1020 0454 05       		.byte	0x5
 1021 0455 70       		.byte	0x70
 1022 0456 5A040000 		.4byte	0x45a
 1023 045a 0F       		.uleb128 0xf
 1024 045b 88010000 		.4byte	.LASF83
 1025 045f D805     		.2byte	0x5d8
 1026 0461 06       		.byte	0x6
ARM GAS  /tmp/ccYuBRwd.s 			page 19


 1027 0462 C201     		.2byte	0x1c2
 1028 0464 C7040000 		.4byte	0x4c7
 1029 0468 09       		.uleb128 0x9
 1030 0469 1A080000 		.4byte	.LASF84
 1031 046d 06       		.byte	0x6
 1032 046e C601     		.2byte	0x1c6
 1033 0470 D5020000 		.4byte	0x2d5
 1034 0474 00       		.byte	0
 1035 0475 09       		.uleb128 0x9
 1036 0476 0B020000 		.4byte	.LASF85
 1037 047a 06       		.byte	0x6
 1038 047b CA01     		.2byte	0x1ca
 1039 047d B4030000 		.4byte	0x3b4
 1040 0481 1C       		.byte	0x1c
 1041 0482 08       		.uleb128 0x8
 1042 0483 64626700 		.ascii	"dbg\000"
 1043 0487 06       		.byte	0x6
 1044 0488 CE01     		.2byte	0x1ce
 1045 048a 01040000 		.4byte	0x401
 1046 048e 2C       		.byte	0x2c
 1047 048f 10       		.uleb128 0x10
 1048 0490 F6000000 		.4byte	.LASF86
 1049 0494 06       		.byte	0x6
 1050 0495 D201     		.2byte	0x1d2
 1051 0497 5F010000 		.4byte	0x15f
 1052 049b 4004     		.2byte	0x440
 1053 049d 11       		.uleb128 0x11
 1054 049e 746D00   		.ascii	"tm\000"
 1055 04a1 06       		.byte	0x6
 1056 04a2 D701     		.2byte	0x1d7
 1057 04a4 D1070000 		.4byte	0x7d1
 1058 04a8 A004     		.2byte	0x4a0
 1059 04aa 10       		.uleb128 0x10
 1060 04ab A9040000 		.4byte	.LASF87
 1061 04af 06       		.byte	0x6
 1062 04b0 DD01     		.2byte	0x1dd
 1063 04b2 63080000 		.4byte	0x863
 1064 04b6 A804     		.2byte	0x4a8
 1065 04b8 10       		.uleb128 0x10
 1066 04b9 4C020000 		.4byte	.LASF88
 1067 04bd 06       		.byte	0x6
 1068 04be E301     		.2byte	0x1e3
 1069 04c0 56090000 		.4byte	0x956
 1070 04c4 E004     		.2byte	0x4e0
 1071 04c6 00       		.byte	0
 1072 04c7 03       		.uleb128 0x3
 1073 04c8 04       		.byte	0x4
 1074 04c9 07       		.byte	0x7
 1075 04ca D9030000 		.4byte	.LASF89
 1076 04ce 12       		.uleb128 0x12
 1077 04cf C6000000 		.4byte	0xc6
 1078 04d3 DE040000 		.4byte	0x4de
 1079 04d7 13       		.uleb128 0x13
 1080 04d8 C7040000 		.4byte	0x4c7
 1081 04dc 01       		.byte	0x1
 1082 04dd 00       		.byte	0
 1083 04de 14       		.uleb128 0x14
ARM GAS  /tmp/ccYuBRwd.s 			page 20


 1084 04df 88       		.byte	0x88
 1085 04e0 07       		.byte	0x7
 1086 04e1 6702     		.2byte	0x267
 1087 04e3 6D060000 		.4byte	0x66d
 1088 04e7 08       		.uleb128 0x8
 1089 04e8 435200   		.ascii	"CR\000"
 1090 04eb 07       		.byte	0x7
 1091 04ec 6902     		.2byte	0x269
 1092 04ee E1000000 		.4byte	0xe1
 1093 04f2 00       		.byte	0
 1094 04f3 09       		.uleb128 0x9
 1095 04f4 D5010000 		.4byte	.LASF90
 1096 04f8 07       		.byte	0x7
 1097 04f9 6A02     		.2byte	0x26a
 1098 04fb E1000000 		.4byte	0xe1
 1099 04ff 04       		.byte	0x4
 1100 0500 09       		.uleb128 0x9
 1101 0501 4B080000 		.4byte	.LASF91
 1102 0505 07       		.byte	0x7
 1103 0506 6B02     		.2byte	0x26b
 1104 0508 E1000000 		.4byte	0xe1
 1105 050c 08       		.byte	0x8
 1106 050d 08       		.uleb128 0x8
 1107 050e 43495200 		.ascii	"CIR\000"
 1108 0512 07       		.byte	0x7
 1109 0513 6C02     		.2byte	0x26c
 1110 0515 E1000000 		.4byte	0xe1
 1111 0519 0C       		.byte	0xc
 1112 051a 09       		.uleb128 0x9
 1113 051b 5D010000 		.4byte	.LASF92
 1114 051f 07       		.byte	0x7
 1115 0520 6D02     		.2byte	0x26d
 1116 0522 E1000000 		.4byte	0xe1
 1117 0526 10       		.byte	0x10
 1118 0527 09       		.uleb128 0x9
 1119 0528 19070000 		.4byte	.LASF93
 1120 052c 07       		.byte	0x7
 1121 052d 6E02     		.2byte	0x26e
 1122 052f E1000000 		.4byte	0xe1
 1123 0533 14       		.byte	0x14
 1124 0534 09       		.uleb128 0x9
 1125 0535 37030000 		.4byte	.LASF94
 1126 0539 07       		.byte	0x7
 1127 053a 6F02     		.2byte	0x26f
 1128 053c E1000000 		.4byte	0xe1
 1129 0540 18       		.byte	0x18
 1130 0541 09       		.uleb128 0x9
 1131 0542 BE040000 		.4byte	.LASF95
 1132 0546 07       		.byte	0x7
 1133 0547 7002     		.2byte	0x270
 1134 0549 C6000000 		.4byte	0xc6
 1135 054d 1C       		.byte	0x1c
 1136 054e 09       		.uleb128 0x9
 1137 054f 80040000 		.4byte	.LASF96
 1138 0553 07       		.byte	0x7
 1139 0554 7102     		.2byte	0x271
 1140 0556 E1000000 		.4byte	0xe1
ARM GAS  /tmp/ccYuBRwd.s 			page 21


 1141 055a 20       		.byte	0x20
 1142 055b 09       		.uleb128 0x9
 1143 055c 28030000 		.4byte	.LASF97
 1144 0560 07       		.byte	0x7
 1145 0561 7202     		.2byte	0x272
 1146 0563 E1000000 		.4byte	0xe1
 1147 0567 24       		.byte	0x24
 1148 0568 09       		.uleb128 0x9
 1149 0569 C8040000 		.4byte	.LASF98
 1150 056d 07       		.byte	0x7
 1151 056e 7302     		.2byte	0x273
 1152 0570 CE040000 		.4byte	0x4ce
 1153 0574 28       		.byte	0x28
 1154 0575 09       		.uleb128 0x9
 1155 0576 3C080000 		.4byte	.LASF99
 1156 057a 07       		.byte	0x7
 1157 057b 7402     		.2byte	0x274
 1158 057d E1000000 		.4byte	0xe1
 1159 0581 30       		.byte	0x30
 1160 0582 09       		.uleb128 0x9
 1161 0583 92070000 		.4byte	.LASF100
 1162 0587 07       		.byte	0x7
 1163 0588 7502     		.2byte	0x275
 1164 058a E1000000 		.4byte	0xe1
 1165 058e 34       		.byte	0x34
 1166 058f 09       		.uleb128 0x9
 1167 0590 2D040000 		.4byte	.LASF101
 1168 0594 07       		.byte	0x7
 1169 0595 7602     		.2byte	0x276
 1170 0597 E1000000 		.4byte	0xe1
 1171 059b 38       		.byte	0x38
 1172 059c 09       		.uleb128 0x9
 1173 059d D2040000 		.4byte	.LASF102
 1174 05a1 07       		.byte	0x7
 1175 05a2 7702     		.2byte	0x277
 1176 05a4 C6000000 		.4byte	0xc6
 1177 05a8 3C       		.byte	0x3c
 1178 05a9 09       		.uleb128 0x9
 1179 05aa 7F070000 		.4byte	.LASF103
 1180 05ae 07       		.byte	0x7
 1181 05af 7802     		.2byte	0x278
 1182 05b1 E1000000 		.4byte	0xe1
 1183 05b5 40       		.byte	0x40
 1184 05b6 09       		.uleb128 0x9
 1185 05b7 73060000 		.4byte	.LASF104
 1186 05bb 07       		.byte	0x7
 1187 05bc 7902     		.2byte	0x279
 1188 05be E1000000 		.4byte	0xe1
 1189 05c2 44       		.byte	0x44
 1190 05c3 09       		.uleb128 0x9
 1191 05c4 DC040000 		.4byte	.LASF105
 1192 05c8 07       		.byte	0x7
 1193 05c9 7A02     		.2byte	0x27a
 1194 05cb CE040000 		.4byte	0x4ce
 1195 05cf 48       		.byte	0x48
 1196 05d0 09       		.uleb128 0x9
 1197 05d1 2D010000 		.4byte	.LASF106
ARM GAS  /tmp/ccYuBRwd.s 			page 22


 1198 05d5 07       		.byte	0x7
 1199 05d6 7B02     		.2byte	0x27b
 1200 05d8 E1000000 		.4byte	0xe1
 1201 05dc 50       		.byte	0x50
 1202 05dd 09       		.uleb128 0x9
 1203 05de 4F040000 		.4byte	.LASF107
 1204 05e2 07       		.byte	0x7
 1205 05e3 7C02     		.2byte	0x27c
 1206 05e5 E1000000 		.4byte	0xe1
 1207 05e9 54       		.byte	0x54
 1208 05ea 09       		.uleb128 0x9
 1209 05eb 55050000 		.4byte	.LASF108
 1210 05ef 07       		.byte	0x7
 1211 05f0 7D02     		.2byte	0x27d
 1212 05f2 E1000000 		.4byte	0xe1
 1213 05f6 58       		.byte	0x58
 1214 05f7 09       		.uleb128 0x9
 1215 05f8 E6040000 		.4byte	.LASF109
 1216 05fc 07       		.byte	0x7
 1217 05fd 7E02     		.2byte	0x27e
 1218 05ff C6000000 		.4byte	0xc6
 1219 0603 5C       		.byte	0x5c
 1220 0604 09       		.uleb128 0x9
 1221 0605 A2010000 		.4byte	.LASF110
 1222 0609 07       		.byte	0x7
 1223 060a 7F02     		.2byte	0x27f
 1224 060c E1000000 		.4byte	0xe1
 1225 0610 60       		.byte	0x60
 1226 0611 09       		.uleb128 0x9
 1227 0612 5D030000 		.4byte	.LASF111
 1228 0616 07       		.byte	0x7
 1229 0617 8002     		.2byte	0x280
 1230 0619 E1000000 		.4byte	0xe1
 1231 061d 64       		.byte	0x64
 1232 061e 09       		.uleb128 0x9
 1233 061f AB060000 		.4byte	.LASF112
 1234 0623 07       		.byte	0x7
 1235 0624 8102     		.2byte	0x281
 1236 0626 CE040000 		.4byte	0x4ce
 1237 062a 68       		.byte	0x68
 1238 062b 09       		.uleb128 0x9
 1239 062c 15080000 		.4byte	.LASF113
 1240 0630 07       		.byte	0x7
 1241 0631 8202     		.2byte	0x282
 1242 0633 E1000000 		.4byte	0xe1
 1243 0637 70       		.byte	0x70
 1244 0638 08       		.uleb128 0x8
 1245 0639 43535200 		.ascii	"CSR\000"
 1246 063d 07       		.byte	0x7
 1247 063e 8302     		.2byte	0x283
 1248 0640 E1000000 		.4byte	0xe1
 1249 0644 74       		.byte	0x74
 1250 0645 09       		.uleb128 0x9
 1251 0646 F7040000 		.4byte	.LASF114
 1252 064a 07       		.byte	0x7
 1253 064b 8402     		.2byte	0x284
 1254 064d CE040000 		.4byte	0x4ce
ARM GAS  /tmp/ccYuBRwd.s 			page 23


 1255 0651 78       		.byte	0x78
 1256 0652 09       		.uleb128 0x9
 1257 0653 D9070000 		.4byte	.LASF115
 1258 0657 07       		.byte	0x7
 1259 0658 8502     		.2byte	0x285
 1260 065a E1000000 		.4byte	0xe1
 1261 065e 80       		.byte	0x80
 1262 065f 09       		.uleb128 0x9
 1263 0660 1D030000 		.4byte	.LASF116
 1264 0664 07       		.byte	0x7
 1265 0665 8602     		.2byte	0x286
 1266 0667 E1000000 		.4byte	0xe1
 1267 066b 84       		.byte	0x84
 1268 066c 00       		.byte	0
 1269 066d 15       		.uleb128 0x15
 1270 066e 7C010000 		.4byte	.LASF117
 1271 0672 07       		.byte	0x7
 1272 0673 8802     		.2byte	0x288
 1273 0675 DE040000 		.4byte	0x4de
 1274 0679 04       		.uleb128 0x4
 1275 067a FA010000 		.4byte	.LASF118
 1276 067e 08       		.byte	0x8
 1277 067f 65       		.byte	0x65
 1278 0680 58030000 		.4byte	0x358
 1279 0684 04       		.uleb128 0x4
 1280 0685 9D030000 		.4byte	.LASF119
 1281 0689 08       		.byte	0x8
 1282 068a 6D       		.byte	0x6d
 1283 068b D1000000 		.4byte	0xd1
 1284 068f 06       		.uleb128 0x6
 1285 0690 9A070000 		.4byte	.LASF120
 1286 0694 04       		.byte	0x4
 1287 0695 08       		.byte	0x8
 1288 0696 89       		.byte	0x89
 1289 0697 A8060000 		.4byte	0x6a8
 1290 069b 16       		.uleb128 0x16
 1291 069c 72313300 		.ascii	"r13\000"
 1292 06a0 08       		.byte	0x8
 1293 06a1 8A       		.byte	0x8a
 1294 06a2 23070000 		.4byte	0x723
 1295 06a6 00       		.byte	0
 1296 06a7 00       		.byte	0
 1297 06a8 06       		.uleb128 0x6
 1298 06a9 56000000 		.4byte	.LASF121
 1299 06ad 24       		.byte	0x24
 1300 06ae 09       		.byte	0x9
 1301 06af F4       		.byte	0xf4
 1302 06b0 23070000 		.4byte	0x723
 1303 06b4 08       		.uleb128 0x8
 1304 06b5 723400   		.ascii	"r4\000"
 1305 06b8 09       		.byte	0x9
 1306 06b9 0701     		.2byte	0x107
 1307 06bb 79060000 		.4byte	0x679
 1308 06bf 00       		.byte	0
 1309 06c0 08       		.uleb128 0x8
 1310 06c1 723500   		.ascii	"r5\000"
 1311 06c4 09       		.byte	0x9
ARM GAS  /tmp/ccYuBRwd.s 			page 24


 1312 06c5 0801     		.2byte	0x108
 1313 06c7 79060000 		.4byte	0x679
 1314 06cb 04       		.byte	0x4
 1315 06cc 08       		.uleb128 0x8
 1316 06cd 723600   		.ascii	"r6\000"
 1317 06d0 09       		.byte	0x9
 1318 06d1 0901     		.2byte	0x109
 1319 06d3 79060000 		.4byte	0x679
 1320 06d7 08       		.byte	0x8
 1321 06d8 08       		.uleb128 0x8
 1322 06d9 723700   		.ascii	"r7\000"
 1323 06dc 09       		.byte	0x9
 1324 06dd 0A01     		.2byte	0x10a
 1325 06df 79060000 		.4byte	0x679
 1326 06e3 0C       		.byte	0xc
 1327 06e4 08       		.uleb128 0x8
 1328 06e5 723800   		.ascii	"r8\000"
 1329 06e8 09       		.byte	0x9
 1330 06e9 0B01     		.2byte	0x10b
 1331 06eb 79060000 		.4byte	0x679
 1332 06ef 10       		.byte	0x10
 1333 06f0 08       		.uleb128 0x8
 1334 06f1 723900   		.ascii	"r9\000"
 1335 06f4 09       		.byte	0x9
 1336 06f5 0C01     		.2byte	0x10c
 1337 06f7 79060000 		.4byte	0x679
 1338 06fb 14       		.byte	0x14
 1339 06fc 08       		.uleb128 0x8
 1340 06fd 72313000 		.ascii	"r10\000"
 1341 0701 09       		.byte	0x9
 1342 0702 0D01     		.2byte	0x10d
 1343 0704 79060000 		.4byte	0x679
 1344 0708 18       		.byte	0x18
 1345 0709 08       		.uleb128 0x8
 1346 070a 72313100 		.ascii	"r11\000"
 1347 070e 09       		.byte	0x9
 1348 070f 0E01     		.2byte	0x10e
 1349 0711 79060000 		.4byte	0x679
 1350 0715 1C       		.byte	0x1c
 1351 0716 08       		.uleb128 0x8
 1352 0717 6C7200   		.ascii	"lr\000"
 1353 071a 09       		.byte	0x9
 1354 071b 0F01     		.2byte	0x10f
 1355 071d 79060000 		.4byte	0x679
 1356 0721 20       		.byte	0x20
 1357 0722 00       		.byte	0
 1358 0723 0A       		.uleb128 0xa
 1359 0724 04       		.byte	0x4
 1360 0725 A8060000 		.4byte	0x6a8
 1361 0729 17       		.uleb128 0x17
 1362 072a 10       		.byte	0x10
 1363 072b 0A       		.byte	0xa
 1364 072c 51       		.byte	0x51
 1365 072d 62070000 		.4byte	0x762
 1366 0731 07       		.uleb128 0x7
 1367 0732 27000000 		.4byte	.LASF122
 1368 0736 0A       		.byte	0xa
ARM GAS  /tmp/ccYuBRwd.s 			page 25


 1369 0737 55       		.byte	0x55
 1370 0738 54010000 		.4byte	0x154
 1371 073c 00       		.byte	0
 1372 073d 07       		.uleb128 0x7
 1373 073e B5010000 		.4byte	.LASF123
 1374 0742 0A       		.byte	0xa
 1375 0743 59       		.byte	0x59
 1376 0744 7B020000 		.4byte	0x27b
 1377 0748 04       		.byte	0x4
 1378 0749 07       		.uleb128 0x7
 1379 074a 86080000 		.4byte	.LASF124
 1380 074e 0A       		.byte	0xa
 1381 074f 5D       		.byte	0x5d
 1382 0750 58030000 		.4byte	0x358
 1383 0754 08       		.byte	0x8
 1384 0755 07       		.uleb128 0x7
 1385 0756 DE000000 		.4byte	.LASF125
 1386 075a 0A       		.byte	0xa
 1387 075b 61       		.byte	0x61
 1388 075c A5000000 		.4byte	0xa5
 1389 0760 0C       		.byte	0xc
 1390 0761 00       		.byte	0
 1391 0762 04       		.uleb128 0x4
 1392 0763 1E040000 		.4byte	.LASF126
 1393 0767 0A       		.byte	0xa
 1394 0768 62       		.byte	0x62
 1395 0769 29070000 		.4byte	0x729
 1396 076d 18       		.uleb128 0x18
 1397 076e 0804     		.2byte	0x408
 1398 0770 0A       		.byte	0xa
 1399 0771 67       		.byte	0x67
 1400 0772 9B070000 		.4byte	0x79b
 1401 0776 07       		.uleb128 0x7
 1402 0777 DD010000 		.4byte	.LASF127
 1403 077b 0A       		.byte	0xa
 1404 077c 6B       		.byte	0x6b
 1405 077d 28000000 		.4byte	0x28
 1406 0781 00       		.byte	0
 1407 0782 07       		.uleb128 0x7
 1408 0783 13000000 		.4byte	.LASF128
 1409 0787 0A       		.byte	0xa
 1410 0788 6F       		.byte	0x6f
 1411 0789 9B070000 		.4byte	0x79b
 1412 078d 04       		.byte	0x4
 1413 078e 07       		.uleb128 0x7
 1414 078f 53030000 		.4byte	.LASF129
 1415 0793 0A       		.byte	0xa
 1416 0794 73       		.byte	0x73
 1417 0795 A1070000 		.4byte	0x7a1
 1418 0799 08       		.byte	0x8
 1419 079a 00       		.byte	0
 1420 079b 0A       		.uleb128 0xa
 1421 079c 04       		.byte	0x4
 1422 079d 62070000 		.4byte	0x762
 1423 07a1 12       		.uleb128 0x12
 1424 07a2 62070000 		.4byte	0x762
 1425 07a6 B1070000 		.4byte	0x7b1
ARM GAS  /tmp/ccYuBRwd.s 			page 26


 1426 07aa 13       		.uleb128 0x13
 1427 07ab C7040000 		.4byte	0x4c7
 1428 07af 3F       		.byte	0x3f
 1429 07b0 00       		.byte	0
 1430 07b1 04       		.uleb128 0x4
 1431 07b2 CC000000 		.4byte	.LASF130
 1432 07b6 0A       		.byte	0xa
 1433 07b7 74       		.byte	0x74
 1434 07b8 6D070000 		.4byte	0x76d
 1435 07bc 17       		.uleb128 0x17
 1436 07bd 04       		.byte	0x4
 1437 07be 0B       		.byte	0xb
 1438 07bf 38       		.byte	0x38
 1439 07c0 D1070000 		.4byte	0x7d1
 1440 07c4 07       		.uleb128 0x7
 1441 07c5 78070000 		.4byte	.LASF131
 1442 07c9 0B       		.byte	0xb
 1443 07ca 3C       		.byte	0x3c
 1444 07cb E6000000 		.4byte	0xe6
 1445 07cf 00       		.byte	0
 1446 07d0 00       		.byte	0
 1447 07d1 04       		.uleb128 0x4
 1448 07d2 59040000 		.4byte	.LASF132
 1449 07d6 0B       		.byte	0xb
 1450 07d7 3D       		.byte	0x3d
 1451 07d8 BC070000 		.4byte	0x7bc
 1452 07dc 17       		.uleb128 0x17
 1453 07dd 18       		.byte	0x18
 1454 07de 0B       		.byte	0xb
 1455 07df 48       		.byte	0x48
 1456 07e0 1F080000 		.4byte	0x81f
 1457 07e4 07       		.uleb128 0x7
 1458 07e5 2B070000 		.4byte	.LASF133
 1459 07e9 0B       		.byte	0xb
 1460 07ea 49       		.byte	0x49
 1461 07eb E6000000 		.4byte	0xe6
 1462 07ef 00       		.byte	0
 1463 07f0 07       		.uleb128 0x7
 1464 07f1 8F000000 		.4byte	.LASF134
 1465 07f5 0B       		.byte	0xb
 1466 07f6 4A       		.byte	0x4a
 1467 07f7 E6000000 		.4byte	0xe6
 1468 07fb 04       		.byte	0x4
 1469 07fc 07       		.uleb128 0x7
 1470 07fd 60070000 		.4byte	.LASF135
 1471 0801 0B       		.byte	0xb
 1472 0802 4B       		.byte	0x4b
 1473 0803 E6000000 		.4byte	0xe6
 1474 0807 08       		.byte	0x8
 1475 0808 16       		.uleb128 0x16
 1476 0809 6E00     		.ascii	"n\000"
 1477 080b 0B       		.byte	0xb
 1478 080c 4C       		.byte	0x4c
 1479 080d 49010000 		.4byte	0x149
 1480 0811 0C       		.byte	0xc
 1481 0812 07       		.uleb128 0x7
 1482 0813 99040000 		.4byte	.LASF136
ARM GAS  /tmp/ccYuBRwd.s 			page 27


 1483 0817 0B       		.byte	0xb
 1484 0818 4D       		.byte	0x4d
 1485 0819 F1000000 		.4byte	0xf1
 1486 081d 10       		.byte	0x10
 1487 081e 00       		.byte	0
 1488 081f 04       		.uleb128 0x4
 1489 0820 9C000000 		.4byte	.LASF137
 1490 0824 0B       		.byte	0xb
 1491 0825 4E       		.byte	0x4e
 1492 0826 DC070000 		.4byte	0x7dc
 1493 082a 17       		.uleb128 0x17
 1494 082b 38       		.byte	0x38
 1495 082c 0C       		.byte	0xc
 1496 082d 38       		.byte	0x38
 1497 082e 63080000 		.4byte	0x863
 1498 0832 07       		.uleb128 0x7
 1499 0833 E4020000 		.4byte	.LASF138
 1500 0837 0C       		.byte	0xc
 1501 0838 39       		.byte	0x39
 1502 0839 49010000 		.4byte	0x149
 1503 083d 00       		.byte	0
 1504 083e 07       		.uleb128 0x7
 1505 083f 09050000 		.4byte	.LASF139
 1506 0843 0C       		.byte	0xc
 1507 0844 3A       		.byte	0x3a
 1508 0845 49010000 		.4byte	0x149
 1509 0849 04       		.byte	0x4
 1510 084a 07       		.uleb128 0x7
 1511 084b 73080000 		.4byte	.LASF140
 1512 084f 0C       		.byte	0xc
 1513 0850 3B       		.byte	0x3b
 1514 0851 1F080000 		.4byte	0x81f
 1515 0855 08       		.byte	0x8
 1516 0856 07       		.uleb128 0x7
 1517 0857 67030000 		.4byte	.LASF141
 1518 085b 0C       		.byte	0xc
 1519 085c 3D       		.byte	0x3d
 1520 085d 1F080000 		.4byte	0x81f
 1521 0861 20       		.byte	0x20
 1522 0862 00       		.byte	0
 1523 0863 04       		.uleb128 0x4
 1524 0864 04030000 		.4byte	.LASF142
 1525 0868 0C       		.byte	0xc
 1526 0869 3F       		.byte	0x3f
 1527 086a 2A080000 		.4byte	0x82a
 1528 086e 19       		.uleb128 0x19
 1529 086f 04       		.byte	0x4
 1530 0870 06       		.byte	0x6
 1531 0871 FA       		.byte	0xfa
 1532 0872 CB080000 		.4byte	0x8cb
 1533 0876 1A       		.uleb128 0x1a
 1534 0877 35000000 		.4byte	.LASF143
 1535 087b 06       		.byte	0x6
 1536 087c 0101     		.2byte	0x101
 1537 087e 28010000 		.4byte	0x128
 1538 0882 1A       		.uleb128 0x1a
 1539 0883 ED000000 		.4byte	.LASF144
ARM GAS  /tmp/ccYuBRwd.s 			page 28


 1540 0887 06       		.byte	0x6
 1541 0888 0801     		.2byte	0x108
 1542 088a 28010000 		.4byte	0x128
 1543 088e 1A       		.uleb128 0x1a
 1544 088f 2E080000 		.4byte	.LASF145
 1545 0893 06       		.byte	0x6
 1546 0894 0F01     		.2byte	0x10f
 1547 0896 58030000 		.4byte	0x358
 1548 089a 1A       		.uleb128 0x1a
 1549 089b 2F000000 		.4byte	.LASF146
 1550 089f 06       		.byte	0x6
 1551 08a0 1601     		.2byte	0x116
 1552 08a2 CB080000 		.4byte	0x8cb
 1553 08a6 1A       		.uleb128 0x1a
 1554 08a7 81020000 		.4byte	.LASF147
 1555 08ab 06       		.byte	0x6
 1556 08ac 1E01     		.2byte	0x11e
 1557 08ae F6080000 		.4byte	0x8f6
 1558 08b2 1A       		.uleb128 0x1a
 1559 08b3 BE060000 		.4byte	.LASF148
 1560 08b7 06       		.byte	0x6
 1561 08b8 2701     		.2byte	0x127
 1562 08ba 2D090000 		.4byte	0x92d
 1563 08be 1A       		.uleb128 0x1a
 1564 08bf 47060000 		.4byte	.LASF149
 1565 08c3 06       		.byte	0x6
 1566 08c4 2F01     		.2byte	0x12f
 1567 08c6 33010000 		.4byte	0x133
 1568 08ca 00       		.byte	0
 1569 08cb 0A       		.uleb128 0xa
 1570 08cc 04       		.byte	0x4
 1571 08cd 70020000 		.4byte	0x270
 1572 08d1 06       		.uleb128 0x6
 1573 08d2 93060000 		.4byte	.LASF150
 1574 08d6 0C       		.byte	0xc
 1575 08d7 0D       		.byte	0xd
 1576 08d8 34       		.byte	0x34
 1577 08d9 F6080000 		.4byte	0x8f6
 1578 08dd 07       		.uleb128 0x7
 1579 08de C7030000 		.4byte	.LASF151
 1580 08e2 0D       		.byte	0xd
 1581 08e3 35       		.byte	0x35
 1582 08e4 A5020000 		.4byte	0x2a5
 1583 08e8 00       		.byte	0
 1584 08e9 07       		.uleb128 0x7
 1585 08ea 33050000 		.4byte	.LASF152
 1586 08ee 0D       		.byte	0xd
 1587 08ef 37       		.byte	0x37
 1588 08f0 3E010000 		.4byte	0x13e
 1589 08f4 08       		.byte	0x8
 1590 08f5 00       		.byte	0
 1591 08f6 0A       		.uleb128 0xa
 1592 08f7 04       		.byte	0x4
 1593 08f8 D1080000 		.4byte	0x8d1
 1594 08fc 06       		.uleb128 0x6
 1595 08fd EF070000 		.4byte	.LASF153
 1596 0901 10       		.byte	0x10
ARM GAS  /tmp/ccYuBRwd.s 			page 29


 1597 0902 0E       		.byte	0xe
 1598 0903 39       		.byte	0x39
 1599 0904 2D090000 		.4byte	0x92d
 1600 0908 07       		.uleb128 0x7
 1601 0909 6E010000 		.4byte	.LASF154
 1602 090d 0E       		.byte	0xe
 1603 090e 3A       		.byte	0x3a
 1604 090f A5020000 		.4byte	0x2a5
 1605 0913 00       		.byte	0
 1606 0914 07       		.uleb128 0x7
 1607 0915 7E080000 		.4byte	.LASF155
 1608 0919 0E       		.byte	0xe
 1609 091a 3C       		.byte	0x3c
 1610 091b 7B020000 		.4byte	0x27b
 1611 091f 08       		.byte	0x8
 1612 0920 07       		.uleb128 0x7
 1613 0921 30070000 		.4byte	.LASF156
 1614 0925 0E       		.byte	0xe
 1615 0926 3E       		.byte	0x3e
 1616 0927 71090000 		.4byte	0x971
 1617 092b 0C       		.byte	0xc
 1618 092c 00       		.byte	0
 1619 092d 0A       		.uleb128 0xa
 1620 092e 04       		.byte	0x4
 1621 092f FC080000 		.4byte	0x8fc
 1622 0933 0A       		.uleb128 0xa
 1623 0934 04       		.byte	0x4
 1624 0935 40090000 		.4byte	0x940
 1625 0939 03       		.uleb128 0x3
 1626 093a 01       		.byte	0x1
 1627 093b 08       		.byte	0x8
 1628 093c FD060000 		.4byte	.LASF157
 1629 0940 1B       		.uleb128 0x1b
 1630 0941 39090000 		.4byte	0x939
 1631 0945 0A       		.uleb128 0xa
 1632 0946 04       		.byte	0x4
 1633 0947 84060000 		.4byte	0x684
 1634 094b 0A       		.uleb128 0xa
 1635 094c 04       		.byte	0x4
 1636 094d 5A030000 		.4byte	0x35a
 1637 0951 05       		.uleb128 0x5
 1638 0952 33090000 		.4byte	0x933
 1639 0956 12       		.uleb128 0x12
 1640 0957 84060000 		.4byte	0x684
 1641 095b 66090000 		.4byte	0x966
 1642 095f 13       		.uleb128 0x13
 1643 0960 C7040000 		.4byte	0x4c7
 1644 0964 1E       		.byte	0x1e
 1645 0965 00       		.byte	0
 1646 0966 04       		.uleb128 0x4
 1647 0967 34020000 		.4byte	.LASF158
 1648 096b 0E       		.byte	0xe
 1649 096c 34       		.byte	0x34
 1650 096d FC080000 		.4byte	0x8fc
 1651 0971 0A       		.uleb128 0xa
 1652 0972 04       		.byte	0x4
 1653 0973 66090000 		.4byte	0x966
ARM GAS  /tmp/ccYuBRwd.s 			page 30


 1654 0977 03       		.uleb128 0x3
 1655 0978 01       		.byte	0x1
 1656 0979 02       		.byte	0x2
 1657 097a 12050000 		.4byte	.LASF159
 1658 097e 17       		.uleb128 0x17
 1659 097f 04       		.byte	0x4
 1660 0980 0F       		.byte	0xf
 1661 0981 B3       		.byte	0xb3
 1662 0982 9F090000 		.4byte	0x99f
 1663 0986 16       		.uleb128 0x16
 1664 0987 73657400 		.ascii	"set\000"
 1665 098b 0F       		.byte	0xf
 1666 098c B4       		.byte	0xb4
 1667 098d B0000000 		.4byte	0xb0
 1668 0991 00       		.byte	0
 1669 0992 07       		.uleb128 0x7
 1670 0993 0C040000 		.4byte	.LASF160
 1671 0997 0F       		.byte	0xf
 1672 0998 B5       		.byte	0xb5
 1673 0999 B0000000 		.4byte	0xb0
 1674 099d 02       		.byte	0x2
 1675 099e 00       		.byte	0
 1676 099f 19       		.uleb128 0x19
 1677 09a0 04       		.byte	0x4
 1678 09a1 0F       		.byte	0xf
 1679 09a2 B1       		.byte	0xb1
 1680 09a3 BA090000 		.4byte	0x9ba
 1681 09a7 1C       		.uleb128 0x1c
 1682 09a8 5700     		.ascii	"W\000"
 1683 09aa 0F       		.byte	0xf
 1684 09ab B2       		.byte	0xb2
 1685 09ac C6000000 		.4byte	0xc6
 1686 09b0 1C       		.uleb128 0x1c
 1687 09b1 4800     		.ascii	"H\000"
 1688 09b3 0F       		.byte	0xf
 1689 09b4 B6       		.byte	0xb6
 1690 09b5 7E090000 		.4byte	0x97e
 1691 09b9 00       		.byte	0
 1692 09ba 17       		.uleb128 0x17
 1693 09bb 2C       		.byte	0x2c
 1694 09bc 0F       		.byte	0xf
 1695 09bd A9       		.byte	0xa9
 1696 09be 470A0000 		.4byte	0xa47
 1697 09c2 07       		.uleb128 0x7
 1698 09c3 AF000000 		.4byte	.LASF161
 1699 09c7 0F       		.byte	0xf
 1700 09c8 AB       		.byte	0xab
 1701 09c9 E1000000 		.4byte	0xe1
 1702 09cd 00       		.byte	0
 1703 09ce 07       		.uleb128 0x7
 1704 09cf 4F000000 		.4byte	.LASF162
 1705 09d3 0F       		.byte	0xf
 1706 09d4 AC       		.byte	0xac
 1707 09d5 E1000000 		.4byte	0xe1
 1708 09d9 04       		.byte	0x4
 1709 09da 07       		.uleb128 0x7
 1710 09db E5010000 		.4byte	.LASF163
ARM GAS  /tmp/ccYuBRwd.s 			page 31


 1711 09df 0F       		.byte	0xf
 1712 09e0 AD       		.byte	0xad
 1713 09e1 E1000000 		.4byte	0xe1
 1714 09e5 08       		.byte	0x8
 1715 09e6 07       		.uleb128 0x7
 1716 09e7 E7000000 		.4byte	.LASF164
 1717 09eb 0F       		.byte	0xf
 1718 09ec AE       		.byte	0xae
 1719 09ed E1000000 		.4byte	0xe1
 1720 09f1 0C       		.byte	0xc
 1721 09f2 16       		.uleb128 0x16
 1722 09f3 49445200 		.ascii	"IDR\000"
 1723 09f7 0F       		.byte	0xf
 1724 09f8 AF       		.byte	0xaf
 1725 09f9 E1000000 		.4byte	0xe1
 1726 09fd 10       		.byte	0x10
 1727 09fe 16       		.uleb128 0x16
 1728 09ff 4F445200 		.ascii	"ODR\000"
 1729 0a03 0F       		.byte	0xf
 1730 0a04 B0       		.byte	0xb0
 1731 0a05 E1000000 		.4byte	0xe1
 1732 0a09 14       		.byte	0x14
 1733 0a0a 07       		.uleb128 0x7
 1734 0a0b 58010000 		.4byte	.LASF165
 1735 0a0f 0F       		.byte	0xf
 1736 0a10 B7       		.byte	0xb7
 1737 0a11 470A0000 		.4byte	0xa47
 1738 0a15 18       		.byte	0x18
 1739 0a16 07       		.uleb128 0x7
 1740 0a17 DF020000 		.4byte	.LASF166
 1741 0a1b 0F       		.byte	0xf
 1742 0a1c B8       		.byte	0xb8
 1743 0a1d E1000000 		.4byte	0xe1
 1744 0a21 1C       		.byte	0x1c
 1745 0a22 07       		.uleb128 0x7
 1746 0a23 A4040000 		.4byte	.LASF167
 1747 0a27 0F       		.byte	0xf
 1748 0a28 B9       		.byte	0xb9
 1749 0a29 E1000000 		.4byte	0xe1
 1750 0a2d 20       		.byte	0x20
 1751 0a2e 07       		.uleb128 0x7
 1752 0a2f 94040000 		.4byte	.LASF168
 1753 0a33 0F       		.byte	0xf
 1754 0a34 BA       		.byte	0xba
 1755 0a35 E1000000 		.4byte	0xe1
 1756 0a39 24       		.byte	0x24
 1757 0a3a 16       		.uleb128 0x16
 1758 0a3b 42525200 		.ascii	"BRR\000"
 1759 0a3f 0F       		.byte	0xf
 1760 0a40 BB       		.byte	0xbb
 1761 0a41 E1000000 		.4byte	0xe1
 1762 0a45 28       		.byte	0x28
 1763 0a46 00       		.byte	0
 1764 0a47 05       		.uleb128 0x5
 1765 0a48 9F090000 		.4byte	0x99f
 1766 0a4c 04       		.uleb128 0x4
 1767 0a4d 22020000 		.4byte	.LASF169
ARM GAS  /tmp/ccYuBRwd.s 			page 32


 1768 0a51 0F       		.byte	0xf
 1769 0a52 BC       		.byte	0xbc
 1770 0a53 BA090000 		.4byte	0x9ba
 1771 0a57 17       		.uleb128 0x17
 1772 0a58 1C       		.byte	0x1c
 1773 0a59 0F       		.byte	0xf
 1774 0a5a C1       		.byte	0xc1
 1775 0a5b B40A0000 		.4byte	0xab4
 1776 0a5f 07       		.uleb128 0x7
 1777 0a60 76010000 		.4byte	.LASF170
 1778 0a64 0F       		.byte	0xf
 1779 0a65 C3       		.byte	0xc3
 1780 0a66 C6000000 		.4byte	0xc6
 1781 0a6a 00       		.byte	0
 1782 0a6b 07       		.uleb128 0x7
 1783 0a6c EA020000 		.4byte	.LASF171
 1784 0a70 0F       		.byte	0xf
 1785 0a71 C5       		.byte	0xc5
 1786 0a72 C6000000 		.4byte	0xc6
 1787 0a76 04       		.byte	0x4
 1788 0a77 07       		.uleb128 0x7
 1789 0a78 D7020000 		.4byte	.LASF172
 1790 0a7c 0F       		.byte	0xf
 1791 0a7d C7       		.byte	0xc7
 1792 0a7e C6000000 		.4byte	0xc6
 1793 0a82 08       		.byte	0x8
 1794 0a83 07       		.uleb128 0x7
 1795 0a84 28080000 		.4byte	.LASF173
 1796 0a88 0F       		.byte	0xf
 1797 0a89 C9       		.byte	0xc9
 1798 0a8a C6000000 		.4byte	0xc6
 1799 0a8e 0C       		.byte	0xc
 1800 0a8f 16       		.uleb128 0x16
 1801 0a90 6F647200 		.ascii	"odr\000"
 1802 0a94 0F       		.byte	0xf
 1803 0a95 CB       		.byte	0xcb
 1804 0a96 C6000000 		.4byte	0xc6
 1805 0a9a 10       		.byte	0x10
 1806 0a9b 07       		.uleb128 0x7
 1807 0a9c 2E050000 		.4byte	.LASF174
 1808 0aa0 0F       		.byte	0xf
 1809 0aa1 CD       		.byte	0xcd
 1810 0aa2 C6000000 		.4byte	0xc6
 1811 0aa6 14       		.byte	0x14
 1812 0aa7 07       		.uleb128 0x7
 1813 0aa8 6A040000 		.4byte	.LASF175
 1814 0aac 0F       		.byte	0xf
 1815 0aad CF       		.byte	0xcf
 1816 0aae C6000000 		.4byte	0xc6
 1817 0ab2 18       		.byte	0x18
 1818 0ab3 00       		.byte	0
 1819 0ab4 04       		.uleb128 0x4
 1820 0ab5 00000000 		.4byte	.LASF176
 1821 0ab9 0F       		.byte	0xf
 1822 0aba D0       		.byte	0xd0
 1823 0abb 570A0000 		.4byte	0xa57
 1824 0abf 17       		.uleb128 0x17
ARM GAS  /tmp/ccYuBRwd.s 			page 33


 1825 0ac0 FC       		.byte	0xfc
 1826 0ac1 0F       		.byte	0xf
 1827 0ac2 D9       		.byte	0xd9
 1828 0ac3 340B0000 		.4byte	0xb34
 1829 0ac7 07       		.uleb128 0x7
 1830 0ac8 40060000 		.4byte	.LASF177
 1831 0acc 0F       		.byte	0xf
 1832 0acd DC       		.byte	0xdc
 1833 0ace B40A0000 		.4byte	0xab4
 1834 0ad2 00       		.byte	0
 1835 0ad3 07       		.uleb128 0x7
 1836 0ad4 3C020000 		.4byte	.LASF178
 1837 0ad8 0F       		.byte	0xf
 1838 0ad9 E0       		.byte	0xe0
 1839 0ada B40A0000 		.4byte	0xab4
 1840 0ade 1C       		.byte	0x1c
 1841 0adf 07       		.uleb128 0x7
 1842 0ae0 44080000 		.4byte	.LASF179
 1843 0ae4 0F       		.byte	0xf
 1844 0ae5 E4       		.byte	0xe4
 1845 0ae6 B40A0000 		.4byte	0xab4
 1846 0aea 38       		.byte	0x38
 1847 0aeb 07       		.uleb128 0x7
 1848 0aec 6F040000 		.4byte	.LASF180
 1849 0af0 0F       		.byte	0xf
 1850 0af1 E8       		.byte	0xe8
 1851 0af2 B40A0000 		.4byte	0xab4
 1852 0af6 54       		.byte	0x54
 1853 0af7 07       		.uleb128 0x7
 1854 0af8 9B010000 		.4byte	.LASF181
 1855 0afc 0F       		.byte	0xf
 1856 0afd EC       		.byte	0xec
 1857 0afe B40A0000 		.4byte	0xab4
 1858 0b02 70       		.byte	0x70
 1859 0b03 07       		.uleb128 0x7
 1860 0b04 63080000 		.4byte	.LASF182
 1861 0b08 0F       		.byte	0xf
 1862 0b09 F0       		.byte	0xf0
 1863 0b0a B40A0000 		.4byte	0xab4
 1864 0b0e 8C       		.byte	0x8c
 1865 0b0f 07       		.uleb128 0x7
 1866 0b10 96030000 		.4byte	.LASF183
 1867 0b14 0F       		.byte	0xf
 1868 0b15 F4       		.byte	0xf4
 1869 0b16 B40A0000 		.4byte	0xab4
 1870 0b1a A8       		.byte	0xa8
 1871 0b1b 07       		.uleb128 0x7
 1872 0b1c 95000000 		.4byte	.LASF184
 1873 0b20 0F       		.byte	0xf
 1874 0b21 F8       		.byte	0xf8
 1875 0b22 B40A0000 		.4byte	0xab4
 1876 0b26 C4       		.byte	0xc4
 1877 0b27 07       		.uleb128 0x7
 1878 0b28 7B060000 		.4byte	.LASF185
 1879 0b2c 0F       		.byte	0xf
 1880 0b2d FC       		.byte	0xfc
 1881 0b2e B40A0000 		.4byte	0xab4
ARM GAS  /tmp/ccYuBRwd.s 			page 34


 1882 0b32 E0       		.byte	0xe0
 1883 0b33 00       		.byte	0
 1884 0b34 04       		.uleb128 0x4
 1885 0b35 CF070000 		.4byte	.LASF186
 1886 0b39 0F       		.byte	0xf
 1887 0b3a FE       		.byte	0xfe
 1888 0b3b BF0A0000 		.4byte	0xabf
 1889 0b3f 15       		.uleb128 0x15
 1890 0b40 82000000 		.4byte	.LASF187
 1891 0b44 0F       		.byte	0xf
 1892 0b45 0E01     		.2byte	0x10e
 1893 0b47 C6000000 		.4byte	0xc6
 1894 0b4b 15       		.uleb128 0x15
 1895 0b4c 6A080000 		.4byte	.LASF188
 1896 0b50 0F       		.byte	0xf
 1897 0b51 1301     		.2byte	0x113
 1898 0b53 C6000000 		.4byte	0xc6
 1899 0b57 15       		.uleb128 0x15
 1900 0b58 87070000 		.4byte	.LASF189
 1901 0b5c 0F       		.byte	0xf
 1902 0b5d 1B01     		.2byte	0x11b
 1903 0b5f 630B0000 		.4byte	0xb63
 1904 0b63 0A       		.uleb128 0xa
 1905 0b64 04       		.byte	0x4
 1906 0b65 4C0A0000 		.4byte	0xa4c
 1907 0b69 1D       		.uleb128 0x1d
 1908 0b6a 65070000 		.4byte	.LASF202
 1909 0b6e 01       		.byte	0x1
 1910 0b6f 41       		.byte	0x41
 1911 0b70 01       		.byte	0x1
 1912 0b71 8C0B0000 		.4byte	0xb8c
 1913 0b75 1E       		.uleb128 0x1e
 1914 0b76 6D060000 		.4byte	.LASF190
 1915 0b7a 01       		.byte	0x1
 1916 0b7b 41       		.byte	0x41
 1917 0b7c 630B0000 		.4byte	0xb63
 1918 0b80 1E       		.uleb128 0x1e
 1919 0b81 07070000 		.4byte	.LASF191
 1920 0b85 01       		.byte	0x1
 1921 0b86 41       		.byte	0x41
 1922 0b87 8C0B0000 		.4byte	0xb8c
 1923 0b8b 00       		.byte	0
 1924 0b8c 0A       		.uleb128 0xa
 1925 0b8d 04       		.byte	0x4
 1926 0b8e 920B0000 		.4byte	0xb92
 1927 0b92 1B       		.uleb128 0x1b
 1928 0b93 B40A0000 		.4byte	0xab4
 1929 0b97 1F       		.uleb128 0x1f
 1930 0b98 07080000 		.4byte	.LASF192
 1931 0b9c 01       		.byte	0x1
 1932 0b9d 5C       		.byte	0x5c
 1933 0b9e 00000000 		.4byte	.LFB259
 1934 0ba2 AC010000 		.4byte	.LFE259-.LFB259
 1935 0ba6 01       		.uleb128 0x1
 1936 0ba7 9C       		.byte	0x9c
 1937 0ba8 0C0D0000 		.4byte	0xd0c
 1938 0bac 20       		.uleb128 0x20
ARM GAS  /tmp/ccYuBRwd.s 			page 35


 1939 0bad 07070000 		.4byte	.LASF191
 1940 0bb1 01       		.byte	0x1
 1941 0bb2 5C       		.byte	0x5c
 1942 0bb3 0C0D0000 		.4byte	0xd0c
 1943 0bb7 01       		.uleb128 0x1
 1944 0bb8 50       		.byte	0x50
 1945 0bb9 21       		.uleb128 0x21
 1946 0bba 690B0000 		.4byte	0xb69
 1947 0bbe 04000000 		.4byte	.LBB20
 1948 0bc2 00000000 		.4byte	.Ldebug_ranges0+0
 1949 0bc6 01       		.byte	0x1
 1950 0bc7 71       		.byte	0x71
 1951 0bc8 DF0B0000 		.4byte	0xbdf
 1952 0bcc 22       		.uleb128 0x22
 1953 0bcd 800B0000 		.4byte	0xb80
 1954 0bd1 00000000 		.4byte	.LLST0
 1955 0bd5 22       		.uleb128 0x22
 1956 0bd6 750B0000 		.4byte	0xb75
 1957 0bda 13000000 		.4byte	.LLST1
 1958 0bde 00       		.byte	0
 1959 0bdf 21       		.uleb128 0x21
 1960 0be0 690B0000 		.4byte	0xb69
 1961 0be4 08000000 		.4byte	.LBB23
 1962 0be8 18000000 		.4byte	.Ldebug_ranges0+0x18
 1963 0bec 01       		.byte	0x1
 1964 0bed 74       		.byte	0x74
 1965 0bee 050C0000 		.4byte	0xc05
 1966 0bf2 22       		.uleb128 0x22
 1967 0bf3 800B0000 		.4byte	0xb80
 1968 0bf7 2B000000 		.4byte	.LLST2
 1969 0bfb 22       		.uleb128 0x22
 1970 0bfc 750B0000 		.4byte	0xb75
 1971 0c00 40000000 		.4byte	.LLST3
 1972 0c04 00       		.byte	0
 1973 0c05 21       		.uleb128 0x21
 1974 0c06 690B0000 		.4byte	0xb69
 1975 0c0a 0A000000 		.4byte	.LBB26
 1976 0c0e 30000000 		.4byte	.Ldebug_ranges0+0x30
 1977 0c12 01       		.byte	0x1
 1978 0c13 77       		.byte	0x77
 1979 0c14 2B0C0000 		.4byte	0xc2b
 1980 0c18 22       		.uleb128 0x22
 1981 0c19 800B0000 		.4byte	0xb80
 1982 0c1d 58000000 		.4byte	.LLST4
 1983 0c21 22       		.uleb128 0x22
 1984 0c22 750B0000 		.4byte	0xb75
 1985 0c26 6D000000 		.4byte	.LLST5
 1986 0c2a 00       		.byte	0
 1987 0c2b 21       		.uleb128 0x21
 1988 0c2c 690B0000 		.4byte	0xb69
 1989 0c30 0C000000 		.4byte	.LBB29
 1990 0c34 48000000 		.4byte	.Ldebug_ranges0+0x48
 1991 0c38 01       		.byte	0x1
 1992 0c39 7A       		.byte	0x7a
 1993 0c3a 510C0000 		.4byte	0xc51
 1994 0c3e 22       		.uleb128 0x22
 1995 0c3f 800B0000 		.4byte	0xb80
ARM GAS  /tmp/ccYuBRwd.s 			page 36


 1996 0c43 85000000 		.4byte	.LLST6
 1997 0c47 22       		.uleb128 0x22
 1998 0c48 750B0000 		.4byte	0xb75
 1999 0c4c 9B000000 		.4byte	.LLST7
 2000 0c50 00       		.byte	0
 2001 0c51 23       		.uleb128 0x23
 2002 0c52 690B0000 		.4byte	0xb69
 2003 0c56 8C000000 		.4byte	.LBB36
 2004 0c5a 30000000 		.4byte	.LBE36-.LBB36
 2005 0c5e 01       		.byte	0x1
 2006 0c5f 7D       		.byte	0x7d
 2007 0c60 770C0000 		.4byte	0xc77
 2008 0c64 22       		.uleb128 0x22
 2009 0c65 800B0000 		.4byte	0xb80
 2010 0c69 B3000000 		.4byte	.LLST8
 2011 0c6d 22       		.uleb128 0x22
 2012 0c6e 750B0000 		.4byte	0xb75
 2013 0c72 C9000000 		.4byte	.LLST9
 2014 0c76 00       		.byte	0
 2015 0c77 23       		.uleb128 0x23
 2016 0c78 690B0000 		.4byte	0xb69
 2017 0c7c BC000000 		.4byte	.LBB38
 2018 0c80 38000000 		.4byte	.LBE38-.LBB38
 2019 0c84 01       		.byte	0x1
 2020 0c85 80       		.byte	0x80
 2021 0c86 9D0C0000 		.4byte	0xc9d
 2022 0c8a 22       		.uleb128 0x22
 2023 0c8b 800B0000 		.4byte	0xb80
 2024 0c8f E1000000 		.4byte	.LLST10
 2025 0c93 22       		.uleb128 0x22
 2026 0c94 750B0000 		.4byte	0xb75
 2027 0c98 F7000000 		.4byte	.LLST11
 2028 0c9c 00       		.byte	0
 2029 0c9d 23       		.uleb128 0x23
 2030 0c9e 690B0000 		.4byte	0xb69
 2031 0ca2 F4000000 		.4byte	.LBB40
 2032 0ca6 2E000000 		.4byte	.LBE40-.LBB40
 2033 0caa 01       		.byte	0x1
 2034 0cab 83       		.byte	0x83
 2035 0cac C30C0000 		.4byte	0xcc3
 2036 0cb0 22       		.uleb128 0x22
 2037 0cb1 800B0000 		.4byte	0xb80
 2038 0cb5 0F010000 		.4byte	.LLST12
 2039 0cb9 22       		.uleb128 0x22
 2040 0cba 750B0000 		.4byte	0xb75
 2041 0cbe 25010000 		.4byte	.LLST13
 2042 0cc2 00       		.byte	0
 2043 0cc3 23       		.uleb128 0x23
 2044 0cc4 690B0000 		.4byte	0xb69
 2045 0cc8 22010000 		.4byte	.LBB42
 2046 0ccc 38000000 		.4byte	.LBE42-.LBB42
 2047 0cd0 01       		.byte	0x1
 2048 0cd1 86       		.byte	0x86
 2049 0cd2 E90C0000 		.4byte	0xce9
 2050 0cd6 22       		.uleb128 0x22
 2051 0cd7 800B0000 		.4byte	0xb80
 2052 0cdb 3D010000 		.4byte	.LLST14
ARM GAS  /tmp/ccYuBRwd.s 			page 37


 2053 0cdf 22       		.uleb128 0x22
 2054 0ce0 750B0000 		.4byte	0xb75
 2055 0ce4 53010000 		.4byte	.LLST15
 2056 0ce8 00       		.byte	0
 2057 0ce9 24       		.uleb128 0x24
 2058 0cea 690B0000 		.4byte	0xb69
 2059 0cee 5A010000 		.4byte	.LBB44
 2060 0cf2 38000000 		.4byte	.LBE44-.LBB44
 2061 0cf6 01       		.byte	0x1
 2062 0cf7 89       		.byte	0x89
 2063 0cf8 22       		.uleb128 0x22
 2064 0cf9 800B0000 		.4byte	0xb80
 2065 0cfd 6B010000 		.4byte	.LLST16
 2066 0d01 22       		.uleb128 0x22
 2067 0d02 750B0000 		.4byte	0xb75
 2068 0d06 81010000 		.4byte	.LLST17
 2069 0d0a 00       		.byte	0
 2070 0d0b 00       		.byte	0
 2071 0d0c 0A       		.uleb128 0xa
 2072 0d0d 04       		.byte	0x4
 2073 0d0e 120D0000 		.4byte	0xd12
 2074 0d12 1B       		.uleb128 0x1b
 2075 0d13 340B0000 		.4byte	0xb34
 2076 0d17 1F       		.uleb128 0x1f
 2077 0d18 AA070000 		.4byte	.LASF193
 2078 0d1c 01       		.byte	0x1
 2079 0d1d 9B       		.byte	0x9b
 2080 0d1e 00000000 		.4byte	.LFB260
 2081 0d22 B6000000 		.4byte	.LFE260-.LFB260
 2082 0d26 01       		.uleb128 0x1
 2083 0d27 9C       		.byte	0x9c
 2084 0d28 E70D0000 		.4byte	0xde7
 2085 0d2c 20       		.uleb128 0x20
 2086 0d2d 2F020000 		.4byte	.LASF194
 2087 0d31 01       		.byte	0x1
 2088 0d32 9B       		.byte	0x9b
 2089 0d33 570B0000 		.4byte	0xb57
 2090 0d37 01       		.uleb128 0x1
 2091 0d38 50       		.byte	0x50
 2092 0d39 25       		.uleb128 0x25
 2093 0d3a F5010000 		.4byte	.LASF195
 2094 0d3e 01       		.byte	0x1
 2095 0d3f 9C       		.byte	0x9c
 2096 0d40 3F0B0000 		.4byte	0xb3f
 2097 0d44 99010000 		.4byte	.LLST18
 2098 0d48 25       		.uleb128 0x25
 2099 0d49 02070000 		.4byte	.LASF196
 2100 0d4d 01       		.byte	0x1
 2101 0d4e 9D       		.byte	0x9d
 2102 0d4f 4B0B0000 		.4byte	0xb4b
 2103 0d53 C6010000 		.4byte	.LLST19
 2104 0d57 26       		.uleb128 0x26
 2105 0d58 76010000 		.4byte	.LASF170
 2106 0d5c 01       		.byte	0x1
 2107 0d5d 9F       		.byte	0x9f
 2108 0d5e C6000000 		.4byte	0xc6
 2109 0d62 01       		.uleb128 0x1
ARM GAS  /tmp/ccYuBRwd.s 			page 38


 2110 0d63 5E       		.byte	0x5e
 2111 0d64 26       		.uleb128 0x26
 2112 0d65 EA020000 		.4byte	.LASF171
 2113 0d69 01       		.byte	0x1
 2114 0d6a A0       		.byte	0xa0
 2115 0d6b C6000000 		.4byte	0xc6
 2116 0d6f 01       		.uleb128 0x1
 2117 0d70 57       		.byte	0x57
 2118 0d71 26       		.uleb128 0x26
 2119 0d72 D7020000 		.4byte	.LASF172
 2120 0d76 01       		.byte	0x1
 2121 0d77 A1       		.byte	0xa1
 2122 0d78 C6000000 		.4byte	0xc6
 2123 0d7c 01       		.uleb128 0x1
 2124 0d7d 56       		.byte	0x56
 2125 0d7e 26       		.uleb128 0x26
 2126 0d7f 28080000 		.4byte	.LASF173
 2127 0d83 01       		.byte	0x1
 2128 0d84 A2       		.byte	0xa2
 2129 0d85 C6000000 		.4byte	0xc6
 2130 0d89 01       		.uleb128 0x1
 2131 0d8a 55       		.byte	0x55
 2132 0d8b 26       		.uleb128 0x26
 2133 0d8c F8060000 		.4byte	.LASF197
 2134 0d90 01       		.byte	0x1
 2135 0d91 A3       		.byte	0xa3
 2136 0d92 C6000000 		.4byte	0xc6
 2137 0d96 01       		.uleb128 0x1
 2138 0d97 52       		.byte	0x52
 2139 0d98 27       		.uleb128 0x27
 2140 0d99 62697400 		.ascii	"bit\000"
 2141 0d9d 01       		.byte	0x1
 2142 0d9e A4       		.byte	0xa4
 2143 0d9f C6000000 		.4byte	0xc6
 2144 0da3 E7010000 		.4byte	.LLST20
 2145 0da7 28       		.uleb128 0x28
 2146 0da8 60000000 		.4byte	.Ldebug_ranges0+0x60
 2147 0dac 29       		.uleb128 0x29
 2148 0dad C4010000 		.4byte	.LASF198
 2149 0db1 01       		.byte	0x1
 2150 0db2 A7       		.byte	0xa7
 2151 0db3 C6000000 		.4byte	0xc6
 2152 0db7 06020000 		.4byte	.LLST21
 2153 0dbb 27       		.uleb128 0x27
 2154 0dbc 6D3100   		.ascii	"m1\000"
 2155 0dbf 01       		.byte	0x1
 2156 0dc0 A7       		.byte	0xa7
 2157 0dc1 C6000000 		.4byte	0xc6
 2158 0dc5 4C020000 		.4byte	.LLST22
 2159 0dc9 27       		.uleb128 0x27
 2160 0dca 6D3200   		.ascii	"m2\000"
 2161 0dcd 01       		.byte	0x1
 2162 0dce A7       		.byte	0xa7
 2163 0dcf C6000000 		.4byte	0xc6
 2164 0dd3 63020000 		.4byte	.LLST23
 2165 0dd7 27       		.uleb128 0x27
 2166 0dd8 6D3400   		.ascii	"m4\000"
ARM GAS  /tmp/ccYuBRwd.s 			page 39


 2167 0ddb 01       		.byte	0x1
 2168 0ddc A7       		.byte	0xa7
 2169 0ddd C6000000 		.4byte	0xc6
 2170 0de1 7C020000 		.4byte	.LLST24
 2171 0de5 00       		.byte	0
 2172 0de6 00       		.byte	0
 2173 0de7 2A       		.uleb128 0x2a
 2174 0de8 17010000 		.4byte	.LASF199
 2175 0dec 10       		.byte	0x10
 2176 0ded A706     		.2byte	0x6a7
 2177 0def DC000000 		.4byte	0xdc
 2178 0df3 2B       		.uleb128 0x2b
 2179 0df4 636800   		.ascii	"ch\000"
 2180 0df7 06       		.byte	0x6
 2181 0df8 0902     		.2byte	0x209
 2182 0dfa 4F040000 		.4byte	0x44f
 2183 0dfe 00       		.byte	0
 2184              		.section	.debug_abbrev,"",%progbits
 2185              	.Ldebug_abbrev0:
 2186 0000 01       		.uleb128 0x1
 2187 0001 11       		.uleb128 0x11
 2188 0002 01       		.byte	0x1
 2189 0003 25       		.uleb128 0x25
 2190 0004 0E       		.uleb128 0xe
 2191 0005 13       		.uleb128 0x13
 2192 0006 0B       		.uleb128 0xb
 2193 0007 03       		.uleb128 0x3
 2194 0008 0E       		.uleb128 0xe
 2195 0009 55       		.uleb128 0x55
 2196 000a 17       		.uleb128 0x17
 2197 000b 11       		.uleb128 0x11
 2198 000c 01       		.uleb128 0x1
 2199 000d 10       		.uleb128 0x10
 2200 000e 17       		.uleb128 0x17
 2201 000f 00       		.byte	0
 2202 0010 00       		.byte	0
 2203 0011 02       		.uleb128 0x2
 2204 0012 24       		.uleb128 0x24
 2205 0013 00       		.byte	0
 2206 0014 0B       		.uleb128 0xb
 2207 0015 0B       		.uleb128 0xb
 2208 0016 3E       		.uleb128 0x3e
 2209 0017 0B       		.uleb128 0xb
 2210 0018 03       		.uleb128 0x3
 2211 0019 08       		.uleb128 0x8
 2212 001a 00       		.byte	0
 2213 001b 00       		.byte	0
 2214 001c 03       		.uleb128 0x3
 2215 001d 24       		.uleb128 0x24
 2216 001e 00       		.byte	0
 2217 001f 0B       		.uleb128 0xb
 2218 0020 0B       		.uleb128 0xb
 2219 0021 3E       		.uleb128 0x3e
 2220 0022 0B       		.uleb128 0xb
 2221 0023 03       		.uleb128 0x3
 2222 0024 0E       		.uleb128 0xe
 2223 0025 00       		.byte	0
ARM GAS  /tmp/ccYuBRwd.s 			page 40


 2224 0026 00       		.byte	0
 2225 0027 04       		.uleb128 0x4
 2226 0028 16       		.uleb128 0x16
 2227 0029 00       		.byte	0
 2228 002a 03       		.uleb128 0x3
 2229 002b 0E       		.uleb128 0xe
 2230 002c 3A       		.uleb128 0x3a
 2231 002d 0B       		.uleb128 0xb
 2232 002e 3B       		.uleb128 0x3b
 2233 002f 0B       		.uleb128 0xb
 2234 0030 49       		.uleb128 0x49
 2235 0031 13       		.uleb128 0x13
 2236 0032 00       		.byte	0
 2237 0033 00       		.byte	0
 2238 0034 05       		.uleb128 0x5
 2239 0035 35       		.uleb128 0x35
 2240 0036 00       		.byte	0
 2241 0037 49       		.uleb128 0x49
 2242 0038 13       		.uleb128 0x13
 2243 0039 00       		.byte	0
 2244 003a 00       		.byte	0
 2245 003b 06       		.uleb128 0x6
 2246 003c 13       		.uleb128 0x13
 2247 003d 01       		.byte	0x1
 2248 003e 03       		.uleb128 0x3
 2249 003f 0E       		.uleb128 0xe
 2250 0040 0B       		.uleb128 0xb
 2251 0041 0B       		.uleb128 0xb
 2252 0042 3A       		.uleb128 0x3a
 2253 0043 0B       		.uleb128 0xb
 2254 0044 3B       		.uleb128 0x3b
 2255 0045 0B       		.uleb128 0xb
 2256 0046 01       		.uleb128 0x1
 2257 0047 13       		.uleb128 0x13
 2258 0048 00       		.byte	0
 2259 0049 00       		.byte	0
 2260 004a 07       		.uleb128 0x7
 2261 004b 0D       		.uleb128 0xd
 2262 004c 00       		.byte	0
 2263 004d 03       		.uleb128 0x3
 2264 004e 0E       		.uleb128 0xe
 2265 004f 3A       		.uleb128 0x3a
 2266 0050 0B       		.uleb128 0xb
 2267 0051 3B       		.uleb128 0x3b
 2268 0052 0B       		.uleb128 0xb
 2269 0053 49       		.uleb128 0x49
 2270 0054 13       		.uleb128 0x13
 2271 0055 38       		.uleb128 0x38
 2272 0056 0B       		.uleb128 0xb
 2273 0057 00       		.byte	0
 2274 0058 00       		.byte	0
 2275 0059 08       		.uleb128 0x8
 2276 005a 0D       		.uleb128 0xd
 2277 005b 00       		.byte	0
 2278 005c 03       		.uleb128 0x3
 2279 005d 08       		.uleb128 0x8
 2280 005e 3A       		.uleb128 0x3a
ARM GAS  /tmp/ccYuBRwd.s 			page 41


 2281 005f 0B       		.uleb128 0xb
 2282 0060 3B       		.uleb128 0x3b
 2283 0061 05       		.uleb128 0x5
 2284 0062 49       		.uleb128 0x49
 2285 0063 13       		.uleb128 0x13
 2286 0064 38       		.uleb128 0x38
 2287 0065 0B       		.uleb128 0xb
 2288 0066 00       		.byte	0
 2289 0067 00       		.byte	0
 2290 0068 09       		.uleb128 0x9
 2291 0069 0D       		.uleb128 0xd
 2292 006a 00       		.byte	0
 2293 006b 03       		.uleb128 0x3
 2294 006c 0E       		.uleb128 0xe
 2295 006d 3A       		.uleb128 0x3a
 2296 006e 0B       		.uleb128 0xb
 2297 006f 3B       		.uleb128 0x3b
 2298 0070 05       		.uleb128 0x5
 2299 0071 49       		.uleb128 0x49
 2300 0072 13       		.uleb128 0x13
 2301 0073 38       		.uleb128 0x38
 2302 0074 0B       		.uleb128 0xb
 2303 0075 00       		.byte	0
 2304 0076 00       		.byte	0
 2305 0077 0A       		.uleb128 0xa
 2306 0078 0F       		.uleb128 0xf
 2307 0079 00       		.byte	0
 2308 007a 0B       		.uleb128 0xb
 2309 007b 0B       		.uleb128 0xb
 2310 007c 49       		.uleb128 0x49
 2311 007d 13       		.uleb128 0x13
 2312 007e 00       		.byte	0
 2313 007f 00       		.byte	0
 2314 0080 0B       		.uleb128 0xb
 2315 0081 13       		.uleb128 0x13
 2316 0082 01       		.byte	0x1
 2317 0083 03       		.uleb128 0x3
 2318 0084 0E       		.uleb128 0xe
 2319 0085 0B       		.uleb128 0xb
 2320 0086 0B       		.uleb128 0xb
 2321 0087 3A       		.uleb128 0x3a
 2322 0088 0B       		.uleb128 0xb
 2323 0089 3B       		.uleb128 0x3b
 2324 008a 05       		.uleb128 0x5
 2325 008b 01       		.uleb128 0x1
 2326 008c 13       		.uleb128 0x13
 2327 008d 00       		.byte	0
 2328 008e 00       		.byte	0
 2329 008f 0C       		.uleb128 0xc
 2330 0090 15       		.uleb128 0x15
 2331 0091 01       		.byte	0x1
 2332 0092 27       		.uleb128 0x27
 2333 0093 19       		.uleb128 0x19
 2334 0094 01       		.uleb128 0x1
 2335 0095 13       		.uleb128 0x13
 2336 0096 00       		.byte	0
 2337 0097 00       		.byte	0
ARM GAS  /tmp/ccYuBRwd.s 			page 42


 2338 0098 0D       		.uleb128 0xd
 2339 0099 05       		.uleb128 0x5
 2340 009a 00       		.byte	0
 2341 009b 49       		.uleb128 0x49
 2342 009c 13       		.uleb128 0x13
 2343 009d 00       		.byte	0
 2344 009e 00       		.byte	0
 2345 009f 0E       		.uleb128 0xe
 2346 00a0 0F       		.uleb128 0xf
 2347 00a1 00       		.byte	0
 2348 00a2 0B       		.uleb128 0xb
 2349 00a3 0B       		.uleb128 0xb
 2350 00a4 00       		.byte	0
 2351 00a5 00       		.byte	0
 2352 00a6 0F       		.uleb128 0xf
 2353 00a7 13       		.uleb128 0x13
 2354 00a8 01       		.byte	0x1
 2355 00a9 03       		.uleb128 0x3
 2356 00aa 0E       		.uleb128 0xe
 2357 00ab 0B       		.uleb128 0xb
 2358 00ac 05       		.uleb128 0x5
 2359 00ad 3A       		.uleb128 0x3a
 2360 00ae 0B       		.uleb128 0xb
 2361 00af 3B       		.uleb128 0x3b
 2362 00b0 05       		.uleb128 0x5
 2363 00b1 01       		.uleb128 0x1
 2364 00b2 13       		.uleb128 0x13
 2365 00b3 00       		.byte	0
 2366 00b4 00       		.byte	0
 2367 00b5 10       		.uleb128 0x10
 2368 00b6 0D       		.uleb128 0xd
 2369 00b7 00       		.byte	0
 2370 00b8 03       		.uleb128 0x3
 2371 00b9 0E       		.uleb128 0xe
 2372 00ba 3A       		.uleb128 0x3a
 2373 00bb 0B       		.uleb128 0xb
 2374 00bc 3B       		.uleb128 0x3b
 2375 00bd 05       		.uleb128 0x5
 2376 00be 49       		.uleb128 0x49
 2377 00bf 13       		.uleb128 0x13
 2378 00c0 38       		.uleb128 0x38
 2379 00c1 05       		.uleb128 0x5
 2380 00c2 00       		.byte	0
 2381 00c3 00       		.byte	0
 2382 00c4 11       		.uleb128 0x11
 2383 00c5 0D       		.uleb128 0xd
 2384 00c6 00       		.byte	0
 2385 00c7 03       		.uleb128 0x3
 2386 00c8 08       		.uleb128 0x8
 2387 00c9 3A       		.uleb128 0x3a
 2388 00ca 0B       		.uleb128 0xb
 2389 00cb 3B       		.uleb128 0x3b
 2390 00cc 05       		.uleb128 0x5
 2391 00cd 49       		.uleb128 0x49
 2392 00ce 13       		.uleb128 0x13
 2393 00cf 38       		.uleb128 0x38
 2394 00d0 05       		.uleb128 0x5
ARM GAS  /tmp/ccYuBRwd.s 			page 43


 2395 00d1 00       		.byte	0
 2396 00d2 00       		.byte	0
 2397 00d3 12       		.uleb128 0x12
 2398 00d4 01       		.uleb128 0x1
 2399 00d5 01       		.byte	0x1
 2400 00d6 49       		.uleb128 0x49
 2401 00d7 13       		.uleb128 0x13
 2402 00d8 01       		.uleb128 0x1
 2403 00d9 13       		.uleb128 0x13
 2404 00da 00       		.byte	0
 2405 00db 00       		.byte	0
 2406 00dc 13       		.uleb128 0x13
 2407 00dd 21       		.uleb128 0x21
 2408 00de 00       		.byte	0
 2409 00df 49       		.uleb128 0x49
 2410 00e0 13       		.uleb128 0x13
 2411 00e1 2F       		.uleb128 0x2f
 2412 00e2 0B       		.uleb128 0xb
 2413 00e3 00       		.byte	0
 2414 00e4 00       		.byte	0
 2415 00e5 14       		.uleb128 0x14
 2416 00e6 13       		.uleb128 0x13
 2417 00e7 01       		.byte	0x1
 2418 00e8 0B       		.uleb128 0xb
 2419 00e9 0B       		.uleb128 0xb
 2420 00ea 3A       		.uleb128 0x3a
 2421 00eb 0B       		.uleb128 0xb
 2422 00ec 3B       		.uleb128 0x3b
 2423 00ed 05       		.uleb128 0x5
 2424 00ee 01       		.uleb128 0x1
 2425 00ef 13       		.uleb128 0x13
 2426 00f0 00       		.byte	0
 2427 00f1 00       		.byte	0
 2428 00f2 15       		.uleb128 0x15
 2429 00f3 16       		.uleb128 0x16
 2430 00f4 00       		.byte	0
 2431 00f5 03       		.uleb128 0x3
 2432 00f6 0E       		.uleb128 0xe
 2433 00f7 3A       		.uleb128 0x3a
 2434 00f8 0B       		.uleb128 0xb
 2435 00f9 3B       		.uleb128 0x3b
 2436 00fa 05       		.uleb128 0x5
 2437 00fb 49       		.uleb128 0x49
 2438 00fc 13       		.uleb128 0x13
 2439 00fd 00       		.byte	0
 2440 00fe 00       		.byte	0
 2441 00ff 16       		.uleb128 0x16
 2442 0100 0D       		.uleb128 0xd
 2443 0101 00       		.byte	0
 2444 0102 03       		.uleb128 0x3
 2445 0103 08       		.uleb128 0x8
 2446 0104 3A       		.uleb128 0x3a
 2447 0105 0B       		.uleb128 0xb
 2448 0106 3B       		.uleb128 0x3b
 2449 0107 0B       		.uleb128 0xb
 2450 0108 49       		.uleb128 0x49
 2451 0109 13       		.uleb128 0x13
ARM GAS  /tmp/ccYuBRwd.s 			page 44


 2452 010a 38       		.uleb128 0x38
 2453 010b 0B       		.uleb128 0xb
 2454 010c 00       		.byte	0
 2455 010d 00       		.byte	0
 2456 010e 17       		.uleb128 0x17
 2457 010f 13       		.uleb128 0x13
 2458 0110 01       		.byte	0x1
 2459 0111 0B       		.uleb128 0xb
 2460 0112 0B       		.uleb128 0xb
 2461 0113 3A       		.uleb128 0x3a
 2462 0114 0B       		.uleb128 0xb
 2463 0115 3B       		.uleb128 0x3b
 2464 0116 0B       		.uleb128 0xb
 2465 0117 01       		.uleb128 0x1
 2466 0118 13       		.uleb128 0x13
 2467 0119 00       		.byte	0
 2468 011a 00       		.byte	0
 2469 011b 18       		.uleb128 0x18
 2470 011c 13       		.uleb128 0x13
 2471 011d 01       		.byte	0x1
 2472 011e 0B       		.uleb128 0xb
 2473 011f 05       		.uleb128 0x5
 2474 0120 3A       		.uleb128 0x3a
 2475 0121 0B       		.uleb128 0xb
 2476 0122 3B       		.uleb128 0x3b
 2477 0123 0B       		.uleb128 0xb
 2478 0124 01       		.uleb128 0x1
 2479 0125 13       		.uleb128 0x13
 2480 0126 00       		.byte	0
 2481 0127 00       		.byte	0
 2482 0128 19       		.uleb128 0x19
 2483 0129 17       		.uleb128 0x17
 2484 012a 01       		.byte	0x1
 2485 012b 0B       		.uleb128 0xb
 2486 012c 0B       		.uleb128 0xb
 2487 012d 3A       		.uleb128 0x3a
 2488 012e 0B       		.uleb128 0xb
 2489 012f 3B       		.uleb128 0x3b
 2490 0130 0B       		.uleb128 0xb
 2491 0131 01       		.uleb128 0x1
 2492 0132 13       		.uleb128 0x13
 2493 0133 00       		.byte	0
 2494 0134 00       		.byte	0
 2495 0135 1A       		.uleb128 0x1a
 2496 0136 0D       		.uleb128 0xd
 2497 0137 00       		.byte	0
 2498 0138 03       		.uleb128 0x3
 2499 0139 0E       		.uleb128 0xe
 2500 013a 3A       		.uleb128 0x3a
 2501 013b 0B       		.uleb128 0xb
 2502 013c 3B       		.uleb128 0x3b
 2503 013d 05       		.uleb128 0x5
 2504 013e 49       		.uleb128 0x49
 2505 013f 13       		.uleb128 0x13
 2506 0140 00       		.byte	0
 2507 0141 00       		.byte	0
 2508 0142 1B       		.uleb128 0x1b
ARM GAS  /tmp/ccYuBRwd.s 			page 45


 2509 0143 26       		.uleb128 0x26
 2510 0144 00       		.byte	0
 2511 0145 49       		.uleb128 0x49
 2512 0146 13       		.uleb128 0x13
 2513 0147 00       		.byte	0
 2514 0148 00       		.byte	0
 2515 0149 1C       		.uleb128 0x1c
 2516 014a 0D       		.uleb128 0xd
 2517 014b 00       		.byte	0
 2518 014c 03       		.uleb128 0x3
 2519 014d 08       		.uleb128 0x8
 2520 014e 3A       		.uleb128 0x3a
 2521 014f 0B       		.uleb128 0xb
 2522 0150 3B       		.uleb128 0x3b
 2523 0151 0B       		.uleb128 0xb
 2524 0152 49       		.uleb128 0x49
 2525 0153 13       		.uleb128 0x13
 2526 0154 00       		.byte	0
 2527 0155 00       		.byte	0
 2528 0156 1D       		.uleb128 0x1d
 2529 0157 2E       		.uleb128 0x2e
 2530 0158 01       		.byte	0x1
 2531 0159 03       		.uleb128 0x3
 2532 015a 0E       		.uleb128 0xe
 2533 015b 3A       		.uleb128 0x3a
 2534 015c 0B       		.uleb128 0xb
 2535 015d 3B       		.uleb128 0x3b
 2536 015e 0B       		.uleb128 0xb
 2537 015f 27       		.uleb128 0x27
 2538 0160 19       		.uleb128 0x19
 2539 0161 20       		.uleb128 0x20
 2540 0162 0B       		.uleb128 0xb
 2541 0163 01       		.uleb128 0x1
 2542 0164 13       		.uleb128 0x13
 2543 0165 00       		.byte	0
 2544 0166 00       		.byte	0
 2545 0167 1E       		.uleb128 0x1e
 2546 0168 05       		.uleb128 0x5
 2547 0169 00       		.byte	0
 2548 016a 03       		.uleb128 0x3
 2549 016b 0E       		.uleb128 0xe
 2550 016c 3A       		.uleb128 0x3a
 2551 016d 0B       		.uleb128 0xb
 2552 016e 3B       		.uleb128 0x3b
 2553 016f 0B       		.uleb128 0xb
 2554 0170 49       		.uleb128 0x49
 2555 0171 13       		.uleb128 0x13
 2556 0172 00       		.byte	0
 2557 0173 00       		.byte	0
 2558 0174 1F       		.uleb128 0x1f
 2559 0175 2E       		.uleb128 0x2e
 2560 0176 01       		.byte	0x1
 2561 0177 3F       		.uleb128 0x3f
 2562 0178 19       		.uleb128 0x19
 2563 0179 03       		.uleb128 0x3
 2564 017a 0E       		.uleb128 0xe
 2565 017b 3A       		.uleb128 0x3a
ARM GAS  /tmp/ccYuBRwd.s 			page 46


 2566 017c 0B       		.uleb128 0xb
 2567 017d 3B       		.uleb128 0x3b
 2568 017e 0B       		.uleb128 0xb
 2569 017f 27       		.uleb128 0x27
 2570 0180 19       		.uleb128 0x19
 2571 0181 11       		.uleb128 0x11
 2572 0182 01       		.uleb128 0x1
 2573 0183 12       		.uleb128 0x12
 2574 0184 06       		.uleb128 0x6
 2575 0185 40       		.uleb128 0x40
 2576 0186 18       		.uleb128 0x18
 2577 0187 9742     		.uleb128 0x2117
 2578 0189 19       		.uleb128 0x19
 2579 018a 01       		.uleb128 0x1
 2580 018b 13       		.uleb128 0x13
 2581 018c 00       		.byte	0
 2582 018d 00       		.byte	0
 2583 018e 20       		.uleb128 0x20
 2584 018f 05       		.uleb128 0x5
 2585 0190 00       		.byte	0
 2586 0191 03       		.uleb128 0x3
 2587 0192 0E       		.uleb128 0xe
 2588 0193 3A       		.uleb128 0x3a
 2589 0194 0B       		.uleb128 0xb
 2590 0195 3B       		.uleb128 0x3b
 2591 0196 0B       		.uleb128 0xb
 2592 0197 49       		.uleb128 0x49
 2593 0198 13       		.uleb128 0x13
 2594 0199 02       		.uleb128 0x2
 2595 019a 18       		.uleb128 0x18
 2596 019b 00       		.byte	0
 2597 019c 00       		.byte	0
 2598 019d 21       		.uleb128 0x21
 2599 019e 1D       		.uleb128 0x1d
 2600 019f 01       		.byte	0x1
 2601 01a0 31       		.uleb128 0x31
 2602 01a1 13       		.uleb128 0x13
 2603 01a2 52       		.uleb128 0x52
 2604 01a3 01       		.uleb128 0x1
 2605 01a4 55       		.uleb128 0x55
 2606 01a5 17       		.uleb128 0x17
 2607 01a6 58       		.uleb128 0x58
 2608 01a7 0B       		.uleb128 0xb
 2609 01a8 59       		.uleb128 0x59
 2610 01a9 0B       		.uleb128 0xb
 2611 01aa 01       		.uleb128 0x1
 2612 01ab 13       		.uleb128 0x13
 2613 01ac 00       		.byte	0
 2614 01ad 00       		.byte	0
 2615 01ae 22       		.uleb128 0x22
 2616 01af 05       		.uleb128 0x5
 2617 01b0 00       		.byte	0
 2618 01b1 31       		.uleb128 0x31
 2619 01b2 13       		.uleb128 0x13
 2620 01b3 02       		.uleb128 0x2
 2621 01b4 17       		.uleb128 0x17
 2622 01b5 00       		.byte	0
ARM GAS  /tmp/ccYuBRwd.s 			page 47


 2623 01b6 00       		.byte	0
 2624 01b7 23       		.uleb128 0x23
 2625 01b8 1D       		.uleb128 0x1d
 2626 01b9 01       		.byte	0x1
 2627 01ba 31       		.uleb128 0x31
 2628 01bb 13       		.uleb128 0x13
 2629 01bc 11       		.uleb128 0x11
 2630 01bd 01       		.uleb128 0x1
 2631 01be 12       		.uleb128 0x12
 2632 01bf 06       		.uleb128 0x6
 2633 01c0 58       		.uleb128 0x58
 2634 01c1 0B       		.uleb128 0xb
 2635 01c2 59       		.uleb128 0x59
 2636 01c3 0B       		.uleb128 0xb
 2637 01c4 01       		.uleb128 0x1
 2638 01c5 13       		.uleb128 0x13
 2639 01c6 00       		.byte	0
 2640 01c7 00       		.byte	0
 2641 01c8 24       		.uleb128 0x24
 2642 01c9 1D       		.uleb128 0x1d
 2643 01ca 01       		.byte	0x1
 2644 01cb 31       		.uleb128 0x31
 2645 01cc 13       		.uleb128 0x13
 2646 01cd 11       		.uleb128 0x11
 2647 01ce 01       		.uleb128 0x1
 2648 01cf 12       		.uleb128 0x12
 2649 01d0 06       		.uleb128 0x6
 2650 01d1 58       		.uleb128 0x58
 2651 01d2 0B       		.uleb128 0xb
 2652 01d3 59       		.uleb128 0x59
 2653 01d4 0B       		.uleb128 0xb
 2654 01d5 00       		.byte	0
 2655 01d6 00       		.byte	0
 2656 01d7 25       		.uleb128 0x25
 2657 01d8 05       		.uleb128 0x5
 2658 01d9 00       		.byte	0
 2659 01da 03       		.uleb128 0x3
 2660 01db 0E       		.uleb128 0xe
 2661 01dc 3A       		.uleb128 0x3a
 2662 01dd 0B       		.uleb128 0xb
 2663 01de 3B       		.uleb128 0x3b
 2664 01df 0B       		.uleb128 0xb
 2665 01e0 49       		.uleb128 0x49
 2666 01e1 13       		.uleb128 0x13
 2667 01e2 02       		.uleb128 0x2
 2668 01e3 17       		.uleb128 0x17
 2669 01e4 00       		.byte	0
 2670 01e5 00       		.byte	0
 2671 01e6 26       		.uleb128 0x26
 2672 01e7 34       		.uleb128 0x34
 2673 01e8 00       		.byte	0
 2674 01e9 03       		.uleb128 0x3
 2675 01ea 0E       		.uleb128 0xe
 2676 01eb 3A       		.uleb128 0x3a
 2677 01ec 0B       		.uleb128 0xb
 2678 01ed 3B       		.uleb128 0x3b
 2679 01ee 0B       		.uleb128 0xb
ARM GAS  /tmp/ccYuBRwd.s 			page 48


 2680 01ef 49       		.uleb128 0x49
 2681 01f0 13       		.uleb128 0x13
 2682 01f1 02       		.uleb128 0x2
 2683 01f2 18       		.uleb128 0x18
 2684 01f3 00       		.byte	0
 2685 01f4 00       		.byte	0
 2686 01f5 27       		.uleb128 0x27
 2687 01f6 34       		.uleb128 0x34
 2688 01f7 00       		.byte	0
 2689 01f8 03       		.uleb128 0x3
 2690 01f9 08       		.uleb128 0x8
 2691 01fa 3A       		.uleb128 0x3a
 2692 01fb 0B       		.uleb128 0xb
 2693 01fc 3B       		.uleb128 0x3b
 2694 01fd 0B       		.uleb128 0xb
 2695 01fe 49       		.uleb128 0x49
 2696 01ff 13       		.uleb128 0x13
 2697 0200 02       		.uleb128 0x2
 2698 0201 17       		.uleb128 0x17
 2699 0202 00       		.byte	0
 2700 0203 00       		.byte	0
 2701 0204 28       		.uleb128 0x28
 2702 0205 0B       		.uleb128 0xb
 2703 0206 01       		.byte	0x1
 2704 0207 55       		.uleb128 0x55
 2705 0208 17       		.uleb128 0x17
 2706 0209 00       		.byte	0
 2707 020a 00       		.byte	0
 2708 020b 29       		.uleb128 0x29
 2709 020c 34       		.uleb128 0x34
 2710 020d 00       		.byte	0
 2711 020e 03       		.uleb128 0x3
 2712 020f 0E       		.uleb128 0xe
 2713 0210 3A       		.uleb128 0x3a
 2714 0211 0B       		.uleb128 0xb
 2715 0212 3B       		.uleb128 0x3b
 2716 0213 0B       		.uleb128 0xb
 2717 0214 49       		.uleb128 0x49
 2718 0215 13       		.uleb128 0x13
 2719 0216 02       		.uleb128 0x2
 2720 0217 17       		.uleb128 0x17
 2721 0218 00       		.byte	0
 2722 0219 00       		.byte	0
 2723 021a 2A       		.uleb128 0x2a
 2724 021b 34       		.uleb128 0x34
 2725 021c 00       		.byte	0
 2726 021d 03       		.uleb128 0x3
 2727 021e 0E       		.uleb128 0xe
 2728 021f 3A       		.uleb128 0x3a
 2729 0220 0B       		.uleb128 0xb
 2730 0221 3B       		.uleb128 0x3b
 2731 0222 05       		.uleb128 0x5
 2732 0223 49       		.uleb128 0x49
 2733 0224 13       		.uleb128 0x13
 2734 0225 3F       		.uleb128 0x3f
 2735 0226 19       		.uleb128 0x19
 2736 0227 3C       		.uleb128 0x3c
ARM GAS  /tmp/ccYuBRwd.s 			page 49


 2737 0228 19       		.uleb128 0x19
 2738 0229 00       		.byte	0
 2739 022a 00       		.byte	0
 2740 022b 2B       		.uleb128 0x2b
 2741 022c 34       		.uleb128 0x34
 2742 022d 00       		.byte	0
 2743 022e 03       		.uleb128 0x3
 2744 022f 08       		.uleb128 0x8
 2745 0230 3A       		.uleb128 0x3a
 2746 0231 0B       		.uleb128 0xb
 2747 0232 3B       		.uleb128 0x3b
 2748 0233 05       		.uleb128 0x5
 2749 0234 49       		.uleb128 0x49
 2750 0235 13       		.uleb128 0x13
 2751 0236 3F       		.uleb128 0x3f
 2752 0237 19       		.uleb128 0x19
 2753 0238 3C       		.uleb128 0x3c
 2754 0239 19       		.uleb128 0x19
 2755 023a 00       		.byte	0
 2756 023b 00       		.byte	0
 2757 023c 00       		.byte	0
 2758              		.section	.debug_loc,"",%progbits
 2759              	.Ldebug_loc0:
 2760              	.LLST0:
 2761 0000 1C000000 		.4byte	.LVL1
 2762 0004 38000000 		.4byte	.LVL2
 2763 0008 0100     		.2byte	0x1
 2764 000a 50       		.byte	0x50
 2765 000b 00000000 		.4byte	0
 2766 000f 00000000 		.4byte	0
 2767              	.LLST1:
 2768 0013 1C000000 		.4byte	.LVL1
 2769 0017 38000000 		.4byte	.LVL2
 2770 001b 0600     		.2byte	0x6
 2771 001d 0C       		.byte	0xc
 2772 001e 00000240 		.4byte	0x40020000
 2773 0022 9F       		.byte	0x9f
 2774 0023 00000000 		.4byte	0
 2775 0027 00000000 		.4byte	0
 2776              	.LLST2:
 2777 002b 38000000 		.4byte	.LVL2
 2778 002f 54000000 		.4byte	.LVL3
 2779 0033 0300     		.2byte	0x3
 2780 0035 70       		.byte	0x70
 2781 0036 1C       		.sleb128 28
 2782 0037 9F       		.byte	0x9f
 2783 0038 00000000 		.4byte	0
 2784 003c 00000000 		.4byte	0
 2785              	.LLST3:
 2786 0040 38000000 		.4byte	.LVL2
 2787 0044 54000000 		.4byte	.LVL3
 2788 0048 0600     		.2byte	0x6
 2789 004a 0C       		.byte	0xc
 2790 004b 00040240 		.4byte	0x40020400
 2791 004f 9F       		.byte	0x9f
 2792 0050 00000000 		.4byte	0
 2793 0054 00000000 		.4byte	0
ARM GAS  /tmp/ccYuBRwd.s 			page 50


 2794              	.LLST4:
 2795 0058 54000000 		.4byte	.LVL3
 2796 005c 70000000 		.4byte	.LVL4
 2797 0060 0300     		.2byte	0x3
 2798 0062 70       		.byte	0x70
 2799 0063 38       		.sleb128 56
 2800 0064 9F       		.byte	0x9f
 2801 0065 00000000 		.4byte	0
 2802 0069 00000000 		.4byte	0
 2803              	.LLST5:
 2804 006d 54000000 		.4byte	.LVL3
 2805 0071 70000000 		.4byte	.LVL4
 2806 0075 0600     		.2byte	0x6
 2807 0077 0C       		.byte	0xc
 2808 0078 00080240 		.4byte	0x40020800
 2809 007c 9F       		.byte	0x9f
 2810 007d 00000000 		.4byte	0
 2811 0081 00000000 		.4byte	0
 2812              	.LLST6:
 2813 0085 70000000 		.4byte	.LVL4
 2814 0089 8C000000 		.4byte	.LVL5
 2815 008d 0400     		.2byte	0x4
 2816 008f 70       		.byte	0x70
 2817 0090 D400     		.sleb128 84
 2818 0092 9F       		.byte	0x9f
 2819 0093 00000000 		.4byte	0
 2820 0097 00000000 		.4byte	0
 2821              	.LLST7:
 2822 009b 70000000 		.4byte	.LVL4
 2823 009f 8C000000 		.4byte	.LVL5
 2824 00a3 0600     		.2byte	0x6
 2825 00a5 0C       		.byte	0xc
 2826 00a6 000C0240 		.4byte	0x40020c00
 2827 00aa 9F       		.byte	0x9f
 2828 00ab 00000000 		.4byte	0
 2829 00af 00000000 		.4byte	0
 2830              	.LLST8:
 2831 00b3 8C000000 		.4byte	.LVL5
 2832 00b7 BC000000 		.4byte	.LVL6
 2833 00bb 0400     		.2byte	0x4
 2834 00bd 70       		.byte	0x70
 2835 00be F000     		.sleb128 112
 2836 00c0 9F       		.byte	0x9f
 2837 00c1 00000000 		.4byte	0
 2838 00c5 00000000 		.4byte	0
 2839              	.LLST9:
 2840 00c9 8C000000 		.4byte	.LVL5
 2841 00cd BC000000 		.4byte	.LVL6
 2842 00d1 0600     		.2byte	0x6
 2843 00d3 0C       		.byte	0xc
 2844 00d4 00100240 		.4byte	0x40021000
 2845 00d8 9F       		.byte	0x9f
 2846 00d9 00000000 		.4byte	0
 2847 00dd 00000000 		.4byte	0
 2848              	.LLST10:
 2849 00e1 BC000000 		.4byte	.LVL6
 2850 00e5 F4000000 		.4byte	.LVL7
ARM GAS  /tmp/ccYuBRwd.s 			page 51


 2851 00e9 0400     		.2byte	0x4
 2852 00eb 70       		.byte	0x70
 2853 00ec 8C01     		.sleb128 140
 2854 00ee 9F       		.byte	0x9f
 2855 00ef 00000000 		.4byte	0
 2856 00f3 00000000 		.4byte	0
 2857              	.LLST11:
 2858 00f7 BC000000 		.4byte	.LVL6
 2859 00fb F4000000 		.4byte	.LVL7
 2860 00ff 0600     		.2byte	0x6
 2861 0101 0C       		.byte	0xc
 2862 0102 00140240 		.4byte	0x40021400
 2863 0106 9F       		.byte	0x9f
 2864 0107 00000000 		.4byte	0
 2865 010b 00000000 		.4byte	0
 2866              	.LLST12:
 2867 010f F4000000 		.4byte	.LVL7
 2868 0113 22010000 		.4byte	.LVL8
 2869 0117 0400     		.2byte	0x4
 2870 0119 70       		.byte	0x70
 2871 011a A801     		.sleb128 168
 2872 011c 9F       		.byte	0x9f
 2873 011d 00000000 		.4byte	0
 2874 0121 00000000 		.4byte	0
 2875              	.LLST13:
 2876 0125 F4000000 		.4byte	.LVL7
 2877 0129 22010000 		.4byte	.LVL8
 2878 012d 0600     		.2byte	0x6
 2879 012f 0C       		.byte	0xc
 2880 0130 00180240 		.4byte	0x40021800
 2881 0134 9F       		.byte	0x9f
 2882 0135 00000000 		.4byte	0
 2883 0139 00000000 		.4byte	0
 2884              	.LLST14:
 2885 013d 22010000 		.4byte	.LVL8
 2886 0141 5A010000 		.4byte	.LVL9
 2887 0145 0400     		.2byte	0x4
 2888 0147 70       		.byte	0x70
 2889 0148 C401     		.sleb128 196
 2890 014a 9F       		.byte	0x9f
 2891 014b 00000000 		.4byte	0
 2892 014f 00000000 		.4byte	0
 2893              	.LLST15:
 2894 0153 22010000 		.4byte	.LVL8
 2895 0157 5A010000 		.4byte	.LVL9
 2896 015b 0600     		.2byte	0x6
 2897 015d 0C       		.byte	0xc
 2898 015e 001C0240 		.4byte	0x40021c00
 2899 0162 9F       		.byte	0x9f
 2900 0163 00000000 		.4byte	0
 2901 0167 00000000 		.4byte	0
 2902              	.LLST16:
 2903 016b 5A010000 		.4byte	.LVL9
 2904 016f 92010000 		.4byte	.LVL10
 2905 0173 0400     		.2byte	0x4
 2906 0175 70       		.byte	0x70
 2907 0176 E001     		.sleb128 224
ARM GAS  /tmp/ccYuBRwd.s 			page 52


 2908 0178 9F       		.byte	0x9f
 2909 0179 00000000 		.4byte	0
 2910 017d 00000000 		.4byte	0
 2911              	.LLST17:
 2912 0181 5A010000 		.4byte	.LVL9
 2913 0185 92010000 		.4byte	.LVL10
 2914 0189 0600     		.2byte	0x6
 2915 018b 0C       		.byte	0xc
 2916 018c 00200240 		.4byte	0x40022000
 2917 0190 9F       		.byte	0x9f
 2918 0191 00000000 		.4byte	0
 2919 0195 00000000 		.4byte	0
 2920              	.LLST18:
 2921 0199 00000000 		.4byte	.LVL11
 2922 019d 7A000000 		.4byte	.LVL22
 2923 01a1 0100     		.2byte	0x1
 2924 01a3 51       		.byte	0x51
 2925 01a4 7A000000 		.4byte	.LVL22
 2926 01a8 7C000000 		.4byte	.LVL23
 2927 01ac 0500     		.2byte	0x5
 2928 01ae 71       		.byte	0x71
 2929 01af 00       		.sleb128 0
 2930 01b0 31       		.byte	0x31
 2931 01b1 25       		.byte	0x25
 2932 01b2 9F       		.byte	0x9f
 2933 01b3 7C000000 		.4byte	.LVL23
 2934 01b7 B6000000 		.4byte	.LFE260
 2935 01bb 0100     		.2byte	0x1
 2936 01bd 51       		.byte	0x51
 2937 01be 00000000 		.4byte	0
 2938 01c2 00000000 		.4byte	0
 2939              	.LLST19:
 2940 01c6 00000000 		.4byte	.LVL11
 2941 01ca 1E000000 		.4byte	.LVL16
 2942 01ce 0100     		.2byte	0x1
 2943 01d0 52       		.byte	0x52
 2944 01d1 1E000000 		.4byte	.LVL16
 2945 01d5 B6000000 		.4byte	.LFE260
 2946 01d9 0400     		.2byte	0x4
 2947 01db F3       		.byte	0xf3
 2948 01dc 01       		.uleb128 0x1
 2949 01dd 52       		.byte	0x52
 2950 01de 9F       		.byte	0x9f
 2951 01df 00000000 		.4byte	0
 2952 01e3 00000000 		.4byte	0
 2953              	.LLST20:
 2954 01e7 1E000000 		.4byte	.LVL16
 2955 01eb 28000000 		.4byte	.LVL17
 2956 01ef 0200     		.2byte	0x2
 2957 01f1 30       		.byte	0x30
 2958 01f2 9F       		.byte	0x9f
 2959 01f3 28000000 		.4byte	.LVL17
 2960 01f7 B6000000 		.4byte	.LFE260
 2961 01fb 0100     		.2byte	0x1
 2962 01fd 54       		.byte	0x54
 2963 01fe 00000000 		.4byte	0
 2964 0202 00000000 		.4byte	0
ARM GAS  /tmp/ccYuBRwd.s 			page 53


 2965              	.LLST21:
 2966 0206 28000000 		.4byte	.LVL17
 2967 020a 3C000000 		.4byte	.LVL20
 2968 020e 0100     		.2byte	0x1
 2969 0210 5A       		.byte	0x5a
 2970 0211 3C000000 		.4byte	.LVL20
 2971 0215 8A000000 		.4byte	.LVL28
 2972 0219 0A00     		.2byte	0xa
 2973 021b 72       		.byte	0x72
 2974 021c 00       		.sleb128 0
 2975 021d 74       		.byte	0x74
 2976 021e 00       		.sleb128 0
 2977 021f 37       		.byte	0x37
 2978 0220 1A       		.byte	0x1a
 2979 0221 32       		.byte	0x32
 2980 0222 24       		.byte	0x24
 2981 0223 24       		.byte	0x24
 2982 0224 9F       		.byte	0x9f
 2983 0225 98000000 		.4byte	.LVL29
 2984 0229 B2000000 		.4byte	.LVL32
 2985 022d 0100     		.2byte	0x1
 2986 022f 5A       		.byte	0x5a
 2987 0230 B2000000 		.4byte	.LVL32
 2988 0234 B6000000 		.4byte	.LFE260
 2989 0238 0A00     		.2byte	0xa
 2990 023a 72       		.byte	0x72
 2991 023b 00       		.sleb128 0
 2992 023c 74       		.byte	0x74
 2993 023d 00       		.sleb128 0
 2994 023e 37       		.byte	0x37
 2995 023f 1A       		.byte	0x1a
 2996 0240 32       		.byte	0x32
 2997 0241 24       		.byte	0x24
 2998 0242 24       		.byte	0x24
 2999 0243 9F       		.byte	0x9f
 3000 0244 00000000 		.4byte	0
 3001 0248 00000000 		.4byte	0
 3002              	.LLST22:
 3003 024c 36000000 		.4byte	.LVL19
 3004 0250 7A000000 		.4byte	.LVL22
 3005 0254 0500     		.2byte	0x5
 3006 0256 31       		.byte	0x31
 3007 0257 74       		.byte	0x74
 3008 0258 00       		.sleb128 0
 3009 0259 24       		.byte	0x24
 3010 025a 9F       		.byte	0x9f
 3011 025b 00000000 		.4byte	0
 3012 025f 00000000 		.4byte	0
 3013              	.LLST23:
 3014 0263 44000000 		.4byte	.LVL21
 3015 0267 7A000000 		.4byte	.LVL22
 3016 026b 0700     		.2byte	0x7
 3017 026d 33       		.byte	0x33
 3018 026e 74       		.byte	0x74
 3019 026f 00       		.sleb128 0
 3020 0270 31       		.byte	0x31
 3021 0271 24       		.byte	0x24
ARM GAS  /tmp/ccYuBRwd.s 			page 54


 3022 0272 24       		.byte	0x24
 3023 0273 9F       		.byte	0x9f
 3024 0274 00000000 		.4byte	0
 3025 0278 00000000 		.4byte	0
 3026              	.LLST24:
 3027 027c 28000000 		.4byte	.LVL17
 3028 0280 30000000 		.4byte	.LVL18
 3029 0284 0100     		.2byte	0x1
 3030 0286 53       		.byte	0x53
 3031 0287 30000000 		.4byte	.LVL18
 3032 028b 8A000000 		.4byte	.LVL28
 3033 028f 0A00     		.2byte	0xa
 3034 0291 7C       		.byte	0x7c
 3035 0292 00       		.sleb128 0
 3036 0293 74       		.byte	0x74
 3037 0294 00       		.sleb128 0
 3038 0295 37       		.byte	0x37
 3039 0296 1A       		.byte	0x1a
 3040 0297 32       		.byte	0x32
 3041 0298 24       		.byte	0x24
 3042 0299 24       		.byte	0x24
 3043 029a 9F       		.byte	0x9f
 3044 029b 9C000000 		.4byte	.LVL30
 3045 029f AA000000 		.4byte	.LVL31
 3046 02a3 0100     		.2byte	0x1
 3047 02a5 53       		.byte	0x53
 3048 02a6 AA000000 		.4byte	.LVL31
 3049 02aa B6000000 		.4byte	.LFE260
 3050 02ae 0A00     		.2byte	0xa
 3051 02b0 7C       		.byte	0x7c
 3052 02b1 00       		.sleb128 0
 3053 02b2 74       		.byte	0x74
 3054 02b3 00       		.sleb128 0
 3055 02b4 37       		.byte	0x37
 3056 02b5 1A       		.byte	0x1a
 3057 02b6 32       		.byte	0x32
 3058 02b7 24       		.byte	0x24
 3059 02b8 24       		.byte	0x24
 3060 02b9 9F       		.byte	0x9f
 3061 02ba 00000000 		.4byte	0
 3062 02be 00000000 		.4byte	0
 3063              		.section	.debug_aranges,"",%progbits
 3064 0000 24000000 		.4byte	0x24
 3065 0004 0200     		.2byte	0x2
 3066 0006 00000000 		.4byte	.Ldebug_info0
 3067 000a 04       		.byte	0x4
 3068 000b 00       		.byte	0
 3069 000c 0000     		.2byte	0
 3070 000e 0000     		.2byte	0
 3071 0010 00000000 		.4byte	.LFB259
 3072 0014 AC010000 		.4byte	.LFE259-.LFB259
 3073 0018 00000000 		.4byte	.LFB260
 3074 001c B6000000 		.4byte	.LFE260-.LFB260
 3075 0020 00000000 		.4byte	0
 3076 0024 00000000 		.4byte	0
 3077              		.section	.debug_ranges,"",%progbits
 3078              	.Ldebug_ranges0:
ARM GAS  /tmp/ccYuBRwd.s 			page 55


 3079 0000 04000000 		.4byte	.LBB20
 3080 0004 06000000 		.4byte	.LBE20
 3081 0008 1C000000 		.4byte	.LBB32
 3082 000c 38000000 		.4byte	.LBE32
 3083 0010 00000000 		.4byte	0
 3084 0014 00000000 		.4byte	0
 3085 0018 08000000 		.4byte	.LBB23
 3086 001c 0A000000 		.4byte	.LBE23
 3087 0020 38000000 		.4byte	.LBB33
 3088 0024 54000000 		.4byte	.LBE33
 3089 0028 00000000 		.4byte	0
 3090 002c 00000000 		.4byte	0
 3091 0030 0A000000 		.4byte	.LBB26
 3092 0034 0C000000 		.4byte	.LBE26
 3093 0038 54000000 		.4byte	.LBB34
 3094 003c 70000000 		.4byte	.LBE34
 3095 0040 00000000 		.4byte	0
 3096 0044 00000000 		.4byte	0
 3097 0048 0C000000 		.4byte	.LBB29
 3098 004c 0E000000 		.4byte	.LBE29
 3099 0050 70000000 		.4byte	.LBB35
 3100 0054 8C000000 		.4byte	.LBE35
 3101 0058 00000000 		.4byte	0
 3102 005c 00000000 		.4byte	0
 3103 0060 04000000 		.4byte	.LBB46
 3104 0064 08000000 		.4byte	.LBE46
 3105 0068 1E000000 		.4byte	.LBB47
 3106 006c 7A000000 		.4byte	.LBE47
 3107 0070 8A000000 		.4byte	.LBB48
 3108 0074 90000000 		.4byte	.LBE48
 3109 0078 94000000 		.4byte	.LBB49
 3110 007c 9C000000 		.4byte	.LBE49
 3111 0080 9E000000 		.4byte	.LBB50
 3112 0084 B6000000 		.4byte	.LBE50
 3113 0088 00000000 		.4byte	0
 3114 008c 00000000 		.4byte	0
 3115 0090 00000000 		.4byte	.LFB259
 3116 0094 AC010000 		.4byte	.LFE259
 3117 0098 00000000 		.4byte	.LFB260
 3118 009c B6000000 		.4byte	.LFE260
 3119 00a0 00000000 		.4byte	0
 3120 00a4 00000000 		.4byte	0
 3121              		.section	.debug_line,"",%progbits
 3122              	.Ldebug_line0:
 3123 0000 0B030000 		.section	.debug_str,"MS",%progbits,1
 3123      02005B02 
 3123      00000201 
 3123      FB0E0D00 
 3123      01010101 
 3124              	.LASF176:
 3125 0000 73746D33 		.ascii	"stm32_gpio_setup_t\000"
 3125      325F6770 
 3125      696F5F73 
 3125      65747570 
 3125      5F7400
 3126              	.LASF128:
 3127 0013 74625F70 		.ascii	"tb_ptr\000"
ARM GAS  /tmp/ccYuBRwd.s 			page 56


 3127      747200
 3128              	.LASF57:
 3129 001a 72656164 		.ascii	"ready_list_t\000"
 3129      795F6C69 
 3129      73745F74 
 3129      00
 3130              	.LASF122:
 3131 0027 73655F74 		.ascii	"se_time\000"
 3131      696D6500 
 3132              	.LASF146:
 3133 002f 77747472 		.ascii	"wttrp\000"
 3133      7000
 3134              	.LASF143:
 3135 0035 7264796D 		.ascii	"rdymsg\000"
 3135      736700
 3136              	.LASF19:
 3137 003c 75696E74 		.ascii	"uint64_t\000"
 3137      36345F74 
 3137      00
 3138              	.LASF6:
 3139 0045 5F5F7569 		.ascii	"__uint8_t\000"
 3139      6E74385F 
 3139      7400
 3140              	.LASF162:
 3141 004f 4F545950 		.ascii	"OTYPER\000"
 3141      455200
 3142              	.LASF121:
 3143 0056 706F7274 		.ascii	"port_intctx\000"
 3143      5F696E74 
 3143      63747800 
 3144              	.LASF56:
 3145 0062 63685F74 		.ascii	"ch_threads_queue\000"
 3145      68726561 
 3145      64735F71 
 3145      75657565 
 3145      00
 3146              	.LASF76:
 3147 0073 73797374 		.ascii	"system_debug_t\000"
 3147      656D5F64 
 3147      65627567 
 3147      5F7400
 3148              	.LASF187:
 3149 0082 696F706F 		.ascii	"ioportmask_t\000"
 3149      72746D61 
 3149      736B5F74 
 3149      00
 3150              	.LASF134:
 3151 008f 776F7273 		.ascii	"worst\000"
 3151      7400
 3152              	.LASF184:
 3153 0095 50484461 		.ascii	"PHData\000"
 3153      746100
 3154              	.LASF137:
 3155 009c 74696D65 		.ascii	"time_measurement_t\000"
 3155      5F6D6561 
 3155      73757265 
 3155      6D656E74 
ARM GAS  /tmp/ccYuBRwd.s 			page 57


 3155      5F7400
 3156              	.LASF161:
 3157 00af 4D4F4445 		.ascii	"MODER\000"
 3157      5200
 3158              	.LASF14:
 3159 00b5 6C6F6E67 		.ascii	"long long unsigned int\000"
 3159      206C6F6E 
 3159      6720756E 
 3159      7369676E 
 3159      65642069 
 3160              	.LASF130:
 3161 00cc 63685F74 		.ascii	"ch_trace_buffer_t\000"
 3161      72616365 
 3161      5F627566 
 3161      6665725F 
 3161      7400
 3162              	.LASF125:
 3163 00de 73655F73 		.ascii	"se_state\000"
 3163      74617465 
 3163      00
 3164              	.LASF164:
 3165 00e7 50555044 		.ascii	"PUPDR\000"
 3165      5200
 3166              	.LASF144:
 3167 00ed 65786974 		.ascii	"exitcode\000"
 3167      636F6465 
 3167      00
 3168              	.LASF86:
 3169 00f6 6D61696E 		.ascii	"mainthread\000"
 3169      74687265 
 3169      616400
 3170              	.LASF73:
 3171 0101 76697274 		.ascii	"virtual_timers_list_t\000"
 3171      75616C5F 
 3171      74696D65 
 3171      72735F6C 
 3171      6973745F 
 3172              	.LASF199:
 3173 0117 49544D5F 		.ascii	"ITM_RxBuffer\000"
 3173      52784275 
 3173      66666572 
 3173      00
 3174              	.LASF21:
 3175 0124 72747469 		.ascii	"rttime_t\000"
 3175      6D655F74 
 3175      00
 3176              	.LASF106:
 3177 012d 41484231 		.ascii	"AHB1LPENR\000"
 3177      4C50454E 
 3177      5200
 3178              	.LASF34:
 3179 0137 705F7072 		.ascii	"p_prio\000"
 3179      696F00
 3180              	.LASF1:
 3181 013e 6C6F6E67 		.ascii	"long long int\000"
 3181      206C6F6E 
 3181      6720696E 
ARM GAS  /tmp/ccYuBRwd.s 			page 58


 3181      7400
 3182              	.LASF3:
 3183 014c 7369676E 		.ascii	"signed char\000"
 3183      65642063 
 3183      68617200 
 3184              	.LASF165:
 3185 0158 42535252 		.ascii	"BSRR\000"
 3185      00
 3186              	.LASF92:
 3187 015d 41484231 		.ascii	"AHB1RSTR\000"
 3187      52535452 
 3187      00
 3188              	.LASF49:
 3189 0166 705F6D70 		.ascii	"p_mpool\000"
 3189      6F6F6C00 
 3190              	.LASF154:
 3191 016e 6D5F7175 		.ascii	"m_queue\000"
 3191      65756500 
 3192              	.LASF170:
 3193 0176 6D6F6465 		.ascii	"moder\000"
 3193      7200
 3194              	.LASF117:
 3195 017c 5243435F 		.ascii	"RCC_TypeDef\000"
 3195      54797065 
 3195      44656600 
 3196              	.LASF83:
 3197 0188 63685F73 		.ascii	"ch_system\000"
 3197      79737465 
 3197      6D00
 3198              	.LASF10:
 3199 0192 6C6F6E67 		.ascii	"long int\000"
 3199      20696E74 
 3199      00
 3200              	.LASF181:
 3201 019b 50454461 		.ascii	"PEData\000"
 3201      746100
 3202              	.LASF110:
 3203 01a2 41504231 		.ascii	"APB1LPENR\000"
 3203      4C50454E 
 3203      5200
 3204              	.LASF23:
 3205 01ac 74737461 		.ascii	"tstate_t\000"
 3205      74655F74 
 3205      00
 3206              	.LASF123:
 3207 01b5 73655F74 		.ascii	"se_tp\000"
 3207      7000
 3208              	.LASF16:
 3209 01bb 75696E74 		.ascii	"uint16_t\000"
 3209      31365F74 
 3209      00
 3210              	.LASF198:
 3211 01c4 616C7472 		.ascii	"altrmask\000"
 3211      6D61736B 
 3211      00
 3212              	.LASF36:
 3213 01cd 705F6E65 		.ascii	"p_newer\000"
ARM GAS  /tmp/ccYuBRwd.s 			page 59


 3213      77657200 
 3214              	.LASF90:
 3215 01d5 504C4C43 		.ascii	"PLLCFGR\000"
 3215      46475200 
 3216              	.LASF127:
 3217 01dd 74625F73 		.ascii	"tb_size\000"
 3217      697A6500 
 3218              	.LASF163:
 3219 01e5 4F535045 		.ascii	"OSPEEDR\000"
 3219      45445200 
 3220              	.LASF62:
 3221 01ed 725F6E65 		.ascii	"r_newer\000"
 3221      77657200 
 3222              	.LASF195:
 3223 01f5 6D61736B 		.ascii	"mask\000"
 3223      00
 3224              	.LASF118:
 3225 01fa 72656761 		.ascii	"regarm_t\000"
 3225      726D5F74 
 3225      00
 3226              	.LASF69:
 3227 0203 76745F70 		.ascii	"vt_prev\000"
 3227      72657600 
 3228              	.LASF85:
 3229 020b 76746C69 		.ascii	"vtlist\000"
 3229      737400
 3230              	.LASF77:
 3231 0212 63685F73 		.ascii	"ch_system_debug\000"
 3231      79737465 
 3231      6D5F6465 
 3231      62756700 
 3232              	.LASF169:
 3233 0222 73746D33 		.ascii	"stm32_gpio_t\000"
 3233      325F6770 
 3233      696F5F74 
 3233      00
 3234              	.LASF194:
 3235 022f 706F7274 		.ascii	"port\000"
 3235      00
 3236              	.LASF158:
 3237 0234 6D757465 		.ascii	"mutex_t\000"
 3237      785F7400 
 3238              	.LASF178:
 3239 023c 50424461 		.ascii	"PBData\000"
 3239      746100
 3240              	.LASF80:
 3241 0243 6C6F636B 		.ascii	"lock_cnt\000"
 3241      5F636E74 
 3241      00
 3242              	.LASF88:
 3243 024c 69646C65 		.ascii	"idle_thread_wa\000"
 3243      5F746872 
 3243      6561645F 
 3243      776100
 3244              	.LASF28:
 3245 025b 636E745F 		.ascii	"cnt_t\000"
 3245      7400
ARM GAS  /tmp/ccYuBRwd.s 			page 60


 3246              	.LASF39:
 3247 0261 705F7374 		.ascii	"p_stklimit\000"
 3247      6B6C696D 
 3247      697400
 3248              	.LASF0:
 3249 026c 756E7369 		.ascii	"unsigned int\000"
 3249      676E6564 
 3249      20696E74 
 3249      00
 3250              	.LASF68:
 3251 0279 76745F6E 		.ascii	"vt_next\000"
 3251      65787400 
 3252              	.LASF147:
 3253 0281 77747365 		.ascii	"wtsemp\000"
 3253      6D7000
 3254              	.LASF44:
 3255 0288 705F6D73 		.ascii	"p_msgqueue\000"
 3255      67717565 
 3255      756500
 3256              	.LASF201:
 3257 0293 2F686F6D 		.ascii	"/home/selim/working/ChibiOS/os/hal/ports/STM32/LLD/"
 3257      652F7365 
 3257      6C696D2F 
 3257      776F726B 
 3257      696E672F 
 3258 02c6 4750494F 		.ascii	"GPIOv2/pal_lld.c\000"
 3258      76322F70 
 3258      616C5F6C 
 3258      6C642E63 
 3258      00
 3259              	.LASF172:
 3260 02d7 6F737065 		.ascii	"ospeedr\000"
 3260      65647200 
 3261              	.LASF166:
 3262 02df 4C434B52 		.ascii	"LCKR\000"
 3262      00
 3263              	.LASF138:
 3264 02e4 6E5F6972 		.ascii	"n_irq\000"
 3264      7100
 3265              	.LASF171:
 3266 02ea 6F747970 		.ascii	"otyper\000"
 3266      657200
 3267              	.LASF8:
 3268 02f1 73686F72 		.ascii	"short unsigned int\000"
 3268      7420756E 
 3268      7369676E 
 3268      65642069 
 3268      6E7400
 3269              	.LASF142:
 3270 0304 6B65726E 		.ascii	"kernel_stats_t\000"
 3270      656C5F73 
 3270      74617473 
 3270      5F7400
 3271              	.LASF53:
 3272 0313 63685F74 		.ascii	"ch_thread\000"
 3272      68726561 
 3272      6400
ARM GAS  /tmp/ccYuBRwd.s 			page 61


 3273              	.LASF116:
 3274 031d 504C4C49 		.ascii	"PLLI2SCFGR\000"
 3274      32534346 
 3274      475200
 3275              	.LASF97:
 3276 0328 41504232 		.ascii	"APB2RSTR\000"
 3276      52535452 
 3276      00
 3277              	.LASF26:
 3278 0331 6D73675F 		.ascii	"msg_t\000"
 3278      7400
 3279              	.LASF94:
 3280 0337 41484233 		.ascii	"AHB3RSTR\000"
 3280      52535452 
 3280      00
 3281              	.LASF29:
 3282 0340 75636E74 		.ascii	"ucnt_t\000"
 3282      5F7400
 3283              	.LASF82:
 3284 0347 63685F73 		.ascii	"ch_system_t\000"
 3284      79737465 
 3284      6D5F7400 
 3285              	.LASF129:
 3286 0353 74625F62 		.ascii	"tb_buffer\000"
 3286      75666665 
 3286      7200
 3287              	.LASF111:
 3288 035d 41504232 		.ascii	"APB2LPENR\000"
 3288      4C50454E 
 3288      5200
 3289              	.LASF141:
 3290 0367 6D5F6372 		.ascii	"m_crit_isr\000"
 3290      69745F69 
 3290      737200
 3291              	.LASF58:
 3292 0372 63685F72 		.ascii	"ch_ready_list\000"
 3292      65616479 
 3292      5F6C6973 
 3292      7400
 3293              	.LASF27:
 3294 0380 6576656E 		.ascii	"eventmask_t\000"
 3294      746D6173 
 3294      6B5F7400 
 3295              	.LASF9:
 3296 038c 5F5F696E 		.ascii	"__int32_t\000"
 3296      7433325F 
 3296      7400
 3297              	.LASF183:
 3298 0396 50474461 		.ascii	"PGData\000"
 3298      746100
 3299              	.LASF119:
 3300 039d 73746B61 		.ascii	"stkalign_t\000"
 3300      6C69676E 
 3300      5F7400
 3301              	.LASF52:
 3302 03a8 74687265 		.ascii	"threads_list_t\000"
 3302      6164735F 
ARM GAS  /tmp/ccYuBRwd.s 			page 62


 3302      6C697374 
 3302      5F7400
 3303              	.LASF66:
 3304 03b7 76697274 		.ascii	"virtual_timer_t\000"
 3304      75616C5F 
 3304      74696D65 
 3304      725F7400 
 3305              	.LASF151:
 3306 03c7 735F7175 		.ascii	"s_queue\000"
 3306      65756500 
 3307              	.LASF43:
 3308 03cf 705F7761 		.ascii	"p_waiting\000"
 3308      6974696E 
 3308      6700
 3309              	.LASF89:
 3310 03d9 73697A65 		.ascii	"sizetype\000"
 3310      74797065 
 3310      00
 3311              	.LASF51:
 3312 03e2 74687265 		.ascii	"thread_reference_t\000"
 3312      61645F72 
 3312      65666572 
 3312      656E6365 
 3312      5F7400
 3313              	.LASF74:
 3314 03f5 63685F76 		.ascii	"ch_virtual_timers_list\000"
 3314      69727475 
 3314      616C5F74 
 3314      696D6572 
 3314      735F6C69 
 3315              	.LASF160:
 3316 040c 636C6561 		.ascii	"clear\000"
 3316      7200
 3317              	.LASF2:
 3318 0412 6C6F6E67 		.ascii	"long double\000"
 3318      20646F75 
 3318      626C6500 
 3319              	.LASF126:
 3320 041e 63685F73 		.ascii	"ch_swc_event_t\000"
 3320      77635F65 
 3320      76656E74 
 3320      5F7400
 3321              	.LASF101:
 3322 042d 41484233 		.ascii	"AHB3ENR\000"
 3322      454E5200 
 3323              	.LASF75:
 3324 0435 76745F6C 		.ascii	"vt_lasttime\000"
 3324      61737474 
 3324      696D6500 
 3325              	.LASF37:
 3326 0441 705F6F6C 		.ascii	"p_older\000"
 3326      64657200 
 3327              	.LASF61:
 3328 0449 725F6374 		.ascii	"r_ctx\000"
 3328      7800
 3329              	.LASF107:
 3330 044f 41484232 		.ascii	"AHB2LPENR\000"
ARM GAS  /tmp/ccYuBRwd.s 			page 63


 3330      4C50454E 
 3330      5200
 3331              	.LASF132:
 3332 0459 746D5F63 		.ascii	"tm_calibration_t\000"
 3332      616C6962 
 3332      72617469 
 3332      6F6E5F74 
 3332      00
 3333              	.LASF175:
 3334 046a 61667268 		.ascii	"afrh\000"
 3334      00
 3335              	.LASF180:
 3336 046f 50444461 		.ascii	"PDData\000"
 3336      746100
 3337              	.LASF64:
 3338 0476 725F6375 		.ascii	"r_current\000"
 3338      7272656E 
 3338      7400
 3339              	.LASF96:
 3340 0480 41504231 		.ascii	"APB1RSTR\000"
 3340      52535452 
 3340      00
 3341              	.LASF13:
 3342 0489 5F5F7569 		.ascii	"__uint64_t\000"
 3342      6E743634 
 3342      5F7400
 3343              	.LASF168:
 3344 0494 41465248 		.ascii	"AFRH\000"
 3344      00
 3345              	.LASF136:
 3346 0499 63756D75 		.ascii	"cumulative\000"
 3346      6C617469 
 3346      766500
 3347              	.LASF167:
 3348 04a4 4146524C 		.ascii	"AFRL\000"
 3348      00
 3349              	.LASF87:
 3350 04a9 6B65726E 		.ascii	"kernel_stats\000"
 3350      656C5F73 
 3350      74617473 
 3350      00
 3351              	.LASF24:
 3352 04b6 74726566 		.ascii	"trefs_t\000"
 3352      735F7400 
 3353              	.LASF95:
 3354 04be 52455345 		.ascii	"RESERVED0\000"
 3354      52564544 
 3354      3000
 3355              	.LASF98:
 3356 04c8 52455345 		.ascii	"RESERVED1\000"
 3356      52564544 
 3356      3100
 3357              	.LASF102:
 3358 04d2 52455345 		.ascii	"RESERVED2\000"
 3358      52564544 
 3358      3200
 3359              	.LASF105:
ARM GAS  /tmp/ccYuBRwd.s 			page 64


 3360 04dc 52455345 		.ascii	"RESERVED3\000"
 3360      52564544 
 3360      3300
 3361              	.LASF109:
 3362 04e6 52455345 		.ascii	"RESERVED4\000"
 3362      52564544 
 3362      3400
 3363              	.LASF33:
 3364 04f0 705F7072 		.ascii	"p_prev\000"
 3364      657600
 3365              	.LASF114:
 3366 04f7 52455345 		.ascii	"RESERVED6\000"
 3366      52564544 
 3366      3600
 3367              	.LASF25:
 3368 0501 74707269 		.ascii	"tprio_t\000"
 3368      6F5F7400 
 3369              	.LASF139:
 3370 0509 6E5F6374 		.ascii	"n_ctxswc\000"
 3370      78737763 
 3370      00
 3371              	.LASF159:
 3372 0512 5F426F6F 		.ascii	"_Bool\000"
 3372      6C00
 3373              	.LASF17:
 3374 0518 696E7433 		.ascii	"int32_t\000"
 3374      325F7400 
 3375              	.LASF4:
 3376 0520 756E7369 		.ascii	"unsigned char\000"
 3376      676E6564 
 3376      20636861 
 3376      7200
 3377              	.LASF174:
 3378 052e 6166726C 		.ascii	"afrl\000"
 3378      00
 3379              	.LASF152:
 3380 0533 735F636E 		.ascii	"s_cnt\000"
 3380      7400
 3381              	.LASF47:
 3382 0539 705F6D74 		.ascii	"p_mtxlist\000"
 3382      786C6973 
 3382      7400
 3383              	.LASF5:
 3384 0543 73686F72 		.ascii	"short int\000"
 3384      7420696E 
 3384      7400
 3385              	.LASF40:
 3386 054d 705F7374 		.ascii	"p_state\000"
 3386      61746500 
 3387              	.LASF108:
 3388 0555 41484233 		.ascii	"AHB3LPENR\000"
 3388      4C50454E 
 3388      5200
 3389              	.LASF60:
 3390 055f 725F7072 		.ascii	"r_prio\000"
 3390      696F00
 3391              	.LASF200:
ARM GAS  /tmp/ccYuBRwd.s 			page 65


 3392 0566 474E5520 		.ascii	"GNU C11 5.3.1 20160307 (release) [ARM/embedded-5-br"
 3392      43313120 
 3392      352E332E 
 3392      31203230 
 3392      31363033 
 3393 0599 616E6368 		.ascii	"anch revision 234589] -mcpu=cortex-m4 -mno-thumb-in"
 3393      20726576 
 3393      6973696F 
 3393      6E203233 
 3393      34353839 
 3394 05cc 74657277 		.ascii	"terwork -mthumb -ggdb -O2 -fomit-frame-pointer -fal"
 3394      6F726B20 
 3394      2D6D7468 
 3394      756D6220 
 3394      2D676764 
 3395 05ff 69676E2D 		.ascii	"ign-functions=16 -ffunction-sections -fdata-section"
 3395      66756E63 
 3395      74696F6E 
 3395      733D3136 
 3395      202D6666 
 3396 0632 73202D66 		.ascii	"s -fno-common\000"
 3396      6E6F2D63 
 3396      6F6D6D6F 
 3396      6E00
 3397              	.LASF177:
 3398 0640 50414461 		.ascii	"PAData\000"
 3398      746100
 3399              	.LASF149:
 3400 0647 65776D61 		.ascii	"ewmask\000"
 3400      736B00
 3401              	.LASF32:
 3402 064e 705F6E65 		.ascii	"p_next\000"
 3402      787400
 3403              	.LASF22:
 3404 0655 746D6F64 		.ascii	"tmode_t\000"
 3404      655F7400 
 3405              	.LASF41:
 3406 065d 705F666C 		.ascii	"p_flags\000"
 3406      61677300 
 3407              	.LASF50:
 3408 0665 705F7374 		.ascii	"p_stats\000"
 3408      61747300 
 3409              	.LASF190:
 3410 066d 6770696F 		.ascii	"gpiop\000"
 3410      7000
 3411              	.LASF104:
 3412 0673 41504232 		.ascii	"APB2ENR\000"
 3412      454E5200 
 3413              	.LASF185:
 3414 067b 50494461 		.ascii	"PIData\000"
 3414      746100
 3415              	.LASF67:
 3416 0682 63685F76 		.ascii	"ch_virtual_timer\000"
 3416      69727475 
 3416      616C5F74 
 3416      696D6572 
 3416      00
ARM GAS  /tmp/ccYuBRwd.s 			page 66


 3417              	.LASF150:
 3418 0693 63685F73 		.ascii	"ch_semaphore\000"
 3418      656D6170 
 3418      686F7265 
 3418      00
 3419              	.LASF46:
 3420 06a0 705F6570 		.ascii	"p_epending\000"
 3420      656E6469 
 3420      6E6700
 3421              	.LASF112:
 3422 06ab 52455345 		.ascii	"RESERVED5\000"
 3422      52564544 
 3422      3500
 3423              	.LASF18:
 3424 06b5 75696E74 		.ascii	"uint32_t\000"
 3424      33325F74 
 3424      00
 3425              	.LASF148:
 3426 06be 77746D74 		.ascii	"wtmtxp\000"
 3426      787000
 3427              	.LASF59:
 3428 06c5 725F7175 		.ascii	"r_queue\000"
 3428      65756500 
 3429              	.LASF70:
 3430 06cd 76745F64 		.ascii	"vt_delta\000"
 3430      656C7461 
 3430      00
 3431              	.LASF54:
 3432 06d6 63685F74 		.ascii	"ch_threads_list\000"
 3432      68726561 
 3432      64735F6C 
 3432      69737400 
 3433              	.LASF12:
 3434 06e6 6C6F6E67 		.ascii	"long unsigned int\000"
 3434      20756E73 
 3434      69676E65 
 3434      6420696E 
 3434      7400
 3435              	.LASF197:
 3436 06f8 616C7472 		.ascii	"altr\000"
 3436      00
 3437              	.LASF157:
 3438 06fd 63686172 		.ascii	"char\000"
 3438      00
 3439              	.LASF196:
 3440 0702 6D6F6465 		.ascii	"mode\000"
 3440      00
 3441              	.LASF191:
 3442 0707 636F6E66 		.ascii	"config\000"
 3442      696700
 3443              	.LASF7:
 3444 070e 5F5F7569 		.ascii	"__uint16_t\000"
 3444      6E743136 
 3444      5F7400
 3445              	.LASF93:
 3446 0719 41484232 		.ascii	"AHB2RSTR\000"
 3446      52535452 
ARM GAS  /tmp/ccYuBRwd.s 			page 67


 3446      00
 3447              	.LASF31:
 3448 0722 74687265 		.ascii	"thread_t\000"
 3448      61645F74 
 3448      00
 3449              	.LASF133:
 3450 072b 62657374 		.ascii	"best\000"
 3450      00
 3451              	.LASF156:
 3452 0730 6D5F6E65 		.ascii	"m_next\000"
 3452      787400
 3453              	.LASF30:
 3454 0737 73797374 		.ascii	"systime_t\000"
 3454      696D655F 
 3454      7400
 3455              	.LASF48:
 3456 0741 705F7265 		.ascii	"p_realprio\000"
 3456      616C7072 
 3456      696F00
 3457              	.LASF65:
 3458 074c 76746675 		.ascii	"vtfunc_t\000"
 3458      6E635F74 
 3458      00
 3459              	.LASF11:
 3460 0755 5F5F7569 		.ascii	"__uint32_t\000"
 3460      6E743332 
 3460      5F7400
 3461              	.LASF135:
 3462 0760 6C617374 		.ascii	"last\000"
 3462      00
 3463              	.LASF202:
 3464 0765 696E6974 		.ascii	"initgpio\000"
 3464      6770696F 
 3464      00
 3465              	.LASF78:
 3466 076e 70616E69 		.ascii	"panic_msg\000"
 3466      635F6D73 
 3466      6700
 3467              	.LASF131:
 3468 0778 6F666673 		.ascii	"offset\000"
 3468      657400
 3469              	.LASF103:
 3470 077f 41504231 		.ascii	"APB1ENR\000"
 3470      454E5200 
 3471              	.LASF189:
 3472 0787 696F706F 		.ascii	"ioportid_t\000"
 3472      72746964 
 3472      5F7400
 3473              	.LASF100:
 3474 0792 41484232 		.ascii	"AHB2ENR\000"
 3474      454E5200 
 3475              	.LASF120:
 3476 079a 636F6E74 		.ascii	"context\000"
 3476      65787400 
 3477              	.LASF63:
 3478 07a2 725F6F6C 		.ascii	"r_older\000"
 3478      64657200 
ARM GAS  /tmp/ccYuBRwd.s 			page 68


 3479              	.LASF193:
 3480 07aa 5F70616C 		.ascii	"_pal_lld_setgroupmode\000"
 3480      5F6C6C64 
 3480      5F736574 
 3480      67726F75 
 3480      706D6F64 
 3481              	.LASF20:
 3482 07c0 7274636E 		.ascii	"rtcnt_t\000"
 3482      745F7400 
 3483              	.LASF72:
 3484 07c8 76745F70 		.ascii	"vt_par\000"
 3484      617200
 3485              	.LASF186:
 3486 07cf 50414C43 		.ascii	"PALConfig\000"
 3486      6F6E6669 
 3486      6700
 3487              	.LASF115:
 3488 07d9 53534347 		.ascii	"SSCGR\000"
 3488      5200
 3489              	.LASF55:
 3490 07df 74687265 		.ascii	"threads_queue_t\000"
 3490      6164735F 
 3490      71756575 
 3490      655F7400 
 3491              	.LASF153:
 3492 07ef 63685F6D 		.ascii	"ch_mutex\000"
 3492      75746578 
 3492      00
 3493              	.LASF42:
 3494 07f8 705F7265 		.ascii	"p_refs\000"
 3494      667300
 3495              	.LASF79:
 3496 07ff 6973725F 		.ascii	"isr_cnt\000"
 3496      636E7400 
 3497              	.LASF192:
 3498 0807 5F70616C 		.ascii	"_pal_lld_init\000"
 3498      5F6C6C64 
 3498      5F696E69 
 3498      7400
 3499              	.LASF113:
 3500 0815 42444352 		.ascii	"BDCR\000"
 3500      00
 3501              	.LASF84:
 3502 081a 726C6973 		.ascii	"rlist\000"
 3502      7400
 3503              	.LASF15:
 3504 0820 75696E74 		.ascii	"uint8_t\000"
 3504      385F7400 
 3505              	.LASF173:
 3506 0828 70757064 		.ascii	"pupdr\000"
 3506      7200
 3507              	.LASF145:
 3508 082e 77746F62 		.ascii	"wtobjp\000"
 3508      6A7000
 3509              	.LASF38:
 3510 0835 705F6E61 		.ascii	"p_name\000"
 3510      6D6500
ARM GAS  /tmp/ccYuBRwd.s 			page 69


 3511              	.LASF99:
 3512 083c 41484231 		.ascii	"AHB1ENR\000"
 3512      454E5200 
 3513              	.LASF179:
 3514 0844 50434461 		.ascii	"PCData\000"
 3514      746100
 3515              	.LASF91:
 3516 084b 43464752 		.ascii	"CFGR\000"
 3516      00
 3517              	.LASF81:
 3518 0850 74726163 		.ascii	"trace_buffer\000"
 3518      655F6275 
 3518      66666572 
 3518      00
 3519              	.LASF45:
 3520 085d 705F6D73 		.ascii	"p_msg\000"
 3520      6700
 3521              	.LASF182:
 3522 0863 50464461 		.ascii	"PFData\000"
 3522      746100
 3523              	.LASF188:
 3524 086a 696F6D6F 		.ascii	"iomode_t\000"
 3524      64655F74 
 3524      00
 3525              	.LASF140:
 3526 0873 6D5F6372 		.ascii	"m_crit_thd\000"
 3526      69745F74 
 3526      686400
 3527              	.LASF155:
 3528 087e 6D5F6F77 		.ascii	"m_owner\000"
 3528      6E657200 
 3529              	.LASF124:
 3530 0886 73655F77 		.ascii	"se_wtobjp\000"
 3530      746F626A 
 3530      7000
 3531              	.LASF35:
 3532 0890 705F6374 		.ascii	"p_ctx\000"
 3532      7800
 3533              	.LASF71:
 3534 0896 76745F66 		.ascii	"vt_func\000"
 3534      756E6300 
 3535              		.ident	"GCC: (GNU Tools for ARM Embedded Processors) 5.3.1 20160307 (release) [ARM/embedded-5-bran
ARM GAS  /tmp/ccYuBRwd.s 			page 70


DEFINED SYMBOLS
                            *ABS*:0000000000000000 pal_lld.c
     /tmp/ccYuBRwd.s:20     .text._pal_lld_init:0000000000000000 $t
     /tmp/ccYuBRwd.s:26     .text._pal_lld_init:0000000000000000 _pal_lld_init
     /tmp/ccYuBRwd.s:322    .text._pal_lld_init:0000000000000198 $d
     /tmp/ccYuBRwd.s:331    .text._pal_lld_setgroupmode:0000000000000000 $t
     /tmp/ccYuBRwd.s:337    .text._pal_lld_setgroupmode:0000000000000000 _pal_lld_setgroupmode
                     .debug_frame:0000000000000010 $d

NO UNDEFINED SYMBOLS
