ARM GAS  /tmp/ccxcP7zP.s 			page 1


   1              		.syntax unified
   2              		.cpu cortex-m4
   3              		.fpu softvfp
   4              		.eabi_attribute 20, 1
   5              		.eabi_attribute 21, 1
   6              		.eabi_attribute 23, 3
   7              		.eabi_attribute 24, 1
   8              		.eabi_attribute 25, 1
   9              		.eabi_attribute 26, 1
  10              		.eabi_attribute 30, 2
  11              		.eabi_attribute 34, 1
  12              		.eabi_attribute 18, 4
  13              		.thumb
  14              		.syntax unified
  15              		.file	"st.c"
  16              		.text
  17              	.Ltext0:
  18              		.cfi_sections	.debug_frame
  19              		.section	.text.stInit,"ax",%progbits
  20              		.align	2
  21              		.p2align 4,,15
  22              		.global	stInit
  23              		.thumb
  24              		.thumb_func
  25              		.type	stInit, %function
  26              	stInit:
  27              	.LFB258:
  28              		.file 1 "/home/selim/working/ChibiOS/os/hal/src/st.c"
  29              		.loc 1 60 0
  30              		.cfi_startproc
  31              		@ args = 0, pretend = 0, frame = 0
  32              		@ frame_needed = 0, uses_anonymous_args = 0
  33              		@ link register save eliminated.
  34              		.loc 1 62 0
  35 0000 FFF7FEBF 		b	st_lld_init
  36              	.LVL0:
  37              		.cfi_endproc
  38              	.LFE258:
  39              		.size	stInit, .-stInit
  40              		.section	.text.stStartAlarm,"ax",%progbits
  41              		.align	2
  42              		.p2align 4,,15
  43              		.global	stStartAlarm
  44              		.thumb
  45              		.thumb_func
  46              		.type	stStartAlarm, %function
  47              	stStartAlarm:
  48              	.LFB259:
  49              		.loc 1 77 0
  50              		.cfi_startproc
  51              		@ args = 0, pretend = 0, frame = 0
  52              		@ frame_needed = 0, uses_anonymous_args = 0
  53              	.LVL1:
  54              	.LBB16:
  55              	.LBB17:
  56              		.file 2 "/home/selim/working/ChibiOS/os/hal/ports/STM32/LLD/TIMv1/st_lld.h"
  57              		.loc 2 193 0
ARM GAS  /tmp/ccxcP7zP.s 			page 2


  58 0000 4FF08043 		mov	r3, #1073741824
  59              	.LBE17:
  60              	.LBE16:
  61              		.loc 1 77 0
  62 0004 10B5     		push	{r4, lr}
  63              		.cfi_def_cfa_offset 8
  64              		.cfi_offset 4, -8
  65              		.cfi_offset 14, -4
  66              	.LBB19:
  67              	.LBB18:
  68              		.loc 2 193 0
  69 0006 DB68     		ldr	r3, [r3, #12]
  70              	.LBE18:
  71              	.LBE19:
  72              		.loc 1 79 0
  73 0008 9B07     		lsls	r3, r3, #30
  74              		.loc 1 77 0
  75 000a 0446     		mov	r4, r0
  76              		.loc 1 79 0
  77 000c 02D5     		bpl	.L3
  78              		.loc 1 79 0 is_stmt 0 discriminator 2
  79 000e 0548     		ldr	r0, .L9
  80              	.LVL2:
  81 0010 FFF7FEFF 		bl	chSysHalt
  82              	.LVL3:
  83              	.L3:
  84              	.LBB20:
  85              	.LBB21:
  86              		.loc 2 143 0 is_stmt 1
  87 0014 4FF08043 		mov	r3, #1073741824
  88              		.loc 2 144 0
  89 0018 0021     		movs	r1, #0
  90              		.loc 2 145 0
  91 001a 0222     		movs	r2, #2
  92              		.loc 2 143 0
  93 001c 5C63     		str	r4, [r3, #52]
  94              		.loc 2 144 0
  95 001e 1961     		str	r1, [r3, #16]
  96              		.loc 2 145 0
  97 0020 DA60     		str	r2, [r3, #12]
  98              	.LVL4:
  99 0022 10BD     		pop	{r4, pc}
 100              	.LVL5:
 101              	.L10:
 102              		.align	2
 103              	.L9:
 104 0024 00000000 		.word	.LANCHOR0
 105              	.LBE21:
 106              	.LBE20:
 107              		.cfi_endproc
 108              	.LFE259:
 109              		.size	stStartAlarm, .-stStartAlarm
 110              		.section	.text.stStopAlarm,"ax",%progbits
 111              		.align	2
 112              		.p2align 4,,15
 113              		.global	stStopAlarm
 114              		.thumb
ARM GAS  /tmp/ccxcP7zP.s 			page 3


 115              		.thumb_func
 116              		.type	stStopAlarm, %function
 117              	stStopAlarm:
 118              	.LFB260:
 119              		.loc 1 91 0
 120              		.cfi_startproc
 121              		@ args = 0, pretend = 0, frame = 0
 122              		@ frame_needed = 0, uses_anonymous_args = 0
 123              		@ link register save eliminated.
 124              	.LBB22:
 125              	.LBB23:
 126              		.loc 2 155 0
 127 0000 4FF08043 		mov	r3, #1073741824
 128 0004 0022     		movs	r2, #0
 129 0006 DA60     		str	r2, [r3, #12]
 130 0008 7047     		bx	lr
 131              	.LBE23:
 132              	.LBE22:
 133              		.cfi_endproc
 134              	.LFE260:
 135              		.size	stStopAlarm, .-stStopAlarm
 136              		.section	.text.stSetAlarm,"ax",%progbits
 137              		.align	2
 138              		.p2align 4,,15
 139              		.global	stSetAlarm
 140              		.thumb
 141              		.thumb_func
 142              		.type	stSetAlarm, %function
 143              	stSetAlarm:
 144              	.LFB261:
 145              		.loc 1 105 0
 146              		.cfi_startproc
 147              		@ args = 0, pretend = 0, frame = 0
 148              		@ frame_needed = 0, uses_anonymous_args = 0
 149              	.LVL6:
 150              	.LBB24:
 151              	.LBB25:
 152              		.loc 2 193 0
 153 0000 4FF08043 		mov	r3, #1073741824
 154              	.LBE25:
 155              	.LBE24:
 156              		.loc 1 105 0
 157 0004 10B5     		push	{r4, lr}
 158              		.cfi_def_cfa_offset 8
 159              		.cfi_offset 4, -8
 160              		.cfi_offset 14, -4
 161              	.LBB27:
 162              	.LBB26:
 163              		.loc 2 193 0
 164 0006 DB68     		ldr	r3, [r3, #12]
 165              	.LBE26:
 166              	.LBE27:
 167              		.loc 1 107 0
 168 0008 9B07     		lsls	r3, r3, #30
 169              		.loc 1 105 0
 170 000a 0446     		mov	r4, r0
 171              		.loc 1 107 0
ARM GAS  /tmp/ccxcP7zP.s 			page 4


 172 000c 02D4     		bmi	.L13
 173              		.loc 1 107 0 is_stmt 0 discriminator 2
 174 000e 0348     		ldr	r0, .L15
 175              	.LVL7:
 176 0010 FFF7FEFF 		bl	chSysHalt
 177              	.LVL8:
 178              	.L13:
 179              	.LBB28:
 180              	.LBB29:
 181              		.loc 2 167 0 is_stmt 1
 182 0014 4FF08043 		mov	r3, #1073741824
 183 0018 5C63     		str	r4, [r3, #52]
 184              	.LVL9:
 185 001a 10BD     		pop	{r4, pc}
 186              	.LVL10:
 187              	.L16:
 188              		.align	2
 189              	.L15:
 190 001c 00000000 		.word	.LANCHOR1
 191              	.LBE29:
 192              	.LBE28:
 193              		.cfi_endproc
 194              	.LFE261:
 195              		.size	stSetAlarm, .-stSetAlarm
 196              		.section	.text.stGetAlarm,"ax",%progbits
 197              		.align	2
 198              		.p2align 4,,15
 199              		.global	stGetAlarm
 200              		.thumb
 201              		.thumb_func
 202              		.type	stGetAlarm, %function
 203              	stGetAlarm:
 204              	.LFB262:
 205              		.loc 1 121 0
 206              		.cfi_startproc
 207              		@ args = 0, pretend = 0, frame = 0
 208              		@ frame_needed = 0, uses_anonymous_args = 0
 209 0000 08B5     		push	{r3, lr}
 210              		.cfi_def_cfa_offset 8
 211              		.cfi_offset 3, -8
 212              		.cfi_offset 14, -4
 213              	.LBB30:
 214              	.LBB31:
 215              		.loc 2 193 0
 216 0002 4FF08043 		mov	r3, #1073741824
 217 0006 DB68     		ldr	r3, [r3, #12]
 218              	.LBE31:
 219              	.LBE30:
 220              		.loc 1 123 0
 221 0008 9B07     		lsls	r3, r3, #30
 222 000a 02D4     		bmi	.L18
 223              		.loc 1 123 0 is_stmt 0 discriminator 2
 224 000c 0348     		ldr	r0, .L20
 225 000e FFF7FEFF 		bl	chSysHalt
 226              	.LVL11:
 227              	.L18:
 228              	.LBB32:
ARM GAS  /tmp/ccxcP7zP.s 			page 5


 229              	.LBB33:
 230              		.loc 2 179 0 is_stmt 1
 231 0012 4FF08043 		mov	r3, #1073741824
 232 0016 586B     		ldr	r0, [r3, #52]
 233              	.LBE33:
 234              	.LBE32:
 235              		.loc 1 126 0
 236 0018 08BD     		pop	{r3, pc}
 237              	.L21:
 238 001a 00BF     		.align	2
 239              	.L20:
 240 001c 00000000 		.word	.LANCHOR2
 241              		.cfi_endproc
 242              	.LFE262:
 243              		.size	stGetAlarm, .-stGetAlarm
 244              		.section	.rodata.__func__.7104,"a",%progbits
 245              		.align	2
 246              		.set	.LANCHOR0,. + 0
 247              		.type	__func__.7104, %object
 248              		.size	__func__.7104, 13
 249              	__func__.7104:
 250 0000 73745374 		.ascii	"stStartAlarm\000"
 250      61727441 
 250      6C61726D 
 250      00
 251              		.section	.rodata.__func__.7111,"a",%progbits
 252              		.align	2
 253              		.set	.LANCHOR1,. + 0
 254              		.type	__func__.7111, %object
 255              		.size	__func__.7111, 11
 256              	__func__.7111:
 257 0000 73745365 		.ascii	"stSetAlarm\000"
 257      74416C61 
 257      726D00
 258              		.section	.rodata.__func__.7115,"a",%progbits
 259              		.align	2
 260              		.set	.LANCHOR2,. + 0
 261              		.type	__func__.7115, %object
 262              		.size	__func__.7115, 11
 263              	__func__.7115:
 264 0000 73744765 		.ascii	"stGetAlarm\000"
 264      74416C61 
 264      726D00
 265              		.text
 266              	.Letext0:
 267              		.file 3 "/usr/arm-none-eabi/include/machine/_default_types.h"
 268              		.file 4 "/usr/arm-none-eabi/include/sys/_stdint.h"
 269              		.file 5 "/home/selim/working/ChibiOS/os/rt/ports/ARMCMx/compilers/GCC/chtypes.h"
 270              		.file 6 "/home/selim/working/ChibiOS/os/rt/include/chsystypes.h"
 271              		.file 7 "/home/selim/working/ChibiOS/os/rt/include/chschd.h"
 272              		.file 8 "/home/selim/working/ChibiOS/os/rt/ports/ARMCMx/chcore.h"
 273              		.file 9 "/home/selim/working/ChibiOS/os/rt/ports/ARMCMx/chcore_v7m.h"
 274              		.file 10 "/home/selim/working/ChibiOS/os/hal/ports/STM32/LLD/TIMv1/stm32_tim.h"
 275              		.file 11 "/home/selim/working/ChibiOS/os/rt/include/chdebug.h"
 276              		.file 12 "/home/selim/working/ChibiOS/os/rt/include/chtm.h"
 277              		.file 13 "/home/selim/working/ChibiOS/os/rt/include/chstats.h"
 278              		.file 14 "/home/selim/working/ChibiOS/os/rt/include/chsem.h"
ARM GAS  /tmp/ccxcP7zP.s 			page 6


 279              		.file 15 "/home/selim/working/ChibiOS/os/rt/include/chmtx.h"
 280              		.file 16 "/home/selim/working/ChibiOS/os/rt/include/chsys.h"
 281              		.file 17 "/home/selim/working/ChibiOS/os/ext/CMSIS/include/core_cm4.h"