ARM GAS  /tmp/ccVnOher.s 			page 1


   1              		.syntax unified
   2              		.cpu cortex-m4
   3              		.fpu softvfp
   4              		.eabi_attribute 20, 1
   5              		.eabi_attribute 21, 1
   6              		.eabi_attribute 23, 3
   7              		.eabi_attribute 24, 1
   8              		.eabi_attribute 25, 1
   9              		.eabi_attribute 26, 1
  10              		.eabi_attribute 30, 2
  11              		.eabi_attribute 34, 1
  12              		.eabi_attribute 18, 4
  13              		.thumb
  14              		.syntax unified
  15              		.file	"stm32_dma.c"
  16              		.text
  17              	.Ltext0:
  18              		.cfi_sections	.debug_frame
  19              		.section	.text.Vector6C,"ax",%progbits
  20              		.align	2
  21              		.p2align 4,,15
  22              		.global	Vector6C
  23              		.thumb
  24              		.thumb_func
  25              		.type	Vector6C, %function
  26              	Vector6C:
  27              	.LFB258:
  28              		.file 1 "/home/selim/working/ChibiOS/os/hal/ports/STM32/STM32F4xx/stm32_dma.c"
  29              		.loc 1 127 0
  30              		.cfi_startproc
  31              		@ args = 0, pretend = 0, frame = 0
  32              		@ frame_needed = 0, uses_anonymous_args = 0
  33 0000 08B5     		push	{r3, lr}
  34              		.cfi_def_cfa_offset 8
  35              		.cfi_offset 3, -8
  36              		.cfi_offset 14, -4
  37              		.loc 1 130 0
  38 0002 FFF7FEFF 		bl	_stats_increase_irq
  39              	.LVL0:
  40 0006 FFF7FEFF 		bl	_dbg_check_enter_isr
  41              	.LVL1:
  42              		.loc 1 132 0
  43 000a 084B     		ldr	r3, .L8
  44              		.loc 1 134 0
  45 000c 084A     		ldr	r2, .L8+4
  46              		.loc 1 132 0
  47 000e 1968     		ldr	r1, [r3]
  48 0010 01F03D01 		and	r1, r1, #61
  49              	.LVL2:
  50              		.loc 1 133 0
  51 0014 9960     		str	r1, [r3, #8]
  52              		.loc 1 134 0
  53 0016 1368     		ldr	r3, [r2]
  54 0018 0BB1     		cbz	r3, .L2
  55              		.loc 1 135 0
  56 001a 5068     		ldr	r0, [r2, #4]
  57 001c 9847     		blx	r3
ARM GAS  /tmp/ccVnOher.s 			page 2


  58              	.LVL3:
  59              	.L2:
  60              		.loc 1 137 0
  61 001e FFF7FEFF 		bl	_dbg_check_leave_isr
  62              	.LVL4:
  63              		.loc 1 138 0
  64 0022 BDE80840 		pop	{r3, lr}
  65              		.cfi_restore 14
  66              		.cfi_restore 3
  67              		.cfi_def_cfa_offset 0
  68              		.loc 1 137 0
  69 0026 FFF7FEBF 		b	_port_irq_epilogue
  70              	.LVL5:
  71              	.L9:
  72 002a 00BF     		.align	2
  73              	.L8:
  74 002c 00600240 		.word	1073897472
  75 0030 00000000 		.word	.LANCHOR0
  76              		.cfi_endproc
  77              	.LFE258:
  78              		.size	Vector6C, .-Vector6C
  79              		.section	.text.Vector70,"ax",%progbits
  80              		.align	2
  81              		.p2align 4,,15
  82              		.global	Vector70
  83              		.thumb
  84              		.thumb_func
  85              		.type	Vector70, %function
  86              	Vector70:
  87              	.LFB259:
  88              		.loc 1 145 0
  89              		.cfi_startproc
  90              		@ args = 0, pretend = 0, frame = 0
  91              		@ frame_needed = 0, uses_anonymous_args = 0
  92 0000 10B5     		push	{r4, lr}
  93              		.cfi_def_cfa_offset 8
  94              		.cfi_offset 4, -8
  95              		.cfi_offset 14, -4
  96              		.loc 1 148 0
  97 0002 FFF7FEFF 		bl	_stats_increase_irq
  98              	.LVL6:
  99 0006 FFF7FEFF 		bl	_dbg_check_enter_isr
 100              	.LVL7:
 101              		.loc 1 150 0
 102 000a 094B     		ldr	r3, .L16
 103              		.loc 1 152 0
 104 000c 0948     		ldr	r0, .L16+4
 105              		.loc 1 150 0
 106 000e 1968     		ldr	r1, [r3]
 107              		.loc 1 152 0
 108 0010 8268     		ldr	r2, [r0, #8]
 109              		.loc 1 150 0
 110 0012 8909     		lsrs	r1, r1, #6
 111 0014 01F03D01 		and	r1, r1, #61
 112              	.LVL8:
 113              		.loc 1 151 0
 114 0018 8C01     		lsls	r4, r1, #6
ARM GAS  /tmp/ccVnOher.s 			page 3


 115 001a 9C60     		str	r4, [r3, #8]
 116              		.loc 1 152 0
 117 001c 0AB1     		cbz	r2, .L11
 118              		.loc 1 153 0
 119 001e C068     		ldr	r0, [r0, #12]
 120 0020 9047     		blx	r2
 121              	.LVL9:
 122              	.L11:
 123              		.loc 1 155 0
 124 0022 FFF7FEFF 		bl	_dbg_check_leave_isr
 125              	.LVL10:
 126              		.loc 1 156 0
 127 0026 BDE81040 		pop	{r4, lr}
 128              		.cfi_restore 14
 129              		.cfi_restore 4
 130              		.cfi_def_cfa_offset 0
 131              		.loc 1 155 0
 132 002a FFF7FEBF 		b	_port_irq_epilogue
 133              	.LVL11:
 134              	.L17:
 135 002e 00BF     		.align	2
 136              	.L16:
 137 0030 00600240 		.word	1073897472
 138 0034 00000000 		.word	.LANCHOR0
 139              		.cfi_endproc
 140              	.LFE259:
 141              		.size	Vector70, .-Vector70
 142              		.section	.text.Vector74,"ax",%progbits
 143              		.align	2
 144              		.p2align 4,,15
 145              		.global	Vector74
 146              		.thumb
 147              		.thumb_func
 148              		.type	Vector74, %function
 149              	Vector74:
 150              	.LFB260:
 151              		.loc 1 163 0
 152              		.cfi_startproc
 153              		@ args = 0, pretend = 0, frame = 0
 154              		@ frame_needed = 0, uses_anonymous_args = 0
 155 0000 10B5     		push	{r4, lr}
 156              		.cfi_def_cfa_offset 8
 157              		.cfi_offset 4, -8
 158              		.cfi_offset 14, -4
 159              		.loc 1 166 0
 160 0002 FFF7FEFF 		bl	_stats_increase_irq
 161              	.LVL12:
 162 0006 FFF7FEFF 		bl	_dbg_check_enter_isr
 163              	.LVL13:
 164              		.loc 1 168 0
 165 000a 094B     		ldr	r3, .L24
 166              		.loc 1 170 0
 167 000c 0948     		ldr	r0, .L24+4
 168              		.loc 1 168 0
 169 000e 1968     		ldr	r1, [r3]
 170              		.loc 1 170 0
 171 0010 0269     		ldr	r2, [r0, #16]
ARM GAS  /tmp/ccVnOher.s 			page 4


 172              		.loc 1 168 0
 173 0012 090C     		lsrs	r1, r1, #16
 174 0014 01F03D01 		and	r1, r1, #61
 175              	.LVL14:
 176              		.loc 1 169 0
 177 0018 0C04     		lsls	r4, r1, #16
 178 001a 9C60     		str	r4, [r3, #8]
 179              		.loc 1 170 0
 180 001c 0AB1     		cbz	r2, .L19
 181              		.loc 1 171 0
 182 001e 4069     		ldr	r0, [r0, #20]
 183 0020 9047     		blx	r2
 184              	.LVL15:
 185              	.L19:
 186              		.loc 1 173 0
 187 0022 FFF7FEFF 		bl	_dbg_check_leave_isr
 188              	.LVL16:
 189              		.loc 1 174 0
 190 0026 BDE81040 		pop	{r4, lr}
 191              		.cfi_restore 14
 192              		.cfi_restore 4
 193              		.cfi_def_cfa_offset 0
 194              		.loc 1 173 0
 195 002a FFF7FEBF 		b	_port_irq_epilogue
 196              	.LVL17:
 197              	.L25:
 198 002e 00BF     		.align	2
 199              	.L24:
 200 0030 00600240 		.word	1073897472
 201 0034 00000000 		.word	.LANCHOR0
 202              		.cfi_endproc
 203              	.LFE260:
 204              		.size	Vector74, .-Vector74
 205              		.section	.text.Vector78,"ax",%progbits
 206              		.align	2
 207              		.p2align 4,,15
 208              		.global	Vector78
 209              		.thumb
 210              		.thumb_func
 211              		.type	Vector78, %function
 212              	Vector78:
 213              	.LFB261:
 214              		.loc 1 181 0
 215              		.cfi_startproc
 216              		@ args = 0, pretend = 0, frame = 0
 217              		@ frame_needed = 0, uses_anonymous_args = 0
 218 0000 10B5     		push	{r4, lr}
 219              		.cfi_def_cfa_offset 8
 220              		.cfi_offset 4, -8
 221              		.cfi_offset 14, -4
 222              		.loc 1 184 0
 223 0002 FFF7FEFF 		bl	_stats_increase_irq
 224              	.LVL18:
 225 0006 FFF7FEFF 		bl	_dbg_check_enter_isr
 226              	.LVL19:
 227              		.loc 1 186 0
 228 000a 094B     		ldr	r3, .L32
ARM GAS  /tmp/ccVnOher.s 			page 5


 229              		.loc 1 188 0
 230 000c 0948     		ldr	r0, .L32+4
 231              		.loc 1 186 0
 232 000e 1968     		ldr	r1, [r3]
 233              		.loc 1 188 0
 234 0010 8269     		ldr	r2, [r0, #24]
 235              		.loc 1 186 0
 236 0012 890D     		lsrs	r1, r1, #22
 237 0014 01F03D01 		and	r1, r1, #61
 238              	.LVL20:
 239              		.loc 1 187 0
 240 0018 8C05     		lsls	r4, r1, #22
 241 001a 9C60     		str	r4, [r3, #8]
 242              		.loc 1 188 0
 243 001c 0AB1     		cbz	r2, .L27
 244              		.loc 1 189 0
 245 001e C069     		ldr	r0, [r0, #28]
 246 0020 9047     		blx	r2
 247              	.LVL21:
 248              	.L27:
 249              		.loc 1 191 0
 250 0022 FFF7FEFF 		bl	_dbg_check_leave_isr
 251              	.LVL22:
 252              		.loc 1 192 0
 253 0026 BDE81040 		pop	{r4, lr}
 254              		.cfi_restore 14
 255              		.cfi_restore 4
 256              		.cfi_def_cfa_offset 0
 257              		.loc 1 191 0
 258 002a FFF7FEBF 		b	_port_irq_epilogue
 259              	.LVL23:
 260              	.L33:
 261 002e 00BF     		.align	2
 262              	.L32:
 263 0030 00600240 		.word	1073897472
 264 0034 00000000 		.word	.LANCHOR0
 265              		.cfi_endproc
 266              	.LFE261:
 267              		.size	Vector78, .-Vector78
 268              		.section	.text.Vector7C,"ax",%progbits
 269              		.align	2
 270              		.p2align 4,,15
 271              		.global	Vector7C
 272              		.thumb
 273              		.thumb_func
 274              		.type	Vector7C, %function
 275              	Vector7C:
 276              	.LFB262:
 277              		.loc 1 199 0
 278              		.cfi_startproc
 279              		@ args = 0, pretend = 0, frame = 0
 280              		@ frame_needed = 0, uses_anonymous_args = 0
 281 0000 08B5     		push	{r3, lr}
 282              		.cfi_def_cfa_offset 8
 283              		.cfi_offset 3, -8
 284              		.cfi_offset 14, -4
 285              		.loc 1 202 0
ARM GAS  /tmp/ccVnOher.s 			page 6


 286 0002 FFF7FEFF 		bl	_stats_increase_irq
 287              	.LVL24:
 288 0006 FFF7FEFF 		bl	_dbg_check_enter_isr
 289              	.LVL25:
 290              		.loc 1 204 0
 291 000a 084B     		ldr	r3, .L40
 292              		.loc 1 206 0
 293 000c 0848     		ldr	r0, .L40+4
 294              		.loc 1 204 0
 295 000e 5968     		ldr	r1, [r3, #4]
 296              		.loc 1 206 0
 297 0010 026A     		ldr	r2, [r0, #32]
 298              		.loc 1 204 0
 299 0012 01F03D01 		and	r1, r1, #61
 300              	.LVL26:
 301              		.loc 1 205 0
 302 0016 D960     		str	r1, [r3, #12]
 303              		.loc 1 206 0
 304 0018 0AB1     		cbz	r2, .L35
 305              		.loc 1 207 0
 306 001a 406A     		ldr	r0, [r0, #36]
 307 001c 9047     		blx	r2
 308              	.LVL27:
 309              	.L35:
 310              		.loc 1 209 0
 311 001e FFF7FEFF 		bl	_dbg_check_leave_isr
 312              	.LVL28:
 313              		.loc 1 210 0
 314 0022 BDE80840 		pop	{r3, lr}
 315              		.cfi_restore 14
 316              		.cfi_restore 3
 317              		.cfi_def_cfa_offset 0
 318              		.loc 1 209 0
 319 0026 FFF7FEBF 		b	_port_irq_epilogue
 320              	.LVL29:
 321              	.L41:
 322 002a 00BF     		.align	2
 323              	.L40:
 324 002c 00600240 		.word	1073897472
 325 0030 00000000 		.word	.LANCHOR0
 326              		.cfi_endproc
 327              	.LFE262:
 328              		.size	Vector7C, .-Vector7C
 329              		.section	.text.Vector80,"ax",%progbits
 330              		.align	2
 331              		.p2align 4,,15
 332              		.global	Vector80
 333              		.thumb
 334              		.thumb_func
 335              		.type	Vector80, %function
 336              	Vector80:
 337              	.LFB263:
 338              		.loc 1 217 0
 339              		.cfi_startproc
 340              		@ args = 0, pretend = 0, frame = 0
 341              		@ frame_needed = 0, uses_anonymous_args = 0
 342 0000 10B5     		push	{r4, lr}
ARM GAS  /tmp/ccVnOher.s 			page 7


 343              		.cfi_def_cfa_offset 8
 344              		.cfi_offset 4, -8
 345              		.cfi_offset 14, -4
 346              		.loc 1 220 0
 347 0002 FFF7FEFF 		bl	_stats_increase_irq
 348              	.LVL30:
 349 0006 FFF7FEFF 		bl	_dbg_check_enter_isr
 350              	.LVL31:
 351              		.loc 1 222 0
 352 000a 094B     		ldr	r3, .L48
 353              		.loc 1 224 0
 354 000c 0948     		ldr	r0, .L48+4
 355              		.loc 1 222 0
 356 000e 5968     		ldr	r1, [r3, #4]
 357              		.loc 1 224 0
 358 0010 826A     		ldr	r2, [r0, #40]
 359              		.loc 1 222 0
 360 0012 8909     		lsrs	r1, r1, #6
 361 0014 01F03D01 		and	r1, r1, #61
 362              	.LVL32:
 363              		.loc 1 223 0
 364 0018 8C01     		lsls	r4, r1, #6
 365 001a DC60     		str	r4, [r3, #12]
 366              		.loc 1 224 0
 367 001c 0AB1     		cbz	r2, .L43
 368              		.loc 1 225 0
 369 001e C06A     		ldr	r0, [r0, #44]
 370 0020 9047     		blx	r2
 371              	.LVL33:
 372              	.L43:
 373              		.loc 1 227 0
 374 0022 FFF7FEFF 		bl	_dbg_check_leave_isr
 375              	.LVL34:
 376              		.loc 1 228 0
 377 0026 BDE81040 		pop	{r4, lr}
 378              		.cfi_restore 14
 379              		.cfi_restore 4
 380              		.cfi_def_cfa_offset 0
 381              		.loc 1 227 0
 382 002a FFF7FEBF 		b	_port_irq_epilogue
 383              	.LVL35:
 384              	.L49:
 385 002e 00BF     		.align	2
 386              	.L48:
 387 0030 00600240 		.word	1073897472
 388 0034 00000000 		.word	.LANCHOR0
 389              		.cfi_endproc
 390              	.LFE263:
 391              		.size	Vector80, .-Vector80
 392              		.section	.text.Vector84,"ax",%progbits
 393              		.align	2
 394              		.p2align 4,,15
 395              		.global	Vector84
 396              		.thumb
 397              		.thumb_func
 398              		.type	Vector84, %function
 399              	Vector84:
ARM GAS  /tmp/ccVnOher.s 			page 8


 400              	.LFB264:
 401              		.loc 1 235 0
 402              		.cfi_startproc
 403              		@ args = 0, pretend = 0, frame = 0
 404              		@ frame_needed = 0, uses_anonymous_args = 0
 405 0000 10B5     		push	{r4, lr}
 406              		.cfi_def_cfa_offset 8
 407              		.cfi_offset 4, -8
 408              		.cfi_offset 14, -4
 409              		.loc 1 238 0
 410 0002 FFF7FEFF 		bl	_stats_increase_irq
 411              	.LVL36:
 412 0006 FFF7FEFF 		bl	_dbg_check_enter_isr
 413              	.LVL37:
 414              		.loc 1 240 0
 415 000a 094B     		ldr	r3, .L56
 416              		.loc 1 242 0
 417 000c 0948     		ldr	r0, .L56+4
 418              		.loc 1 240 0
 419 000e 5968     		ldr	r1, [r3, #4]
 420              		.loc 1 242 0
 421 0010 026B     		ldr	r2, [r0, #48]
 422              		.loc 1 240 0
 423 0012 090C     		lsrs	r1, r1, #16
 424 0014 01F03D01 		and	r1, r1, #61
 425              	.LVL38:
 426              		.loc 1 241 0
 427 0018 0C04     		lsls	r4, r1, #16
 428 001a DC60     		str	r4, [r3, #12]
 429              		.loc 1 242 0
 430 001c 0AB1     		cbz	r2, .L51
 431              		.loc 1 243 0
 432 001e 406B     		ldr	r0, [r0, #52]
 433 0020 9047     		blx	r2
 434              	.LVL39:
 435              	.L51:
 436              		.loc 1 245 0
 437 0022 FFF7FEFF 		bl	_dbg_check_leave_isr
 438              	.LVL40:
 439              		.loc 1 246 0
 440 0026 BDE81040 		pop	{r4, lr}
 441              		.cfi_restore 14
 442              		.cfi_restore 4
 443              		.cfi_def_cfa_offset 0
 444              		.loc 1 245 0
 445 002a FFF7FEBF 		b	_port_irq_epilogue
 446              	.LVL41:
 447              	.L57:
 448 002e 00BF     		.align	2
 449              	.L56:
 450 0030 00600240 		.word	1073897472
 451 0034 00000000 		.word	.LANCHOR0
 452              		.cfi_endproc
 453              	.LFE264:
 454              		.size	Vector84, .-Vector84
 455              		.section	.text.VectorFC,"ax",%progbits
 456              		.align	2
ARM GAS  /tmp/ccVnOher.s 			page 9


 457              		.p2align 4,,15
 458              		.global	VectorFC
 459              		.thumb
 460              		.thumb_func
 461              		.type	VectorFC, %function
 462              	VectorFC:
 463              	.LFB265:
 464              		.loc 1 253 0
 465              		.cfi_startproc
 466              		@ args = 0, pretend = 0, frame = 0
 467              		@ frame_needed = 0, uses_anonymous_args = 0
 468 0000 10B5     		push	{r4, lr}
 469              		.cfi_def_cfa_offset 8
 470              		.cfi_offset 4, -8
 471              		.cfi_offset 14, -4
 472              		.loc 1 256 0
 473 0002 FFF7FEFF 		bl	_stats_increase_irq
 474              	.LVL42:
 475 0006 FFF7FEFF 		bl	_dbg_check_enter_isr
 476              	.LVL43:
 477              		.loc 1 258 0
 478 000a 094B     		ldr	r3, .L64
 479              		.loc 1 260 0
 480 000c 0948     		ldr	r0, .L64+4
 481              		.loc 1 258 0
 482 000e 5968     		ldr	r1, [r3, #4]
 483              		.loc 1 260 0
 484 0010 826B     		ldr	r2, [r0, #56]
 485              		.loc 1 258 0
 486 0012 890D     		lsrs	r1, r1, #22
 487 0014 01F03D01 		and	r1, r1, #61
 488              	.LVL44:
 489              		.loc 1 259 0
 490 0018 8C05     		lsls	r4, r1, #22
 491 001a DC60     		str	r4, [r3, #12]
 492              		.loc 1 260 0
 493 001c 0AB1     		cbz	r2, .L59
 494              		.loc 1 261 0
 495 001e C06B     		ldr	r0, [r0, #60]
 496 0020 9047     		blx	r2
 497              	.LVL45:
 498              	.L59:
 499              		.loc 1 263 0
 500 0022 FFF7FEFF 		bl	_dbg_check_leave_isr
 501              	.LVL46:
 502              		.loc 1 264 0
 503 0026 BDE81040 		pop	{r4, lr}
 504              		.cfi_restore 14
 505              		.cfi_restore 4
 506              		.cfi_def_cfa_offset 0
 507              		.loc 1 263 0
 508 002a FFF7FEBF 		b	_port_irq_epilogue
 509              	.LVL47:
 510              	.L65:
 511 002e 00BF     		.align	2
 512              	.L64:
 513 0030 00600240 		.word	1073897472
ARM GAS  /tmp/ccVnOher.s 			page 10


 514 0034 00000000 		.word	.LANCHOR0
 515              		.cfi_endproc
 516              	.LFE265:
 517              		.size	VectorFC, .-VectorFC
 518              		.section	.text.Vector120,"ax",%progbits
 519              		.align	2
 520              		.p2align 4,,15
 521              		.global	Vector120
 522              		.thumb
 523              		.thumb_func
 524              		.type	Vector120, %function
 525              	Vector120:
 526              	.LFB266:
 527              		.loc 1 271 0
 528              		.cfi_startproc
 529              		@ args = 0, pretend = 0, frame = 0
 530              		@ frame_needed = 0, uses_anonymous_args = 0
 531 0000 08B5     		push	{r3, lr}
 532              		.cfi_def_cfa_offset 8
 533              		.cfi_offset 3, -8
 534              		.cfi_offset 14, -4
 535              		.loc 1 274 0
 536 0002 FFF7FEFF 		bl	_stats_increase_irq
 537              	.LVL48:
 538 0006 FFF7FEFF 		bl	_dbg_check_enter_isr
 539              	.LVL49:
 540              		.loc 1 276 0
 541 000a 084B     		ldr	r3, .L72
 542              		.loc 1 278 0
 543 000c 0848     		ldr	r0, .L72+4
 544              		.loc 1 276 0
 545 000e 1968     		ldr	r1, [r3]
 546              		.loc 1 278 0
 547 0010 026C     		ldr	r2, [r0, #64]
 548              		.loc 1 276 0
 549 0012 01F03D01 		and	r1, r1, #61
 550              	.LVL50:
 551              		.loc 1 277 0
 552 0016 9960     		str	r1, [r3, #8]
 553              		.loc 1 278 0
 554 0018 0AB1     		cbz	r2, .L67
 555              		.loc 1 279 0
 556 001a 406C     		ldr	r0, [r0, #68]
 557 001c 9047     		blx	r2
 558              	.LVL51:
 559              	.L67:
 560              		.loc 1 281 0
 561 001e FFF7FEFF 		bl	_dbg_check_leave_isr
 562              	.LVL52:
 563              		.loc 1 282 0
 564 0022 BDE80840 		pop	{r3, lr}
 565              		.cfi_restore 14
 566              		.cfi_restore 3
 567              		.cfi_def_cfa_offset 0
 568              		.loc 1 281 0
 569 0026 FFF7FEBF 		b	_port_irq_epilogue
 570              	.LVL53:
ARM GAS  /tmp/ccVnOher.s 			page 11


 571              	.L73:
 572 002a 00BF     		.align	2
 573              	.L72:
 574 002c 00640240 		.word	1073898496
 575 0030 00000000 		.word	.LANCHOR0
 576              		.cfi_endproc
 577              	.LFE266:
 578              		.size	Vector120, .-Vector120
 579              		.section	.text.Vector124,"ax",%progbits
 580              		.align	2
 581              		.p2align 4,,15
 582              		.global	Vector124
 583              		.thumb
 584              		.thumb_func
 585              		.type	Vector124, %function
 586              	Vector124:
 587              	.LFB267:
 588              		.loc 1 289 0
 589              		.cfi_startproc
 590              		@ args = 0, pretend = 0, frame = 0
 591              		@ frame_needed = 0, uses_anonymous_args = 0
 592 0000 10B5     		push	{r4, lr}
 593              		.cfi_def_cfa_offset 8
 594              		.cfi_offset 4, -8
 595              		.cfi_offset 14, -4
 596              		.loc 1 292 0
 597 0002 FFF7FEFF 		bl	_stats_increase_irq
 598              	.LVL54:
 599 0006 FFF7FEFF 		bl	_dbg_check_enter_isr
 600              	.LVL55:
 601              		.loc 1 294 0
 602 000a 094B     		ldr	r3, .L80
 603              		.loc 1 296 0
 604 000c 0948     		ldr	r0, .L80+4
 605              		.loc 1 294 0
 606 000e 1968     		ldr	r1, [r3]
 607              		.loc 1 296 0
 608 0010 826C     		ldr	r2, [r0, #72]
 609              		.loc 1 294 0
 610 0012 8909     		lsrs	r1, r1, #6
 611 0014 01F03D01 		and	r1, r1, #61
 612              	.LVL56:
 613              		.loc 1 295 0
 614 0018 8C01     		lsls	r4, r1, #6
 615 001a 9C60     		str	r4, [r3, #8]
 616              		.loc 1 296 0
 617 001c 0AB1     		cbz	r2, .L75
 618              		.loc 1 297 0
 619 001e C06C     		ldr	r0, [r0, #76]
 620 0020 9047     		blx	r2
 621              	.LVL57:
 622              	.L75:
 623              		.loc 1 299 0
 624 0022 FFF7FEFF 		bl	_dbg_check_leave_isr
 625              	.LVL58:
 626              		.loc 1 300 0
 627 0026 BDE81040 		pop	{r4, lr}
ARM GAS  /tmp/ccVnOher.s 			page 12


 628              		.cfi_restore 14
 629              		.cfi_restore 4
 630              		.cfi_def_cfa_offset 0
 631              		.loc 1 299 0
 632 002a FFF7FEBF 		b	_port_irq_epilogue
 633              	.LVL59:
 634              	.L81:
 635 002e 00BF     		.align	2
 636              	.L80:
 637 0030 00640240 		.word	1073898496
 638 0034 00000000 		.word	.LANCHOR0
 639              		.cfi_endproc
 640              	.LFE267:
 641              		.size	Vector124, .-Vector124
 642              		.section	.text.Vector128,"ax",%progbits
 643              		.align	2
 644              		.p2align 4,,15
 645              		.global	Vector128
 646              		.thumb
 647              		.thumb_func
 648              		.type	Vector128, %function
 649              	Vector128:
 650              	.LFB268:
 651              		.loc 1 307 0
 652              		.cfi_startproc
 653              		@ args = 0, pretend = 0, frame = 0
 654              		@ frame_needed = 0, uses_anonymous_args = 0
 655 0000 10B5     		push	{r4, lr}
 656              		.cfi_def_cfa_offset 8
 657              		.cfi_offset 4, -8
 658              		.cfi_offset 14, -4
 659              		.loc 1 310 0
 660 0002 FFF7FEFF 		bl	_stats_increase_irq
 661              	.LVL60:
 662 0006 FFF7FEFF 		bl	_dbg_check_enter_isr
 663              	.LVL61:
 664              		.loc 1 312 0
 665 000a 094B     		ldr	r3, .L88
 666              		.loc 1 314 0
 667 000c 0948     		ldr	r0, .L88+4
 668              		.loc 1 312 0
 669 000e 1968     		ldr	r1, [r3]
 670              		.loc 1 314 0
 671 0010 026D     		ldr	r2, [r0, #80]
 672              		.loc 1 312 0
 673 0012 090C     		lsrs	r1, r1, #16
 674 0014 01F03D01 		and	r1, r1, #61
 675              	.LVL62:
 676              		.loc 1 313 0
 677 0018 0C04     		lsls	r4, r1, #16
 678 001a 9C60     		str	r4, [r3, #8]
 679              		.loc 1 314 0
 680 001c 0AB1     		cbz	r2, .L83
 681              		.loc 1 315 0
 682 001e 406D     		ldr	r0, [r0, #84]
 683 0020 9047     		blx	r2
 684              	.LVL63:
ARM GAS  /tmp/ccVnOher.s 			page 13


 685              	.L83:
 686              		.loc 1 317 0
 687 0022 FFF7FEFF 		bl	_dbg_check_leave_isr
 688              	.LVL64:
 689              		.loc 1 318 0
 690 0026 BDE81040 		pop	{r4, lr}
 691              		.cfi_restore 14
 692              		.cfi_restore 4
 693              		.cfi_def_cfa_offset 0
 694              		.loc 1 317 0
 695 002a FFF7FEBF 		b	_port_irq_epilogue
 696              	.LVL65:
 697              	.L89:
 698 002e 00BF     		.align	2
 699              	.L88:
 700 0030 00640240 		.word	1073898496
 701 0034 00000000 		.word	.LANCHOR0
 702              		.cfi_endproc
 703              	.LFE268:
 704              		.size	Vector128, .-Vector128
 705              		.section	.text.Vector12C,"ax",%progbits
 706              		.align	2
 707              		.p2align 4,,15
 708              		.global	Vector12C
 709              		.thumb
 710              		.thumb_func
 711              		.type	Vector12C, %function
 712              	Vector12C:
 713              	.LFB269:
 714              		.loc 1 325 0
 715              		.cfi_startproc
 716              		@ args = 0, pretend = 0, frame = 0
 717              		@ frame_needed = 0, uses_anonymous_args = 0
 718 0000 10B5     		push	{r4, lr}
 719              		.cfi_def_cfa_offset 8
 720              		.cfi_offset 4, -8
 721              		.cfi_offset 14, -4
 722              		.loc 1 328 0
 723 0002 FFF7FEFF 		bl	_stats_increase_irq
 724              	.LVL66:
 725 0006 FFF7FEFF 		bl	_dbg_check_enter_isr
 726              	.LVL67:
 727              		.loc 1 330 0
 728 000a 094B     		ldr	r3, .L96
 729              		.loc 1 332 0
 730 000c 0948     		ldr	r0, .L96+4
 731              		.loc 1 330 0
 732 000e 1968     		ldr	r1, [r3]
 733              		.loc 1 332 0
 734 0010 826D     		ldr	r2, [r0, #88]
 735              		.loc 1 330 0
 736 0012 890D     		lsrs	r1, r1, #22
 737 0014 01F03D01 		and	r1, r1, #61
 738              	.LVL68:
 739              		.loc 1 331 0
 740 0018 8C05     		lsls	r4, r1, #22
 741 001a 9C60     		str	r4, [r3, #8]
ARM GAS  /tmp/ccVnOher.s 			page 14


 742              		.loc 1 332 0
 743 001c 0AB1     		cbz	r2, .L91
 744              		.loc 1 333 0
 745 001e C06D     		ldr	r0, [r0, #92]
 746 0020 9047     		blx	r2
 747              	.LVL69:
 748              	.L91:
 749              		.loc 1 335 0
 750 0022 FFF7FEFF 		bl	_dbg_check_leave_isr
 751              	.LVL70:
 752              		.loc 1 336 0
 753 0026 BDE81040 		pop	{r4, lr}
 754              		.cfi_restore 14
 755              		.cfi_restore 4
 756              		.cfi_def_cfa_offset 0
 757              		.loc 1 335 0
 758 002a FFF7FEBF 		b	_port_irq_epilogue
 759              	.LVL71:
 760              	.L97:
 761 002e 00BF     		.align	2
 762              	.L96:
 763 0030 00640240 		.word	1073898496
 764 0034 00000000 		.word	.LANCHOR0
 765              		.cfi_endproc
 766              	.LFE269:
 767              		.size	Vector12C, .-Vector12C
 768              		.section	.text.Vector130,"ax",%progbits
 769              		.align	2
 770              		.p2align 4,,15
 771              		.global	Vector130
 772              		.thumb
 773              		.thumb_func
 774              		.type	Vector130, %function
 775              	Vector130:
 776              	.LFB270:
 777              		.loc 1 343 0
 778              		.cfi_startproc
 779              		@ args = 0, pretend = 0, frame = 0
 780              		@ frame_needed = 0, uses_anonymous_args = 0
 781 0000 08B5     		push	{r3, lr}
 782              		.cfi_def_cfa_offset 8
 783              		.cfi_offset 3, -8
 784              		.cfi_offset 14, -4
 785              		.loc 1 346 0
 786 0002 FFF7FEFF 		bl	_stats_increase_irq
 787              	.LVL72:
 788 0006 FFF7FEFF 		bl	_dbg_check_enter_isr
 789              	.LVL73:
 790              		.loc 1 348 0
 791 000a 084B     		ldr	r3, .L104
 792              		.loc 1 350 0
 793 000c 0848     		ldr	r0, .L104+4
 794              		.loc 1 348 0
 795 000e 5968     		ldr	r1, [r3, #4]
 796              		.loc 1 350 0
 797 0010 026E     		ldr	r2, [r0, #96]
 798              		.loc 1 348 0
ARM GAS  /tmp/ccVnOher.s 			page 15


 799 0012 01F03D01 		and	r1, r1, #61
 800              	.LVL74:
 801              		.loc 1 349 0
 802 0016 D960     		str	r1, [r3, #12]
 803              		.loc 1 350 0
 804 0018 0AB1     		cbz	r2, .L99
 805              		.loc 1 351 0
 806 001a 406E     		ldr	r0, [r0, #100]
 807 001c 9047     		blx	r2
 808              	.LVL75:
 809              	.L99:
 810              		.loc 1 353 0
 811 001e FFF7FEFF 		bl	_dbg_check_leave_isr
 812              	.LVL76:
 813              		.loc 1 354 0
 814 0022 BDE80840 		pop	{r3, lr}
 815              		.cfi_restore 14
 816              		.cfi_restore 3
 817              		.cfi_def_cfa_offset 0
 818              		.loc 1 353 0
 819 0026 FFF7FEBF 		b	_port_irq_epilogue
 820              	.LVL77:
 821              	.L105:
 822 002a 00BF     		.align	2
 823              	.L104:
 824 002c 00640240 		.word	1073898496
 825 0030 00000000 		.word	.LANCHOR0
 826              		.cfi_endproc
 827              	.LFE270:
 828              		.size	Vector130, .-Vector130
 829              		.section	.text.Vector150,"ax",%progbits
 830              		.align	2
 831              		.p2align 4,,15
 832              		.global	Vector150
 833              		.thumb
 834              		.thumb_func
 835              		.type	Vector150, %function
 836              	Vector150:
 837              	.LFB271:
 838              		.loc 1 361 0
 839              		.cfi_startproc
 840              		@ args = 0, pretend = 0, frame = 0
 841              		@ frame_needed = 0, uses_anonymous_args = 0
 842 0000 10B5     		push	{r4, lr}
 843              		.cfi_def_cfa_offset 8
 844              		.cfi_offset 4, -8
 845              		.cfi_offset 14, -4
 846              		.loc 1 364 0
 847 0002 FFF7FEFF 		bl	_stats_increase_irq
 848              	.LVL78:
 849 0006 FFF7FEFF 		bl	_dbg_check_enter_isr
 850              	.LVL79:
 851              		.loc 1 366 0
 852 000a 094B     		ldr	r3, .L112
 853              		.loc 1 368 0
 854 000c 0948     		ldr	r0, .L112+4
 855              		.loc 1 366 0
ARM GAS  /tmp/ccVnOher.s 			page 16


 856 000e 5968     		ldr	r1, [r3, #4]
 857              		.loc 1 368 0
 858 0010 826E     		ldr	r2, [r0, #104]
 859              		.loc 1 366 0
 860 0012 8909     		lsrs	r1, r1, #6
 861 0014 01F03D01 		and	r1, r1, #61
 862              	.LVL80:
 863              		.loc 1 367 0
 864 0018 8C01     		lsls	r4, r1, #6
 865 001a DC60     		str	r4, [r3, #12]
 866              		.loc 1 368 0
 867 001c 0AB1     		cbz	r2, .L107
 868              		.loc 1 369 0
 869 001e C06E     		ldr	r0, [r0, #108]
 870 0020 9047     		blx	r2
 871              	.LVL81:
 872              	.L107:
 873              		.loc 1 371 0
 874 0022 FFF7FEFF 		bl	_dbg_check_leave_isr
 875              	.LVL82:
 876              		.loc 1 372 0
 877 0026 BDE81040 		pop	{r4, lr}
 878              		.cfi_restore 14
 879              		.cfi_restore 4
 880              		.cfi_def_cfa_offset 0
 881              		.loc 1 371 0
 882 002a FFF7FEBF 		b	_port_irq_epilogue
 883              	.LVL83:
 884              	.L113:
 885 002e 00BF     		.align	2
 886              	.L112:
 887 0030 00640240 		.word	1073898496
 888 0034 00000000 		.word	.LANCHOR0
 889              		.cfi_endproc
 890              	.LFE271:
 891              		.size	Vector150, .-Vector150
 892              		.section	.text.Vector154,"ax",%progbits
 893              		.align	2
 894              		.p2align 4,,15
 895              		.global	Vector154
 896              		.thumb
 897              		.thumb_func
 898              		.type	Vector154, %function
 899              	Vector154:
 900              	.LFB272:
 901              		.loc 1 379 0
 902              		.cfi_startproc
 903              		@ args = 0, pretend = 0, frame = 0
 904              		@ frame_needed = 0, uses_anonymous_args = 0
 905 0000 10B5     		push	{r4, lr}
 906              		.cfi_def_cfa_offset 8
 907              		.cfi_offset 4, -8
 908              		.cfi_offset 14, -4
 909              		.loc 1 382 0
 910 0002 FFF7FEFF 		bl	_stats_increase_irq
 911              	.LVL84:
 912 0006 FFF7FEFF 		bl	_dbg_check_enter_isr
ARM GAS  /tmp/ccVnOher.s 			page 17


 913              	.LVL85:
 914              		.loc 1 384 0
 915 000a 094B     		ldr	r3, .L120
 916              		.loc 1 386 0
 917 000c 0948     		ldr	r0, .L120+4
 918              		.loc 1 384 0
 919 000e 5968     		ldr	r1, [r3, #4]
 920              		.loc 1 386 0
 921 0010 026F     		ldr	r2, [r0, #112]
 922              		.loc 1 384 0
 923 0012 090C     		lsrs	r1, r1, #16
 924 0014 01F03D01 		and	r1, r1, #61
 925              	.LVL86:
 926              		.loc 1 385 0
 927 0018 0C04     		lsls	r4, r1, #16
 928 001a DC60     		str	r4, [r3, #12]
 929              		.loc 1 386 0
 930 001c 0AB1     		cbz	r2, .L115
 931              		.loc 1 387 0
 932 001e 406F     		ldr	r0, [r0, #116]
 933 0020 9047     		blx	r2
 934              	.LVL87:
 935              	.L115:
 936              		.loc 1 389 0
 937 0022 FFF7FEFF 		bl	_dbg_check_leave_isr
 938              	.LVL88:
 939              		.loc 1 390 0
 940 0026 BDE81040 		pop	{r4, lr}
 941              		.cfi_restore 14
 942              		.cfi_restore 4
 943              		.cfi_def_cfa_offset 0
 944              		.loc 1 389 0
 945 002a FFF7FEBF 		b	_port_irq_epilogue
 946              	.LVL89:
 947              	.L121:
 948 002e 00BF     		.align	2
 949              	.L120:
 950 0030 00640240 		.word	1073898496
 951 0034 00000000 		.word	.LANCHOR0
 952              		.cfi_endproc
 953              	.LFE272:
 954              		.size	Vector154, .-Vector154
 955              		.section	.text.Vector158,"ax",%progbits
 956              		.align	2
 957              		.p2align 4,,15
 958              		.global	Vector158
 959              		.thumb
 960              		.thumb_func
 961              		.type	Vector158, %function
 962              	Vector158:
 963              	.LFB273:
 964              		.loc 1 397 0
 965              		.cfi_startproc
 966              		@ args = 0, pretend = 0, frame = 0
 967              		@ frame_needed = 0, uses_anonymous_args = 0
 968 0000 10B5     		push	{r4, lr}
 969              		.cfi_def_cfa_offset 8
ARM GAS  /tmp/ccVnOher.s 			page 18


 970              		.cfi_offset 4, -8
 971              		.cfi_offset 14, -4
 972              		.loc 1 400 0
 973 0002 FFF7FEFF 		bl	_stats_increase_irq
 974              	.LVL90:
 975 0006 FFF7FEFF 		bl	_dbg_check_enter_isr
 976              	.LVL91:
 977              		.loc 1 402 0
 978 000a 094B     		ldr	r3, .L128
 979              		.loc 1 404 0
 980 000c 0948     		ldr	r0, .L128+4
 981              		.loc 1 402 0
 982 000e 5968     		ldr	r1, [r3, #4]
 983              		.loc 1 404 0
 984 0010 826F     		ldr	r2, [r0, #120]
 985              		.loc 1 402 0
 986 0012 890D     		lsrs	r1, r1, #22
 987 0014 01F03D01 		and	r1, r1, #61
 988              	.LVL92:
 989              		.loc 1 403 0
 990 0018 8C05     		lsls	r4, r1, #22
 991 001a DC60     		str	r4, [r3, #12]
 992              		.loc 1 404 0
 993 001c 0AB1     		cbz	r2, .L123
 994              		.loc 1 405 0
 995 001e C06F     		ldr	r0, [r0, #124]
 996 0020 9047     		blx	r2
 997              	.LVL93:
 998              	.L123:
 999              		.loc 1 407 0
 1000 0022 FFF7FEFF 		bl	_dbg_check_leave_isr
 1001              	.LVL94:
 1002              		.loc 1 408 0
 1003 0026 BDE81040 		pop	{r4, lr}
 1004              		.cfi_restore 14
 1005              		.cfi_restore 4
 1006              		.cfi_def_cfa_offset 0
 1007              		.loc 1 407 0
 1008 002a FFF7FEBF 		b	_port_irq_epilogue
 1009              	.LVL95:
 1010              	.L129:
 1011 002e 00BF     		.align	2
 1012              	.L128:
 1013 0030 00640240 		.word	1073898496
 1014 0034 00000000 		.word	.LANCHOR0
 1015              		.cfi_endproc
 1016              	.LFE273:
 1017              		.size	Vector158, .-Vector158
 1018              		.section	.text.dmaInit,"ax",%progbits
 1019              		.align	2
 1020              		.p2align 4,,15
 1021              		.global	dmaInit
 1022              		.thumb
 1023              		.thumb_func
 1024              		.type	dmaInit, %function
 1025              	dmaInit:
 1026              	.LFB274:
ARM GAS  /tmp/ccVnOher.s 			page 19


 1027              		.loc 1 419 0
 1028              		.cfi_startproc
 1029              		@ args = 0, pretend = 0, frame = 0
 1030              		@ frame_needed = 0, uses_anonymous_args = 0
 1031              		@ link register save eliminated.
 1032              		.loc 1 422 0
 1033 0000 0E49     		ldr	r1, .L136
 1034 0002 0F4A     		ldr	r2, .L136+4
 1035 0004 0F48     		ldr	r0, .L136+8
 1036 0006 0023     		movs	r3, #0
 1037              		.loc 1 419 0
 1038 0008 10B4     		push	{r4}
 1039              		.cfi_def_cfa_offset 4
 1040              		.cfi_offset 4, -4
 1041              		.loc 1 422 0
 1042 000a 0B60     		str	r3, [r1]
 1043              	.LVL96:
 1044 000c 0E4C     		ldr	r4, .L136+12
 1045              		.loc 1 424 0
 1046 000e 1946     		mov	r1, r3
 1047 0010 01E0     		b	.L132
 1048              	.LVL97:
 1049              	.L135:
 1050 0012 52F80C0C 		ldr	r0, [r2, #-12]
 1051              	.LVL98:
 1052              	.L132:
 1053              		.loc 1 424 0 is_stmt 0 discriminator 3
 1054 0016 0160     		str	r1, [r0]
 1055              		.loc 1 425 0 is_stmt 1 discriminator 3
 1056 0018 44F83310 		str	r1, [r4, r3, lsl #3]
 1057              		.loc 1 423 0 discriminator 3
 1058 001c 0133     		adds	r3, r3, #1
 1059              	.LVL99:
 1060 001e 102B     		cmp	r3, #16
 1061 0020 02F10C02 		add	r2, r2, #12
 1062 0024 F5D1     		bne	.L135
 1063              		.loc 1 427 0
 1064 0026 0949     		ldr	r1, .L136+16
 1065              		.loc 1 429 0
 1066 0028 094A     		ldr	r2, .L136+20
 1067              		.loc 1 431 0
 1068 002a 10BC     		pop	{r4}
 1069              		.cfi_restore 4
 1070              		.cfi_def_cfa_offset 0
 1071              		.loc 1 427 0
 1072 002c 4FF0FF33 		mov	r3, #-1
 1073              	.LVL100:
 1074 0030 8B60     		str	r3, [r1, #8]
 1075              		.loc 1 428 0
 1076 0032 CB60     		str	r3, [r1, #12]
 1077              		.loc 1 429 0
 1078 0034 9360     		str	r3, [r2, #8]
 1079              		.loc 1 430 0
 1080 0036 D360     		str	r3, [r2, #12]
 1081              		.loc 1 431 0
 1082 0038 7047     		bx	lr
 1083              	.L137:
ARM GAS  /tmp/ccVnOher.s 			page 20


 1084 003a 00BF     		.align	2
 1085              	.L136:
 1086 003c 00000000 		.word	.LANCHOR1
 1087 0040 0C000000 		.word	.LANCHOR2+12
 1088 0044 10600240 		.word	1073897488
 1089 0048 00000000 		.word	.LANCHOR0
 1090 004c 00600240 		.word	1073897472
 1091 0050 00640240 		.word	1073898496
 1092              		.cfi_endproc
 1093              	.LFE274:
 1094              		.size	dmaInit, .-dmaInit
 1095              		.section	.text.dmaStreamAllocate,"ax",%progbits
 1096              		.align	2
 1097              		.p2align 4,,15
 1098              		.global	dmaStreamAllocate
 1099              		.thumb
 1100              		.thumb_func
 1101              		.type	dmaStreamAllocate, %function
 1102              	dmaStreamAllocate:
 1103              	.LFB275:
 1104              		.loc 1 460 0
 1105              		.cfi_startproc
 1106              		@ args = 0, pretend = 0, frame = 16
 1107              		@ frame_needed = 0, uses_anonymous_args = 0
 1108              	.LVL101:
 1109 0000 F0B5     		push	{r4, r5, r6, r7, lr}
 1110              		.cfi_def_cfa_offset 20
 1111              		.cfi_offset 4, -20
 1112              		.cfi_offset 5, -16
 1113              		.cfi_offset 6, -12
 1114              		.cfi_offset 7, -8
 1115              		.cfi_offset 14, -4
 1116              		.loc 1 462 0
 1117 0002 0546     		mov	r5, r0
 1118              		.loc 1 460 0
 1119 0004 85B0     		sub	sp, sp, #20
 1120              		.cfi_def_cfa_offset 40
 1121              		.loc 1 462 0
 1122 0006 0028     		cmp	r0, #0
 1123 0008 3ED0     		beq	.L154
 1124              	.LVL102:
 1125              	.L139:
 1126              		.loc 1 465 0
 1127 000a 244C     		ldr	r4, .L156
 1128 000c 6F7A     		ldrb	r7, [r5, #9]	@ zero_extendqisi2
 1129 000e 2668     		ldr	r6, [r4]
 1130 0010 0120     		movs	r0, #1
 1131 0012 00FA07FE 		lsl	lr, r0, r7
 1132 0016 1EEA060F 		tst	lr, r6
 1133 001a 2AD1     		bne	.L140
 1134              		.loc 1 469 0
 1135 001c 2048     		ldr	r0, .L156+4
 1136              		.loc 1 471 0
 1137 001e 4EEA0606 		orr	r6, lr, r6
 1138              		.loc 1 470 0
 1139 0022 00EBC70E 		add	lr, r0, r7, lsl #3
 1140              		.loc 1 474 0
ARM GAS  /tmp/ccVnOher.s 			page 21


 1141 0026 16F0FF0F 		tst	r6, #255
 1142              		.loc 1 471 0
 1143 002a 2660     		str	r6, [r4]
 1144              		.loc 1 469 0
 1145 002c 40F83720 		str	r2, [r0, r7, lsl #3]
 1146              		.loc 1 470 0
 1147 0030 CEF80430 		str	r3, [lr, #4]
 1148              		.loc 1 474 0
 1149 0034 04D0     		beq	.L141
 1150              		.loc 1 475 0
 1151 0036 1B48     		ldr	r0, .L156+8
 1152 0038 036B     		ldr	r3, [r0, #48]
 1153 003a 43F40013 		orr	r3, r3, #2097152
 1154 003e 0363     		str	r3, [r0, #48]
 1155              	.L141:
 1156              		.loc 1 476 0
 1157 0040 16F47F4F 		tst	r6, #65280
 1158 0044 17D1     		bne	.L155
 1159              	.L142:
 1160              		.loc 1 480 0
 1161 0046 2B68     		ldr	r3, [r5]
 1162 0048 1868     		ldr	r0, [r3]
 1163 004a 20F01F00 		bic	r0, r0, #31
 1164 004e 1860     		str	r0, [r3]
 1165              	.L143:
 1166              		.loc 1 480 0 is_stmt 0 discriminator 2
 1167 0050 1868     		ldr	r0, [r3]
 1168 0052 10F00104 		ands	r4, r0, #1
 1169 0056 FBD1     		bne	.L143
 1170              		.loc 1 480 0 discriminator 3
 1171 0058 2F7A     		ldrb	r7, [r5, #8]	@ zero_extendqisi2
 1172 005a 6E68     		ldr	r6, [r5, #4]
 1173 005c 3D20     		movs	r0, #61
 1174 005e B840     		lsls	r0, r0, r7
 1175              		.loc 1 482 0 is_stmt 1 discriminator 3
 1176 0060 2127     		movs	r7, #33
 1177              		.loc 1 480 0 discriminator 3
 1178 0062 3060     		str	r0, [r6]
 1179              		.loc 1 481 0 discriminator 3
 1180 0064 1C60     		str	r4, [r3]
 1181              		.loc 1 482 0 discriminator 3
 1182 0066 5F61     		str	r7, [r3, #20]
 1183              		.loc 1 485 0 discriminator 3
 1184 0068 5AB1     		cbz	r2, .L145
 1185              		.loc 1 486 0
 1186 006a A87A     		ldrb	r0, [r5, #10]	@ zero_extendqisi2
 1187 006c FFF7FEFF 		bl	nvicEnableVector
 1188              	.LVL103:
 1189              		.loc 1 488 0
 1190 0070 2046     		mov	r0, r4
 1191              	.L140:
 1192              		.loc 1 489 0
 1193 0072 05B0     		add	sp, sp, #20
 1194              		.cfi_remember_state
 1195              		.cfi_def_cfa_offset 20
 1196              		@ sp needed
 1197 0074 F0BD     		pop	{r4, r5, r6, r7, pc}
ARM GAS  /tmp/ccVnOher.s 			page 22


 1198              	.LVL104:
 1199              	.L155:
 1200              		.cfi_restore_state
 1201              		.loc 1 477 0
 1202 0076 0B48     		ldr	r0, .L156+8
 1203 0078 036B     		ldr	r3, [r0, #48]
 1204 007a 43F48003 		orr	r3, r3, #4194304
 1205 007e 0363     		str	r3, [r0, #48]
 1206 0080 E1E7     		b	.L142
 1207              	.L145:
 1208              		.loc 1 488 0
 1209 0082 1046     		mov	r0, r2
 1210              		.loc 1 489 0
 1211 0084 05B0     		add	sp, sp, #20
 1212              		.cfi_remember_state
 1213              		.cfi_def_cfa_offset 20
 1214              		@ sp needed
 1215 0086 F0BD     		pop	{r4, r5, r6, r7, pc}
 1216              	.LVL105:
 1217              	.L154:
 1218              		.cfi_restore_state
 1219              		.loc 1 462 0 discriminator 2
 1220 0088 0748     		ldr	r0, .L156+12
 1221              	.LVL106:
 1222 008a 0393     		str	r3, [sp, #12]
 1223 008c 0292     		str	r2, [sp, #8]
 1224 008e 0191     		str	r1, [sp, #4]
 1225 0090 FFF7FEFF 		bl	chSysHalt
 1226              	.LVL107:
 1227 0094 01A9     		add	r1, sp, #4
 1228              	.LVL108:
 1229 0096 0EC9     		ldmia	r1, {r1, r2, r3}
 1230              	.LVL109:
 1231 0098 B7E7     		b	.L139
 1232              	.L157:
 1233 009a 00BF     		.align	2
 1234              	.L156:
 1235 009c 00000000 		.word	.LANCHOR1
 1236 00a0 00000000 		.word	.LANCHOR0
 1237 00a4 00380240 		.word	1073887232
 1238 00a8 00000000 		.word	.LANCHOR3
 1239              		.cfi_endproc
 1240              	.LFE275:
 1241              		.size	dmaStreamAllocate, .-dmaStreamAllocate
 1242              		.section	.text.dmaStreamRelease,"ax",%progbits
 1243              		.align	2
 1244              		.p2align 4,,15
 1245              		.global	dmaStreamRelease
 1246              		.thumb
 1247              		.thumb_func
 1248              		.type	dmaStreamRelease, %function
 1249              	dmaStreamRelease:
 1250              	.LFB276:
 1251              		.loc 1 504 0
 1252              		.cfi_startproc
 1253              		@ args = 0, pretend = 0, frame = 0
 1254              		@ frame_needed = 0, uses_anonymous_args = 0
ARM GAS  /tmp/ccVnOher.s 			page 23


 1255              	.LVL110:
 1256 0000 38B5     		push	{r3, r4, r5, lr}
 1257              		.cfi_def_cfa_offset 16
 1258              		.cfi_offset 3, -16
 1259              		.cfi_offset 4, -12
 1260              		.cfi_offset 5, -8
 1261              		.cfi_offset 14, -4
 1262              		.loc 1 506 0
 1263 0002 0446     		mov	r4, r0
 1264 0004 28B3     		cbz	r0, .L164
 1265              	.LVL111:
 1266              	.L159:
 1267              		.loc 1 509 0 discriminator 1
 1268 0006 154D     		ldr	r5, .L166
 1269 0008 617A     		ldrb	r1, [r4, #9]	@ zero_extendqisi2
 1270 000a 2A68     		ldr	r2, [r5]
 1271 000c 0123     		movs	r3, #1
 1272 000e 8B40     		lsls	r3, r3, r1
 1273 0010 1342     		tst	r3, r2
 1274 0012 1AD0     		beq	.L165
 1275              	.L160:
 1276              		.loc 1 513 0
 1277 0014 A07A     		ldrb	r0, [r4, #10]	@ zero_extendqisi2
 1278 0016 FFF7FEFF 		bl	nvicDisableVector
 1279              	.LVL112:
 1280              		.loc 1 516 0
 1281 001a 617A     		ldrb	r1, [r4, #9]	@ zero_extendqisi2
 1282 001c 2A68     		ldr	r2, [r5]
 1283 001e 0123     		movs	r3, #1
 1284 0020 8B40     		lsls	r3, r3, r1
 1285 0022 22EA0303 		bic	r3, r2, r3
 1286              		.loc 1 519 0
 1287 0026 13F0FF0F 		tst	r3, #255
 1288              		.loc 1 516 0
 1289 002a 2B60     		str	r3, [r5]
 1290              		.loc 1 519 0
 1291 002c 04D1     		bne	.L161
 1292              		.loc 1 520 0
 1293 002e 0C49     		ldr	r1, .L166+4
 1294 0030 0A6B     		ldr	r2, [r1, #48]
 1295 0032 22F40012 		bic	r2, r2, #2097152
 1296 0036 0A63     		str	r2, [r1, #48]
 1297              	.L161:
 1298              		.loc 1 521 0
 1299 0038 13F47F4F 		tst	r3, #65280
 1300 003c 04D1     		bne	.L158
 1301              		.loc 1 522 0
 1302 003e 084A     		ldr	r2, .L166+4
 1303 0040 136B     		ldr	r3, [r2, #48]
 1304 0042 23F48003 		bic	r3, r3, #4194304
 1305 0046 1363     		str	r3, [r2, #48]
 1306              	.L158:
 1307 0048 38BD     		pop	{r3, r4, r5, pc}
 1308              	.LVL113:
 1309              	.L165:
 1310              		.loc 1 509 0 discriminator 2
 1311 004a 0648     		ldr	r0, .L166+8
ARM GAS  /tmp/ccVnOher.s 			page 24


 1312 004c FFF7FEFF 		bl	chSysHalt
 1313              	.LVL114:
 1314 0050 E0E7     		b	.L160
 1315              	.LVL115:
 1316              	.L164:
 1317              		.loc 1 506 0 discriminator 2
 1318 0052 0448     		ldr	r0, .L166+8
 1319              	.LVL116:
 1320 0054 FFF7FEFF 		bl	chSysHalt
 1321              	.LVL117:
 1322 0058 D5E7     		b	.L159
 1323              	.L167:
 1324 005a 00BF     		.align	2
 1325              	.L166:
 1326 005c 00000000 		.word	.LANCHOR1
 1327 0060 00380240 		.word	1073887232
 1328 0064 00000000 		.word	.LANCHOR4
 1329              		.cfi_endproc
 1330              	.LFE276:
 1331              		.size	dmaStreamRelease, .-dmaStreamRelease
 1332              		.global	_stm32_dma_streams
 1333              		.section	.rodata.__func__.7182,"a",%progbits
 1334              		.align	2
 1335              		.set	.LANCHOR3,. + 0
 1336              		.type	__func__.7182, %object
 1337              		.size	__func__.7182, 18
 1338              	__func__.7182:
 1339 0000 646D6153 		.ascii	"dmaStreamAllocate\000"
 1339      74726561 
 1339      6D416C6C 
 1339      6F636174 
 1339      6500
 1340              		.section	.bss.dma_isr_redir,"aw",%nobits
 1341              		.align	2
 1342              		.set	.LANCHOR0,. + 0
 1343              		.type	dma_isr_redir, %object
 1344              		.size	dma_isr_redir, 128
 1345              	dma_isr_redir:
 1346 0000 00000000 		.space	128
 1346      00000000 
 1346      00000000 
 1346      00000000 
 1346      00000000 
 1347              		.section	.rodata.__func__.7189,"a",%progbits
 1348              		.align	2
 1349              		.set	.LANCHOR4,. + 0
 1350              		.type	__func__.7189, %object
 1351              		.size	__func__.7189, 17
 1352              	__func__.7189:
 1353 0000 646D6153 		.ascii	"dmaStreamRelease\000"
 1353      74726561 
 1353      6D52656C 
 1353      65617365 
 1353      00
 1354              		.section	.rodata._stm32_dma_streams,"a",%progbits
 1355              		.align	2
 1356              		.set	.LANCHOR2,. + 0
ARM GAS  /tmp/ccVnOher.s 			page 25


 1357              		.type	_stm32_dma_streams, %object
 1358              		.size	_stm32_dma_streams, 192
 1359              	_stm32_dma_streams:
 1360 0000 10600240 		.word	1073897488
 1361 0004 08600240 		.word	1073897480
 1362 0008 00       		.byte	0
 1363 0009 00       		.byte	0
 1364 000a 0B       		.byte	11
 1365 000b 00       		.space	1
 1366 000c 28600240 		.word	1073897512
 1367 0010 08600240 		.word	1073897480
 1368 0014 06       		.byte	6
 1369 0015 01       		.byte	1
 1370 0016 0C       		.byte	12
 1371 0017 00       		.space	1
 1372 0018 40600240 		.word	1073897536
 1373 001c 08600240 		.word	1073897480
 1374 0020 10       		.byte	16
 1375 0021 02       		.byte	2
 1376 0022 0D       		.byte	13
 1377 0023 00       		.space	1
 1378 0024 58600240 		.word	1073897560
 1379 0028 08600240 		.word	1073897480
 1380 002c 16       		.byte	22
 1381 002d 03       		.byte	3
 1382 002e 0E       		.byte	14
 1383 002f 00       		.space	1
 1384 0030 70600240 		.word	1073897584
 1385 0034 0C600240 		.word	1073897484
 1386 0038 00       		.byte	0
 1387 0039 04       		.byte	4
 1388 003a 0F       		.byte	15
 1389 003b 00       		.space	1
 1390 003c 88600240 		.word	1073897608
 1391 0040 0C600240 		.word	1073897484
 1392 0044 06       		.byte	6
 1393 0045 05       		.byte	5
 1394 0046 10       		.byte	16
 1395 0047 00       		.space	1
 1396 0048 A0600240 		.word	1073897632
 1397 004c 0C600240 		.word	1073897484
 1398 0050 10       		.byte	16
 1399 0051 06       		.byte	6
 1400 0052 11       		.byte	17
 1401 0053 00       		.space	1
 1402 0054 B8600240 		.word	1073897656
 1403 0058 0C600240 		.word	1073897484
 1404 005c 16       		.byte	22
 1405 005d 07       		.byte	7
 1406 005e 2F       		.byte	47
 1407 005f 00       		.space	1
 1408 0060 10640240 		.word	1073898512
 1409 0064 08640240 		.word	1073898504
 1410 0068 00       		.byte	0
 1411 0069 08       		.byte	8
 1412 006a 38       		.byte	56
 1413 006b 00       		.space	1
ARM GAS  /tmp/ccVnOher.s 			page 26


 1414 006c 28640240 		.word	1073898536
 1415 0070 08640240 		.word	1073898504
 1416 0074 06       		.byte	6
 1417 0075 09       		.byte	9
 1418 0076 39       		.byte	57
 1419 0077 00       		.space	1
 1420 0078 40640240 		.word	1073898560
 1421 007c 08640240 		.word	1073898504
 1422 0080 10       		.byte	16
 1423 0081 0A       		.byte	10
 1424 0082 3A       		.byte	58
 1425 0083 00       		.space	1
 1426 0084 58640240 		.word	1073898584
 1427 0088 08640240 		.word	1073898504
 1428 008c 16       		.byte	22
 1429 008d 0B       		.byte	11
 1430 008e 3B       		.byte	59
 1431 008f 00       		.space	1
 1432 0090 70640240 		.word	1073898608
 1433 0094 0C640240 		.word	1073898508
 1434 0098 00       		.byte	0
 1435 0099 0C       		.byte	12
 1436 009a 3C       		.byte	60
 1437 009b 00       		.space	1
 1438 009c 88640240 		.word	1073898632
 1439 00a0 0C640240 		.word	1073898508
 1440 00a4 06       		.byte	6
 1441 00a5 0D       		.byte	13
 1442 00a6 44       		.byte	68
 1443 00a7 00       		.space	1
 1444 00a8 A0640240 		.word	1073898656
 1445 00ac 0C640240 		.word	1073898508
 1446 00b0 10       		.byte	16
 1447 00b1 0E       		.byte	14
 1448 00b2 45       		.byte	69
 1449 00b3 00       		.space	1
 1450 00b4 B8640240 		.word	1073898680
 1451 00b8 0C640240 		.word	1073898508
 1452 00bc 16       		.byte	22
 1453 00bd 0F       		.byte	15
 1454 00be 46       		.byte	70
 1455 00bf 00       		.space	1
 1456              		.section	.bss.dma_streams_mask,"aw",%nobits
 1457              		.align	2
 1458              		.set	.LANCHOR1,. + 0
 1459              		.type	dma_streams_mask, %object
 1460              		.size	dma_streams_mask, 4
 1461              	dma_streams_mask:
 1462 0000 00000000 		.space	4
 1463              		.text
 1464              	.Letext0:
 1465              		.file 2 "/usr/lib/gcc/arm-none-eabi/5.3.1/include/stddef.h"
 1466              		.file 3 "/usr/arm-none-eabi/include/machine/_default_types.h"
 1467              		.file 4 "/usr/arm-none-eabi/include/sys/_stdint.h"
 1468              		.file 5 "/home/selim/working/ChibiOS/os/rt/ports/ARMCMx/compilers/GCC/chtypes.h"
 1469              		.file 6 "/home/selim/working/ChibiOS/os/rt/include/chsystypes.h"
 1470              		.file 7 "/home/selim/working/ChibiOS/os/rt/include/chschd.h"
ARM GAS  /tmp/ccVnOher.s 			page 27


 1471              		.file 8 "/home/selim/working/ChibiOS/os/ext/CMSIS/ST/stm32f407xx.h"
 1472              		.file 9 "/home/selim/working/ChibiOS/os/rt/ports/ARMCMx/chcore.h"
 1473              		.file 10 "/home/selim/working/ChibiOS/os/rt/ports/ARMCMx/chcore_v7m.h"
 1474              		.file 11 "/home/selim/working/ChibiOS/os/rt/include/chdebug.h"
 1475              		.file 12 "/home/selim/working/ChibiOS/os/rt/include/chtm.h"
 1476              		.file 13 "/home/selim/working/ChibiOS/os/rt/include/chstats.h"
 1477              		.file 14 "/home/selim/working/ChibiOS/os/rt/include/chsem.h"
 1478              		.file 15 "/home/selim/working/ChibiOS/os/rt/include/chmtx.h"
 1479              		.file 16 "/home/selim/working/ChibiOS/os/hal/ports/STM32/STM32F4xx/stm32_dma.h"
 1480              		.file 17 "/home/selim/working/ChibiOS/os/ext/CMSIS/include/core_cm4.h"
 1481              		.file 18 "/home/selim/working/ChibiOS/os/hal/ports/common/ARMCMx/nvic.h"
 1482              		.file 19 "/home/selim/working/ChibiOS/os/rt/include/chsys.h"