ARM GAS  /tmp/ccM0affm.s 			page 1


   1              		.syntax unified
   2              		.cpu cortex-m4
   3              		.fpu softvfp
   4              		.eabi_attribute 20, 1
   5              		.eabi_attribute 21, 1
   6              		.eabi_attribute 23, 3
   7              		.eabi_attribute 24, 1
   8              		.eabi_attribute 25, 1
   9              		.eabi_attribute 26, 1
  10              		.eabi_attribute 30, 2
  11              		.eabi_attribute 34, 1
  12              		.eabi_attribute 18, 4
  13              		.thumb
  14              		.syntax unified
  15              		.file	"main.c"
  16              		.text
  17              	.Ltext0:
  18              		.cfi_sections	.debug_frame
  19              		.section	.text.adcerrorcallback,"ax",%progbits
  20              		.align	2
  21              		.p2align 4,,15
  22              		.thumb
  23              		.thumb_func
  24              		.type	adcerrorcallback, %function
  25              	adcerrorcallback:
  26              	.LFB260:
  27              		.file 1 "main.c"
  28              		.loc 1 70 0
  29              		.cfi_startproc
  30              		@ args = 0, pretend = 0, frame = 0
  31              		@ frame_needed = 0, uses_anonymous_args = 0
  32              		@ link register save eliminated.
  33              	.LVL0:
  34 0000 7047     		bx	lr
  35              		.cfi_endproc
  36              	.LFE260:
  37              		.size	adcerrorcallback, .-adcerrorcallback
  38 0002 00BF     		.section	.text.gpt3cb,"ax",%progbits
  39              		.align	2
  40              		.p2align 4,,15
  41              		.thumb
  42              		.thumb_func
  43              		.type	gpt3cb, %function
  44              	gpt3cb:
  45              	.LFB263:
  46              		.loc 1 127 0
  47              		.cfi_startproc
  48              		@ args = 0, pretend = 0, frame = 0
  49              		@ frame_needed = 0, uses_anonymous_args = 0
  50              		@ link register save eliminated.
  51              	.LVL1:
  52              		.loc 1 130 0
  53 0000 024A     		ldr	r2, .L3
  54 0002 5369     		ldr	r3, [r2, #20]
  55 0004 83F02003 		eor	r3, r3, #32
  56 0008 5361     		str	r3, [r2, #20]
  57 000a 7047     		bx	lr
ARM GAS  /tmp/ccM0affm.s 			page 2


  58              	.L4:
  59              		.align	2
  60              	.L3:
  61 000c 00040240 		.word	1073873920
  62              		.cfi_endproc
  63              	.LFE263:
  64              		.size	gpt3cb, .-gpt3cb
  65              		.section	.text.adccallback,"ax",%progbits
  66              		.align	2
  67              		.p2align 4,,15
  68              		.thumb
  69              		.thumb_func
  70              		.type	adccallback, %function
  71              	adccallback:
  72              	.LFB259:
  73              		.loc 1 56 0
  74              		.cfi_startproc
  75              		@ args = 0, pretend = 0, frame = 0
  76              		@ frame_needed = 0, uses_anonymous_args = 0
  77              	.LVL2:
  78              	.LBB67:
  79              	.LBB68:
  80              		.file 2 "/home/selim/working/ChibiOS/os/rt/include/chbsem.h"
  81              		.loc 2 270 0
  82 0000 0848     		ldr	r0, .L13
  83              	.LVL3:
  84              	.LBE68:
  85              	.LBE67:
  86              		.loc 1 56 0
  87 0002 08B5     		push	{r3, lr}
  88              		.cfi_def_cfa_offset 8
  89              		.cfi_offset 3, -8
  90              		.cfi_offset 14, -4
  91              	.LBB71:
  92              	.LBB69:
  93              		.loc 2 270 0
  94 0004 8368     		ldr	r3, [r0, #8]
  95 0006 002B     		cmp	r3, #0
  96 0008 09DD     		ble	.L12
  97              	.LVL4:
  98              	.L6:
  99              	.LBE69:
 100              	.LBE71:
 101              		.loc 1 65 0
 102 000a 074A     		ldr	r2, .L13+4
 103 000c 1388     		ldrh	r3, [r2]
 104 000e 0133     		adds	r3, r3, #1
 105 0010 9BB2     		uxth	r3, r3
 106              		.loc 1 66 0
 107 0012 B3F5805F 		cmp	r3, #4096
 108 0016 88BF     		it	hi
 109 0018 0023     		movhi	r3, #0
 110 001a 1380     		strh	r3, [r2]	@ movhi
 111 001c 08BD     		pop	{r3, pc}
 112              	.LVL5:
 113              	.L12:
 114              	.LBB72:
ARM GAS  /tmp/ccM0affm.s 			page 3


 115              	.LBB70:
 116              		.loc 2 271 0
 117 001e FFF7FEFF 		bl	chSemSignalI
 118              	.LVL6:
 119 0022 F2E7     		b	.L6
 120              	.L14:
 121              		.align	2
 122              	.L13:
 123 0024 00000000 		.word	.LANCHOR0
 124 0028 00000000 		.word	.LANCHOR1
 125              	.LBE70:
 126              	.LBE72:
 127              		.cfi_endproc
 128              	.LFE259:
 129              		.size	adccallback, .-adccallback
 130              		.section	.text.chprintf,"ax",%progbits
 131              		.align	2
 132              		.p2align 4,,15
 133              		.thumb
 134              		.thumb_func
 135              		.type	chprintf, %function
 136              	chprintf:
 137              	.LFB258:
 138              		.file 3 "/home/selim/working/ChibiOS/os/hal/lib/streams/chprintf.h"
 139              		.loc 3 69 0
 140              		.cfi_startproc
 141              		@ args = 4, pretend = 12, frame = 8
 142              		@ frame_needed = 0, uses_anonymous_args = 1
 143              	.LVL7:
 144 0000 0EB4     		push	{r1, r2, r3}
 145              		.cfi_def_cfa_offset 12
 146              		.cfi_offset 1, -12
 147              		.cfi_offset 2, -8
 148              		.cfi_offset 3, -4
 149 0002 00B5     		push	{lr}
 150              		.cfi_def_cfa_offset 16
 151              		.cfi_offset 14, -16
 152 0004 82B0     		sub	sp, sp, #8
 153              		.cfi_def_cfa_offset 24
 154              		.loc 3 69 0
 155 0006 03AA     		add	r2, sp, #12
 156 0008 52F8041B 		ldr	r1, [r2], #4
 157              		.loc 3 73 0
 158 000c 0192     		str	r2, [sp, #4]
 159              		.loc 3 74 0
 160 000e FFF7FEFF 		bl	chvprintf
 161              	.LVL8:
 162              		.loc 3 78 0
 163 0012 02B0     		add	sp, sp, #8
 164              		.cfi_def_cfa_offset 16
 165              		@ sp needed
 166 0014 5DF804EB 		ldr	lr, [sp], #4
 167              		.cfi_restore 14
 168              		.cfi_def_cfa_offset 12
 169 0018 03B0     		add	sp, sp, #12
 170              		.cfi_restore 3
 171              		.cfi_restore 2
ARM GAS  /tmp/ccM0affm.s 			page 4


 172              		.cfi_restore 1
 173              		.cfi_def_cfa_offset 0
 174 001a 7047     		bx	lr
 175              		.cfi_endproc
 176              	.LFE258:
 177              		.size	chprintf, .-chprintf
 178              		.section	.text.Thread2,"ax",%progbits
 179              		.align	2
 180              		.p2align 4,,15
 181              		.thumb
 182              		.thumb_func
 183              		.type	Thread2, %function
 184              	Thread2:
 185              	.LFB264:
 186              		.loc 1 184 0
 187              		.cfi_startproc
 188              		@ Volatile: function does not return.
 189              		@ args = 0, pretend = 0, frame = 0
 190              		@ frame_needed = 0, uses_anonymous_args = 0
 191              	.LVL9:
 192              		.loc 1 188 0
 193 0000 184C     		ldr	r4, .L20
 194 0002 194D     		ldr	r5, .L20+4
 195 0004 194E     		ldr	r6, .L20+8
 196              		.loc 1 184 0
 197 0006 80B5     		push	{r7, lr}
 198              		.cfi_def_cfa_offset 8
 199              		.cfi_offset 7, -8
 200              		.cfi_offset 14, -4
 201              		.loc 1 188 0
 202 0008 AA21     		movs	r1, #170
 203              		.loc 1 189 0
 204 000a BB22     		movs	r2, #187
 205              		.loc 1 190 0
 206 000c 0423     		movs	r3, #4
 207 000e 184F     		ldr	r7, .L20+12
 208              		.loc 1 188 0
 209 0010 2170     		strb	r1, [r4]
 210              		.loc 1 189 0
 211 0012 6270     		strb	r2, [r4, #1]
 212              		.loc 1 190 0
 213 0014 A370     		strb	r3, [r4, #2]
 214              	.LVL10:
 215              	.L18:
 216              	.LBB73:
 217              	.LBB74:
 218              		.loc 2 143 0 discriminator 1
 219 0016 1748     		ldr	r0, .L20+16
 220 0018 FFF7FEFF 		bl	chSemWait
 221              	.LVL11:
 222              	.LBE74:
 223              	.LBE73:
 224              		.loc 1 204 0 discriminator 1
 225 001c A889     		ldrh	r0, [r5, #12]
 226              		.loc 1 205 0 discriminator 1
 227 001e E989     		ldrh	r1, [r5, #14]
 228              		.loc 1 207 0 discriminator 1
ARM GAS  /tmp/ccM0affm.s 			page 5


 229 0020 3A88     		ldrh	r2, [r7]
 230              		.loc 1 198 0 discriminator 1
 231 0022 B5F800A0 		ldrh	r10, [r5]
 232              		.loc 1 200 0 discriminator 1
 233 0026 B5F80490 		ldrh	r9, [r5, #4]
 234              		.loc 1 201 0 discriminator 1
 235 002a B5F80680 		ldrh	r8, [r5, #6]
 236              		.loc 1 202 0 discriminator 1
 237 002e B5F808C0 		ldrh	ip, [r5, #8]
 238              		.loc 1 203 0 discriminator 1
 239 0032 B5F80AE0 		ldrh	lr, [r5, #10]
 240              		.loc 1 219 0 discriminator 1
 241 0036 3368     		ldr	r3, [r6]
 242              		.loc 1 204 0 discriminator 1
 243 0038 A4F80F00 		strh	r0, [r4, #15]	@ unaligned
 244              		.loc 1 205 0 discriminator 1
 245 003c A4F81110 		strh	r1, [r4, #17]	@ unaligned
 246              		.loc 1 207 0 discriminator 1
 247 0040 A4F80520 		strh	r2, [r4, #5]	@ unaligned
 248              		.loc 1 198 0 discriminator 1
 249 0044 A4F803A0 		strh	r10, [r4, #3]	@ unaligned
 250              		.loc 1 200 0 discriminator 1
 251 0048 A4F80790 		strh	r9, [r4, #7]	@ unaligned
 252              		.loc 1 201 0 discriminator 1
 253 004c A4F80980 		strh	r8, [r4, #9]	@ unaligned
 254              		.loc 1 202 0 discriminator 1
 255 0050 A4F80BC0 		strh	ip, [r4, #11]	@ unaligned
 256              		.loc 1 203 0 discriminator 1
 257 0054 A4F80DE0 		strh	lr, [r4, #13]	@ unaligned
 258              		.loc 1 219 0 discriminator 1
 259 0058 1B68     		ldr	r3, [r3]
 260 005a 0249     		ldr	r1, .L20
 261 005c 0348     		ldr	r0, .L20+8
 262 005e 0722     		movs	r2, #7
 263 0060 9847     		blx	r3
 264              	.LVL12:
 265 0062 D8E7     		b	.L18
 266              	.L21:
 267              		.align	2
 268              	.L20:
 269 0064 00000000 		.word	.LANCHOR2
 270 0068 00000000 		.word	.LANCHOR3
 271 006c 00000000 		.word	.LANCHOR4
 272 0070 00000000 		.word	.LANCHOR1
 273 0074 00000000 		.word	.LANCHOR0
 274              		.cfi_endproc
 275              	.LFE264:
 276              		.size	Thread2, .-Thread2
 277              		.section	.text.Thread1,"ax",%progbits
 278              		.align	2
 279              		.p2align 4,,15
 280              		.thumb
 281              		.thumb_func
 282              		.type	Thread1, %function
 283              	Thread1:
 284              	.LFB269:
 285              		.loc 1 357 0
ARM GAS  /tmp/ccM0affm.s 			page 6


 286              		.cfi_startproc
 287              		@ args = 0, pretend = 0, frame = 0
 288              		@ frame_needed = 0, uses_anonymous_args = 0
 289              	.LVL13:
 290 0000 F8B5     		push	{r3, r4, r5, r6, r7, lr}
 291              		.cfi_def_cfa_offset 24
 292              		.cfi_offset 3, -24
 293              		.cfi_offset 4, -20
 294              		.cfi_offset 5, -16
 295              		.cfi_offset 6, -12
 296              		.cfi_offset 7, -8
 297              		.cfi_offset 14, -4
 298              		.loc 1 362 0
 299 0002 4C4B     		ldr	r3, .L35
 300 0004 4C4A     		ldr	r2, .L35+4
 301 0006 9B69     		ldr	r3, [r3, #24]
 302              		.loc 1 365 0
 303 0008 4C48     		ldr	r0, .L35+8
 304              	.LVL14:
 305              		.loc 1 362 0
 306 000a 9A61     		str	r2, [r3, #24]
 307              		.loc 1 365 0
 308 000c 2021     		movs	r1, #32
 309 000e 4322     		movs	r2, #67
 310 0010 FFF7FEFF 		bl	lis302dlWriteRegister
 311              	.LVL15:
 312              		.loc 1 366 0
 313 0014 0022     		movs	r2, #0
 314 0016 2121     		movs	r1, #33
 315 0018 4848     		ldr	r0, .L35+8
 316 001a FFF7FEFF 		bl	lis302dlWriteRegister
 317              	.LVL16:
 318              		.loc 1 367 0
 319 001e 0022     		movs	r2, #0
 320 0020 2221     		movs	r1, #34
 321 0022 4648     		ldr	r0, .L35+8
 322 0024 FFF7FEFF 		bl	lis302dlWriteRegister
 323              	.LVL17:
 324              	.LBB75:
 325              	.LBB76:
 326              	.LBB77:
 327              	.LBB78:
 328              	.LBB79:
 329              	.LBB80:
 330              		.file 4 "/home/selim/working/ChibiOS/os/ext/CMSIS/include/core_cmFunc.h"
 331              		.loc 4 546 0
 332 0028 2023     		movs	r3, #32
 333              		.syntax unified
 334              	@ 546 "/home/selim/working/ChibiOS/os/ext/CMSIS/include/core_cmFunc.h" 1
 335 002a 83F31188 		MSR basepri, r3
 336              	@ 0 "" 2
 337              	.LVL18:
 338              		.thumb
 339              		.syntax unified
 340              	.LBE80:
 341              	.LBE79:
 342              	.LBE78:
ARM GAS  /tmp/ccM0affm.s 			page 7


 343              	.LBE77:
 344              	.LBB81:
 345              	.LBB82:
 346              	.LBB83:
 347              	.LBB84:
 348              		.file 5 "/home/selim/working/ChibiOS/os/hal/ports/STM32/LLD/TIMv1/st_lld.h"
 349              		.loc 5 129 0
 350 002e 4FF08042 		mov	r2, #1073741824
 351              	.LBE84:
 352              	.LBE83:
 353              	.LBE82:
 354              	.LBE81:
 355              	.LBB88:
 356              	.LBB89:
 357              	.LBB90:
 358              	.LBB91:
 359              	.LBB92:
 360              		.loc 4 546 0
 361 0032 0023     		movs	r3, #0
 362              	.LBE92:
 363              	.LBE91:
 364              	.LBE90:
 365              	.LBE89:
 366              	.LBE88:
 367              	.LBB97:
 368              	.LBB87:
 369              	.LBB86:
 370              	.LBB85:
 371              		.loc 5 129 0
 372 0034 576A     		ldr	r7, [r2, #36]
 373              	.LVL19:
 374              	.LBE85:
 375              	.LBE86:
 376              	.LBE87:
 377              	.LBE97:
 378              	.LBB98:
 379              	.LBB96:
 380              	.LBB95:
 381              	.LBB94:
 382              	.LBB93:
 383              		.loc 4 546 0
 384              		.syntax unified
 385              	@ 546 "/home/selim/working/ChibiOS/os/ext/CMSIS/include/core_cmFunc.h" 1
 386 0036 83F31188 		MSR basepri, r3
 387              	@ 0 "" 2
 388              	.LVL20:
 389              		.thumb
 390              		.syntax unified
 391 003a 414E     		ldr	r6, .L35+12
 392 003c 414D     		ldr	r5, .L35+16
 393              	.L30:
 394              	.LVL21:
 395 003e 4249     		ldr	r1, .L35+20
 396 0040 424A     		ldr	r2, .L35+24
 397 0042 4C1C     		adds	r4, r1, #1
 398 0044 501C     		adds	r0, r2, #1
 399              	.LBE93:
ARM GAS  /tmp/ccM0affm.s 			page 8


 400              	.LBE94:
 401              	.LBE95:
 402              	.LBE96:
 403              	.LBE98:
 404              	.LBE76:
 405              	.LBE75:
 406              	.LBB99:
 407              		.loc 1 376 0
 408 0046 0323     		movs	r3, #3
 409              	.LVL22:
 410              	.L23:
 411              		.loc 1 377 0 discriminator 3
 412 0048 11F901CD 		ldrsb	ip, [r1, #-1]!
 413              		.loc 1 378 0 discriminator 3
 414 004c 12F901ED 		ldrsb	lr, [r2, #-1]!
 415              		.loc 1 377 0 discriminator 3
 416 0050 04F801CD 		strb	ip, [r4, #-1]!
 417              		.loc 1 376 0 discriminator 3
 418 0054 013B     		subs	r3, r3, #1
 419              	.LVL23:
 420              		.loc 1 378 0 discriminator 3
 421 0056 00F801ED 		strb	lr, [r0, #-1]!
 422              	.LVL24:
 423              		.loc 1 376 0 discriminator 3
 424 005a F5D1     		bne	.L23
 425              		.loc 1 382 0
 426 005c 2921     		movs	r1, #41
 427 005e 3748     		ldr	r0, .L35+8
 428 0060 FFF7FEFF 		bl	lis302dlReadRegister
 429              	.LVL25:
 430              		.loc 1 383 0
 431 0064 2B21     		movs	r1, #43
 432              		.loc 1 382 0
 433 0066 3070     		strb	r0, [r6]
 434              		.loc 1 383 0
 435 0068 3448     		ldr	r0, .L35+8
 436 006a FFF7FEFF 		bl	lis302dlReadRegister
 437              	.LVL26:
 438 006e 2870     		strb	r0, [r5]
 439              		.loc 1 386 0
 440 0070 3748     		ldr	r0, .L35+28
 441 0072 FFF7FEFF 		bl	spiSelect
 442              	.LVL27:
 443              		.loc 1 387 0
 444 0076 324A     		ldr	r2, .L35+12
 445 0078 3548     		ldr	r0, .L35+28
 446 007a 0421     		movs	r1, #4
 447 007c FFF7FEFF 		bl	spiSend
 448              	.LVL28:
 449              		.loc 1 388 0
 450 0080 304A     		ldr	r2, .L35+16
 451 0082 3348     		ldr	r0, .L35+28
 452 0084 0421     		movs	r1, #4
 453 0086 FFF7FEFF 		bl	spiSend
 454              	.LVL29:
 455              		.loc 1 389 0
 456 008a 3148     		ldr	r0, .L35+28
ARM GAS  /tmp/ccM0affm.s 			page 9


 457 008c FFF7FEFF 		bl	spiUnselect
 458              	.LVL30:
 459              		.loc 1 392 0
 460 0090 96F90030 		ldrsb	r3, [r6]
 461 0094 96F90110 		ldrsb	r1, [r6, #1]
 462 0098 96F90220 		ldrsb	r2, [r6, #2]
 463              		.loc 1 394 0
 464 009c 95F90100 		ldrsb	r0, [r5, #1]
 465              		.loc 1 392 0
 466 00a0 96F90340 		ldrsb	r4, [r6, #3]
 467              		.loc 1 394 0
 468 00a4 95F903E0 		ldrsb	lr, [r5, #3]
 469              		.loc 1 392 0
 470 00a8 1944     		add	r1, r1, r3
 471 00aa 8B18     		adds	r3, r1, r2
 472              		.loc 1 394 0
 473 00ac 95F90020 		ldrsb	r2, [r5]
 474 00b0 95F90210 		ldrsb	r1, [r5, #2]
 475 00b4 0244     		add	r2, r2, r0
 476              		.loc 1 392 0
 477 00b6 1B19     		adds	r3, r3, r4
 478              		.loc 1 394 0
 479 00b8 0A44     		add	r2, r2, r1
 480              		.loc 1 392 0
 481 00ba 48BF     		it	mi
 482 00bc 0333     		addmi	r3, r3, #3
 483              		.loc 1 394 0
 484 00be 12EB0E02 		adds	r2, r2, lr
 485 00c2 48BF     		it	mi
 486 00c4 0332     		addmi	r2, r2, #3
 487              		.loc 1 398 0
 488 00c6 9210     		asrs	r2, r2, #2
 489              		.loc 1 392 0
 490 00c8 4FEAA304 		asr	r4, r3, #2
 491              	.LVL31:
 492              		.loc 1 398 0
 493 00cc 1AD4     		bmi	.L33
 494              		.loc 1 403 0
 495 00ce 0221     		movs	r1, #2
 496 00d0 2048     		ldr	r0, .L35+32
 497 00d2 FFF7FEFF 		bl	pwmEnableChannel
 498              	.LVL32:
 499              		.loc 1 404 0
 500 00d6 0022     		movs	r2, #0
 501 00d8 1146     		mov	r1, r2
 502 00da 1E48     		ldr	r0, .L35+32
 503 00dc FFF7FEFF 		bl	pwmEnableChannel
 504              	.LVL33:
 505              		.loc 1 406 0
 506 00e0 002C     		cmp	r4, #0
 507 00e2 1BDB     		blt	.L34
 508              	.L28:
 509              		.loc 1 411 0
 510 00e4 2246     		mov	r2, r4
 511 00e6 0321     		movs	r1, #3
 512 00e8 1A48     		ldr	r0, .L35+32
 513 00ea FFF7FEFF 		bl	pwmEnableChannel
ARM GAS  /tmp/ccM0affm.s 			page 10


 514              	.LVL34:
 515              		.loc 1 412 0
 516 00ee 0022     		movs	r2, #0
 517 00f0 0121     		movs	r1, #1
 518 00f2 1848     		ldr	r0, .L35+32
 519 00f4 FFF7FEFF 		bl	pwmEnableChannel
 520              	.LVL35:
 521              	.L29:
 522              		.loc 1 416 0
 523 00f8 07F57A77 		add	r7, r7, #1000
 524              	.LVL36:
 525 00fc 3846     		mov	r0, r7
 526 00fe FFF7FEFF 		bl	chThdSleepUntil
 527              	.LVL37:
 528              	.LBE99:
 529              		.loc 1 417 0
 530 0102 9CE7     		b	.L30
 531              	.L33:
 532              	.LBB100:
 533              		.loc 1 399 0
 534 0104 5242     		negs	r2, r2
 535 0106 0021     		movs	r1, #0
 536 0108 1248     		ldr	r0, .L35+32
 537 010a FFF7FEFF 		bl	pwmEnableChannel
 538              	.LVL38:
 539              		.loc 1 400 0
 540 010e 0022     		movs	r2, #0
 541 0110 0221     		movs	r1, #2
 542 0112 1048     		ldr	r0, .L35+32
 543 0114 FFF7FEFF 		bl	pwmEnableChannel
 544              	.LVL39:
 545              		.loc 1 406 0
 546 0118 002C     		cmp	r4, #0
 547 011a E3DA     		bge	.L28
 548              	.L34:
 549              		.loc 1 407 0
 550 011c 6242     		negs	r2, r4
 551 011e 0121     		movs	r1, #1
 552 0120 0C48     		ldr	r0, .L35+32
 553 0122 FFF7FEFF 		bl	pwmEnableChannel
 554              	.LVL40:
 555              		.loc 1 408 0
 556 0126 0022     		movs	r2, #0
 557 0128 0321     		movs	r1, #3
 558 012a 0A48     		ldr	r0, .L35+32
 559 012c FFF7FEFF 		bl	pwmEnableChannel
 560              	.LVL41:
 561 0130 E2E7     		b	.L29
 562              	.L36:
 563 0132 00BF     		.align	2
 564              	.L35:
 565 0134 00000000 		.word	ch
 566 0138 00000000 		.word	.LC0
 567 013c 00000000 		.word	SPID1
 568 0140 00000000 		.word	.LANCHOR5
 569 0144 00000000 		.word	.LANCHOR6
 570 0148 03000000 		.word	.LANCHOR5+3
ARM GAS  /tmp/ccM0affm.s 			page 11


 571 014c 03000000 		.word	.LANCHOR6+3
 572 0150 00000000 		.word	SPID2
 573 0154 00000000 		.word	PWMD4
 574              	.LBE100:
 575              		.cfi_endproc
 576              	.LFE269:
 577              		.size	Thread1, .-Thread1
 578              		.section	.text.cmd_test,"ax",%progbits
 579              		.align	2
 580              		.p2align 4,,15
 581              		.thumb
 582              		.thumb_func
 583              		.type	cmd_test, %function
 584              	cmd_test:
 585              	.LFB268:
 586              		.loc 1 273 0
 587              		.cfi_startproc
 588              		@ args = 0, pretend = 0, frame = 0
 589              		@ frame_needed = 0, uses_anonymous_args = 0
 590              	.LVL42:
 591              		.loc 1 277 0
 592 0000 0029     		cmp	r1, #0
 593 0002 02DD     		ble	.L38
 594              		.loc 1 278 0
 595 0004 0E49     		ldr	r1, .L42
 596              	.LVL43:
 597 0006 FFF7FEBF 		b	chprintf
 598              	.LVL44:
 599              	.L38:
 600              		.loc 1 273 0
 601 000a 10B5     		push	{r4, lr}
 602              		.cfi_def_cfa_offset 8
 603              		.cfi_offset 4, -8
 604              		.cfi_offset 14, -4
 605              	.LBB107:
 606              	.LBB108:
 607              	.LBB109:
 608              	.LBB110:
 609              	.LBB111:
 610              	.LBB112:
 611              		.file 6 "/home/selim/working/ChibiOS/os/rt/include/chthreads.h"
 612              		.loc 6 176 0
 613 000c 0D4A     		ldr	r2, .L42+4
 614              	.LVL45:
 615              	.LBE112:
 616              	.LBE111:
 617              	.LBE110:
 618              	.LBE109:
 619              		.loc 1 281 0
 620 000e 0E4B     		ldr	r3, .L42+8
 621              	.LBB114:
 622              	.LBB113:
 623              		.loc 6 189 0
 624 0010 9269     		ldr	r2, [r2, #24]
 625              	.LBE113:
 626              	.LBE114:
 627              	.LBE108:
ARM GAS  /tmp/ccM0affm.s 			page 12


 628              	.LBE107:
 629              		.loc 1 273 0
 630 0012 82B0     		sub	sp, sp, #8
 631              		.cfi_def_cfa_offset 16
 632 0014 0446     		mov	r4, r0
 633              	.LBB118:
 634              	.LBB115:
 635              		.loc 1 281 0
 636 0016 9268     		ldr	r2, [r2, #8]
 637 0018 0090     		str	r0, [sp]
 638 001a 4FF4E471 		mov	r1, #456
 639              	.LVL46:
 640 001e 0020     		movs	r0, #0
 641              	.LVL47:
 642 0020 FFF7FEFF 		bl	chThdCreateFromHeap
 643              	.LVL48:
 644              		.loc 1 283 0
 645 0024 20B1     		cbz	r0, .L41
 646              	.LBE115:
 647              	.LBE118:
 648              		.loc 1 288 0
 649 0026 02B0     		add	sp, sp, #8
 650              		.cfi_remember_state
 651              		.cfi_def_cfa_offset 8
 652              		@ sp needed
 653 0028 BDE81040 		pop	{r4, lr}
 654              		.cfi_restore 14
 655              		.cfi_restore 4
 656              		.cfi_def_cfa_offset 0
 657              	.LVL49:
 658              	.LBB119:
 659              	.LBB116:
 660              		.loc 1 287 0
 661 002c FFF7FEBF 		b	chThdWait
 662              	.LVL50:
 663              	.L41:
 664              		.cfi_restore_state
 665              		.loc 1 284 0
 666 0030 0649     		ldr	r1, .L42+12
 667 0032 2046     		mov	r0, r4
 668              	.LVL51:
 669              	.LBE116:
 670              	.LBE119:
 671              		.loc 1 288 0
 672 0034 02B0     		add	sp, sp, #8
 673              		.cfi_def_cfa_offset 8
 674              		@ sp needed
 675 0036 BDE81040 		pop	{r4, lr}
 676              		.cfi_restore 14
 677              		.cfi_restore 4
 678              		.cfi_def_cfa_offset 0
 679              	.LVL52:
 680              	.LBB120:
 681              	.LBB117:
 682              		.loc 1 284 0
 683 003a FFF7FEBF 		b	chprintf
 684              	.LVL53:
ARM GAS  /tmp/ccM0affm.s 			page 13


 685              	.L43:
 686 003e 00BF     		.align	2
 687              	.L42:
 688 0040 08000000 		.word	.LC1
 689 0044 00000000 		.word	ch
 690 0048 00000000 		.word	TestThread
 691 004c 18000000 		.word	.LC2
 692              	.LBE117:
 693              	.LBE120:
 694              		.cfi_endproc
 695              	.LFE268:
 696              		.size	cmd_test, .-cmd_test
 697              		.section	.text.cmd_threads,"ax",%progbits
 698              		.align	2
 699              		.p2align 4,,15
 700              		.thumb
 701              		.thumb_func
 702              		.type	cmd_threads, %function
 703              	cmd_threads:
 704              	.LFB267:
 705              		.loc 1 253 0
 706              		.cfi_startproc
 707              		@ args = 0, pretend = 0, frame = 0
 708              		@ frame_needed = 0, uses_anonymous_args = 0
 709              	.LVL54:
 710              		.loc 1 258 0
 711 0000 0029     		cmp	r1, #0
 712 0002 02DD     		ble	.L45
 713              		.loc 1 259 0
 714 0004 1149     		ldr	r1, .L49
 715              	.LVL55:
 716 0006 FFF7FEBF 		b	chprintf
 717              	.LVL56:
 718              	.L45:
 719              		.loc 1 253 0
 720 000a 70B5     		push	{r4, r5, r6, lr}
 721              		.cfi_def_cfa_offset 16
 722              		.cfi_offset 4, -16
 723              		.cfi_offset 5, -12
 724              		.cfi_offset 6, -8
 725              		.cfi_offset 14, -4
 726              	.LBB123:
 727              	.LBB124:
 728              		.loc 1 262 0
 729 000c 1049     		ldr	r1, .L49+4
 730              	.LVL57:
 731 000e 114E     		ldr	r6, .L49+8
 732              	.LBE124:
 733              	.LBE123:
 734              		.loc 1 253 0
 735 0010 84B0     		sub	sp, sp, #16
 736              		.cfi_def_cfa_offset 32
 737 0012 0546     		mov	r5, r0
 738              	.LVL58:
 739              	.LBB126:
 740              	.LBB125:
 741              		.loc 1 262 0
ARM GAS  /tmp/ccM0affm.s 			page 14


 742 0014 FFF7FEFF 		bl	chprintf
 743              	.LVL59:
 744              		.loc 1 263 0
 745 0018 FFF7FEFF 		bl	chRegFirstThread
 746              	.LVL60:
 747 001c 0446     		mov	r4, r0
 748              	.LVL61:
 749              	.L46:
 750              		.loc 1 265 0
 751 001e 227F     		ldrb	r2, [r4, #28]	@ zero_extendqisi2
 752 0020 E368     		ldr	r3, [r4, #12]
 753 0022 56F82220 		ldr	r2, [r6, r2, lsl #2]
 754 0026 0292     		str	r2, [sp, #8]
 755 0028 A27F     		ldrb	r2, [r4, #30]	@ zero_extendqisi2
 756 002a 0B49     		ldr	r1, .L49+12
 757 002c 013A     		subs	r2, r2, #1
 758 002e 0192     		str	r2, [sp, #4]
 759 0030 A268     		ldr	r2, [r4, #8]
 760 0032 0092     		str	r2, [sp]
 761 0034 2846     		mov	r0, r5
 762              	.LVL62:
 763 0036 2246     		mov	r2, r4
 764 0038 FFF7FEFF 		bl	chprintf
 765              	.LVL63:
 766              		.loc 1 269 0
 767 003c 2046     		mov	r0, r4
 768 003e FFF7FEFF 		bl	chRegNextThread
 769              	.LVL64:
 770              		.loc 1 270 0
 771 0042 0446     		mov	r4, r0
 772 0044 0028     		cmp	r0, #0
 773 0046 EAD1     		bne	.L46
 774              	.LBE125:
 775              	.LBE126:
 776              		.loc 1 271 0
 777 0048 04B0     		add	sp, sp, #16
 778              		.cfi_def_cfa_offset 16
 779              		@ sp needed
 780 004a 70BD     		pop	{r4, r5, r6, pc}
 781              	.LVL65:
 782              	.L50:
 783              		.align	2
 784              	.L49:
 785 004c 28000000 		.word	.LC3
 786 0050 3C000000 		.word	.LC4
 787 0054 00000000 		.word	.LANCHOR7
 788 0058 64000000 		.word	.LC5
 789              		.cfi_endproc
 790              	.LFE267:
 791              		.size	cmd_threads, .-cmd_threads
 792              		.section	.text.cmd_mem,"ax",%progbits
 793              		.align	2
 794              		.p2align 4,,15
 795              		.thumb
 796              		.thumb_func
 797              		.type	cmd_mem, %function
 798              	cmd_mem:
ARM GAS  /tmp/ccM0affm.s 			page 15


 799              	.LFB266:
 800              		.loc 1 240 0
 801              		.cfi_startproc
 802              		@ args = 0, pretend = 0, frame = 8
 803              		@ frame_needed = 0, uses_anonymous_args = 0
 804              	.LVL66:
 805 0000 30B5     		push	{r4, r5, lr}
 806              		.cfi_def_cfa_offset 12
 807              		.cfi_offset 4, -12
 808              		.cfi_offset 5, -8
 809              		.cfi_offset 14, -4
 810              		.loc 1 243 0
 811 0002 0029     		cmp	r1, #0
 812              		.loc 1 240 0
 813 0004 83B0     		sub	sp, sp, #12
 814              		.cfi_def_cfa_offset 24
 815              		.loc 1 243 0
 816 0006 04DD     		ble	.L52
 817              		.loc 1 244 0
 818 0008 0E49     		ldr	r1, .L55
 819              	.LVL67:
 820 000a FFF7FEFF 		bl	chprintf
 821              	.LVL68:
 822              		.loc 1 251 0
 823 000e 03B0     		add	sp, sp, #12
 824              		.cfi_remember_state
 825              		.cfi_def_cfa_offset 12
 826              		@ sp needed
 827 0010 30BD     		pop	{r4, r5, pc}
 828              	.LVL69:
 829              	.L52:
 830              		.cfi_restore_state
 831 0012 0446     		mov	r4, r0
 832              	.LVL70:
 833              	.LBB129:
 834              	.LBB130:
 835              		.loc 1 247 0
 836 0014 01A9     		add	r1, sp, #4
 837              	.LVL71:
 838 0016 0020     		movs	r0, #0
 839              	.LVL72:
 840 0018 FFF7FEFF 		bl	chHeapStatus
 841              	.LVL73:
 842 001c 0546     		mov	r5, r0
 843              	.LVL74:
 844              		.loc 1 248 0
 845 001e FFF7FEFF 		bl	chCoreGetStatusX
 846              	.LVL75:
 847 0022 0949     		ldr	r1, .L55+4
 848 0024 0246     		mov	r2, r0
 849 0026 2046     		mov	r0, r4
 850 0028 FFF7FEFF 		bl	chprintf
 851              	.LVL76:
 852              		.loc 1 249 0
 853 002c 2A46     		mov	r2, r5
 854 002e 0749     		ldr	r1, .L55+8
 855 0030 2046     		mov	r0, r4
ARM GAS  /tmp/ccM0affm.s 			page 16


 856 0032 FFF7FEFF 		bl	chprintf
 857              	.LVL77:
 858              		.loc 1 250 0
 859 0036 2046     		mov	r0, r4
 860 0038 019A     		ldr	r2, [sp, #4]
 861 003a 0549     		ldr	r1, .L55+12
 862 003c FFF7FEFF 		bl	chprintf
 863              	.LVL78:
 864              	.LBE130:
 865              	.LBE129:
 866              		.loc 1 251 0
 867 0040 03B0     		add	sp, sp, #12
 868              		.cfi_def_cfa_offset 12
 869              		@ sp needed
 870 0042 30BD     		pop	{r4, r5, pc}
 871              	.LVL79:
 872              	.L56:
 873              		.align	2
 874              	.L55:
 875 0044 80000000 		.word	.LC6
 876 0048 90000000 		.word	.LC7
 877 004c B0000000 		.word	.LC8
 878 0050 C8000000 		.word	.LC9
 879              		.cfi_endproc
 880              	.LFE266:
 881              		.size	cmd_mem, .-cmd_mem
 882              		.section	.text.GetLine,"ax",%progbits
 883              		.align	2
 884              		.p2align 4,,15
 885              		.global	GetLine
 886              		.thumb
 887              		.thumb_func
 888              		.type	GetLine, %function
 889              	GetLine:
 890              	.LFB261:
 891              		.loc 1 77 0
 892              		.cfi_startproc
 893              		@ args = 0, pretend = 0, frame = 8
 894              		@ frame_needed = 0, uses_anonymous_args = 0
 895              	.LVL80:
 896 0000 F0B5     		push	{r4, r5, r6, r7, lr}
 897              		.cfi_def_cfa_offset 20
 898              		.cfi_offset 4, -20
 899              		.cfi_offset 5, -16
 900              		.cfi_offset 6, -12
 901              		.cfi_offset 7, -8
 902              		.cfi_offset 14, -4
 903              	.LBB131:
 904              		.loc 1 100 0
 905 0002 013A     		subs	r2, r2, #1
 906              	.LVL81:
 907              	.LBE131:
 908              		.loc 1 77 0
 909 0004 83B0     		sub	sp, sp, #12
 910              		.cfi_def_cfa_offset 32
 911              		.loc 1 77 0
 912 0006 0E46     		mov	r6, r1
ARM GAS  /tmp/ccM0affm.s 			page 17


 913              	.LVL82:
 914              	.LBB132:
 915              		.loc 1 100 0
 916 0008 8F18     		adds	r7, r1, r2
 917              	.LBE132:
 918              		.loc 1 77 0
 919 000a 0446     		mov	r4, r0
 920 000c 0D46     		mov	r5, r1
 921              	.LVL83:
 922              	.L58:
 923              	.LBB133:
 924              		.loc 1 83 0
 925 000e 2368     		ldr	r3, [r4]
 926 0010 0122     		movs	r2, #1
 927 0012 5B68     		ldr	r3, [r3, #4]
 928 0014 0DF10701 		add	r1, sp, #7
 929 0018 2046     		mov	r0, r4
 930 001a 9847     		blx	r3
 931              	.LVL84:
 932 001c A8B1     		cbz	r0, .L72
 933              		.loc 1 85 0
 934 001e 9DF80730 		ldrb	r3, [sp, #7]	@ zero_extendqisi2
 935 0022 042B     		cmp	r3, #4
 936 0024 10D0     		beq	.L67
 937              		.loc 1 88 0
 938 0026 082B     		cmp	r3, #8
 939 0028 0AD0     		beq	.L60
 940              		.loc 1 88 0 is_stmt 0 discriminator 1
 941 002a 7F2B     		cmp	r3, #127
 942 002c 08D0     		beq	.L60
 943              		.loc 1 94 0 is_stmt 1
 944 002e 0D2B     		cmp	r3, #13
 945 0030 0DD0     		beq	.L74
 946              		.loc 1 98 0
 947 0032 1F2B     		cmp	r3, #31
 948 0034 EBD9     		bls	.L58
 949              	.LVL85:
 950              		.loc 1 100 0
 951 0036 BD42     		cmp	r5, r7
 952 0038 E9D2     		bcs	.L58
 953              		.loc 1 101 0
 954 003a 2B70     		strb	r3, [r5]
 955 003c 0135     		adds	r5, r5, #1
 956              	.LVL86:
 957 003e E6E7     		b	.L58
 958              	.L60:
 959              		.loc 1 89 0
 960 0040 B542     		cmp	r5, r6
 961 0042 E4D0     		beq	.L58
 962              		.loc 1 90 0
 963 0044 013D     		subs	r5, r5, #1
 964              	.LVL87:
 965 0046 E2E7     		b	.L58
 966              	.L67:
 967              		.loc 1 84 0
 968 0048 0020     		movs	r0, #0
 969              	.L72:
ARM GAS  /tmp/ccM0affm.s 			page 18


 970              	.LBE133:
 971              		.loc 1 104 0
 972 004a 03B0     		add	sp, sp, #12
 973              		.cfi_remember_state
 974              		.cfi_def_cfa_offset 20
 975              		@ sp needed
 976 004c F0BD     		pop	{r4, r5, r6, r7, pc}
 977              	.LVL88:
 978              	.L74:
 979              		.cfi_restore_state
 980              	.LBB134:
 981              		.loc 1 95 0
 982 004e 0023     		movs	r3, #0
 983              		.loc 1 96 0
 984 0050 0120     		movs	r0, #1
 985              		.loc 1 95 0
 986 0052 2B70     		strb	r3, [r5]
 987              	.LBE134:
 988              		.loc 1 104 0
 989 0054 03B0     		add	sp, sp, #12
 990              		.cfi_def_cfa_offset 20
 991              		@ sp needed
 992 0056 F0BD     		pop	{r4, r5, r6, r7, pc}
 993              		.cfi_endproc
 994              	.LFE261:
 995              		.size	GetLine, .-GetLine
 996              		.section	.text.GetlineTHread,"ax",%progbits
 997              		.align	2
 998              		.p2align 4,,15
 999              		.thumb
 1000              		.thumb_func
 1001              		.type	GetlineTHread, %function
 1002              	GetlineTHread:
 1003              	.LFB262:
 1004              		.loc 1 109 0
 1005              		.cfi_startproc
 1006              		@ args = 0, pretend = 0, frame = 0
 1007              		@ frame_needed = 0, uses_anonymous_args = 0
 1008              	.LVL89:
 1009 0000 10B5     		push	{r4, lr}
 1010              		.cfi_def_cfa_offset 8
 1011              		.cfi_offset 4, -8
 1012              		.cfi_offset 14, -4
 1013              	.LBB135:
 1014              	.LBB136:
 1015              		.loc 1 121 0
 1016 0002 094C     		ldr	r4, .L81
 1017              	.LVL90:
 1018              	.L76:
 1019              	.LBE136:
 1020              		.loc 1 114 0
 1021 0004 0949     		ldr	r1, .L81+4
 1022 0006 0A48     		ldr	r0, .L81+8
 1023 0008 6422     		movs	r2, #100
 1024 000a FFF7FEFF 		bl	GetLine
 1025              	.LVL91:
 1026              		.loc 1 116 0
ARM GAS  /tmp/ccM0affm.s 			page 19


 1027 000e 0028     		cmp	r0, #0
 1028 0010 F8D0     		beq	.L76
 1029              	.LBB137:
 1030              		.loc 1 119 0
 1031 0012 0022     		movs	r2, #0
 1032 0014 1146     		mov	r1, r2
 1033 0016 0548     		ldr	r0, .L81+4
 1034              	.LVL92:
 1035 0018 FFF7FEFF 		bl	strtol
 1036              	.LVL93:
 1037              		.loc 1 121 0
 1038 001c B4FBF0F1 		udiv	r1, r4, r0
 1039 0020 0448     		ldr	r0, .L81+12
 1040              	.LVL94:
 1041 0022 FFF7FEFF 		bl	gptChangeInterval
 1042              	.LVL95:
 1043 0026 EDE7     		b	.L76
 1044              	.L82:
 1045              		.align	2
 1046              	.L81:
 1047 0028 40420F00 		.word	1000000
 1048 002c 00000000 		.word	.LANCHOR8
 1049 0030 00000000 		.word	.LANCHOR4
 1050 0034 00000000 		.word	GPTD3
 1051              	.LBE137:
 1052              	.LBE135:
 1053              		.cfi_endproc
 1054              	.LFE262:
 1055              		.size	GetlineTHread, .-GetlineTHread
 1056              		.section	.text.startADC,"ax",%progbits
 1057              		.align	2
 1058              		.p2align 4,,15
 1059              		.global	startADC
 1060              		.thumb
 1061              		.thumb_func
 1062              		.type	startADC, %function
 1063              	startADC:
 1064              	.LFB265:
 1065              		.loc 1 228 0
 1066              		.cfi_startproc
 1067              		@ args = 0, pretend = 0, frame = 0
 1068              		@ frame_needed = 0, uses_anonymous_args = 0
 1069              	.LVL96:
 1070 0000 38B5     		push	{r3, r4, r5, lr}
 1071              		.cfi_def_cfa_offset 16
 1072              		.cfi_offset 3, -16
 1073              		.cfi_offset 4, -12
 1074              		.cfi_offset 5, -8
 1075              		.cfi_offset 14, -4
 1076              		.loc 1 230 0
 1077 0002 0C4D     		ldr	r5, .L85
 1078              		.loc 1 233 0
 1079 0004 0C4C     		ldr	r4, .L85+4
 1080              		.loc 1 230 0
 1081 0006 2846     		mov	r0, r5
 1082 0008 0021     		movs	r1, #0
 1083 000a FFF7FEFF 		bl	adcStart
ARM GAS  /tmp/ccM0affm.s 			page 20


 1084              	.LVL97:
 1085              		.loc 1 231 0
 1086 000e FFF7FEFF 		bl	adcSTM32EnableTSVREFE
 1087              	.LVL98:
 1088              		.loc 1 232 0
 1089 0012 2846     		mov	r0, r5
 1090 0014 0123     		movs	r3, #1
 1091 0016 094A     		ldr	r2, .L85+8
 1092 0018 0949     		ldr	r1, .L85+12
 1093 001a FFF7FEFF 		bl	adcStartConversion
 1094              	.LVL99:
 1095              		.loc 1 233 0
 1096 001e 2046     		mov	r0, r4
 1097 0020 0849     		ldr	r1, .L85+16
 1098 0022 FFF7FEFF 		bl	gptStart
 1099              	.LVL100:
 1100              		.loc 1 234 0
 1101 0026 2046     		mov	r0, r4
 1102 0028 4FF47A71 		mov	r1, #1000
 1103              		.loc 1 237 0
 1104 002c BDE83840 		pop	{r3, r4, r5, lr}
 1105              		.cfi_restore 14
 1106              		.cfi_restore 5
 1107              		.cfi_restore 4
 1108              		.cfi_restore 3
 1109              		.cfi_def_cfa_offset 0
 1110              		.loc 1 234 0
 1111 0030 FFF7FEBF 		b	gptStartContinuous
 1112              	.LVL101:
 1113              	.L86:
 1114              		.align	2
 1115              	.L85:
 1116 0034 00000000 		.word	ADCD1
 1117 0038 00000000 		.word	GPTD3
 1118 003c 00000000 		.word	.LANCHOR3
 1119 0040 00000000 		.word	.LANCHOR9
 1120 0044 00000000 		.word	.LANCHOR10
 1121              		.cfi_endproc
 1122              	.LFE265:
 1123              		.size	startADC, .-startADC
 1124              		.section	.text.startup.main,"ax",%progbits
 1125              		.align	2
 1126              		.p2align 4,,15
 1127              		.global	main
 1128              		.thumb
 1129              		.thumb_func
 1130              		.type	main, %function
 1131              	main:
 1132              	.LFB270:
 1133              		.loc 1 427 0
 1134              		.cfi_startproc
 1135              		@ args = 0, pretend = 0, frame = 0
 1136              		@ frame_needed = 0, uses_anonymous_args = 0
 1137              	.LVL102:
 1138 0000 70B5     		push	{r4, r5, r6, lr}
 1139              		.cfi_def_cfa_offset 16
 1140              		.cfi_offset 4, -16
ARM GAS  /tmp/ccM0affm.s 			page 21


 1141              		.cfi_offset 5, -12
 1142              		.cfi_offset 6, -8
 1143              		.cfi_offset 14, -4
 1144              		.loc 1 440 0
 1145 0002 664C     		ldr	r4, .L94
 1146 0004 664D     		ldr	r5, .L94+4
 1147              		.loc 1 465 0
 1148 0006 674E     		ldr	r6, .L94+8
 1149              		.loc 1 427 0
 1150 0008 82B0     		sub	sp, sp, #8
 1151              		.cfi_def_cfa_offset 24
 1152              		.loc 1 436 0
 1153 000a FFF7FEFF 		bl	halInit
 1154              	.LVL103:
 1155              		.loc 1 437 0
 1156 000e FFF7FEFF 		bl	chSysInit
 1157              	.LVL104:
 1158              		.loc 1 439 0
 1159 0012 0122     		movs	r2, #1
 1160 0014 8021     		movs	r1, #128
 1161 0016 6448     		ldr	r0, .L94+12
 1162 0018 FFF7FEFF 		bl	_pal_lld_setgroupmode
 1163              	.LVL105:
 1164              		.loc 1 440 0
 1165 001c 2046     		mov	r0, r4
 1166 001e 0122     		movs	r2, #1
 1167 0020 2021     		movs	r1, #32
 1168 0022 FFF7FEFF 		bl	_pal_lld_setgroupmode
 1169              	.LVL106:
 1170              		.loc 1 442 0
 1171 0026 6148     		ldr	r0, .L94+16
 1172 0028 4FF48073 		mov	r3, #256
 1173 002c 0383     		strh	r3, [r0, #24]	@ movhi
 1174              		.loc 1 448 0
 1175 002e 0322     		movs	r2, #3
 1176 0030 3621     		movs	r1, #54
 1177 0032 FFF7FEFF 		bl	_pal_lld_setgroupmode
 1178              	.LVL107:
 1179              		.loc 1 450 0
 1180 0036 0322     		movs	r2, #3
 1181 0038 0E21     		movs	r1, #14
 1182 003a 5D48     		ldr	r0, .L94+20
 1183 003c FFF7FEFF 		bl	_pal_lld_setgroupmode
 1184              	.LVL108:
 1185              		.loc 1 452 0
 1186 0040 0322     		movs	r2, #3
 1187 0042 2046     		mov	r0, r4
 1188 0044 0121     		movs	r1, #1
 1189 0046 FFF7FEFF 		bl	_pal_lld_setgroupmode
 1190              	.LVL109:
 1191              		.loc 1 458 0
 1192 004a FFF7FEFF 		bl	shellInit
 1193              	.LVL110:
 1194              		.loc 1 464 0
 1195 004e 2846     		mov	r0, r5
 1196 0050 FFF7FEFF 		bl	sduObjectInit
 1197              	.LVL111:
ARM GAS  /tmp/ccM0affm.s 			page 22


 1198              		.loc 1 465 0
 1199 0054 3146     		mov	r1, r6
 1200 0056 2846     		mov	r0, r5
 1201 0058 FFF7FEFF 		bl	sduStart
 1202              	.LVL112:
 1203              		.loc 1 472 0
 1204 005c 3368     		ldr	r3, [r6]
 1205 005e 1A6D     		ldr	r2, [r3, #80]
 1206 0060 936B     		ldr	r3, [r2, #56]
 1207 0062 23F40023 		bic	r3, r3, #524288
 1208 0066 9363     		str	r3, [r2, #56]
 1209              		.loc 1 473 0
 1210 0068 42F21070 		movw	r0, #10000
 1211 006c FFF7FEFF 		bl	chThdSleep
 1212              	.LVL113:
 1213              		.loc 1 474 0
 1214 0070 3068     		ldr	r0, [r6]
 1215 0072 5049     		ldr	r1, .L94+24
 1216 0074 FFF7FEFF 		bl	usbStart
 1217              	.LVL114:
 1218              		.loc 1 475 0
 1219 0078 3368     		ldr	r3, [r6]
 1220              		.loc 1 481 0
 1221 007a 4F48     		ldr	r0, .L94+28
 1222              		.loc 1 475 0
 1223 007c 1A6D     		ldr	r2, [r3, #80]
 1224 007e 936B     		ldr	r3, [r2, #56]
 1225 0080 43F40023 		orr	r3, r3, #524288
 1226 0084 9363     		str	r3, [r2, #56]
 1227              		.loc 1 481 0
 1228 0086 0021     		movs	r1, #0
 1229 0088 FFF7FEFF 		bl	sdStart
 1230              	.LVL115:
 1231              		.loc 1 482 0
 1232 008c 40F28232 		movw	r2, #898
 1233 0090 0421     		movs	r1, #4
 1234 0092 4748     		ldr	r0, .L94+20
 1235 0094 FFF7FEFF 		bl	_pal_lld_setgroupmode
 1236              	.LVL116:
 1237              		.loc 1 483 0
 1238 0098 40F28232 		movw	r2, #898
 1239 009c 0821     		movs	r1, #8
 1240 009e 4448     		ldr	r0, .L94+20
 1241 00a0 FFF7FEFF 		bl	_pal_lld_setgroupmode
 1242              	.LVL117:
 1243              		.loc 1 489 0
 1244 00a4 4549     		ldr	r1, .L94+32
 1245 00a6 4648     		ldr	r0, .L94+36
 1246 00a8 FFF7FEFF 		bl	spiStart
 1247              	.LVL118:
 1248              		.loc 1 499 0
 1249 00ac 4FF48056 		mov	r6, #4096
 1250              		.loc 1 498 0
 1251 00b0 4449     		ldr	r1, .L94+40
 1252 00b2 4548     		ldr	r0, .L94+44
 1253 00b4 FFF7FEFF 		bl	spiStart
 1254              	.LVL119:
ARM GAS  /tmp/ccM0affm.s 			page 23


 1255              		.loc 1 500 0
 1256 00b8 2046     		mov	r0, r4
 1257              		.loc 1 499 0
 1258 00ba 2683     		strh	r6, [r4, #24]	@ movhi
 1259              		.loc 1 500 0
 1260 00bc 3146     		mov	r1, r6
 1261 00be 1922     		movs	r2, #25
 1262 00c0 FFF7FEFF 		bl	_pal_lld_setgroupmode
 1263              	.LVL120:
 1264              		.loc 1 502 0
 1265 00c4 2046     		mov	r0, r4
 1266 00c6 40F29A22 		movw	r2, #666
 1267 00ca 4FF40051 		mov	r1, #8192
 1268 00ce FFF7FEFF 		bl	_pal_lld_setgroupmode
 1269              	.LVL121:
 1270              		.loc 1 504 0
 1271 00d2 2046     		mov	r0, r4
 1272 00d4 40F28222 		movw	r2, #642
 1273 00d8 4FF48041 		mov	r1, #16384
 1274 00dc FFF7FEFF 		bl	_pal_lld_setgroupmode
 1275              	.LVL122:
 1276              		.loc 1 505 0
 1277 00e0 2046     		mov	r0, r4
 1278 00e2 40F29A22 		movw	r2, #666
 1279 00e6 4FF40041 		mov	r1, #32768
 1280 00ea FFF7FEFF 		bl	_pal_lld_setgroupmode
 1281              	.LVL123:
 1282              		.loc 1 511 0
 1283 00ee 3749     		ldr	r1, .L94+48
 1284 00f0 3748     		ldr	r0, .L94+52
 1285 00f2 FFF7FEFF 		bl	pwmStart
 1286              	.LVL124:
 1287              		.loc 1 512 0
 1288 00f6 3146     		mov	r1, r6
 1289 00f8 4FF48172 		mov	r2, #258
 1290 00fc 2A48     		ldr	r0, .L94+12
 1291 00fe FFF7FEFF 		bl	_pal_lld_setgroupmode
 1292              	.LVL125:
 1293              		.loc 1 513 0
 1294 0102 4FF48172 		mov	r2, #258
 1295 0106 4FF40051 		mov	r1, #8192
 1296 010a 2748     		ldr	r0, .L94+12
 1297 010c FFF7FEFF 		bl	_pal_lld_setgroupmode
 1298              	.LVL126:
 1299              		.loc 1 514 0
 1300 0110 4FF48172 		mov	r2, #258
 1301 0114 4FF48041 		mov	r1, #16384
 1302 0118 2348     		ldr	r0, .L94+12
 1303 011a FFF7FEFF 		bl	_pal_lld_setgroupmode
 1304              	.LVL127:
 1305              		.loc 1 523 0
 1306 011e 0024     		movs	r4, #0
 1307              		.loc 1 515 0
 1308 0120 4FF48172 		mov	r2, #258
 1309 0124 4FF40041 		mov	r1, #32768
 1310 0128 1F48     		ldr	r0, .L94+12
 1311 012a FFF7FEFF 		bl	_pal_lld_setgroupmode
ARM GAS  /tmp/ccM0affm.s 			page 24


 1312              	.LVL128:
 1313              		.loc 1 523 0
 1314 012e 294B     		ldr	r3, .L94+56
 1315 0130 0094     		str	r4, [sp]
 1316 0132 4A22     		movs	r2, #74
 1317 0134 4FF4A471 		mov	r1, #328
 1318 0138 2748     		ldr	r0, .L94+60
 1319 013a FFF7FEFF 		bl	chThdCreateStatic
 1320              	.LVL129:
 1321              		.loc 1 526 0
 1322 013e FFF7FEFF 		bl	startADC
 1323              	.LVL130:
 1324              		.loc 1 528 0
 1325 0142 264B     		ldr	r3, .L94+64
 1326 0144 0094     		str	r4, [sp]
 1327 0146 4A22     		movs	r2, #74
 1328 0148 4FF4A471 		mov	r1, #328
 1329 014c 2448     		ldr	r0, .L94+68
 1330 014e FFF7FEFF 		bl	chThdCreateStatic
 1331              	.LVL131:
 1332              		.loc 1 531 0
 1333 0152 0094     		str	r4, [sp]
 1334 0154 234B     		ldr	r3, .L94+72
 1335 0156 2448     		ldr	r0, .L94+76
 1336 0158 4A22     		movs	r2, #74
 1337 015a 4FF4A471 		mov	r1, #328
 1338 015e FFF7FEFF 		bl	chThdCreateStatic
 1339              	.LVL132:
 1340              		.loc 1 545 0
 1341 0162 44B1     		cbz	r4, .L92
 1342              	.L88:
 1343              		.loc 1 553 0
 1344 0164 237F     		ldrb	r3, [r4, #28]	@ zero_extendqisi2
 1345 0166 0F2B     		cmp	r3, #15
 1346 0168 13D0     		beq	.L93
 1347              	.LVL133:
 1348              	.L89:
 1349              		.loc 1 559 0
 1350 016a 41F28830 		movw	r0, #5000
 1351 016e FFF7FEFF 		bl	chThdSleep
 1352              	.LVL134:
 1353              		.loc 1 545 0
 1354 0172 002C     		cmp	r4, #0
 1355 0174 F6D1     		bne	.L88
 1356              	.L92:
 1357              	.LVL135:
 1358              		.loc 1 546 0
 1359 0176 D5F85432 		ldr	r3, [r5, #596]
 1360 017a 1B68     		ldr	r3, [r3]
 1361 017c 1B78     		ldrb	r3, [r3]	@ zero_extendqisi2
 1362 017e 042B     		cmp	r3, #4
 1363 0180 F3D1     		bne	.L89
 1364              		.loc 1 548 0
 1365 0182 4022     		movs	r2, #64
 1366 0184 40F6C801 		movw	r1, #2248
 1367 0188 1848     		ldr	r0, .L94+80
 1368 018a FFF7FEFF 		bl	shellCreate
ARM GAS  /tmp/ccM0affm.s 			page 25


 1369              	.LVL136:
 1370 018e 0446     		mov	r4, r0
 1371              	.LVL137:
 1372 0190 EBE7     		b	.L89
 1373              	.LVL138:
 1374              	.L93:
 1375              		.loc 1 555 0
 1376 0192 2046     		mov	r0, r4
 1377 0194 FFF7FEFF 		bl	chThdRelease
 1378              	.LVL139:
 1379              		.loc 1 556 0
 1380 0198 0024     		movs	r4, #0
 1381              	.LVL140:
 1382 019a E6E7     		b	.L89
 1383              	.L95:
 1384              		.align	2
 1385              	.L94:
 1386 019c 00040240 		.word	1073873920
 1387 01a0 00000000 		.word	.LANCHOR4
 1388 01a4 00000000 		.word	serusbcfg
 1389 01a8 000C0240 		.word	1073875968
 1390 01ac 00080240 		.word	1073874944
 1391 01b0 00000240 		.word	1073872896
 1392 01b4 00000000 		.word	usbcfg
 1393 01b8 00000000 		.word	SD2
 1394 01bc 00000000 		.word	.LANCHOR11
 1395 01c0 00000000 		.word	SPID1
 1396 01c4 00000000 		.word	.LANCHOR12
 1397 01c8 00000000 		.word	SPID2
 1398 01cc 00000000 		.word	.LANCHOR13
 1399 01d0 00000000 		.word	PWMD4
 1400 01d4 00000000 		.word	Thread1
 1401 01d8 00000000 		.word	.LANCHOR14
 1402 01dc 00000000 		.word	Thread2
 1403 01e0 00000000 		.word	.LANCHOR15
 1404 01e4 00000000 		.word	GetlineTHread
 1405 01e8 00000000 		.word	.LANCHOR16
 1406 01ec 00000000 		.word	.LANCHOR17
 1407              		.cfi_endproc
 1408              	.LFE270:
 1409              		.size	main, .-main
 1410              		.global	dat
 1411              		.global	linebuffer
 1412              		.global	count
 1413              		.global	samples
 1414              		.global	adccomplete
 1415              		.global	SDU1
 1416              		.section	.rodata.adcgrpcfg2,"a",%progbits
 1417              		.align	2
 1418              		.set	.LANCHOR9,. + 0
 1419              		.type	adcgrpcfg2, %object
 1420              		.size	adcgrpcfg2, 40
 1421              	adcgrpcfg2:
 1422 0000 01       		.byte	1
 1423 0001 00       		.space	1
 1424 0002 0800     		.short	8
 1425 0004 00000000 		.word	adccallback
ARM GAS  /tmp/ccM0affm.s 			page 26


 1426 0008 00000000 		.word	adcerrorcallback
 1427 000c 00000000 		.word	0
 1428 0010 00000018 		.word	402653184
 1429 0014 00000000 		.word	0
 1430 0018 00000000 		.word	0
 1431 001c 00007000 		.word	7340032
 1432 0020 0F010000 		.word	271
 1433 0024 8B05311C 		.word	472974731
 1434              		.section	.bss.waThread1,"aw",%nobits
 1435              		.align	3
 1436              		.set	.LANCHOR14,. + 0
 1437              		.type	waThread1, %object
 1438              		.size	waThread1, 328
 1439              	waThread1:
 1440 0000 00000000 		.space	328
 1440      00000000 
 1440      00000000 
 1440      00000000 
 1440      00000000 
 1441              		.section	.bss.waThread2,"aw",%nobits
 1442              		.align	3
 1443              		.set	.LANCHOR15,. + 0
 1444              		.type	waThread2, %object
 1445              		.size	waThread2, 328
 1446              	waThread2:
 1447 0000 00000000 		.space	328
 1447      00000000 
 1447      00000000 
 1447      00000000 
 1447      00000000 
 1448              		.section	.bss.SDU1,"aw",%nobits
 1449              		.align	2
 1450              		.set	.LANCHOR4,. + 0
 1451              		.type	SDU1, %object
 1452              		.size	SDU1, 600
 1453              	SDU1:
 1454 0000 00000000 		.space	600
 1454      00000000 
 1454      00000000 
 1454      00000000 
 1454      00000000 
 1455              		.section	.bss.waGetlineTHread,"aw",%nobits
 1456              		.align	3
 1457              		.set	.LANCHOR16,. + 0
 1458              		.type	waGetlineTHread, %object
 1459              		.size	waGetlineTHread, 328
 1460              	waGetlineTHread:
 1461 0000 00000000 		.space	328
 1461      00000000 
 1461      00000000 
 1461      00000000 
 1461      00000000 
 1462              		.section	.bss.ybuf.8533,"aw",%nobits
 1463              		.align	2
 1464              		.set	.LANCHOR6,. + 0
 1465              		.type	ybuf.8533, %object
 1466              		.size	ybuf.8533, 4
ARM GAS  /tmp/ccM0affm.s 			page 27


 1467              	ybuf.8533:
 1468 0000 00000000 		.space	4
 1469              		.section	.rodata.gpt1cfg,"a",%progbits
 1470              		.align	2
 1471              		.set	.LANCHOR10,. + 0
 1472              		.type	gpt1cfg, %object
 1473              		.size	gpt1cfg, 16
 1474              	gpt1cfg:
 1475 0000 40420F00 		.word	1000000
 1476 0004 00000000 		.word	gpt3cb
 1477 0008 20000000 		.word	32
 1478 000c 00000000 		.word	0
 1479              		.section	.bss.linebuffer,"aw",%nobits
 1480              		.align	2
 1481              		.set	.LANCHOR8,. + 0
 1482              		.type	linebuffer, %object
 1483              		.size	linebuffer, 100
 1484              	linebuffer:
 1485 0000 00000000 		.space	100
 1485      00000000 
 1485      00000000 
 1485      00000000 
 1485      00000000 
 1486              		.section	.bss.count,"aw",%nobits
 1487              		.align	1
 1488              		.set	.LANCHOR1,. + 0
 1489              		.type	count, %object
 1490              		.size	count, 2
 1491              	count:
 1492 0000 0000     		.space	2
 1493              		.section	.rodata.spi1cfg,"a",%progbits
 1494              		.align	2
 1495              		.set	.LANCHOR11,. + 0
 1496              		.type	spi1cfg, %object
 1497              		.size	spi1cfg, 12
 1498              	spi1cfg:
 1499 0000 00000000 		.word	0
 1500 0004 00100240 		.word	1073876992
 1501 0008 0300     		.short	3
 1502 000a 1B00     		.short	27
 1503              		.section	.rodata.spi2cfg,"a",%progbits
 1504              		.align	2
 1505              		.set	.LANCHOR12,. + 0
 1506              		.type	spi2cfg, %object
 1507              		.size	spi2cfg, 12
 1508              	spi2cfg:
 1509 0000 00000000 		.word	0
 1510 0004 00040240 		.word	1073873920
 1511 0008 0C00     		.short	12
 1512 000a 0000     		.short	0
 1513              		.section	.rodata.commands,"a",%progbits
 1514              		.align	2
 1515              		.type	commands, %object
 1516              		.size	commands, 32
 1517              	commands:
 1518 0000 74010000 		.word	.LC26
 1519 0004 00000000 		.word	cmd_mem
ARM GAS  /tmp/ccM0affm.s 			page 28


 1520 0008 78010000 		.word	.LC27
 1521 000c 00000000 		.word	cmd_threads
 1522 0010 80010000 		.word	.LC28
 1523 0014 00000000 		.word	cmd_test
 1524 0018 00000000 		.word	0
 1525 001c 00000000 		.word	0
 1526              		.section	.rodata.states.8513,"a",%progbits
 1527              		.align	2
 1528              		.set	.LANCHOR7,. + 0
 1529              		.type	states.8513, %object
 1530              		.size	states.8513, 64
 1531              	states.8513:
 1532 0000 E8000000 		.word	.LC10
 1533 0004 F0000000 		.word	.LC11
 1534 0008 F8000000 		.word	.LC12
 1535 000c 00010000 		.word	.LC13
 1536 0010 0C010000 		.word	.LC14
 1537 0014 14010000 		.word	.LC15
 1538 0018 1C010000 		.word	.LC16
 1539 001c 24010000 		.word	.LC17
 1540 0020 2C010000 		.word	.LC18
 1541 0024 38010000 		.word	.LC19
 1542 0028 40010000 		.word	.LC20
 1543 002c 48010000 		.word	.LC21
 1544 0030 54010000 		.word	.LC22
 1545 0034 5C010000 		.word	.LC23
 1546 0038 64010000 		.word	.LC24
 1547 003c 6C010000 		.word	.LC25
 1548              		.section	.rodata.str1.4,"aMS",%progbits,1
 1549              		.align	2
 1550              	.LC0:
 1551 0000 72656164 		.ascii	"reader\000"
 1551      657200
 1552 0007 00       		.space	1
 1553              	.LC1:
 1554 0008 55736167 		.ascii	"Usage: test\015\012\000"
 1554      653A2074 
 1554      6573740D 
 1554      0A00
 1555 0016 0000     		.space	2
 1556              	.LC2:
 1557 0018 6F757420 		.ascii	"out of memory\015\012\000"
 1557      6F66206D 
 1557      656D6F72 
 1557      790D0A00 
 1558              	.LC3:
 1559 0028 55736167 		.ascii	"Usage: threads\015\012\000"
 1559      653A2074 
 1559      68726561 
 1559      64730D0A 
 1559      00
 1560 0039 000000   		.space	3
 1561              	.LC4:
 1562 003c 20202020 		.ascii	"    addr    stack prio refs     state\015\012\000"
 1562      61646472 
 1562      20202020 
 1562      73746163 
ARM GAS  /tmp/ccM0affm.s 			page 29


 1562      6B207072 
 1563              	.LC5:
 1564 0064 2530386C 		.ascii	"%08lx %08lx %4lu %4lu %9s\015\012\000"
 1564      78202530 
 1564      386C7820 
 1564      25346C75 
 1564      2025346C 
 1565              	.LC6:
 1566 0080 55736167 		.ascii	"Usage: mem\015\012\000"
 1566      653A206D 
 1566      656D0D0A 
 1566      00
 1567 008d 000000   		.space	3
 1568              	.LC7:
 1569 0090 636F7265 		.ascii	"core free memory : %u bytes\015\012\000"
 1569      20667265 
 1569      65206D65 
 1569      6D6F7279 
 1569      203A2025 
 1570 00ae 0000     		.space	2
 1571              	.LC8:
 1572 00b0 68656170 		.ascii	"heap fragments   : %u\015\012\000"
 1572      20667261 
 1572      676D656E 
 1572      74732020 
 1572      203A2025 
 1573              	.LC9:
 1574 00c8 68656170 		.ascii	"heap free total  : %u bytes\015\012\000"
 1574      20667265 
 1574      6520746F 
 1574      74616C20 
 1574      203A2025 
 1575 00e6 0000     		.space	2
 1576              	.LC10:
 1577 00e8 52454144 		.ascii	"READY\000"
 1577      5900
 1578 00ee 0000     		.space	2
 1579              	.LC11:
 1580 00f0 43555252 		.ascii	"CURRENT\000"
 1580      454E5400 
 1581              	.LC12:
 1582 00f8 57545354 		.ascii	"WTSTART\000"
 1582      41525400 
 1583              	.LC13:
 1584 0100 53555350 		.ascii	"SUSPENDED\000"
 1584      454E4445 
 1584      4400
 1585 010a 0000     		.space	2
 1586              	.LC14:
 1587 010c 51554555 		.ascii	"QUEUED\000"
 1587      454400
 1588 0113 00       		.space	1
 1589              	.LC15:
 1590 0114 57545345 		.ascii	"WTSEM\000"
 1590      4D00
 1591 011a 0000     		.space	2
 1592              	.LC16:
ARM GAS  /tmp/ccM0affm.s 			page 30


 1593 011c 57544D54 		.ascii	"WTMTX\000"
 1593      5800
 1594 0122 0000     		.space	2
 1595              	.LC17:
 1596 0124 5754434F 		.ascii	"WTCOND\000"
 1596      4E4400
 1597 012b 00       		.space	1
 1598              	.LC18:
 1599 012c 534C4545 		.ascii	"SLEEPING\000"
 1599      50494E47 
 1599      00
 1600 0135 000000   		.space	3
 1601              	.LC19:
 1602 0138 57544558 		.ascii	"WTEXIT\000"
 1602      495400
 1603 013f 00       		.space	1
 1604              	.LC20:
 1605 0140 57544F52 		.ascii	"WTOREVT\000"
 1605      45565400 
 1606              	.LC21:
 1607 0148 5754414E 		.ascii	"WTANDEVT\000"
 1607      44455654 
 1607      00
 1608 0151 000000   		.space	3
 1609              	.LC22:
 1610 0154 534E444D 		.ascii	"SNDMSGQ\000"
 1610      53475100 
 1611              	.LC23:
 1612 015c 534E444D 		.ascii	"SNDMSG\000"
 1612      534700
 1613 0163 00       		.space	1
 1614              	.LC24:
 1615 0164 57544D53 		.ascii	"WTMSG\000"
 1615      4700
 1616 016a 0000     		.space	2
 1617              	.LC25:
 1618 016c 46494E41 		.ascii	"FINAL\000"
 1618      4C00
 1619 0172 0000     		.space	2
 1620              	.LC26:
 1621 0174 6D656D00 		.ascii	"mem\000"
 1622              	.LC27:
 1623 0178 74687265 		.ascii	"threads\000"
 1623      61647300 
 1624              	.LC28:
 1625 0180 74657374 		.ascii	"test\000"
 1625      00
 1626              		.section	.rodata.pwmcfg,"a",%progbits
 1627              		.align	2
 1628              		.set	.LANCHOR13,. + 0
 1629              		.type	pwmcfg, %object
 1630              		.size	pwmcfg, 52
 1631              	pwmcfg:
 1632 0000 A0860100 		.word	100000
 1633 0004 80000000 		.word	128
 1634 0008 00000000 		.word	0
 1635 000c 01000000 		.word	1
ARM GAS  /tmp/ccM0affm.s 			page 31


 1636 0010 00000000 		.word	0
 1637 0014 01000000 		.word	1
 1638 0018 00000000 		.word	0
 1639 001c 01000000 		.word	1
 1640 0020 00000000 		.word	0
 1641 0024 01000000 		.word	1
 1642 0028 00000000 		.word	0
 1643 002c 00000000 		.word	0
 1644 0030 00000000 		.word	0
 1645              		.section	.bss.dat,"aw",%nobits
 1646              		.align	2
 1647              		.set	.LANCHOR2,. + 0
 1648              		.type	dat, %object
 1649              		.size	dat, 19
 1650              	dat:
 1651 0000 00000000 		.space	19
 1651      00000000 
 1651      00000000 
 1651      00000000 
 1651      000000
 1652              		.section	.rodata.shell_cfg1,"a",%progbits
 1653              		.align	2
 1654              		.set	.LANCHOR17,. + 0
 1655              		.type	shell_cfg1, %object
 1656              		.size	shell_cfg1, 8
 1657              	shell_cfg1:
 1658 0000 00000000 		.word	SDU1
 1659 0004 00000000 		.word	commands
 1660              		.section	.data.adccomplete,"aw",%progbits
 1661              		.align	2
 1662              		.set	.LANCHOR0,. + 0
 1663              		.type	adccomplete, %object
 1664              		.size	adccomplete, 12
 1665              	adccomplete:
 1666 0000 00000000 		.word	adccomplete
 1667 0004 00000000 		.word	adccomplete
 1668 0008 00000000 		.word	0
 1669              		.section	.bss.xbuf.8532,"aw",%nobits
 1670              		.align	2
 1671              		.set	.LANCHOR5,. + 0
 1672              		.type	xbuf.8532, %object
 1673              		.size	xbuf.8532, 4
 1674              	xbuf.8532:
 1675 0000 00000000 		.space	4
 1676              		.section	.bss.samples,"aw",%nobits
 1677              		.align	2
 1678              		.set	.LANCHOR3,. + 0
 1679              		.type	samples, %object
 1680              		.size	samples, 16
 1681              	samples:
 1682 0000 00000000 		.space	16
 1682      00000000 
 1682      00000000 
 1682      00000000 
 1683              		.text
 1684              	.Letext0:
 1685              		.file 7 "/usr/lib/gcc/arm-none-eabi/5.3.1/include/stddef.h"
ARM GAS  /tmp/ccM0affm.s 			page 32


 1686              		.file 8 "/usr/arm-none-eabi/include/machine/_default_types.h"
 1687              		.file 9 "/usr/arm-none-eabi/include/sys/_stdint.h"
 1688              		.file 10 "/home/selim/working/ChibiOS/os/rt/ports/ARMCMx/compilers/GCC/chtypes.h"
 1689              		.file 11 "/home/selim/working/ChibiOS/os/rt/include/chsystypes.h"
 1690              		.file 12 "/home/selim/working/ChibiOS/os/rt/include/chschd.h"
 1691              		.file 13 "/home/selim/working/ChibiOS/os/ext/CMSIS/ST/stm32f407xx.h"
 1692              		.file 14 "/home/selim/working/ChibiOS/os/rt/ports/ARMCMx/chcore.h"
 1693              		.file 15 "/home/selim/working/ChibiOS/os/rt/ports/ARMCMx/chcore_v7m.h"
 1694              		.file 16 "/home/selim/working/ChibiOS/os/hal/ports/STM32/LLD/TIMv1/stm32_tim.h"
 1695              		.file 17 "/home/selim/working/ChibiOS/os/rt/include/chtm.h"
 1696              		.file 18 "/home/selim/working/ChibiOS/os/rt/include/chsem.h"
 1697              		.file 19 "/home/selim/working/ChibiOS/os/rt/include/chmtx.h"
 1698              		.file 20 "/home/selim/working/ChibiOS/os/rt/include/chevents.h"
 1699              		.file 21 "/home/selim/working/ChibiOS/os/rt/include/chqueues.h"
 1700              		.file 22 "/home/selim/working/ChibiOS/os/rt/include/chstreams.h"
 1701              		.file 23 "/home/selim/working/ChibiOS/os/hal/ports/STM32/STM32F4xx/stm32_dma.h"
 1702              		.file 24 "/home/selim/working/ChibiOS/os/hal/ports/STM32/LLD/GPIOv2/pal_lld.h"
 1703              		.file 25 "/home/selim/working/ChibiOS/os/hal/include/adc.h"
 1704              		.file 26 "/home/selim/working/ChibiOS/os/hal/ports/STM32/STM32F4xx/adc_lld.h"
 1705              		.file 27 "/home/selim/working/ChibiOS/os/hal/include/gpt.h"
 1706              		.file 28 "/home/selim/working/ChibiOS/os/hal/ports/STM32/LLD/TIMv1/gpt_lld.h"
 1707              		.file 29 "/home/selim/working/ChibiOS/os/hal/include/pwm.h"
 1708              		.file 30 "/home/selim/working/ChibiOS/os/hal/ports/STM32/LLD/TIMv1/pwm_lld.h"
 1709              		.file 31 "/home/selim/working/ChibiOS/os/hal/include/serial.h"
 1710              		.file 32 "/home/selim/working/ChibiOS/os/hal/include/spi.h"
 1711              		.file 33 "/home/selim/working/ChibiOS/os/hal/ports/STM32/LLD/SPIv1/spi_lld.h"
 1712              		.file 34 "/home/selim/working/ChibiOS/os/hal/include/usb.h"
 1713              		.file 35 "/home/selim/working/ChibiOS/os/hal/ports/STM32/LLD/OTGv1/usb_lld.h"
 1714              		.file 36 "/home/selim/working/ChibiOS/os/hal/ports/STM32/LLD/OTGv1/stm32_otg.h"
 1715              		.file 37 "/home/selim/working/ChibiOS/os/hal/include/serial_usb.h"
 1716              		.file 38 "/usr/lib/gcc/arm-none-eabi/5.3.1/include/stdarg.h"
 1717              		.file 39 "<built-in>"
 1718              		.file 40 "/home/selim/working/ChibiOS/os/various/shell.h"
 1719              		.file 41 "/home/selim/working/ChibiOS/os/rt/ports/ARMCMx/chcore_timer.h"
 1720              		.file 42 "/home/selim/working/ChibiOS/os/rt/include/chsys.h"
 1721              		.file 43 "/home/selim/working/ChibiOS/os/rt/include/chvt.h"
 1722              		.file 44 "/home/selim/working/ChibiOS/os/ext/CMSIS/include/core_cm4.h"
 1723              		.file 45 "/home/selim/working/ChibiOS/os/hal/ports/STM32/LLD/USARTv1/serial_lld.h"
 1724              		.file 46 "usbcfg.h"
 1725              		.file 47 "/home/selim/working/ChibiOS/os/various/devices_lib/accel/lis302dl.h"
 1726              		.file 48 "/home/selim/working/ChibiOS/os/rt/include/chdynamic.h"
 1727              		.file 49 "/home/selim/working/ChibiOS/os/rt/include/chregistry.h"
 1728              		.file 50 "/home/selim/working/ChibiOS/os/rt/include/chheap.h"
 1729              		.file 51 "/home/selim/working/ChibiOS/os/rt/include/chmemcore.h"
 1730              		.file 52 "/usr/arm-none-eabi/include/stdlib.h"
 1731              		.file 53 "/home/selim/working/ChibiOS/os/hal/include/hal.h"