ARM GAS  /tmp/ccEPKsUv.s 			page 1


   1              		.syntax unified
   2              		.cpu cortex-m4
   3              		.fpu softvfp
   4              		.eabi_attribute 20, 1
   5              		.eabi_attribute 21, 1
   6              		.eabi_attribute 23, 3
   7              		.eabi_attribute 24, 1
   8              		.eabi_attribute 25, 1
   9              		.eabi_attribute 26, 1
  10              		.eabi_attribute 30, 2
  11              		.eabi_attribute 34, 1
  12              		.eabi_attribute 18, 4
  13              		.thumb
  14              		.syntax unified
  15              		.file	"chqueues.c"
  16              		.text
  17              	.Ltext0:
  18              		.cfi_sections	.debug_frame
  19              		.section	.text.chIQObjectInit,"ax",%progbits
  20              		.align	2
  21              		.p2align 4,,15
  22              		.global	chIQObjectInit
  23              		.thumb
  24              		.thumb_func
  25              		.type	chIQObjectInit, %function
  26              	chIQObjectInit:
  27              	.LFB227:
  28              		.file 1 "/home/selim/working/ChibiOS/os/rt/src/chqueues.c"
  29              		.loc 1 88 0
  30              		.cfi_startproc
  31              		@ args = 4, pretend = 0, frame = 0
  32              		@ frame_needed = 0, uses_anonymous_args = 0
  33              		@ link register save eliminated.
  34              	.LVL0:
  35 0000 30B4     		push	{r4, r5}
  36              		.cfi_def_cfa_offset 8
  37              		.cfi_offset 4, -8
  38              		.cfi_offset 5, -4
  39              		.loc 1 88 0
  40 0002 029C     		ldr	r4, [sp, #8]
  41              		.loc 1 97 0
  42 0004 0462     		str	r4, [r0, #32]
  43              		.loc 1 91 0
  44 0006 0025     		movs	r5, #0
  45              		.loc 1 95 0
  46 0008 0A44     		add	r2, r2, r1
  47              	.LVL1:
  48              		.loc 1 91 0
  49 000a 8560     		str	r5, [r0, #8]
  50              		.loc 1 95 0
  51 000c 0261     		str	r2, [r0, #16]
  52              	.LBB108:
  53              	.LBB109:
  54              	.LBB110:
  55              		.file 2 "/home/selim/working/ChibiOS/os/rt/include/chschd.h"
  56              		.loc 2 604 0
  57 000e 0060     		str	r0, [r0]
ARM GAS  /tmp/ccEPKsUv.s 			page 2


  58              		.loc 2 605 0
  59 0010 4060     		str	r0, [r0, #4]
  60              	.LVL2:
  61              	.LBE110:
  62              	.LBE109:
  63              	.LBE108:
  64              		.loc 1 92 0
  65 0012 C160     		str	r1, [r0, #12]
  66              		.loc 1 93 0
  67 0014 8161     		str	r1, [r0, #24]
  68              		.loc 1 94 0
  69 0016 4161     		str	r1, [r0, #20]
  70              		.loc 1 96 0
  71 0018 C361     		str	r3, [r0, #28]
  72              		.loc 1 98 0
  73 001a 30BC     		pop	{r4, r5}
  74              		.cfi_restore 5
  75              		.cfi_restore 4
  76              		.cfi_def_cfa_offset 0
  77              	.LVL3:
  78 001c 7047     		bx	lr
  79              		.cfi_endproc
  80              	.LFE227:
  81              		.size	chIQObjectInit, .-chIQObjectInit
  82 001e 00BF     		.section	.text.chIQResetI,"ax",%progbits
  83              		.align	2
  84              		.p2align 4,,15
  85              		.global	chIQResetI
  86              		.thumb
  87              		.thumb_func
  88              		.type	chIQResetI, %function
  89              	chIQResetI:
  90              	.LFB228:
  91              		.loc 1 111 0
  92              		.cfi_startproc
  93              		@ args = 0, pretend = 0, frame = 0
  94              		@ frame_needed = 0, uses_anonymous_args = 0
  95              		@ link register save eliminated.
  96              	.LVL4:
  97              		.loc 1 117 0
  98 0000 0021     		movs	r1, #0
  99              		.loc 1 115 0
 100 0002 C268     		ldr	r2, [r0, #12]
 101              		.loc 1 117 0
 102 0004 8160     		str	r1, [r0, #8]
 103              		.loc 1 115 0
 104 0006 8261     		str	r2, [r0, #24]
 105              		.loc 1 116 0
 106 0008 4261     		str	r2, [r0, #20]
 107              		.loc 1 118 0
 108 000a 6FF00101 		mvn	r1, #1
 109 000e FFF7FEBF 		b	chThdDequeueAllI
 110              	.LVL5:
 111              		.cfi_endproc
 112              	.LFE228:
 113              		.size	chIQResetI, .-chIQResetI
 114 0012 00BF     		.section	.text.chIQPutI,"ax",%progbits
ARM GAS  /tmp/ccEPKsUv.s 			page 3


 115              		.align	2
 116              		.p2align 4,,15
 117              		.global	chIQPutI
 118              		.thumb
 119              		.thumb_func
 120              		.type	chIQPutI, %function
 121              	chIQPutI:
 122              	.LFB229:
 123              		.loc 1 134 0
 124              		.cfi_startproc
 125              		@ args = 0, pretend = 0, frame = 0
 126              		@ frame_needed = 0, uses_anonymous_args = 0
 127              	.LVL6:
 128              	.LBB111:
 129              	.LBB112:
 130              		.file 3 "/home/selim/working/ChibiOS/os/rt/include/chqueues.h"
 131              		.loc 3 324 0
 132 0000 8369     		ldr	r3, [r0, #24]
 133 0002 4269     		ldr	r2, [r0, #20]
 134 0004 9A42     		cmp	r2, r3
 135              	.LBE112:
 136              	.LBE111:
 137              		.loc 1 134 0
 138 0006 10B5     		push	{r4, lr}
 139              		.cfi_def_cfa_offset 8
 140              		.cfi_offset 4, -8
 141              		.cfi_offset 14, -4
 142              	.LBB115:
 143              	.LBB113:
 144              		.loc 3 324 0
 145 0008 8368     		ldr	r3, [r0, #8]
 146 000a 0FD0     		beq	.L14
 147              	.L7:
 148              	.LVL7:
 149              	.LBE113:
 150              	.LBE115:
 151              		.loc 1 142 0
 152 000c 0133     		adds	r3, r3, #1
 153              		.loc 1 143 0
 154 000e 541C     		adds	r4, r2, #1
 155              		.loc 1 142 0
 156 0010 8360     		str	r3, [r0, #8]
 157              		.loc 1 143 0
 158 0012 4461     		str	r4, [r0, #20]
 159 0014 1170     		strb	r1, [r2]
 160              		.loc 1 144 0
 161 0016 4269     		ldr	r2, [r0, #20]
 162 0018 0369     		ldr	r3, [r0, #16]
 163 001a 9A42     		cmp	r2, r3
 164 001c 01D3     		bcc	.L9
 165              		.loc 1 145 0
 166 001e C368     		ldr	r3, [r0, #12]
 167 0020 4361     		str	r3, [r0, #20]
 168              	.L9:
 169              		.loc 1 148 0
 170 0022 0021     		movs	r1, #0
 171              	.LVL8:
ARM GAS  /tmp/ccEPKsUv.s 			page 4


 172 0024 FFF7FEFF 		bl	chThdDequeueNextI
 173              	.LVL9:
 174              		.loc 1 150 0
 175 0028 0020     		movs	r0, #0
 176 002a 10BD     		pop	{r4, pc}
 177              	.LVL10:
 178              	.L14:
 179              	.LBB116:
 180              	.LBB114:
 181              		.loc 3 324 0
 182 002c 002B     		cmp	r3, #0
 183 002e EDD0     		beq	.L7
 184              	.LBE114:
 185              	.LBE116:
 186              		.loc 1 139 0
 187 0030 6FF00300 		mvn	r0, #3
 188              	.LVL11:
 189 0034 10BD     		pop	{r4, pc}
 190              		.cfi_endproc
 191              	.LFE229:
 192              		.size	chIQPutI, .-chIQPutI
 193 0036 00BF     		.section	.text.chIQGetTimeout,"ax",%progbits
 194              		.align	2
 195              		.p2align 4,,15
 196              		.global	chIQGetTimeout
 197              		.thumb
 198              		.thumb_func
 199              		.type	chIQGetTimeout, %function
 200              	chIQGetTimeout:
 201              	.LFB230:
 202              		.loc 1 173 0
 203              		.cfi_startproc
 204              		@ args = 0, pretend = 0, frame = 0
 205              		@ frame_needed = 0, uses_anonymous_args = 0
 206              	.LVL12:
 207 0000 70B5     		push	{r4, r5, r6, lr}
 208              		.cfi_def_cfa_offset 16
 209              		.cfi_offset 4, -16
 210              		.cfi_offset 5, -12
 211              		.cfi_offset 6, -8
 212              		.cfi_offset 14, -4
 213              	.LBB117:
 214              	.LBB118:
 215              	.LBB119:
 216              	.LBB120:
 217              		.file 4 "/home/selim/working/ChibiOS/os/ext/CMSIS/include/core_cmFunc.h"
 218              		.loc 4 546 0
 219 0002 2023     		movs	r3, #32
 220              	.LBE120:
 221              	.LBE119:
 222              	.LBE118:
 223              	.LBE117:
 224              		.loc 1 173 0
 225 0004 0E46     		mov	r6, r1
 226 0006 0446     		mov	r4, r0
 227              	.LBB124:
 228              	.LBB123:
ARM GAS  /tmp/ccEPKsUv.s 			page 5


 229              	.LBB122:
 230              	.LBB121:
 231              		.loc 4 546 0
 232              		.syntax unified
 233              	@ 546 "/home/selim/working/ChibiOS/os/ext/CMSIS/include/core_cmFunc.h" 1
 234 0008 83F31188 		MSR basepri, r3
 235              	@ 0 "" 2
 236              	.LVL13:
 237              		.thumb
 238              		.syntax unified
 239              	.LBE121:
 240              	.LBE122:
 241              	.LBE123:
 242              	.LBE124:
 243              		.loc 1 177 0
 244 000c C369     		ldr	r3, [r0, #28]
 245 000e 2BB1     		cbz	r3, .L17
 246              		.loc 1 178 0
 247 0010 9847     		blx	r3
 248              	.LVL14:
 249 0012 03E0     		b	.L17
 250              	.LVL15:
 251              	.L19:
 252              	.LBB125:
 253              		.loc 1 182 0
 254 0014 FFF7FEFF 		bl	chThdEnqueueTimeoutS
 255              	.LVL16:
 256              		.loc 1 183 0
 257 0018 0028     		cmp	r0, #0
 258 001a 15DB     		blt	.L26
 259              	.LVL17:
 260              	.L17:
 261 001c A568     		ldr	r5, [r4, #8]
 262              	.LVL18:
 263              		.loc 1 182 0
 264 001e 3146     		mov	r1, r6
 265 0020 2046     		mov	r0, r4
 266              	.LBE125:
 267              		.loc 1 181 0
 268 0022 002D     		cmp	r5, #0
 269 0024 F6D0     		beq	.L19
 270              	.LVL19:
 271              		.loc 1 190 0
 272 0026 A269     		ldr	r2, [r4, #24]
 273              		.loc 1 191 0
 274 0028 2169     		ldr	r1, [r4, #16]
 275              	.LVL20:
 276              		.loc 1 190 0
 277 002a 531C     		adds	r3, r2, #1
 278              		.loc 1 191 0
 279 002c 8B42     		cmp	r3, r1
 280              		.loc 1 189 0
 281 002e 05F1FF35 		add	r5, r5, #-1
 282              		.loc 1 190 0
 283 0032 A361     		str	r3, [r4, #24]
 284              		.loc 1 189 0
 285 0034 A560     		str	r5, [r4, #8]
ARM GAS  /tmp/ccEPKsUv.s 			page 6


 286              		.loc 1 192 0
 287 0036 28BF     		it	cs
 288 0038 E368     		ldrcs	r3, [r4, #12]
 289              		.loc 1 190 0
 290 003a 1078     		ldrb	r0, [r2]	@ zero_extendqisi2
 291              	.LVL21:
 292              		.loc 1 192 0
 293 003c 28BF     		it	cs
 294 003e A361     		strcs	r3, [r4, #24]
 295              	.LVL22:
 296              	.LBB131:
 297              	.LBB132:
 298              	.LBB133:
 299              	.LBB134:
 300              	.LBB135:
 301              		.loc 4 546 0
 302 0040 0023     		movs	r3, #0
 303              		.syntax unified
 304              	@ 546 "/home/selim/working/ChibiOS/os/ext/CMSIS/include/core_cmFunc.h" 1
 305 0042 83F31188 		MSR basepri, r3
 306              	@ 0 "" 2
 307              	.LVL23:
 308              		.thumb
 309              		.syntax unified
 310              	.LBE135:
 311              	.LBE134:
 312              	.LBE133:
 313              	.LBE132:
 314              	.LBE131:
 315              		.loc 1 197 0
 316 0046 70BD     		pop	{r4, r5, r6, pc}
 317              	.LVL24:
 318              	.L26:
 319              	.LBB136:
 320              	.LBB126:
 321              	.LBB127:
 322              	.LBB128:
 323              	.LBB129:
 324              	.LBB130:
 325              		.loc 4 546 0
 326              		.syntax unified
 327              	@ 546 "/home/selim/working/ChibiOS/os/ext/CMSIS/include/core_cmFunc.h" 1
 328 0048 85F31188 		MSR basepri, r5
 329              	@ 0 "" 2
 330              	.LVL25:
 331              		.thumb
 332              		.syntax unified
 333              	.LBE130:
 334              	.LBE129:
 335              	.LBE128:
 336              	.LBE127:
 337              	.LBE126:
 338              		.loc 1 185 0
 339 004c 70BD     		pop	{r4, r5, r6, pc}
 340              	.LBE136:
 341              		.cfi_endproc
 342              	.LFE230:
ARM GAS  /tmp/ccEPKsUv.s 			page 7


 343              		.size	chIQGetTimeout, .-chIQGetTimeout
 344 004e 00BF     		.section	.text.chIQReadTimeout,"ax",%progbits
 345              		.align	2
 346              		.p2align 4,,15
 347              		.global	chIQReadTimeout
 348              		.thumb
 349              		.thumb_func
 350              		.type	chIQReadTimeout, %function
 351              	chIQReadTimeout:
 352              	.LFB231:
 353              		.loc 1 224 0
 354              		.cfi_startproc
 355              		@ args = 0, pretend = 0, frame = 8
 356              		@ frame_needed = 0, uses_anonymous_args = 0
 357              	.LVL26:
 358 0000 2DE9F04F 		push	{r4, r5, r6, r7, r8, r9, r10, fp, lr}
 359              		.cfi_def_cfa_offset 36
 360              		.cfi_offset 4, -36
 361              		.cfi_offset 5, -32
 362              		.cfi_offset 6, -28
 363              		.cfi_offset 7, -24
 364              		.cfi_offset 8, -20
 365              		.cfi_offset 9, -16
 366              		.cfi_offset 10, -12
 367              		.cfi_offset 11, -8
 368              		.cfi_offset 14, -4
 369 0004 0446     		mov	r4, r0
 370 0006 83B0     		sub	sp, sp, #12
 371              		.cfi_def_cfa_offset 48
 372              		.loc 1 224 0
 373 0008 8946     		mov	r9, r1
 374 000a 9346     		mov	fp, r2
 375 000c 1D46     		mov	r5, r3
 376              		.loc 1 225 0
 377 000e D0F81C80 		ldr	r8, [r0, #28]
 378              	.LVL27:
 379              	.LBB137:
 380              	.LBB138:
 381              	.LBB139:
 382              	.LBB140:
 383              		.loc 4 546 0
 384 0012 2027     		movs	r7, #32
 385              		.syntax unified
 386              	@ 546 "/home/selim/working/ChibiOS/os/ext/CMSIS/include/core_cmFunc.h" 1
 387 0014 87F31188 		MSR basepri, r7
 388              	@ 0 "" 2
 389              	.LVL28:
 390              		.thumb
 391              		.syntax unified
 392              	.LBE140:
 393              	.LBE139:
 394              	.LBE138:
 395              	.LBE137:
 396              		.loc 1 226 0
 397 0018 0026     		movs	r6, #0
 398              	.LBB141:
 399              	.LBB142:
ARM GAS  /tmp/ccEPKsUv.s 			page 8


 400              	.LBB143:
 401              	.LBB144:
 402              		.loc 4 546 0
 403 001a 0197     		str	r7, [sp, #4]
 404              	.LBE144:
 405              	.LBE143:
 406              	.LBE142:
 407              	.LBE141:
 408              	.LBB148:
 409              	.LBB149:
 410              	.LBB150:
 411              	.LBB151:
 412              	.LBB152:
 413 001c B246     		mov	r10, r6
 414              	.LVL29:
 415              	.L33:
 416              	.LBE152:
 417              	.LBE151:
 418              	.LBE150:
 419              	.LBE149:
 420              	.LBE148:
 421              		.loc 1 232 0
 422 001e B8F1000F 		cmp	r8, #0
 423 0022 05D0     		beq	.L29
 424              		.loc 1 233 0
 425 0024 2046     		mov	r0, r4
 426              	.LVL30:
 427 0026 C047     		blx	r8
 428              	.LVL31:
 429 0028 02E0     		b	.L29
 430              	.LVL32:
 431              	.L31:
 432              		.loc 1 237 0
 433 002a FFF7FEFF 		bl	chThdEnqueueTimeoutS
 434              	.LVL33:
 435 002e D8B9     		cbnz	r0, .L40
 436              	.LVL34:
 437              	.L29:
 438 0030 A768     		ldr	r7, [r4, #8]
 439              	.LVL35:
 440 0032 2946     		mov	r1, r5
 441 0034 2046     		mov	r0, r4
 442              		.loc 1 236 0
 443 0036 002F     		cmp	r7, #0
 444 0038 F7D0     		beq	.L31
 445              	.LVL36:
 446              		.loc 1 244 0
 447 003a A269     		ldr	r2, [r4, #24]
 448              		.loc 1 243 0
 449 003c 7B1E     		subs	r3, r7, #1
 450              		.loc 1 244 0
 451 003e 511C     		adds	r1, r2, #1
 452              	.LVL37:
 453 0040 A161     		str	r1, [r4, #24]
 454              		.loc 1 243 0
 455 0042 A360     		str	r3, [r4, #8]
 456              		.loc 1 244 0
ARM GAS  /tmp/ccEPKsUv.s 			page 9


 457 0044 1378     		ldrb	r3, [r2]	@ zero_extendqisi2
 458 0046 09F8013B 		strb	r3, [r9], #1
 459              	.LVL38:
 460              		.loc 1 245 0
 461 004a 2369     		ldr	r3, [r4, #16]
 462 004c A269     		ldr	r2, [r4, #24]
 463 004e 9A42     		cmp	r2, r3
 464              		.loc 1 246 0
 465 0050 24BF     		itt	cs
 466 0052 E368     		ldrcs	r3, [r4, #12]
 467 0054 A361     		strcs	r3, [r4, #24]
 468              	.LVL39:
 469              	.LBB157:
 470              	.LBB156:
 471              	.LBB155:
 472              	.LBB154:
 473              	.LBB153:
 474              		.loc 4 546 0
 475              		.syntax unified
 476              	@ 546 "/home/selim/working/ChibiOS/os/ext/CMSIS/include/core_cmFunc.h" 1
 477 0056 8AF31188 		MSR basepri, r10
 478              	@ 0 "" 2
 479              	.LVL40:
 480              		.thumb
 481              		.syntax unified
 482              	.LBE153:
 483              	.LBE154:
 484              	.LBE155:
 485              	.LBE156:
 486              	.LBE157:
 487              		.loc 1 250 0
 488 005a 0136     		adds	r6, r6, #1
 489              	.LVL41:
 490              		.loc 1 251 0
 491 005c B345     		cmp	fp, r6
 492 005e 05D0     		beq	.L30
 493              	.LVL42:
 494              	.LBB158:
 495              	.LBB147:
 496              	.LBB146:
 497              	.LBB145:
 498              		.loc 4 546 0
 499 0060 019B     		ldr	r3, [sp, #4]
 500              		.syntax unified
 501              	@ 546 "/home/selim/working/ChibiOS/os/ext/CMSIS/include/core_cmFunc.h" 1
 502 0062 83F31188 		MSR basepri, r3
 503              	@ 0 "" 2
 504              	.LVL43:
 505              		.thumb
 506              		.syntax unified
 507 0066 DAE7     		b	.L33
 508              	.LVL44:
 509              	.L40:
 510              	.LBE145:
 511              	.LBE146:
 512              	.LBE147:
 513              	.LBE158:
ARM GAS  /tmp/ccEPKsUv.s 			page 10


 514              	.LBB159:
 515              	.LBB160:
 516              	.LBB161:
 517              	.LBB162:
 518              	.LBB163:
 519              		.syntax unified
 520              	@ 546 "/home/selim/working/ChibiOS/os/ext/CMSIS/include/core_cmFunc.h" 1
 521 0068 87F31188 		MSR basepri, r7
 522              	@ 0 "" 2
 523              	.LVL45:
 524              		.thumb
 525              		.syntax unified
 526              	.L30:
 527              	.LBE163:
 528              	.LBE162:
 529              	.LBE161:
 530              	.LBE160:
 531              	.LBE159:
 532              		.loc 1 257 0
 533 006c 3046     		mov	r0, r6
 534 006e 03B0     		add	sp, sp, #12
 535              		.cfi_def_cfa_offset 36
 536              		@ sp needed
 537 0070 BDE8F08F 		pop	{r4, r5, r6, r7, r8, r9, r10, fp, pc}
 538              		.cfi_endproc
 539              	.LFE231:
 540              		.size	chIQReadTimeout, .-chIQReadTimeout
 541              		.section	.text.chOQObjectInit,"ax",%progbits
 542              		.align	2
 543              		.p2align 4,,15
 544              		.global	chOQObjectInit
 545              		.thumb
 546              		.thumb_func
 547              		.type	chOQObjectInit, %function
 548              	chOQObjectInit:
 549              	.LFB232:
 550              		.loc 1 276 0
 551              		.cfi_startproc
 552              		@ args = 4, pretend = 0, frame = 0
 553              		@ frame_needed = 0, uses_anonymous_args = 0
 554              		@ link register save eliminated.
 555              	.LVL46:
 556 0000 30B4     		push	{r4, r5}
 557              		.cfi_def_cfa_offset 8
 558              		.cfi_offset 4, -8
 559              		.cfi_offset 5, -4
 560              		.loc 1 276 0
 561 0002 029C     		ldr	r4, [sp, #8]
 562              		.loc 1 285 0
 563 0004 0462     		str	r4, [r0, #32]
 564              		.loc 1 283 0
 565 0006 8D18     		adds	r5, r1, r2
 566 0008 0561     		str	r5, [r0, #16]
 567              	.LBB164:
 568              	.LBB165:
 569              	.LBB166:
 570              		.loc 2 604 0
ARM GAS  /tmp/ccEPKsUv.s 			page 11


 571 000a 0060     		str	r0, [r0]
 572              		.loc 2 605 0
 573 000c 4060     		str	r0, [r0, #4]
 574              	.LVL47:
 575              	.LBE166:
 576              	.LBE165:
 577              	.LBE164:
 578              		.loc 1 279 0
 579 000e 8260     		str	r2, [r0, #8]
 580              		.loc 1 280 0
 581 0010 C160     		str	r1, [r0, #12]
 582              		.loc 1 281 0
 583 0012 8161     		str	r1, [r0, #24]
 584              		.loc 1 282 0
 585 0014 4161     		str	r1, [r0, #20]
 586              		.loc 1 284 0
 587 0016 C361     		str	r3, [r0, #28]
 588              		.loc 1 286 0
 589 0018 30BC     		pop	{r4, r5}
 590              		.cfi_restore 5
 591              		.cfi_restore 4
 592              		.cfi_def_cfa_offset 0
 593              	.LVL48:
 594 001a 7047     		bx	lr
 595              		.cfi_endproc
 596              	.LFE232:
 597              		.size	chOQObjectInit, .-chOQObjectInit
 598              		.section	.text.chOQResetI,"ax",%progbits
 599              		.align	2
 600              		.p2align 4,,15
 601              		.global	chOQResetI
 602              		.thumb
 603              		.thumb_func
 604              		.type	chOQResetI, %function
 605              	chOQResetI:
 606              	.LFB233:
 607              		.loc 1 299 0
 608              		.cfi_startproc
 609              		@ args = 0, pretend = 0, frame = 0
 610              		@ frame_needed = 0, uses_anonymous_args = 0
 611              		@ link register save eliminated.
 612              	.LVL49:
 613 0000 10B4     		push	{r4}
 614              		.cfi_def_cfa_offset 4
 615              		.cfi_offset 4, -4
 616              		.loc 1 305 0
 617 0002 0269     		ldr	r2, [r0, #16]
 618              		.loc 1 303 0
 619 0004 C468     		ldr	r4, [r0, #12]
 620 0006 8461     		str	r4, [r0, #24]
 621              		.loc 1 305 0
 622 0008 121B     		subs	r2, r2, r4
 623              		.loc 1 304 0
 624 000a 4461     		str	r4, [r0, #20]
 625              		.loc 1 306 0
 626 000c 6FF00101 		mvn	r1, #1
 627              		.loc 1 305 0
ARM GAS  /tmp/ccEPKsUv.s 			page 12


 628 0010 8260     		str	r2, [r0, #8]
 629              		.loc 1 307 0
 630 0012 10BC     		pop	{r4}
 631              		.cfi_restore 4
 632              		.cfi_def_cfa_offset 0
 633              		.loc 1 306 0
 634 0014 FFF7FEBF 		b	chThdDequeueAllI
 635              	.LVL50:
 636              		.cfi_endproc
 637              	.LFE233:
 638              		.size	chOQResetI, .-chOQResetI
 639              		.section	.text.chOQPutTimeout,"ax",%progbits
 640              		.align	2
 641              		.p2align 4,,15
 642              		.global	chOQPutTimeout
 643              		.thumb
 644              		.thumb_func
 645              		.type	chOQPutTimeout, %function
 646              	chOQPutTimeout:
 647              	.LFB234:
 648              		.loc 1 331 0
 649              		.cfi_startproc
 650              		@ args = 0, pretend = 0, frame = 0
 651              		@ frame_needed = 0, uses_anonymous_args = 0
 652              	.LVL51:
 653 0000 F8B5     		push	{r3, r4, r5, r6, r7, lr}
 654              		.cfi_def_cfa_offset 24
 655              		.cfi_offset 3, -24
 656              		.cfi_offset 4, -20
 657              		.cfi_offset 5, -16
 658              		.cfi_offset 6, -12
 659              		.cfi_offset 7, -8
 660              		.cfi_offset 14, -4
 661              		.loc 1 331 0
 662 0002 0446     		mov	r4, r0
 663 0004 0F46     		mov	r7, r1
 664 0006 1646     		mov	r6, r2
 665              	.LBB167:
 666              	.LBB168:
 667              	.LBB169:
 668              	.LBB170:
 669              		.loc 4 546 0
 670 0008 2023     		movs	r3, #32
 671              		.syntax unified
 672              	@ 546 "/home/selim/working/ChibiOS/os/ext/CMSIS/include/core_cmFunc.h" 1
 673 000a 83F31188 		MSR basepri, r3
 674              	@ 0 "" 2
 675              	.LVL52:
 676              		.thumb
 677              		.syntax unified
 678 000e 03E0     		b	.L46
 679              	.LVL53:
 680              	.L48:
 681              	.LBE170:
 682              	.LBE169:
 683              	.LBE168:
 684              	.LBE167:
ARM GAS  /tmp/ccEPKsUv.s 			page 13


 685              	.LBB171:
 686              		.loc 1 335 0
 687 0010 FFF7FEFF 		bl	chThdEnqueueTimeoutS
 688              	.LVL54:
 689              		.loc 1 336 0
 690 0014 0028     		cmp	r0, #0
 691 0016 18DB     		blt	.L56
 692              	.LVL55:
 693              	.L46:
 694 0018 A568     		ldr	r5, [r4, #8]
 695              	.LVL56:
 696              		.loc 1 335 0
 697 001a 3146     		mov	r1, r6
 698 001c 2046     		mov	r0, r4
 699              	.LBE171:
 700              		.loc 1 334 0
 701 001e 002D     		cmp	r5, #0
 702 0020 F6D0     		beq	.L48
 703              	.LVL57:
 704              		.loc 1 343 0
 705 0022 6369     		ldr	r3, [r4, #20]
 706              		.loc 1 342 0
 707 0024 013D     		subs	r5, r5, #1
 708              		.loc 1 343 0
 709 0026 5A1C     		adds	r2, r3, #1
 710 0028 6261     		str	r2, [r4, #20]
 711              		.loc 1 342 0
 712 002a A560     		str	r5, [r4, #8]
 713              		.loc 1 343 0
 714 002c 1F70     		strb	r7, [r3]
 715              		.loc 1 344 0
 716 002e 2369     		ldr	r3, [r4, #16]
 717 0030 6269     		ldr	r2, [r4, #20]
 718 0032 9A42     		cmp	r2, r3
 719              		.loc 1 345 0
 720 0034 24BF     		itt	cs
 721 0036 E368     		ldrcs	r3, [r4, #12]
 722 0038 6361     		strcs	r3, [r4, #20]
 723              		.loc 1 348 0
 724 003a E369     		ldr	r3, [r4, #28]
 725 003c 0BB1     		cbz	r3, .L50
 726              		.loc 1 349 0
 727 003e 2046     		mov	r0, r4
 728              	.LVL58:
 729 0040 9847     		blx	r3
 730              	.LVL59:
 731              	.L50:
 732              	.LBB177:
 733              	.LBB178:
 734              	.LBB179:
 735              	.LBB180:
 736              	.LBB181:
 737              		.loc 4 546 0
 738 0042 0020     		movs	r0, #0
 739              		.syntax unified
 740              	@ 546 "/home/selim/working/ChibiOS/os/ext/CMSIS/include/core_cmFunc.h" 1
 741 0044 80F31188 		MSR basepri, r0
ARM GAS  /tmp/ccEPKsUv.s 			page 14


 742              	@ 0 "" 2
 743              	.LVL60:
 744              		.thumb
 745              		.syntax unified
 746              	.LBE181:
 747              	.LBE180:
 748              	.LBE179:
 749              	.LBE178:
 750              	.LBE177:
 751              		.loc 1 354 0
 752 0048 F8BD     		pop	{r3, r4, r5, r6, r7, pc}
 753              	.LVL61:
 754              	.L56:
 755              	.LBB182:
 756              	.LBB172:
 757              	.LBB173:
 758              	.LBB174:
 759              	.LBB175:
 760              	.LBB176:
 761              		.loc 4 546 0
 762              		.syntax unified
 763              	@ 546 "/home/selim/working/ChibiOS/os/ext/CMSIS/include/core_cmFunc.h" 1
 764 004a 85F31188 		MSR basepri, r5
 765              	@ 0 "" 2
 766              	.LVL62:
 767              		.thumb
 768              		.syntax unified
 769              	.LBE176:
 770              	.LBE175:
 771              	.LBE174:
 772              	.LBE173:
 773              	.LBE172:
 774              		.loc 1 338 0
 775 004e F8BD     		pop	{r3, r4, r5, r6, r7, pc}
 776              	.LBE182:
 777              		.cfi_endproc
 778              	.LFE234:
 779              		.size	chOQPutTimeout, .-chOQPutTimeout
 780              		.section	.text.chOQGetI,"ax",%progbits
 781              		.align	2
 782              		.p2align 4,,15
 783              		.global	chOQGetI
 784              		.thumb
 785              		.thumb_func
 786              		.type	chOQGetI, %function
 787              	chOQGetI:
 788              	.LFB235:
 789              		.loc 1 366 0
 790              		.cfi_startproc
 791              		@ args = 0, pretend = 0, frame = 0
 792              		@ frame_needed = 0, uses_anonymous_args = 0
 793              	.LVL63:
 794 0000 38B5     		push	{r3, r4, r5, lr}
 795              		.cfi_def_cfa_offset 16
 796              		.cfi_offset 3, -16
 797              		.cfi_offset 4, -12
 798              		.cfi_offset 5, -8
ARM GAS  /tmp/ccEPKsUv.s 			page 15


 799              		.cfi_offset 14, -4
 800              	.LBB183:
 801              	.LBB184:
 802              		.loc 3 390 0
 803 0002 8269     		ldr	r2, [r0, #24]
 804 0004 4369     		ldr	r3, [r0, #20]
 805 0006 9342     		cmp	r3, r2
 806 0008 8368     		ldr	r3, [r0, #8]
 807 000a 0ED0     		beq	.L66
 808              	.L60:
 809              	.LVL64:
 810              	.LBE184:
 811              	.LBE183:
 812              		.loc 1 377 0
 813 000c 0569     		ldr	r5, [r0, #16]
 814              		.loc 1 376 0
 815 000e 511C     		adds	r1, r2, #1
 816              		.loc 1 375 0
 817 0010 0133     		adds	r3, r3, #1
 818 0012 8360     		str	r3, [r0, #8]
 819              		.loc 1 376 0
 820 0014 8161     		str	r1, [r0, #24]
 821              		.loc 1 377 0
 822 0016 A942     		cmp	r1, r5
 823              		.loc 1 376 0
 824 0018 1478     		ldrb	r4, [r2]	@ zero_extendqisi2
 825              	.LVL65:
 826              		.loc 1 377 0
 827 001a 01D3     		bcc	.L62
 828              		.loc 1 378 0
 829 001c C368     		ldr	r3, [r0, #12]
 830 001e 8361     		str	r3, [r0, #24]
 831              	.L62:
 832              		.loc 1 381 0
 833 0020 0021     		movs	r1, #0
 834 0022 FFF7FEFF 		bl	chThdDequeueNextI
 835              	.LVL66:
 836              		.loc 1 383 0
 837 0026 2046     		mov	r0, r4
 838 0028 38BD     		pop	{r3, r4, r5, pc}
 839              	.LVL67:
 840              	.L66:
 841              	.LBB186:
 842              	.LBB185:
 843              		.loc 3 390 0
 844 002a 002B     		cmp	r3, #0
 845 002c EED0     		beq	.L60
 846              	.LBE185:
 847              	.LBE186:
 848              		.loc 1 372 0
 849 002e 6FF00200 		mvn	r0, #2
 850              	.LVL68:
 851 0032 38BD     		pop	{r3, r4, r5, pc}
 852              		.cfi_endproc
 853              	.LFE235:
 854              		.size	chOQGetI, .-chOQGetI
 855              		.section	.text.chOQWriteTimeout,"ax",%progbits
ARM GAS  /tmp/ccEPKsUv.s 			page 16


 856              		.align	2
 857              		.p2align 4,,15
 858              		.global	chOQWriteTimeout
 859              		.thumb
 860              		.thumb_func
 861              		.type	chOQWriteTimeout, %function
 862              	chOQWriteTimeout:
 863              	.LFB236:
 864              		.loc 1 411 0
 865              		.cfi_startproc
 866              		@ args = 0, pretend = 0, frame = 8
 867              		@ frame_needed = 0, uses_anonymous_args = 0
 868              	.LVL69:
 869 0000 2DE9F04F 		push	{r4, r5, r6, r7, r8, r9, r10, fp, lr}
 870              		.cfi_def_cfa_offset 36
 871              		.cfi_offset 4, -36
 872              		.cfi_offset 5, -32
 873              		.cfi_offset 6, -28
 874              		.cfi_offset 7, -24
 875              		.cfi_offset 8, -20
 876              		.cfi_offset 9, -16
 877              		.cfi_offset 10, -12
 878              		.cfi_offset 11, -8
 879              		.cfi_offset 14, -4
 880 0004 83B0     		sub	sp, sp, #12
 881              		.cfi_def_cfa_offset 48
 882              		.loc 1 411 0
 883 0006 0446     		mov	r4, r0
 884 0008 0D46     		mov	r5, r1
 885 000a 1646     		mov	r6, r2
 886 000c 0193     		str	r3, [sp, #4]
 887              		.loc 1 412 0
 888 000e D0F81C80 		ldr	r8, [r0, #28]
 889              	.LVL70:
 890              	.LBB187:
 891              	.LBB188:
 892              	.LBB189:
 893              	.LBB190:
 894              		.loc 4 546 0
 895 0012 4FF02009 		mov	r9, #32
 896              		.syntax unified
 897              	@ 546 "/home/selim/working/ChibiOS/os/ext/CMSIS/include/core_cmFunc.h" 1
 898 0016 89F31188 		MSR basepri, r9
 899              	@ 0 "" 2
 900              	.LVL71:
 901              		.thumb
 902              		.syntax unified
 903              	.LBE190:
 904              	.LBE189:
 905              	.LBE188:
 906              	.LBE187:
 907              		.loc 1 413 0
 908 001a 0027     		movs	r7, #0
 909              	.LBB191:
 910              	.LBB192:
 911              	.LBB193:
 912              	.LBB194:
ARM GAS  /tmp/ccEPKsUv.s 			page 17


 913              	.LBB195:
 914              		.loc 4 546 0
 915 001c BA46     		mov	r10, r7
 916              	.LVL72:
 917              	.L68:
 918 001e A368     		ldr	r3, [r4, #8]
 919              	.LVL73:
 920              	.LBE195:
 921              	.LBE194:
 922              	.LBE193:
 923              	.LBE192:
 924              	.LBE191:
 925              		.loc 1 427 0
 926 0020 05F1010B 		add	fp, r5, #1
 927              	.LVL74:
 928              		.loc 1 426 0
 929 0024 591E     		subs	r1, r3, #1
 930              		.loc 1 433 0
 931 0026 2046     		mov	r0, r4
 932              		.loc 1 419 0
 933 0028 FBB1     		cbz	r3, .L71
 934              	.LVL75:
 935              	.L84:
 936              		.loc 1 427 0
 937 002a 6369     		ldr	r3, [r4, #20]
 938              		.loc 1 426 0
 939 002c A160     		str	r1, [r4, #8]
 940              		.loc 1 427 0
 941 002e 591C     		adds	r1, r3, #1
 942 0030 6161     		str	r1, [r4, #20]
 943 0032 2978     		ldrb	r1, [r5]	@ zero_extendqisi2
 944 0034 1970     		strb	r1, [r3]
 945              		.loc 1 428 0
 946 0036 2369     		ldr	r3, [r4, #16]
 947 0038 6169     		ldr	r1, [r4, #20]
 948 003a 9942     		cmp	r1, r3
 949              		.loc 1 429 0
 950 003c 24BF     		itt	cs
 951 003e E368     		ldrcs	r3, [r4, #12]
 952 0040 6361     		strcs	r3, [r4, #20]
 953              		.loc 1 432 0
 954 0042 B8F1000F 		cmp	r8, #0
 955 0046 00D0     		beq	.L73
 956              		.loc 1 433 0
 957 0048 C047     		blx	r8
 958              	.LVL76:
 959              	.L73:
 960              	.LBB200:
 961              	.LBB199:
 962              	.LBB198:
 963              	.LBB197:
 964              	.LBB196:
 965              		.loc 4 546 0
 966              		.syntax unified
 967              	@ 546 "/home/selim/working/ChibiOS/os/ext/CMSIS/include/core_cmFunc.h" 1
 968 004a 8AF31188 		MSR basepri, r10
 969              	@ 0 "" 2
ARM GAS  /tmp/ccEPKsUv.s 			page 18


 970              	.LVL77:
 971              		.thumb
 972              		.syntax unified
 973              	.LBE196:
 974              	.LBE197:
 975              	.LBE198:
 976              	.LBE199:
 977              	.LBE200:
 978              		.loc 1 438 0
 979 004e 013E     		subs	r6, r6, #1
 980              	.LVL78:
 981              		.loc 1 437 0
 982 0050 07F10107 		add	r7, r7, #1
 983              	.LVL79:
 984              		.loc 1 438 0
 985 0054 13D0     		beq	.L70
 986              	.LBB201:
 987              	.LBB202:
 988              	.LBB203:
 989              	.LBB204:
 990              		.loc 4 546 0
 991              		.syntax unified
 992              	@ 546 "/home/selim/working/ChibiOS/os/ext/CMSIS/include/core_cmFunc.h" 1
 993 0056 89F31188 		MSR basepri, r9
 994              	@ 0 "" 2
 995              	.LVL80:
 996              		.thumb
 997              		.syntax unified
 998 005a A368     		ldr	r3, [r4, #8]
 999              	.LBE204:
 1000              	.LBE203:
 1001              	.LBE202:
 1002              	.LBE201:
 1003              		.loc 1 427 0
 1004 005c 5D46     		mov	r5, fp
 1005              	.LVL81:
 1006              		.loc 1 426 0
 1007 005e 591E     		subs	r1, r3, #1
 1008              		.loc 1 427 0
 1009 0060 05F1010B 		add	fp, r5, #1
 1010              	.LVL82:
 1011              		.loc 1 433 0
 1012 0064 2046     		mov	r0, r4
 1013              		.loc 1 419 0
 1014 0066 002B     		cmp	r3, #0
 1015 0068 DFD1     		bne	.L84
 1016              	.LVL83:
 1017              	.L71:
 1018              		.loc 1 420 0
 1019 006a 0199     		ldr	r1, [sp, #4]
 1020 006c 0093     		str	r3, [sp]
 1021 006e 2046     		mov	r0, r4
 1022              	.LVL84:
 1023 0070 FFF7FEFF 		bl	chThdEnqueueTimeoutS
 1024              	.LVL85:
 1025 0074 009B     		ldr	r3, [sp]
 1026 0076 0028     		cmp	r0, #0
ARM GAS  /tmp/ccEPKsUv.s 			page 19


 1027 0078 D1D0     		beq	.L68
 1028              	.LVL86:
 1029              	.LBB205:
 1030              	.LBB206:
 1031              	.LBB207:
 1032              	.LBB208:
 1033              	.LBB209:
 1034              		.loc 4 546 0
 1035              		.syntax unified
 1036              	@ 546 "/home/selim/working/ChibiOS/os/ext/CMSIS/include/core_cmFunc.h" 1
 1037 007a 83F31188 		MSR basepri, r3
 1038              	@ 0 "" 2
 1039              	.LVL87:
 1040              		.thumb
 1041              		.syntax unified
 1042              	.L70:
 1043              	.LBE209:
 1044              	.LBE208:
 1045              	.LBE207:
 1046              	.LBE206:
 1047              	.LBE205:
 1048              		.loc 1 443 0
 1049 007e 3846     		mov	r0, r7
 1050 0080 03B0     		add	sp, sp, #12
 1051              		.cfi_def_cfa_offset 36
 1052              		@ sp needed
 1053 0082 BDE8F08F 		pop	{r4, r5, r6, r7, r8, r9, r10, fp, pc}
 1054              		.cfi_endproc
 1055              	.LFE236:
 1056              		.size	chOQWriteTimeout, .-chOQWriteTimeout
 1057              		.text
 1058              	.Letext0:
 1059              		.file 5 "/usr/lib/gcc/arm-none-eabi/5.3.1/include/stddef.h"
 1060              		.file 6 "/usr/arm-none-eabi/include/machine/_default_types.h"
 1061              		.file 7 "/usr/arm-none-eabi/include/sys/_stdint.h"
 1062              		.file 8 "/home/selim/working/ChibiOS/os/rt/ports/ARMCMx/compilers/GCC/chtypes.h"
 1063              		.file 9 "/home/selim/working/ChibiOS/os/rt/include/chsystypes.h"
 1064              		.file 10 "/home/selim/working/ChibiOS/os/rt/ports/ARMCMx/chcore.h"
 1065              		.file 11 "/home/selim/working/ChibiOS/os/rt/ports/ARMCMx/chcore_v7m.h"
 1066              		.file 12 "/home/selim/working/ChibiOS/os/rt/include/chtm.h"
 1067              		.file 13 "/home/selim/working/ChibiOS/os/rt/include/chsem.h"
 1068              		.file 14 "/home/selim/working/ChibiOS/os/rt/include/chmtx.h"
 1069              		.file 15 "/home/selim/working/ChibiOS/os/rt/include/chthreads.h"
 1070              		.file 16 "/home/selim/working/ChibiOS/os/rt/include/chsys.h"
 1071              		.file 17 "/home/selim/working/ChibiOS/os/ext/CMSIS/include/core_cm4.h"