ARM GAS  /tmp/ccEPKsUv.s 			page 1


   1              		.syntax unified
   2              		.cpu cortex-m4
   3              		.fpu softvfp
   4              		.eabi_attribute 20, 1
   5              		.eabi_attribute 21, 1
   6              		.eabi_attribute 23, 3
   7              		.eabi_attribute 24, 1
   8              		.eabi_attribute 25, 1
   9              		.eabi_attribute 26, 1
  10              		.eabi_attribute 30, 2
  11              		.eabi_attribute 34, 1
  12              		.eabi_attribute 18, 4
  13              		.thumb
  14              		.syntax unified
  15              		.file	"chqueues.c"
  16              		.text
  17              	.Ltext0:
  18              		.cfi_sections	.debug_frame
  19              		.section	.text.chIQObjectInit,"ax",%progbits
  20              		.align	2
  21              		.p2align 4,,15
  22              		.global	chIQObjectInit
  23              		.thumb
  24              		.thumb_func
  25              		.type	chIQObjectInit, %function
  26              	chIQObjectInit:
  27              	.LFB227:
  28              		.file 1 "/home/selim/working/ChibiOS/os/rt/src/chqueues.c"
  29              		.loc 1 88 0
  30              		.cfi_startproc
  31              		@ args = 4, pretend = 0, frame = 0
  32              		@ frame_needed = 0, uses_anonymous_args = 0
  33              		@ link register save eliminated.
  34              	.LVL0:
  35 0000 30B4     		push	{r4, r5}
  36              		.cfi_def_cfa_offset 8
  37              		.cfi_offset 4, -8
  38              		.cfi_offset 5, -4
  39              		.loc 1 88 0
  40 0002 029C     		ldr	r4, [sp, #8]
  41              		.loc 1 97 0
  42 0004 0462     		str	r4, [r0, #32]
  43              		.loc 1 91 0
  44 0006 0025     		movs	r5, #0
  45              		.loc 1 95 0
  46 0008 0A44     		add	r2, r2, r1
  47              	.LVL1:
  48              		.loc 1 91 0
  49 000a 8560     		str	r5, [r0, #8]
  50              		.loc 1 95 0
  51 000c 0261     		str	r2, [r0, #16]
  52              	.LBB108:
  53              	.LBB109:
  54              	.LBB110:
  55              		.file 2 "/home/selim/working/ChibiOS/os/rt/include/chschd.h"
  56              		.loc 2 604 0
  57 000e 0060     		str	r0, [r0]
ARM GAS  /tmp/ccEPKsUv.s 			page 2


  58              		.loc 2 605 0
  59 0010 4060     		str	r0, [r0, #4]
  60              	.LVL2:
  61              	.LBE110:
  62              	.LBE109:
  63              	.LBE108:
  64              		.loc 1 92 0
  65 0012 C160     		str	r1, [r0, #12]
  66              		.loc 1 93 0
  67 0014 8161     		str	r1, [r0, #24]
  68              		.loc 1 94 0
  69 0016 4161     		str	r1, [r0, #20]
  70              		.loc 1 96 0
  71 0018 C361     		str	r3, [r0, #28]
  72              		.loc 1 98 0
  73 001a 30BC     		pop	{r4, r5}
  74              		.cfi_restore 5
  75              		.cfi_restore 4
  76              		.cfi_def_cfa_offset 0
  77              	.LVL3:
  78 001c 7047     		bx	lr
  79              		.cfi_endproc
  80              	.LFE227:
  81              		.size	chIQObjectInit, .-chIQObjectInit
  82 001e 00BF     		.section	.text.chIQResetI,"ax",%progbits
  83              		.align	2
  84              		.p2align 4,,15
  85              		.global	chIQResetI
  86              		.thumb
  87              		.thumb_func
  88              		.type	chIQResetI, %function
  89              	chIQResetI:
  90              	.LFB228:
  91              		.loc 1 111 0
  92              		.cfi_startproc
  93              		@ args = 0, pretend = 0, frame = 0
  94              		@ frame_needed = 0, uses_anonymous_args = 0
  95              		@ link register save eliminated.
  96              	.LVL4:
  97              		.loc 1 117 0
  98 0000 0021     		movs	r1, #0
  99              		.loc 1 115 0
 100 0002 C268     		ldr	r2, [r0, #12]
 101              		.loc 1 117 0
 102 0004 8160     		str	r1, [r0, #8]
 103              		.loc 1 115 0
 104 0006 8261     		str	r2, [r0, #24]
 105              		.loc 1 116 0
 106 0008 4261     		str	r2, [r0, #20]
 107              		.loc 1 118 0
 108 000a 6FF00101 		mvn	r1, #1
 109 000e FFF7FEBF 		b	chThdDequeueAllI
 110              	.LVL5:
 111              		.cfi_endproc
 112              	.LFE228:
 113              		.size	chIQResetI, .-chIQResetI
 114 0012 00BF     		.section	.text.chIQPutI,"ax",%progbits
ARM GAS  /tmp/ccEPKsUv.s 			page 3


 115              		.align	2
 116              		.p2align 4,,15
 117              		.global	chIQPutI
 118              		.thumb
 119              		.thumb_func
 120              		.type	chIQPutI, %function
 121              	chIQPutI:
 122              	.LFB229:
 123              		.loc 1 134 0
 124              		.cfi_startproc
 125              		@ args = 0, pretend = 0, frame = 0
 126              		@ frame_needed = 0, uses_anonymous_args = 0
 127              	.LVL6:
 128              	.LBB111:
 129              	.LBB112:
 130              		.file 3 "/home/selim/working/ChibiOS/os/rt/include/chqueues.h"
 131              		.loc 3 324 0
 132 0000 8369     		ldr	r3, [r0, #24]
 133 0002 4269     		ldr	r2, [r0, #20]
 134 0004 9A42     		cmp	r2, r3
 135              	.LBE112:
 136              	.LBE111:
 137              		.loc 1 134 0
 138 0006 10B5     		push	{r4, lr}
 139              		.cfi_def_cfa_offset 8
 140              		.cfi_offset 4, -8
 141              		.cfi_offset 14, -4
 142              	.LBB115:
 143              	.LBB113:
 144              		.loc 3 324 0
 145 0008 8368     		ldr	r3, [r0, #8]
 146 000a 0FD0     		beq	.L14
 147              	.L7:
 148              	.LVL7:
 149              	.LBE113:
 150              	.LBE115:
 151              		.loc 1 142 0
 152 000c 0133     		adds	r3, r3, #1
 153              		.loc 1 143 0
 154 000e 541C     		adds	r4, r2, #1
 155              		.loc 1 142 0
 156 0010 8360     		str	r3, [r0, #8]
 157              		.loc 1 143 0
 158 0012 4461     		str	r4, [r0, #20]
 159 0014 1170     		strb	r1, [r2]
 160              		.loc 1 144 0
 161 0016 4269     		ldr	r2, [r0, #20]
 162 0018 0369     		ldr	r3, [r0, #16]
 163 001a 9A42     		cmp	r2, r3
 164 001c 01D3     		bcc	.L9
 165              		.loc 1 145 0
 166 001e C368     		ldr	r3, [r0, #12]
 167 0020 4361     		str	r3, [r0, #20]
 168              	.L9:
 169              		.loc 1 148 0
 170 0022 0021     		movs	r1, #0
 171              	.LVL8:
ARM GAS  /tmp/ccEPKsUv.s 			page 4


 172 0024 FFF7FEFF 		bl	chThdDequeueNextI
 173              	.LVL9:
 174              		.loc 1 150 0
 175 0028 0020     		movs	r0, #0
 176 002a 10BD     		pop	{r4, pc}
 177              	.LVL10:
 178              	.L14:
 179              	.LBB116:
 180              	.LBB114:
 181              		.loc 3 324 0
 182 002c 002B     		cmp	r3, #0
 183 002e EDD0     		beq	.L7
 184              	.LBE114:
 185              	.LBE116:
 186              		.loc 1 139 0
 187 0030 6FF00300 		mvn	r0, #3
 188              	.LVL11:
 189 0034 10BD     		pop	{r4, pc}
 190              		.cfi_endproc
 191              	.LFE229:
 192              		.size	chIQPutI, .-chIQPutI
 193 0036 00BF     		.section	.text.chIQGetTimeout,"ax",%progbits
 194              		.align	2
 195              		.p2align 4,,15
 196              		.global	chIQGetTimeout
 197              		.thumb
 198              		.thumb_func
 199              		.type	chIQGetTimeout, %function
 200              	chIQGetTimeout:
 201              	.LFB230:
 202              		.loc 1 173 0
 203              		.cfi_startproc
 204              		@ args = 0, pretend = 0, frame = 0
 205              		@ frame_needed = 0, uses_anonymous_args = 0
 206              	.LVL12:
 207 0000 70B5     		push	{r4, r5, r6, lr}
 208              		.cfi_def_cfa_offset 16
 209              		.cfi_offset 4, -16
 210              		.cfi_offset 5, -12
 211              		.cfi_offset 6, -8
 212              		.cfi_offset 14, -4
 213              	.LBB117:
 214              	.LBB118:
 215              	.LBB119:
 216              	.LBB120:
 217              		.file 4 "/home/selim/working/ChibiOS/os/ext/CMSIS/include/core_cmFunc.h"
 218              		.loc 4 546 0
 219 0002 2023     		movs	r3, #32
 220              	.LBE120:
 221              	.LBE119:
 222              	.LBE118:
 223              	.LBE117:
 224              		.loc 1 173 0
 225 0004 0E46     		mov	r6, r1
 226 0006 0446     		mov	r4, r0
 227              	.LBB124:
 228              	.LBB123:
ARM GAS  /tmp/ccEPKsUv.s 			page 5


 229              	.LBB122:
 230              	.LBB121:
 231              		.loc 4 546 0
 232              		.syntax unified
 233              	@ 546 "/home/selim/working/ChibiOS/os/ext/CMSIS/include/core_cmFunc.h" 1
 234 0008 83F31188 		MSR basepri, r3
 235              	@ 0 "" 2
 236              	.LVL13:
 237              		.thumb
 238              		.syntax unified
 239              	.LBE121:
 240              	.LBE122:
 241              	.LBE123:
 242              	.LBE124:
 243              		.loc 1 177 0
 244 000c C369     		ldr	r3, [r0, #28]
 245 000e 2BB1     		cbz	r3, .L17
 246              		.loc 1 178 0
 247 0010 9847     		blx	r3
 248              	.LVL14:
 249 0012 03E0     		b	.L17
 250              	.LVL15:
 251              	.L19:
 252              	.LBB125:
 253              		.loc 1 182 0
 254 0014 FFF7FEFF 		bl	chThdEnqueueTimeoutS
 255              	.LVL16:
 256              		.loc 1 183 0
 257 0018 0028     		cmp	r0, #0
 258 001a 15DB     		blt	.L26
 259              	.LVL17:
 260              	.L17:
 261 001c A568     		ldr	r5, [r4, #8]
 262              	.LVL18:
 263              		.loc 1 182 0
 264 001e 3146     		mov	r1, r6
 265 0020 2046     		mov	r0, r4
 266              	.LBE125:
 267              		.loc 1 181 0
 268 0022 002D     		cmp	r5, #0
 269 0024 F6D0     		beq	.L19
 270              	.LVL19:
 271              		.loc 1 190 0
 272 0026 A269     		ldr	r2, [r4, #24]
 273              		.loc 1 191 0
 274 0028 2169     		ldr	r1, [r4, #16]
 275              	.LVL20:
 276              		.loc 1 190 0
 277 002a 531C     		adds	r3, r2, #1
 278              		.loc 1 191 0
 279 002c 8B42     		cmp	r3, r1
 280              		.loc 1 189 0
 281 002e 05F1FF35 		add	r5, r5, #-1
 282              		.loc 1 190 0
 283 0032 A361     		str	r3, [r4, #24]
 284              		.loc 1 189 0
 285 0034 A560     		str	r5, [r4, #8]
ARM GAS  /tmp/ccEPKsUv.s 			page 6


 286              		.loc 1 192 0
 287 0036 28BF     		it	cs
 288 0038 E368     		ldrcs	r3, [r4, #12]
 289              		.loc 1 190 0
 290 003a 1078     		ldrb	r0, [r2]	@ zero_extendqisi2
 291              	.LVL21:
 292              		.loc 1 192 0
 293 003c 28BF     		it	cs
 294 003e A361     		strcs	r3, [r4, #24]
 295              	.LVL22:
 296              	.LBB131:
 297              	.LBB132:
 298              	.LBB133:
 299              	.LBB134:
 300              	.LBB135:
 301              		.loc 4 546 0
 302 0040 0023     		movs	r3, #0
 303              		.syntax unified
 304              	@ 546 "/home/selim/working/ChibiOS/os/ext/CMSIS/include/core_cmFunc.h" 1
 305 0042 83F31188 		MSR basepri, r3
 306              	@ 0 "" 2
 307              	.LVL23:
 308              		.thumb
 309              		.syntax unified
 310              	.LBE135:
 311              	.LBE134:
 312              	.LBE133:
 313              	.LBE132:
 314              	.LBE131:
 315              		.loc 1 197 0
 316 0046 70BD     		pop	{r4, r5, r6, pc}
 317              	.LVL24:
 318              	.L26:
 319              	.LBB136:
 320              	.LBB126:
 321              	.LBB127:
 322              	.LBB128:
 323              	.LBB129:
 324              	.LBB130:
 325              		.loc 4 546 0
 326              		.syntax unified
 327              	@ 546 "/home/selim/working/ChibiOS/os/ext/CMSIS/include/core_cmFunc.h" 1
 328 0048 85F31188 		MSR basepri, r5
 329              	@ 0 "" 2
 330              	.LVL25:
 331              		.thumb
 332              		.syntax unified
 333              	.LBE130:
 334              	.LBE129:
 335              	.LBE128:
 336              	.LBE127:
 337              	.LBE126:
 338              		.loc 1 185 0
 339 004c 70BD     		pop	{r4, r5, r6, pc}
 340              	.LBE136:
 341              		.cfi_endproc
 342              	.LFE230:
ARM GAS  /tmp/ccEPKsUv.s 			page 7


 343              		.size	chIQGetTimeout, .-chIQGetTimeout
 344 004e 00BF     		.section	.text.chIQReadTimeout,"ax",%progbits
 345              		.align	2
 346              		.p2align 4,,15
 347              		.global	chIQReadTimeout
 348              		.thumb
 349              		.thumb_func
 350              		.type	chIQReadTimeout, %function
 351              	chIQReadTimeout:
 352              	.LFB231:
 353              		.loc 1 224 0
 354              		.cfi_startproc
 355              		@ args = 0, pretend = 0, frame = 8
 356              		@ frame_needed = 0, uses_anonymous_args = 0
 357              	.LVL26:
 358 0000 2DE9F04F 		push	{r4, r5, r6, r7, r8, r9, r10, fp, lr}
 359              		.cfi_def_cfa_offset 36
 360              		.cfi_offset 4, -36
 361              		.cfi_offset 5, -32
 362              		.cfi_offset 6, -28
 363              		.cfi_offset 7, -24
 364              		.cfi_offset 8, -20
 365              		.cfi_offset 9, -16
 366              		.cfi_offset 10, -12
 367              		.cfi_offset 11, -8
 368              		.cfi_offset 14, -4
 369 0004 0446     		mov	r4, r0
 370 0006 83B0     		sub	sp, sp, #12
 371              		.cfi_def_cfa_offset 48
 372              		.loc 1 224 0
 373 0008 8946     		mov	r9, r1
 374 000a 9346     		mov	fp, r2
 375 000c 1D46     		mov	r5, r3
 376              		.loc 1 225 0
 377 000e D0F81C80 		ldr	r8, [r0, #28]
 378              	.LVL27:
 379              	.LBB137:
 380              	.LBB138:
 381              	.LBB139:
 382              	.LBB140:
 383              		.loc 4 546 0
 384 0012 2027     		movs	r7, #32
 385              		.syntax unified
 386              	@ 546 "/home/selim/working/ChibiOS/os/ext/CMSIS/include/core_cmFunc.h" 1
 387 0014 87F31188 		MSR basepri, r7
 388              	@ 0 "" 2
 389              	.LVL28:
 390              		.thumb
 391              		.syntax unified
 392              	.LBE140:
 393              	.LBE139:
 394              	.LBE138:
 395              	.LBE137:
 396              		.loc 1 226 0
 397 0018 0026     		movs	r6, #0
 398              	.LBB141:
 399              	.LBB142:
ARM GAS  /tmp/ccEPKsUv.s 			page 8


 400              	.LBB143:
 401              	.LBB144:
 402              		.loc 4 546 0
 403 001a 0197     		str	r7, [sp, #4]
 404              	.LBE144:
 405              	.LBE143:
 406              	.LBE142:
 407              	.LBE141:
 408              	.LBB148:
 409              	.LBB149:
 410              	.LBB150:
 411              	.LBB151:
 412              	.LBB152:
 413 001c B246     		mov	r10, r6
 414              	.LVL29:
 415              	.L33:
 416              	.LBE152:
 417              	.LBE151:
 418              	.LBE150:
 419              	.LBE149:
 420              	.LBE148:
 421              		.loc 1 232 0
 422 001e B8F1000F 		cmp	r8, #0
 423 0022 05D0     		beq	.L29
 424              		.loc 1 233 0
 425 0024 2046     		mov	r0, r4
 426              	.LVL30:
 427 0026 C047     		blx	r8
 428              	.LVL31:
 429 0028 02E0     		b	.L29
 430              	.LVL32:
 431              	.L31:
 432              		.loc 1 237 0
 433 002a FFF7FEFF 		bl	chThdEnqueueTimeoutS
 434              	.LVL33:
 435 002e D8B9     		cbnz	r0, .L40
 436              	.LVL34:
 437              	.L29:
 438 0030 A768     		ldr	r7, [r4, #8]
 439              	.LVL35:
 440 0032 2946     		mov	r1, r5
 441 0034 2046     		mov	r0, r4
 442              		.loc 1 236 0
 443 0036 002F     		cmp	r7, #0
 444 0038 F7D0     		beq	.L31
 445              	.LVL36:
 446              		.loc 1 244 0
 447 003a A269     		ldr	r2, [r4, #24]
 448              		.loc 1 243 0
 449 003c 7B1E     		subs	r3, r7, #1
 450              		.loc 1 244 0
 451 003e 511C     		adds	r1, r2, #1
 452              	.LVL37:
 453 0040 A161     		str	r1, [r4, #24]
 454              		.loc 1 243 0
 455 0042 A360     		str	r3, [r4, #8]
 456              		.loc 1 244 0
ARM GAS  /tmp/ccEPKsUv.s 			page 9


 457 0044 1378     		ldrb	r3, [r2]	@ zero_extendqisi2
 458 0046 09F8013B 		strb	r3, [r9], #1
 459              	.LVL38:
 460              		.loc 1 245 0
 461 004a 2369     		ldr	r3, [r4, #16]
 462 004c A269     		ldr	r2, [r4, #24]
 463 004e 9A42     		cmp	r2, r3
 464              		.loc 1 246 0
 465 0050 24BF     		itt	cs
 466 0052 E368     		ldrcs	r3, [r4, #12]
 467 0054 A361     		strcs	r3, [r4, #24]
 468              	.LVL39:
 469              	.LBB157:
 470              	.LBB156:
 471              	.LBB155:
 472              	.LBB154:
 473              	.LBB153:
 474              		.loc 4 546 0
 475              		.syntax unified
 476              	@ 546 "/home/selim/working/ChibiOS/os/ext/CMSIS/include/core_cmFunc.h" 1
 477 0056 8AF31188 		MSR basepri, r10
 478              	@ 0 "" 2
 479              	.LVL40:
 480              		.thumb
 481              		.syntax unified
 482              	.LBE153:
 483              	.LBE154:
 484              	.LBE155:
 485              	.LBE156:
 486              	.LBE157:
 487              		.loc 1 250 0
 488 005a 0136     		adds	r6, r6, #1
 489              	.LVL41:
 490              		.loc 1 251 0
 491 005c B345     		cmp	fp, r6
 492 005e 05D0     		beq	.L30
 493              	.LVL42:
 494              	.LBB158:
 495              	.LBB147:
 496              	.LBB146:
 497              	.LBB145:
 498              		.loc 4 546 0
 499 0060 019B     		ldr	r3, [sp, #4]
 500              		.syntax unified
 501              	@ 546 "/home/selim/working/ChibiOS/os/ext/CMSIS/include/core_cmFunc.h" 1
 502 0062 83F31188 		MSR basepri, r3
 503              	@ 0 "" 2
 504              	.LVL43:
 505              		.thumb
 506              		.syntax unified
 507 0066 DAE7     		b	.L33
 508              	.LVL44:
 509              	.L40:
 510              	.LBE145:
 511              	.LBE146:
 512              	.LBE147:
 513              	.LBE158:
ARM GAS  /tmp/ccEPKsUv.s 			page 10


 514              	.LBB159:
 515              	.LBB160:
 516              	.LBB161:
 517              	.LBB162:
 518              	.LBB163:
 519              		.syntax unified
 520              	@ 546 "/home/selim/working/ChibiOS/os/ext/CMSIS/include/core_cmFunc.h" 1
 521 0068 87F31188 		MSR basepri, r7
 522              	@ 0 "" 2
 523              	.LVL45:
 524              		.thumb
 525              		.syntax unified
 526              	.L30:
 527              	.LBE163:
 528              	.LBE162:
 529              	.LBE161:
 530              	.LBE160:
 531              	.LBE159:
 532              		.loc 1 257 0
 533 006c 3046     		mov	r0, r6
 534 006e 03B0     		add	sp, sp, #12
 535              		.cfi_def_cfa_offset 36
 536              		@ sp needed
 537 0070 BDE8F08F 		pop	{r4, r5, r6, r7, r8, r9, r10, fp, pc}
 538              		.cfi_endproc
 539              	.LFE231:
 540              		.size	chIQReadTimeout, .-chIQReadTimeout
 541              		.section	.text.chOQObjectInit,"ax",%progbits
 542              		.align	2
 543              		.p2align 4,,15
 544              		.global	chOQObjectInit
 545              		.thumb
 546              		.thumb_func
 547              		.type	chOQObjectInit, %function
 548              	chOQObjectInit:
 549              	.LFB232:
 550              		.loc 1 276 0
 551              		.cfi_startproc
 552              		@ args = 4, pretend = 0, frame = 0
 553              		@ frame_needed = 0, uses_anonymous_args = 0
 554              		@ link register save eliminated.
 555              	.LVL46:
 556 0000 30B4     		push	{r4, r5}
 557              		.cfi_def_cfa_offset 8
 558              		.cfi_offset 4, -8
 559              		.cfi_offset 5, -4
 560              		.loc 1 276 0
 561 0002 029C     		ldr	r4, [sp, #8]
 562              		.loc 1 285 0
 563 0004 0462     		str	r4, [r0, #32]
 564              		.loc 1 283 0
 565 0006 8D18     		adds	r5, r1, r2
 566 0008 0561     		str	r5, [r0, #16]
 567              	.LBB164:
 568              	.LBB165:
 569              	.LBB166:
 570              		.loc 2 604 0
ARM GAS  /tmp/ccEPKsUv.s 			page 11


 571 000a 0060     		str	r0, [r0]
 572              		.loc 2 605 0
 573 000c 4060     		str	r0, [r0, #4]
 574              	.LVL47:
 575              	.LBE166:
 576              	.LBE165:
 577              	.LBE164:
 578              		.loc 1 279 0
 579 000e 8260     		str	r2, [r0, #8]
 580              		.loc 1 280 0
 581 0010 C160     		str	r1, [r0, #12]
 582              		.loc 1 281 0
 583 0012 8161     		str	r1, [r0, #24]
 584              		.loc 1 282 0
 585 0014 4161     		str	r1, [r0, #20]
 586              		.loc 1 284 0
 587 0016 C361     		str	r3, [r0, #28]
 588              		.loc 1 286 0
 589 0018 30BC     		pop	{r4, r5}
 590              		.cfi_restore 5
 591              		.cfi_restore 4
 592              		.cfi_def_cfa_offset 0
 593              	.LVL48:
 594 001a 7047     		bx	lr
 595              		.cfi_endproc
 596              	.LFE232:
 597              		.size	chOQObjectInit, .-chOQObjectInit
 598              		.section	.text.chOQResetI,"ax",%progbits
 599              		.align	2
 600              		.p2align 4,,15
 601              		.global	chOQResetI
 602              		.thumb
 603              		.thumb_func
 604              		.type	chOQResetI, %function
 605              	chOQResetI:
 606              	.LFB233:
 607              		.loc 1 299 0
 608              		.cfi_startproc
 609              		@ args = 0, pretend = 0, frame = 0
 610              		@ frame_needed = 0, uses_anonymous_args = 0
 611              		@ link register save eliminated.
 612              	.LVL49:
 613 0000 10B4     		push	{r4}
 614              		.cfi_def_cfa_offset 4
 615              		.cfi_offset 4, -4
 616              		.loc 1 305 0
 617 0002 0269     		ldr	r2, [r0, #16]
 618              		.loc 1 303 0
 619 0004 C468     		ldr	r4, [r0, #12]
 620 0006 8461     		str	r4, [r0, #24]
 621              		.loc 1 305 0
 622 0008 121B     		subs	r2, r2, r4
 623              		.loc 1 304 0
 624 000a 4461     		str	r4, [r0, #20]
 625              		.loc 1 306 0
 626 000c 6FF00101 		mvn	r1, #1
 627              		.loc 1 305 0
ARM GAS  /tmp/ccEPKsUv.s 			page 12


 628 0010 8260     		str	r2, [r0, #8]
 629              		.loc 1 307 0
 630 0012 10BC     		pop	{r4}
 631              		.cfi_restore 4
 632              		.cfi_def_cfa_offset 0
 633              		.loc 1 306 0
 634 0014 FFF7FEBF 		b	chThdDequeueAllI
 635              	.LVL50:
 636              		.cfi_endproc
 637              	.LFE233:
 638              		.size	chOQResetI, .-chOQResetI
 639              		.section	.text.chOQPutTimeout,"ax",%progbits
 640              		.align	2
 641              		.p2align 4,,15
 642              		.global	chOQPutTimeout
 643              		.thumb
 644              		.thumb_func
 645              		.type	chOQPutTimeout, %function
 646              	chOQPutTimeout:
 647              	.LFB234:
 648              		.loc 1 331 0
 649              		.cfi_startproc
 650              		@ args = 0, pretend = 0, frame = 0
 651              		@ frame_needed = 0, uses_anonymous_args = 0
 652              	.LVL51:
 653 0000 F8B5     		push	{r3, r4, r5, r6, r7, lr}
 654              		.cfi_def_cfa_offset 24
 655              		.cfi_offset 3, -24
 656              		.cfi_offset 4, -20
 657              		.cfi_offset 5, -16
 658              		.cfi_offset 6, -12
 659              		.cfi_offset 7, -8
 660              		.cfi_offset 14, -4
 661              		.loc 1 331 0
 662 0002 0446     		mov	r4, r0
 663 0004 0F46     		mov	r7, r1
 664 0006 1646     		mov	r6, r2
 665              	.LBB167:
 666              	.LBB168:
 667              	.LBB169:
 668              	.LBB170:
 669              		.loc 4 546 0
 670 0008 2023     		movs	r3, #32
 671              		.syntax unified
 672              	@ 546 "/home/selim/working/ChibiOS/os/ext/CMSIS/include/core_cmFunc.h" 1
 673 000a 83F31188 		MSR basepri, r3
 674              	@ 0 "" 2
 675              	.LVL52:
 676              		.thumb
 677              		.syntax unified
 678 000e 03E0     		b	.L46
 679              	.LVL53:
 680              	.L48:
 681              	.LBE170:
 682              	.LBE169:
 683              	.LBE168:
 684              	.LBE167:
ARM GAS  /tmp/ccEPKsUv.s 			page 13


 685              	.LBB171:
 686              		.loc 1 335 0
 687 0010 FFF7FEFF 		bl	chThdEnqueueTimeoutS
 688              	.LVL54:
 689              		.loc 1 336 0
 690 0014 0028     		cmp	r0, #0
 691 0016 18DB     		blt	.L56
 692              	.LVL55:
 693              	.L46:
 694 0018 A568     		ldr	r5, [r4, #8]
 695              	.LVL56:
 696              		.loc 1 335 0
 697 001a 3146     		mov	r1, r6
 698 001c 2046     		mov	r0, r4
 699              	.LBE171:
 700              		.loc 1 334 0
 701 001e 002D     		cmp	r5, #0
 702 0020 F6D0     		beq	.L48
 703              	.LVL57:
 704              		.loc 1 343 0
 705 0022 6369     		ldr	r3, [r4, #20]
 706              		.loc 1 342 0
 707 0024 013D     		subs	r5, r5, #1
 708              		.loc 1 343 0
 709 0026 5A1C     		adds	r2, r3, #1
 710 0028 6261     		str	r2, [r4, #20]
 711              		.loc 1 342 0
 712 002a A560     		str	r5, [r4, #8]
 713              		.loc 1 343 0
 714 002c 1F70     		strb	r7, [r3]
 715              		.loc 1 344 0
 716 002e 2369     		ldr	r3, [r4, #16]
 717 0030 6269     		ldr	r2, [r4, #20]
 718 0032 9A42     		cmp	r2, r3
 719              		.loc 1 345 0
 720 0034 24BF     		itt	cs
 721 0036 E368     		ldrcs	r3, [r4, #12]
 722 0038 6361     		strcs	r3, [r4, #20]
 723              		.loc 1 348 0
 724 003a E369     		ldr	r3, [r4, #28]
 725 003c 0BB1     		cbz	r3, .L50
 726              		.loc 1 349 0
 727 003e 2046     		mov	r0, r4
 728              	.LVL58:
 729 0040 9847     		blx	r3
 730              	.LVL59:
 731              	.L50:
 732              	.LBB177:
 733              	.LBB178:
 734              	.LBB179:
 735              	.LBB180:
 736              	.LBB181:
 737              		.loc 4 546 0
 738 0042 0020     		movs	r0, #0
 739              		.syntax unified
 740              	@ 546 "/home/selim/working/ChibiOS/os/ext/CMSIS/include/core_cmFunc.h" 1
 741 0044 80F31188 		MSR basepri, r0
ARM GAS  /tmp/ccEPKsUv.s 			page 14


 742              	@ 0 "" 2
 743              	.LVL60:
 744              		.thumb
 745              		.syntax unified
 746              	.LBE181:
 747              	.LBE180:
 748              	.LBE179:
 749              	.LBE178:
 750              	.LBE177:
 751              		.loc 1 354 0
 752 0048 F8BD     		pop	{r3, r4, r5, r6, r7, pc}
 753              	.LVL61:
 754              	.L56:
 755              	.LBB182:
 756              	.LBB172:
 757              	.LBB173:
 758              	.LBB174:
 759              	.LBB175:
 760              	.LBB176:
 761              		.loc 4 546 0
 762              		.syntax unified
 763              	@ 546 "/home/selim/working/ChibiOS/os/ext/CMSIS/include/core_cmFunc.h" 1
 764 004a 85F31188 		MSR basepri, r5
 765              	@ 0 "" 2
 766              	.LVL62:
 767              		.thumb
 768              		.syntax unified
 769              	.LBE176:
 770              	.LBE175:
 771              	.LBE174:
 772              	.LBE173:
 773              	.LBE172:
 774              		.loc 1 338 0
 775 004e F8BD     		pop	{r3, r4, r5, r6, r7, pc}
 776              	.LBE182:
 777              		.cfi_endproc
 778              	.LFE234:
 779              		.size	chOQPutTimeout, .-chOQPutTimeout
 780              		.section	.text.chOQGetI,"ax",%progbits
 781              		.align	2
 782              		.p2align 4,,15
 783              		.global	chOQGetI
 784              		.thumb
 785              		.thumb_func
 786              		.type	chOQGetI, %function
 787              	chOQGetI:
 788              	.LFB235:
 789              		.loc 1 366 0
 790              		.cfi_startproc
 791              		@ args = 0, pretend = 0, frame = 0
 792              		@ frame_needed = 0, uses_anonymous_args = 0
 793              	.LVL63:
 794 0000 38B5     		push	{r3, r4, r5, lr}
 795              		.cfi_def_cfa_offset 16
 796              		.cfi_offset 3, -16
 797              		.cfi_offset 4, -12
 798              		.cfi_offset 5, -8
ARM GAS  /tmp/ccEPKsUv.s 			page 15


 799              		.cfi_offset 14, -4
 800              	.LBB183:
 801              	.LBB184:
 802              		.loc 3 390 0
 803 0002 8269     		ldr	r2, [r0, #24]
 804 0004 4369     		ldr	r3, [r0, #20]
 805 0006 9342     		cmp	r3, r2
 806 0008 8368     		ldr	r3, [r0, #8]
 807 000a 0ED0     		beq	.L66
 808              	.L60:
 809              	.LVL64:
 810              	.LBE184:
 811              	.LBE183:
 812              		.loc 1 377 0
 813 000c 0569     		ldr	r5, [r0, #16]
 814              		.loc 1 376 0
 815 000e 511C     		adds	r1, r2, #1
 816              		.loc 1 375 0
 817 0010 0133     		adds	r3, r3, #1
 818 0012 8360     		str	r3, [r0, #8]
 819              		.loc 1 376 0
 820 0014 8161     		str	r1, [r0, #24]
 821              		.loc 1 377 0
 822 0016 A942     		cmp	r1, r5
 823              		.loc 1 376 0
 824 0018 1478     		ldrb	r4, [r2]	@ zero_extendqisi2
 825              	.LVL65:
 826              		.loc 1 377 0
 827 001a 01D3     		bcc	.L62
 828              		.loc 1 378 0
 829 001c C368     		ldr	r3, [r0, #12]
 830 001e 8361     		str	r3, [r0, #24]
 831              	.L62:
 832              		.loc 1 381 0
 833 0020 0021     		movs	r1, #0
 834 0022 FFF7FEFF 		bl	chThdDequeueNextI
 835              	.LVL66:
 836              		.loc 1 383 0
 837 0026 2046     		mov	r0, r4
 838 0028 38BD     		pop	{r3, r4, r5, pc}
 839              	.LVL67:
 840              	.L66:
 841              	.LBB186:
 842              	.LBB185:
 843              		.loc 3 390 0
 844 002a 002B     		cmp	r3, #0
 845 002c EED0     		beq	.L60
 846              	.LBE185:
 847              	.LBE186:
 848              		.loc 1 372 0
 849 002e 6FF00200 		mvn	r0, #2
 850              	.LVL68:
 851 0032 38BD     		pop	{r3, r4, r5, pc}
 852              		.cfi_endproc
 853              	.LFE235:
 854              		.size	chOQGetI, .-chOQGetI
 855              		.section	.text.chOQWriteTimeout,"ax",%progbits
ARM GAS  /tmp/ccEPKsUv.s 			page 16


 856              		.align	2
 857              		.p2align 4,,15
 858              		.global	chOQWriteTimeout
 859              		.thumb
 860              		.thumb_func
 861              		.type	chOQWriteTimeout, %function
 862              	chOQWriteTimeout:
 863              	.LFB236:
 864              		.loc 1 411 0
 865              		.cfi_startproc
 866              		@ args = 0, pretend = 0, frame = 8
 867              		@ frame_needed = 0, uses_anonymous_args = 0
 868              	.LVL69:
 869 0000 2DE9F04F 		push	{r4, r5, r6, r7, r8, r9, r10, fp, lr}
 870              		.cfi_def_cfa_offset 36
 871              		.cfi_offset 4, -36
 872              		.cfi_offset 5, -32
 873              		.cfi_offset 6, -28
 874              		.cfi_offset 7, -24
 875              		.cfi_offset 8, -20
 876              		.cfi_offset 9, -16
 877              		.cfi_offset 10, -12
 878              		.cfi_offset 11, -8
 879              		.cfi_offset 14, -4
 880 0004 83B0     		sub	sp, sp, #12
 881              		.cfi_def_cfa_offset 48
 882              		.loc 1 411 0
 883 0006 0446     		mov	r4, r0
 884 0008 0D46     		mov	r5, r1
 885 000a 1646     		mov	r6, r2
 886 000c 0193     		str	r3, [sp, #4]
 887              		.loc 1 412 0
 888 000e D0F81C80 		ldr	r8, [r0, #28]
 889              	.LVL70:
 890              	.LBB187:
 891              	.LBB188:
 892              	.LBB189:
 893              	.LBB190:
 894              		.loc 4 546 0
 895 0012 4FF02009 		mov	r9, #32
 896              		.syntax unified
 897              	@ 546 "/home/selim/working/ChibiOS/os/ext/CMSIS/include/core_cmFunc.h" 1
 898 0016 89F31188 		MSR basepri, r9
 899              	@ 0 "" 2
 900              	.LVL71:
 901              		.thumb
 902              		.syntax unified
 903              	.LBE190:
 904              	.LBE189:
 905              	.LBE188:
 906              	.LBE187:
 907              		.loc 1 413 0
 908 001a 0027     		movs	r7, #0
 909              	.LBB191:
 910              	.LBB192:
 911              	.LBB193:
 912              	.LBB194:
ARM GAS  /tmp/ccEPKsUv.s 			page 17


 913              	.LBB195:
 914              		.loc 4 546 0
 915 001c BA46     		mov	r10, r7
 916              	.LVL72:
 917              	.L68:
 918 001e A368     		ldr	r3, [r4, #8]
 919              	.LVL73:
 920              	.LBE195:
 921              	.LBE194:
 922              	.LBE193:
 923              	.LBE192:
 924              	.LBE191:
 925              		.loc 1 427 0
 926 0020 05F1010B 		add	fp, r5, #1
 927              	.LVL74:
 928              		.loc 1 426 0
 929 0024 591E     		subs	r1, r3, #1
 930              		.loc 1 433 0
 931 0026 2046     		mov	r0, r4
 932              		.loc 1 419 0
 933 0028 FBB1     		cbz	r3, .L71
 934              	.LVL75:
 935              	.L84:
 936              		.loc 1 427 0
 937 002a 6369     		ldr	r3, [r4, #20]
 938              		.loc 1 426 0
 939 002c A160     		str	r1, [r4, #8]
 940              		.loc 1 427 0
 941 002e 591C     		adds	r1, r3, #1
 942 0030 6161     		str	r1, [r4, #20]
 943 0032 2978     		ldrb	r1, [r5]	@ zero_extendqisi2
 944 0034 1970     		strb	r1, [r3]
 945              		.loc 1 428 0
 946 0036 2369     		ldr	r3, [r4, #16]
 947 0038 6169     		ldr	r1, [r4, #20]
 948 003a 9942     		cmp	r1, r3
 949              		.loc 1 429 0
 950 003c 24BF     		itt	cs
 951 003e E368     		ldrcs	r3, [r4, #12]
 952 0040 6361     		strcs	r3, [r4, #20]
 953              		.loc 1 432 0
 954 0042 B8F1000F 		cmp	r8, #0
 955 0046 00D0     		beq	.L73
 956              		.loc 1 433 0
 957 0048 C047     		blx	r8
 958              	.LVL76:
 959              	.L73:
 960              	.LBB200:
 961              	.LBB199:
 962              	.LBB198:
 963              	.LBB197:
 964              	.LBB196:
 965              		.loc 4 546 0
 966              		.syntax unified
 967              	@ 546 "/home/selim/working/ChibiOS/os/ext/CMSIS/include/core_cmFunc.h" 1
 968 004a 8AF31188 		MSR basepri, r10
 969              	@ 0 "" 2
ARM GAS  /tmp/ccEPKsUv.s 			page 18


 970              	.LVL77:
 971              		.thumb
 972              		.syntax unified
 973              	.LBE196:
 974              	.LBE197:
 975              	.LBE198:
 976              	.LBE199:
 977              	.LBE200:
 978              		.loc 1 438 0
 979 004e 013E     		subs	r6, r6, #1
 980              	.LVL78:
 981              		.loc 1 437 0
 982 0050 07F10107 		add	r7, r7, #1
 983              	.LVL79:
 984              		.loc 1 438 0
 985 0054 13D0     		beq	.L70
 986              	.LBB201:
 987              	.LBB202:
 988              	.LBB203:
 989              	.LBB204:
 990              		.loc 4 546 0
 991              		.syntax unified
 992              	@ 546 "/home/selim/working/ChibiOS/os/ext/CMSIS/include/core_cmFunc.h" 1
 993 0056 89F31188 		MSR basepri, r9
 994              	@ 0 "" 2
 995              	.LVL80:
 996              		.thumb
 997              		.syntax unified
 998 005a A368     		ldr	r3, [r4, #8]
 999              	.LBE204:
 1000              	.LBE203:
 1001              	.LBE202:
 1002              	.LBE201:
 1003              		.loc 1 427 0
 1004 005c 5D46     		mov	r5, fp
 1005              	.LVL81:
 1006              		.loc 1 426 0
 1007 005e 591E     		subs	r1, r3, #1
 1008              		.loc 1 427 0
 1009 0060 05F1010B 		add	fp, r5, #1
 1010              	.LVL82:
 1011              		.loc 1 433 0
 1012 0064 2046     		mov	r0, r4
 1013              		.loc 1 419 0
 1014 0066 002B     		cmp	r3, #0
 1015 0068 DFD1     		bne	.L84
 1016              	.LVL83:
 1017              	.L71:
 1018              		.loc 1 420 0
 1019 006a 0199     		ldr	r1, [sp, #4]
 1020 006c 0093     		str	r3, [sp]
 1021 006e 2046     		mov	r0, r4
 1022              	.LVL84:
 1023 0070 FFF7FEFF 		bl	chThdEnqueueTimeoutS
 1024              	.LVL85:
 1025 0074 009B     		ldr	r3, [sp]
 1026 0076 0028     		cmp	r0, #0
ARM GAS  /tmp/ccEPKsUv.s 			page 19


 1027 0078 D1D0     		beq	.L68
 1028              	.LVL86:
 1029              	.LBB205:
 1030              	.LBB206:
 1031              	.LBB207:
 1032              	.LBB208:
 1033              	.LBB209:
 1034              		.loc 4 546 0
 1035              		.syntax unified
 1036              	@ 546 "/home/selim/working/ChibiOS/os/ext/CMSIS/include/core_cmFunc.h" 1
 1037 007a 83F31188 		MSR basepri, r3
 1038              	@ 0 "" 2
 1039              	.LVL87:
 1040              		.thumb
 1041              		.syntax unified
 1042              	.L70:
 1043              	.LBE209:
 1044              	.LBE208:
 1045              	.LBE207:
 1046              	.LBE206:
 1047              	.LBE205:
 1048              		.loc 1 443 0
 1049 007e 3846     		mov	r0, r7
 1050 0080 03B0     		add	sp, sp, #12
 1051              		.cfi_def_cfa_offset 36
 1052              		@ sp needed
 1053 0082 BDE8F08F 		pop	{r4, r5, r6, r7, r8, r9, r10, fp, pc}
 1054              		.cfi_endproc
 1055              	.LFE236:
 1056              		.size	chOQWriteTimeout, .-chOQWriteTimeout
 1057              		.text
 1058              	.Letext0:
 1059              		.file 5 "/usr/lib/gcc/arm-none-eabi/5.3.1/include/stddef.h"
 1060              		.file 6 "/usr/arm-none-eabi/include/machine/_default_types.h"
 1061              		.file 7 "/usr/arm-none-eabi/include/sys/_stdint.h"
 1062              		.file 8 "/home/selim/working/ChibiOS/os/rt/ports/ARMCMx/compilers/GCC/chtypes.h"
 1063              		.file 9 "/home/selim/working/ChibiOS/os/rt/include/chsystypes.h"
 1064              		.file 10 "/home/selim/working/ChibiOS/os/rt/ports/ARMCMx/chcore.h"
 1065              		.file 11 "/home/selim/working/ChibiOS/os/rt/ports/ARMCMx/chcore_v7m.h"
 1066              		.file 12 "/home/selim/working/ChibiOS/os/rt/include/chtm.h"
 1067              		.file 13 "/home/selim/working/ChibiOS/os/rt/include/chsem.h"
 1068              		.file 14 "/home/selim/working/ChibiOS/os/rt/include/chmtx.h"
 1069              		.file 15 "/home/selim/working/ChibiOS/os/rt/include/chthreads.h"
 1070              		.file 16 "/home/selim/working/ChibiOS/os/rt/include/chsys.h"
 1071              		.file 17 "/home/selim/working/ChibiOS/os/ext/CMSIS/include/core_cm4.h"
 1072              		.section	.debug_info,"",%progbits
 1073              	.Ldebug_info0:
 1074 0000 CB100000 		.4byte	0x10cb
 1075 0004 0400     		.2byte	0x4
 1076 0006 00000000 		.4byte	.Ldebug_abbrev0
 1077 000a 04       		.byte	0x4
 1078 000b 01       		.uleb128 0x1
 1079 000c 54040000 		.4byte	.LASF149
 1080 0010 0C       		.byte	0xc
 1081 0011 77020000 		.4byte	.LASF150
 1082 0015 C8000000 		.4byte	.Ldebug_ranges0+0xc8
 1083 0019 00000000 		.4byte	0
ARM GAS  /tmp/ccEPKsUv.s 			page 20


 1084 001d 00000000 		.4byte	.Ldebug_line0
 1085 0021 02       		.uleb128 0x2
 1086 0022 04       		.byte	0x4
 1087 0023 05       		.byte	0x5
 1088 0024 696E7400 		.ascii	"int\000"
 1089 0028 03       		.uleb128 0x3
 1090 0029 21000000 		.4byte	.LASF4
 1091 002d 05       		.byte	0x5
 1092 002e D8       		.byte	0xd8
 1093 002f 33000000 		.4byte	0x33
 1094 0033 04       		.uleb128 0x4
 1095 0034 04       		.byte	0x4
 1096 0035 07       		.byte	0x7
 1097 0036 1A020000 		.4byte	.LASF0
 1098 003a 04       		.uleb128 0x4
 1099 003b 08       		.byte	0x8
 1100 003c 05       		.byte	0x5
 1101 003d 1D010000 		.4byte	.LASF1
 1102 0041 04       		.uleb128 0x4
 1103 0042 08       		.byte	0x8
 1104 0043 04       		.byte	0x4
 1105 0044 5E030000 		.4byte	.LASF2
 1106 0048 04       		.uleb128 0x4
 1107 0049 01       		.byte	0x1
 1108 004a 06       		.byte	0x6
 1109 004b 2B010000 		.4byte	.LASF3
 1110 004f 03       		.uleb128 0x3
 1111 0050 49000000 		.4byte	.LASF5
 1112 0054 06       		.byte	0x6
 1113 0055 1D       		.byte	0x1d
 1114 0056 5A000000 		.4byte	0x5a
 1115 005a 04       		.uleb128 0x4
 1116 005b 01       		.byte	0x1
 1117 005c 08       		.byte	0x8
 1118 005d 15040000 		.4byte	.LASF6
 1119 0061 04       		.uleb128 0x4
 1120 0062 02       		.byte	0x2
 1121 0063 05       		.byte	0x5
 1122 0064 43040000 		.4byte	.LASF7
 1123 0068 04       		.uleb128 0x4
 1124 0069 02       		.byte	0x2
 1125 006a 07       		.byte	0x7
 1126 006b 64020000 		.4byte	.LASF8
 1127 006f 03       		.uleb128 0x3
 1128 0070 DC020000 		.4byte	.LASF9
 1129 0074 06       		.byte	0x6
 1130 0075 3F       		.byte	0x3f
 1131 0076 7A000000 		.4byte	0x7a
 1132 007a 04       		.uleb128 0x4
 1133 007b 04       		.byte	0x4
 1134 007c 05       		.byte	0x5
 1135 007d 79010000 		.4byte	.LASF10
 1136 0081 03       		.uleb128 0x3
 1137 0082 17060000 		.4byte	.LASF11
 1138 0086 06       		.byte	0x6
 1139 0087 41       		.byte	0x41
 1140 0088 8C000000 		.4byte	0x8c
ARM GAS  /tmp/ccEPKsUv.s 			page 21


 1141 008c 04       		.uleb128 0x4
 1142 008d 04       		.byte	0x4
 1143 008e 07       		.byte	0x7
 1144 008f D2050000 		.4byte	.LASF12
 1145 0093 03       		.uleb128 0x3
 1146 0094 A7030000 		.4byte	.LASF13
 1147 0098 06       		.byte	0x6
 1148 0099 5B       		.byte	0x5b
 1149 009a 9E000000 		.4byte	0x9e
 1150 009e 04       		.uleb128 0x4
 1151 009f 08       		.byte	0x8
 1152 00a0 07       		.byte	0x7
 1153 00a1 A2000000 		.4byte	.LASF14
 1154 00a5 03       		.uleb128 0x3
 1155 00a6 A4060000 		.4byte	.LASF15
 1156 00aa 07       		.byte	0x7
 1157 00ab 14       		.byte	0x14
 1158 00ac 4F000000 		.4byte	0x4f
 1159 00b0 03       		.uleb128 0x3
 1160 00b1 0D040000 		.4byte	.LASF16
 1161 00b5 07       		.byte	0x7
 1162 00b6 1F       		.byte	0x1f
 1163 00b7 6F000000 		.4byte	0x6f
 1164 00bb 03       		.uleb128 0x3
 1165 00bc A1050000 		.4byte	.LASF17
 1166 00c0 07       		.byte	0x7
 1167 00c1 20       		.byte	0x20
 1168 00c2 81000000 		.4byte	0x81
 1169 00c6 03       		.uleb128 0x3
 1170 00c7 2F000000 		.4byte	.LASF18
 1171 00cb 07       		.byte	0x7
 1172 00cc 26       		.byte	0x26
 1173 00cd 93000000 		.4byte	0x93
 1174 00d1 05       		.uleb128 0x5
 1175 00d2 B0000000 		.4byte	0xb0
 1176 00d6 03       		.uleb128 0x3
 1177 00d7 54060000 		.4byte	.LASF19
 1178 00db 08       		.byte	0x8
 1179 00dc 46       		.byte	0x46
 1180 00dd BB000000 		.4byte	0xbb
 1181 00e1 03       		.uleb128 0x3
 1182 00e2 BA020000 		.4byte	.LASF20
 1183 00e6 08       		.byte	0x8
 1184 00e7 49       		.byte	0x49
 1185 00e8 A5000000 		.4byte	0xa5
 1186 00ec 03       		.uleb128 0x3
 1187 00ed 82010000 		.4byte	.LASF21
 1188 00f1 08       		.byte	0x8
 1189 00f2 4A       		.byte	0x4a
 1190 00f3 A5000000 		.4byte	0xa5
 1191 00f7 03       		.uleb128 0x3
 1192 00f8 B2030000 		.4byte	.LASF22
 1193 00fc 08       		.byte	0x8
 1194 00fd 4B       		.byte	0x4b
 1195 00fe A5000000 		.4byte	0xa5
 1196 0102 03       		.uleb128 0x3
 1197 0103 E7030000 		.4byte	.LASF23
ARM GAS  /tmp/ccEPKsUv.s 			page 22


 1198 0107 08       		.byte	0x8
 1199 0108 4D       		.byte	0x4d
 1200 0109 BB000000 		.4byte	0xbb
 1201 010d 03       		.uleb128 0x3
 1202 010e A8020000 		.4byte	.LASF24
 1203 0112 08       		.byte	0x8
 1204 0113 4E       		.byte	0x4e
 1205 0114 B0000000 		.4byte	0xb0
 1206 0118 03       		.uleb128 0x3
 1207 0119 D0020000 		.4byte	.LASF25
 1208 011d 08       		.byte	0x8
 1209 011e 50       		.byte	0x50
 1210 011f BB000000 		.4byte	0xbb
 1211 0123 03       		.uleb128 0x3
 1212 0124 14020000 		.4byte	.LASF26
 1213 0128 08       		.byte	0x8
 1214 0129 52       		.byte	0x52
 1215 012a B0000000 		.4byte	0xb0
 1216 012e 03       		.uleb128 0x3
 1217 012f F9050000 		.4byte	.LASF27
 1218 0133 09       		.byte	0x9
 1219 0134 33       		.byte	0x33
 1220 0135 BB000000 		.4byte	0xbb
 1221 0139 03       		.uleb128 0x3
 1222 013a E9050000 		.4byte	.LASF28
 1223 013e 09       		.byte	0x9
 1224 013f 3F       		.byte	0x3f
 1225 0140 44010000 		.4byte	0x144
 1226 0144 06       		.uleb128 0x6
 1227 0145 54020000 		.4byte	.LASF48
 1228 0149 44       		.byte	0x44
 1229 014a 02       		.byte	0x2
 1230 014b C2       		.byte	0xc2
 1231 014c 31020000 		.4byte	0x231
 1232 0150 07       		.uleb128 0x7
 1233 0151 35050000 		.4byte	.LASF29
 1234 0155 02       		.byte	0x2
 1235 0156 C3       		.byte	0xc3
 1236 0157 3C020000 		.4byte	0x23c
 1237 015b 00       		.byte	0
 1238 015c 07       		.uleb128 0x7
 1239 015d D4030000 		.4byte	.LASF30
 1240 0161 02       		.byte	0x2
 1241 0162 C5       		.byte	0xc5
 1242 0163 3C020000 		.4byte	0x23c
 1243 0167 04       		.byte	0x4
 1244 0168 07       		.uleb128 0x7
 1245 0169 0C010000 		.4byte	.LASF31
 1246 016d 02       		.byte	0x2
 1247 016e C7       		.byte	0xc7
 1248 016f 02010000 		.4byte	0x102
 1249 0173 08       		.byte	0x8
 1250 0174 07       		.uleb128 0x7
 1251 0175 FC060000 		.4byte	.LASF32
 1252 0179 02       		.byte	0x2
 1253 017a C8       		.byte	0xc8
 1254 017b 6C040000 		.4byte	0x46c
ARM GAS  /tmp/ccEPKsUv.s 			page 23


 1255 017f 0C       		.byte	0xc
 1256 0180 07       		.uleb128 0x7
 1257 0181 B7010000 		.4byte	.LASF33
 1258 0185 02       		.byte	0x2
 1259 0186 CA       		.byte	0xca
 1260 0187 3C020000 		.4byte	0x23c
 1261 018b 10       		.byte	0x10
 1262 018c 07       		.uleb128 0x7
 1263 018d 76030000 		.4byte	.LASF34
 1264 0191 02       		.byte	0x2
 1265 0192 CB       		.byte	0xcb
 1266 0193 3C020000 		.4byte	0x23c
 1267 0197 14       		.byte	0x14
 1268 0198 07       		.uleb128 0x7
 1269 0199 B3060000 		.4byte	.LASF35
 1270 019d 02       		.byte	0x2
 1271 019e D2       		.byte	0xd2
 1272 019f EB050000 		.4byte	0x5eb
 1273 01a3 18       		.byte	0x18
 1274 01a4 07       		.uleb128 0x7
 1275 01a5 31040000 		.4byte	.LASF36
 1276 01a9 02       		.byte	0x2
 1277 01aa DD       		.byte	0xdd
 1278 01ab EC000000 		.4byte	0xec
 1279 01af 1C       		.byte	0x1c
 1280 01b0 07       		.uleb128 0x7
 1281 01b1 41050000 		.4byte	.LASF37
 1282 01b5 02       		.byte	0x2
 1283 01b6 E1       		.byte	0xe1
 1284 01b7 E1000000 		.4byte	0xe1
 1285 01bb 1D       		.byte	0x1d
 1286 01bc 07       		.uleb128 0x7
 1287 01bd 81060000 		.4byte	.LASF38
 1288 01c1 02       		.byte	0x2
 1289 01c2 E6       		.byte	0xe6
 1290 01c3 F7000000 		.4byte	0xf7
 1291 01c7 1E       		.byte	0x1e
 1292 01c8 08       		.uleb128 0x8
 1293 01c9 705F7500 		.ascii	"p_u\000"
 1294 01cd 02       		.byte	0x2
 1295 01ce 3101     		.2byte	0x131
 1296 01d0 26050000 		.4byte	0x526
 1297 01d4 20       		.byte	0x20
 1298 01d5 09       		.uleb128 0x9
 1299 01d6 17030000 		.4byte	.LASF39
 1300 01da 02       		.byte	0x2
 1301 01db 3601     		.2byte	0x136
 1302 01dd 42020000 		.4byte	0x242
 1303 01e1 24       		.byte	0x24
 1304 01e2 09       		.uleb128 0x9
 1305 01e3 41020000 		.4byte	.LASF40
 1306 01e7 02       		.byte	0x2
 1307 01e8 3C01     		.2byte	0x13c
 1308 01ea 66020000 		.4byte	0x266
 1309 01ee 28       		.byte	0x28
 1310 01ef 09       		.uleb128 0x9
 1311 01f0 E7060000 		.4byte	.LASF41
ARM GAS  /tmp/ccEPKsUv.s 			page 24


 1312 01f4 02       		.byte	0x2
 1313 01f5 4001     		.2byte	0x140
 1314 01f7 0D010000 		.4byte	0x10d
 1315 01fb 30       		.byte	0x30
 1316 01fc 09       		.uleb128 0x9
 1317 01fd 8A050000 		.4byte	.LASF42
 1318 0201 02       		.byte	0x2
 1319 0202 4601     		.2byte	0x146
 1320 0204 18010000 		.4byte	0x118
 1321 0208 34       		.byte	0x34
 1322 0209 09       		.uleb128 0x9
 1323 020a 39040000 		.4byte	.LASF43
 1324 020e 02       		.byte	0x2
 1325 020f 4D01     		.2byte	0x14d
 1326 0211 E5050000 		.4byte	0x5e5
 1327 0215 38       		.byte	0x38
 1328 0216 09       		.uleb128 0x9
 1329 0217 03060000 		.4byte	.LASF44
 1330 021b 02       		.byte	0x2
 1331 021c 5101     		.2byte	0x151
 1332 021e 02010000 		.4byte	0x102
 1333 0222 3C       		.byte	0x3c
 1334 0223 09       		.uleb128 0x9
 1335 0224 37010000 		.4byte	.LASF45
 1336 0228 02       		.byte	0x2
 1337 0229 5801     		.2byte	0x158
 1338 022b 19030000 		.4byte	0x319
 1339 022f 40       		.byte	0x40
 1340 0230 00       		.byte	0
 1341 0231 03       		.uleb128 0x3
 1342 0232 2A030000 		.4byte	.LASF46
 1343 0236 09       		.byte	0x9
 1344 0237 44       		.byte	0x44
 1345 0238 3C020000 		.4byte	0x23c
 1346 023c 0A       		.uleb128 0xa
 1347 023d 04       		.byte	0x4
 1348 023e 39010000 		.4byte	0x139
 1349 0242 03       		.uleb128 0x3
 1350 0243 CC060000 		.4byte	.LASF47
 1351 0247 09       		.byte	0x9
 1352 0248 49       		.byte	0x49
 1353 0249 4D020000 		.4byte	0x24d
 1354 024d 06       		.uleb128 0x6
 1355 024e C2050000 		.4byte	.LASF49
 1356 0252 04       		.byte	0x4
 1357 0253 02       		.byte	0x2
 1358 0254 B0       		.byte	0xb0
 1359 0255 66020000 		.4byte	0x266
 1360 0259 07       		.uleb128 0x7
 1361 025a 35050000 		.4byte	.LASF29
 1362 025e 02       		.byte	0x2
 1363 025f B1       		.byte	0xb1
 1364 0260 3C020000 		.4byte	0x23c
 1365 0264 00       		.byte	0
 1366 0265 00       		.byte	0
 1367 0266 03       		.uleb128 0x3
 1368 0267 5C050000 		.4byte	.LASF50
ARM GAS  /tmp/ccEPKsUv.s 			page 25


 1369 026b 09       		.byte	0x9
 1370 026c 50       		.byte	0x50
 1371 026d 71020000 		.4byte	0x271
 1372 0271 06       		.uleb128 0x6
 1373 0272 FB000000 		.4byte	.LASF51
 1374 0276 08       		.byte	0x8
 1375 0277 02       		.byte	0x2
 1376 0278 B7       		.byte	0xb7
 1377 0279 96020000 		.4byte	0x296
 1378 027d 07       		.uleb128 0x7
 1379 027e 35050000 		.4byte	.LASF29
 1380 0282 02       		.byte	0x2
 1381 0283 B8       		.byte	0xb8
 1382 0284 3C020000 		.4byte	0x23c
 1383 0288 00       		.byte	0
 1384 0289 07       		.uleb128 0x7
 1385 028a D4030000 		.4byte	.LASF30
 1386 028e 02       		.byte	0x2
 1387 028f B9       		.byte	0xb9
 1388 0290 3C020000 		.4byte	0x23c
 1389 0294 04       		.byte	0x4
 1390 0295 00       		.byte	0
 1391 0296 03       		.uleb128 0x3
 1392 0297 0F000000 		.4byte	.LASF52
 1393 029b 09       		.byte	0x9
 1394 029c 57       		.byte	0x57
 1395 029d A1020000 		.4byte	0x2a1
 1396 02a1 0B       		.uleb128 0xb
 1397 02a2 C2020000 		.4byte	.LASF53
 1398 02a6 1C       		.byte	0x1c
 1399 02a7 02       		.byte	0x2
 1400 02a8 9001     		.2byte	0x190
 1401 02aa FD020000 		.4byte	0x2fd
 1402 02ae 09       		.uleb128 0x9
 1403 02af B1050000 		.4byte	.LASF54
 1404 02b3 02       		.byte	0x2
 1405 02b4 9101     		.2byte	0x191
 1406 02b6 66020000 		.4byte	0x266
 1407 02ba 00       		.byte	0
 1408 02bb 09       		.uleb128 0x9
 1409 02bc 4D040000 		.4byte	.LASF55
 1410 02c0 02       		.byte	0x2
 1411 02c1 9201     		.2byte	0x192
 1412 02c3 02010000 		.4byte	0x102
 1413 02c7 08       		.byte	0x8
 1414 02c8 09       		.uleb128 0x9
 1415 02c9 7E030000 		.4byte	.LASF56
 1416 02cd 02       		.byte	0x2
 1417 02ce 9401     		.2byte	0x194
 1418 02d0 6C040000 		.4byte	0x46c
 1419 02d4 0C       		.byte	0xc
 1420 02d5 09       		.uleb128 0x9
 1421 02d6 C7010000 		.4byte	.LASF57
 1422 02da 02       		.byte	0x2
 1423 02db 9701     		.2byte	0x197
 1424 02dd 3C020000 		.4byte	0x23c
 1425 02e1 10       		.byte	0x10
ARM GAS  /tmp/ccEPKsUv.s 			page 26


 1426 02e2 09       		.uleb128 0x9
 1427 02e3 9F030000 		.4byte	.LASF58
 1428 02e7 02       		.byte	0x2
 1429 02e8 9801     		.2byte	0x198
 1430 02ea 3C020000 		.4byte	0x23c
 1431 02ee 14       		.byte	0x14
 1432 02ef 09       		.uleb128 0x9
 1433 02f0 95030000 		.4byte	.LASF59
 1434 02f4 02       		.byte	0x2
 1435 02f5 9B01     		.2byte	0x19b
 1436 02f7 3C020000 		.4byte	0x23c
 1437 02fb 18       		.byte	0x18
 1438 02fc 00       		.byte	0
 1439 02fd 03       		.uleb128 0x3
 1440 02fe 0E060000 		.4byte	.LASF60
 1441 0302 09       		.byte	0x9
 1442 0303 5C       		.byte	0x5c
 1443 0304 08030000 		.4byte	0x308
 1444 0308 0A       		.uleb128 0xa
 1445 0309 04       		.byte	0x4
 1446 030a 0E030000 		.4byte	0x30e
 1447 030e 0C       		.uleb128 0xc
 1448 030f 19030000 		.4byte	0x319
 1449 0313 0D       		.uleb128 0xd
 1450 0314 19030000 		.4byte	0x319
 1451 0318 00       		.byte	0
 1452 0319 0E       		.uleb128 0xe
 1453 031a 04       		.byte	0x4
 1454 031b 03       		.uleb128 0x3
 1455 031c C4030000 		.4byte	.LASF61
 1456 0320 09       		.byte	0x9
 1457 0321 61       		.byte	0x61
 1458 0322 26030000 		.4byte	0x326
 1459 0326 0B       		.uleb128 0xb
 1460 0327 6C050000 		.4byte	.LASF62
 1461 032b 14       		.byte	0x14
 1462 032c 02       		.byte	0x2
 1463 032d 6B01     		.2byte	0x16b
 1464 032f 75030000 		.4byte	0x375
 1465 0333 09       		.uleb128 0x9
 1466 0334 27020000 		.4byte	.LASF63
 1467 0338 02       		.byte	0x2
 1468 0339 6C01     		.2byte	0x16c
 1469 033b FD050000 		.4byte	0x5fd
 1470 033f 00       		.byte	0
 1471 0340 09       		.uleb128 0x9
 1472 0341 D8010000 		.4byte	.LASF64
 1473 0345 02       		.byte	0x2
 1474 0346 6D01     		.2byte	0x16d
 1475 0348 FD050000 		.4byte	0x5fd
 1476 034c 04       		.byte	0x4
 1477 034d 09       		.uleb128 0x9
 1478 034e B9050000 		.4byte	.LASF65
 1479 0352 02       		.byte	0x2
 1480 0353 6E01     		.2byte	0x16e
 1481 0355 2E010000 		.4byte	0x12e
 1482 0359 08       		.byte	0x8
ARM GAS  /tmp/ccEPKsUv.s 			page 27


 1483 035a 09       		.uleb128 0x9
 1484 035b 02070000 		.4byte	.LASF66
 1485 035f 02       		.byte	0x2
 1486 0360 6F01     		.2byte	0x16f
 1487 0362 FD020000 		.4byte	0x2fd
 1488 0366 0C       		.byte	0xc
 1489 0367 09       		.uleb128 0x9
 1490 0368 5C060000 		.4byte	.LASF67
 1491 036c 02       		.byte	0x2
 1492 036d 7101     		.2byte	0x171
 1493 036f 19030000 		.4byte	0x319
 1494 0373 10       		.byte	0x10
 1495 0374 00       		.byte	0
 1496 0375 03       		.uleb128 0x3
 1497 0376 CD000000 		.4byte	.LASF68
 1498 037a 09       		.byte	0x9
 1499 037b 66       		.byte	0x66
 1500 037c 80030000 		.4byte	0x380
 1501 0380 0B       		.uleb128 0xb
 1502 0381 3D030000 		.4byte	.LASF69
 1503 0385 10       		.byte	0x10
 1504 0386 02       		.byte	0x2
 1505 0387 7B01     		.2byte	0x17b
 1506 0389 C2030000 		.4byte	0x3c2
 1507 038d 09       		.uleb128 0x9
 1508 038e 27020000 		.4byte	.LASF63
 1509 0392 02       		.byte	0x2
 1510 0393 7C01     		.2byte	0x17c
 1511 0395 FD050000 		.4byte	0x5fd
 1512 0399 00       		.byte	0
 1513 039a 09       		.uleb128 0x9
 1514 039b D8010000 		.4byte	.LASF64
 1515 039f 02       		.byte	0x2
 1516 03a0 7E01     		.2byte	0x17e
 1517 03a2 FD050000 		.4byte	0x5fd
 1518 03a6 04       		.byte	0x4
 1519 03a7 09       		.uleb128 0x9
 1520 03a8 B9050000 		.4byte	.LASF65
 1521 03ac 02       		.byte	0x2
 1522 03ad 8001     		.2byte	0x180
 1523 03af 2E010000 		.4byte	0x12e
 1524 03b3 08       		.byte	0x8
 1525 03b4 09       		.uleb128 0x9
 1526 03b5 6A030000 		.4byte	.LASF70
 1527 03b9 02       		.byte	0x2
 1528 03ba 8801     		.2byte	0x188
 1529 03bc 2E010000 		.4byte	0x12e
 1530 03c0 0C       		.byte	0xc
 1531 03c1 00       		.byte	0
 1532 03c2 03       		.uleb128 0x3
 1533 03c3 5F000000 		.4byte	.LASF71
 1534 03c7 09       		.byte	0x9
 1535 03c8 6B       		.byte	0x6b
 1536 03c9 CD030000 		.4byte	0x3cd
 1537 03cd 0B       		.uleb128 0xb
 1538 03ce F7030000 		.4byte	.LASF72
 1539 03d2 04       		.byte	0x4
ARM GAS  /tmp/ccEPKsUv.s 			page 28


 1540 03d3 02       		.byte	0x2
 1541 03d4 A201     		.2byte	0x1a2
 1542 03d6 E8030000 		.4byte	0x3e8
 1543 03da 09       		.uleb128 0x9
 1544 03db 30060000 		.4byte	.LASF73
 1545 03df 02       		.byte	0x2
 1546 03e0 AA01     		.2byte	0x1aa
 1547 03e2 03060000 		.4byte	0x603
 1548 03e6 00       		.byte	0
 1549 03e7 00       		.byte	0
 1550 03e8 03       		.uleb128 0x3
 1551 03e9 AE020000 		.4byte	.LASF74
 1552 03ed 09       		.byte	0x9
 1553 03ee 70       		.byte	0x70
 1554 03ef F3030000 		.4byte	0x3f3
 1555 03f3 0F       		.uleb128 0xf
 1556 03f4 6F010000 		.4byte	.LASF75
 1557 03f8 5001     		.2byte	0x150
 1558 03fa 02       		.byte	0x2
 1559 03fb C201     		.2byte	0x1c2
 1560 03fd 4F040000 		.4byte	0x44f
 1561 0401 09       		.uleb128 0x9
 1562 0402 9E060000 		.4byte	.LASF76
 1563 0406 02       		.byte	0x2
 1564 0407 C601     		.2byte	0x1c6
 1565 0409 96020000 		.4byte	0x296
 1566 040d 00       		.byte	0
 1567 040e 09       		.uleb128 0x9
 1568 040f 47010000 		.4byte	.LASF77
 1569 0413 02       		.byte	0x2
 1570 0414 CA01     		.2byte	0x1ca
 1571 0416 75030000 		.4byte	0x375
 1572 041a 1C       		.byte	0x1c
 1573 041b 08       		.uleb128 0x8
 1574 041c 64626700 		.ascii	"dbg\000"
 1575 0420 02       		.byte	0x2
 1576 0421 CE01     		.2byte	0x1ce
 1577 0423 C2030000 		.4byte	0x3c2
 1578 0427 2C       		.byte	0x2c
 1579 0428 09       		.uleb128 0x9
 1580 0429 C2000000 		.4byte	.LASF78
 1581 042d 02       		.byte	0x2
 1582 042e D201     		.2byte	0x1d2
 1583 0430 39010000 		.4byte	0x139
 1584 0434 30       		.byte	0x30
 1585 0435 08       		.uleb128 0x8
 1586 0436 746D00   		.ascii	"tm\000"
 1587 0439 02       		.byte	0x2
 1588 043a D701     		.2byte	0x1d7
 1589 043c 1B050000 		.4byte	0x51b
 1590 0440 74       		.byte	0x74
 1591 0441 09       		.uleb128 0x9
 1592 0442 05020000 		.4byte	.LASF79
 1593 0446 02       		.byte	0x2
 1594 0447 E301     		.2byte	0x1e3
 1595 0449 08060000 		.4byte	0x608
 1596 044d 78       		.byte	0x78
ARM GAS  /tmp/ccEPKsUv.s 			page 29


 1597 044e 00       		.byte	0
 1598 044f 04       		.uleb128 0x4
 1599 0450 04       		.byte	0x4
 1600 0451 07       		.byte	0x7
 1601 0452 21030000 		.4byte	.LASF80
 1602 0456 03       		.uleb128 0x3
 1603 0457 CF010000 		.4byte	.LASF81
 1604 045b 0A       		.byte	0xa
 1605 045c 65       		.byte	0x65
 1606 045d 19030000 		.4byte	0x319
 1607 0461 03       		.uleb128 0x3
 1608 0462 E6020000 		.4byte	.LASF82
 1609 0466 0A       		.byte	0xa
 1610 0467 6D       		.byte	0x6d
 1611 0468 C6000000 		.4byte	0xc6
 1612 046c 06       		.uleb128 0x6
 1613 046d 4C060000 		.4byte	.LASF83
 1614 0471 04       		.byte	0x4
 1615 0472 0A       		.byte	0xa
 1616 0473 89       		.byte	0x89
 1617 0474 85040000 		.4byte	0x485
 1618 0478 10       		.uleb128 0x10
 1619 0479 72313300 		.ascii	"r13\000"
 1620 047d 0A       		.byte	0xa
 1621 047e 8A       		.byte	0x8a
 1622 047f 00050000 		.4byte	0x500
 1623 0483 00       		.byte	0
 1624 0484 00       		.byte	0
 1625 0485 06       		.uleb128 0x6
 1626 0486 53000000 		.4byte	.LASF84
 1627 048a 24       		.byte	0x24
 1628 048b 0B       		.byte	0xb
 1629 048c F4       		.byte	0xf4
 1630 048d 00050000 		.4byte	0x500
 1631 0491 08       		.uleb128 0x8
 1632 0492 723400   		.ascii	"r4\000"
 1633 0495 0B       		.byte	0xb
 1634 0496 0701     		.2byte	0x107
 1635 0498 56040000 		.4byte	0x456
 1636 049c 00       		.byte	0
 1637 049d 08       		.uleb128 0x8
 1638 049e 723500   		.ascii	"r5\000"
 1639 04a1 0B       		.byte	0xb
 1640 04a2 0801     		.2byte	0x108
 1641 04a4 56040000 		.4byte	0x456
 1642 04a8 04       		.byte	0x4
 1643 04a9 08       		.uleb128 0x8
 1644 04aa 723600   		.ascii	"r6\000"
 1645 04ad 0B       		.byte	0xb
 1646 04ae 0901     		.2byte	0x109
 1647 04b0 56040000 		.4byte	0x456
 1648 04b4 08       		.byte	0x8
 1649 04b5 08       		.uleb128 0x8
 1650 04b6 723700   		.ascii	"r7\000"
 1651 04b9 0B       		.byte	0xb
 1652 04ba 0A01     		.2byte	0x10a
 1653 04bc 56040000 		.4byte	0x456
ARM GAS  /tmp/ccEPKsUv.s 			page 30


 1654 04c0 0C       		.byte	0xc
 1655 04c1 08       		.uleb128 0x8
 1656 04c2 723800   		.ascii	"r8\000"
 1657 04c5 0B       		.byte	0xb
 1658 04c6 0B01     		.2byte	0x10b
 1659 04c8 56040000 		.4byte	0x456
 1660 04cc 10       		.byte	0x10
 1661 04cd 08       		.uleb128 0x8
 1662 04ce 723900   		.ascii	"r9\000"
 1663 04d1 0B       		.byte	0xb
 1664 04d2 0C01     		.2byte	0x10c
 1665 04d4 56040000 		.4byte	0x456
 1666 04d8 14       		.byte	0x14
 1667 04d9 08       		.uleb128 0x8
 1668 04da 72313000 		.ascii	"r10\000"
 1669 04de 0B       		.byte	0xb
 1670 04df 0D01     		.2byte	0x10d
 1671 04e1 56040000 		.4byte	0x456
 1672 04e5 18       		.byte	0x18
 1673 04e6 08       		.uleb128 0x8
 1674 04e7 72313100 		.ascii	"r11\000"
 1675 04eb 0B       		.byte	0xb
 1676 04ec 0E01     		.2byte	0x10e
 1677 04ee 56040000 		.4byte	0x456
 1678 04f2 1C       		.byte	0x1c
 1679 04f3 08       		.uleb128 0x8
 1680 04f4 6C7200   		.ascii	"lr\000"
 1681 04f7 0B       		.byte	0xb
 1682 04f8 0F01     		.2byte	0x10f
 1683 04fa 56040000 		.4byte	0x456
 1684 04fe 20       		.byte	0x20
 1685 04ff 00       		.byte	0
 1686 0500 0A       		.uleb128 0xa
 1687 0501 04       		.byte	0x4
 1688 0502 85040000 		.4byte	0x485
 1689 0506 11       		.uleb128 0x11
 1690 0507 04       		.byte	0x4
 1691 0508 0C       		.byte	0xc
 1692 0509 38       		.byte	0x38
 1693 050a 1B050000 		.4byte	0x51b
 1694 050e 07       		.uleb128 0x7
 1695 050f 3A060000 		.4byte	.LASF85
 1696 0513 0C       		.byte	0xc
 1697 0514 3C       		.byte	0x3c
 1698 0515 D6000000 		.4byte	0xd6
 1699 0519 00       		.byte	0
 1700 051a 00       		.byte	0
 1701 051b 03       		.uleb128 0x3
 1702 051c 84030000 		.4byte	.LASF86
 1703 0520 0C       		.byte	0xc
 1704 0521 3D       		.byte	0x3d
 1705 0522 06050000 		.4byte	0x506
 1706 0526 12       		.uleb128 0x12
 1707 0527 04       		.byte	0x4
 1708 0528 02       		.byte	0x2
 1709 0529 FA       		.byte	0xfa
 1710 052a 83050000 		.4byte	0x583
ARM GAS  /tmp/ccEPKsUv.s 			page 31


 1711 052e 13       		.uleb128 0x13
 1712 052f 28000000 		.4byte	.LASF87
 1713 0533 02       		.byte	0x2
 1714 0534 0101     		.2byte	0x101
 1715 0536 0D010000 		.4byte	0x10d
 1716 053a 13       		.uleb128 0x13
 1717 053b B9000000 		.4byte	.LASF88
 1718 053f 02       		.byte	0x2
 1719 0540 0801     		.2byte	0x108
 1720 0542 0D010000 		.4byte	0x10d
 1721 0546 13       		.uleb128 0x13
 1722 0547 AC060000 		.4byte	.LASF89
 1723 054b 02       		.byte	0x2
 1724 054c 0F01     		.2byte	0x10f
 1725 054e 19030000 		.4byte	0x319
 1726 0552 13       		.uleb128 0x13
 1727 0553 69010000 		.4byte	.LASF90
 1728 0557 02       		.byte	0x2
 1729 0558 1601     		.2byte	0x116
 1730 055a 83050000 		.4byte	0x583
 1731 055e 13       		.uleb128 0x13
 1732 055f 3A020000 		.4byte	.LASF91
 1733 0563 02       		.byte	0x2
 1734 0564 1E01     		.2byte	0x11e
 1735 0566 AE050000 		.4byte	0x5ae
 1736 056a 13       		.uleb128 0x13
 1737 056b AA050000 		.4byte	.LASF92
 1738 056f 02       		.byte	0x2
 1739 0570 2701     		.2byte	0x127
 1740 0572 E5050000 		.4byte	0x5e5
 1741 0576 13       		.uleb128 0x13
 1742 0577 2E050000 		.4byte	.LASF93
 1743 057b 02       		.byte	0x2
 1744 057c 2F01     		.2byte	0x12f
 1745 057e 18010000 		.4byte	0x118
 1746 0582 00       		.byte	0
 1747 0583 0A       		.uleb128 0xa
 1748 0584 04       		.byte	0x4
 1749 0585 31020000 		.4byte	0x231
 1750 0589 06       		.uleb128 0x6
 1751 058a 7D050000 		.4byte	.LASF94
 1752 058e 0C       		.byte	0xc
 1753 058f 0D       		.byte	0xd
 1754 0590 34       		.byte	0x34
 1755 0591 AE050000 		.4byte	0x5ae
 1756 0595 07       		.uleb128 0x7
 1757 0596 BF010000 		.4byte	.LASF95
 1758 059a 0D       		.byte	0xd
 1759 059b 35       		.byte	0x35
 1760 059c 66020000 		.4byte	0x266
 1761 05a0 00       		.byte	0
 1762 05a1 07       		.uleb128 0x7
 1763 05a2 5E020000 		.4byte	.LASF96
 1764 05a6 0D       		.byte	0xd
 1765 05a7 37       		.byte	0x37
 1766 05a8 23010000 		.4byte	0x123
 1767 05ac 08       		.byte	0x8
ARM GAS  /tmp/ccEPKsUv.s 			page 32


 1768 05ad 00       		.byte	0
 1769 05ae 0A       		.uleb128 0xa
 1770 05af 04       		.byte	0x4
 1771 05b0 89050000 		.4byte	0x589
 1772 05b4 06       		.uleb128 0x6
 1773 05b5 78060000 		.4byte	.LASF97
 1774 05b9 10       		.byte	0x10
 1775 05ba 0E       		.byte	0xe
 1776 05bb 39       		.byte	0x39
 1777 05bc E5050000 		.4byte	0x5e5
 1778 05c0 07       		.uleb128 0x7
 1779 05c1 3F010000 		.4byte	.LASF98
 1780 05c5 0E       		.byte	0xe
 1781 05c6 3A       		.byte	0x3a
 1782 05c7 66020000 		.4byte	0x266
 1783 05cb 00       		.byte	0
 1784 05cc 07       		.uleb128 0x7
 1785 05cd F4060000 		.4byte	.LASF99
 1786 05d1 0E       		.byte	0xe
 1787 05d2 3C       		.byte	0x3c
 1788 05d3 3C020000 		.4byte	0x23c
 1789 05d7 08       		.byte	0x8
 1790 05d8 07       		.uleb128 0x7
 1791 05d9 F2050000 		.4byte	.LASF100
 1792 05dd 0E       		.byte	0xe
 1793 05de 3E       		.byte	0x3e
 1794 05df 23060000 		.4byte	0x623
 1795 05e3 0C       		.byte	0xc
 1796 05e4 00       		.byte	0
 1797 05e5 0A       		.uleb128 0xa
 1798 05e6 04       		.byte	0x4
 1799 05e7 B4050000 		.4byte	0x5b4
 1800 05eb 0A       		.uleb128 0xa
 1801 05ec 04       		.byte	0x4
 1802 05ed F8050000 		.4byte	0x5f8
 1803 05f1 04       		.uleb128 0x4
 1804 05f2 01       		.byte	0x1
 1805 05f3 08       		.byte	0x8
 1806 05f4 E4050000 		.4byte	.LASF101
 1807 05f8 14       		.uleb128 0x14
 1808 05f9 F1050000 		.4byte	0x5f1
 1809 05fd 0A       		.uleb128 0xa
 1810 05fe 04       		.byte	0x4
 1811 05ff 1B030000 		.4byte	0x31b
 1812 0603 05       		.uleb128 0x5
 1813 0604 EB050000 		.4byte	0x5eb
 1814 0608 15       		.uleb128 0x15
 1815 0609 61040000 		.4byte	0x461
 1816 060d 18060000 		.4byte	0x618
 1817 0611 16       		.uleb128 0x16
 1818 0612 4F040000 		.4byte	0x44f
 1819 0616 1A       		.byte	0x1a
 1820 0617 00       		.byte	0
 1821 0618 03       		.uleb128 0x3
 1822 0619 EE010000 		.4byte	.LASF102
 1823 061d 0E       		.byte	0xe
 1824 061e 34       		.byte	0x34
ARM GAS  /tmp/ccEPKsUv.s 			page 33


 1825 061f B4050000 		.4byte	0x5b4
 1826 0623 0A       		.uleb128 0xa
 1827 0624 04       		.byte	0x4
 1828 0625 18060000 		.4byte	0x618
 1829 0629 03       		.uleb128 0x3
 1830 062a F0000000 		.4byte	.LASF103
 1831 062e 03       		.byte	0x3
 1832 062f 3F       		.byte	0x3f
 1833 0630 34060000 		.4byte	0x634
 1834 0634 06       		.uleb128 0x6
 1835 0635 FC010000 		.4byte	.LASF104
 1836 0639 24       		.byte	0x24
 1837 063a 03       		.byte	0x3
 1838 063b 4D       		.byte	0x4d
 1839 063c A1060000 		.4byte	0x6a1
 1840 0640 07       		.uleb128 0x7
 1841 0641 13010000 		.4byte	.LASF105
 1842 0645 03       		.byte	0x3
 1843 0646 4E       		.byte	0x4e
 1844 0647 66020000 		.4byte	0x266
 1845 064b 00       		.byte	0
 1846 064c 07       		.uleb128 0x7
 1847 064d 54030000 		.4byte	.LASF106
 1848 0651 03       		.byte	0x3
 1849 0652 4F       		.byte	0x4f
 1850 0653 28000000 		.4byte	0x28
 1851 0657 08       		.byte	0x8
 1852 0658 07       		.uleb128 0x7
 1853 0659 94010000 		.4byte	.LASF107
 1854 065d 03       		.byte	0x3
 1855 065e 50       		.byte	0x50
 1856 065f C3060000 		.4byte	0x6c3
 1857 0663 0C       		.byte	0xc
 1858 0664 07       		.uleb128 0x7
 1859 0665 72060000 		.4byte	.LASF108
 1860 0669 03       		.byte	0x3
 1861 066a 51       		.byte	0x51
 1862 066b C3060000 		.4byte	0x6c3
 1863 066f 10       		.byte	0x10
 1864 0670 07       		.uleb128 0x7
 1865 0671 9D010000 		.4byte	.LASF109
 1866 0675 03       		.byte	0x3
 1867 0676 53       		.byte	0x53
 1868 0677 C3060000 		.4byte	0x6c3
 1869 067b 14       		.byte	0x14
 1870 067c 07       		.uleb128 0x7
 1871 067d EF030000 		.4byte	.LASF110
 1872 0681 03       		.byte	0x3
 1873 0682 54       		.byte	0x54
 1874 0683 C3060000 		.4byte	0x6c3
 1875 0687 18       		.byte	0x18
 1876 0688 07       		.uleb128 0x7
 1877 0689 95060000 		.4byte	.LASF111
 1878 068d 03       		.byte	0x3
 1879 068e 55       		.byte	0x55
 1880 068f A1060000 		.4byte	0x6a1
 1881 0693 1C       		.byte	0x1c
ARM GAS  /tmp/ccEPKsUv.s 			page 34


 1882 0694 07       		.uleb128 0x7
 1883 0695 ED060000 		.4byte	.LASF112
 1884 0699 03       		.byte	0x3
 1885 069a 56       		.byte	0x56
 1886 069b 19030000 		.4byte	0x319
 1887 069f 20       		.byte	0x20
 1888 06a0 00       		.byte	0
 1889 06a1 03       		.uleb128 0x3
 1890 06a2 BA030000 		.4byte	.LASF113
 1891 06a6 03       		.byte	0x3
 1892 06a7 42       		.byte	0x42
 1893 06a8 AC060000 		.4byte	0x6ac
 1894 06ac 0A       		.uleb128 0xa
 1895 06ad 04       		.byte	0x4
 1896 06ae B2060000 		.4byte	0x6b2
 1897 06b2 0C       		.uleb128 0xc
 1898 06b3 BD060000 		.4byte	0x6bd
 1899 06b7 0D       		.uleb128 0xd
 1900 06b8 BD060000 		.4byte	0x6bd
 1901 06bc 00       		.byte	0
 1902 06bd 0A       		.uleb128 0xa
 1903 06be 04       		.byte	0x4
 1904 06bf 29060000 		.4byte	0x629
 1905 06c3 0A       		.uleb128 0xa
 1906 06c4 04       		.byte	0x4
 1907 06c5 A5000000 		.4byte	0xa5
 1908 06c9 03       		.uleb128 0x3
 1909 06ca 23040000 		.4byte	.LASF114
 1910 06ce 03       		.byte	0x3
 1911 06cf 64       		.byte	0x64
 1912 06d0 29060000 		.4byte	0x629
 1913 06d4 03       		.uleb128 0x3
 1914 06d5 5A010000 		.4byte	.LASF115
 1915 06d9 03       		.byte	0x3
 1916 06da 71       		.byte	0x71
 1917 06db 29060000 		.4byte	0x629
 1918 06df 0A       		.uleb128 0xa
 1919 06e0 04       		.byte	0x4
 1920 06e1 E5060000 		.4byte	0x6e5
 1921 06e5 14       		.uleb128 0x14
 1922 06e6 A5000000 		.4byte	0xa5
 1923 06ea 17       		.uleb128 0x17
 1924 06eb 22060000 		.4byte	.LASF118
 1925 06ef 04       		.byte	0x4
 1926 06f0 2002     		.2byte	0x220
 1927 06f2 03       		.byte	0x3
 1928 06f3 04070000 		.4byte	0x704
 1929 06f7 18       		.uleb128 0x18
 1930 06f8 F6010000 		.4byte	.LASF120
 1931 06fc 04       		.byte	0x4
 1932 06fd 2002     		.2byte	0x220
 1933 06ff BB000000 		.4byte	0xbb
 1934 0703 00       		.byte	0
 1935 0704 19       		.uleb128 0x19
 1936 0705 89000000 		.4byte	.LASF116
 1937 0709 0B       		.byte	0xb
 1938 070a BC01     		.2byte	0x1bc
ARM GAS  /tmp/ccEPKsUv.s 			page 35


 1939 070c 03       		.byte	0x3
 1940 070d 19       		.uleb128 0x19
 1941 070e 4E010000 		.4byte	.LASF117
 1942 0712 0B       		.byte	0xb
 1943 0713 CA01     		.2byte	0x1ca
 1944 0715 03       		.byte	0x3
 1945 0716 17       		.uleb128 0x17
 1946 0717 7E000000 		.4byte	.LASF119
 1947 071b 02       		.byte	0x2
 1948 071c 5A02     		.2byte	0x25a
 1949 071e 03       		.byte	0x3
 1950 071f 30070000 		.4byte	0x730
 1951 0723 1A       		.uleb128 0x1a
 1952 0724 74717000 		.ascii	"tqp\000"
 1953 0728 02       		.byte	0x2
 1954 0729 5A02     		.2byte	0x25a
 1955 072b 30070000 		.4byte	0x730
 1956 072f 00       		.byte	0
 1957 0730 0A       		.uleb128 0xa
 1958 0731 04       		.byte	0x4
 1959 0732 66020000 		.4byte	0x266
 1960 0736 1B       		.uleb128 0x1b
 1961 0737 88060000 		.4byte	.LASF122
 1962 073b 03       		.byte	0x3
 1963 073c 2F01     		.2byte	0x12f
 1964 073e 54070000 		.4byte	0x754
 1965 0742 03       		.byte	0x3
 1966 0743 54070000 		.4byte	0x754
 1967 0747 1A       		.uleb128 0x1a
 1968 0748 69717000 		.ascii	"iqp\000"
 1969 074c 03       		.byte	0x3
 1970 074d 2F01     		.2byte	0x12f
 1971 074f 5B070000 		.4byte	0x75b
 1972 0753 00       		.byte	0
 1973 0754 04       		.uleb128 0x4
 1974 0755 01       		.byte	0x1
 1975 0756 02       		.byte	0x2
 1976 0757 07040000 		.4byte	.LASF121
 1977 075b 0A       		.uleb128 0xa
 1978 075c 04       		.byte	0x4
 1979 075d C9060000 		.4byte	0x6c9
 1980 0761 1B       		.uleb128 0x1b
 1981 0762 DB030000 		.4byte	.LASF123
 1982 0766 03       		.byte	0x3
 1983 0767 9301     		.2byte	0x193
 1984 0769 54070000 		.4byte	0x754
 1985 076d 03       		.byte	0x3
 1986 076e 7F070000 		.4byte	0x77f
 1987 0772 1A       		.uleb128 0x1a
 1988 0773 6F717000 		.ascii	"oqp\000"
 1989 0777 03       		.byte	0x3
 1990 0778 9301     		.2byte	0x193
 1991 077a 7F070000 		.4byte	0x77f
 1992 077e 00       		.byte	0
 1993 077f 0A       		.uleb128 0xa
 1994 0780 04       		.byte	0x4
 1995 0781 D4060000 		.4byte	0x6d4
ARM GAS  /tmp/ccEPKsUv.s 			page 36


 1996 0785 17       		.uleb128 0x17
 1997 0786 02030000 		.4byte	.LASF124
 1998 078a 0F       		.byte	0xf
 1999 078b 1601     		.2byte	0x116
 2000 078d 03       		.byte	0x3
 2001 078e 9F070000 		.4byte	0x79f
 2002 0792 1A       		.uleb128 0x1a
 2003 0793 74717000 		.ascii	"tqp\000"
 2004 0797 0F       		.byte	0xf
 2005 0798 1601     		.2byte	0x116
 2006 079a 30070000 		.4byte	0x730
 2007 079e 00       		.byte	0
 2008 079f 1B       		.uleb128 0x1b
 2009 07a0 95050000 		.4byte	.LASF125
 2010 07a4 03       		.byte	0x3
 2011 07a5 4001     		.2byte	0x140
 2012 07a7 54070000 		.4byte	0x754
 2013 07ab 03       		.byte	0x3
 2014 07ac BD070000 		.4byte	0x7bd
 2015 07b0 1A       		.uleb128 0x1a
 2016 07b1 69717000 		.ascii	"iqp\000"
 2017 07b5 03       		.byte	0x3
 2018 07b6 4001     		.2byte	0x140
 2019 07b8 5B070000 		.4byte	0x75b
 2020 07bc 00       		.byte	0
 2021 07bd 19       		.uleb128 0x19
 2022 07be 52050000 		.4byte	.LASF126
 2023 07c2 10       		.byte	0x10
 2024 07c3 5A01     		.2byte	0x15a
 2025 07c5 03       		.byte	0x3
 2026 07c6 17       		.uleb128 0x17
 2027 07c7 DB060000 		.4byte	.LASF127
 2028 07cb 10       		.byte	0x10
 2029 07cc 6601     		.2byte	0x166
 2030 07ce 03       		.byte	0x3
 2031 07cf E1070000 		.4byte	0x7e1
 2032 07d3 1C       		.uleb128 0x1c
 2033 07d4 49050000 		.4byte	.LASF144
 2034 07d8 F1070000 		.4byte	0x7f1
 2035 07dc DB060000 		.4byte	.LASF127
 2036 07e0 00       		.byte	0
 2037 07e1 15       		.uleb128 0x15
 2038 07e2 F8050000 		.4byte	0x5f8
 2039 07e6 F1070000 		.4byte	0x7f1
 2040 07ea 16       		.uleb128 0x16
 2041 07eb 4F040000 		.4byte	0x44f
 2042 07ef 0B       		.byte	0xb
 2043 07f0 00       		.byte	0
 2044 07f1 14       		.uleb128 0x14
 2045 07f2 E1070000 		.4byte	0x7e1
 2046 07f6 1B       		.uleb128 0x1b
 2047 07f7 BF060000 		.4byte	.LASF128
 2048 07fb 03       		.byte	0x3
 2049 07fc 8201     		.2byte	0x182
 2050 07fe 54070000 		.4byte	0x754
 2051 0802 03       		.byte	0x3
 2052 0803 14080000 		.4byte	0x814
ARM GAS  /tmp/ccEPKsUv.s 			page 37


 2053 0807 1A       		.uleb128 0x1a
 2054 0808 6F717000 		.ascii	"oqp\000"
 2055 080c 03       		.byte	0x3
 2056 080d 8201     		.2byte	0x182
 2057 080f 7F070000 		.4byte	0x77f
 2058 0813 00       		.byte	0
 2059 0814 1D       		.uleb128 0x1d
 2060 0815 93000000 		.4byte	.LASF132
 2061 0819 01       		.byte	0x1
 2062 081a 57       		.byte	0x57
 2063 081b 00000000 		.4byte	.LFB227
 2064 081f 1E000000 		.4byte	.LFE227-.LFB227
 2065 0823 01       		.uleb128 0x1
 2066 0824 9C       		.byte	0x9c
 2067 0825 A1080000 		.4byte	0x8a1
 2068 0829 1E       		.uleb128 0x1e
 2069 082a 69717000 		.ascii	"iqp\000"
 2070 082e 01       		.byte	0x1
 2071 082f 57       		.byte	0x57
 2072 0830 5B070000 		.4byte	0x75b
 2073 0834 01       		.uleb128 0x1
 2074 0835 50       		.byte	0x50
 2075 0836 1E       		.uleb128 0x1e
 2076 0837 627000   		.ascii	"bp\000"
 2077 083a 01       		.byte	0x1
 2078 083b 57       		.byte	0x57
 2079 083c C3060000 		.4byte	0x6c3
 2080 0840 01       		.uleb128 0x1
 2081 0841 51       		.byte	0x51
 2082 0842 1F       		.uleb128 0x1f
 2083 0843 BA060000 		.4byte	.LASF129
 2084 0847 01       		.byte	0x1
 2085 0848 57       		.byte	0x57
 2086 0849 28000000 		.4byte	0x28
 2087 084d 00000000 		.4byte	.LLST0
 2088 0851 20       		.uleb128 0x20
 2089 0852 3C050000 		.4byte	.LASF130
 2090 0856 01       		.byte	0x1
 2091 0857 58       		.byte	0x58
 2092 0858 A1060000 		.4byte	0x6a1
 2093 085c 01       		.uleb128 0x1
 2094 085d 53       		.byte	0x53
 2095 085e 1F       		.uleb128 0x1f
 2096 085f E0010000 		.4byte	.LASF131
 2097 0863 01       		.byte	0x1
 2098 0864 58       		.byte	0x58
 2099 0865 19030000 		.4byte	0x319
 2100 0869 21000000 		.4byte	.LLST1
 2101 086d 21       		.uleb128 0x21
 2102 086e 85070000 		.4byte	0x785
 2103 0872 0E000000 		.4byte	.LBB108
 2104 0876 04000000 		.4byte	.LBE108-.LBB108
 2105 087a 01       		.byte	0x1
 2106 087b 5A       		.byte	0x5a
 2107 087c 22       		.uleb128 0x22
 2108 087d 92070000 		.4byte	0x792
 2109 0881 41000000 		.4byte	.LLST2
ARM GAS  /tmp/ccEPKsUv.s 			page 38


 2110 0885 23       		.uleb128 0x23
 2111 0886 16070000 		.4byte	0x716
 2112 088a 0E000000 		.4byte	.LBB109
 2113 088e 04000000 		.4byte	.LBE109-.LBB109
 2114 0892 0F       		.byte	0xf
 2115 0893 1801     		.2byte	0x118
 2116 0895 22       		.uleb128 0x22
 2117 0896 23070000 		.4byte	0x723
 2118 089a 41000000 		.4byte	.LLST2
 2119 089e 00       		.byte	0
 2120 089f 00       		.byte	0
 2121 08a0 00       		.byte	0
 2122 08a1 1D       		.uleb128 0x1d
 2123 08a2 2F020000 		.4byte	.LASF133
 2124 08a6 01       		.byte	0x1
 2125 08a7 6F       		.byte	0x6f
 2126 08a8 00000000 		.4byte	.LFB228
 2127 08ac 12000000 		.4byte	.LFE228-.LFB228
 2128 08b0 01       		.uleb128 0x1
 2129 08b1 9C       		.byte	0x9c
 2130 08b2 DD080000 		.4byte	0x8dd
 2131 08b6 24       		.uleb128 0x24
 2132 08b7 69717000 		.ascii	"iqp\000"
 2133 08bb 01       		.byte	0x1
 2134 08bc 6F       		.byte	0x6f
 2135 08bd 5B070000 		.4byte	0x75b
 2136 08c1 54000000 		.4byte	.LLST4
 2137 08c5 25       		.uleb128 0x25
 2138 08c6 12000000 		.4byte	.LVL5
 2139 08ca AD100000 		.4byte	0x10ad
 2140 08ce 26       		.uleb128 0x26
 2141 08cf 01       		.uleb128 0x1
 2142 08d0 50       		.byte	0x50
 2143 08d1 03       		.uleb128 0x3
 2144 08d2 F3       		.byte	0xf3
 2145 08d3 01       		.uleb128 0x1
 2146 08d4 50       		.byte	0x50
 2147 08d5 26       		.uleb128 0x26
 2148 08d6 01       		.uleb128 0x1
 2149 08d7 51       		.byte	0x51
 2150 08d8 02       		.uleb128 0x2
 2151 08d9 09       		.byte	0x9
 2152 08da FE       		.byte	0xfe
 2153 08db 00       		.byte	0
 2154 08dc 00       		.byte	0
 2155 08dd 27       		.uleb128 0x27
 2156 08de E5010000 		.4byte	.LASF134
 2157 08e2 01       		.byte	0x1
 2158 08e3 86       		.byte	0x86
 2159 08e4 0D010000 		.4byte	0x10d
 2160 08e8 00000000 		.4byte	.LFB229
 2161 08ec 36000000 		.4byte	.LFE229-.LFB229
 2162 08f0 01       		.uleb128 0x1
 2163 08f1 9C       		.byte	0x9c
 2164 08f2 3F090000 		.4byte	0x93f
 2165 08f6 24       		.uleb128 0x24
 2166 08f7 69717000 		.ascii	"iqp\000"
ARM GAS  /tmp/ccEPKsUv.s 			page 39


 2167 08fb 01       		.byte	0x1
 2168 08fc 86       		.byte	0x86
 2169 08fd 5B070000 		.4byte	0x75b
 2170 0901 75000000 		.4byte	.LLST5
 2171 0905 24       		.uleb128 0x24
 2172 0906 6200     		.ascii	"b\000"
 2173 0908 01       		.byte	0x1
 2174 0909 86       		.byte	0x86
 2175 090a A5000000 		.4byte	0xa5
 2176 090e AF000000 		.4byte	.LLST6
 2177 0912 28       		.uleb128 0x28
 2178 0913 9F070000 		.4byte	0x79f
 2179 0917 00000000 		.4byte	.LBB111
 2180 091b 00000000 		.4byte	.Ldebug_ranges0+0
 2181 091f 01       		.byte	0x1
 2182 0920 8A       		.byte	0x8a
 2183 0921 2F090000 		.4byte	0x92f
 2184 0925 22       		.uleb128 0x22
 2185 0926 B0070000 		.4byte	0x7b0
 2186 092a DB000000 		.4byte	.LLST7
 2187 092e 00       		.byte	0
 2188 092f 29       		.uleb128 0x29
 2189 0930 28000000 		.4byte	.LVL9
 2190 0934 B8100000 		.4byte	0x10b8
 2191 0938 26       		.uleb128 0x26
 2192 0939 01       		.uleb128 0x1
 2193 093a 51       		.byte	0x51
 2194 093b 01       		.uleb128 0x1
 2195 093c 30       		.byte	0x30
 2196 093d 00       		.byte	0
 2197 093e 00       		.byte	0
 2198 093f 27       		.uleb128 0x27
 2199 0940 0A070000 		.4byte	.LASF135
 2200 0944 01       		.byte	0x1
 2201 0945 AD       		.byte	0xad
 2202 0946 0D010000 		.4byte	0x10d
 2203 094a 00000000 		.4byte	.LFB230
 2204 094e 4E000000 		.4byte	.LFE230-.LFB230
 2205 0952 01       		.uleb128 0x1
 2206 0953 9C       		.byte	0x9c
 2207 0954 8D0A0000 		.4byte	0xa8d
 2208 0958 24       		.uleb128 0x24
 2209 0959 69717000 		.ascii	"iqp\000"
 2210 095d 01       		.byte	0x1
 2211 095e AD       		.byte	0xad
 2212 095f 5B070000 		.4byte	0x75b
 2213 0963 07010000 		.4byte	.LLST8
 2214 0967 1F       		.uleb128 0x1f
 2215 0968 4C020000 		.4byte	.LASF136
 2216 096c 01       		.byte	0x1
 2217 096d AD       		.byte	0xad
 2218 096e 2E010000 		.4byte	0x12e
 2219 0972 51010000 		.4byte	.LLST9
 2220 0976 2A       		.uleb128 0x2a
 2221 0977 6200     		.ascii	"b\000"
 2222 0979 01       		.byte	0x1
 2223 097a AE       		.byte	0xae
ARM GAS  /tmp/ccEPKsUv.s 			page 40


 2224 097b A5000000 		.4byte	0xa5
 2225 097f 9B010000 		.4byte	.LLST10
 2226 0983 28       		.uleb128 0x28
 2227 0984 BD070000 		.4byte	0x7bd
 2228 0988 02000000 		.4byte	.LBB117
 2229 098c 20000000 		.4byte	.Ldebug_ranges0+0x20
 2230 0990 01       		.byte	0x1
 2231 0991 B0       		.byte	0xb0
 2232 0992 C2090000 		.4byte	0x9c2
 2233 0996 2B       		.uleb128 0x2b
 2234 0997 04070000 		.4byte	0x704
 2235 099b 02000000 		.4byte	.LBB118
 2236 099f 20000000 		.4byte	.Ldebug_ranges0+0x20
 2237 09a3 10       		.byte	0x10
 2238 09a4 5C01     		.2byte	0x15c
 2239 09a6 2B       		.uleb128 0x2b
 2240 09a7 EA060000 		.4byte	0x6ea
 2241 09ab 02000000 		.4byte	.LBB119
 2242 09af 20000000 		.4byte	.Ldebug_ranges0+0x20
 2243 09b3 0B       		.byte	0xb
 2244 09b4 BF01     		.2byte	0x1bf
 2245 09b6 22       		.uleb128 0x22
 2246 09b7 F7060000 		.4byte	0x6f7
 2247 09bb AE010000 		.4byte	.LLST11
 2248 09bf 00       		.byte	0
 2249 09c0 00       		.byte	0
 2250 09c1 00       		.byte	0
 2251 09c2 2C       		.uleb128 0x2c
 2252 09c3 38000000 		.4byte	.Ldebug_ranges0+0x38
 2253 09c7 320A0000 		.4byte	0xa32
 2254 09cb 2A       		.uleb128 0x2a
 2255 09cc 6D736700 		.ascii	"msg\000"
 2256 09d0 01       		.byte	0x1
 2257 09d1 B6       		.byte	0xb6
 2258 09d2 0D010000 		.4byte	0x10d
 2259 09d6 C3010000 		.4byte	.LLST12
 2260 09da 2D       		.uleb128 0x2d
 2261 09db C6070000 		.4byte	0x7c6
 2262 09df 48000000 		.4byte	.LBB126
 2263 09e3 04000000 		.4byte	.LBE126-.LBB126
 2264 09e7 01       		.byte	0x1
 2265 09e8 B8       		.byte	0xb8
 2266 09e9 280A0000 		.4byte	0xa28
 2267 09ed 2E       		.uleb128 0x2e
 2268 09ee 48000000 		.4byte	.LBB127
 2269 09f2 04000000 		.4byte	.LBE127-.LBB127
 2270 09f6 2F       		.uleb128 0x2f
 2271 09f7 D3070000 		.4byte	0x7d3
 2272 09fb 23       		.uleb128 0x23
 2273 09fc 0D070000 		.4byte	0x70d
 2274 0a00 48000000 		.4byte	.LBB128
 2275 0a04 04000000 		.4byte	.LBE128-.LBB128
 2276 0a08 10       		.byte	0x10
 2277 0a09 7301     		.2byte	0x173
 2278 0a0b 23       		.uleb128 0x23
 2279 0a0c EA060000 		.4byte	0x6ea
 2280 0a10 48000000 		.4byte	.LBB129
ARM GAS  /tmp/ccEPKsUv.s 			page 41


 2281 0a14 04000000 		.4byte	.LBE129-.LBB129
 2282 0a18 0B       		.byte	0xb
 2283 0a19 CD01     		.2byte	0x1cd
 2284 0a1b 22       		.uleb128 0x22
 2285 0a1c F7060000 		.4byte	0x6f7
 2286 0a20 E1010000 		.4byte	.LLST13
 2287 0a24 00       		.byte	0
 2288 0a25 00       		.byte	0
 2289 0a26 00       		.byte	0
 2290 0a27 00       		.byte	0
 2291 0a28 30       		.uleb128 0x30
 2292 0a29 18000000 		.4byte	.LVL16
 2293 0a2d C3100000 		.4byte	0x10c3
 2294 0a31 00       		.byte	0
 2295 0a32 2D       		.uleb128 0x2d
 2296 0a33 C6070000 		.4byte	0x7c6
 2297 0a37 40000000 		.4byte	.LBB131
 2298 0a3b 06000000 		.4byte	.LBE131-.LBB131
 2299 0a3f 01       		.byte	0x1
 2300 0a40 C2       		.byte	0xc2
 2301 0a41 800A0000 		.4byte	0xa80
 2302 0a45 2E       		.uleb128 0x2e
 2303 0a46 40000000 		.4byte	.LBB132
 2304 0a4a 06000000 		.4byte	.LBE132-.LBB132
 2305 0a4e 2F       		.uleb128 0x2f
 2306 0a4f D3070000 		.4byte	0x7d3
 2307 0a53 23       		.uleb128 0x23
 2308 0a54 0D070000 		.4byte	0x70d
 2309 0a58 40000000 		.4byte	.LBB133
 2310 0a5c 06000000 		.4byte	.LBE133-.LBB133
 2311 0a60 10       		.byte	0x10
 2312 0a61 7301     		.2byte	0x173
 2313 0a63 23       		.uleb128 0x23
 2314 0a64 EA060000 		.4byte	0x6ea
 2315 0a68 40000000 		.4byte	.LBB134
 2316 0a6c 06000000 		.4byte	.LBE134-.LBB134
 2317 0a70 0B       		.byte	0xb
 2318 0a71 CD01     		.2byte	0x1cd
 2319 0a73 22       		.uleb128 0x22
 2320 0a74 F7060000 		.4byte	0x6f7
 2321 0a78 F5010000 		.4byte	.LLST14
 2322 0a7c 00       		.byte	0
 2323 0a7d 00       		.byte	0
 2324 0a7e 00       		.byte	0
 2325 0a7f 00       		.byte	0
 2326 0a80 31       		.uleb128 0x31
 2327 0a81 12000000 		.4byte	.LVL14
 2328 0a85 26       		.uleb128 0x26
 2329 0a86 01       		.uleb128 0x1
 2330 0a87 50       		.byte	0x50
 2331 0a88 02       		.uleb128 0x2
 2332 0a89 74       		.byte	0x74
 2333 0a8a 00       		.sleb128 0
 2334 0a8b 00       		.byte	0
 2335 0a8c 00       		.byte	0
 2336 0a8d 27       		.uleb128 0x27
 2337 0a8e 6E000000 		.4byte	.LASF137
ARM GAS  /tmp/ccEPKsUv.s 			page 42


 2338 0a92 01       		.byte	0x1
 2339 0a93 DF       		.byte	0xdf
 2340 0a94 28000000 		.4byte	0x28
 2341 0a98 00000000 		.4byte	.LFB231
 2342 0a9c 74000000 		.4byte	.LFE231-.LFB231
 2343 0aa0 01       		.uleb128 0x1
 2344 0aa1 9C       		.byte	0x9c
 2345 0aa2 320C0000 		.4byte	0xc32
 2346 0aa6 24       		.uleb128 0x24
 2347 0aa7 69717000 		.ascii	"iqp\000"
 2348 0aab 01       		.byte	0x1
 2349 0aac DF       		.byte	0xdf
 2350 0aad 5B070000 		.4byte	0x75b
 2351 0ab1 09020000 		.4byte	.LLST15
 2352 0ab5 24       		.uleb128 0x24
 2353 0ab6 627000   		.ascii	"bp\000"
 2354 0ab9 01       		.byte	0x1
 2355 0aba DF       		.byte	0xdf
 2356 0abb C3060000 		.4byte	0x6c3
 2357 0abf 53020000 		.4byte	.LLST16
 2358 0ac3 24       		.uleb128 0x24
 2359 0ac4 6E00     		.ascii	"n\000"
 2360 0ac6 01       		.byte	0x1
 2361 0ac7 E0       		.byte	0xe0
 2362 0ac8 28000000 		.4byte	0x28
 2363 0acc 89020000 		.4byte	.LLST17
 2364 0ad0 1F       		.uleb128 0x1f
 2365 0ad1 4C020000 		.4byte	.LASF136
 2366 0ad5 01       		.byte	0x1
 2367 0ad6 E0       		.byte	0xe0
 2368 0ad7 2E010000 		.4byte	0x12e
 2369 0adb AC020000 		.4byte	.LLST18
 2370 0adf 32       		.uleb128 0x32
 2371 0ae0 6E667900 		.ascii	"nfy\000"
 2372 0ae4 01       		.byte	0x1
 2373 0ae5 E1       		.byte	0xe1
 2374 0ae6 A1060000 		.4byte	0x6a1
 2375 0aea 01       		.uleb128 0x1
 2376 0aeb 58       		.byte	0x58
 2377 0aec 2A       		.uleb128 0x2a
 2378 0aed 7200     		.ascii	"r\000"
 2379 0aef 01       		.byte	0x1
 2380 0af0 E2       		.byte	0xe2
 2381 0af1 28000000 		.4byte	0x28
 2382 0af5 F6020000 		.4byte	.LLST19
 2383 0af9 33       		.uleb128 0x33
 2384 0afa 49050000 		.4byte	.LASF144
 2385 0afe 420C0000 		.4byte	0xc42
 2386 0b02 2D       		.uleb128 0x2d
 2387 0b03 BD070000 		.4byte	0x7bd
 2388 0b07 12000000 		.4byte	.LBB137
 2389 0b0b 06000000 		.4byte	.LBE137-.LBB137
 2390 0b0f 01       		.byte	0x1
 2391 0b10 E6       		.byte	0xe6
 2392 0b11 410B0000 		.4byte	0xb41
 2393 0b15 23       		.uleb128 0x23
 2394 0b16 04070000 		.4byte	0x704
ARM GAS  /tmp/ccEPKsUv.s 			page 43


 2395 0b1a 12000000 		.4byte	.LBB138
 2396 0b1e 06000000 		.4byte	.LBE138-.LBB138
 2397 0b22 10       		.byte	0x10
 2398 0b23 5C01     		.2byte	0x15c
 2399 0b25 23       		.uleb128 0x23
 2400 0b26 EA060000 		.4byte	0x6ea
 2401 0b2a 12000000 		.4byte	.LBB139
 2402 0b2e 06000000 		.4byte	.LBE139-.LBB139
 2403 0b32 0B       		.byte	0xb
 2404 0b33 BF01     		.2byte	0x1bf
 2405 0b35 22       		.uleb128 0x22
 2406 0b36 F7060000 		.4byte	0x6f7
 2407 0b3a 15030000 		.4byte	.LLST20
 2408 0b3e 00       		.byte	0
 2409 0b3f 00       		.byte	0
 2410 0b40 00       		.byte	0
 2411 0b41 28       		.uleb128 0x28
 2412 0b42 BD070000 		.4byte	0x7bd
 2413 0b46 1A000000 		.4byte	.LBB141
 2414 0b4a 50000000 		.4byte	.Ldebug_ranges0+0x50
 2415 0b4e 01       		.byte	0x1
 2416 0b4f FF       		.byte	0xff
 2417 0b50 800B0000 		.4byte	0xb80
 2418 0b54 2B       		.uleb128 0x2b
 2419 0b55 04070000 		.4byte	0x704
 2420 0b59 1A000000 		.4byte	.LBB142
 2421 0b5d 50000000 		.4byte	.Ldebug_ranges0+0x50
 2422 0b61 10       		.byte	0x10
 2423 0b62 5C01     		.2byte	0x15c
 2424 0b64 2B       		.uleb128 0x2b
 2425 0b65 EA060000 		.4byte	0x6ea
 2426 0b69 1A000000 		.4byte	.LBB143
 2427 0b6d 50000000 		.4byte	.Ldebug_ranges0+0x50
 2428 0b71 0B       		.byte	0xb
 2429 0b72 BF01     		.2byte	0x1bf
 2430 0b74 22       		.uleb128 0x22
 2431 0b75 F7060000 		.4byte	0x6f7
 2432 0b79 2A030000 		.4byte	.LLST21
 2433 0b7d 00       		.byte	0
 2434 0b7e 00       		.byte	0
 2435 0b7f 00       		.byte	0
 2436 0b80 28       		.uleb128 0x28
 2437 0b81 C6070000 		.4byte	0x7c6
 2438 0b85 1C000000 		.4byte	.LBB148
 2439 0b89 68000000 		.4byte	.Ldebug_ranges0+0x68
 2440 0b8d 01       		.byte	0x1
 2441 0b8e F8       		.byte	0xf8
 2442 0b8f CA0B0000 		.4byte	0xbca
 2443 0b93 34       		.uleb128 0x34
 2444 0b94 68000000 		.4byte	.Ldebug_ranges0+0x68
 2445 0b98 2F       		.uleb128 0x2f
 2446 0b99 D3070000 		.4byte	0x7d3
 2447 0b9d 2B       		.uleb128 0x2b
 2448 0b9e 0D070000 		.4byte	0x70d
 2449 0ba2 1C000000 		.4byte	.LBB150
 2450 0ba6 68000000 		.4byte	.Ldebug_ranges0+0x68
 2451 0baa 10       		.byte	0x10
ARM GAS  /tmp/ccEPKsUv.s 			page 44


 2452 0bab 7301     		.2byte	0x173
 2453 0bad 2B       		.uleb128 0x2b
 2454 0bae EA060000 		.4byte	0x6ea
 2455 0bb2 1C000000 		.4byte	.LBB151
 2456 0bb6 68000000 		.4byte	.Ldebug_ranges0+0x68
 2457 0bba 0B       		.byte	0xb
 2458 0bbb CD01     		.2byte	0x1cd
 2459 0bbd 22       		.uleb128 0x22
 2460 0bbe F7060000 		.4byte	0x6f7
 2461 0bc2 3F030000 		.4byte	.LLST22
 2462 0bc6 00       		.byte	0
 2463 0bc7 00       		.byte	0
 2464 0bc8 00       		.byte	0
 2465 0bc9 00       		.byte	0
 2466 0bca 2D       		.uleb128 0x2d
 2467 0bcb C6070000 		.4byte	0x7c6
 2468 0bcf 68000000 		.4byte	.LBB159
 2469 0bd3 04000000 		.4byte	.LBE159-.LBB159
 2470 0bd7 01       		.byte	0x1
 2471 0bd8 EE       		.byte	0xee
 2472 0bd9 180C0000 		.4byte	0xc18
 2473 0bdd 2E       		.uleb128 0x2e
 2474 0bde 68000000 		.4byte	.LBB160
 2475 0be2 04000000 		.4byte	.LBE160-.LBB160
 2476 0be6 2F       		.uleb128 0x2f
 2477 0be7 D3070000 		.4byte	0x7d3
 2478 0beb 23       		.uleb128 0x23
 2479 0bec 0D070000 		.4byte	0x70d
 2480 0bf0 68000000 		.4byte	.LBB161
 2481 0bf4 04000000 		.4byte	.LBE161-.LBB161
 2482 0bf8 10       		.byte	0x10
 2483 0bf9 7301     		.2byte	0x173
 2484 0bfb 23       		.uleb128 0x23
 2485 0bfc EA060000 		.4byte	0x6ea
 2486 0c00 68000000 		.4byte	.LBB162
 2487 0c04 04000000 		.4byte	.LBE162-.LBB162
 2488 0c08 0B       		.byte	0xb
 2489 0c09 CD01     		.2byte	0x1cd
 2490 0c0b 22       		.uleb128 0x22
 2491 0c0c F7060000 		.4byte	0x6f7
 2492 0c10 53030000 		.4byte	.LLST23
 2493 0c14 00       		.byte	0
 2494 0c15 00       		.byte	0
 2495 0c16 00       		.byte	0
 2496 0c17 00       		.byte	0
 2497 0c18 35       		.uleb128 0x35
 2498 0c19 28000000 		.4byte	.LVL31
 2499 0c1d 280C0000 		.4byte	0xc28
 2500 0c21 26       		.uleb128 0x26
 2501 0c22 01       		.uleb128 0x1
 2502 0c23 50       		.byte	0x50
 2503 0c24 02       		.uleb128 0x2
 2504 0c25 74       		.byte	0x74
 2505 0c26 00       		.sleb128 0
 2506 0c27 00       		.byte	0
 2507 0c28 30       		.uleb128 0x30
 2508 0c29 2E000000 		.4byte	.LVL33
ARM GAS  /tmp/ccEPKsUv.s 			page 45


 2509 0c2d C3100000 		.4byte	0x10c3
 2510 0c31 00       		.byte	0
 2511 0c32 15       		.uleb128 0x15
 2512 0c33 F8050000 		.4byte	0x5f8
 2513 0c37 420C0000 		.4byte	0xc42
 2514 0c3b 16       		.uleb128 0x16
 2515 0c3c 4F040000 		.4byte	0x44f
 2516 0c40 0F       		.byte	0xf
 2517 0c41 00       		.byte	0
 2518 0c42 14       		.uleb128 0x14
 2519 0c43 320C0000 		.4byte	0xc32
 2520 0c47 36       		.uleb128 0x36
 2521 0c48 63060000 		.4byte	.LASF138
 2522 0c4c 01       		.byte	0x1
 2523 0c4d 1301     		.2byte	0x113
 2524 0c4f 00000000 		.4byte	.LFB232
 2525 0c53 1C000000 		.4byte	.LFE232-.LFB232
 2526 0c57 01       		.uleb128 0x1
 2527 0c58 9C       		.byte	0x9c
 2528 0c59 D90C0000 		.4byte	0xcd9
 2529 0c5d 37       		.uleb128 0x37
 2530 0c5e 6F717000 		.ascii	"oqp\000"
 2531 0c62 01       		.byte	0x1
 2532 0c63 1301     		.2byte	0x113
 2533 0c65 7F070000 		.4byte	0x77f
 2534 0c69 01       		.uleb128 0x1
 2535 0c6a 50       		.byte	0x50
 2536 0c6b 37       		.uleb128 0x37
 2537 0c6c 627000   		.ascii	"bp\000"
 2538 0c6f 01       		.byte	0x1
 2539 0c70 1301     		.2byte	0x113
 2540 0c72 C3060000 		.4byte	0x6c3
 2541 0c76 01       		.uleb128 0x1
 2542 0c77 51       		.byte	0x51
 2543 0c78 38       		.uleb128 0x38
 2544 0c79 BA060000 		.4byte	.LASF129
 2545 0c7d 01       		.byte	0x1
 2546 0c7e 1301     		.2byte	0x113
 2547 0c80 28000000 		.4byte	0x28
 2548 0c84 01       		.uleb128 0x1
 2549 0c85 52       		.byte	0x52
 2550 0c86 38       		.uleb128 0x38
 2551 0c87 1C000000 		.4byte	.LASF139
 2552 0c8b 01       		.byte	0x1
 2553 0c8c 1401     		.2byte	0x114
 2554 0c8e A1060000 		.4byte	0x6a1
 2555 0c92 01       		.uleb128 0x1
 2556 0c93 53       		.byte	0x53
 2557 0c94 39       		.uleb128 0x39
 2558 0c95 E0010000 		.4byte	.LASF131
 2559 0c99 01       		.byte	0x1
 2560 0c9a 1401     		.2byte	0x114
 2561 0c9c 19030000 		.4byte	0x319
 2562 0ca0 67030000 		.4byte	.LLST24
 2563 0ca4 23       		.uleb128 0x23
 2564 0ca5 85070000 		.4byte	0x785
 2565 0ca9 0A000000 		.4byte	.LBB164
ARM GAS  /tmp/ccEPKsUv.s 			page 46


 2566 0cad 04000000 		.4byte	.LBE164-.LBB164
 2567 0cb1 01       		.byte	0x1
 2568 0cb2 1601     		.2byte	0x116
 2569 0cb4 22       		.uleb128 0x22
 2570 0cb5 92070000 		.4byte	0x792
 2571 0cb9 87030000 		.4byte	.LLST25
 2572 0cbd 23       		.uleb128 0x23
 2573 0cbe 16070000 		.4byte	0x716
 2574 0cc2 0A000000 		.4byte	.LBB165
 2575 0cc6 04000000 		.4byte	.LBE165-.LBB165
 2576 0cca 0F       		.byte	0xf
 2577 0ccb 1801     		.2byte	0x118
 2578 0ccd 22       		.uleb128 0x22
 2579 0cce 23070000 		.4byte	0x723
 2580 0cd2 87030000 		.4byte	.LLST25
 2581 0cd6 00       		.byte	0
 2582 0cd7 00       		.byte	0
 2583 0cd8 00       		.byte	0
 2584 0cd9 36       		.uleb128 0x36
 2585 0cda 41060000 		.4byte	.LASF140
 2586 0cde 01       		.byte	0x1
 2587 0cdf 2B01     		.2byte	0x12b
 2588 0ce1 00000000 		.4byte	.LFB233
 2589 0ce5 18000000 		.4byte	.LFE233-.LFB233
 2590 0ce9 01       		.uleb128 0x1
 2591 0cea 9C       		.byte	0x9c
 2592 0ceb 170D0000 		.4byte	0xd17
 2593 0cef 3A       		.uleb128 0x3a
 2594 0cf0 6F717000 		.ascii	"oqp\000"
 2595 0cf4 01       		.byte	0x1
 2596 0cf5 2B01     		.2byte	0x12b
 2597 0cf7 7F070000 		.4byte	0x77f
 2598 0cfb 9A030000 		.4byte	.LLST27
 2599 0cff 25       		.uleb128 0x25
 2600 0d00 18000000 		.4byte	.LVL50
 2601 0d04 AD100000 		.4byte	0x10ad
 2602 0d08 26       		.uleb128 0x26
 2603 0d09 01       		.uleb128 0x1
 2604 0d0a 50       		.byte	0x50
 2605 0d0b 03       		.uleb128 0x3
 2606 0d0c F3       		.byte	0xf3
 2607 0d0d 01       		.uleb128 0x1
 2608 0d0e 50       		.byte	0x50
 2609 0d0f 26       		.uleb128 0x26
 2610 0d10 01       		.uleb128 0x1
 2611 0d11 51       		.byte	0x51
 2612 0d12 02       		.uleb128 0x2
 2613 0d13 09       		.byte	0x9
 2614 0d14 FE       		.byte	0xfe
 2615 0d15 00       		.byte	0
 2616 0d16 00       		.byte	0
 2617 0d17 3B       		.uleb128 0x3b
 2618 0d18 00000000 		.4byte	.LASF141
 2619 0d1c 01       		.byte	0x1
 2620 0d1d 4B01     		.2byte	0x14b
 2621 0d1f 0D010000 		.4byte	0x10d
 2622 0d23 00000000 		.4byte	.LFB234
ARM GAS  /tmp/ccEPKsUv.s 			page 47


 2623 0d27 50000000 		.4byte	.LFE234-.LFB234
 2624 0d2b 01       		.uleb128 0x1
 2625 0d2c 9C       		.byte	0x9c
 2626 0d2d 6D0E0000 		.4byte	0xe6d
 2627 0d31 3A       		.uleb128 0x3a
 2628 0d32 6F717000 		.ascii	"oqp\000"
 2629 0d36 01       		.byte	0x1
 2630 0d37 4B01     		.2byte	0x14b
 2631 0d39 7F070000 		.4byte	0x77f
 2632 0d3d BB030000 		.4byte	.LLST28
 2633 0d41 3A       		.uleb128 0x3a
 2634 0d42 6200     		.ascii	"b\000"
 2635 0d44 01       		.byte	0x1
 2636 0d45 4B01     		.2byte	0x14b
 2637 0d47 A5000000 		.4byte	0xa5
 2638 0d4b EF030000 		.4byte	.LLST29
 2639 0d4f 39       		.uleb128 0x39
 2640 0d50 4C020000 		.4byte	.LASF136
 2641 0d54 01       		.byte	0x1
 2642 0d55 4B01     		.2byte	0x14b
 2643 0d57 2E010000 		.4byte	0x12e
 2644 0d5b 10040000 		.4byte	.LLST30
 2645 0d5f 3C       		.uleb128 0x3c
 2646 0d60 BD070000 		.4byte	0x7bd
 2647 0d64 08000000 		.4byte	.LBB167
 2648 0d68 08000000 		.4byte	.LBE167-.LBB167
 2649 0d6c 01       		.byte	0x1
 2650 0d6d 4D01     		.2byte	0x14d
 2651 0d6f 9F0D0000 		.4byte	0xd9f
 2652 0d73 23       		.uleb128 0x23
 2653 0d74 04070000 		.4byte	0x704
 2654 0d78 08000000 		.4byte	.LBB168
 2655 0d7c 08000000 		.4byte	.LBE168-.LBB168
 2656 0d80 10       		.byte	0x10
 2657 0d81 5C01     		.2byte	0x15c
 2658 0d83 23       		.uleb128 0x23
 2659 0d84 EA060000 		.4byte	0x6ea
 2660 0d88 08000000 		.4byte	.LBB169
 2661 0d8c 08000000 		.4byte	.LBE169-.LBB169
 2662 0d90 0B       		.byte	0xb
 2663 0d91 BF01     		.2byte	0x1bf
 2664 0d93 22       		.uleb128 0x22
 2665 0d94 F7060000 		.4byte	0x6f7
 2666 0d98 4F040000 		.4byte	.LLST31
 2667 0d9c 00       		.byte	0
 2668 0d9d 00       		.byte	0
 2669 0d9e 00       		.byte	0
 2670 0d9f 2C       		.uleb128 0x2c
 2671 0da0 80000000 		.4byte	.Ldebug_ranges0+0x80
 2672 0da4 110E0000 		.4byte	0xe11
 2673 0da8 3D       		.uleb128 0x3d
 2674 0da9 6D736700 		.ascii	"msg\000"
 2675 0dad 01       		.byte	0x1
 2676 0dae 4F01     		.2byte	0x14f
 2677 0db0 0D010000 		.4byte	0x10d
 2678 0db4 64040000 		.4byte	.LLST32
 2679 0db8 3C       		.uleb128 0x3c
ARM GAS  /tmp/ccEPKsUv.s 			page 48


 2680 0db9 C6070000 		.4byte	0x7c6
 2681 0dbd 4A000000 		.4byte	.LBB172
 2682 0dc1 04000000 		.4byte	.LBE172-.LBB172
 2683 0dc5 01       		.byte	0x1
 2684 0dc6 5101     		.2byte	0x151
 2685 0dc8 070E0000 		.4byte	0xe07
 2686 0dcc 2E       		.uleb128 0x2e
 2687 0dcd 4A000000 		.4byte	.LBB173
 2688 0dd1 04000000 		.4byte	.LBE173-.LBB173
 2689 0dd5 2F       		.uleb128 0x2f
 2690 0dd6 D3070000 		.4byte	0x7d3
 2691 0dda 23       		.uleb128 0x23
 2692 0ddb 0D070000 		.4byte	0x70d
 2693 0ddf 4A000000 		.4byte	.LBB174
 2694 0de3 04000000 		.4byte	.LBE174-.LBB174
 2695 0de7 10       		.byte	0x10
 2696 0de8 7301     		.2byte	0x173
 2697 0dea 23       		.uleb128 0x23
 2698 0deb EA060000 		.4byte	0x6ea
 2699 0def 4A000000 		.4byte	.LBB175
 2700 0df3 04000000 		.4byte	.LBE175-.LBB175
 2701 0df7 0B       		.byte	0xb
 2702 0df8 CD01     		.2byte	0x1cd
 2703 0dfa 22       		.uleb128 0x22
 2704 0dfb F7060000 		.4byte	0x6f7
 2705 0dff 82040000 		.4byte	.LLST33
 2706 0e03 00       		.byte	0
 2707 0e04 00       		.byte	0
 2708 0e05 00       		.byte	0
 2709 0e06 00       		.byte	0
 2710 0e07 30       		.uleb128 0x30
 2711 0e08 14000000 		.4byte	.LVL54
 2712 0e0c C3100000 		.4byte	0x10c3
 2713 0e10 00       		.byte	0
 2714 0e11 3C       		.uleb128 0x3c
 2715 0e12 C6070000 		.4byte	0x7c6
 2716 0e16 42000000 		.4byte	.LBB177
 2717 0e1a 06000000 		.4byte	.LBE177-.LBB177
 2718 0e1e 01       		.byte	0x1
 2719 0e1f 5F01     		.2byte	0x15f
 2720 0e21 600E0000 		.4byte	0xe60
 2721 0e25 2E       		.uleb128 0x2e
 2722 0e26 42000000 		.4byte	.LBB178
 2723 0e2a 06000000 		.4byte	.LBE178-.LBB178
 2724 0e2e 2F       		.uleb128 0x2f
 2725 0e2f D3070000 		.4byte	0x7d3
 2726 0e33 23       		.uleb128 0x23
 2727 0e34 0D070000 		.4byte	0x70d
 2728 0e38 42000000 		.4byte	.LBB179
 2729 0e3c 06000000 		.4byte	.LBE179-.LBB179
 2730 0e40 10       		.byte	0x10
 2731 0e41 7301     		.2byte	0x173
 2732 0e43 23       		.uleb128 0x23
 2733 0e44 EA060000 		.4byte	0x6ea
 2734 0e48 42000000 		.4byte	.LBB180
 2735 0e4c 06000000 		.4byte	.LBE180-.LBB180
 2736 0e50 0B       		.byte	0xb
ARM GAS  /tmp/ccEPKsUv.s 			page 49


 2737 0e51 CD01     		.2byte	0x1cd
 2738 0e53 22       		.uleb128 0x22
 2739 0e54 F7060000 		.4byte	0x6f7
 2740 0e58 96040000 		.4byte	.LLST34
 2741 0e5c 00       		.byte	0
 2742 0e5d 00       		.byte	0
 2743 0e5e 00       		.byte	0
 2744 0e5f 00       		.byte	0
 2745 0e60 31       		.uleb128 0x31
 2746 0e61 42000000 		.4byte	.LVL59
 2747 0e65 26       		.uleb128 0x26
 2748 0e66 01       		.uleb128 0x1
 2749 0e67 50       		.byte	0x50
 2750 0e68 02       		.uleb128 0x2
 2751 0e69 74       		.byte	0x74
 2752 0e6a 00       		.sleb128 0
 2753 0e6b 00       		.byte	0
 2754 0e6c 00       		.byte	0
 2755 0e6d 3B       		.uleb128 0x3b
 2756 0e6e 8B010000 		.4byte	.LASF142
 2757 0e72 01       		.byte	0x1
 2758 0e73 6E01     		.2byte	0x16e
 2759 0e75 0D010000 		.4byte	0x10d
 2760 0e79 00000000 		.4byte	.LFB235
 2761 0e7d 34000000 		.4byte	.LFE235-.LFB235
 2762 0e81 01       		.uleb128 0x1
 2763 0e82 9C       		.byte	0x9c
 2764 0e83 D30E0000 		.4byte	0xed3
 2765 0e87 3A       		.uleb128 0x3a
 2766 0e88 6F717000 		.ascii	"oqp\000"
 2767 0e8c 01       		.byte	0x1
 2768 0e8d 6E01     		.2byte	0x16e
 2769 0e8f 7F070000 		.4byte	0x77f
 2770 0e93 AA040000 		.4byte	.LLST35
 2771 0e97 3D       		.uleb128 0x3d
 2772 0e98 6200     		.ascii	"b\000"
 2773 0e9a 01       		.byte	0x1
 2774 0e9b 6F01     		.2byte	0x16f
 2775 0e9d A5000000 		.4byte	0xa5
 2776 0ea1 E4040000 		.4byte	.LLST36
 2777 0ea5 3E       		.uleb128 0x3e
 2778 0ea6 F6070000 		.4byte	0x7f6
 2779 0eaa 02000000 		.4byte	.LBB183
 2780 0eae 98000000 		.4byte	.Ldebug_ranges0+0x98
 2781 0eb2 01       		.byte	0x1
 2782 0eb3 7301     		.2byte	0x173
 2783 0eb5 C30E0000 		.4byte	0xec3
 2784 0eb9 22       		.uleb128 0x22
 2785 0eba 07080000 		.4byte	0x807
 2786 0ebe F7040000 		.4byte	.LLST37
 2787 0ec2 00       		.byte	0
 2788 0ec3 29       		.uleb128 0x29
 2789 0ec4 26000000 		.4byte	.LVL66
 2790 0ec8 B8100000 		.4byte	0x10b8
 2791 0ecc 26       		.uleb128 0x26
 2792 0ecd 01       		.uleb128 0x1
 2793 0ece 51       		.byte	0x51
ARM GAS  /tmp/ccEPKsUv.s 			page 50


 2794 0ecf 01       		.uleb128 0x1
 2795 0ed0 30       		.byte	0x30
 2796 0ed1 00       		.byte	0
 2797 0ed2 00       		.byte	0
 2798 0ed3 3F       		.uleb128 0x3f
 2799 0ed4 F1020000 		.4byte	.LASF143
 2800 0ed8 01       		.byte	0x1
 2801 0ed9 9A01     		.2byte	0x19a
 2802 0edb 28000000 		.4byte	0x28
 2803 0edf 00000000 		.4byte	.LFB236
 2804 0ee3 86000000 		.4byte	.LFE236-.LFB236
 2805 0ee7 01       		.uleb128 0x1
 2806 0ee8 9C       		.byte	0x9c
 2807 0ee9 81100000 		.4byte	0x1081
 2808 0eed 3A       		.uleb128 0x3a
 2809 0eee 6F717000 		.ascii	"oqp\000"
 2810 0ef2 01       		.byte	0x1
 2811 0ef3 9A01     		.2byte	0x19a
 2812 0ef5 7F070000 		.4byte	0x77f
 2813 0ef9 23050000 		.4byte	.LLST38
 2814 0efd 3A       		.uleb128 0x3a
 2815 0efe 627000   		.ascii	"bp\000"
 2816 0f01 01       		.byte	0x1
 2817 0f02 9A01     		.2byte	0x19a
 2818 0f04 DF060000 		.4byte	0x6df
 2819 0f08 6D050000 		.4byte	.LLST39
 2820 0f0c 3A       		.uleb128 0x3a
 2821 0f0d 6E00     		.ascii	"n\000"
 2822 0f0f 01       		.byte	0x1
 2823 0f10 9B01     		.2byte	0x19b
 2824 0f12 28000000 		.4byte	0x28
 2825 0f16 AC050000 		.4byte	.LLST40
 2826 0f1a 39       		.uleb128 0x39
 2827 0f1b 4C020000 		.4byte	.LASF136
 2828 0f1f 01       		.byte	0x1
 2829 0f20 9B01     		.2byte	0x19b
 2830 0f22 2E010000 		.4byte	0x12e
 2831 0f26 E2050000 		.4byte	.LLST41
 2832 0f2a 40       		.uleb128 0x40
 2833 0f2b 6E667900 		.ascii	"nfy\000"
 2834 0f2f 01       		.byte	0x1
 2835 0f30 9C01     		.2byte	0x19c
 2836 0f32 A1060000 		.4byte	0x6a1
 2837 0f36 01       		.uleb128 0x1
 2838 0f37 58       		.byte	0x58
 2839 0f38 3D       		.uleb128 0x3d
 2840 0f39 7700     		.ascii	"w\000"
 2841 0f3b 01       		.byte	0x1
 2842 0f3c 9D01     		.2byte	0x19d
 2843 0f3e 28000000 		.4byte	0x28
 2844 0f42 01060000 		.4byte	.LLST42
 2845 0f46 33       		.uleb128 0x33
 2846 0f47 49050000 		.4byte	.LASF144
 2847 0f4b 91100000 		.4byte	0x1091
 2848 0f4f 3C       		.uleb128 0x3c
 2849 0f50 BD070000 		.4byte	0x7bd
 2850 0f54 12000000 		.4byte	.LBB187
ARM GAS  /tmp/ccEPKsUv.s 			page 51


 2851 0f58 08000000 		.4byte	.LBE187-.LBB187
 2852 0f5c 01       		.byte	0x1
 2853 0f5d A101     		.2byte	0x1a1
 2854 0f5f 8F0F0000 		.4byte	0xf8f
 2855 0f63 23       		.uleb128 0x23
 2856 0f64 04070000 		.4byte	0x704
 2857 0f68 12000000 		.4byte	.LBB188
 2858 0f6c 08000000 		.4byte	.LBE188-.LBB188
 2859 0f70 10       		.byte	0x10
 2860 0f71 5C01     		.2byte	0x15c
 2861 0f73 23       		.uleb128 0x23
 2862 0f74 EA060000 		.4byte	0x6ea
 2863 0f78 12000000 		.4byte	.LBB189
 2864 0f7c 08000000 		.4byte	.LBE189-.LBB189
 2865 0f80 0B       		.byte	0xb
 2866 0f81 BF01     		.2byte	0x1bf
 2867 0f83 22       		.uleb128 0x22
 2868 0f84 F7060000 		.4byte	0x6f7
 2869 0f88 20060000 		.4byte	.LLST43
 2870 0f8c 00       		.byte	0
 2871 0f8d 00       		.byte	0
 2872 0f8e 00       		.byte	0
 2873 0f8f 3E       		.uleb128 0x3e
 2874 0f90 C6070000 		.4byte	0x7c6
 2875 0f94 1C000000 		.4byte	.LBB191
 2876 0f98 B0000000 		.4byte	.Ldebug_ranges0+0xb0
 2877 0f9c 01       		.byte	0x1
 2878 0f9d B301     		.2byte	0x1b3
 2879 0f9f DA0F0000 		.4byte	0xfda
 2880 0fa3 34       		.uleb128 0x34
 2881 0fa4 B0000000 		.4byte	.Ldebug_ranges0+0xb0
 2882 0fa8 2F       		.uleb128 0x2f
 2883 0fa9 D3070000 		.4byte	0x7d3
 2884 0fad 2B       		.uleb128 0x2b
 2885 0fae 0D070000 		.4byte	0x70d
 2886 0fb2 1C000000 		.4byte	.LBB193
 2887 0fb6 B0000000 		.4byte	.Ldebug_ranges0+0xb0
 2888 0fba 10       		.byte	0x10
 2889 0fbb 7301     		.2byte	0x173
 2890 0fbd 2B       		.uleb128 0x2b
 2891 0fbe EA060000 		.4byte	0x6ea
 2892 0fc2 1C000000 		.4byte	.LBB194
 2893 0fc6 B0000000 		.4byte	.Ldebug_ranges0+0xb0
 2894 0fca 0B       		.byte	0xb
 2895 0fcb CD01     		.2byte	0x1cd
 2896 0fcd 22       		.uleb128 0x22
 2897 0fce F7060000 		.4byte	0x6f7
 2898 0fd2 35060000 		.4byte	.LLST44
 2899 0fd6 00       		.byte	0
 2900 0fd7 00       		.byte	0
 2901 0fd8 00       		.byte	0
 2902 0fd9 00       		.byte	0
 2903 0fda 3C       		.uleb128 0x3c
 2904 0fdb BD070000 		.4byte	0x7bd
 2905 0fdf 56000000 		.4byte	.LBB201
 2906 0fe3 06000000 		.4byte	.LBE201-.LBB201
 2907 0fe7 01       		.byte	0x1
ARM GAS  /tmp/ccEPKsUv.s 			page 52


 2908 0fe8 B901     		.2byte	0x1b9
 2909 0fea 1A100000 		.4byte	0x101a
 2910 0fee 23       		.uleb128 0x23
 2911 0fef 04070000 		.4byte	0x704
 2912 0ff3 56000000 		.4byte	.LBB202
 2913 0ff7 06000000 		.4byte	.LBE202-.LBB202
 2914 0ffb 10       		.byte	0x10
 2915 0ffc 5C01     		.2byte	0x15c
 2916 0ffe 23       		.uleb128 0x23
 2917 0fff EA060000 		.4byte	0x6ea
 2918 1003 56000000 		.4byte	.LBB203
 2919 1007 06000000 		.4byte	.LBE203-.LBB203
 2920 100b 0B       		.byte	0xb
 2921 100c BF01     		.2byte	0x1bf
 2922 100e 22       		.uleb128 0x22
 2923 100f F7060000 		.4byte	0x6f7
 2924 1013 49060000 		.4byte	.LLST45
 2925 1017 00       		.byte	0
 2926 1018 00       		.byte	0
 2927 1019 00       		.byte	0
 2928 101a 3C       		.uleb128 0x3c
 2929 101b C6070000 		.4byte	0x7c6
 2930 101f 7A000000 		.4byte	.LBB205
 2931 1023 04000000 		.4byte	.LBE205-.LBB205
 2932 1027 01       		.byte	0x1
 2933 1028 A501     		.2byte	0x1a5
 2934 102a 69100000 		.4byte	0x1069
 2935 102e 2E       		.uleb128 0x2e
 2936 102f 7A000000 		.4byte	.LBB206
 2937 1033 04000000 		.4byte	.LBE206-.LBB206
 2938 1037 2F       		.uleb128 0x2f
 2939 1038 D3070000 		.4byte	0x7d3
 2940 103c 23       		.uleb128 0x23
 2941 103d 0D070000 		.4byte	0x70d
 2942 1041 7A000000 		.4byte	.LBB207
 2943 1045 04000000 		.4byte	.LBE207-.LBB207
 2944 1049 10       		.byte	0x10
 2945 104a 7301     		.2byte	0x173
 2946 104c 23       		.uleb128 0x23
 2947 104d EA060000 		.4byte	0x6ea
 2948 1051 7A000000 		.4byte	.LBB208
 2949 1055 04000000 		.4byte	.LBE208-.LBB208
 2950 1059 0B       		.byte	0xb
 2951 105a CD01     		.2byte	0x1cd
 2952 105c 22       		.uleb128 0x22
 2953 105d F7060000 		.4byte	0x6f7
 2954 1061 5E060000 		.4byte	.LLST46
 2955 1065 00       		.byte	0
 2956 1066 00       		.byte	0
 2957 1067 00       		.byte	0
 2958 1068 00       		.byte	0
 2959 1069 29       		.uleb128 0x29
 2960 106a 74000000 		.4byte	.LVL85
 2961 106e C3100000 		.4byte	0x10c3
 2962 1072 26       		.uleb128 0x26
 2963 1073 01       		.uleb128 0x1
 2964 1074 50       		.byte	0x50
ARM GAS  /tmp/ccEPKsUv.s 			page 53


 2965 1075 02       		.uleb128 0x2
 2966 1076 74       		.byte	0x74
 2967 1077 00       		.sleb128 0
 2968 1078 26       		.uleb128 0x26
 2969 1079 01       		.uleb128 0x1
 2970 107a 51       		.byte	0x51
 2971 107b 03       		.uleb128 0x3
 2972 107c 91       		.byte	0x91
 2973 107d 54       		.sleb128 -44
 2974 107e 06       		.byte	0x6
 2975 107f 00       		.byte	0
 2976 1080 00       		.byte	0
 2977 1081 15       		.uleb128 0x15
 2978 1082 F8050000 		.4byte	0x5f8
 2979 1086 91100000 		.4byte	0x1091
 2980 108a 16       		.uleb128 0x16
 2981 108b 4F040000 		.4byte	0x44f
 2982 108f 10       		.byte	0x10
 2983 1090 00       		.byte	0
 2984 1091 14       		.uleb128 0x14
 2985 1092 81100000 		.4byte	0x1081
 2986 1096 41       		.uleb128 0x41
 2987 1097 E3000000 		.4byte	.LASF145
 2988 109b 11       		.byte	0x11
 2989 109c A706     		.2byte	0x6a7
 2990 109e D1000000 		.4byte	0xd1
 2991 10a2 42       		.uleb128 0x42
 2992 10a3 636800   		.ascii	"ch\000"
 2993 10a6 02       		.byte	0x2
 2994 10a7 0902     		.2byte	0x209
 2995 10a9 E8030000 		.4byte	0x3e8
 2996 10ad 43       		.uleb128 0x43
 2997 10ae 38000000 		.4byte	.LASF146
 2998 10b2 38000000 		.4byte	.LASF146
 2999 10b6 0F       		.byte	0xf
 3000 10b7 94       		.byte	0x94
 3001 10b8 43       		.uleb128 0x43
 3002 10b9 A5010000 		.4byte	.LASF147
 3003 10bd A5010000 		.4byte	.LASF147
 3004 10c1 0F       		.byte	0xf
 3005 10c2 93       		.byte	0x93
 3006 10c3 43       		.uleb128 0x43
 3007 10c4 19070000 		.4byte	.LASF148
 3008 10c8 19070000 		.4byte	.LASF148
 3009 10cc 0F       		.byte	0xf
 3010 10cd 92       		.byte	0x92
 3011 10ce 00       		.byte	0
 3012              		.section	.debug_abbrev,"",%progbits
 3013              	.Ldebug_abbrev0:
 3014 0000 01       		.uleb128 0x1
 3015 0001 11       		.uleb128 0x11
 3016 0002 01       		.byte	0x1
 3017 0003 25       		.uleb128 0x25
 3018 0004 0E       		.uleb128 0xe
 3019 0005 13       		.uleb128 0x13
 3020 0006 0B       		.uleb128 0xb
 3021 0007 03       		.uleb128 0x3
ARM GAS  /tmp/ccEPKsUv.s 			page 54


 3022 0008 0E       		.uleb128 0xe
 3023 0009 55       		.uleb128 0x55
 3024 000a 17       		.uleb128 0x17
 3025 000b 11       		.uleb128 0x11
 3026 000c 01       		.uleb128 0x1
 3027 000d 10       		.uleb128 0x10
 3028 000e 17       		.uleb128 0x17
 3029 000f 00       		.byte	0
 3030 0010 00       		.byte	0
 3031 0011 02       		.uleb128 0x2
 3032 0012 24       		.uleb128 0x24
 3033 0013 00       		.byte	0
 3034 0014 0B       		.uleb128 0xb
 3035 0015 0B       		.uleb128 0xb
 3036 0016 3E       		.uleb128 0x3e
 3037 0017 0B       		.uleb128 0xb
 3038 0018 03       		.uleb128 0x3
 3039 0019 08       		.uleb128 0x8
 3040 001a 00       		.byte	0
 3041 001b 00       		.byte	0
 3042 001c 03       		.uleb128 0x3
 3043 001d 16       		.uleb128 0x16
 3044 001e 00       		.byte	0
 3045 001f 03       		.uleb128 0x3
 3046 0020 0E       		.uleb128 0xe
 3047 0021 3A       		.uleb128 0x3a
 3048 0022 0B       		.uleb128 0xb
 3049 0023 3B       		.uleb128 0x3b
 3050 0024 0B       		.uleb128 0xb
 3051 0025 49       		.uleb128 0x49
 3052 0026 13       		.uleb128 0x13
 3053 0027 00       		.byte	0
 3054 0028 00       		.byte	0
 3055 0029 04       		.uleb128 0x4
 3056 002a 24       		.uleb128 0x24
 3057 002b 00       		.byte	0
 3058 002c 0B       		.uleb128 0xb
 3059 002d 0B       		.uleb128 0xb
 3060 002e 3E       		.uleb128 0x3e
 3061 002f 0B       		.uleb128 0xb
 3062 0030 03       		.uleb128 0x3
 3063 0031 0E       		.uleb128 0xe
 3064 0032 00       		.byte	0
 3065 0033 00       		.byte	0
 3066 0034 05       		.uleb128 0x5
 3067 0035 35       		.uleb128 0x35
 3068 0036 00       		.byte	0
 3069 0037 49       		.uleb128 0x49
 3070 0038 13       		.uleb128 0x13
 3071 0039 00       		.byte	0
 3072 003a 00       		.byte	0
 3073 003b 06       		.uleb128 0x6
 3074 003c 13       		.uleb128 0x13
 3075 003d 01       		.byte	0x1
 3076 003e 03       		.uleb128 0x3
 3077 003f 0E       		.uleb128 0xe
 3078 0040 0B       		.uleb128 0xb
ARM GAS  /tmp/ccEPKsUv.s 			page 55


 3079 0041 0B       		.uleb128 0xb
 3080 0042 3A       		.uleb128 0x3a
 3081 0043 0B       		.uleb128 0xb
 3082 0044 3B       		.uleb128 0x3b
 3083 0045 0B       		.uleb128 0xb
 3084 0046 01       		.uleb128 0x1
 3085 0047 13       		.uleb128 0x13
 3086 0048 00       		.byte	0
 3087 0049 00       		.byte	0
 3088 004a 07       		.uleb128 0x7
 3089 004b 0D       		.uleb128 0xd
 3090 004c 00       		.byte	0
 3091 004d 03       		.uleb128 0x3
 3092 004e 0E       		.uleb128 0xe
 3093 004f 3A       		.uleb128 0x3a
 3094 0050 0B       		.uleb128 0xb
 3095 0051 3B       		.uleb128 0x3b
 3096 0052 0B       		.uleb128 0xb
 3097 0053 49       		.uleb128 0x49
 3098 0054 13       		.uleb128 0x13
 3099 0055 38       		.uleb128 0x38
 3100 0056 0B       		.uleb128 0xb
 3101 0057 00       		.byte	0
 3102 0058 00       		.byte	0
 3103 0059 08       		.uleb128 0x8
 3104 005a 0D       		.uleb128 0xd
 3105 005b 00       		.byte	0
 3106 005c 03       		.uleb128 0x3
 3107 005d 08       		.uleb128 0x8
 3108 005e 3A       		.uleb128 0x3a
 3109 005f 0B       		.uleb128 0xb
 3110 0060 3B       		.uleb128 0x3b
 3111 0061 05       		.uleb128 0x5
 3112 0062 49       		.uleb128 0x49
 3113 0063 13       		.uleb128 0x13
 3114 0064 38       		.uleb128 0x38
 3115 0065 0B       		.uleb128 0xb
 3116 0066 00       		.byte	0
 3117 0067 00       		.byte	0
 3118 0068 09       		.uleb128 0x9
 3119 0069 0D       		.uleb128 0xd
 3120 006a 00       		.byte	0
 3121 006b 03       		.uleb128 0x3
 3122 006c 0E       		.uleb128 0xe
 3123 006d 3A       		.uleb128 0x3a
 3124 006e 0B       		.uleb128 0xb
 3125 006f 3B       		.uleb128 0x3b
 3126 0070 05       		.uleb128 0x5
 3127 0071 49       		.uleb128 0x49
 3128 0072 13       		.uleb128 0x13
 3129 0073 38       		.uleb128 0x38
 3130 0074 0B       		.uleb128 0xb
 3131 0075 00       		.byte	0
 3132 0076 00       		.byte	0
 3133 0077 0A       		.uleb128 0xa
 3134 0078 0F       		.uleb128 0xf
 3135 0079 00       		.byte	0
ARM GAS  /tmp/ccEPKsUv.s 			page 56


 3136 007a 0B       		.uleb128 0xb
 3137 007b 0B       		.uleb128 0xb
 3138 007c 49       		.uleb128 0x49
 3139 007d 13       		.uleb128 0x13
 3140 007e 00       		.byte	0
 3141 007f 00       		.byte	0
 3142 0080 0B       		.uleb128 0xb
 3143 0081 13       		.uleb128 0x13
 3144 0082 01       		.byte	0x1
 3145 0083 03       		.uleb128 0x3
 3146 0084 0E       		.uleb128 0xe
 3147 0085 0B       		.uleb128 0xb
 3148 0086 0B       		.uleb128 0xb
 3149 0087 3A       		.uleb128 0x3a
 3150 0088 0B       		.uleb128 0xb
 3151 0089 3B       		.uleb128 0x3b
 3152 008a 05       		.uleb128 0x5
 3153 008b 01       		.uleb128 0x1
 3154 008c 13       		.uleb128 0x13
 3155 008d 00       		.byte	0
 3156 008e 00       		.byte	0
 3157 008f 0C       		.uleb128 0xc
 3158 0090 15       		.uleb128 0x15
 3159 0091 01       		.byte	0x1
 3160 0092 27       		.uleb128 0x27
 3161 0093 19       		.uleb128 0x19
 3162 0094 01       		.uleb128 0x1
 3163 0095 13       		.uleb128 0x13
 3164 0096 00       		.byte	0
 3165 0097 00       		.byte	0
 3166 0098 0D       		.uleb128 0xd
 3167 0099 05       		.uleb128 0x5
 3168 009a 00       		.byte	0
 3169 009b 49       		.uleb128 0x49
 3170 009c 13       		.uleb128 0x13
 3171 009d 00       		.byte	0
 3172 009e 00       		.byte	0
 3173 009f 0E       		.uleb128 0xe
 3174 00a0 0F       		.uleb128 0xf
 3175 00a1 00       		.byte	0
 3176 00a2 0B       		.uleb128 0xb
 3177 00a3 0B       		.uleb128 0xb
 3178 00a4 00       		.byte	0
 3179 00a5 00       		.byte	0
 3180 00a6 0F       		.uleb128 0xf
 3181 00a7 13       		.uleb128 0x13
 3182 00a8 01       		.byte	0x1
 3183 00a9 03       		.uleb128 0x3
 3184 00aa 0E       		.uleb128 0xe
 3185 00ab 0B       		.uleb128 0xb
 3186 00ac 05       		.uleb128 0x5
 3187 00ad 3A       		.uleb128 0x3a
 3188 00ae 0B       		.uleb128 0xb
 3189 00af 3B       		.uleb128 0x3b
 3190 00b0 05       		.uleb128 0x5
 3191 00b1 01       		.uleb128 0x1
 3192 00b2 13       		.uleb128 0x13
ARM GAS  /tmp/ccEPKsUv.s 			page 57


 3193 00b3 00       		.byte	0
 3194 00b4 00       		.byte	0
 3195 00b5 10       		.uleb128 0x10
 3196 00b6 0D       		.uleb128 0xd
 3197 00b7 00       		.byte	0
 3198 00b8 03       		.uleb128 0x3
 3199 00b9 08       		.uleb128 0x8
 3200 00ba 3A       		.uleb128 0x3a
 3201 00bb 0B       		.uleb128 0xb
 3202 00bc 3B       		.uleb128 0x3b
 3203 00bd 0B       		.uleb128 0xb
 3204 00be 49       		.uleb128 0x49
 3205 00bf 13       		.uleb128 0x13
 3206 00c0 38       		.uleb128 0x38
 3207 00c1 0B       		.uleb128 0xb
 3208 00c2 00       		.byte	0
 3209 00c3 00       		.byte	0
 3210 00c4 11       		.uleb128 0x11
 3211 00c5 13       		.uleb128 0x13
 3212 00c6 01       		.byte	0x1
 3213 00c7 0B       		.uleb128 0xb
 3214 00c8 0B       		.uleb128 0xb
 3215 00c9 3A       		.uleb128 0x3a
 3216 00ca 0B       		.uleb128 0xb
 3217 00cb 3B       		.uleb128 0x3b
 3218 00cc 0B       		.uleb128 0xb
 3219 00cd 01       		.uleb128 0x1
 3220 00ce 13       		.uleb128 0x13
 3221 00cf 00       		.byte	0
 3222 00d0 00       		.byte	0
 3223 00d1 12       		.uleb128 0x12
 3224 00d2 17       		.uleb128 0x17
 3225 00d3 01       		.byte	0x1
 3226 00d4 0B       		.uleb128 0xb
 3227 00d5 0B       		.uleb128 0xb
 3228 00d6 3A       		.uleb128 0x3a
 3229 00d7 0B       		.uleb128 0xb
 3230 00d8 3B       		.uleb128 0x3b
 3231 00d9 0B       		.uleb128 0xb
 3232 00da 01       		.uleb128 0x1
 3233 00db 13       		.uleb128 0x13
 3234 00dc 00       		.byte	0
 3235 00dd 00       		.byte	0
 3236 00de 13       		.uleb128 0x13
 3237 00df 0D       		.uleb128 0xd
 3238 00e0 00       		.byte	0
 3239 00e1 03       		.uleb128 0x3
 3240 00e2 0E       		.uleb128 0xe
 3241 00e3 3A       		.uleb128 0x3a
 3242 00e4 0B       		.uleb128 0xb
 3243 00e5 3B       		.uleb128 0x3b
 3244 00e6 05       		.uleb128 0x5
 3245 00e7 49       		.uleb128 0x49
 3246 00e8 13       		.uleb128 0x13
 3247 00e9 00       		.byte	0
 3248 00ea 00       		.byte	0
 3249 00eb 14       		.uleb128 0x14
ARM GAS  /tmp/ccEPKsUv.s 			page 58


 3250 00ec 26       		.uleb128 0x26
 3251 00ed 00       		.byte	0
 3252 00ee 49       		.uleb128 0x49
 3253 00ef 13       		.uleb128 0x13
 3254 00f0 00       		.byte	0
 3255 00f1 00       		.byte	0
 3256 00f2 15       		.uleb128 0x15
 3257 00f3 01       		.uleb128 0x1
 3258 00f4 01       		.byte	0x1
 3259 00f5 49       		.uleb128 0x49
 3260 00f6 13       		.uleb128 0x13
 3261 00f7 01       		.uleb128 0x1
 3262 00f8 13       		.uleb128 0x13
 3263 00f9 00       		.byte	0
 3264 00fa 00       		.byte	0
 3265 00fb 16       		.uleb128 0x16
 3266 00fc 21       		.uleb128 0x21
 3267 00fd 00       		.byte	0
 3268 00fe 49       		.uleb128 0x49
 3269 00ff 13       		.uleb128 0x13
 3270 0100 2F       		.uleb128 0x2f
 3271 0101 0B       		.uleb128 0xb
 3272 0102 00       		.byte	0
 3273 0103 00       		.byte	0
 3274 0104 17       		.uleb128 0x17
 3275 0105 2E       		.uleb128 0x2e
 3276 0106 01       		.byte	0x1
 3277 0107 03       		.uleb128 0x3
 3278 0108 0E       		.uleb128 0xe
 3279 0109 3A       		.uleb128 0x3a
 3280 010a 0B       		.uleb128 0xb
 3281 010b 3B       		.uleb128 0x3b
 3282 010c 05       		.uleb128 0x5
 3283 010d 27       		.uleb128 0x27
 3284 010e 19       		.uleb128 0x19
 3285 010f 20       		.uleb128 0x20
 3286 0110 0B       		.uleb128 0xb
 3287 0111 01       		.uleb128 0x1
 3288 0112 13       		.uleb128 0x13
 3289 0113 00       		.byte	0
 3290 0114 00       		.byte	0
 3291 0115 18       		.uleb128 0x18
 3292 0116 05       		.uleb128 0x5
 3293 0117 00       		.byte	0
 3294 0118 03       		.uleb128 0x3
 3295 0119 0E       		.uleb128 0xe
 3296 011a 3A       		.uleb128 0x3a
 3297 011b 0B       		.uleb128 0xb
 3298 011c 3B       		.uleb128 0x3b
 3299 011d 05       		.uleb128 0x5
 3300 011e 49       		.uleb128 0x49
 3301 011f 13       		.uleb128 0x13
 3302 0120 00       		.byte	0
 3303 0121 00       		.byte	0
 3304 0122 19       		.uleb128 0x19
 3305 0123 2E       		.uleb128 0x2e
 3306 0124 00       		.byte	0
ARM GAS  /tmp/ccEPKsUv.s 			page 59


 3307 0125 03       		.uleb128 0x3
 3308 0126 0E       		.uleb128 0xe
 3309 0127 3A       		.uleb128 0x3a
 3310 0128 0B       		.uleb128 0xb
 3311 0129 3B       		.uleb128 0x3b
 3312 012a 05       		.uleb128 0x5
 3313 012b 27       		.uleb128 0x27
 3314 012c 19       		.uleb128 0x19
 3315 012d 20       		.uleb128 0x20
 3316 012e 0B       		.uleb128 0xb
 3317 012f 00       		.byte	0
 3318 0130 00       		.byte	0
 3319 0131 1A       		.uleb128 0x1a
 3320 0132 05       		.uleb128 0x5
 3321 0133 00       		.byte	0
 3322 0134 03       		.uleb128 0x3
 3323 0135 08       		.uleb128 0x8
 3324 0136 3A       		.uleb128 0x3a
 3325 0137 0B       		.uleb128 0xb
 3326 0138 3B       		.uleb128 0x3b
 3327 0139 05       		.uleb128 0x5
 3328 013a 49       		.uleb128 0x49
 3329 013b 13       		.uleb128 0x13
 3330 013c 00       		.byte	0
 3331 013d 00       		.byte	0
 3332 013e 1B       		.uleb128 0x1b
 3333 013f 2E       		.uleb128 0x2e
 3334 0140 01       		.byte	0x1
 3335 0141 03       		.uleb128 0x3
 3336 0142 0E       		.uleb128 0xe
 3337 0143 3A       		.uleb128 0x3a
 3338 0144 0B       		.uleb128 0xb
 3339 0145 3B       		.uleb128 0x3b
 3340 0146 05       		.uleb128 0x5
 3341 0147 27       		.uleb128 0x27
 3342 0148 19       		.uleb128 0x19
 3343 0149 49       		.uleb128 0x49
 3344 014a 13       		.uleb128 0x13
 3345 014b 20       		.uleb128 0x20
 3346 014c 0B       		.uleb128 0xb
 3347 014d 01       		.uleb128 0x1
 3348 014e 13       		.uleb128 0x13
 3349 014f 00       		.byte	0
 3350 0150 00       		.byte	0
 3351 0151 1C       		.uleb128 0x1c
 3352 0152 34       		.uleb128 0x34
 3353 0153 00       		.byte	0
 3354 0154 03       		.uleb128 0x3
 3355 0155 0E       		.uleb128 0xe
 3356 0156 49       		.uleb128 0x49
 3357 0157 13       		.uleb128 0x13
 3358 0158 34       		.uleb128 0x34
 3359 0159 19       		.uleb128 0x19
 3360 015a 1C       		.uleb128 0x1c
 3361 015b 0E       		.uleb128 0xe
 3362 015c 00       		.byte	0
 3363 015d 00       		.byte	0
ARM GAS  /tmp/ccEPKsUv.s 			page 60


 3364 015e 1D       		.uleb128 0x1d
 3365 015f 2E       		.uleb128 0x2e
 3366 0160 01       		.byte	0x1
 3367 0161 3F       		.uleb128 0x3f
 3368 0162 19       		.uleb128 0x19
 3369 0163 03       		.uleb128 0x3
 3370 0164 0E       		.uleb128 0xe
 3371 0165 3A       		.uleb128 0x3a
 3372 0166 0B       		.uleb128 0xb
 3373 0167 3B       		.uleb128 0x3b
 3374 0168 0B       		.uleb128 0xb
 3375 0169 27       		.uleb128 0x27
 3376 016a 19       		.uleb128 0x19
 3377 016b 11       		.uleb128 0x11
 3378 016c 01       		.uleb128 0x1
 3379 016d 12       		.uleb128 0x12
 3380 016e 06       		.uleb128 0x6
 3381 016f 40       		.uleb128 0x40
 3382 0170 18       		.uleb128 0x18
 3383 0171 9742     		.uleb128 0x2117
 3384 0173 19       		.uleb128 0x19
 3385 0174 01       		.uleb128 0x1
 3386 0175 13       		.uleb128 0x13
 3387 0176 00       		.byte	0
 3388 0177 00       		.byte	0
 3389 0178 1E       		.uleb128 0x1e
 3390 0179 05       		.uleb128 0x5
 3391 017a 00       		.byte	0
 3392 017b 03       		.uleb128 0x3
 3393 017c 08       		.uleb128 0x8
 3394 017d 3A       		.uleb128 0x3a
 3395 017e 0B       		.uleb128 0xb
 3396 017f 3B       		.uleb128 0x3b
 3397 0180 0B       		.uleb128 0xb
 3398 0181 49       		.uleb128 0x49
 3399 0182 13       		.uleb128 0x13
 3400 0183 02       		.uleb128 0x2
 3401 0184 18       		.uleb128 0x18
 3402 0185 00       		.byte	0
 3403 0186 00       		.byte	0
 3404 0187 1F       		.uleb128 0x1f
 3405 0188 05       		.uleb128 0x5
 3406 0189 00       		.byte	0
 3407 018a 03       		.uleb128 0x3
 3408 018b 0E       		.uleb128 0xe
 3409 018c 3A       		.uleb128 0x3a
 3410 018d 0B       		.uleb128 0xb
 3411 018e 3B       		.uleb128 0x3b
 3412 018f 0B       		.uleb128 0xb
 3413 0190 49       		.uleb128 0x49
 3414 0191 13       		.uleb128 0x13
 3415 0192 02       		.uleb128 0x2
 3416 0193 17       		.uleb128 0x17
 3417 0194 00       		.byte	0
 3418 0195 00       		.byte	0
 3419 0196 20       		.uleb128 0x20
 3420 0197 05       		.uleb128 0x5
ARM GAS  /tmp/ccEPKsUv.s 			page 61


 3421 0198 00       		.byte	0
 3422 0199 03       		.uleb128 0x3
 3423 019a 0E       		.uleb128 0xe
 3424 019b 3A       		.uleb128 0x3a
 3425 019c 0B       		.uleb128 0xb
 3426 019d 3B       		.uleb128 0x3b
 3427 019e 0B       		.uleb128 0xb
 3428 019f 49       		.uleb128 0x49
 3429 01a0 13       		.uleb128 0x13
 3430 01a1 02       		.uleb128 0x2
 3431 01a2 18       		.uleb128 0x18
 3432 01a3 00       		.byte	0
 3433 01a4 00       		.byte	0
 3434 01a5 21       		.uleb128 0x21
 3435 01a6 1D       		.uleb128 0x1d
 3436 01a7 01       		.byte	0x1
 3437 01a8 31       		.uleb128 0x31
 3438 01a9 13       		.uleb128 0x13
 3439 01aa 11       		.uleb128 0x11
 3440 01ab 01       		.uleb128 0x1
 3441 01ac 12       		.uleb128 0x12
 3442 01ad 06       		.uleb128 0x6
 3443 01ae 58       		.uleb128 0x58
 3444 01af 0B       		.uleb128 0xb
 3445 01b0 59       		.uleb128 0x59
 3446 01b1 0B       		.uleb128 0xb
 3447 01b2 00       		.byte	0
 3448 01b3 00       		.byte	0
 3449 01b4 22       		.uleb128 0x22
 3450 01b5 05       		.uleb128 0x5
 3451 01b6 00       		.byte	0
 3452 01b7 31       		.uleb128 0x31
 3453 01b8 13       		.uleb128 0x13
 3454 01b9 02       		.uleb128 0x2
 3455 01ba 17       		.uleb128 0x17
 3456 01bb 00       		.byte	0
 3457 01bc 00       		.byte	0
 3458 01bd 23       		.uleb128 0x23
 3459 01be 1D       		.uleb128 0x1d
 3460 01bf 01       		.byte	0x1
 3461 01c0 31       		.uleb128 0x31
 3462 01c1 13       		.uleb128 0x13
 3463 01c2 11       		.uleb128 0x11
 3464 01c3 01       		.uleb128 0x1
 3465 01c4 12       		.uleb128 0x12
 3466 01c5 06       		.uleb128 0x6
 3467 01c6 58       		.uleb128 0x58
 3468 01c7 0B       		.uleb128 0xb
 3469 01c8 59       		.uleb128 0x59
 3470 01c9 05       		.uleb128 0x5
 3471 01ca 00       		.byte	0
 3472 01cb 00       		.byte	0
 3473 01cc 24       		.uleb128 0x24
 3474 01cd 05       		.uleb128 0x5
 3475 01ce 00       		.byte	0
 3476 01cf 03       		.uleb128 0x3
 3477 01d0 08       		.uleb128 0x8
ARM GAS  /tmp/ccEPKsUv.s 			page 62


 3478 01d1 3A       		.uleb128 0x3a
 3479 01d2 0B       		.uleb128 0xb
 3480 01d3 3B       		.uleb128 0x3b
 3481 01d4 0B       		.uleb128 0xb
 3482 01d5 49       		.uleb128 0x49
 3483 01d6 13       		.uleb128 0x13
 3484 01d7 02       		.uleb128 0x2
 3485 01d8 17       		.uleb128 0x17
 3486 01d9 00       		.byte	0
 3487 01da 00       		.byte	0
 3488 01db 25       		.uleb128 0x25
 3489 01dc 898201   		.uleb128 0x4109
 3490 01df 01       		.byte	0x1
 3491 01e0 11       		.uleb128 0x11
 3492 01e1 01       		.uleb128 0x1
 3493 01e2 9542     		.uleb128 0x2115
 3494 01e4 19       		.uleb128 0x19
 3495 01e5 31       		.uleb128 0x31
 3496 01e6 13       		.uleb128 0x13
 3497 01e7 00       		.byte	0
 3498 01e8 00       		.byte	0
 3499 01e9 26       		.uleb128 0x26
 3500 01ea 8A8201   		.uleb128 0x410a
 3501 01ed 00       		.byte	0
 3502 01ee 02       		.uleb128 0x2
 3503 01ef 18       		.uleb128 0x18
 3504 01f0 9142     		.uleb128 0x2111
 3505 01f2 18       		.uleb128 0x18
 3506 01f3 00       		.byte	0
 3507 01f4 00       		.byte	0
 3508 01f5 27       		.uleb128 0x27
 3509 01f6 2E       		.uleb128 0x2e
 3510 01f7 01       		.byte	0x1
 3511 01f8 3F       		.uleb128 0x3f
 3512 01f9 19       		.uleb128 0x19
 3513 01fa 03       		.uleb128 0x3
 3514 01fb 0E       		.uleb128 0xe
 3515 01fc 3A       		.uleb128 0x3a
 3516 01fd 0B       		.uleb128 0xb
 3517 01fe 3B       		.uleb128 0x3b
 3518 01ff 0B       		.uleb128 0xb
 3519 0200 27       		.uleb128 0x27
 3520 0201 19       		.uleb128 0x19
 3521 0202 49       		.uleb128 0x49
 3522 0203 13       		.uleb128 0x13
 3523 0204 11       		.uleb128 0x11
 3524 0205 01       		.uleb128 0x1
 3525 0206 12       		.uleb128 0x12
 3526 0207 06       		.uleb128 0x6
 3527 0208 40       		.uleb128 0x40
 3528 0209 18       		.uleb128 0x18
 3529 020a 9742     		.uleb128 0x2117
 3530 020c 19       		.uleb128 0x19
 3531 020d 01       		.uleb128 0x1
 3532 020e 13       		.uleb128 0x13
 3533 020f 00       		.byte	0
 3534 0210 00       		.byte	0
ARM GAS  /tmp/ccEPKsUv.s 			page 63


 3535 0211 28       		.uleb128 0x28
 3536 0212 1D       		.uleb128 0x1d
 3537 0213 01       		.byte	0x1
 3538 0214 31       		.uleb128 0x31
 3539 0215 13       		.uleb128 0x13
 3540 0216 52       		.uleb128 0x52
 3541 0217 01       		.uleb128 0x1
 3542 0218 55       		.uleb128 0x55
 3543 0219 17       		.uleb128 0x17
 3544 021a 58       		.uleb128 0x58
 3545 021b 0B       		.uleb128 0xb
 3546 021c 59       		.uleb128 0x59
 3547 021d 0B       		.uleb128 0xb
 3548 021e 01       		.uleb128 0x1
 3549 021f 13       		.uleb128 0x13
 3550 0220 00       		.byte	0
 3551 0221 00       		.byte	0
 3552 0222 29       		.uleb128 0x29
 3553 0223 898201   		.uleb128 0x4109
 3554 0226 01       		.byte	0x1
 3555 0227 11       		.uleb128 0x11
 3556 0228 01       		.uleb128 0x1
 3557 0229 31       		.uleb128 0x31
 3558 022a 13       		.uleb128 0x13
 3559 022b 00       		.byte	0
 3560 022c 00       		.byte	0
 3561 022d 2A       		.uleb128 0x2a
 3562 022e 34       		.uleb128 0x34
 3563 022f 00       		.byte	0
 3564 0230 03       		.uleb128 0x3
 3565 0231 08       		.uleb128 0x8
 3566 0232 3A       		.uleb128 0x3a
 3567 0233 0B       		.uleb128 0xb
 3568 0234 3B       		.uleb128 0x3b
 3569 0235 0B       		.uleb128 0xb
 3570 0236 49       		.uleb128 0x49
 3571 0237 13       		.uleb128 0x13
 3572 0238 02       		.uleb128 0x2
 3573 0239 17       		.uleb128 0x17
 3574 023a 00       		.byte	0
 3575 023b 00       		.byte	0
 3576 023c 2B       		.uleb128 0x2b
 3577 023d 1D       		.uleb128 0x1d
 3578 023e 01       		.byte	0x1
 3579 023f 31       		.uleb128 0x31
 3580 0240 13       		.uleb128 0x13
 3581 0241 52       		.uleb128 0x52
 3582 0242 01       		.uleb128 0x1
 3583 0243 55       		.uleb128 0x55
 3584 0244 17       		.uleb128 0x17
 3585 0245 58       		.uleb128 0x58
 3586 0246 0B       		.uleb128 0xb
 3587 0247 59       		.uleb128 0x59
 3588 0248 05       		.uleb128 0x5
 3589 0249 00       		.byte	0
 3590 024a 00       		.byte	0
 3591 024b 2C       		.uleb128 0x2c
ARM GAS  /tmp/ccEPKsUv.s 			page 64


 3592 024c 0B       		.uleb128 0xb
 3593 024d 01       		.byte	0x1
 3594 024e 55       		.uleb128 0x55
 3595 024f 17       		.uleb128 0x17
 3596 0250 01       		.uleb128 0x1
 3597 0251 13       		.uleb128 0x13
 3598 0252 00       		.byte	0
 3599 0253 00       		.byte	0
 3600 0254 2D       		.uleb128 0x2d
 3601 0255 1D       		.uleb128 0x1d
 3602 0256 01       		.byte	0x1
 3603 0257 31       		.uleb128 0x31
 3604 0258 13       		.uleb128 0x13
 3605 0259 11       		.uleb128 0x11
 3606 025a 01       		.uleb128 0x1
 3607 025b 12       		.uleb128 0x12
 3608 025c 06       		.uleb128 0x6
 3609 025d 58       		.uleb128 0x58
 3610 025e 0B       		.uleb128 0xb
 3611 025f 59       		.uleb128 0x59
 3612 0260 0B       		.uleb128 0xb
 3613 0261 01       		.uleb128 0x1
 3614 0262 13       		.uleb128 0x13
 3615 0263 00       		.byte	0
 3616 0264 00       		.byte	0
 3617 0265 2E       		.uleb128 0x2e
 3618 0266 0B       		.uleb128 0xb
 3619 0267 01       		.byte	0x1
 3620 0268 11       		.uleb128 0x11
 3621 0269 01       		.uleb128 0x1
 3622 026a 12       		.uleb128 0x12
 3623 026b 06       		.uleb128 0x6
 3624 026c 00       		.byte	0
 3625 026d 00       		.byte	0
 3626 026e 2F       		.uleb128 0x2f
 3627 026f 34       		.uleb128 0x34
 3628 0270 00       		.byte	0
 3629 0271 31       		.uleb128 0x31
 3630 0272 13       		.uleb128 0x13
 3631 0273 00       		.byte	0
 3632 0274 00       		.byte	0
 3633 0275 30       		.uleb128 0x30
 3634 0276 898201   		.uleb128 0x4109
 3635 0279 00       		.byte	0
 3636 027a 11       		.uleb128 0x11
 3637 027b 01       		.uleb128 0x1
 3638 027c 31       		.uleb128 0x31
 3639 027d 13       		.uleb128 0x13
 3640 027e 00       		.byte	0
 3641 027f 00       		.byte	0
 3642 0280 31       		.uleb128 0x31
 3643 0281 898201   		.uleb128 0x4109
 3644 0284 01       		.byte	0x1
 3645 0285 11       		.uleb128 0x11
 3646 0286 01       		.uleb128 0x1
 3647 0287 00       		.byte	0
 3648 0288 00       		.byte	0
ARM GAS  /tmp/ccEPKsUv.s 			page 65


 3649 0289 32       		.uleb128 0x32
 3650 028a 34       		.uleb128 0x34
 3651 028b 00       		.byte	0
 3652 028c 03       		.uleb128 0x3
 3653 028d 08       		.uleb128 0x8
 3654 028e 3A       		.uleb128 0x3a
 3655 028f 0B       		.uleb128 0xb
 3656 0290 3B       		.uleb128 0x3b
 3657 0291 0B       		.uleb128 0xb
 3658 0292 49       		.uleb128 0x49
 3659 0293 13       		.uleb128 0x13
 3660 0294 02       		.uleb128 0x2
 3661 0295 18       		.uleb128 0x18
 3662 0296 00       		.byte	0
 3663 0297 00       		.byte	0
 3664 0298 33       		.uleb128 0x33
 3665 0299 34       		.uleb128 0x34
 3666 029a 00       		.byte	0
 3667 029b 03       		.uleb128 0x3
 3668 029c 0E       		.uleb128 0xe
 3669 029d 49       		.uleb128 0x49
 3670 029e 13       		.uleb128 0x13
 3671 029f 34       		.uleb128 0x34
 3672 02a0 19       		.uleb128 0x19
 3673 02a1 00       		.byte	0
 3674 02a2 00       		.byte	0
 3675 02a3 34       		.uleb128 0x34
 3676 02a4 0B       		.uleb128 0xb
 3677 02a5 01       		.byte	0x1
 3678 02a6 55       		.uleb128 0x55
 3679 02a7 17       		.uleb128 0x17
 3680 02a8 00       		.byte	0
 3681 02a9 00       		.byte	0
 3682 02aa 35       		.uleb128 0x35
 3683 02ab 898201   		.uleb128 0x4109
 3684 02ae 01       		.byte	0x1
 3685 02af 11       		.uleb128 0x11
 3686 02b0 01       		.uleb128 0x1
 3687 02b1 01       		.uleb128 0x1
 3688 02b2 13       		.uleb128 0x13
 3689 02b3 00       		.byte	0
 3690 02b4 00       		.byte	0
 3691 02b5 36       		.uleb128 0x36
 3692 02b6 2E       		.uleb128 0x2e
 3693 02b7 01       		.byte	0x1
 3694 02b8 3F       		.uleb128 0x3f
 3695 02b9 19       		.uleb128 0x19
 3696 02ba 03       		.uleb128 0x3
 3697 02bb 0E       		.uleb128 0xe
 3698 02bc 3A       		.uleb128 0x3a
 3699 02bd 0B       		.uleb128 0xb
 3700 02be 3B       		.uleb128 0x3b
 3701 02bf 05       		.uleb128 0x5
 3702 02c0 27       		.uleb128 0x27
 3703 02c1 19       		.uleb128 0x19
 3704 02c2 11       		.uleb128 0x11
 3705 02c3 01       		.uleb128 0x1
ARM GAS  /tmp/ccEPKsUv.s 			page 66


 3706 02c4 12       		.uleb128 0x12
 3707 02c5 06       		.uleb128 0x6
 3708 02c6 40       		.uleb128 0x40
 3709 02c7 18       		.uleb128 0x18
 3710 02c8 9742     		.uleb128 0x2117
 3711 02ca 19       		.uleb128 0x19
 3712 02cb 01       		.uleb128 0x1
 3713 02cc 13       		.uleb128 0x13
 3714 02cd 00       		.byte	0
 3715 02ce 00       		.byte	0
 3716 02cf 37       		.uleb128 0x37
 3717 02d0 05       		.uleb128 0x5
 3718 02d1 00       		.byte	0
 3719 02d2 03       		.uleb128 0x3
 3720 02d3 08       		.uleb128 0x8
 3721 02d4 3A       		.uleb128 0x3a
 3722 02d5 0B       		.uleb128 0xb
 3723 02d6 3B       		.uleb128 0x3b
 3724 02d7 05       		.uleb128 0x5
 3725 02d8 49       		.uleb128 0x49
 3726 02d9 13       		.uleb128 0x13
 3727 02da 02       		.uleb128 0x2
 3728 02db 18       		.uleb128 0x18
 3729 02dc 00       		.byte	0
 3730 02dd 00       		.byte	0
 3731 02de 38       		.uleb128 0x38
 3732 02df 05       		.uleb128 0x5
 3733 02e0 00       		.byte	0
 3734 02e1 03       		.uleb128 0x3
 3735 02e2 0E       		.uleb128 0xe
 3736 02e3 3A       		.uleb128 0x3a
 3737 02e4 0B       		.uleb128 0xb
 3738 02e5 3B       		.uleb128 0x3b
 3739 02e6 05       		.uleb128 0x5
 3740 02e7 49       		.uleb128 0x49
 3741 02e8 13       		.uleb128 0x13
 3742 02e9 02       		.uleb128 0x2
 3743 02ea 18       		.uleb128 0x18
 3744 02eb 00       		.byte	0
 3745 02ec 00       		.byte	0
 3746 02ed 39       		.uleb128 0x39
 3747 02ee 05       		.uleb128 0x5
 3748 02ef 00       		.byte	0
 3749 02f0 03       		.uleb128 0x3
 3750 02f1 0E       		.uleb128 0xe
 3751 02f2 3A       		.uleb128 0x3a
 3752 02f3 0B       		.uleb128 0xb
 3753 02f4 3B       		.uleb128 0x3b
 3754 02f5 05       		.uleb128 0x5
 3755 02f6 49       		.uleb128 0x49
 3756 02f7 13       		.uleb128 0x13
 3757 02f8 02       		.uleb128 0x2
 3758 02f9 17       		.uleb128 0x17
 3759 02fa 00       		.byte	0
 3760 02fb 00       		.byte	0
 3761 02fc 3A       		.uleb128 0x3a
 3762 02fd 05       		.uleb128 0x5
ARM GAS  /tmp/ccEPKsUv.s 			page 67


 3763 02fe 00       		.byte	0
 3764 02ff 03       		.uleb128 0x3
 3765 0300 08       		.uleb128 0x8
 3766 0301 3A       		.uleb128 0x3a
 3767 0302 0B       		.uleb128 0xb
 3768 0303 3B       		.uleb128 0x3b
 3769 0304 05       		.uleb128 0x5
 3770 0305 49       		.uleb128 0x49
 3771 0306 13       		.uleb128 0x13
 3772 0307 02       		.uleb128 0x2
 3773 0308 17       		.uleb128 0x17
 3774 0309 00       		.byte	0
 3775 030a 00       		.byte	0
 3776 030b 3B       		.uleb128 0x3b
 3777 030c 2E       		.uleb128 0x2e
 3778 030d 01       		.byte	0x1
 3779 030e 3F       		.uleb128 0x3f
 3780 030f 19       		.uleb128 0x19
 3781 0310 03       		.uleb128 0x3
 3782 0311 0E       		.uleb128 0xe
 3783 0312 3A       		.uleb128 0x3a
 3784 0313 0B       		.uleb128 0xb
 3785 0314 3B       		.uleb128 0x3b
 3786 0315 05       		.uleb128 0x5
 3787 0316 27       		.uleb128 0x27
 3788 0317 19       		.uleb128 0x19
 3789 0318 49       		.uleb128 0x49
 3790 0319 13       		.uleb128 0x13
 3791 031a 11       		.uleb128 0x11
 3792 031b 01       		.uleb128 0x1
 3793 031c 12       		.uleb128 0x12
 3794 031d 06       		.uleb128 0x6
 3795 031e 40       		.uleb128 0x40
 3796 031f 18       		.uleb128 0x18
 3797 0320 9742     		.uleb128 0x2117
 3798 0322 19       		.uleb128 0x19
 3799 0323 01       		.uleb128 0x1
 3800 0324 13       		.uleb128 0x13
 3801 0325 00       		.byte	0
 3802 0326 00       		.byte	0
 3803 0327 3C       		.uleb128 0x3c
 3804 0328 1D       		.uleb128 0x1d
 3805 0329 01       		.byte	0x1
 3806 032a 31       		.uleb128 0x31
 3807 032b 13       		.uleb128 0x13
 3808 032c 11       		.uleb128 0x11
 3809 032d 01       		.uleb128 0x1
 3810 032e 12       		.uleb128 0x12
 3811 032f 06       		.uleb128 0x6
 3812 0330 58       		.uleb128 0x58
 3813 0331 0B       		.uleb128 0xb
 3814 0332 59       		.uleb128 0x59
 3815 0333 05       		.uleb128 0x5
 3816 0334 01       		.uleb128 0x1
 3817 0335 13       		.uleb128 0x13
 3818 0336 00       		.byte	0
 3819 0337 00       		.byte	0
ARM GAS  /tmp/ccEPKsUv.s 			page 68


 3820 0338 3D       		.uleb128 0x3d
 3821 0339 34       		.uleb128 0x34
 3822 033a 00       		.byte	0
 3823 033b 03       		.uleb128 0x3
 3824 033c 08       		.uleb128 0x8
 3825 033d 3A       		.uleb128 0x3a
 3826 033e 0B       		.uleb128 0xb
 3827 033f 3B       		.uleb128 0x3b
 3828 0340 05       		.uleb128 0x5
 3829 0341 49       		.uleb128 0x49
 3830 0342 13       		.uleb128 0x13
 3831 0343 02       		.uleb128 0x2
 3832 0344 17       		.uleb128 0x17
 3833 0345 00       		.byte	0
 3834 0346 00       		.byte	0
 3835 0347 3E       		.uleb128 0x3e
 3836 0348 1D       		.uleb128 0x1d
 3837 0349 01       		.byte	0x1
 3838 034a 31       		.uleb128 0x31
 3839 034b 13       		.uleb128 0x13
 3840 034c 52       		.uleb128 0x52
 3841 034d 01       		.uleb128 0x1
 3842 034e 55       		.uleb128 0x55
 3843 034f 17       		.uleb128 0x17
 3844 0350 58       		.uleb128 0x58
 3845 0351 0B       		.uleb128 0xb
 3846 0352 59       		.uleb128 0x59
 3847 0353 05       		.uleb128 0x5
 3848 0354 01       		.uleb128 0x1
 3849 0355 13       		.uleb128 0x13
 3850 0356 00       		.byte	0
 3851 0357 00       		.byte	0
 3852 0358 3F       		.uleb128 0x3f
 3853 0359 2E       		.uleb128 0x2e
 3854 035a 01       		.byte	0x1
 3855 035b 3F       		.uleb128 0x3f
 3856 035c 19       		.uleb128 0x19
 3857 035d 03       		.uleb128 0x3
 3858 035e 0E       		.uleb128 0xe
 3859 035f 3A       		.uleb128 0x3a
 3860 0360 0B       		.uleb128 0xb
 3861 0361 3B       		.uleb128 0x3b
 3862 0362 05       		.uleb128 0x5
 3863 0363 27       		.uleb128 0x27
 3864 0364 19       		.uleb128 0x19
 3865 0365 49       		.uleb128 0x49
 3866 0366 13       		.uleb128 0x13
 3867 0367 11       		.uleb128 0x11
 3868 0368 01       		.uleb128 0x1
 3869 0369 12       		.uleb128 0x12
 3870 036a 06       		.uleb128 0x6
 3871 036b 40       		.uleb128 0x40
 3872 036c 18       		.uleb128 0x18
 3873 036d 9642     		.uleb128 0x2116
 3874 036f 19       		.uleb128 0x19
 3875 0370 01       		.uleb128 0x1
 3876 0371 13       		.uleb128 0x13
ARM GAS  /tmp/ccEPKsUv.s 			page 69


 3877 0372 00       		.byte	0
 3878 0373 00       		.byte	0
 3879 0374 40       		.uleb128 0x40
 3880 0375 34       		.uleb128 0x34
 3881 0376 00       		.byte	0
 3882 0377 03       		.uleb128 0x3
 3883 0378 08       		.uleb128 0x8
 3884 0379 3A       		.uleb128 0x3a
 3885 037a 0B       		.uleb128 0xb
 3886 037b 3B       		.uleb128 0x3b
 3887 037c 05       		.uleb128 0x5
 3888 037d 49       		.uleb128 0x49
 3889 037e 13       		.uleb128 0x13
 3890 037f 02       		.uleb128 0x2
 3891 0380 18       		.uleb128 0x18
 3892 0381 00       		.byte	0
 3893 0382 00       		.byte	0
 3894 0383 41       		.uleb128 0x41
 3895 0384 34       		.uleb128 0x34
 3896 0385 00       		.byte	0
 3897 0386 03       		.uleb128 0x3
 3898 0387 0E       		.uleb128 0xe
 3899 0388 3A       		.uleb128 0x3a
 3900 0389 0B       		.uleb128 0xb
 3901 038a 3B       		.uleb128 0x3b
 3902 038b 05       		.uleb128 0x5
 3903 038c 49       		.uleb128 0x49
 3904 038d 13       		.uleb128 0x13
 3905 038e 3F       		.uleb128 0x3f
 3906 038f 19       		.uleb128 0x19
 3907 0390 3C       		.uleb128 0x3c
 3908 0391 19       		.uleb128 0x19
 3909 0392 00       		.byte	0
 3910 0393 00       		.byte	0
 3911 0394 42       		.uleb128 0x42
 3912 0395 34       		.uleb128 0x34
 3913 0396 00       		.byte	0
 3914 0397 03       		.uleb128 0x3
 3915 0398 08       		.uleb128 0x8
 3916 0399 3A       		.uleb128 0x3a
 3917 039a 0B       		.uleb128 0xb
 3918 039b 3B       		.uleb128 0x3b
 3919 039c 05       		.uleb128 0x5
 3920 039d 49       		.uleb128 0x49
 3921 039e 13       		.uleb128 0x13
 3922 039f 3F       		.uleb128 0x3f
 3923 03a0 19       		.uleb128 0x19
 3924 03a1 3C       		.uleb128 0x3c
 3925 03a2 19       		.uleb128 0x19
 3926 03a3 00       		.byte	0
 3927 03a4 00       		.byte	0
 3928 03a5 43       		.uleb128 0x43
 3929 03a6 2E       		.uleb128 0x2e
 3930 03a7 00       		.byte	0
 3931 03a8 3F       		.uleb128 0x3f
 3932 03a9 19       		.uleb128 0x19
 3933 03aa 3C       		.uleb128 0x3c
ARM GAS  /tmp/ccEPKsUv.s 			page 70


 3934 03ab 19       		.uleb128 0x19
 3935 03ac 6E       		.uleb128 0x6e
 3936 03ad 0E       		.uleb128 0xe
 3937 03ae 03       		.uleb128 0x3
 3938 03af 0E       		.uleb128 0xe
 3939 03b0 3A       		.uleb128 0x3a
 3940 03b1 0B       		.uleb128 0xb
 3941 03b2 3B       		.uleb128 0x3b
 3942 03b3 0B       		.uleb128 0xb
 3943 03b4 00       		.byte	0
 3944 03b5 00       		.byte	0
 3945 03b6 00       		.byte	0
 3946              		.section	.debug_loc,"",%progbits
 3947              	.Ldebug_loc0:
 3948              	.LLST0:
 3949 0000 00000000 		.4byte	.LVL0
 3950 0004 0A000000 		.4byte	.LVL1
 3951 0008 0100     		.2byte	0x1
 3952 000a 52       		.byte	0x52
 3953 000b 0A000000 		.4byte	.LVL1
 3954 000f 1E000000 		.4byte	.LFE227
 3955 0013 0400     		.2byte	0x4
 3956 0015 F3       		.byte	0xf3
 3957 0016 01       		.uleb128 0x1
 3958 0017 52       		.byte	0x52
 3959 0018 9F       		.byte	0x9f
 3960 0019 00000000 		.4byte	0
 3961 001d 00000000 		.4byte	0
 3962              	.LLST1:
 3963 0021 00000000 		.4byte	.LVL0
 3964 0025 1C000000 		.4byte	.LVL3
 3965 0029 0200     		.2byte	0x2
 3966 002b 91       		.byte	0x91
 3967 002c 00       		.sleb128 0
 3968 002d 1C000000 		.4byte	.LVL3
 3969 0031 1E000000 		.4byte	.LFE227
 3970 0035 0200     		.2byte	0x2
 3971 0037 7D       		.byte	0x7d
 3972 0038 00       		.sleb128 0
 3973 0039 00000000 		.4byte	0
 3974 003d 00000000 		.4byte	0
 3975              	.LLST2:
 3976 0041 00000000 		.4byte	.LVL0
 3977 0045 12000000 		.4byte	.LVL2
 3978 0049 0100     		.2byte	0x1
 3979 004b 50       		.byte	0x50
 3980 004c 00000000 		.4byte	0
 3981 0050 00000000 		.4byte	0
 3982              	.LLST4:
 3983 0054 00000000 		.4byte	.LVL4
 3984 0058 11000000 		.4byte	.LVL5-1
 3985 005c 0100     		.2byte	0x1
 3986 005e 50       		.byte	0x50
 3987 005f 11000000 		.4byte	.LVL5-1
 3988 0063 12000000 		.4byte	.LFE228
 3989 0067 0400     		.2byte	0x4
 3990 0069 F3       		.byte	0xf3
ARM GAS  /tmp/ccEPKsUv.s 			page 71


 3991 006a 01       		.uleb128 0x1
 3992 006b 50       		.byte	0x50
 3993 006c 9F       		.byte	0x9f
 3994 006d 00000000 		.4byte	0
 3995 0071 00000000 		.4byte	0
 3996              	.LLST5:
 3997 0075 00000000 		.4byte	.LVL6
 3998 0079 27000000 		.4byte	.LVL9-1
 3999 007d 0100     		.2byte	0x1
 4000 007f 50       		.byte	0x50
 4001 0080 27000000 		.4byte	.LVL9-1
 4002 0084 2C000000 		.4byte	.LVL10
 4003 0088 0400     		.2byte	0x4
 4004 008a F3       		.byte	0xf3
 4005 008b 01       		.uleb128 0x1
 4006 008c 50       		.byte	0x50
 4007 008d 9F       		.byte	0x9f
 4008 008e 2C000000 		.4byte	.LVL10
 4009 0092 34000000 		.4byte	.LVL11
 4010 0096 0100     		.2byte	0x1
 4011 0098 50       		.byte	0x50
 4012 0099 34000000 		.4byte	.LVL11
 4013 009d 36000000 		.4byte	.LFE229
 4014 00a1 0400     		.2byte	0x4
 4015 00a3 F3       		.byte	0xf3
 4016 00a4 01       		.uleb128 0x1
 4017 00a5 50       		.byte	0x50
 4018 00a6 9F       		.byte	0x9f
 4019 00a7 00000000 		.4byte	0
 4020 00ab 00000000 		.4byte	0
 4021              	.LLST6:
 4022 00af 00000000 		.4byte	.LVL6
 4023 00b3 24000000 		.4byte	.LVL8
 4024 00b7 0100     		.2byte	0x1
 4025 00b9 51       		.byte	0x51
 4026 00ba 24000000 		.4byte	.LVL8
 4027 00be 2C000000 		.4byte	.LVL10
 4028 00c2 0400     		.2byte	0x4
 4029 00c4 F3       		.byte	0xf3
 4030 00c5 01       		.uleb128 0x1
 4031 00c6 51       		.byte	0x51
 4032 00c7 9F       		.byte	0x9f
 4033 00c8 2C000000 		.4byte	.LVL10
 4034 00cc 36000000 		.4byte	.LFE229
 4035 00d0 0100     		.2byte	0x1
 4036 00d2 51       		.byte	0x51
 4037 00d3 00000000 		.4byte	0
 4038 00d7 00000000 		.4byte	0
 4039              	.LLST7:
 4040 00db 00000000 		.4byte	.LVL6
 4041 00df 0C000000 		.4byte	.LVL7
 4042 00e3 0100     		.2byte	0x1
 4043 00e5 50       		.byte	0x50
 4044 00e6 2C000000 		.4byte	.LVL10
 4045 00ea 34000000 		.4byte	.LVL11
 4046 00ee 0100     		.2byte	0x1
 4047 00f0 50       		.byte	0x50
ARM GAS  /tmp/ccEPKsUv.s 			page 72


 4048 00f1 34000000 		.4byte	.LVL11
 4049 00f5 36000000 		.4byte	.LFE229
 4050 00f9 0400     		.2byte	0x4
 4051 00fb F3       		.byte	0xf3
 4052 00fc 01       		.uleb128 0x1
 4053 00fd 50       		.byte	0x50
 4054 00fe 9F       		.byte	0x9f
 4055 00ff 00000000 		.4byte	0
 4056 0103 00000000 		.4byte	0
 4057              	.LLST8:
 4058 0107 00000000 		.4byte	.LVL12
 4059 010b 11000000 		.4byte	.LVL14-1
 4060 010f 0100     		.2byte	0x1
 4061 0111 50       		.byte	0x50
 4062 0112 11000000 		.4byte	.LVL14-1
 4063 0116 14000000 		.4byte	.LVL15
 4064 011a 0100     		.2byte	0x1
 4065 011c 54       		.byte	0x54
 4066 011d 14000000 		.4byte	.LVL15
 4067 0121 17000000 		.4byte	.LVL16-1
 4068 0125 0100     		.2byte	0x1
 4069 0127 50       		.byte	0x50
 4070 0128 17000000 		.4byte	.LVL16-1
 4071 012c 26000000 		.4byte	.LVL19
 4072 0130 0100     		.2byte	0x1
 4073 0132 54       		.byte	0x54
 4074 0133 26000000 		.4byte	.LVL19
 4075 0137 3C000000 		.4byte	.LVL21
 4076 013b 0100     		.2byte	0x1
 4077 013d 50       		.byte	0x50
 4078 013e 3C000000 		.4byte	.LVL21
 4079 0142 4E000000 		.4byte	.LFE230
 4080 0146 0100     		.2byte	0x1
 4081 0148 54       		.byte	0x54
 4082 0149 00000000 		.4byte	0
 4083 014d 00000000 		.4byte	0
 4084              	.LLST9:
 4085 0151 00000000 		.4byte	.LVL12
 4086 0155 11000000 		.4byte	.LVL14-1
 4087 0159 0100     		.2byte	0x1
 4088 015b 51       		.byte	0x51
 4089 015c 11000000 		.4byte	.LVL14-1
 4090 0160 14000000 		.4byte	.LVL15
 4091 0164 0100     		.2byte	0x1
 4092 0166 56       		.byte	0x56
 4093 0167 14000000 		.4byte	.LVL15
 4094 016b 17000000 		.4byte	.LVL16-1
 4095 016f 0100     		.2byte	0x1
 4096 0171 51       		.byte	0x51
 4097 0172 17000000 		.4byte	.LVL16-1
 4098 0176 26000000 		.4byte	.LVL19
 4099 017a 0100     		.2byte	0x1
 4100 017c 56       		.byte	0x56
 4101 017d 26000000 		.4byte	.LVL19
 4102 0181 2A000000 		.4byte	.LVL20
 4103 0185 0100     		.2byte	0x1
 4104 0187 51       		.byte	0x51
ARM GAS  /tmp/ccEPKsUv.s 			page 73


 4105 0188 2A000000 		.4byte	.LVL20
 4106 018c 4E000000 		.4byte	.LFE230
 4107 0190 0100     		.2byte	0x1
 4108 0192 56       		.byte	0x56
 4109 0193 00000000 		.4byte	0
 4110 0197 00000000 		.4byte	0
 4111              	.LLST10:
 4112 019b 3C000000 		.4byte	.LVL21
 4113 019f 48000000 		.4byte	.LVL24
 4114 01a3 0100     		.2byte	0x1
 4115 01a5 50       		.byte	0x50
 4116 01a6 00000000 		.4byte	0
 4117 01aa 00000000 		.4byte	0
 4118              	.LLST11:
 4119 01ae 00000000 		.4byte	.LVL12
 4120 01b2 0C000000 		.4byte	.LVL13
 4121 01b6 0300     		.2byte	0x3
 4122 01b8 08       		.byte	0x8
 4123 01b9 20       		.byte	0x20
 4124 01ba 9F       		.byte	0x9f
 4125 01bb 00000000 		.4byte	0
 4126 01bf 00000000 		.4byte	0
 4127              	.LLST12:
 4128 01c3 18000000 		.4byte	.LVL16
 4129 01c7 1C000000 		.4byte	.LVL17
 4130 01cb 0100     		.2byte	0x1
 4131 01cd 50       		.byte	0x50
 4132 01ce 48000000 		.4byte	.LVL24
 4133 01d2 4E000000 		.4byte	.LFE230
 4134 01d6 0100     		.2byte	0x1
 4135 01d8 50       		.byte	0x50
 4136 01d9 00000000 		.4byte	0
 4137 01dd 00000000 		.4byte	0
 4138              	.LLST13:
 4139 01e1 48000000 		.4byte	.LVL24
 4140 01e5 4C000000 		.4byte	.LVL25
 4141 01e9 0200     		.2byte	0x2
 4142 01eb 30       		.byte	0x30
 4143 01ec 9F       		.byte	0x9f
 4144 01ed 00000000 		.4byte	0
 4145 01f1 00000000 		.4byte	0
 4146              	.LLST14:
 4147 01f5 40000000 		.4byte	.LVL22
 4148 01f9 46000000 		.4byte	.LVL23
 4149 01fd 0200     		.2byte	0x2
 4150 01ff 30       		.byte	0x30
 4151 0200 9F       		.byte	0x9f
 4152 0201 00000000 		.4byte	0
 4153 0205 00000000 		.4byte	0
 4154              	.LLST15:
 4155 0209 00000000 		.4byte	.LVL26
 4156 020d 26000000 		.4byte	.LVL30
 4157 0211 0100     		.2byte	0x1
 4158 0213 50       		.byte	0x50
 4159 0214 26000000 		.4byte	.LVL30
 4160 0218 2A000000 		.4byte	.LVL32
 4161 021c 0100     		.2byte	0x1
ARM GAS  /tmp/ccEPKsUv.s 			page 74


 4162 021e 54       		.byte	0x54
 4163 021f 2A000000 		.4byte	.LVL32
 4164 0223 2D000000 		.4byte	.LVL33-1
 4165 0227 0100     		.2byte	0x1
 4166 0229 50       		.byte	0x50
 4167 022a 2D000000 		.4byte	.LVL33-1
 4168 022e 3A000000 		.4byte	.LVL36
 4169 0232 0100     		.2byte	0x1
 4170 0234 54       		.byte	0x54
 4171 0235 3A000000 		.4byte	.LVL36
 4172 0239 68000000 		.4byte	.LVL44
 4173 023d 0100     		.2byte	0x1
 4174 023f 50       		.byte	0x50
 4175 0240 68000000 		.4byte	.LVL44
 4176 0244 74000000 		.4byte	.LFE231
 4177 0248 0100     		.2byte	0x1
 4178 024a 54       		.byte	0x54
 4179 024b 00000000 		.4byte	0
 4180 024f 00000000 		.4byte	0
 4181              	.LLST16:
 4182 0253 00000000 		.4byte	.LVL26
 4183 0257 1E000000 		.4byte	.LVL29
 4184 025b 0100     		.2byte	0x1
 4185 025d 51       		.byte	0x51
 4186 025e 1E000000 		.4byte	.LVL29
 4187 0262 4A000000 		.4byte	.LVL38
 4188 0266 0100     		.2byte	0x1
 4189 0268 59       		.byte	0x59
 4190 0269 4A000000 		.4byte	.LVL38
 4191 026d 68000000 		.4byte	.LVL44
 4192 0271 0300     		.2byte	0x3
 4193 0273 79       		.byte	0x79
 4194 0274 7F       		.sleb128 -1
 4195 0275 9F       		.byte	0x9f
 4196 0276 68000000 		.4byte	.LVL44
 4197 027a 6C000000 		.4byte	.LVL45
 4198 027e 0100     		.2byte	0x1
 4199 0280 59       		.byte	0x59
 4200 0281 00000000 		.4byte	0
 4201 0285 00000000 		.4byte	0
 4202              	.LLST17:
 4203 0289 00000000 		.4byte	.LVL26
 4204 028d 1E000000 		.4byte	.LVL29
 4205 0291 0100     		.2byte	0x1
 4206 0293 52       		.byte	0x52
 4207 0294 5C000000 		.4byte	.LVL41
 4208 0298 68000000 		.4byte	.LVL44
 4209 029c 0600     		.2byte	0x6
 4210 029e 7B       		.byte	0x7b
 4211 029f 00       		.sleb128 0
 4212 02a0 76       		.byte	0x76
 4213 02a1 00       		.sleb128 0
 4214 02a2 1C       		.byte	0x1c
 4215 02a3 9F       		.byte	0x9f
 4216 02a4 00000000 		.4byte	0
 4217 02a8 00000000 		.4byte	0
 4218              	.LLST18:
ARM GAS  /tmp/ccEPKsUv.s 			page 75


 4219 02ac 00000000 		.4byte	.LVL26
 4220 02b0 1E000000 		.4byte	.LVL29
 4221 02b4 0100     		.2byte	0x1
 4222 02b6 53       		.byte	0x53
 4223 02b7 1E000000 		.4byte	.LVL29
 4224 02bb 2A000000 		.4byte	.LVL32
 4225 02bf 0100     		.2byte	0x1
 4226 02c1 55       		.byte	0x55
 4227 02c2 2A000000 		.4byte	.LVL32
 4228 02c6 2D000000 		.4byte	.LVL33-1
 4229 02ca 0100     		.2byte	0x1
 4230 02cc 51       		.byte	0x51
 4231 02cd 2D000000 		.4byte	.LVL33-1
 4232 02d1 3A000000 		.4byte	.LVL36
 4233 02d5 0100     		.2byte	0x1
 4234 02d7 55       		.byte	0x55
 4235 02d8 3A000000 		.4byte	.LVL36
 4236 02dc 40000000 		.4byte	.LVL37
 4237 02e0 0100     		.2byte	0x1
 4238 02e2 51       		.byte	0x51
 4239 02e3 40000000 		.4byte	.LVL37
 4240 02e7 74000000 		.4byte	.LFE231
 4241 02eb 0100     		.2byte	0x1
 4242 02ed 55       		.byte	0x55
 4243 02ee 00000000 		.4byte	0
 4244 02f2 00000000 		.4byte	0
 4245              	.LLST19:
 4246 02f6 12000000 		.4byte	.LVL27
 4247 02fa 1E000000 		.4byte	.LVL29
 4248 02fe 0200     		.2byte	0x2
 4249 0300 30       		.byte	0x30
 4250 0301 9F       		.byte	0x9f
 4251 0302 1E000000 		.4byte	.LVL29
 4252 0306 74000000 		.4byte	.LFE231
 4253 030a 0100     		.2byte	0x1
 4254 030c 56       		.byte	0x56
 4255 030d 00000000 		.4byte	0
 4256 0311 00000000 		.4byte	0
 4257              	.LLST20:
 4258 0315 12000000 		.4byte	.LVL27
 4259 0319 18000000 		.4byte	.LVL28
 4260 031d 0300     		.2byte	0x3
 4261 031f 08       		.byte	0x8
 4262 0320 20       		.byte	0x20
 4263 0321 9F       		.byte	0x9f
 4264 0322 00000000 		.4byte	0
 4265 0326 00000000 		.4byte	0
 4266              	.LLST21:
 4267 032a 60000000 		.4byte	.LVL42
 4268 032e 66000000 		.4byte	.LVL43
 4269 0332 0300     		.2byte	0x3
 4270 0334 08       		.byte	0x8
 4271 0335 20       		.byte	0x20
 4272 0336 9F       		.byte	0x9f
 4273 0337 00000000 		.4byte	0
 4274 033b 00000000 		.4byte	0
 4275              	.LLST22:
ARM GAS  /tmp/ccEPKsUv.s 			page 76


 4276 033f 56000000 		.4byte	.LVL39
 4277 0343 5A000000 		.4byte	.LVL40
 4278 0347 0200     		.2byte	0x2
 4279 0349 30       		.byte	0x30
 4280 034a 9F       		.byte	0x9f
 4281 034b 00000000 		.4byte	0
 4282 034f 00000000 		.4byte	0
 4283              	.LLST23:
 4284 0353 68000000 		.4byte	.LVL44
 4285 0357 6C000000 		.4byte	.LVL45
 4286 035b 0200     		.2byte	0x2
 4287 035d 30       		.byte	0x30
 4288 035e 9F       		.byte	0x9f
 4289 035f 00000000 		.4byte	0
 4290 0363 00000000 		.4byte	0
 4291              	.LLST24:
 4292 0367 00000000 		.4byte	.LVL46
 4293 036b 1A000000 		.4byte	.LVL48
 4294 036f 0200     		.2byte	0x2
 4295 0371 91       		.byte	0x91
 4296 0372 00       		.sleb128 0
 4297 0373 1A000000 		.4byte	.LVL48
 4298 0377 1C000000 		.4byte	.LFE232
 4299 037b 0200     		.2byte	0x2
 4300 037d 7D       		.byte	0x7d
 4301 037e 00       		.sleb128 0
 4302 037f 00000000 		.4byte	0
 4303 0383 00000000 		.4byte	0
 4304              	.LLST25:
 4305 0387 00000000 		.4byte	.LVL46
 4306 038b 0E000000 		.4byte	.LVL47
 4307 038f 0100     		.2byte	0x1
 4308 0391 50       		.byte	0x50
 4309 0392 00000000 		.4byte	0
 4310 0396 00000000 		.4byte	0
 4311              	.LLST27:
 4312 039a 00000000 		.4byte	.LVL49
 4313 039e 17000000 		.4byte	.LVL50-1
 4314 03a2 0100     		.2byte	0x1
 4315 03a4 50       		.byte	0x50
 4316 03a5 17000000 		.4byte	.LVL50-1
 4317 03a9 18000000 		.4byte	.LFE233
 4318 03ad 0400     		.2byte	0x4
 4319 03af F3       		.byte	0xf3
 4320 03b0 01       		.uleb128 0x1
 4321 03b1 50       		.byte	0x50
 4322 03b2 9F       		.byte	0x9f
 4323 03b3 00000000 		.4byte	0
 4324 03b7 00000000 		.4byte	0
 4325              	.LLST28:
 4326 03bb 00000000 		.4byte	.LVL51
 4327 03bf 13000000 		.4byte	.LVL54-1
 4328 03c3 0100     		.2byte	0x1
 4329 03c5 50       		.byte	0x50
 4330 03c6 13000000 		.4byte	.LVL54-1
 4331 03ca 22000000 		.4byte	.LVL57
 4332 03ce 0100     		.2byte	0x1
ARM GAS  /tmp/ccEPKsUv.s 			page 77


 4333 03d0 54       		.byte	0x54
 4334 03d1 22000000 		.4byte	.LVL57
 4335 03d5 40000000 		.4byte	.LVL58
 4336 03d9 0100     		.2byte	0x1
 4337 03db 50       		.byte	0x50
 4338 03dc 40000000 		.4byte	.LVL58
 4339 03e0 50000000 		.4byte	.LFE234
 4340 03e4 0100     		.2byte	0x1
 4341 03e6 54       		.byte	0x54
 4342 03e7 00000000 		.4byte	0
 4343 03eb 00000000 		.4byte	0
 4344              	.LLST29:
 4345 03ef 00000000 		.4byte	.LVL51
 4346 03f3 10000000 		.4byte	.LVL53
 4347 03f7 0100     		.2byte	0x1
 4348 03f9 51       		.byte	0x51
 4349 03fa 10000000 		.4byte	.LVL53
 4350 03fe 50000000 		.4byte	.LFE234
 4351 0402 0400     		.2byte	0x4
 4352 0404 F3       		.byte	0xf3
 4353 0405 01       		.uleb128 0x1
 4354 0406 51       		.byte	0x51
 4355 0407 9F       		.byte	0x9f
 4356 0408 00000000 		.4byte	0
 4357 040c 00000000 		.4byte	0
 4358              	.LLST30:
 4359 0410 00000000 		.4byte	.LVL51
 4360 0414 10000000 		.4byte	.LVL53
 4361 0418 0100     		.2byte	0x1
 4362 041a 52       		.byte	0x52
 4363 041b 10000000 		.4byte	.LVL53
 4364 041f 13000000 		.4byte	.LVL54-1
 4365 0423 0100     		.2byte	0x1
 4366 0425 51       		.byte	0x51
 4367 0426 13000000 		.4byte	.LVL54-1
 4368 042a 22000000 		.4byte	.LVL57
 4369 042e 0100     		.2byte	0x1
 4370 0430 56       		.byte	0x56
 4371 0431 22000000 		.4byte	.LVL57
 4372 0435 41000000 		.4byte	.LVL59-1
 4373 0439 0100     		.2byte	0x1
 4374 043b 51       		.byte	0x51
 4375 043c 41000000 		.4byte	.LVL59-1
 4376 0440 50000000 		.4byte	.LFE234
 4377 0444 0100     		.2byte	0x1
 4378 0446 56       		.byte	0x56
 4379 0447 00000000 		.4byte	0
 4380 044b 00000000 		.4byte	0
 4381              	.LLST31:
 4382 044f 00000000 		.4byte	.LVL51
 4383 0453 0E000000 		.4byte	.LVL52
 4384 0457 0300     		.2byte	0x3
 4385 0459 08       		.byte	0x8
 4386 045a 20       		.byte	0x20
 4387 045b 9F       		.byte	0x9f
 4388 045c 00000000 		.4byte	0
 4389 0460 00000000 		.4byte	0
ARM GAS  /tmp/ccEPKsUv.s 			page 78


 4390              	.LLST32:
 4391 0464 14000000 		.4byte	.LVL54
 4392 0468 18000000 		.4byte	.LVL55
 4393 046c 0100     		.2byte	0x1
 4394 046e 50       		.byte	0x50
 4395 046f 4A000000 		.4byte	.LVL61
 4396 0473 50000000 		.4byte	.LFE234
 4397 0477 0100     		.2byte	0x1
 4398 0479 50       		.byte	0x50
 4399 047a 00000000 		.4byte	0
 4400 047e 00000000 		.4byte	0
 4401              	.LLST33:
 4402 0482 4A000000 		.4byte	.LVL61
 4403 0486 4E000000 		.4byte	.LVL62
 4404 048a 0200     		.2byte	0x2
 4405 048c 30       		.byte	0x30
 4406 048d 9F       		.byte	0x9f
 4407 048e 00000000 		.4byte	0
 4408 0492 00000000 		.4byte	0
 4409              	.LLST34:
 4410 0496 42000000 		.4byte	.LVL59
 4411 049a 48000000 		.4byte	.LVL60
 4412 049e 0200     		.2byte	0x2
 4413 04a0 30       		.byte	0x30
 4414 04a1 9F       		.byte	0x9f
 4415 04a2 00000000 		.4byte	0
 4416 04a6 00000000 		.4byte	0
 4417              	.LLST35:
 4418 04aa 00000000 		.4byte	.LVL63
 4419 04ae 25000000 		.4byte	.LVL66-1
 4420 04b2 0100     		.2byte	0x1
 4421 04b4 50       		.byte	0x50
 4422 04b5 25000000 		.4byte	.LVL66-1
 4423 04b9 2A000000 		.4byte	.LVL67
 4424 04bd 0400     		.2byte	0x4
 4425 04bf F3       		.byte	0xf3
 4426 04c0 01       		.uleb128 0x1
 4427 04c1 50       		.byte	0x50
 4428 04c2 9F       		.byte	0x9f
 4429 04c3 2A000000 		.4byte	.LVL67
 4430 04c7 32000000 		.4byte	.LVL68
 4431 04cb 0100     		.2byte	0x1
 4432 04cd 50       		.byte	0x50
 4433 04ce 32000000 		.4byte	.LVL68
 4434 04d2 34000000 		.4byte	.LFE235
 4435 04d6 0400     		.2byte	0x4
 4436 04d8 F3       		.byte	0xf3
 4437 04d9 01       		.uleb128 0x1
 4438 04da 50       		.byte	0x50
 4439 04db 9F       		.byte	0x9f
 4440 04dc 00000000 		.4byte	0
 4441 04e0 00000000 		.4byte	0
 4442              	.LLST36:
 4443 04e4 1A000000 		.4byte	.LVL65
 4444 04e8 2A000000 		.4byte	.LVL67
 4445 04ec 0100     		.2byte	0x1
 4446 04ee 54       		.byte	0x54
ARM GAS  /tmp/ccEPKsUv.s 			page 79


 4447 04ef 00000000 		.4byte	0
 4448 04f3 00000000 		.4byte	0
 4449              	.LLST37:
 4450 04f7 00000000 		.4byte	.LVL63
 4451 04fb 0C000000 		.4byte	.LVL64
 4452 04ff 0100     		.2byte	0x1
 4453 0501 50       		.byte	0x50
 4454 0502 2A000000 		.4byte	.LVL67
 4455 0506 32000000 		.4byte	.LVL68
 4456 050a 0100     		.2byte	0x1
 4457 050c 50       		.byte	0x50
 4458 050d 32000000 		.4byte	.LVL68
 4459 0511 34000000 		.4byte	.LFE235
 4460 0515 0400     		.2byte	0x4
 4461 0517 F3       		.byte	0xf3
 4462 0518 01       		.uleb128 0x1
 4463 0519 50       		.byte	0x50
 4464 051a 9F       		.byte	0x9f
 4465 051b 00000000 		.4byte	0
 4466 051f 00000000 		.4byte	0
 4467              	.LLST38:
 4468 0523 00000000 		.4byte	.LVL69
 4469 0527 1E000000 		.4byte	.LVL72
 4470 052b 0100     		.2byte	0x1
 4471 052d 50       		.byte	0x50
 4472 052e 1E000000 		.4byte	.LVL72
 4473 0532 2A000000 		.4byte	.LVL75
 4474 0536 0100     		.2byte	0x1
 4475 0538 54       		.byte	0x54
 4476 0539 2A000000 		.4byte	.LVL75
 4477 053d 49000000 		.4byte	.LVL76-1
 4478 0541 0100     		.2byte	0x1
 4479 0543 50       		.byte	0x50
 4480 0544 49000000 		.4byte	.LVL76-1
 4481 0548 6A000000 		.4byte	.LVL83
 4482 054c 0100     		.2byte	0x1
 4483 054e 54       		.byte	0x54
 4484 054f 6A000000 		.4byte	.LVL83
 4485 0553 70000000 		.4byte	.LVL84
 4486 0557 0100     		.2byte	0x1
 4487 0559 50       		.byte	0x50
 4488 055a 70000000 		.4byte	.LVL84
 4489 055e 86000000 		.4byte	.LFE236
 4490 0562 0100     		.2byte	0x1
 4491 0564 54       		.byte	0x54
 4492 0565 00000000 		.4byte	0
 4493 0569 00000000 		.4byte	0
 4494              	.LLST39:
 4495 056d 00000000 		.4byte	.LVL69
 4496 0571 1E000000 		.4byte	.LVL72
 4497 0575 0100     		.2byte	0x1
 4498 0577 51       		.byte	0x51
 4499 0578 1E000000 		.4byte	.LVL72
 4500 057c 24000000 		.4byte	.LVL74
 4501 0580 0100     		.2byte	0x1
 4502 0582 55       		.byte	0x55
 4503 0583 24000000 		.4byte	.LVL74
ARM GAS  /tmp/ccEPKsUv.s 			page 80


 4504 0587 5E000000 		.4byte	.LVL81
 4505 058b 0100     		.2byte	0x1
 4506 058d 5B       		.byte	0x5b
 4507 058e 5E000000 		.4byte	.LVL81
 4508 0592 64000000 		.4byte	.LVL82
 4509 0596 0100     		.2byte	0x1
 4510 0598 55       		.byte	0x55
 4511 0599 64000000 		.4byte	.LVL82
 4512 059d 86000000 		.4byte	.LFE236
 4513 05a1 0100     		.2byte	0x1
 4514 05a3 5B       		.byte	0x5b
 4515 05a4 00000000 		.4byte	0
 4516 05a8 00000000 		.4byte	0
 4517              	.LLST40:
 4518 05ac 00000000 		.4byte	.LVL69
 4519 05b0 1E000000 		.4byte	.LVL72
 4520 05b4 0100     		.2byte	0x1
 4521 05b6 52       		.byte	0x52
 4522 05b7 1E000000 		.4byte	.LVL72
 4523 05bb 50000000 		.4byte	.LVL78
 4524 05bf 0100     		.2byte	0x1
 4525 05c1 56       		.byte	0x56
 4526 05c2 50000000 		.4byte	.LVL78
 4527 05c6 54000000 		.4byte	.LVL79
 4528 05ca 0300     		.2byte	0x3
 4529 05cc 76       		.byte	0x76
 4530 05cd 01       		.sleb128 1
 4531 05ce 9F       		.byte	0x9f
 4532 05cf 5E000000 		.4byte	.LVL81
 4533 05d3 7E000000 		.4byte	.LVL87
 4534 05d7 0100     		.2byte	0x1
 4535 05d9 56       		.byte	0x56
 4536 05da 00000000 		.4byte	0
 4537 05de 00000000 		.4byte	0
 4538              	.LLST41:
 4539 05e2 00000000 		.4byte	.LVL69
 4540 05e6 1E000000 		.4byte	.LVL72
 4541 05ea 0100     		.2byte	0x1
 4542 05ec 53       		.byte	0x53
 4543 05ed 1E000000 		.4byte	.LVL72
 4544 05f1 86000000 		.4byte	.LFE236
 4545 05f5 0200     		.2byte	0x2
 4546 05f7 91       		.byte	0x91
 4547 05f8 54       		.sleb128 -44
 4548 05f9 00000000 		.4byte	0
 4549 05fd 00000000 		.4byte	0
 4550              	.LLST42:
 4551 0601 12000000 		.4byte	.LVL70
 4552 0605 1E000000 		.4byte	.LVL72
 4553 0609 0200     		.2byte	0x2
 4554 060b 30       		.byte	0x30
 4555 060c 9F       		.byte	0x9f
 4556 060d 1E000000 		.4byte	.LVL72
 4557 0611 86000000 		.4byte	.LFE236
 4558 0615 0100     		.2byte	0x1
 4559 0617 57       		.byte	0x57
 4560 0618 00000000 		.4byte	0
ARM GAS  /tmp/ccEPKsUv.s 			page 81


 4561 061c 00000000 		.4byte	0
 4562              	.LLST43:
 4563 0620 12000000 		.4byte	.LVL70
 4564 0624 1A000000 		.4byte	.LVL71
 4565 0628 0300     		.2byte	0x3
 4566 062a 08       		.byte	0x8
 4567 062b 20       		.byte	0x20
 4568 062c 9F       		.byte	0x9f
 4569 062d 00000000 		.4byte	0
 4570 0631 00000000 		.4byte	0
 4571              	.LLST44:
 4572 0635 4A000000 		.4byte	.LVL76
 4573 0639 4E000000 		.4byte	.LVL77
 4574 063d 0200     		.2byte	0x2
 4575 063f 30       		.byte	0x30
 4576 0640 9F       		.byte	0x9f
 4577 0641 00000000 		.4byte	0
 4578 0645 00000000 		.4byte	0
 4579              	.LLST45:
 4580 0649 4E000000 		.4byte	.LVL77
 4581 064d 5A000000 		.4byte	.LVL80
 4582 0651 0300     		.2byte	0x3
 4583 0653 08       		.byte	0x8
 4584 0654 20       		.byte	0x20
 4585 0655 9F       		.byte	0x9f
 4586 0656 00000000 		.4byte	0
 4587 065a 00000000 		.4byte	0
 4588              	.LLST46:
 4589 065e 7A000000 		.4byte	.LVL86
 4590 0662 7E000000 		.4byte	.LVL87
 4591 0666 0200     		.2byte	0x2
 4592 0668 30       		.byte	0x30
 4593 0669 9F       		.byte	0x9f
 4594 066a 00000000 		.4byte	0
 4595 066e 00000000 		.4byte	0
 4596              		.section	.debug_aranges,"",%progbits
 4597 0000 64000000 		.4byte	0x64
 4598 0004 0200     		.2byte	0x2
 4599 0006 00000000 		.4byte	.Ldebug_info0
 4600 000a 04       		.byte	0x4
 4601 000b 00       		.byte	0
 4602 000c 0000     		.2byte	0
 4603 000e 0000     		.2byte	0
 4604 0010 00000000 		.4byte	.LFB227
 4605 0014 1E000000 		.4byte	.LFE227-.LFB227
 4606 0018 00000000 		.4byte	.LFB228
 4607 001c 12000000 		.4byte	.LFE228-.LFB228
 4608 0020 00000000 		.4byte	.LFB229
 4609 0024 36000000 		.4byte	.LFE229-.LFB229
 4610 0028 00000000 		.4byte	.LFB230
 4611 002c 4E000000 		.4byte	.LFE230-.LFB230
 4612 0030 00000000 		.4byte	.LFB231
 4613 0034 74000000 		.4byte	.LFE231-.LFB231
 4614 0038 00000000 		.4byte	.LFB232
 4615 003c 1C000000 		.4byte	.LFE232-.LFB232
 4616 0040 00000000 		.4byte	.LFB233
 4617 0044 18000000 		.4byte	.LFE233-.LFB233
ARM GAS  /tmp/ccEPKsUv.s 			page 82


 4618 0048 00000000 		.4byte	.LFB234
 4619 004c 50000000 		.4byte	.LFE234-.LFB234
 4620 0050 00000000 		.4byte	.LFB235
 4621 0054 34000000 		.4byte	.LFE235-.LFB235
 4622 0058 00000000 		.4byte	.LFB236
 4623 005c 86000000 		.4byte	.LFE236-.LFB236
 4624 0060 00000000 		.4byte	0
 4625 0064 00000000 		.4byte	0
 4626              		.section	.debug_ranges,"",%progbits
 4627              	.Ldebug_ranges0:
 4628 0000 00000000 		.4byte	.LBB111
 4629 0004 06000000 		.4byte	.LBE111
 4630 0008 08000000 		.4byte	.LBB115
 4631 000c 0C000000 		.4byte	.LBE115
 4632 0010 2C000000 		.4byte	.LBB116
 4633 0014 30000000 		.4byte	.LBE116
 4634 0018 00000000 		.4byte	0
 4635 001c 00000000 		.4byte	0
 4636 0020 02000000 		.4byte	.LBB117
 4637 0024 04000000 		.4byte	.LBE117
 4638 0028 08000000 		.4byte	.LBB124
 4639 002c 0C000000 		.4byte	.LBE124
 4640 0030 00000000 		.4byte	0
 4641 0034 00000000 		.4byte	0
 4642 0038 14000000 		.4byte	.LBB125
 4643 003c 22000000 		.4byte	.LBE125
 4644 0040 48000000 		.4byte	.LBB136
 4645 0044 4E000000 		.4byte	.LBE136
 4646 0048 00000000 		.4byte	0
 4647 004c 00000000 		.4byte	0
 4648 0050 1A000000 		.4byte	.LBB141
 4649 0054 1C000000 		.4byte	.LBE141
 4650 0058 60000000 		.4byte	.LBB158
 4651 005c 68000000 		.4byte	.LBE158
 4652 0060 00000000 		.4byte	0
 4653 0064 00000000 		.4byte	0
 4654 0068 1C000000 		.4byte	.LBB148
 4655 006c 1E000000 		.4byte	.LBE148
 4656 0070 56000000 		.4byte	.LBB157
 4657 0074 5A000000 		.4byte	.LBE157
 4658 0078 00000000 		.4byte	0
 4659 007c 00000000 		.4byte	0
 4660 0080 10000000 		.4byte	.LBB171
 4661 0084 1E000000 		.4byte	.LBE171
 4662 0088 4A000000 		.4byte	.LBB182
 4663 008c 50000000 		.4byte	.LBE182
 4664 0090 00000000 		.4byte	0
 4665 0094 00000000 		.4byte	0
 4666 0098 02000000 		.4byte	.LBB183
 4667 009c 0C000000 		.4byte	.LBE183
 4668 00a0 2A000000 		.4byte	.LBB186
 4669 00a4 2E000000 		.4byte	.LBE186
 4670 00a8 00000000 		.4byte	0
 4671 00ac 00000000 		.4byte	0
 4672 00b0 1C000000 		.4byte	.LBB191
 4673 00b4 20000000 		.4byte	.LBE191
 4674 00b8 4A000000 		.4byte	.LBB200
ARM GAS  /tmp/ccEPKsUv.s 			page 83


 4675 00bc 4E000000 		.4byte	.LBE200
 4676 00c0 00000000 		.4byte	0
 4677 00c4 00000000 		.4byte	0
 4678 00c8 00000000 		.4byte	.LFB227
 4679 00cc 1E000000 		.4byte	.LFE227
 4680 00d0 00000000 		.4byte	.LFB228
 4681 00d4 12000000 		.4byte	.LFE228
 4682 00d8 00000000 		.4byte	.LFB229
 4683 00dc 36000000 		.4byte	.LFE229
 4684 00e0 00000000 		.4byte	.LFB230
 4685 00e4 4E000000 		.4byte	.LFE230
 4686 00e8 00000000 		.4byte	.LFB231
 4687 00ec 74000000 		.4byte	.LFE231
 4688 00f0 00000000 		.4byte	.LFB232
 4689 00f4 1C000000 		.4byte	.LFE232
 4690 00f8 00000000 		.4byte	.LFB233
 4691 00fc 18000000 		.4byte	.LFE233
 4692 0100 00000000 		.4byte	.LFB234
 4693 0104 50000000 		.4byte	.LFE234
 4694 0108 00000000 		.4byte	.LFB235
 4695 010c 34000000 		.4byte	.LFE235
 4696 0110 00000000 		.4byte	.LFB236
 4697 0114 86000000 		.4byte	.LFE236
 4698 0118 00000000 		.4byte	0
 4699 011c 00000000 		.4byte	0
 4700              		.section	.debug_line,"",%progbits
 4701              	.Ldebug_line0:
 4702 0000 82040000 		.section	.debug_str,"MS",%progbits,1
 4702      02005202 
 4702      00000201 
 4702      FB0E0D00 
 4702      01010101 
 4703              	.LASF141:
 4704 0000 63684F51 		.ascii	"chOQPutTimeout\000"
 4704      50757454 
 4704      696D656F 
 4704      757400
 4705              	.LASF52:
 4706 000f 72656164 		.ascii	"ready_list_t\000"
 4706      795F6C69 
 4706      73745F74 
 4706      00
 4707              	.LASF139:
 4708 001c 6F6E6679 		.ascii	"onfy\000"
 4708      00
 4709              	.LASF4:
 4710 0021 73697A65 		.ascii	"size_t\000"
 4710      5F7400
 4711              	.LASF87:
 4712 0028 7264796D 		.ascii	"rdymsg\000"
 4712      736700
 4713              	.LASF18:
 4714 002f 75696E74 		.ascii	"uint64_t\000"
 4714      36345F74 
 4714      00
 4715              	.LASF146:
 4716 0038 63685468 		.ascii	"chThdDequeueAllI\000"
ARM GAS  /tmp/ccEPKsUv.s 			page 84


 4716      64446571 
 4716      75657565 
 4716      416C6C49 
 4716      00
 4717              	.LASF5:
 4718 0049 5F5F7569 		.ascii	"__uint8_t\000"
 4718      6E74385F 
 4718      7400
 4719              	.LASF84:
 4720 0053 706F7274 		.ascii	"port_intctx\000"
 4720      5F696E74 
 4720      63747800 
 4721              	.LASF71:
 4722 005f 73797374 		.ascii	"system_debug_t\000"
 4722      656D5F64 
 4722      65627567 
 4722      5F7400
 4723              	.LASF137:
 4724 006e 63684951 		.ascii	"chIQReadTimeout\000"
 4724      52656164 
 4724      54696D65 
 4724      6F757400 
 4725              	.LASF119:
 4726 007e 71756575 		.ascii	"queue_init\000"
 4726      655F696E 
 4726      697400
 4727              	.LASF116:
 4728 0089 706F7274 		.ascii	"port_lock\000"
 4728      5F6C6F63 
 4728      6B00
 4729              	.LASF132:
 4730 0093 63684951 		.ascii	"chIQObjectInit\000"
 4730      4F626A65 
 4730      6374496E 
 4730      697400
 4731              	.LASF14:
 4732 00a2 6C6F6E67 		.ascii	"long long unsigned int\000"
 4732      206C6F6E 
 4732      6720756E 
 4732      7369676E 
 4732      65642069 
 4733              	.LASF88:
 4734 00b9 65786974 		.ascii	"exitcode\000"
 4734      636F6465 
 4734      00
 4735              	.LASF78:
 4736 00c2 6D61696E 		.ascii	"mainthread\000"
 4736      74687265 
 4736      616400
 4737              	.LASF68:
 4738 00cd 76697274 		.ascii	"virtual_timers_list_t\000"
 4738      75616C5F 
 4738      74696D65 
 4738      72735F6C 
 4738      6973745F 
 4739              	.LASF145:
 4740 00e3 49544D5F 		.ascii	"ITM_RxBuffer\000"
ARM GAS  /tmp/ccEPKsUv.s 			page 85


 4740      52784275 
 4740      66666572 
 4740      00
 4741              	.LASF103:
 4742 00f0 696F5F71 		.ascii	"io_queue_t\000"
 4742      75657565 
 4742      5F7400
 4743              	.LASF51:
 4744 00fb 63685F74 		.ascii	"ch_threads_queue\000"
 4744      68726561 
 4744      64735F71 
 4744      75657565 
 4744      00
 4745              	.LASF31:
 4746 010c 705F7072 		.ascii	"p_prio\000"
 4746      696F00
 4747              	.LASF105:
 4748 0113 715F7761 		.ascii	"q_waiting\000"
 4748      6974696E 
 4748      6700
 4749              	.LASF1:
 4750 011d 6C6F6E67 		.ascii	"long long int\000"
 4750      206C6F6E 
 4750      6720696E 
 4750      7400
 4751              	.LASF3:
 4752 012b 7369676E 		.ascii	"signed char\000"
 4752      65642063 
 4752      68617200 
 4753              	.LASF45:
 4754 0137 705F6D70 		.ascii	"p_mpool\000"
 4754      6F6F6C00 
 4755              	.LASF98:
 4756 013f 6D5F7175 		.ascii	"m_queue\000"
 4756      65756500 
 4757              	.LASF77:
 4758 0147 76746C69 		.ascii	"vtlist\000"
 4758      737400
 4759              	.LASF117:
 4760 014e 706F7274 		.ascii	"port_unlock\000"
 4760      5F756E6C 
 4760      6F636B00 
 4761              	.LASF115:
 4762 015a 6F757470 		.ascii	"output_queue_t\000"
 4762      75745F71 
 4762      75657565 
 4762      5F7400
 4763              	.LASF90:
 4764 0169 77747472 		.ascii	"wttrp\000"
 4764      7000
 4765              	.LASF75:
 4766 016f 63685F73 		.ascii	"ch_system\000"
 4766      79737465 
 4766      6D00
 4767              	.LASF10:
 4768 0179 6C6F6E67 		.ascii	"long int\000"
 4768      20696E74 
ARM GAS  /tmp/ccEPKsUv.s 			page 86


 4768      00
 4769              	.LASF21:
 4770 0182 74737461 		.ascii	"tstate_t\000"
 4770      74655F74 
 4770      00
 4771              	.LASF142:
 4772 018b 63684F51 		.ascii	"chOQGetI\000"
 4772      47657449 
 4772      00
 4773              	.LASF107:
 4774 0194 715F6275 		.ascii	"q_buffer\000"
 4774      66666572 
 4774      00
 4775              	.LASF109:
 4776 019d 715F7772 		.ascii	"q_wrptr\000"
 4776      70747200 
 4777              	.LASF147:
 4778 01a5 63685468 		.ascii	"chThdDequeueNextI\000"
 4778      64446571 
 4778      75657565 
 4778      4E657874 
 4778      4900
 4779              	.LASF33:
 4780 01b7 705F6E65 		.ascii	"p_newer\000"
 4780      77657200 
 4781              	.LASF95:
 4782 01bf 735F7175 		.ascii	"s_queue\000"
 4782      65756500 
 4783              	.LASF57:
 4784 01c7 725F6E65 		.ascii	"r_newer\000"
 4784      77657200 
 4785              	.LASF81:
 4786 01cf 72656761 		.ascii	"regarm_t\000"
 4786      726D5F74 
 4786      00
 4787              	.LASF64:
 4788 01d8 76745F70 		.ascii	"vt_prev\000"
 4788      72657600 
 4789              	.LASF131:
 4790 01e0 6C696E6B 		.ascii	"link\000"
 4790      00
 4791              	.LASF134:
 4792 01e5 63684951 		.ascii	"chIQPutI\000"
 4792      50757449 
 4792      00
 4793              	.LASF102:
 4794 01ee 6D757465 		.ascii	"mutex_t\000"
 4794      785F7400 
 4795              	.LASF120:
 4796 01f6 76616C75 		.ascii	"value\000"
 4796      6500
 4797              	.LASF104:
 4798 01fc 696F5F71 		.ascii	"io_queue\000"
 4798      75657565 
 4798      00
 4799              	.LASF79:
 4800 0205 69646C65 		.ascii	"idle_thread_wa\000"
ARM GAS  /tmp/ccEPKsUv.s 			page 87


 4800      5F746872 
 4800      6561645F 
 4800      776100
 4801              	.LASF26:
 4802 0214 636E745F 		.ascii	"cnt_t\000"
 4802      7400
 4803              	.LASF0:
 4804 021a 756E7369 		.ascii	"unsigned int\000"
 4804      676E6564 
 4804      20696E74 
 4804      00
 4805              	.LASF63:
 4806 0227 76745F6E 		.ascii	"vt_next\000"
 4806      65787400 
 4807              	.LASF133:
 4808 022f 63684951 		.ascii	"chIQResetI\000"
 4808      52657365 
 4808      744900
 4809              	.LASF91:
 4810 023a 77747365 		.ascii	"wtsemp\000"
 4810      6D7000
 4811              	.LASF40:
 4812 0241 705F6D73 		.ascii	"p_msgqueue\000"
 4812      67717565 
 4812      756500
 4813              	.LASF136:
 4814 024c 74696D65 		.ascii	"timeout\000"
 4814      6F757400 
 4815              	.LASF48:
 4816 0254 63685F74 		.ascii	"ch_thread\000"
 4816      68726561 
 4816      6400
 4817              	.LASF96:
 4818 025e 735F636E 		.ascii	"s_cnt\000"
 4818      7400
 4819              	.LASF8:
 4820 0264 73686F72 		.ascii	"short unsigned int\000"
 4820      7420756E 
 4820      7369676E 
 4820      65642069 
 4820      6E7400
 4821              	.LASF150:
 4822 0277 2F686F6D 		.ascii	"/home/selim/working/ChibiOS/os/rt/src/chqueues.c\000"
 4822      652F7365 
 4822      6C696D2F 
 4822      776F726B 
 4822      696E672F 
 4823              	.LASF24:
 4824 02a8 6D73675F 		.ascii	"msg_t\000"
 4824      7400
 4825              	.LASF74:
 4826 02ae 63685F73 		.ascii	"ch_system_t\000"
 4826      79737465 
 4826      6D5F7400 
 4827              	.LASF20:
 4828 02ba 746D6F64 		.ascii	"tmode_t\000"
 4828      655F7400 
ARM GAS  /tmp/ccEPKsUv.s 			page 88


 4829              	.LASF53:
 4830 02c2 63685F72 		.ascii	"ch_ready_list\000"
 4830      65616479 
 4830      5F6C6973 
 4830      7400
 4831              	.LASF25:
 4832 02d0 6576656E 		.ascii	"eventmask_t\000"
 4832      746D6173 
 4832      6B5F7400 
 4833              	.LASF9:
 4834 02dc 5F5F696E 		.ascii	"__int32_t\000"
 4834      7433325F 
 4834      7400
 4835              	.LASF82:
 4836 02e6 73746B61 		.ascii	"stkalign_t\000"
 4836      6C69676E 
 4836      5F7400
 4837              	.LASF143:
 4838 02f1 63684F51 		.ascii	"chOQWriteTimeout\000"
 4838      57726974 
 4838      6554696D 
 4838      656F7574 
 4838      00
 4839              	.LASF124:
 4840 0302 63685468 		.ascii	"chThdQueueObjectInit\000"
 4840      64517565 
 4840      75654F62 
 4840      6A656374 
 4840      496E6974 
 4841              	.LASF39:
 4842 0317 705F7761 		.ascii	"p_waiting\000"
 4842      6974696E 
 4842      6700
 4843              	.LASF80:
 4844 0321 73697A65 		.ascii	"sizetype\000"
 4844      74797065 
 4844      00
 4845              	.LASF46:
 4846 032a 74687265 		.ascii	"thread_reference_t\000"
 4846      61645F72 
 4846      65666572 
 4846      656E6365 
 4846      5F7400
 4847              	.LASF69:
 4848 033d 63685F76 		.ascii	"ch_virtual_timers_list\000"
 4848      69727475 
 4848      616C5F74 
 4848      696D6572 
 4848      735F6C69 
 4849              	.LASF106:
 4850 0354 715F636F 		.ascii	"q_counter\000"
 4850      756E7465 
 4850      7200
 4851              	.LASF2:
 4852 035e 6C6F6E67 		.ascii	"long double\000"
 4852      20646F75 
 4852      626C6500 
ARM GAS  /tmp/ccEPKsUv.s 			page 89


 4853              	.LASF70:
 4854 036a 76745F6C 		.ascii	"vt_lasttime\000"
 4854      61737474 
 4854      696D6500 
 4855              	.LASF34:
 4856 0376 705F6F6C 		.ascii	"p_older\000"
 4856      64657200 
 4857              	.LASF56:
 4858 037e 725F6374 		.ascii	"r_ctx\000"
 4858      7800
 4859              	.LASF86:
 4860 0384 746D5F63 		.ascii	"tm_calibration_t\000"
 4860      616C6962 
 4860      72617469 
 4860      6F6E5F74 
 4860      00
 4861              	.LASF59:
 4862 0395 725F6375 		.ascii	"r_current\000"
 4862      7272656E 
 4862      7400
 4863              	.LASF58:
 4864 039f 725F6F6C 		.ascii	"r_older\000"
 4864      64657200 
 4865              	.LASF13:
 4866 03a7 5F5F7569 		.ascii	"__uint64_t\000"
 4866      6E743634 
 4866      5F7400
 4867              	.LASF22:
 4868 03b2 74726566 		.ascii	"trefs_t\000"
 4868      735F7400 
 4869              	.LASF113:
 4870 03ba 716E6F74 		.ascii	"qnotify_t\000"
 4870      6966795F 
 4870      7400
 4871              	.LASF61:
 4872 03c4 76697274 		.ascii	"virtual_timer_t\000"
 4872      75616C5F 
 4872      74696D65 
 4872      725F7400 
 4873              	.LASF30:
 4874 03d4 705F7072 		.ascii	"p_prev\000"
 4874      657600
 4875              	.LASF123:
 4876 03db 63684F51 		.ascii	"chOQIsFullI\000"
 4876      49734675 
 4876      6C6C4900 
 4877              	.LASF23:
 4878 03e7 74707269 		.ascii	"tprio_t\000"
 4878      6F5F7400 
 4879              	.LASF110:
 4880 03ef 715F7264 		.ascii	"q_rdptr\000"
 4880      70747200 
 4881              	.LASF72:
 4882 03f7 63685F73 		.ascii	"ch_system_debug\000"
 4882      79737465 
 4882      6D5F6465 
 4882      62756700 
ARM GAS  /tmp/ccEPKsUv.s 			page 90


 4883              	.LASF121:
 4884 0407 5F426F6F 		.ascii	"_Bool\000"
 4884      6C00
 4885              	.LASF16:
 4886 040d 696E7433 		.ascii	"int32_t\000"
 4886      325F7400 
 4887              	.LASF6:
 4888 0415 756E7369 		.ascii	"unsigned char\000"
 4888      676E6564 
 4888      20636861 
 4888      7200
 4889              	.LASF114:
 4890 0423 696E7075 		.ascii	"input_queue_t\000"
 4890      745F7175 
 4890      6575655F 
 4890      7400
 4891              	.LASF36:
 4892 0431 705F7374 		.ascii	"p_state\000"
 4892      61746500 
 4893              	.LASF43:
 4894 0439 705F6D74 		.ascii	"p_mtxlist\000"
 4894      786C6973 
 4894      7400
 4895              	.LASF7:
 4896 0443 73686F72 		.ascii	"short int\000"
 4896      7420696E 
 4896      7400
 4897              	.LASF55:
 4898 044d 725F7072 		.ascii	"r_prio\000"
 4898      696F00
 4899              	.LASF149:
 4900 0454 474E5520 		.ascii	"GNU C11 5.3.1 20160307 (release) [ARM/embedded-5-br"
 4900      43313120 
 4900      352E332E 
 4900      31203230 
 4900      31363033 
 4901 0487 616E6368 		.ascii	"anch revision 234589] -mcpu=cortex-m4 -mno-thumb-in"
 4901      20726576 
 4901      6973696F 
 4901      6E203233 
 4901      34353839 
 4902 04ba 74657277 		.ascii	"terwork -mthumb -ggdb -O2 -fomit-frame-pointer -fal"
 4902      6F726B20 
 4902      2D6D7468 
 4902      756D6220 
 4902      2D676764 
 4903 04ed 69676E2D 		.ascii	"ign-functions=16 -ffunction-sections -fdata-section"
 4903      66756E63 
 4903      74696F6E 
 4903      733D3136 
 4903      202D6666 
 4904 0520 73202D66 		.ascii	"s -fno-common\000"
 4904      6E6F2D63 
 4904      6F6D6D6F 
 4904      6E00
 4905              	.LASF93:
 4906 052e 65776D61 		.ascii	"ewmask\000"
ARM GAS  /tmp/ccEPKsUv.s 			page 91


 4906      736B00
 4907              	.LASF29:
 4908 0535 705F6E65 		.ascii	"p_next\000"
 4908      787400
 4909              	.LASF130:
 4910 053c 696E6679 		.ascii	"infy\000"
 4910      00
 4911              	.LASF37:
 4912 0541 705F666C 		.ascii	"p_flags\000"
 4912      61677300 
 4913              	.LASF144:
 4914 0549 5F5F6675 		.ascii	"__func__\000"
 4914      6E635F5F 
 4914      00
 4915              	.LASF126:
 4916 0552 63685379 		.ascii	"chSysLock\000"
 4916      734C6F63 
 4916      6B00
 4917              	.LASF50:
 4918 055c 74687265 		.ascii	"threads_queue_t\000"
 4918      6164735F 
 4918      71756575 
 4918      655F7400 
 4919              	.LASF62:
 4920 056c 63685F76 		.ascii	"ch_virtual_timer\000"
 4920      69727475 
 4920      616C5F74 
 4920      696D6572 
 4920      00
 4921              	.LASF94:
 4922 057d 63685F73 		.ascii	"ch_semaphore\000"
 4922      656D6170 
 4922      686F7265 
 4922      00
 4923              	.LASF42:
 4924 058a 705F6570 		.ascii	"p_epending\000"
 4924      656E6469 
 4924      6E6700
 4925              	.LASF125:
 4926 0595 63684951 		.ascii	"chIQIsFullI\000"
 4926      49734675 
 4926      6C6C4900 
 4927              	.LASF17:
 4928 05a1 75696E74 		.ascii	"uint32_t\000"
 4928      33325F74 
 4928      00
 4929              	.LASF92:
 4930 05aa 77746D74 		.ascii	"wtmtxp\000"
 4930      787000
 4931              	.LASF54:
 4932 05b1 725F7175 		.ascii	"r_queue\000"
 4932      65756500 
 4933              	.LASF65:
 4934 05b9 76745F64 		.ascii	"vt_delta\000"
 4934      656C7461 
 4934      00
 4935              	.LASF49:
ARM GAS  /tmp/ccEPKsUv.s 			page 92


 4936 05c2 63685F74 		.ascii	"ch_threads_list\000"
 4936      68726561 
 4936      64735F6C 
 4936      69737400 
 4937              	.LASF12:
 4938 05d2 6C6F6E67 		.ascii	"long unsigned int\000"
 4938      20756E73 
 4938      69676E65 
 4938      6420696E 
 4938      7400
 4939              	.LASF101:
 4940 05e4 63686172 		.ascii	"char\000"
 4940      00
 4941              	.LASF28:
 4942 05e9 74687265 		.ascii	"thread_t\000"
 4942      61645F74 
 4942      00
 4943              	.LASF100:
 4944 05f2 6D5F6E65 		.ascii	"m_next\000"
 4944      787400
 4945              	.LASF27:
 4946 05f9 73797374 		.ascii	"systime_t\000"
 4946      696D655F 
 4946      7400
 4947              	.LASF44:
 4948 0603 705F7265 		.ascii	"p_realprio\000"
 4948      616C7072 
 4948      696F00
 4949              	.LASF60:
 4950 060e 76746675 		.ascii	"vtfunc_t\000"
 4950      6E635F74 
 4950      00
 4951              	.LASF11:
 4952 0617 5F5F7569 		.ascii	"__uint32_t\000"
 4952      6E743332 
 4952      5F7400
 4953              	.LASF118:
 4954 0622 5F5F7365 		.ascii	"__set_BASEPRI\000"
 4954      745F4241 
 4954      53455052 
 4954      4900
 4955              	.LASF73:
 4956 0630 70616E69 		.ascii	"panic_msg\000"
 4956      635F6D73 
 4956      6700
 4957              	.LASF85:
 4958 063a 6F666673 		.ascii	"offset\000"
 4958      657400
 4959              	.LASF140:
 4960 0641 63684F51 		.ascii	"chOQResetI\000"
 4960      52657365 
 4960      744900
 4961              	.LASF83:
 4962 064c 636F6E74 		.ascii	"context\000"
 4962      65787400 
 4963              	.LASF19:
 4964 0654 7274636E 		.ascii	"rtcnt_t\000"
ARM GAS  /tmp/ccEPKsUv.s 			page 93


 4964      745F7400 
 4965              	.LASF67:
 4966 065c 76745F70 		.ascii	"vt_par\000"
 4966      617200
 4967              	.LASF138:
 4968 0663 63684F51 		.ascii	"chOQObjectInit\000"
 4968      4F626A65 
 4968      6374496E 
 4968      697400
 4969              	.LASF108:
 4970 0672 715F746F 		.ascii	"q_top\000"
 4970      7000
 4971              	.LASF97:
 4972 0678 63685F6D 		.ascii	"ch_mutex\000"
 4972      75746578 
 4972      00
 4973              	.LASF38:
 4974 0681 705F7265 		.ascii	"p_refs\000"
 4974      667300
 4975              	.LASF122:
 4976 0688 63684951 		.ascii	"chIQIsEmptyI\000"
 4976      4973456D 
 4976      70747949 
 4976      00
 4977              	.LASF111:
 4978 0695 715F6E6F 		.ascii	"q_notify\000"
 4978      74696679 
 4978      00
 4979              	.LASF76:
 4980 069e 726C6973 		.ascii	"rlist\000"
 4980      7400
 4981              	.LASF15:
 4982 06a4 75696E74 		.ascii	"uint8_t\000"
 4982      385F7400 
 4983              	.LASF89:
 4984 06ac 77746F62 		.ascii	"wtobjp\000"
 4984      6A7000
 4985              	.LASF35:
 4986 06b3 705F6E61 		.ascii	"p_name\000"
 4986      6D6500
 4987              	.LASF129:
 4988 06ba 73697A65 		.ascii	"size\000"
 4988      00
 4989              	.LASF128:
 4990 06bf 63684F51 		.ascii	"chOQIsEmptyI\000"
 4990      4973456D 
 4990      70747949 
 4990      00
 4991              	.LASF47:
 4992 06cc 74687265 		.ascii	"threads_list_t\000"
 4992      6164735F 
 4992      6C697374 
 4992      5F7400
 4993              	.LASF127:
 4994 06db 63685379 		.ascii	"chSysUnlock\000"
 4994      73556E6C 
 4994      6F636B00 
ARM GAS  /tmp/ccEPKsUv.s 			page 94


 4995              	.LASF41:
 4996 06e7 705F6D73 		.ascii	"p_msg\000"
 4996      6700
 4997              	.LASF112:
 4998 06ed 715F6C69 		.ascii	"q_link\000"
 4998      6E6B00
 4999              	.LASF99:
 5000 06f4 6D5F6F77 		.ascii	"m_owner\000"
 5000      6E657200 
 5001              	.LASF32:
 5002 06fc 705F6374 		.ascii	"p_ctx\000"
 5002      7800
 5003              	.LASF66:
 5004 0702 76745F66 		.ascii	"vt_func\000"
 5004      756E6300 
 5005              	.LASF135:
 5006 070a 63684951 		.ascii	"chIQGetTimeout\000"
 5006      47657454 
 5006      696D656F 
 5006      757400
 5007              	.LASF148:
 5008 0719 63685468 		.ascii	"chThdEnqueueTimeoutS\000"
 5008      64456E71 
 5008      75657565 
 5008      54696D65 
 5008      6F757453 
 5009              		.ident	"GCC: (GNU Tools for ARM Embedded Processors) 5.3.1 20160307 (release) [ARM/embedded-5-bran
ARM GAS  /tmp/ccEPKsUv.s 			page 95


DEFINED SYMBOLS
                            *ABS*:0000000000000000 chqueues.c
     /tmp/ccEPKsUv.s:20     .text.chIQObjectInit:0000000000000000 $t
     /tmp/ccEPKsUv.s:26     .text.chIQObjectInit:0000000000000000 chIQObjectInit
     /tmp/ccEPKsUv.s:83     .text.chIQResetI:0000000000000000 $t
     /tmp/ccEPKsUv.s:89     .text.chIQResetI:0000000000000000 chIQResetI
     /tmp/ccEPKsUv.s:115    .text.chIQPutI:0000000000000000 $t
     /tmp/ccEPKsUv.s:121    .text.chIQPutI:0000000000000000 chIQPutI
     /tmp/ccEPKsUv.s:194    .text.chIQGetTimeout:0000000000000000 $t
     /tmp/ccEPKsUv.s:200    .text.chIQGetTimeout:0000000000000000 chIQGetTimeout
     /tmp/ccEPKsUv.s:345    .text.chIQReadTimeout:0000000000000000 $t
     /tmp/ccEPKsUv.s:351    .text.chIQReadTimeout:0000000000000000 chIQReadTimeout
     /tmp/ccEPKsUv.s:542    .text.chOQObjectInit:0000000000000000 $t
     /tmp/ccEPKsUv.s:548    .text.chOQObjectInit:0000000000000000 chOQObjectInit
     /tmp/ccEPKsUv.s:599    .text.chOQResetI:0000000000000000 $t
     /tmp/ccEPKsUv.s:605    .text.chOQResetI:0000000000000000 chOQResetI
     /tmp/ccEPKsUv.s:640    .text.chOQPutTimeout:0000000000000000 $t
     /tmp/ccEPKsUv.s:646    .text.chOQPutTimeout:0000000000000000 chOQPutTimeout
     /tmp/ccEPKsUv.s:781    .text.chOQGetI:0000000000000000 $t
     /tmp/ccEPKsUv.s:787    .text.chOQGetI:0000000000000000 chOQGetI
     /tmp/ccEPKsUv.s:856    .text.chOQWriteTimeout:0000000000000000 $t
     /tmp/ccEPKsUv.s:862    .text.chOQWriteTimeout:0000000000000000 chOQWriteTimeout
                     .debug_frame:0000000000000010 $d

UNDEFINED SYMBOLS
chThdDequeueAllI
chThdDequeueNextI
chThdEnqueueTimeoutS
