ARM GAS  /tmp/cct18UAW.s 			page 1


   1              		.syntax unified
   2              		.cpu cortex-m4
   3              		.fpu softvfp
   4              		.eabi_attribute 20, 1
   5              		.eabi_attribute 21, 1
   6              		.eabi_attribute 23, 3
   7              		.eabi_attribute 24, 1
   8              		.eabi_attribute 25, 1
   9              		.eabi_attribute 26, 1
  10              		.eabi_attribute 30, 2
  11              		.eabi_attribute 34, 1
  12              		.eabi_attribute 18, 4
  13              		.thumb
  14              		.syntax unified
  15              		.file	"chschd.c"
  16              		.text
  17              	.Ltext0:
  18              		.cfi_sections	.debug_frame
  19              		.section	.text.wakeup,"ax",%progbits
  20              		.align	2
  21              		.p2align 4,,15
  22              		.thumb
  23              		.thumb_func
  24              		.type	wakeup, %function
  25              	wakeup:
  26              	.LFB230:
  27              		.file 1 "/home/selim/working/ChibiOS/os/rt/src/chschd.c"
  28              		.loc 1 275 0
  29              		.cfi_startproc
  30              		@ args = 0, pretend = 0, frame = 0
  31              		@ frame_needed = 0, uses_anonymous_args = 0
  32              		@ link register save eliminated.
  33              	.LVL0:
  34 0000 10B4     		push	{r4}
  35              		.cfi_def_cfa_offset 4
  36              		.cfi_offset 4, -4
  37              	.LBB128:
  38              	.LBB129:
  39              	.LBB130:
  40              	.LBB131:
  41              	.LBB132:
  42              		.file 2 "/home/selim/working/ChibiOS/os/ext/CMSIS/include/core_cmFunc.h"
  43              		.loc 2 546 0
  44 0002 2023     		movs	r3, #32
  45              		.syntax unified
  46              	@ 546 "/home/selim/working/ChibiOS/os/ext/CMSIS/include/core_cmFunc.h" 1
  47 0004 83F31188 		MSR basepri, r3
  48              	@ 0 "" 2
  49              	.LVL1:
  50              		.thumb
  51              		.syntax unified
  52              	.LBE132:
  53              	.LBE131:
  54              	.LBE130:
  55              	.LBE129:
  56              	.LBE128:
  57              		.loc 1 279 0
ARM GAS  /tmp/cct18UAW.s 			page 2


  58 0008 037F     		ldrb	r3, [r0, #28]	@ zero_extendqisi2
  59 000a 072B     		cmp	r3, #7
  60 000c 0ED8     		bhi	.L2
  61 000e DFE803F0 		tbb	[pc, r3]
  62              	.L4:
  63 0012 26       		.byte	(.L3-.L4)/2
  64 0013 0D       		.byte	(.L2-.L4)/2
  65 0014 0D       		.byte	(.L2-.L4)/2
  66 0015 22       		.byte	(.L5-.L4)/2
  67 0016 08       		.byte	(.L6-.L4)/2
  68 0017 04       		.byte	(.L7-.L4)/2
  69 0018 0D       		.byte	(.L2-.L4)/2
  70 0019 08       		.byte	(.L6-.L4)/2
  71              		.p2align 1
  72              	.L7:
  73              		.loc 1 290 0
  74 001a 026A     		ldr	r2, [r0, #32]
  75              	.LVL2:
  76              	.LBB133:
  77              	.LBB134:
  78              		.file 3 "/home/selim/working/ChibiOS/os/rt/include/chsem.h"
  79              		.loc 3 138 0
  80 001c 9368     		ldr	r3, [r2, #8]
  81 001e 0133     		adds	r3, r3, #1
  82 0020 9360     		str	r3, [r2, #8]
  83              	.LVL3:
  84              	.L6:
  85              	.LBE134:
  86              	.LBE133:
  87              	.LBB135:
  88              	.LBB136:
  89              		.file 4 "/home/selim/working/ChibiOS/os/rt/include/chschd.h"
  90              		.loc 4 691 0
  91 0022 90E80C00 		ldmia	r0, {r2, r3}
  92 0026 1A60     		str	r2, [r3]
  93              		.loc 4 692 0
  94 0028 0268     		ldr	r2, [r0]
  95 002a 5360     		str	r3, [r2, #4]
  96              	.LVL4:
  97              	.L2:
  98              	.LBE136:
  99              	.LBE135:
 100              		.loc 1 304 0
 101 002c 4FF0FF34 		mov	r4, #-1
 102              	.LBB137:
 103              	.LBB138:
 104              		.loc 1 227 0
 105 0030 0022     		movs	r2, #0
 106 0032 8168     		ldr	r1, [r0, #8]
 107              	.LBE138:
 108              	.LBE137:
 109              	.LBB140:
 110              	.LBB141:
 111              	.LBB142:
 112              	.LBB143:
 113              		.loc 1 228 0
 114 0034 0C4B     		ldr	r3, .L13
ARM GAS  /tmp/cct18UAW.s 			page 3


 115              	.LBE143:
 116              	.LBE142:
 117              	.LBE141:
 118              	.LBE140:
 119              		.loc 1 304 0
 120 0036 0462     		str	r4, [r0, #32]
 121              	.LVL5:
 122              	.LBB159:
 123              	.LBB139:
 124              		.loc 1 227 0
 125 0038 0277     		strb	r2, [r0, #28]
 126              	.LVL6:
 127              	.L9:
 128              	.LBE139:
 129              	.LBE159:
 130              	.LBB160:
 131              	.LBB158:
 132              	.LBB146:
 133              	.LBB144:
 134              		.loc 1 230 0
 135 003a 1B68     		ldr	r3, [r3]
 136              	.LVL7:
 137              		.loc 1 231 0
 138 003c 9A68     		ldr	r2, [r3, #8]
 139 003e 8A42     		cmp	r2, r1
 140 0040 FBD2     		bcs	.L9
 141              		.loc 1 234 0
 142 0042 5A68     		ldr	r2, [r3, #4]
 143 0044 4260     		str	r2, [r0, #4]
 144              		.loc 1 233 0
 145 0046 0360     		str	r3, [r0]
 146              	.LBE144:
 147              	.LBE146:
 148              	.LBB147:
 149              	.LBB148:
 150              	.LBB149:
 151              	.LBB150:
 152              	.LBB151:
 153              		.loc 2 546 0
 154 0048 0021     		movs	r1, #0
 155              	.LBE151:
 156              	.LBE150:
 157              	.LBE149:
 158              	.LBE148:
 159              	.LBE147:
 160              	.LBB156:
 161              	.LBB145:
 162              		.loc 1 235 0
 163 004a 1060     		str	r0, [r2]
 164              		.loc 1 236 0
 165 004c 5860     		str	r0, [r3, #4]
 166              	.LVL8:
 167              	.LBE145:
 168              	.LBE156:
 169              	.LBB157:
 170              	.LBB155:
 171              	.LBB154:
ARM GAS  /tmp/cct18UAW.s 			page 4


 172              	.LBB153:
 173              	.LBB152:
 174              		.loc 2 546 0
 175              		.syntax unified
 176              	@ 546 "/home/selim/working/ChibiOS/os/ext/CMSIS/include/core_cmFunc.h" 1
 177 004e 81F31188 		MSR basepri, r1
 178              	@ 0 "" 2
 179              	.LVL9:
 180              		.thumb
 181              		.syntax unified
 182              	.LBE152:
 183              	.LBE153:
 184              	.LBE154:
 185              	.LBE155:
 186              	.LBE157:
 187              	.LBE158:
 188              	.LBE160:
 189              		.loc 1 307 0
 190 0052 10BC     		pop	{r4}
 191              		.cfi_remember_state
 192              		.cfi_restore 4
 193              		.cfi_def_cfa_offset 0
 194 0054 7047     		bx	lr
 195              	.LVL10:
 196              	.L5:
 197              		.cfi_restore_state
 198              		.loc 1 286 0
 199 0056 036A     		ldr	r3, [r0, #32]
 200 0058 0022     		movs	r2, #0
 201 005a 1A60     		str	r2, [r3]
 202              		.loc 1 287 0
 203 005c E6E7     		b	.L2
 204              	.L3:
 205              	.LVL11:
 206              	.LBB161:
 207              	.LBB162:
 208              	.LBB163:
 209              	.LBB164:
 210              	.LBB165:
 211              		.loc 2 546 0
 212 005e 0023     		movs	r3, #0
 213              		.syntax unified
 214              	@ 546 "/home/selim/working/ChibiOS/os/ext/CMSIS/include/core_cmFunc.h" 1
 215 0060 83F31188 		MSR basepri, r3
 216              	@ 0 "" 2
 217              	.LVL12:
 218              		.thumb
 219              		.syntax unified
 220              	.LBE165:
 221              	.LBE164:
 222              	.LBE163:
 223              	.LBE162:
 224              	.LBE161:
 225              		.loc 1 307 0
 226 0064 10BC     		pop	{r4}
 227              		.cfi_restore 4
 228              		.cfi_def_cfa_offset 0
ARM GAS  /tmp/cct18UAW.s 			page 5


 229 0066 7047     		bx	lr
 230              	.L14:
 231              		.align	2
 232              	.L13:
 233 0068 00000000 		.word	.LANCHOR0
 234              		.cfi_endproc
 235              	.LFE230:
 236              		.size	wakeup, .-wakeup
 237              		.section	.text._scheduler_init,"ax",%progbits
 238              		.align	2
 239              		.p2align 4,,15
 240              		.global	_scheduler_init
 241              		.thumb
 242              		.thumb_func
 243              		.type	_scheduler_init, %function
 244              	_scheduler_init:
 245              	.LFB227:
 246              		.loc 1 65 0
 247              		.cfi_startproc
 248              		@ args = 0, pretend = 0, frame = 0
 249              		@ frame_needed = 0, uses_anonymous_args = 0
 250              		@ link register save eliminated.
 251              	.LVL13:
 252              	.LBB166:
 253              	.LBB167:
 254              		.loc 4 604 0
 255 0000 034B     		ldr	r3, .L16
 256              	.LBE167:
 257              	.LBE166:
 258              		.loc 1 68 0
 259 0002 0022     		movs	r2, #0
 260              	.LBB169:
 261              	.LBB168:
 262              		.loc 4 604 0
 263 0004 1B60     		str	r3, [r3]
 264              		.loc 4 605 0
 265 0006 5B60     		str	r3, [r3, #4]
 266              	.LVL14:
 267              	.LBE168:
 268              	.LBE169:
 269              		.loc 1 70 0
 270 0008 1B61     		str	r3, [r3, #16]
 271              		.loc 1 71 0
 272 000a 5B61     		str	r3, [r3, #20]
 273              		.loc 1 68 0
 274 000c 9A60     		str	r2, [r3, #8]
 275 000e 7047     		bx	lr
 276              	.L17:
 277              		.align	2
 278              	.L16:
 279 0010 00000000 		.word	.LANCHOR0
 280              		.cfi_endproc
 281              	.LFE227:
 282              		.size	_scheduler_init, .-_scheduler_init
 283              		.section	.text.chSchReadyI,"ax",%progbits
 284              		.align	2
 285              		.p2align 4,,15
ARM GAS  /tmp/cct18UAW.s 			page 6


 286              		.global	chSchReadyI
 287              		.thumb
 288              		.thumb_func
 289              		.type	chSchReadyI, %function
 290              	chSchReadyI:
 291              	.LFB228:
 292              		.loc 1 218 0
 293              		.cfi_startproc
 294              		@ args = 0, pretend = 0, frame = 0
 295              		@ frame_needed = 0, uses_anonymous_args = 0
 296              		@ link register save eliminated.
 297              	.LVL15:
 298              		.loc 1 227 0
 299 0000 0022     		movs	r2, #0
 300 0002 8168     		ldr	r1, [r0, #8]
 301              		.loc 1 228 0
 302 0004 074B     		ldr	r3, .L22
 303              		.loc 1 218 0
 304 0006 10B4     		push	{r4}
 305              		.cfi_def_cfa_offset 4
 306              		.cfi_offset 4, -4
 307              		.loc 1 218 0
 308 0008 0446     		mov	r4, r0
 309              		.loc 1 227 0
 310 000a 0277     		strb	r2, [r0, #28]
 311              	.LVL16:
 312              	.L19:
 313              		.loc 1 230 0 discriminator 1
 314 000c 1B68     		ldr	r3, [r3]
 315              	.LVL17:
 316              		.loc 1 231 0 discriminator 1
 317 000e 9A68     		ldr	r2, [r3, #8]
 318 0010 8A42     		cmp	r2, r1
 319 0012 FBD2     		bcs	.L19
 320              		.loc 1 234 0
 321 0014 5A68     		ldr	r2, [r3, #4]
 322 0016 6260     		str	r2, [r4, #4]
 323              		.loc 1 233 0
 324 0018 2360     		str	r3, [r4]
 325              		.loc 1 239 0
 326 001a 2046     		mov	r0, r4
 327              	.LVL18:
 328              		.loc 1 235 0
 329 001c 1460     		str	r4, [r2]
 330              		.loc 1 236 0
 331 001e 5C60     		str	r4, [r3, #4]
 332              		.loc 1 239 0
 333 0020 10BC     		pop	{r4}
 334              		.cfi_restore 4
 335              		.cfi_def_cfa_offset 0
 336              	.LVL19:
 337 0022 7047     		bx	lr
 338              	.L23:
 339              		.align	2
 340              	.L22:
 341 0024 00000000 		.word	.LANCHOR0
 342              		.cfi_endproc
ARM GAS  /tmp/cct18UAW.s 			page 7


 343              	.LFE228:
 344              		.size	chSchReadyI, .-chSchReadyI
 345              		.section	.text.chSchGoSleepS,"ax",%progbits
 346              		.align	2
 347              		.p2align 4,,15
 348              		.global	chSchGoSleepS
 349              		.thumb
 350              		.thumb_func
 351              		.type	chSchGoSleepS, %function
 352              	chSchGoSleepS:
 353              	.LFB229:
 354              		.loc 1 250 0
 355              		.cfi_startproc
 356              		@ args = 0, pretend = 0, frame = 0
 357              		@ frame_needed = 0, uses_anonymous_args = 0
 358              		@ link register save eliminated.
 359              	.LVL20:
 360              		.loc 1 255 0
 361 0000 074B     		ldr	r3, .L26
 362 0002 9969     		ldr	r1, [r3, #24]
 363              	.LVL21:
 364              	.LBB170:
 365              	.LBB171:
 366              		.loc 4 672 0
 367 0004 1A68     		ldr	r2, [r3]
 368              	.LBE171:
 369              	.LBE170:
 370              		.loc 1 250 0
 371 0006 10B4     		push	{r4}
 372              		.cfi_def_cfa_offset 4
 373              		.cfi_offset 4, -4
 374              		.loc 1 256 0
 375 0008 0877     		strb	r0, [r1, #28]
 376              	.LVL22:
 377              	.LBB174:
 378              	.LBB172:
 379              		.loc 4 674 0
 380 000a 1068     		ldr	r0, [r2]
 381              	.LVL23:
 382 000c 1860     		str	r0, [r3]
 383              	.LBE172:
 384              	.LBE174:
 385              		.loc 1 268 0
 386 000e 0124     		movs	r4, #1
 387              	.LBB175:
 388              	.LBB173:
 389              		.loc 4 675 0
 390 0010 4360     		str	r3, [r0, #4]
 391              	.LVL24:
 392              	.LBE173:
 393              	.LBE175:
 394              		.loc 1 268 0
 395 0012 1477     		strb	r4, [r2, #28]
 396              		.loc 1 269 0
 397 0014 1046     		mov	r0, r2
 398              		.loc 1 270 0
 399 0016 10BC     		pop	{r4}
ARM GAS  /tmp/cct18UAW.s 			page 8


 400              		.cfi_restore 4
 401              		.cfi_def_cfa_offset 0
 402              		.loc 1 262 0
 403 0018 9A61     		str	r2, [r3, #24]
 404              		.loc 1 269 0
 405 001a FFF7FEBF 		b	_port_switch
 406              	.LVL25:
 407              	.L27:
 408 001e 00BF     		.align	2
 409              	.L26:
 410 0020 00000000 		.word	.LANCHOR0
 411              		.cfi_endproc
 412              	.LFE229:
 413              		.size	chSchGoSleepS, .-chSchGoSleepS
 414              		.section	.text.chSchGoSleepTimeoutS,"ax",%progbits
 415              		.align	2
 416              		.p2align 4,,15
 417              		.global	chSchGoSleepTimeoutS
 418              		.thumb
 419              		.thumb_func
 420              		.type	chSchGoSleepTimeoutS, %function
 421              	chSchGoSleepTimeoutS:
 422              	.LFB231:
 423              		.loc 1 330 0
 424              		.cfi_startproc
 425              		@ args = 0, pretend = 0, frame = 24
 426              		@ frame_needed = 0, uses_anonymous_args = 0
 427              	.LVL26:
 428 0000 30B5     		push	{r4, r5, lr}
 429              		.cfi_def_cfa_offset 12
 430              		.cfi_offset 4, -12
 431              		.cfi_offset 5, -8
 432              		.cfi_offset 14, -4
 433              		.loc 1 334 0
 434 0002 4B1C     		adds	r3, r1, #1
 435              		.loc 1 330 0
 436 0004 87B0     		sub	sp, sp, #28
 437              		.cfi_def_cfa_offset 40
 438              		.loc 1 334 0
 439 0006 12D0     		beq	.L29
 440              	.LBB176:
 441              		.loc 1 337 0
 442 0008 0C4C     		ldr	r4, .L36
 443 000a 0D4A     		ldr	r2, .L36+4
 444 000c A369     		ldr	r3, [r4, #24]
 445 000e 0546     		mov	r5, r0
 446 0010 01A8     		add	r0, sp, #4
 447              	.LVL27:
 448 0012 FFF7FEFF 		bl	chVTDoSetI
 449              	.LVL28:
 450              		.loc 1 338 0
 451 0016 2846     		mov	r0, r5
 452 0018 FFF7FEFF 		bl	chSchGoSleepS
 453              	.LVL29:
 454              		.loc 1 339 0
 455 001c 049B     		ldr	r3, [sp, #16]
 456 001e 13B1     		cbz	r3, .L31
ARM GAS  /tmp/cct18UAW.s 			page 9


 457              		.loc 1 340 0
 458 0020 01A8     		add	r0, sp, #4
 459              	.LVL30:
 460 0022 FFF7FEFF 		bl	chVTDoResetI
 461              	.LVL31:
 462              	.L31:
 463              	.LBE176:
 464              		.loc 1 347 0
 465 0026 A369     		ldr	r3, [r4, #24]
 466              		.loc 1 348 0
 467 0028 186A     		ldr	r0, [r3, #32]
 468 002a 07B0     		add	sp, sp, #28
 469              		.cfi_remember_state
 470              		.cfi_def_cfa_offset 12
 471              		@ sp needed
 472 002c 30BD     		pop	{r4, r5, pc}
 473              	.LVL32:
 474              	.L29:
 475              		.cfi_restore_state
 476 002e 034C     		ldr	r4, .L36
 477              		.loc 1 344 0
 478 0030 FFF7FEFF 		bl	chSchGoSleepS
 479              	.LVL33:
 480              		.loc 1 347 0
 481 0034 A369     		ldr	r3, [r4, #24]
 482              		.loc 1 348 0
 483 0036 186A     		ldr	r0, [r3, #32]
 484 0038 07B0     		add	sp, sp, #28
 485              		.cfi_def_cfa_offset 12
 486              		@ sp needed
 487 003a 30BD     		pop	{r4, r5, pc}
 488              	.L37:
 489              		.align	2
 490              	.L36:
 491 003c 00000000 		.word	.LANCHOR0
 492 0040 00000000 		.word	wakeup
 493              		.cfi_endproc
 494              	.LFE231:
 495              		.size	chSchGoSleepTimeoutS, .-chSchGoSleepTimeoutS
 496              		.section	.text.chSchWakeupS,"ax",%progbits
 497              		.align	2
 498              		.p2align 4,,15
 499              		.global	chSchWakeupS
 500              		.thumb
 501              		.thumb_func
 502              		.type	chSchWakeupS, %function
 503              	chSchWakeupS:
 504              	.LFB232:
 505              		.loc 1 367 0
 506              		.cfi_startproc
 507              		@ args = 0, pretend = 0, frame = 0
 508              		@ frame_needed = 0, uses_anonymous_args = 0
 509              		@ link register save eliminated.
 510              	.LVL34:
 511              		.loc 1 379 0
 512 0000 144B     		ldr	r3, .L47
 513              		.loc 1 367 0
ARM GAS  /tmp/cct18UAW.s 			page 10


 514 0002 70B4     		push	{r4, r5, r6}
 515              		.cfi_def_cfa_offset 12
 516              		.cfi_offset 4, -12
 517              		.cfi_offset 5, -8
 518              		.cfi_offset 6, -4
 519              		.loc 1 367 0
 520 0004 0446     		mov	r4, r0
 521              		.loc 1 379 0
 522 0006 9D69     		ldr	r5, [r3, #24]
 523              		.loc 1 373 0
 524 0008 0162     		str	r1, [r0, #32]
 525              		.loc 1 379 0
 526 000a A868     		ldr	r0, [r5, #8]
 527              	.LVL35:
 528 000c A168     		ldr	r1, [r4, #8]
 529              	.LVL36:
 530 000e 8142     		cmp	r1, r0
 531              	.LBB177:
 532              	.LBB178:
 533              		.loc 1 227 0
 534 0010 4FF00002 		mov	r2, #0
 535              	.LBE178:
 536              	.LBE177:
 537              		.loc 1 379 0
 538 0014 0BD8     		bhi	.L39
 539              	.LVL37:
 540              	.LBB180:
 541              	.LBB179:
 542              		.loc 1 227 0
 543 0016 2277     		strb	r2, [r4, #28]
 544              	.LVL38:
 545              	.L40:
 546              		.loc 1 230 0
 547 0018 1B68     		ldr	r3, [r3]
 548              	.LVL39:
 549              		.loc 1 231 0
 550 001a 9A68     		ldr	r2, [r3, #8]
 551 001c 9142     		cmp	r1, r2
 552 001e FBD9     		bls	.L40
 553              		.loc 1 234 0
 554 0020 5A68     		ldr	r2, [r3, #4]
 555 0022 6260     		str	r2, [r4, #4]
 556              		.loc 1 233 0
 557 0024 2360     		str	r3, [r4]
 558              		.loc 1 235 0
 559 0026 1460     		str	r4, [r2]
 560              	.LVL40:
 561              		.loc 1 236 0
 562 0028 5C60     		str	r4, [r3, #4]
 563              	.LBE179:
 564              	.LBE180:
 565              		.loc 1 393 0
 566 002a 70BC     		pop	{r4, r5, r6}
 567              		.cfi_remember_state
 568              		.cfi_restore 6
 569              		.cfi_restore 5
 570              		.cfi_restore 4
ARM GAS  /tmp/cct18UAW.s 			page 11


 571              		.cfi_def_cfa_offset 0
 572              	.LVL41:
 573 002c 7047     		bx	lr
 574              	.LVL42:
 575              	.L39:
 576              		.cfi_restore_state
 577              	.LBB181:
 578              	.LBB182:
 579              	.LBB183:
 580              		.loc 1 227 0
 581 002e 2A77     		strb	r2, [r5, #28]
 582              	.LVL43:
 583              		.loc 1 228 0
 584 0030 1A46     		mov	r2, r3
 585              	.LVL44:
 586              	.L42:
 587              		.loc 1 230 0
 588 0032 1268     		ldr	r2, [r2]
 589              	.LVL45:
 590              		.loc 1 231 0
 591 0034 9168     		ldr	r1, [r2, #8]
 592 0036 8842     		cmp	r0, r1
 593 0038 FBD9     		bls	.L42
 594              		.loc 1 234 0
 595 003a 5068     		ldr	r0, [r2, #4]
 596 003c 6860     		str	r0, [r5, #4]
 597              	.LBE183:
 598              	.LBE182:
 599              		.loc 1 390 0
 600 003e 0126     		movs	r6, #1
 601              	.LBB185:
 602              	.LBB184:
 603              		.loc 1 233 0
 604 0040 2A60     		str	r2, [r5]
 605              		.loc 1 235 0
 606 0042 0560     		str	r5, [r0]
 607              		.loc 1 236 0
 608 0044 5560     		str	r5, [r2, #4]
 609              	.LVL46:
 610              	.LBE184:
 611              	.LBE185:
 612              		.loc 1 390 0
 613 0046 2677     		strb	r6, [r4, #28]
 614              		.loc 1 391 0
 615 0048 2946     		mov	r1, r5
 616 004a 2046     		mov	r0, r4
 617              		.loc 1 384 0
 618 004c 9C61     		str	r4, [r3, #24]
 619              	.LBE181:
 620              		.loc 1 393 0
 621 004e 70BC     		pop	{r4, r5, r6}
 622              		.cfi_restore 6
 623              		.cfi_restore 5
 624              		.cfi_restore 4
 625              		.cfi_def_cfa_offset 0
 626              	.LVL47:
 627              	.LBB186:
ARM GAS  /tmp/cct18UAW.s 			page 12


 628              		.loc 1 391 0
 629 0050 FFF7FEBF 		b	_port_switch
 630              	.LVL48:
 631              	.L48:
 632              		.align	2
 633              	.L47:
 634 0054 00000000 		.word	.LANCHOR0
 635              	.LBE186:
 636              		.cfi_endproc
 637              	.LFE232:
 638              		.size	chSchWakeupS, .-chSchWakeupS
 639              		.section	.text.chSchIsPreemptionRequired,"ax",%progbits
 640              		.align	2
 641              		.p2align 4,,15
 642              		.global	chSchIsPreemptionRequired
 643              		.thumb
 644              		.thumb_func
 645              		.type	chSchIsPreemptionRequired, %function
 646              	chSchIsPreemptionRequired:
 647              	.LFB234:
 648              		.loc 1 424 0
 649              		.cfi_startproc
 650              		@ args = 0, pretend = 0, frame = 0
 651              		@ frame_needed = 0, uses_anonymous_args = 0
 652              		@ link register save eliminated.
 653              	.LVL49:
 654              		.loc 1 425 0
 655 0000 044B     		ldr	r3, .L50
 656 0002 1A68     		ldr	r2, [r3]
 657              		.loc 1 426 0
 658 0004 9B69     		ldr	r3, [r3, #24]
 659              		.loc 1 437 0
 660 0006 9068     		ldr	r0, [r2, #8]
 661 0008 9B68     		ldr	r3, [r3, #8]
 662              		.loc 1 439 0
 663 000a 9842     		cmp	r0, r3
 664 000c 94BF     		ite	ls
 665 000e 0020     		movls	r0, #0
 666 0010 0120     		movhi	r0, #1
 667 0012 7047     		bx	lr
 668              	.L51:
 669              		.align	2
 670              	.L50:
 671 0014 00000000 		.word	.LANCHOR0
 672              		.cfi_endproc
 673              	.LFE234:
 674              		.size	chSchIsPreemptionRequired, .-chSchIsPreemptionRequired
 675              		.section	.text.chSchDoRescheduleBehind,"ax",%progbits
 676              		.align	2
 677              		.p2align 4,,15
 678              		.global	chSchDoRescheduleBehind
 679              		.thumb
 680              		.thumb_func
 681              		.type	chSchDoRescheduleBehind, %function
 682              	chSchDoRescheduleBehind:
 683              	.LFB235:
 684              		.loc 1 451 0
ARM GAS  /tmp/cct18UAW.s 			page 13


 685              		.cfi_startproc
 686              		@ args = 0, pretend = 0, frame = 0
 687              		@ frame_needed = 0, uses_anonymous_args = 0
 688              		@ link register save eliminated.
 689              		.loc 1 454 0
 690 0000 0D4A     		ldr	r2, .L57
 691              	.LBB187:
 692              	.LBB188:
 693              		.loc 4 672 0
 694 0002 1068     		ldr	r0, [r2]
 695              		.loc 4 674 0
 696 0004 0368     		ldr	r3, [r0]
 697              	.LBE188:
 698              	.LBE187:
 699              		.loc 1 451 0
 700 0006 30B4     		push	{r4, r5}
 701              		.cfi_def_cfa_offset 8
 702              		.cfi_offset 4, -8
 703              		.cfi_offset 5, -4
 704              		.loc 1 462 0
 705 0008 0121     		movs	r1, #1
 706              		.loc 1 454 0
 707 000a 9469     		ldr	r4, [r2, #24]
 708              	.LVL50:
 709              	.LBB191:
 710              	.LBB189:
 711              		.loc 4 675 0
 712 000c 5A60     		str	r2, [r3, #4]
 713              	.LVL51:
 714              	.LBE189:
 715              	.LBE191:
 716              	.LBB192:
 717              	.LBB193:
 718              		.loc 1 227 0
 719 000e 0025     		movs	r5, #0
 720              	.LBE193:
 721              	.LBE192:
 722              		.loc 1 462 0
 723 0010 0177     		strb	r1, [r0, #28]
 724              	.LVL52:
 725 0012 A168     		ldr	r1, [r4, #8]
 726              	.LBB196:
 727              	.LBB190:
 728              		.loc 4 674 0
 729 0014 1360     		str	r3, [r2]
 730              	.LBE190:
 731              	.LBE196:
 732              		.loc 1 456 0
 733 0016 9061     		str	r0, [r2, #24]
 734              	.LBB197:
 735              	.LBB194:
 736              		.loc 1 227 0
 737 0018 2577     		strb	r5, [r4, #28]
 738              	.LVL53:
 739 001a 00E0     		b	.L54
 740              	.LVL54:
 741              	.L56:
ARM GAS  /tmp/cct18UAW.s 			page 14


 742 001c 1B68     		ldr	r3, [r3]
 743              	.L54:
 744              		.loc 1 231 0
 745 001e 9A68     		ldr	r2, [r3, #8]
 746 0020 8A42     		cmp	r2, r1
 747 0022 FBD2     		bcs	.L56
 748              		.loc 1 234 0
 749 0024 5A68     		ldr	r2, [r3, #4]
 750 0026 6260     		str	r2, [r4, #4]
 751              		.loc 1 233 0
 752 0028 2360     		str	r3, [r4]
 753              	.LBE194:
 754              	.LBE197:
 755              		.loc 1 467 0
 756 002a 2146     		mov	r1, r4
 757              	.LBB198:
 758              	.LBB195:
 759              		.loc 1 235 0
 760 002c 1460     		str	r4, [r2]
 761              		.loc 1 236 0
 762 002e 5C60     		str	r4, [r3, #4]
 763              	.LVL55:
 764              	.LBE195:
 765              	.LBE198:
 766              		.loc 1 468 0
 767 0030 30BC     		pop	{r4, r5}
 768              		.cfi_restore 5
 769              		.cfi_restore 4
 770              		.cfi_def_cfa_offset 0
 771              	.LVL56:
 772              		.loc 1 467 0
 773 0032 FFF7FEBF 		b	_port_switch
 774              	.LVL57:
 775              	.L58:
 776 0036 00BF     		.align	2
 777              	.L57:
 778 0038 00000000 		.word	.LANCHOR0
 779              		.cfi_endproc
 780              	.LFE235:
 781              		.size	chSchDoRescheduleBehind, .-chSchDoRescheduleBehind
 782              		.section	.text.chSchDoRescheduleAhead,"ax",%progbits
 783              		.align	2
 784              		.p2align 4,,15
 785              		.global	chSchDoRescheduleAhead
 786              		.thumb
 787              		.thumb_func
 788              		.type	chSchDoRescheduleAhead, %function
 789              	chSchDoRescheduleAhead:
 790              	.LFB236:
 791              		.loc 1 479 0
 792              		.cfi_startproc
 793              		@ args = 0, pretend = 0, frame = 0
 794              		@ frame_needed = 0, uses_anonymous_args = 0
 795              		@ link register save eliminated.
 796              		.loc 1 482 0
 797 0000 0D4A     		ldr	r2, .L64
 798              	.LBB199:
ARM GAS  /tmp/cct18UAW.s 			page 15


 799              	.LBB200:
 800              		.loc 4 672 0
 801 0002 1068     		ldr	r0, [r2]
 802              		.loc 4 674 0
 803 0004 0368     		ldr	r3, [r0]
 804              	.LBE200:
 805              	.LBE199:
 806              		.loc 1 479 0
 807 0006 30B4     		push	{r4, r5}
 808              		.cfi_def_cfa_offset 8
 809              		.cfi_offset 4, -8
 810              		.cfi_offset 5, -4
 811              		.loc 1 490 0
 812 0008 0121     		movs	r1, #1
 813              		.loc 1 482 0
 814 000a 9469     		ldr	r4, [r2, #24]
 815              	.LVL58:
 816              	.LBB203:
 817              	.LBB201:
 818              		.loc 4 675 0
 819 000c 5A60     		str	r2, [r3, #4]
 820              	.LVL59:
 821              	.LBE201:
 822              	.LBE203:
 823              		.loc 1 492 0
 824 000e 0025     		movs	r5, #0
 825              		.loc 1 490 0
 826 0010 0177     		strb	r1, [r0, #28]
 827 0012 A168     		ldr	r1, [r4, #8]
 828              	.LBB204:
 829              	.LBB202:
 830              		.loc 4 674 0
 831 0014 1360     		str	r3, [r2]
 832              	.LBE202:
 833              	.LBE204:
 834              		.loc 1 484 0
 835 0016 9061     		str	r0, [r2, #24]
 836              		.loc 1 492 0
 837 0018 2577     		strb	r5, [r4, #28]
 838              	.LVL60:
 839 001a 00E0     		b	.L61
 840              	.LVL61:
 841              	.L63:
 842 001c 1B68     		ldr	r3, [r3]
 843              	.L61:
 844              		.loc 1 496 0 discriminator 1
 845 001e 9A68     		ldr	r2, [r3, #8]
 846 0020 8A42     		cmp	r2, r1
 847 0022 FBD8     		bhi	.L63
 848              		.loc 1 499 0
 849 0024 5A68     		ldr	r2, [r3, #4]
 850 0026 6260     		str	r2, [r4, #4]
 851              		.loc 1 498 0
 852 0028 2360     		str	r3, [r4]
 853              		.loc 1 503 0
 854 002a 2146     		mov	r1, r4
 855              		.loc 1 500 0
ARM GAS  /tmp/cct18UAW.s 			page 16


 856 002c 1460     		str	r4, [r2]
 857              		.loc 1 501 0
 858 002e 5C60     		str	r4, [r3, #4]
 859              		.loc 1 504 0
 860 0030 30BC     		pop	{r4, r5}
 861              		.cfi_restore 5
 862              		.cfi_restore 4
 863              		.cfi_def_cfa_offset 0
 864              	.LVL62:
 865              		.loc 1 503 0
 866 0032 FFF7FEBF 		b	_port_switch
 867              	.LVL63:
 868              	.L65:
 869 0036 00BF     		.align	2
 870              	.L64:
 871 0038 00000000 		.word	.LANCHOR0
 872              		.cfi_endproc
 873              	.LFE236:
 874              		.size	chSchDoRescheduleAhead, .-chSchDoRescheduleAhead
 875              		.section	.text.chSchRescheduleS,"ax",%progbits
 876              		.align	2
 877              		.p2align 4,,15
 878              		.global	chSchRescheduleS
 879              		.thumb
 880              		.thumb_func
 881              		.type	chSchRescheduleS, %function
 882              	chSchRescheduleS:
 883              	.LFB233:
 884              		.loc 1 402 0
 885              		.cfi_startproc
 886              		@ args = 0, pretend = 0, frame = 0
 887              		@ frame_needed = 0, uses_anonymous_args = 0
 888              		@ link register save eliminated.
 889              	.LBB205:
 890              	.LBB206:
 891              		.loc 4 713 0
 892 0000 044B     		ldr	r3, .L69
 893 0002 1A68     		ldr	r2, [r3]
 894 0004 9B69     		ldr	r3, [r3, #24]
 895              	.LBE206:
 896              	.LBE205:
 897              		.loc 1 406 0
 898 0006 9268     		ldr	r2, [r2, #8]
 899 0008 9B68     		ldr	r3, [r3, #8]
 900 000a 9A42     		cmp	r2, r3
 901 000c 00D8     		bhi	.L68
 902 000e 7047     		bx	lr
 903              	.L68:
 904              		.loc 1 407 0
 905 0010 FFF7FEBF 		b	chSchDoRescheduleAhead
 906              	.LVL64:
 907              	.L70:
 908              		.align	2
 909              	.L69:
 910 0014 00000000 		.word	.LANCHOR0
 911              		.cfi_endproc
 912              	.LFE233:
ARM GAS  /tmp/cct18UAW.s 			page 17


 913              		.size	chSchRescheduleS, .-chSchRescheduleS
 914              		.section	.text.chSchDoReschedule,"ax",%progbits
 915              		.align	2
 916              		.p2align 4,,15
 917              		.global	chSchDoReschedule
 918              		.thumb
 919              		.thumb_func
 920              		.type	chSchDoReschedule, %function
 921              	chSchDoReschedule:
 922              	.LFB237:
 923              		.loc 1 516 0
 924              		.cfi_startproc
 925              		@ args = 0, pretend = 0, frame = 0
 926              		@ frame_needed = 0, uses_anonymous_args = 0
 927              		@ link register save eliminated.
 928              		.loc 1 534 0
 929 0000 FFF7FEBF 		b	chSchDoRescheduleAhead
 930              	.LVL65:
 931              		.cfi_endproc
 932              	.LFE237:
 933              		.size	chSchDoReschedule, .-chSchDoReschedule
 934              		.global	ch
 935              		.section	.bss.ch,"aw",%nobits
 936              		.align	3
 937              		.set	.LANCHOR0,. + 0
 938              		.type	ch, %object
 939              		.size	ch, 336
 940              	ch:
 941 0000 00000000 		.space	336
 941      00000000 
 941      00000000 
 941      00000000 
 941      00000000 
 942              		.text
 943              	.Letext0:
 944              		.file 5 "/usr/lib/gcc/arm-none-eabi/5.3.1/include/stddef.h"
 945              		.file 6 "/usr/arm-none-eabi/include/machine/_default_types.h"
 946              		.file 7 "/usr/arm-none-eabi/include/sys/_stdint.h"
 947              		.file 8 "/home/selim/working/ChibiOS/os/rt/ports/ARMCMx/compilers/GCC/chtypes.h"
 948              		.file 9 "/home/selim/working/ChibiOS/os/rt/include/chsystypes.h"
 949              		.file 10 "/home/selim/working/ChibiOS/os/rt/ports/ARMCMx/chcore.h"
 950              		.file 11 "/home/selim/working/ChibiOS/os/rt/ports/ARMCMx/chcore_v7m.h"
 951              		.file 12 "/home/selim/working/ChibiOS/os/rt/include/chtm.h"
 952              		.file 13 "/home/selim/working/ChibiOS/os/rt/include/chmtx.h"
 953              		.file 14 "/home/selim/working/ChibiOS/os/rt/include/chvt.h"
 954              		.file 15 "/home/selim/working/ChibiOS/os/rt/include/chsys.h"
 955              		.file 16 "/home/selim/working/ChibiOS/os/ext/CMSIS/include/core_cm4.h"