ARM GAS  /tmp/cct18UAW.s 			page 1


   1              		.syntax unified
   2              		.cpu cortex-m4
   3              		.fpu softvfp
   4              		.eabi_attribute 20, 1
   5              		.eabi_attribute 21, 1
   6              		.eabi_attribute 23, 3
   7              		.eabi_attribute 24, 1
   8              		.eabi_attribute 25, 1
   9              		.eabi_attribute 26, 1
  10              		.eabi_attribute 30, 2
  11              		.eabi_attribute 34, 1
  12              		.eabi_attribute 18, 4
  13              		.thumb
  14              		.syntax unified
  15              		.file	"chschd.c"
  16              		.text
  17              	.Ltext0:
  18              		.cfi_sections	.debug_frame
  19              		.section	.text.wakeup,"ax",%progbits
  20              		.align	2
  21              		.p2align 4,,15
  22              		.thumb
  23              		.thumb_func
  24              		.type	wakeup, %function
  25              	wakeup:
  26              	.LFB230:
  27              		.file 1 "/home/selim/working/ChibiOS/os/rt/src/chschd.c"
  28              		.loc 1 275 0
  29              		.cfi_startproc
  30              		@ args = 0, pretend = 0, frame = 0
  31              		@ frame_needed = 0, uses_anonymous_args = 0
  32              		@ link register save eliminated.
  33              	.LVL0:
  34 0000 10B4     		push	{r4}
  35              		.cfi_def_cfa_offset 4
  36              		.cfi_offset 4, -4
  37              	.LBB128:
  38              	.LBB129:
  39              	.LBB130:
  40              	.LBB131:
  41              	.LBB132:
  42              		.file 2 "/home/selim/working/ChibiOS/os/ext/CMSIS/include/core_cmFunc.h"
  43              		.loc 2 546 0
  44 0002 2023     		movs	r3, #32
  45              		.syntax unified
  46              	@ 546 "/home/selim/working/ChibiOS/os/ext/CMSIS/include/core_cmFunc.h" 1
  47 0004 83F31188 		MSR basepri, r3
  48              	@ 0 "" 2
  49              	.LVL1:
  50              		.thumb
  51              		.syntax unified
  52              	.LBE132:
  53              	.LBE131:
  54              	.LBE130:
  55              	.LBE129:
  56              	.LBE128:
  57              		.loc 1 279 0
ARM GAS  /tmp/cct18UAW.s 			page 2


  58 0008 037F     		ldrb	r3, [r0, #28]	@ zero_extendqisi2
  59 000a 072B     		cmp	r3, #7
  60 000c 0ED8     		bhi	.L2
  61 000e DFE803F0 		tbb	[pc, r3]
  62              	.L4:
  63 0012 26       		.byte	(.L3-.L4)/2
  64 0013 0D       		.byte	(.L2-.L4)/2
  65 0014 0D       		.byte	(.L2-.L4)/2
  66 0015 22       		.byte	(.L5-.L4)/2
  67 0016 08       		.byte	(.L6-.L4)/2
  68 0017 04       		.byte	(.L7-.L4)/2
  69 0018 0D       		.byte	(.L2-.L4)/2
  70 0019 08       		.byte	(.L6-.L4)/2
  71              		.p2align 1
  72              	.L7:
  73              		.loc 1 290 0
  74 001a 026A     		ldr	r2, [r0, #32]
  75              	.LVL2:
  76              	.LBB133:
  77              	.LBB134:
  78              		.file 3 "/home/selim/working/ChibiOS/os/rt/include/chsem.h"
  79              		.loc 3 138 0
  80 001c 9368     		ldr	r3, [r2, #8]
  81 001e 0133     		adds	r3, r3, #1
  82 0020 9360     		str	r3, [r2, #8]
  83              	.LVL3:
  84              	.L6:
  85              	.LBE134:
  86              	.LBE133:
  87              	.LBB135:
  88              	.LBB136:
  89              		.file 4 "/home/selim/working/ChibiOS/os/rt/include/chschd.h"
  90              		.loc 4 691 0
  91 0022 90E80C00 		ldmia	r0, {r2, r3}
  92 0026 1A60     		str	r2, [r3]
  93              		.loc 4 692 0
  94 0028 0268     		ldr	r2, [r0]
  95 002a 5360     		str	r3, [r2, #4]
  96              	.LVL4:
  97              	.L2:
  98              	.LBE136:
  99              	.LBE135:
 100              		.loc 1 304 0
 101 002c 4FF0FF34 		mov	r4, #-1
 102              	.LBB137:
 103              	.LBB138:
 104              		.loc 1 227 0
 105 0030 0022     		movs	r2, #0
 106 0032 8168     		ldr	r1, [r0, #8]
 107              	.LBE138:
 108              	.LBE137:
 109              	.LBB140:
 110              	.LBB141:
 111              	.LBB142:
 112              	.LBB143:
 113              		.loc 1 228 0
 114 0034 0C4B     		ldr	r3, .L13
ARM GAS  /tmp/cct18UAW.s 			page 3


 115              	.LBE143:
 116              	.LBE142:
 117              	.LBE141:
 118              	.LBE140:
 119              		.loc 1 304 0
 120 0036 0462     		str	r4, [r0, #32]
 121              	.LVL5:
 122              	.LBB159:
 123              	.LBB139:
 124              		.loc 1 227 0
 125 0038 0277     		strb	r2, [r0, #28]
 126              	.LVL6:
 127              	.L9:
 128              	.LBE139:
 129              	.LBE159:
 130              	.LBB160:
 131              	.LBB158:
 132              	.LBB146:
 133              	.LBB144:
 134              		.loc 1 230 0
 135 003a 1B68     		ldr	r3, [r3]
 136              	.LVL7:
 137              		.loc 1 231 0
 138 003c 9A68     		ldr	r2, [r3, #8]
 139 003e 8A42     		cmp	r2, r1
 140 0040 FBD2     		bcs	.L9
 141              		.loc 1 234 0
 142 0042 5A68     		ldr	r2, [r3, #4]
 143 0044 4260     		str	r2, [r0, #4]
 144              		.loc 1 233 0
 145 0046 0360     		str	r3, [r0]
 146              	.LBE144:
 147              	.LBE146:
 148              	.LBB147:
 149              	.LBB148:
 150              	.LBB149:
 151              	.LBB150:
 152              	.LBB151:
 153              		.loc 2 546 0
 154 0048 0021     		movs	r1, #0
 155              	.LBE151:
 156              	.LBE150:
 157              	.LBE149:
 158              	.LBE148:
 159              	.LBE147:
 160              	.LBB156:
 161              	.LBB145:
 162              		.loc 1 235 0
 163 004a 1060     		str	r0, [r2]
 164              		.loc 1 236 0
 165 004c 5860     		str	r0, [r3, #4]
 166              	.LVL8:
 167              	.LBE145:
 168              	.LBE156:
 169              	.LBB157:
 170              	.LBB155:
 171              	.LBB154:
ARM GAS  /tmp/cct18UAW.s 			page 4


 172              	.LBB153:
 173              	.LBB152:
 174              		.loc 2 546 0
 175              		.syntax unified
 176              	@ 546 "/home/selim/working/ChibiOS/os/ext/CMSIS/include/core_cmFunc.h" 1
 177 004e 81F31188 		MSR basepri, r1
 178              	@ 0 "" 2
 179              	.LVL9:
 180              		.thumb
 181              		.syntax unified
 182              	.LBE152:
 183              	.LBE153:
 184              	.LBE154:
 185              	.LBE155:
 186              	.LBE157:
 187              	.LBE158:
 188              	.LBE160:
 189              		.loc 1 307 0
 190 0052 10BC     		pop	{r4}
 191              		.cfi_remember_state
 192              		.cfi_restore 4
 193              		.cfi_def_cfa_offset 0
 194 0054 7047     		bx	lr
 195              	.LVL10:
 196              	.L5:
 197              		.cfi_restore_state
 198              		.loc 1 286 0
 199 0056 036A     		ldr	r3, [r0, #32]
 200 0058 0022     		movs	r2, #0
 201 005a 1A60     		str	r2, [r3]
 202              		.loc 1 287 0
 203 005c E6E7     		b	.L2
 204              	.L3:
 205              	.LVL11:
 206              	.LBB161:
 207              	.LBB162:
 208              	.LBB163:
 209              	.LBB164:
 210              	.LBB165:
 211              		.loc 2 546 0
 212 005e 0023     		movs	r3, #0
 213              		.syntax unified
 214              	@ 546 "/home/selim/working/ChibiOS/os/ext/CMSIS/include/core_cmFunc.h" 1
 215 0060 83F31188 		MSR basepri, r3
 216              	@ 0 "" 2
 217              	.LVL12:
 218              		.thumb
 219              		.syntax unified
 220              	.LBE165:
 221              	.LBE164:
 222              	.LBE163:
 223              	.LBE162:
 224              	.LBE161:
 225              		.loc 1 307 0
 226 0064 10BC     		pop	{r4}
 227              		.cfi_restore 4
 228              		.cfi_def_cfa_offset 0
ARM GAS  /tmp/cct18UAW.s 			page 5


 229 0066 7047     		bx	lr
 230              	.L14:
 231              		.align	2
 232              	.L13:
 233 0068 00000000 		.word	.LANCHOR0
 234              		.cfi_endproc
 235              	.LFE230:
 236              		.size	wakeup, .-wakeup
 237              		.section	.text._scheduler_init,"ax",%progbits
 238              		.align	2
 239              		.p2align 4,,15
 240              		.global	_scheduler_init
 241              		.thumb
 242              		.thumb_func
 243              		.type	_scheduler_init, %function
 244              	_scheduler_init:
 245              	.LFB227:
 246              		.loc 1 65 0
 247              		.cfi_startproc
 248              		@ args = 0, pretend = 0, frame = 0
 249              		@ frame_needed = 0, uses_anonymous_args = 0
 250              		@ link register save eliminated.
 251              	.LVL13:
 252              	.LBB166:
 253              	.LBB167:
 254              		.loc 4 604 0
 255 0000 034B     		ldr	r3, .L16
 256              	.LBE167:
 257              	.LBE166:
 258              		.loc 1 68 0
 259 0002 0022     		movs	r2, #0
 260              	.LBB169:
 261              	.LBB168:
 262              		.loc 4 604 0
 263 0004 1B60     		str	r3, [r3]
 264              		.loc 4 605 0
 265 0006 5B60     		str	r3, [r3, #4]
 266              	.LVL14:
 267              	.LBE168:
 268              	.LBE169:
 269              		.loc 1 70 0
 270 0008 1B61     		str	r3, [r3, #16]
 271              		.loc 1 71 0
 272 000a 5B61     		str	r3, [r3, #20]
 273              		.loc 1 68 0
 274 000c 9A60     		str	r2, [r3, #8]
 275 000e 7047     		bx	lr
 276              	.L17:
 277              		.align	2
 278              	.L16:
 279 0010 00000000 		.word	.LANCHOR0
 280              		.cfi_endproc
 281              	.LFE227:
 282              		.size	_scheduler_init, .-_scheduler_init
 283              		.section	.text.chSchReadyI,"ax",%progbits
 284              		.align	2
 285              		.p2align 4,,15
ARM GAS  /tmp/cct18UAW.s 			page 6


 286              		.global	chSchReadyI
 287              		.thumb
 288              		.thumb_func
 289              		.type	chSchReadyI, %function
 290              	chSchReadyI:
 291              	.LFB228:
 292              		.loc 1 218 0
 293              		.cfi_startproc
 294              		@ args = 0, pretend = 0, frame = 0
 295              		@ frame_needed = 0, uses_anonymous_args = 0
 296              		@ link register save eliminated.
 297              	.LVL15:
 298              		.loc 1 227 0
 299 0000 0022     		movs	r2, #0
 300 0002 8168     		ldr	r1, [r0, #8]
 301              		.loc 1 228 0
 302 0004 074B     		ldr	r3, .L22
 303              		.loc 1 218 0
 304 0006 10B4     		push	{r4}
 305              		.cfi_def_cfa_offset 4
 306              		.cfi_offset 4, -4
 307              		.loc 1 218 0
 308 0008 0446     		mov	r4, r0
 309              		.loc 1 227 0
 310 000a 0277     		strb	r2, [r0, #28]
 311              	.LVL16:
 312              	.L19:
 313              		.loc 1 230 0 discriminator 1
 314 000c 1B68     		ldr	r3, [r3]
 315              	.LVL17:
 316              		.loc 1 231 0 discriminator 1
 317 000e 9A68     		ldr	r2, [r3, #8]
 318 0010 8A42     		cmp	r2, r1
 319 0012 FBD2     		bcs	.L19
 320              		.loc 1 234 0
 321 0014 5A68     		ldr	r2, [r3, #4]
 322 0016 6260     		str	r2, [r4, #4]
 323              		.loc 1 233 0
 324 0018 2360     		str	r3, [r4]
 325              		.loc 1 239 0
 326 001a 2046     		mov	r0, r4
 327              	.LVL18:
 328              		.loc 1 235 0
 329 001c 1460     		str	r4, [r2]
 330              		.loc 1 236 0
 331 001e 5C60     		str	r4, [r3, #4]
 332              		.loc 1 239 0
 333 0020 10BC     		pop	{r4}
 334              		.cfi_restore 4
 335              		.cfi_def_cfa_offset 0
 336              	.LVL19:
 337 0022 7047     		bx	lr
 338              	.L23:
 339              		.align	2
 340              	.L22:
 341 0024 00000000 		.word	.LANCHOR0
 342              		.cfi_endproc
ARM GAS  /tmp/cct18UAW.s 			page 7


 343              	.LFE228:
 344              		.size	chSchReadyI, .-chSchReadyI
 345              		.section	.text.chSchGoSleepS,"ax",%progbits
 346              		.align	2
 347              		.p2align 4,,15
 348              		.global	chSchGoSleepS
 349              		.thumb
 350              		.thumb_func
 351              		.type	chSchGoSleepS, %function
 352              	chSchGoSleepS:
 353              	.LFB229:
 354              		.loc 1 250 0
 355              		.cfi_startproc
 356              		@ args = 0, pretend = 0, frame = 0
 357              		@ frame_needed = 0, uses_anonymous_args = 0
 358              		@ link register save eliminated.
 359              	.LVL20:
 360              		.loc 1 255 0
 361 0000 074B     		ldr	r3, .L26
 362 0002 9969     		ldr	r1, [r3, #24]
 363              	.LVL21:
 364              	.LBB170:
 365              	.LBB171:
 366              		.loc 4 672 0
 367 0004 1A68     		ldr	r2, [r3]
 368              	.LBE171:
 369              	.LBE170:
 370              		.loc 1 250 0
 371 0006 10B4     		push	{r4}
 372              		.cfi_def_cfa_offset 4
 373              		.cfi_offset 4, -4
 374              		.loc 1 256 0
 375 0008 0877     		strb	r0, [r1, #28]
 376              	.LVL22:
 377              	.LBB174:
 378              	.LBB172:
 379              		.loc 4 674 0
 380 000a 1068     		ldr	r0, [r2]
 381              	.LVL23:
 382 000c 1860     		str	r0, [r3]
 383              	.LBE172:
 384              	.LBE174:
 385              		.loc 1 268 0
 386 000e 0124     		movs	r4, #1
 387              	.LBB175:
 388              	.LBB173:
 389              		.loc 4 675 0
 390 0010 4360     		str	r3, [r0, #4]
 391              	.LVL24:
 392              	.LBE173:
 393              	.LBE175:
 394              		.loc 1 268 0
 395 0012 1477     		strb	r4, [r2, #28]
 396              		.loc 1 269 0
 397 0014 1046     		mov	r0, r2
 398              		.loc 1 270 0
 399 0016 10BC     		pop	{r4}
ARM GAS  /tmp/cct18UAW.s 			page 8


 400              		.cfi_restore 4
 401              		.cfi_def_cfa_offset 0
 402              		.loc 1 262 0
 403 0018 9A61     		str	r2, [r3, #24]
 404              		.loc 1 269 0
 405 001a FFF7FEBF 		b	_port_switch
 406              	.LVL25:
 407              	.L27:
 408 001e 00BF     		.align	2
 409              	.L26:
 410 0020 00000000 		.word	.LANCHOR0
 411              		.cfi_endproc
 412              	.LFE229:
 413              		.size	chSchGoSleepS, .-chSchGoSleepS
 414              		.section	.text.chSchGoSleepTimeoutS,"ax",%progbits
 415              		.align	2
 416              		.p2align 4,,15
 417              		.global	chSchGoSleepTimeoutS
 418              		.thumb
 419              		.thumb_func
 420              		.type	chSchGoSleepTimeoutS, %function
 421              	chSchGoSleepTimeoutS:
 422              	.LFB231:
 423              		.loc 1 330 0
 424              		.cfi_startproc
 425              		@ args = 0, pretend = 0, frame = 24
 426              		@ frame_needed = 0, uses_anonymous_args = 0
 427              	.LVL26:
 428 0000 30B5     		push	{r4, r5, lr}
 429              		.cfi_def_cfa_offset 12
 430              		.cfi_offset 4, -12
 431              		.cfi_offset 5, -8
 432              		.cfi_offset 14, -4
 433              		.loc 1 334 0
 434 0002 4B1C     		adds	r3, r1, #1
 435              		.loc 1 330 0
 436 0004 87B0     		sub	sp, sp, #28
 437              		.cfi_def_cfa_offset 40
 438              		.loc 1 334 0
 439 0006 12D0     		beq	.L29
 440              	.LBB176:
 441              		.loc 1 337 0
 442 0008 0C4C     		ldr	r4, .L36
 443 000a 0D4A     		ldr	r2, .L36+4
 444 000c A369     		ldr	r3, [r4, #24]
 445 000e 0546     		mov	r5, r0
 446 0010 01A8     		add	r0, sp, #4
 447              	.LVL27:
 448 0012 FFF7FEFF 		bl	chVTDoSetI
 449              	.LVL28:
 450              		.loc 1 338 0
 451 0016 2846     		mov	r0, r5
 452 0018 FFF7FEFF 		bl	chSchGoSleepS
 453              	.LVL29:
 454              		.loc 1 339 0
 455 001c 049B     		ldr	r3, [sp, #16]
 456 001e 13B1     		cbz	r3, .L31
ARM GAS  /tmp/cct18UAW.s 			page 9


 457              		.loc 1 340 0
 458 0020 01A8     		add	r0, sp, #4
 459              	.LVL30:
 460 0022 FFF7FEFF 		bl	chVTDoResetI
 461              	.LVL31:
 462              	.L31:
 463              	.LBE176:
 464              		.loc 1 347 0
 465 0026 A369     		ldr	r3, [r4, #24]
 466              		.loc 1 348 0
 467 0028 186A     		ldr	r0, [r3, #32]
 468 002a 07B0     		add	sp, sp, #28
 469              		.cfi_remember_state
 470              		.cfi_def_cfa_offset 12
 471              		@ sp needed
 472 002c 30BD     		pop	{r4, r5, pc}
 473              	.LVL32:
 474              	.L29:
 475              		.cfi_restore_state
 476 002e 034C     		ldr	r4, .L36
 477              		.loc 1 344 0
 478 0030 FFF7FEFF 		bl	chSchGoSleepS
 479              	.LVL33:
 480              		.loc 1 347 0
 481 0034 A369     		ldr	r3, [r4, #24]
 482              		.loc 1 348 0
 483 0036 186A     		ldr	r0, [r3, #32]
 484 0038 07B0     		add	sp, sp, #28
 485              		.cfi_def_cfa_offset 12
 486              		@ sp needed
 487 003a 30BD     		pop	{r4, r5, pc}
 488              	.L37:
 489              		.align	2
 490              	.L36:
 491 003c 00000000 		.word	.LANCHOR0
 492 0040 00000000 		.word	wakeup
 493              		.cfi_endproc
 494              	.LFE231:
 495              		.size	chSchGoSleepTimeoutS, .-chSchGoSleepTimeoutS
 496              		.section	.text.chSchWakeupS,"ax",%progbits
 497              		.align	2
 498              		.p2align 4,,15
 499              		.global	chSchWakeupS
 500              		.thumb
 501              		.thumb_func
 502              		.type	chSchWakeupS, %function
 503              	chSchWakeupS:
 504              	.LFB232:
 505              		.loc 1 367 0
 506              		.cfi_startproc
 507              		@ args = 0, pretend = 0, frame = 0
 508              		@ frame_needed = 0, uses_anonymous_args = 0
 509              		@ link register save eliminated.
 510              	.LVL34:
 511              		.loc 1 379 0
 512 0000 144B     		ldr	r3, .L47
 513              		.loc 1 367 0
ARM GAS  /tmp/cct18UAW.s 			page 10


 514 0002 70B4     		push	{r4, r5, r6}
 515              		.cfi_def_cfa_offset 12
 516              		.cfi_offset 4, -12
 517              		.cfi_offset 5, -8
 518              		.cfi_offset 6, -4
 519              		.loc 1 367 0
 520 0004 0446     		mov	r4, r0
 521              		.loc 1 379 0
 522 0006 9D69     		ldr	r5, [r3, #24]
 523              		.loc 1 373 0
 524 0008 0162     		str	r1, [r0, #32]
 525              		.loc 1 379 0
 526 000a A868     		ldr	r0, [r5, #8]
 527              	.LVL35:
 528 000c A168     		ldr	r1, [r4, #8]
 529              	.LVL36:
 530 000e 8142     		cmp	r1, r0
 531              	.LBB177:
 532              	.LBB178:
 533              		.loc 1 227 0
 534 0010 4FF00002 		mov	r2, #0
 535              	.LBE178:
 536              	.LBE177:
 537              		.loc 1 379 0
 538 0014 0BD8     		bhi	.L39
 539              	.LVL37:
 540              	.LBB180:
 541              	.LBB179:
 542              		.loc 1 227 0
 543 0016 2277     		strb	r2, [r4, #28]
 544              	.LVL38:
 545              	.L40:
 546              		.loc 1 230 0
 547 0018 1B68     		ldr	r3, [r3]
 548              	.LVL39:
 549              		.loc 1 231 0
 550 001a 9A68     		ldr	r2, [r3, #8]
 551 001c 9142     		cmp	r1, r2
 552 001e FBD9     		bls	.L40
 553              		.loc 1 234 0
 554 0020 5A68     		ldr	r2, [r3, #4]
 555 0022 6260     		str	r2, [r4, #4]
 556              		.loc 1 233 0
 557 0024 2360     		str	r3, [r4]
 558              		.loc 1 235 0
 559 0026 1460     		str	r4, [r2]
 560              	.LVL40:
 561              		.loc 1 236 0
 562 0028 5C60     		str	r4, [r3, #4]
 563              	.LBE179:
 564              	.LBE180:
 565              		.loc 1 393 0
 566 002a 70BC     		pop	{r4, r5, r6}
 567              		.cfi_remember_state
 568              		.cfi_restore 6
 569              		.cfi_restore 5
 570              		.cfi_restore 4
ARM GAS  /tmp/cct18UAW.s 			page 11


 571              		.cfi_def_cfa_offset 0
 572              	.LVL41:
 573 002c 7047     		bx	lr
 574              	.LVL42:
 575              	.L39:
 576              		.cfi_restore_state
 577              	.LBB181:
 578              	.LBB182:
 579              	.LBB183:
 580              		.loc 1 227 0
 581 002e 2A77     		strb	r2, [r5, #28]
 582              	.LVL43:
 583              		.loc 1 228 0
 584 0030 1A46     		mov	r2, r3
 585              	.LVL44:
 586              	.L42:
 587              		.loc 1 230 0
 588 0032 1268     		ldr	r2, [r2]
 589              	.LVL45:
 590              		.loc 1 231 0
 591 0034 9168     		ldr	r1, [r2, #8]
 592 0036 8842     		cmp	r0, r1
 593 0038 FBD9     		bls	.L42
 594              		.loc 1 234 0
 595 003a 5068     		ldr	r0, [r2, #4]
 596 003c 6860     		str	r0, [r5, #4]
 597              	.LBE183:
 598              	.LBE182:
 599              		.loc 1 390 0
 600 003e 0126     		movs	r6, #1
 601              	.LBB185:
 602              	.LBB184:
 603              		.loc 1 233 0
 604 0040 2A60     		str	r2, [r5]
 605              		.loc 1 235 0
 606 0042 0560     		str	r5, [r0]
 607              		.loc 1 236 0
 608 0044 5560     		str	r5, [r2, #4]
 609              	.LVL46:
 610              	.LBE184:
 611              	.LBE185:
 612              		.loc 1 390 0
 613 0046 2677     		strb	r6, [r4, #28]
 614              		.loc 1 391 0
 615 0048 2946     		mov	r1, r5
 616 004a 2046     		mov	r0, r4
 617              		.loc 1 384 0
 618 004c 9C61     		str	r4, [r3, #24]
 619              	.LBE181:
 620              		.loc 1 393 0
 621 004e 70BC     		pop	{r4, r5, r6}
 622              		.cfi_restore 6
 623              		.cfi_restore 5
 624              		.cfi_restore 4
 625              		.cfi_def_cfa_offset 0
 626              	.LVL47:
 627              	.LBB186:
ARM GAS  /tmp/cct18UAW.s 			page 12


 628              		.loc 1 391 0
 629 0050 FFF7FEBF 		b	_port_switch
 630              	.LVL48:
 631              	.L48:
 632              		.align	2
 633              	.L47:
 634 0054 00000000 		.word	.LANCHOR0
 635              	.LBE186:
 636              		.cfi_endproc
 637              	.LFE232:
 638              		.size	chSchWakeupS, .-chSchWakeupS
 639              		.section	.text.chSchIsPreemptionRequired,"ax",%progbits
 640              		.align	2
 641              		.p2align 4,,15
 642              		.global	chSchIsPreemptionRequired
 643              		.thumb
 644              		.thumb_func
 645              		.type	chSchIsPreemptionRequired, %function
 646              	chSchIsPreemptionRequired:
 647              	.LFB234:
 648              		.loc 1 424 0
 649              		.cfi_startproc
 650              		@ args = 0, pretend = 0, frame = 0
 651              		@ frame_needed = 0, uses_anonymous_args = 0
 652              		@ link register save eliminated.
 653              	.LVL49:
 654              		.loc 1 425 0
 655 0000 044B     		ldr	r3, .L50
 656 0002 1A68     		ldr	r2, [r3]
 657              		.loc 1 426 0
 658 0004 9B69     		ldr	r3, [r3, #24]
 659              		.loc 1 437 0
 660 0006 9068     		ldr	r0, [r2, #8]
 661 0008 9B68     		ldr	r3, [r3, #8]
 662              		.loc 1 439 0
 663 000a 9842     		cmp	r0, r3
 664 000c 94BF     		ite	ls
 665 000e 0020     		movls	r0, #0
 666 0010 0120     		movhi	r0, #1
 667 0012 7047     		bx	lr
 668              	.L51:
 669              		.align	2
 670              	.L50:
 671 0014 00000000 		.word	.LANCHOR0
 672              		.cfi_endproc
 673              	.LFE234:
 674              		.size	chSchIsPreemptionRequired, .-chSchIsPreemptionRequired
 675              		.section	.text.chSchDoRescheduleBehind,"ax",%progbits
 676              		.align	2
 677              		.p2align 4,,15
 678              		.global	chSchDoRescheduleBehind
 679              		.thumb
 680              		.thumb_func
 681              		.type	chSchDoRescheduleBehind, %function
 682              	chSchDoRescheduleBehind:
 683              	.LFB235:
 684              		.loc 1 451 0
ARM GAS  /tmp/cct18UAW.s 			page 13


 685              		.cfi_startproc
 686              		@ args = 0, pretend = 0, frame = 0
 687              		@ frame_needed = 0, uses_anonymous_args = 0
 688              		@ link register save eliminated.
 689              		.loc 1 454 0
 690 0000 0D4A     		ldr	r2, .L57
 691              	.LBB187:
 692              	.LBB188:
 693              		.loc 4 672 0
 694 0002 1068     		ldr	r0, [r2]
 695              		.loc 4 674 0
 696 0004 0368     		ldr	r3, [r0]
 697              	.LBE188:
 698              	.LBE187:
 699              		.loc 1 451 0
 700 0006 30B4     		push	{r4, r5}
 701              		.cfi_def_cfa_offset 8
 702              		.cfi_offset 4, -8
 703              		.cfi_offset 5, -4
 704              		.loc 1 462 0
 705 0008 0121     		movs	r1, #1
 706              		.loc 1 454 0
 707 000a 9469     		ldr	r4, [r2, #24]
 708              	.LVL50:
 709              	.LBB191:
 710              	.LBB189:
 711              		.loc 4 675 0
 712 000c 5A60     		str	r2, [r3, #4]
 713              	.LVL51:
 714              	.LBE189:
 715              	.LBE191:
 716              	.LBB192:
 717              	.LBB193:
 718              		.loc 1 227 0
 719 000e 0025     		movs	r5, #0
 720              	.LBE193:
 721              	.LBE192:
 722              		.loc 1 462 0
 723 0010 0177     		strb	r1, [r0, #28]
 724              	.LVL52:
 725 0012 A168     		ldr	r1, [r4, #8]
 726              	.LBB196:
 727              	.LBB190:
 728              		.loc 4 674 0
 729 0014 1360     		str	r3, [r2]
 730              	.LBE190:
 731              	.LBE196:
 732              		.loc 1 456 0
 733 0016 9061     		str	r0, [r2, #24]
 734              	.LBB197:
 735              	.LBB194:
 736              		.loc 1 227 0
 737 0018 2577     		strb	r5, [r4, #28]
 738              	.LVL53:
 739 001a 00E0     		b	.L54
 740              	.LVL54:
 741              	.L56:
ARM GAS  /tmp/cct18UAW.s 			page 14


 742 001c 1B68     		ldr	r3, [r3]
 743              	.L54:
 744              		.loc 1 231 0
 745 001e 9A68     		ldr	r2, [r3, #8]
 746 0020 8A42     		cmp	r2, r1
 747 0022 FBD2     		bcs	.L56
 748              		.loc 1 234 0
 749 0024 5A68     		ldr	r2, [r3, #4]
 750 0026 6260     		str	r2, [r4, #4]
 751              		.loc 1 233 0
 752 0028 2360     		str	r3, [r4]
 753              	.LBE194:
 754              	.LBE197:
 755              		.loc 1 467 0
 756 002a 2146     		mov	r1, r4
 757              	.LBB198:
 758              	.LBB195:
 759              		.loc 1 235 0
 760 002c 1460     		str	r4, [r2]
 761              		.loc 1 236 0
 762 002e 5C60     		str	r4, [r3, #4]
 763              	.LVL55:
 764              	.LBE195:
 765              	.LBE198:
 766              		.loc 1 468 0
 767 0030 30BC     		pop	{r4, r5}
 768              		.cfi_restore 5
 769              		.cfi_restore 4
 770              		.cfi_def_cfa_offset 0
 771              	.LVL56:
 772              		.loc 1 467 0
 773 0032 FFF7FEBF 		b	_port_switch
 774              	.LVL57:
 775              	.L58:
 776 0036 00BF     		.align	2
 777              	.L57:
 778 0038 00000000 		.word	.LANCHOR0
 779              		.cfi_endproc
 780              	.LFE235:
 781              		.size	chSchDoRescheduleBehind, .-chSchDoRescheduleBehind
 782              		.section	.text.chSchDoRescheduleAhead,"ax",%progbits
 783              		.align	2
 784              		.p2align 4,,15
 785              		.global	chSchDoRescheduleAhead
 786              		.thumb
 787              		.thumb_func
 788              		.type	chSchDoRescheduleAhead, %function
 789              	chSchDoRescheduleAhead:
 790              	.LFB236:
 791              		.loc 1 479 0
 792              		.cfi_startproc
 793              		@ args = 0, pretend = 0, frame = 0
 794              		@ frame_needed = 0, uses_anonymous_args = 0
 795              		@ link register save eliminated.
 796              		.loc 1 482 0
 797 0000 0D4A     		ldr	r2, .L64
 798              	.LBB199:
ARM GAS  /tmp/cct18UAW.s 			page 15


 799              	.LBB200:
 800              		.loc 4 672 0
 801 0002 1068     		ldr	r0, [r2]
 802              		.loc 4 674 0
 803 0004 0368     		ldr	r3, [r0]
 804              	.LBE200:
 805              	.LBE199:
 806              		.loc 1 479 0
 807 0006 30B4     		push	{r4, r5}
 808              		.cfi_def_cfa_offset 8
 809              		.cfi_offset 4, -8
 810              		.cfi_offset 5, -4
 811              		.loc 1 490 0
 812 0008 0121     		movs	r1, #1
 813              		.loc 1 482 0
 814 000a 9469     		ldr	r4, [r2, #24]
 815              	.LVL58:
 816              	.LBB203:
 817              	.LBB201:
 818              		.loc 4 675 0
 819 000c 5A60     		str	r2, [r3, #4]
 820              	.LVL59:
 821              	.LBE201:
 822              	.LBE203:
 823              		.loc 1 492 0
 824 000e 0025     		movs	r5, #0
 825              		.loc 1 490 0
 826 0010 0177     		strb	r1, [r0, #28]
 827 0012 A168     		ldr	r1, [r4, #8]
 828              	.LBB204:
 829              	.LBB202:
 830              		.loc 4 674 0
 831 0014 1360     		str	r3, [r2]
 832              	.LBE202:
 833              	.LBE204:
 834              		.loc 1 484 0
 835 0016 9061     		str	r0, [r2, #24]
 836              		.loc 1 492 0
 837 0018 2577     		strb	r5, [r4, #28]
 838              	.LVL60:
 839 001a 00E0     		b	.L61
 840              	.LVL61:
 841              	.L63:
 842 001c 1B68     		ldr	r3, [r3]
 843              	.L61:
 844              		.loc 1 496 0 discriminator 1
 845 001e 9A68     		ldr	r2, [r3, #8]
 846 0020 8A42     		cmp	r2, r1
 847 0022 FBD8     		bhi	.L63
 848              		.loc 1 499 0
 849 0024 5A68     		ldr	r2, [r3, #4]
 850 0026 6260     		str	r2, [r4, #4]
 851              		.loc 1 498 0
 852 0028 2360     		str	r3, [r4]
 853              		.loc 1 503 0
 854 002a 2146     		mov	r1, r4
 855              		.loc 1 500 0
ARM GAS  /tmp/cct18UAW.s 			page 16


 856 002c 1460     		str	r4, [r2]
 857              		.loc 1 501 0
 858 002e 5C60     		str	r4, [r3, #4]
 859              		.loc 1 504 0
 860 0030 30BC     		pop	{r4, r5}
 861              		.cfi_restore 5
 862              		.cfi_restore 4
 863              		.cfi_def_cfa_offset 0
 864              	.LVL62:
 865              		.loc 1 503 0
 866 0032 FFF7FEBF 		b	_port_switch
 867              	.LVL63:
 868              	.L65:
 869 0036 00BF     		.align	2
 870              	.L64:
 871 0038 00000000 		.word	.LANCHOR0
 872              		.cfi_endproc
 873              	.LFE236:
 874              		.size	chSchDoRescheduleAhead, .-chSchDoRescheduleAhead
 875              		.section	.text.chSchRescheduleS,"ax",%progbits
 876              		.align	2
 877              		.p2align 4,,15
 878              		.global	chSchRescheduleS
 879              		.thumb
 880              		.thumb_func
 881              		.type	chSchRescheduleS, %function
 882              	chSchRescheduleS:
 883              	.LFB233:
 884              		.loc 1 402 0
 885              		.cfi_startproc
 886              		@ args = 0, pretend = 0, frame = 0
 887              		@ frame_needed = 0, uses_anonymous_args = 0
 888              		@ link register save eliminated.
 889              	.LBB205:
 890              	.LBB206:
 891              		.loc 4 713 0
 892 0000 044B     		ldr	r3, .L69
 893 0002 1A68     		ldr	r2, [r3]
 894 0004 9B69     		ldr	r3, [r3, #24]
 895              	.LBE206:
 896              	.LBE205:
 897              		.loc 1 406 0
 898 0006 9268     		ldr	r2, [r2, #8]
 899 0008 9B68     		ldr	r3, [r3, #8]
 900 000a 9A42     		cmp	r2, r3
 901 000c 00D8     		bhi	.L68
 902 000e 7047     		bx	lr
 903              	.L68:
 904              		.loc 1 407 0
 905 0010 FFF7FEBF 		b	chSchDoRescheduleAhead
 906              	.LVL64:
 907              	.L70:
 908              		.align	2
 909              	.L69:
 910 0014 00000000 		.word	.LANCHOR0
 911              		.cfi_endproc
 912              	.LFE233:
ARM GAS  /tmp/cct18UAW.s 			page 17


 913              		.size	chSchRescheduleS, .-chSchRescheduleS
 914              		.section	.text.chSchDoReschedule,"ax",%progbits
 915              		.align	2
 916              		.p2align 4,,15
 917              		.global	chSchDoReschedule
 918              		.thumb
 919              		.thumb_func
 920              		.type	chSchDoReschedule, %function
 921              	chSchDoReschedule:
 922              	.LFB237:
 923              		.loc 1 516 0
 924              		.cfi_startproc
 925              		@ args = 0, pretend = 0, frame = 0
 926              		@ frame_needed = 0, uses_anonymous_args = 0
 927              		@ link register save eliminated.
 928              		.loc 1 534 0
 929 0000 FFF7FEBF 		b	chSchDoRescheduleAhead
 930              	.LVL65:
 931              		.cfi_endproc
 932              	.LFE237:
 933              		.size	chSchDoReschedule, .-chSchDoReschedule
 934              		.global	ch
 935              		.section	.bss.ch,"aw",%nobits
 936              		.align	3
 937              		.set	.LANCHOR0,. + 0
 938              		.type	ch, %object
 939              		.size	ch, 336
 940              	ch:
 941 0000 00000000 		.space	336
 941      00000000 
 941      00000000 
 941      00000000 
 941      00000000 
 942              		.text
 943              	.Letext0:
 944              		.file 5 "/usr/lib/gcc/arm-none-eabi/5.3.1/include/stddef.h"
 945              		.file 6 "/usr/arm-none-eabi/include/machine/_default_types.h"
 946              		.file 7 "/usr/arm-none-eabi/include/sys/_stdint.h"
 947              		.file 8 "/home/selim/working/ChibiOS/os/rt/ports/ARMCMx/compilers/GCC/chtypes.h"
 948              		.file 9 "/home/selim/working/ChibiOS/os/rt/include/chsystypes.h"
 949              		.file 10 "/home/selim/working/ChibiOS/os/rt/ports/ARMCMx/chcore.h"
 950              		.file 11 "/home/selim/working/ChibiOS/os/rt/ports/ARMCMx/chcore_v7m.h"
 951              		.file 12 "/home/selim/working/ChibiOS/os/rt/include/chtm.h"
 952              		.file 13 "/home/selim/working/ChibiOS/os/rt/include/chmtx.h"
 953              		.file 14 "/home/selim/working/ChibiOS/os/rt/include/chvt.h"
 954              		.file 15 "/home/selim/working/ChibiOS/os/rt/include/chsys.h"
 955              		.file 16 "/home/selim/working/ChibiOS/os/ext/CMSIS/include/core_cm4.h"
 956              		.section	.debug_info,"",%progbits
 957              	.Ldebug_info0:
 958 0000 5B0D0000 		.4byte	0xd5b
 959 0004 0400     		.2byte	0x4
 960 0006 00000000 		.4byte	.Ldebug_abbrev0
 961 000a 04       		.byte	0x4
 962 000b 01       		.uleb128 0x1
 963 000c 3C040000 		.4byte	.LASF135
 964 0010 0C       		.byte	0xc
 965 0011 93030000 		.4byte	.LASF136
ARM GAS  /tmp/cct18UAW.s 			page 18


 966 0015 48010000 		.4byte	.Ldebug_ranges0+0x148
 967 0019 00000000 		.4byte	0
 968 001d 00000000 		.4byte	.Ldebug_line0
 969 0021 02       		.uleb128 0x2
 970 0022 04       		.byte	0x4
 971 0023 05       		.byte	0x5
 972 0024 696E7400 		.ascii	"int\000"
 973 0028 03       		.uleb128 0x3
 974 0029 0D000000 		.4byte	.LASF4
 975 002d 05       		.byte	0x5
 976 002e D8       		.byte	0xd8
 977 002f 33000000 		.4byte	0x33
 978 0033 04       		.uleb128 0x4
 979 0034 04       		.byte	0x4
 980 0035 07       		.byte	0x7
 981 0036 04020000 		.4byte	.LASF0
 982 003a 04       		.uleb128 0x4
 983 003b 08       		.byte	0x8
 984 003c 05       		.byte	0x5
 985 003d 0E010000 		.4byte	.LASF1
 986 0041 04       		.uleb128 0x4
 987 0042 08       		.byte	0x8
 988 0043 04       		.byte	0x4
 989 0044 13030000 		.4byte	.LASF2
 990 0048 04       		.uleb128 0x4
 991 0049 01       		.byte	0x1
 992 004a 06       		.byte	0x6
 993 004b 1C010000 		.4byte	.LASF3
 994 004f 03       		.uleb128 0x3
 995 0050 47000000 		.4byte	.LASF5
 996 0054 06       		.byte	0x6
 997 0055 1D       		.byte	0x1d
 998 0056 5A000000 		.4byte	0x5a
 999 005a 04       		.uleb128 0x4
 1000 005b 01       		.byte	0x1
 1001 005c 08       		.byte	0x8
 1002 005d 02040000 		.4byte	.LASF6
 1003 0061 04       		.uleb128 0x4
 1004 0062 02       		.byte	0x2
 1005 0063 05       		.byte	0x5
 1006 0064 19040000 		.4byte	.LASF7
 1007 0068 04       		.uleb128 0x4
 1008 0069 02       		.byte	0x2
 1009 006a 07       		.byte	0x7
 1010 006b 5C020000 		.4byte	.LASF8
 1011 006f 03       		.uleb128 0x3
 1012 0070 B9000000 		.4byte	.LASF9
 1013 0074 06       		.byte	0x6
 1014 0075 3F       		.byte	0x3f
 1015 0076 7A000000 		.4byte	0x7a
 1016 007a 04       		.uleb128 0x4
 1017 007b 04       		.byte	0x4
 1018 007c 05       		.byte	0x5
 1019 007d 5B010000 		.4byte	.LASF10
 1020 0081 03       		.uleb128 0x3
 1021 0082 26060000 		.4byte	.LASF11
 1022 0086 06       		.byte	0x6
ARM GAS  /tmp/cct18UAW.s 			page 19


 1023 0087 41       		.byte	0x41
 1024 0088 8C000000 		.4byte	0x8c
 1025 008c 04       		.uleb128 0x4
 1026 008d 04       		.byte	0x4
 1027 008e 07       		.byte	0x7
 1028 008f C1050000 		.4byte	.LASF12
 1029 0093 03       		.uleb128 0x3
 1030 0094 80030000 		.4byte	.LASF13
 1031 0098 06       		.byte	0x6
 1032 0099 5B       		.byte	0x5b
 1033 009a 9E000000 		.4byte	0x9e
 1034 009e 04       		.uleb128 0x4
 1035 009f 08       		.byte	0x8
 1036 00a0 07       		.byte	0x7
 1037 00a1 81000000 		.4byte	.LASF14
 1038 00a5 03       		.uleb128 0x3
 1039 00a6 A0060000 		.4byte	.LASF15
 1040 00aa 07       		.byte	0x7
 1041 00ab 14       		.byte	0x14
 1042 00ac 4F000000 		.4byte	0x4f
 1043 00b0 03       		.uleb128 0x3
 1044 00b1 FA030000 		.4byte	.LASF16
 1045 00b5 07       		.byte	0x7
 1046 00b6 1F       		.byte	0x1f
 1047 00b7 6F000000 		.4byte	0x6f
 1048 00bb 03       		.uleb128 0x3
 1049 00bc 8D050000 		.4byte	.LASF17
 1050 00c0 07       		.byte	0x7
 1051 00c1 20       		.byte	0x20
 1052 00c2 81000000 		.4byte	0x81
 1053 00c6 03       		.uleb128 0x3
 1054 00c7 1B000000 		.4byte	.LASF18
 1055 00cb 07       		.byte	0x7
 1056 00cc 26       		.byte	0x26
 1057 00cd 93000000 		.4byte	0x93
 1058 00d1 05       		.uleb128 0x5
 1059 00d2 B0000000 		.4byte	0xb0
 1060 00d6 03       		.uleb128 0x3
 1061 00d7 58060000 		.4byte	.LASF19
 1062 00db 08       		.byte	0x8
 1063 00dc 46       		.byte	0x46
 1064 00dd BB000000 		.4byte	0xbb
 1065 00e1 03       		.uleb128 0x3
 1066 00e2 24050000 		.4byte	.LASF20
 1067 00e6 08       		.byte	0x8
 1068 00e7 49       		.byte	0x49
 1069 00e8 A5000000 		.4byte	0xa5
 1070 00ec 03       		.uleb128 0x3
 1071 00ed 72010000 		.4byte	.LASF21
 1072 00f1 08       		.byte	0x8
 1073 00f2 4A       		.byte	0x4a
 1074 00f3 A5000000 		.4byte	0xa5
 1075 00f7 03       		.uleb128 0x3
 1076 00f8 8B030000 		.4byte	.LASF22
 1077 00fc 08       		.byte	0x8
 1078 00fd 4B       		.byte	0x4b
 1079 00fe A5000000 		.4byte	0xa5
ARM GAS  /tmp/cct18UAW.s 			page 20


 1080 0102 03       		.uleb128 0x3
 1081 0103 C9030000 		.4byte	.LASF23
 1082 0107 08       		.byte	0x8
 1083 0108 4D       		.byte	0x4d
 1084 0109 BB000000 		.4byte	0xbb
 1085 010d 03       		.uleb128 0x3
 1086 010e 86020000 		.4byte	.LASF24
 1087 0112 08       		.byte	0x8
 1088 0113 4E       		.byte	0x4e
 1089 0114 B0000000 		.4byte	0xb0
 1090 0118 03       		.uleb128 0x3
 1091 0119 3B000000 		.4byte	.LASF25
 1092 011d 08       		.byte	0x8
 1093 011e 50       		.byte	0x50
 1094 011f BB000000 		.4byte	0xbb
 1095 0123 03       		.uleb128 0x3
 1096 0124 FE010000 		.4byte	.LASF26
 1097 0128 08       		.byte	0x8
 1098 0129 52       		.byte	0x52
 1099 012a B0000000 		.4byte	0xb0
 1100 012e 03       		.uleb128 0x3
 1101 012f 08060000 		.4byte	.LASF27
 1102 0133 09       		.byte	0x9
 1103 0134 33       		.byte	0x33
 1104 0135 BB000000 		.4byte	0xbb
 1105 0139 03       		.uleb128 0x3
 1106 013a ED050000 		.4byte	.LASF28
 1107 013e 09       		.byte	0x9
 1108 013f 3F       		.byte	0x3f
 1109 0140 44010000 		.4byte	0x144
 1110 0144 06       		.uleb128 0x6
 1111 0145 6F020000 		.4byte	.LASF48
 1112 0149 44       		.byte	0x44
 1113 014a 04       		.byte	0x4
 1114 014b C2       		.byte	0xc2
 1115 014c 31020000 		.4byte	0x231
 1116 0150 07       		.uleb128 0x7
 1117 0151 1D050000 		.4byte	.LASF29
 1118 0155 04       		.byte	0x4
 1119 0156 C3       		.byte	0xc3
 1120 0157 3C020000 		.4byte	0x23c
 1121 015b 00       		.byte	0
 1122 015c 07       		.uleb128 0x7
 1123 015d C2030000 		.4byte	.LASF30
 1124 0161 04       		.byte	0x4
 1125 0162 C5       		.byte	0xc5
 1126 0163 3C020000 		.4byte	0x23c
 1127 0167 04       		.byte	0x4
 1128 0168 07       		.uleb128 0x7
 1129 0169 F7000000 		.4byte	.LASF31
 1130 016d 04       		.byte	0x4
 1131 016e C7       		.byte	0xc7
 1132 016f 02010000 		.4byte	0x102
 1133 0173 08       		.byte	0x8
 1134 0174 07       		.uleb128 0x7
 1135 0175 07070000 		.4byte	.LASF32
 1136 0179 04       		.byte	0x4
ARM GAS  /tmp/cct18UAW.s 			page 21


 1137 017a C8       		.byte	0xc8
 1138 017b 6C040000 		.4byte	0x46c
 1139 017f 0C       		.byte	0xc
 1140 0180 07       		.uleb128 0x7
 1141 0181 95010000 		.4byte	.LASF33
 1142 0185 04       		.byte	0x4
 1143 0186 CA       		.byte	0xca
 1144 0187 3C020000 		.4byte	0x23c
 1145 018b 10       		.byte	0x10
 1146 018c 07       		.uleb128 0x7
 1147 018d 43030000 		.4byte	.LASF34
 1148 0191 04       		.byte	0x4
 1149 0192 CB       		.byte	0xcb
 1150 0193 3C020000 		.4byte	0x23c
 1151 0197 14       		.byte	0x14
 1152 0198 07       		.uleb128 0x7
 1153 0199 B9060000 		.4byte	.LASF35
 1154 019d 04       		.byte	0x4
 1155 019e D2       		.byte	0xd2
 1156 019f EB050000 		.4byte	0x5eb
 1157 01a3 18       		.byte	0x18
 1158 01a4 07       		.uleb128 0x7
 1159 01a5 23040000 		.4byte	.LASF36
 1160 01a9 04       		.byte	0x4
 1161 01aa DD       		.byte	0xdd
 1162 01ab EC000000 		.4byte	0xec
 1163 01af 1C       		.byte	0x1c
 1164 01b0 07       		.uleb128 0x7
 1165 01b1 2C050000 		.4byte	.LASF37
 1166 01b5 04       		.byte	0x4
 1167 01b6 E1       		.byte	0xe1
 1168 01b7 E1000000 		.4byte	0xe1
 1169 01bb 1D       		.byte	0x1d
 1170 01bc 07       		.uleb128 0x7
 1171 01bd 93060000 		.4byte	.LASF38
 1172 01c1 04       		.byte	0x4
 1173 01c2 E6       		.byte	0xe6
 1174 01c3 F7000000 		.4byte	0xf7
 1175 01c7 1E       		.byte	0x1e
 1176 01c8 08       		.uleb128 0x8
 1177 01c9 705F7500 		.ascii	"p_u\000"
 1178 01cd 04       		.byte	0x4
 1179 01ce 3101     		.2byte	0x131
 1180 01d0 26050000 		.4byte	0x526
 1181 01d4 20       		.byte	0x20
 1182 01d5 09       		.uleb128 0x9
 1183 01d6 D6020000 		.4byte	.LASF39
 1184 01da 04       		.byte	0x4
 1185 01db 3601     		.2byte	0x136
 1186 01dd 42020000 		.4byte	0x242
 1187 01e1 24       		.byte	0x24
 1188 01e2 09       		.uleb128 0x9
 1189 01e3 3D020000 		.4byte	.LASF40
 1190 01e7 04       		.byte	0x4
 1191 01e8 3C01     		.2byte	0x13c
 1192 01ea 66020000 		.4byte	0x266
 1193 01ee 28       		.byte	0x28
ARM GAS  /tmp/cct18UAW.s 			page 22


 1194 01ef 09       		.uleb128 0x9
 1195 01f0 F9060000 		.4byte	.LASF41
 1196 01f4 04       		.byte	0x4
 1197 01f5 4001     		.2byte	0x140
 1198 01f7 0D010000 		.4byte	0x10d
 1199 01fb 30       		.byte	0x30
 1200 01fc 09       		.uleb128 0x9
 1201 01fd 82050000 		.4byte	.LASF42
 1202 0201 04       		.byte	0x4
 1203 0202 4601     		.2byte	0x146
 1204 0204 18010000 		.4byte	0x118
 1205 0208 34       		.byte	0x34
 1206 0209 09       		.uleb128 0x9
 1207 020a 9F020000 		.4byte	.LASF43
 1208 020e 04       		.byte	0x4
 1209 020f 4D01     		.2byte	0x14d
 1210 0211 E5050000 		.4byte	0x5e5
 1211 0215 38       		.byte	0x38
 1212 0216 09       		.uleb128 0x9
 1213 0217 12060000 		.4byte	.LASF44
 1214 021b 04       		.byte	0x4
 1215 021c 5101     		.2byte	0x151
 1216 021e 02010000 		.4byte	0x102
 1217 0222 3C       		.byte	0x3c
 1218 0223 09       		.uleb128 0x9
 1219 0224 28010000 		.4byte	.LASF45
 1220 0228 04       		.byte	0x4
 1221 0229 5801     		.2byte	0x158
 1222 022b 19030000 		.4byte	0x319
 1223 022f 40       		.byte	0x40
 1224 0230 00       		.byte	0
 1225 0231 03       		.uleb128 0x3
 1226 0232 E9020000 		.4byte	.LASF46
 1227 0236 09       		.byte	0x9
 1228 0237 44       		.byte	0x44
 1229 0238 3C020000 		.4byte	0x23c
 1230 023c 0A       		.uleb128 0xa
 1231 023d 04       		.byte	0x4
 1232 023e 39010000 		.4byte	0x139
 1233 0242 03       		.uleb128 0x3
 1234 0243 C0060000 		.4byte	.LASF47
 1235 0247 09       		.byte	0x9
 1236 0248 49       		.byte	0x49
 1237 0249 4D020000 		.4byte	0x24d
 1238 024d 06       		.uleb128 0x6
 1239 024e B1050000 		.4byte	.LASF49
 1240 0252 04       		.byte	0x4
 1241 0253 04       		.byte	0x4
 1242 0254 B0       		.byte	0xb0
 1243 0255 66020000 		.4byte	0x266
 1244 0259 07       		.uleb128 0x7
 1245 025a 1D050000 		.4byte	.LASF29
 1246 025e 04       		.byte	0x4
 1247 025f B1       		.byte	0xb1
 1248 0260 3C020000 		.4byte	0x23c
 1249 0264 00       		.byte	0
 1250 0265 00       		.byte	0
ARM GAS  /tmp/cct18UAW.s 			page 23


 1251 0266 03       		.uleb128 0x3
 1252 0267 7A060000 		.4byte	.LASF50
 1253 026b 09       		.byte	0x9
 1254 026c 50       		.byte	0x50
 1255 026d 71020000 		.4byte	0x271
 1256 0271 06       		.uleb128 0x6
 1257 0272 E6000000 		.4byte	.LASF51
 1258 0276 08       		.byte	0x8
 1259 0277 04       		.byte	0x4
 1260 0278 B7       		.byte	0xb7
 1261 0279 96020000 		.4byte	0x296
 1262 027d 07       		.uleb128 0x7
 1263 027e 1D050000 		.4byte	.LASF29
 1264 0282 04       		.byte	0x4
 1265 0283 B8       		.byte	0xb8
 1266 0284 3C020000 		.4byte	0x23c
 1267 0288 00       		.byte	0
 1268 0289 07       		.uleb128 0x7
 1269 028a C2030000 		.4byte	.LASF30
 1270 028e 04       		.byte	0x4
 1271 028f B9       		.byte	0xb9
 1272 0290 3C020000 		.4byte	0x23c
 1273 0294 04       		.byte	0x4
 1274 0295 00       		.byte	0
 1275 0296 03       		.uleb128 0x3
 1276 0297 00000000 		.4byte	.LASF52
 1277 029b 09       		.byte	0x9
 1278 029c 57       		.byte	0x57
 1279 029d A1020000 		.4byte	0x2a1
 1280 02a1 0B       		.uleb128 0xb
 1281 02a2 48020000 		.4byte	.LASF53
 1282 02a6 1C       		.byte	0x1c
 1283 02a7 04       		.byte	0x4
 1284 02a8 9001     		.2byte	0x190
 1285 02aa FD020000 		.4byte	0x2fd
 1286 02ae 09       		.uleb128 0x9
 1287 02af 9D050000 		.4byte	.LASF54
 1288 02b3 04       		.byte	0x4
 1289 02b4 9101     		.2byte	0x191
 1290 02b6 66020000 		.4byte	0x266
 1291 02ba 00       		.byte	0
 1292 02bb 09       		.uleb128 0x9
 1293 02bc CF020000 		.4byte	.LASF55
 1294 02c0 04       		.byte	0x4
 1295 02c1 9201     		.2byte	0x192
 1296 02c3 02010000 		.4byte	0x102
 1297 02c7 08       		.byte	0x8
 1298 02c8 09       		.uleb128 0x9
 1299 02c9 4B030000 		.4byte	.LASF56
 1300 02cd 04       		.byte	0x4
 1301 02ce 9401     		.2byte	0x194
 1302 02d0 6C040000 		.4byte	0x46c
 1303 02d4 0C       		.byte	0xc
 1304 02d5 09       		.uleb128 0x9
 1305 02d6 B6010000 		.4byte	.LASF57
 1306 02da 04       		.byte	0x4
 1307 02db 9701     		.2byte	0x197
ARM GAS  /tmp/cct18UAW.s 			page 24


 1308 02dd 3C020000 		.4byte	0x23c
 1309 02e1 10       		.byte	0x10
 1310 02e2 09       		.uleb128 0x9
 1311 02e3 78030000 		.4byte	.LASF58
 1312 02e7 04       		.byte	0x4
 1313 02e8 9801     		.2byte	0x198
 1314 02ea 3C020000 		.4byte	0x23c
 1315 02ee 14       		.byte	0x14
 1316 02ef 09       		.uleb128 0x9
 1317 02f0 6E030000 		.4byte	.LASF59
 1318 02f4 04       		.byte	0x4
 1319 02f5 9B01     		.2byte	0x19b
 1320 02f7 3C020000 		.4byte	0x23c
 1321 02fb 18       		.byte	0x18
 1322 02fc 00       		.byte	0
 1323 02fd 03       		.uleb128 0x3
 1324 02fe 1D060000 		.4byte	.LASF60
 1325 0302 09       		.byte	0x9
 1326 0303 5C       		.byte	0x5c
 1327 0304 08030000 		.4byte	0x308
 1328 0308 0A       		.uleb128 0xa
 1329 0309 04       		.byte	0x4
 1330 030a 0E030000 		.4byte	0x30e
 1331 030e 0C       		.uleb128 0xc
 1332 030f 19030000 		.4byte	0x319
 1333 0313 0D       		.uleb128 0xd
 1334 0314 19030000 		.4byte	0x319
 1335 0318 00       		.byte	0
 1336 0319 0E       		.uleb128 0xe
 1337 031a 04       		.byte	0x4
 1338 031b 03       		.uleb128 0x3
 1339 031c BF020000 		.4byte	.LASF61
 1340 0320 09       		.byte	0x9
 1341 0321 61       		.byte	0x61
 1342 0322 26030000 		.4byte	0x326
 1343 0326 0B       		.uleb128 0xb
 1344 0327 56050000 		.4byte	.LASF62
 1345 032b 14       		.byte	0x14
 1346 032c 04       		.byte	0x4
 1347 032d 6B01     		.2byte	0x16b
 1348 032f 75030000 		.4byte	0x375
 1349 0333 09       		.uleb128 0x9
 1350 0334 18020000 		.4byte	.LASF63
 1351 0338 04       		.byte	0x4
 1352 0339 6C01     		.2byte	0x16c
 1353 033b FD050000 		.4byte	0x5fd
 1354 033f 00       		.byte	0
 1355 0340 09       		.uleb128 0x9
 1356 0341 D9010000 		.4byte	.LASF64
 1357 0345 04       		.byte	0x4
 1358 0346 6D01     		.2byte	0x16d
 1359 0348 FD050000 		.4byte	0x5fd
 1360 034c 04       		.byte	0x4
 1361 034d 09       		.uleb128 0x9
 1362 034e 34020000 		.4byte	.LASF65
 1363 0352 04       		.byte	0x4
 1364 0353 6E01     		.2byte	0x16e
ARM GAS  /tmp/cct18UAW.s 			page 25


 1365 0355 2E010000 		.4byte	0x12e
 1366 0359 08       		.byte	0x8
 1367 035a 09       		.uleb128 0x9
 1368 035b 0D070000 		.4byte	.LASF66
 1369 035f 04       		.byte	0x4
 1370 0360 6F01     		.2byte	0x16f
 1371 0362 FD020000 		.4byte	0x2fd
 1372 0366 0C       		.byte	0xc
 1373 0367 09       		.uleb128 0x9
 1374 0368 73060000 		.4byte	.LASF67
 1375 036c 04       		.byte	0x4
 1376 036d 7101     		.2byte	0x171
 1377 036f 19030000 		.4byte	0x319
 1378 0373 10       		.byte	0x10
 1379 0374 00       		.byte	0
 1380 0375 03       		.uleb128 0x3
 1381 0376 C3000000 		.4byte	.LASF68
 1382 037a 09       		.byte	0x9
 1383 037b 66       		.byte	0x66
 1384 037c 80030000 		.4byte	0x380
 1385 0380 0B       		.uleb128 0xb
 1386 0381 FC020000 		.4byte	.LASF69
 1387 0385 10       		.byte	0x10
 1388 0386 04       		.byte	0x4
 1389 0387 7B01     		.2byte	0x17b
 1390 0389 C2030000 		.4byte	0x3c2
 1391 038d 09       		.uleb128 0x9
 1392 038e 18020000 		.4byte	.LASF63
 1393 0392 04       		.byte	0x4
 1394 0393 7C01     		.2byte	0x17c
 1395 0395 FD050000 		.4byte	0x5fd
 1396 0399 00       		.byte	0
 1397 039a 09       		.uleb128 0x9
 1398 039b D9010000 		.4byte	.LASF64
 1399 039f 04       		.byte	0x4
 1400 03a0 7E01     		.2byte	0x17e
 1401 03a2 FD050000 		.4byte	0x5fd
 1402 03a6 04       		.byte	0x4
 1403 03a7 09       		.uleb128 0x9
 1404 03a8 34020000 		.4byte	.LASF65
 1405 03ac 04       		.byte	0x4
 1406 03ad 8001     		.2byte	0x180
 1407 03af 2E010000 		.4byte	0x12e
 1408 03b3 08       		.byte	0x8
 1409 03b4 09       		.uleb128 0x9
 1410 03b5 37030000 		.4byte	.LASF70
 1411 03b9 04       		.byte	0x4
 1412 03ba 8801     		.2byte	0x188
 1413 03bc 2E010000 		.4byte	0x12e
 1414 03c0 0C       		.byte	0xc
 1415 03c1 00       		.byte	0
 1416 03c2 03       		.uleb128 0x3
 1417 03c3 5D000000 		.4byte	.LASF71
 1418 03c7 09       		.byte	0x9
 1419 03c8 6B       		.byte	0x6b
 1420 03c9 CD030000 		.4byte	0x3cd
 1421 03cd 0B       		.uleb128 0xb
ARM GAS  /tmp/cct18UAW.s 			page 26


 1422 03ce E4030000 		.4byte	.LASF72
 1423 03d2 04       		.byte	0x4
 1424 03d3 04       		.byte	0x4
 1425 03d4 A201     		.2byte	0x1a2
 1426 03d6 E8030000 		.4byte	0x3e8
 1427 03da 09       		.uleb128 0x9
 1428 03db 3F060000 		.4byte	.LASF73
 1429 03df 04       		.byte	0x4
 1430 03e0 AA01     		.2byte	0x1aa
 1431 03e2 03060000 		.4byte	0x603
 1432 03e6 00       		.byte	0
 1433 03e7 00       		.byte	0
 1434 03e8 03       		.uleb128 0x3
 1435 03e9 8C020000 		.4byte	.LASF74
 1436 03ed 09       		.byte	0x9
 1437 03ee 70       		.byte	0x70
 1438 03ef F3030000 		.4byte	0x3f3
 1439 03f3 0F       		.uleb128 0xf
 1440 03f4 51010000 		.4byte	.LASF75
 1441 03f8 5001     		.2byte	0x150
 1442 03fa 04       		.byte	0x4
 1443 03fb C201     		.2byte	0x1c2
 1444 03fd 4F040000 		.4byte	0x44f
 1445 0401 09       		.uleb128 0x9
 1446 0402 9A060000 		.4byte	.LASF76
 1447 0406 04       		.byte	0x4
 1448 0407 C601     		.2byte	0x1c6
 1449 0409 96020000 		.4byte	0x296
 1450 040d 00       		.byte	0
 1451 040e 09       		.uleb128 0x9
 1452 040f 38010000 		.4byte	.LASF77
 1453 0413 04       		.byte	0x4
 1454 0414 CA01     		.2byte	0x1ca
 1455 0416 75030000 		.4byte	0x375
 1456 041a 1C       		.byte	0x1c
 1457 041b 08       		.uleb128 0x8
 1458 041c 64626700 		.ascii	"dbg\000"
 1459 0420 04       		.byte	0x4
 1460 0421 CE01     		.2byte	0x1ce
 1461 0423 C2030000 		.4byte	0x3c2
 1462 0427 2C       		.byte	0x2c
 1463 0428 09       		.uleb128 0x9
 1464 0429 AE000000 		.4byte	.LASF78
 1465 042d 04       		.byte	0x4
 1466 042e D201     		.2byte	0x1d2
 1467 0430 39010000 		.4byte	0x139
 1468 0434 30       		.byte	0x30
 1469 0435 08       		.uleb128 0x8
 1470 0436 746D00   		.ascii	"tm\000"
 1471 0439 04       		.byte	0x4
 1472 043a D701     		.2byte	0x1d7
 1473 043c 1B050000 		.4byte	0x51b
 1474 0440 74       		.byte	0x74
 1475 0441 09       		.uleb128 0x9
 1476 0442 EF010000 		.4byte	.LASF79
 1477 0446 04       		.byte	0x4
 1478 0447 E301     		.2byte	0x1e3
ARM GAS  /tmp/cct18UAW.s 			page 27


 1479 0449 08060000 		.4byte	0x608
 1480 044d 78       		.byte	0x78
 1481 044e 00       		.byte	0
 1482 044f 04       		.uleb128 0x4
 1483 0450 04       		.byte	0x4
 1484 0451 07       		.byte	0x7
 1485 0452 E0020000 		.4byte	.LASF80
 1486 0456 03       		.uleb128 0x3
 1487 0457 BE010000 		.4byte	.LASF81
 1488 045b 0A       		.byte	0xa
 1489 045c 65       		.byte	0x65
 1490 045d 19030000 		.4byte	0x319
 1491 0461 03       		.uleb128 0x3
 1492 0462 B4020000 		.4byte	.LASF82
 1493 0466 0A       		.byte	0xa
 1494 0467 6D       		.byte	0x6d
 1495 0468 C6000000 		.4byte	0xc6
 1496 046c 06       		.uleb128 0x6
 1497 046d 50060000 		.4byte	.LASF83
 1498 0471 04       		.byte	0x4
 1499 0472 0A       		.byte	0xa
 1500 0473 89       		.byte	0x89
 1501 0474 85040000 		.4byte	0x485
 1502 0478 10       		.uleb128 0x10
 1503 0479 72313300 		.ascii	"r13\000"
 1504 047d 0A       		.byte	0xa
 1505 047e 8A       		.byte	0x8a
 1506 047f 00050000 		.4byte	0x500
 1507 0483 00       		.byte	0
 1508 0484 00       		.byte	0
 1509 0485 06       		.uleb128 0x6
 1510 0486 51000000 		.4byte	.LASF84
 1511 048a 24       		.byte	0x24
 1512 048b 0B       		.byte	0xb
 1513 048c F4       		.byte	0xf4
 1514 048d 00050000 		.4byte	0x500
 1515 0491 08       		.uleb128 0x8
 1516 0492 723400   		.ascii	"r4\000"
 1517 0495 0B       		.byte	0xb
 1518 0496 0701     		.2byte	0x107
 1519 0498 56040000 		.4byte	0x456
 1520 049c 00       		.byte	0
 1521 049d 08       		.uleb128 0x8
 1522 049e 723500   		.ascii	"r5\000"
 1523 04a1 0B       		.byte	0xb
 1524 04a2 0801     		.2byte	0x108
 1525 04a4 56040000 		.4byte	0x456
 1526 04a8 04       		.byte	0x4
 1527 04a9 08       		.uleb128 0x8
 1528 04aa 723600   		.ascii	"r6\000"
 1529 04ad 0B       		.byte	0xb
 1530 04ae 0901     		.2byte	0x109
 1531 04b0 56040000 		.4byte	0x456
 1532 04b4 08       		.byte	0x8
 1533 04b5 08       		.uleb128 0x8
 1534 04b6 723700   		.ascii	"r7\000"
 1535 04b9 0B       		.byte	0xb
ARM GAS  /tmp/cct18UAW.s 			page 28


 1536 04ba 0A01     		.2byte	0x10a
 1537 04bc 56040000 		.4byte	0x456
 1538 04c0 0C       		.byte	0xc
 1539 04c1 08       		.uleb128 0x8
 1540 04c2 723800   		.ascii	"r8\000"
 1541 04c5 0B       		.byte	0xb
 1542 04c6 0B01     		.2byte	0x10b
 1543 04c8 56040000 		.4byte	0x456
 1544 04cc 10       		.byte	0x10
 1545 04cd 08       		.uleb128 0x8
 1546 04ce 723900   		.ascii	"r9\000"
 1547 04d1 0B       		.byte	0xb
 1548 04d2 0C01     		.2byte	0x10c
 1549 04d4 56040000 		.4byte	0x456
 1550 04d8 14       		.byte	0x14
 1551 04d9 08       		.uleb128 0x8
 1552 04da 72313000 		.ascii	"r10\000"
 1553 04de 0B       		.byte	0xb
 1554 04df 0D01     		.2byte	0x10d
 1555 04e1 56040000 		.4byte	0x456
 1556 04e5 18       		.byte	0x18
 1557 04e6 08       		.uleb128 0x8
 1558 04e7 72313100 		.ascii	"r11\000"
 1559 04eb 0B       		.byte	0xb
 1560 04ec 0E01     		.2byte	0x10e
 1561 04ee 56040000 		.4byte	0x456
 1562 04f2 1C       		.byte	0x1c
 1563 04f3 08       		.uleb128 0x8
 1564 04f4 6C7200   		.ascii	"lr\000"
 1565 04f7 0B       		.byte	0xb
 1566 04f8 0F01     		.2byte	0x10f
 1567 04fa 56040000 		.4byte	0x456
 1568 04fe 20       		.byte	0x20
 1569 04ff 00       		.byte	0
 1570 0500 0A       		.uleb128 0xa
 1571 0501 04       		.byte	0x4
 1572 0502 85040000 		.4byte	0x485
 1573 0506 11       		.uleb128 0x11
 1574 0507 04       		.byte	0x4
 1575 0508 0C       		.byte	0xc
 1576 0509 38       		.byte	0x38
 1577 050a 1B050000 		.4byte	0x51b
 1578 050e 07       		.uleb128 0x7
 1579 050f 49060000 		.4byte	.LASF85
 1580 0513 0C       		.byte	0xc
 1581 0514 3C       		.byte	0x3c
 1582 0515 D6000000 		.4byte	0xd6
 1583 0519 00       		.byte	0
 1584 051a 00       		.byte	0
 1585 051b 03       		.uleb128 0x3
 1586 051c 51030000 		.4byte	.LASF86
 1587 0520 0C       		.byte	0xc
 1588 0521 3D       		.byte	0x3d
 1589 0522 06050000 		.4byte	0x506
 1590 0526 12       		.uleb128 0x12
 1591 0527 04       		.byte	0x4
 1592 0528 04       		.byte	0x4
ARM GAS  /tmp/cct18UAW.s 			page 29


 1593 0529 FA       		.byte	0xfa
 1594 052a 83050000 		.4byte	0x583
 1595 052e 13       		.uleb128 0x13
 1596 052f 14000000 		.4byte	.LASF87
 1597 0533 04       		.byte	0x4
 1598 0534 0101     		.2byte	0x101
 1599 0536 0D010000 		.4byte	0x10d
 1600 053a 13       		.uleb128 0x13
 1601 053b A5000000 		.4byte	.LASF88
 1602 053f 04       		.byte	0x4
 1603 0540 0801     		.2byte	0x108
 1604 0542 0D010000 		.4byte	0x10d
 1605 0546 13       		.uleb128 0x13
 1606 0547 98020000 		.4byte	.LASF89
 1607 054b 04       		.byte	0x4
 1608 054c 0F01     		.2byte	0x10f
 1609 054e 19030000 		.4byte	0x319
 1610 0552 13       		.uleb128 0x13
 1611 0553 4B010000 		.4byte	.LASF90
 1612 0557 04       		.byte	0x4
 1613 0558 1601     		.2byte	0x116
 1614 055a 83050000 		.4byte	0x583
 1615 055e 13       		.uleb128 0x13
 1616 055f 20020000 		.4byte	.LASF91
 1617 0563 04       		.byte	0x4
 1618 0564 1E01     		.2byte	0x11e
 1619 0566 AE050000 		.4byte	0x5ae
 1620 056a 13       		.uleb128 0x13
 1621 056b 96050000 		.4byte	.LASF92
 1622 056f 04       		.byte	0x4
 1623 0570 2701     		.2byte	0x127
 1624 0572 E5050000 		.4byte	0x5e5
 1625 0576 13       		.uleb128 0x13
 1626 0577 16050000 		.4byte	.LASF93
 1627 057b 04       		.byte	0x4
 1628 057c 2F01     		.2byte	0x12f
 1629 057e 18010000 		.4byte	0x118
 1630 0582 00       		.byte	0
 1631 0583 0A       		.uleb128 0xa
 1632 0584 04       		.byte	0x4
 1633 0585 31020000 		.4byte	0x231
 1634 0589 06       		.uleb128 0x6
 1635 058a 67050000 		.4byte	.LASF94
 1636 058e 0C       		.byte	0xc
 1637 058f 03       		.byte	0x3
 1638 0590 34       		.byte	0x34
 1639 0591 AE050000 		.4byte	0x5ae
 1640 0595 07       		.uleb128 0x7
 1641 0596 9D010000 		.4byte	.LASF95
 1642 059a 03       		.byte	0x3
 1643 059b 35       		.byte	0x35
 1644 059c 66020000 		.4byte	0x266
 1645 05a0 00       		.byte	0
 1646 05a1 07       		.uleb128 0x7
 1647 05a2 56020000 		.4byte	.LASF96
 1648 05a6 03       		.byte	0x3
 1649 05a7 37       		.byte	0x37
ARM GAS  /tmp/cct18UAW.s 			page 30


 1650 05a8 23010000 		.4byte	0x123
 1651 05ac 08       		.byte	0x8
 1652 05ad 00       		.byte	0
 1653 05ae 0A       		.uleb128 0xa
 1654 05af 04       		.byte	0x4
 1655 05b0 89050000 		.4byte	0x589
 1656 05b4 06       		.uleb128 0x6
 1657 05b5 8A060000 		.4byte	.LASF97
 1658 05b9 10       		.byte	0x10
 1659 05ba 0D       		.byte	0xd
 1660 05bb 39       		.byte	0x39
 1661 05bc E5050000 		.4byte	0x5e5
 1662 05c0 07       		.uleb128 0x7
 1663 05c1 30010000 		.4byte	.LASF98
 1664 05c5 0D       		.byte	0xd
 1665 05c6 3A       		.byte	0x3a
 1666 05c7 66020000 		.4byte	0x266
 1667 05cb 00       		.byte	0
 1668 05cc 07       		.uleb128 0x7
 1669 05cd FF060000 		.4byte	.LASF99
 1670 05d1 0D       		.byte	0xd
 1671 05d2 3C       		.byte	0x3c
 1672 05d3 3C020000 		.4byte	0x23c
 1673 05d7 08       		.byte	0x8
 1674 05d8 07       		.uleb128 0x7
 1675 05d9 62030000 		.4byte	.LASF100
 1676 05dd 0D       		.byte	0xd
 1677 05de 3E       		.byte	0x3e
 1678 05df 2E060000 		.4byte	0x62e
 1679 05e3 0C       		.byte	0xc
 1680 05e4 00       		.byte	0
 1681 05e5 0A       		.uleb128 0xa
 1682 05e6 04       		.byte	0x4
 1683 05e7 B4050000 		.4byte	0x5b4
 1684 05eb 0A       		.uleb128 0xa
 1685 05ec 04       		.byte	0x4
 1686 05ed F8050000 		.4byte	0x5f8
 1687 05f1 04       		.uleb128 0x4
 1688 05f2 01       		.byte	0x1
 1689 05f3 08       		.byte	0x8
 1690 05f4 D3050000 		.4byte	.LASF101
 1691 05f8 14       		.uleb128 0x14
 1692 05f9 F1050000 		.4byte	0x5f1
 1693 05fd 0A       		.uleb128 0xa
 1694 05fe 04       		.byte	0x4
 1695 05ff 1B030000 		.4byte	0x31b
 1696 0603 05       		.uleb128 0x5
 1697 0604 EB050000 		.4byte	0x5eb
 1698 0608 15       		.uleb128 0x15
 1699 0609 61040000 		.4byte	0x461
 1700 060d 18060000 		.4byte	0x618
 1701 0611 16       		.uleb128 0x16
 1702 0612 4F040000 		.4byte	0x44f
 1703 0616 1A       		.byte	0x1a
 1704 0617 00       		.byte	0
 1705 0618 03       		.uleb128 0x3
 1706 0619 4A050000 		.4byte	.LASF102
ARM GAS  /tmp/cct18UAW.s 			page 31


 1707 061d 03       		.byte	0x3
 1708 061e 38       		.byte	0x38
 1709 061f 89050000 		.4byte	0x589
 1710 0623 03       		.uleb128 0x3
 1711 0624 E1010000 		.4byte	.LASF103
 1712 0628 0D       		.byte	0xd
 1713 0629 34       		.byte	0x34
 1714 062a B4050000 		.4byte	0x5b4
 1715 062e 0A       		.uleb128 0xa
 1716 062f 04       		.byte	0x4
 1717 0630 23060000 		.4byte	0x623
 1718 0634 17       		.uleb128 0x17
 1719 0635 31060000 		.4byte	.LASF110
 1720 0639 02       		.byte	0x2
 1721 063a 2002     		.2byte	0x220
 1722 063c 03       		.byte	0x3
 1723 063d 4E060000 		.4byte	0x64e
 1724 0641 18       		.uleb128 0x18
 1725 0642 E9010000 		.4byte	.LASF108
 1726 0646 02       		.byte	0x2
 1727 0647 2002     		.2byte	0x220
 1728 0649 BB000000 		.4byte	0xbb
 1729 064d 00       		.byte	0
 1730 064e 19       		.uleb128 0x19
 1731 064f 77000000 		.4byte	.LASF104
 1732 0653 0B       		.byte	0xb
 1733 0654 BC01     		.2byte	0x1bc
 1734 0656 03       		.byte	0x3
 1735 0657 19       		.uleb128 0x19
 1736 0658 3F010000 		.4byte	.LASF105
 1737 065c 0B       		.byte	0xb
 1738 065d CA01     		.2byte	0x1ca
 1739 065f 03       		.byte	0x3
 1740 0660 19       		.uleb128 0x19
 1741 0661 60060000 		.4byte	.LASF106
 1742 0665 0B       		.byte	0xb
 1743 0666 D901     		.2byte	0x1d9
 1744 0668 03       		.byte	0x3
 1745 0669 19       		.uleb128 0x19
 1746 066a D8050000 		.4byte	.LASF107
 1747 066e 0B       		.byte	0xb
 1748 066f E401     		.2byte	0x1e4
 1749 0671 03       		.byte	0x3
 1750 0672 1A       		.uleb128 0x1a
 1751 0673 3D050000 		.4byte	.LASF115
 1752 0677 0E       		.byte	0xe
 1753 0678 5101     		.2byte	0x151
 1754 067a 90060000 		.4byte	0x690
 1755 067e 03       		.byte	0x3
 1756 067f 90060000 		.4byte	0x690
 1757 0683 1B       		.uleb128 0x1b
 1758 0684 76747000 		.ascii	"vtp\000"
 1759 0688 0E       		.byte	0xe
 1760 0689 5101     		.2byte	0x151
 1761 068b FD050000 		.4byte	0x5fd
 1762 068f 00       		.byte	0
 1763 0690 04       		.uleb128 0x4
ARM GAS  /tmp/cct18UAW.s 			page 32


 1764 0691 01       		.byte	0x1
 1765 0692 02       		.byte	0x2
 1766 0693 F4030000 		.4byte	.LASF109
 1767 0697 1C       		.uleb128 0x1c
 1768 0698 2B040000 		.4byte	.LASF111
 1769 069c 03       		.byte	0x3
 1770 069d 86       		.byte	0x86
 1771 069e 03       		.byte	0x3
 1772 069f AE060000 		.4byte	0x6ae
 1773 06a3 1D       		.uleb128 0x1d
 1774 06a4 737000   		.ascii	"sp\000"
 1775 06a7 03       		.byte	0x3
 1776 06a8 86       		.byte	0x86
 1777 06a9 AE060000 		.4byte	0x6ae
 1778 06ad 00       		.byte	0
 1779 06ae 0A       		.uleb128 0xa
 1780 06af 04       		.byte	0x4
 1781 06b0 18060000 		.4byte	0x618
 1782 06b4 17       		.uleb128 0x17
 1783 06b5 6C000000 		.4byte	.LASF112
 1784 06b9 04       		.byte	0x4
 1785 06ba 5A02     		.2byte	0x25a
 1786 06bc 03       		.byte	0x3
 1787 06bd CE060000 		.4byte	0x6ce
 1788 06c1 1B       		.uleb128 0x1b
 1789 06c2 74717000 		.ascii	"tqp\000"
 1790 06c6 04       		.byte	0x4
 1791 06c7 5A02     		.2byte	0x25a
 1792 06c9 CE060000 		.4byte	0x6ce
 1793 06cd 00       		.byte	0
 1794 06ce 0A       		.uleb128 0xa
 1795 06cf 04       		.byte	0x4
 1796 06d0 66020000 		.4byte	0x266
 1797 06d4 19       		.uleb128 0x19
 1798 06d5 A8060000 		.4byte	.LASF113
 1799 06d9 0F       		.byte	0xf
 1800 06da 8201     		.2byte	0x182
 1801 06dc 03       		.byte	0x3
 1802 06dd 19       		.uleb128 0x19
 1803 06de D1030000 		.4byte	.LASF114
 1804 06e2 0F       		.byte	0xf
 1805 06e3 9601     		.2byte	0x196
 1806 06e5 03       		.byte	0x3
 1807 06e6 1A       		.uleb128 0x1a
 1808 06e7 64010000 		.4byte	.LASF116
 1809 06eb 04       		.byte	0x4
 1810 06ec B102     		.2byte	0x2b1
 1811 06ee 3C020000 		.4byte	0x23c
 1812 06f2 03       		.byte	0x3
 1813 06f3 03070000 		.4byte	0x703
 1814 06f7 1B       		.uleb128 0x1b
 1815 06f8 747000   		.ascii	"tp\000"
 1816 06fb 04       		.byte	0x4
 1817 06fc B102     		.2byte	0x2b1
 1818 06fe 3C020000 		.4byte	0x23c
 1819 0702 00       		.byte	0
 1820 0703 1E       		.uleb128 0x1e
ARM GAS  /tmp/cct18UAW.s 			page 33


 1821 0704 A5050000 		.4byte	.LASF137
 1822 0708 01       		.byte	0x1
 1823 0709 DA       		.byte	0xda
 1824 070a 3C020000 		.4byte	0x23c
 1825 070e 01       		.byte	0x1
 1826 070f 35070000 		.4byte	0x735
 1827 0713 1D       		.uleb128 0x1d
 1828 0714 747000   		.ascii	"tp\000"
 1829 0717 01       		.byte	0x1
 1830 0718 DA       		.byte	0xda
 1831 0719 3C020000 		.4byte	0x23c
 1832 071d 1F       		.uleb128 0x1f
 1833 071e 637000   		.ascii	"cp\000"
 1834 0721 01       		.byte	0x1
 1835 0722 DB       		.byte	0xdb
 1836 0723 3C020000 		.4byte	0x23c
 1837 0727 20       		.uleb128 0x20
 1838 0728 34050000 		.4byte	.LASF117
 1839 072c 45070000 		.4byte	0x745
 1840 0730 A5050000 		.4byte	.LASF137
 1841 0734 00       		.byte	0
 1842 0735 15       		.uleb128 0x15
 1843 0736 F8050000 		.4byte	0x5f8
 1844 073a 45070000 		.4byte	0x745
 1845 073e 16       		.uleb128 0x16
 1846 073f 4F040000 		.4byte	0x44f
 1847 0743 0B       		.byte	0xb
 1848 0744 00       		.byte	0
 1849 0745 14       		.uleb128 0x14
 1850 0746 35070000 		.4byte	0x735
 1851 074a 17       		.uleb128 0x17
 1852 074b 11020000 		.4byte	.LASF118
 1853 074f 01       		.byte	0x1
 1854 0750 1301     		.2byte	0x113
 1855 0752 01       		.byte	0x1
 1856 0753 6D070000 		.4byte	0x76d
 1857 0757 1B       		.uleb128 0x1b
 1858 0758 7000     		.ascii	"p\000"
 1859 075a 01       		.byte	0x1
 1860 075b 1301     		.2byte	0x113
 1861 075d 19030000 		.4byte	0x319
 1862 0761 21       		.uleb128 0x21
 1863 0762 747000   		.ascii	"tp\000"
 1864 0765 01       		.byte	0x1
 1865 0766 1401     		.2byte	0x114
 1866 0768 3C020000 		.4byte	0x23c
 1867 076c 00       		.byte	0
 1868 076d 1A       		.uleb128 0x1a
 1869 076e F6050000 		.4byte	.LASF119
 1870 0772 04       		.byte	0x4
 1871 0773 9F02     		.2byte	0x29f
 1872 0775 3C020000 		.4byte	0x23c
 1873 0779 03       		.byte	0x3
 1874 077a 96070000 		.4byte	0x796
 1875 077e 1B       		.uleb128 0x1b
 1876 077f 74717000 		.ascii	"tqp\000"
 1877 0783 04       		.byte	0x4
ARM GAS  /tmp/cct18UAW.s 			page 34


 1878 0784 9F02     		.2byte	0x29f
 1879 0786 CE060000 		.4byte	0x6ce
 1880 078a 21       		.uleb128 0x21
 1881 078b 747000   		.ascii	"tp\000"
 1882 078e 04       		.byte	0x4
 1883 078f A002     		.2byte	0x2a0
 1884 0791 3C020000 		.4byte	0x23c
 1885 0795 00       		.byte	0
 1886 0796 22       		.uleb128 0x22
 1887 0797 E4060000 		.4byte	.LASF138
 1888 079b 04       		.byte	0x4
 1889 079c C502     		.2byte	0x2c5
 1890 079e 90060000 		.4byte	0x690
 1891 07a2 03       		.byte	0x3
 1892 07a3 23       		.uleb128 0x23
 1893 07a4 4A070000 		.4byte	0x74a
 1894 07a8 00000000 		.4byte	.LFB230
 1895 07ac 6C000000 		.4byte	.LFE230-.LFB230
 1896 07b0 01       		.uleb128 0x1
 1897 07b1 9C       		.byte	0x9c
 1898 07b2 6A090000 		.4byte	0x96a
 1899 07b6 24       		.uleb128 0x24
 1900 07b7 57070000 		.4byte	0x757
 1901 07bb 01       		.uleb128 0x1
 1902 07bc 50       		.byte	0x50
 1903 07bd 25       		.uleb128 0x25
 1904 07be 61070000 		.4byte	0x761
 1905 07c2 01       		.uleb128 0x1
 1906 07c3 50       		.byte	0x50
 1907 07c4 26       		.uleb128 0x26
 1908 07c5 D4060000 		.4byte	0x6d4
 1909 07c9 02000000 		.4byte	.LBB128
 1910 07cd 06000000 		.4byte	.LBE128-.LBB128
 1911 07d1 01       		.byte	0x1
 1912 07d2 1601     		.2byte	0x116
 1913 07d4 15080000 		.4byte	0x815
 1914 07d8 27       		.uleb128 0x27
 1915 07d9 60060000 		.4byte	0x660
 1916 07dd 02000000 		.4byte	.LBB129
 1917 07e1 06000000 		.4byte	.LBE129-.LBB129
 1918 07e5 0F       		.byte	0xf
 1919 07e6 8401     		.2byte	0x184
 1920 07e8 27       		.uleb128 0x27
 1921 07e9 4E060000 		.4byte	0x64e
 1922 07ed 02000000 		.4byte	.LBB130
 1923 07f1 06000000 		.4byte	.LBE130-.LBB130
 1924 07f5 0B       		.byte	0xb
 1925 07f6 DB01     		.2byte	0x1db
 1926 07f8 27       		.uleb128 0x27
 1927 07f9 34060000 		.4byte	0x634
 1928 07fd 02000000 		.4byte	.LBB131
 1929 0801 06000000 		.4byte	.LBE131-.LBB131
 1930 0805 0B       		.byte	0xb
 1931 0806 BF01     		.2byte	0x1bf
 1932 0808 28       		.uleb128 0x28
 1933 0809 41060000 		.4byte	0x641
 1934 080d 00000000 		.4byte	.LLST0
ARM GAS  /tmp/cct18UAW.s 			page 35


 1935 0811 00       		.byte	0
 1936 0812 00       		.byte	0
 1937 0813 00       		.byte	0
 1938 0814 00       		.byte	0
 1939 0815 26       		.uleb128 0x26
 1940 0816 97060000 		.4byte	0x697
 1941 081a 1C000000 		.4byte	.LBB133
 1942 081e 06000000 		.4byte	.LBE133-.LBB133
 1943 0822 01       		.byte	0x1
 1944 0823 2201     		.2byte	0x122
 1945 0825 33080000 		.4byte	0x833
 1946 0829 28       		.uleb128 0x28
 1947 082a A3060000 		.4byte	0x6a3
 1948 082e 15000000 		.4byte	.LLST1
 1949 0832 00       		.byte	0
 1950 0833 26       		.uleb128 0x26
 1951 0834 E6060000 		.4byte	0x6e6
 1952 0838 22000000 		.4byte	.LBB135
 1953 083c 0A000000 		.4byte	.LBE135-.LBB135
 1954 0840 01       		.byte	0x1
 1955 0841 2A01     		.2byte	0x12a
 1956 0843 51080000 		.4byte	0x851
 1957 0847 28       		.uleb128 0x28
 1958 0848 F7060000 		.4byte	0x6f7
 1959 084c 28000000 		.4byte	.LLST2
 1960 0850 00       		.byte	0
 1961 0851 29       		.uleb128 0x29
 1962 0852 03070000 		.4byte	0x703
 1963 0856 30000000 		.4byte	.LBB137
 1964 085a 00000000 		.4byte	.Ldebug_ranges0+0
 1965 085e 01       		.byte	0x1
 1966 085f 3101     		.2byte	0x131
 1967 0861 83080000 		.4byte	0x883
 1968 0865 28       		.uleb128 0x28
 1969 0866 13070000 		.4byte	0x713
 1970 086a 3B000000 		.4byte	.LLST3
 1971 086e 2A       		.uleb128 0x2a
 1972 086f 00000000 		.4byte	.Ldebug_ranges0+0
 1973 0873 2B       		.uleb128 0x2b
 1974 0874 1D070000 		.4byte	0x71d
 1975 0878 4E000000 		.4byte	.LLST4
 1976 087c 2C       		.uleb128 0x2c
 1977 087d 27070000 		.4byte	0x727
 1978 0881 00       		.byte	0
 1979 0882 00       		.byte	0
 1980 0883 2D       		.uleb128 0x2d
 1981 0884 18000000 		.4byte	.Ldebug_ranges0+0x18
 1982 0888 1C090000 		.4byte	0x91c
 1983 088c 28       		.uleb128 0x28
 1984 088d 57070000 		.4byte	0x757
 1985 0891 66000000 		.4byte	.LLST5
 1986 0895 2A       		.uleb128 0x2a
 1987 0896 18000000 		.4byte	.Ldebug_ranges0+0x18
 1988 089a 2C       		.uleb128 0x2c
 1989 089b 61070000 		.4byte	0x761
 1990 089f 29       		.uleb128 0x29
 1991 08a0 03070000 		.4byte	0x703
ARM GAS  /tmp/cct18UAW.s 			page 36


 1992 08a4 34000000 		.4byte	.LBB142
 1993 08a8 30000000 		.4byte	.Ldebug_ranges0+0x30
 1994 08ac 01       		.byte	0x1
 1995 08ad 3101     		.2byte	0x131
 1996 08af CD080000 		.4byte	0x8cd
 1997 08b3 2E       		.uleb128 0x2e
 1998 08b4 13070000 		.4byte	0x713
 1999 08b8 2A       		.uleb128 0x2a
 2000 08b9 30000000 		.4byte	.Ldebug_ranges0+0x30
 2001 08bd 2B       		.uleb128 0x2b
 2002 08be 1D070000 		.4byte	0x71d
 2003 08c2 79000000 		.4byte	.LLST6
 2004 08c6 2C       		.uleb128 0x2c
 2005 08c7 27070000 		.4byte	0x727
 2006 08cb 00       		.byte	0
 2007 08cc 00       		.byte	0
 2008 08cd 2F       		.uleb128 0x2f
 2009 08ce DD060000 		.4byte	0x6dd
 2010 08d2 48000000 		.4byte	.LBB147
 2011 08d6 50000000 		.4byte	.Ldebug_ranges0+0x50
 2012 08da 01       		.byte	0x1
 2013 08db 3201     		.2byte	0x132
 2014 08dd 2F       		.uleb128 0x2f
 2015 08de 69060000 		.4byte	0x669
 2016 08e2 48000000 		.4byte	.LBB148
 2017 08e6 50000000 		.4byte	.Ldebug_ranges0+0x50
 2018 08ea 0F       		.byte	0xf
 2019 08eb 9A01     		.2byte	0x19a
 2020 08ed 2F       		.uleb128 0x2f
 2021 08ee 57060000 		.4byte	0x657
 2022 08f2 48000000 		.4byte	.LBB149
 2023 08f6 50000000 		.4byte	.Ldebug_ranges0+0x50
 2024 08fa 0B       		.byte	0xb
 2025 08fb E601     		.2byte	0x1e6
 2026 08fd 2F       		.uleb128 0x2f
 2027 08fe 34060000 		.4byte	0x634
 2028 0902 48000000 		.4byte	.LBB150
 2029 0906 50000000 		.4byte	.Ldebug_ranges0+0x50
 2030 090a 0B       		.byte	0xb
 2031 090b CD01     		.2byte	0x1cd
 2032 090d 28       		.uleb128 0x28
 2033 090e 41060000 		.4byte	0x641
 2034 0912 8C000000 		.4byte	.LLST7
 2035 0916 00       		.byte	0
 2036 0917 00       		.byte	0
 2037 0918 00       		.byte	0
 2038 0919 00       		.byte	0
 2039 091a 00       		.byte	0
 2040 091b 00       		.byte	0
 2041 091c 27       		.uleb128 0x27
 2042 091d DD060000 		.4byte	0x6dd
 2043 0921 5E000000 		.4byte	.LBB161
 2044 0925 06000000 		.4byte	.LBE161-.LBB161
 2045 0929 01       		.byte	0x1
 2046 092a 1B01     		.2byte	0x11b
 2047 092c 27       		.uleb128 0x27
 2048 092d 69060000 		.4byte	0x669
ARM GAS  /tmp/cct18UAW.s 			page 37


 2049 0931 5E000000 		.4byte	.LBB162
 2050 0935 06000000 		.4byte	.LBE162-.LBB162
 2051 0939 0F       		.byte	0xf
 2052 093a 9A01     		.2byte	0x19a
 2053 093c 27       		.uleb128 0x27
 2054 093d 57060000 		.4byte	0x657
 2055 0941 5E000000 		.4byte	.LBB163
 2056 0945 06000000 		.4byte	.LBE163-.LBB163
 2057 0949 0B       		.byte	0xb
 2058 094a E601     		.2byte	0x1e6
 2059 094c 27       		.uleb128 0x27
 2060 094d 34060000 		.4byte	0x634
 2061 0951 5E000000 		.4byte	.LBB164
 2062 0955 06000000 		.4byte	.LBE164-.LBB164
 2063 0959 0B       		.byte	0xb
 2064 095a CD01     		.2byte	0x1cd
 2065 095c 28       		.uleb128 0x28
 2066 095d 41060000 		.4byte	0x641
 2067 0961 A0000000 		.4byte	.LLST8
 2068 0965 00       		.byte	0
 2069 0966 00       		.byte	0
 2070 0967 00       		.byte	0
 2071 0968 00       		.byte	0
 2072 0969 00       		.byte	0
 2073 096a 30       		.uleb128 0x30
 2074 096b FE000000 		.4byte	.LASF120
 2075 096f 01       		.byte	0x1
 2076 0970 41       		.byte	0x41
 2077 0971 00000000 		.4byte	.LFB227
 2078 0975 14000000 		.4byte	.LFE227-.LFB227
 2079 0979 01       		.uleb128 0x1
 2080 097a 9C       		.byte	0x9c
 2081 097b 99090000 		.4byte	0x999
 2082 097f 31       		.uleb128 0x31
 2083 0980 B4060000 		.4byte	0x6b4
 2084 0984 00000000 		.4byte	.LBB166
 2085 0988 68000000 		.4byte	.Ldebug_ranges0+0x68
 2086 098c 01       		.byte	0x1
 2087 098d 43       		.byte	0x43
 2088 098e 28       		.uleb128 0x28
 2089 098f C1060000 		.4byte	0x6c1
 2090 0993 B4000000 		.4byte	.LLST9
 2091 0997 00       		.byte	0
 2092 0998 00       		.byte	0
 2093 0999 23       		.uleb128 0x23
 2094 099a 03070000 		.4byte	0x703
 2095 099e 00000000 		.4byte	.LFB228
 2096 09a2 28000000 		.4byte	.LFE228-.LFB228
 2097 09a6 01       		.uleb128 0x1
 2098 09a7 9C       		.byte	0x9c
 2099 09a8 C2090000 		.4byte	0x9c2
 2100 09ac 28       		.uleb128 0x28
 2101 09ad 13070000 		.4byte	0x713
 2102 09b1 CC000000 		.4byte	.LLST10
 2103 09b5 25       		.uleb128 0x25
 2104 09b6 1D070000 		.4byte	0x71d
 2105 09ba 01       		.uleb128 0x1
ARM GAS  /tmp/cct18UAW.s 			page 38


 2106 09bb 53       		.byte	0x53
 2107 09bc 2C       		.uleb128 0x2c
 2108 09bd 27070000 		.4byte	0x727
 2109 09c1 00       		.byte	0
 2110 09c2 30       		.uleb128 0x30
 2111 09c3 74050000 		.4byte	.LASF121
 2112 09c7 01       		.byte	0x1
 2113 09c8 FA       		.byte	0xfa
 2114 09c9 00000000 		.4byte	.LFB229
 2115 09cd 24000000 		.4byte	.LFE229-.LFB229
 2116 09d1 01       		.uleb128 0x1
 2117 09d2 9C       		.byte	0x9c
 2118 09d3 2C0A0000 		.4byte	0xa2c
 2119 09d7 32       		.uleb128 0x32
 2120 09d8 10040000 		.4byte	.LASF122
 2121 09dc 01       		.byte	0x1
 2122 09dd FA       		.byte	0xfa
 2123 09de EC000000 		.4byte	0xec
 2124 09e2 F5000000 		.4byte	.LLST11
 2125 09e6 33       		.uleb128 0x33
 2126 09e7 6F747000 		.ascii	"otp\000"
 2127 09eb 01       		.byte	0x1
 2128 09ec FB       		.byte	0xfb
 2129 09ed 3C020000 		.4byte	0x23c
 2130 09f1 22010000 		.4byte	.LLST12
 2131 09f5 29       		.uleb128 0x29
 2132 09f6 6D070000 		.4byte	0x76d
 2133 09fa 04000000 		.4byte	.LBB170
 2134 09fe 80000000 		.4byte	.Ldebug_ranges0+0x80
 2135 0a02 01       		.byte	0x1
 2136 0a03 0601     		.2byte	0x106
 2137 0a05 220A0000 		.4byte	0xa22
 2138 0a09 28       		.uleb128 0x28
 2139 0a0a 7E070000 		.4byte	0x77e
 2140 0a0e 35010000 		.4byte	.LLST13
 2141 0a12 2A       		.uleb128 0x2a
 2142 0a13 80000000 		.4byte	.Ldebug_ranges0+0x80
 2143 0a17 2B       		.uleb128 0x2b
 2144 0a18 8A070000 		.4byte	0x78a
 2145 0a1c 4D010000 		.4byte	.LLST14
 2146 0a20 00       		.byte	0
 2147 0a21 00       		.byte	0
 2148 0a22 34       		.uleb128 0x34
 2149 0a23 1E000000 		.4byte	.LVL25
 2150 0a27 3C0D0000 		.4byte	0xd3c
 2151 0a2b 00       		.byte	0
 2152 0a2c 35       		.uleb128 0x35
 2153 0a2d CF060000 		.4byte	.LASF125
 2154 0a31 01       		.byte	0x1
 2155 0a32 4A01     		.2byte	0x14a
 2156 0a34 0D010000 		.4byte	0x10d
 2157 0a38 00000000 		.4byte	.LFB231
 2158 0a3c 44000000 		.4byte	.LFE231-.LFB231
 2159 0a40 01       		.uleb128 0x1
 2160 0a41 9C       		.byte	0x9c
 2161 0a42 D40A0000 		.4byte	0xad4
 2162 0a46 36       		.uleb128 0x36
ARM GAS  /tmp/cct18UAW.s 			page 39


 2163 0a47 10040000 		.4byte	.LASF122
 2164 0a4b 01       		.byte	0x1
 2165 0a4c 4A01     		.2byte	0x14a
 2166 0a4e EC000000 		.4byte	0xec
 2167 0a52 60010000 		.4byte	.LLST15
 2168 0a56 36       		.uleb128 0x36
 2169 0a57 69030000 		.4byte	.LASF123
 2170 0a5b 01       		.byte	0x1
 2171 0a5c 4A01     		.2byte	0x14a
 2172 0a5e 2E010000 		.4byte	0x12e
 2173 0a62 9A010000 		.4byte	.LLST16
 2174 0a66 37       		.uleb128 0x37
 2175 0a67 08000000 		.4byte	.LBB176
 2176 0a6b 1E000000 		.4byte	.LBE176-.LBB176
 2177 0a6f CA0A0000 		.4byte	0xaca
 2178 0a73 38       		.uleb128 0x38
 2179 0a74 767400   		.ascii	"vt\000"
 2180 0a77 01       		.byte	0x1
 2181 0a78 4F01     		.2byte	0x14f
 2182 0a7a 1B030000 		.4byte	0x31b
 2183 0a7e 02       		.uleb128 0x2
 2184 0a7f 91       		.byte	0x91
 2185 0a80 5C       		.sleb128 -36
 2186 0a81 39       		.uleb128 0x39
 2187 0a82 16000000 		.4byte	.LVL28
 2188 0a86 480D0000 		.4byte	0xd48
 2189 0a8a A50A0000 		.4byte	0xaa5
 2190 0a8e 3A       		.uleb128 0x3a
 2191 0a8f 01       		.uleb128 0x1
 2192 0a90 50       		.byte	0x50
 2193 0a91 02       		.uleb128 0x2
 2194 0a92 91       		.byte	0x91
 2195 0a93 5C       		.sleb128 -36
 2196 0a94 3A       		.uleb128 0x3a
 2197 0a95 01       		.uleb128 0x1
 2198 0a96 51       		.byte	0x51
 2199 0a97 03       		.uleb128 0x3
 2200 0a98 F3       		.byte	0xf3
 2201 0a99 01       		.uleb128 0x1
 2202 0a9a 51       		.byte	0x51
 2203 0a9b 3A       		.uleb128 0x3a
 2204 0a9c 01       		.uleb128 0x1
 2205 0a9d 52       		.byte	0x52
 2206 0a9e 05       		.uleb128 0x5
 2207 0a9f 03       		.byte	0x3
 2208 0aa0 00000000 		.4byte	wakeup
 2209 0aa4 00       		.byte	0
 2210 0aa5 39       		.uleb128 0x39
 2211 0aa6 1C000000 		.4byte	.LVL29
 2212 0aaa C2090000 		.4byte	0x9c2
 2213 0aae B90A0000 		.4byte	0xab9
 2214 0ab2 3A       		.uleb128 0x3a
 2215 0ab3 01       		.uleb128 0x1
 2216 0ab4 50       		.byte	0x50
 2217 0ab5 02       		.uleb128 0x2
 2218 0ab6 75       		.byte	0x75
 2219 0ab7 00       		.sleb128 0
ARM GAS  /tmp/cct18UAW.s 			page 40


 2220 0ab8 00       		.byte	0
 2221 0ab9 3B       		.uleb128 0x3b
 2222 0aba 26000000 		.4byte	.LVL31
 2223 0abe 530D0000 		.4byte	0xd53
 2224 0ac2 3A       		.uleb128 0x3a
 2225 0ac3 01       		.uleb128 0x1
 2226 0ac4 50       		.byte	0x50
 2227 0ac5 02       		.uleb128 0x2
 2228 0ac6 91       		.byte	0x91
 2229 0ac7 5C       		.sleb128 -36
 2230 0ac8 00       		.byte	0
 2231 0ac9 00       		.byte	0
 2232 0aca 3C       		.uleb128 0x3c
 2233 0acb 34000000 		.4byte	.LVL33
 2234 0acf C2090000 		.4byte	0x9c2
 2235 0ad3 00       		.byte	0
 2236 0ad4 3D       		.uleb128 0x3d
 2237 0ad5 79020000 		.4byte	.LASF124
 2238 0ad9 01       		.byte	0x1
 2239 0ada 6F01     		.2byte	0x16f
 2240 0adc 00000000 		.4byte	.LFB232
 2241 0ae0 58000000 		.4byte	.LFE232-.LFB232
 2242 0ae4 01       		.uleb128 0x1
 2243 0ae5 9C       		.byte	0x9c
 2244 0ae6 920B0000 		.4byte	0xb92
 2245 0aea 3E       		.uleb128 0x3e
 2246 0aeb 6E747000 		.ascii	"ntp\000"
 2247 0aef 01       		.byte	0x1
 2248 0af0 6F01     		.2byte	0x16f
 2249 0af2 3C020000 		.4byte	0x23c
 2250 0af6 D4010000 		.4byte	.LLST17
 2251 0afa 3E       		.uleb128 0x3e
 2252 0afb 6D736700 		.ascii	"msg\000"
 2253 0aff 01       		.byte	0x1
 2254 0b00 6F01     		.2byte	0x16f
 2255 0b02 0D010000 		.4byte	0x10d
 2256 0b06 22020000 		.4byte	.LLST18
 2257 0b0a 29       		.uleb128 0x29
 2258 0b0b 03070000 		.4byte	0x703
 2259 0b0f 10000000 		.4byte	.LBB177
 2260 0b13 A0000000 		.4byte	.Ldebug_ranges0+0xa0
 2261 0b17 01       		.byte	0x1
 2262 0b18 7C01     		.2byte	0x17c
 2263 0b1a 3C0B0000 		.4byte	0xb3c
 2264 0b1e 28       		.uleb128 0x28
 2265 0b1f 13070000 		.4byte	0x713
 2266 0b23 69020000 		.4byte	.LLST19
 2267 0b27 2A       		.uleb128 0x2a
 2268 0b28 A0000000 		.4byte	.Ldebug_ranges0+0xa0
 2269 0b2c 2B       		.uleb128 0x2b
 2270 0b2d 1D070000 		.4byte	0x71d
 2271 0b31 88020000 		.4byte	.LLST20
 2272 0b35 2C       		.uleb128 0x2c
 2273 0b36 27070000 		.4byte	0x727
 2274 0b3a 00       		.byte	0
 2275 0b3b 00       		.byte	0
 2276 0b3c 2A       		.uleb128 0x2a
ARM GAS  /tmp/cct18UAW.s 			page 41


 2277 0b3d B8000000 		.4byte	.Ldebug_ranges0+0xb8
 2278 0b41 21       		.uleb128 0x21
 2279 0b42 6F747000 		.ascii	"otp\000"
 2280 0b46 01       		.byte	0x1
 2281 0b47 7F01     		.2byte	0x17f
 2282 0b49 3C020000 		.4byte	0x23c
 2283 0b4d 29       		.uleb128 0x29
 2284 0b4e 03070000 		.4byte	0x703
 2285 0b52 2E000000 		.4byte	.LBB182
 2286 0b56 D0000000 		.4byte	.Ldebug_ranges0+0xd0
 2287 0b5a 01       		.byte	0x1
 2288 0b5b 7F01     		.2byte	0x17f
 2289 0b5d 7F0B0000 		.4byte	0xb7f
 2290 0b61 28       		.uleb128 0x28
 2291 0b62 13070000 		.4byte	0x713
 2292 0b66 9B020000 		.4byte	.LLST21
 2293 0b6a 2A       		.uleb128 0x2a
 2294 0b6b D0000000 		.4byte	.Ldebug_ranges0+0xd0
 2295 0b6f 2B       		.uleb128 0x2b
 2296 0b70 1D070000 		.4byte	0x71d
 2297 0b74 AE020000 		.4byte	.LLST22
 2298 0b78 2C       		.uleb128 0x2c
 2299 0b79 27070000 		.4byte	0x727
 2300 0b7d 00       		.byte	0
 2301 0b7e 00       		.byte	0
 2302 0b7f 3F       		.uleb128 0x3f
 2303 0b80 54000000 		.4byte	.LVL48
 2304 0b84 3C0D0000 		.4byte	0xd3c
 2305 0b88 3A       		.uleb128 0x3a
 2306 0b89 01       		.uleb128 0x1
 2307 0b8a 50       		.byte	0x50
 2308 0b8b 03       		.uleb128 0x3
 2309 0b8c F3       		.byte	0xf3
 2310 0b8d 01       		.uleb128 0x1
 2311 0b8e 50       		.byte	0x50
 2312 0b8f 00       		.byte	0
 2313 0b90 00       		.byte	0
 2314 0b91 00       		.byte	0
 2315 0b92 35       		.uleb128 0x35
 2316 0b93 7B010000 		.4byte	.LASF126
 2317 0b97 01       		.byte	0x1
 2318 0b98 A801     		.2byte	0x1a8
 2319 0b9a 90060000 		.4byte	0x690
 2320 0b9e 00000000 		.4byte	.LFB234
 2321 0ba2 18000000 		.4byte	.LFE234-.LFB234
 2322 0ba6 01       		.uleb128 0x1
 2323 0ba7 9C       		.byte	0x9c
 2324 0ba8 D50B0000 		.4byte	0xbd5
 2325 0bac 38       		.uleb128 0x38
 2326 0bad 703100   		.ascii	"p1\000"
 2327 0bb0 01       		.byte	0x1
 2328 0bb1 A901     		.2byte	0x1a9
 2329 0bb3 02010000 		.4byte	0x102
 2330 0bb7 08       		.uleb128 0x8
 2331 0bb8 03       		.byte	0x3
 2332 0bb9 00000000 		.4byte	ch
 2333 0bbd 06       		.byte	0x6
ARM GAS  /tmp/cct18UAW.s 			page 42


 2334 0bbe 23       		.byte	0x23
 2335 0bbf 08       		.uleb128 0x8
 2336 0bc0 38       		.uleb128 0x38
 2337 0bc1 703200   		.ascii	"p2\000"
 2338 0bc4 01       		.byte	0x1
 2339 0bc5 AA01     		.2byte	0x1aa
 2340 0bc7 02010000 		.4byte	0x102
 2341 0bcb 08       		.uleb128 0x8
 2342 0bcc 03       		.byte	0x3
 2343 0bcd 18000000 		.4byte	ch+24
 2344 0bd1 06       		.byte	0x6
 2345 0bd2 23       		.byte	0x23
 2346 0bd3 08       		.uleb128 0x8
 2347 0bd4 00       		.byte	0
 2348 0bd5 3D       		.uleb128 0x3d
 2349 0bd6 1F030000 		.4byte	.LASF127
 2350 0bda 01       		.byte	0x1
 2351 0bdb C301     		.2byte	0x1c3
 2352 0bdd 00000000 		.4byte	.LFB235
 2353 0be1 3C000000 		.4byte	.LFE235-.LFB235
 2354 0be5 01       		.uleb128 0x1
 2355 0be6 9C       		.byte	0x9c
 2356 0be7 640C0000 		.4byte	0xc64
 2357 0beb 40       		.uleb128 0x40
 2358 0bec 6F747000 		.ascii	"otp\000"
 2359 0bf0 01       		.byte	0x1
 2360 0bf1 C401     		.2byte	0x1c4
 2361 0bf3 3C020000 		.4byte	0x23c
 2362 0bf7 D1020000 		.4byte	.LLST23
 2363 0bfb 29       		.uleb128 0x29
 2364 0bfc 6D070000 		.4byte	0x76d
 2365 0c00 02000000 		.4byte	.LBB187
 2366 0c04 E8000000 		.4byte	.Ldebug_ranges0+0xe8
 2367 0c08 01       		.byte	0x1
 2368 0c09 C801     		.2byte	0x1c8
 2369 0c0b 280C0000 		.4byte	0xc28
 2370 0c0f 28       		.uleb128 0x28
 2371 0c10 7E070000 		.4byte	0x77e
 2372 0c14 EF020000 		.4byte	.LLST24
 2373 0c18 2A       		.uleb128 0x2a
 2374 0c19 E8000000 		.4byte	.Ldebug_ranges0+0xe8
 2375 0c1d 2B       		.uleb128 0x2b
 2376 0c1e 8A070000 		.4byte	0x78a
 2377 0c22 07030000 		.4byte	.LLST25
 2378 0c26 00       		.byte	0
 2379 0c27 00       		.byte	0
 2380 0c28 29       		.uleb128 0x29
 2381 0c29 03070000 		.4byte	0x703
 2382 0c2d 0E000000 		.4byte	.LBB192
 2383 0c31 08010000 		.4byte	.Ldebug_ranges0+0x108
 2384 0c35 01       		.byte	0x1
 2385 0c36 D201     		.2byte	0x1d2
 2386 0c38 5A0C0000 		.4byte	0xc5a
 2387 0c3c 28       		.uleb128 0x28
 2388 0c3d 13070000 		.4byte	0x713
 2389 0c41 1A030000 		.4byte	.LLST26
 2390 0c45 2A       		.uleb128 0x2a
ARM GAS  /tmp/cct18UAW.s 			page 43


 2391 0c46 08010000 		.4byte	.Ldebug_ranges0+0x108
 2392 0c4a 2B       		.uleb128 0x2b
 2393 0c4b 1D070000 		.4byte	0x71d
 2394 0c4f 2D030000 		.4byte	.LLST27
 2395 0c53 2C       		.uleb128 0x2c
 2396 0c54 27070000 		.4byte	0x727
 2397 0c58 00       		.byte	0
 2398 0c59 00       		.byte	0
 2399 0c5a 34       		.uleb128 0x34
 2400 0c5b 36000000 		.4byte	.LVL57
 2401 0c5f 3C0D0000 		.4byte	0xd3c
 2402 0c63 00       		.byte	0
 2403 0c64 3D       		.uleb128 0x3d
 2404 0c65 24000000 		.4byte	.LASF128
 2405 0c69 01       		.byte	0x1
 2406 0c6a DF01     		.2byte	0x1df
 2407 0c6c 00000000 		.4byte	.LFB236
 2408 0c70 3C000000 		.4byte	.LFE236-.LFB236
 2409 0c74 01       		.uleb128 0x1
 2410 0c75 9C       		.byte	0x9c
 2411 0c76 D00C0000 		.4byte	0xcd0
 2412 0c7a 40       		.uleb128 0x40
 2413 0c7b 6F747000 		.ascii	"otp\000"
 2414 0c7f 01       		.byte	0x1
 2415 0c80 E001     		.2byte	0x1e0
 2416 0c82 3C020000 		.4byte	0x23c
 2417 0c86 45030000 		.4byte	.LLST28
 2418 0c8a 40       		.uleb128 0x40
 2419 0c8b 637000   		.ascii	"cp\000"
 2420 0c8e 01       		.byte	0x1
 2421 0c8f E001     		.2byte	0x1e0
 2422 0c91 3C020000 		.4byte	0x23c
 2423 0c95 63030000 		.4byte	.LLST29
 2424 0c99 29       		.uleb128 0x29
 2425 0c9a 6D070000 		.4byte	0x76d
 2426 0c9e 02000000 		.4byte	.LBB199
 2427 0ca2 28010000 		.4byte	.Ldebug_ranges0+0x128
 2428 0ca6 01       		.byte	0x1
 2429 0ca7 E401     		.2byte	0x1e4
 2430 0ca9 C60C0000 		.4byte	0xcc6
 2431 0cad 28       		.uleb128 0x28
 2432 0cae 7E070000 		.4byte	0x77e
 2433 0cb2 7B030000 		.4byte	.LLST30
 2434 0cb6 2A       		.uleb128 0x2a
 2435 0cb7 28010000 		.4byte	.Ldebug_ranges0+0x128
 2436 0cbb 2B       		.uleb128 0x2b
 2437 0cbc 8A070000 		.4byte	0x78a
 2438 0cc0 93030000 		.4byte	.LLST31
 2439 0cc4 00       		.byte	0
 2440 0cc5 00       		.byte	0
 2441 0cc6 34       		.uleb128 0x34
 2442 0cc7 36000000 		.4byte	.LVL63
 2443 0ccb 3C0D0000 		.4byte	0xd3c
 2444 0ccf 00       		.byte	0
 2445 0cd0 3D       		.uleb128 0x3d
 2446 0cd1 A5010000 		.4byte	.LASF129
 2447 0cd5 01       		.byte	0x1
ARM GAS  /tmp/cct18UAW.s 			page 44


 2448 0cd6 9201     		.2byte	0x192
 2449 0cd8 00000000 		.4byte	.LFB233
 2450 0cdc 18000000 		.4byte	.LFE233-.LFB233
 2451 0ce0 01       		.uleb128 0x1
 2452 0ce1 9C       		.byte	0x9c
 2453 0ce2 000D0000 		.4byte	0xd00
 2454 0ce6 41       		.uleb128 0x41
 2455 0ce7 96070000 		.4byte	0x796
 2456 0ceb 00000000 		.4byte	.LBB205
 2457 0cef 06000000 		.4byte	.LBE205-.LBB205
 2458 0cf3 01       		.byte	0x1
 2459 0cf4 9601     		.2byte	0x196
 2460 0cf6 34       		.uleb128 0x34
 2461 0cf7 14000000 		.4byte	.LVL64
 2462 0cfb 640C0000 		.4byte	0xc64
 2463 0cff 00       		.byte	0
 2464 0d00 3D       		.uleb128 0x3d
 2465 0d01 C7010000 		.4byte	.LASF130
 2466 0d05 01       		.byte	0x1
 2467 0d06 0402     		.2byte	0x204
 2468 0d08 00000000 		.4byte	.LFB237
 2469 0d0c 04000000 		.4byte	.LFE237-.LFB237
 2470 0d10 01       		.uleb128 0x1
 2471 0d11 9C       		.byte	0x9c
 2472 0d12 200D0000 		.4byte	0xd20
 2473 0d16 34       		.uleb128 0x34
 2474 0d17 04000000 		.4byte	.LVL65
 2475 0d1b 640C0000 		.4byte	0xc64
 2476 0d1f 00       		.byte	0
 2477 0d20 42       		.uleb128 0x42
 2478 0d21 D9000000 		.4byte	.LASF131
 2479 0d25 10       		.byte	0x10
 2480 0d26 A706     		.2byte	0x6a7
 2481 0d28 D1000000 		.4byte	0xd1
 2482 0d2c 43       		.uleb128 0x43
 2483 0d2d 636800   		.ascii	"ch\000"
 2484 0d30 01       		.byte	0x1
 2485 0d31 2A       		.byte	0x2a
 2486 0d32 E8030000 		.4byte	0x3e8
 2487 0d36 05       		.uleb128 0x5
 2488 0d37 03       		.byte	0x3
 2489 0d38 00000000 		.4byte	ch
 2490 0d3c 44       		.uleb128 0x44
 2491 0d3d 27020000 		.4byte	.LASF132
 2492 0d41 27020000 		.4byte	.LASF132
 2493 0d45 0B       		.byte	0xb
 2494 0d46 6701     		.2byte	0x167
 2495 0d48 45       		.uleb128 0x45
 2496 0d49 A9020000 		.4byte	.LASF133
 2497 0d4d A9020000 		.4byte	.LASF133
 2498 0d51 0E       		.byte	0xe
 2499 0d52 BC       		.byte	0xbc
 2500 0d53 45       		.uleb128 0x45
 2501 0d54 98000000 		.4byte	.LASF134
 2502 0d58 98000000 		.4byte	.LASF134
 2503 0d5c 0E       		.byte	0xe
 2504 0d5d BE       		.byte	0xbe
ARM GAS  /tmp/cct18UAW.s 			page 45


 2505 0d5e 00       		.byte	0
 2506              		.section	.debug_abbrev,"",%progbits
 2507              	.Ldebug_abbrev0:
 2508 0000 01       		.uleb128 0x1
 2509 0001 11       		.uleb128 0x11
 2510 0002 01       		.byte	0x1
 2511 0003 25       		.uleb128 0x25
 2512 0004 0E       		.uleb128 0xe
 2513 0005 13       		.uleb128 0x13
 2514 0006 0B       		.uleb128 0xb
 2515 0007 03       		.uleb128 0x3
 2516 0008 0E       		.uleb128 0xe
 2517 0009 55       		.uleb128 0x55
 2518 000a 17       		.uleb128 0x17
 2519 000b 11       		.uleb128 0x11
 2520 000c 01       		.uleb128 0x1
 2521 000d 10       		.uleb128 0x10
 2522 000e 17       		.uleb128 0x17
 2523 000f 00       		.byte	0
 2524 0010 00       		.byte	0
 2525 0011 02       		.uleb128 0x2
 2526 0012 24       		.uleb128 0x24
 2527 0013 00       		.byte	0
 2528 0014 0B       		.uleb128 0xb
 2529 0015 0B       		.uleb128 0xb
 2530 0016 3E       		.uleb128 0x3e
 2531 0017 0B       		.uleb128 0xb
 2532 0018 03       		.uleb128 0x3
 2533 0019 08       		.uleb128 0x8
 2534 001a 00       		.byte	0
 2535 001b 00       		.byte	0
 2536 001c 03       		.uleb128 0x3
 2537 001d 16       		.uleb128 0x16
 2538 001e 00       		.byte	0
 2539 001f 03       		.uleb128 0x3
 2540 0020 0E       		.uleb128 0xe
 2541 0021 3A       		.uleb128 0x3a
 2542 0022 0B       		.uleb128 0xb
 2543 0023 3B       		.uleb128 0x3b
 2544 0024 0B       		.uleb128 0xb
 2545 0025 49       		.uleb128 0x49
 2546 0026 13       		.uleb128 0x13
 2547 0027 00       		.byte	0
 2548 0028 00       		.byte	0
 2549 0029 04       		.uleb128 0x4
 2550 002a 24       		.uleb128 0x24
 2551 002b 00       		.byte	0
 2552 002c 0B       		.uleb128 0xb
 2553 002d 0B       		.uleb128 0xb
 2554 002e 3E       		.uleb128 0x3e
 2555 002f 0B       		.uleb128 0xb
 2556 0030 03       		.uleb128 0x3
 2557 0031 0E       		.uleb128 0xe
 2558 0032 00       		.byte	0
 2559 0033 00       		.byte	0
 2560 0034 05       		.uleb128 0x5
 2561 0035 35       		.uleb128 0x35
ARM GAS  /tmp/cct18UAW.s 			page 46


 2562 0036 00       		.byte	0
 2563 0037 49       		.uleb128 0x49
 2564 0038 13       		.uleb128 0x13
 2565 0039 00       		.byte	0
 2566 003a 00       		.byte	0
 2567 003b 06       		.uleb128 0x6
 2568 003c 13       		.uleb128 0x13
 2569 003d 01       		.byte	0x1
 2570 003e 03       		.uleb128 0x3
 2571 003f 0E       		.uleb128 0xe
 2572 0040 0B       		.uleb128 0xb
 2573 0041 0B       		.uleb128 0xb
 2574 0042 3A       		.uleb128 0x3a
 2575 0043 0B       		.uleb128 0xb
 2576 0044 3B       		.uleb128 0x3b
 2577 0045 0B       		.uleb128 0xb
 2578 0046 01       		.uleb128 0x1
 2579 0047 13       		.uleb128 0x13
 2580 0048 00       		.byte	0
 2581 0049 00       		.byte	0
 2582 004a 07       		.uleb128 0x7
 2583 004b 0D       		.uleb128 0xd
 2584 004c 00       		.byte	0
 2585 004d 03       		.uleb128 0x3
 2586 004e 0E       		.uleb128 0xe
 2587 004f 3A       		.uleb128 0x3a
 2588 0050 0B       		.uleb128 0xb
 2589 0051 3B       		.uleb128 0x3b
 2590 0052 0B       		.uleb128 0xb
 2591 0053 49       		.uleb128 0x49
 2592 0054 13       		.uleb128 0x13
 2593 0055 38       		.uleb128 0x38
 2594 0056 0B       		.uleb128 0xb
 2595 0057 00       		.byte	0
 2596 0058 00       		.byte	0
 2597 0059 08       		.uleb128 0x8
 2598 005a 0D       		.uleb128 0xd
 2599 005b 00       		.byte	0
 2600 005c 03       		.uleb128 0x3
 2601 005d 08       		.uleb128 0x8
 2602 005e 3A       		.uleb128 0x3a
 2603 005f 0B       		.uleb128 0xb
 2604 0060 3B       		.uleb128 0x3b
 2605 0061 05       		.uleb128 0x5
 2606 0062 49       		.uleb128 0x49
 2607 0063 13       		.uleb128 0x13
 2608 0064 38       		.uleb128 0x38
 2609 0065 0B       		.uleb128 0xb
 2610 0066 00       		.byte	0
 2611 0067 00       		.byte	0
 2612 0068 09       		.uleb128 0x9
 2613 0069 0D       		.uleb128 0xd
 2614 006a 00       		.byte	0
 2615 006b 03       		.uleb128 0x3
 2616 006c 0E       		.uleb128 0xe
 2617 006d 3A       		.uleb128 0x3a
 2618 006e 0B       		.uleb128 0xb
ARM GAS  /tmp/cct18UAW.s 			page 47


 2619 006f 3B       		.uleb128 0x3b
 2620 0070 05       		.uleb128 0x5
 2621 0071 49       		.uleb128 0x49
 2622 0072 13       		.uleb128 0x13
 2623 0073 38       		.uleb128 0x38
 2624 0074 0B       		.uleb128 0xb
 2625 0075 00       		.byte	0
 2626 0076 00       		.byte	0
 2627 0077 0A       		.uleb128 0xa
 2628 0078 0F       		.uleb128 0xf
 2629 0079 00       		.byte	0
 2630 007a 0B       		.uleb128 0xb
 2631 007b 0B       		.uleb128 0xb
 2632 007c 49       		.uleb128 0x49
 2633 007d 13       		.uleb128 0x13
 2634 007e 00       		.byte	0
 2635 007f 00       		.byte	0
 2636 0080 0B       		.uleb128 0xb
 2637 0081 13       		.uleb128 0x13
 2638 0082 01       		.byte	0x1
 2639 0083 03       		.uleb128 0x3
 2640 0084 0E       		.uleb128 0xe
 2641 0085 0B       		.uleb128 0xb
 2642 0086 0B       		.uleb128 0xb
 2643 0087 3A       		.uleb128 0x3a
 2644 0088 0B       		.uleb128 0xb
 2645 0089 3B       		.uleb128 0x3b
 2646 008a 05       		.uleb128 0x5
 2647 008b 01       		.uleb128 0x1
 2648 008c 13       		.uleb128 0x13
 2649 008d 00       		.byte	0
 2650 008e 00       		.byte	0
 2651 008f 0C       		.uleb128 0xc
 2652 0090 15       		.uleb128 0x15
 2653 0091 01       		.byte	0x1
 2654 0092 27       		.uleb128 0x27
 2655 0093 19       		.uleb128 0x19
 2656 0094 01       		.uleb128 0x1
 2657 0095 13       		.uleb128 0x13
 2658 0096 00       		.byte	0
 2659 0097 00       		.byte	0
 2660 0098 0D       		.uleb128 0xd
 2661 0099 05       		.uleb128 0x5
 2662 009a 00       		.byte	0
 2663 009b 49       		.uleb128 0x49
 2664 009c 13       		.uleb128 0x13
 2665 009d 00       		.byte	0
 2666 009e 00       		.byte	0
 2667 009f 0E       		.uleb128 0xe
 2668 00a0 0F       		.uleb128 0xf
 2669 00a1 00       		.byte	0
 2670 00a2 0B       		.uleb128 0xb
 2671 00a3 0B       		.uleb128 0xb
 2672 00a4 00       		.byte	0
 2673 00a5 00       		.byte	0
 2674 00a6 0F       		.uleb128 0xf
 2675 00a7 13       		.uleb128 0x13
ARM GAS  /tmp/cct18UAW.s 			page 48


 2676 00a8 01       		.byte	0x1
 2677 00a9 03       		.uleb128 0x3
 2678 00aa 0E       		.uleb128 0xe
 2679 00ab 0B       		.uleb128 0xb
 2680 00ac 05       		.uleb128 0x5
 2681 00ad 3A       		.uleb128 0x3a
 2682 00ae 0B       		.uleb128 0xb
 2683 00af 3B       		.uleb128 0x3b
 2684 00b0 05       		.uleb128 0x5
 2685 00b1 01       		.uleb128 0x1
 2686 00b2 13       		.uleb128 0x13
 2687 00b3 00       		.byte	0
 2688 00b4 00       		.byte	0
 2689 00b5 10       		.uleb128 0x10
 2690 00b6 0D       		.uleb128 0xd
 2691 00b7 00       		.byte	0
 2692 00b8 03       		.uleb128 0x3
 2693 00b9 08       		.uleb128 0x8
 2694 00ba 3A       		.uleb128 0x3a
 2695 00bb 0B       		.uleb128 0xb
 2696 00bc 3B       		.uleb128 0x3b
 2697 00bd 0B       		.uleb128 0xb
 2698 00be 49       		.uleb128 0x49
 2699 00bf 13       		.uleb128 0x13
 2700 00c0 38       		.uleb128 0x38
 2701 00c1 0B       		.uleb128 0xb
 2702 00c2 00       		.byte	0
 2703 00c3 00       		.byte	0
 2704 00c4 11       		.uleb128 0x11
 2705 00c5 13       		.uleb128 0x13
 2706 00c6 01       		.byte	0x1
 2707 00c7 0B       		.uleb128 0xb
 2708 00c8 0B       		.uleb128 0xb
 2709 00c9 3A       		.uleb128 0x3a
 2710 00ca 0B       		.uleb128 0xb
 2711 00cb 3B       		.uleb128 0x3b
 2712 00cc 0B       		.uleb128 0xb
 2713 00cd 01       		.uleb128 0x1
 2714 00ce 13       		.uleb128 0x13
 2715 00cf 00       		.byte	0
 2716 00d0 00       		.byte	0
 2717 00d1 12       		.uleb128 0x12
 2718 00d2 17       		.uleb128 0x17
 2719 00d3 01       		.byte	0x1
 2720 00d4 0B       		.uleb128 0xb
 2721 00d5 0B       		.uleb128 0xb
 2722 00d6 3A       		.uleb128 0x3a
 2723 00d7 0B       		.uleb128 0xb
 2724 00d8 3B       		.uleb128 0x3b
 2725 00d9 0B       		.uleb128 0xb
 2726 00da 01       		.uleb128 0x1
 2727 00db 13       		.uleb128 0x13
 2728 00dc 00       		.byte	0
 2729 00dd 00       		.byte	0
 2730 00de 13       		.uleb128 0x13
 2731 00df 0D       		.uleb128 0xd
 2732 00e0 00       		.byte	0
ARM GAS  /tmp/cct18UAW.s 			page 49


 2733 00e1 03       		.uleb128 0x3
 2734 00e2 0E       		.uleb128 0xe
 2735 00e3 3A       		.uleb128 0x3a
 2736 00e4 0B       		.uleb128 0xb
 2737 00e5 3B       		.uleb128 0x3b
 2738 00e6 05       		.uleb128 0x5
 2739 00e7 49       		.uleb128 0x49
 2740 00e8 13       		.uleb128 0x13
 2741 00e9 00       		.byte	0
 2742 00ea 00       		.byte	0
 2743 00eb 14       		.uleb128 0x14
 2744 00ec 26       		.uleb128 0x26
 2745 00ed 00       		.byte	0
 2746 00ee 49       		.uleb128 0x49
 2747 00ef 13       		.uleb128 0x13
 2748 00f0 00       		.byte	0
 2749 00f1 00       		.byte	0
 2750 00f2 15       		.uleb128 0x15
 2751 00f3 01       		.uleb128 0x1
 2752 00f4 01       		.byte	0x1
 2753 00f5 49       		.uleb128 0x49
 2754 00f6 13       		.uleb128 0x13
 2755 00f7 01       		.uleb128 0x1
 2756 00f8 13       		.uleb128 0x13
 2757 00f9 00       		.byte	0
 2758 00fa 00       		.byte	0
 2759 00fb 16       		.uleb128 0x16
 2760 00fc 21       		.uleb128 0x21
 2761 00fd 00       		.byte	0
 2762 00fe 49       		.uleb128 0x49
 2763 00ff 13       		.uleb128 0x13
 2764 0100 2F       		.uleb128 0x2f
 2765 0101 0B       		.uleb128 0xb
 2766 0102 00       		.byte	0
 2767 0103 00       		.byte	0
 2768 0104 17       		.uleb128 0x17
 2769 0105 2E       		.uleb128 0x2e
 2770 0106 01       		.byte	0x1
 2771 0107 03       		.uleb128 0x3
 2772 0108 0E       		.uleb128 0xe
 2773 0109 3A       		.uleb128 0x3a
 2774 010a 0B       		.uleb128 0xb
 2775 010b 3B       		.uleb128 0x3b
 2776 010c 05       		.uleb128 0x5
 2777 010d 27       		.uleb128 0x27
 2778 010e 19       		.uleb128 0x19
 2779 010f 20       		.uleb128 0x20
 2780 0110 0B       		.uleb128 0xb
 2781 0111 01       		.uleb128 0x1
 2782 0112 13       		.uleb128 0x13
 2783 0113 00       		.byte	0
 2784 0114 00       		.byte	0
 2785 0115 18       		.uleb128 0x18
 2786 0116 05       		.uleb128 0x5
 2787 0117 00       		.byte	0
 2788 0118 03       		.uleb128 0x3
 2789 0119 0E       		.uleb128 0xe
ARM GAS  /tmp/cct18UAW.s 			page 50


 2790 011a 3A       		.uleb128 0x3a
 2791 011b 0B       		.uleb128 0xb
 2792 011c 3B       		.uleb128 0x3b
 2793 011d 05       		.uleb128 0x5
 2794 011e 49       		.uleb128 0x49
 2795 011f 13       		.uleb128 0x13
 2796 0120 00       		.byte	0
 2797 0121 00       		.byte	0
 2798 0122 19       		.uleb128 0x19
 2799 0123 2E       		.uleb128 0x2e
 2800 0124 00       		.byte	0
 2801 0125 03       		.uleb128 0x3
 2802 0126 0E       		.uleb128 0xe
 2803 0127 3A       		.uleb128 0x3a
 2804 0128 0B       		.uleb128 0xb
 2805 0129 3B       		.uleb128 0x3b
 2806 012a 05       		.uleb128 0x5
 2807 012b 27       		.uleb128 0x27
 2808 012c 19       		.uleb128 0x19
 2809 012d 20       		.uleb128 0x20
 2810 012e 0B       		.uleb128 0xb
 2811 012f 00       		.byte	0
 2812 0130 00       		.byte	0
 2813 0131 1A       		.uleb128 0x1a
 2814 0132 2E       		.uleb128 0x2e
 2815 0133 01       		.byte	0x1
 2816 0134 03       		.uleb128 0x3
 2817 0135 0E       		.uleb128 0xe
 2818 0136 3A       		.uleb128 0x3a
 2819 0137 0B       		.uleb128 0xb
 2820 0138 3B       		.uleb128 0x3b
 2821 0139 05       		.uleb128 0x5
 2822 013a 27       		.uleb128 0x27
 2823 013b 19       		.uleb128 0x19
 2824 013c 49       		.uleb128 0x49
 2825 013d 13       		.uleb128 0x13
 2826 013e 20       		.uleb128 0x20
 2827 013f 0B       		.uleb128 0xb
 2828 0140 01       		.uleb128 0x1
 2829 0141 13       		.uleb128 0x13
 2830 0142 00       		.byte	0
 2831 0143 00       		.byte	0
 2832 0144 1B       		.uleb128 0x1b
 2833 0145 05       		.uleb128 0x5
 2834 0146 00       		.byte	0
 2835 0147 03       		.uleb128 0x3
 2836 0148 08       		.uleb128 0x8
 2837 0149 3A       		.uleb128 0x3a
 2838 014a 0B       		.uleb128 0xb
 2839 014b 3B       		.uleb128 0x3b
 2840 014c 05       		.uleb128 0x5
 2841 014d 49       		.uleb128 0x49
 2842 014e 13       		.uleb128 0x13
 2843 014f 00       		.byte	0
 2844 0150 00       		.byte	0
 2845 0151 1C       		.uleb128 0x1c
 2846 0152 2E       		.uleb128 0x2e
ARM GAS  /tmp/cct18UAW.s 			page 51


 2847 0153 01       		.byte	0x1
 2848 0154 03       		.uleb128 0x3
 2849 0155 0E       		.uleb128 0xe
 2850 0156 3A       		.uleb128 0x3a
 2851 0157 0B       		.uleb128 0xb
 2852 0158 3B       		.uleb128 0x3b
 2853 0159 0B       		.uleb128 0xb
 2854 015a 27       		.uleb128 0x27
 2855 015b 19       		.uleb128 0x19
 2856 015c 20       		.uleb128 0x20
 2857 015d 0B       		.uleb128 0xb
 2858 015e 01       		.uleb128 0x1
 2859 015f 13       		.uleb128 0x13
 2860 0160 00       		.byte	0
 2861 0161 00       		.byte	0
 2862 0162 1D       		.uleb128 0x1d
 2863 0163 05       		.uleb128 0x5
 2864 0164 00       		.byte	0
 2865 0165 03       		.uleb128 0x3
 2866 0166 08       		.uleb128 0x8
 2867 0167 3A       		.uleb128 0x3a
 2868 0168 0B       		.uleb128 0xb
 2869 0169 3B       		.uleb128 0x3b
 2870 016a 0B       		.uleb128 0xb
 2871 016b 49       		.uleb128 0x49
 2872 016c 13       		.uleb128 0x13
 2873 016d 00       		.byte	0
 2874 016e 00       		.byte	0
 2875 016f 1E       		.uleb128 0x1e
 2876 0170 2E       		.uleb128 0x2e
 2877 0171 01       		.byte	0x1
 2878 0172 3F       		.uleb128 0x3f
 2879 0173 19       		.uleb128 0x19
 2880 0174 03       		.uleb128 0x3
 2881 0175 0E       		.uleb128 0xe
 2882 0176 3A       		.uleb128 0x3a
 2883 0177 0B       		.uleb128 0xb
 2884 0178 3B       		.uleb128 0x3b
 2885 0179 0B       		.uleb128 0xb
 2886 017a 27       		.uleb128 0x27
 2887 017b 19       		.uleb128 0x19
 2888 017c 49       		.uleb128 0x49
 2889 017d 13       		.uleb128 0x13
 2890 017e 20       		.uleb128 0x20
 2891 017f 0B       		.uleb128 0xb
 2892 0180 01       		.uleb128 0x1
 2893 0181 13       		.uleb128 0x13
 2894 0182 00       		.byte	0
 2895 0183 00       		.byte	0
 2896 0184 1F       		.uleb128 0x1f
 2897 0185 34       		.uleb128 0x34
 2898 0186 00       		.byte	0
 2899 0187 03       		.uleb128 0x3
 2900 0188 08       		.uleb128 0x8
 2901 0189 3A       		.uleb128 0x3a
 2902 018a 0B       		.uleb128 0xb
 2903 018b 3B       		.uleb128 0x3b
ARM GAS  /tmp/cct18UAW.s 			page 52


 2904 018c 0B       		.uleb128 0xb
 2905 018d 49       		.uleb128 0x49
 2906 018e 13       		.uleb128 0x13
 2907 018f 00       		.byte	0
 2908 0190 00       		.byte	0
 2909 0191 20       		.uleb128 0x20
 2910 0192 34       		.uleb128 0x34
 2911 0193 00       		.byte	0
 2912 0194 03       		.uleb128 0x3
 2913 0195 0E       		.uleb128 0xe
 2914 0196 49       		.uleb128 0x49
 2915 0197 13       		.uleb128 0x13
 2916 0198 34       		.uleb128 0x34
 2917 0199 19       		.uleb128 0x19
 2918 019a 1C       		.uleb128 0x1c
 2919 019b 0E       		.uleb128 0xe
 2920 019c 00       		.byte	0
 2921 019d 00       		.byte	0
 2922 019e 21       		.uleb128 0x21
 2923 019f 34       		.uleb128 0x34
 2924 01a0 00       		.byte	0
 2925 01a1 03       		.uleb128 0x3
 2926 01a2 08       		.uleb128 0x8
 2927 01a3 3A       		.uleb128 0x3a
 2928 01a4 0B       		.uleb128 0xb
 2929 01a5 3B       		.uleb128 0x3b
 2930 01a6 05       		.uleb128 0x5
 2931 01a7 49       		.uleb128 0x49
 2932 01a8 13       		.uleb128 0x13
 2933 01a9 00       		.byte	0
 2934 01aa 00       		.byte	0
 2935 01ab 22       		.uleb128 0x22
 2936 01ac 2E       		.uleb128 0x2e
 2937 01ad 00       		.byte	0
 2938 01ae 03       		.uleb128 0x3
 2939 01af 0E       		.uleb128 0xe
 2940 01b0 3A       		.uleb128 0x3a
 2941 01b1 0B       		.uleb128 0xb
 2942 01b2 3B       		.uleb128 0x3b
 2943 01b3 05       		.uleb128 0x5
 2944 01b4 27       		.uleb128 0x27
 2945 01b5 19       		.uleb128 0x19
 2946 01b6 49       		.uleb128 0x49
 2947 01b7 13       		.uleb128 0x13
 2948 01b8 20       		.uleb128 0x20
 2949 01b9 0B       		.uleb128 0xb
 2950 01ba 00       		.byte	0
 2951 01bb 00       		.byte	0
 2952 01bc 23       		.uleb128 0x23
 2953 01bd 2E       		.uleb128 0x2e
 2954 01be 01       		.byte	0x1
 2955 01bf 31       		.uleb128 0x31
 2956 01c0 13       		.uleb128 0x13
 2957 01c1 11       		.uleb128 0x11
 2958 01c2 01       		.uleb128 0x1
 2959 01c3 12       		.uleb128 0x12
 2960 01c4 06       		.uleb128 0x6
ARM GAS  /tmp/cct18UAW.s 			page 53


 2961 01c5 40       		.uleb128 0x40
 2962 01c6 18       		.uleb128 0x18
 2963 01c7 9742     		.uleb128 0x2117
 2964 01c9 19       		.uleb128 0x19
 2965 01ca 01       		.uleb128 0x1
 2966 01cb 13       		.uleb128 0x13
 2967 01cc 00       		.byte	0
 2968 01cd 00       		.byte	0
 2969 01ce 24       		.uleb128 0x24
 2970 01cf 05       		.uleb128 0x5
 2971 01d0 00       		.byte	0
 2972 01d1 31       		.uleb128 0x31
 2973 01d2 13       		.uleb128 0x13
 2974 01d3 02       		.uleb128 0x2
 2975 01d4 18       		.uleb128 0x18
 2976 01d5 00       		.byte	0
 2977 01d6 00       		.byte	0
 2978 01d7 25       		.uleb128 0x25
 2979 01d8 34       		.uleb128 0x34
 2980 01d9 00       		.byte	0
 2981 01da 31       		.uleb128 0x31
 2982 01db 13       		.uleb128 0x13
 2983 01dc 02       		.uleb128 0x2
 2984 01dd 18       		.uleb128 0x18
 2985 01de 00       		.byte	0
 2986 01df 00       		.byte	0
 2987 01e0 26       		.uleb128 0x26
 2988 01e1 1D       		.uleb128 0x1d
 2989 01e2 01       		.byte	0x1
 2990 01e3 31       		.uleb128 0x31
 2991 01e4 13       		.uleb128 0x13
 2992 01e5 11       		.uleb128 0x11
 2993 01e6 01       		.uleb128 0x1
 2994 01e7 12       		.uleb128 0x12
 2995 01e8 06       		.uleb128 0x6
 2996 01e9 58       		.uleb128 0x58
 2997 01ea 0B       		.uleb128 0xb
 2998 01eb 59       		.uleb128 0x59
 2999 01ec 05       		.uleb128 0x5
 3000 01ed 01       		.uleb128 0x1
 3001 01ee 13       		.uleb128 0x13
 3002 01ef 00       		.byte	0
 3003 01f0 00       		.byte	0
 3004 01f1 27       		.uleb128 0x27
 3005 01f2 1D       		.uleb128 0x1d
 3006 01f3 01       		.byte	0x1
 3007 01f4 31       		.uleb128 0x31
 3008 01f5 13       		.uleb128 0x13
 3009 01f6 11       		.uleb128 0x11
 3010 01f7 01       		.uleb128 0x1
 3011 01f8 12       		.uleb128 0x12
 3012 01f9 06       		.uleb128 0x6
 3013 01fa 58       		.uleb128 0x58
 3014 01fb 0B       		.uleb128 0xb
 3015 01fc 59       		.uleb128 0x59
 3016 01fd 05       		.uleb128 0x5
 3017 01fe 00       		.byte	0
ARM GAS  /tmp/cct18UAW.s 			page 54


 3018 01ff 00       		.byte	0
 3019 0200 28       		.uleb128 0x28
 3020 0201 05       		.uleb128 0x5
 3021 0202 00       		.byte	0
 3022 0203 31       		.uleb128 0x31
 3023 0204 13       		.uleb128 0x13
 3024 0205 02       		.uleb128 0x2
 3025 0206 17       		.uleb128 0x17
 3026 0207 00       		.byte	0
 3027 0208 00       		.byte	0
 3028 0209 29       		.uleb128 0x29
 3029 020a 1D       		.uleb128 0x1d
 3030 020b 01       		.byte	0x1
 3031 020c 31       		.uleb128 0x31
 3032 020d 13       		.uleb128 0x13
 3033 020e 52       		.uleb128 0x52
 3034 020f 01       		.uleb128 0x1
 3035 0210 55       		.uleb128 0x55
 3036 0211 17       		.uleb128 0x17
 3037 0212 58       		.uleb128 0x58
 3038 0213 0B       		.uleb128 0xb
 3039 0214 59       		.uleb128 0x59
 3040 0215 05       		.uleb128 0x5
 3041 0216 01       		.uleb128 0x1
 3042 0217 13       		.uleb128 0x13
 3043 0218 00       		.byte	0
 3044 0219 00       		.byte	0
 3045 021a 2A       		.uleb128 0x2a
 3046 021b 0B       		.uleb128 0xb
 3047 021c 01       		.byte	0x1
 3048 021d 55       		.uleb128 0x55
 3049 021e 17       		.uleb128 0x17
 3050 021f 00       		.byte	0
 3051 0220 00       		.byte	0
 3052 0221 2B       		.uleb128 0x2b
 3053 0222 34       		.uleb128 0x34
 3054 0223 00       		.byte	0
 3055 0224 31       		.uleb128 0x31
 3056 0225 13       		.uleb128 0x13
 3057 0226 02       		.uleb128 0x2
 3058 0227 17       		.uleb128 0x17
 3059 0228 00       		.byte	0
 3060 0229 00       		.byte	0
 3061 022a 2C       		.uleb128 0x2c
 3062 022b 34       		.uleb128 0x34
 3063 022c 00       		.byte	0
 3064 022d 31       		.uleb128 0x31
 3065 022e 13       		.uleb128 0x13
 3066 022f 00       		.byte	0
 3067 0230 00       		.byte	0
 3068 0231 2D       		.uleb128 0x2d
 3069 0232 0B       		.uleb128 0xb
 3070 0233 01       		.byte	0x1
 3071 0234 55       		.uleb128 0x55
 3072 0235 17       		.uleb128 0x17
 3073 0236 01       		.uleb128 0x1
 3074 0237 13       		.uleb128 0x13
ARM GAS  /tmp/cct18UAW.s 			page 55


 3075 0238 00       		.byte	0
 3076 0239 00       		.byte	0
 3077 023a 2E       		.uleb128 0x2e
 3078 023b 05       		.uleb128 0x5
 3079 023c 00       		.byte	0
 3080 023d 31       		.uleb128 0x31
 3081 023e 13       		.uleb128 0x13
 3082 023f 00       		.byte	0
 3083 0240 00       		.byte	0
 3084 0241 2F       		.uleb128 0x2f
 3085 0242 1D       		.uleb128 0x1d
 3086 0243 01       		.byte	0x1
 3087 0244 31       		.uleb128 0x31
 3088 0245 13       		.uleb128 0x13
 3089 0246 52       		.uleb128 0x52
 3090 0247 01       		.uleb128 0x1
 3091 0248 55       		.uleb128 0x55
 3092 0249 17       		.uleb128 0x17
 3093 024a 58       		.uleb128 0x58
 3094 024b 0B       		.uleb128 0xb
 3095 024c 59       		.uleb128 0x59
 3096 024d 05       		.uleb128 0x5
 3097 024e 00       		.byte	0
 3098 024f 00       		.byte	0
 3099 0250 30       		.uleb128 0x30
 3100 0251 2E       		.uleb128 0x2e
 3101 0252 01       		.byte	0x1
 3102 0253 3F       		.uleb128 0x3f
 3103 0254 19       		.uleb128 0x19
 3104 0255 03       		.uleb128 0x3
 3105 0256 0E       		.uleb128 0xe
 3106 0257 3A       		.uleb128 0x3a
 3107 0258 0B       		.uleb128 0xb
 3108 0259 3B       		.uleb128 0x3b
 3109 025a 0B       		.uleb128 0xb
 3110 025b 27       		.uleb128 0x27
 3111 025c 19       		.uleb128 0x19
 3112 025d 11       		.uleb128 0x11
 3113 025e 01       		.uleb128 0x1
 3114 025f 12       		.uleb128 0x12
 3115 0260 06       		.uleb128 0x6
 3116 0261 40       		.uleb128 0x40
 3117 0262 18       		.uleb128 0x18
 3118 0263 9742     		.uleb128 0x2117
 3119 0265 19       		.uleb128 0x19
 3120 0266 01       		.uleb128 0x1
 3121 0267 13       		.uleb128 0x13
 3122 0268 00       		.byte	0
 3123 0269 00       		.byte	0
 3124 026a 31       		.uleb128 0x31
 3125 026b 1D       		.uleb128 0x1d
 3126 026c 01       		.byte	0x1
 3127 026d 31       		.uleb128 0x31
 3128 026e 13       		.uleb128 0x13
 3129 026f 52       		.uleb128 0x52
 3130 0270 01       		.uleb128 0x1
 3131 0271 55       		.uleb128 0x55
ARM GAS  /tmp/cct18UAW.s 			page 56


 3132 0272 17       		.uleb128 0x17
 3133 0273 58       		.uleb128 0x58
 3134 0274 0B       		.uleb128 0xb
 3135 0275 59       		.uleb128 0x59
 3136 0276 0B       		.uleb128 0xb
 3137 0277 00       		.byte	0
 3138 0278 00       		.byte	0
 3139 0279 32       		.uleb128 0x32
 3140 027a 05       		.uleb128 0x5
 3141 027b 00       		.byte	0
 3142 027c 03       		.uleb128 0x3
 3143 027d 0E       		.uleb128 0xe
 3144 027e 3A       		.uleb128 0x3a
 3145 027f 0B       		.uleb128 0xb
 3146 0280 3B       		.uleb128 0x3b
 3147 0281 0B       		.uleb128 0xb
 3148 0282 49       		.uleb128 0x49
 3149 0283 13       		.uleb128 0x13
 3150 0284 02       		.uleb128 0x2
 3151 0285 17       		.uleb128 0x17
 3152 0286 00       		.byte	0
 3153 0287 00       		.byte	0
 3154 0288 33       		.uleb128 0x33
 3155 0289 34       		.uleb128 0x34
 3156 028a 00       		.byte	0
 3157 028b 03       		.uleb128 0x3
 3158 028c 08       		.uleb128 0x8
 3159 028d 3A       		.uleb128 0x3a
 3160 028e 0B       		.uleb128 0xb
 3161 028f 3B       		.uleb128 0x3b
 3162 0290 0B       		.uleb128 0xb
 3163 0291 49       		.uleb128 0x49
 3164 0292 13       		.uleb128 0x13
 3165 0293 02       		.uleb128 0x2
 3166 0294 17       		.uleb128 0x17
 3167 0295 00       		.byte	0
 3168 0296 00       		.byte	0
 3169 0297 34       		.uleb128 0x34
 3170 0298 898201   		.uleb128 0x4109
 3171 029b 00       		.byte	0
 3172 029c 11       		.uleb128 0x11
 3173 029d 01       		.uleb128 0x1
 3174 029e 9542     		.uleb128 0x2115
 3175 02a0 19       		.uleb128 0x19
 3176 02a1 31       		.uleb128 0x31
 3177 02a2 13       		.uleb128 0x13
 3178 02a3 00       		.byte	0
 3179 02a4 00       		.byte	0
 3180 02a5 35       		.uleb128 0x35
 3181 02a6 2E       		.uleb128 0x2e
 3182 02a7 01       		.byte	0x1
 3183 02a8 3F       		.uleb128 0x3f
 3184 02a9 19       		.uleb128 0x19
 3185 02aa 03       		.uleb128 0x3
 3186 02ab 0E       		.uleb128 0xe
 3187 02ac 3A       		.uleb128 0x3a
 3188 02ad 0B       		.uleb128 0xb
ARM GAS  /tmp/cct18UAW.s 			page 57


 3189 02ae 3B       		.uleb128 0x3b
 3190 02af 05       		.uleb128 0x5
 3191 02b0 27       		.uleb128 0x27
 3192 02b1 19       		.uleb128 0x19
 3193 02b2 49       		.uleb128 0x49
 3194 02b3 13       		.uleb128 0x13
 3195 02b4 11       		.uleb128 0x11
 3196 02b5 01       		.uleb128 0x1
 3197 02b6 12       		.uleb128 0x12
 3198 02b7 06       		.uleb128 0x6
 3199 02b8 40       		.uleb128 0x40
 3200 02b9 18       		.uleb128 0x18
 3201 02ba 9742     		.uleb128 0x2117
 3202 02bc 19       		.uleb128 0x19
 3203 02bd 01       		.uleb128 0x1
 3204 02be 13       		.uleb128 0x13
 3205 02bf 00       		.byte	0
 3206 02c0 00       		.byte	0
 3207 02c1 36       		.uleb128 0x36
 3208 02c2 05       		.uleb128 0x5
 3209 02c3 00       		.byte	0
 3210 02c4 03       		.uleb128 0x3
 3211 02c5 0E       		.uleb128 0xe
 3212 02c6 3A       		.uleb128 0x3a
 3213 02c7 0B       		.uleb128 0xb
 3214 02c8 3B       		.uleb128 0x3b
 3215 02c9 05       		.uleb128 0x5
 3216 02ca 49       		.uleb128 0x49
 3217 02cb 13       		.uleb128 0x13
 3218 02cc 02       		.uleb128 0x2
 3219 02cd 17       		.uleb128 0x17
 3220 02ce 00       		.byte	0
 3221 02cf 00       		.byte	0
 3222 02d0 37       		.uleb128 0x37
 3223 02d1 0B       		.uleb128 0xb
 3224 02d2 01       		.byte	0x1
 3225 02d3 11       		.uleb128 0x11
 3226 02d4 01       		.uleb128 0x1
 3227 02d5 12       		.uleb128 0x12
 3228 02d6 06       		.uleb128 0x6
 3229 02d7 01       		.uleb128 0x1
 3230 02d8 13       		.uleb128 0x13
 3231 02d9 00       		.byte	0
 3232 02da 00       		.byte	0
 3233 02db 38       		.uleb128 0x38
 3234 02dc 34       		.uleb128 0x34
 3235 02dd 00       		.byte	0
 3236 02de 03       		.uleb128 0x3
 3237 02df 08       		.uleb128 0x8
 3238 02e0 3A       		.uleb128 0x3a
 3239 02e1 0B       		.uleb128 0xb
 3240 02e2 3B       		.uleb128 0x3b
 3241 02e3 05       		.uleb128 0x5
 3242 02e4 49       		.uleb128 0x49
 3243 02e5 13       		.uleb128 0x13
 3244 02e6 02       		.uleb128 0x2
 3245 02e7 18       		.uleb128 0x18
ARM GAS  /tmp/cct18UAW.s 			page 58


 3246 02e8 00       		.byte	0
 3247 02e9 00       		.byte	0
 3248 02ea 39       		.uleb128 0x39
 3249 02eb 898201   		.uleb128 0x4109
 3250 02ee 01       		.byte	0x1
 3251 02ef 11       		.uleb128 0x11
 3252 02f0 01       		.uleb128 0x1
 3253 02f1 31       		.uleb128 0x31
 3254 02f2 13       		.uleb128 0x13
 3255 02f3 01       		.uleb128 0x1
 3256 02f4 13       		.uleb128 0x13
 3257 02f5 00       		.byte	0
 3258 02f6 00       		.byte	0
 3259 02f7 3A       		.uleb128 0x3a
 3260 02f8 8A8201   		.uleb128 0x410a
 3261 02fb 00       		.byte	0
 3262 02fc 02       		.uleb128 0x2
 3263 02fd 18       		.uleb128 0x18
 3264 02fe 9142     		.uleb128 0x2111
 3265 0300 18       		.uleb128 0x18
 3266 0301 00       		.byte	0
 3267 0302 00       		.byte	0
 3268 0303 3B       		.uleb128 0x3b
 3269 0304 898201   		.uleb128 0x4109
 3270 0307 01       		.byte	0x1
 3271 0308 11       		.uleb128 0x11
 3272 0309 01       		.uleb128 0x1
 3273 030a 31       		.uleb128 0x31
 3274 030b 13       		.uleb128 0x13
 3275 030c 00       		.byte	0
 3276 030d 00       		.byte	0
 3277 030e 3C       		.uleb128 0x3c
 3278 030f 898201   		.uleb128 0x4109
 3279 0312 00       		.byte	0
 3280 0313 11       		.uleb128 0x11
 3281 0314 01       		.uleb128 0x1
 3282 0315 31       		.uleb128 0x31
 3283 0316 13       		.uleb128 0x13
 3284 0317 00       		.byte	0
 3285 0318 00       		.byte	0
 3286 0319 3D       		.uleb128 0x3d
 3287 031a 2E       		.uleb128 0x2e
 3288 031b 01       		.byte	0x1
 3289 031c 3F       		.uleb128 0x3f
 3290 031d 19       		.uleb128 0x19
 3291 031e 03       		.uleb128 0x3
 3292 031f 0E       		.uleb128 0xe
 3293 0320 3A       		.uleb128 0x3a
 3294 0321 0B       		.uleb128 0xb
 3295 0322 3B       		.uleb128 0x3b
 3296 0323 05       		.uleb128 0x5
 3297 0324 27       		.uleb128 0x27
 3298 0325 19       		.uleb128 0x19
 3299 0326 11       		.uleb128 0x11
 3300 0327 01       		.uleb128 0x1
 3301 0328 12       		.uleb128 0x12
 3302 0329 06       		.uleb128 0x6
ARM GAS  /tmp/cct18UAW.s 			page 59


 3303 032a 40       		.uleb128 0x40
 3304 032b 18       		.uleb128 0x18
 3305 032c 9742     		.uleb128 0x2117
 3306 032e 19       		.uleb128 0x19
 3307 032f 01       		.uleb128 0x1
 3308 0330 13       		.uleb128 0x13
 3309 0331 00       		.byte	0
 3310 0332 00       		.byte	0
 3311 0333 3E       		.uleb128 0x3e
 3312 0334 05       		.uleb128 0x5
 3313 0335 00       		.byte	0
 3314 0336 03       		.uleb128 0x3
 3315 0337 08       		.uleb128 0x8
 3316 0338 3A       		.uleb128 0x3a
 3317 0339 0B       		.uleb128 0xb
 3318 033a 3B       		.uleb128 0x3b
 3319 033b 05       		.uleb128 0x5
 3320 033c 49       		.uleb128 0x49
 3321 033d 13       		.uleb128 0x13
 3322 033e 02       		.uleb128 0x2
 3323 033f 17       		.uleb128 0x17
 3324 0340 00       		.byte	0
 3325 0341 00       		.byte	0
 3326 0342 3F       		.uleb128 0x3f
 3327 0343 898201   		.uleb128 0x4109
 3328 0346 01       		.byte	0x1
 3329 0347 11       		.uleb128 0x11
 3330 0348 01       		.uleb128 0x1
 3331 0349 9542     		.uleb128 0x2115
 3332 034b 19       		.uleb128 0x19
 3333 034c 31       		.uleb128 0x31
 3334 034d 13       		.uleb128 0x13
 3335 034e 00       		.byte	0
 3336 034f 00       		.byte	0
 3337 0350 40       		.uleb128 0x40
 3338 0351 34       		.uleb128 0x34
 3339 0352 00       		.byte	0
 3340 0353 03       		.uleb128 0x3
 3341 0354 08       		.uleb128 0x8
 3342 0355 3A       		.uleb128 0x3a
 3343 0356 0B       		.uleb128 0xb
 3344 0357 3B       		.uleb128 0x3b
 3345 0358 05       		.uleb128 0x5
 3346 0359 49       		.uleb128 0x49
 3347 035a 13       		.uleb128 0x13
 3348 035b 02       		.uleb128 0x2
 3349 035c 17       		.uleb128 0x17
 3350 035d 00       		.byte	0
 3351 035e 00       		.byte	0
 3352 035f 41       		.uleb128 0x41
 3353 0360 1D       		.uleb128 0x1d
 3354 0361 00       		.byte	0
 3355 0362 31       		.uleb128 0x31
 3356 0363 13       		.uleb128 0x13
 3357 0364 11       		.uleb128 0x11
 3358 0365 01       		.uleb128 0x1
 3359 0366 12       		.uleb128 0x12
ARM GAS  /tmp/cct18UAW.s 			page 60


 3360 0367 06       		.uleb128 0x6
 3361 0368 58       		.uleb128 0x58
 3362 0369 0B       		.uleb128 0xb
 3363 036a 59       		.uleb128 0x59
 3364 036b 05       		.uleb128 0x5
 3365 036c 00       		.byte	0
 3366 036d 00       		.byte	0
 3367 036e 42       		.uleb128 0x42
 3368 036f 34       		.uleb128 0x34
 3369 0370 00       		.byte	0
 3370 0371 03       		.uleb128 0x3
 3371 0372 0E       		.uleb128 0xe
 3372 0373 3A       		.uleb128 0x3a
 3373 0374 0B       		.uleb128 0xb
 3374 0375 3B       		.uleb128 0x3b
 3375 0376 05       		.uleb128 0x5
 3376 0377 49       		.uleb128 0x49
 3377 0378 13       		.uleb128 0x13
 3378 0379 3F       		.uleb128 0x3f
 3379 037a 19       		.uleb128 0x19
 3380 037b 3C       		.uleb128 0x3c
 3381 037c 19       		.uleb128 0x19
 3382 037d 00       		.byte	0
 3383 037e 00       		.byte	0
 3384 037f 43       		.uleb128 0x43
 3385 0380 34       		.uleb128 0x34
 3386 0381 00       		.byte	0
 3387 0382 03       		.uleb128 0x3
 3388 0383 08       		.uleb128 0x8
 3389 0384 3A       		.uleb128 0x3a
 3390 0385 0B       		.uleb128 0xb
 3391 0386 3B       		.uleb128 0x3b
 3392 0387 0B       		.uleb128 0xb
 3393 0388 49       		.uleb128 0x49
 3394 0389 13       		.uleb128 0x13
 3395 038a 3F       		.uleb128 0x3f
 3396 038b 19       		.uleb128 0x19
 3397 038c 02       		.uleb128 0x2
 3398 038d 18       		.uleb128 0x18
 3399 038e 00       		.byte	0
 3400 038f 00       		.byte	0
 3401 0390 44       		.uleb128 0x44
 3402 0391 2E       		.uleb128 0x2e
 3403 0392 00       		.byte	0
 3404 0393 3F       		.uleb128 0x3f
 3405 0394 19       		.uleb128 0x19
 3406 0395 3C       		.uleb128 0x3c
 3407 0396 19       		.uleb128 0x19
 3408 0397 6E       		.uleb128 0x6e
 3409 0398 0E       		.uleb128 0xe
 3410 0399 03       		.uleb128 0x3
 3411 039a 0E       		.uleb128 0xe
 3412 039b 3A       		.uleb128 0x3a
 3413 039c 0B       		.uleb128 0xb
 3414 039d 3B       		.uleb128 0x3b
 3415 039e 05       		.uleb128 0x5
 3416 039f 00       		.byte	0
ARM GAS  /tmp/cct18UAW.s 			page 61


 3417 03a0 00       		.byte	0
 3418 03a1 45       		.uleb128 0x45
 3419 03a2 2E       		.uleb128 0x2e
 3420 03a3 00       		.byte	0
 3421 03a4 3F       		.uleb128 0x3f
 3422 03a5 19       		.uleb128 0x19
 3423 03a6 3C       		.uleb128 0x3c
 3424 03a7 19       		.uleb128 0x19
 3425 03a8 6E       		.uleb128 0x6e
 3426 03a9 0E       		.uleb128 0xe
 3427 03aa 03       		.uleb128 0x3
 3428 03ab 0E       		.uleb128 0xe
 3429 03ac 3A       		.uleb128 0x3a
 3430 03ad 0B       		.uleb128 0xb
 3431 03ae 3B       		.uleb128 0x3b
 3432 03af 0B       		.uleb128 0xb
 3433 03b0 00       		.byte	0
 3434 03b1 00       		.byte	0
 3435 03b2 00       		.byte	0
 3436              		.section	.debug_loc,"",%progbits
 3437              	.Ldebug_loc0:
 3438              	.LLST0:
 3439 0000 00000000 		.4byte	.LVL0
 3440 0004 08000000 		.4byte	.LVL1
 3441 0008 0300     		.2byte	0x3
 3442 000a 08       		.byte	0x8
 3443 000b 20       		.byte	0x20
 3444 000c 9F       		.byte	0x9f
 3445 000d 00000000 		.4byte	0
 3446 0011 00000000 		.4byte	0
 3447              	.LLST1:
 3448 0015 1C000000 		.4byte	.LVL2
 3449 0019 22000000 		.4byte	.LVL3
 3450 001d 0100     		.2byte	0x1
 3451 001f 52       		.byte	0x52
 3452 0020 00000000 		.4byte	0
 3453 0024 00000000 		.4byte	0
 3454              	.LLST2:
 3455 0028 22000000 		.4byte	.LVL3
 3456 002c 2C000000 		.4byte	.LVL4
 3457 0030 0100     		.2byte	0x1
 3458 0032 50       		.byte	0x50
 3459 0033 00000000 		.4byte	0
 3460 0037 00000000 		.4byte	0
 3461              	.LLST3:
 3462 003b 38000000 		.4byte	.LVL5
 3463 003f 56000000 		.4byte	.LVL10
 3464 0043 0100     		.2byte	0x1
 3465 0045 50       		.byte	0x50
 3466 0046 00000000 		.4byte	0
 3467 004a 00000000 		.4byte	0
 3468              	.LLST4:
 3469 004e 3A000000 		.4byte	.LVL6
 3470 0052 56000000 		.4byte	.LVL10
 3471 0056 0600     		.2byte	0x6
 3472 0058 03       		.byte	0x3
 3473 0059 00000000 		.4byte	ch
ARM GAS  /tmp/cct18UAW.s 			page 62


 3474 005d 9F       		.byte	0x9f
 3475 005e 00000000 		.4byte	0
 3476 0062 00000000 		.4byte	0
 3477              	.LLST5:
 3478 0066 3A000000 		.4byte	.LVL6
 3479 006a 56000000 		.4byte	.LVL10
 3480 006e 0100     		.2byte	0x1
 3481 0070 50       		.byte	0x50
 3482 0071 00000000 		.4byte	0
 3483 0075 00000000 		.4byte	0
 3484              	.LLST6:
 3485 0079 3A000000 		.4byte	.LVL6
 3486 007d 4E000000 		.4byte	.LVL8
 3487 0081 0100     		.2byte	0x1
 3488 0083 53       		.byte	0x53
 3489 0084 00000000 		.4byte	0
 3490 0088 00000000 		.4byte	0
 3491              	.LLST7:
 3492 008c 4E000000 		.4byte	.LVL8
 3493 0090 52000000 		.4byte	.LVL9
 3494 0094 0200     		.2byte	0x2
 3495 0096 30       		.byte	0x30
 3496 0097 9F       		.byte	0x9f
 3497 0098 00000000 		.4byte	0
 3498 009c 00000000 		.4byte	0
 3499              	.LLST8:
 3500 00a0 5E000000 		.4byte	.LVL11
 3501 00a4 64000000 		.4byte	.LVL12
 3502 00a8 0200     		.2byte	0x2
 3503 00aa 30       		.byte	0x30
 3504 00ab 9F       		.byte	0x9f
 3505 00ac 00000000 		.4byte	0
 3506 00b0 00000000 		.4byte	0
 3507              	.LLST9:
 3508 00b4 00000000 		.4byte	.LVL13
 3509 00b8 08000000 		.4byte	.LVL14
 3510 00bc 0600     		.2byte	0x6
 3511 00be 03       		.byte	0x3
 3512 00bf 00000000 		.4byte	ch
 3513 00c3 9F       		.byte	0x9f
 3514 00c4 00000000 		.4byte	0
 3515 00c8 00000000 		.4byte	0
 3516              	.LLST10:
 3517 00cc 00000000 		.4byte	.LVL15
 3518 00d0 1C000000 		.4byte	.LVL18
 3519 00d4 0100     		.2byte	0x1
 3520 00d6 50       		.byte	0x50
 3521 00d7 1C000000 		.4byte	.LVL18
 3522 00db 22000000 		.4byte	.LVL19
 3523 00df 0100     		.2byte	0x1
 3524 00e1 54       		.byte	0x54
 3525 00e2 22000000 		.4byte	.LVL19
 3526 00e6 28000000 		.4byte	.LFE228
 3527 00ea 0100     		.2byte	0x1
 3528 00ec 50       		.byte	0x50
 3529 00ed 00000000 		.4byte	0
 3530 00f1 00000000 		.4byte	0
ARM GAS  /tmp/cct18UAW.s 			page 63


 3531              	.LLST11:
 3532 00f5 00000000 		.4byte	.LVL20
 3533 00f9 0C000000 		.4byte	.LVL23
 3534 00fd 0100     		.2byte	0x1
 3535 00ff 50       		.byte	0x50
 3536 0100 0C000000 		.4byte	.LVL23
 3537 0104 12000000 		.4byte	.LVL24
 3538 0108 0200     		.2byte	0x2
 3539 010a 71       		.byte	0x71
 3540 010b 1C       		.sleb128 28
 3541 010c 12000000 		.4byte	.LVL24
 3542 0110 24000000 		.4byte	.LFE229
 3543 0114 0400     		.2byte	0x4
 3544 0116 F3       		.byte	0xf3
 3545 0117 01       		.uleb128 0x1
 3546 0118 50       		.byte	0x50
 3547 0119 9F       		.byte	0x9f
 3548 011a 00000000 		.4byte	0
 3549 011e 00000000 		.4byte	0
 3550              	.LLST12:
 3551 0122 04000000 		.4byte	.LVL21
 3552 0126 1D000000 		.4byte	.LVL25-1
 3553 012a 0100     		.2byte	0x1
 3554 012c 51       		.byte	0x51
 3555 012d 00000000 		.4byte	0
 3556 0131 00000000 		.4byte	0
 3557              	.LLST13:
 3558 0135 0A000000 		.4byte	.LVL22
 3559 0139 12000000 		.4byte	.LVL24
 3560 013d 0600     		.2byte	0x6
 3561 013f 03       		.byte	0x3
 3562 0140 00000000 		.4byte	ch
 3563 0144 9F       		.byte	0x9f
 3564 0145 00000000 		.4byte	0
 3565 0149 00000000 		.4byte	0
 3566              	.LLST14:
 3567 014d 0A000000 		.4byte	.LVL22
 3568 0151 12000000 		.4byte	.LVL24
 3569 0155 0100     		.2byte	0x1
 3570 0157 52       		.byte	0x52
 3571 0158 00000000 		.4byte	0
 3572 015c 00000000 		.4byte	0
 3573              	.LLST15:
 3574 0160 00000000 		.4byte	.LVL26
 3575 0164 12000000 		.4byte	.LVL27
 3576 0168 0100     		.2byte	0x1
 3577 016a 50       		.byte	0x50
 3578 016b 12000000 		.4byte	.LVL27
 3579 016f 2E000000 		.4byte	.LVL32
 3580 0173 0400     		.2byte	0x4
 3581 0175 F3       		.byte	0xf3
 3582 0176 01       		.uleb128 0x1
 3583 0177 50       		.byte	0x50
 3584 0178 9F       		.byte	0x9f
 3585 0179 2E000000 		.4byte	.LVL32
 3586 017d 33000000 		.4byte	.LVL33-1
 3587 0181 0100     		.2byte	0x1
ARM GAS  /tmp/cct18UAW.s 			page 64


 3588 0183 50       		.byte	0x50
 3589 0184 33000000 		.4byte	.LVL33-1
 3590 0188 44000000 		.4byte	.LFE231
 3591 018c 0400     		.2byte	0x4
 3592 018e F3       		.byte	0xf3
 3593 018f 01       		.uleb128 0x1
 3594 0190 50       		.byte	0x50
 3595 0191 9F       		.byte	0x9f
 3596 0192 00000000 		.4byte	0
 3597 0196 00000000 		.4byte	0
 3598              	.LLST16:
 3599 019a 00000000 		.4byte	.LVL26
 3600 019e 15000000 		.4byte	.LVL28-1
 3601 01a2 0100     		.2byte	0x1
 3602 01a4 51       		.byte	0x51
 3603 01a5 15000000 		.4byte	.LVL28-1
 3604 01a9 2E000000 		.4byte	.LVL32
 3605 01ad 0400     		.2byte	0x4
 3606 01af F3       		.byte	0xf3
 3607 01b0 01       		.uleb128 0x1
 3608 01b1 51       		.byte	0x51
 3609 01b2 9F       		.byte	0x9f
 3610 01b3 2E000000 		.4byte	.LVL32
 3611 01b7 33000000 		.4byte	.LVL33-1
 3612 01bb 0100     		.2byte	0x1
 3613 01bd 51       		.byte	0x51
 3614 01be 33000000 		.4byte	.LVL33-1
 3615 01c2 44000000 		.4byte	.LFE231
 3616 01c6 0400     		.2byte	0x4
 3617 01c8 F3       		.byte	0xf3
 3618 01c9 01       		.uleb128 0x1
 3619 01ca 51       		.byte	0x51
 3620 01cb 9F       		.byte	0x9f
 3621 01cc 00000000 		.4byte	0
 3622 01d0 00000000 		.4byte	0
 3623              	.LLST17:
 3624 01d4 00000000 		.4byte	.LVL34
 3625 01d8 0C000000 		.4byte	.LVL35
 3626 01dc 0100     		.2byte	0x1
 3627 01de 50       		.byte	0x50
 3628 01df 0C000000 		.4byte	.LVL35
 3629 01e3 2C000000 		.4byte	.LVL41
 3630 01e7 0100     		.2byte	0x1
 3631 01e9 54       		.byte	0x54
 3632 01ea 2C000000 		.4byte	.LVL41
 3633 01ee 2E000000 		.4byte	.LVL42
 3634 01f2 0200     		.2byte	0x2
 3635 01f4 73       		.byte	0x73
 3636 01f5 04       		.sleb128 4
 3637 01f6 2E000000 		.4byte	.LVL42
 3638 01fa 50000000 		.4byte	.LVL47
 3639 01fe 0100     		.2byte	0x1
 3640 0200 54       		.byte	0x54
 3641 0201 50000000 		.4byte	.LVL47
 3642 0205 53000000 		.4byte	.LVL48-1
 3643 0209 0100     		.2byte	0x1
 3644 020b 50       		.byte	0x50
ARM GAS  /tmp/cct18UAW.s 			page 65


 3645 020c 53000000 		.4byte	.LVL48-1
 3646 0210 58000000 		.4byte	.LFE232
 3647 0214 0400     		.2byte	0x4
 3648 0216 F3       		.byte	0xf3
 3649 0217 01       		.uleb128 0x1
 3650 0218 50       		.byte	0x50
 3651 0219 9F       		.byte	0x9f
 3652 021a 00000000 		.4byte	0
 3653 021e 00000000 		.4byte	0
 3654              	.LLST18:
 3655 0222 00000000 		.4byte	.LVL34
 3656 0226 0E000000 		.4byte	.LVL36
 3657 022a 0100     		.2byte	0x1
 3658 022c 51       		.byte	0x51
 3659 022d 0E000000 		.4byte	.LVL36
 3660 0231 28000000 		.4byte	.LVL40
 3661 0235 0200     		.2byte	0x2
 3662 0237 74       		.byte	0x74
 3663 0238 20       		.sleb128 32
 3664 0239 28000000 		.4byte	.LVL40
 3665 023d 2E000000 		.4byte	.LVL42
 3666 0241 0400     		.2byte	0x4
 3667 0243 F3       		.byte	0xf3
 3668 0244 01       		.uleb128 0x1
 3669 0245 51       		.byte	0x51
 3670 0246 9F       		.byte	0x9f
 3671 0247 2E000000 		.4byte	.LVL42
 3672 024b 30000000 		.4byte	.LVL43
 3673 024f 0200     		.2byte	0x2
 3674 0251 74       		.byte	0x74
 3675 0252 20       		.sleb128 32
 3676 0253 30000000 		.4byte	.LVL43
 3677 0257 58000000 		.4byte	.LFE232
 3678 025b 0400     		.2byte	0x4
 3679 025d F3       		.byte	0xf3
 3680 025e 01       		.uleb128 0x1
 3681 025f 51       		.byte	0x51
 3682 0260 9F       		.byte	0x9f
 3683 0261 00000000 		.4byte	0
 3684 0265 00000000 		.4byte	0
 3685              	.LLST19:
 3686 0269 16000000 		.4byte	.LVL37
 3687 026d 2C000000 		.4byte	.LVL41
 3688 0271 0100     		.2byte	0x1
 3689 0273 54       		.byte	0x54
 3690 0274 2C000000 		.4byte	.LVL41
 3691 0278 2E000000 		.4byte	.LVL42
 3692 027c 0200     		.2byte	0x2
 3693 027e 73       		.byte	0x73
 3694 027f 04       		.sleb128 4
 3695 0280 00000000 		.4byte	0
 3696 0284 00000000 		.4byte	0
 3697              	.LLST20:
 3698 0288 18000000 		.4byte	.LVL38
 3699 028c 2E000000 		.4byte	.LVL42
 3700 0290 0100     		.2byte	0x1
 3701 0292 53       		.byte	0x53
ARM GAS  /tmp/cct18UAW.s 			page 66


 3702 0293 00000000 		.4byte	0
 3703 0297 00000000 		.4byte	0
 3704              	.LLST21:
 3705 029b 2E000000 		.4byte	.LVL42
 3706 029f 46000000 		.4byte	.LVL46
 3707 02a3 0100     		.2byte	0x1
 3708 02a5 55       		.byte	0x55
 3709 02a6 00000000 		.4byte	0
 3710 02aa 00000000 		.4byte	0
 3711              	.LLST22:
 3712 02ae 30000000 		.4byte	.LVL43
 3713 02b2 32000000 		.4byte	.LVL44
 3714 02b6 0600     		.2byte	0x6
 3715 02b8 03       		.byte	0x3
 3716 02b9 00000000 		.4byte	ch
 3717 02bd 9F       		.byte	0x9f
 3718 02be 32000000 		.4byte	.LVL44
 3719 02c2 46000000 		.4byte	.LVL46
 3720 02c6 0100     		.2byte	0x1
 3721 02c8 52       		.byte	0x52
 3722 02c9 00000000 		.4byte	0
 3723 02cd 00000000 		.4byte	0
 3724              	.LLST23:
 3725 02d1 0C000000 		.4byte	.LVL50
 3726 02d5 32000000 		.4byte	.LVL56
 3727 02d9 0100     		.2byte	0x1
 3728 02db 54       		.byte	0x54
 3729 02dc 32000000 		.4byte	.LVL56
 3730 02e0 35000000 		.4byte	.LVL57-1
 3731 02e4 0100     		.2byte	0x1
 3732 02e6 51       		.byte	0x51
 3733 02e7 00000000 		.4byte	0
 3734 02eb 00000000 		.4byte	0
 3735              	.LLST24:
 3736 02ef 0C000000 		.4byte	.LVL50
 3737 02f3 0E000000 		.4byte	.LVL51
 3738 02f7 0600     		.2byte	0x6
 3739 02f9 03       		.byte	0x3
 3740 02fa 00000000 		.4byte	ch
 3741 02fe 9F       		.byte	0x9f
 3742 02ff 00000000 		.4byte	0
 3743 0303 00000000 		.4byte	0
 3744              	.LLST25:
 3745 0307 0C000000 		.4byte	.LVL50
 3746 030b 0E000000 		.4byte	.LVL51
 3747 030f 0100     		.2byte	0x1
 3748 0311 50       		.byte	0x50
 3749 0312 00000000 		.4byte	0
 3750 0316 00000000 		.4byte	0
 3751              	.LLST26:
 3752 031a 12000000 		.4byte	.LVL52
 3753 031e 30000000 		.4byte	.LVL55
 3754 0322 0100     		.2byte	0x1
 3755 0324 54       		.byte	0x54
 3756 0325 00000000 		.4byte	0
 3757 0329 00000000 		.4byte	0
 3758              	.LLST27:
ARM GAS  /tmp/cct18UAW.s 			page 67


 3759 032d 1A000000 		.4byte	.LVL53
 3760 0331 1C000000 		.4byte	.LVL54
 3761 0335 0600     		.2byte	0x6
 3762 0337 03       		.byte	0x3
 3763 0338 00000000 		.4byte	ch
 3764 033c 9F       		.byte	0x9f
 3765 033d 00000000 		.4byte	0
 3766 0341 00000000 		.4byte	0
 3767              	.LLST28:
 3768 0345 0C000000 		.4byte	.LVL58
 3769 0349 32000000 		.4byte	.LVL62
 3770 034d 0100     		.2byte	0x1
 3771 034f 54       		.byte	0x54
 3772 0350 32000000 		.4byte	.LVL62
 3773 0354 35000000 		.4byte	.LVL63-1
 3774 0358 0100     		.2byte	0x1
 3775 035a 51       		.byte	0x51
 3776 035b 00000000 		.4byte	0
 3777 035f 00000000 		.4byte	0
 3778              	.LLST29:
 3779 0363 1A000000 		.4byte	.LVL60
 3780 0367 1C000000 		.4byte	.LVL61
 3781 036b 0600     		.2byte	0x6
 3782 036d 03       		.byte	0x3
 3783 036e 00000000 		.4byte	ch
 3784 0372 9F       		.byte	0x9f
 3785 0373 00000000 		.4byte	0
 3786 0377 00000000 		.4byte	0
 3787              	.LLST30:
 3788 037b 0C000000 		.4byte	.LVL58
 3789 037f 0E000000 		.4byte	.LVL59
 3790 0383 0600     		.2byte	0x6
 3791 0385 03       		.byte	0x3
 3792 0386 00000000 		.4byte	ch
 3793 038a 9F       		.byte	0x9f
 3794 038b 00000000 		.4byte	0
 3795 038f 00000000 		.4byte	0
 3796              	.LLST31:
 3797 0393 0C000000 		.4byte	.LVL58
 3798 0397 0E000000 		.4byte	.LVL59
 3799 039b 0100     		.2byte	0x1
 3800 039d 50       		.byte	0x50
 3801 039e 00000000 		.4byte	0
 3802 03a2 00000000 		.4byte	0
 3803              		.section	.debug_aranges,"",%progbits
 3804 0000 6C000000 		.4byte	0x6c
 3805 0004 0200     		.2byte	0x2
 3806 0006 00000000 		.4byte	.Ldebug_info0
 3807 000a 04       		.byte	0x4
 3808 000b 00       		.byte	0
 3809 000c 0000     		.2byte	0
 3810 000e 0000     		.2byte	0
 3811 0010 00000000 		.4byte	.LFB230
 3812 0014 6C000000 		.4byte	.LFE230-.LFB230
 3813 0018 00000000 		.4byte	.LFB227
 3814 001c 14000000 		.4byte	.LFE227-.LFB227
 3815 0020 00000000 		.4byte	.LFB228
ARM GAS  /tmp/cct18UAW.s 			page 68


 3816 0024 28000000 		.4byte	.LFE228-.LFB228
 3817 0028 00000000 		.4byte	.LFB229
 3818 002c 24000000 		.4byte	.LFE229-.LFB229
 3819 0030 00000000 		.4byte	.LFB231
 3820 0034 44000000 		.4byte	.LFE231-.LFB231
 3821 0038 00000000 		.4byte	.LFB232
 3822 003c 58000000 		.4byte	.LFE232-.LFB232
 3823 0040 00000000 		.4byte	.LFB234
 3824 0044 18000000 		.4byte	.LFE234-.LFB234
 3825 0048 00000000 		.4byte	.LFB235
 3826 004c 3C000000 		.4byte	.LFE235-.LFB235
 3827 0050 00000000 		.4byte	.LFB236
 3828 0054 3C000000 		.4byte	.LFE236-.LFB236
 3829 0058 00000000 		.4byte	.LFB233
 3830 005c 18000000 		.4byte	.LFE233-.LFB233
 3831 0060 00000000 		.4byte	.LFB237
 3832 0064 04000000 		.4byte	.LFE237-.LFB237
 3833 0068 00000000 		.4byte	0
 3834 006c 00000000 		.4byte	0
 3835              		.section	.debug_ranges,"",%progbits
 3836              	.Ldebug_ranges0:
 3837 0000 30000000 		.4byte	.LBB137
 3838 0004 34000000 		.4byte	.LBE137
 3839 0008 38000000 		.4byte	.LBB159
 3840 000c 3A000000 		.4byte	.LBE159
 3841 0010 00000000 		.4byte	0
 3842 0014 00000000 		.4byte	0
 3843 0018 34000000 		.4byte	.LBB140
 3844 001c 36000000 		.4byte	.LBE140
 3845 0020 3A000000 		.4byte	.LBB160
 3846 0024 52000000 		.4byte	.LBE160
 3847 0028 00000000 		.4byte	0
 3848 002c 00000000 		.4byte	0
 3849 0030 34000000 		.4byte	.LBB142
 3850 0034 36000000 		.4byte	.LBE142
 3851 0038 3A000000 		.4byte	.LBB146
 3852 003c 48000000 		.4byte	.LBE146
 3853 0040 4A000000 		.4byte	.LBB156
 3854 0044 4E000000 		.4byte	.LBE156
 3855 0048 00000000 		.4byte	0
 3856 004c 00000000 		.4byte	0
 3857 0050 48000000 		.4byte	.LBB147
 3858 0054 4A000000 		.4byte	.LBE147
 3859 0058 4E000000 		.4byte	.LBB157
 3860 005c 52000000 		.4byte	.LBE157
 3861 0060 00000000 		.4byte	0
 3862 0064 00000000 		.4byte	0
 3863 0068 00000000 		.4byte	.LBB166
 3864 006c 02000000 		.4byte	.LBE166
 3865 0070 04000000 		.4byte	.LBB169
 3866 0074 08000000 		.4byte	.LBE169
 3867 0078 00000000 		.4byte	0
 3868 007c 00000000 		.4byte	0
 3869 0080 04000000 		.4byte	.LBB170
 3870 0084 06000000 		.4byte	.LBE170
 3871 0088 0A000000 		.4byte	.LBB174
 3872 008c 0E000000 		.4byte	.LBE174
ARM GAS  /tmp/cct18UAW.s 			page 69


 3873 0090 10000000 		.4byte	.LBB175
 3874 0094 12000000 		.4byte	.LBE175
 3875 0098 00000000 		.4byte	0
 3876 009c 00000000 		.4byte	0
 3877 00a0 10000000 		.4byte	.LBB177
 3878 00a4 14000000 		.4byte	.LBE177
 3879 00a8 16000000 		.4byte	.LBB180
 3880 00ac 2A000000 		.4byte	.LBE180
 3881 00b0 00000000 		.4byte	0
 3882 00b4 00000000 		.4byte	0
 3883 00b8 2E000000 		.4byte	.LBB181
 3884 00bc 4E000000 		.4byte	.LBE181
 3885 00c0 50000000 		.4byte	.LBB186
 3886 00c4 58000000 		.4byte	.LBE186
 3887 00c8 00000000 		.4byte	0
 3888 00cc 00000000 		.4byte	0
 3889 00d0 2E000000 		.4byte	.LBB182
 3890 00d4 3E000000 		.4byte	.LBE182
 3891 00d8 40000000 		.4byte	.LBB185
 3892 00dc 46000000 		.4byte	.LBE185
 3893 00e0 00000000 		.4byte	0
 3894 00e4 00000000 		.4byte	0
 3895 00e8 02000000 		.4byte	.LBB187
 3896 00ec 06000000 		.4byte	.LBE187
 3897 00f0 0C000000 		.4byte	.LBB191
 3898 00f4 0E000000 		.4byte	.LBE191
 3899 00f8 14000000 		.4byte	.LBB196
 3900 00fc 16000000 		.4byte	.LBE196
 3901 0100 00000000 		.4byte	0
 3902 0104 00000000 		.4byte	0
 3903 0108 0E000000 		.4byte	.LBB192
 3904 010c 10000000 		.4byte	.LBE192
 3905 0110 18000000 		.4byte	.LBB197
 3906 0114 2A000000 		.4byte	.LBE197
 3907 0118 2C000000 		.4byte	.LBB198
 3908 011c 30000000 		.4byte	.LBE198
 3909 0120 00000000 		.4byte	0
 3910 0124 00000000 		.4byte	0
 3911 0128 02000000 		.4byte	.LBB199
 3912 012c 06000000 		.4byte	.LBE199
 3913 0130 0C000000 		.4byte	.LBB203
 3914 0134 0E000000 		.4byte	.LBE203
 3915 0138 14000000 		.4byte	.LBB204
 3916 013c 16000000 		.4byte	.LBE204
 3917 0140 00000000 		.4byte	0
 3918 0144 00000000 		.4byte	0
 3919 0148 00000000 		.4byte	.LFB230
 3920 014c 6C000000 		.4byte	.LFE230
 3921 0150 00000000 		.4byte	.LFB227
 3922 0154 14000000 		.4byte	.LFE227
 3923 0158 00000000 		.4byte	.LFB228
 3924 015c 28000000 		.4byte	.LFE228
 3925 0160 00000000 		.4byte	.LFB229
 3926 0164 24000000 		.4byte	.LFE229
 3927 0168 00000000 		.4byte	.LFB231
 3928 016c 44000000 		.4byte	.LFE231
 3929 0170 00000000 		.4byte	.LFB232
ARM GAS  /tmp/cct18UAW.s 			page 70


 3930 0174 58000000 		.4byte	.LFE232
 3931 0178 00000000 		.4byte	.LFB234
 3932 017c 18000000 		.4byte	.LFE234
 3933 0180 00000000 		.4byte	.LFB235
 3934 0184 3C000000 		.4byte	.LFE235
 3935 0188 00000000 		.4byte	.LFB236
 3936 018c 3C000000 		.4byte	.LFE236
 3937 0190 00000000 		.4byte	.LFB233
 3938 0194 18000000 		.4byte	.LFE233
 3939 0198 00000000 		.4byte	.LFB237
 3940 019c 04000000 		.4byte	.LFE237
 3941 01a0 00000000 		.4byte	0
 3942 01a4 00000000 		.4byte	0
 3943              		.section	.debug_line,"",%progbits
 3944              	.Ldebug_line0:
 3945 0000 94040000 		.section	.debug_str,"MS",%progbits,1
 3945      02003D02 
 3945      00000201 
 3945      FB0E0D00 
 3945      01010101 
 3946              	.LASF52:
 3947 0000 72656164 		.ascii	"ready_list_t\000"
 3947      795F6C69 
 3947      73745F74 
 3947      00
 3948              	.LASF4:
 3949 000d 73697A65 		.ascii	"size_t\000"
 3949      5F7400
 3950              	.LASF87:
 3951 0014 7264796D 		.ascii	"rdymsg\000"
 3951      736700
 3952              	.LASF18:
 3953 001b 75696E74 		.ascii	"uint64_t\000"
 3953      36345F74 
 3953      00
 3954              	.LASF128:
 3955 0024 63685363 		.ascii	"chSchDoRescheduleAhead\000"
 3955      68446F52 
 3955      65736368 
 3955      6564756C 
 3955      65416865 
 3956              	.LASF25:
 3957 003b 6576656E 		.ascii	"eventmask_t\000"
 3957      746D6173 
 3957      6B5F7400 
 3958              	.LASF5:
 3959 0047 5F5F7569 		.ascii	"__uint8_t\000"
 3959      6E74385F 
 3959      7400
 3960              	.LASF84:
 3961 0051 706F7274 		.ascii	"port_intctx\000"
 3961      5F696E74 
 3961      63747800 
 3962              	.LASF71:
 3963 005d 73797374 		.ascii	"system_debug_t\000"
 3963      656D5F64 
 3963      65627567 
ARM GAS  /tmp/cct18UAW.s 			page 71


 3963      5F7400
 3964              	.LASF112:
 3965 006c 71756575 		.ascii	"queue_init\000"
 3965      655F696E 
 3965      697400
 3966              	.LASF104:
 3967 0077 706F7274 		.ascii	"port_lock\000"
 3967      5F6C6F63 
 3967      6B00
 3968              	.LASF14:
 3969 0081 6C6F6E67 		.ascii	"long long unsigned int\000"
 3969      206C6F6E 
 3969      6720756E 
 3969      7369676E 
 3969      65642069 
 3970              	.LASF134:
 3971 0098 63685654 		.ascii	"chVTDoResetI\000"
 3971      446F5265 
 3971      73657449 
 3971      00
 3972              	.LASF88:
 3973 00a5 65786974 		.ascii	"exitcode\000"
 3973      636F6465 
 3973      00
 3974              	.LASF78:
 3975 00ae 6D61696E 		.ascii	"mainthread\000"
 3975      74687265 
 3975      616400
 3976              	.LASF9:
 3977 00b9 5F5F696E 		.ascii	"__int32_t\000"
 3977      7433325F 
 3977      7400
 3978              	.LASF68:
 3979 00c3 76697274 		.ascii	"virtual_timers_list_t\000"
 3979      75616C5F 
 3979      74696D65 
 3979      72735F6C 
 3979      6973745F 
 3980              	.LASF131:
 3981 00d9 49544D5F 		.ascii	"ITM_RxBuffer\000"
 3981      52784275 
 3981      66666572 
 3981      00
 3982              	.LASF51:
 3983 00e6 63685F74 		.ascii	"ch_threads_queue\000"
 3983      68726561 
 3983      64735F71 
 3983      75657565 
 3983      00
 3984              	.LASF31:
 3985 00f7 705F7072 		.ascii	"p_prio\000"
 3985      696F00
 3986              	.LASF120:
 3987 00fe 5F736368 		.ascii	"_scheduler_init\000"
 3987      6564756C 
 3987      65725F69 
 3987      6E697400 
ARM GAS  /tmp/cct18UAW.s 			page 72


 3988              	.LASF1:
 3989 010e 6C6F6E67 		.ascii	"long long int\000"
 3989      206C6F6E 
 3989      6720696E 
 3989      7400
 3990              	.LASF3:
 3991 011c 7369676E 		.ascii	"signed char\000"
 3991      65642063 
 3991      68617200 
 3992              	.LASF45:
 3993 0128 705F6D70 		.ascii	"p_mpool\000"
 3993      6F6F6C00 
 3994              	.LASF98:
 3995 0130 6D5F7175 		.ascii	"m_queue\000"
 3995      65756500 
 3996              	.LASF77:
 3997 0138 76746C69 		.ascii	"vtlist\000"
 3997      737400
 3998              	.LASF105:
 3999 013f 706F7274 		.ascii	"port_unlock\000"
 3999      5F756E6C 
 3999      6F636B00 
 4000              	.LASF90:
 4001 014b 77747472 		.ascii	"wttrp\000"
 4001      7000
 4002              	.LASF75:
 4003 0151 63685F73 		.ascii	"ch_system\000"
 4003      79737465 
 4003      6D00
 4004              	.LASF10:
 4005 015b 6C6F6E67 		.ascii	"long int\000"
 4005      20696E74 
 4005      00
 4006              	.LASF116:
 4007 0164 71756575 		.ascii	"queue_dequeue\000"
 4007      655F6465 
 4007      71756575 
 4007      6500
 4008              	.LASF21:
 4009 0172 74737461 		.ascii	"tstate_t\000"
 4009      74655F74 
 4009      00
 4010              	.LASF126:
 4011 017b 63685363 		.ascii	"chSchIsPreemptionRequired\000"
 4011      68497350 
 4011      7265656D 
 4011      7074696F 
 4011      6E526571 
 4012              	.LASF33:
 4013 0195 705F6E65 		.ascii	"p_newer\000"
 4013      77657200 
 4014              	.LASF95:
 4015 019d 735F7175 		.ascii	"s_queue\000"
 4015      65756500 
 4016              	.LASF129:
 4017 01a5 63685363 		.ascii	"chSchRescheduleS\000"
 4017      68526573 
ARM GAS  /tmp/cct18UAW.s 			page 73


 4017      63686564 
 4017      756C6553 
 4017      00
 4018              	.LASF57:
 4019 01b6 725F6E65 		.ascii	"r_newer\000"
 4019      77657200 
 4020              	.LASF81:
 4021 01be 72656761 		.ascii	"regarm_t\000"
 4021      726D5F74 
 4021      00
 4022              	.LASF130:
 4023 01c7 63685363 		.ascii	"chSchDoReschedule\000"
 4023      68446F52 
 4023      65736368 
 4023      6564756C 
 4023      6500
 4024              	.LASF64:
 4025 01d9 76745F70 		.ascii	"vt_prev\000"
 4025      72657600 
 4026              	.LASF103:
 4027 01e1 6D757465 		.ascii	"mutex_t\000"
 4027      785F7400 
 4028              	.LASF108:
 4029 01e9 76616C75 		.ascii	"value\000"
 4029      6500
 4030              	.LASF79:
 4031 01ef 69646C65 		.ascii	"idle_thread_wa\000"
 4031      5F746872 
 4031      6561645F 
 4031      776100
 4032              	.LASF26:
 4033 01fe 636E745F 		.ascii	"cnt_t\000"
 4033      7400
 4034              	.LASF0:
 4035 0204 756E7369 		.ascii	"unsigned int\000"
 4035      676E6564 
 4035      20696E74 
 4035      00
 4036              	.LASF118:
 4037 0211 77616B65 		.ascii	"wakeup\000"
 4037      757000
 4038              	.LASF63:
 4039 0218 76745F6E 		.ascii	"vt_next\000"
 4039      65787400 
 4040              	.LASF91:
 4041 0220 77747365 		.ascii	"wtsemp\000"
 4041      6D7000
 4042              	.LASF132:
 4043 0227 5F706F72 		.ascii	"_port_switch\000"
 4043      745F7377 
 4043      69746368 
 4043      00
 4044              	.LASF65:
 4045 0234 76745F64 		.ascii	"vt_delta\000"
 4045      656C7461 
 4045      00
 4046              	.LASF40:
ARM GAS  /tmp/cct18UAW.s 			page 74


 4047 023d 705F6D73 		.ascii	"p_msgqueue\000"
 4047      67717565 
 4047      756500
 4048              	.LASF53:
 4049 0248 63685F72 		.ascii	"ch_ready_list\000"
 4049      65616479 
 4049      5F6C6973 
 4049      7400
 4050              	.LASF96:
 4051 0256 735F636E 		.ascii	"s_cnt\000"
 4051      7400
 4052              	.LASF8:
 4053 025c 73686F72 		.ascii	"short unsigned int\000"
 4053      7420756E 
 4053      7369676E 
 4053      65642069 
 4053      6E7400
 4054              	.LASF48:
 4055 026f 63685F74 		.ascii	"ch_thread\000"
 4055      68726561 
 4055      6400
 4056              	.LASF124:
 4057 0279 63685363 		.ascii	"chSchWakeupS\000"
 4057      6857616B 
 4057      65757053 
 4057      00
 4058              	.LASF24:
 4059 0286 6D73675F 		.ascii	"msg_t\000"
 4059      7400
 4060              	.LASF74:
 4061 028c 63685F73 		.ascii	"ch_system_t\000"
 4061      79737465 
 4061      6D5F7400 
 4062              	.LASF89:
 4063 0298 77746F62 		.ascii	"wtobjp\000"
 4063      6A7000
 4064              	.LASF43:
 4065 029f 705F6D74 		.ascii	"p_mtxlist\000"
 4065      786C6973 
 4065      7400
 4066              	.LASF133:
 4067 02a9 63685654 		.ascii	"chVTDoSetI\000"
 4067      446F5365 
 4067      744900
 4068              	.LASF82:
 4069 02b4 73746B61 		.ascii	"stkalign_t\000"
 4069      6C69676E 
 4069      5F7400
 4070              	.LASF61:
 4071 02bf 76697274 		.ascii	"virtual_timer_t\000"
 4071      75616C5F 
 4071      74696D65 
 4071      725F7400 
 4072              	.LASF55:
 4073 02cf 725F7072 		.ascii	"r_prio\000"
 4073      696F00
 4074              	.LASF39:
ARM GAS  /tmp/cct18UAW.s 			page 75


 4075 02d6 705F7761 		.ascii	"p_waiting\000"
 4075      6974696E 
 4075      6700
 4076              	.LASF80:
 4077 02e0 73697A65 		.ascii	"sizetype\000"
 4077      74797065 
 4077      00
 4078              	.LASF46:
 4079 02e9 74687265 		.ascii	"thread_reference_t\000"
 4079      61645F72 
 4079      65666572 
 4079      656E6365 
 4079      5F7400
 4080              	.LASF69:
 4081 02fc 63685F76 		.ascii	"ch_virtual_timers_list\000"
 4081      69727475 
 4081      616C5F74 
 4081      696D6572 
 4081      735F6C69 
 4082              	.LASF2:
 4083 0313 6C6F6E67 		.ascii	"long double\000"
 4083      20646F75 
 4083      626C6500 
 4084              	.LASF127:
 4085 031f 63685363 		.ascii	"chSchDoRescheduleBehind\000"
 4085      68446F52 
 4085      65736368 
 4085      6564756C 
 4085      65426568 
 4086              	.LASF70:
 4087 0337 76745F6C 		.ascii	"vt_lasttime\000"
 4087      61737474 
 4087      696D6500 
 4088              	.LASF34:
 4089 0343 705F6F6C 		.ascii	"p_older\000"
 4089      64657200 
 4090              	.LASF56:
 4091 034b 725F6374 		.ascii	"r_ctx\000"
 4091      7800
 4092              	.LASF86:
 4093 0351 746D5F63 		.ascii	"tm_calibration_t\000"
 4093      616C6962 
 4093      72617469 
 4093      6F6E5F74 
 4093      00
 4094              	.LASF100:
 4095 0362 6D5F6E65 		.ascii	"m_next\000"
 4095      787400
 4096              	.LASF123:
 4097 0369 74696D65 		.ascii	"time\000"
 4097      00
 4098              	.LASF59:
 4099 036e 725F6375 		.ascii	"r_current\000"
 4099      7272656E 
 4099      7400
 4100              	.LASF58:
 4101 0378 725F6F6C 		.ascii	"r_older\000"
ARM GAS  /tmp/cct18UAW.s 			page 76


 4101      64657200 
 4102              	.LASF13:
 4103 0380 5F5F7569 		.ascii	"__uint64_t\000"
 4103      6E743634 
 4103      5F7400
 4104              	.LASF22:
 4105 038b 74726566 		.ascii	"trefs_t\000"
 4105      735F7400 
 4106              	.LASF136:
 4107 0393 2F686F6D 		.ascii	"/home/selim/working/ChibiOS/os/rt/src/chschd.c\000"
 4107      652F7365 
 4107      6C696D2F 
 4107      776F726B 
 4107      696E672F 
 4108              	.LASF30:
 4109 03c2 705F7072 		.ascii	"p_prev\000"
 4109      657600
 4110              	.LASF23:
 4111 03c9 74707269 		.ascii	"tprio_t\000"
 4111      6F5F7400 
 4112              	.LASF114:
 4113 03d1 63685379 		.ascii	"chSysUnlockFromISR\000"
 4113      73556E6C 
 4113      6F636B46 
 4113      726F6D49 
 4113      535200
 4114              	.LASF72:
 4115 03e4 63685F73 		.ascii	"ch_system_debug\000"
 4115      79737465 
 4115      6D5F6465 
 4115      62756700 
 4116              	.LASF109:
 4117 03f4 5F426F6F 		.ascii	"_Bool\000"
 4117      6C00
 4118              	.LASF16:
 4119 03fa 696E7433 		.ascii	"int32_t\000"
 4119      325F7400 
 4120              	.LASF6:
 4121 0402 756E7369 		.ascii	"unsigned char\000"
 4121      676E6564 
 4121      20636861 
 4121      7200
 4122              	.LASF122:
 4123 0410 6E657773 		.ascii	"newstate\000"
 4123      74617465 
 4123      00
 4124              	.LASF7:
 4125 0419 73686F72 		.ascii	"short int\000"
 4125      7420696E 
 4125      7400
 4126              	.LASF36:
 4127 0423 705F7374 		.ascii	"p_state\000"
 4127      61746500 
 4128              	.LASF111:
 4129 042b 63685365 		.ascii	"chSemFastSignalI\000"
 4129      6D466173 
 4129      74536967 
ARM GAS  /tmp/cct18UAW.s 			page 77


 4129      6E616C49 
 4129      00
 4130              	.LASF135:
 4131 043c 474E5520 		.ascii	"GNU C11 5.3.1 20160307 (release) [ARM/embedded-5-br"
 4131      43313120 
 4131      352E332E 
 4131      31203230 
 4131      31363033 
 4132 046f 616E6368 		.ascii	"anch revision 234589] -mcpu=cortex-m4 -mno-thumb-in"
 4132      20726576 
 4132      6973696F 
 4132      6E203233 
 4132      34353839 
 4133 04a2 74657277 		.ascii	"terwork -mthumb -ggdb -O2 -fomit-frame-pointer -fal"
 4133      6F726B20 
 4133      2D6D7468 
 4133      756D6220 
 4133      2D676764 
 4134 04d5 69676E2D 		.ascii	"ign-functions=16 -ffunction-sections -fdata-section"
 4134      66756E63 
 4134      74696F6E 
 4134      733D3136 
 4134      202D6666 
 4135 0508 73202D66 		.ascii	"s -fno-common\000"
 4135      6E6F2D63 
 4135      6F6D6D6F 
 4135      6E00
 4136              	.LASF93:
 4137 0516 65776D61 		.ascii	"ewmask\000"
 4137      736B00
 4138              	.LASF29:
 4139 051d 705F6E65 		.ascii	"p_next\000"
 4139      787400
 4140              	.LASF20:
 4141 0524 746D6F64 		.ascii	"tmode_t\000"
 4141      655F7400 
 4142              	.LASF37:
 4143 052c 705F666C 		.ascii	"p_flags\000"
 4143      61677300 
 4144              	.LASF117:
 4145 0534 5F5F6675 		.ascii	"__func__\000"
 4145      6E635F5F 
 4145      00
 4146              	.LASF115:
 4147 053d 63685654 		.ascii	"chVTIsArmedI\000"
 4147      49734172 
 4147      6D656449 
 4147      00
 4148              	.LASF102:
 4149 054a 73656D61 		.ascii	"semaphore_t\000"
 4149      70686F72 
 4149      655F7400 
 4150              	.LASF62:
 4151 0556 63685F76 		.ascii	"ch_virtual_timer\000"
 4151      69727475 
 4151      616C5F74 
 4151      696D6572 
ARM GAS  /tmp/cct18UAW.s 			page 78


 4151      00
 4152              	.LASF94:
 4153 0567 63685F73 		.ascii	"ch_semaphore\000"
 4153      656D6170 
 4153      686F7265 
 4153      00
 4154              	.LASF121:
 4155 0574 63685363 		.ascii	"chSchGoSleepS\000"
 4155      68476F53 
 4155      6C656570 
 4155      5300
 4156              	.LASF42:
 4157 0582 705F6570 		.ascii	"p_epending\000"
 4157      656E6469 
 4157      6E6700
 4158              	.LASF17:
 4159 058d 75696E74 		.ascii	"uint32_t\000"
 4159      33325F74 
 4159      00
 4160              	.LASF92:
 4161 0596 77746D74 		.ascii	"wtmtxp\000"
 4161      787000
 4162              	.LASF54:
 4163 059d 725F7175 		.ascii	"r_queue\000"
 4163      65756500 
 4164              	.LASF137:
 4165 05a5 63685363 		.ascii	"chSchReadyI\000"
 4165      68526561 
 4165      64794900 
 4166              	.LASF49:
 4167 05b1 63685F74 		.ascii	"ch_threads_list\000"
 4167      68726561 
 4167      64735F6C 
 4167      69737400 
 4168              	.LASF12:
 4169 05c1 6C6F6E67 		.ascii	"long unsigned int\000"
 4169      20756E73 
 4169      69676E65 
 4169      6420696E 
 4169      7400
 4170              	.LASF101:
 4171 05d3 63686172 		.ascii	"char\000"
 4171      00
 4172              	.LASF107:
 4173 05d8 706F7274 		.ascii	"port_unlock_from_isr\000"
 4173      5F756E6C 
 4173      6F636B5F 
 4173      66726F6D 
 4173      5F697372 
 4174              	.LASF28:
 4175 05ed 74687265 		.ascii	"thread_t\000"
 4175      61645F74 
 4175      00
 4176              	.LASF119:
 4177 05f6 71756575 		.ascii	"queue_fifo_remove\000"
 4177      655F6669 
 4177      666F5F72 
ARM GAS  /tmp/cct18UAW.s 			page 79


 4177      656D6F76 
 4177      6500
 4178              	.LASF27:
 4179 0608 73797374 		.ascii	"systime_t\000"
 4179      696D655F 
 4179      7400
 4180              	.LASF44:
 4181 0612 705F7265 		.ascii	"p_realprio\000"
 4181      616C7072 
 4181      696F00
 4182              	.LASF60:
 4183 061d 76746675 		.ascii	"vtfunc_t\000"
 4183      6E635F74 
 4183      00
 4184              	.LASF11:
 4185 0626 5F5F7569 		.ascii	"__uint32_t\000"
 4185      6E743332 
 4185      5F7400
 4186              	.LASF110:
 4187 0631 5F5F7365 		.ascii	"__set_BASEPRI\000"
 4187      745F4241 
 4187      53455052 
 4187      4900
 4188              	.LASF73:
 4189 063f 70616E69 		.ascii	"panic_msg\000"
 4189      635F6D73 
 4189      6700
 4190              	.LASF85:
 4191 0649 6F666673 		.ascii	"offset\000"
 4191      657400
 4192              	.LASF83:
 4193 0650 636F6E74 		.ascii	"context\000"
 4193      65787400 
 4194              	.LASF19:
 4195 0658 7274636E 		.ascii	"rtcnt_t\000"
 4195      745F7400 
 4196              	.LASF106:
 4197 0660 706F7274 		.ascii	"port_lock_from_isr\000"
 4197      5F6C6F63 
 4197      6B5F6672 
 4197      6F6D5F69 
 4197      737200
 4198              	.LASF67:
 4199 0673 76745F70 		.ascii	"vt_par\000"
 4199      617200
 4200              	.LASF50:
 4201 067a 74687265 		.ascii	"threads_queue_t\000"
 4201      6164735F 
 4201      71756575 
 4201      655F7400 
 4202              	.LASF97:
 4203 068a 63685F6D 		.ascii	"ch_mutex\000"
 4203      75746578 
 4203      00
 4204              	.LASF38:
 4205 0693 705F7265 		.ascii	"p_refs\000"
 4205      667300
ARM GAS  /tmp/cct18UAW.s 			page 80


 4206              	.LASF76:
 4207 069a 726C6973 		.ascii	"rlist\000"
 4207      7400
 4208              	.LASF15:
 4209 06a0 75696E74 		.ascii	"uint8_t\000"
 4209      385F7400 
 4210              	.LASF113:
 4211 06a8 63685379 		.ascii	"chSysLockFromISR\000"
 4211      734C6F63 
 4211      6B46726F 
 4211      6D495352 
 4211      00
 4212              	.LASF35:
 4213 06b9 705F6E61 		.ascii	"p_name\000"
 4213      6D6500
 4214              	.LASF47:
 4215 06c0 74687265 		.ascii	"threads_list_t\000"
 4215      6164735F 
 4215      6C697374 
 4215      5F7400
 4216              	.LASF125:
 4217 06cf 63685363 		.ascii	"chSchGoSleepTimeoutS\000"
 4217      68476F53 
 4217      6C656570 
 4217      54696D65 
 4217      6F757453 
 4218              	.LASF138:
 4219 06e4 63685363 		.ascii	"chSchIsRescRequiredI\000"
 4219      68497352 
 4219      65736352 
 4219      65717569 
 4219      72656449 
 4220              	.LASF41:
 4221 06f9 705F6D73 		.ascii	"p_msg\000"
 4221      6700
 4222              	.LASF99:
 4223 06ff 6D5F6F77 		.ascii	"m_owner\000"
 4223      6E657200 
 4224              	.LASF32:
 4225 0707 705F6374 		.ascii	"p_ctx\000"
 4225      7800
 4226              	.LASF66:
 4227 070d 76745F66 		.ascii	"vt_func\000"
 4227      756E6300 
 4228              		.ident	"GCC: (GNU Tools for ARM Embedded Processors) 5.3.1 20160307 (release) [ARM/embedded-5-bran
ARM GAS  /tmp/cct18UAW.s 			page 81


DEFINED SYMBOLS
                            *ABS*:0000000000000000 chschd.c
     /tmp/cct18UAW.s:20     .text.wakeup:0000000000000000 $t
     /tmp/cct18UAW.s:25     .text.wakeup:0000000000000000 wakeup
     /tmp/cct18UAW.s:63     .text.wakeup:0000000000000012 $d
     /tmp/cct18UAW.s:71     .text.wakeup:000000000000001a $t
     /tmp/cct18UAW.s:233    .text.wakeup:0000000000000068 $d
     /tmp/cct18UAW.s:238    .text._scheduler_init:0000000000000000 $t
     /tmp/cct18UAW.s:244    .text._scheduler_init:0000000000000000 _scheduler_init
     /tmp/cct18UAW.s:279    .text._scheduler_init:0000000000000010 $d
     /tmp/cct18UAW.s:284    .text.chSchReadyI:0000000000000000 $t
     /tmp/cct18UAW.s:290    .text.chSchReadyI:0000000000000000 chSchReadyI
     /tmp/cct18UAW.s:341    .text.chSchReadyI:0000000000000024 $d
     /tmp/cct18UAW.s:346    .text.chSchGoSleepS:0000000000000000 $t
     /tmp/cct18UAW.s:352    .text.chSchGoSleepS:0000000000000000 chSchGoSleepS
     /tmp/cct18UAW.s:410    .text.chSchGoSleepS:0000000000000020 $d
     /tmp/cct18UAW.s:415    .text.chSchGoSleepTimeoutS:0000000000000000 $t
     /tmp/cct18UAW.s:421    .text.chSchGoSleepTimeoutS:0000000000000000 chSchGoSleepTimeoutS
     /tmp/cct18UAW.s:491    .text.chSchGoSleepTimeoutS:000000000000003c $d
     /tmp/cct18UAW.s:497    .text.chSchWakeupS:0000000000000000 $t
     /tmp/cct18UAW.s:503    .text.chSchWakeupS:0000000000000000 chSchWakeupS
     /tmp/cct18UAW.s:634    .text.chSchWakeupS:0000000000000054 $d
     /tmp/cct18UAW.s:640    .text.chSchIsPreemptionRequired:0000000000000000 $t
     /tmp/cct18UAW.s:646    .text.chSchIsPreemptionRequired:0000000000000000 chSchIsPreemptionRequired
     /tmp/cct18UAW.s:671    .text.chSchIsPreemptionRequired:0000000000000014 $d
     /tmp/cct18UAW.s:676    .text.chSchDoRescheduleBehind:0000000000000000 $t
     /tmp/cct18UAW.s:682    .text.chSchDoRescheduleBehind:0000000000000000 chSchDoRescheduleBehind
     /tmp/cct18UAW.s:778    .text.chSchDoRescheduleBehind:0000000000000038 $d
     /tmp/cct18UAW.s:783    .text.chSchDoRescheduleAhead:0000000000000000 $t
     /tmp/cct18UAW.s:789    .text.chSchDoRescheduleAhead:0000000000000000 chSchDoRescheduleAhead
     /tmp/cct18UAW.s:871    .text.chSchDoRescheduleAhead:0000000000000038 $d
     /tmp/cct18UAW.s:876    .text.chSchRescheduleS:0000000000000000 $t
     /tmp/cct18UAW.s:882    .text.chSchRescheduleS:0000000000000000 chSchRescheduleS
     /tmp/cct18UAW.s:910    .text.chSchRescheduleS:0000000000000014 $d
     /tmp/cct18UAW.s:915    .text.chSchDoReschedule:0000000000000000 $t
     /tmp/cct18UAW.s:921    .text.chSchDoReschedule:0000000000000000 chSchDoReschedule
     /tmp/cct18UAW.s:940    .bss.ch:0000000000000000 ch
     /tmp/cct18UAW.s:936    .bss.ch:0000000000000000 $d
                     .debug_frame:0000000000000010 $d

UNDEFINED SYMBOLS
_port_switch
chVTDoSetI
chVTDoResetI
