ARM GAS  /tmp/ccUlviZa.s 			page 1


   1              		.syntax unified
   2              		.cpu cortex-m4
   3              		.fpu softvfp
   4              		.eabi_attribute 20, 1
   5              		.eabi_attribute 21, 1
   6              		.eabi_attribute 23, 3
   7              		.eabi_attribute 24, 1
   8              		.eabi_attribute 25, 1
   9              		.eabi_attribute 26, 1
  10              		.eabi_attribute 30, 2
  11              		.eabi_attribute 34, 1
  12              		.eabi_attribute 18, 4
  13              		.thumb
  14              		.syntax unified
  15              		.file	"lis302dl.c"
  16              		.text
  17              	.Ltext0:
  18              		.cfi_sections	.debug_frame
  19              		.section	.text.lis302dlReadRegister,"ax",%progbits
  20              		.align	2
  21              		.p2align 4,,15
  22              		.global	lis302dlReadRegister
  23              		.thumb
  24              		.thumb_func
  25              		.type	lis302dlReadRegister, %function
  26              	lis302dlReadRegister:
  27              	.LFB258:
  28              		.file 1 "/home/selim/working/ChibiOS/os/various/devices_lib/accel/lis302dl.c"
  29              		.loc 1 59 0
  30              		.cfi_startproc
  31              		@ args = 0, pretend = 0, frame = 0
  32              		@ frame_needed = 0, uses_anonymous_args = 0
  33              	.LVL0:
  34 0000 F8B5     		push	{r3, r4, r5, r6, r7, lr}
  35              		.cfi_def_cfa_offset 24
  36              		.cfi_offset 3, -24
  37              		.cfi_offset 4, -20
  38              		.cfi_offset 5, -16
  39              		.cfi_offset 6, -12
  40              		.cfi_offset 7, -8
  41              		.cfi_offset 14, -4
  42              		.loc 1 62 0
  43 0002 0B4C     		ldr	r4, .L3
  44              		.loc 1 64 0
  45 0004 0B4E     		ldr	r6, .L3+4
  46              		.loc 1 59 0
  47 0006 0D46     		mov	r5, r1
  48 0008 0746     		mov	r7, r0
  49              		.loc 1 61 0
  50 000a FFF7FEFF 		bl	spiSelect
  51              	.LVL1:
  52              		.loc 1 62 0
  53 000e 65F07F01 		orn	r1, r5, #127
  54              		.loc 1 64 0
  55 0012 2246     		mov	r2, r4
  56 0014 3846     		mov	r0, r7
  57 0016 3346     		mov	r3, r6
ARM GAS  /tmp/ccUlviZa.s 			page 2


  58              		.loc 1 62 0
  59 0018 2170     		strb	r1, [r4]
  60              		.loc 1 63 0
  61 001a FF25     		movs	r5, #255
  62              		.loc 1 64 0
  63 001c 0221     		movs	r1, #2
  64              		.loc 1 63 0
  65 001e 6570     		strb	r5, [r4, #1]
  66              		.loc 1 64 0
  67 0020 FFF7FEFF 		bl	spiExchange
  68              	.LVL2:
  69              		.loc 1 65 0
  70 0024 3846     		mov	r0, r7
  71 0026 FFF7FEFF 		bl	spiUnselect
  72              	.LVL3:
  73              		.loc 1 67 0
  74 002a 7078     		ldrb	r0, [r6, #1]	@ zero_extendqisi2
  75 002c F8BD     		pop	{r3, r4, r5, r6, r7, pc}
  76              	.LVL4:
  77              	.L4:
  78 002e 00BF     		.align	2
  79              	.L3:
  80 0030 00000000 		.word	.LANCHOR0
  81 0034 00000000 		.word	.LANCHOR1
  82              		.cfi_endproc
  83              	.LFE258:
  84              		.size	lis302dlReadRegister, .-lis302dlReadRegister
  85              		.section	.text.lis302dlWriteRegister,"ax",%progbits
  86              		.align	2
  87              		.p2align 4,,15
  88              		.global	lis302dlWriteRegister
  89              		.thumb
  90              		.thumb_func
  91              		.type	lis302dlWriteRegister, %function
  92              	lis302dlWriteRegister:
  93              	.LFB259:
  94              		.loc 1 77 0
  95              		.cfi_startproc
  96              		@ args = 0, pretend = 0, frame = 0
  97              		@ frame_needed = 0, uses_anonymous_args = 0
  98              	.LVL5:
  99 0000 A1F12003 		sub	r3, r1, #32
 100 0004 DBB2     		uxtb	r3, r3
 101 0006 1F2B     		cmp	r3, #31
 102 0008 07D8     		bhi	.L11
 103 000a 70B5     		push	{r4, r5, r6, lr}
 104              		.cfi_def_cfa_offset 16
 105              		.cfi_offset 4, -16
 106              		.cfi_offset 5, -12
 107              		.cfi_offset 6, -8
 108              		.cfi_offset 14, -4
 109 000c 0125     		movs	r5, #1
 110 000e 0C4C     		ldr	r4, .L14
 111 0010 05FA03F3 		lsl	r3, r5, r3
 112 0014 1C40     		ands	r4, r4, r3
 113 0016 0CB9     		cbnz	r4, .L13
 114 0018 70BD     		pop	{r4, r5, r6, pc}
ARM GAS  /tmp/ccUlviZa.s 			page 3


 115              	.L11:
 116              		.cfi_def_cfa_offset 0
 117              		.cfi_restore 4
 118              		.cfi_restore 5
 119              		.cfi_restore 6
 120              		.cfi_restore 14
 121 001a 7047     		bx	lr
 122              	.L13:
 123              		.cfi_def_cfa_offset 16
 124              		.cfi_offset 4, -16
 125              		.cfi_offset 5, -12
 126              		.cfi_offset 6, -8
 127              		.cfi_offset 14, -4
 128 001c 0646     		mov	r6, r0
 129 001e 1546     		mov	r5, r2
 130 0020 0C46     		mov	r4, r1
 131              		.loc 1 110 0
 132 0022 FFF7FEFF 		bl	spiSelect
 133              	.LVL6:
 134              		.loc 1 111 0
 135 0026 074B     		ldr	r3, .L14+4
 136              		.loc 1 113 0
 137 0028 3046     		mov	r0, r6
 138 002a 0221     		movs	r1, #2
 139 002c 1A46     		mov	r2, r3
 140              		.loc 1 111 0
 141 002e 1C70     		strb	r4, [r3]
 142              		.loc 1 112 0
 143 0030 5D70     		strb	r5, [r3, #1]
 144              		.loc 1 113 0
 145 0032 FFF7FEFF 		bl	spiSend
 146              	.LVL7:
 147              		.loc 1 114 0
 148 0036 3046     		mov	r0, r6
 149              		.loc 1 116 0
 150 0038 BDE87040 		pop	{r4, r5, r6, lr}
 151              		.cfi_restore 14
 152              		.cfi_restore 6
 153              		.cfi_restore 5
 154              		.cfi_restore 4
 155              		.cfi_def_cfa_offset 0
 156              	.LVL8:
 157              		.loc 1 114 0
 158 003c FFF7FEBF 		b	spiUnselect
 159              	.LVL9:
 160              	.L15:
 161              		.align	2
 162              	.L14:
 163 0040 0700DDF9 		.word	-102957049
 164 0044 00000000 		.word	.LANCHOR0
 165              		.cfi_endproc
 166              	.LFE259:
 167              		.size	lis302dlWriteRegister, .-lis302dlWriteRegister
 168              		.section	.bss.rxbuf,"aw",%nobits
 169              		.align	2
 170              		.set	.LANCHOR1,. + 0
 171              		.type	rxbuf, %object
ARM GAS  /tmp/ccUlviZa.s 			page 4


 172              		.size	rxbuf, 2
 173              	rxbuf:
 174 0000 0000     		.space	2
 175              		.section	.bss.txbuf,"aw",%nobits
 176              		.align	2
 177              		.set	.LANCHOR0,. + 0
 178              		.type	txbuf, %object
 179              		.size	txbuf, 2
 180              	txbuf:
 181 0000 0000     		.space	2
 182              		.text
 183              	.Letext0:
 184              		.file 2 "/usr/lib/gcc/arm-none-eabi/5.3.1/include/stddef.h"
 185              		.file 3 "/usr/arm-none-eabi/include/machine/_default_types.h"
 186              		.file 4 "/usr/arm-none-eabi/include/sys/_stdint.h"
 187              		.file 5 "/home/selim/working/ChibiOS/os/rt/ports/ARMCMx/compilers/GCC/chtypes.h"
 188              		.file 6 "/home/selim/working/ChibiOS/os/rt/include/chsystypes.h"
 189              		.file 7 "/home/selim/working/ChibiOS/os/rt/include/chschd.h"
 190              		.file 8 "/home/selim/working/ChibiOS/os/ext/CMSIS/ST/stm32f407xx.h"
 191              		.file 9 "/home/selim/working/ChibiOS/os/rt/ports/ARMCMx/chcore.h"
 192              		.file 10 "/home/selim/working/ChibiOS/os/rt/ports/ARMCMx/chcore_v7m.h"
 193              		.file 11 "/home/selim/working/ChibiOS/os/rt/include/chtm.h"
 194              		.file 12 "/home/selim/working/ChibiOS/os/rt/include/chsem.h"
 195              		.file 13 "/home/selim/working/ChibiOS/os/rt/include/chmtx.h"
 196              		.file 14 "/home/selim/working/ChibiOS/os/hal/ports/STM32/STM32F4xx/stm32_dma.h"
 197              		.file 15 "/home/selim/working/ChibiOS/os/hal/ports/STM32/LLD/GPIOv2/pal_lld.h"
 198              		.file 16 "/home/selim/working/ChibiOS/os/hal/include/spi.h"
 199              		.file 17 "/home/selim/working/ChibiOS/os/hal/ports/STM32/LLD/SPIv1/spi_lld.h"
 200              		.file 18 "/home/selim/working/ChibiOS/os/ext/CMSIS/include/core_cm4.h"