ARM GAS  /tmp/cc1RKeCJ.s 			page 1


   1              		.syntax unified
   2              		.cpu cortex-m4
   3              		.fpu softvfp
   4              		.eabi_attribute 20, 1
   5              		.eabi_attribute 21, 1
   6              		.eabi_attribute 23, 3
   7              		.eabi_attribute 24, 1
   8              		.eabi_attribute 25, 1
   9              		.eabi_attribute 26, 1
  10              		.eabi_attribute 30, 2
  11              		.eabi_attribute 34, 1
  12              		.eabi_attribute 18, 4
  13              		.thumb
  14              		.syntax unified
  15              		.file	"main.c"
  16              		.text
  17              	.Ltext0:
  18              		.cfi_sections	.debug_frame
  19              		.section	.text.chprintf,"ax",%progbits
  20              		.align	2
  21              		.p2align 4,,15
  22              		.thumb
  23              		.thumb_func
  24              		.type	chprintf, %function
  25              	chprintf:
  26              	.LFB258:
  27              		.file 1 "/home/selim/working/ChibiOS/os/hal/lib/streams/chprintf.h"
  28              		.loc 1 69 0
  29              		.cfi_startproc
  30              		@ args = 4, pretend = 12, frame = 8
  31              		@ frame_needed = 0, uses_anonymous_args = 1
  32              	.LVL0:
  33 0000 0EB4     		push	{r1, r2, r3}
  34              		.cfi_def_cfa_offset 12
  35              		.cfi_offset 1, -12
  36              		.cfi_offset 2, -8
  37              		.cfi_offset 3, -4
  38 0002 00B5     		push	{lr}
  39              		.cfi_def_cfa_offset 16
  40              		.cfi_offset 14, -16
  41 0004 82B0     		sub	sp, sp, #8
  42              		.cfi_def_cfa_offset 24
  43              		.loc 1 69 0
  44 0006 03AA     		add	r2, sp, #12
  45 0008 52F8041B 		ldr	r1, [r2], #4
  46              		.loc 1 73 0
  47 000c 0192     		str	r2, [sp, #4]
  48              		.loc 1 74 0
  49 000e FFF7FEFF 		bl	chvprintf
  50              	.LVL1:
  51              		.loc 1 78 0
  52 0012 02B0     		add	sp, sp, #8
  53              		.cfi_def_cfa_offset 16
  54              		@ sp needed
  55 0014 5DF804EB 		ldr	lr, [sp], #4
  56              		.cfi_restore 14
  57              		.cfi_def_cfa_offset 12
ARM GAS  /tmp/cc1RKeCJ.s 			page 2


  58 0018 03B0     		add	sp, sp, #12
  59              		.cfi_restore 3
  60              		.cfi_restore 2
  61              		.cfi_restore 1
  62              		.cfi_def_cfa_offset 0
  63 001a 7047     		bx	lr
  64              		.cfi_endproc
  65              	.LFE258:
  66              		.size	chprintf, .-chprintf
  67              		.section	.text.ThreadSBUS,"ax",%progbits
  68              		.align	2
  69              		.p2align 4,,15
  70              		.thumb
  71              		.thumb_func
  72              		.type	ThreadSBUS, %function
  73              	ThreadSBUS:
  74              	.LFB264:
  75              		.file 2 "main.c"
  76              		.loc 2 294 0
  77              		.cfi_startproc
  78              		@ args = 0, pretend = 0, frame = 24
  79              		@ frame_needed = 0, uses_anonymous_args = 0
  80              	.LVL2:
  81 0000 2DE9F041 		push	{r4, r5, r6, r7, r8, lr}
  82              		.cfi_def_cfa_offset 24
  83              		.cfi_offset 4, -24
  84              		.cfi_offset 5, -20
  85              		.cfi_offset 6, -16
  86              		.cfi_offset 7, -12
  87              		.cfi_offset 8, -8
  88              		.cfi_offset 14, -4
  89              		.loc 2 296 0
  90 0004 44F62060 		movw	r0, #20000
  91              	.LVL3:
  92              		.loc 2 294 0
  93 0008 88B0     		sub	sp, sp, #32
  94              		.cfi_def_cfa_offset 56
  95 000a 294C     		ldr	r4, .L9
  96 000c 294F     		ldr	r7, .L9+4
  97 000e 2A4E     		ldr	r6, .L9+8
  98              		.loc 2 296 0
  99 0010 FFF7FEFF 		bl	chThdSleep
 100              	.LVL4:
 101              	.LBB63:
 102              		.loc 2 325 0
 103 0014 A046     		mov	r8, r4
 104              	.L4:
 105 0016 2368     		ldr	r3, [r4]
 106 0018 2548     		ldr	r0, .L9
 107 001a DB68     		ldr	r3, [r3, #12]
 108 001c 9847     		blx	r3
 109              	.LVL5:
 110              		.loc 2 326 0
 111 001e 0F28     		cmp	r0, #15
 112 0020 F9D1     		bne	.L4
 113              	.LBB64:
 114              		.loc 2 327 0
ARM GAS  /tmp/cc1RKeCJ.s 			page 3


 115 0022 D8F80030 		ldr	r3, [r8]
 116 0026 2248     		ldr	r0, .L9
 117              	.LVL6:
 118 0028 5B68     		ldr	r3, [r3, #4]
 119 002a 02A9     		add	r1, sp, #8
 120 002c 1822     		movs	r2, #24
 121 002e 9847     		blx	r3
 122              	.LVL7:
 123              		.loc 2 329 0
 124 0030 BDF80820 		ldrh	r2, [sp, #8]
 125 0034 3978     		ldrb	r1, [r7]	@ zero_extendqisi2
 126 0036 3068     		ldr	r0, [r6]
 127 0038 C2F30A02 		ubfx	r2, r2, #0, #11
 128 003c FFF7FEFF 		bl	pwmEnableChannel
 129              	.LVL8:
 130              		.loc 2 330 0
 131 0040 029A     		ldr	r2, [sp, #8]
 132 0042 3979     		ldrb	r1, [r7, #4]	@ zero_extendqisi2
 133 0044 7068     		ldr	r0, [r6, #4]
 134 0046 C2F3CA22 		ubfx	r2, r2, #11, #11
 135 004a FFF7FEFF 		bl	pwmEnableChannel
 136              	.LVL9:
 137              		.loc 2 331 0
 138 004e 9DF80C30 		ldrb	r3, [sp, #12]	@ zero_extendqisi2
 139 0052 BDF80A20 		ldrh	r2, [sp, #10]
 140 0056 397A     		ldrb	r1, [r7, #8]	@ zero_extendqisi2
 141 0058 B068     		ldr	r0, [r6, #8]
 142 005a 03F00103 		and	r3, r3, #1
 143 005e 9B02     		lsls	r3, r3, #10
 144 0060 43EA9212 		orr	r2, r3, r2, lsr #6
 145 0064 FFF7FEFF 		bl	pwmEnableChannel
 146              	.LVL10:
 147              		.loc 2 332 0
 148 0068 BDF80C20 		ldrh	r2, [sp, #12]
 149 006c 397B     		ldrb	r1, [r7, #12]	@ zero_extendqisi2
 150 006e F068     		ldr	r0, [r6, #12]
 151 0070 C2F34A02 		ubfx	r2, r2, #1, #11
 152 0074 FFF7FEFF 		bl	pwmEnableChannel
 153              	.LVL11:
 154              		.loc 2 338 0
 155 0078 9DF80C50 		ldrb	r5, [sp, #12]	@ zero_extendqisi2
 156 007c BDF80AC0 		ldrh	ip, [sp, #10]
 157              		.loc 2 339 0
 158 0080 BDF80C20 		ldrh	r2, [sp, #12]
 159              		.loc 2 337 0
 160 0084 029B     		ldr	r3, [sp, #8]
 161              		.loc 2 336 0
 162 0086 BDF808E0 		ldrh	lr, [sp, #8]
 163              		.loc 2 335 0
 164 008a 0C49     		ldr	r1, .L9+12
 165 008c 0C48     		ldr	r0, .L9+16
 166              		.loc 2 338 0
 167 008e 05F00105 		and	r5, r5, #1
 168 0092 AD02     		lsls	r5, r5, #10
 169              		.loc 2 335 0
 170 0094 45EA9C15 		orr	r5, r5, ip, lsr #6
 171 0098 C2F34A02 		ubfx	r2, r2, #1, #11
ARM GAS  /tmp/cc1RKeCJ.s 			page 4


 172 009c 0192     		str	r2, [sp, #4]
 173 009e 0095     		str	r5, [sp]
 174 00a0 C3F3CA23 		ubfx	r3, r3, #11, #11
 175 00a4 CEF30A02 		ubfx	r2, lr, #0, #11
 176 00a8 FFF7FEFF 		bl	chprintf
 177              	.LVL12:
 178 00ac B3E7     		b	.L4
 179              	.L10:
 180 00ae 00BF     		.align	2
 181              	.L9:
 182 00b0 00000000 		.word	SD2
 183 00b4 00000000 		.word	.LANCHOR0
 184 00b8 00000000 		.word	.LANCHOR1
 185 00bc 00000000 		.word	.LC0
 186 00c0 00000000 		.word	.LANCHOR2
 187              	.LBE64:
 188              	.LBE63:
 189              		.cfi_endproc
 190              	.LFE264:
 191              		.size	ThreadSBUS, .-ThreadSBUS
 192              		.section	.text.Thread1,"ax",%progbits
 193              		.align	2
 194              		.p2align 4,,15
 195              		.thumb
 196              		.thumb_func
 197              		.type	Thread1, %function
 198              	Thread1:
 199              	.LFB263:
 200              		.loc 2 239 0
 201              		.cfi_startproc
 202              		@ args = 0, pretend = 0, frame = 0
 203              		@ frame_needed = 0, uses_anonymous_args = 0
 204              	.LVL13:
 205 0000 F8B5     		push	{r3, r4, r5, r6, r7, lr}
 206              		.cfi_def_cfa_offset 24
 207              		.cfi_offset 3, -24
 208              		.cfi_offset 4, -20
 209              		.cfi_offset 5, -16
 210              		.cfi_offset 6, -12
 211              		.cfi_offset 7, -8
 212              		.cfi_offset 14, -4
 213              		.loc 2 244 0
 214 0002 264B     		ldr	r3, .L16
 215 0004 264A     		ldr	r2, .L16+4
 216 0006 9B69     		ldr	r3, [r3, #24]
 217              		.loc 2 247 0
 218 0008 2648     		ldr	r0, .L16+8
 219              	.LVL14:
 220              		.loc 2 244 0
 221 000a 9A61     		str	r2, [r3, #24]
 222              		.loc 2 247 0
 223 000c 2021     		movs	r1, #32
 224 000e 4322     		movs	r2, #67
 225 0010 FFF7FEFF 		bl	lis302dlWriteRegister
 226              	.LVL15:
 227              		.loc 2 248 0
 228 0014 0022     		movs	r2, #0
ARM GAS  /tmp/cc1RKeCJ.s 			page 5


 229 0016 2121     		movs	r1, #33
 230 0018 2248     		ldr	r0, .L16+8
 231 001a FFF7FEFF 		bl	lis302dlWriteRegister
 232              	.LVL16:
 233              		.loc 2 249 0
 234 001e 0022     		movs	r2, #0
 235 0020 2221     		movs	r1, #34
 236 0022 2048     		ldr	r0, .L16+8
 237 0024 FFF7FEFF 		bl	lis302dlWriteRegister
 238              	.LVL17:
 239              	.LBB65:
 240              	.LBB66:
 241              	.LBB67:
 242              	.LBB68:
 243              	.LBB69:
 244              	.LBB70:
 245              		.file 3 "/home/selim/working/ChibiOS/os/ext/CMSIS/include/core_cmFunc.h"
 246              		.loc 3 546 0
 247 0028 2023     		movs	r3, #32
 248              		.syntax unified
 249              	@ 546 "/home/selim/working/ChibiOS/os/ext/CMSIS/include/core_cmFunc.h" 1
 250 002a 83F31188 		MSR basepri, r3
 251              	@ 0 "" 2
 252              	.LVL18:
 253              		.thumb
 254              		.syntax unified
 255              	.LBE70:
 256              	.LBE69:
 257              	.LBE68:
 258              	.LBE67:
 259              	.LBB71:
 260              	.LBB72:
 261              	.LBB73:
 262              	.LBB74:
 263              		.file 4 "/home/selim/working/ChibiOS/os/hal/ports/STM32/LLD/TIMv1/st_lld.h"
 264              		.loc 4 129 0
 265 002e 4FF08042 		mov	r2, #1073741824
 266              	.LBE74:
 267              	.LBE73:
 268              	.LBE72:
 269              	.LBE71:
 270              	.LBB78:
 271              	.LBB79:
 272              	.LBB80:
 273              	.LBB81:
 274              	.LBB82:
 275              		.loc 3 546 0
 276 0032 0023     		movs	r3, #0
 277              	.LBE82:
 278              	.LBE81:
 279              	.LBE80:
 280              	.LBE79:
 281              	.LBE78:
 282              	.LBB87:
 283              	.LBB77:
 284              	.LBB76:
 285              	.LBB75:
ARM GAS  /tmp/cc1RKeCJ.s 			page 6


 286              		.loc 4 129 0
 287 0034 556A     		ldr	r5, [r2, #36]
 288              	.LVL19:
 289              	.LBE75:
 290              	.LBE76:
 291              	.LBE77:
 292              	.LBE87:
 293              	.LBB88:
 294              	.LBB86:
 295              	.LBB85:
 296              	.LBB84:
 297              	.LBB83:
 298              		.loc 3 546 0
 299              		.syntax unified
 300              	@ 546 "/home/selim/working/ChibiOS/os/ext/CMSIS/include/core_cmFunc.h" 1
 301 0036 83F31188 		MSR basepri, r3
 302              	@ 0 "" 2
 303              	.LVL20:
 304              		.thumb
 305              		.syntax unified
 306 003a 1B4F     		ldr	r7, .L16+12
 307 003c 1B4E     		ldr	r6, .L16+16
 308              	.L13:
 309              	.LVL21:
 310 003e 1C49     		ldr	r1, .L16+20
 311 0040 1C4A     		ldr	r2, .L16+24
 312 0042 4C1C     		adds	r4, r1, #1
 313 0044 501C     		adds	r0, r2, #1
 314              	.LBE83:
 315              	.LBE84:
 316              	.LBE85:
 317              	.LBE86:
 318              	.LBE88:
 319              	.LBE66:
 320              	.LBE65:
 321              	.LBB89:
 322              		.loc 2 258 0
 323 0046 0323     		movs	r3, #3
 324              	.LVL22:
 325              	.L12:
 326              		.loc 2 259 0 discriminator 3
 327 0048 11F901CD 		ldrsb	ip, [r1, #-1]!
 328              		.loc 2 260 0 discriminator 3
 329 004c 12F901ED 		ldrsb	lr, [r2, #-1]!
 330              		.loc 2 259 0 discriminator 3
 331 0050 04F801CD 		strb	ip, [r4, #-1]!
 332              		.loc 2 258 0 discriminator 3
 333 0054 013B     		subs	r3, r3, #1
 334              	.LVL23:
 335              		.loc 2 260 0 discriminator 3
 336 0056 00F801ED 		strb	lr, [r0, #-1]!
 337              	.LVL24:
 338              		.loc 2 258 0 discriminator 3
 339 005a F5D1     		bne	.L12
 340              		.loc 2 264 0
 341 005c 2921     		movs	r1, #41
 342 005e 1148     		ldr	r0, .L16+8
ARM GAS  /tmp/cc1RKeCJ.s 			page 7


 343 0060 FFF7FEFF 		bl	lis302dlReadRegister
 344              	.LVL25:
 345              		.loc 2 265 0
 346 0064 2B21     		movs	r1, #43
 347              		.loc 2 264 0
 348 0066 3870     		strb	r0, [r7]
 349              		.loc 2 265 0
 350 0068 0E48     		ldr	r0, .L16+8
 351 006a FFF7FEFF 		bl	lis302dlReadRegister
 352              	.LVL26:
 353 006e 3070     		strb	r0, [r6]
 354              		.loc 2 268 0
 355 0070 1148     		ldr	r0, .L16+28
 356 0072 FFF7FEFF 		bl	spiSelect
 357              	.LVL27:
 358              		.loc 2 269 0
 359 0076 0C4A     		ldr	r2, .L16+12
 360 0078 0F48     		ldr	r0, .L16+28
 361 007a 0421     		movs	r1, #4
 362 007c FFF7FEFF 		bl	spiSend
 363              	.LVL28:
 364              		.loc 2 270 0
 365 0080 0A4A     		ldr	r2, .L16+16
 366 0082 0D48     		ldr	r0, .L16+28
 367 0084 0421     		movs	r1, #4
 368 0086 FFF7FEFF 		bl	spiSend
 369              	.LVL29:
 370              		.loc 2 280 0
 371 008a 05F57A75 		add	r5, r5, #1000
 372              	.LVL30:
 373              		.loc 2 271 0
 374 008e 0A48     		ldr	r0, .L16+28
 375 0090 FFF7FEFF 		bl	spiUnselect
 376              	.LVL31:
 377              		.loc 2 280 0
 378 0094 2846     		mov	r0, r5
 379 0096 FFF7FEFF 		bl	chThdSleepUntil
 380              	.LVL32:
 381              	.LBE89:
 382              		.loc 2 281 0
 383 009a D0E7     		b	.L13
 384              	.L17:
 385              		.align	2
 386              	.L16:
 387 009c 00000000 		.word	ch
 388 00a0 10000000 		.word	.LC1
 389 00a4 00000000 		.word	SPID1
 390 00a8 00000000 		.word	.LANCHOR3
 391 00ac 00000000 		.word	.LANCHOR4
 392 00b0 03000000 		.word	.LANCHOR3+3
 393 00b4 03000000 		.word	.LANCHOR4+3
 394 00b8 00000000 		.word	SPID2
 395              		.cfi_endproc
 396              	.LFE263:
 397              		.size	Thread1, .-Thread1
 398              		.section	.text.command_set_pwm,"ax",%progbits
 399              		.align	2
ARM GAS  /tmp/cc1RKeCJ.s 			page 8


 400              		.p2align 4,,15
 401              		.thumb
 402              		.thumb_func
 403              		.type	command_set_pwm, %function
 404              	command_set_pwm:
 405              	.LFB262:
 406              		.loc 2 122 0
 407              		.cfi_startproc
 408              		@ args = 0, pretend = 0, frame = 0
 409              		@ frame_needed = 0, uses_anonymous_args = 0
 410              	.LVL33:
 411              		.loc 2 124 0
 412 0000 0229     		cmp	r1, #2
 413 0002 02D0     		beq	.L19
 414              		.loc 2 126 0
 415 0004 1549     		ldr	r1, .L25
 416              	.LVL34:
 417 0006 FFF7FEBF 		b	chprintf
 418              	.LVL35:
 419              	.L19:
 420              		.loc 2 122 0
 421 000a 70B5     		push	{r4, r5, r6, lr}
 422              		.cfi_def_cfa_offset 16
 423              		.cfi_offset 4, -16
 424              		.cfi_offset 5, -12
 425              		.cfi_offset 6, -8
 426              		.cfi_offset 14, -4
 427 000c 1446     		mov	r4, r2
 428              	.LBB92:
 429              	.LBB93:
 430              		.loc 2 130 0
 431 000e 0022     		movs	r2, #0
 432              	.LVL36:
 433 0010 0546     		mov	r5, r0
 434              	.LVL37:
 435 0012 1146     		mov	r1, r2
 436              	.LVL38:
 437 0014 2068     		ldr	r0, [r4]
 438              	.LVL39:
 439 0016 FFF7FEFF 		bl	strtol
 440              	.LVL40:
 441              		.loc 2 132 0
 442 001a 0B28     		cmp	r0, #11
 443              		.loc 2 130 0
 444 001c 0646     		mov	r6, r0
 445              	.LVL41:
 446              		.loc 2 132 0
 447 001e 17D8     		bhi	.L23
 448              		.loc 2 138 0
 449 0020 0022     		movs	r2, #0
 450 0022 1146     		mov	r1, r2
 451 0024 6068     		ldr	r0, [r4, #4]
 452              	.LVL42:
 453 0026 FFF7FEFF 		bl	strtol
 454              	.LVL43:
 455              		.loc 2 139 0
 456 002a 6428     		cmp	r0, #100
ARM GAS  /tmp/cc1RKeCJ.s 			page 9


 457              		.loc 2 138 0
 458 002c 0246     		mov	r2, r0
 459              	.LVL44:
 460              		.loc 2 139 0
 461 002e 09D8     		bhi	.L24
 462              		.loc 2 145 0
 463 0030 0B49     		ldr	r1, .L25+4
 464 0032 0C4B     		ldr	r3, .L25+8
 465 0034 11F82610 		ldrb	r1, [r1, r6, lsl #2]	@ zero_extendqisi2
 466 0038 53F82600 		ldr	r0, [r3, r6, lsl #2]
 467              	.LVL45:
 468              	.LBE93:
 469              	.LBE92:
 470              		.loc 2 168 0
 471 003c BDE87040 		pop	{r4, r5, r6, lr}
 472              		.cfi_remember_state
 473              		.cfi_restore 14
 474              		.cfi_restore 6
 475              		.cfi_restore 5
 476              		.cfi_restore 4
 477              		.cfi_def_cfa_offset 0
 478              	.LVL46:
 479              	.LBB97:
 480              	.LBB94:
 481              		.loc 2 145 0
 482 0040 FFF7FEBF 		b	pwmEnableChannel
 483              	.LVL47:
 484              	.L24:
 485              		.cfi_restore_state
 486              		.loc 2 141 0
 487 0044 2846     		mov	r0, r5
 488              	.LVL48:
 489 0046 0849     		ldr	r1, .L25+12
 490              	.LBE94:
 491              	.LBE97:
 492              		.loc 2 168 0
 493 0048 BDE87040 		pop	{r4, r5, r6, lr}
 494              		.cfi_remember_state
 495              		.cfi_restore 14
 496              		.cfi_restore 6
 497              		.cfi_restore 5
 498              		.cfi_restore 4
 499              		.cfi_def_cfa_offset 0
 500              	.LVL49:
 501              	.LBB98:
 502              	.LBB95:
 503              		.loc 2 141 0
 504 004c FFF7FEBF 		b	chprintf
 505              	.LVL50:
 506              	.L23:
 507              		.cfi_restore_state
 508              		.loc 2 134 0
 509 0050 2846     		mov	r0, r5
 510              	.LVL51:
 511 0052 0649     		ldr	r1, .L25+16
 512              	.LBE95:
 513              	.LBE98:
ARM GAS  /tmp/cc1RKeCJ.s 			page 10


 514              		.loc 2 168 0
 515 0054 BDE87040 		pop	{r4, r5, r6, lr}
 516              		.cfi_restore 14
 517              		.cfi_restore 6
 518              		.cfi_restore 5
 519              		.cfi_restore 4
 520              		.cfi_def_cfa_offset 0
 521              	.LVL52:
 522              	.LBB99:
 523              	.LBB96:
 524              		.loc 2 134 0
 525 0058 FFF7FEBF 		b	chprintf
 526              	.LVL53:
 527              	.L26:
 528              		.align	2
 529              	.L25:
 530 005c 18000000 		.word	.LC2
 531 0060 00000000 		.word	.LANCHOR0
 532 0064 00000000 		.word	.LANCHOR1
 533 0068 9C000000 		.word	.LC4
 534 006c 74000000 		.word	.LC3
 535              	.LBE96:
 536              	.LBE99:
 537              		.cfi_endproc
 538              	.LFE262:
 539              		.size	command_set_pwm, .-command_set_pwm
 540              		.section	.text.cmd_test,"ax",%progbits
 541              		.align	2
 542              		.p2align 4,,15
 543              		.thumb
 544              		.thumb_func
 545              		.type	cmd_test, %function
 546              	cmd_test:
 547              	.LFB261:
 548              		.loc 2 73 0
 549              		.cfi_startproc
 550              		@ args = 0, pretend = 0, frame = 0
 551              		@ frame_needed = 0, uses_anonymous_args = 0
 552              	.LVL54:
 553              		.loc 2 77 0
 554 0000 0029     		cmp	r1, #0
 555 0002 02DD     		ble	.L28
 556              		.loc 2 78 0
 557 0004 0E49     		ldr	r1, .L32
 558              	.LVL55:
 559 0006 FFF7FEBF 		b	chprintf
 560              	.LVL56:
 561              	.L28:
 562              		.loc 2 73 0
 563 000a 10B5     		push	{r4, lr}
 564              		.cfi_def_cfa_offset 8
 565              		.cfi_offset 4, -8
 566              		.cfi_offset 14, -4
 567              	.LBB106:
 568              	.LBB107:
 569              	.LBB108:
 570              	.LBB109:
ARM GAS  /tmp/cc1RKeCJ.s 			page 11


 571              	.LBB110:
 572              	.LBB111:
 573              		.file 5 "/home/selim/working/ChibiOS/os/rt/include/chthreads.h"
 574              		.loc 5 176 0
 575 000c 0D4A     		ldr	r2, .L32+4
 576              	.LVL57:
 577              	.LBE111:
 578              	.LBE110:
 579              	.LBE109:
 580              	.LBE108:
 581              		.loc 2 81 0
 582 000e 0E4B     		ldr	r3, .L32+8
 583              	.LBB113:
 584              	.LBB112:
 585              		.loc 5 189 0
 586 0010 9269     		ldr	r2, [r2, #24]
 587              	.LBE112:
 588              	.LBE113:
 589              	.LBE107:
 590              	.LBE106:
 591              		.loc 2 73 0
 592 0012 82B0     		sub	sp, sp, #8
 593              		.cfi_def_cfa_offset 16
 594 0014 0446     		mov	r4, r0
 595              	.LBB117:
 596              	.LBB114:
 597              		.loc 2 81 0
 598 0016 9268     		ldr	r2, [r2, #8]
 599 0018 0090     		str	r0, [sp]
 600 001a 4FF4E471 		mov	r1, #456
 601              	.LVL58:
 602 001e 0020     		movs	r0, #0
 603              	.LVL59:
 604 0020 FFF7FEFF 		bl	chThdCreateFromHeap
 605              	.LVL60:
 606              		.loc 2 83 0
 607 0024 20B1     		cbz	r0, .L31
 608              	.LBE114:
 609              	.LBE117:
 610              		.loc 2 88 0
 611 0026 02B0     		add	sp, sp, #8
 612              		.cfi_remember_state
 613              		.cfi_def_cfa_offset 8
 614              		@ sp needed
 615 0028 BDE81040 		pop	{r4, lr}
 616              		.cfi_restore 14
 617              		.cfi_restore 4
 618              		.cfi_def_cfa_offset 0
 619              	.LVL61:
 620              	.LBB118:
 621              	.LBB115:
 622              		.loc 2 87 0
 623 002c FFF7FEBF 		b	chThdWait
 624              	.LVL62:
 625              	.L31:
 626              		.cfi_restore_state
 627              		.loc 2 84 0
ARM GAS  /tmp/cc1RKeCJ.s 			page 12


 628 0030 0649     		ldr	r1, .L32+12
 629 0032 2046     		mov	r0, r4
 630              	.LVL63:
 631              	.LBE115:
 632              	.LBE118:
 633              		.loc 2 88 0
 634 0034 02B0     		add	sp, sp, #8
 635              		.cfi_def_cfa_offset 8
 636              		@ sp needed
 637 0036 BDE81040 		pop	{r4, lr}
 638              		.cfi_restore 14
 639              		.cfi_restore 4
 640              		.cfi_def_cfa_offset 0
 641              	.LVL64:
 642              	.LBB119:
 643              	.LBB116:
 644              		.loc 2 84 0
 645 003a FFF7FEBF 		b	chprintf
 646              	.LVL65:
 647              	.L33:
 648 003e 00BF     		.align	2
 649              	.L32:
 650 0040 B8000000 		.word	.LC5
 651 0044 00000000 		.word	ch
 652 0048 00000000 		.word	TestThread
 653 004c C8000000 		.word	.LC6
 654              	.LBE116:
 655              	.LBE119:
 656              		.cfi_endproc
 657              	.LFE261:
 658              		.size	cmd_test, .-cmd_test
 659              		.section	.text.cmd_threads,"ax",%progbits
 660              		.align	2
 661              		.p2align 4,,15
 662              		.thumb
 663              		.thumb_func
 664              		.type	cmd_threads, %function
 665              	cmd_threads:
 666              	.LFB260:
 667              		.loc 2 53 0
 668              		.cfi_startproc
 669              		@ args = 0, pretend = 0, frame = 0
 670              		@ frame_needed = 0, uses_anonymous_args = 0
 671              	.LVL66:
 672              		.loc 2 58 0
 673 0000 0029     		cmp	r1, #0
 674 0002 02DD     		ble	.L35
 675              		.loc 2 59 0
 676 0004 1149     		ldr	r1, .L39
 677              	.LVL67:
 678 0006 FFF7FEBF 		b	chprintf
 679              	.LVL68:
 680              	.L35:
 681              		.loc 2 53 0
 682 000a 70B5     		push	{r4, r5, r6, lr}
 683              		.cfi_def_cfa_offset 16
 684              		.cfi_offset 4, -16
ARM GAS  /tmp/cc1RKeCJ.s 			page 13


 685              		.cfi_offset 5, -12
 686              		.cfi_offset 6, -8
 687              		.cfi_offset 14, -4
 688              	.LBB122:
 689              	.LBB123:
 690              		.loc 2 62 0
 691 000c 1049     		ldr	r1, .L39+4
 692              	.LVL69:
 693 000e 114E     		ldr	r6, .L39+8
 694              	.LBE123:
 695              	.LBE122:
 696              		.loc 2 53 0
 697 0010 84B0     		sub	sp, sp, #16
 698              		.cfi_def_cfa_offset 32
 699 0012 0546     		mov	r5, r0
 700              	.LVL70:
 701              	.LBB125:
 702              	.LBB124:
 703              		.loc 2 62 0
 704 0014 FFF7FEFF 		bl	chprintf
 705              	.LVL71:
 706              		.loc 2 63 0
 707 0018 FFF7FEFF 		bl	chRegFirstThread
 708              	.LVL72:
 709 001c 0446     		mov	r4, r0
 710              	.LVL73:
 711              	.L36:
 712              		.loc 2 65 0
 713 001e 227F     		ldrb	r2, [r4, #28]	@ zero_extendqisi2
 714 0020 E368     		ldr	r3, [r4, #12]
 715 0022 56F82220 		ldr	r2, [r6, r2, lsl #2]
 716 0026 0292     		str	r2, [sp, #8]
 717 0028 A27F     		ldrb	r2, [r4, #30]	@ zero_extendqisi2
 718 002a 0B49     		ldr	r1, .L39+12
 719 002c 013A     		subs	r2, r2, #1
 720 002e 0192     		str	r2, [sp, #4]
 721 0030 A268     		ldr	r2, [r4, #8]
 722 0032 0092     		str	r2, [sp]
 723 0034 2846     		mov	r0, r5
 724              	.LVL74:
 725 0036 2246     		mov	r2, r4
 726 0038 FFF7FEFF 		bl	chprintf
 727              	.LVL75:
 728              		.loc 2 69 0
 729 003c 2046     		mov	r0, r4
 730 003e FFF7FEFF 		bl	chRegNextThread
 731              	.LVL76:
 732              		.loc 2 70 0
 733 0042 0446     		mov	r4, r0
 734 0044 0028     		cmp	r0, #0
 735 0046 EAD1     		bne	.L36
 736              	.LBE124:
 737              	.LBE125:
 738              		.loc 2 71 0
 739 0048 04B0     		add	sp, sp, #16
 740              		.cfi_def_cfa_offset 16
 741              		@ sp needed
ARM GAS  /tmp/cc1RKeCJ.s 			page 14


 742 004a 70BD     		pop	{r4, r5, r6, pc}
 743              	.LVL77:
 744              	.L40:
 745              		.align	2
 746              	.L39:
 747 004c D8000000 		.word	.LC7
 748 0050 EC000000 		.word	.LC8
 749 0054 00000000 		.word	.LANCHOR5
 750 0058 14010000 		.word	.LC9
 751              		.cfi_endproc
 752              	.LFE260:
 753              		.size	cmd_threads, .-cmd_threads
 754              		.section	.text.cmd_mem,"ax",%progbits
 755              		.align	2
 756              		.p2align 4,,15
 757              		.thumb
 758              		.thumb_func
 759              		.type	cmd_mem, %function
 760              	cmd_mem:
 761              	.LFB259:
 762              		.loc 2 39 0
 763              		.cfi_startproc
 764              		@ args = 0, pretend = 0, frame = 8
 765              		@ frame_needed = 0, uses_anonymous_args = 0
 766              	.LVL78:
 767 0000 30B5     		push	{r4, r5, lr}
 768              		.cfi_def_cfa_offset 12
 769              		.cfi_offset 4, -12
 770              		.cfi_offset 5, -8
 771              		.cfi_offset 14, -4
 772              		.loc 2 43 0
 773 0002 0029     		cmp	r1, #0
 774              		.loc 2 39 0
 775 0004 83B0     		sub	sp, sp, #12
 776              		.cfi_def_cfa_offset 24
 777              		.loc 2 43 0
 778 0006 04DD     		ble	.L42
 779              		.loc 2 44 0
 780 0008 0E49     		ldr	r1, .L45
 781              	.LVL79:
 782 000a FFF7FEFF 		bl	chprintf
 783              	.LVL80:
 784              		.loc 2 51 0
 785 000e 03B0     		add	sp, sp, #12
 786              		.cfi_remember_state
 787              		.cfi_def_cfa_offset 12
 788              		@ sp needed
 789 0010 30BD     		pop	{r4, r5, pc}
 790              	.LVL81:
 791              	.L42:
 792              		.cfi_restore_state
 793 0012 0446     		mov	r4, r0
 794              	.LVL82:
 795              	.LBB128:
 796              	.LBB129:
 797              		.loc 2 47 0
 798 0014 01A9     		add	r1, sp, #4
ARM GAS  /tmp/cc1RKeCJ.s 			page 15


 799              	.LVL83:
 800 0016 0020     		movs	r0, #0
 801              	.LVL84:
 802 0018 FFF7FEFF 		bl	chHeapStatus
 803              	.LVL85:
 804 001c 0546     		mov	r5, r0
 805              	.LVL86:
 806              		.loc 2 48 0
 807 001e FFF7FEFF 		bl	chCoreGetStatusX
 808              	.LVL87:
 809 0022 0949     		ldr	r1, .L45+4
 810 0024 0246     		mov	r2, r0
 811 0026 2046     		mov	r0, r4
 812 0028 FFF7FEFF 		bl	chprintf
 813              	.LVL88:
 814              		.loc 2 49 0
 815 002c 2A46     		mov	r2, r5
 816 002e 0749     		ldr	r1, .L45+8
 817 0030 2046     		mov	r0, r4
 818 0032 FFF7FEFF 		bl	chprintf
 819              	.LVL89:
 820              		.loc 2 50 0
 821 0036 2046     		mov	r0, r4
 822 0038 019A     		ldr	r2, [sp, #4]
 823 003a 0549     		ldr	r1, .L45+12
 824 003c FFF7FEFF 		bl	chprintf
 825              	.LVL90:
 826              	.LBE129:
 827              	.LBE128:
 828              		.loc 2 51 0
 829 0040 03B0     		add	sp, sp, #12
 830              		.cfi_def_cfa_offset 12
 831              		@ sp needed
 832 0042 30BD     		pop	{r4, r5, pc}
 833              	.LVL91:
 834              	.L46:
 835              		.align	2
 836              	.L45:
 837 0044 30010000 		.word	.LC10
 838 0048 40010000 		.word	.LC11
 839 004c 60010000 		.word	.LC12
 840 0050 78010000 		.word	.LC13
 841              		.cfi_endproc
 842              	.LFE259:
 843              		.size	cmd_mem, .-cmd_mem
 844              		.section	.text.startup.main,"ax",%progbits
 845              		.align	2
 846              		.p2align 4,,15
 847              		.global	main
 848              		.thumb
 849              		.thumb_func
 850              		.type	main, %function
 851              	main:
 852              	.LFB265:
 853              		.loc 2 353 0
 854              		.cfi_startproc
 855              		@ args = 0, pretend = 0, frame = 0
ARM GAS  /tmp/cc1RKeCJ.s 			page 16


 856              		@ frame_needed = 0, uses_anonymous_args = 0
 857              	.LVL92:
 858 0000 70B5     		push	{r4, r5, r6, lr}
 859              		.cfi_def_cfa_offset 16
 860              		.cfi_offset 4, -16
 861              		.cfi_offset 5, -12
 862              		.cfi_offset 6, -8
 863              		.cfi_offset 14, -4
 864 0002 8E4D     		ldr	r5, .L54
 865              		.loc 2 375 0
 866 0004 8E4E     		ldr	r6, .L54+4
 867              		.loc 2 409 0
 868 0006 8F4C     		ldr	r4, .L54+8
 869              		.loc 2 353 0
 870 0008 82B0     		sub	sp, sp, #8
 871              		.cfi_def_cfa_offset 24
 872              		.loc 2 363 0
 873 000a FFF7FEFF 		bl	halInit
 874              	.LVL93:
 875              		.loc 2 364 0
 876 000e FFF7FEFF 		bl	chSysInit
 877              	.LVL94:
 878              		.loc 2 369 0
 879 0012 FFF7FEFF 		bl	shellInit
 880              	.LVL95:
 881              		.loc 2 374 0
 882 0016 2846     		mov	r0, r5
 883 0018 FFF7FEFF 		bl	sduObjectInit
 884              	.LVL96:
 885              		.loc 2 375 0
 886 001c 3146     		mov	r1, r6
 887 001e 2846     		mov	r0, r5
 888 0020 FFF7FEFF 		bl	sduStart
 889              	.LVL97:
 890              		.loc 2 382 0
 891 0024 3368     		ldr	r3, [r6]
 892 0026 1A6D     		ldr	r2, [r3, #80]
 893 0028 936B     		ldr	r3, [r2, #56]
 894 002a 23F40023 		bic	r3, r3, #524288
 895 002e 9363     		str	r3, [r2, #56]
 896              		.loc 2 383 0
 897 0030 42F21070 		movw	r0, #10000
 898 0034 FFF7FEFF 		bl	chThdSleep
 899              	.LVL98:
 900              		.loc 2 384 0
 901 0038 3068     		ldr	r0, [r6]
 902 003a 8349     		ldr	r1, .L54+12
 903 003c FFF7FEFF 		bl	usbStart
 904              	.LVL99:
 905              		.loc 2 385 0
 906 0040 3368     		ldr	r3, [r6]
 907              		.loc 2 391 0
 908 0042 8249     		ldr	r1, .L54+16
 909              		.loc 2 385 0
 910 0044 1A6D     		ldr	r2, [r3, #80]
 911              		.loc 2 391 0
 912 0046 8248     		ldr	r0, .L54+20
ARM GAS  /tmp/cc1RKeCJ.s 			page 17


 913              		.loc 2 385 0
 914 0048 936B     		ldr	r3, [r2, #56]
 915 004a 43F40023 		orr	r3, r3, #524288
 916 004e 9363     		str	r3, [r2, #56]
 917              		.loc 2 391 0
 918 0050 FFF7FEFF 		bl	sdStart
 919              	.LVL100:
 920              		.loc 2 392 0
 921 0054 40F28232 		movw	r2, #898
 922 0058 2021     		movs	r1, #32
 923 005a 7E48     		ldr	r0, .L54+24
 924 005c FFF7FEFF 		bl	_pal_lld_setgroupmode
 925              	.LVL101:
 926              		.loc 2 393 0
 927 0060 40F28232 		movw	r2, #898
 928 0064 4021     		movs	r1, #64
 929 0066 7B48     		ldr	r0, .L54+24
 930 0068 FFF7FEFF 		bl	_pal_lld_setgroupmode
 931              	.LVL102:
 932              		.loc 2 399 0
 933 006c 7A49     		ldr	r1, .L54+28
 934 006e 7B48     		ldr	r0, .L54+32
 935 0070 FFF7FEFF 		bl	spiStart
 936              	.LVL103:
 937              		.loc 2 408 0
 938 0074 7A49     		ldr	r1, .L54+36
 939 0076 7B48     		ldr	r0, .L54+40
 940 0078 FFF7FEFF 		bl	spiStart
 941              	.LVL104:
 942              		.loc 2 409 0
 943 007c 4FF48051 		mov	r1, #4096
 944 0080 2183     		strh	r1, [r4, #24]	@ movhi
 945              		.loc 2 410 0
 946 0082 2046     		mov	r0, r4
 947 0084 1922     		movs	r2, #25
 948 0086 FFF7FEFF 		bl	_pal_lld_setgroupmode
 949              	.LVL105:
 950              		.loc 2 412 0
 951 008a 2046     		mov	r0, r4
 952 008c 40F29A22 		movw	r2, #666
 953 0090 4FF40051 		mov	r1, #8192
 954 0094 FFF7FEFF 		bl	_pal_lld_setgroupmode
 955              	.LVL106:
 956              		.loc 2 414 0
 957 0098 2046     		mov	r0, r4
 958 009a 40F28222 		movw	r2, #642
 959 009e 4FF48041 		mov	r1, #16384
 960 00a2 FFF7FEFF 		bl	_pal_lld_setgroupmode
 961              	.LVL107:
 962              		.loc 2 415 0
 963 00a6 40F29A22 		movw	r2, #666
 964 00aa 2046     		mov	r0, r4
 965 00ac 4FF40041 		mov	r1, #32768
 966 00b0 FFF7FEFF 		bl	_pal_lld_setgroupmode
 967              	.LVL108:
 968              		.loc 2 421 0
 969 00b4 6C49     		ldr	r1, .L54+44
ARM GAS  /tmp/cc1RKeCJ.s 			page 18


 970 00b6 6D48     		ldr	r0, .L54+48
 971 00b8 FFF7FEFF 		bl	pwmStart
 972              	.LVL109:
 973              		.loc 2 422 0
 974 00bc 6A49     		ldr	r1, .L54+44
 975 00be 6C48     		ldr	r0, .L54+52
 976 00c0 FFF7FEFF 		bl	pwmStart
 977              	.LVL110:
 978              		.loc 2 423 0
 979 00c4 6849     		ldr	r1, .L54+44
 980 00c6 6B48     		ldr	r0, .L54+56
 981 00c8 FFF7FEFF 		bl	pwmStart
 982              	.LVL111:
 983              		.loc 2 424 0
 984 00cc 6649     		ldr	r1, .L54+44
 985 00ce 6A48     		ldr	r0, .L54+60
 986 00d0 FFF7FEFF 		bl	pwmStart
 987              	.LVL112:
 988              		.loc 2 426 0
 989 00d4 8222     		movs	r2, #130
 990 00d6 4FF40071 		mov	r1, #512
 991 00da 6848     		ldr	r0, .L54+64
 992 00dc FFF7FEFF 		bl	_pal_lld_setgroupmode
 993              	.LVL113:
 994              		.loc 2 427 0
 995 00e0 8222     		movs	r2, #130
 996 00e2 4FF40061 		mov	r1, #2048
 997 00e6 6548     		ldr	r0, .L54+64
 998 00e8 FFF7FEFF 		bl	_pal_lld_setgroupmode
 999              	.LVL114:
 1000              		.loc 2 428 0
 1001 00ec 8222     		movs	r2, #130
 1002 00ee 4FF40051 		mov	r1, #8192
 1003 00f2 6248     		ldr	r0, .L54+64
 1004 00f4 FFF7FEFF 		bl	_pal_lld_setgroupmode
 1005              	.LVL115:
 1006              		.loc 2 429 0
 1007 00f8 8222     		movs	r2, #130
 1008 00fa 4FF48041 		mov	r1, #16384
 1009 00fe 5F48     		ldr	r0, .L54+64
 1010 0100 FFF7FEFF 		bl	_pal_lld_setgroupmode
 1011              	.LVL116:
 1012              		.loc 2 431 0
 1013 0104 3222     		movs	r2, #50
 1014 0106 0021     		movs	r1, #0
 1015 0108 5848     		ldr	r0, .L54+48
 1016 010a FFF7FEFF 		bl	pwmEnableChannel
 1017              	.LVL117:
 1018              		.loc 2 432 0
 1019 010e 3222     		movs	r2, #50
 1020 0110 0121     		movs	r1, #1
 1021 0112 5648     		ldr	r0, .L54+48
 1022 0114 FFF7FEFF 		bl	pwmEnableChannel
 1023              	.LVL118:
 1024              		.loc 2 433 0
 1025 0118 3222     		movs	r2, #50
 1026 011a 0221     		movs	r1, #2
ARM GAS  /tmp/cc1RKeCJ.s 			page 19


 1027 011c 5348     		ldr	r0, .L54+48
 1028 011e FFF7FEFF 		bl	pwmEnableChannel
 1029              	.LVL119:
 1030              		.loc 2 434 0
 1031 0122 3222     		movs	r2, #50
 1032 0124 0321     		movs	r1, #3
 1033 0126 5148     		ldr	r0, .L54+48
 1034 0128 FFF7FEFF 		bl	pwmEnableChannel
 1035              	.LVL120:
 1036              		.loc 2 436 0
 1037 012c 4FF48172 		mov	r2, #258
 1038 0130 4021     		movs	r1, #64
 1039 0132 5348     		ldr	r0, .L54+68
 1040 0134 FFF7FEFF 		bl	_pal_lld_setgroupmode
 1041              	.LVL121:
 1042              		.loc 2 437 0
 1043 0138 4FF48172 		mov	r2, #258
 1044 013c 4FF48071 		mov	r1, #256
 1045 0140 4F48     		ldr	r0, .L54+68
 1046 0142 FFF7FEFF 		bl	_pal_lld_setgroupmode
 1047              	.LVL122:
 1048              		.loc 2 438 0
 1049 0146 4FF48172 		mov	r2, #258
 1050 014a 4FF40071 		mov	r1, #512
 1051 014e 4C48     		ldr	r0, .L54+68
 1052 0150 FFF7FEFF 		bl	_pal_lld_setgroupmode
 1053              	.LVL123:
 1054              		.loc 2 440 0
 1055 0154 3222     		movs	r2, #50
 1056 0156 0021     		movs	r1, #0
 1057 0158 4548     		ldr	r0, .L54+52
 1058 015a FFF7FEFF 		bl	pwmEnableChannel
 1059              	.LVL124:
 1060              		.loc 2 441 0
 1061 015e 3222     		movs	r2, #50
 1062 0160 0221     		movs	r1, #2
 1063 0162 4348     		ldr	r0, .L54+52
 1064 0164 FFF7FEFF 		bl	pwmEnableChannel
 1065              	.LVL125:
 1066              		.loc 2 442 0
 1067 0168 3222     		movs	r2, #50
 1068 016a 0321     		movs	r1, #3
 1069 016c 4048     		ldr	r0, .L54+52
 1070 016e FFF7FEFF 		bl	pwmEnableChannel
 1071              	.LVL126:
 1072              		.loc 2 444 0
 1073 0172 4FF48172 		mov	r2, #258
 1074 0176 0221     		movs	r1, #2
 1075 0178 4248     		ldr	r0, .L54+72
 1076 017a FFF7FEFF 		bl	_pal_lld_setgroupmode
 1077              	.LVL127:
 1078              		.loc 2 445 0
 1079 017e 4FF48172 		mov	r2, #258
 1080 0182 0421     		movs	r1, #4
 1081 0184 3F48     		ldr	r0, .L54+72
 1082 0186 FFF7FEFF 		bl	_pal_lld_setgroupmode
 1083              	.LVL128:
ARM GAS  /tmp/cc1RKeCJ.s 			page 20


 1084              		.loc 2 446 0
 1085 018a 4FF48172 		mov	r2, #258
 1086 018e 0821     		movs	r1, #8
 1087 0190 3C48     		ldr	r0, .L54+72
 1088 0192 FFF7FEFF 		bl	_pal_lld_setgroupmode
 1089              	.LVL129:
 1090              		.loc 2 448 0
 1091 0196 3222     		movs	r2, #50
 1092 0198 0121     		movs	r1, #1
 1093 019a 3648     		ldr	r0, .L54+56
 1094 019c FFF7FEFF 		bl	pwmEnableChannel
 1095              	.LVL130:
 1096              		.loc 2 449 0
 1097 01a0 3222     		movs	r2, #50
 1098 01a2 0221     		movs	r1, #2
 1099 01a4 3348     		ldr	r0, .L54+56
 1100 01a6 FFF7FEFF 		bl	pwmEnableChannel
 1101              	.LVL131:
 1102              		.loc 2 450 0
 1103 01aa 3222     		movs	r2, #50
 1104 01ac 0321     		movs	r1, #3
 1105 01ae 3148     		ldr	r0, .L54+56
 1106 01b0 FFF7FEFF 		bl	pwmEnableChannel
 1107              	.LVL132:
 1108              		.loc 2 452 0
 1109 01b4 4FF4C172 		mov	r2, #386
 1110 01b8 2021     		movs	r1, #32
 1111 01ba 3048     		ldr	r0, .L54+64
 1112 01bc FFF7FEFF 		bl	_pal_lld_setgroupmode
 1113              	.LVL133:
 1114              		.loc 2 453 0
 1115 01c0 4FF4C172 		mov	r2, #386
 1116 01c4 4021     		movs	r1, #64
 1117 01c6 2D48     		ldr	r0, .L54+64
 1118 01c8 FFF7FEFF 		bl	_pal_lld_setgroupmode
 1119              	.LVL134:
 1120              		.loc 2 455 0
 1121 01cc 3222     		movs	r2, #50
 1122 01ce 0021     		movs	r1, #0
 1123 01d0 2948     		ldr	r0, .L54+60
 1124 01d2 FFF7FEFF 		bl	pwmEnableChannel
 1125              	.LVL135:
 1126              		.loc 2 460 0
 1127 01d6 0024     		movs	r4, #0
 1128              		.loc 2 456 0
 1129 01d8 3222     		movs	r2, #50
 1130 01da 0121     		movs	r1, #1
 1131 01dc 2648     		ldr	r0, .L54+60
 1132 01de FFF7FEFF 		bl	pwmEnableChannel
 1133              	.LVL136:
 1134              		.loc 2 460 0
 1135 01e2 294B     		ldr	r3, .L54+76
 1136 01e4 0094     		str	r4, [sp]
 1137 01e6 4A22     		movs	r2, #74
 1138 01e8 4FF41961 		mov	r1, #2448
 1139 01ec 2748     		ldr	r0, .L54+80
 1140 01ee FFF7FEFF 		bl	chThdCreateStatic
ARM GAS  /tmp/cc1RKeCJ.s 			page 21


 1141              	.LVL137:
 1142              		.loc 2 465 0
 1143 01f2 0094     		str	r4, [sp]
 1144 01f4 264B     		ldr	r3, .L54+84
 1145 01f6 2748     		ldr	r0, .L54+88
 1146 01f8 4A22     		movs	r2, #74
 1147 01fa 4FF4A471 		mov	r1, #328
 1148 01fe FFF7FEFF 		bl	chThdCreateStatic
 1149              	.LVL138:
 1150              		.loc 2 473 0
 1151 0202 44B1     		cbz	r4, .L52
 1152              	.L48:
 1153              		.loc 2 481 0
 1154 0204 237F     		ldrb	r3, [r4, #28]	@ zero_extendqisi2
 1155 0206 0F2B     		cmp	r3, #15
 1156 0208 13D0     		beq	.L53
 1157              	.LVL139:
 1158              	.L49:
 1159              		.loc 2 487 0
 1160 020a 41F28830 		movw	r0, #5000
 1161 020e FFF7FEFF 		bl	chThdSleep
 1162              	.LVL140:
 1163              		.loc 2 473 0
 1164 0212 002C     		cmp	r4, #0
 1165 0214 F6D1     		bne	.L48
 1166              	.L52:
 1167              	.LVL141:
 1168              		.loc 2 474 0
 1169 0216 D5F85432 		ldr	r3, [r5, #596]
 1170 021a 1B68     		ldr	r3, [r3]
 1171 021c 1B78     		ldrb	r3, [r3]	@ zero_extendqisi2
 1172 021e 042B     		cmp	r3, #4
 1173 0220 F3D1     		bne	.L49
 1174              		.loc 2 476 0
 1175 0222 4022     		movs	r2, #64
 1176 0224 40F6C801 		movw	r1, #2248
 1177 0228 1B48     		ldr	r0, .L54+92
 1178 022a FFF7FEFF 		bl	shellCreate
 1179              	.LVL142:
 1180 022e 0446     		mov	r4, r0
 1181              	.LVL143:
 1182 0230 EBE7     		b	.L49
 1183              	.LVL144:
 1184              	.L53:
 1185              		.loc 2 483 0
 1186 0232 2046     		mov	r0, r4
 1187 0234 FFF7FEFF 		bl	chThdRelease
 1188              	.LVL145:
 1189              		.loc 2 484 0
 1190 0238 0024     		movs	r4, #0
 1191              	.LVL146:
 1192 023a E6E7     		b	.L49
 1193              	.L55:
 1194              		.align	2
 1195              	.L54:
 1196 023c 00000000 		.word	.LANCHOR2
 1197 0240 00000000 		.word	serusbcfg
ARM GAS  /tmp/cc1RKeCJ.s 			page 22


 1198 0244 00040240 		.word	1073873920
 1199 0248 00000000 		.word	usbcfg
 1200 024c 00000000 		.word	.LANCHOR6
 1201 0250 00000000 		.word	SD2
 1202 0254 000C0240 		.word	1073875968
 1203 0258 00000000 		.word	.LANCHOR7
 1204 025c 00000000 		.word	SPID1
 1205 0260 00000000 		.word	.LANCHOR8
 1206 0264 00000000 		.word	SPID2
 1207 0268 00000000 		.word	.LANCHOR9
 1208 026c 00000000 		.word	PWMD1
 1209 0270 00000000 		.word	PWMD3
 1210 0274 00000000 		.word	PWMD5
 1211 0278 00000000 		.word	PWMD9
 1212 027c 00100240 		.word	1073876992
 1213 0280 00080240 		.word	1073874944
 1214 0284 00000240 		.word	1073872896
 1215 0288 00000000 		.word	ThreadSBUS
 1216 028c 00000000 		.word	.LANCHOR10
 1217 0290 00000000 		.word	Thread1
 1218 0294 00000000 		.word	.LANCHOR11
 1219 0298 00000000 		.word	.LANCHOR12
 1220              		.cfi_endproc
 1221              	.LFE265:
 1222              		.size	main, .-main
 1223              		.global	pwm_driver_mapping
 1224              		.global	pwm_timchannel_mapping
 1225              		.global	SDU1
 1226              		.section	.rodata.commands,"a",%progbits
 1227              		.align	2
 1228              		.type	commands, %object
 1229              		.size	commands, 40
 1230              	commands:
 1231 0000 24020000 		.word	.LC30
 1232 0004 00000000 		.word	cmd_mem
 1233 0008 28020000 		.word	.LC31
 1234 000c 00000000 		.word	cmd_threads
 1235 0010 30020000 		.word	.LC32
 1236 0014 00000000 		.word	cmd_test
 1237 0018 38020000 		.word	.LC33
 1238 001c 00000000 		.word	command_set_pwm
 1239 0020 00000000 		.word	0
 1240 0024 00000000 		.word	0
 1241              		.section	.bss.waThread1,"aw",%nobits
 1242              		.align	3
 1243              		.set	.LANCHOR11,. + 0
 1244              		.type	waThread1, %object
 1245              		.size	waThread1, 328
 1246              	waThread1:
 1247 0000 00000000 		.space	328
 1247      00000000 
 1247      00000000 
 1247      00000000 
 1247      00000000 
 1248              		.section	.bss.SDU1,"aw",%nobits
 1249              		.align	2
 1250              		.set	.LANCHOR2,. + 0
ARM GAS  /tmp/cc1RKeCJ.s 			page 23


 1251              		.type	SDU1, %object
 1252              		.size	SDU1, 600
 1253              	SDU1:
 1254 0000 00000000 		.space	600
 1254      00000000 
 1254      00000000 
 1254      00000000 
 1254      00000000 
 1255              		.section	.bss.waThreadSBUS,"aw",%nobits
 1256              		.align	3
 1257              		.set	.LANCHOR10,. + 0
 1258              		.type	waThreadSBUS, %object
 1259              		.size	waThreadSBUS, 2448
 1260              	waThreadSBUS:
 1261 0000 00000000 		.space	2448
 1261      00000000 
 1261      00000000 
 1261      00000000 
 1261      00000000 
 1262              		.section	.rodata.spi1cfg,"a",%progbits
 1263              		.align	2
 1264              		.set	.LANCHOR7,. + 0
 1265              		.type	spi1cfg, %object
 1266              		.size	spi1cfg, 12
 1267              	spi1cfg:
 1268 0000 00000000 		.word	0
 1269 0004 00100240 		.word	1073876992
 1270 0008 0300     		.short	3
 1271 000a 1B00     		.short	27
 1272              		.section	.rodata.spi2cfg,"a",%progbits
 1273              		.align	2
 1274              		.set	.LANCHOR8,. + 0
 1275              		.type	spi2cfg, %object
 1276              		.size	spi2cfg, 12
 1277              	spi2cfg:
 1278 0000 00000000 		.word	0
 1279 0004 00040240 		.word	1073873920
 1280 0008 0C00     		.short	12
 1281 000a 0000     		.short	0
 1282              		.section	.rodata.states.8289,"a",%progbits
 1283              		.align	2
 1284              		.set	.LANCHOR5,. + 0
 1285              		.type	states.8289, %object
 1286              		.size	states.8289, 64
 1287              	states.8289:
 1288 0000 98010000 		.word	.LC14
 1289 0004 A0010000 		.word	.LC15
 1290 0008 A8010000 		.word	.LC16
 1291 000c B0010000 		.word	.LC17
 1292 0010 BC010000 		.word	.LC18
 1293 0014 C4010000 		.word	.LC19
 1294 0018 CC010000 		.word	.LC20
 1295 001c D4010000 		.word	.LC21
 1296 0020 DC010000 		.word	.LC22
 1297 0024 E8010000 		.word	.LC23
 1298 0028 F0010000 		.word	.LC24
 1299 002c F8010000 		.word	.LC25
ARM GAS  /tmp/cc1RKeCJ.s 			page 24


 1300 0030 04020000 		.word	.LC26
 1301 0034 0C020000 		.word	.LC27
 1302 0038 14020000 		.word	.LC28
 1303 003c 1C020000 		.word	.LC29
 1304              		.section	.bss.ybuf.8318,"aw",%nobits
 1305              		.align	2
 1306              		.set	.LANCHOR4,. + 0
 1307              		.type	ybuf.8318, %object
 1308              		.size	ybuf.8318, 4
 1309              	ybuf.8318:
 1310 0000 00000000 		.space	4
 1311              		.section	.rodata.SBUS_config,"a",%progbits
 1312              		.align	2
 1313              		.set	.LANCHOR6,. + 0
 1314              		.type	SBUS_config, %object
 1315              		.size	SBUS_config, 12
 1316              	SBUS_config:
 1317 0000 A0860100 		.word	100000
 1318 0004 0004     		.short	1024
 1319 0006 0040     		.short	16384
 1320 0008 0000     		.short	0
 1321 000a 0000     		.space	2
 1322              		.section	.data.pwm_timchannel_mapping,"aw",%progbits
 1323              		.align	2
 1324              		.set	.LANCHOR0,. + 0
 1325              		.type	pwm_timchannel_mapping, %object
 1326              		.size	pwm_timchannel_mapping, 48
 1327              	pwm_timchannel_mapping:
 1328 0000 00000000 		.word	0
 1329 0004 01000000 		.word	1
 1330 0008 02000000 		.word	2
 1331 000c 03000000 		.word	3
 1332 0010 00000000 		.word	0
 1333 0014 02000000 		.word	2
 1334 0018 03000000 		.word	3
 1335 001c 01000000 		.word	1
 1336 0020 02000000 		.word	2
 1337 0024 03000000 		.word	3
 1338 0028 00000000 		.word	0
 1339 002c 01000000 		.word	1
 1340              		.section	.rodata.pwmcfg,"a",%progbits
 1341              		.align	2
 1342              		.set	.LANCHOR9,. + 0
 1343              		.type	pwmcfg, %object
 1344              		.size	pwmcfg, 52
 1345              	pwmcfg:
 1346 0000 A0860100 		.word	100000
 1347 0004 00080000 		.word	2048
 1348 0008 00000000 		.word	0
 1349 000c 01000000 		.word	1
 1350 0010 00000000 		.word	0
 1351 0014 01000000 		.word	1
 1352 0018 00000000 		.word	0
 1353 001c 01000000 		.word	1
 1354 0020 00000000 		.word	0
 1355 0024 01000000 		.word	1
 1356 0028 00000000 		.word	0
ARM GAS  /tmp/cc1RKeCJ.s 			page 25


 1357 002c 00000000 		.word	0
 1358 0030 00000000 		.word	0
 1359              		.section	.rodata.shell_cfg1,"a",%progbits
 1360              		.align	2
 1361              		.set	.LANCHOR12,. + 0
 1362              		.type	shell_cfg1, %object
 1363              		.size	shell_cfg1, 8
 1364              	shell_cfg1:
 1365 0000 00000000 		.word	SDU1
 1366 0004 00000000 		.word	commands
 1367              		.section	.rodata.str1.4,"aMS",%progbits,1
 1368              		.align	2
 1369              	.LC0:
 1370 0000 25642C25 		.ascii	"%d,%d,%d,%d\015\012\000"
 1370      642C2564 
 1370      2C25640D 
 1370      0A00
 1371 000e 0000     		.space	2
 1372              	.LC1:
 1373 0010 72656164 		.ascii	"reader\000"
 1373      657200
 1374 0017 00       		.space	1
 1375              	.LC2:
 1376 0018 7365745F 		.ascii	"set_pwm command needs 2 arguments; first one is cha"
 1376      70776D20 
 1376      636F6D6D 
 1376      616E6420 
 1376      6E656564 
 1377 004b 6E6E656C 		.ascii	"nnel number , second one is PWM value \015\012\000"
 1377      206E756D 
 1377      62657220 
 1377      2C207365 
 1377      636F6E64 
 1378              	.LC3:
 1379 0074 50574D20 		.ascii	"PWM channels should be between 0-11\015\012\000"
 1379      6368616E 
 1379      6E656C73 
 1379      2073686F 
 1379      756C6420 
 1380 009a 0000     		.space	2
 1381              	.LC4:
 1382 009c 50574D20 		.ascii	"PWM value is out of range\015\012\000"
 1382      76616C75 
 1382      65206973 
 1382      206F7574 
 1382      206F6620 
 1383              	.LC5:
 1384 00b8 55736167 		.ascii	"Usage: test\015\012\000"
 1384      653A2074 
 1384      6573740D 
 1384      0A00
 1385 00c6 0000     		.space	2
 1386              	.LC6:
 1387 00c8 6F757420 		.ascii	"out of memory\015\012\000"
 1387      6F66206D 
 1387      656D6F72 
 1387      790D0A00 
ARM GAS  /tmp/cc1RKeCJ.s 			page 26


 1388              	.LC7:
 1389 00d8 55736167 		.ascii	"Usage: threads\015\012\000"
 1389      653A2074 
 1389      68726561 
 1389      64730D0A 
 1389      00
 1390 00e9 000000   		.space	3
 1391              	.LC8:
 1392 00ec 20202020 		.ascii	"    addr    stack prio refs     state\015\012\000"
 1392      61646472 
 1392      20202020 
 1392      73746163 
 1392      6B207072 
 1393              	.LC9:
 1394 0114 2530386C 		.ascii	"%08lx %08lx %4lu %4lu %9s\015\012\000"
 1394      78202530 
 1394      386C7820 
 1394      25346C75 
 1394      2025346C 
 1395              	.LC10:
 1396 0130 55736167 		.ascii	"Usage: mem\015\012\000"
 1396      653A206D 
 1396      656D0D0A 
 1396      00
 1397 013d 000000   		.space	3
 1398              	.LC11:
 1399 0140 636F7265 		.ascii	"core free memory : %u bytes\015\012\000"
 1399      20667265 
 1399      65206D65 
 1399      6D6F7279 
 1399      203A2025 
 1400 015e 0000     		.space	2
 1401              	.LC12:
 1402 0160 68656170 		.ascii	"heap fragments   : %u\015\012\000"
 1402      20667261 
 1402      676D656E 
 1402      74732020 
 1402      203A2025 
 1403              	.LC13:
 1404 0178 68656170 		.ascii	"heap free total  : %u bytes\015\012\000"
 1404      20667265 
 1404      6520746F 
 1404      74616C20 
 1404      203A2025 
 1405 0196 0000     		.space	2
 1406              	.LC14:
 1407 0198 52454144 		.ascii	"READY\000"
 1407      5900
 1408 019e 0000     		.space	2
 1409              	.LC15:
 1410 01a0 43555252 		.ascii	"CURRENT\000"
 1410      454E5400 
 1411              	.LC16:
 1412 01a8 57545354 		.ascii	"WTSTART\000"
 1412      41525400 
 1413              	.LC17:
 1414 01b0 53555350 		.ascii	"SUSPENDED\000"
ARM GAS  /tmp/cc1RKeCJ.s 			page 27


 1414      454E4445 
 1414      4400
 1415 01ba 0000     		.space	2
 1416              	.LC18:
 1417 01bc 51554555 		.ascii	"QUEUED\000"
 1417      454400
 1418 01c3 00       		.space	1
 1419              	.LC19:
 1420 01c4 57545345 		.ascii	"WTSEM\000"
 1420      4D00
 1421 01ca 0000     		.space	2
 1422              	.LC20:
 1423 01cc 57544D54 		.ascii	"WTMTX\000"
 1423      5800
 1424 01d2 0000     		.space	2
 1425              	.LC21:
 1426 01d4 5754434F 		.ascii	"WTCOND\000"
 1426      4E4400
 1427 01db 00       		.space	1
 1428              	.LC22:
 1429 01dc 534C4545 		.ascii	"SLEEPING\000"
 1429      50494E47 
 1429      00
 1430 01e5 000000   		.space	3
 1431              	.LC23:
 1432 01e8 57544558 		.ascii	"WTEXIT\000"
 1432      495400
 1433 01ef 00       		.space	1
 1434              	.LC24:
 1435 01f0 57544F52 		.ascii	"WTOREVT\000"
 1435      45565400 
 1436              	.LC25:
 1437 01f8 5754414E 		.ascii	"WTANDEVT\000"
 1437      44455654 
 1437      00
 1438 0201 000000   		.space	3
 1439              	.LC26:
 1440 0204 534E444D 		.ascii	"SNDMSGQ\000"
 1440      53475100 
 1441              	.LC27:
 1442 020c 534E444D 		.ascii	"SNDMSG\000"
 1442      534700
 1443 0213 00       		.space	1
 1444              	.LC28:
 1445 0214 57544D53 		.ascii	"WTMSG\000"
 1445      4700
 1446 021a 0000     		.space	2
 1447              	.LC29:
 1448 021c 46494E41 		.ascii	"FINAL\000"
 1448      4C00
 1449 0222 0000     		.space	2
 1450              	.LC30:
 1451 0224 6D656D00 		.ascii	"mem\000"
 1452              	.LC31:
 1453 0228 74687265 		.ascii	"threads\000"
 1453      61647300 
 1454              	.LC32:
ARM GAS  /tmp/cc1RKeCJ.s 			page 28


 1455 0230 74657374 		.ascii	"test\000"
 1455      00
 1456 0235 000000   		.space	3
 1457              	.LC33:
 1458 0238 7365745F 		.ascii	"set_pwm\000"
 1458      70776D00 
 1459              		.section	.data.pwm_driver_mapping,"aw",%progbits
 1460              		.align	2
 1461              		.set	.LANCHOR1,. + 0
 1462              		.type	pwm_driver_mapping, %object
 1463              		.size	pwm_driver_mapping, 48
 1464              	pwm_driver_mapping:
 1465 0000 00000000 		.word	PWMD1
 1466 0004 00000000 		.word	PWMD1
 1467 0008 00000000 		.word	PWMD1
 1468 000c 00000000 		.word	PWMD1
 1469 0010 00000000 		.word	PWMD3
 1470 0014 00000000 		.word	PWMD3
 1471 0018 00000000 		.word	PWMD3
 1472 001c 00000000 		.word	PWMD5
 1473 0020 00000000 		.word	PWMD5
 1474 0024 00000000 		.word	PWMD5
 1475 0028 00000000 		.word	PWMD9
 1476 002c 00000000 		.word	PWMD9
 1477              		.section	.bss.xbuf.8317,"aw",%nobits
 1478              		.align	2
 1479              		.set	.LANCHOR3,. + 0
 1480              		.type	xbuf.8317, %object
 1481              		.size	xbuf.8317, 4
 1482              	xbuf.8317:
 1483 0000 00000000 		.space	4
 1484              		.text
 1485              	.Letext0:
 1486              		.file 6 "/usr/lib/gcc/arm-none-eabi/5.3.1/include/stddef.h"
 1487              		.file 7 "/usr/arm-none-eabi/include/machine/_default_types.h"
 1488              		.file 8 "/usr/arm-none-eabi/include/sys/_stdint.h"
 1489              		.file 9 "/home/selim/working/ChibiOS/os/rt/ports/ARMCMx/compilers/GCC/chtypes.h"
 1490              		.file 10 "/home/selim/working/ChibiOS/os/rt/include/chsystypes.h"
 1491              		.file 11 "/home/selim/working/ChibiOS/os/rt/include/chschd.h"
 1492              		.file 12 "/home/selim/working/ChibiOS/os/ext/CMSIS/ST/stm32f407xx.h"
 1493              		.file 13 "/home/selim/working/ChibiOS/os/rt/ports/ARMCMx/chcore.h"
 1494              		.file 14 "/home/selim/working/ChibiOS/os/rt/ports/ARMCMx/chcore_v7m.h"
 1495              		.file 15 "/home/selim/working/ChibiOS/os/hal/ports/STM32/LLD/TIMv1/stm32_tim.h"
 1496              		.file 16 "/home/selim/working/ChibiOS/os/rt/include/chtm.h"
 1497              		.file 17 "/home/selim/working/ChibiOS/os/rt/include/chsem.h"
 1498              		.file 18 "/home/selim/working/ChibiOS/os/rt/include/chmtx.h"
 1499              		.file 19 "/home/selim/working/ChibiOS/os/rt/include/chevents.h"
 1500              		.file 20 "/home/selim/working/ChibiOS/os/rt/include/chqueues.h"
 1501              		.file 21 "/home/selim/working/ChibiOS/os/rt/include/chstreams.h"
 1502              		.file 22 "/home/selim/working/ChibiOS/os/hal/ports/STM32/STM32F4xx/stm32_dma.h"
 1503              		.file 23 "/home/selim/working/ChibiOS/os/hal/ports/STM32/LLD/GPIOv2/pal_lld.h"
 1504              		.file 24 "/home/selim/working/ChibiOS/os/hal/include/pwm.h"
 1505              		.file 25 "/home/selim/working/ChibiOS/os/hal/ports/STM32/LLD/TIMv1/pwm_lld.h"
 1506              		.file 26 "/home/selim/working/ChibiOS/os/hal/include/serial.h"
 1507              		.file 27 "/home/selim/working/ChibiOS/os/hal/ports/STM32/LLD/USARTv1/serial_lld.h"
 1508              		.file 28 "/home/selim/working/ChibiOS/os/hal/include/spi.h"
 1509              		.file 29 "/home/selim/working/ChibiOS/os/hal/ports/STM32/LLD/SPIv1/spi_lld.h"
ARM GAS  /tmp/cc1RKeCJ.s 			page 29


 1510              		.file 30 "/home/selim/working/ChibiOS/os/hal/include/usb.h"
 1511              		.file 31 "/home/selim/working/ChibiOS/os/hal/ports/STM32/LLD/OTGv1/usb_lld.h"
 1512              		.file 32 "/home/selim/working/ChibiOS/os/hal/ports/STM32/LLD/OTGv1/stm32_otg.h"
 1513              		.file 33 "/home/selim/working/ChibiOS/os/hal/include/serial_usb.h"
 1514              		.file 34 "/usr/lib/gcc/arm-none-eabi/5.3.1/include/stdarg.h"
 1515              		.file 35 "<built-in>"
 1516              		.file 36 "/home/selim/working/ChibiOS/os/various/shell.h"
 1517              		.file 37 "/home/selim/working/ChibiOS/os/rt/ports/ARMCMx/chcore_timer.h"
 1518              		.file 38 "/home/selim/working/ChibiOS/os/rt/include/chsys.h"
 1519              		.file 39 "/home/selim/working/ChibiOS/os/rt/include/chvt.h"
 1520              		.file 40 "/home/selim/working/ChibiOS/os/ext/CMSIS/include/core_cm4.h"
 1521              		.file 41 "usbcfg.h"
 1522              		.file 42 "/home/selim/working/ChibiOS/os/various/devices_lib/accel/lis302dl.h"
 1523              		.file 43 "/usr/arm-none-eabi/include/stdlib.h"
 1524              		.file 44 "/home/selim/working/ChibiOS/os/rt/include/chdynamic.h"
 1525              		.file 45 "/home/selim/working/ChibiOS/os/rt/include/chregistry.h"
 1526              		.file 46 "/home/selim/working/ChibiOS/os/rt/include/chheap.h"
 1527              		.file 47 "/home/selim/working/ChibiOS/os/rt/include/chmemcore.h"
 1528              		.file 48 "/home/selim/working/ChibiOS/os/hal/include/hal.h"