ARM GAS  /tmp/ccU3kjVM.s 			page 1


   1              		.syntax unified
   2              		.cpu cortex-m4
   3              		.fpu softvfp
   4              		.eabi_attribute 20, 1
   5              		.eabi_attribute 21, 1
   6              		.eabi_attribute 23, 3
   7              		.eabi_attribute 24, 1
   8              		.eabi_attribute 25, 1
   9              		.eabi_attribute 26, 1
  10              		.eabi_attribute 30, 2
  11              		.eabi_attribute 34, 1
  12              		.eabi_attribute 18, 4
  13              		.thumb
  14              		.syntax unified
  15              		.file	"pwm.c"
  16              		.text
  17              	.Ltext0:
  18              		.cfi_sections	.debug_frame
  19              		.section	.text.pwmInit,"ax",%progbits
  20              		.align	2
  21              		.p2align 4,,15
  22              		.global	pwmInit
  23              		.thumb
  24              		.thumb_func
  25              		.type	pwmInit, %function
  26              	pwmInit:
  27              	.LFB258:
  28              		.file 1 "/home/selim/working/ChibiOS/os/hal/src/pwm.c"
  29              		.loc 1 56 0
  30              		.cfi_startproc
  31              		@ args = 0, pretend = 0, frame = 0
  32              		@ frame_needed = 0, uses_anonymous_args = 0
  33              		@ link register save eliminated.
  34              		.loc 1 58 0
  35 0000 FFF7FEBF 		b	pwm_lld_init
  36              	.LVL0:
  37              		.cfi_endproc
  38              	.LFE258:
  39              		.size	pwmInit, .-pwmInit
  40              		.section	.text.pwmObjectInit,"ax",%progbits
  41              		.align	2
  42              		.p2align 4,,15
  43              		.global	pwmObjectInit
  44              		.thumb
  45              		.thumb_func
  46              		.type	pwmObjectInit, %function
  47              	pwmObjectInit:
  48              	.LFB259:
  49              		.loc 1 68 0
  50              		.cfi_startproc
  51              		@ args = 0, pretend = 0, frame = 0
  52              		@ frame_needed = 0, uses_anonymous_args = 0
  53              		@ link register save eliminated.
  54              	.LVL1:
  55              		.loc 1 71 0
  56 0000 0023     		movs	r3, #0
  57              		.loc 1 70 0
ARM GAS  /tmp/ccU3kjVM.s 			page 2


  58 0002 0122     		movs	r2, #1
  59 0004 0270     		strb	r2, [r0]
  60              		.loc 1 71 0
  61 0006 4360     		str	r3, [r0, #4]
  62              		.loc 1 72 0
  63 0008 C360     		str	r3, [r0, #12]
  64              		.loc 1 73 0
  65 000a 0374     		strb	r3, [r0, #16]
  66 000c 7047     		bx	lr
  67              		.cfi_endproc
  68              	.LFE259:
  69              		.size	pwmObjectInit, .-pwmObjectInit
  70 000e 00BF     		.section	.text.pwmStart,"ax",%progbits
  71              		.align	2
  72              		.p2align 4,,15
  73              		.global	pwmStart
  74              		.thumb
  75              		.thumb_func
  76              		.type	pwmStart, %function
  77              	pwmStart:
  78              	.LFB260:
  79              		.loc 1 89 0
  80              		.cfi_startproc
  81              		@ args = 0, pretend = 0, frame = 0
  82              		@ frame_needed = 0, uses_anonymous_args = 0
  83              	.LVL2:
  84 0000 10B5     		push	{r4, lr}
  85              		.cfi_def_cfa_offset 8
  86              		.cfi_offset 4, -8
  87              		.cfi_offset 14, -4
  88              	.LBB141:
  89              	.LBB142:
  90              	.LBB143:
  91              	.LBB144:
  92              	.LBB145:
  93              		.file 2 "/home/selim/working/ChibiOS/os/ext/CMSIS/include/core_cmFunc.h"
  94              		.loc 2 546 0
  95 0002 2023     		movs	r3, #32
  96              	.LBE145:
  97              	.LBE144:
  98              	.LBE143:
  99              	.LBE142:
 100              	.LBE141:
 101              		.loc 1 89 0
 102 0004 0446     		mov	r4, r0
 103              	.LBB150:
 104              	.LBB149:
 105              	.LBB148:
 106              	.LBB147:
 107              	.LBB146:
 108              		.loc 2 546 0
 109              		.syntax unified
 110              	@ 546 "/home/selim/working/ChibiOS/os/ext/CMSIS/include/core_cmFunc.h" 1
 111 0006 83F31188 		MSR basepri, r3
 112              	@ 0 "" 2
 113              	.LVL3:
 114              		.thumb
ARM GAS  /tmp/ccU3kjVM.s 			page 3


 115              		.syntax unified
 116              	.LBE146:
 117              	.LBE147:
 118              	.LBE148:
 119              	.LBE149:
 120              	.LBE150:
 121              		.loc 1 97 0
 122 000a 4B68     		ldr	r3, [r1, #4]
 123 000c 8360     		str	r3, [r0, #8]
 124              		.loc 1 96 0
 125 000e 4160     		str	r1, [r0, #4]
 126              		.loc 1 98 0
 127 0010 FFF7FEFF 		bl	pwm_lld_start
 128              	.LVL4:
 129              		.loc 1 100 0
 130 0014 0222     		movs	r2, #2
 131              		.loc 1 99 0
 132 0016 0023     		movs	r3, #0
 133              		.loc 1 100 0
 134 0018 2270     		strb	r2, [r4]
 135              	.LVL5:
 136              		.loc 1 99 0
 137 001a E360     		str	r3, [r4, #12]
 138              	.LBB151:
 139              	.LBB152:
 140              	.LBB153:
 141              	.LBB154:
 142              	.LBB155:
 143              	.LBB156:
 144              		.loc 2 546 0
 145              		.syntax unified
 146              	@ 546 "/home/selim/working/ChibiOS/os/ext/CMSIS/include/core_cmFunc.h" 1
 147 001c 83F31188 		MSR basepri, r3
 148              	@ 0 "" 2
 149              	.LVL6:
 150              		.thumb
 151              		.syntax unified
 152 0020 10BD     		pop	{r4, pc}
 153              	.LBE156:
 154              	.LBE155:
 155              	.LBE154:
 156              	.LBE153:
 157              	.LBE152:
 158              	.LBE151:
 159              		.cfi_endproc
 160              	.LFE260:
 161              		.size	pwmStart, .-pwmStart
 162 0022 00BF     		.section	.text.pwmStop,"ax",%progbits
 163              		.align	2
 164              		.p2align 4,,15
 165              		.global	pwmStop
 166              		.thumb
 167              		.thumb_func
 168              		.type	pwmStop, %function
 169              	pwmStop:
 170              	.LFB261:
 171              		.loc 1 111 0
ARM GAS  /tmp/ccU3kjVM.s 			page 4


 172              		.cfi_startproc
 173              		@ args = 0, pretend = 0, frame = 0
 174              		@ frame_needed = 0, uses_anonymous_args = 0
 175              	.LVL7:
 176 0000 10B5     		push	{r4, lr}
 177              		.cfi_def_cfa_offset 8
 178              		.cfi_offset 4, -8
 179              		.cfi_offset 14, -4
 180              	.LBB157:
 181              	.LBB158:
 182              	.LBB159:
 183              	.LBB160:
 184              	.LBB161:
 185              		.loc 2 546 0
 186 0002 2023     		movs	r3, #32
 187              	.LBE161:
 188              	.LBE160:
 189              	.LBE159:
 190              	.LBE158:
 191              	.LBE157:
 192              		.loc 1 111 0
 193 0004 0446     		mov	r4, r0
 194              	.LBB166:
 195              	.LBB165:
 196              	.LBB164:
 197              	.LBB163:
 198              	.LBB162:
 199              		.loc 2 546 0
 200              		.syntax unified
 201              	@ 546 "/home/selim/working/ChibiOS/os/ext/CMSIS/include/core_cmFunc.h" 1
 202 0006 83F31188 		MSR basepri, r3
 203              	@ 0 "" 2
 204              	.LVL8:
 205              		.thumb
 206              		.syntax unified
 207              	.LBE162:
 208              	.LBE163:
 209              	.LBE164:
 210              	.LBE165:
 211              	.LBE166:
 212              		.loc 1 118 0
 213 000a FFF7FEFF 		bl	pwm_lld_stop
 214              	.LVL9:
 215              		.loc 1 120 0
 216 000e 0122     		movs	r2, #1
 217              		.loc 1 119 0
 218 0010 0023     		movs	r3, #0
 219              		.loc 1 120 0
 220 0012 2270     		strb	r2, [r4]
 221              	.LVL10:
 222              		.loc 1 119 0
 223 0014 E360     		str	r3, [r4, #12]
 224              	.LBB167:
 225              	.LBB168:
 226              	.LBB169:
 227              	.LBB170:
 228              	.LBB171:
ARM GAS  /tmp/ccU3kjVM.s 			page 5


 229              	.LBB172:
 230              		.loc 2 546 0
 231              		.syntax unified
 232              	@ 546 "/home/selim/working/ChibiOS/os/ext/CMSIS/include/core_cmFunc.h" 1
 233 0016 83F31188 		MSR basepri, r3
 234              	@ 0 "" 2
 235              	.LVL11:
 236              		.thumb
 237              		.syntax unified
 238 001a 10BD     		pop	{r4, pc}
 239              	.LBE172:
 240              	.LBE171:
 241              	.LBE170:
 242              	.LBE169:
 243              	.LBE168:
 244              	.LBE167:
 245              		.cfi_endproc
 246              	.LFE261:
 247              		.size	pwmStop, .-pwmStop
 248              		.section	.text.pwmChangePeriod,"ax",%progbits
 249              		.align	2
 250              		.p2align 4,,15
 251              		.global	pwmChangePeriod
 252              		.thumb
 253              		.thumb_func
 254              		.type	pwmChangePeriod, %function
 255              	pwmChangePeriod:
 256              	.LFB262:
 257              		.loc 1 139 0
 258              		.cfi_startproc
 259              		@ args = 0, pretend = 0, frame = 0
 260              		@ frame_needed = 0, uses_anonymous_args = 0
 261              		@ link register save eliminated.
 262              	.LVL12:
 263              	.LBB173:
 264              	.LBB174:
 265              	.LBB175:
 266              	.LBB176:
 267              	.LBB177:
 268              		.loc 2 546 0
 269 0000 2023     		movs	r3, #32
 270              		.syntax unified
 271              	@ 546 "/home/selim/working/ChibiOS/os/ext/CMSIS/include/core_cmFunc.h" 1
 272 0002 83F31188 		MSR basepri, r3
 273              	@ 0 "" 2
 274              	.LVL13:
 275              		.thumb
 276              		.syntax unified
 277              	.LBE177:
 278              	.LBE176:
 279              	.LBE175:
 280              	.LBE174:
 281              	.LBE173:
 282              		.loc 1 145 0
 283 0006 8369     		ldr	r3, [r0, #24]
 284 0008 8160     		str	r1, [r0, #8]
 285 000a 0139     		subs	r1, r1, #1
ARM GAS  /tmp/ccU3kjVM.s 			page 6


 286              	.LVL14:
 287 000c D962     		str	r1, [r3, #44]
 288              	.LVL15:
 289              	.LBB178:
 290              	.LBB179:
 291              	.LBB180:
 292              	.LBB181:
 293              	.LBB182:
 294              	.LBB183:
 295              		.loc 2 546 0
 296 000e 0023     		movs	r3, #0
 297              		.syntax unified
 298              	@ 546 "/home/selim/working/ChibiOS/os/ext/CMSIS/include/core_cmFunc.h" 1
 299 0010 83F31188 		MSR basepri, r3
 300              	@ 0 "" 2
 301              	.LVL16:
 302              		.thumb
 303              		.syntax unified
 304 0014 7047     		bx	lr
 305              	.LBE183:
 306              	.LBE182:
 307              	.LBE181:
 308              	.LBE180:
 309              	.LBE179:
 310              	.LBE178:
 311              		.cfi_endproc
 312              	.LFE262:
 313              		.size	pwmChangePeriod, .-pwmChangePeriod
 314 0016 00BF     		.section	.text.pwmEnableChannel,"ax",%progbits
 315              		.align	2
 316              		.p2align 4,,15
 317              		.global	pwmEnableChannel
 318              		.thumb
 319              		.thumb_func
 320              		.type	pwmEnableChannel, %function
 321              	pwmEnableChannel:
 322              	.LFB263:
 323              		.loc 1 165 0
 324              		.cfi_startproc
 325              		@ args = 0, pretend = 0, frame = 0
 326              		@ frame_needed = 0, uses_anonymous_args = 0
 327              	.LVL17:
 328 0000 70B5     		push	{r4, r5, r6, lr}
 329              		.cfi_def_cfa_offset 16
 330              		.cfi_offset 4, -16
 331              		.cfi_offset 5, -12
 332              		.cfi_offset 6, -8
 333              		.cfi_offset 14, -4
 334              	.LBB184:
 335              	.LBB185:
 336              	.LBB186:
 337              	.LBB187:
 338              	.LBB188:
 339              		.loc 2 546 0
 340 0002 2024     		movs	r4, #32
 341              		.syntax unified
 342              	@ 546 "/home/selim/working/ChibiOS/os/ext/CMSIS/include/core_cmFunc.h" 1
ARM GAS  /tmp/ccU3kjVM.s 			page 7


 343 0004 84F31188 		MSR basepri, r4
 344              	@ 0 "" 2
 345              	.LVL18:
 346              		.thumb
 347              		.syntax unified
 348              	.LBE188:
 349              	.LBE187:
 350              	.LBE186:
 351              	.LBE185:
 352              	.LBE184:
 353              		.loc 1 173 0
 354 0008 0124     		movs	r4, #1
 355 000a C668     		ldr	r6, [r0, #12]
 356 000c 04FA01F3 		lsl	r3, r4, r1
 357 0010 3343     		orrs	r3, r3, r6
 358 0012 C360     		str	r3, [r0, #12]
 359 0014 FFF7FEFF 		bl	pwm_lld_enable_channel
 360              	.LVL19:
 361              	.LBB189:
 362              	.LBB190:
 363              	.LBB191:
 364              	.LBB192:
 365              	.LBB193:
 366              	.LBB194:
 367              		.loc 2 546 0
 368 0018 0023     		movs	r3, #0
 369              		.syntax unified
 370              	@ 546 "/home/selim/working/ChibiOS/os/ext/CMSIS/include/core_cmFunc.h" 1
 371 001a 83F31188 		MSR basepri, r3
 372              	@ 0 "" 2
 373              	.LVL20:
 374              		.thumb
 375              		.syntax unified
 376 001e 70BD     		pop	{r4, r5, r6, pc}
 377              	.LBE194:
 378              	.LBE193:
 379              	.LBE192:
 380              	.LBE191:
 381              	.LBE190:
 382              	.LBE189:
 383              		.cfi_endproc
 384              	.LFE263:
 385              		.size	pwmEnableChannel, .-pwmEnableChannel
 386              		.section	.text.pwmDisableChannel,"ax",%progbits
 387              		.align	2
 388              		.p2align 4,,15
 389              		.global	pwmDisableChannel
 390              		.thumb
 391              		.thumb_func
 392              		.type	pwmDisableChannel, %function
 393              	pwmDisableChannel:
 394              	.LFB264:
 395              		.loc 1 192 0
 396              		.cfi_startproc
 397              		@ args = 0, pretend = 0, frame = 0
 398              		@ frame_needed = 0, uses_anonymous_args = 0
 399              	.LVL21:
ARM GAS  /tmp/ccU3kjVM.s 			page 8


 400 0000 38B5     		push	{r3, r4, r5, lr}
 401              		.cfi_def_cfa_offset 16
 402              		.cfi_offset 3, -16
 403              		.cfi_offset 4, -12
 404              		.cfi_offset 5, -8
 405              		.cfi_offset 14, -4
 406              	.LBB195:
 407              	.LBB196:
 408              	.LBB197:
 409              	.LBB198:
 410              	.LBB199:
 411              		.loc 2 546 0
 412 0002 2023     		movs	r3, #32
 413              		.syntax unified
 414              	@ 546 "/home/selim/working/ChibiOS/os/ext/CMSIS/include/core_cmFunc.h" 1
 415 0004 83F31188 		MSR basepri, r3
 416              	@ 0 "" 2
 417              	.LVL22:
 418              		.thumb
 419              		.syntax unified
 420              	.LBE199:
 421              	.LBE198:
 422              	.LBE197:
 423              	.LBE196:
 424              	.LBE195:
 425              		.loc 1 200 0
 426 0008 0122     		movs	r2, #1
 427 000a C368     		ldr	r3, [r0, #12]
 428 000c 8A40     		lsls	r2, r2, r1
 429 000e 23EA0203 		bic	r3, r3, r2
 430 0012 C360     		str	r3, [r0, #12]
 431 0014 FFF7FEFF 		bl	pwm_lld_disable_channel
 432              	.LVL23:
 433              	.LBB200:
 434              	.LBB201:
 435              	.LBB202:
 436              	.LBB203:
 437              	.LBB204:
 438              	.LBB205:
 439              		.loc 2 546 0
 440 0018 0023     		movs	r3, #0
 441              		.syntax unified
 442              	@ 546 "/home/selim/working/ChibiOS/os/ext/CMSIS/include/core_cmFunc.h" 1
 443 001a 83F31188 		MSR basepri, r3
 444              	@ 0 "" 2
 445              	.LVL24:
 446              		.thumb
 447              		.syntax unified
 448 001e 38BD     		pop	{r3, r4, r5, pc}
 449              	.LBE205:
 450              	.LBE204:
 451              	.LBE203:
 452              	.LBE202:
 453              	.LBE201:
 454              	.LBE200:
 455              		.cfi_endproc
 456              	.LFE264:
ARM GAS  /tmp/ccU3kjVM.s 			page 9


 457              		.size	pwmDisableChannel, .-pwmDisableChannel
 458              		.section	.text.pwmEnablePeriodicNotification,"ax",%progbits
 459              		.align	2
 460              		.p2align 4,,15
 461              		.global	pwmEnablePeriodicNotification
 462              		.thumb
 463              		.thumb_func
 464              		.type	pwmEnablePeriodicNotification, %function
 465              	pwmEnablePeriodicNotification:
 466              	.LFB265:
 467              		.loc 1 214 0
 468              		.cfi_startproc
 469              		@ args = 0, pretend = 0, frame = 0
 470              		@ frame_needed = 0, uses_anonymous_args = 0
 471              	.LVL25:
 472 0000 08B5     		push	{r3, lr}
 473              		.cfi_def_cfa_offset 8
 474              		.cfi_offset 3, -8
 475              		.cfi_offset 14, -4
 476              	.LBB206:
 477              	.LBB207:
 478              	.LBB208:
 479              	.LBB209:
 480              	.LBB210:
 481              		.loc 2 546 0
 482 0002 2023     		movs	r3, #32
 483              		.syntax unified
 484              	@ 546 "/home/selim/working/ChibiOS/os/ext/CMSIS/include/core_cmFunc.h" 1
 485 0004 83F31188 		MSR basepri, r3
 486              	@ 0 "" 2
 487              	.LVL26:
 488              		.thumb
 489              		.syntax unified
 490              	.LBE210:
 491              	.LBE209:
 492              	.LBE208:
 493              	.LBE207:
 494              	.LBE206:
 495              		.loc 1 223 0
 496 0008 FFF7FEFF 		bl	pwm_lld_enable_periodic_notification
 497              	.LVL27:
 498              	.LBB211:
 499              	.LBB212:
 500              	.LBB213:
 501              	.LBB214:
 502              	.LBB215:
 503              	.LBB216:
 504              		.loc 2 546 0
 505 000c 0023     		movs	r3, #0
 506              		.syntax unified
 507              	@ 546 "/home/selim/working/ChibiOS/os/ext/CMSIS/include/core_cmFunc.h" 1
 508 000e 83F31188 		MSR basepri, r3
 509              	@ 0 "" 2
 510              	.LVL28:
 511              		.thumb
 512              		.syntax unified
 513 0012 08BD     		pop	{r3, pc}
ARM GAS  /tmp/ccU3kjVM.s 			page 10


 514              	.LBE216:
 515              	.LBE215:
 516              	.LBE214:
 517              	.LBE213:
 518              	.LBE212:
 519              	.LBE211:
 520              		.cfi_endproc
 521              	.LFE265:
 522              		.size	pwmEnablePeriodicNotification, .-pwmEnablePeriodicNotification
 523              		.section	.text.pwmDisablePeriodicNotification,"ax",%progbits
 524              		.align	2
 525              		.p2align 4,,15
 526              		.global	pwmDisablePeriodicNotification
 527              		.thumb
 528              		.thumb_func
 529              		.type	pwmDisablePeriodicNotification, %function
 530              	pwmDisablePeriodicNotification:
 531              	.LFB266:
 532              		.loc 1 237 0
 533              		.cfi_startproc
 534              		@ args = 0, pretend = 0, frame = 0
 535              		@ frame_needed = 0, uses_anonymous_args = 0
 536              	.LVL29:
 537 0000 08B5     		push	{r3, lr}
 538              		.cfi_def_cfa_offset 8
 539              		.cfi_offset 3, -8
 540              		.cfi_offset 14, -4
 541              	.LBB217:
 542              	.LBB218:
 543              	.LBB219:
 544              	.LBB220:
 545              	.LBB221:
 546              		.loc 2 546 0
 547 0002 2023     		movs	r3, #32
 548              		.syntax unified
 549              	@ 546 "/home/selim/working/ChibiOS/os/ext/CMSIS/include/core_cmFunc.h" 1
 550 0004 83F31188 		MSR basepri, r3
 551              	@ 0 "" 2
 552              	.LVL30:
 553              		.thumb
 554              		.syntax unified
 555              	.LBE221:
 556              	.LBE220:
 557              	.LBE219:
 558              	.LBE218:
 559              	.LBE217:
 560              		.loc 1 246 0
 561 0008 FFF7FEFF 		bl	pwm_lld_disable_periodic_notification
 562              	.LVL31:
 563              	.LBB222:
 564              	.LBB223:
 565              	.LBB224:
 566              	.LBB225:
 567              	.LBB226:
 568              	.LBB227:
 569              		.loc 2 546 0
 570 000c 0023     		movs	r3, #0
ARM GAS  /tmp/ccU3kjVM.s 			page 11


 571              		.syntax unified
 572              	@ 546 "/home/selim/working/ChibiOS/os/ext/CMSIS/include/core_cmFunc.h" 1
 573 000e 83F31188 		MSR basepri, r3
 574              	@ 0 "" 2
 575              	.LVL32:
 576              		.thumb
 577              		.syntax unified
 578 0012 08BD     		pop	{r3, pc}
 579              	.LBE227:
 580              	.LBE226:
 581              	.LBE225:
 582              	.LBE224:
 583              	.LBE223:
 584              	.LBE222:
 585              		.cfi_endproc
 586              	.LFE266:
 587              		.size	pwmDisablePeriodicNotification, .-pwmDisablePeriodicNotification
 588              		.section	.text.pwmEnableChannelNotification,"ax",%progbits
 589              		.align	2
 590              		.p2align 4,,15
 591              		.global	pwmEnableChannelNotification
 592              		.thumb
 593              		.thumb_func
 594              		.type	pwmEnableChannelNotification, %function
 595              	pwmEnableChannelNotification:
 596              	.LFB267:
 597              		.loc 1 262 0
 598              		.cfi_startproc
 599              		@ args = 0, pretend = 0, frame = 0
 600              		@ frame_needed = 0, uses_anonymous_args = 0
 601              	.LVL33:
 602 0000 08B5     		push	{r3, lr}
 603              		.cfi_def_cfa_offset 8
 604              		.cfi_offset 3, -8
 605              		.cfi_offset 14, -4
 606              	.LBB228:
 607              	.LBB229:
 608              	.LBB230:
 609              	.LBB231:
 610              	.LBB232:
 611              		.loc 2 546 0
 612 0002 2023     		movs	r3, #32
 613              		.syntax unified
 614              	@ 546 "/home/selim/working/ChibiOS/os/ext/CMSIS/include/core_cmFunc.h" 1
 615 0004 83F31188 		MSR basepri, r3
 616              	@ 0 "" 2
 617              	.LVL34:
 618              		.thumb
 619              		.syntax unified
 620              	.LBE232:
 621              	.LBE231:
 622              	.LBE230:
 623              	.LBE229:
 624              	.LBE228:
 625              		.loc 1 274 0
 626 0008 FFF7FEFF 		bl	pwm_lld_enable_channel_notification
 627              	.LVL35:
ARM GAS  /tmp/ccU3kjVM.s 			page 12


 628              	.LBB233:
 629              	.LBB234:
 630              	.LBB235:
 631              	.LBB236:
 632              	.LBB237:
 633              	.LBB238:
 634              		.loc 2 546 0
 635 000c 0023     		movs	r3, #0
 636              		.syntax unified
 637              	@ 546 "/home/selim/working/ChibiOS/os/ext/CMSIS/include/core_cmFunc.h" 1
 638 000e 83F31188 		MSR basepri, r3
 639              	@ 0 "" 2
 640              	.LVL36:
 641              		.thumb
 642              		.syntax unified
 643 0012 08BD     		pop	{r3, pc}
 644              	.LBE238:
 645              	.LBE237:
 646              	.LBE236:
 647              	.LBE235:
 648              	.LBE234:
 649              	.LBE233:
 650              		.cfi_endproc
 651              	.LFE267:
 652              		.size	pwmEnableChannelNotification, .-pwmEnableChannelNotification
 653              		.section	.text.pwmDisableChannelNotification,"ax",%progbits
 654              		.align	2
 655              		.p2align 4,,15
 656              		.global	pwmDisableChannelNotification
 657              		.thumb
 658              		.thumb_func
 659              		.type	pwmDisableChannelNotification, %function
 660              	pwmDisableChannelNotification:
 661              	.LFB268:
 662              		.loc 1 290 0
 663              		.cfi_startproc
 664              		@ args = 0, pretend = 0, frame = 0
 665              		@ frame_needed = 0, uses_anonymous_args = 0
 666              	.LVL37:
 667 0000 08B5     		push	{r3, lr}
 668              		.cfi_def_cfa_offset 8
 669              		.cfi_offset 3, -8
 670              		.cfi_offset 14, -4
 671              	.LBB239:
 672              	.LBB240:
 673              	.LBB241:
 674              	.LBB242:
 675              	.LBB243:
 676              		.loc 2 546 0
 677 0002 2023     		movs	r3, #32
 678              		.syntax unified
 679              	@ 546 "/home/selim/working/ChibiOS/os/ext/CMSIS/include/core_cmFunc.h" 1
 680 0004 83F31188 		MSR basepri, r3
 681              	@ 0 "" 2
 682              	.LVL38:
 683              		.thumb
 684              		.syntax unified
ARM GAS  /tmp/ccU3kjVM.s 			page 13


 685              	.LBE243:
 686              	.LBE242:
 687              	.LBE241:
 688              	.LBE240:
 689              	.LBE239:
 690              		.loc 1 302 0
 691 0008 FFF7FEFF 		bl	pwm_lld_disable_channel_notification
 692              	.LVL39:
 693              	.LBB244:
 694              	.LBB245:
 695              	.LBB246:
 696              	.LBB247:
 697              	.LBB248:
 698              	.LBB249:
 699              		.loc 2 546 0
 700 000c 0023     		movs	r3, #0
 701              		.syntax unified
 702              	@ 546 "/home/selim/working/ChibiOS/os/ext/CMSIS/include/core_cmFunc.h" 1
 703 000e 83F31188 		MSR basepri, r3
 704              	@ 0 "" 2
 705              	.LVL40:
 706              		.thumb
 707              		.syntax unified
 708 0012 08BD     		pop	{r3, pc}
 709              	.LBE249:
 710              	.LBE248:
 711              	.LBE247:
 712              	.LBE246:
 713              	.LBE245:
 714              	.LBE244:
 715              		.cfi_endproc
 716              	.LFE268:
 717              		.size	pwmDisableChannelNotification, .-pwmDisableChannelNotification
 718              		.text
 719              	.Letext0:
 720              		.file 3 "/usr/arm-none-eabi/include/machine/_default_types.h"
 721              		.file 4 "/usr/arm-none-eabi/include/sys/_stdint.h"
 722              		.file 5 "/home/selim/working/ChibiOS/os/rt/ports/ARMCMx/compilers/GCC/chtypes.h"
 723              		.file 6 "/home/selim/working/ChibiOS/os/rt/include/chsystypes.h"
 724              		.file 7 "/home/selim/working/ChibiOS/os/rt/include/chschd.h"
 725              		.file 8 "/home/selim/working/ChibiOS/os/rt/ports/ARMCMx/chcore.h"
 726              		.file 9 "/home/selim/working/ChibiOS/os/rt/ports/ARMCMx/chcore_v7m.h"
 727              		.file 10 "/home/selim/working/ChibiOS/os/hal/ports/STM32/LLD/TIMv1/stm32_tim.h"
 728              		.file 11 "/home/selim/working/ChibiOS/os/rt/include/chtm.h"
 729              		.file 12 "/home/selim/working/ChibiOS/os/rt/include/chsem.h"
 730              		.file 13 "/home/selim/working/ChibiOS/os/rt/include/chmtx.h"
 731              		.file 14 "/home/selim/working/ChibiOS/os/hal/include/pwm.h"
 732              		.file 15 "/home/selim/working/ChibiOS/os/hal/ports/STM32/LLD/TIMv1/pwm_lld.h"
 733              		.file 16 "/home/selim/working/ChibiOS/os/rt/include/chsys.h"
 734              		.file 17 "/home/selim/working/ChibiOS/os/hal/osal/rt/osal.h"
 735              		.file 18 "/home/selim/working/ChibiOS/os/ext/CMSIS/include/core_cm4.h"