ARM GAS  /tmp/ccU3kjVM.s 			page 1


   1              		.syntax unified
   2              		.cpu cortex-m4
   3              		.fpu softvfp
   4              		.eabi_attribute 20, 1
   5              		.eabi_attribute 21, 1
   6              		.eabi_attribute 23, 3
   7              		.eabi_attribute 24, 1
   8              		.eabi_attribute 25, 1
   9              		.eabi_attribute 26, 1
  10              		.eabi_attribute 30, 2
  11              		.eabi_attribute 34, 1
  12              		.eabi_attribute 18, 4
  13              		.thumb
  14              		.syntax unified
  15              		.file	"pwm.c"
  16              		.text
  17              	.Ltext0:
  18              		.cfi_sections	.debug_frame
  19              		.section	.text.pwmInit,"ax",%progbits
  20              		.align	2
  21              		.p2align 4,,15
  22              		.global	pwmInit
  23              		.thumb
  24              		.thumb_func
  25              		.type	pwmInit, %function
  26              	pwmInit:
  27              	.LFB258:
  28              		.file 1 "/home/selim/working/ChibiOS/os/hal/src/pwm.c"
  29              		.loc 1 56 0
  30              		.cfi_startproc
  31              		@ args = 0, pretend = 0, frame = 0
  32              		@ frame_needed = 0, uses_anonymous_args = 0
  33              		@ link register save eliminated.
  34              		.loc 1 58 0
  35 0000 FFF7FEBF 		b	pwm_lld_init
  36              	.LVL0:
  37              		.cfi_endproc
  38              	.LFE258:
  39              		.size	pwmInit, .-pwmInit
  40              		.section	.text.pwmObjectInit,"ax",%progbits
  41              		.align	2
  42              		.p2align 4,,15
  43              		.global	pwmObjectInit
  44              		.thumb
  45              		.thumb_func
  46              		.type	pwmObjectInit, %function
  47              	pwmObjectInit:
  48              	.LFB259:
  49              		.loc 1 68 0
  50              		.cfi_startproc
  51              		@ args = 0, pretend = 0, frame = 0
  52              		@ frame_needed = 0, uses_anonymous_args = 0
  53              		@ link register save eliminated.
  54              	.LVL1:
  55              		.loc 1 71 0
  56 0000 0023     		movs	r3, #0
  57              		.loc 1 70 0
ARM GAS  /tmp/ccU3kjVM.s 			page 2


  58 0002 0122     		movs	r2, #1
  59 0004 0270     		strb	r2, [r0]
  60              		.loc 1 71 0
  61 0006 4360     		str	r3, [r0, #4]
  62              		.loc 1 72 0
  63 0008 C360     		str	r3, [r0, #12]
  64              		.loc 1 73 0
  65 000a 0374     		strb	r3, [r0, #16]
  66 000c 7047     		bx	lr
  67              		.cfi_endproc
  68              	.LFE259:
  69              		.size	pwmObjectInit, .-pwmObjectInit
  70 000e 00BF     		.section	.text.pwmStart,"ax",%progbits
  71              		.align	2
  72              		.p2align 4,,15
  73              		.global	pwmStart
  74              		.thumb
  75              		.thumb_func
  76              		.type	pwmStart, %function
  77              	pwmStart:
  78              	.LFB260:
  79              		.loc 1 89 0
  80              		.cfi_startproc
  81              		@ args = 0, pretend = 0, frame = 0
  82              		@ frame_needed = 0, uses_anonymous_args = 0
  83              	.LVL2:
  84 0000 10B5     		push	{r4, lr}
  85              		.cfi_def_cfa_offset 8
  86              		.cfi_offset 4, -8
  87              		.cfi_offset 14, -4
  88              	.LBB141:
  89              	.LBB142:
  90              	.LBB143:
  91              	.LBB144:
  92              	.LBB145:
  93              		.file 2 "/home/selim/working/ChibiOS/os/ext/CMSIS/include/core_cmFunc.h"
  94              		.loc 2 546 0
  95 0002 2023     		movs	r3, #32
  96              	.LBE145:
  97              	.LBE144:
  98              	.LBE143:
  99              	.LBE142:
 100              	.LBE141:
 101              		.loc 1 89 0
 102 0004 0446     		mov	r4, r0
 103              	.LBB150:
 104              	.LBB149:
 105              	.LBB148:
 106              	.LBB147:
 107              	.LBB146:
 108              		.loc 2 546 0
 109              		.syntax unified
 110              	@ 546 "/home/selim/working/ChibiOS/os/ext/CMSIS/include/core_cmFunc.h" 1
 111 0006 83F31188 		MSR basepri, r3
 112              	@ 0 "" 2
 113              	.LVL3:
 114              		.thumb
ARM GAS  /tmp/ccU3kjVM.s 			page 3


 115              		.syntax unified
 116              	.LBE146:
 117              	.LBE147:
 118              	.LBE148:
 119              	.LBE149:
 120              	.LBE150:
 121              		.loc 1 97 0
 122 000a 4B68     		ldr	r3, [r1, #4]
 123 000c 8360     		str	r3, [r0, #8]
 124              		.loc 1 96 0
 125 000e 4160     		str	r1, [r0, #4]
 126              		.loc 1 98 0
 127 0010 FFF7FEFF 		bl	pwm_lld_start
 128              	.LVL4:
 129              		.loc 1 100 0
 130 0014 0222     		movs	r2, #2
 131              		.loc 1 99 0
 132 0016 0023     		movs	r3, #0
 133              		.loc 1 100 0
 134 0018 2270     		strb	r2, [r4]
 135              	.LVL5:
 136              		.loc 1 99 0
 137 001a E360     		str	r3, [r4, #12]
 138              	.LBB151:
 139              	.LBB152:
 140              	.LBB153:
 141              	.LBB154:
 142              	.LBB155:
 143              	.LBB156:
 144              		.loc 2 546 0
 145              		.syntax unified
 146              	@ 546 "/home/selim/working/ChibiOS/os/ext/CMSIS/include/core_cmFunc.h" 1
 147 001c 83F31188 		MSR basepri, r3
 148              	@ 0 "" 2
 149              	.LVL6:
 150              		.thumb
 151              		.syntax unified
 152 0020 10BD     		pop	{r4, pc}
 153              	.LBE156:
 154              	.LBE155:
 155              	.LBE154:
 156              	.LBE153:
 157              	.LBE152:
 158              	.LBE151:
 159              		.cfi_endproc
 160              	.LFE260:
 161              		.size	pwmStart, .-pwmStart
 162 0022 00BF     		.section	.text.pwmStop,"ax",%progbits
 163              		.align	2
 164              		.p2align 4,,15
 165              		.global	pwmStop
 166              		.thumb
 167              		.thumb_func
 168              		.type	pwmStop, %function
 169              	pwmStop:
 170              	.LFB261:
 171              		.loc 1 111 0
ARM GAS  /tmp/ccU3kjVM.s 			page 4


 172              		.cfi_startproc
 173              		@ args = 0, pretend = 0, frame = 0
 174              		@ frame_needed = 0, uses_anonymous_args = 0
 175              	.LVL7:
 176 0000 10B5     		push	{r4, lr}
 177              		.cfi_def_cfa_offset 8
 178              		.cfi_offset 4, -8
 179              		.cfi_offset 14, -4
 180              	.LBB157:
 181              	.LBB158:
 182              	.LBB159:
 183              	.LBB160:
 184              	.LBB161:
 185              		.loc 2 546 0
 186 0002 2023     		movs	r3, #32
 187              	.LBE161:
 188              	.LBE160:
 189              	.LBE159:
 190              	.LBE158:
 191              	.LBE157:
 192              		.loc 1 111 0
 193 0004 0446     		mov	r4, r0
 194              	.LBB166:
 195              	.LBB165:
 196              	.LBB164:
 197              	.LBB163:
 198              	.LBB162:
 199              		.loc 2 546 0
 200              		.syntax unified
 201              	@ 546 "/home/selim/working/ChibiOS/os/ext/CMSIS/include/core_cmFunc.h" 1
 202 0006 83F31188 		MSR basepri, r3
 203              	@ 0 "" 2
 204              	.LVL8:
 205              		.thumb
 206              		.syntax unified
 207              	.LBE162:
 208              	.LBE163:
 209              	.LBE164:
 210              	.LBE165:
 211              	.LBE166:
 212              		.loc 1 118 0
 213 000a FFF7FEFF 		bl	pwm_lld_stop
 214              	.LVL9:
 215              		.loc 1 120 0
 216 000e 0122     		movs	r2, #1
 217              		.loc 1 119 0
 218 0010 0023     		movs	r3, #0
 219              		.loc 1 120 0
 220 0012 2270     		strb	r2, [r4]
 221              	.LVL10:
 222              		.loc 1 119 0
 223 0014 E360     		str	r3, [r4, #12]
 224              	.LBB167:
 225              	.LBB168:
 226              	.LBB169:
 227              	.LBB170:
 228              	.LBB171:
ARM GAS  /tmp/ccU3kjVM.s 			page 5


 229              	.LBB172:
 230              		.loc 2 546 0
 231              		.syntax unified
 232              	@ 546 "/home/selim/working/ChibiOS/os/ext/CMSIS/include/core_cmFunc.h" 1
 233 0016 83F31188 		MSR basepri, r3
 234              	@ 0 "" 2
 235              	.LVL11:
 236              		.thumb
 237              		.syntax unified
 238 001a 10BD     		pop	{r4, pc}
 239              	.LBE172:
 240              	.LBE171:
 241              	.LBE170:
 242              	.LBE169:
 243              	.LBE168:
 244              	.LBE167:
 245              		.cfi_endproc
 246              	.LFE261:
 247              		.size	pwmStop, .-pwmStop
 248              		.section	.text.pwmChangePeriod,"ax",%progbits
 249              		.align	2
 250              		.p2align 4,,15
 251              		.global	pwmChangePeriod
 252              		.thumb
 253              		.thumb_func
 254              		.type	pwmChangePeriod, %function
 255              	pwmChangePeriod:
 256              	.LFB262:
 257              		.loc 1 139 0
 258              		.cfi_startproc
 259              		@ args = 0, pretend = 0, frame = 0
 260              		@ frame_needed = 0, uses_anonymous_args = 0
 261              		@ link register save eliminated.
 262              	.LVL12:
 263              	.LBB173:
 264              	.LBB174:
 265              	.LBB175:
 266              	.LBB176:
 267              	.LBB177:
 268              		.loc 2 546 0
 269 0000 2023     		movs	r3, #32
 270              		.syntax unified
 271              	@ 546 "/home/selim/working/ChibiOS/os/ext/CMSIS/include/core_cmFunc.h" 1
 272 0002 83F31188 		MSR basepri, r3
 273              	@ 0 "" 2
 274              	.LVL13:
 275              		.thumb
 276              		.syntax unified
 277              	.LBE177:
 278              	.LBE176:
 279              	.LBE175:
 280              	.LBE174:
 281              	.LBE173:
 282              		.loc 1 145 0
 283 0006 8369     		ldr	r3, [r0, #24]
 284 0008 8160     		str	r1, [r0, #8]
 285 000a 0139     		subs	r1, r1, #1
ARM GAS  /tmp/ccU3kjVM.s 			page 6


 286              	.LVL14:
 287 000c D962     		str	r1, [r3, #44]
 288              	.LVL15:
 289              	.LBB178:
 290              	.LBB179:
 291              	.LBB180:
 292              	.LBB181:
 293              	.LBB182:
 294              	.LBB183:
 295              		.loc 2 546 0
 296 000e 0023     		movs	r3, #0
 297              		.syntax unified
 298              	@ 546 "/home/selim/working/ChibiOS/os/ext/CMSIS/include/core_cmFunc.h" 1
 299 0010 83F31188 		MSR basepri, r3
 300              	@ 0 "" 2
 301              	.LVL16:
 302              		.thumb
 303              		.syntax unified
 304 0014 7047     		bx	lr
 305              	.LBE183:
 306              	.LBE182:
 307              	.LBE181:
 308              	.LBE180:
 309              	.LBE179:
 310              	.LBE178:
 311              		.cfi_endproc
 312              	.LFE262:
 313              		.size	pwmChangePeriod, .-pwmChangePeriod
 314 0016 00BF     		.section	.text.pwmEnableChannel,"ax",%progbits
 315              		.align	2
 316              		.p2align 4,,15
 317              		.global	pwmEnableChannel
 318              		.thumb
 319              		.thumb_func
 320              		.type	pwmEnableChannel, %function
 321              	pwmEnableChannel:
 322              	.LFB263:
 323              		.loc 1 165 0
 324              		.cfi_startproc
 325              		@ args = 0, pretend = 0, frame = 0
 326              		@ frame_needed = 0, uses_anonymous_args = 0
 327              	.LVL17:
 328 0000 70B5     		push	{r4, r5, r6, lr}
 329              		.cfi_def_cfa_offset 16
 330              		.cfi_offset 4, -16
 331              		.cfi_offset 5, -12
 332              		.cfi_offset 6, -8
 333              		.cfi_offset 14, -4
 334              	.LBB184:
 335              	.LBB185:
 336              	.LBB186:
 337              	.LBB187:
 338              	.LBB188:
 339              		.loc 2 546 0
 340 0002 2024     		movs	r4, #32
 341              		.syntax unified
 342              	@ 546 "/home/selim/working/ChibiOS/os/ext/CMSIS/include/core_cmFunc.h" 1
ARM GAS  /tmp/ccU3kjVM.s 			page 7


 343 0004 84F31188 		MSR basepri, r4
 344              	@ 0 "" 2
 345              	.LVL18:
 346              		.thumb
 347              		.syntax unified
 348              	.LBE188:
 349              	.LBE187:
 350              	.LBE186:
 351              	.LBE185:
 352              	.LBE184:
 353              		.loc 1 173 0
 354 0008 0124     		movs	r4, #1
 355 000a C668     		ldr	r6, [r0, #12]
 356 000c 04FA01F3 		lsl	r3, r4, r1
 357 0010 3343     		orrs	r3, r3, r6
 358 0012 C360     		str	r3, [r0, #12]
 359 0014 FFF7FEFF 		bl	pwm_lld_enable_channel
 360              	.LVL19:
 361              	.LBB189:
 362              	.LBB190:
 363              	.LBB191:
 364              	.LBB192:
 365              	.LBB193:
 366              	.LBB194:
 367              		.loc 2 546 0
 368 0018 0023     		movs	r3, #0
 369              		.syntax unified
 370              	@ 546 "/home/selim/working/ChibiOS/os/ext/CMSIS/include/core_cmFunc.h" 1
 371 001a 83F31188 		MSR basepri, r3
 372              	@ 0 "" 2
 373              	.LVL20:
 374              		.thumb
 375              		.syntax unified
 376 001e 70BD     		pop	{r4, r5, r6, pc}
 377              	.LBE194:
 378              	.LBE193:
 379              	.LBE192:
 380              	.LBE191:
 381              	.LBE190:
 382              	.LBE189:
 383              		.cfi_endproc
 384              	.LFE263:
 385              		.size	pwmEnableChannel, .-pwmEnableChannel
 386              		.section	.text.pwmDisableChannel,"ax",%progbits
 387              		.align	2
 388              		.p2align 4,,15
 389              		.global	pwmDisableChannel
 390              		.thumb
 391              		.thumb_func
 392              		.type	pwmDisableChannel, %function
 393              	pwmDisableChannel:
 394              	.LFB264:
 395              		.loc 1 192 0
 396              		.cfi_startproc
 397              		@ args = 0, pretend = 0, frame = 0
 398              		@ frame_needed = 0, uses_anonymous_args = 0
 399              	.LVL21:
ARM GAS  /tmp/ccU3kjVM.s 			page 8


 400 0000 38B5     		push	{r3, r4, r5, lr}
 401              		.cfi_def_cfa_offset 16
 402              		.cfi_offset 3, -16
 403              		.cfi_offset 4, -12
 404              		.cfi_offset 5, -8
 405              		.cfi_offset 14, -4
 406              	.LBB195:
 407              	.LBB196:
 408              	.LBB197:
 409              	.LBB198:
 410              	.LBB199:
 411              		.loc 2 546 0
 412 0002 2023     		movs	r3, #32
 413              		.syntax unified
 414              	@ 546 "/home/selim/working/ChibiOS/os/ext/CMSIS/include/core_cmFunc.h" 1
 415 0004 83F31188 		MSR basepri, r3
 416              	@ 0 "" 2
 417              	.LVL22:
 418              		.thumb
 419              		.syntax unified
 420              	.LBE199:
 421              	.LBE198:
 422              	.LBE197:
 423              	.LBE196:
 424              	.LBE195:
 425              		.loc 1 200 0
 426 0008 0122     		movs	r2, #1
 427 000a C368     		ldr	r3, [r0, #12]
 428 000c 8A40     		lsls	r2, r2, r1
 429 000e 23EA0203 		bic	r3, r3, r2
 430 0012 C360     		str	r3, [r0, #12]
 431 0014 FFF7FEFF 		bl	pwm_lld_disable_channel
 432              	.LVL23:
 433              	.LBB200:
 434              	.LBB201:
 435              	.LBB202:
 436              	.LBB203:
 437              	.LBB204:
 438              	.LBB205:
 439              		.loc 2 546 0
 440 0018 0023     		movs	r3, #0
 441              		.syntax unified
 442              	@ 546 "/home/selim/working/ChibiOS/os/ext/CMSIS/include/core_cmFunc.h" 1
 443 001a 83F31188 		MSR basepri, r3
 444              	@ 0 "" 2
 445              	.LVL24:
 446              		.thumb
 447              		.syntax unified
 448 001e 38BD     		pop	{r3, r4, r5, pc}
 449              	.LBE205:
 450              	.LBE204:
 451              	.LBE203:
 452              	.LBE202:
 453              	.LBE201:
 454              	.LBE200:
 455              		.cfi_endproc
 456              	.LFE264:
ARM GAS  /tmp/ccU3kjVM.s 			page 9


 457              		.size	pwmDisableChannel, .-pwmDisableChannel
 458              		.section	.text.pwmEnablePeriodicNotification,"ax",%progbits
 459              		.align	2
 460              		.p2align 4,,15
 461              		.global	pwmEnablePeriodicNotification
 462              		.thumb
 463              		.thumb_func
 464              		.type	pwmEnablePeriodicNotification, %function
 465              	pwmEnablePeriodicNotification:
 466              	.LFB265:
 467              		.loc 1 214 0
 468              		.cfi_startproc
 469              		@ args = 0, pretend = 0, frame = 0
 470              		@ frame_needed = 0, uses_anonymous_args = 0
 471              	.LVL25:
 472 0000 08B5     		push	{r3, lr}
 473              		.cfi_def_cfa_offset 8
 474              		.cfi_offset 3, -8
 475              		.cfi_offset 14, -4
 476              	.LBB206:
 477              	.LBB207:
 478              	.LBB208:
 479              	.LBB209:
 480              	.LBB210:
 481              		.loc 2 546 0
 482 0002 2023     		movs	r3, #32
 483              		.syntax unified
 484              	@ 546 "/home/selim/working/ChibiOS/os/ext/CMSIS/include/core_cmFunc.h" 1
 485 0004 83F31188 		MSR basepri, r3
 486              	@ 0 "" 2
 487              	.LVL26:
 488              		.thumb
 489              		.syntax unified
 490              	.LBE210:
 491              	.LBE209:
 492              	.LBE208:
 493              	.LBE207:
 494              	.LBE206:
 495              		.loc 1 223 0
 496 0008 FFF7FEFF 		bl	pwm_lld_enable_periodic_notification
 497              	.LVL27:
 498              	.LBB211:
 499              	.LBB212:
 500              	.LBB213:
 501              	.LBB214:
 502              	.LBB215:
 503              	.LBB216:
 504              		.loc 2 546 0
 505 000c 0023     		movs	r3, #0
 506              		.syntax unified
 507              	@ 546 "/home/selim/working/ChibiOS/os/ext/CMSIS/include/core_cmFunc.h" 1
 508 000e 83F31188 		MSR basepri, r3
 509              	@ 0 "" 2
 510              	.LVL28:
 511              		.thumb
 512              		.syntax unified
 513 0012 08BD     		pop	{r3, pc}
ARM GAS  /tmp/ccU3kjVM.s 			page 10


 514              	.LBE216:
 515              	.LBE215:
 516              	.LBE214:
 517              	.LBE213:
 518              	.LBE212:
 519              	.LBE211:
 520              		.cfi_endproc
 521              	.LFE265:
 522              		.size	pwmEnablePeriodicNotification, .-pwmEnablePeriodicNotification
 523              		.section	.text.pwmDisablePeriodicNotification,"ax",%progbits
 524              		.align	2
 525              		.p2align 4,,15
 526              		.global	pwmDisablePeriodicNotification
 527              		.thumb
 528              		.thumb_func
 529              		.type	pwmDisablePeriodicNotification, %function
 530              	pwmDisablePeriodicNotification:
 531              	.LFB266:
 532              		.loc 1 237 0
 533              		.cfi_startproc
 534              		@ args = 0, pretend = 0, frame = 0
 535              		@ frame_needed = 0, uses_anonymous_args = 0
 536              	.LVL29:
 537 0000 08B5     		push	{r3, lr}
 538              		.cfi_def_cfa_offset 8
 539              		.cfi_offset 3, -8
 540              		.cfi_offset 14, -4
 541              	.LBB217:
 542              	.LBB218:
 543              	.LBB219:
 544              	.LBB220:
 545              	.LBB221:
 546              		.loc 2 546 0
 547 0002 2023     		movs	r3, #32
 548              		.syntax unified
 549              	@ 546 "/home/selim/working/ChibiOS/os/ext/CMSIS/include/core_cmFunc.h" 1
 550 0004 83F31188 		MSR basepri, r3
 551              	@ 0 "" 2
 552              	.LVL30:
 553              		.thumb
 554              		.syntax unified
 555              	.LBE221:
 556              	.LBE220:
 557              	.LBE219:
 558              	.LBE218:
 559              	.LBE217:
 560              		.loc 1 246 0
 561 0008 FFF7FEFF 		bl	pwm_lld_disable_periodic_notification
 562              	.LVL31:
 563              	.LBB222:
 564              	.LBB223:
 565              	.LBB224:
 566              	.LBB225:
 567              	.LBB226:
 568              	.LBB227:
 569              		.loc 2 546 0
 570 000c 0023     		movs	r3, #0
ARM GAS  /tmp/ccU3kjVM.s 			page 11


 571              		.syntax unified
 572              	@ 546 "/home/selim/working/ChibiOS/os/ext/CMSIS/include/core_cmFunc.h" 1
 573 000e 83F31188 		MSR basepri, r3
 574              	@ 0 "" 2
 575              	.LVL32:
 576              		.thumb
 577              		.syntax unified
 578 0012 08BD     		pop	{r3, pc}
 579              	.LBE227:
 580              	.LBE226:
 581              	.LBE225:
 582              	.LBE224:
 583              	.LBE223:
 584              	.LBE222:
 585              		.cfi_endproc
 586              	.LFE266:
 587              		.size	pwmDisablePeriodicNotification, .-pwmDisablePeriodicNotification
 588              		.section	.text.pwmEnableChannelNotification,"ax",%progbits
 589              		.align	2
 590              		.p2align 4,,15
 591              		.global	pwmEnableChannelNotification
 592              		.thumb
 593              		.thumb_func
 594              		.type	pwmEnableChannelNotification, %function
 595              	pwmEnableChannelNotification:
 596              	.LFB267:
 597              		.loc 1 262 0
 598              		.cfi_startproc
 599              		@ args = 0, pretend = 0, frame = 0
 600              		@ frame_needed = 0, uses_anonymous_args = 0
 601              	.LVL33:
 602 0000 08B5     		push	{r3, lr}
 603              		.cfi_def_cfa_offset 8
 604              		.cfi_offset 3, -8
 605              		.cfi_offset 14, -4
 606              	.LBB228:
 607              	.LBB229:
 608              	.LBB230:
 609              	.LBB231:
 610              	.LBB232:
 611              		.loc 2 546 0
 612 0002 2023     		movs	r3, #32
 613              		.syntax unified
 614              	@ 546 "/home/selim/working/ChibiOS/os/ext/CMSIS/include/core_cmFunc.h" 1
 615 0004 83F31188 		MSR basepri, r3
 616              	@ 0 "" 2
 617              	.LVL34:
 618              		.thumb
 619              		.syntax unified
 620              	.LBE232:
 621              	.LBE231:
 622              	.LBE230:
 623              	.LBE229:
 624              	.LBE228:
 625              		.loc 1 274 0
 626 0008 FFF7FEFF 		bl	pwm_lld_enable_channel_notification
 627              	.LVL35:
ARM GAS  /tmp/ccU3kjVM.s 			page 12


 628              	.LBB233:
 629              	.LBB234:
 630              	.LBB235:
 631              	.LBB236:
 632              	.LBB237:
 633              	.LBB238:
 634              		.loc 2 546 0
 635 000c 0023     		movs	r3, #0
 636              		.syntax unified
 637              	@ 546 "/home/selim/working/ChibiOS/os/ext/CMSIS/include/core_cmFunc.h" 1
 638 000e 83F31188 		MSR basepri, r3
 639              	@ 0 "" 2
 640              	.LVL36:
 641              		.thumb
 642              		.syntax unified
 643 0012 08BD     		pop	{r3, pc}
 644              	.LBE238:
 645              	.LBE237:
 646              	.LBE236:
 647              	.LBE235:
 648              	.LBE234:
 649              	.LBE233:
 650              		.cfi_endproc
 651              	.LFE267:
 652              		.size	pwmEnableChannelNotification, .-pwmEnableChannelNotification
 653              		.section	.text.pwmDisableChannelNotification,"ax",%progbits
 654              		.align	2
 655              		.p2align 4,,15
 656              		.global	pwmDisableChannelNotification
 657              		.thumb
 658              		.thumb_func
 659              		.type	pwmDisableChannelNotification, %function
 660              	pwmDisableChannelNotification:
 661              	.LFB268:
 662              		.loc 1 290 0
 663              		.cfi_startproc
 664              		@ args = 0, pretend = 0, frame = 0
 665              		@ frame_needed = 0, uses_anonymous_args = 0
 666              	.LVL37:
 667 0000 08B5     		push	{r3, lr}
 668              		.cfi_def_cfa_offset 8
 669              		.cfi_offset 3, -8
 670              		.cfi_offset 14, -4
 671              	.LBB239:
 672              	.LBB240:
 673              	.LBB241:
 674              	.LBB242:
 675              	.LBB243:
 676              		.loc 2 546 0
 677 0002 2023     		movs	r3, #32
 678              		.syntax unified
 679              	@ 546 "/home/selim/working/ChibiOS/os/ext/CMSIS/include/core_cmFunc.h" 1
 680 0004 83F31188 		MSR basepri, r3
 681              	@ 0 "" 2
 682              	.LVL38:
 683              		.thumb
 684              		.syntax unified
ARM GAS  /tmp/ccU3kjVM.s 			page 13


 685              	.LBE243:
 686              	.LBE242:
 687              	.LBE241:
 688              	.LBE240:
 689              	.LBE239:
 690              		.loc 1 302 0
 691 0008 FFF7FEFF 		bl	pwm_lld_disable_channel_notification
 692              	.LVL39:
 693              	.LBB244:
 694              	.LBB245:
 695              	.LBB246:
 696              	.LBB247:
 697              	.LBB248:
 698              	.LBB249:
 699              		.loc 2 546 0
 700 000c 0023     		movs	r3, #0
 701              		.syntax unified
 702              	@ 546 "/home/selim/working/ChibiOS/os/ext/CMSIS/include/core_cmFunc.h" 1
 703 000e 83F31188 		MSR basepri, r3
 704              	@ 0 "" 2
 705              	.LVL40:
 706              		.thumb
 707              		.syntax unified
 708 0012 08BD     		pop	{r3, pc}
 709              	.LBE249:
 710              	.LBE248:
 711              	.LBE247:
 712              	.LBE246:
 713              	.LBE245:
 714              	.LBE244:
 715              		.cfi_endproc
 716              	.LFE268:
 717              		.size	pwmDisableChannelNotification, .-pwmDisableChannelNotification
 718              		.text
 719              	.Letext0:
 720              		.file 3 "/usr/arm-none-eabi/include/machine/_default_types.h"
 721              		.file 4 "/usr/arm-none-eabi/include/sys/_stdint.h"
 722              		.file 5 "/home/selim/working/ChibiOS/os/rt/ports/ARMCMx/compilers/GCC/chtypes.h"
 723              		.file 6 "/home/selim/working/ChibiOS/os/rt/include/chsystypes.h"
 724              		.file 7 "/home/selim/working/ChibiOS/os/rt/include/chschd.h"
 725              		.file 8 "/home/selim/working/ChibiOS/os/rt/ports/ARMCMx/chcore.h"
 726              		.file 9 "/home/selim/working/ChibiOS/os/rt/ports/ARMCMx/chcore_v7m.h"
 727              		.file 10 "/home/selim/working/ChibiOS/os/hal/ports/STM32/LLD/TIMv1/stm32_tim.h"
 728              		.file 11 "/home/selim/working/ChibiOS/os/rt/include/chtm.h"
 729              		.file 12 "/home/selim/working/ChibiOS/os/rt/include/chsem.h"
 730              		.file 13 "/home/selim/working/ChibiOS/os/rt/include/chmtx.h"
 731              		.file 14 "/home/selim/working/ChibiOS/os/hal/include/pwm.h"
 732              		.file 15 "/home/selim/working/ChibiOS/os/hal/ports/STM32/LLD/TIMv1/pwm_lld.h"
 733              		.file 16 "/home/selim/working/ChibiOS/os/rt/include/chsys.h"
 734              		.file 17 "/home/selim/working/ChibiOS/os/hal/osal/rt/osal.h"
 735              		.file 18 "/home/selim/working/ChibiOS/os/ext/CMSIS/include/core_cm4.h"
 736              		.section	.debug_info,"",%progbits
 737              	.Ldebug_info0:
 738 0000 B6130000 		.4byte	0x13b6
 739 0004 0400     		.2byte	0x4
 740 0006 00000000 		.4byte	.Ldebug_abbrev0
 741 000a 04       		.byte	0x4
ARM GAS  /tmp/ccU3kjVM.s 			page 14


 742 000b 01       		.uleb128 0x1
 743 000c F4040000 		.4byte	.LASF167
 744 0010 0C       		.byte	0xc
 745 0011 63030000 		.4byte	.LASF168
 746 0015 30000000 		.4byte	.Ldebug_ranges0+0x30
 747 0019 00000000 		.4byte	0
 748 001d 00000000 		.4byte	.Ldebug_line0
 749 0021 02       		.uleb128 0x2
 750 0022 04       		.byte	0x4
 751 0023 05       		.byte	0x5
 752 0024 696E7400 		.ascii	"int\000"
 753 0028 03       		.uleb128 0x3
 754 0029 04       		.byte	0x4
 755 002a 07       		.byte	0x7
 756 002b 4E020000 		.4byte	.LASF0
 757 002f 03       		.uleb128 0x3
 758 0030 08       		.byte	0x8
 759 0031 05       		.byte	0x5
 760 0032 BF010000 		.4byte	.LASF1
 761 0036 03       		.uleb128 0x3
 762 0037 08       		.byte	0x8
 763 0038 04       		.byte	0x4
 764 0039 C3030000 		.4byte	.LASF2
 765 003d 03       		.uleb128 0x3
 766 003e 01       		.byte	0x1
 767 003f 06       		.byte	0x6
 768 0040 26010000 		.4byte	.LASF3
 769 0044 04       		.uleb128 0x4
 770 0045 35000000 		.4byte	.LASF7
 771 0049 03       		.byte	0x3
 772 004a 1D       		.byte	0x1d
 773 004b 4F000000 		.4byte	0x4f
 774 004f 03       		.uleb128 0x3
 775 0050 01       		.byte	0x1
 776 0051 08       		.byte	0x8
 777 0052 A8040000 		.4byte	.LASF4
 778 0056 03       		.uleb128 0x3
 779 0057 02       		.byte	0x2
 780 0058 05       		.byte	0x5
 781 0059 DB040000 		.4byte	.LASF5
 782 005d 03       		.uleb128 0x3
 783 005e 02       		.byte	0x2
 784 005f 07       		.byte	0x7
 785 0060 EB010000 		.4byte	.LASF6
 786 0064 04       		.uleb128 0x4
 787 0065 37030000 		.4byte	.LASF8
 788 0069 03       		.byte	0x3
 789 006a 3F       		.byte	0x3f
 790 006b 6F000000 		.4byte	0x6f
 791 006f 03       		.uleb128 0x3
 792 0070 04       		.byte	0x4
 793 0071 05       		.byte	0x5
 794 0072 6E010000 		.4byte	.LASF9
 795 0076 04       		.uleb128 0x4
 796 0077 F2060000 		.4byte	.LASF10
 797 007b 03       		.byte	0x3
 798 007c 41       		.byte	0x41
ARM GAS  /tmp/ccU3kjVM.s 			page 15


 799 007d 81000000 		.4byte	0x81
 800 0081 03       		.uleb128 0x3
 801 0082 04       		.byte	0x4
 802 0083 07       		.byte	0x7
 803 0084 7C060000 		.4byte	.LASF11
 804 0088 04       		.uleb128 0x4
 805 0089 32040000 		.4byte	.LASF12
 806 008d 03       		.byte	0x3
 807 008e 5B       		.byte	0x5b
 808 008f 93000000 		.4byte	0x93
 809 0093 03       		.uleb128 0x3
 810 0094 08       		.byte	0x8
 811 0095 07       		.byte	0x7
 812 0096 92000000 		.4byte	.LASF13
 813 009a 04       		.uleb128 0x4
 814 009b 99070000 		.4byte	.LASF14
 815 009f 04       		.byte	0x4
 816 00a0 14       		.byte	0x14
 817 00a1 44000000 		.4byte	0x44
 818 00a5 04       		.uleb128 0x4
 819 00a6 A0040000 		.4byte	.LASF15
 820 00aa 04       		.byte	0x4
 821 00ab 1F       		.byte	0x1f
 822 00ac 64000000 		.4byte	0x64
 823 00b0 04       		.uleb128 0x4
 824 00b1 53060000 		.4byte	.LASF16
 825 00b5 04       		.byte	0x4
 826 00b6 20       		.byte	0x20
 827 00b7 76000000 		.4byte	0x76
 828 00bb 04       		.uleb128 0x4
 829 00bc 2C000000 		.4byte	.LASF17
 830 00c0 04       		.byte	0x4
 831 00c1 26       		.byte	0x26
 832 00c2 88000000 		.4byte	0x88
 833 00c6 05       		.uleb128 0x5
 834 00c7 A5000000 		.4byte	0xa5
 835 00cb 05       		.uleb128 0x5
 836 00cc B0000000 		.4byte	0xb0
 837 00d0 04       		.uleb128 0x4
 838 00d1 5A070000 		.4byte	.LASF18
 839 00d5 05       		.byte	0x5
 840 00d6 46       		.byte	0x46
 841 00d7 B0000000 		.4byte	0xb0
 842 00db 04       		.uleb128 0x4
 843 00dc 19080000 		.4byte	.LASF19
 844 00e0 05       		.byte	0x5
 845 00e1 49       		.byte	0x49
 846 00e2 9A000000 		.4byte	0x9a
 847 00e6 04       		.uleb128 0x4
 848 00e7 A9010000 		.4byte	.LASF20
 849 00eb 05       		.byte	0x5
 850 00ec 4A       		.byte	0x4a
 851 00ed 9A000000 		.4byte	0x9a
 852 00f1 04       		.uleb128 0x4
 853 00f2 63040000 		.4byte	.LASF21
 854 00f6 05       		.byte	0x5
 855 00f7 4B       		.byte	0x4b
ARM GAS  /tmp/ccU3kjVM.s 			page 16


 856 00f8 9A000000 		.4byte	0x9a
 857 00fc 04       		.uleb128 0x4
 858 00fd 82040000 		.4byte	.LASF22
 859 0101 05       		.byte	0x5
 860 0102 4D       		.byte	0x4d
 861 0103 B0000000 		.4byte	0xb0
 862 0107 04       		.uleb128 0x4
 863 0108 AF020000 		.4byte	.LASF23
 864 010c 05       		.byte	0x5
 865 010d 4E       		.byte	0x4e
 866 010e A5000000 		.4byte	0xa5
 867 0112 04       		.uleb128 0x4
 868 0113 06030000 		.4byte	.LASF24
 869 0117 05       		.byte	0x5
 870 0118 50       		.byte	0x50
 871 0119 B0000000 		.4byte	0xb0
 872 011d 04       		.uleb128 0x4
 873 011e 48020000 		.4byte	.LASF25
 874 0122 05       		.byte	0x5
 875 0123 52       		.byte	0x52
 876 0124 A5000000 		.4byte	0xa5
 877 0128 04       		.uleb128 0x4
 878 0129 D4060000 		.4byte	.LASF26
 879 012d 06       		.byte	0x6
 880 012e 33       		.byte	0x33
 881 012f B0000000 		.4byte	0xb0
 882 0133 04       		.uleb128 0x4
 883 0134 C4060000 		.4byte	.LASF27
 884 0138 06       		.byte	0x6
 885 0139 3F       		.byte	0x3f
 886 013a 3E010000 		.4byte	0x13e
 887 013e 06       		.uleb128 0x6
 888 013f 9A020000 		.4byte	.LASF47
 889 0143 44       		.byte	0x44
 890 0144 07       		.byte	0x7
 891 0145 C2       		.byte	0xc2
 892 0146 2B020000 		.4byte	0x22b
 893 014a 07       		.uleb128 0x7
 894 014b D5050000 		.4byte	.LASF28
 895 014f 07       		.byte	0x7
 896 0150 C3       		.byte	0xc3
 897 0151 36020000 		.4byte	0x236
 898 0155 00       		.byte	0
 899 0156 07       		.uleb128 0x7
 900 0157 7B040000 		.4byte	.LASF29
 901 015b 07       		.byte	0x7
 902 015c C5       		.byte	0xc5
 903 015d 36020000 		.4byte	0x236
 904 0161 04       		.byte	0x4
 905 0162 07       		.uleb128 0x7
 906 0163 FA000000 		.4byte	.LASF30
 907 0167 07       		.byte	0x7
 908 0168 C7       		.byte	0xc7
 909 0169 FC000000 		.4byte	0xfc
 910 016d 08       		.byte	0x8
 911 016e 07       		.uleb128 0x7
 912 016f 5D080000 		.4byte	.LASF31
ARM GAS  /tmp/ccU3kjVM.s 			page 17


 913 0173 07       		.byte	0x7
 914 0174 C8       		.byte	0xc8
 915 0175 86040000 		.4byte	0x486
 916 0179 0C       		.byte	0xc
 917 017a 07       		.uleb128 0x7
 918 017b DB010000 		.4byte	.LASF32
 919 017f 07       		.byte	0x7
 920 0180 CA       		.byte	0xca
 921 0181 36020000 		.4byte	0x236
 922 0185 10       		.byte	0x10
 923 0186 07       		.uleb128 0x7
 924 0187 F4030000 		.4byte	.LASF33
 925 018b 07       		.byte	0x7
 926 018c CB       		.byte	0xcb
 927 018d 36020000 		.4byte	0x236
 928 0191 14       		.byte	0x14
 929 0192 07       		.uleb128 0x7
 930 0193 03080000 		.4byte	.LASF34
 931 0197 07       		.byte	0x7
 932 0198 D2       		.byte	0xd2
 933 0199 27070000 		.4byte	0x727
 934 019d 18       		.byte	0x18
 935 019e 07       		.uleb128 0x7
 936 019f E5040000 		.4byte	.LASF35
 937 01a3 07       		.byte	0x7
 938 01a4 DD       		.byte	0xdd
 939 01a5 E6000000 		.4byte	0xe6
 940 01a9 1C       		.byte	0x1c
 941 01aa 07       		.uleb128 0x7
 942 01ab E8050000 		.4byte	.LASF36
 943 01af 07       		.byte	0x7
 944 01b0 E1       		.byte	0xe1
 945 01b1 DB000000 		.4byte	0xdb
 946 01b5 1D       		.byte	0x1d
 947 01b6 07       		.uleb128 0x7
 948 01b7 8C070000 		.4byte	.LASF37
 949 01bb 07       		.byte	0x7
 950 01bc E6       		.byte	0xe6
 951 01bd F1000000 		.4byte	0xf1
 952 01c1 1E       		.byte	0x1e
 953 01c2 08       		.uleb128 0x8
 954 01c3 705F7500 		.ascii	"p_u\000"
 955 01c7 07       		.byte	0x7
 956 01c8 3101     		.2byte	0x131
 957 01ca 62060000 		.4byte	0x662
 958 01ce 20       		.byte	0x20
 959 01cf 09       		.uleb128 0x9
 960 01d0 51030000 		.4byte	.LASF38
 961 01d4 07       		.byte	0x7
 962 01d5 3601     		.2byte	0x136
 963 01d7 3C020000 		.4byte	0x23c
 964 01db 24       		.byte	0x24
 965 01dc 09       		.uleb128 0x9
 966 01dd 6A020000 		.4byte	.LASF39
 967 01e1 07       		.byte	0x7
 968 01e2 3C01     		.2byte	0x13c
 969 01e4 60020000 		.4byte	0x260
ARM GAS  /tmp/ccU3kjVM.s 			page 18


 970 01e8 28       		.byte	0x28
 971 01e9 09       		.uleb128 0x9
 972 01ea 2D080000 		.4byte	.LASF40
 973 01ee 07       		.byte	0x7
 974 01ef 4001     		.2byte	0x140
 975 01f1 07010000 		.4byte	0x107
 976 01f5 30       		.byte	0x30
 977 01f6 09       		.uleb128 0x9
 978 01f7 DD030000 		.4byte	.LASF41
 979 01fb 07       		.byte	0x7
 980 01fc 4601     		.2byte	0x146
 981 01fe 12010000 		.4byte	0x112
 982 0202 34       		.byte	0x34
 983 0203 09       		.uleb128 0x9
 984 0204 D1040000 		.4byte	.LASF42
 985 0208 07       		.byte	0x7
 986 0209 4D01     		.2byte	0x14d
 987 020b 21070000 		.4byte	0x721
 988 020f 38       		.byte	0x38
 989 0210 09       		.uleb128 0x9
 990 0211 DE060000 		.4byte	.LASF43
 991 0215 07       		.byte	0x7
 992 0216 5101     		.2byte	0x151
 993 0218 FC000000 		.4byte	0xfc
 994 021c 3C       		.byte	0x3c
 995 021d 09       		.uleb128 0x9
 996 021e 06020000 		.4byte	.LASF44
 997 0222 07       		.byte	0x7
 998 0223 5801     		.2byte	0x158
 999 0225 13030000 		.4byte	0x313
 1000 0229 40       		.byte	0x40
 1001 022a 00       		.byte	0
 1002 022b 04       		.uleb128 0x4
 1003 022c 99030000 		.4byte	.LASF45
 1004 0230 06       		.byte	0x6
 1005 0231 44       		.byte	0x44
 1006 0232 36020000 		.4byte	0x236
 1007 0236 0A       		.uleb128 0xa
 1008 0237 04       		.byte	0x4
 1009 0238 33010000 		.4byte	0x133
 1010 023c 04       		.uleb128 0x4
 1011 023d 0A080000 		.4byte	.LASF46
 1012 0241 06       		.byte	0x6
 1013 0242 49       		.byte	0x49
 1014 0243 47020000 		.4byte	0x247
 1015 0247 06       		.uleb128 0x6
 1016 0248 B5020000 		.4byte	.LASF48
 1017 024c 04       		.byte	0x4
 1018 024d 07       		.byte	0x7
 1019 024e B0       		.byte	0xb0
 1020 024f 60020000 		.4byte	0x260
 1021 0253 07       		.uleb128 0x7
 1022 0254 D5050000 		.4byte	.LASF28
 1023 0258 07       		.byte	0x7
 1024 0259 B1       		.byte	0xb1
 1025 025a 36020000 		.4byte	0x236
 1026 025e 00       		.byte	0
ARM GAS  /tmp/ccU3kjVM.s 			page 19


 1027 025f 00       		.byte	0
 1028 0260 04       		.uleb128 0x4
 1029 0261 73070000 		.4byte	.LASF49
 1030 0265 06       		.byte	0x6
 1031 0266 50       		.byte	0x50
 1032 0267 6B020000 		.4byte	0x26b
 1033 026b 06       		.uleb128 0x6
 1034 026c 4B000000 		.4byte	.LASF50
 1035 0270 08       		.byte	0x8
 1036 0271 07       		.byte	0x7
 1037 0272 B7       		.byte	0xb7
 1038 0273 90020000 		.4byte	0x290
 1039 0277 07       		.uleb128 0x7
 1040 0278 D5050000 		.4byte	.LASF28
 1041 027c 07       		.byte	0x7
 1042 027d B8       		.byte	0xb8
 1043 027e 36020000 		.4byte	0x236
 1044 0282 00       		.byte	0
 1045 0283 07       		.uleb128 0x7
 1046 0284 7B040000 		.4byte	.LASF29
 1047 0288 07       		.byte	0x7
 1048 0289 B9       		.byte	0xb9
 1049 028a 36020000 		.4byte	0x236
 1050 028e 04       		.byte	0x4
 1051 028f 00       		.byte	0
 1052 0290 04       		.uleb128 0x4
 1053 0291 0D000000 		.4byte	.LASF51
 1054 0295 06       		.byte	0x6
 1055 0296 57       		.byte	0x57
 1056 0297 9B020000 		.4byte	0x29b
 1057 029b 0B       		.uleb128 0xb
 1058 029c F8020000 		.4byte	.LASF52
 1059 02a0 1C       		.byte	0x1c
 1060 02a1 07       		.byte	0x7
 1061 02a2 9001     		.2byte	0x190
 1062 02a4 F7020000 		.4byte	0x2f7
 1063 02a8 09       		.uleb128 0x9
 1064 02a9 63060000 		.4byte	.LASF53
 1065 02ad 07       		.byte	0x7
 1066 02ae 9101     		.2byte	0x191
 1067 02b0 60020000 		.4byte	0x260
 1068 02b4 00       		.byte	0
 1069 02b5 09       		.uleb128 0x9
 1070 02b6 ED040000 		.4byte	.LASF54
 1071 02ba 07       		.byte	0x7
 1072 02bb 9201     		.2byte	0x192
 1073 02bd FC000000 		.4byte	0xfc
 1074 02c1 08       		.byte	0x8
 1075 02c2 09       		.uleb128 0x9
 1076 02c3 09040000 		.4byte	.LASF55
 1077 02c7 07       		.byte	0x7
 1078 02c8 9401     		.2byte	0x194
 1079 02ca 86040000 		.4byte	0x486
 1080 02ce 0C       		.byte	0xc
 1081 02cf 09       		.uleb128 0x9
 1082 02d0 FE010000 		.4byte	.LASF56
 1083 02d4 07       		.byte	0x7
ARM GAS  /tmp/ccU3kjVM.s 			page 20


 1084 02d5 9701     		.2byte	0x197
 1085 02d7 36020000 		.4byte	0x236
 1086 02db 10       		.byte	0x10
 1087 02dc 09       		.uleb128 0x9
 1088 02dd 2A040000 		.4byte	.LASF57
 1089 02e1 07       		.byte	0x7
 1090 02e2 9801     		.2byte	0x198
 1091 02e4 36020000 		.4byte	0x236
 1092 02e8 14       		.byte	0x14
 1093 02e9 09       		.uleb128 0x9
 1094 02ea 20040000 		.4byte	.LASF58
 1095 02ee 07       		.byte	0x7
 1096 02ef 9B01     		.2byte	0x19b
 1097 02f1 36020000 		.4byte	0x236
 1098 02f5 18       		.byte	0x18
 1099 02f6 00       		.byte	0
 1100 02f7 04       		.uleb128 0x4
 1101 02f8 E9060000 		.4byte	.LASF59
 1102 02fc 06       		.byte	0x6
 1103 02fd 5C       		.byte	0x5c
 1104 02fe 02030000 		.4byte	0x302
 1105 0302 0A       		.uleb128 0xa
 1106 0303 04       		.byte	0x4
 1107 0304 08030000 		.4byte	0x308
 1108 0308 0C       		.uleb128 0xc
 1109 0309 13030000 		.4byte	0x313
 1110 030d 0D       		.uleb128 0xd
 1111 030e 13030000 		.4byte	0x313
 1112 0312 00       		.byte	0
 1113 0313 0E       		.uleb128 0xe
 1114 0314 04       		.byte	0x4
 1115 0315 04       		.uleb128 0x4
 1116 0316 6B040000 		.4byte	.LASF60
 1117 031a 06       		.byte	0x6
 1118 031b 61       		.byte	0x61
 1119 031c 20030000 		.4byte	0x320
 1120 0320 0B       		.uleb128 0xb
 1121 0321 23060000 		.4byte	.LASF61
 1122 0325 14       		.byte	0x14
 1123 0326 07       		.byte	0x7
 1124 0327 6B01     		.2byte	0x16b
 1125 0329 6F030000 		.4byte	0x36f
 1126 032d 09       		.uleb128 0x9
 1127 032e 5B020000 		.4byte	.LASF62
 1128 0332 07       		.byte	0x7
 1129 0333 6C01     		.2byte	0x16c
 1130 0335 39070000 		.4byte	0x739
 1131 0339 00       		.byte	0
 1132 033a 09       		.uleb128 0x9
 1133 033b 17020000 		.4byte	.LASF63
 1134 033f 07       		.byte	0x7
 1135 0340 6D01     		.2byte	0x16d
 1136 0342 39070000 		.4byte	0x739
 1137 0346 04       		.byte	0x4
 1138 0347 09       		.uleb128 0x9
 1139 0348 6B060000 		.4byte	.LASF64
 1140 034c 07       		.byte	0x7
ARM GAS  /tmp/ccU3kjVM.s 			page 21


 1141 034d 6E01     		.2byte	0x16e
 1142 034f 28010000 		.4byte	0x128
 1143 0353 08       		.byte	0x8
 1144 0354 09       		.uleb128 0x9
 1145 0355 63080000 		.4byte	.LASF65
 1146 0359 07       		.byte	0x7
 1147 035a 6F01     		.2byte	0x16f
 1148 035c F7020000 		.4byte	0x2f7
 1149 0360 0C       		.byte	0xc
 1150 0361 09       		.uleb128 0x9
 1151 0362 62070000 		.4byte	.LASF66
 1152 0366 07       		.byte	0x7
 1153 0367 7101     		.2byte	0x171
 1154 0369 13030000 		.4byte	0x313
 1155 036d 10       		.byte	0x10
 1156 036e 00       		.byte	0
 1157 036f 04       		.uleb128 0x4
 1158 0370 BD000000 		.4byte	.LASF67
 1159 0374 06       		.byte	0x6
 1160 0375 66       		.byte	0x66
 1161 0376 7A030000 		.4byte	0x37a
 1162 037a 0B       		.uleb128 0xb
 1163 037b AC030000 		.4byte	.LASF68
 1164 037f 10       		.byte	0x10
 1165 0380 07       		.byte	0x7
 1166 0381 7B01     		.2byte	0x17b
 1167 0383 BC030000 		.4byte	0x3bc
 1168 0387 09       		.uleb128 0x9
 1169 0388 5B020000 		.4byte	.LASF62
 1170 038c 07       		.byte	0x7
 1171 038d 7C01     		.2byte	0x17c
 1172 038f 39070000 		.4byte	0x739
 1173 0393 00       		.byte	0
 1174 0394 09       		.uleb128 0x9
 1175 0395 17020000 		.4byte	.LASF63
 1176 0399 07       		.byte	0x7
 1177 039a 7E01     		.2byte	0x17e
 1178 039c 39070000 		.4byte	0x739
 1179 03a0 04       		.byte	0x4
 1180 03a1 09       		.uleb128 0x9
 1181 03a2 6B060000 		.4byte	.LASF64
 1182 03a6 07       		.byte	0x7
 1183 03a7 8001     		.2byte	0x180
 1184 03a9 28010000 		.4byte	0x128
 1185 03ad 08       		.byte	0x8
 1186 03ae 09       		.uleb128 0x9
 1187 03af E8030000 		.4byte	.LASF69
 1188 03b3 07       		.byte	0x7
 1189 03b4 8801     		.2byte	0x188
 1190 03b6 28010000 		.4byte	0x128
 1191 03ba 0C       		.byte	0xc
 1192 03bb 00       		.byte	0
 1193 03bc 04       		.uleb128 0x4
 1194 03bd 5C000000 		.4byte	.LASF70
 1195 03c1 06       		.byte	0x6
 1196 03c2 6B       		.byte	0x6b
 1197 03c3 C7030000 		.4byte	0x3c7
ARM GAS  /tmp/ccU3kjVM.s 			page 22


 1198 03c7 0B       		.uleb128 0xb
 1199 03c8 8A040000 		.4byte	.LASF71
 1200 03cc 04       		.byte	0x4
 1201 03cd 07       		.byte	0x7
 1202 03ce A201     		.2byte	0x1a2
 1203 03d0 E2030000 		.4byte	0x3e2
 1204 03d4 09       		.uleb128 0x9
 1205 03d5 30070000 		.4byte	.LASF72
 1206 03d9 07       		.byte	0x7
 1207 03da AA01     		.2byte	0x1aa
 1208 03dc 3F070000 		.4byte	0x73f
 1209 03e0 00       		.byte	0
 1210 03e1 00       		.byte	0
 1211 03e2 04       		.uleb128 0x4
 1212 03e3 D7020000 		.4byte	.LASF73
 1213 03e7 06       		.byte	0x6
 1214 03e8 70       		.byte	0x70
 1215 03e9 ED030000 		.4byte	0x3ed
 1216 03ed 0F       		.uleb128 0xf
 1217 03ee 03060000 		.4byte	.LASF74
 1218 03f2 5001     		.2byte	0x150
 1219 03f4 07       		.byte	0x7
 1220 03f5 C201     		.2byte	0x1c2
 1221 03f7 49040000 		.4byte	0x449
 1222 03fb 09       		.uleb128 0x9
 1223 03fc 93070000 		.4byte	.LASF75
 1224 0400 07       		.byte	0x7
 1225 0401 C601     		.2byte	0x1c6
 1226 0403 90020000 		.4byte	0x290
 1227 0407 00       		.byte	0
 1228 0408 09       		.uleb128 0x9
 1229 0409 4C010000 		.4byte	.LASF76
 1230 040d 07       		.byte	0x7
 1231 040e CA01     		.2byte	0x1ca
 1232 0410 6F030000 		.4byte	0x36f
 1233 0414 1C       		.byte	0x1c
 1234 0415 08       		.uleb128 0x8
 1235 0416 64626700 		.ascii	"dbg\000"
 1236 041a 07       		.byte	0x7
 1237 041b CE01     		.2byte	0x1ce
 1238 041d BC030000 		.4byte	0x3bc
 1239 0421 2C       		.byte	0x2c
 1240 0422 09       		.uleb128 0x9
 1241 0423 B2000000 		.4byte	.LASF77
 1242 0427 07       		.byte	0x7
 1243 0428 D201     		.2byte	0x1d2
 1244 042a 33010000 		.4byte	0x133
 1245 042e 30       		.byte	0x30
 1246 042f 08       		.uleb128 0x8
 1247 0430 746D00   		.ascii	"tm\000"
 1248 0433 07       		.byte	0x7
 1249 0434 D701     		.2byte	0x1d7
 1250 0436 57060000 		.4byte	0x657
 1251 043a 74       		.byte	0x74
 1252 043b 09       		.uleb128 0x9
 1253 043c 39020000 		.4byte	.LASF78
 1254 0440 07       		.byte	0x7
ARM GAS  /tmp/ccU3kjVM.s 			page 23


 1255 0441 E301     		.2byte	0x1e3
 1256 0443 44070000 		.4byte	0x744
 1257 0447 78       		.byte	0x78
 1258 0448 00       		.byte	0
 1259 0449 03       		.uleb128 0x3
 1260 044a 04       		.byte	0x4
 1261 044b 07       		.byte	0x7
 1262 044c 90030000 		.4byte	.LASF79
 1263 0450 10       		.uleb128 0x10
 1264 0451 CB000000 		.4byte	0xcb
 1265 0455 60040000 		.4byte	0x460
 1266 0459 11       		.uleb128 0x11
 1267 045a 49040000 		.4byte	0x449
 1268 045e 01       		.byte	0x1
 1269 045f 00       		.byte	0
 1270 0460 10       		.uleb128 0x10
 1271 0461 CB000000 		.4byte	0xcb
 1272 0465 70040000 		.4byte	0x470
 1273 0469 11       		.uleb128 0x11
 1274 046a 49040000 		.4byte	0x449
 1275 046e 03       		.byte	0x3
 1276 046f 00       		.byte	0
 1277 0470 04       		.uleb128 0x4
 1278 0471 0E020000 		.4byte	.LASF80
 1279 0475 08       		.byte	0x8
 1280 0476 65       		.byte	0x65
 1281 0477 13030000 		.4byte	0x313
 1282 047b 04       		.uleb128 0x4
 1283 047c 46030000 		.4byte	.LASF81
 1284 0480 08       		.byte	0x8
 1285 0481 6D       		.byte	0x6d
 1286 0482 BB000000 		.4byte	0xbb
 1287 0486 06       		.uleb128 0x6
 1288 0487 41070000 		.4byte	.LASF82
 1289 048b 04       		.byte	0x4
 1290 048c 08       		.byte	0x8
 1291 048d 89       		.byte	0x89
 1292 048e 9F040000 		.4byte	0x49f
 1293 0492 12       		.uleb128 0x12
 1294 0493 72313300 		.ascii	"r13\000"
 1295 0497 08       		.byte	0x8
 1296 0498 8A       		.byte	0x8a
 1297 0499 1A050000 		.4byte	0x51a
 1298 049d 00       		.byte	0
 1299 049e 00       		.byte	0
 1300 049f 06       		.uleb128 0x6
 1301 04a0 3F000000 		.4byte	.LASF83
 1302 04a4 24       		.byte	0x24
 1303 04a5 09       		.byte	0x9
 1304 04a6 F4       		.byte	0xf4
 1305 04a7 1A050000 		.4byte	0x51a
 1306 04ab 08       		.uleb128 0x8
 1307 04ac 723400   		.ascii	"r4\000"
 1308 04af 09       		.byte	0x9
 1309 04b0 0701     		.2byte	0x107
 1310 04b2 70040000 		.4byte	0x470
 1311 04b6 00       		.byte	0
ARM GAS  /tmp/ccU3kjVM.s 			page 24


 1312 04b7 08       		.uleb128 0x8
 1313 04b8 723500   		.ascii	"r5\000"
 1314 04bb 09       		.byte	0x9
 1315 04bc 0801     		.2byte	0x108
 1316 04be 70040000 		.4byte	0x470
 1317 04c2 04       		.byte	0x4
 1318 04c3 08       		.uleb128 0x8
 1319 04c4 723600   		.ascii	"r6\000"
 1320 04c7 09       		.byte	0x9
 1321 04c8 0901     		.2byte	0x109
 1322 04ca 70040000 		.4byte	0x470
 1323 04ce 08       		.byte	0x8
 1324 04cf 08       		.uleb128 0x8
 1325 04d0 723700   		.ascii	"r7\000"
 1326 04d3 09       		.byte	0x9
 1327 04d4 0A01     		.2byte	0x10a
 1328 04d6 70040000 		.4byte	0x470
 1329 04da 0C       		.byte	0xc
 1330 04db 08       		.uleb128 0x8
 1331 04dc 723800   		.ascii	"r8\000"
 1332 04df 09       		.byte	0x9
 1333 04e0 0B01     		.2byte	0x10b
 1334 04e2 70040000 		.4byte	0x470
 1335 04e6 10       		.byte	0x10
 1336 04e7 08       		.uleb128 0x8
 1337 04e8 723900   		.ascii	"r9\000"
 1338 04eb 09       		.byte	0x9
 1339 04ec 0C01     		.2byte	0x10c
 1340 04ee 70040000 		.4byte	0x470
 1341 04f2 14       		.byte	0x14
 1342 04f3 08       		.uleb128 0x8
 1343 04f4 72313000 		.ascii	"r10\000"
 1344 04f8 09       		.byte	0x9
 1345 04f9 0D01     		.2byte	0x10d
 1346 04fb 70040000 		.4byte	0x470
 1347 04ff 18       		.byte	0x18
 1348 0500 08       		.uleb128 0x8
 1349 0501 72313100 		.ascii	"r11\000"
 1350 0505 09       		.byte	0x9
 1351 0506 0E01     		.2byte	0x10e
 1352 0508 70040000 		.4byte	0x470
 1353 050c 1C       		.byte	0x1c
 1354 050d 08       		.uleb128 0x8
 1355 050e 6C7200   		.ascii	"lr\000"
 1356 0511 09       		.byte	0x9
 1357 0512 0F01     		.2byte	0x10f
 1358 0514 70040000 		.4byte	0x470
 1359 0518 20       		.byte	0x20
 1360 0519 00       		.byte	0
 1361 051a 0A       		.uleb128 0xa
 1362 051b 04       		.byte	0x4
 1363 051c 9F040000 		.4byte	0x49f
 1364 0520 13       		.uleb128 0x13
 1365 0521 60       		.byte	0x60
 1366 0522 0A       		.byte	0xa
 1367 0523 9E01     		.2byte	0x19e
 1368 0525 2C060000 		.4byte	0x62c
ARM GAS  /tmp/ccU3kjVM.s 			page 25


 1369 0529 08       		.uleb128 0x8
 1370 052a 43523100 		.ascii	"CR1\000"
 1371 052e 0A       		.byte	0xa
 1372 052f 9F01     		.2byte	0x19f
 1373 0531 CB000000 		.4byte	0xcb
 1374 0535 00       		.byte	0
 1375 0536 08       		.uleb128 0x8
 1376 0537 43523200 		.ascii	"CR2\000"
 1377 053b 0A       		.byte	0xa
 1378 053c A001     		.2byte	0x1a0
 1379 053e CB000000 		.4byte	0xcb
 1380 0542 04       		.byte	0x4
 1381 0543 09       		.uleb128 0x9
 1382 0544 AA020000 		.4byte	.LASF84
 1383 0548 0A       		.byte	0xa
 1384 0549 A101     		.2byte	0x1a1
 1385 054b CB000000 		.4byte	0xcb
 1386 054f 08       		.byte	0x8
 1387 0550 09       		.uleb128 0x9
 1388 0551 1A000000 		.4byte	.LASF85
 1389 0555 0A       		.byte	0xa
 1390 0556 A201     		.2byte	0x1a2
 1391 0558 CB000000 		.4byte	0xcb
 1392 055c 0C       		.byte	0xc
 1393 055d 08       		.uleb128 0x8
 1394 055e 535200   		.ascii	"SR\000"
 1395 0561 0A       		.byte	0xa
 1396 0562 A301     		.2byte	0x1a3
 1397 0564 CB000000 		.4byte	0xcb
 1398 0568 10       		.byte	0x10
 1399 0569 08       		.uleb128 0x8
 1400 056a 45475200 		.ascii	"EGR\000"
 1401 056e 0A       		.byte	0xa
 1402 056f A401     		.2byte	0x1a4
 1403 0571 CB000000 		.4byte	0xcb
 1404 0575 14       		.byte	0x14
 1405 0576 09       		.uleb128 0x9
 1406 0577 14010000 		.4byte	.LASF86
 1407 057b 0A       		.byte	0xa
 1408 057c A501     		.2byte	0x1a5
 1409 057e CB000000 		.4byte	0xcb
 1410 0582 18       		.byte	0x18
 1411 0583 09       		.uleb128 0x9
 1412 0584 1A010000 		.4byte	.LASF87
 1413 0588 0A       		.byte	0xa
 1414 0589 A601     		.2byte	0x1a6
 1415 058b CB000000 		.4byte	0xcb
 1416 058f 1C       		.byte	0x1c
 1417 0590 09       		.uleb128 0x9
 1418 0591 BA010000 		.4byte	.LASF88
 1419 0595 0A       		.byte	0xa
 1420 0596 A701     		.2byte	0x1a7
 1421 0598 CB000000 		.4byte	0xcb
 1422 059c 20       		.byte	0x20
 1423 059d 08       		.uleb128 0x8
 1424 059e 434E5400 		.ascii	"CNT\000"
 1425 05a2 0A       		.byte	0xa
ARM GAS  /tmp/ccU3kjVM.s 			page 26


 1426 05a3 A801     		.2byte	0x1a8
 1427 05a5 CB000000 		.4byte	0xcb
 1428 05a9 24       		.byte	0x24
 1429 05aa 08       		.uleb128 0x8
 1430 05ab 50534300 		.ascii	"PSC\000"
 1431 05af 0A       		.byte	0xa
 1432 05b0 A901     		.2byte	0x1a9
 1433 05b2 CB000000 		.4byte	0xcb
 1434 05b6 28       		.byte	0x28
 1435 05b7 08       		.uleb128 0x8
 1436 05b8 41525200 		.ascii	"ARR\000"
 1437 05bc 0A       		.byte	0xa
 1438 05bd AA01     		.2byte	0x1aa
 1439 05bf CB000000 		.4byte	0xcb
 1440 05c3 2C       		.byte	0x2c
 1441 05c4 08       		.uleb128 0x8
 1442 05c5 52435200 		.ascii	"RCR\000"
 1443 05c9 0A       		.byte	0xa
 1444 05ca AB01     		.2byte	0x1ab
 1445 05cc CB000000 		.4byte	0xcb
 1446 05d0 30       		.byte	0x30
 1447 05d1 08       		.uleb128 0x8
 1448 05d2 43435200 		.ascii	"CCR\000"
 1449 05d6 0A       		.byte	0xa
 1450 05d7 AC01     		.2byte	0x1ac
 1451 05d9 2C060000 		.4byte	0x62c
 1452 05dd 34       		.byte	0x34
 1453 05de 09       		.uleb128 0x9
 1454 05df EB000000 		.4byte	.LASF89
 1455 05e3 0A       		.byte	0xa
 1456 05e4 AD01     		.2byte	0x1ad
 1457 05e6 CB000000 		.4byte	0xcb
 1458 05ea 44       		.byte	0x44
 1459 05eb 08       		.uleb128 0x8
 1460 05ec 44435200 		.ascii	"DCR\000"
 1461 05f0 0A       		.byte	0xa
 1462 05f1 AE01     		.2byte	0x1ae
 1463 05f3 CB000000 		.4byte	0xcb
 1464 05f7 48       		.byte	0x48
 1465 05f8 09       		.uleb128 0x9
 1466 05f9 BF060000 		.4byte	.LASF90
 1467 05fd 0A       		.byte	0xa
 1468 05fe AF01     		.2byte	0x1af
 1469 0600 CB000000 		.4byte	0xcb
 1470 0604 4C       		.byte	0x4c
 1471 0605 08       		.uleb128 0x8
 1472 0606 4F5200   		.ascii	"OR\000"
 1473 0609 0A       		.byte	0xa
 1474 060a B001     		.2byte	0x1b0
 1475 060c CB000000 		.4byte	0xcb
 1476 0610 50       		.byte	0x50
 1477 0611 09       		.uleb128 0x9
 1478 0612 20010000 		.4byte	.LASF91
 1479 0616 0A       		.byte	0xa
 1480 0617 B101     		.2byte	0x1b1
 1481 0619 CB000000 		.4byte	0xcb
 1482 061d 54       		.byte	0x54
ARM GAS  /tmp/ccU3kjVM.s 			page 27


 1483 061e 09       		.uleb128 0x9
 1484 061f 41060000 		.4byte	.LASF92
 1485 0623 0A       		.byte	0xa
 1486 0624 B201     		.2byte	0x1b2
 1487 0626 31060000 		.4byte	0x631
 1488 062a 58       		.byte	0x58
 1489 062b 00       		.byte	0
 1490 062c 05       		.uleb128 0x5
 1491 062d 60040000 		.4byte	0x460
 1492 0631 05       		.uleb128 0x5
 1493 0632 50040000 		.4byte	0x450
 1494 0636 14       		.uleb128 0x14
 1495 0637 EC020000 		.4byte	.LASF93
 1496 063b 0A       		.byte	0xa
 1497 063c B301     		.2byte	0x1b3
 1498 063e 20050000 		.4byte	0x520
 1499 0642 15       		.uleb128 0x15
 1500 0643 04       		.byte	0x4
 1501 0644 0B       		.byte	0xb
 1502 0645 38       		.byte	0x38
 1503 0646 57060000 		.4byte	0x657
 1504 064a 07       		.uleb128 0x7
 1505 064b 3A070000 		.4byte	.LASF94
 1506 064f 0B       		.byte	0xb
 1507 0650 3C       		.byte	0x3c
 1508 0651 D0000000 		.4byte	0xd0
 1509 0655 00       		.byte	0
 1510 0656 00       		.byte	0
 1511 0657 04       		.uleb128 0x4
 1512 0658 0F040000 		.4byte	.LASF95
 1513 065c 0B       		.byte	0xb
 1514 065d 3D       		.byte	0x3d
 1515 065e 42060000 		.4byte	0x642
 1516 0662 16       		.uleb128 0x16
 1517 0663 04       		.byte	0x4
 1518 0664 07       		.byte	0x7
 1519 0665 FA       		.byte	0xfa
 1520 0666 BF060000 		.4byte	0x6bf
 1521 066a 17       		.uleb128 0x17
 1522 066b 25000000 		.4byte	.LASF96
 1523 066f 07       		.byte	0x7
 1524 0670 0101     		.2byte	0x101
 1525 0672 07010000 		.4byte	0x107
 1526 0676 17       		.uleb128 0x17
 1527 0677 A9000000 		.4byte	.LASF97
 1528 067b 07       		.byte	0x7
 1529 067c 0801     		.2byte	0x108
 1530 067e 07010000 		.4byte	0x107
 1531 0682 17       		.uleb128 0x17
 1532 0683 FC070000 		.4byte	.LASF98
 1533 0687 07       		.byte	0x7
 1534 0688 0F01     		.2byte	0x10f
 1535 068a 13030000 		.4byte	0x313
 1536 068e 17       		.uleb128 0x17
 1537 068f 1F000000 		.4byte	.LASF99
 1538 0693 07       		.byte	0x7
 1539 0694 1601     		.2byte	0x116
ARM GAS  /tmp/ccU3kjVM.s 			page 28


 1540 0696 BF060000 		.4byte	0x6bf
 1541 069a 17       		.uleb128 0x17
 1542 069b 63020000 		.4byte	.LASF100
 1543 069f 07       		.byte	0x7
 1544 06a0 1E01     		.2byte	0x11e
 1545 06a2 EA060000 		.4byte	0x6ea
 1546 06a6 17       		.uleb128 0x17
 1547 06a7 5C060000 		.4byte	.LASF101
 1548 06ab 07       		.byte	0x7
 1549 06ac 2701     		.2byte	0x127
 1550 06ae 21070000 		.4byte	0x721
 1551 06b2 17       		.uleb128 0x17
 1552 06b3 CE050000 		.4byte	.LASF102
 1553 06b7 07       		.byte	0x7
 1554 06b8 2F01     		.2byte	0x12f
 1555 06ba 12010000 		.4byte	0x112
 1556 06be 00       		.byte	0
 1557 06bf 0A       		.uleb128 0xa
 1558 06c0 04       		.byte	0x4
 1559 06c1 2B020000 		.4byte	0x22b
 1560 06c5 06       		.uleb128 0x6
 1561 06c6 34060000 		.4byte	.LASF103
 1562 06ca 0C       		.byte	0xc
 1563 06cb 0C       		.byte	0xc
 1564 06cc 34       		.byte	0x34
 1565 06cd EA060000 		.4byte	0x6ea
 1566 06d1 07       		.uleb128 0x7
 1567 06d2 E3010000 		.4byte	.LASF104
 1568 06d6 0C       		.byte	0xc
 1569 06d7 35       		.byte	0x35
 1570 06d8 60020000 		.4byte	0x260
 1571 06dc 00       		.byte	0
 1572 06dd 07       		.uleb128 0x7
 1573 06de CB040000 		.4byte	.LASF105
 1574 06e2 0C       		.byte	0xc
 1575 06e3 37       		.byte	0x37
 1576 06e4 1D010000 		.4byte	0x11d
 1577 06e8 08       		.byte	0x8
 1578 06e9 00       		.byte	0
 1579 06ea 0A       		.uleb128 0xa
 1580 06eb 04       		.byte	0x4
 1581 06ec C5060000 		.4byte	0x6c5
 1582 06f0 06       		.uleb128 0x6
 1583 06f1 83070000 		.4byte	.LASF106
 1584 06f5 10       		.byte	0x10
 1585 06f6 0D       		.byte	0xd
 1586 06f7 39       		.byte	0x39
 1587 06f8 21070000 		.4byte	0x721
 1588 06fc 07       		.uleb128 0x7
 1589 06fd B6040000 		.4byte	.LASF107
 1590 0701 0D       		.byte	0xd
 1591 0702 3A       		.byte	0x3a
 1592 0703 60020000 		.4byte	0x260
 1593 0707 00       		.byte	0
 1594 0708 07       		.uleb128 0x7
 1595 0709 44080000 		.4byte	.LASF108
 1596 070d 0D       		.byte	0xd
ARM GAS  /tmp/ccU3kjVM.s 			page 29


 1597 070e 3C       		.byte	0x3c
 1598 070f 36020000 		.4byte	0x236
 1599 0713 08       		.byte	0x8
 1600 0714 07       		.uleb128 0x7
 1601 0715 CD060000 		.4byte	.LASF109
 1602 0719 0D       		.byte	0xd
 1603 071a 3E       		.byte	0x3e
 1604 071b 5F070000 		.4byte	0x75f
 1605 071f 0C       		.byte	0xc
 1606 0720 00       		.byte	0
 1607 0721 0A       		.uleb128 0xa
 1608 0722 04       		.byte	0x4
 1609 0723 F0060000 		.4byte	0x6f0
 1610 0727 0A       		.uleb128 0xa
 1611 0728 04       		.byte	0x4
 1612 0729 34070000 		.4byte	0x734
 1613 072d 03       		.uleb128 0x3
 1614 072e 01       		.byte	0x1
 1615 072f 08       		.byte	0x8
 1616 0730 AE060000 		.4byte	.LASF110
 1617 0734 18       		.uleb128 0x18
 1618 0735 2D070000 		.4byte	0x72d
 1619 0739 0A       		.uleb128 0xa
 1620 073a 04       		.byte	0x4
 1621 073b 15030000 		.4byte	0x315
 1622 073f 05       		.uleb128 0x5
 1623 0740 27070000 		.4byte	0x727
 1624 0744 10       		.uleb128 0x10
 1625 0745 7B040000 		.4byte	0x47b
 1626 0749 54070000 		.4byte	0x754
 1627 074d 11       		.uleb128 0x11
 1628 074e 49040000 		.4byte	0x449
 1629 0752 1A       		.byte	0x1a
 1630 0753 00       		.byte	0
 1631 0754 04       		.uleb128 0x4
 1632 0755 2B020000 		.4byte	.LASF111
 1633 0759 0D       		.byte	0xd
 1634 075a 34       		.byte	0x34
 1635 075b F0060000 		.4byte	0x6f0
 1636 075f 0A       		.uleb128 0xa
 1637 0760 04       		.byte	0x4
 1638 0761 54070000 		.4byte	0x754
 1639 0765 03       		.uleb128 0x3
 1640 0766 01       		.byte	0x1
 1641 0767 02       		.byte	0x2
 1642 0768 9A040000 		.4byte	.LASF112
 1643 076c 19       		.uleb128 0x19
 1644 076d 01       		.byte	0x1
 1645 076e 4F000000 		.4byte	0x4f
 1646 0772 0E       		.byte	0xe
 1647 0773 4A       		.byte	0x4a
 1648 0774 8B070000 		.4byte	0x78b
 1649 0778 1A       		.uleb128 0x1a
 1650 0779 39080000 		.4byte	.LASF113
 1651 077d 00       		.byte	0
 1652 077e 1A       		.uleb128 0x1a
 1653 077f A5060000 		.4byte	.LASF114
ARM GAS  /tmp/ccU3kjVM.s 			page 30


 1654 0783 01       		.byte	0x1
 1655 0784 1A       		.uleb128 0x1a
 1656 0785 01010000 		.4byte	.LASF115
 1657 0789 02       		.byte	0x2
 1658 078a 00       		.byte	0
 1659 078b 04       		.uleb128 0x4
 1660 078c C9070000 		.4byte	.LASF116
 1661 0790 0E       		.byte	0xe
 1662 0791 4E       		.byte	0x4e
 1663 0792 6C070000 		.4byte	0x76c
 1664 0796 04       		.uleb128 0x4
 1665 0797 BF070000 		.4byte	.LASF117
 1666 079b 0E       		.byte	0xe
 1667 079c 53       		.byte	0x53
 1668 079d A1070000 		.4byte	0x7a1
 1669 07a1 0B       		.uleb128 0xb
 1670 07a2 BF070000 		.4byte	.LASF117
 1671 07a6 1C       		.byte	0x1c
 1672 07a7 0F       		.byte	0xf
 1673 07a8 7901     		.2byte	0x179
 1674 07aa 0A080000 		.4byte	0x80a
 1675 07ae 09       		.uleb128 0x9
 1676 07af 5F010000 		.4byte	.LASF118
 1677 07b3 0F       		.byte	0xf
 1678 07b4 7D01     		.2byte	0x17d
 1679 07b6 8B070000 		.4byte	0x78b
 1680 07ba 00       		.byte	0
 1681 07bb 09       		.uleb128 0x9
 1682 07bc B8060000 		.4byte	.LASF119
 1683 07c0 0F       		.byte	0xf
 1684 07c1 8101     		.2byte	0x181
 1685 07c3 00090000 		.4byte	0x900
 1686 07c7 04       		.byte	0x4
 1687 07c8 09       		.uleb128 0x9
 1688 07c9 29070000 		.4byte	.LASF120
 1689 07cd 0F       		.byte	0xf
 1690 07ce 8501     		.2byte	0x185
 1691 07d0 50080000 		.4byte	0x850
 1692 07d4 08       		.byte	0x8
 1693 07d5 09       		.uleb128 0x9
 1694 07d6 74060000 		.4byte	.LASF121
 1695 07da 0F       		.byte	0xf
 1696 07db 8901     		.2byte	0x189
 1697 07dd 44080000 		.4byte	0x844
 1698 07e1 0C       		.byte	0xc
 1699 07e2 09       		.uleb128 0x9
 1700 07e3 65010000 		.4byte	.LASF122
 1701 07e7 0F       		.byte	0xf
 1702 07e8 8D01     		.2byte	0x18d
 1703 07ea 38080000 		.4byte	0x838
 1704 07ee 10       		.byte	0x10
 1705 07ef 09       		.uleb128 0x9
 1706 07f0 33080000 		.4byte	.LASF123
 1707 07f4 0F       		.byte	0xf
 1708 07f5 9501     		.2byte	0x195
 1709 07f7 B0000000 		.4byte	0xb0
 1710 07fb 14       		.byte	0x14
ARM GAS  /tmp/ccU3kjVM.s 			page 31


 1711 07fc 08       		.uleb128 0x8
 1712 07fd 74696D00 		.ascii	"tim\000"
 1713 0801 0F       		.byte	0xf
 1714 0802 9901     		.2byte	0x199
 1715 0804 0B090000 		.4byte	0x90b
 1716 0808 18       		.byte	0x18
 1717 0809 00       		.byte	0
 1718 080a 04       		.uleb128 0x4
 1719 080b CD010000 		.4byte	.LASF124
 1720 080f 0E       		.byte	0xe
 1721 0810 5A       		.byte	0x5a
 1722 0811 15080000 		.4byte	0x815
 1723 0815 0A       		.uleb128 0xa
 1724 0816 04       		.byte	0x4
 1725 0817 1B080000 		.4byte	0x81b
 1726 081b 0C       		.uleb128 0xc
 1727 081c 26080000 		.4byte	0x826
 1728 0820 0D       		.uleb128 0xd
 1729 0821 26080000 		.4byte	0x826
 1730 0825 00       		.byte	0
 1731 0826 0A       		.uleb128 0xa
 1732 0827 04       		.byte	0x4
 1733 0828 96070000 		.4byte	0x796
 1734 082c 14       		.uleb128 0x14
 1735 082d 42010000 		.4byte	.LASF125
 1736 0831 0F       		.byte	0xf
 1737 0832 2501     		.2byte	0x125
 1738 0834 B0000000 		.4byte	0xb0
 1739 0838 14       		.uleb128 0x14
 1740 0839 00000000 		.4byte	.LASF126
 1741 083d 0F       		.byte	0xf
 1742 083e 2A01     		.2byte	0x12a
 1743 0840 9A000000 		.4byte	0x9a
 1744 0844 14       		.uleb128 0x14
 1745 0845 DC050000 		.4byte	.LASF127
 1746 0849 0F       		.byte	0xf
 1747 084a 2F01     		.2byte	0x12f
 1748 084c B0000000 		.4byte	0xb0
 1749 0850 14       		.uleb128 0x14
 1750 0851 D4070000 		.4byte	.LASF128
 1751 0855 0F       		.byte	0xf
 1752 0856 3401     		.2byte	0x134
 1753 0858 B0000000 		.4byte	0xb0
 1754 085c 13       		.uleb128 0x13
 1755 085d 08       		.byte	0x8
 1756 085e 0F       		.byte	0xf
 1757 085f 3901     		.2byte	0x139
 1758 0861 80080000 		.4byte	0x880
 1759 0865 09       		.uleb128 0x9
 1760 0866 B3060000 		.4byte	.LASF129
 1761 086a 0F       		.byte	0xf
 1762 086b 3D01     		.2byte	0x13d
 1763 086d 2C080000 		.4byte	0x82c
 1764 0871 00       		.byte	0
 1765 0872 09       		.uleb128 0x9
 1766 0873 E3020000 		.4byte	.LASF130
 1767 0877 0F       		.byte	0xf
ARM GAS  /tmp/ccU3kjVM.s 			page 32


 1768 0878 4301     		.2byte	0x143
 1769 087a 0A080000 		.4byte	0x80a
 1770 087e 04       		.byte	0x4
 1771 087f 00       		.byte	0
 1772 0880 14       		.uleb128 0x14
 1773 0881 49070000 		.4byte	.LASF131
 1774 0885 0F       		.byte	0xf
 1775 0886 4501     		.2byte	0x145
 1776 0888 5C080000 		.4byte	0x85c
 1777 088c 13       		.uleb128 0x13
 1778 088d 34       		.byte	0x34
 1779 088e 0F       		.byte	0xf
 1780 088f 4A01     		.2byte	0x14a
 1781 0891 E4080000 		.4byte	0x8e4
 1782 0895 09       		.uleb128 0x9
 1783 0896 F0000000 		.4byte	.LASF132
 1784 089a 0F       		.byte	0xf
 1785 089b 5001     		.2byte	0x150
 1786 089d B0000000 		.4byte	0xb0
 1787 08a1 00       		.byte	0
 1788 08a2 09       		.uleb128 0x9
 1789 08a3 29070000 		.4byte	.LASF120
 1790 08a7 0F       		.byte	0xf
 1791 08a8 5601     		.2byte	0x156
 1792 08aa 50080000 		.4byte	0x850
 1793 08ae 04       		.byte	0x4
 1794 08af 09       		.uleb128 0x9
 1795 08b0 E3020000 		.4byte	.LASF130
 1796 08b4 0F       		.byte	0xf
 1797 08b5 5C01     		.2byte	0x15c
 1798 08b7 0A080000 		.4byte	0x80a
 1799 08bb 08       		.byte	0x8
 1800 08bc 09       		.uleb128 0x9
 1801 08bd 65010000 		.4byte	.LASF122
 1802 08c1 0F       		.byte	0xf
 1803 08c2 6001     		.2byte	0x160
 1804 08c4 E4080000 		.4byte	0x8e4
 1805 08c8 0C       		.byte	0xc
 1806 08c9 08       		.uleb128 0x8
 1807 08ca 63723200 		.ascii	"cr2\000"
 1808 08ce 0F       		.byte	0xf
 1809 08cf 6601     		.2byte	0x166
 1810 08d1 B0000000 		.4byte	0xb0
 1811 08d5 2C       		.byte	0x2c
 1812 08d6 09       		.uleb128 0x9
 1813 08d7 6B080000 		.4byte	.LASF133
 1814 08db 0F       		.byte	0xf
 1815 08dc 7301     		.2byte	0x173
 1816 08de B0000000 		.4byte	0xb0
 1817 08e2 30       		.byte	0x30
 1818 08e3 00       		.byte	0
 1819 08e4 10       		.uleb128 0x10
 1820 08e5 80080000 		.4byte	0x880
 1821 08e9 F4080000 		.4byte	0x8f4
 1822 08ed 11       		.uleb128 0x11
 1823 08ee 49040000 		.4byte	0x449
 1824 08f2 03       		.byte	0x3
ARM GAS  /tmp/ccU3kjVM.s 			page 33


 1825 08f3 00       		.byte	0
 1826 08f4 14       		.uleb128 0x14
 1827 08f5 69070000 		.4byte	.LASF134
 1828 08f9 0F       		.byte	0xf
 1829 08fa 7401     		.2byte	0x174
 1830 08fc 8C080000 		.4byte	0x88c
 1831 0900 0A       		.uleb128 0xa
 1832 0901 04       		.byte	0x4
 1833 0902 06090000 		.4byte	0x906
 1834 0906 18       		.uleb128 0x18
 1835 0907 F4080000 		.4byte	0x8f4
 1836 090b 0A       		.uleb128 0xa
 1837 090c 04       		.byte	0x4
 1838 090d 36060000 		.4byte	0x636
 1839 0911 1B       		.uleb128 0x1b
 1840 0912 FD060000 		.4byte	.LASF138
 1841 0916 02       		.byte	0x2
 1842 0917 2002     		.2byte	0x220
 1843 0919 03       		.byte	0x3
 1844 091a 2B090000 		.4byte	0x92b
 1845 091e 1C       		.uleb128 0x1c
 1846 091f 33020000 		.4byte	.LASF169
 1847 0923 02       		.byte	0x2
 1848 0924 2002     		.2byte	0x220
 1849 0926 B0000000 		.4byte	0xb0
 1850 092a 00       		.byte	0
 1851 092b 1D       		.uleb128 0x1d
 1852 092c 6B000000 		.4byte	.LASF135
 1853 0930 09       		.byte	0x9
 1854 0931 BC01     		.2byte	0x1bc
 1855 0933 03       		.byte	0x3
 1856 0934 1D       		.uleb128 0x1d
 1857 0935 53010000 		.4byte	.LASF136
 1858 0939 09       		.byte	0x9
 1859 093a CA01     		.2byte	0x1ca
 1860 093c 03       		.byte	0x3
 1861 093d 1D       		.uleb128 0x1d
 1862 093e F9050000 		.4byte	.LASF137
 1863 0942 10       		.byte	0x10
 1864 0943 5A01     		.2byte	0x15a
 1865 0945 03       		.byte	0x3
 1866 0946 1B       		.uleb128 0x1b
 1867 0947 21080000 		.4byte	.LASF139
 1868 094b 10       		.byte	0x10
 1869 094c 6601     		.2byte	0x166
 1870 094e 03       		.byte	0x3
 1871 094f 61090000 		.4byte	0x961
 1872 0953 1E       		.uleb128 0x1e
 1873 0954 F0050000 		.4byte	.LASF147
 1874 0958 71090000 		.4byte	0x971
 1875 095c 21080000 		.4byte	.LASF139
 1876 0960 00       		.byte	0
 1877 0961 10       		.uleb128 0x10
 1878 0962 34070000 		.4byte	0x734
 1879 0966 71090000 		.4byte	0x971
 1880 096a 11       		.uleb128 0x11
 1881 096b 49040000 		.4byte	0x449
ARM GAS  /tmp/ccU3kjVM.s 			page 34


 1882 096f 0B       		.byte	0xb
 1883 0970 00       		.byte	0
 1884 0971 18       		.uleb128 0x18
 1885 0972 61090000 		.4byte	0x961
 1886 0976 1D       		.uleb128 0x1d
 1887 0977 0D060000 		.4byte	.LASF140
 1888 097b 11       		.byte	0x11
 1889 097c C801     		.2byte	0x1c8
 1890 097e 03       		.byte	0x3
 1891 097f 1D       		.uleb128 0x1d
 1892 0980 1F020000 		.4byte	.LASF141
 1893 0984 11       		.byte	0x11
 1894 0985 BD01     		.2byte	0x1bd
 1895 0987 03       		.byte	0x3
 1896 0988 1F       		.uleb128 0x1f
 1897 0989 B2010000 		.4byte	.LASF142
 1898 098d 01       		.byte	0x1
 1899 098e 38       		.byte	0x38
 1900 098f 00000000 		.4byte	.LFB258
 1901 0993 04000000 		.4byte	.LFE258-.LFB258
 1902 0997 01       		.uleb128 0x1
 1903 0998 9C       		.byte	0x9c
 1904 0999 A7090000 		.4byte	0x9a7
 1905 099d 20       		.uleb128 0x20
 1906 099e 04000000 		.4byte	.LVL0
 1907 09a2 4D130000 		.4byte	0x134d
 1908 09a6 00       		.byte	0
 1909 09a7 1F       		.uleb128 0x1f
 1910 09a8 CF030000 		.4byte	.LASF143
 1911 09ac 01       		.byte	0x1
 1912 09ad 44       		.byte	0x44
 1913 09ae 00000000 		.4byte	.LFB259
 1914 09b2 0E000000 		.4byte	.LFE259-.LFB259
 1915 09b6 01       		.uleb128 0x1
 1916 09b7 9C       		.byte	0x9c
 1917 09b8 CA090000 		.4byte	0x9ca
 1918 09bc 21       		.uleb128 0x21
 1919 09bd 41030000 		.4byte	.LASF145
 1920 09c1 01       		.byte	0x1
 1921 09c2 44       		.byte	0x44
 1922 09c3 26080000 		.4byte	0x826
 1923 09c7 01       		.uleb128 0x1
 1924 09c8 50       		.byte	0x50
 1925 09c9 00       		.byte	0
 1926 09ca 1F       		.uleb128 0x1f
 1927 09cb 0B010000 		.4byte	.LASF144
 1928 09cf 01       		.byte	0x1
 1929 09d0 59       		.byte	0x59
 1930 09d1 00000000 		.4byte	.LFB260
 1931 09d5 22000000 		.4byte	.LFE260-.LFB260
 1932 09d9 01       		.uleb128 0x1
 1933 09da 9C       		.byte	0x9c
 1934 09db C60A0000 		.4byte	0xac6
 1935 09df 22       		.uleb128 0x22
 1936 09e0 41030000 		.4byte	.LASF145
 1937 09e4 01       		.byte	0x1
 1938 09e5 59       		.byte	0x59
ARM GAS  /tmp/ccU3kjVM.s 			page 35


 1939 09e6 26080000 		.4byte	0x826
 1940 09ea 00000000 		.4byte	.LLST0
 1941 09ee 22       		.uleb128 0x22
 1942 09ef B8060000 		.4byte	.LASF119
 1943 09f3 01       		.byte	0x1
 1944 09f4 59       		.byte	0x59
 1945 09f5 00090000 		.4byte	0x900
 1946 09f9 1E000000 		.4byte	.LLST1
 1947 09fd 23       		.uleb128 0x23
 1948 09fe F0050000 		.4byte	.LASF147
 1949 0a02 D60A0000 		.4byte	0xad6
 1950 0a06 24       		.uleb128 0x24
 1951 0a07 7F090000 		.4byte	0x97f
 1952 0a0b 02000000 		.4byte	.LBB141
 1953 0a0f 00000000 		.4byte	.Ldebug_ranges0+0
 1954 0a13 01       		.byte	0x1
 1955 0a14 5D       		.byte	0x5d
 1956 0a15 560A0000 		.4byte	0xa56
 1957 0a19 25       		.uleb128 0x25
 1958 0a1a 3D090000 		.4byte	0x93d
 1959 0a1e 02000000 		.4byte	.LBB142
 1960 0a22 00000000 		.4byte	.Ldebug_ranges0+0
 1961 0a26 11       		.byte	0x11
 1962 0a27 BF01     		.2byte	0x1bf
 1963 0a29 25       		.uleb128 0x25
 1964 0a2a 2B090000 		.4byte	0x92b
 1965 0a2e 02000000 		.4byte	.LBB143
 1966 0a32 00000000 		.4byte	.Ldebug_ranges0+0
 1967 0a36 10       		.byte	0x10
 1968 0a37 5C01     		.2byte	0x15c
 1969 0a39 25       		.uleb128 0x25
 1970 0a3a 11090000 		.4byte	0x911
 1971 0a3e 02000000 		.4byte	.LBB144
 1972 0a42 00000000 		.4byte	.Ldebug_ranges0+0
 1973 0a46 09       		.byte	0x9
 1974 0a47 BF01     		.2byte	0x1bf
 1975 0a49 26       		.uleb128 0x26
 1976 0a4a 1E090000 		.4byte	0x91e
 1977 0a4e 3F000000 		.4byte	.LLST2
 1978 0a52 00       		.byte	0
 1979 0a53 00       		.byte	0
 1980 0a54 00       		.byte	0
 1981 0a55 00       		.byte	0
 1982 0a56 27       		.uleb128 0x27
 1983 0a57 76090000 		.4byte	0x976
 1984 0a5b 1C000000 		.4byte	.LBB151
 1985 0a5f 06000000 		.4byte	.LBE151-.LBB151
 1986 0a63 01       		.byte	0x1
 1987 0a64 65       		.byte	0x65
 1988 0a65 B50A0000 		.4byte	0xab5
 1989 0a69 28       		.uleb128 0x28
 1990 0a6a 46090000 		.4byte	0x946
 1991 0a6e 1C000000 		.4byte	.LBB152
 1992 0a72 06000000 		.4byte	.LBE152-.LBB152
 1993 0a76 11       		.byte	0x11
 1994 0a77 CA01     		.2byte	0x1ca
 1995 0a79 29       		.uleb128 0x29
ARM GAS  /tmp/ccU3kjVM.s 			page 36


 1996 0a7a 1C000000 		.4byte	.LBB153
 1997 0a7e 06000000 		.4byte	.LBE153-.LBB153
 1998 0a82 2A       		.uleb128 0x2a
 1999 0a83 53090000 		.4byte	0x953
 2000 0a87 28       		.uleb128 0x28
 2001 0a88 34090000 		.4byte	0x934
 2002 0a8c 1C000000 		.4byte	.LBB154
 2003 0a90 06000000 		.4byte	.LBE154-.LBB154
 2004 0a94 10       		.byte	0x10
 2005 0a95 7301     		.2byte	0x173
 2006 0a97 28       		.uleb128 0x28
 2007 0a98 11090000 		.4byte	0x911
 2008 0a9c 1C000000 		.4byte	.LBB155
 2009 0aa0 06000000 		.4byte	.LBE155-.LBB155
 2010 0aa4 09       		.byte	0x9
 2011 0aa5 CD01     		.2byte	0x1cd
 2012 0aa7 26       		.uleb128 0x26
 2013 0aa8 1E090000 		.4byte	0x91e
 2014 0aac 54000000 		.4byte	.LLST3
 2015 0ab0 00       		.byte	0
 2016 0ab1 00       		.byte	0
 2017 0ab2 00       		.byte	0
 2018 0ab3 00       		.byte	0
 2019 0ab4 00       		.byte	0
 2020 0ab5 2B       		.uleb128 0x2b
 2021 0ab6 14000000 		.4byte	.LVL4
 2022 0aba 59130000 		.4byte	0x1359
 2023 0abe 2C       		.uleb128 0x2c
 2024 0abf 01       		.uleb128 0x1
 2025 0ac0 50       		.byte	0x50
 2026 0ac1 02       		.uleb128 0x2
 2027 0ac2 74       		.byte	0x74
 2028 0ac3 00       		.sleb128 0
 2029 0ac4 00       		.byte	0
 2030 0ac5 00       		.byte	0
 2031 0ac6 10       		.uleb128 0x10
 2032 0ac7 34070000 		.4byte	0x734
 2033 0acb D60A0000 		.4byte	0xad6
 2034 0acf 11       		.uleb128 0x11
 2035 0ad0 49040000 		.4byte	0x449
 2036 0ad4 08       		.byte	0x8
 2037 0ad5 00       		.byte	0
 2038 0ad6 18       		.uleb128 0x18
 2039 0ad7 C60A0000 		.4byte	0xac6
 2040 0adb 1F       		.uleb128 0x1f
 2041 0adc 5B030000 		.4byte	.LASF146
 2042 0ae0 01       		.byte	0x1
 2043 0ae1 6F       		.byte	0x6f
 2044 0ae2 00000000 		.4byte	.LFB261
 2045 0ae6 1C000000 		.4byte	.LFE261-.LFB261
 2046 0aea 01       		.uleb128 0x1
 2047 0aeb 9C       		.byte	0x9c
 2048 0aec C80B0000 		.4byte	0xbc8
 2049 0af0 22       		.uleb128 0x22
 2050 0af1 41030000 		.4byte	.LASF145
 2051 0af5 01       		.byte	0x1
 2052 0af6 6F       		.byte	0x6f
ARM GAS  /tmp/ccU3kjVM.s 			page 37


 2053 0af7 26080000 		.4byte	0x826
 2054 0afb 68000000 		.4byte	.LLST4
 2055 0aff 23       		.uleb128 0x23
 2056 0b00 F0050000 		.4byte	.LASF147
 2057 0b04 D80B0000 		.4byte	0xbd8
 2058 0b08 24       		.uleb128 0x24
 2059 0b09 7F090000 		.4byte	0x97f
 2060 0b0d 02000000 		.4byte	.LBB157
 2061 0b11 18000000 		.4byte	.Ldebug_ranges0+0x18
 2062 0b15 01       		.byte	0x1
 2063 0b16 73       		.byte	0x73
 2064 0b17 580B0000 		.4byte	0xb58
 2065 0b1b 25       		.uleb128 0x25
 2066 0b1c 3D090000 		.4byte	0x93d
 2067 0b20 02000000 		.4byte	.LBB158
 2068 0b24 18000000 		.4byte	.Ldebug_ranges0+0x18
 2069 0b28 11       		.byte	0x11
 2070 0b29 BF01     		.2byte	0x1bf
 2071 0b2b 25       		.uleb128 0x25
 2072 0b2c 2B090000 		.4byte	0x92b
 2073 0b30 02000000 		.4byte	.LBB159
 2074 0b34 18000000 		.4byte	.Ldebug_ranges0+0x18
 2075 0b38 10       		.byte	0x10
 2076 0b39 5C01     		.2byte	0x15c
 2077 0b3b 25       		.uleb128 0x25
 2078 0b3c 11090000 		.4byte	0x911
 2079 0b40 02000000 		.4byte	.LBB160
 2080 0b44 18000000 		.4byte	.Ldebug_ranges0+0x18
 2081 0b48 09       		.byte	0x9
 2082 0b49 BF01     		.2byte	0x1bf
 2083 0b4b 26       		.uleb128 0x26
 2084 0b4c 1E090000 		.4byte	0x91e
 2085 0b50 86000000 		.4byte	.LLST5
 2086 0b54 00       		.byte	0
 2087 0b55 00       		.byte	0
 2088 0b56 00       		.byte	0
 2089 0b57 00       		.byte	0
 2090 0b58 27       		.uleb128 0x27
 2091 0b59 76090000 		.4byte	0x976
 2092 0b5d 16000000 		.4byte	.LBB167
 2093 0b61 06000000 		.4byte	.LBE167-.LBB167
 2094 0b65 01       		.byte	0x1
 2095 0b66 79       		.byte	0x79
 2096 0b67 B70B0000 		.4byte	0xbb7
 2097 0b6b 28       		.uleb128 0x28
 2098 0b6c 46090000 		.4byte	0x946
 2099 0b70 16000000 		.4byte	.LBB168
 2100 0b74 06000000 		.4byte	.LBE168-.LBB168
 2101 0b78 11       		.byte	0x11
 2102 0b79 CA01     		.2byte	0x1ca
 2103 0b7b 29       		.uleb128 0x29
 2104 0b7c 16000000 		.4byte	.LBB169
 2105 0b80 06000000 		.4byte	.LBE169-.LBB169
 2106 0b84 2A       		.uleb128 0x2a
 2107 0b85 53090000 		.4byte	0x953
 2108 0b89 28       		.uleb128 0x28
 2109 0b8a 34090000 		.4byte	0x934
ARM GAS  /tmp/ccU3kjVM.s 			page 38


 2110 0b8e 16000000 		.4byte	.LBB170
 2111 0b92 06000000 		.4byte	.LBE170-.LBB170
 2112 0b96 10       		.byte	0x10
 2113 0b97 7301     		.2byte	0x173
 2114 0b99 28       		.uleb128 0x28
 2115 0b9a 11090000 		.4byte	0x911
 2116 0b9e 16000000 		.4byte	.LBB171
 2117 0ba2 06000000 		.4byte	.LBE171-.LBB171
 2118 0ba6 09       		.byte	0x9
 2119 0ba7 CD01     		.2byte	0x1cd
 2120 0ba9 26       		.uleb128 0x26
 2121 0baa 1E090000 		.4byte	0x91e
 2122 0bae 9B000000 		.4byte	.LLST6
 2123 0bb2 00       		.byte	0
 2124 0bb3 00       		.byte	0
 2125 0bb4 00       		.byte	0
 2126 0bb5 00       		.byte	0
 2127 0bb6 00       		.byte	0
 2128 0bb7 2B       		.uleb128 0x2b
 2129 0bb8 0E000000 		.4byte	.LVL9
 2130 0bbc 65130000 		.4byte	0x1365
 2131 0bc0 2C       		.uleb128 0x2c
 2132 0bc1 01       		.uleb128 0x1
 2133 0bc2 50       		.byte	0x50
 2134 0bc3 02       		.uleb128 0x2
 2135 0bc4 74       		.byte	0x74
 2136 0bc5 00       		.sleb128 0
 2137 0bc6 00       		.byte	0
 2138 0bc7 00       		.byte	0
 2139 0bc8 10       		.uleb128 0x10
 2140 0bc9 34070000 		.4byte	0x734
 2141 0bcd D80B0000 		.4byte	0xbd8
 2142 0bd1 11       		.uleb128 0x11
 2143 0bd2 49040000 		.4byte	0x449
 2144 0bd6 07       		.byte	0x7
 2145 0bd7 00       		.byte	0
 2146 0bd8 18       		.uleb128 0x18
 2147 0bd9 C80B0000 		.4byte	0xbc8
 2148 0bdd 1F       		.uleb128 0x1f
 2149 0bde 32010000 		.4byte	.LASF148
 2150 0be2 01       		.byte	0x1
 2151 0be3 8B       		.byte	0x8b
 2152 0be4 00000000 		.4byte	.LFB262
 2153 0be8 16000000 		.4byte	.LFE262-.LFB262
 2154 0bec 01       		.uleb128 0x1
 2155 0bed 9C       		.byte	0x9c
 2156 0bee C30C0000 		.4byte	0xcc3
 2157 0bf2 21       		.uleb128 0x21
 2158 0bf3 41030000 		.4byte	.LASF145
 2159 0bf7 01       		.byte	0x1
 2160 0bf8 8B       		.byte	0x8b
 2161 0bf9 26080000 		.4byte	0x826
 2162 0bfd 01       		.uleb128 0x1
 2163 0bfe 50       		.byte	0x50
 2164 0bff 22       		.uleb128 0x22
 2165 0c00 29070000 		.4byte	.LASF120
 2166 0c04 01       		.byte	0x1
ARM GAS  /tmp/ccU3kjVM.s 			page 39


 2167 0c05 8B       		.byte	0x8b
 2168 0c06 50080000 		.4byte	0x850
 2169 0c0a AF000000 		.4byte	.LLST7
 2170 0c0e 23       		.uleb128 0x23
 2171 0c0f F0050000 		.4byte	.LASF147
 2172 0c13 D30C0000 		.4byte	0xcd3
 2173 0c17 27       		.uleb128 0x27
 2174 0c18 7F090000 		.4byte	0x97f
 2175 0c1c 00000000 		.4byte	.LBB173
 2176 0c20 06000000 		.4byte	.LBE173-.LBB173
 2177 0c24 01       		.byte	0x1
 2178 0c25 8F       		.byte	0x8f
 2179 0c26 670C0000 		.4byte	0xc67
 2180 0c2a 28       		.uleb128 0x28
 2181 0c2b 3D090000 		.4byte	0x93d
 2182 0c2f 00000000 		.4byte	.LBB174
 2183 0c33 06000000 		.4byte	.LBE174-.LBB174
 2184 0c37 11       		.byte	0x11
 2185 0c38 BF01     		.2byte	0x1bf
 2186 0c3a 28       		.uleb128 0x28
 2187 0c3b 2B090000 		.4byte	0x92b
 2188 0c3f 00000000 		.4byte	.LBB175
 2189 0c43 06000000 		.4byte	.LBE175-.LBB175
 2190 0c47 10       		.byte	0x10
 2191 0c48 5C01     		.2byte	0x15c
 2192 0c4a 28       		.uleb128 0x28
 2193 0c4b 11090000 		.4byte	0x911
 2194 0c4f 00000000 		.4byte	.LBB176
 2195 0c53 06000000 		.4byte	.LBE176-.LBB176
 2196 0c57 09       		.byte	0x9
 2197 0c58 BF01     		.2byte	0x1bf
 2198 0c5a 26       		.uleb128 0x26
 2199 0c5b 1E090000 		.4byte	0x91e
 2200 0c5f CE000000 		.4byte	.LLST8
 2201 0c63 00       		.byte	0
 2202 0c64 00       		.byte	0
 2203 0c65 00       		.byte	0
 2204 0c66 00       		.byte	0
 2205 0c67 2D       		.uleb128 0x2d
 2206 0c68 76090000 		.4byte	0x976
 2207 0c6c 0E000000 		.4byte	.LBB178
 2208 0c70 08000000 		.4byte	.LBE178-.LBB178
 2209 0c74 01       		.byte	0x1
 2210 0c75 92       		.byte	0x92
 2211 0c76 28       		.uleb128 0x28
 2212 0c77 46090000 		.4byte	0x946
 2213 0c7b 0E000000 		.4byte	.LBB179
 2214 0c7f 08000000 		.4byte	.LBE179-.LBB179
 2215 0c83 11       		.byte	0x11
 2216 0c84 CA01     		.2byte	0x1ca
 2217 0c86 29       		.uleb128 0x29
 2218 0c87 0E000000 		.4byte	.LBB180
 2219 0c8b 08000000 		.4byte	.LBE180-.LBB180
 2220 0c8f 2A       		.uleb128 0x2a
 2221 0c90 53090000 		.4byte	0x953
 2222 0c94 28       		.uleb128 0x28
 2223 0c95 34090000 		.4byte	0x934
ARM GAS  /tmp/ccU3kjVM.s 			page 40


 2224 0c99 0E000000 		.4byte	.LBB181
 2225 0c9d 08000000 		.4byte	.LBE181-.LBB181
 2226 0ca1 10       		.byte	0x10
 2227 0ca2 7301     		.2byte	0x173
 2228 0ca4 28       		.uleb128 0x28
 2229 0ca5 11090000 		.4byte	0x911
 2230 0ca9 0E000000 		.4byte	.LBB182
 2231 0cad 08000000 		.4byte	.LBE182-.LBB182
 2232 0cb1 09       		.byte	0x9
 2233 0cb2 CD01     		.2byte	0x1cd
 2234 0cb4 26       		.uleb128 0x26
 2235 0cb5 1E090000 		.4byte	0x91e
 2236 0cb9 E3000000 		.4byte	.LLST9
 2237 0cbd 00       		.byte	0
 2238 0cbe 00       		.byte	0
 2239 0cbf 00       		.byte	0
 2240 0cc0 00       		.byte	0
 2241 0cc1 00       		.byte	0
 2242 0cc2 00       		.byte	0
 2243 0cc3 10       		.uleb128 0x10
 2244 0cc4 34070000 		.4byte	0x734
 2245 0cc8 D30C0000 		.4byte	0xcd3
 2246 0ccc 11       		.uleb128 0x11
 2247 0ccd 49040000 		.4byte	0x449
 2248 0cd1 0F       		.byte	0xf
 2249 0cd2 00       		.byte	0
 2250 0cd3 18       		.uleb128 0x18
 2251 0cd4 C30C0000 		.4byte	0xcc3
 2252 0cd8 1F       		.uleb128 0x1f
 2253 0cd9 4C080000 		.4byte	.LASF149
 2254 0cdd 01       		.byte	0x1
 2255 0cde A3       		.byte	0xa3
 2256 0cdf 00000000 		.4byte	.LFB263
 2257 0ce3 20000000 		.4byte	.LFE263-.LFB263
 2258 0ce7 01       		.uleb128 0x1
 2259 0ce8 9C       		.byte	0x9c
 2260 0ce9 EB0D0000 		.4byte	0xdeb
 2261 0ced 22       		.uleb128 0x22
 2262 0cee 41030000 		.4byte	.LASF145
 2263 0cf2 01       		.byte	0x1
 2264 0cf3 A3       		.byte	0xa3
 2265 0cf4 26080000 		.4byte	0x826
 2266 0cf8 F7000000 		.4byte	.LLST10
 2267 0cfc 22       		.uleb128 0x22
 2268 0cfd 1B060000 		.4byte	.LASF150
 2269 0d01 01       		.byte	0x1
 2270 0d02 A4       		.byte	0xa4
 2271 0d03 38080000 		.4byte	0x838
 2272 0d07 18010000 		.4byte	.LLST11
 2273 0d0b 22       		.uleb128 0x22
 2274 0d0c A4020000 		.4byte	.LASF151
 2275 0d10 01       		.byte	0x1
 2276 0d11 A5       		.byte	0xa5
 2277 0d12 50080000 		.4byte	0x850
 2278 0d16 39010000 		.4byte	.LLST12
 2279 0d1a 23       		.uleb128 0x23
 2280 0d1b F0050000 		.4byte	.LASF147
ARM GAS  /tmp/ccU3kjVM.s 			page 41


 2281 0d1f FB0D0000 		.4byte	0xdfb
 2282 0d23 27       		.uleb128 0x27
 2283 0d24 7F090000 		.4byte	0x97f
 2284 0d28 02000000 		.4byte	.LBB184
 2285 0d2c 06000000 		.4byte	.LBE184-.LBB184
 2286 0d30 01       		.byte	0x1
 2287 0d31 A9       		.byte	0xa9
 2288 0d32 730D0000 		.4byte	0xd73
 2289 0d36 28       		.uleb128 0x28
 2290 0d37 3D090000 		.4byte	0x93d
 2291 0d3b 02000000 		.4byte	.LBB185
 2292 0d3f 06000000 		.4byte	.LBE185-.LBB185
 2293 0d43 11       		.byte	0x11
 2294 0d44 BF01     		.2byte	0x1bf
 2295 0d46 28       		.uleb128 0x28
 2296 0d47 2B090000 		.4byte	0x92b
 2297 0d4b 02000000 		.4byte	.LBB186
 2298 0d4f 06000000 		.4byte	.LBE186-.LBB186
 2299 0d53 10       		.byte	0x10
 2300 0d54 5C01     		.2byte	0x15c
 2301 0d56 28       		.uleb128 0x28
 2302 0d57 11090000 		.4byte	0x911
 2303 0d5b 02000000 		.4byte	.LBB187
 2304 0d5f 06000000 		.4byte	.LBE187-.LBB187
 2305 0d63 09       		.byte	0x9
 2306 0d64 BF01     		.2byte	0x1bf
 2307 0d66 26       		.uleb128 0x26
 2308 0d67 1E090000 		.4byte	0x91e
 2309 0d6b 5A010000 		.4byte	.LLST13
 2310 0d6f 00       		.byte	0
 2311 0d70 00       		.byte	0
 2312 0d71 00       		.byte	0
 2313 0d72 00       		.byte	0
 2314 0d73 27       		.uleb128 0x27
 2315 0d74 76090000 		.4byte	0x976
 2316 0d78 18000000 		.4byte	.LBB189
 2317 0d7c 08000000 		.4byte	.LBE189-.LBB189
 2318 0d80 01       		.byte	0x1
 2319 0d81 AF       		.byte	0xaf
 2320 0d82 D20D0000 		.4byte	0xdd2
 2321 0d86 28       		.uleb128 0x28
 2322 0d87 46090000 		.4byte	0x946
 2323 0d8b 18000000 		.4byte	.LBB190
 2324 0d8f 08000000 		.4byte	.LBE190-.LBB190
 2325 0d93 11       		.byte	0x11
 2326 0d94 CA01     		.2byte	0x1ca
 2327 0d96 29       		.uleb128 0x29
 2328 0d97 18000000 		.4byte	.LBB191
 2329 0d9b 08000000 		.4byte	.LBE191-.LBB191
 2330 0d9f 2A       		.uleb128 0x2a
 2331 0da0 53090000 		.4byte	0x953
 2332 0da4 28       		.uleb128 0x28
 2333 0da5 34090000 		.4byte	0x934
 2334 0da9 18000000 		.4byte	.LBB192
 2335 0dad 08000000 		.4byte	.LBE192-.LBB192
 2336 0db1 10       		.byte	0x10
 2337 0db2 7301     		.2byte	0x173
ARM GAS  /tmp/ccU3kjVM.s 			page 42


 2338 0db4 28       		.uleb128 0x28
 2339 0db5 11090000 		.4byte	0x911
 2340 0db9 18000000 		.4byte	.LBB193
 2341 0dbd 08000000 		.4byte	.LBE193-.LBB193
 2342 0dc1 09       		.byte	0x9
 2343 0dc2 CD01     		.2byte	0x1cd
 2344 0dc4 26       		.uleb128 0x26
 2345 0dc5 1E090000 		.4byte	0x91e
 2346 0dc9 6F010000 		.4byte	.LLST14
 2347 0dcd 00       		.byte	0
 2348 0dce 00       		.byte	0
 2349 0dcf 00       		.byte	0
 2350 0dd0 00       		.byte	0
 2351 0dd1 00       		.byte	0
 2352 0dd2 2B       		.uleb128 0x2b
 2353 0dd3 18000000 		.4byte	.LVL19
 2354 0dd7 71130000 		.4byte	0x1371
 2355 0ddb 2C       		.uleb128 0x2c
 2356 0ddc 01       		.uleb128 0x1
 2357 0ddd 50       		.byte	0x50
 2358 0dde 03       		.uleb128 0x3
 2359 0ddf F3       		.byte	0xf3
 2360 0de0 01       		.uleb128 0x1
 2361 0de1 50       		.byte	0x50
 2362 0de2 2C       		.uleb128 0x2c
 2363 0de3 01       		.uleb128 0x1
 2364 0de4 52       		.byte	0x52
 2365 0de5 03       		.uleb128 0x3
 2366 0de6 F3       		.byte	0xf3
 2367 0de7 01       		.uleb128 0x1
 2368 0de8 52       		.byte	0x52
 2369 0de9 00       		.byte	0
 2370 0dea 00       		.byte	0
 2371 0deb 10       		.uleb128 0x10
 2372 0dec 34070000 		.4byte	0x734
 2373 0df0 FB0D0000 		.4byte	0xdfb
 2374 0df4 11       		.uleb128 0x11
 2375 0df5 49040000 		.4byte	0x449
 2376 0df9 10       		.byte	0x10
 2377 0dfa 00       		.byte	0
 2378 0dfb 18       		.uleb128 0x18
 2379 0dfc EB0D0000 		.4byte	0xdeb
 2380 0e00 1F       		.uleb128 0x1f
 2381 0e01 C5020000 		.4byte	.LASF152
 2382 0e05 01       		.byte	0x1
 2383 0e06 C0       		.byte	0xc0
 2384 0e07 00000000 		.4byte	.LFB264
 2385 0e0b 20000000 		.4byte	.LFE264-.LFB264
 2386 0e0f 01       		.uleb128 0x1
 2387 0e10 9C       		.byte	0x9c
 2388 0e11 FD0E0000 		.4byte	0xefd
 2389 0e15 22       		.uleb128 0x22
 2390 0e16 41030000 		.4byte	.LASF145
 2391 0e1a 01       		.byte	0x1
 2392 0e1b C0       		.byte	0xc0
 2393 0e1c 26080000 		.4byte	0x826
 2394 0e20 83010000 		.4byte	.LLST15
ARM GAS  /tmp/ccU3kjVM.s 			page 43


 2395 0e24 22       		.uleb128 0x22
 2396 0e25 1B060000 		.4byte	.LASF150
 2397 0e29 01       		.byte	0x1
 2398 0e2a C0       		.byte	0xc0
 2399 0e2b 38080000 		.4byte	0x838
 2400 0e2f A4010000 		.4byte	.LLST16
 2401 0e33 23       		.uleb128 0x23
 2402 0e34 F0050000 		.4byte	.LASF147
 2403 0e38 0D0F0000 		.4byte	0xf0d
 2404 0e3c 27       		.uleb128 0x27
 2405 0e3d 7F090000 		.4byte	0x97f
 2406 0e41 02000000 		.4byte	.LBB195
 2407 0e45 06000000 		.4byte	.LBE195-.LBB195
 2408 0e49 01       		.byte	0x1
 2409 0e4a C4       		.byte	0xc4
 2410 0e4b 8C0E0000 		.4byte	0xe8c
 2411 0e4f 28       		.uleb128 0x28
 2412 0e50 3D090000 		.4byte	0x93d
 2413 0e54 02000000 		.4byte	.LBB196
 2414 0e58 06000000 		.4byte	.LBE196-.LBB196
 2415 0e5c 11       		.byte	0x11
 2416 0e5d BF01     		.2byte	0x1bf
 2417 0e5f 28       		.uleb128 0x28
 2418 0e60 2B090000 		.4byte	0x92b
 2419 0e64 02000000 		.4byte	.LBB197
 2420 0e68 06000000 		.4byte	.LBE197-.LBB197
 2421 0e6c 10       		.byte	0x10
 2422 0e6d 5C01     		.2byte	0x15c
 2423 0e6f 28       		.uleb128 0x28
 2424 0e70 11090000 		.4byte	0x911
 2425 0e74 02000000 		.4byte	.LBB198
 2426 0e78 06000000 		.4byte	.LBE198-.LBB198
 2427 0e7c 09       		.byte	0x9
 2428 0e7d BF01     		.2byte	0x1bf
 2429 0e7f 26       		.uleb128 0x26
 2430 0e80 1E090000 		.4byte	0x91e
 2431 0e84 C5010000 		.4byte	.LLST17
 2432 0e88 00       		.byte	0
 2433 0e89 00       		.byte	0
 2434 0e8a 00       		.byte	0
 2435 0e8b 00       		.byte	0
 2436 0e8c 27       		.uleb128 0x27
 2437 0e8d 76090000 		.4byte	0x976
 2438 0e91 18000000 		.4byte	.LBB200
 2439 0e95 08000000 		.4byte	.LBE200-.LBB200
 2440 0e99 01       		.byte	0x1
 2441 0e9a CA       		.byte	0xca
 2442 0e9b EB0E0000 		.4byte	0xeeb
 2443 0e9f 28       		.uleb128 0x28
 2444 0ea0 46090000 		.4byte	0x946
 2445 0ea4 18000000 		.4byte	.LBB201
 2446 0ea8 08000000 		.4byte	.LBE201-.LBB201
 2447 0eac 11       		.byte	0x11
 2448 0ead CA01     		.2byte	0x1ca
 2449 0eaf 29       		.uleb128 0x29
 2450 0eb0 18000000 		.4byte	.LBB202
 2451 0eb4 08000000 		.4byte	.LBE202-.LBB202
ARM GAS  /tmp/ccU3kjVM.s 			page 44


 2452 0eb8 2A       		.uleb128 0x2a
 2453 0eb9 53090000 		.4byte	0x953
 2454 0ebd 28       		.uleb128 0x28
 2455 0ebe 34090000 		.4byte	0x934
 2456 0ec2 18000000 		.4byte	.LBB203
 2457 0ec6 08000000 		.4byte	.LBE203-.LBB203
 2458 0eca 10       		.byte	0x10
 2459 0ecb 7301     		.2byte	0x173
 2460 0ecd 28       		.uleb128 0x28
 2461 0ece 11090000 		.4byte	0x911
 2462 0ed2 18000000 		.4byte	.LBB204
 2463 0ed6 08000000 		.4byte	.LBE204-.LBB204
 2464 0eda 09       		.byte	0x9
 2465 0edb CD01     		.2byte	0x1cd
 2466 0edd 26       		.uleb128 0x26
 2467 0ede 1E090000 		.4byte	0x91e
 2468 0ee2 DA010000 		.4byte	.LLST18
 2469 0ee6 00       		.byte	0
 2470 0ee7 00       		.byte	0
 2471 0ee8 00       		.byte	0
 2472 0ee9 00       		.byte	0
 2473 0eea 00       		.byte	0
 2474 0eeb 2B       		.uleb128 0x2b
 2475 0eec 18000000 		.4byte	.LVL23
 2476 0ef0 7D130000 		.4byte	0x137d
 2477 0ef4 2C       		.uleb128 0x2c
 2478 0ef5 01       		.uleb128 0x1
 2479 0ef6 50       		.byte	0x50
 2480 0ef7 03       		.uleb128 0x3
 2481 0ef8 F3       		.byte	0xf3
 2482 0ef9 01       		.uleb128 0x1
 2483 0efa 50       		.byte	0x50
 2484 0efb 00       		.byte	0
 2485 0efc 00       		.byte	0
 2486 0efd 10       		.uleb128 0x10
 2487 0efe 34070000 		.4byte	0x734
 2488 0f02 0D0F0000 		.4byte	0xf0d
 2489 0f06 11       		.uleb128 0x11
 2490 0f07 49040000 		.4byte	0x449
 2491 0f0b 11       		.byte	0x11
 2492 0f0c 00       		.byte	0
 2493 0f0d 18       		.uleb128 0x18
 2494 0f0e FD0E0000 		.4byte	0xefd
 2495 0f12 1F       		.uleb128 0x1f
 2496 0f13 0B070000 		.4byte	.LASF153
 2497 0f17 01       		.byte	0x1
 2498 0f18 D6       		.byte	0xd6
 2499 0f19 00000000 		.4byte	.LFB265
 2500 0f1d 14000000 		.4byte	.LFE265-.LFB265
 2501 0f21 01       		.uleb128 0x1
 2502 0f22 9C       		.byte	0x9c
 2503 0f23 00100000 		.4byte	0x1000
 2504 0f27 22       		.uleb128 0x22
 2505 0f28 41030000 		.4byte	.LASF145
 2506 0f2c 01       		.byte	0x1
 2507 0f2d D6       		.byte	0xd6
 2508 0f2e 26080000 		.4byte	0x826
ARM GAS  /tmp/ccU3kjVM.s 			page 45


 2509 0f32 EE010000 		.4byte	.LLST19
 2510 0f36 23       		.uleb128 0x23
 2511 0f37 F0050000 		.4byte	.LASF147
 2512 0f3b 10100000 		.4byte	0x1010
 2513 0f3f 27       		.uleb128 0x27
 2514 0f40 7F090000 		.4byte	0x97f
 2515 0f44 02000000 		.4byte	.LBB206
 2516 0f48 06000000 		.4byte	.LBE206-.LBB206
 2517 0f4c 01       		.byte	0x1
 2518 0f4d DA       		.byte	0xda
 2519 0f4e 8F0F0000 		.4byte	0xf8f
 2520 0f52 28       		.uleb128 0x28
 2521 0f53 3D090000 		.4byte	0x93d
 2522 0f57 02000000 		.4byte	.LBB207
 2523 0f5b 06000000 		.4byte	.LBE207-.LBB207
 2524 0f5f 11       		.byte	0x11
 2525 0f60 BF01     		.2byte	0x1bf
 2526 0f62 28       		.uleb128 0x28
 2527 0f63 2B090000 		.4byte	0x92b
 2528 0f67 02000000 		.4byte	.LBB208
 2529 0f6b 06000000 		.4byte	.LBE208-.LBB208
 2530 0f6f 10       		.byte	0x10
 2531 0f70 5C01     		.2byte	0x15c
 2532 0f72 28       		.uleb128 0x28
 2533 0f73 11090000 		.4byte	0x911
 2534 0f77 02000000 		.4byte	.LBB209
 2535 0f7b 06000000 		.4byte	.LBE209-.LBB209
 2536 0f7f 09       		.byte	0x9
 2537 0f80 BF01     		.2byte	0x1bf
 2538 0f82 26       		.uleb128 0x26
 2539 0f83 1E090000 		.4byte	0x91e
 2540 0f87 0F020000 		.4byte	.LLST20
 2541 0f8b 00       		.byte	0
 2542 0f8c 00       		.byte	0
 2543 0f8d 00       		.byte	0
 2544 0f8e 00       		.byte	0
 2545 0f8f 27       		.uleb128 0x27
 2546 0f90 76090000 		.4byte	0x976
 2547 0f94 0C000000 		.4byte	.LBB211
 2548 0f98 08000000 		.4byte	.LBE211-.LBB211
 2549 0f9c 01       		.byte	0x1
 2550 0f9d E1       		.byte	0xe1
 2551 0f9e EE0F0000 		.4byte	0xfee
 2552 0fa2 28       		.uleb128 0x28
 2553 0fa3 46090000 		.4byte	0x946
 2554 0fa7 0C000000 		.4byte	.LBB212
 2555 0fab 08000000 		.4byte	.LBE212-.LBB212
 2556 0faf 11       		.byte	0x11
 2557 0fb0 CA01     		.2byte	0x1ca
 2558 0fb2 29       		.uleb128 0x29
 2559 0fb3 0C000000 		.4byte	.LBB213
 2560 0fb7 08000000 		.4byte	.LBE213-.LBB213
 2561 0fbb 2A       		.uleb128 0x2a
 2562 0fbc 53090000 		.4byte	0x953
 2563 0fc0 28       		.uleb128 0x28
 2564 0fc1 34090000 		.4byte	0x934
 2565 0fc5 0C000000 		.4byte	.LBB214
ARM GAS  /tmp/ccU3kjVM.s 			page 46


 2566 0fc9 08000000 		.4byte	.LBE214-.LBB214
 2567 0fcd 10       		.byte	0x10
 2568 0fce 7301     		.2byte	0x173
 2569 0fd0 28       		.uleb128 0x28
 2570 0fd1 11090000 		.4byte	0x911
 2571 0fd5 0C000000 		.4byte	.LBB215
 2572 0fd9 08000000 		.4byte	.LBE215-.LBB215
 2573 0fdd 09       		.byte	0x9
 2574 0fde CD01     		.2byte	0x1cd
 2575 0fe0 26       		.uleb128 0x26
 2576 0fe1 1E090000 		.4byte	0x91e
 2577 0fe5 24020000 		.4byte	.LLST21
 2578 0fe9 00       		.byte	0
 2579 0fea 00       		.byte	0
 2580 0feb 00       		.byte	0
 2581 0fec 00       		.byte	0
 2582 0fed 00       		.byte	0
 2583 0fee 2B       		.uleb128 0x2b
 2584 0fef 0C000000 		.4byte	.LVL27
 2585 0ff3 89130000 		.4byte	0x1389
 2586 0ff7 2C       		.uleb128 0x2c
 2587 0ff8 01       		.uleb128 0x1
 2588 0ff9 50       		.byte	0x50
 2589 0ffa 03       		.uleb128 0x3
 2590 0ffb F3       		.byte	0xf3
 2591 0ffc 01       		.uleb128 0x1
 2592 0ffd 50       		.byte	0x50
 2593 0ffe 00       		.byte	0
 2594 0fff 00       		.byte	0
 2595 1000 10       		.uleb128 0x10
 2596 1001 34070000 		.4byte	0x734
 2597 1005 10100000 		.4byte	0x1010
 2598 1009 11       		.uleb128 0x11
 2599 100a 49040000 		.4byte	0x449
 2600 100e 1D       		.byte	0x1d
 2601 100f 00       		.byte	0
 2602 1010 18       		.uleb128 0x18
 2603 1011 00100000 		.4byte	0x1000
 2604 1015 1F       		.uleb128 0x1f
 2605 1016 DD070000 		.4byte	.LASF154
 2606 101a 01       		.byte	0x1
 2607 101b ED       		.byte	0xed
 2608 101c 00000000 		.4byte	.LFB266
 2609 1020 14000000 		.4byte	.LFE266-.LFB266
 2610 1024 01       		.uleb128 0x1
 2611 1025 9C       		.byte	0x9c
 2612 1026 03110000 		.4byte	0x1103
 2613 102a 22       		.uleb128 0x22
 2614 102b 41030000 		.4byte	.LASF145
 2615 102f 01       		.byte	0x1
 2616 1030 ED       		.byte	0xed
 2617 1031 26080000 		.4byte	0x826
 2618 1035 38020000 		.4byte	.LLST22
 2619 1039 23       		.uleb128 0x23
 2620 103a F0050000 		.4byte	.LASF147
 2621 103e 13110000 		.4byte	0x1113
 2622 1042 27       		.uleb128 0x27
ARM GAS  /tmp/ccU3kjVM.s 			page 47


 2623 1043 7F090000 		.4byte	0x97f
 2624 1047 02000000 		.4byte	.LBB217
 2625 104b 06000000 		.4byte	.LBE217-.LBB217
 2626 104f 01       		.byte	0x1
 2627 1050 F1       		.byte	0xf1
 2628 1051 92100000 		.4byte	0x1092
 2629 1055 28       		.uleb128 0x28
 2630 1056 3D090000 		.4byte	0x93d
 2631 105a 02000000 		.4byte	.LBB218
 2632 105e 06000000 		.4byte	.LBE218-.LBB218
 2633 1062 11       		.byte	0x11
 2634 1063 BF01     		.2byte	0x1bf
 2635 1065 28       		.uleb128 0x28
 2636 1066 2B090000 		.4byte	0x92b
 2637 106a 02000000 		.4byte	.LBB219
 2638 106e 06000000 		.4byte	.LBE219-.LBB219
 2639 1072 10       		.byte	0x10
 2640 1073 5C01     		.2byte	0x15c
 2641 1075 28       		.uleb128 0x28
 2642 1076 11090000 		.4byte	0x911
 2643 107a 02000000 		.4byte	.LBB220
 2644 107e 06000000 		.4byte	.LBE220-.LBB220
 2645 1082 09       		.byte	0x9
 2646 1083 BF01     		.2byte	0x1bf
 2647 1085 26       		.uleb128 0x26
 2648 1086 1E090000 		.4byte	0x91e
 2649 108a 59020000 		.4byte	.LLST23
 2650 108e 00       		.byte	0
 2651 108f 00       		.byte	0
 2652 1090 00       		.byte	0
 2653 1091 00       		.byte	0
 2654 1092 27       		.uleb128 0x27
 2655 1093 76090000 		.4byte	0x976
 2656 1097 0C000000 		.4byte	.LBB222
 2657 109b 08000000 		.4byte	.LBE222-.LBB222
 2658 109f 01       		.byte	0x1
 2659 10a0 F8       		.byte	0xf8
 2660 10a1 F1100000 		.4byte	0x10f1
 2661 10a5 28       		.uleb128 0x28
 2662 10a6 46090000 		.4byte	0x946
 2663 10aa 0C000000 		.4byte	.LBB223
 2664 10ae 08000000 		.4byte	.LBE223-.LBB223
 2665 10b2 11       		.byte	0x11
 2666 10b3 CA01     		.2byte	0x1ca
 2667 10b5 29       		.uleb128 0x29
 2668 10b6 0C000000 		.4byte	.LBB224
 2669 10ba 08000000 		.4byte	.LBE224-.LBB224
 2670 10be 2A       		.uleb128 0x2a
 2671 10bf 53090000 		.4byte	0x953
 2672 10c3 28       		.uleb128 0x28
 2673 10c4 34090000 		.4byte	0x934
 2674 10c8 0C000000 		.4byte	.LBB225
 2675 10cc 08000000 		.4byte	.LBE225-.LBB225
 2676 10d0 10       		.byte	0x10
 2677 10d1 7301     		.2byte	0x173
 2678 10d3 28       		.uleb128 0x28
 2679 10d4 11090000 		.4byte	0x911
ARM GAS  /tmp/ccU3kjVM.s 			page 48


 2680 10d8 0C000000 		.4byte	.LBB226
 2681 10dc 08000000 		.4byte	.LBE226-.LBB226
 2682 10e0 09       		.byte	0x9
 2683 10e1 CD01     		.2byte	0x1cd
 2684 10e3 26       		.uleb128 0x26
 2685 10e4 1E090000 		.4byte	0x91e
 2686 10e8 6E020000 		.4byte	.LLST24
 2687 10ec 00       		.byte	0
 2688 10ed 00       		.byte	0
 2689 10ee 00       		.byte	0
 2690 10ef 00       		.byte	0
 2691 10f0 00       		.byte	0
 2692 10f1 2B       		.uleb128 0x2b
 2693 10f2 0C000000 		.4byte	.LVL31
 2694 10f6 95130000 		.4byte	0x1395
 2695 10fa 2C       		.uleb128 0x2c
 2696 10fb 01       		.uleb128 0x1
 2697 10fc 50       		.byte	0x50
 2698 10fd 03       		.uleb128 0x3
 2699 10fe F3       		.byte	0xf3
 2700 10ff 01       		.uleb128 0x1
 2701 1100 50       		.byte	0x50
 2702 1101 00       		.byte	0
 2703 1102 00       		.byte	0
 2704 1103 10       		.uleb128 0x10
 2705 1104 34070000 		.4byte	0x734
 2706 1108 13110000 		.4byte	0x1113
 2707 110c 11       		.uleb128 0x11
 2708 110d 49040000 		.4byte	0x449
 2709 1111 1E       		.byte	0x1e
 2710 1112 00       		.byte	0
 2711 1113 18       		.uleb128 0x18
 2712 1114 03110000 		.4byte	0x1103
 2713 1118 2E       		.uleb128 0x2e
 2714 1119 75000000 		.4byte	.LASF155
 2715 111d 01       		.byte	0x1
 2716 111e 0601     		.2byte	0x106
 2717 1120 00000000 		.4byte	.LFB267
 2718 1124 14000000 		.4byte	.LFE267-.LFB267
 2719 1128 01       		.uleb128 0x1
 2720 1129 9C       		.byte	0x9c
 2721 112a 1A120000 		.4byte	0x121a
 2722 112e 2F       		.uleb128 0x2f
 2723 112f 41030000 		.4byte	.LASF145
 2724 1133 01       		.byte	0x1
 2725 1134 0601     		.2byte	0x106
 2726 1136 26080000 		.4byte	0x826
 2727 113a 82020000 		.4byte	.LLST25
 2728 113e 2F       		.uleb128 0x2f
 2729 113f 1B060000 		.4byte	.LASF150
 2730 1143 01       		.byte	0x1
 2731 1144 0601     		.2byte	0x106
 2732 1146 38080000 		.4byte	0x838
 2733 114a A3020000 		.4byte	.LLST26
 2734 114e 23       		.uleb128 0x23
 2735 114f F0050000 		.4byte	.LASF147
 2736 1153 2A120000 		.4byte	0x122a
ARM GAS  /tmp/ccU3kjVM.s 			page 49


 2737 1157 30       		.uleb128 0x30
 2738 1158 7F090000 		.4byte	0x97f
 2739 115c 02000000 		.4byte	.LBB228
 2740 1160 06000000 		.4byte	.LBE228-.LBB228
 2741 1164 01       		.byte	0x1
 2742 1165 0A01     		.2byte	0x10a
 2743 1167 A8110000 		.4byte	0x11a8
 2744 116b 28       		.uleb128 0x28
 2745 116c 3D090000 		.4byte	0x93d
 2746 1170 02000000 		.4byte	.LBB229
 2747 1174 06000000 		.4byte	.LBE229-.LBB229
 2748 1178 11       		.byte	0x11
 2749 1179 BF01     		.2byte	0x1bf
 2750 117b 28       		.uleb128 0x28
 2751 117c 2B090000 		.4byte	0x92b
 2752 1180 02000000 		.4byte	.LBB230
 2753 1184 06000000 		.4byte	.LBE230-.LBB230
 2754 1188 10       		.byte	0x10
 2755 1189 5C01     		.2byte	0x15c
 2756 118b 28       		.uleb128 0x28
 2757 118c 11090000 		.4byte	0x911
 2758 1190 02000000 		.4byte	.LBB231
 2759 1194 06000000 		.4byte	.LBE231-.LBB231
 2760 1198 09       		.byte	0x9
 2761 1199 BF01     		.2byte	0x1bf
 2762 119b 26       		.uleb128 0x26
 2763 119c 1E090000 		.4byte	0x91e
 2764 11a0 C4020000 		.4byte	.LLST27
 2765 11a4 00       		.byte	0
 2766 11a5 00       		.byte	0
 2767 11a6 00       		.byte	0
 2768 11a7 00       		.byte	0
 2769 11a8 30       		.uleb128 0x30
 2770 11a9 76090000 		.4byte	0x976
 2771 11ad 0C000000 		.4byte	.LBB233
 2772 11b1 08000000 		.4byte	.LBE233-.LBB233
 2773 11b5 01       		.byte	0x1
 2774 11b6 1401     		.2byte	0x114
 2775 11b8 08120000 		.4byte	0x1208
 2776 11bc 28       		.uleb128 0x28
 2777 11bd 46090000 		.4byte	0x946
 2778 11c1 0C000000 		.4byte	.LBB234
 2779 11c5 08000000 		.4byte	.LBE234-.LBB234
 2780 11c9 11       		.byte	0x11
 2781 11ca CA01     		.2byte	0x1ca
 2782 11cc 29       		.uleb128 0x29
 2783 11cd 0C000000 		.4byte	.LBB235
 2784 11d1 08000000 		.4byte	.LBE235-.LBB235
 2785 11d5 2A       		.uleb128 0x2a
 2786 11d6 53090000 		.4byte	0x953
 2787 11da 28       		.uleb128 0x28
 2788 11db 34090000 		.4byte	0x934
 2789 11df 0C000000 		.4byte	.LBB236
 2790 11e3 08000000 		.4byte	.LBE236-.LBB236
 2791 11e7 10       		.byte	0x10
 2792 11e8 7301     		.2byte	0x173
 2793 11ea 28       		.uleb128 0x28
ARM GAS  /tmp/ccU3kjVM.s 			page 50


 2794 11eb 11090000 		.4byte	0x911
 2795 11ef 0C000000 		.4byte	.LBB237
 2796 11f3 08000000 		.4byte	.LBE237-.LBB237
 2797 11f7 09       		.byte	0x9
 2798 11f8 CD01     		.2byte	0x1cd
 2799 11fa 26       		.uleb128 0x26
 2800 11fb 1E090000 		.4byte	0x91e
 2801 11ff D9020000 		.4byte	.LLST28
 2802 1203 00       		.byte	0
 2803 1204 00       		.byte	0
 2804 1205 00       		.byte	0
 2805 1206 00       		.byte	0
 2806 1207 00       		.byte	0
 2807 1208 2B       		.uleb128 0x2b
 2808 1209 0C000000 		.4byte	.LVL35
 2809 120d A1130000 		.4byte	0x13a1
 2810 1211 2C       		.uleb128 0x2c
 2811 1212 01       		.uleb128 0x1
 2812 1213 50       		.byte	0x50
 2813 1214 03       		.uleb128 0x3
 2814 1215 F3       		.byte	0xf3
 2815 1216 01       		.uleb128 0x1
 2816 1217 50       		.byte	0x50
 2817 1218 00       		.byte	0
 2818 1219 00       		.byte	0
 2819 121a 10       		.uleb128 0x10
 2820 121b 34070000 		.4byte	0x734
 2821 121f 2A120000 		.4byte	0x122a
 2822 1223 11       		.uleb128 0x11
 2823 1224 49040000 		.4byte	0x449
 2824 1228 1C       		.byte	0x1c
 2825 1229 00       		.byte	0
 2826 122a 18       		.uleb128 0x18
 2827 122b 1A120000 		.4byte	0x121a
 2828 122f 2E       		.uleb128 0x2e
 2829 1230 A1070000 		.4byte	.LASF156
 2830 1234 01       		.byte	0x1
 2831 1235 2201     		.2byte	0x122
 2832 1237 00000000 		.4byte	.LFB268
 2833 123b 14000000 		.4byte	.LFE268-.LFB268
 2834 123f 01       		.uleb128 0x1
 2835 1240 9C       		.byte	0x9c
 2836 1241 31130000 		.4byte	0x1331
 2837 1245 2F       		.uleb128 0x2f
 2838 1246 41030000 		.4byte	.LASF145
 2839 124a 01       		.byte	0x1
 2840 124b 2201     		.2byte	0x122
 2841 124d 26080000 		.4byte	0x826
 2842 1251 ED020000 		.4byte	.LLST29
 2843 1255 2F       		.uleb128 0x2f
 2844 1256 1B060000 		.4byte	.LASF150
 2845 125a 01       		.byte	0x1
 2846 125b 2201     		.2byte	0x122
 2847 125d 38080000 		.4byte	0x838
 2848 1261 0E030000 		.4byte	.LLST30
 2849 1265 23       		.uleb128 0x23
 2850 1266 F0050000 		.4byte	.LASF147
ARM GAS  /tmp/ccU3kjVM.s 			page 51


 2851 126a 31130000 		.4byte	0x1331
 2852 126e 30       		.uleb128 0x30
 2853 126f 7F090000 		.4byte	0x97f
 2854 1273 02000000 		.4byte	.LBB239
 2855 1277 06000000 		.4byte	.LBE239-.LBB239
 2856 127b 01       		.byte	0x1
 2857 127c 2601     		.2byte	0x126
 2858 127e BF120000 		.4byte	0x12bf
 2859 1282 28       		.uleb128 0x28
 2860 1283 3D090000 		.4byte	0x93d
 2861 1287 02000000 		.4byte	.LBB240
 2862 128b 06000000 		.4byte	.LBE240-.LBB240
 2863 128f 11       		.byte	0x11
 2864 1290 BF01     		.2byte	0x1bf
 2865 1292 28       		.uleb128 0x28
 2866 1293 2B090000 		.4byte	0x92b
 2867 1297 02000000 		.4byte	.LBB241
 2868 129b 06000000 		.4byte	.LBE241-.LBB241
 2869 129f 10       		.byte	0x10
 2870 12a0 5C01     		.2byte	0x15c
 2871 12a2 28       		.uleb128 0x28
 2872 12a3 11090000 		.4byte	0x911
 2873 12a7 02000000 		.4byte	.LBB242
 2874 12ab 06000000 		.4byte	.LBE242-.LBB242
 2875 12af 09       		.byte	0x9
 2876 12b0 BF01     		.2byte	0x1bf
 2877 12b2 26       		.uleb128 0x26
 2878 12b3 1E090000 		.4byte	0x91e
 2879 12b7 2F030000 		.4byte	.LLST31
 2880 12bb 00       		.byte	0
 2881 12bc 00       		.byte	0
 2882 12bd 00       		.byte	0
 2883 12be 00       		.byte	0
 2884 12bf 30       		.uleb128 0x30
 2885 12c0 76090000 		.4byte	0x976
 2886 12c4 0C000000 		.4byte	.LBB244
 2887 12c8 08000000 		.4byte	.LBE244-.LBB244
 2888 12cc 01       		.byte	0x1
 2889 12cd 3001     		.2byte	0x130
 2890 12cf 1F130000 		.4byte	0x131f
 2891 12d3 28       		.uleb128 0x28
 2892 12d4 46090000 		.4byte	0x946
 2893 12d8 0C000000 		.4byte	.LBB245
 2894 12dc 08000000 		.4byte	.LBE245-.LBB245
 2895 12e0 11       		.byte	0x11
 2896 12e1 CA01     		.2byte	0x1ca
 2897 12e3 29       		.uleb128 0x29
 2898 12e4 0C000000 		.4byte	.LBB246
 2899 12e8 08000000 		.4byte	.LBE246-.LBB246
 2900 12ec 2A       		.uleb128 0x2a
 2901 12ed 53090000 		.4byte	0x953
 2902 12f1 28       		.uleb128 0x28
 2903 12f2 34090000 		.4byte	0x934
 2904 12f6 0C000000 		.4byte	.LBB247
 2905 12fa 08000000 		.4byte	.LBE247-.LBB247
 2906 12fe 10       		.byte	0x10
 2907 12ff 7301     		.2byte	0x173
ARM GAS  /tmp/ccU3kjVM.s 			page 52


 2908 1301 28       		.uleb128 0x28
 2909 1302 11090000 		.4byte	0x911
 2910 1306 0C000000 		.4byte	.LBB248
 2911 130a 08000000 		.4byte	.LBE248-.LBB248
 2912 130e 09       		.byte	0x9
 2913 130f CD01     		.2byte	0x1cd
 2914 1311 26       		.uleb128 0x26
 2915 1312 1E090000 		.4byte	0x91e
 2916 1316 44030000 		.4byte	.LLST32
 2917 131a 00       		.byte	0
 2918 131b 00       		.byte	0
 2919 131c 00       		.byte	0
 2920 131d 00       		.byte	0
 2921 131e 00       		.byte	0
 2922 131f 2B       		.uleb128 0x2b
 2923 1320 0C000000 		.4byte	.LVL39
 2924 1324 AD130000 		.4byte	0x13ad
 2925 1328 2C       		.uleb128 0x2c
 2926 1329 01       		.uleb128 0x1
 2927 132a 50       		.byte	0x50
 2928 132b 03       		.uleb128 0x3
 2929 132c F3       		.byte	0xf3
 2930 132d 01       		.uleb128 0x1
 2931 132e 50       		.byte	0x50
 2932 132f 00       		.byte	0
 2933 1330 00       		.byte	0
 2934 1331 18       		.uleb128 0x18
 2935 1332 00100000 		.4byte	0x1000
 2936 1336 31       		.uleb128 0x31
 2937 1337 BE040000 		.4byte	.LASF157
 2938 133b 12       		.byte	0x12
 2939 133c A706     		.2byte	0x6a7
 2940 133e C6000000 		.4byte	0xc6
 2941 1342 32       		.uleb128 0x32
 2942 1343 636800   		.ascii	"ch\000"
 2943 1346 07       		.byte	0x7
 2944 1347 0902     		.2byte	0x209
 2945 1349 E2030000 		.4byte	0x3e2
 2946 134d 33       		.uleb128 0x33
 2947 134e FC030000 		.4byte	.LASF158
 2948 1352 FC030000 		.4byte	.LASF158
 2949 1356 0F       		.byte	0xf
 2950 1357 D601     		.2byte	0x1d6
 2951 1359 33       		.uleb128 0x33
 2952 135a 77010000 		.4byte	.LASF159
 2953 135e 77010000 		.4byte	.LASF159
 2954 1362 0F       		.byte	0xf
 2955 1363 D701     		.2byte	0x1d7
 2956 1365 33       		.uleb128 0x33
 2957 1366 46060000 		.4byte	.LASF160
 2958 136a 46060000 		.4byte	.LASF160
 2959 136e 0F       		.byte	0xf
 2960 136f D801     		.2byte	0x1d8
 2961 1371 33       		.uleb128 0x33
 2962 1372 8E060000 		.4byte	.LASF161
 2963 1376 8E060000 		.4byte	.LASF161
 2964 137a 0F       		.byte	0xf
ARM GAS  /tmp/ccU3kjVM.s 			page 53


 2965 137b D901     		.2byte	0x1d9
 2966 137d 33       		.uleb128 0x33
 2967 137e D3000000 		.4byte	.LASF162
 2968 1382 D3000000 		.4byte	.LASF162
 2969 1386 0F       		.byte	0xf
 2970 1387 DC01     		.2byte	0x1dc
 2971 1389 33       		.uleb128 0x33
 2972 138a 75020000 		.4byte	.LASF163
 2973 138e 75020000 		.4byte	.LASF163
 2974 1392 0F       		.byte	0xf
 2975 1393 DD01     		.2byte	0x1dd
 2976 1395 33       		.uleb128 0x33
 2977 1396 3D040000 		.4byte	.LASF164
 2978 139a 3D040000 		.4byte	.LASF164
 2979 139e 0F       		.byte	0xf
 2980 139f DE01     		.2byte	0x1de
 2981 13a1 33       		.uleb128 0x33
 2982 13a2 85010000 		.4byte	.LASF165
 2983 13a6 85010000 		.4byte	.LASF165
 2984 13aa 0F       		.byte	0xf
 2985 13ab DF01     		.2byte	0x1df
 2986 13ad 33       		.uleb128 0x33
 2987 13ae 12030000 		.4byte	.LASF166
 2988 13b2 12030000 		.4byte	.LASF166
 2989 13b6 0F       		.byte	0xf
 2990 13b7 E101     		.2byte	0x1e1
 2991 13b9 00       		.byte	0
 2992              		.section	.debug_abbrev,"",%progbits
 2993              	.Ldebug_abbrev0:
 2994 0000 01       		.uleb128 0x1
 2995 0001 11       		.uleb128 0x11
 2996 0002 01       		.byte	0x1
 2997 0003 25       		.uleb128 0x25
 2998 0004 0E       		.uleb128 0xe
 2999 0005 13       		.uleb128 0x13
 3000 0006 0B       		.uleb128 0xb
 3001 0007 03       		.uleb128 0x3
 3002 0008 0E       		.uleb128 0xe
 3003 0009 55       		.uleb128 0x55
 3004 000a 17       		.uleb128 0x17
 3005 000b 11       		.uleb128 0x11
 3006 000c 01       		.uleb128 0x1
 3007 000d 10       		.uleb128 0x10
 3008 000e 17       		.uleb128 0x17
 3009 000f 00       		.byte	0
 3010 0010 00       		.byte	0
 3011 0011 02       		.uleb128 0x2
 3012 0012 24       		.uleb128 0x24
 3013 0013 00       		.byte	0
 3014 0014 0B       		.uleb128 0xb
 3015 0015 0B       		.uleb128 0xb
 3016 0016 3E       		.uleb128 0x3e
 3017 0017 0B       		.uleb128 0xb
 3018 0018 03       		.uleb128 0x3
 3019 0019 08       		.uleb128 0x8
 3020 001a 00       		.byte	0
 3021 001b 00       		.byte	0
ARM GAS  /tmp/ccU3kjVM.s 			page 54


 3022 001c 03       		.uleb128 0x3
 3023 001d 24       		.uleb128 0x24
 3024 001e 00       		.byte	0
 3025 001f 0B       		.uleb128 0xb
 3026 0020 0B       		.uleb128 0xb
 3027 0021 3E       		.uleb128 0x3e
 3028 0022 0B       		.uleb128 0xb
 3029 0023 03       		.uleb128 0x3
 3030 0024 0E       		.uleb128 0xe
 3031 0025 00       		.byte	0
 3032 0026 00       		.byte	0
 3033 0027 04       		.uleb128 0x4
 3034 0028 16       		.uleb128 0x16
 3035 0029 00       		.byte	0
 3036 002a 03       		.uleb128 0x3
 3037 002b 0E       		.uleb128 0xe
 3038 002c 3A       		.uleb128 0x3a
 3039 002d 0B       		.uleb128 0xb
 3040 002e 3B       		.uleb128 0x3b
 3041 002f 0B       		.uleb128 0xb
 3042 0030 49       		.uleb128 0x49
 3043 0031 13       		.uleb128 0x13
 3044 0032 00       		.byte	0
 3045 0033 00       		.byte	0
 3046 0034 05       		.uleb128 0x5
 3047 0035 35       		.uleb128 0x35
 3048 0036 00       		.byte	0
 3049 0037 49       		.uleb128 0x49
 3050 0038 13       		.uleb128 0x13
 3051 0039 00       		.byte	0
 3052 003a 00       		.byte	0
 3053 003b 06       		.uleb128 0x6
 3054 003c 13       		.uleb128 0x13
 3055 003d 01       		.byte	0x1
 3056 003e 03       		.uleb128 0x3
 3057 003f 0E       		.uleb128 0xe
 3058 0040 0B       		.uleb128 0xb
 3059 0041 0B       		.uleb128 0xb
 3060 0042 3A       		.uleb128 0x3a
 3061 0043 0B       		.uleb128 0xb
 3062 0044 3B       		.uleb128 0x3b
 3063 0045 0B       		.uleb128 0xb
 3064 0046 01       		.uleb128 0x1
 3065 0047 13       		.uleb128 0x13
 3066 0048 00       		.byte	0
 3067 0049 00       		.byte	0
 3068 004a 07       		.uleb128 0x7
 3069 004b 0D       		.uleb128 0xd
 3070 004c 00       		.byte	0
 3071 004d 03       		.uleb128 0x3
 3072 004e 0E       		.uleb128 0xe
 3073 004f 3A       		.uleb128 0x3a
 3074 0050 0B       		.uleb128 0xb
 3075 0051 3B       		.uleb128 0x3b
 3076 0052 0B       		.uleb128 0xb
 3077 0053 49       		.uleb128 0x49
 3078 0054 13       		.uleb128 0x13
ARM GAS  /tmp/ccU3kjVM.s 			page 55


 3079 0055 38       		.uleb128 0x38
 3080 0056 0B       		.uleb128 0xb
 3081 0057 00       		.byte	0
 3082 0058 00       		.byte	0
 3083 0059 08       		.uleb128 0x8
 3084 005a 0D       		.uleb128 0xd
 3085 005b 00       		.byte	0
 3086 005c 03       		.uleb128 0x3
 3087 005d 08       		.uleb128 0x8
 3088 005e 3A       		.uleb128 0x3a
 3089 005f 0B       		.uleb128 0xb
 3090 0060 3B       		.uleb128 0x3b
 3091 0061 05       		.uleb128 0x5
 3092 0062 49       		.uleb128 0x49
 3093 0063 13       		.uleb128 0x13
 3094 0064 38       		.uleb128 0x38
 3095 0065 0B       		.uleb128 0xb
 3096 0066 00       		.byte	0
 3097 0067 00       		.byte	0
 3098 0068 09       		.uleb128 0x9
 3099 0069 0D       		.uleb128 0xd
 3100 006a 00       		.byte	0
 3101 006b 03       		.uleb128 0x3
 3102 006c 0E       		.uleb128 0xe
 3103 006d 3A       		.uleb128 0x3a
 3104 006e 0B       		.uleb128 0xb
 3105 006f 3B       		.uleb128 0x3b
 3106 0070 05       		.uleb128 0x5
 3107 0071 49       		.uleb128 0x49
 3108 0072 13       		.uleb128 0x13
 3109 0073 38       		.uleb128 0x38
 3110 0074 0B       		.uleb128 0xb
 3111 0075 00       		.byte	0
 3112 0076 00       		.byte	0
 3113 0077 0A       		.uleb128 0xa
 3114 0078 0F       		.uleb128 0xf
 3115 0079 00       		.byte	0
 3116 007a 0B       		.uleb128 0xb
 3117 007b 0B       		.uleb128 0xb
 3118 007c 49       		.uleb128 0x49
 3119 007d 13       		.uleb128 0x13
 3120 007e 00       		.byte	0
 3121 007f 00       		.byte	0
 3122 0080 0B       		.uleb128 0xb
 3123 0081 13       		.uleb128 0x13
 3124 0082 01       		.byte	0x1
 3125 0083 03       		.uleb128 0x3
 3126 0084 0E       		.uleb128 0xe
 3127 0085 0B       		.uleb128 0xb
 3128 0086 0B       		.uleb128 0xb
 3129 0087 3A       		.uleb128 0x3a
 3130 0088 0B       		.uleb128 0xb
 3131 0089 3B       		.uleb128 0x3b
 3132 008a 05       		.uleb128 0x5
 3133 008b 01       		.uleb128 0x1
 3134 008c 13       		.uleb128 0x13
 3135 008d 00       		.byte	0
ARM GAS  /tmp/ccU3kjVM.s 			page 56


 3136 008e 00       		.byte	0
 3137 008f 0C       		.uleb128 0xc
 3138 0090 15       		.uleb128 0x15
 3139 0091 01       		.byte	0x1
 3140 0092 27       		.uleb128 0x27
 3141 0093 19       		.uleb128 0x19
 3142 0094 01       		.uleb128 0x1
 3143 0095 13       		.uleb128 0x13
 3144 0096 00       		.byte	0
 3145 0097 00       		.byte	0
 3146 0098 0D       		.uleb128 0xd
 3147 0099 05       		.uleb128 0x5
 3148 009a 00       		.byte	0
 3149 009b 49       		.uleb128 0x49
 3150 009c 13       		.uleb128 0x13
 3151 009d 00       		.byte	0
 3152 009e 00       		.byte	0
 3153 009f 0E       		.uleb128 0xe
 3154 00a0 0F       		.uleb128 0xf
 3155 00a1 00       		.byte	0
 3156 00a2 0B       		.uleb128 0xb
 3157 00a3 0B       		.uleb128 0xb
 3158 00a4 00       		.byte	0
 3159 00a5 00       		.byte	0
 3160 00a6 0F       		.uleb128 0xf
 3161 00a7 13       		.uleb128 0x13
 3162 00a8 01       		.byte	0x1
 3163 00a9 03       		.uleb128 0x3
 3164 00aa 0E       		.uleb128 0xe
 3165 00ab 0B       		.uleb128 0xb
 3166 00ac 05       		.uleb128 0x5
 3167 00ad 3A       		.uleb128 0x3a
 3168 00ae 0B       		.uleb128 0xb
 3169 00af 3B       		.uleb128 0x3b
 3170 00b0 05       		.uleb128 0x5
 3171 00b1 01       		.uleb128 0x1
 3172 00b2 13       		.uleb128 0x13
 3173 00b3 00       		.byte	0
 3174 00b4 00       		.byte	0
 3175 00b5 10       		.uleb128 0x10
 3176 00b6 01       		.uleb128 0x1
 3177 00b7 01       		.byte	0x1
 3178 00b8 49       		.uleb128 0x49
 3179 00b9 13       		.uleb128 0x13
 3180 00ba 01       		.uleb128 0x1
 3181 00bb 13       		.uleb128 0x13
 3182 00bc 00       		.byte	0
 3183 00bd 00       		.byte	0
 3184 00be 11       		.uleb128 0x11
 3185 00bf 21       		.uleb128 0x21
 3186 00c0 00       		.byte	0
 3187 00c1 49       		.uleb128 0x49
 3188 00c2 13       		.uleb128 0x13
 3189 00c3 2F       		.uleb128 0x2f
 3190 00c4 0B       		.uleb128 0xb
 3191 00c5 00       		.byte	0
 3192 00c6 00       		.byte	0
ARM GAS  /tmp/ccU3kjVM.s 			page 57


 3193 00c7 12       		.uleb128 0x12
 3194 00c8 0D       		.uleb128 0xd
 3195 00c9 00       		.byte	0
 3196 00ca 03       		.uleb128 0x3
 3197 00cb 08       		.uleb128 0x8
 3198 00cc 3A       		.uleb128 0x3a
 3199 00cd 0B       		.uleb128 0xb
 3200 00ce 3B       		.uleb128 0x3b
 3201 00cf 0B       		.uleb128 0xb
 3202 00d0 49       		.uleb128 0x49
 3203 00d1 13       		.uleb128 0x13
 3204 00d2 38       		.uleb128 0x38
 3205 00d3 0B       		.uleb128 0xb
 3206 00d4 00       		.byte	0
 3207 00d5 00       		.byte	0
 3208 00d6 13       		.uleb128 0x13
 3209 00d7 13       		.uleb128 0x13
 3210 00d8 01       		.byte	0x1
 3211 00d9 0B       		.uleb128 0xb
 3212 00da 0B       		.uleb128 0xb
 3213 00db 3A       		.uleb128 0x3a
 3214 00dc 0B       		.uleb128 0xb
 3215 00dd 3B       		.uleb128 0x3b
 3216 00de 05       		.uleb128 0x5
 3217 00df 01       		.uleb128 0x1
 3218 00e0 13       		.uleb128 0x13
 3219 00e1 00       		.byte	0
 3220 00e2 00       		.byte	0
 3221 00e3 14       		.uleb128 0x14
 3222 00e4 16       		.uleb128 0x16
 3223 00e5 00       		.byte	0
 3224 00e6 03       		.uleb128 0x3
 3225 00e7 0E       		.uleb128 0xe
 3226 00e8 3A       		.uleb128 0x3a
 3227 00e9 0B       		.uleb128 0xb
 3228 00ea 3B       		.uleb128 0x3b
 3229 00eb 05       		.uleb128 0x5
 3230 00ec 49       		.uleb128 0x49
 3231 00ed 13       		.uleb128 0x13
 3232 00ee 00       		.byte	0
 3233 00ef 00       		.byte	0
 3234 00f0 15       		.uleb128 0x15
 3235 00f1 13       		.uleb128 0x13
 3236 00f2 01       		.byte	0x1
 3237 00f3 0B       		.uleb128 0xb
 3238 00f4 0B       		.uleb128 0xb
 3239 00f5 3A       		.uleb128 0x3a
 3240 00f6 0B       		.uleb128 0xb
 3241 00f7 3B       		.uleb128 0x3b
 3242 00f8 0B       		.uleb128 0xb
 3243 00f9 01       		.uleb128 0x1
 3244 00fa 13       		.uleb128 0x13
 3245 00fb 00       		.byte	0
 3246 00fc 00       		.byte	0
 3247 00fd 16       		.uleb128 0x16
 3248 00fe 17       		.uleb128 0x17
 3249 00ff 01       		.byte	0x1
ARM GAS  /tmp/ccU3kjVM.s 			page 58


 3250 0100 0B       		.uleb128 0xb
 3251 0101 0B       		.uleb128 0xb
 3252 0102 3A       		.uleb128 0x3a
 3253 0103 0B       		.uleb128 0xb
 3254 0104 3B       		.uleb128 0x3b
 3255 0105 0B       		.uleb128 0xb
 3256 0106 01       		.uleb128 0x1
 3257 0107 13       		.uleb128 0x13
 3258 0108 00       		.byte	0
 3259 0109 00       		.byte	0
 3260 010a 17       		.uleb128 0x17
 3261 010b 0D       		.uleb128 0xd
 3262 010c 00       		.byte	0
 3263 010d 03       		.uleb128 0x3
 3264 010e 0E       		.uleb128 0xe
 3265 010f 3A       		.uleb128 0x3a
 3266 0110 0B       		.uleb128 0xb
 3267 0111 3B       		.uleb128 0x3b
 3268 0112 05       		.uleb128 0x5
 3269 0113 49       		.uleb128 0x49
 3270 0114 13       		.uleb128 0x13
 3271 0115 00       		.byte	0
 3272 0116 00       		.byte	0
 3273 0117 18       		.uleb128 0x18
 3274 0118 26       		.uleb128 0x26
 3275 0119 00       		.byte	0
 3276 011a 49       		.uleb128 0x49
 3277 011b 13       		.uleb128 0x13
 3278 011c 00       		.byte	0
 3279 011d 00       		.byte	0
 3280 011e 19       		.uleb128 0x19
 3281 011f 04       		.uleb128 0x4
 3282 0120 01       		.byte	0x1
 3283 0121 0B       		.uleb128 0xb
 3284 0122 0B       		.uleb128 0xb
 3285 0123 49       		.uleb128 0x49
 3286 0124 13       		.uleb128 0x13
 3287 0125 3A       		.uleb128 0x3a
 3288 0126 0B       		.uleb128 0xb
 3289 0127 3B       		.uleb128 0x3b
 3290 0128 0B       		.uleb128 0xb
 3291 0129 01       		.uleb128 0x1
 3292 012a 13       		.uleb128 0x13
 3293 012b 00       		.byte	0
 3294 012c 00       		.byte	0
 3295 012d 1A       		.uleb128 0x1a
 3296 012e 28       		.uleb128 0x28
 3297 012f 00       		.byte	0
 3298 0130 03       		.uleb128 0x3
 3299 0131 0E       		.uleb128 0xe
 3300 0132 1C       		.uleb128 0x1c
 3301 0133 0B       		.uleb128 0xb
 3302 0134 00       		.byte	0
 3303 0135 00       		.byte	0
 3304 0136 1B       		.uleb128 0x1b
 3305 0137 2E       		.uleb128 0x2e
 3306 0138 01       		.byte	0x1
ARM GAS  /tmp/ccU3kjVM.s 			page 59


 3307 0139 03       		.uleb128 0x3
 3308 013a 0E       		.uleb128 0xe
 3309 013b 3A       		.uleb128 0x3a
 3310 013c 0B       		.uleb128 0xb
 3311 013d 3B       		.uleb128 0x3b
 3312 013e 05       		.uleb128 0x5
 3313 013f 27       		.uleb128 0x27
 3314 0140 19       		.uleb128 0x19
 3315 0141 20       		.uleb128 0x20
 3316 0142 0B       		.uleb128 0xb
 3317 0143 01       		.uleb128 0x1
 3318 0144 13       		.uleb128 0x13
 3319 0145 00       		.byte	0
 3320 0146 00       		.byte	0
 3321 0147 1C       		.uleb128 0x1c
 3322 0148 05       		.uleb128 0x5
 3323 0149 00       		.byte	0
 3324 014a 03       		.uleb128 0x3
 3325 014b 0E       		.uleb128 0xe
 3326 014c 3A       		.uleb128 0x3a
 3327 014d 0B       		.uleb128 0xb
 3328 014e 3B       		.uleb128 0x3b
 3329 014f 05       		.uleb128 0x5
 3330 0150 49       		.uleb128 0x49
 3331 0151 13       		.uleb128 0x13
 3332 0152 00       		.byte	0
 3333 0153 00       		.byte	0
 3334 0154 1D       		.uleb128 0x1d
 3335 0155 2E       		.uleb128 0x2e
 3336 0156 00       		.byte	0
 3337 0157 03       		.uleb128 0x3
 3338 0158 0E       		.uleb128 0xe
 3339 0159 3A       		.uleb128 0x3a
 3340 015a 0B       		.uleb128 0xb
 3341 015b 3B       		.uleb128 0x3b
 3342 015c 05       		.uleb128 0x5
 3343 015d 27       		.uleb128 0x27
 3344 015e 19       		.uleb128 0x19
 3345 015f 20       		.uleb128 0x20
 3346 0160 0B       		.uleb128 0xb
 3347 0161 00       		.byte	0
 3348 0162 00       		.byte	0
 3349 0163 1E       		.uleb128 0x1e
 3350 0164 34       		.uleb128 0x34
 3351 0165 00       		.byte	0
 3352 0166 03       		.uleb128 0x3
 3353 0167 0E       		.uleb128 0xe
 3354 0168 49       		.uleb128 0x49
 3355 0169 13       		.uleb128 0x13
 3356 016a 34       		.uleb128 0x34
 3357 016b 19       		.uleb128 0x19
 3358 016c 1C       		.uleb128 0x1c
 3359 016d 0E       		.uleb128 0xe
 3360 016e 00       		.byte	0
 3361 016f 00       		.byte	0
 3362 0170 1F       		.uleb128 0x1f
 3363 0171 2E       		.uleb128 0x2e
ARM GAS  /tmp/ccU3kjVM.s 			page 60


 3364 0172 01       		.byte	0x1
 3365 0173 3F       		.uleb128 0x3f
 3366 0174 19       		.uleb128 0x19
 3367 0175 03       		.uleb128 0x3
 3368 0176 0E       		.uleb128 0xe
 3369 0177 3A       		.uleb128 0x3a
 3370 0178 0B       		.uleb128 0xb
 3371 0179 3B       		.uleb128 0x3b
 3372 017a 0B       		.uleb128 0xb
 3373 017b 27       		.uleb128 0x27
 3374 017c 19       		.uleb128 0x19
 3375 017d 11       		.uleb128 0x11
 3376 017e 01       		.uleb128 0x1
 3377 017f 12       		.uleb128 0x12
 3378 0180 06       		.uleb128 0x6
 3379 0181 40       		.uleb128 0x40
 3380 0182 18       		.uleb128 0x18
 3381 0183 9742     		.uleb128 0x2117
 3382 0185 19       		.uleb128 0x19
 3383 0186 01       		.uleb128 0x1
 3384 0187 13       		.uleb128 0x13
 3385 0188 00       		.byte	0
 3386 0189 00       		.byte	0
 3387 018a 20       		.uleb128 0x20
 3388 018b 898201   		.uleb128 0x4109
 3389 018e 00       		.byte	0
 3390 018f 11       		.uleb128 0x11
 3391 0190 01       		.uleb128 0x1
 3392 0191 9542     		.uleb128 0x2115
 3393 0193 19       		.uleb128 0x19
 3394 0194 31       		.uleb128 0x31
 3395 0195 13       		.uleb128 0x13
 3396 0196 00       		.byte	0
 3397 0197 00       		.byte	0
 3398 0198 21       		.uleb128 0x21
 3399 0199 05       		.uleb128 0x5
 3400 019a 00       		.byte	0
 3401 019b 03       		.uleb128 0x3
 3402 019c 0E       		.uleb128 0xe
 3403 019d 3A       		.uleb128 0x3a
 3404 019e 0B       		.uleb128 0xb
 3405 019f 3B       		.uleb128 0x3b
 3406 01a0 0B       		.uleb128 0xb
 3407 01a1 49       		.uleb128 0x49
 3408 01a2 13       		.uleb128 0x13
 3409 01a3 02       		.uleb128 0x2
 3410 01a4 18       		.uleb128 0x18
 3411 01a5 00       		.byte	0
 3412 01a6 00       		.byte	0
 3413 01a7 22       		.uleb128 0x22
 3414 01a8 05       		.uleb128 0x5
 3415 01a9 00       		.byte	0
 3416 01aa 03       		.uleb128 0x3
 3417 01ab 0E       		.uleb128 0xe
 3418 01ac 3A       		.uleb128 0x3a
 3419 01ad 0B       		.uleb128 0xb
 3420 01ae 3B       		.uleb128 0x3b
ARM GAS  /tmp/ccU3kjVM.s 			page 61


 3421 01af 0B       		.uleb128 0xb
 3422 01b0 49       		.uleb128 0x49
 3423 01b1 13       		.uleb128 0x13
 3424 01b2 02       		.uleb128 0x2
 3425 01b3 17       		.uleb128 0x17
 3426 01b4 00       		.byte	0
 3427 01b5 00       		.byte	0
 3428 01b6 23       		.uleb128 0x23
 3429 01b7 34       		.uleb128 0x34
 3430 01b8 00       		.byte	0
 3431 01b9 03       		.uleb128 0x3
 3432 01ba 0E       		.uleb128 0xe
 3433 01bb 49       		.uleb128 0x49
 3434 01bc 13       		.uleb128 0x13
 3435 01bd 34       		.uleb128 0x34
 3436 01be 19       		.uleb128 0x19
 3437 01bf 00       		.byte	0
 3438 01c0 00       		.byte	0
 3439 01c1 24       		.uleb128 0x24
 3440 01c2 1D       		.uleb128 0x1d
 3441 01c3 01       		.byte	0x1
 3442 01c4 31       		.uleb128 0x31
 3443 01c5 13       		.uleb128 0x13
 3444 01c6 52       		.uleb128 0x52
 3445 01c7 01       		.uleb128 0x1
 3446 01c8 55       		.uleb128 0x55
 3447 01c9 17       		.uleb128 0x17
 3448 01ca 58       		.uleb128 0x58
 3449 01cb 0B       		.uleb128 0xb
 3450 01cc 59       		.uleb128 0x59
 3451 01cd 0B       		.uleb128 0xb
 3452 01ce 01       		.uleb128 0x1
 3453 01cf 13       		.uleb128 0x13
 3454 01d0 00       		.byte	0
 3455 01d1 00       		.byte	0
 3456 01d2 25       		.uleb128 0x25
 3457 01d3 1D       		.uleb128 0x1d
 3458 01d4 01       		.byte	0x1
 3459 01d5 31       		.uleb128 0x31
 3460 01d6 13       		.uleb128 0x13
 3461 01d7 52       		.uleb128 0x52
 3462 01d8 01       		.uleb128 0x1
 3463 01d9 55       		.uleb128 0x55
 3464 01da 17       		.uleb128 0x17
 3465 01db 58       		.uleb128 0x58
 3466 01dc 0B       		.uleb128 0xb
 3467 01dd 59       		.uleb128 0x59
 3468 01de 05       		.uleb128 0x5
 3469 01df 00       		.byte	0
 3470 01e0 00       		.byte	0
 3471 01e1 26       		.uleb128 0x26
 3472 01e2 05       		.uleb128 0x5
 3473 01e3 00       		.byte	0
 3474 01e4 31       		.uleb128 0x31
 3475 01e5 13       		.uleb128 0x13
 3476 01e6 02       		.uleb128 0x2
 3477 01e7 17       		.uleb128 0x17
ARM GAS  /tmp/ccU3kjVM.s 			page 62


 3478 01e8 00       		.byte	0
 3479 01e9 00       		.byte	0
 3480 01ea 27       		.uleb128 0x27
 3481 01eb 1D       		.uleb128 0x1d
 3482 01ec 01       		.byte	0x1
 3483 01ed 31       		.uleb128 0x31
 3484 01ee 13       		.uleb128 0x13
 3485 01ef 11       		.uleb128 0x11
 3486 01f0 01       		.uleb128 0x1
 3487 01f1 12       		.uleb128 0x12
 3488 01f2 06       		.uleb128 0x6
 3489 01f3 58       		.uleb128 0x58
 3490 01f4 0B       		.uleb128 0xb
 3491 01f5 59       		.uleb128 0x59
 3492 01f6 0B       		.uleb128 0xb
 3493 01f7 01       		.uleb128 0x1
 3494 01f8 13       		.uleb128 0x13
 3495 01f9 00       		.byte	0
 3496 01fa 00       		.byte	0
 3497 01fb 28       		.uleb128 0x28
 3498 01fc 1D       		.uleb128 0x1d
 3499 01fd 01       		.byte	0x1
 3500 01fe 31       		.uleb128 0x31
 3501 01ff 13       		.uleb128 0x13
 3502 0200 11       		.uleb128 0x11
 3503 0201 01       		.uleb128 0x1
 3504 0202 12       		.uleb128 0x12
 3505 0203 06       		.uleb128 0x6
 3506 0204 58       		.uleb128 0x58
 3507 0205 0B       		.uleb128 0xb
 3508 0206 59       		.uleb128 0x59
 3509 0207 05       		.uleb128 0x5
 3510 0208 00       		.byte	0
 3511 0209 00       		.byte	0
 3512 020a 29       		.uleb128 0x29
 3513 020b 0B       		.uleb128 0xb
 3514 020c 01       		.byte	0x1
 3515 020d 11       		.uleb128 0x11
 3516 020e 01       		.uleb128 0x1
 3517 020f 12       		.uleb128 0x12
 3518 0210 06       		.uleb128 0x6
 3519 0211 00       		.byte	0
 3520 0212 00       		.byte	0
 3521 0213 2A       		.uleb128 0x2a
 3522 0214 34       		.uleb128 0x34
 3523 0215 00       		.byte	0
 3524 0216 31       		.uleb128 0x31
 3525 0217 13       		.uleb128 0x13
 3526 0218 00       		.byte	0
 3527 0219 00       		.byte	0
 3528 021a 2B       		.uleb128 0x2b
 3529 021b 898201   		.uleb128 0x4109
 3530 021e 01       		.byte	0x1
 3531 021f 11       		.uleb128 0x11
 3532 0220 01       		.uleb128 0x1
 3533 0221 31       		.uleb128 0x31
 3534 0222 13       		.uleb128 0x13
ARM GAS  /tmp/ccU3kjVM.s 			page 63


 3535 0223 00       		.byte	0
 3536 0224 00       		.byte	0
 3537 0225 2C       		.uleb128 0x2c
 3538 0226 8A8201   		.uleb128 0x410a
 3539 0229 00       		.byte	0
 3540 022a 02       		.uleb128 0x2
 3541 022b 18       		.uleb128 0x18
 3542 022c 9142     		.uleb128 0x2111
 3543 022e 18       		.uleb128 0x18
 3544 022f 00       		.byte	0
 3545 0230 00       		.byte	0
 3546 0231 2D       		.uleb128 0x2d
 3547 0232 1D       		.uleb128 0x1d
 3548 0233 01       		.byte	0x1
 3549 0234 31       		.uleb128 0x31
 3550 0235 13       		.uleb128 0x13
 3551 0236 11       		.uleb128 0x11
 3552 0237 01       		.uleb128 0x1
 3553 0238 12       		.uleb128 0x12
 3554 0239 06       		.uleb128 0x6
 3555 023a 58       		.uleb128 0x58
 3556 023b 0B       		.uleb128 0xb
 3557 023c 59       		.uleb128 0x59
 3558 023d 0B       		.uleb128 0xb
 3559 023e 00       		.byte	0
 3560 023f 00       		.byte	0
 3561 0240 2E       		.uleb128 0x2e
 3562 0241 2E       		.uleb128 0x2e
 3563 0242 01       		.byte	0x1
 3564 0243 3F       		.uleb128 0x3f
 3565 0244 19       		.uleb128 0x19
 3566 0245 03       		.uleb128 0x3
 3567 0246 0E       		.uleb128 0xe
 3568 0247 3A       		.uleb128 0x3a
 3569 0248 0B       		.uleb128 0xb
 3570 0249 3B       		.uleb128 0x3b
 3571 024a 05       		.uleb128 0x5
 3572 024b 27       		.uleb128 0x27
 3573 024c 19       		.uleb128 0x19
 3574 024d 11       		.uleb128 0x11
 3575 024e 01       		.uleb128 0x1
 3576 024f 12       		.uleb128 0x12
 3577 0250 06       		.uleb128 0x6
 3578 0251 40       		.uleb128 0x40
 3579 0252 18       		.uleb128 0x18
 3580 0253 9742     		.uleb128 0x2117
 3581 0255 19       		.uleb128 0x19
 3582 0256 01       		.uleb128 0x1
 3583 0257 13       		.uleb128 0x13
 3584 0258 00       		.byte	0
 3585 0259 00       		.byte	0
 3586 025a 2F       		.uleb128 0x2f
 3587 025b 05       		.uleb128 0x5
 3588 025c 00       		.byte	0
 3589 025d 03       		.uleb128 0x3
 3590 025e 0E       		.uleb128 0xe
 3591 025f 3A       		.uleb128 0x3a
ARM GAS  /tmp/ccU3kjVM.s 			page 64


 3592 0260 0B       		.uleb128 0xb
 3593 0261 3B       		.uleb128 0x3b
 3594 0262 05       		.uleb128 0x5
 3595 0263 49       		.uleb128 0x49
 3596 0264 13       		.uleb128 0x13
 3597 0265 02       		.uleb128 0x2
 3598 0266 17       		.uleb128 0x17
 3599 0267 00       		.byte	0
 3600 0268 00       		.byte	0
 3601 0269 30       		.uleb128 0x30
 3602 026a 1D       		.uleb128 0x1d
 3603 026b 01       		.byte	0x1
 3604 026c 31       		.uleb128 0x31
 3605 026d 13       		.uleb128 0x13
 3606 026e 11       		.uleb128 0x11
 3607 026f 01       		.uleb128 0x1
 3608 0270 12       		.uleb128 0x12
 3609 0271 06       		.uleb128 0x6
 3610 0272 58       		.uleb128 0x58
 3611 0273 0B       		.uleb128 0xb
 3612 0274 59       		.uleb128 0x59
 3613 0275 05       		.uleb128 0x5
 3614 0276 01       		.uleb128 0x1
 3615 0277 13       		.uleb128 0x13
 3616 0278 00       		.byte	0
 3617 0279 00       		.byte	0
 3618 027a 31       		.uleb128 0x31
 3619 027b 34       		.uleb128 0x34
 3620 027c 00       		.byte	0
 3621 027d 03       		.uleb128 0x3
 3622 027e 0E       		.uleb128 0xe
 3623 027f 3A       		.uleb128 0x3a
 3624 0280 0B       		.uleb128 0xb
 3625 0281 3B       		.uleb128 0x3b
 3626 0282 05       		.uleb128 0x5
 3627 0283 49       		.uleb128 0x49
 3628 0284 13       		.uleb128 0x13
 3629 0285 3F       		.uleb128 0x3f
 3630 0286 19       		.uleb128 0x19
 3631 0287 3C       		.uleb128 0x3c
 3632 0288 19       		.uleb128 0x19
 3633 0289 00       		.byte	0
 3634 028a 00       		.byte	0
 3635 028b 32       		.uleb128 0x32
 3636 028c 34       		.uleb128 0x34
 3637 028d 00       		.byte	0
 3638 028e 03       		.uleb128 0x3
 3639 028f 08       		.uleb128 0x8
 3640 0290 3A       		.uleb128 0x3a
 3641 0291 0B       		.uleb128 0xb
 3642 0292 3B       		.uleb128 0x3b
 3643 0293 05       		.uleb128 0x5
 3644 0294 49       		.uleb128 0x49
 3645 0295 13       		.uleb128 0x13
 3646 0296 3F       		.uleb128 0x3f
 3647 0297 19       		.uleb128 0x19
 3648 0298 3C       		.uleb128 0x3c
ARM GAS  /tmp/ccU3kjVM.s 			page 65


 3649 0299 19       		.uleb128 0x19
 3650 029a 00       		.byte	0
 3651 029b 00       		.byte	0
 3652 029c 33       		.uleb128 0x33
 3653 029d 2E       		.uleb128 0x2e
 3654 029e 00       		.byte	0
 3655 029f 3F       		.uleb128 0x3f
 3656 02a0 19       		.uleb128 0x19
 3657 02a1 3C       		.uleb128 0x3c
 3658 02a2 19       		.uleb128 0x19
 3659 02a3 6E       		.uleb128 0x6e
 3660 02a4 0E       		.uleb128 0xe
 3661 02a5 03       		.uleb128 0x3
 3662 02a6 0E       		.uleb128 0xe
 3663 02a7 3A       		.uleb128 0x3a
 3664 02a8 0B       		.uleb128 0xb
 3665 02a9 3B       		.uleb128 0x3b
 3666 02aa 05       		.uleb128 0x5
 3667 02ab 00       		.byte	0
 3668 02ac 00       		.byte	0
 3669 02ad 00       		.byte	0
 3670              		.section	.debug_loc,"",%progbits
 3671              	.Ldebug_loc0:
 3672              	.LLST0:
 3673 0000 00000000 		.4byte	.LVL2
 3674 0004 13000000 		.4byte	.LVL4-1
 3675 0008 0100     		.2byte	0x1
 3676 000a 50       		.byte	0x50
 3677 000b 13000000 		.4byte	.LVL4-1
 3678 000f 22000000 		.4byte	.LFE260
 3679 0013 0100     		.2byte	0x1
 3680 0015 54       		.byte	0x54
 3681 0016 00000000 		.4byte	0
 3682 001a 00000000 		.4byte	0
 3683              	.LLST1:
 3684 001e 00000000 		.4byte	.LVL2
 3685 0022 13000000 		.4byte	.LVL4-1
 3686 0026 0100     		.2byte	0x1
 3687 0028 51       		.byte	0x51
 3688 0029 13000000 		.4byte	.LVL4-1
 3689 002d 22000000 		.4byte	.LFE260
 3690 0031 0400     		.2byte	0x4
 3691 0033 F3       		.byte	0xf3
 3692 0034 01       		.uleb128 0x1
 3693 0035 51       		.byte	0x51
 3694 0036 9F       		.byte	0x9f
 3695 0037 00000000 		.4byte	0
 3696 003b 00000000 		.4byte	0
 3697              	.LLST2:
 3698 003f 00000000 		.4byte	.LVL2
 3699 0043 0A000000 		.4byte	.LVL3
 3700 0047 0300     		.2byte	0x3
 3701 0049 08       		.byte	0x8
 3702 004a 20       		.byte	0x20
 3703 004b 9F       		.byte	0x9f
 3704 004c 00000000 		.4byte	0
 3705 0050 00000000 		.4byte	0
ARM GAS  /tmp/ccU3kjVM.s 			page 66


 3706              	.LLST3:
 3707 0054 1A000000 		.4byte	.LVL5
 3708 0058 20000000 		.4byte	.LVL6
 3709 005c 0200     		.2byte	0x2
 3710 005e 30       		.byte	0x30
 3711 005f 9F       		.byte	0x9f
 3712 0060 00000000 		.4byte	0
 3713 0064 00000000 		.4byte	0
 3714              	.LLST4:
 3715 0068 00000000 		.4byte	.LVL7
 3716 006c 0D000000 		.4byte	.LVL9-1
 3717 0070 0100     		.2byte	0x1
 3718 0072 50       		.byte	0x50
 3719 0073 0D000000 		.4byte	.LVL9-1
 3720 0077 1C000000 		.4byte	.LFE261
 3721 007b 0100     		.2byte	0x1
 3722 007d 54       		.byte	0x54
 3723 007e 00000000 		.4byte	0
 3724 0082 00000000 		.4byte	0
 3725              	.LLST5:
 3726 0086 00000000 		.4byte	.LVL7
 3727 008a 0A000000 		.4byte	.LVL8
 3728 008e 0300     		.2byte	0x3
 3729 0090 08       		.byte	0x8
 3730 0091 20       		.byte	0x20
 3731 0092 9F       		.byte	0x9f
 3732 0093 00000000 		.4byte	0
 3733 0097 00000000 		.4byte	0
 3734              	.LLST6:
 3735 009b 14000000 		.4byte	.LVL10
 3736 009f 1A000000 		.4byte	.LVL11
 3737 00a3 0200     		.2byte	0x2
 3738 00a5 30       		.byte	0x30
 3739 00a6 9F       		.byte	0x9f
 3740 00a7 00000000 		.4byte	0
 3741 00ab 00000000 		.4byte	0
 3742              	.LLST7:
 3743 00af 00000000 		.4byte	.LVL12
 3744 00b3 0C000000 		.4byte	.LVL14
 3745 00b7 0100     		.2byte	0x1
 3746 00b9 51       		.byte	0x51
 3747 00ba 0C000000 		.4byte	.LVL14
 3748 00be 16000000 		.4byte	.LFE262
 3749 00c2 0200     		.2byte	0x2
 3750 00c4 70       		.byte	0x70
 3751 00c5 08       		.sleb128 8
 3752 00c6 00000000 		.4byte	0
 3753 00ca 00000000 		.4byte	0
 3754              	.LLST8:
 3755 00ce 00000000 		.4byte	.LVL12
 3756 00d2 06000000 		.4byte	.LVL13
 3757 00d6 0300     		.2byte	0x3
 3758 00d8 08       		.byte	0x8
 3759 00d9 20       		.byte	0x20
 3760 00da 9F       		.byte	0x9f
 3761 00db 00000000 		.4byte	0
 3762 00df 00000000 		.4byte	0
ARM GAS  /tmp/ccU3kjVM.s 			page 67


 3763              	.LLST9:
 3764 00e3 0E000000 		.4byte	.LVL15
 3765 00e7 14000000 		.4byte	.LVL16
 3766 00eb 0200     		.2byte	0x2
 3767 00ed 30       		.byte	0x30
 3768 00ee 9F       		.byte	0x9f
 3769 00ef 00000000 		.4byte	0
 3770 00f3 00000000 		.4byte	0
 3771              	.LLST10:
 3772 00f7 00000000 		.4byte	.LVL17
 3773 00fb 17000000 		.4byte	.LVL19-1
 3774 00ff 0100     		.2byte	0x1
 3775 0101 50       		.byte	0x50
 3776 0102 17000000 		.4byte	.LVL19-1
 3777 0106 20000000 		.4byte	.LFE263
 3778 010a 0400     		.2byte	0x4
 3779 010c F3       		.byte	0xf3
 3780 010d 01       		.uleb128 0x1
 3781 010e 50       		.byte	0x50
 3782 010f 9F       		.byte	0x9f
 3783 0110 00000000 		.4byte	0
 3784 0114 00000000 		.4byte	0
 3785              	.LLST11:
 3786 0118 00000000 		.4byte	.LVL17
 3787 011c 17000000 		.4byte	.LVL19-1
 3788 0120 0100     		.2byte	0x1
 3789 0122 51       		.byte	0x51
 3790 0123 17000000 		.4byte	.LVL19-1
 3791 0127 20000000 		.4byte	.LFE263
 3792 012b 0400     		.2byte	0x4
 3793 012d F3       		.byte	0xf3
 3794 012e 01       		.uleb128 0x1
 3795 012f 51       		.byte	0x51
 3796 0130 9F       		.byte	0x9f
 3797 0131 00000000 		.4byte	0
 3798 0135 00000000 		.4byte	0
 3799              	.LLST12:
 3800 0139 00000000 		.4byte	.LVL17
 3801 013d 17000000 		.4byte	.LVL19-1
 3802 0141 0100     		.2byte	0x1
 3803 0143 52       		.byte	0x52
 3804 0144 17000000 		.4byte	.LVL19-1
 3805 0148 20000000 		.4byte	.LFE263
 3806 014c 0400     		.2byte	0x4
 3807 014e F3       		.byte	0xf3
 3808 014f 01       		.uleb128 0x1
 3809 0150 52       		.byte	0x52
 3810 0151 9F       		.byte	0x9f
 3811 0152 00000000 		.4byte	0
 3812 0156 00000000 		.4byte	0
 3813              	.LLST13:
 3814 015a 00000000 		.4byte	.LVL17
 3815 015e 08000000 		.4byte	.LVL18
 3816 0162 0300     		.2byte	0x3
 3817 0164 08       		.byte	0x8
 3818 0165 20       		.byte	0x20
 3819 0166 9F       		.byte	0x9f
ARM GAS  /tmp/ccU3kjVM.s 			page 68


 3820 0167 00000000 		.4byte	0
 3821 016b 00000000 		.4byte	0
 3822              	.LLST14:
 3823 016f 18000000 		.4byte	.LVL19
 3824 0173 1E000000 		.4byte	.LVL20
 3825 0177 0200     		.2byte	0x2
 3826 0179 30       		.byte	0x30
 3827 017a 9F       		.byte	0x9f
 3828 017b 00000000 		.4byte	0
 3829 017f 00000000 		.4byte	0
 3830              	.LLST15:
 3831 0183 00000000 		.4byte	.LVL21
 3832 0187 17000000 		.4byte	.LVL23-1
 3833 018b 0100     		.2byte	0x1
 3834 018d 50       		.byte	0x50
 3835 018e 17000000 		.4byte	.LVL23-1
 3836 0192 20000000 		.4byte	.LFE264
 3837 0196 0400     		.2byte	0x4
 3838 0198 F3       		.byte	0xf3
 3839 0199 01       		.uleb128 0x1
 3840 019a 50       		.byte	0x50
 3841 019b 9F       		.byte	0x9f
 3842 019c 00000000 		.4byte	0
 3843 01a0 00000000 		.4byte	0
 3844              	.LLST16:
 3845 01a4 00000000 		.4byte	.LVL21
 3846 01a8 17000000 		.4byte	.LVL23-1
 3847 01ac 0100     		.2byte	0x1
 3848 01ae 51       		.byte	0x51
 3849 01af 17000000 		.4byte	.LVL23-1
 3850 01b3 20000000 		.4byte	.LFE264
 3851 01b7 0400     		.2byte	0x4
 3852 01b9 F3       		.byte	0xf3
 3853 01ba 01       		.uleb128 0x1
 3854 01bb 51       		.byte	0x51
 3855 01bc 9F       		.byte	0x9f
 3856 01bd 00000000 		.4byte	0
 3857 01c1 00000000 		.4byte	0
 3858              	.LLST17:
 3859 01c5 00000000 		.4byte	.LVL21
 3860 01c9 08000000 		.4byte	.LVL22
 3861 01cd 0300     		.2byte	0x3
 3862 01cf 08       		.byte	0x8
 3863 01d0 20       		.byte	0x20
 3864 01d1 9F       		.byte	0x9f
 3865 01d2 00000000 		.4byte	0
 3866 01d6 00000000 		.4byte	0
 3867              	.LLST18:
 3868 01da 18000000 		.4byte	.LVL23
 3869 01de 1E000000 		.4byte	.LVL24
 3870 01e2 0200     		.2byte	0x2
 3871 01e4 30       		.byte	0x30
 3872 01e5 9F       		.byte	0x9f
 3873 01e6 00000000 		.4byte	0
 3874 01ea 00000000 		.4byte	0
 3875              	.LLST19:
 3876 01ee 00000000 		.4byte	.LVL25
ARM GAS  /tmp/ccU3kjVM.s 			page 69


 3877 01f2 0B000000 		.4byte	.LVL27-1
 3878 01f6 0100     		.2byte	0x1
 3879 01f8 50       		.byte	0x50
 3880 01f9 0B000000 		.4byte	.LVL27-1
 3881 01fd 14000000 		.4byte	.LFE265
 3882 0201 0400     		.2byte	0x4
 3883 0203 F3       		.byte	0xf3
 3884 0204 01       		.uleb128 0x1
 3885 0205 50       		.byte	0x50
 3886 0206 9F       		.byte	0x9f
 3887 0207 00000000 		.4byte	0
 3888 020b 00000000 		.4byte	0
 3889              	.LLST20:
 3890 020f 00000000 		.4byte	.LVL25
 3891 0213 08000000 		.4byte	.LVL26
 3892 0217 0300     		.2byte	0x3
 3893 0219 08       		.byte	0x8
 3894 021a 20       		.byte	0x20
 3895 021b 9F       		.byte	0x9f
 3896 021c 00000000 		.4byte	0
 3897 0220 00000000 		.4byte	0
 3898              	.LLST21:
 3899 0224 0C000000 		.4byte	.LVL27
 3900 0228 12000000 		.4byte	.LVL28
 3901 022c 0200     		.2byte	0x2
 3902 022e 30       		.byte	0x30
 3903 022f 9F       		.byte	0x9f
 3904 0230 00000000 		.4byte	0
 3905 0234 00000000 		.4byte	0
 3906              	.LLST22:
 3907 0238 00000000 		.4byte	.LVL29
 3908 023c 0B000000 		.4byte	.LVL31-1
 3909 0240 0100     		.2byte	0x1
 3910 0242 50       		.byte	0x50
 3911 0243 0B000000 		.4byte	.LVL31-1
 3912 0247 14000000 		.4byte	.LFE266
 3913 024b 0400     		.2byte	0x4
 3914 024d F3       		.byte	0xf3
 3915 024e 01       		.uleb128 0x1
 3916 024f 50       		.byte	0x50
 3917 0250 9F       		.byte	0x9f
 3918 0251 00000000 		.4byte	0
 3919 0255 00000000 		.4byte	0
 3920              	.LLST23:
 3921 0259 00000000 		.4byte	.LVL29
 3922 025d 08000000 		.4byte	.LVL30
 3923 0261 0300     		.2byte	0x3
 3924 0263 08       		.byte	0x8
 3925 0264 20       		.byte	0x20
 3926 0265 9F       		.byte	0x9f
 3927 0266 00000000 		.4byte	0
 3928 026a 00000000 		.4byte	0
 3929              	.LLST24:
 3930 026e 0C000000 		.4byte	.LVL31
 3931 0272 12000000 		.4byte	.LVL32
 3932 0276 0200     		.2byte	0x2
 3933 0278 30       		.byte	0x30
ARM GAS  /tmp/ccU3kjVM.s 			page 70


 3934 0279 9F       		.byte	0x9f
 3935 027a 00000000 		.4byte	0
 3936 027e 00000000 		.4byte	0
 3937              	.LLST25:
 3938 0282 00000000 		.4byte	.LVL33
 3939 0286 0B000000 		.4byte	.LVL35-1
 3940 028a 0100     		.2byte	0x1
 3941 028c 50       		.byte	0x50
 3942 028d 0B000000 		.4byte	.LVL35-1
 3943 0291 14000000 		.4byte	.LFE267
 3944 0295 0400     		.2byte	0x4
 3945 0297 F3       		.byte	0xf3
 3946 0298 01       		.uleb128 0x1
 3947 0299 50       		.byte	0x50
 3948 029a 9F       		.byte	0x9f
 3949 029b 00000000 		.4byte	0
 3950 029f 00000000 		.4byte	0
 3951              	.LLST26:
 3952 02a3 00000000 		.4byte	.LVL33
 3953 02a7 0B000000 		.4byte	.LVL35-1
 3954 02ab 0100     		.2byte	0x1
 3955 02ad 51       		.byte	0x51
 3956 02ae 0B000000 		.4byte	.LVL35-1
 3957 02b2 14000000 		.4byte	.LFE267
 3958 02b6 0400     		.2byte	0x4
 3959 02b8 F3       		.byte	0xf3
 3960 02b9 01       		.uleb128 0x1
 3961 02ba 51       		.byte	0x51
 3962 02bb 9F       		.byte	0x9f
 3963 02bc 00000000 		.4byte	0
 3964 02c0 00000000 		.4byte	0
 3965              	.LLST27:
 3966 02c4 00000000 		.4byte	.LVL33
 3967 02c8 08000000 		.4byte	.LVL34
 3968 02cc 0300     		.2byte	0x3
 3969 02ce 08       		.byte	0x8
 3970 02cf 20       		.byte	0x20
 3971 02d0 9F       		.byte	0x9f
 3972 02d1 00000000 		.4byte	0
 3973 02d5 00000000 		.4byte	0
 3974              	.LLST28:
 3975 02d9 0C000000 		.4byte	.LVL35
 3976 02dd 12000000 		.4byte	.LVL36
 3977 02e1 0200     		.2byte	0x2
 3978 02e3 30       		.byte	0x30
 3979 02e4 9F       		.byte	0x9f
 3980 02e5 00000000 		.4byte	0
 3981 02e9 00000000 		.4byte	0
 3982              	.LLST29:
 3983 02ed 00000000 		.4byte	.LVL37
 3984 02f1 0B000000 		.4byte	.LVL39-1
 3985 02f5 0100     		.2byte	0x1
 3986 02f7 50       		.byte	0x50
 3987 02f8 0B000000 		.4byte	.LVL39-1
 3988 02fc 14000000 		.4byte	.LFE268
 3989 0300 0400     		.2byte	0x4
 3990 0302 F3       		.byte	0xf3
ARM GAS  /tmp/ccU3kjVM.s 			page 71


 3991 0303 01       		.uleb128 0x1
 3992 0304 50       		.byte	0x50
 3993 0305 9F       		.byte	0x9f
 3994 0306 00000000 		.4byte	0
 3995 030a 00000000 		.4byte	0
 3996              	.LLST30:
 3997 030e 00000000 		.4byte	.LVL37
 3998 0312 0B000000 		.4byte	.LVL39-1
 3999 0316 0100     		.2byte	0x1
 4000 0318 51       		.byte	0x51
 4001 0319 0B000000 		.4byte	.LVL39-1
 4002 031d 14000000 		.4byte	.LFE268
 4003 0321 0400     		.2byte	0x4
 4004 0323 F3       		.byte	0xf3
 4005 0324 01       		.uleb128 0x1
 4006 0325 51       		.byte	0x51
 4007 0326 9F       		.byte	0x9f
 4008 0327 00000000 		.4byte	0
 4009 032b 00000000 		.4byte	0
 4010              	.LLST31:
 4011 032f 00000000 		.4byte	.LVL37
 4012 0333 08000000 		.4byte	.LVL38
 4013 0337 0300     		.2byte	0x3
 4014 0339 08       		.byte	0x8
 4015 033a 20       		.byte	0x20
 4016 033b 9F       		.byte	0x9f
 4017 033c 00000000 		.4byte	0
 4018 0340 00000000 		.4byte	0
 4019              	.LLST32:
 4020 0344 0C000000 		.4byte	.LVL39
 4021 0348 12000000 		.4byte	.LVL40
 4022 034c 0200     		.2byte	0x2
 4023 034e 30       		.byte	0x30
 4024 034f 9F       		.byte	0x9f
 4025 0350 00000000 		.4byte	0
 4026 0354 00000000 		.4byte	0
 4027              		.section	.debug_aranges,"",%progbits
 4028 0000 6C000000 		.4byte	0x6c
 4029 0004 0200     		.2byte	0x2
 4030 0006 00000000 		.4byte	.Ldebug_info0
 4031 000a 04       		.byte	0x4
 4032 000b 00       		.byte	0
 4033 000c 0000     		.2byte	0
 4034 000e 0000     		.2byte	0
 4035 0010 00000000 		.4byte	.LFB258
 4036 0014 04000000 		.4byte	.LFE258-.LFB258
 4037 0018 00000000 		.4byte	.LFB259
 4038 001c 0E000000 		.4byte	.LFE259-.LFB259
 4039 0020 00000000 		.4byte	.LFB260
 4040 0024 22000000 		.4byte	.LFE260-.LFB260
 4041 0028 00000000 		.4byte	.LFB261
 4042 002c 1C000000 		.4byte	.LFE261-.LFB261
 4043 0030 00000000 		.4byte	.LFB262
 4044 0034 16000000 		.4byte	.LFE262-.LFB262
 4045 0038 00000000 		.4byte	.LFB263
 4046 003c 20000000 		.4byte	.LFE263-.LFB263
 4047 0040 00000000 		.4byte	.LFB264
ARM GAS  /tmp/ccU3kjVM.s 			page 72


 4048 0044 20000000 		.4byte	.LFE264-.LFB264
 4049 0048 00000000 		.4byte	.LFB265
 4050 004c 14000000 		.4byte	.LFE265-.LFB265
 4051 0050 00000000 		.4byte	.LFB266
 4052 0054 14000000 		.4byte	.LFE266-.LFB266
 4053 0058 00000000 		.4byte	.LFB267
 4054 005c 14000000 		.4byte	.LFE267-.LFB267
 4055 0060 00000000 		.4byte	.LFB268
 4056 0064 14000000 		.4byte	.LFE268-.LFB268
 4057 0068 00000000 		.4byte	0
 4058 006c 00000000 		.4byte	0
 4059              		.section	.debug_ranges,"",%progbits
 4060              	.Ldebug_ranges0:
 4061 0000 02000000 		.4byte	.LBB141
 4062 0004 04000000 		.4byte	.LBE141
 4063 0008 06000000 		.4byte	.LBB150
 4064 000c 0A000000 		.4byte	.LBE150
 4065 0010 00000000 		.4byte	0
 4066 0014 00000000 		.4byte	0
 4067 0018 02000000 		.4byte	.LBB157
 4068 001c 04000000 		.4byte	.LBE157
 4069 0020 06000000 		.4byte	.LBB166
 4070 0024 0A000000 		.4byte	.LBE166
 4071 0028 00000000 		.4byte	0
 4072 002c 00000000 		.4byte	0
 4073 0030 00000000 		.4byte	.LFB258
 4074 0034 04000000 		.4byte	.LFE258
 4075 0038 00000000 		.4byte	.LFB259
 4076 003c 0E000000 		.4byte	.LFE259
 4077 0040 00000000 		.4byte	.LFB260
 4078 0044 22000000 		.4byte	.LFE260
 4079 0048 00000000 		.4byte	.LFB261
 4080 004c 1C000000 		.4byte	.LFE261
 4081 0050 00000000 		.4byte	.LFB262
 4082 0054 16000000 		.4byte	.LFE262
 4083 0058 00000000 		.4byte	.LFB263
 4084 005c 20000000 		.4byte	.LFE263
 4085 0060 00000000 		.4byte	.LFB264
 4086 0064 20000000 		.4byte	.LFE264
 4087 0068 00000000 		.4byte	.LFB265
 4088 006c 14000000 		.4byte	.LFE265
 4089 0070 00000000 		.4byte	.LFB266
 4090 0074 14000000 		.4byte	.LFE266
 4091 0078 00000000 		.4byte	.LFB267
 4092 007c 14000000 		.4byte	.LFE267
 4093 0080 00000000 		.4byte	.LFB268
 4094 0084 14000000 		.4byte	.LFE268
 4095 0088 00000000 		.4byte	0
 4096 008c 00000000 		.4byte	0
 4097              		.section	.debug_line,"",%progbits
 4098              	.Ldebug_line0:
 4099 0000 39040000 		.section	.debug_str,"MS",%progbits,1
 4099      0200BA02 
 4099      00000201 
 4099      FB0E0D00 
 4099      01010101 
 4100              	.LASF126:
ARM GAS  /tmp/ccU3kjVM.s 			page 73


 4101 0000 70776D63 		.ascii	"pwmchannel_t\000"
 4101      68616E6E 
 4101      656C5F74 
 4101      00
 4102              	.LASF51:
 4103 000d 72656164 		.ascii	"ready_list_t\000"
 4103      795F6C69 
 4103      73745F74 
 4103      00
 4104              	.LASF85:
 4105 001a 44494552 		.ascii	"DIER\000"
 4105      00
 4106              	.LASF99:
 4107 001f 77747472 		.ascii	"wttrp\000"
 4107      7000
 4108              	.LASF96:
 4109 0025 7264796D 		.ascii	"rdymsg\000"
 4109      736700
 4110              	.LASF17:
 4111 002c 75696E74 		.ascii	"uint64_t\000"
 4111      36345F74 
 4111      00
 4112              	.LASF7:
 4113 0035 5F5F7569 		.ascii	"__uint8_t\000"
 4113      6E74385F 
 4113      7400
 4114              	.LASF83:
 4115 003f 706F7274 		.ascii	"port_intctx\000"
 4115      5F696E74 
 4115      63747800 
 4116              	.LASF50:
 4117 004b 63685F74 		.ascii	"ch_threads_queue\000"
 4117      68726561 
 4117      64735F71 
 4117      75657565 
 4117      00
 4118              	.LASF70:
 4119 005c 73797374 		.ascii	"system_debug_t\000"
 4119      656D5F64 
 4119      65627567 
 4119      5F7400
 4120              	.LASF135:
 4121 006b 706F7274 		.ascii	"port_lock\000"
 4121      5F6C6F63 
 4121      6B00
 4122              	.LASF155:
 4123 0075 70776D45 		.ascii	"pwmEnableChannelNotification\000"
 4123      6E61626C 
 4123      65436861 
 4123      6E6E656C 
 4123      4E6F7469 
 4124              	.LASF13:
 4125 0092 6C6F6E67 		.ascii	"long long unsigned int\000"
 4125      206C6F6E 
 4125      6720756E 
 4125      7369676E 
 4125      65642069 
ARM GAS  /tmp/ccU3kjVM.s 			page 74


 4126              	.LASF97:
 4127 00a9 65786974 		.ascii	"exitcode\000"
 4127      636F6465 
 4127      00
 4128              	.LASF77:
 4129 00b2 6D61696E 		.ascii	"mainthread\000"
 4129      74687265 
 4129      616400
 4130              	.LASF67:
 4131 00bd 76697274 		.ascii	"virtual_timers_list_t\000"
 4131      75616C5F 
 4131      74696D65 
 4131      72735F6C 
 4131      6973745F 
 4132              	.LASF162:
 4133 00d3 70776D5F 		.ascii	"pwm_lld_disable_channel\000"
 4133      6C6C645F 
 4133      64697361 
 4133      626C655F 
 4133      6368616E 
 4134              	.LASF89:
 4135 00eb 42445452 		.ascii	"BDTR\000"
 4135      00
 4136              	.LASF132:
 4137 00f0 66726571 		.ascii	"frequency\000"
 4137      75656E63 
 4137      7900
 4138              	.LASF30:
 4139 00fa 705F7072 		.ascii	"p_prio\000"
 4139      696F00
 4140              	.LASF115:
 4141 0101 50574D5F 		.ascii	"PWM_READY\000"
 4141      52454144 
 4141      5900
 4142              	.LASF144:
 4143 010b 70776D53 		.ascii	"pwmStart\000"
 4143      74617274 
 4143      00
 4144              	.LASF86:
 4145 0114 43434D52 		.ascii	"CCMR1\000"
 4145      3100
 4146              	.LASF87:
 4147 011a 43434D52 		.ascii	"CCMR2\000"
 4147      3200
 4148              	.LASF91:
 4149 0120 43434D52 		.ascii	"CCMR3\000"
 4149      3300
 4150              	.LASF3:
 4151 0126 7369676E 		.ascii	"signed char\000"
 4151      65642063 
 4151      68617200 
 4152              	.LASF148:
 4153 0132 70776D43 		.ascii	"pwmChangePeriod\000"
 4153      68616E67 
 4153      65506572 
 4153      696F6400 
 4154              	.LASF125:
ARM GAS  /tmp/ccU3kjVM.s 			page 75


 4155 0142 70776D6D 		.ascii	"pwmmode_t\000"
 4155      6F64655F 
 4155      7400
 4156              	.LASF76:
 4157 014c 76746C69 		.ascii	"vtlist\000"
 4157      737400
 4158              	.LASF136:
 4159 0153 706F7274 		.ascii	"port_unlock\000"
 4159      5F756E6C 
 4159      6F636B00 
 4160              	.LASF118:
 4161 015f 73746174 		.ascii	"state\000"
 4161      6500
 4162              	.LASF122:
 4163 0165 6368616E 		.ascii	"channels\000"
 4163      6E656C73 
 4163      00
 4164              	.LASF9:
 4165 016e 6C6F6E67 		.ascii	"long int\000"
 4165      20696E74 
 4165      00
 4166              	.LASF159:
 4167 0177 70776D5F 		.ascii	"pwm_lld_start\000"
 4167      6C6C645F 
 4167      73746172 
 4167      7400
 4168              	.LASF165:
 4169 0185 70776D5F 		.ascii	"pwm_lld_enable_channel_notification\000"
 4169      6C6C645F 
 4169      656E6162 
 4169      6C655F63 
 4169      68616E6E 
 4170              	.LASF20:
 4171 01a9 74737461 		.ascii	"tstate_t\000"
 4171      74655F74 
 4171      00
 4172              	.LASF142:
 4173 01b2 70776D49 		.ascii	"pwmInit\000"
 4173      6E697400 
 4174              	.LASF88:
 4175 01ba 43434552 		.ascii	"CCER\000"
 4175      00
 4176              	.LASF1:
 4177 01bf 6C6F6E67 		.ascii	"long long int\000"
 4177      206C6F6E 
 4177      6720696E 
 4177      7400
 4178              	.LASF124:
 4179 01cd 70776D63 		.ascii	"pwmcallback_t\000"
 4179      616C6C62 
 4179      61636B5F 
 4179      7400
 4180              	.LASF32:
 4181 01db 705F6E65 		.ascii	"p_newer\000"
 4181      77657200 
 4182              	.LASF104:
 4183 01e3 735F7175 		.ascii	"s_queue\000"
ARM GAS  /tmp/ccU3kjVM.s 			page 76


 4183      65756500 
 4184              	.LASF6:
 4185 01eb 73686F72 		.ascii	"short unsigned int\000"
 4185      7420756E 
 4185      7369676E 
 4185      65642069 
 4185      6E7400
 4186              	.LASF56:
 4187 01fe 725F6E65 		.ascii	"r_newer\000"
 4187      77657200 
 4188              	.LASF44:
 4189 0206 705F6D70 		.ascii	"p_mpool\000"
 4189      6F6F6C00 
 4190              	.LASF80:
 4191 020e 72656761 		.ascii	"regarm_t\000"
 4191      726D5F74 
 4191      00
 4192              	.LASF63:
 4193 0217 76745F70 		.ascii	"vt_prev\000"
 4193      72657600 
 4194              	.LASF141:
 4195 021f 6F73616C 		.ascii	"osalSysLock\000"
 4195      5379734C 
 4195      6F636B00 
 4196              	.LASF111:
 4197 022b 6D757465 		.ascii	"mutex_t\000"
 4197      785F7400 
 4198              	.LASF169:
 4199 0233 76616C75 		.ascii	"value\000"
 4199      6500
 4200              	.LASF78:
 4201 0239 69646C65 		.ascii	"idle_thread_wa\000"
 4201      5F746872 
 4201      6561645F 
 4201      776100
 4202              	.LASF25:
 4203 0248 636E745F 		.ascii	"cnt_t\000"
 4203      7400
 4204              	.LASF0:
 4205 024e 756E7369 		.ascii	"unsigned int\000"
 4205      676E6564 
 4205      20696E74 
 4205      00
 4206              	.LASF62:
 4207 025b 76745F6E 		.ascii	"vt_next\000"
 4207      65787400 
 4208              	.LASF100:
 4209 0263 77747365 		.ascii	"wtsemp\000"
 4209      6D7000
 4210              	.LASF39:
 4211 026a 705F6D73 		.ascii	"p_msgqueue\000"
 4211      67717565 
 4211      756500
 4212              	.LASF163:
 4213 0275 70776D5F 		.ascii	"pwm_lld_enable_periodic_notification\000"
 4213      6C6C645F 
 4213      656E6162 
ARM GAS  /tmp/ccU3kjVM.s 			page 77


 4213      6C655F70 
 4213      6572696F 
 4214              	.LASF47:
 4215 029a 63685F74 		.ascii	"ch_thread\000"
 4215      68726561 
 4215      6400
 4216              	.LASF151:
 4217 02a4 77696474 		.ascii	"width\000"
 4217      6800
 4218              	.LASF84:
 4219 02aa 534D4352 		.ascii	"SMCR\000"
 4219      00
 4220              	.LASF23:
 4221 02af 6D73675F 		.ascii	"msg_t\000"
 4221      7400
 4222              	.LASF48:
 4223 02b5 63685F74 		.ascii	"ch_threads_list\000"
 4223      68726561 
 4223      64735F6C 
 4223      69737400 
 4224              	.LASF152:
 4225 02c5 70776D44 		.ascii	"pwmDisableChannel\000"
 4225      69736162 
 4225      6C654368 
 4225      616E6E65 
 4225      6C00
 4226              	.LASF73:
 4227 02d7 63685F73 		.ascii	"ch_system_t\000"
 4227      79737465 
 4227      6D5F7400 
 4228              	.LASF130:
 4229 02e3 63616C6C 		.ascii	"callback\000"
 4229      6261636B 
 4229      00
 4230              	.LASF93:
 4231 02ec 73746D33 		.ascii	"stm32_tim_t\000"
 4231      325F7469 
 4231      6D5F7400 
 4232              	.LASF52:
 4233 02f8 63685F72 		.ascii	"ch_ready_list\000"
 4233      65616479 
 4233      5F6C6973 
 4233      7400
 4234              	.LASF24:
 4235 0306 6576656E 		.ascii	"eventmask_t\000"
 4235      746D6173 
 4235      6B5F7400 
 4236              	.LASF166:
 4237 0312 70776D5F 		.ascii	"pwm_lld_disable_channel_notification\000"
 4237      6C6C645F 
 4237      64697361 
 4237      626C655F 
 4237      6368616E 
 4238              	.LASF8:
 4239 0337 5F5F696E 		.ascii	"__int32_t\000"
 4239      7433325F 
 4239      7400
ARM GAS  /tmp/ccU3kjVM.s 			page 78


 4240              	.LASF145:
 4241 0341 70776D70 		.ascii	"pwmp\000"
 4241      00
 4242              	.LASF81:
 4243 0346 73746B61 		.ascii	"stkalign_t\000"
 4243      6C69676E 
 4243      5F7400
 4244              	.LASF38:
 4245 0351 705F7761 		.ascii	"p_waiting\000"
 4245      6974696E 
 4245      6700
 4246              	.LASF146:
 4247 035b 70776D53 		.ascii	"pwmStop\000"
 4247      746F7000 
 4248              	.LASF168:
 4249 0363 2F686F6D 		.ascii	"/home/selim/working/ChibiOS/os/hal/src/pwm.c\000"
 4249      652F7365 
 4249      6C696D2F 
 4249      776F726B 
 4249      696E672F 
 4250              	.LASF79:
 4251 0390 73697A65 		.ascii	"sizetype\000"
 4251      74797065 
 4251      00
 4252              	.LASF45:
 4253 0399 74687265 		.ascii	"thread_reference_t\000"
 4253      61645F72 
 4253      65666572 
 4253      656E6365 
 4253      5F7400
 4254              	.LASF68:
 4255 03ac 63685F76 		.ascii	"ch_virtual_timers_list\000"
 4255      69727475 
 4255      616C5F74 
 4255      696D6572 
 4255      735F6C69 
 4256              	.LASF2:
 4257 03c3 6C6F6E67 		.ascii	"long double\000"
 4257      20646F75 
 4257      626C6500 
 4258              	.LASF143:
 4259 03cf 70776D4F 		.ascii	"pwmObjectInit\000"
 4259      626A6563 
 4259      74496E69 
 4259      7400
 4260              	.LASF41:
 4261 03dd 705F6570 		.ascii	"p_epending\000"
 4261      656E6469 
 4261      6E6700
 4262              	.LASF69:
 4263 03e8 76745F6C 		.ascii	"vt_lasttime\000"
 4263      61737474 
 4263      696D6500 
 4264              	.LASF33:
 4265 03f4 705F6F6C 		.ascii	"p_older\000"
 4265      64657200 
 4266              	.LASF158:
ARM GAS  /tmp/ccU3kjVM.s 			page 79


 4267 03fc 70776D5F 		.ascii	"pwm_lld_init\000"
 4267      6C6C645F 
 4267      696E6974 
 4267      00
 4268              	.LASF55:
 4269 0409 725F6374 		.ascii	"r_ctx\000"
 4269      7800
 4270              	.LASF95:
 4271 040f 746D5F63 		.ascii	"tm_calibration_t\000"
 4271      616C6962 
 4271      72617469 
 4271      6F6E5F74 
 4271      00
 4272              	.LASF58:
 4273 0420 725F6375 		.ascii	"r_current\000"
 4273      7272656E 
 4273      7400
 4274              	.LASF57:
 4275 042a 725F6F6C 		.ascii	"r_older\000"
 4275      64657200 
 4276              	.LASF12:
 4277 0432 5F5F7569 		.ascii	"__uint64_t\000"
 4277      6E743634 
 4277      5F7400
 4278              	.LASF164:
 4279 043d 70776D5F 		.ascii	"pwm_lld_disable_periodic_notification\000"
 4279      6C6C645F 
 4279      64697361 
 4279      626C655F 
 4279      70657269 
 4280              	.LASF21:
 4281 0463 74726566 		.ascii	"trefs_t\000"
 4281      735F7400 
 4282              	.LASF60:
 4283 046b 76697274 		.ascii	"virtual_timer_t\000"
 4283      75616C5F 
 4283      74696D65 
 4283      725F7400 
 4284              	.LASF29:
 4285 047b 705F7072 		.ascii	"p_prev\000"
 4285      657600
 4286              	.LASF22:
 4287 0482 74707269 		.ascii	"tprio_t\000"
 4287      6F5F7400 
 4288              	.LASF71:
 4289 048a 63685F73 		.ascii	"ch_system_debug\000"
 4289      79737465 
 4289      6D5F6465 
 4289      62756700 
 4290              	.LASF112:
 4291 049a 5F426F6F 		.ascii	"_Bool\000"
 4291      6C00
 4292              	.LASF15:
 4293 04a0 696E7433 		.ascii	"int32_t\000"
 4293      325F7400 
 4294              	.LASF4:
 4295 04a8 756E7369 		.ascii	"unsigned char\000"
ARM GAS  /tmp/ccU3kjVM.s 			page 80


 4295      676E6564 
 4295      20636861 
 4295      7200
 4296              	.LASF107:
 4297 04b6 6D5F7175 		.ascii	"m_queue\000"
 4297      65756500 
 4298              	.LASF157:
 4299 04be 49544D5F 		.ascii	"ITM_RxBuffer\000"
 4299      52784275 
 4299      66666572 
 4299      00
 4300              	.LASF105:
 4301 04cb 735F636E 		.ascii	"s_cnt\000"
 4301      7400
 4302              	.LASF42:
 4303 04d1 705F6D74 		.ascii	"p_mtxlist\000"
 4303      786C6973 
 4303      7400
 4304              	.LASF5:
 4305 04db 73686F72 		.ascii	"short int\000"
 4305      7420696E 
 4305      7400
 4306              	.LASF35:
 4307 04e5 705F7374 		.ascii	"p_state\000"
 4307      61746500 
 4308              	.LASF54:
 4309 04ed 725F7072 		.ascii	"r_prio\000"
 4309      696F00
 4310              	.LASF167:
 4311 04f4 474E5520 		.ascii	"GNU C11 5.3.1 20160307 (release) [ARM/embedded-5-br"
 4311      43313120 
 4311      352E332E 
 4311      31203230 
 4311      31363033 
 4312 0527 616E6368 		.ascii	"anch revision 234589] -mcpu=cortex-m4 -mno-thumb-in"
 4312      20726576 
 4312      6973696F 
 4312      6E203233 
 4312      34353839 
 4313 055a 74657277 		.ascii	"terwork -mthumb -ggdb -O2 -fomit-frame-pointer -fal"
 4313      6F726B20 
 4313      2D6D7468 
 4313      756D6220 
 4313      2D676764 
 4314 058d 69676E2D 		.ascii	"ign-functions=16 -ffunction-sections -fdata-section"
 4314      66756E63 
 4314      74696F6E 
 4314      733D3136 
 4314      202D6666 
 4315 05c0 73202D66 		.ascii	"s -fno-common\000"
 4315      6E6F2D63 
 4315      6F6D6D6F 
 4315      6E00
 4316              	.LASF102:
 4317 05ce 65776D61 		.ascii	"ewmask\000"
 4317      736B00
 4318              	.LASF28:
ARM GAS  /tmp/ccU3kjVM.s 			page 81


 4319 05d5 705F6E65 		.ascii	"p_next\000"
 4319      787400
 4320              	.LASF127:
 4321 05dc 70776D63 		.ascii	"pwmchnmsk_t\000"
 4321      686E6D73 
 4321      6B5F7400 
 4322              	.LASF36:
 4323 05e8 705F666C 		.ascii	"p_flags\000"
 4323      61677300 
 4324              	.LASF147:
 4325 05f0 5F5F6675 		.ascii	"__func__\000"
 4325      6E635F5F 
 4325      00
 4326              	.LASF137:
 4327 05f9 63685379 		.ascii	"chSysLock\000"
 4327      734C6F63 
 4327      6B00
 4328              	.LASF74:
 4329 0603 63685F73 		.ascii	"ch_system\000"
 4329      79737465 
 4329      6D00
 4330              	.LASF140:
 4331 060d 6F73616C 		.ascii	"osalSysUnlock\000"
 4331      53797355 
 4331      6E6C6F63 
 4331      6B00
 4332              	.LASF150:
 4333 061b 6368616E 		.ascii	"channel\000"
 4333      6E656C00 
 4334              	.LASF61:
 4335 0623 63685F76 		.ascii	"ch_virtual_timer\000"
 4335      69727475 
 4335      616C5F74 
 4335      696D6572 
 4335      00
 4336              	.LASF103:
 4337 0634 63685F73 		.ascii	"ch_semaphore\000"
 4337      656D6170 
 4337      686F7265 
 4337      00
 4338              	.LASF92:
 4339 0641 43435852 		.ascii	"CCXR\000"
 4339      00
 4340              	.LASF160:
 4341 0646 70776D5F 		.ascii	"pwm_lld_stop\000"
 4341      6C6C645F 
 4341      73746F70 
 4341      00
 4342              	.LASF16:
 4343 0653 75696E74 		.ascii	"uint32_t\000"
 4343      33325F74 
 4343      00
 4344              	.LASF101:
 4345 065c 77746D74 		.ascii	"wtmtxp\000"
 4345      787000
 4346              	.LASF53:
 4347 0663 725F7175 		.ascii	"r_queue\000"
ARM GAS  /tmp/ccU3kjVM.s 			page 82


 4347      65756500 
 4348              	.LASF64:
 4349 066b 76745F64 		.ascii	"vt_delta\000"
 4349      656C7461 
 4349      00
 4350              	.LASF121:
 4351 0674 656E6162 		.ascii	"enabled\000"
 4351      6C656400 
 4352              	.LASF11:
 4353 067c 6C6F6E67 		.ascii	"long unsigned int\000"
 4353      20756E73 
 4353      69676E65 
 4353      6420696E 
 4353      7400
 4354              	.LASF161:
 4355 068e 70776D5F 		.ascii	"pwm_lld_enable_channel\000"
 4355      6C6C645F 
 4355      656E6162 
 4355      6C655F63 
 4355      68616E6E 
 4356              	.LASF114:
 4357 06a5 50574D5F 		.ascii	"PWM_STOP\000"
 4357      53544F50 
 4357      00
 4358              	.LASF110:
 4359 06ae 63686172 		.ascii	"char\000"
 4359      00
 4360              	.LASF129:
 4361 06b3 6D6F6465 		.ascii	"mode\000"
 4361      00
 4362              	.LASF119:
 4363 06b8 636F6E66 		.ascii	"config\000"
 4363      696700
 4364              	.LASF90:
 4365 06bf 444D4152 		.ascii	"DMAR\000"
 4365      00
 4366              	.LASF27:
 4367 06c4 74687265 		.ascii	"thread_t\000"
 4367      61645F74 
 4367      00
 4368              	.LASF109:
 4369 06cd 6D5F6E65 		.ascii	"m_next\000"
 4369      787400
 4370              	.LASF26:
 4371 06d4 73797374 		.ascii	"systime_t\000"
 4371      696D655F 
 4371      7400
 4372              	.LASF43:
 4373 06de 705F7265 		.ascii	"p_realprio\000"
 4373      616C7072 
 4373      696F00
 4374              	.LASF59:
 4375 06e9 76746675 		.ascii	"vtfunc_t\000"
 4375      6E635F74 
 4375      00
 4376              	.LASF10:
 4377 06f2 5F5F7569 		.ascii	"__uint32_t\000"
ARM GAS  /tmp/ccU3kjVM.s 			page 83


 4377      6E743332 
 4377      5F7400
 4378              	.LASF138:
 4379 06fd 5F5F7365 		.ascii	"__set_BASEPRI\000"
 4379      745F4241 
 4379      53455052 
 4379      4900
 4380              	.LASF153:
 4381 070b 70776D45 		.ascii	"pwmEnablePeriodicNotification\000"
 4381      6E61626C 
 4381      65506572 
 4381      696F6469 
 4381      634E6F74 
 4382              	.LASF120:
 4383 0729 70657269 		.ascii	"period\000"
 4383      6F6400
 4384              	.LASF72:
 4385 0730 70616E69 		.ascii	"panic_msg\000"
 4385      635F6D73 
 4385      6700
 4386              	.LASF94:
 4387 073a 6F666673 		.ascii	"offset\000"
 4387      657400
 4388              	.LASF82:
 4389 0741 636F6E74 		.ascii	"context\000"
 4389      65787400 
 4390              	.LASF131:
 4391 0749 50574D43 		.ascii	"PWMChannelConfig\000"
 4391      68616E6E 
 4391      656C436F 
 4391      6E666967 
 4391      00
 4392              	.LASF18:
 4393 075a 7274636E 		.ascii	"rtcnt_t\000"
 4393      745F7400 
 4394              	.LASF66:
 4395 0762 76745F70 		.ascii	"vt_par\000"
 4395      617200
 4396              	.LASF134:
 4397 0769 50574D43 		.ascii	"PWMConfig\000"
 4397      6F6E6669 
 4397      6700
 4398              	.LASF49:
 4399 0773 74687265 		.ascii	"threads_queue_t\000"
 4399      6164735F 
 4399      71756575 
 4399      655F7400 
 4400              	.LASF106:
 4401 0783 63685F6D 		.ascii	"ch_mutex\000"
 4401      75746578 
 4401      00
 4402              	.LASF37:
 4403 078c 705F7265 		.ascii	"p_refs\000"
 4403      667300
 4404              	.LASF75:
 4405 0793 726C6973 		.ascii	"rlist\000"
 4405      7400
ARM GAS  /tmp/ccU3kjVM.s 			page 84


 4406              	.LASF14:
 4407 0799 75696E74 		.ascii	"uint8_t\000"
 4407      385F7400 
 4408              	.LASF156:
 4409 07a1 70776D44 		.ascii	"pwmDisableChannelNotification\000"
 4409      69736162 
 4409      6C654368 
 4409      616E6E65 
 4409      6C4E6F74 
 4410              	.LASF117:
 4411 07bf 50574D44 		.ascii	"PWMDriver\000"
 4411      72697665 
 4411      7200
 4412              	.LASF116:
 4413 07c9 70776D73 		.ascii	"pwmstate_t\000"
 4413      74617465 
 4413      5F7400
 4414              	.LASF128:
 4415 07d4 70776D63 		.ascii	"pwmcnt_t\000"
 4415      6E745F74 
 4415      00
 4416              	.LASF154:
 4417 07dd 70776D44 		.ascii	"pwmDisablePeriodicNotification\000"
 4417      69736162 
 4417      6C655065 
 4417      72696F64 
 4417      69634E6F 
 4418              	.LASF98:
 4419 07fc 77746F62 		.ascii	"wtobjp\000"
 4419      6A7000
 4420              	.LASF34:
 4421 0803 705F6E61 		.ascii	"p_name\000"
 4421      6D6500
 4422              	.LASF46:
 4423 080a 74687265 		.ascii	"threads_list_t\000"
 4423      6164735F 
 4423      6C697374 
 4423      5F7400
 4424              	.LASF19:
 4425 0819 746D6F64 		.ascii	"tmode_t\000"
 4425      655F7400 
 4426              	.LASF139:
 4427 0821 63685379 		.ascii	"chSysUnlock\000"
 4427      73556E6C 
 4427      6F636B00 
 4428              	.LASF40:
 4429 082d 705F6D73 		.ascii	"p_msg\000"
 4429      6700
 4430              	.LASF123:
 4431 0833 636C6F63 		.ascii	"clock\000"
 4431      6B00
 4432              	.LASF113:
 4433 0839 50574D5F 		.ascii	"PWM_UNINIT\000"
 4433      554E494E 
 4433      495400
 4434              	.LASF108:
 4435 0844 6D5F6F77 		.ascii	"m_owner\000"
ARM GAS  /tmp/ccU3kjVM.s 			page 85


 4435      6E657200 
 4436              	.LASF149:
 4437 084c 70776D45 		.ascii	"pwmEnableChannel\000"
 4437      6E61626C 
 4437      65436861 
 4437      6E6E656C 
 4437      00
 4438              	.LASF31:
 4439 085d 705F6374 		.ascii	"p_ctx\000"
 4439      7800
 4440              	.LASF65:
 4441 0863 76745F66 		.ascii	"vt_func\000"
 4441      756E6300 
 4442              	.LASF133:
 4443 086b 64696572 		.ascii	"dier\000"
 4443      00
 4444              		.ident	"GCC: (GNU Tools for ARM Embedded Processors) 5.3.1 20160307 (release) [ARM/embedded-5-bran
ARM GAS  /tmp/ccU3kjVM.s 			page 86


DEFINED SYMBOLS
                            *ABS*:0000000000000000 pwm.c
     /tmp/ccU3kjVM.s:20     .text.pwmInit:0000000000000000 $t
     /tmp/ccU3kjVM.s:26     .text.pwmInit:0000000000000000 pwmInit
     /tmp/ccU3kjVM.s:41     .text.pwmObjectInit:0000000000000000 $t
     /tmp/ccU3kjVM.s:47     .text.pwmObjectInit:0000000000000000 pwmObjectInit
     /tmp/ccU3kjVM.s:71     .text.pwmStart:0000000000000000 $t
     /tmp/ccU3kjVM.s:77     .text.pwmStart:0000000000000000 pwmStart
     /tmp/ccU3kjVM.s:163    .text.pwmStop:0000000000000000 $t
     /tmp/ccU3kjVM.s:169    .text.pwmStop:0000000000000000 pwmStop
     /tmp/ccU3kjVM.s:249    .text.pwmChangePeriod:0000000000000000 $t
     /tmp/ccU3kjVM.s:255    .text.pwmChangePeriod:0000000000000000 pwmChangePeriod
     /tmp/ccU3kjVM.s:315    .text.pwmEnableChannel:0000000000000000 $t
     /tmp/ccU3kjVM.s:321    .text.pwmEnableChannel:0000000000000000 pwmEnableChannel
     /tmp/ccU3kjVM.s:387    .text.pwmDisableChannel:0000000000000000 $t
     /tmp/ccU3kjVM.s:393    .text.pwmDisableChannel:0000000000000000 pwmDisableChannel
     /tmp/ccU3kjVM.s:459    .text.pwmEnablePeriodicNotification:0000000000000000 $t
     /tmp/ccU3kjVM.s:465    .text.pwmEnablePeriodicNotification:0000000000000000 pwmEnablePeriodicNotification
     /tmp/ccU3kjVM.s:524    .text.pwmDisablePeriodicNotification:0000000000000000 $t
     /tmp/ccU3kjVM.s:530    .text.pwmDisablePeriodicNotification:0000000000000000 pwmDisablePeriodicNotification
     /tmp/ccU3kjVM.s:589    .text.pwmEnableChannelNotification:0000000000000000 $t
     /tmp/ccU3kjVM.s:595    .text.pwmEnableChannelNotification:0000000000000000 pwmEnableChannelNotification
     /tmp/ccU3kjVM.s:654    .text.pwmDisableChannelNotification:0000000000000000 $t
     /tmp/ccU3kjVM.s:660    .text.pwmDisableChannelNotification:0000000000000000 pwmDisableChannelNotification
                     .debug_frame:0000000000000010 $d

UNDEFINED SYMBOLS
pwm_lld_init
pwm_lld_start
pwm_lld_stop
pwm_lld_enable_channel
pwm_lld_disable_channel
pwm_lld_enable_periodic_notification
pwm_lld_disable_periodic_notification
pwm_lld_enable_channel_notification
pwm_lld_disable_channel_notification
