ARM GAS  /tmp/cctOVqwV.s 			page 1


   1              		.syntax unified
   2              		.cpu cortex-m4
   3              		.fpu softvfp
   4              		.eabi_attribute 20, 1
   5              		.eabi_attribute 21, 1
   6              		.eabi_attribute 23, 3
   7              		.eabi_attribute 24, 1
   8              		.eabi_attribute 25, 1
   9              		.eabi_attribute 26, 1
  10              		.eabi_attribute 30, 2
  11              		.eabi_attribute 34, 1
  12              		.eabi_attribute 18, 4
  13              		.thumb
  14              		.syntax unified
  15              		.file	"pwm_lld.c"
  16              		.text
  17              	.Ltext0:
  18              		.cfi_sections	.debug_frame
  19              		.section	.text.pwm_lld_serve_interrupt,"ax",%progbits
  20              		.align	2
  21              		.p2align 4,,15
  22              		.thumb
  23              		.thumb_func
  24              		.type	pwm_lld_serve_interrupt, %function
  25              	pwm_lld_serve_interrupt:
  26              	.LFB258:
  27              		.file 1 "/home/selim/working/ChibiOS/os/hal/ports/STM32/LLD/TIMv1/pwm_lld.c"
  28              		.loc 1 111 0
  29              		.cfi_startproc
  30              		@ args = 0, pretend = 0, frame = 0
  31              		@ frame_needed = 0, uses_anonymous_args = 0
  32              	.LVL0:
  33              		.loc 1 114 0
  34 0000 8369     		ldr	r3, [r0, #24]
  35              		.loc 1 111 0
  36 0002 70B5     		push	{r4, r5, r6, lr}
  37              		.cfi_def_cfa_offset 16
  38              		.cfi_offset 4, -16
  39              		.cfi_offset 5, -12
  40              		.cfi_offset 6, -8
  41              		.cfi_offset 14, -4
  42              		.loc 1 114 0
  43 0004 1C69     		ldr	r4, [r3, #16]
  44              	.LVL1:
  45              		.loc 1 115 0
  46 0006 DA68     		ldr	r2, [r3, #12]
  47 0008 1440     		ands	r4, r4, r2
  48              	.LVL2:
  49              		.loc 1 116 0
  50 000a E2B2     		uxtb	r2, r4
  51 000c D243     		mvns	r2, r2
  52              		.loc 1 117 0
  53 000e A607     		lsls	r6, r4, #30
  54              		.loc 1 111 0
  55 0010 0546     		mov	r5, r0
  56              		.loc 1 116 0
  57 0012 1A61     		str	r2, [r3, #16]
ARM GAS  /tmp/cctOVqwV.s 			page 2


  58              		.loc 1 117 0
  59 0014 03D5     		bpl	.L2
  60              		.loc 1 118 0 discriminator 1
  61 0016 4368     		ldr	r3, [r0, #4]
  62 0018 1B69     		ldr	r3, [r3, #16]
  63              		.loc 1 117 0 discriminator 1
  64 001a 03B1     		cbz	r3, .L2
  65              		.loc 1 119 0
  66 001c 9847     		blx	r3
  67              	.LVL3:
  68              	.L2:
  69              		.loc 1 120 0
  70 001e 6007     		lsls	r0, r4, #29
  71 0020 04D5     		bpl	.L3
  72              		.loc 1 121 0 discriminator 1
  73 0022 6B68     		ldr	r3, [r5, #4]
  74 0024 9B69     		ldr	r3, [r3, #24]
  75              		.loc 1 120 0 discriminator 1
  76 0026 0BB1     		cbz	r3, .L3
  77              		.loc 1 122 0
  78 0028 2846     		mov	r0, r5
  79 002a 9847     		blx	r3
  80              	.LVL4:
  81              	.L3:
  82              		.loc 1 123 0
  83 002c 2107     		lsls	r1, r4, #28
  84 002e 04D5     		bpl	.L4
  85              		.loc 1 124 0 discriminator 1
  86 0030 6B68     		ldr	r3, [r5, #4]
  87 0032 1B6A     		ldr	r3, [r3, #32]
  88              		.loc 1 123 0 discriminator 1
  89 0034 0BB1     		cbz	r3, .L4
  90              		.loc 1 125 0
  91 0036 2846     		mov	r0, r5
  92 0038 9847     		blx	r3
  93              	.LVL5:
  94              	.L4:
  95              		.loc 1 126 0
  96 003a E206     		lsls	r2, r4, #27
  97 003c 04D5     		bpl	.L5
  98              		.loc 1 127 0 discriminator 1
  99 003e 6B68     		ldr	r3, [r5, #4]
 100 0040 9B6A     		ldr	r3, [r3, #40]
 101              		.loc 1 126 0 discriminator 1
 102 0042 0BB1     		cbz	r3, .L5
 103              		.loc 1 128 0
 104 0044 2846     		mov	r0, r5
 105 0046 9847     		blx	r3
 106              	.LVL6:
 107              	.L5:
 108              		.loc 1 129 0
 109 0048 E307     		lsls	r3, r4, #31
 110 004a 06D5     		bpl	.L1
 111              		.loc 1 129 0 is_stmt 0 discriminator 1
 112 004c 6B68     		ldr	r3, [r5, #4]
 113 004e 9B68     		ldr	r3, [r3, #8]
 114 0050 1BB1     		cbz	r3, .L1
ARM GAS  /tmp/cctOVqwV.s 			page 3


 115              		.loc 1 130 0 is_stmt 1
 116 0052 2846     		mov	r0, r5
 117              		.loc 1 131 0
 118 0054 BDE87040 		pop	{r4, r5, r6, lr}
 119              		.cfi_remember_state
 120              		.cfi_restore 14
 121              		.cfi_restore 6
 122              		.cfi_restore 5
 123              		.cfi_restore 4
 124              		.cfi_def_cfa_offset 0
 125              	.LVL7:
 126              		.loc 1 130 0
 127 0058 1847     		bx	r3	@ indirect register sibling call
 128              	.LVL8:
 129              	.L1:
 130              		.cfi_restore_state
 131 005a 70BD     		pop	{r4, r5, r6, pc}
 132              		.cfi_endproc
 133              	.LFE258:
 134              		.size	pwm_lld_serve_interrupt, .-pwm_lld_serve_interrupt
 135              		.section	.text.VectorA4,"ax",%progbits
 136              		.align	2
 137              		.p2align 4,,15
 138              		.global	VectorA4
 139              		.thumb
 140              		.thumb_func
 141              		.type	VectorA4, %function
 142              	VectorA4:
 143              	.LFB259:
 144              		.loc 1 150 0
 145              		.cfi_startproc
 146              		@ args = 0, pretend = 0, frame = 0
 147              		@ frame_needed = 0, uses_anonymous_args = 0
 148              		.loc 1 155 0
 149 0000 0648     		ldr	r0, .L45
 150              		.loc 1 154 0
 151 0002 074A     		ldr	r2, .L45+4
 152              		.loc 1 150 0
 153 0004 08B5     		push	{r3, lr}
 154              		.cfi_def_cfa_offset 8
 155              		.cfi_offset 3, -8
 156              		.cfi_offset 14, -4
 157              		.loc 1 155 0
 158 0006 4368     		ldr	r3, [r0, #4]
 159 0008 9B68     		ldr	r3, [r3, #8]
 160              		.loc 1 154 0
 161 000a 6FF00101 		mvn	r1, #1
 162 000e 1161     		str	r1, [r2, #16]
 163              		.loc 1 155 0
 164 0010 03B1     		cbz	r3, .L40
 165              		.loc 1 156 0
 166 0012 9847     		blx	r3
 167              	.LVL9:
 168              	.L40:
 169              		.loc 1 159 0
 170 0014 BDE80840 		pop	{r3, lr}
 171              		.cfi_restore 14
ARM GAS  /tmp/cctOVqwV.s 			page 4


 172              		.cfi_restore 3
 173              		.cfi_def_cfa_offset 0
 174              		.loc 1 158 0
 175 0018 FFF7FEBF 		b	_port_irq_epilogue
 176              	.LVL10:
 177              	.L46:
 178              		.align	2
 179              	.L45:
 180 001c 00000000 		.word	.LANCHOR0
 181 0020 00000140 		.word	1073807360
 182              		.cfi_endproc
 183              	.LFE259:
 184              		.size	VectorA4, .-VectorA4
 185              		.section	.text.VectorAC,"ax",%progbits
 186              		.align	2
 187              		.p2align 4,,15
 188              		.global	VectorAC
 189              		.thumb
 190              		.thumb_func
 191              		.type	VectorAC, %function
 192              	VectorAC:
 193              	.LFB260:
 194              		.loc 1 172 0
 195              		.cfi_startproc
 196              		@ args = 0, pretend = 0, frame = 0
 197              		@ frame_needed = 0, uses_anonymous_args = 0
 198              		.loc 1 177 0
 199 0000 144B     		ldr	r3, .L77
 200              		.loc 1 172 0
 201 0002 10B5     		push	{r4, lr}
 202              		.cfi_def_cfa_offset 8
 203              		.cfi_offset 4, -8
 204              		.cfi_offset 14, -4
 205              		.loc 1 177 0
 206 0004 1C69     		ldr	r4, [r3, #16]
 207 0006 DA68     		ldr	r2, [r3, #12]
 208 0008 1440     		ands	r4, r4, r2
 209              	.LVL11:
 210              		.loc 1 181 0
 211 000a 04F01E02 		and	r2, r4, #30
 212              	.LVL12:
 213 000e D243     		mvns	r2, r2
 214              	.LVL13:
 215              		.loc 1 182 0
 216 0010 A007     		lsls	r0, r4, #30
 217              		.loc 1 181 0
 218 0012 1A61     		str	r2, [r3, #16]
 219              		.loc 1 182 0
 220 0014 04D5     		bpl	.L48
 221              		.loc 1 183 0 discriminator 1
 222 0016 1048     		ldr	r0, .L77+4
 223 0018 4368     		ldr	r3, [r0, #4]
 224 001a 1B69     		ldr	r3, [r3, #16]
 225              		.loc 1 182 0 discriminator 1
 226 001c 03B1     		cbz	r3, .L48
 227              		.loc 1 184 0
 228 001e 9847     		blx	r3
ARM GAS  /tmp/cctOVqwV.s 			page 5


 229              	.LVL14:
 230              	.L48:
 231              		.loc 1 185 0
 232 0020 6107     		lsls	r1, r4, #29
 233 0022 04D5     		bpl	.L49
 234              		.loc 1 186 0 discriminator 1
 235 0024 0C48     		ldr	r0, .L77+4
 236 0026 4368     		ldr	r3, [r0, #4]
 237 0028 9B69     		ldr	r3, [r3, #24]
 238              		.loc 1 185 0 discriminator 1
 239 002a 03B1     		cbz	r3, .L49
 240              		.loc 1 187 0
 241 002c 9847     		blx	r3
 242              	.LVL15:
 243              	.L49:
 244              		.loc 1 188 0
 245 002e 2207     		lsls	r2, r4, #28
 246 0030 04D5     		bpl	.L50
 247              		.loc 1 189 0 discriminator 1
 248 0032 0948     		ldr	r0, .L77+4
 249 0034 4368     		ldr	r3, [r0, #4]
 250 0036 1B6A     		ldr	r3, [r3, #32]
 251              		.loc 1 188 0 discriminator 1
 252 0038 03B1     		cbz	r3, .L50
 253              		.loc 1 190 0
 254 003a 9847     		blx	r3
 255              	.LVL16:
 256              	.L50:
 257              		.loc 1 191 0
 258 003c E306     		lsls	r3, r4, #27
 259 003e 04D5     		bpl	.L51
 260              		.loc 1 192 0 discriminator 1
 261 0040 0548     		ldr	r0, .L77+4
 262 0042 4368     		ldr	r3, [r0, #4]
 263 0044 9B6A     		ldr	r3, [r3, #40]
 264              		.loc 1 191 0 discriminator 1
 265 0046 03B1     		cbz	r3, .L51
 266              		.loc 1 193 0
 267 0048 9847     		blx	r3
 268              	.LVL17:
 269              	.L51:
 270              		.loc 1 196 0
 271 004a BDE81040 		pop	{r4, lr}
 272              		.cfi_restore 14
 273              		.cfi_restore 4
 274              		.cfi_def_cfa_offset 0
 275              	.LVL18:
 276              		.loc 1 195 0
 277 004e FFF7FEBF 		b	_port_irq_epilogue
 278              	.LVL19:
 279              	.L78:
 280 0052 00BF     		.align	2
 281              	.L77:
 282 0054 00000140 		.word	1073807360
 283 0058 00000000 		.word	.LANCHOR0
 284              		.cfi_endproc
 285              	.LFE260:
ARM GAS  /tmp/cctOVqwV.s 			page 6


 286              		.size	VectorAC, .-VectorAC
 287              		.section	.text.VectorB4,"ax",%progbits
 288              		.align	2
 289              		.p2align 4,,15
 290              		.global	VectorB4
 291              		.thumb
 292              		.thumb_func
 293              		.type	VectorB4, %function
 294              	VectorB4:
 295              	.LFB261:
 296              		.loc 1 227 0
 297              		.cfi_startproc
 298              		@ args = 0, pretend = 0, frame = 0
 299              		@ frame_needed = 0, uses_anonymous_args = 0
 300 0000 08B5     		push	{r3, lr}
 301              		.cfi_def_cfa_offset 8
 302              		.cfi_offset 3, -8
 303              		.cfi_offset 14, -4
 304              		.loc 1 231 0
 305 0002 0348     		ldr	r0, .L81
 306 0004 FFF7FEFF 		bl	pwm_lld_serve_interrupt
 307              	.LVL20:
 308              		.loc 1 234 0
 309 0008 BDE80840 		pop	{r3, lr}
 310              		.cfi_restore 14
 311              		.cfi_restore 3
 312              		.cfi_def_cfa_offset 0
 313              		.loc 1 233 0
 314 000c FFF7FEBF 		b	_port_irq_epilogue
 315              	.LVL21:
 316              	.L82:
 317              		.align	2
 318              	.L81:
 319 0010 00000000 		.word	.LANCHOR1
 320              		.cfi_endproc
 321              	.LFE261:
 322              		.size	VectorB4, .-VectorB4
 323              		.section	.text.Vector108,"ax",%progbits
 324              		.align	2
 325              		.p2align 4,,15
 326              		.global	Vector108
 327              		.thumb
 328              		.thumb_func
 329              		.type	Vector108, %function
 330              	Vector108:
 331              	.LFB262:
 332              		.loc 1 265 0
 333              		.cfi_startproc
 334              		@ args = 0, pretend = 0, frame = 0
 335              		@ frame_needed = 0, uses_anonymous_args = 0
 336 0000 08B5     		push	{r3, lr}
 337              		.cfi_def_cfa_offset 8
 338              		.cfi_offset 3, -8
 339              		.cfi_offset 14, -4
 340              		.loc 1 269 0
 341 0002 0348     		ldr	r0, .L85
 342 0004 FFF7FEFF 		bl	pwm_lld_serve_interrupt
ARM GAS  /tmp/cctOVqwV.s 			page 7


 343              	.LVL22:
 344              		.loc 1 272 0
 345 0008 BDE80840 		pop	{r3, lr}
 346              		.cfi_restore 14
 347              		.cfi_restore 3
 348              		.cfi_def_cfa_offset 0
 349              		.loc 1 271 0
 350 000c FFF7FEBF 		b	_port_irq_epilogue
 351              	.LVL23:
 352              	.L86:
 353              		.align	2
 354              	.L85:
 355 0010 00000000 		.word	.LANCHOR2
 356              		.cfi_endproc
 357              	.LFE262:
 358              		.size	Vector108, .-Vector108
 359              		.section	.text.VectorA0,"ax",%progbits
 360              		.align	2
 361              		.p2align 4,,15
 362              		.global	VectorA0
 363              		.thumb
 364              		.thumb_func
 365              		.type	VectorA0, %function
 366              	VectorA0:
 367              	.LFB263:
 368              		.loc 1 345 0
 369              		.cfi_startproc
 370              		@ args = 0, pretend = 0, frame = 0
 371              		@ frame_needed = 0, uses_anonymous_args = 0
 372 0000 08B5     		push	{r3, lr}
 373              		.cfi_def_cfa_offset 8
 374              		.cfi_offset 3, -8
 375              		.cfi_offset 14, -4
 376              		.loc 1 349 0
 377 0002 0348     		ldr	r0, .L89
 378 0004 FFF7FEFF 		bl	pwm_lld_serve_interrupt
 379              	.LVL24:
 380              		.loc 1 352 0
 381 0008 BDE80840 		pop	{r3, lr}
 382              		.cfi_restore 14
 383              		.cfi_restore 3
 384              		.cfi_def_cfa_offset 0
 385              		.loc 1 351 0
 386 000c FFF7FEBF 		b	_port_irq_epilogue
 387              	.LVL25:
 388              	.L90:
 389              		.align	2
 390              	.L89:
 391 0010 00000000 		.word	.LANCHOR3
 392              		.cfi_endproc
 393              	.LFE263:
 394              		.size	VectorA0, .-VectorA0
 395              		.section	.text.pwm_lld_init,"ax",%progbits
 396              		.align	2
 397              		.p2align 4,,15
 398              		.global	pwm_lld_init
 399              		.thumb
ARM GAS  /tmp/cctOVqwV.s 			page 8


 400              		.thumb_func
 401              		.type	pwm_lld_init, %function
 402              	pwm_lld_init:
 403              	.LFB264:
 404              		.loc 1 364 0
 405              		.cfi_startproc
 406              		@ args = 0, pretend = 0, frame = 0
 407              		@ frame_needed = 0, uses_anonymous_args = 0
 408 0000 2DE9F041 		push	{r4, r5, r6, r7, r8, lr}
 409              		.cfi_def_cfa_offset 24
 410              		.cfi_offset 4, -24
 411              		.cfi_offset 5, -20
 412              		.cfi_offset 6, -16
 413              		.cfi_offset 7, -12
 414              		.cfi_offset 8, -8
 415              		.cfi_offset 14, -4
 416              		.loc 1 368 0
 417 0004 DFF86080 		ldr	r8, .L93+28
 418              		.loc 1 382 0
 419 0008 104F     		ldr	r7, .L93
 420              		.loc 1 396 0
 421 000a 114D     		ldr	r5, .L93+4
 422              		.loc 1 410 0
 423 000c 114C     		ldr	r4, .L93+8
 424              		.loc 1 368 0
 425 000e 4046     		mov	r0, r8
 426 0010 FFF7FEFF 		bl	pwmObjectInit
 427              	.LVL26:
 428              		.loc 1 369 0
 429 0014 0426     		movs	r6, #4
 430              		.loc 1 370 0
 431 0016 104B     		ldr	r3, .L93+12
 432 0018 C8F81830 		str	r3, [r8, #24]
 433              		.loc 1 382 0
 434 001c 3846     		mov	r0, r7
 435              		.loc 1 369 0
 436 001e 88F81060 		strb	r6, [r8, #16]
 437              		.loc 1 382 0
 438 0022 FFF7FEFF 		bl	pwmObjectInit
 439              	.LVL27:
 440              		.loc 1 384 0
 441 0026 0D4B     		ldr	r3, .L93+16
 442 0028 BB61     		str	r3, [r7, #24]
 443              		.loc 1 396 0
 444 002a 2846     		mov	r0, r5
 445              		.loc 1 383 0
 446 002c 3E74     		strb	r6, [r7, #16]
 447              		.loc 1 396 0
 448 002e FFF7FEFF 		bl	pwmObjectInit
 449              	.LVL28:
 450              		.loc 1 398 0
 451 0032 0B4B     		ldr	r3, .L93+20
 452 0034 AB61     		str	r3, [r5, #24]
 453              		.loc 1 410 0
 454 0036 2046     		mov	r0, r4
 455              		.loc 1 397 0
 456 0038 2E74     		strb	r6, [r5, #16]
ARM GAS  /tmp/cctOVqwV.s 			page 9


 457              		.loc 1 410 0
 458 003a FFF7FEFF 		bl	pwmObjectInit
 459              	.LVL29:
 460              		.loc 1 411 0
 461 003e 0222     		movs	r2, #2
 462              		.loc 1 412 0
 463 0040 084B     		ldr	r3, .L93+24
 464              		.loc 1 411 0
 465 0042 2274     		strb	r2, [r4, #16]
 466              		.loc 1 412 0
 467 0044 A361     		str	r3, [r4, #24]
 468 0046 BDE8F081 		pop	{r4, r5, r6, r7, r8, pc}
 469              	.L94:
 470 004a 00BF     		.align	2
 471              	.L93:
 472 004c 00000000 		.word	.LANCHOR1
 473 0050 00000000 		.word	.LANCHOR2
 474 0054 00000000 		.word	.LANCHOR3
 475 0058 00000140 		.word	1073807360
 476 005c 00040040 		.word	1073742848
 477 0060 000C0040 		.word	1073744896
 478 0064 00400140 		.word	1073823744
 479 0068 00000000 		.word	.LANCHOR0
 480              		.cfi_endproc
 481              	.LFE264:
 482              		.size	pwm_lld_init, .-pwm_lld_init
 483              		.section	.text.pwm_lld_start,"ax",%progbits
 484              		.align	2
 485              		.p2align 4,,15
 486              		.global	pwm_lld_start
 487              		.thumb
 488              		.thumb_func
 489              		.type	pwm_lld_start, %function
 490              	pwm_lld_start:
 491              	.LFB265:
 492              		.loc 1 425 0
 493              		.cfi_startproc
 494              		@ args = 0, pretend = 0, frame = 0
 495              		@ frame_needed = 0, uses_anonymous_args = 0
 496              	.LVL30:
 497 0000 F8B5     		push	{r3, r4, r5, r6, r7, lr}
 498              		.cfi_def_cfa_offset 24
 499              		.cfi_offset 3, -24
 500              		.cfi_offset 4, -20
 501              		.cfi_offset 5, -16
 502              		.cfi_offset 6, -12
 503              		.cfi_offset 7, -8
 504              		.cfi_offset 14, -4
 505              		.loc 1 429 0
 506 0002 0378     		ldrb	r3, [r0]	@ zero_extendqisi2
 507 0004 012B     		cmp	r3, #1
 508              		.loc 1 425 0
 509 0006 0446     		mov	r4, r0
 510              		.loc 1 429 0
 511 0008 4ED0     		beq	.L126
 512              		.loc 1 512 0
 513 000a 8369     		ldr	r3, [r0, #24]
ARM GAS  /tmp/cctOVqwV.s 			page 10


 514 000c 0022     		movs	r2, #0
 515 000e 1A60     		str	r2, [r3]
 516              		.loc 1 513 0
 517 0010 5A63     		str	r2, [r3, #52]
 518              		.loc 1 514 0
 519 0012 9A63     		str	r2, [r3, #56]
 520              		.loc 1 515 0
 521 0014 DA63     		str	r2, [r3, #60]
 522              		.loc 1 516 0
 523 0016 1A64     		str	r2, [r3, #64]
 524              		.loc 1 523 0
 525 0018 5A62     		str	r2, [r3, #36]
 526              	.LVL31:
 527              	.L101:
 528              		.loc 1 527 0
 529 001a 6168     		ldr	r1, [r4, #4]
 530              		.loc 1 532 0
 531 001c A568     		ldr	r5, [r4, #8]
 532              		.loc 1 537 0
 533 001e CA68     		ldr	r2, [r1, #12]
 534              		.loc 1 527 0
 535 0020 6069     		ldr	r0, [r4, #20]
 536 0022 0F68     		ldr	r7, [r1]
 537              		.loc 1 533 0
 538 0024 CE6A     		ldr	r6, [r1, #44]
 539              		.loc 1 527 0
 540 0026 B0FBF7F0 		udiv	r0, r0, r7
 541              		.loc 1 537 0
 542 002a 02F00F02 		and	r2, r2, #15
 543              		.loc 1 532 0
 544 002e 6C1E     		subs	r4, r5, #1
 545              	.LVL32:
 546              		.loc 1 527 0
 547 0030 0138     		subs	r0, r0, #1
 548              	.LVL33:
 549              		.loc 1 537 0
 550 0032 012A     		cmp	r2, #1
 551              		.loc 1 531 0
 552 0034 9862     		str	r0, [r3, #40]
 553              		.loc 1 532 0
 554 0036 DC62     		str	r4, [r3, #44]
 555              		.loc 1 533 0
 556 0038 5E60     		str	r6, [r3, #4]
 557              	.LVL34:
 558              		.loc 1 537 0
 559 003a 03D0     		beq	.L102
 560              		.loc 1 536 0
 561 003c 022A     		cmp	r2, #2
 562 003e 0CBF     		ite	eq
 563 0040 0322     		moveq	r2, #3
 564 0042 0022     		movne	r2, #0
 565              	.L102:
 566              	.LVL35:
 567              		.loc 1 545 0
 568 0044 4869     		ldr	r0, [r1, #20]
 569              	.LVL36:
 570 0046 00F00F00 		and	r0, r0, #15
ARM GAS  /tmp/cctOVqwV.s 			page 11


 571 004a 0128     		cmp	r0, #1
 572 004c 29D0     		beq	.L106
 573 004e 0228     		cmp	r0, #2
 574 0050 25D0     		beq	.L127
 575              	.L105:
 576              		.loc 1 553 0
 577 0052 C869     		ldr	r0, [r1, #28]
 578 0054 00F00F00 		and	r0, r0, #15
 579 0058 0128     		cmp	r0, #1
 580 005a 1DD0     		beq	.L109
 581 005c 0228     		cmp	r0, #2
 582 005e 19D0     		beq	.L128
 583              	.L108:
 584              		.loc 1 561 0
 585 0060 486A     		ldr	r0, [r1, #36]
 586 0062 00F00F00 		and	r0, r0, #15
 587 0066 0128     		cmp	r0, #1
 588 0068 03D0     		beq	.L112
 589 006a 0228     		cmp	r0, #2
 590 006c 03D1     		bne	.L111
 591              		.loc 1 563 0
 592 006e 42F40052 		orr	r2, r2, #8192
 593              	.LVL37:
 594              	.L112:
 595              		.loc 1 565 0
 596 0072 42F48052 		orr	r2, r2, #4096
 597              	.LVL38:
 598              	.L111:
 599              		.loc 1 609 0
 600 0076 096B     		ldr	r1, [r1, #48]
 601              		.loc 1 606 0
 602 0078 1A62     		str	r2, [r3, #32]
 603              		.loc 1 607 0
 604 007a 0125     		movs	r5, #1
 605              		.loc 1 609 0
 606 007c 21F0FF02 		bic	r2, r1, #255
 607              	.LVL39:
 608              		.loc 1 608 0
 609 0080 0024     		movs	r4, #0
 610              		.loc 1 615 0
 611 0082 4FF40040 		mov	r0, #32768
 612              		.loc 1 619 0
 613 0086 8521     		movs	r1, #133
 614              		.loc 1 607 0
 615 0088 5D61     		str	r5, [r3, #20]
 616              	.LVL40:
 617              		.loc 1 608 0
 618 008a 1C61     		str	r4, [r3, #16]
 619              		.loc 1 609 0
 620 008c DA60     		str	r2, [r3, #12]
 621              		.loc 1 615 0
 622 008e 5864     		str	r0, [r3, #68]
 623              		.loc 1 619 0
 624 0090 1960     		str	r1, [r3]
 625 0092 F8BD     		pop	{r3, r4, r5, r6, r7, pc}
 626              	.LVL41:
 627              	.L128:
ARM GAS  /tmp/cctOVqwV.s 			page 12


 628              		.loc 1 555 0
 629 0094 42F40072 		orr	r2, r2, #512
 630              	.LVL42:
 631              	.L109:
 632              		.loc 1 557 0
 633 0098 42F48072 		orr	r2, r2, #256
 634              	.LVL43:
 635 009c E0E7     		b	.L108
 636              	.L127:
 637              		.loc 1 547 0
 638 009e 42F02002 		orr	r2, r2, #32
 639              	.LVL44:
 640              	.L106:
 641              		.loc 1 549 0
 642 00a2 42F01002 		orr	r2, r2, #16
 643              	.LVL45:
 644 00a6 D4E7     		b	.L105
 645              	.LVL46:
 646              	.L126:
 647              		.loc 1 432 0
 648 00a8 2E4B     		ldr	r3, .L133
 649 00aa 9842     		cmp	r0, r3
 650 00ac 0ED0     		beq	.L129
 651              		.loc 1 453 0
 652 00ae 2E4B     		ldr	r3, .L133+4
 653 00b0 9842     		cmp	r0, r3
 654 00b2 21D0     		beq	.L130
 655              		.loc 1 470 0
 656 00b4 2D4B     		ldr	r3, .L133+8
 657 00b6 9842     		cmp	r0, r3
 658 00b8 30D0     		beq	.L131
 659              		.loc 1 491 0
 660 00ba 2D4B     		ldr	r3, .L133+12
 661 00bc 9842     		cmp	r0, r3
 662 00be 3FD0     		beq	.L132
 663              	.LVL47:
 664              	.L98:
 665              		.loc 1 501 0
 666 00c0 A369     		ldr	r3, [r4, #24]
 667 00c2 46F66802 		movw	r2, #26728
 668 00c6 9A61     		str	r2, [r3, #24]
 669              		.loc 1 503 0
 670 00c8 DA61     		str	r2, [r3, #28]
 671 00ca A6E7     		b	.L101
 672              	.LVL48:
 673              	.L129:
 674              		.loc 1 433 0
 675 00cc 294B     		ldr	r3, .L133+16
 676 00ce 5A6C     		ldr	r2, [r3, #68]
 677 00d0 42F00102 		orr	r2, r2, #1
 678 00d4 5A64     		str	r2, [r3, #68]
 679              		.loc 1 434 0
 680 00d6 5A6A     		ldr	r2, [r3, #36]
 681 00d8 0020     		movs	r0, #0
 682              	.LVL49:
 683 00da 42F00102 		orr	r2, r2, #1
 684 00de 5A62     		str	r2, [r3, #36]
ARM GAS  /tmp/cctOVqwV.s 			page 13


 685              		.loc 1 435 0
 686 00e0 0721     		movs	r1, #7
 687              		.loc 1 434 0
 688 00e2 5862     		str	r0, [r3, #36]
 689              		.loc 1 435 0
 690 00e4 1920     		movs	r0, #25
 691 00e6 FFF7FEFF 		bl	nvicEnableVector
 692              	.LVL50:
 693              		.loc 1 436 0
 694 00ea 0721     		movs	r1, #7
 695 00ec 1B20     		movs	r0, #27
 696 00ee FFF7FEFF 		bl	nvicEnableVector
 697              	.LVL51:
 698              		.loc 1 440 0
 699 00f2 214B     		ldr	r3, .L133+20
 700 00f4 6361     		str	r3, [r4, #20]
 701 00f6 E3E7     		b	.L98
 702              	.LVL52:
 703              	.L130:
 704              		.loc 1 454 0
 705 00f8 1E4B     		ldr	r3, .L133+16
 706 00fa 1A6C     		ldr	r2, [r3, #64]
 707 00fc 42F00202 		orr	r2, r2, #2
 708 0100 1A64     		str	r2, [r3, #64]
 709              		.loc 1 455 0
 710 0102 1A6A     		ldr	r2, [r3, #32]
 711 0104 0020     		movs	r0, #0
 712              	.LVL53:
 713 0106 42F00202 		orr	r2, r2, #2
 714 010a 1A62     		str	r2, [r3, #32]
 715              		.loc 1 456 0
 716 010c 0721     		movs	r1, #7
 717              		.loc 1 455 0
 718 010e 1862     		str	r0, [r3, #32]
 719              		.loc 1 456 0
 720 0110 1D20     		movs	r0, #29
 721 0112 FFF7FEFF 		bl	nvicEnableVector
 722              	.LVL54:
 723              		.loc 1 457 0
 724 0116 194B     		ldr	r3, .L133+24
 725 0118 6361     		str	r3, [r4, #20]
 726 011a D1E7     		b	.L98
 727              	.LVL55:
 728              	.L131:
 729              		.loc 1 471 0
 730 011c 154B     		ldr	r3, .L133+16
 731 011e 1A6C     		ldr	r2, [r3, #64]
 732 0120 42F00802 		orr	r2, r2, #8
 733 0124 1A64     		str	r2, [r3, #64]
 734              		.loc 1 472 0
 735 0126 1A6A     		ldr	r2, [r3, #32]
 736 0128 0020     		movs	r0, #0
 737              	.LVL56:
 738 012a 42F00802 		orr	r2, r2, #8
 739 012e 1A62     		str	r2, [r3, #32]
 740              		.loc 1 473 0
 741 0130 0721     		movs	r1, #7
ARM GAS  /tmp/cctOVqwV.s 			page 14


 742              		.loc 1 472 0
 743 0132 1862     		str	r0, [r3, #32]
 744              		.loc 1 473 0
 745 0134 3220     		movs	r0, #50
 746 0136 FFF7FEFF 		bl	nvicEnableVector
 747              	.LVL57:
 748              		.loc 1 474 0
 749 013a 104B     		ldr	r3, .L133+24
 750 013c 6361     		str	r3, [r4, #20]
 751 013e BFE7     		b	.L98
 752              	.LVL58:
 753              	.L132:
 754              		.loc 1 492 0
 755 0140 0C4B     		ldr	r3, .L133+16
 756 0142 5A6C     		ldr	r2, [r3, #68]
 757 0144 42F48032 		orr	r2, r2, #65536
 758 0148 5A64     		str	r2, [r3, #68]
 759              		.loc 1 493 0
 760 014a 5A6A     		ldr	r2, [r3, #36]
 761 014c 0020     		movs	r0, #0
 762              	.LVL59:
 763 014e 42F48032 		orr	r2, r2, #65536
 764 0152 5A62     		str	r2, [r3, #36]
 765              		.loc 1 494 0
 766 0154 0721     		movs	r1, #7
 767              		.loc 1 493 0
 768 0156 5862     		str	r0, [r3, #36]
 769              		.loc 1 494 0
 770 0158 1820     		movs	r0, #24
 771 015a FFF7FEFF 		bl	nvicEnableVector
 772              	.LVL60:
 773              		.loc 1 495 0
 774 015e 064B     		ldr	r3, .L133+20
 775 0160 6361     		str	r3, [r4, #20]
 776 0162 ADE7     		b	.L98
 777              	.L134:
 778              		.align	2
 779              	.L133:
 780 0164 00000000 		.word	.LANCHOR0
 781 0168 00000000 		.word	.LANCHOR1
 782 016c 00000000 		.word	.LANCHOR2
 783 0170 00000000 		.word	.LANCHOR3
 784 0174 00380240 		.word	1073887232
 785 0178 007A030A 		.word	168000000
 786 017c 00BD0105 		.word	84000000
 787              		.cfi_endproc
 788              	.LFE265:
 789              		.size	pwm_lld_start, .-pwm_lld_start
 790              		.section	.text.pwm_lld_stop,"ax",%progbits
 791              		.align	2
 792              		.p2align 4,,15
 793              		.global	pwm_lld_stop
 794              		.thumb
 795              		.thumb_func
 796              		.type	pwm_lld_stop, %function
 797              	pwm_lld_stop:
 798              	.LFB266:
ARM GAS  /tmp/cctOVqwV.s 			page 15


 799              		.loc 1 630 0
 800              		.cfi_startproc
 801              		@ args = 0, pretend = 0, frame = 0
 802              		@ frame_needed = 0, uses_anonymous_args = 0
 803              	.LVL61:
 804 0000 08B5     		push	{r3, lr}
 805              		.cfi_def_cfa_offset 8
 806              		.cfi_offset 3, -8
 807              		.cfi_offset 14, -4
 808              		.loc 1 633 0
 809 0002 0378     		ldrb	r3, [r0]	@ zero_extendqisi2
 810 0004 022B     		cmp	r3, #2
 811 0006 00D0     		beq	.L143
 812              	.LVL62:
 813              	.L135:
 814 0008 08BD     		pop	{r3, pc}
 815              	.LVL63:
 816              	.L143:
 817              		.loc 1 642 0
 818 000a 1C49     		ldr	r1, .L147
 819              		.loc 1 634 0
 820 000c 8369     		ldr	r3, [r0, #24]
 821 000e 0022     		movs	r2, #0
 822              		.loc 1 642 0
 823 0010 8842     		cmp	r0, r1
 824              		.loc 1 634 0
 825 0012 1A60     		str	r2, [r3]
 826              		.loc 1 635 0
 827 0014 DA60     		str	r2, [r3, #12]
 828              		.loc 1 636 0
 829 0016 1A61     		str	r2, [r3, #16]
 830              		.loc 1 638 0
 831 0018 5A64     		str	r2, [r3, #68]
 832              		.loc 1 642 0
 833 001a 11D0     		beq	.L144
 834              		.loc 1 655 0
 835 001c 184B     		ldr	r3, .L147+4
 836 001e 9842     		cmp	r0, r3
 837 0020 1AD0     		beq	.L145
 838              		.loc 1 667 0
 839 0022 184B     		ldr	r3, .L147+8
 840 0024 9842     		cmp	r0, r3
 841 0026 20D0     		beq	.L146
 842              		.loc 1 680 0
 843 0028 174B     		ldr	r3, .L147+12
 844 002a 9842     		cmp	r0, r3
 845 002c ECD1     		bne	.L135
 846              		.loc 1 681 0
 847 002e 1820     		movs	r0, #24
 848              	.LVL64:
 849 0030 FFF7FEFF 		bl	nvicDisableVector
 850              	.LVL65:
 851              		.loc 1 682 0
 852 0034 154A     		ldr	r2, .L147+16
 853 0036 536C     		ldr	r3, [r2, #68]
 854 0038 23F48033 		bic	r3, r3, #65536
 855 003c 5364     		str	r3, [r2, #68]
ARM GAS  /tmp/cctOVqwV.s 			page 16


 856              		.loc 1 686 0
 857 003e E3E7     		b	.L135
 858              	.LVL66:
 859              	.L144:
 860              		.loc 1 643 0
 861 0040 1920     		movs	r0, #25
 862              	.LVL67:
 863 0042 FFF7FEFF 		bl	nvicDisableVector
 864              	.LVL68:
 865              		.loc 1 644 0
 866 0046 1B20     		movs	r0, #27
 867 0048 FFF7FEFF 		bl	nvicDisableVector
 868              	.LVL69:
 869              		.loc 1 645 0
 870 004c 0F4A     		ldr	r2, .L147+16
 871 004e 536C     		ldr	r3, [r2, #68]
 872 0050 23F00103 		bic	r3, r3, #1
 873 0054 5364     		str	r3, [r2, #68]
 874 0056 08BD     		pop	{r3, pc}
 875              	.LVL70:
 876              	.L145:
 877              		.loc 1 656 0
 878 0058 1D20     		movs	r0, #29
 879              	.LVL71:
 880 005a FFF7FEFF 		bl	nvicDisableVector
 881              	.LVL72:
 882              		.loc 1 657 0
 883 005e 0B4A     		ldr	r2, .L147+16
 884 0060 136C     		ldr	r3, [r2, #64]
 885 0062 23F00203 		bic	r3, r3, #2
 886 0066 1364     		str	r3, [r2, #64]
 887 0068 08BD     		pop	{r3, pc}
 888              	.LVL73:
 889              	.L146:
 890              		.loc 1 668 0
 891 006a 3220     		movs	r0, #50
 892              	.LVL74:
 893 006c FFF7FEFF 		bl	nvicDisableVector
 894              	.LVL75:
 895              		.loc 1 669 0
 896 0070 064A     		ldr	r2, .L147+16
 897 0072 136C     		ldr	r3, [r2, #64]
 898 0074 23F00803 		bic	r3, r3, #8
 899 0078 1364     		str	r3, [r2, #64]
 900 007a 08BD     		pop	{r3, pc}
 901              	.L148:
 902              		.align	2
 903              	.L147:
 904 007c 00000000 		.word	.LANCHOR0
 905 0080 00000000 		.word	.LANCHOR1
 906 0084 00000000 		.word	.LANCHOR2
 907 0088 00000000 		.word	.LANCHOR3
 908 008c 00380240 		.word	1073887232
 909              		.cfi_endproc
 910              	.LFE266:
 911              		.size	pwm_lld_stop, .-pwm_lld_stop
 912              		.section	.text.pwm_lld_enable_channel,"ax",%progbits
ARM GAS  /tmp/cctOVqwV.s 			page 17


 913              		.align	2
 914              		.p2align 4,,15
 915              		.global	pwm_lld_enable_channel
 916              		.thumb
 917              		.thumb_func
 918              		.type	pwm_lld_enable_channel, %function
 919              	pwm_lld_enable_channel:
 920              	.LFB267:
 921              		.loc 1 703 0
 922              		.cfi_startproc
 923              		@ args = 0, pretend = 0, frame = 0
 924              		@ frame_needed = 0, uses_anonymous_args = 0
 925              		@ link register save eliminated.
 926              	.LVL76:
 927              		.loc 1 707 0
 928 0000 8369     		ldr	r3, [r0, #24]
 929 0002 0C31     		adds	r1, r1, #12
 930              	.LVL77:
 931 0004 03EB8103 		add	r3, r3, r1, lsl #2
 932 0008 5A60     		str	r2, [r3, #4]
 933 000a 7047     		bx	lr
 934              		.cfi_endproc
 935              	.LFE267:
 936              		.size	pwm_lld_enable_channel, .-pwm_lld_enable_channel
 937              		.section	.text.pwm_lld_disable_channel,"ax",%progbits
 938              		.align	2
 939              		.p2align 4,,15
 940              		.global	pwm_lld_disable_channel
 941              		.thumb
 942              		.thumb_func
 943              		.type	pwm_lld_disable_channel, %function
 944              	pwm_lld_disable_channel:
 945              	.LFB268:
 946              		.loc 1 728 0
 947              		.cfi_startproc
 948              		@ args = 0, pretend = 0, frame = 0
 949              		@ frame_needed = 0, uses_anonymous_args = 0
 950              		@ link register save eliminated.
 951              	.LVL78:
 952              		.loc 1 731 0
 953 0000 8369     		ldr	r3, [r0, #24]
 954 0002 01F10C02 		add	r2, r1, #12
 955 0006 03EB8202 		add	r2, r3, r2, lsl #2
 956 000a 0020     		movs	r0, #0
 957              	.LVL79:
 958 000c 5060     		str	r0, [r2, #4]
 959              		.loc 1 732 0
 960 000e DA68     		ldr	r2, [r3, #12]
 961 0010 0220     		movs	r0, #2
 962 0012 00FA01F1 		lsl	r1, r0, r1
 963              	.LVL80:
 964 0016 22EA0101 		bic	r1, r2, r1
 965 001a D960     		str	r1, [r3, #12]
 966 001c 7047     		bx	lr
 967              		.cfi_endproc
 968              	.LFE268:
 969              		.size	pwm_lld_disable_channel, .-pwm_lld_disable_channel
ARM GAS  /tmp/cctOVqwV.s 			page 18


 970 001e 00BF     		.section	.text.pwm_lld_enable_periodic_notification,"ax",%progbits
 971              		.align	2
 972              		.p2align 4,,15
 973              		.global	pwm_lld_enable_periodic_notification
 974              		.thumb
 975              		.thumb_func
 976              		.type	pwm_lld_enable_periodic_notification, %function
 977              	pwm_lld_enable_periodic_notification:
 978              	.LFB269:
 979              		.loc 1 752 0
 980              		.cfi_startproc
 981              		@ args = 0, pretend = 0, frame = 0
 982              		@ frame_needed = 0, uses_anonymous_args = 0
 983              		@ link register save eliminated.
 984              	.LVL81:
 985              		.loc 1 753 0
 986 0000 8369     		ldr	r3, [r0, #24]
 987 0002 DA68     		ldr	r2, [r3, #12]
 988              	.LVL82:
 989              		.loc 1 757 0
 990 0004 D107     		lsls	r1, r2, #31
 991 0006 06D4     		bmi	.L151
 992              		.loc 1 758 0
 993 0008 42F00102 		orr	r2, r2, #1
 994              	.LVL83:
 995 000c DA60     		str	r2, [r3, #12]
 996              		.loc 1 759 0
 997 000e 1A69     		ldr	r2, [r3, #16]
 998 0010 02F00102 		and	r2, r2, #1
 999 0014 1A61     		str	r2, [r3, #16]
 1000              	.L151:
 1001 0016 7047     		bx	lr
 1002              		.cfi_endproc
 1003              	.LFE269:
 1004              		.size	pwm_lld_enable_periodic_notification, .-pwm_lld_enable_periodic_notification
 1005              		.section	.text.pwm_lld_disable_periodic_notification,"ax",%progbits
 1006              		.align	2
 1007              		.p2align 4,,15
 1008              		.global	pwm_lld_disable_periodic_notification
 1009              		.thumb
 1010              		.thumb_func
 1011              		.type	pwm_lld_disable_periodic_notification, %function
 1012              	pwm_lld_disable_periodic_notification:
 1013              	.LFB270:
 1014              		.loc 1 772 0
 1015              		.cfi_startproc
 1016              		@ args = 0, pretend = 0, frame = 0
 1017              		@ frame_needed = 0, uses_anonymous_args = 0
 1018              		@ link register save eliminated.
 1019              	.LVL84:
 1020              		.loc 1 774 0
 1021 0000 8269     		ldr	r2, [r0, #24]
 1022 0002 D368     		ldr	r3, [r2, #12]
 1023 0004 23F00103 		bic	r3, r3, #1
 1024 0008 D360     		str	r3, [r2, #12]
 1025 000a 7047     		bx	lr
 1026              		.cfi_endproc
ARM GAS  /tmp/cctOVqwV.s 			page 19


 1027              	.LFE270:
 1028              		.size	pwm_lld_disable_periodic_notification, .-pwm_lld_disable_periodic_notification
 1029              		.section	.text.pwm_lld_enable_channel_notification,"ax",%progbits
 1030              		.align	2
 1031              		.p2align 4,,15
 1032              		.global	pwm_lld_enable_channel_notification
 1033              		.thumb
 1034              		.thumb_func
 1035              		.type	pwm_lld_enable_channel_notification, %function
 1036              	pwm_lld_enable_channel_notification:
 1037              	.LFB271:
 1038              		.loc 1 789 0
 1039              		.cfi_startproc
 1040              		@ args = 0, pretend = 0, frame = 0
 1041              		@ frame_needed = 0, uses_anonymous_args = 0
 1042              		@ link register save eliminated.
 1043              	.LVL85:
 1044              		.loc 1 790 0
 1045 0000 8069     		ldr	r0, [r0, #24]
 1046              	.LVL86:
 1047              		.loc 1 799 0
 1048 0002 0223     		movs	r3, #2
 1049              		.loc 1 790 0
 1050 0004 C268     		ldr	r2, [r0, #12]
 1051              	.LVL87:
 1052              		.loc 1 799 0
 1053 0006 03FA01F1 		lsl	r1, r3, r1
 1054              	.LVL88:
 1055 000a 0A42     		tst	r2, r1
 1056 000c 03D1     		bne	.L154
 1057              		.loc 1 800 0
 1058 000e 0A43     		orrs	r2, r2, r1
 1059              	.LVL89:
 1060              		.loc 1 801 0
 1061 0010 C943     		mvns	r1, r1
 1062              		.loc 1 800 0
 1063 0012 C260     		str	r2, [r0, #12]
 1064              		.loc 1 801 0
 1065 0014 0161     		str	r1, [r0, #16]
 1066              	.L154:
 1067 0016 7047     		bx	lr
 1068              		.cfi_endproc
 1069              	.LFE271:
 1070              		.size	pwm_lld_enable_channel_notification, .-pwm_lld_enable_channel_notification
 1071              		.section	.text.pwm_lld_disable_channel_notification,"ax",%progbits
 1072              		.align	2
 1073              		.p2align 4,,15
 1074              		.global	pwm_lld_disable_channel_notification
 1075              		.thumb
 1076              		.thumb_func
 1077              		.type	pwm_lld_disable_channel_notification, %function
 1078              	pwm_lld_disable_channel_notification:
 1079              	.LFB272:
 1080              		.loc 1 817 0
 1081              		.cfi_startproc
 1082              		@ args = 0, pretend = 0, frame = 0
 1083              		@ frame_needed = 0, uses_anonymous_args = 0
ARM GAS  /tmp/cctOVqwV.s 			page 20


 1084              		@ link register save eliminated.
 1085              	.LVL90:
 1086              		.loc 1 819 0
 1087 0000 8069     		ldr	r0, [r0, #24]
 1088              	.LVL91:
 1089 0002 0222     		movs	r2, #2
 1090 0004 C368     		ldr	r3, [r0, #12]
 1091 0006 02FA01F1 		lsl	r1, r2, r1
 1092              	.LVL92:
 1093 000a 23EA0103 		bic	r3, r3, r1
 1094 000e C360     		str	r3, [r0, #12]
 1095 0010 7047     		bx	lr
 1096              		.cfi_endproc
 1097              	.LFE272:
 1098              		.size	pwm_lld_disable_channel_notification, .-pwm_lld_disable_channel_notification
 1099              		.global	PWMD9
 1100              		.global	PWMD5
 1101              		.global	PWMD3
 1102              		.global	PWMD1
 1103 0012 00BF     		.section	.bss.PWMD1,"aw",%nobits
 1104              		.align	2
 1105              		.set	.LANCHOR0,. + 0
 1106              		.type	PWMD1, %object
 1107              		.size	PWMD1, 28
 1108              	PWMD1:
 1109 0000 00000000 		.space	28
 1109      00000000 
 1109      00000000 
 1109      00000000 
 1109      00000000 
 1110              		.section	.bss.PWMD3,"aw",%nobits
 1111              		.align	2
 1112              		.set	.LANCHOR1,. + 0
 1113              		.type	PWMD3, %object
 1114              		.size	PWMD3, 28
 1115              	PWMD3:
 1116 0000 00000000 		.space	28
 1116      00000000 
 1116      00000000 
 1116      00000000 
 1116      00000000 
 1117              		.section	.bss.PWMD5,"aw",%nobits
 1118              		.align	2
 1119              		.set	.LANCHOR2,. + 0
 1120              		.type	PWMD5, %object
 1121              		.size	PWMD5, 28
 1122              	PWMD5:
 1123 0000 00000000 		.space	28
 1123      00000000 
 1123      00000000 
 1123      00000000 
 1123      00000000 
 1124              		.section	.bss.PWMD9,"aw",%nobits
 1125              		.align	2
 1126              		.set	.LANCHOR3,. + 0
 1127              		.type	PWMD9, %object
 1128              		.size	PWMD9, 28
ARM GAS  /tmp/cctOVqwV.s 			page 21


 1129              	PWMD9:
 1130 0000 00000000 		.space	28
 1130      00000000 
 1130      00000000 
 1130      00000000 
 1130      00000000 
 1131              		.text
 1132              	.Letext0:
 1133              		.file 2 "/usr/lib/gcc/arm-none-eabi/5.3.1/include/stddef.h"
 1134              		.file 3 "/usr/arm-none-eabi/include/machine/_default_types.h"
 1135              		.file 4 "/usr/arm-none-eabi/include/sys/_stdint.h"
 1136              		.file 5 "/home/selim/working/ChibiOS/os/rt/ports/ARMCMx/compilers/GCC/chtypes.h"
 1137              		.file 6 "/home/selim/working/ChibiOS/os/rt/include/chsystypes.h"
 1138              		.file 7 "/home/selim/working/ChibiOS/os/rt/include/chschd.h"
 1139              		.file 8 "/home/selim/working/ChibiOS/os/ext/CMSIS/ST/stm32f407xx.h"
 1140              		.file 9 "/home/selim/working/ChibiOS/os/rt/ports/ARMCMx/chcore.h"
 1141              		.file 10 "/home/selim/working/ChibiOS/os/rt/ports/ARMCMx/chcore_v7m.h"
 1142              		.file 11 "/home/selim/working/ChibiOS/os/hal/ports/STM32/LLD/TIMv1/stm32_tim.h"
 1143              		.file 12 "/home/selim/working/ChibiOS/os/rt/include/chtm.h"
 1144              		.file 13 "/home/selim/working/ChibiOS/os/rt/include/chsem.h"
 1145              		.file 14 "/home/selim/working/ChibiOS/os/rt/include/chmtx.h"
 1146              		.file 15 "/home/selim/working/ChibiOS/os/hal/include/pwm.h"
 1147              		.file 16 "/home/selim/working/ChibiOS/os/hal/ports/STM32/LLD/TIMv1/pwm_lld.h"
 1148              		.file 17 "/home/selim/working/ChibiOS/os/ext/CMSIS/include/core_cm4.h"
 1149              		.file 18 "/home/selim/working/ChibiOS/os/hal/ports/common/ARMCMx/nvic.h"