ARM GAS  /tmp/cctOVqwV.s 			page 1


   1              		.syntax unified
   2              		.cpu cortex-m4
   3              		.fpu softvfp
   4              		.eabi_attribute 20, 1
   5              		.eabi_attribute 21, 1
   6              		.eabi_attribute 23, 3
   7              		.eabi_attribute 24, 1
   8              		.eabi_attribute 25, 1
   9              		.eabi_attribute 26, 1
  10              		.eabi_attribute 30, 2
  11              		.eabi_attribute 34, 1
  12              		.eabi_attribute 18, 4
  13              		.thumb
  14              		.syntax unified
  15              		.file	"pwm_lld.c"
  16              		.text
  17              	.Ltext0:
  18              		.cfi_sections	.debug_frame
  19              		.section	.text.pwm_lld_serve_interrupt,"ax",%progbits
  20              		.align	2
  21              		.p2align 4,,15
  22              		.thumb
  23              		.thumb_func
  24              		.type	pwm_lld_serve_interrupt, %function
  25              	pwm_lld_serve_interrupt:
  26              	.LFB258:
  27              		.file 1 "/home/selim/working/ChibiOS/os/hal/ports/STM32/LLD/TIMv1/pwm_lld.c"
  28              		.loc 1 111 0
  29              		.cfi_startproc
  30              		@ args = 0, pretend = 0, frame = 0
  31              		@ frame_needed = 0, uses_anonymous_args = 0
  32              	.LVL0:
  33              		.loc 1 114 0
  34 0000 8369     		ldr	r3, [r0, #24]
  35              		.loc 1 111 0
  36 0002 70B5     		push	{r4, r5, r6, lr}
  37              		.cfi_def_cfa_offset 16
  38              		.cfi_offset 4, -16
  39              		.cfi_offset 5, -12
  40              		.cfi_offset 6, -8
  41              		.cfi_offset 14, -4
  42              		.loc 1 114 0
  43 0004 1C69     		ldr	r4, [r3, #16]
  44              	.LVL1:
  45              		.loc 1 115 0
  46 0006 DA68     		ldr	r2, [r3, #12]
  47 0008 1440     		ands	r4, r4, r2
  48              	.LVL2:
  49              		.loc 1 116 0
  50 000a E2B2     		uxtb	r2, r4
  51 000c D243     		mvns	r2, r2
  52              		.loc 1 117 0
  53 000e A607     		lsls	r6, r4, #30
  54              		.loc 1 111 0
  55 0010 0546     		mov	r5, r0
  56              		.loc 1 116 0
  57 0012 1A61     		str	r2, [r3, #16]
ARM GAS  /tmp/cctOVqwV.s 			page 2


  58              		.loc 1 117 0
  59 0014 03D5     		bpl	.L2
  60              		.loc 1 118 0 discriminator 1
  61 0016 4368     		ldr	r3, [r0, #4]
  62 0018 1B69     		ldr	r3, [r3, #16]
  63              		.loc 1 117 0 discriminator 1
  64 001a 03B1     		cbz	r3, .L2
  65              		.loc 1 119 0
  66 001c 9847     		blx	r3
  67              	.LVL3:
  68              	.L2:
  69              		.loc 1 120 0
  70 001e 6007     		lsls	r0, r4, #29
  71 0020 04D5     		bpl	.L3
  72              		.loc 1 121 0 discriminator 1
  73 0022 6B68     		ldr	r3, [r5, #4]
  74 0024 9B69     		ldr	r3, [r3, #24]
  75              		.loc 1 120 0 discriminator 1
  76 0026 0BB1     		cbz	r3, .L3
  77              		.loc 1 122 0
  78 0028 2846     		mov	r0, r5
  79 002a 9847     		blx	r3
  80              	.LVL4:
  81              	.L3:
  82              		.loc 1 123 0
  83 002c 2107     		lsls	r1, r4, #28
  84 002e 04D5     		bpl	.L4
  85              		.loc 1 124 0 discriminator 1
  86 0030 6B68     		ldr	r3, [r5, #4]
  87 0032 1B6A     		ldr	r3, [r3, #32]
  88              		.loc 1 123 0 discriminator 1
  89 0034 0BB1     		cbz	r3, .L4
  90              		.loc 1 125 0
  91 0036 2846     		mov	r0, r5
  92 0038 9847     		blx	r3
  93              	.LVL5:
  94              	.L4:
  95              		.loc 1 126 0
  96 003a E206     		lsls	r2, r4, #27
  97 003c 04D5     		bpl	.L5
  98              		.loc 1 127 0 discriminator 1
  99 003e 6B68     		ldr	r3, [r5, #4]
 100 0040 9B6A     		ldr	r3, [r3, #40]
 101              		.loc 1 126 0 discriminator 1
 102 0042 0BB1     		cbz	r3, .L5
 103              		.loc 1 128 0
 104 0044 2846     		mov	r0, r5
 105 0046 9847     		blx	r3
 106              	.LVL6:
 107              	.L5:
 108              		.loc 1 129 0
 109 0048 E307     		lsls	r3, r4, #31
 110 004a 06D5     		bpl	.L1
 111              		.loc 1 129 0 is_stmt 0 discriminator 1
 112 004c 6B68     		ldr	r3, [r5, #4]
 113 004e 9B68     		ldr	r3, [r3, #8]
 114 0050 1BB1     		cbz	r3, .L1
ARM GAS  /tmp/cctOVqwV.s 			page 3


 115              		.loc 1 130 0 is_stmt 1
 116 0052 2846     		mov	r0, r5
 117              		.loc 1 131 0
 118 0054 BDE87040 		pop	{r4, r5, r6, lr}
 119              		.cfi_remember_state
 120              		.cfi_restore 14
 121              		.cfi_restore 6
 122              		.cfi_restore 5
 123              		.cfi_restore 4
 124              		.cfi_def_cfa_offset 0
 125              	.LVL7:
 126              		.loc 1 130 0
 127 0058 1847     		bx	r3	@ indirect register sibling call
 128              	.LVL8:
 129              	.L1:
 130              		.cfi_restore_state
 131 005a 70BD     		pop	{r4, r5, r6, pc}
 132              		.cfi_endproc
 133              	.LFE258:
 134              		.size	pwm_lld_serve_interrupt, .-pwm_lld_serve_interrupt
 135              		.section	.text.VectorA4,"ax",%progbits
 136              		.align	2
 137              		.p2align 4,,15
 138              		.global	VectorA4
 139              		.thumb
 140              		.thumb_func
 141              		.type	VectorA4, %function
 142              	VectorA4:
 143              	.LFB259:
 144              		.loc 1 150 0
 145              		.cfi_startproc
 146              		@ args = 0, pretend = 0, frame = 0
 147              		@ frame_needed = 0, uses_anonymous_args = 0
 148              		.loc 1 155 0
 149 0000 0648     		ldr	r0, .L45
 150              		.loc 1 154 0
 151 0002 074A     		ldr	r2, .L45+4
 152              		.loc 1 150 0
 153 0004 08B5     		push	{r3, lr}
 154              		.cfi_def_cfa_offset 8
 155              		.cfi_offset 3, -8
 156              		.cfi_offset 14, -4
 157              		.loc 1 155 0
 158 0006 4368     		ldr	r3, [r0, #4]
 159 0008 9B68     		ldr	r3, [r3, #8]
 160              		.loc 1 154 0
 161 000a 6FF00101 		mvn	r1, #1
 162 000e 1161     		str	r1, [r2, #16]
 163              		.loc 1 155 0
 164 0010 03B1     		cbz	r3, .L40
 165              		.loc 1 156 0
 166 0012 9847     		blx	r3
 167              	.LVL9:
 168              	.L40:
 169              		.loc 1 159 0
 170 0014 BDE80840 		pop	{r3, lr}
 171              		.cfi_restore 14
ARM GAS  /tmp/cctOVqwV.s 			page 4


 172              		.cfi_restore 3
 173              		.cfi_def_cfa_offset 0
 174              		.loc 1 158 0
 175 0018 FFF7FEBF 		b	_port_irq_epilogue
 176              	.LVL10:
 177              	.L46:
 178              		.align	2
 179              	.L45:
 180 001c 00000000 		.word	.LANCHOR0
 181 0020 00000140 		.word	1073807360
 182              		.cfi_endproc
 183              	.LFE259:
 184              		.size	VectorA4, .-VectorA4
 185              		.section	.text.VectorAC,"ax",%progbits
 186              		.align	2
 187              		.p2align 4,,15
 188              		.global	VectorAC
 189              		.thumb
 190              		.thumb_func
 191              		.type	VectorAC, %function
 192              	VectorAC:
 193              	.LFB260:
 194              		.loc 1 172 0
 195              		.cfi_startproc
 196              		@ args = 0, pretend = 0, frame = 0
 197              		@ frame_needed = 0, uses_anonymous_args = 0
 198              		.loc 1 177 0
 199 0000 144B     		ldr	r3, .L77
 200              		.loc 1 172 0
 201 0002 10B5     		push	{r4, lr}
 202              		.cfi_def_cfa_offset 8
 203              		.cfi_offset 4, -8
 204              		.cfi_offset 14, -4
 205              		.loc 1 177 0
 206 0004 1C69     		ldr	r4, [r3, #16]
 207 0006 DA68     		ldr	r2, [r3, #12]
 208 0008 1440     		ands	r4, r4, r2
 209              	.LVL11:
 210              		.loc 1 181 0
 211 000a 04F01E02 		and	r2, r4, #30
 212              	.LVL12:
 213 000e D243     		mvns	r2, r2
 214              	.LVL13:
 215              		.loc 1 182 0
 216 0010 A007     		lsls	r0, r4, #30
 217              		.loc 1 181 0
 218 0012 1A61     		str	r2, [r3, #16]
 219              		.loc 1 182 0
 220 0014 04D5     		bpl	.L48
 221              		.loc 1 183 0 discriminator 1
 222 0016 1048     		ldr	r0, .L77+4
 223 0018 4368     		ldr	r3, [r0, #4]
 224 001a 1B69     		ldr	r3, [r3, #16]
 225              		.loc 1 182 0 discriminator 1
 226 001c 03B1     		cbz	r3, .L48
 227              		.loc 1 184 0
 228 001e 9847     		blx	r3
ARM GAS  /tmp/cctOVqwV.s 			page 5


 229              	.LVL14:
 230              	.L48:
 231              		.loc 1 185 0
 232 0020 6107     		lsls	r1, r4, #29
 233 0022 04D5     		bpl	.L49
 234              		.loc 1 186 0 discriminator 1
 235 0024 0C48     		ldr	r0, .L77+4
 236 0026 4368     		ldr	r3, [r0, #4]
 237 0028 9B69     		ldr	r3, [r3, #24]
 238              		.loc 1 185 0 discriminator 1
 239 002a 03B1     		cbz	r3, .L49
 240              		.loc 1 187 0
 241 002c 9847     		blx	r3
 242              	.LVL15:
 243              	.L49:
 244              		.loc 1 188 0
 245 002e 2207     		lsls	r2, r4, #28
 246 0030 04D5     		bpl	.L50
 247              		.loc 1 189 0 discriminator 1
 248 0032 0948     		ldr	r0, .L77+4
 249 0034 4368     		ldr	r3, [r0, #4]
 250 0036 1B6A     		ldr	r3, [r3, #32]
 251              		.loc 1 188 0 discriminator 1
 252 0038 03B1     		cbz	r3, .L50
 253              		.loc 1 190 0
 254 003a 9847     		blx	r3
 255              	.LVL16:
 256              	.L50:
 257              		.loc 1 191 0
 258 003c E306     		lsls	r3, r4, #27
 259 003e 04D5     		bpl	.L51
 260              		.loc 1 192 0 discriminator 1
 261 0040 0548     		ldr	r0, .L77+4
 262 0042 4368     		ldr	r3, [r0, #4]
 263 0044 9B6A     		ldr	r3, [r3, #40]
 264              		.loc 1 191 0 discriminator 1
 265 0046 03B1     		cbz	r3, .L51
 266              		.loc 1 193 0
 267 0048 9847     		blx	r3
 268              	.LVL17:
 269              	.L51:
 270              		.loc 1 196 0
 271 004a BDE81040 		pop	{r4, lr}
 272              		.cfi_restore 14
 273              		.cfi_restore 4
 274              		.cfi_def_cfa_offset 0
 275              	.LVL18:
 276              		.loc 1 195 0
 277 004e FFF7FEBF 		b	_port_irq_epilogue
 278              	.LVL19:
 279              	.L78:
 280 0052 00BF     		.align	2
 281              	.L77:
 282 0054 00000140 		.word	1073807360
 283 0058 00000000 		.word	.LANCHOR0
 284              		.cfi_endproc
 285              	.LFE260:
ARM GAS  /tmp/cctOVqwV.s 			page 6


 286              		.size	VectorAC, .-VectorAC
 287              		.section	.text.VectorB4,"ax",%progbits
 288              		.align	2
 289              		.p2align 4,,15
 290              		.global	VectorB4
 291              		.thumb
 292              		.thumb_func
 293              		.type	VectorB4, %function
 294              	VectorB4:
 295              	.LFB261:
 296              		.loc 1 227 0
 297              		.cfi_startproc
 298              		@ args = 0, pretend = 0, frame = 0
 299              		@ frame_needed = 0, uses_anonymous_args = 0
 300 0000 08B5     		push	{r3, lr}
 301              		.cfi_def_cfa_offset 8
 302              		.cfi_offset 3, -8
 303              		.cfi_offset 14, -4
 304              		.loc 1 231 0
 305 0002 0348     		ldr	r0, .L81
 306 0004 FFF7FEFF 		bl	pwm_lld_serve_interrupt
 307              	.LVL20:
 308              		.loc 1 234 0
 309 0008 BDE80840 		pop	{r3, lr}
 310              		.cfi_restore 14
 311              		.cfi_restore 3
 312              		.cfi_def_cfa_offset 0
 313              		.loc 1 233 0
 314 000c FFF7FEBF 		b	_port_irq_epilogue
 315              	.LVL21:
 316              	.L82:
 317              		.align	2
 318              	.L81:
 319 0010 00000000 		.word	.LANCHOR1
 320              		.cfi_endproc
 321              	.LFE261:
 322              		.size	VectorB4, .-VectorB4
 323              		.section	.text.Vector108,"ax",%progbits
 324              		.align	2
 325              		.p2align 4,,15
 326              		.global	Vector108
 327              		.thumb
 328              		.thumb_func
 329              		.type	Vector108, %function
 330              	Vector108:
 331              	.LFB262:
 332              		.loc 1 265 0
 333              		.cfi_startproc
 334              		@ args = 0, pretend = 0, frame = 0
 335              		@ frame_needed = 0, uses_anonymous_args = 0
 336 0000 08B5     		push	{r3, lr}
 337              		.cfi_def_cfa_offset 8
 338              		.cfi_offset 3, -8
 339              		.cfi_offset 14, -4
 340              		.loc 1 269 0
 341 0002 0348     		ldr	r0, .L85
 342 0004 FFF7FEFF 		bl	pwm_lld_serve_interrupt
ARM GAS  /tmp/cctOVqwV.s 			page 7


 343              	.LVL22:
 344              		.loc 1 272 0
 345 0008 BDE80840 		pop	{r3, lr}
 346              		.cfi_restore 14
 347              		.cfi_restore 3
 348              		.cfi_def_cfa_offset 0
 349              		.loc 1 271 0
 350 000c FFF7FEBF 		b	_port_irq_epilogue
 351              	.LVL23:
 352              	.L86:
 353              		.align	2
 354              	.L85:
 355 0010 00000000 		.word	.LANCHOR2
 356              		.cfi_endproc
 357              	.LFE262:
 358              		.size	Vector108, .-Vector108
 359              		.section	.text.VectorA0,"ax",%progbits
 360              		.align	2
 361              		.p2align 4,,15
 362              		.global	VectorA0
 363              		.thumb
 364              		.thumb_func
 365              		.type	VectorA0, %function
 366              	VectorA0:
 367              	.LFB263:
 368              		.loc 1 345 0
 369              		.cfi_startproc
 370              		@ args = 0, pretend = 0, frame = 0
 371              		@ frame_needed = 0, uses_anonymous_args = 0
 372 0000 08B5     		push	{r3, lr}
 373              		.cfi_def_cfa_offset 8
 374              		.cfi_offset 3, -8
 375              		.cfi_offset 14, -4
 376              		.loc 1 349 0
 377 0002 0348     		ldr	r0, .L89
 378 0004 FFF7FEFF 		bl	pwm_lld_serve_interrupt
 379              	.LVL24:
 380              		.loc 1 352 0
 381 0008 BDE80840 		pop	{r3, lr}
 382              		.cfi_restore 14
 383              		.cfi_restore 3
 384              		.cfi_def_cfa_offset 0
 385              		.loc 1 351 0
 386 000c FFF7FEBF 		b	_port_irq_epilogue
 387              	.LVL25:
 388              	.L90:
 389              		.align	2
 390              	.L89:
 391 0010 00000000 		.word	.LANCHOR3
 392              		.cfi_endproc
 393              	.LFE263:
 394              		.size	VectorA0, .-VectorA0
 395              		.section	.text.pwm_lld_init,"ax",%progbits
 396              		.align	2
 397              		.p2align 4,,15
 398              		.global	pwm_lld_init
 399              		.thumb
ARM GAS  /tmp/cctOVqwV.s 			page 8


 400              		.thumb_func
 401              		.type	pwm_lld_init, %function
 402              	pwm_lld_init:
 403              	.LFB264:
 404              		.loc 1 364 0
 405              		.cfi_startproc
 406              		@ args = 0, pretend = 0, frame = 0
 407              		@ frame_needed = 0, uses_anonymous_args = 0
 408 0000 2DE9F041 		push	{r4, r5, r6, r7, r8, lr}
 409              		.cfi_def_cfa_offset 24
 410              		.cfi_offset 4, -24
 411              		.cfi_offset 5, -20
 412              		.cfi_offset 6, -16
 413              		.cfi_offset 7, -12
 414              		.cfi_offset 8, -8
 415              		.cfi_offset 14, -4
 416              		.loc 1 368 0
 417 0004 DFF86080 		ldr	r8, .L93+28
 418              		.loc 1 382 0
 419 0008 104F     		ldr	r7, .L93
 420              		.loc 1 396 0
 421 000a 114D     		ldr	r5, .L93+4
 422              		.loc 1 410 0
 423 000c 114C     		ldr	r4, .L93+8
 424              		.loc 1 368 0
 425 000e 4046     		mov	r0, r8
 426 0010 FFF7FEFF 		bl	pwmObjectInit
 427              	.LVL26:
 428              		.loc 1 369 0
 429 0014 0426     		movs	r6, #4
 430              		.loc 1 370 0
 431 0016 104B     		ldr	r3, .L93+12
 432 0018 C8F81830 		str	r3, [r8, #24]
 433              		.loc 1 382 0
 434 001c 3846     		mov	r0, r7
 435              		.loc 1 369 0
 436 001e 88F81060 		strb	r6, [r8, #16]
 437              		.loc 1 382 0
 438 0022 FFF7FEFF 		bl	pwmObjectInit
 439              	.LVL27:
 440              		.loc 1 384 0
 441 0026 0D4B     		ldr	r3, .L93+16
 442 0028 BB61     		str	r3, [r7, #24]
 443              		.loc 1 396 0
 444 002a 2846     		mov	r0, r5
 445              		.loc 1 383 0
 446 002c 3E74     		strb	r6, [r7, #16]
 447              		.loc 1 396 0
 448 002e FFF7FEFF 		bl	pwmObjectInit
 449              	.LVL28:
 450              		.loc 1 398 0
 451 0032 0B4B     		ldr	r3, .L93+20
 452 0034 AB61     		str	r3, [r5, #24]
 453              		.loc 1 410 0
 454 0036 2046     		mov	r0, r4
 455              		.loc 1 397 0
 456 0038 2E74     		strb	r6, [r5, #16]
ARM GAS  /tmp/cctOVqwV.s 			page 9


 457              		.loc 1 410 0
 458 003a FFF7FEFF 		bl	pwmObjectInit
 459              	.LVL29:
 460              		.loc 1 411 0
 461 003e 0222     		movs	r2, #2
 462              		.loc 1 412 0
 463 0040 084B     		ldr	r3, .L93+24
 464              		.loc 1 411 0
 465 0042 2274     		strb	r2, [r4, #16]
 466              		.loc 1 412 0
 467 0044 A361     		str	r3, [r4, #24]
 468 0046 BDE8F081 		pop	{r4, r5, r6, r7, r8, pc}
 469              	.L94:
 470 004a 00BF     		.align	2
 471              	.L93:
 472 004c 00000000 		.word	.LANCHOR1
 473 0050 00000000 		.word	.LANCHOR2
 474 0054 00000000 		.word	.LANCHOR3
 475 0058 00000140 		.word	1073807360
 476 005c 00040040 		.word	1073742848
 477 0060 000C0040 		.word	1073744896
 478 0064 00400140 		.word	1073823744
 479 0068 00000000 		.word	.LANCHOR0
 480              		.cfi_endproc
 481              	.LFE264:
 482              		.size	pwm_lld_init, .-pwm_lld_init
 483              		.section	.text.pwm_lld_start,"ax",%progbits
 484              		.align	2
 485              		.p2align 4,,15
 486              		.global	pwm_lld_start
 487              		.thumb
 488              		.thumb_func
 489              		.type	pwm_lld_start, %function
 490              	pwm_lld_start:
 491              	.LFB265:
 492              		.loc 1 425 0
 493              		.cfi_startproc
 494              		@ args = 0, pretend = 0, frame = 0
 495              		@ frame_needed = 0, uses_anonymous_args = 0
 496              	.LVL30:
 497 0000 F8B5     		push	{r3, r4, r5, r6, r7, lr}
 498              		.cfi_def_cfa_offset 24
 499              		.cfi_offset 3, -24
 500              		.cfi_offset 4, -20
 501              		.cfi_offset 5, -16
 502              		.cfi_offset 6, -12
 503              		.cfi_offset 7, -8
 504              		.cfi_offset 14, -4
 505              		.loc 1 429 0
 506 0002 0378     		ldrb	r3, [r0]	@ zero_extendqisi2
 507 0004 012B     		cmp	r3, #1
 508              		.loc 1 425 0
 509 0006 0446     		mov	r4, r0
 510              		.loc 1 429 0
 511 0008 4ED0     		beq	.L126
 512              		.loc 1 512 0
 513 000a 8369     		ldr	r3, [r0, #24]
ARM GAS  /tmp/cctOVqwV.s 			page 10


 514 000c 0022     		movs	r2, #0
 515 000e 1A60     		str	r2, [r3]
 516              		.loc 1 513 0
 517 0010 5A63     		str	r2, [r3, #52]
 518              		.loc 1 514 0
 519 0012 9A63     		str	r2, [r3, #56]
 520              		.loc 1 515 0
 521 0014 DA63     		str	r2, [r3, #60]
 522              		.loc 1 516 0
 523 0016 1A64     		str	r2, [r3, #64]
 524              		.loc 1 523 0
 525 0018 5A62     		str	r2, [r3, #36]
 526              	.LVL31:
 527              	.L101:
 528              		.loc 1 527 0
 529 001a 6168     		ldr	r1, [r4, #4]
 530              		.loc 1 532 0
 531 001c A568     		ldr	r5, [r4, #8]
 532              		.loc 1 537 0
 533 001e CA68     		ldr	r2, [r1, #12]
 534              		.loc 1 527 0
 535 0020 6069     		ldr	r0, [r4, #20]
 536 0022 0F68     		ldr	r7, [r1]
 537              		.loc 1 533 0
 538 0024 CE6A     		ldr	r6, [r1, #44]
 539              		.loc 1 527 0
 540 0026 B0FBF7F0 		udiv	r0, r0, r7
 541              		.loc 1 537 0
 542 002a 02F00F02 		and	r2, r2, #15
 543              		.loc 1 532 0
 544 002e 6C1E     		subs	r4, r5, #1
 545              	.LVL32:
 546              		.loc 1 527 0
 547 0030 0138     		subs	r0, r0, #1
 548              	.LVL33:
 549              		.loc 1 537 0
 550 0032 012A     		cmp	r2, #1
 551              		.loc 1 531 0
 552 0034 9862     		str	r0, [r3, #40]
 553              		.loc 1 532 0
 554 0036 DC62     		str	r4, [r3, #44]
 555              		.loc 1 533 0
 556 0038 5E60     		str	r6, [r3, #4]
 557              	.LVL34:
 558              		.loc 1 537 0
 559 003a 03D0     		beq	.L102
 560              		.loc 1 536 0
 561 003c 022A     		cmp	r2, #2
 562 003e 0CBF     		ite	eq
 563 0040 0322     		moveq	r2, #3
 564 0042 0022     		movne	r2, #0
 565              	.L102:
 566              	.LVL35:
 567              		.loc 1 545 0
 568 0044 4869     		ldr	r0, [r1, #20]
 569              	.LVL36:
 570 0046 00F00F00 		and	r0, r0, #15
ARM GAS  /tmp/cctOVqwV.s 			page 11


 571 004a 0128     		cmp	r0, #1
 572 004c 29D0     		beq	.L106
 573 004e 0228     		cmp	r0, #2
 574 0050 25D0     		beq	.L127
 575              	.L105:
 576              		.loc 1 553 0
 577 0052 C869     		ldr	r0, [r1, #28]
 578 0054 00F00F00 		and	r0, r0, #15
 579 0058 0128     		cmp	r0, #1
 580 005a 1DD0     		beq	.L109
 581 005c 0228     		cmp	r0, #2
 582 005e 19D0     		beq	.L128
 583              	.L108:
 584              		.loc 1 561 0
 585 0060 486A     		ldr	r0, [r1, #36]
 586 0062 00F00F00 		and	r0, r0, #15
 587 0066 0128     		cmp	r0, #1
 588 0068 03D0     		beq	.L112
 589 006a 0228     		cmp	r0, #2
 590 006c 03D1     		bne	.L111
 591              		.loc 1 563 0
 592 006e 42F40052 		orr	r2, r2, #8192
 593              	.LVL37:
 594              	.L112:
 595              		.loc 1 565 0
 596 0072 42F48052 		orr	r2, r2, #4096
 597              	.LVL38:
 598              	.L111:
 599              		.loc 1 609 0
 600 0076 096B     		ldr	r1, [r1, #48]
 601              		.loc 1 606 0
 602 0078 1A62     		str	r2, [r3, #32]
 603              		.loc 1 607 0
 604 007a 0125     		movs	r5, #1
 605              		.loc 1 609 0
 606 007c 21F0FF02 		bic	r2, r1, #255
 607              	.LVL39:
 608              		.loc 1 608 0
 609 0080 0024     		movs	r4, #0
 610              		.loc 1 615 0
 611 0082 4FF40040 		mov	r0, #32768
 612              		.loc 1 619 0
 613 0086 8521     		movs	r1, #133
 614              		.loc 1 607 0
 615 0088 5D61     		str	r5, [r3, #20]
 616              	.LVL40:
 617              		.loc 1 608 0
 618 008a 1C61     		str	r4, [r3, #16]
 619              		.loc 1 609 0
 620 008c DA60     		str	r2, [r3, #12]
 621              		.loc 1 615 0
 622 008e 5864     		str	r0, [r3, #68]
 623              		.loc 1 619 0
 624 0090 1960     		str	r1, [r3]
 625 0092 F8BD     		pop	{r3, r4, r5, r6, r7, pc}
 626              	.LVL41:
 627              	.L128:
ARM GAS  /tmp/cctOVqwV.s 			page 12


 628              		.loc 1 555 0
 629 0094 42F40072 		orr	r2, r2, #512
 630              	.LVL42:
 631              	.L109:
 632              		.loc 1 557 0
 633 0098 42F48072 		orr	r2, r2, #256
 634              	.LVL43:
 635 009c E0E7     		b	.L108
 636              	.L127:
 637              		.loc 1 547 0
 638 009e 42F02002 		orr	r2, r2, #32
 639              	.LVL44:
 640              	.L106:
 641              		.loc 1 549 0
 642 00a2 42F01002 		orr	r2, r2, #16
 643              	.LVL45:
 644 00a6 D4E7     		b	.L105
 645              	.LVL46:
 646              	.L126:
 647              		.loc 1 432 0
 648 00a8 2E4B     		ldr	r3, .L133
 649 00aa 9842     		cmp	r0, r3
 650 00ac 0ED0     		beq	.L129
 651              		.loc 1 453 0
 652 00ae 2E4B     		ldr	r3, .L133+4
 653 00b0 9842     		cmp	r0, r3
 654 00b2 21D0     		beq	.L130
 655              		.loc 1 470 0
 656 00b4 2D4B     		ldr	r3, .L133+8
 657 00b6 9842     		cmp	r0, r3
 658 00b8 30D0     		beq	.L131
 659              		.loc 1 491 0
 660 00ba 2D4B     		ldr	r3, .L133+12
 661 00bc 9842     		cmp	r0, r3
 662 00be 3FD0     		beq	.L132
 663              	.LVL47:
 664              	.L98:
 665              		.loc 1 501 0
 666 00c0 A369     		ldr	r3, [r4, #24]
 667 00c2 46F66802 		movw	r2, #26728
 668 00c6 9A61     		str	r2, [r3, #24]
 669              		.loc 1 503 0
 670 00c8 DA61     		str	r2, [r3, #28]
 671 00ca A6E7     		b	.L101
 672              	.LVL48:
 673              	.L129:
 674              		.loc 1 433 0
 675 00cc 294B     		ldr	r3, .L133+16
 676 00ce 5A6C     		ldr	r2, [r3, #68]
 677 00d0 42F00102 		orr	r2, r2, #1
 678 00d4 5A64     		str	r2, [r3, #68]
 679              		.loc 1 434 0
 680 00d6 5A6A     		ldr	r2, [r3, #36]
 681 00d8 0020     		movs	r0, #0
 682              	.LVL49:
 683 00da 42F00102 		orr	r2, r2, #1
 684 00de 5A62     		str	r2, [r3, #36]
ARM GAS  /tmp/cctOVqwV.s 			page 13


 685              		.loc 1 435 0
 686 00e0 0721     		movs	r1, #7
 687              		.loc 1 434 0
 688 00e2 5862     		str	r0, [r3, #36]
 689              		.loc 1 435 0
 690 00e4 1920     		movs	r0, #25
 691 00e6 FFF7FEFF 		bl	nvicEnableVector
 692              	.LVL50:
 693              		.loc 1 436 0
 694 00ea 0721     		movs	r1, #7
 695 00ec 1B20     		movs	r0, #27
 696 00ee FFF7FEFF 		bl	nvicEnableVector
 697              	.LVL51:
 698              		.loc 1 440 0
 699 00f2 214B     		ldr	r3, .L133+20
 700 00f4 6361     		str	r3, [r4, #20]
 701 00f6 E3E7     		b	.L98
 702              	.LVL52:
 703              	.L130:
 704              		.loc 1 454 0
 705 00f8 1E4B     		ldr	r3, .L133+16
 706 00fa 1A6C     		ldr	r2, [r3, #64]
 707 00fc 42F00202 		orr	r2, r2, #2
 708 0100 1A64     		str	r2, [r3, #64]
 709              		.loc 1 455 0
 710 0102 1A6A     		ldr	r2, [r3, #32]
 711 0104 0020     		movs	r0, #0
 712              	.LVL53:
 713 0106 42F00202 		orr	r2, r2, #2
 714 010a 1A62     		str	r2, [r3, #32]
 715              		.loc 1 456 0
 716 010c 0721     		movs	r1, #7
 717              		.loc 1 455 0
 718 010e 1862     		str	r0, [r3, #32]
 719              		.loc 1 456 0
 720 0110 1D20     		movs	r0, #29
 721 0112 FFF7FEFF 		bl	nvicEnableVector
 722              	.LVL54:
 723              		.loc 1 457 0
 724 0116 194B     		ldr	r3, .L133+24
 725 0118 6361     		str	r3, [r4, #20]
 726 011a D1E7     		b	.L98
 727              	.LVL55:
 728              	.L131:
 729              		.loc 1 471 0
 730 011c 154B     		ldr	r3, .L133+16
 731 011e 1A6C     		ldr	r2, [r3, #64]
 732 0120 42F00802 		orr	r2, r2, #8
 733 0124 1A64     		str	r2, [r3, #64]
 734              		.loc 1 472 0
 735 0126 1A6A     		ldr	r2, [r3, #32]
 736 0128 0020     		movs	r0, #0
 737              	.LVL56:
 738 012a 42F00802 		orr	r2, r2, #8
 739 012e 1A62     		str	r2, [r3, #32]
 740              		.loc 1 473 0
 741 0130 0721     		movs	r1, #7
ARM GAS  /tmp/cctOVqwV.s 			page 14


 742              		.loc 1 472 0
 743 0132 1862     		str	r0, [r3, #32]
 744              		.loc 1 473 0
 745 0134 3220     		movs	r0, #50
 746 0136 FFF7FEFF 		bl	nvicEnableVector
 747              	.LVL57:
 748              		.loc 1 474 0
 749 013a 104B     		ldr	r3, .L133+24
 750 013c 6361     		str	r3, [r4, #20]
 751 013e BFE7     		b	.L98
 752              	.LVL58:
 753              	.L132:
 754              		.loc 1 492 0
 755 0140 0C4B     		ldr	r3, .L133+16
 756 0142 5A6C     		ldr	r2, [r3, #68]
 757 0144 42F48032 		orr	r2, r2, #65536
 758 0148 5A64     		str	r2, [r3, #68]
 759              		.loc 1 493 0
 760 014a 5A6A     		ldr	r2, [r3, #36]
 761 014c 0020     		movs	r0, #0
 762              	.LVL59:
 763 014e 42F48032 		orr	r2, r2, #65536
 764 0152 5A62     		str	r2, [r3, #36]
 765              		.loc 1 494 0
 766 0154 0721     		movs	r1, #7
 767              		.loc 1 493 0
 768 0156 5862     		str	r0, [r3, #36]
 769              		.loc 1 494 0
 770 0158 1820     		movs	r0, #24
 771 015a FFF7FEFF 		bl	nvicEnableVector
 772              	.LVL60:
 773              		.loc 1 495 0
 774 015e 064B     		ldr	r3, .L133+20
 775 0160 6361     		str	r3, [r4, #20]
 776 0162 ADE7     		b	.L98
 777              	.L134:
 778              		.align	2
 779              	.L133:
 780 0164 00000000 		.word	.LANCHOR0
 781 0168 00000000 		.word	.LANCHOR1
 782 016c 00000000 		.word	.LANCHOR2
 783 0170 00000000 		.word	.LANCHOR3
 784 0174 00380240 		.word	1073887232
 785 0178 007A030A 		.word	168000000
 786 017c 00BD0105 		.word	84000000
 787              		.cfi_endproc
 788              	.LFE265:
 789              		.size	pwm_lld_start, .-pwm_lld_start
 790              		.section	.text.pwm_lld_stop,"ax",%progbits
 791              		.align	2
 792              		.p2align 4,,15
 793              		.global	pwm_lld_stop
 794              		.thumb
 795              		.thumb_func
 796              		.type	pwm_lld_stop, %function
 797              	pwm_lld_stop:
 798              	.LFB266:
ARM GAS  /tmp/cctOVqwV.s 			page 15


 799              		.loc 1 630 0
 800              		.cfi_startproc
 801              		@ args = 0, pretend = 0, frame = 0
 802              		@ frame_needed = 0, uses_anonymous_args = 0
 803              	.LVL61:
 804 0000 08B5     		push	{r3, lr}
 805              		.cfi_def_cfa_offset 8
 806              		.cfi_offset 3, -8
 807              		.cfi_offset 14, -4
 808              		.loc 1 633 0
 809 0002 0378     		ldrb	r3, [r0]	@ zero_extendqisi2
 810 0004 022B     		cmp	r3, #2
 811 0006 00D0     		beq	.L143
 812              	.LVL62:
 813              	.L135:
 814 0008 08BD     		pop	{r3, pc}
 815              	.LVL63:
 816              	.L143:
 817              		.loc 1 642 0
 818 000a 1C49     		ldr	r1, .L147
 819              		.loc 1 634 0
 820 000c 8369     		ldr	r3, [r0, #24]
 821 000e 0022     		movs	r2, #0
 822              		.loc 1 642 0
 823 0010 8842     		cmp	r0, r1
 824              		.loc 1 634 0
 825 0012 1A60     		str	r2, [r3]
 826              		.loc 1 635 0
 827 0014 DA60     		str	r2, [r3, #12]
 828              		.loc 1 636 0
 829 0016 1A61     		str	r2, [r3, #16]
 830              		.loc 1 638 0
 831 0018 5A64     		str	r2, [r3, #68]
 832              		.loc 1 642 0
 833 001a 11D0     		beq	.L144
 834              		.loc 1 655 0
 835 001c 184B     		ldr	r3, .L147+4
 836 001e 9842     		cmp	r0, r3
 837 0020 1AD0     		beq	.L145
 838              		.loc 1 667 0
 839 0022 184B     		ldr	r3, .L147+8
 840 0024 9842     		cmp	r0, r3
 841 0026 20D0     		beq	.L146
 842              		.loc 1 680 0
 843 0028 174B     		ldr	r3, .L147+12
 844 002a 9842     		cmp	r0, r3
 845 002c ECD1     		bne	.L135
 846              		.loc 1 681 0
 847 002e 1820     		movs	r0, #24
 848              	.LVL64:
 849 0030 FFF7FEFF 		bl	nvicDisableVector
 850              	.LVL65:
 851              		.loc 1 682 0
 852 0034 154A     		ldr	r2, .L147+16
 853 0036 536C     		ldr	r3, [r2, #68]
 854 0038 23F48033 		bic	r3, r3, #65536
 855 003c 5364     		str	r3, [r2, #68]
ARM GAS  /tmp/cctOVqwV.s 			page 16


 856              		.loc 1 686 0
 857 003e E3E7     		b	.L135
 858              	.LVL66:
 859              	.L144:
 860              		.loc 1 643 0
 861 0040 1920     		movs	r0, #25
 862              	.LVL67:
 863 0042 FFF7FEFF 		bl	nvicDisableVector
 864              	.LVL68:
 865              		.loc 1 644 0
 866 0046 1B20     		movs	r0, #27
 867 0048 FFF7FEFF 		bl	nvicDisableVector
 868              	.LVL69:
 869              		.loc 1 645 0
 870 004c 0F4A     		ldr	r2, .L147+16
 871 004e 536C     		ldr	r3, [r2, #68]
 872 0050 23F00103 		bic	r3, r3, #1
 873 0054 5364     		str	r3, [r2, #68]
 874 0056 08BD     		pop	{r3, pc}
 875              	.LVL70:
 876              	.L145:
 877              		.loc 1 656 0
 878 0058 1D20     		movs	r0, #29
 879              	.LVL71:
 880 005a FFF7FEFF 		bl	nvicDisableVector
 881              	.LVL72:
 882              		.loc 1 657 0
 883 005e 0B4A     		ldr	r2, .L147+16
 884 0060 136C     		ldr	r3, [r2, #64]
 885 0062 23F00203 		bic	r3, r3, #2
 886 0066 1364     		str	r3, [r2, #64]
 887 0068 08BD     		pop	{r3, pc}
 888              	.LVL73:
 889              	.L146:
 890              		.loc 1 668 0
 891 006a 3220     		movs	r0, #50
 892              	.LVL74:
 893 006c FFF7FEFF 		bl	nvicDisableVector
 894              	.LVL75:
 895              		.loc 1 669 0
 896 0070 064A     		ldr	r2, .L147+16
 897 0072 136C     		ldr	r3, [r2, #64]
 898 0074 23F00803 		bic	r3, r3, #8
 899 0078 1364     		str	r3, [r2, #64]
 900 007a 08BD     		pop	{r3, pc}
 901              	.L148:
 902              		.align	2
 903              	.L147:
 904 007c 00000000 		.word	.LANCHOR0
 905 0080 00000000 		.word	.LANCHOR1
 906 0084 00000000 		.word	.LANCHOR2
 907 0088 00000000 		.word	.LANCHOR3
 908 008c 00380240 		.word	1073887232
 909              		.cfi_endproc
 910              	.LFE266:
 911              		.size	pwm_lld_stop, .-pwm_lld_stop
 912              		.section	.text.pwm_lld_enable_channel,"ax",%progbits
ARM GAS  /tmp/cctOVqwV.s 			page 17


 913              		.align	2
 914              		.p2align 4,,15
 915              		.global	pwm_lld_enable_channel
 916              		.thumb
 917              		.thumb_func
 918              		.type	pwm_lld_enable_channel, %function
 919              	pwm_lld_enable_channel:
 920              	.LFB267:
 921              		.loc 1 703 0
 922              		.cfi_startproc
 923              		@ args = 0, pretend = 0, frame = 0
 924              		@ frame_needed = 0, uses_anonymous_args = 0
 925              		@ link register save eliminated.
 926              	.LVL76:
 927              		.loc 1 707 0
 928 0000 8369     		ldr	r3, [r0, #24]
 929 0002 0C31     		adds	r1, r1, #12
 930              	.LVL77:
 931 0004 03EB8103 		add	r3, r3, r1, lsl #2
 932 0008 5A60     		str	r2, [r3, #4]
 933 000a 7047     		bx	lr
 934              		.cfi_endproc
 935              	.LFE267:
 936              		.size	pwm_lld_enable_channel, .-pwm_lld_enable_channel
 937              		.section	.text.pwm_lld_disable_channel,"ax",%progbits
 938              		.align	2
 939              		.p2align 4,,15
 940              		.global	pwm_lld_disable_channel
 941              		.thumb
 942              		.thumb_func
 943              		.type	pwm_lld_disable_channel, %function
 944              	pwm_lld_disable_channel:
 945              	.LFB268:
 946              		.loc 1 728 0
 947              		.cfi_startproc
 948              		@ args = 0, pretend = 0, frame = 0
 949              		@ frame_needed = 0, uses_anonymous_args = 0
 950              		@ link register save eliminated.
 951              	.LVL78:
 952              		.loc 1 731 0
 953 0000 8369     		ldr	r3, [r0, #24]
 954 0002 01F10C02 		add	r2, r1, #12
 955 0006 03EB8202 		add	r2, r3, r2, lsl #2
 956 000a 0020     		movs	r0, #0
 957              	.LVL79:
 958 000c 5060     		str	r0, [r2, #4]
 959              		.loc 1 732 0
 960 000e DA68     		ldr	r2, [r3, #12]
 961 0010 0220     		movs	r0, #2
 962 0012 00FA01F1 		lsl	r1, r0, r1
 963              	.LVL80:
 964 0016 22EA0101 		bic	r1, r2, r1
 965 001a D960     		str	r1, [r3, #12]
 966 001c 7047     		bx	lr
 967              		.cfi_endproc
 968              	.LFE268:
 969              		.size	pwm_lld_disable_channel, .-pwm_lld_disable_channel
ARM GAS  /tmp/cctOVqwV.s 			page 18


 970 001e 00BF     		.section	.text.pwm_lld_enable_periodic_notification,"ax",%progbits
 971              		.align	2
 972              		.p2align 4,,15
 973              		.global	pwm_lld_enable_periodic_notification
 974              		.thumb
 975              		.thumb_func
 976              		.type	pwm_lld_enable_periodic_notification, %function
 977              	pwm_lld_enable_periodic_notification:
 978              	.LFB269:
 979              		.loc 1 752 0
 980              		.cfi_startproc
 981              		@ args = 0, pretend = 0, frame = 0
 982              		@ frame_needed = 0, uses_anonymous_args = 0
 983              		@ link register save eliminated.
 984              	.LVL81:
 985              		.loc 1 753 0
 986 0000 8369     		ldr	r3, [r0, #24]
 987 0002 DA68     		ldr	r2, [r3, #12]
 988              	.LVL82:
 989              		.loc 1 757 0
 990 0004 D107     		lsls	r1, r2, #31
 991 0006 06D4     		bmi	.L151
 992              		.loc 1 758 0
 993 0008 42F00102 		orr	r2, r2, #1
 994              	.LVL83:
 995 000c DA60     		str	r2, [r3, #12]
 996              		.loc 1 759 0
 997 000e 1A69     		ldr	r2, [r3, #16]
 998 0010 02F00102 		and	r2, r2, #1
 999 0014 1A61     		str	r2, [r3, #16]
 1000              	.L151:
 1001 0016 7047     		bx	lr
 1002              		.cfi_endproc
 1003              	.LFE269:
 1004              		.size	pwm_lld_enable_periodic_notification, .-pwm_lld_enable_periodic_notification
 1005              		.section	.text.pwm_lld_disable_periodic_notification,"ax",%progbits
 1006              		.align	2
 1007              		.p2align 4,,15
 1008              		.global	pwm_lld_disable_periodic_notification
 1009              		.thumb
 1010              		.thumb_func
 1011              		.type	pwm_lld_disable_periodic_notification, %function
 1012              	pwm_lld_disable_periodic_notification:
 1013              	.LFB270:
 1014              		.loc 1 772 0
 1015              		.cfi_startproc
 1016              		@ args = 0, pretend = 0, frame = 0
 1017              		@ frame_needed = 0, uses_anonymous_args = 0
 1018              		@ link register save eliminated.
 1019              	.LVL84:
 1020              		.loc 1 774 0
 1021 0000 8269     		ldr	r2, [r0, #24]
 1022 0002 D368     		ldr	r3, [r2, #12]
 1023 0004 23F00103 		bic	r3, r3, #1
 1024 0008 D360     		str	r3, [r2, #12]
 1025 000a 7047     		bx	lr
 1026              		.cfi_endproc
ARM GAS  /tmp/cctOVqwV.s 			page 19


 1027              	.LFE270:
 1028              		.size	pwm_lld_disable_periodic_notification, .-pwm_lld_disable_periodic_notification
 1029              		.section	.text.pwm_lld_enable_channel_notification,"ax",%progbits
 1030              		.align	2
 1031              		.p2align 4,,15
 1032              		.global	pwm_lld_enable_channel_notification
 1033              		.thumb
 1034              		.thumb_func
 1035              		.type	pwm_lld_enable_channel_notification, %function
 1036              	pwm_lld_enable_channel_notification:
 1037              	.LFB271:
 1038              		.loc 1 789 0
 1039              		.cfi_startproc
 1040              		@ args = 0, pretend = 0, frame = 0
 1041              		@ frame_needed = 0, uses_anonymous_args = 0
 1042              		@ link register save eliminated.
 1043              	.LVL85:
 1044              		.loc 1 790 0
 1045 0000 8069     		ldr	r0, [r0, #24]
 1046              	.LVL86:
 1047              		.loc 1 799 0
 1048 0002 0223     		movs	r3, #2
 1049              		.loc 1 790 0
 1050 0004 C268     		ldr	r2, [r0, #12]
 1051              	.LVL87:
 1052              		.loc 1 799 0
 1053 0006 03FA01F1 		lsl	r1, r3, r1
 1054              	.LVL88:
 1055 000a 0A42     		tst	r2, r1
 1056 000c 03D1     		bne	.L154
 1057              		.loc 1 800 0
 1058 000e 0A43     		orrs	r2, r2, r1
 1059              	.LVL89:
 1060              		.loc 1 801 0
 1061 0010 C943     		mvns	r1, r1
 1062              		.loc 1 800 0
 1063 0012 C260     		str	r2, [r0, #12]
 1064              		.loc 1 801 0
 1065 0014 0161     		str	r1, [r0, #16]
 1066              	.L154:
 1067 0016 7047     		bx	lr
 1068              		.cfi_endproc
 1069              	.LFE271:
 1070              		.size	pwm_lld_enable_channel_notification, .-pwm_lld_enable_channel_notification
 1071              		.section	.text.pwm_lld_disable_channel_notification,"ax",%progbits
 1072              		.align	2
 1073              		.p2align 4,,15
 1074              		.global	pwm_lld_disable_channel_notification
 1075              		.thumb
 1076              		.thumb_func
 1077              		.type	pwm_lld_disable_channel_notification, %function
 1078              	pwm_lld_disable_channel_notification:
 1079              	.LFB272:
 1080              		.loc 1 817 0
 1081              		.cfi_startproc
 1082              		@ args = 0, pretend = 0, frame = 0
 1083              		@ frame_needed = 0, uses_anonymous_args = 0
ARM GAS  /tmp/cctOVqwV.s 			page 20


 1084              		@ link register save eliminated.
 1085              	.LVL90:
 1086              		.loc 1 819 0
 1087 0000 8069     		ldr	r0, [r0, #24]
 1088              	.LVL91:
 1089 0002 0222     		movs	r2, #2
 1090 0004 C368     		ldr	r3, [r0, #12]
 1091 0006 02FA01F1 		lsl	r1, r2, r1
 1092              	.LVL92:
 1093 000a 23EA0103 		bic	r3, r3, r1
 1094 000e C360     		str	r3, [r0, #12]
 1095 0010 7047     		bx	lr
 1096              		.cfi_endproc
 1097              	.LFE272:
 1098              		.size	pwm_lld_disable_channel_notification, .-pwm_lld_disable_channel_notification
 1099              		.global	PWMD9
 1100              		.global	PWMD5
 1101              		.global	PWMD3
 1102              		.global	PWMD1
 1103 0012 00BF     		.section	.bss.PWMD1,"aw",%nobits
 1104              		.align	2
 1105              		.set	.LANCHOR0,. + 0
 1106              		.type	PWMD1, %object
 1107              		.size	PWMD1, 28
 1108              	PWMD1:
 1109 0000 00000000 		.space	28
 1109      00000000 
 1109      00000000 
 1109      00000000 
 1109      00000000 
 1110              		.section	.bss.PWMD3,"aw",%nobits
 1111              		.align	2
 1112              		.set	.LANCHOR1,. + 0
 1113              		.type	PWMD3, %object
 1114              		.size	PWMD3, 28
 1115              	PWMD3:
 1116 0000 00000000 		.space	28
 1116      00000000 
 1116      00000000 
 1116      00000000 
 1116      00000000 
 1117              		.section	.bss.PWMD5,"aw",%nobits
 1118              		.align	2
 1119              		.set	.LANCHOR2,. + 0
 1120              		.type	PWMD5, %object
 1121              		.size	PWMD5, 28
 1122              	PWMD5:
 1123 0000 00000000 		.space	28
 1123      00000000 
 1123      00000000 
 1123      00000000 
 1123      00000000 
 1124              		.section	.bss.PWMD9,"aw",%nobits
 1125              		.align	2
 1126              		.set	.LANCHOR3,. + 0
 1127              		.type	PWMD9, %object
 1128              		.size	PWMD9, 28
ARM GAS  /tmp/cctOVqwV.s 			page 21


 1129              	PWMD9:
 1130 0000 00000000 		.space	28
 1130      00000000 
 1130      00000000 
 1130      00000000 
 1130      00000000 
 1131              		.text
 1132              	.Letext0:
 1133              		.file 2 "/usr/lib/gcc/arm-none-eabi/5.3.1/include/stddef.h"
 1134              		.file 3 "/usr/arm-none-eabi/include/machine/_default_types.h"
 1135              		.file 4 "/usr/arm-none-eabi/include/sys/_stdint.h"
 1136              		.file 5 "/home/selim/working/ChibiOS/os/rt/ports/ARMCMx/compilers/GCC/chtypes.h"
 1137              		.file 6 "/home/selim/working/ChibiOS/os/rt/include/chsystypes.h"
 1138              		.file 7 "/home/selim/working/ChibiOS/os/rt/include/chschd.h"
 1139              		.file 8 "/home/selim/working/ChibiOS/os/ext/CMSIS/ST/stm32f407xx.h"
 1140              		.file 9 "/home/selim/working/ChibiOS/os/rt/ports/ARMCMx/chcore.h"
 1141              		.file 10 "/home/selim/working/ChibiOS/os/rt/ports/ARMCMx/chcore_v7m.h"
 1142              		.file 11 "/home/selim/working/ChibiOS/os/hal/ports/STM32/LLD/TIMv1/stm32_tim.h"
 1143              		.file 12 "/home/selim/working/ChibiOS/os/rt/include/chtm.h"
 1144              		.file 13 "/home/selim/working/ChibiOS/os/rt/include/chsem.h"
 1145              		.file 14 "/home/selim/working/ChibiOS/os/rt/include/chmtx.h"
 1146              		.file 15 "/home/selim/working/ChibiOS/os/hal/include/pwm.h"
 1147              		.file 16 "/home/selim/working/ChibiOS/os/hal/ports/STM32/LLD/TIMv1/pwm_lld.h"
 1148              		.file 17 "/home/selim/working/ChibiOS/os/ext/CMSIS/include/core_cm4.h"
 1149              		.file 18 "/home/selim/working/ChibiOS/os/hal/ports/common/ARMCMx/nvic.h"
 1150              		.section	.debug_info,"",%progbits
 1151              	.Ldebug_info0:
 1152 0000 2E100000 		.4byte	0x102e
 1153 0004 0400     		.2byte	0x4
 1154 0006 00000000 		.4byte	.Ldebug_abbrev0
 1155 000a 04       		.byte	0x4
 1156 000b 01       		.uleb128 0x1
 1157 000c D0050000 		.4byte	.LASF191
 1158 0010 0C       		.byte	0xc
 1159 0011 B4000000 		.4byte	.LASF192
 1160 0015 00000000 		.4byte	.Ldebug_ranges0+0
 1161 0019 00000000 		.4byte	0
 1162 001d 00000000 		.4byte	.Ldebug_line0
 1163 0021 02       		.uleb128 0x2
 1164 0022 04       		.byte	0x4
 1165 0023 07       		.byte	0x7
 1166 0024 BB020000 		.4byte	.LASF0
 1167 0028 03       		.uleb128 0x3
 1168 0029 04       		.byte	0x4
 1169 002a 05       		.byte	0x5
 1170 002b 696E7400 		.ascii	"int\000"
 1171 002f 04       		.uleb128 0x4
 1172 0030 1F000000 		.4byte	.LASF4
 1173 0034 02       		.byte	0x2
 1174 0035 D8       		.byte	0xd8
 1175 0036 21000000 		.4byte	0x21
 1176 003a 02       		.uleb128 0x2
 1177 003b 08       		.byte	0x8
 1178 003c 05       		.byte	0x5
 1179 003d 2C020000 		.4byte	.LASF1
 1180 0041 02       		.uleb128 0x2
 1181 0042 08       		.byte	0x8
ARM GAS  /tmp/cctOVqwV.s 			page 22


 1182 0043 04       		.byte	0x4
 1183 0044 6B020000 		.4byte	.LASF2
 1184 0048 02       		.uleb128 0x2
 1185 0049 01       		.byte	0x1
 1186 004a 06       		.byte	0x6
 1187 004b 86010000 		.4byte	.LASF3
 1188 004f 04       		.uleb128 0x4
 1189 0050 57000000 		.4byte	.LASF5
 1190 0054 03       		.byte	0x3
 1191 0055 1D       		.byte	0x1d
 1192 0056 5A000000 		.4byte	0x5a
 1193 005a 02       		.uleb128 0x2
 1194 005b 01       		.byte	0x1
 1195 005c 08       		.byte	0x8
 1196 005d 6E050000 		.4byte	.LASF6
 1197 0061 02       		.uleb128 0x2
 1198 0062 02       		.byte	0x2
 1199 0063 05       		.byte	0x5
 1200 0064 AD050000 		.4byte	.LASF7
 1201 0068 02       		.uleb128 0x2
 1202 0069 02       		.byte	0x2
 1203 006a 07       		.byte	0x7
 1204 006b 58020000 		.4byte	.LASF8
 1205 006f 04       		.uleb128 0x4
 1206 0070 D8030000 		.4byte	.LASF9
 1207 0074 03       		.byte	0x3
 1208 0075 3F       		.byte	0x3f
 1209 0076 7A000000 		.4byte	0x7a
 1210 007a 02       		.uleb128 0x2
 1211 007b 04       		.byte	0x4
 1212 007c 05       		.byte	0x5
 1213 007d D0010000 		.4byte	.LASF10
 1214 0081 04       		.uleb128 0x4
 1215 0082 D0070000 		.4byte	.LASF11
 1216 0086 03       		.byte	0x3
 1217 0087 41       		.byte	0x41
 1218 0088 8C000000 		.4byte	0x8c
 1219 008c 02       		.uleb128 0x2
 1220 008d 04       		.byte	0x4
 1221 008e 07       		.byte	0x7
 1222 008f 4B070000 		.4byte	.LASF12
 1223 0093 04       		.uleb128 0x4
 1224 0094 CC040000 		.4byte	.LASF13
 1225 0098 03       		.byte	0x3
 1226 0099 5B       		.byte	0x5b
 1227 009a 9E000000 		.4byte	0x9e
 1228 009e 02       		.uleb128 0x2
 1229 009f 08       		.byte	0x8
 1230 00a0 07       		.byte	0x7
 1231 00a1 9D000000 		.4byte	.LASF14
 1232 00a5 04       		.uleb128 0x4
 1233 00a6 73080000 		.4byte	.LASF15
 1234 00aa 04       		.byte	0x4
 1235 00ab 14       		.byte	0x14
 1236 00ac 4F000000 		.4byte	0x4f
 1237 00b0 04       		.uleb128 0x4
 1238 00b1 66050000 		.4byte	.LASF16
ARM GAS  /tmp/cctOVqwV.s 			page 23


 1239 00b5 04       		.byte	0x4
 1240 00b6 1F       		.byte	0x1f
 1241 00b7 6F000000 		.4byte	0x6f
 1242 00bb 04       		.uleb128 0x4
 1243 00bc 22070000 		.4byte	.LASF17
 1244 00c0 04       		.byte	0x4
 1245 00c1 20       		.byte	0x20
 1246 00c2 81000000 		.4byte	0x81
 1247 00c6 04       		.uleb128 0x4
 1248 00c7 7A040000 		.4byte	.LASF18
 1249 00cb 04       		.byte	0x4
 1250 00cc 26       		.byte	0x26
 1251 00cd 93000000 		.4byte	0x93
 1252 00d1 05       		.uleb128 0x5
 1253 00d2 B0000000 		.4byte	0xb0
 1254 00d6 05       		.uleb128 0x5
 1255 00d7 BB000000 		.4byte	0xbb
 1256 00db 04       		.uleb128 0x4
 1257 00dc 29080000 		.4byte	.LASF19
 1258 00e0 05       		.byte	0x5
 1259 00e1 46       		.byte	0x46
 1260 00e2 BB000000 		.4byte	0xbb
 1261 00e6 04       		.uleb128 0x4
 1262 00e7 B4080000 		.4byte	.LASF20
 1263 00eb 05       		.byte	0x5
 1264 00ec 49       		.byte	0x49
 1265 00ed A5000000 		.4byte	0xa5
 1266 00f1 04       		.uleb128 0x4
 1267 00f2 1E020000 		.4byte	.LASF21
 1268 00f6 05       		.byte	0x5
 1269 00f7 4A       		.byte	0x4a
 1270 00f8 A5000000 		.4byte	0xa5
 1271 00fc 04       		.uleb128 0x4
 1272 00fd FD040000 		.4byte	.LASF22
 1273 0101 05       		.byte	0x5
 1274 0102 4B       		.byte	0x4b
 1275 0103 A5000000 		.4byte	0xa5
 1276 0107 04       		.uleb128 0x4
 1277 0108 48050000 		.4byte	.LASF23
 1278 010c 05       		.byte	0x5
 1279 010d 4D       		.byte	0x4d
 1280 010e BB000000 		.4byte	0xbb
 1281 0112 04       		.uleb128 0x4
 1282 0113 39030000 		.4byte	.LASF24
 1283 0117 05       		.byte	0x5
 1284 0118 4E       		.byte	0x4e
 1285 0119 B0000000 		.4byte	0xb0
 1286 011d 04       		.uleb128 0x4
 1287 011e A2030000 		.4byte	.LASF25
 1288 0122 05       		.byte	0x5
 1289 0123 50       		.byte	0x50
 1290 0124 BB000000 		.4byte	0xbb
 1291 0128 04       		.uleb128 0x4
 1292 0129 B5020000 		.4byte	.LASF26
 1293 012d 05       		.byte	0x5
 1294 012e 52       		.byte	0x52
 1295 012f B0000000 		.4byte	0xb0
ARM GAS  /tmp/cctOVqwV.s 			page 24


 1296 0133 04       		.uleb128 0x4
 1297 0134 B2070000 		.4byte	.LASF27
 1298 0138 06       		.byte	0x6
 1299 0139 33       		.byte	0x33
 1300 013a BB000000 		.4byte	0xbb
 1301 013e 04       		.uleb128 0x4
 1302 013f A2070000 		.4byte	.LASF28
 1303 0143 06       		.byte	0x6
 1304 0144 3F       		.byte	0x3f
 1305 0145 49010000 		.4byte	0x149
 1306 0149 06       		.uleb128 0x6
 1307 014a 19030000 		.4byte	.LASF48
 1308 014e 44       		.byte	0x44
 1309 014f 07       		.byte	0x7
 1310 0150 C2       		.byte	0xc2
 1311 0151 36020000 		.4byte	0x236
 1312 0155 07       		.uleb128 0x7
 1313 0156 54040000 		.4byte	.LASF29
 1314 015a 07       		.byte	0x7
 1315 015b C3       		.byte	0xc3
 1316 015c 41020000 		.4byte	0x241
 1317 0160 00       		.byte	0
 1318 0161 07       		.uleb128 0x7
 1319 0162 37050000 		.4byte	.LASF30
 1320 0166 07       		.byte	0x7
 1321 0167 C5       		.byte	0xc5
 1322 0168 41020000 		.4byte	0x241
 1323 016c 04       		.byte	0x4
 1324 016d 07       		.uleb128 0x7
 1325 016e 52010000 		.4byte	.LASF31
 1326 0172 07       		.byte	0x7
 1327 0173 C7       		.byte	0xc7
 1328 0174 07010000 		.4byte	0x107
 1329 0178 08       		.byte	0x8
 1330 0179 07       		.uleb128 0x7
 1331 017a F1080000 		.4byte	.LASF32
 1332 017e 07       		.byte	0x7
 1333 017f C8       		.byte	0xc8
 1334 0180 3C060000 		.4byte	0x63c
 1335 0184 0C       		.byte	0xc
 1336 0185 07       		.uleb128 0x7
 1337 0186 48020000 		.4byte	.LASF33
 1338 018a 07       		.byte	0x7
 1339 018b CA       		.byte	0xca
 1340 018c 41020000 		.4byte	0x241
 1341 0190 10       		.byte	0x10
 1342 0191 07       		.uleb128 0x7
 1343 0192 83040000 		.4byte	.LASF34
 1344 0196 07       		.byte	0x7
 1345 0197 CB       		.byte	0xcb
 1346 0198 41020000 		.4byte	0x241
 1347 019c 14       		.byte	0x14
 1348 019d 07       		.uleb128 0x7
 1349 019e A0080000 		.4byte	.LASF35
 1350 01a2 07       		.byte	0x7
 1351 01a3 D2       		.byte	0xd2
 1352 01a4 DD080000 		.4byte	0x8dd
ARM GAS  /tmp/cctOVqwV.s 			page 25


 1353 01a8 18       		.byte	0x18
 1354 01a9 07       		.uleb128 0x7
 1355 01aa B7050000 		.4byte	.LASF36
 1356 01ae 07       		.byte	0x7
 1357 01af DD       		.byte	0xdd
 1358 01b0 F1000000 		.4byte	0xf1
 1359 01b4 1C       		.byte	0x1c
 1360 01b5 07       		.uleb128 0x7
 1361 01b6 BD060000 		.4byte	.LASF37
 1362 01ba 07       		.byte	0x7
 1363 01bb E1       		.byte	0xe1
 1364 01bc E6000000 		.4byte	0xe6
 1365 01c0 1D       		.byte	0x1d
 1366 01c1 07       		.uleb128 0x7
 1367 01c2 61080000 		.4byte	.LASF38
 1368 01c6 07       		.byte	0x7
 1369 01c7 E6       		.byte	0xe6
 1370 01c8 FC000000 		.4byte	0xfc
 1371 01cc 1E       		.byte	0x1e
 1372 01cd 08       		.uleb128 0x8
 1373 01ce 705F7500 		.ascii	"p_u\000"
 1374 01d2 07       		.byte	0x7
 1375 01d3 3101     		.2byte	0x131
 1376 01d5 18080000 		.4byte	0x818
 1377 01d9 20       		.byte	0x20
 1378 01da 09       		.uleb128 0x9
 1379 01db 11040000 		.4byte	.LASF39
 1380 01df 07       		.byte	0x7
 1381 01e0 3601     		.2byte	0x136
 1382 01e2 47020000 		.4byte	0x247
 1383 01e6 24       		.byte	0x24
 1384 01e7 09       		.uleb128 0x9
 1385 01e8 E9020000 		.4byte	.LASF40
 1386 01ec 07       		.byte	0x7
 1387 01ed 3C01     		.2byte	0x13c
 1388 01ef 6B020000 		.4byte	0x26b
 1389 01f3 28       		.byte	0x28
 1390 01f4 09       		.uleb128 0x9
 1391 01f5 CA080000 		.4byte	.LASF41
 1392 01f9 07       		.byte	0x7
 1393 01fa 4001     		.2byte	0x140
 1394 01fc 12010000 		.4byte	0x112
 1395 0200 30       		.byte	0x30
 1396 0201 09       		.uleb128 0x9
 1397 0202 5B040000 		.4byte	.LASF42
 1398 0206 07       		.byte	0x7
 1399 0207 4601     		.2byte	0x146
 1400 0209 1D010000 		.4byte	0x11d
 1401 020d 34       		.byte	0x34
 1402 020e 09       		.uleb128 0x9
 1403 020f A3050000 		.4byte	.LASF43
 1404 0213 07       		.byte	0x7
 1405 0214 4D01     		.2byte	0x14d
 1406 0216 D7080000 		.4byte	0x8d7
 1407 021a 38       		.byte	0x38
 1408 021b 09       		.uleb128 0x9
 1409 021c BC070000 		.4byte	.LASF44
ARM GAS  /tmp/cctOVqwV.s 			page 26


 1410 0220 07       		.byte	0x7
 1411 0221 5101     		.2byte	0x151
 1412 0223 07010000 		.4byte	0x107
 1413 0227 3C       		.byte	0x3c
 1414 0228 09       		.uleb128 0x9
 1415 0229 85020000 		.4byte	.LASF45
 1416 022d 07       		.byte	0x7
 1417 022e 5801     		.2byte	0x158
 1418 0230 1E030000 		.4byte	0x31e
 1419 0234 40       		.byte	0x40
 1420 0235 00       		.byte	0
 1421 0236 04       		.uleb128 0x4
 1422 0237 24040000 		.4byte	.LASF46
 1423 023b 06       		.byte	0x6
 1424 023c 44       		.byte	0x44
 1425 023d 41020000 		.4byte	0x241
 1426 0241 0A       		.uleb128 0xa
 1427 0242 04       		.byte	0x4
 1428 0243 3E010000 		.4byte	0x13e
 1429 0247 04       		.uleb128 0x4
 1430 0248 F2030000 		.4byte	.LASF47
 1431 024c 06       		.byte	0x6
 1432 024d 49       		.byte	0x49
 1433 024e 52020000 		.4byte	0x252
 1434 0252 06       		.uleb128 0x6
 1435 0253 48030000 		.4byte	.LASF49
 1436 0257 04       		.byte	0x4
 1437 0258 07       		.byte	0x7
 1438 0259 B0       		.byte	0xb0
 1439 025a 6B020000 		.4byte	0x26b
 1440 025e 07       		.uleb128 0x7
 1441 025f 54040000 		.4byte	.LASF29
 1442 0263 07       		.byte	0x7
 1443 0264 B1       		.byte	0xb1
 1444 0265 41020000 		.4byte	0x241
 1445 0269 00       		.byte	0
 1446 026a 00       		.byte	0
 1447 026b 04       		.uleb128 0x4
 1448 026c 48080000 		.4byte	.LASF50
 1449 0270 06       		.byte	0x6
 1450 0271 50       		.byte	0x50
 1451 0272 76020000 		.4byte	0x276
 1452 0276 06       		.uleb128 0x6
 1453 0277 6D000000 		.4byte	.LASF51
 1454 027b 08       		.byte	0x8
 1455 027c 07       		.byte	0x7
 1456 027d B7       		.byte	0xb7
 1457 027e 9B020000 		.4byte	0x29b
 1458 0282 07       		.uleb128 0x7
 1459 0283 54040000 		.4byte	.LASF29
 1460 0287 07       		.byte	0x7
 1461 0288 B8       		.byte	0xb8
 1462 0289 41020000 		.4byte	0x241
 1463 028d 00       		.byte	0
 1464 028e 07       		.uleb128 0x7
 1465 028f 37050000 		.4byte	.LASF30
 1466 0293 07       		.byte	0x7
ARM GAS  /tmp/cctOVqwV.s 			page 27


 1467 0294 B9       		.byte	0xb9
 1468 0295 41020000 		.4byte	0x241
 1469 0299 04       		.byte	0x4
 1470 029a 00       		.byte	0
 1471 029b 04       		.uleb128 0x4
 1472 029c 0D000000 		.4byte	.LASF52
 1473 02a0 06       		.byte	0x6
 1474 02a1 57       		.byte	0x57
 1475 02a2 A6020000 		.4byte	0x2a6
 1476 02a6 0B       		.uleb128 0xb
 1477 02a7 94030000 		.4byte	.LASF53
 1478 02ab 1C       		.byte	0x1c
 1479 02ac 07       		.byte	0x7
 1480 02ad 9001     		.2byte	0x190
 1481 02af 02030000 		.4byte	0x302
 1482 02b3 09       		.uleb128 0x9
 1483 02b4 32070000 		.4byte	.LASF54
 1484 02b8 07       		.byte	0x7
 1485 02b9 9101     		.2byte	0x191
 1486 02bb 6B020000 		.4byte	0x26b
 1487 02bf 00       		.byte	0
 1488 02c0 09       		.uleb128 0x9
 1489 02c1 C9050000 		.4byte	.LASF55
 1490 02c5 07       		.byte	0x7
 1491 02c6 9201     		.2byte	0x192
 1492 02c8 07010000 		.4byte	0x107
 1493 02cc 08       		.byte	0x8
 1494 02cd 09       		.uleb128 0x9
 1495 02ce 98040000 		.4byte	.LASF56
 1496 02d2 07       		.byte	0x7
 1497 02d3 9401     		.2byte	0x194
 1498 02d5 3C060000 		.4byte	0x63c
 1499 02d9 0C       		.byte	0xc
 1500 02da 09       		.uleb128 0x9
 1501 02db 7D020000 		.4byte	.LASF57
 1502 02df 07       		.byte	0x7
 1503 02e0 9701     		.2byte	0x197
 1504 02e2 41020000 		.4byte	0x241
 1505 02e6 10       		.byte	0x10
 1506 02e7 09       		.uleb128 0x9
 1507 02e8 04080000 		.4byte	.LASF58
 1508 02ec 07       		.byte	0x7
 1509 02ed 9801     		.2byte	0x198
 1510 02ef 41020000 		.4byte	0x241
 1511 02f3 14       		.byte	0x14
 1512 02f4 09       		.uleb128 0x9
 1513 02f5 B9040000 		.4byte	.LASF59
 1514 02f9 07       		.byte	0x7
 1515 02fa 9B01     		.2byte	0x19b
 1516 02fc 41020000 		.4byte	0x241
 1517 0300 18       		.byte	0x18
 1518 0301 00       		.byte	0
 1519 0302 04       		.uleb128 0x4
 1520 0303 C7070000 		.4byte	.LASF60
 1521 0307 06       		.byte	0x6
 1522 0308 5C       		.byte	0x5c
 1523 0309 0D030000 		.4byte	0x30d
ARM GAS  /tmp/cctOVqwV.s 			page 28


 1524 030d 0A       		.uleb128 0xa
 1525 030e 04       		.byte	0x4
 1526 030f 13030000 		.4byte	0x313
 1527 0313 0C       		.uleb128 0xc
 1528 0314 1E030000 		.4byte	0x31e
 1529 0318 0D       		.uleb128 0xd
 1530 0319 1E030000 		.4byte	0x31e
 1531 031d 00       		.byte	0
 1532 031e 0E       		.uleb128 0xe
 1533 031f 04       		.byte	0x4
 1534 0320 04       		.uleb128 0x4
 1535 0321 01040000 		.4byte	.LASF61
 1536 0325 06       		.byte	0x6
 1537 0326 61       		.byte	0x61
 1538 0327 2B030000 		.4byte	0x32b
 1539 032b 0B       		.uleb128 0xb
 1540 032c E8060000 		.4byte	.LASF62
 1541 0330 14       		.byte	0x14
 1542 0331 07       		.byte	0x7
 1543 0332 6B01     		.2byte	0x16b
 1544 0334 7A030000 		.4byte	0x37a
 1545 0338 09       		.uleb128 0x9
 1546 0339 C8020000 		.4byte	.LASF63
 1547 033d 07       		.byte	0x7
 1548 033e 6C01     		.2byte	0x16c
 1549 0340 EF080000 		.4byte	0x8ef
 1550 0344 00       		.byte	0
 1551 0345 09       		.uleb128 0x9
 1552 0346 96020000 		.4byte	.LASF64
 1553 034a 07       		.byte	0x7
 1554 034b 6D01     		.2byte	0x16d
 1555 034d EF080000 		.4byte	0x8ef
 1556 0351 04       		.byte	0x4
 1557 0352 09       		.uleb128 0x9
 1558 0353 3A070000 		.4byte	.LASF65
 1559 0357 07       		.byte	0x7
 1560 0358 6E01     		.2byte	0x16e
 1561 035a 33010000 		.4byte	0x133
 1562 035e 08       		.byte	0x8
 1563 035f 09       		.uleb128 0x9
 1564 0360 F7080000 		.4byte	.LASF66
 1565 0364 07       		.byte	0x7
 1566 0365 6F01     		.2byte	0x16f
 1567 0367 02030000 		.4byte	0x302
 1568 036b 0C       		.byte	0xc
 1569 036c 09       		.uleb128 0x9
 1570 036d 31080000 		.4byte	.LASF67
 1571 0371 07       		.byte	0x7
 1572 0372 7101     		.2byte	0x171
 1573 0374 1E030000 		.4byte	0x31e
 1574 0378 10       		.byte	0x10
 1575 0379 00       		.byte	0
 1576 037a 04       		.uleb128 0x4
 1577 037b 0B010000 		.4byte	.LASF68
 1578 037f 06       		.byte	0x6
 1579 0380 66       		.byte	0x66
 1580 0381 85030000 		.4byte	0x385
ARM GAS  /tmp/cctOVqwV.s 			page 29


 1581 0385 0B       		.uleb128 0xb
 1582 0386 37040000 		.4byte	.LASF69
 1583 038a 10       		.byte	0x10
 1584 038b 07       		.byte	0x7
 1585 038c 7B01     		.2byte	0x17b
 1586 038e C7030000 		.4byte	0x3c7
 1587 0392 09       		.uleb128 0x9
 1588 0393 C8020000 		.4byte	.LASF63
 1589 0397 07       		.byte	0x7
 1590 0398 7C01     		.2byte	0x17c
 1591 039a EF080000 		.4byte	0x8ef
 1592 039e 00       		.byte	0
 1593 039f 09       		.uleb128 0x9
 1594 03a0 96020000 		.4byte	.LASF64
 1595 03a4 07       		.byte	0x7
 1596 03a5 7E01     		.2byte	0x17e
 1597 03a7 EF080000 		.4byte	0x8ef
 1598 03ab 04       		.byte	0x4
 1599 03ac 09       		.uleb128 0x9
 1600 03ad 3A070000 		.4byte	.LASF65
 1601 03b1 07       		.byte	0x7
 1602 03b2 8001     		.2byte	0x180
 1603 03b4 33010000 		.4byte	0x133
 1604 03b8 08       		.byte	0x8
 1605 03b9 09       		.uleb128 0x9
 1606 03ba 6E040000 		.4byte	.LASF70
 1607 03be 07       		.byte	0x7
 1608 03bf 8801     		.2byte	0x188
 1609 03c1 33010000 		.4byte	0x133
 1610 03c5 0C       		.byte	0xc
 1611 03c6 00       		.byte	0
 1612 03c7 04       		.uleb128 0x4
 1613 03c8 7E000000 		.4byte	.LASF71
 1614 03cc 06       		.byte	0x6
 1615 03cd 6B       		.byte	0x6b
 1616 03ce D2030000 		.4byte	0x3d2
 1617 03d2 0B       		.uleb128 0xb
 1618 03d3 50050000 		.4byte	.LASF72
 1619 03d7 04       		.byte	0x4
 1620 03d8 07       		.byte	0x7
 1621 03d9 A201     		.2byte	0x1a2
 1622 03db ED030000 		.4byte	0x3ed
 1623 03df 09       		.uleb128 0x9
 1624 03e0 DB070000 		.4byte	.LASF73
 1625 03e4 07       		.byte	0x7
 1626 03e5 AA01     		.2byte	0x1aa
 1627 03e7 F5080000 		.4byte	0x8f5
 1628 03eb 00       		.byte	0
 1629 03ec 00       		.byte	0
 1630 03ed 04       		.uleb128 0x4
 1631 03ee 0C080000 		.4byte	.LASF74
 1632 03f2 06       		.byte	0x6
 1633 03f3 70       		.byte	0x70
 1634 03f4 F8030000 		.4byte	0x3f8
 1635 03f8 0F       		.uleb128 0xf
 1636 03f9 CE060000 		.4byte	.LASF75
 1637 03fd 5001     		.2byte	0x150
ARM GAS  /tmp/cctOVqwV.s 			page 30


 1638 03ff 07       		.byte	0x7
 1639 0400 C201     		.2byte	0x1c2
 1640 0402 54040000 		.4byte	0x454
 1641 0406 09       		.uleb128 0x9
 1642 0407 6D080000 		.4byte	.LASF76
 1643 040b 07       		.byte	0x7
 1644 040c C601     		.2byte	0x1c6
 1645 040e 9B020000 		.4byte	0x29b
 1646 0412 00       		.byte	0
 1647 0413 09       		.uleb128 0x9
 1648 0414 AB010000 		.4byte	.LASF77
 1649 0418 07       		.byte	0x7
 1650 0419 CA01     		.2byte	0x1ca
 1651 041b 7A030000 		.4byte	0x37a
 1652 041f 1C       		.byte	0x1c
 1653 0420 08       		.uleb128 0x8
 1654 0421 64626700 		.ascii	"dbg\000"
 1655 0425 07       		.byte	0x7
 1656 0426 CE01     		.2byte	0x1ce
 1657 0428 C7030000 		.4byte	0x3c7
 1658 042c 2C       		.byte	0x2c
 1659 042d 09       		.uleb128 0x9
 1660 042e 00010000 		.4byte	.LASF78
 1661 0432 07       		.byte	0x7
 1662 0433 D201     		.2byte	0x1d2
 1663 0435 3E010000 		.4byte	0x13e
 1664 0439 30       		.byte	0x30
 1665 043a 08       		.uleb128 0x8
 1666 043b 746D00   		.ascii	"tm\000"
 1667 043e 07       		.byte	0x7
 1668 043f D701     		.2byte	0x1d7
 1669 0441 0D080000 		.4byte	0x80d
 1670 0445 74       		.byte	0x74
 1671 0446 09       		.uleb128 0x9
 1672 0447 A6020000 		.4byte	.LASF79
 1673 044b 07       		.byte	0x7
 1674 044c E301     		.2byte	0x1e3
 1675 044e FA080000 		.4byte	0x8fa
 1676 0452 78       		.byte	0x78
 1677 0453 00       		.byte	0
 1678 0454 02       		.uleb128 0x2
 1679 0455 04       		.byte	0x4
 1680 0456 07       		.byte	0x7
 1681 0457 1B040000 		.4byte	.LASF80
 1682 045b 10       		.uleb128 0x10
 1683 045c BB000000 		.4byte	0xbb
 1684 0460 6B040000 		.4byte	0x46b
 1685 0464 11       		.uleb128 0x11
 1686 0465 54040000 		.4byte	0x454
 1687 0469 01       		.byte	0x1
 1688 046a 00       		.byte	0
 1689 046b 10       		.uleb128 0x10
 1690 046c D6000000 		.4byte	0xd6
 1691 0470 7B040000 		.4byte	0x47b
 1692 0474 11       		.uleb128 0x11
 1693 0475 54040000 		.4byte	0x454
 1694 0479 01       		.byte	0x1
ARM GAS  /tmp/cctOVqwV.s 			page 31


 1695 047a 00       		.byte	0
 1696 047b 10       		.uleb128 0x10
 1697 047c D6000000 		.4byte	0xd6
 1698 0480 8B040000 		.4byte	0x48b
 1699 0484 11       		.uleb128 0x11
 1700 0485 54040000 		.4byte	0x454
 1701 0489 03       		.byte	0x3
 1702 048a 00       		.byte	0
 1703 048b 12       		.uleb128 0x12
 1704 048c 88       		.byte	0x88
 1705 048d 08       		.byte	0x8
 1706 048e 6702     		.2byte	0x267
 1707 0490 1A060000 		.4byte	0x61a
 1708 0494 08       		.uleb128 0x8
 1709 0495 435200   		.ascii	"CR\000"
 1710 0498 08       		.byte	0x8
 1711 0499 6902     		.2byte	0x269
 1712 049b D6000000 		.4byte	0xd6
 1713 049f 00       		.byte	0
 1714 04a0 09       		.uleb128 0x9
 1715 04a1 50020000 		.4byte	.LASF81
 1716 04a5 08       		.byte	0x8
 1717 04a6 6A02     		.2byte	0x26a
 1718 04a8 D6000000 		.4byte	0xd6
 1719 04ac 04       		.byte	0x4
 1720 04ad 09       		.uleb128 0x9
 1721 04ae AF080000 		.4byte	.LASF82
 1722 04b2 08       		.byte	0x8
 1723 04b3 6B02     		.2byte	0x26b
 1724 04b5 D6000000 		.4byte	0xd6
 1725 04b9 08       		.byte	0x8
 1726 04ba 08       		.uleb128 0x8
 1727 04bb 43495200 		.ascii	"CIR\000"
 1728 04bf 08       		.byte	0x8
 1729 04c0 6C02     		.2byte	0x26c
 1730 04c2 D6000000 		.4byte	0xd6
 1731 04c6 0C       		.byte	0xc
 1732 04c7 09       		.uleb128 0x9
 1733 04c8 92010000 		.4byte	.LASF83
 1734 04cc 08       		.byte	0x8
 1735 04cd 6D02     		.2byte	0x26d
 1736 04cf D6000000 		.4byte	0xd6
 1737 04d3 10       		.byte	0x10
 1738 04d4 09       		.uleb128 0x9
 1739 04d5 99070000 		.4byte	.LASF84
 1740 04d9 08       		.byte	0x8
 1741 04da 6E02     		.2byte	0x26e
 1742 04dc D6000000 		.4byte	0xd6
 1743 04e0 14       		.byte	0x14
 1744 04e1 09       		.uleb128 0x9
 1745 04e2 3F030000 		.4byte	.LASF85
 1746 04e6 08       		.byte	0x8
 1747 04e7 6F02     		.2byte	0x26f
 1748 04e9 D6000000 		.4byte	0xd6
 1749 04ed 18       		.byte	0x18
 1750 04ee 09       		.uleb128 0x9
 1751 04ef 05050000 		.4byte	.LASF86
ARM GAS  /tmp/cctOVqwV.s 			page 32


 1752 04f3 08       		.byte	0x8
 1753 04f4 7002     		.2byte	0x270
 1754 04f6 BB000000 		.4byte	0xbb
 1755 04fa 1C       		.byte	0x1c
 1756 04fb 09       		.uleb128 0x9
 1757 04fc C3040000 		.4byte	.LASF87
 1758 0500 08       		.byte	0x8
 1759 0501 7102     		.2byte	0x271
 1760 0503 D6000000 		.4byte	0xd6
 1761 0507 20       		.byte	0x20
 1762 0508 09       		.uleb128 0x9
 1763 0509 E7010000 		.4byte	.LASF88
 1764 050d 08       		.byte	0x8
 1765 050e 7202     		.2byte	0x272
 1766 0510 D6000000 		.4byte	0xd6
 1767 0514 24       		.byte	0x24
 1768 0515 09       		.uleb128 0x9
 1769 0516 0F050000 		.4byte	.LASF89
 1770 051a 08       		.byte	0x8
 1771 051b 7302     		.2byte	0x273
 1772 051d 5B040000 		.4byte	0x45b
 1773 0521 28       		.byte	0x28
 1774 0522 09       		.uleb128 0x9
 1775 0523 A7080000 		.4byte	.LASF90
 1776 0527 08       		.byte	0x8
 1777 0528 7402     		.2byte	0x274
 1778 052a D6000000 		.4byte	0xd6
 1779 052e 30       		.byte	0x30
 1780 052f 09       		.uleb128 0x9
 1781 0530 F4070000 		.4byte	.LASF91
 1782 0534 08       		.byte	0x8
 1783 0535 7502     		.2byte	0x275
 1784 0537 D6000000 		.4byte	0xd6
 1785 053b 34       		.byte	0x34
 1786 053c 09       		.uleb128 0x9
 1787 053d 66040000 		.4byte	.LASF92
 1788 0541 08       		.byte	0x8
 1789 0542 7602     		.2byte	0x276
 1790 0544 D6000000 		.4byte	0xd6
 1791 0548 38       		.byte	0x38
 1792 0549 09       		.uleb128 0x9
 1793 054a 19050000 		.4byte	.LASF93
 1794 054e 08       		.byte	0x8
 1795 054f 7702     		.2byte	0x277
 1796 0551 BB000000 		.4byte	0xbb
 1797 0555 3C       		.byte	0x3c
 1798 0556 09       		.uleb128 0x9
 1799 0557 EC070000 		.4byte	.LASF94
 1800 055b 08       		.byte	0x8
 1801 055c 7802     		.2byte	0x278
 1802 055e D6000000 		.4byte	0xd6
 1803 0562 40       		.byte	0x40
 1804 0563 09       		.uleb128 0x9
 1805 0564 D8060000 		.4byte	.LASF95
 1806 0568 08       		.byte	0x8
 1807 0569 7902     		.2byte	0x279
 1808 056b D6000000 		.4byte	0xd6
ARM GAS  /tmp/cctOVqwV.s 			page 33


 1809 056f 44       		.byte	0x44
 1810 0570 09       		.uleb128 0x9
 1811 0571 23050000 		.4byte	.LASF96
 1812 0575 08       		.byte	0x8
 1813 0576 7A02     		.2byte	0x27a
 1814 0578 5B040000 		.4byte	0x45b
 1815 057c 48       		.byte	0x48
 1816 057d 09       		.uleb128 0x9
 1817 057e 48010000 		.4byte	.LASF97
 1818 0582 08       		.byte	0x8
 1819 0583 7B02     		.2byte	0x27b
 1820 0585 D6000000 		.4byte	0xd6
 1821 0589 50       		.byte	0x50
 1822 058a 09       		.uleb128 0x9
 1823 058b 9E040000 		.4byte	.LASF98
 1824 058f 08       		.byte	0x8
 1825 0590 7C02     		.2byte	0x27c
 1826 0592 D6000000 		.4byte	0xd6
 1827 0596 54       		.byte	0x54
 1828 0597 09       		.uleb128 0x9
 1829 0598 BF050000 		.4byte	.LASF99
 1830 059c 08       		.byte	0x8
 1831 059d 7D02     		.2byte	0x27d
 1832 059f D6000000 		.4byte	0xd6
 1833 05a3 58       		.byte	0x58
 1834 05a4 09       		.uleb128 0x9
 1835 05a5 2D050000 		.4byte	.LASF100
 1836 05a9 08       		.byte	0x8
 1837 05aa 7E02     		.2byte	0x27e
 1838 05ac BB000000 		.4byte	0xbb
 1839 05b0 5C       		.byte	0x5c
 1840 05b1 09       		.uleb128 0x9
 1841 05b2 14020000 		.4byte	.LASF101
 1842 05b6 08       		.byte	0x8
 1843 05b7 7F02     		.2byte	0x27f
 1844 05b9 D6000000 		.4byte	0xd6
 1845 05bd 60       		.byte	0x60
 1846 05be 09       		.uleb128 0x9
 1847 05bf 8A030000 		.4byte	.LASF102
 1848 05c3 08       		.byte	0x8
 1849 05c4 8002     		.2byte	0x280
 1850 05c6 D6000000 		.4byte	0xd6
 1851 05ca 64       		.byte	0x64
 1852 05cb 09       		.uleb128 0x9
 1853 05cc 18070000 		.4byte	.LASF103
 1854 05d0 08       		.byte	0x8
 1855 05d1 8102     		.2byte	0x281
 1856 05d3 5B040000 		.4byte	0x45b
 1857 05d7 68       		.byte	0x68
 1858 05d8 09       		.uleb128 0x9
 1859 05d9 68080000 		.4byte	.LASF104
 1860 05dd 08       		.byte	0x8
 1861 05de 8202     		.2byte	0x282
 1862 05e0 D6000000 		.4byte	0xd6
 1863 05e4 70       		.byte	0x70
 1864 05e5 08       		.uleb128 0x8
 1865 05e6 43535200 		.ascii	"CSR\000"
ARM GAS  /tmp/cctOVqwV.s 			page 34


 1866 05ea 08       		.byte	0x8
 1867 05eb 8302     		.2byte	0x283
 1868 05ed D6000000 		.4byte	0xd6
 1869 05f1 74       		.byte	0x74
 1870 05f2 09       		.uleb128 0x9
 1871 05f3 3E050000 		.4byte	.LASF105
 1872 05f7 08       		.byte	0x8
 1873 05f8 8402     		.2byte	0x284
 1874 05fa 5B040000 		.4byte	0x45b
 1875 05fe 78       		.byte	0x78
 1876 05ff 09       		.uleb128 0x9
 1877 0600 38080000 		.4byte	.LASF106
 1878 0604 08       		.byte	0x8
 1879 0605 8502     		.2byte	0x285
 1880 0607 D6000000 		.4byte	0xd6
 1881 060b 80       		.byte	0x80
 1882 060c 09       		.uleb128 0x9
 1883 060d 2E030000 		.4byte	.LASF107
 1884 0611 08       		.byte	0x8
 1885 0612 8602     		.2byte	0x286
 1886 0614 D6000000 		.4byte	0xd6
 1887 0618 84       		.byte	0x84
 1888 0619 00       		.byte	0
 1889 061a 13       		.uleb128 0x13
 1890 061b 97050000 		.4byte	.LASF108
 1891 061f 08       		.byte	0x8
 1892 0620 8802     		.2byte	0x288
 1893 0622 8B040000 		.4byte	0x48b
 1894 0626 04       		.uleb128 0x4
 1895 0627 8D020000 		.4byte	.LASF109
 1896 062b 09       		.byte	0x9
 1897 062c 65       		.byte	0x65
 1898 062d 1E030000 		.4byte	0x31e
 1899 0631 04       		.uleb128 0x4
 1900 0632 E7030000 		.4byte	.LASF110
 1901 0636 09       		.byte	0x9
 1902 0637 6D       		.byte	0x6d
 1903 0638 C6000000 		.4byte	0xc6
 1904 063c 06       		.uleb128 0x6
 1905 063d FC070000 		.4byte	.LASF111
 1906 0641 04       		.byte	0x4
 1907 0642 09       		.byte	0x9
 1908 0643 89       		.byte	0x89
 1909 0644 55060000 		.4byte	0x655
 1910 0648 14       		.uleb128 0x14
 1911 0649 72313300 		.ascii	"r13\000"
 1912 064d 09       		.byte	0x9
 1913 064e 8A       		.byte	0x8a
 1914 064f D0060000 		.4byte	0x6d0
 1915 0653 00       		.byte	0
 1916 0654 00       		.byte	0
 1917 0655 06       		.uleb128 0x6
 1918 0656 61000000 		.4byte	.LASF112
 1919 065a 24       		.byte	0x24
 1920 065b 0A       		.byte	0xa
 1921 065c F4       		.byte	0xf4
 1922 065d D0060000 		.4byte	0x6d0
ARM GAS  /tmp/cctOVqwV.s 			page 35


 1923 0661 08       		.uleb128 0x8
 1924 0662 723400   		.ascii	"r4\000"
 1925 0665 0A       		.byte	0xa
 1926 0666 0701     		.2byte	0x107
 1927 0668 26060000 		.4byte	0x626
 1928 066c 00       		.byte	0
 1929 066d 08       		.uleb128 0x8
 1930 066e 723500   		.ascii	"r5\000"
 1931 0671 0A       		.byte	0xa
 1932 0672 0801     		.2byte	0x108
 1933 0674 26060000 		.4byte	0x626
 1934 0678 04       		.byte	0x4
 1935 0679 08       		.uleb128 0x8
 1936 067a 723600   		.ascii	"r6\000"
 1937 067d 0A       		.byte	0xa
 1938 067e 0901     		.2byte	0x109
 1939 0680 26060000 		.4byte	0x626
 1940 0684 08       		.byte	0x8
 1941 0685 08       		.uleb128 0x8
 1942 0686 723700   		.ascii	"r7\000"
 1943 0689 0A       		.byte	0xa
 1944 068a 0A01     		.2byte	0x10a
 1945 068c 26060000 		.4byte	0x626
 1946 0690 0C       		.byte	0xc
 1947 0691 08       		.uleb128 0x8
 1948 0692 723800   		.ascii	"r8\000"
 1949 0695 0A       		.byte	0xa
 1950 0696 0B01     		.2byte	0x10b
 1951 0698 26060000 		.4byte	0x626
 1952 069c 10       		.byte	0x10
 1953 069d 08       		.uleb128 0x8
 1954 069e 723900   		.ascii	"r9\000"
 1955 06a1 0A       		.byte	0xa
 1956 06a2 0C01     		.2byte	0x10c
 1957 06a4 26060000 		.4byte	0x626
 1958 06a8 14       		.byte	0x14
 1959 06a9 08       		.uleb128 0x8
 1960 06aa 72313000 		.ascii	"r10\000"
 1961 06ae 0A       		.byte	0xa
 1962 06af 0D01     		.2byte	0x10d
 1963 06b1 26060000 		.4byte	0x626
 1964 06b5 18       		.byte	0x18
 1965 06b6 08       		.uleb128 0x8
 1966 06b7 72313100 		.ascii	"r11\000"
 1967 06bb 0A       		.byte	0xa
 1968 06bc 0E01     		.2byte	0x10e
 1969 06be 26060000 		.4byte	0x626
 1970 06c2 1C       		.byte	0x1c
 1971 06c3 08       		.uleb128 0x8
 1972 06c4 6C7200   		.ascii	"lr\000"
 1973 06c7 0A       		.byte	0xa
 1974 06c8 0F01     		.2byte	0x10f
 1975 06ca 26060000 		.4byte	0x626
 1976 06ce 20       		.byte	0x20
 1977 06cf 00       		.byte	0
 1978 06d0 0A       		.uleb128 0xa
 1979 06d1 04       		.byte	0x4
ARM GAS  /tmp/cctOVqwV.s 			page 36


 1980 06d2 55060000 		.4byte	0x655
 1981 06d6 12       		.uleb128 0x12
 1982 06d7 60       		.byte	0x60
 1983 06d8 0B       		.byte	0xb
 1984 06d9 9E01     		.2byte	0x19e
 1985 06db E2070000 		.4byte	0x7e2
 1986 06df 08       		.uleb128 0x8
 1987 06e0 43523100 		.ascii	"CR1\000"
 1988 06e4 0B       		.byte	0xb
 1989 06e5 9F01     		.2byte	0x19f
 1990 06e7 D6000000 		.4byte	0xd6
 1991 06eb 00       		.byte	0
 1992 06ec 08       		.uleb128 0x8
 1993 06ed 43523200 		.ascii	"CR2\000"
 1994 06f1 0B       		.byte	0xb
 1995 06f2 A001     		.2byte	0x1a0
 1996 06f4 D6000000 		.4byte	0xd6
 1997 06f8 04       		.byte	0x4
 1998 06f9 09       		.uleb128 0x9
 1999 06fa 29030000 		.4byte	.LASF113
 2000 06fe 0B       		.byte	0xb
 2001 06ff A101     		.2byte	0x1a1
 2002 0701 D6000000 		.4byte	0xd6
 2003 0705 08       		.byte	0x8
 2004 0706 09       		.uleb128 0x9
 2005 0707 1A000000 		.4byte	.LASF114
 2006 070b 0B       		.byte	0xb
 2007 070c A201     		.2byte	0x1a2
 2008 070e D6000000 		.4byte	0xd6
 2009 0712 0C       		.byte	0xc
 2010 0713 08       		.uleb128 0x8
 2011 0714 535200   		.ascii	"SR\000"
 2012 0717 0B       		.byte	0xb
 2013 0718 A301     		.2byte	0x1a3
 2014 071a D6000000 		.4byte	0xd6
 2015 071e 10       		.byte	0x10
 2016 071f 08       		.uleb128 0x8
 2017 0720 45475200 		.ascii	"EGR\000"
 2018 0724 0B       		.byte	0xb
 2019 0725 A401     		.2byte	0x1a4
 2020 0727 D6000000 		.4byte	0xd6
 2021 072b 14       		.byte	0x14
 2022 072c 09       		.uleb128 0x9
 2023 072d 74010000 		.4byte	.LASF115
 2024 0731 0B       		.byte	0xb
 2025 0732 A501     		.2byte	0x1a5
 2026 0734 D6000000 		.4byte	0xd6
 2027 0738 18       		.byte	0x18
 2028 0739 09       		.uleb128 0x9
 2029 073a 7A010000 		.4byte	.LASF116
 2030 073e 0B       		.byte	0xb
 2031 073f A601     		.2byte	0x1a6
 2032 0741 D6000000 		.4byte	0xd6
 2033 0745 1C       		.byte	0x1c
 2034 0746 09       		.uleb128 0x9
 2035 0747 27020000 		.4byte	.LASF117
 2036 074b 0B       		.byte	0xb
ARM GAS  /tmp/cctOVqwV.s 			page 37


 2037 074c A701     		.2byte	0x1a7
 2038 074e D6000000 		.4byte	0xd6
 2039 0752 20       		.byte	0x20
 2040 0753 08       		.uleb128 0x8
 2041 0754 434E5400 		.ascii	"CNT\000"
 2042 0758 0B       		.byte	0xb
 2043 0759 A801     		.2byte	0x1a8
 2044 075b D6000000 		.4byte	0xd6
 2045 075f 24       		.byte	0x24
 2046 0760 08       		.uleb128 0x8
 2047 0761 50534300 		.ascii	"PSC\000"
 2048 0765 0B       		.byte	0xb
 2049 0766 A901     		.2byte	0x1a9
 2050 0768 D6000000 		.4byte	0xd6
 2051 076c 28       		.byte	0x28
 2052 076d 08       		.uleb128 0x8
 2053 076e 41525200 		.ascii	"ARR\000"
 2054 0772 0B       		.byte	0xb
 2055 0773 AA01     		.2byte	0x1aa
 2056 0775 D6000000 		.4byte	0xd6
 2057 0779 2C       		.byte	0x2c
 2058 077a 08       		.uleb128 0x8
 2059 077b 52435200 		.ascii	"RCR\000"
 2060 077f 0B       		.byte	0xb
 2061 0780 AB01     		.2byte	0x1ab
 2062 0782 D6000000 		.4byte	0xd6
 2063 0786 30       		.byte	0x30
 2064 0787 08       		.uleb128 0x8
 2065 0788 43435200 		.ascii	"CCR\000"
 2066 078c 0B       		.byte	0xb
 2067 078d AC01     		.2byte	0x1ac
 2068 078f E2070000 		.4byte	0x7e2
 2069 0793 34       		.byte	0x34
 2070 0794 09       		.uleb128 0x9
 2071 0795 39010000 		.4byte	.LASF118
 2072 0799 0B       		.byte	0xb
 2073 079a AD01     		.2byte	0x1ad
 2074 079c D6000000 		.4byte	0xd6
 2075 07a0 44       		.byte	0x44
 2076 07a1 08       		.uleb128 0x8
 2077 07a2 44435200 		.ascii	"DCR\000"
 2078 07a6 0B       		.byte	0xb
 2079 07a7 AE01     		.2byte	0x1ae
 2080 07a9 D6000000 		.4byte	0xd6
 2081 07ad 48       		.byte	0x48
 2082 07ae 09       		.uleb128 0x9
 2083 07af 8E070000 		.4byte	.LASF119
 2084 07b3 0B       		.byte	0xb
 2085 07b4 AF01     		.2byte	0x1af
 2086 07b6 D6000000 		.4byte	0xd6
 2087 07ba 4C       		.byte	0x4c
 2088 07bb 08       		.uleb128 0x8
 2089 07bc 4F5200   		.ascii	"OR\000"
 2090 07bf 0B       		.byte	0xb
 2091 07c0 B001     		.2byte	0x1b0
 2092 07c2 D6000000 		.4byte	0xd6
 2093 07c6 50       		.byte	0x50
ARM GAS  /tmp/cctOVqwV.s 			page 38


 2094 07c7 09       		.uleb128 0x9
 2095 07c8 80010000 		.4byte	.LASF120
 2096 07cc 0B       		.byte	0xb
 2097 07cd B101     		.2byte	0x1b1
 2098 07cf D6000000 		.4byte	0xd6
 2099 07d3 54       		.byte	0x54
 2100 07d4 09       		.uleb128 0x9
 2101 07d5 06070000 		.4byte	.LASF121
 2102 07d9 0B       		.byte	0xb
 2103 07da B201     		.2byte	0x1b2
 2104 07dc E7070000 		.4byte	0x7e7
 2105 07e0 58       		.byte	0x58
 2106 07e1 00       		.byte	0
 2107 07e2 05       		.uleb128 0x5
 2108 07e3 7B040000 		.4byte	0x47b
 2109 07e7 05       		.uleb128 0x5
 2110 07e8 6B040000 		.4byte	0x46b
 2111 07ec 13       		.uleb128 0x13
 2112 07ed 7E030000 		.4byte	.LASF122
 2113 07f1 0B       		.byte	0xb
 2114 07f2 B301     		.2byte	0x1b3
 2115 07f4 D6060000 		.4byte	0x6d6
 2116 07f8 15       		.uleb128 0x15
 2117 07f9 04       		.byte	0x4
 2118 07fa 0C       		.byte	0xc
 2119 07fb 38       		.byte	0x38
 2120 07fc 0D080000 		.4byte	0x80d
 2121 0800 07       		.uleb128 0x7
 2122 0801 E5070000 		.4byte	.LASF123
 2123 0805 0C       		.byte	0xc
 2124 0806 3C       		.byte	0x3c
 2125 0807 DB000000 		.4byte	0xdb
 2126 080b 00       		.byte	0
 2127 080c 00       		.byte	0
 2128 080d 04       		.uleb128 0x4
 2129 080e A8040000 		.4byte	.LASF124
 2130 0812 0C       		.byte	0xc
 2131 0813 3D       		.byte	0x3d
 2132 0814 F8070000 		.4byte	0x7f8
 2133 0818 16       		.uleb128 0x16
 2134 0819 04       		.byte	0x4
 2135 081a 07       		.byte	0x7
 2136 081b FA       		.byte	0xfa
 2137 081c 75080000 		.4byte	0x875
 2138 0820 17       		.uleb128 0x17
 2139 0821 3E000000 		.4byte	.LASF125
 2140 0825 07       		.byte	0x7
 2141 0826 0101     		.2byte	0x101
 2142 0828 12010000 		.4byte	0x112
 2143 082c 17       		.uleb128 0x17
 2144 082d F7000000 		.4byte	.LASF126
 2145 0831 07       		.byte	0x7
 2146 0832 0801     		.2byte	0x108
 2147 0834 12010000 		.4byte	0x112
 2148 0838 17       		.uleb128 0x17
 2149 0839 99080000 		.4byte	.LASF127
 2150 083d 07       		.byte	0x7
ARM GAS  /tmp/cctOVqwV.s 			page 39


 2151 083e 0F01     		.2byte	0x10f
 2152 0840 1E030000 		.4byte	0x31e
 2153 0844 17       		.uleb128 0x17
 2154 0845 4E040000 		.4byte	.LASF128
 2155 0849 07       		.byte	0x7
 2156 084a 1601     		.2byte	0x116
 2157 084c 75080000 		.4byte	0x875
 2158 0850 17       		.uleb128 0x17
 2159 0851 E2020000 		.4byte	.LASF129
 2160 0855 07       		.byte	0x7
 2161 0856 1E01     		.2byte	0x11e
 2162 0858 A0080000 		.4byte	0x8a0
 2163 085c 17       		.uleb128 0x17
 2164 085d 2B070000 		.4byte	.LASF130
 2165 0861 07       		.byte	0x7
 2166 0862 2701     		.2byte	0x127
 2167 0864 D7080000 		.4byte	0x8d7
 2168 0868 17       		.uleb128 0x17
 2169 0869 AA060000 		.4byte	.LASF131
 2170 086d 07       		.byte	0x7
 2171 086e 2F01     		.2byte	0x12f
 2172 0870 1D010000 		.4byte	0x11d
 2173 0874 00       		.byte	0
 2174 0875 0A       		.uleb128 0xa
 2175 0876 04       		.byte	0x4
 2176 0877 36020000 		.4byte	0x236
 2177 087b 06       		.uleb128 0x6
 2178 087c F9060000 		.4byte	.LASF132
 2179 0880 0C       		.byte	0xc
 2180 0881 0D       		.byte	0xd
 2181 0882 34       		.byte	0x34
 2182 0883 A0080000 		.4byte	0x8a0
 2183 0887 07       		.uleb128 0x7
 2184 0888 BC080000 		.4byte	.LASF133
 2185 088c 0D       		.byte	0xd
 2186 088d 35       		.byte	0x35
 2187 088e 6B020000 		.4byte	0x26b
 2188 0892 00       		.byte	0
 2189 0893 07       		.uleb128 0x7
 2190 0894 91050000 		.4byte	.LASF134
 2191 0898 0D       		.byte	0xd
 2192 0899 37       		.byte	0x37
 2193 089a 28010000 		.4byte	0x128
 2194 089e 08       		.byte	0x8
 2195 089f 00       		.byte	0
 2196 08a0 0A       		.uleb128 0xa
 2197 08a1 04       		.byte	0x4
 2198 08a2 7B080000 		.4byte	0x87b
 2199 08a6 06       		.uleb128 0x6
 2200 08a7 58080000 		.4byte	.LASF135
 2201 08ab 10       		.byte	0x10
 2202 08ac 0E       		.byte	0xe
 2203 08ad 39       		.byte	0x39
 2204 08ae D7080000 		.4byte	0x8d7
 2205 08b2 07       		.uleb128 0x7
 2206 08b3 7C050000 		.4byte	.LASF136
 2207 08b7 0E       		.byte	0xe
ARM GAS  /tmp/cctOVqwV.s 			page 40


 2208 08b8 3A       		.byte	0x3a
 2209 08b9 6B020000 		.4byte	0x26b
 2210 08bd 00       		.byte	0
 2211 08be 07       		.uleb128 0x7
 2212 08bf DB080000 		.4byte	.LASF137
 2213 08c3 0E       		.byte	0xe
 2214 08c4 3C       		.byte	0x3c
 2215 08c5 41020000 		.4byte	0x241
 2216 08c9 08       		.byte	0x8
 2217 08ca 07       		.uleb128 0x7
 2218 08cb AB070000 		.4byte	.LASF138
 2219 08cf 0E       		.byte	0xe
 2220 08d0 3E       		.byte	0x3e
 2221 08d1 15090000 		.4byte	0x915
 2222 08d5 0C       		.byte	0xc
 2223 08d6 00       		.byte	0
 2224 08d7 0A       		.uleb128 0xa
 2225 08d8 04       		.byte	0x4
 2226 08d9 A6080000 		.4byte	0x8a6
 2227 08dd 0A       		.uleb128 0xa
 2228 08de 04       		.byte	0x4
 2229 08df EA080000 		.4byte	0x8ea
 2230 08e3 02       		.uleb128 0x2
 2231 08e4 01       		.byte	0x1
 2232 08e5 08       		.byte	0x8
 2233 08e6 7D070000 		.4byte	.LASF139
 2234 08ea 18       		.uleb128 0x18
 2235 08eb E3080000 		.4byte	0x8e3
 2236 08ef 0A       		.uleb128 0xa
 2237 08f0 04       		.byte	0x4
 2238 08f1 20030000 		.4byte	0x320
 2239 08f5 05       		.uleb128 0x5
 2240 08f6 DD080000 		.4byte	0x8dd
 2241 08fa 10       		.uleb128 0x10
 2242 08fb 31060000 		.4byte	0x631
 2243 08ff 0A090000 		.4byte	0x90a
 2244 0903 11       		.uleb128 0x11
 2245 0904 54040000 		.4byte	0x454
 2246 0908 1A       		.byte	0x1a
 2247 0909 00       		.byte	0
 2248 090a 04       		.uleb128 0x4
 2249 090b 9E020000 		.4byte	.LASF140
 2250 090f 0E       		.byte	0xe
 2251 0910 34       		.byte	0x34
 2252 0911 A6080000 		.4byte	0x8a6
 2253 0915 0A       		.uleb128 0xa
 2254 0916 04       		.byte	0x4
 2255 0917 0A090000 		.4byte	0x90a
 2256 091b 02       		.uleb128 0x2
 2257 091c 01       		.byte	0x1
 2258 091d 02       		.byte	0x2
 2259 091e 60050000 		.4byte	.LASF141
 2260 0922 19       		.uleb128 0x19
 2261 0923 01       		.byte	0x1
 2262 0924 5A000000 		.4byte	0x5a
 2263 0928 0F       		.byte	0xf
 2264 0929 4A       		.byte	0x4a
ARM GAS  /tmp/cctOVqwV.s 			page 41


 2265 092a 41090000 		.4byte	0x941
 2266 092e 1A       		.uleb128 0x1a
 2267 092f D0080000 		.4byte	.LASF142
 2268 0933 00       		.byte	0
 2269 0934 1A       		.uleb128 0x1a
 2270 0935 74070000 		.4byte	.LASF143
 2271 0939 01       		.byte	0x1
 2272 093a 1A       		.uleb128 0x1a
 2273 093b 59010000 		.4byte	.LASF144
 2274 093f 02       		.byte	0x2
 2275 0940 00       		.byte	0
 2276 0941 04       		.uleb128 0x4
 2277 0942 85080000 		.4byte	.LASF145
 2278 0946 0F       		.byte	0xf
 2279 0947 4E       		.byte	0x4e
 2280 0948 22090000 		.4byte	0x922
 2281 094c 04       		.uleb128 0x4
 2282 094d 7B080000 		.4byte	.LASF146
 2283 0951 0F       		.byte	0xf
 2284 0952 53       		.byte	0x53
 2285 0953 57090000 		.4byte	0x957
 2286 0957 0B       		.uleb128 0xb
 2287 0958 7B080000 		.4byte	.LASF146
 2288 095c 1C       		.byte	0x1c
 2289 095d 10       		.byte	0x10
 2290 095e 7901     		.2byte	0x179
 2291 0960 C0090000 		.4byte	0x9c0
 2292 0964 09       		.uleb128 0x9
 2293 0965 C1010000 		.4byte	.LASF147
 2294 0969 10       		.byte	0x10
 2295 096a 7D01     		.2byte	0x17d
 2296 096c 41090000 		.4byte	0x941
 2297 0970 00       		.byte	0
 2298 0971 09       		.uleb128 0x9
 2299 0972 87070000 		.4byte	.LASF148
 2300 0976 10       		.byte	0x10
 2301 0977 8101     		.2byte	0x181
 2302 0979 B60A0000 		.4byte	0xab6
 2303 097d 04       		.byte	0x4
 2304 097e 09       		.uleb128 0x9
 2305 097f 8D000000 		.4byte	.LASF149
 2306 0983 10       		.byte	0x10
 2307 0984 8501     		.2byte	0x185
 2308 0986 060A0000 		.4byte	0xa06
 2309 098a 08       		.byte	0x8
 2310 098b 09       		.uleb128 0x9
 2311 098c 43070000 		.4byte	.LASF150
 2312 0990 10       		.byte	0x10
 2313 0991 8901     		.2byte	0x189
 2314 0993 FA090000 		.4byte	0x9fa
 2315 0997 0C       		.byte	0xc
 2316 0998 09       		.uleb128 0x9
 2317 0999 C7010000 		.4byte	.LASF151
 2318 099d 10       		.byte	0x10
 2319 099e 8D01     		.2byte	0x18d
 2320 09a0 EE090000 		.4byte	0x9ee
 2321 09a4 10       		.byte	0x10
ARM GAS  /tmp/cctOVqwV.s 			page 42


 2322 09a5 09       		.uleb128 0x9
 2323 09a6 C4080000 		.4byte	.LASF152
 2324 09aa 10       		.byte	0x10
 2325 09ab 9501     		.2byte	0x195
 2326 09ad BB000000 		.4byte	0xbb
 2327 09b1 14       		.byte	0x14
 2328 09b2 08       		.uleb128 0x8
 2329 09b3 74696D00 		.ascii	"tim\000"
 2330 09b7 10       		.byte	0x10
 2331 09b8 9901     		.2byte	0x199
 2332 09ba C10A0000 		.4byte	0xac1
 2333 09be 18       		.byte	0x18
 2334 09bf 00       		.byte	0
 2335 09c0 04       		.uleb128 0x4
 2336 09c1 3A020000 		.4byte	.LASF153
 2337 09c5 0F       		.byte	0xf
 2338 09c6 5A       		.byte	0x5a
 2339 09c7 CB090000 		.4byte	0x9cb
 2340 09cb 0A       		.uleb128 0xa
 2341 09cc 04       		.byte	0x4
 2342 09cd D1090000 		.4byte	0x9d1
 2343 09d1 0C       		.uleb128 0xc
 2344 09d2 DC090000 		.4byte	0x9dc
 2345 09d6 0D       		.uleb128 0xd
 2346 09d7 DC090000 		.4byte	0x9dc
 2347 09db 00       		.byte	0
 2348 09dc 0A       		.uleb128 0xa
 2349 09dd 04       		.byte	0x4
 2350 09de 4C090000 		.4byte	0x94c
 2351 09e2 13       		.uleb128 0x13
 2352 09e3 9B010000 		.4byte	.LASF154
 2353 09e7 10       		.byte	0x10
 2354 09e8 2501     		.2byte	0x125
 2355 09ea BB000000 		.4byte	0xbb
 2356 09ee 13       		.uleb128 0x13
 2357 09ef 00000000 		.4byte	.LASF155
 2358 09f3 10       		.byte	0x10
 2359 09f4 2A01     		.2byte	0x12a
 2360 09f6 A5000000 		.4byte	0xa5
 2361 09fa 13       		.uleb128 0x13
 2362 09fb B1060000 		.4byte	.LASF156
 2363 09ff 10       		.byte	0x10
 2364 0a00 2F01     		.2byte	0x12f
 2365 0a02 BB000000 		.4byte	0xbb
 2366 0a06 13       		.uleb128 0x13
 2367 0a07 90080000 		.4byte	.LASF157
 2368 0a0b 10       		.byte	0x10
 2369 0a0c 3401     		.2byte	0x134
 2370 0a0e BB000000 		.4byte	0xbb
 2371 0a12 12       		.uleb128 0x12
 2372 0a13 08       		.byte	0x8
 2373 0a14 10       		.byte	0x10
 2374 0a15 3901     		.2byte	0x139
 2375 0a17 360A0000 		.4byte	0xa36
 2376 0a1b 09       		.uleb128 0x9
 2377 0a1c 82070000 		.4byte	.LASF158
 2378 0a20 10       		.byte	0x10
ARM GAS  /tmp/cctOVqwV.s 			page 43


 2379 0a21 3D01     		.2byte	0x13d
 2380 0a23 E2090000 		.4byte	0x9e2
 2381 0a27 00       		.byte	0
 2382 0a28 09       		.uleb128 0x9
 2383 0a29 6B030000 		.4byte	.LASF159
 2384 0a2d 10       		.byte	0x10
 2385 0a2e 4301     		.2byte	0x143
 2386 0a30 C0090000 		.4byte	0x9c0
 2387 0a34 04       		.byte	0x4
 2388 0a35 00       		.byte	0
 2389 0a36 13       		.uleb128 0x13
 2390 0a37 18080000 		.4byte	.LASF160
 2391 0a3b 10       		.byte	0x10
 2392 0a3c 4501     		.2byte	0x145
 2393 0a3e 120A0000 		.4byte	0xa12
 2394 0a42 12       		.uleb128 0x12
 2395 0a43 34       		.byte	0x34
 2396 0a44 10       		.byte	0x10
 2397 0a45 4A01     		.2byte	0x14a
 2398 0a47 9A0A0000 		.4byte	0xa9a
 2399 0a4b 09       		.uleb128 0x9
 2400 0a4c 3E010000 		.4byte	.LASF161
 2401 0a50 10       		.byte	0x10
 2402 0a51 5001     		.2byte	0x150
 2403 0a53 BB000000 		.4byte	0xbb
 2404 0a57 00       		.byte	0
 2405 0a58 09       		.uleb128 0x9
 2406 0a59 8D000000 		.4byte	.LASF149
 2407 0a5d 10       		.byte	0x10
 2408 0a5e 5601     		.2byte	0x156
 2409 0a60 060A0000 		.4byte	0xa06
 2410 0a64 04       		.byte	0x4
 2411 0a65 09       		.uleb128 0x9
 2412 0a66 6B030000 		.4byte	.LASF159
 2413 0a6a 10       		.byte	0x10
 2414 0a6b 5C01     		.2byte	0x15c
 2415 0a6d C0090000 		.4byte	0x9c0
 2416 0a71 08       		.byte	0x8
 2417 0a72 09       		.uleb128 0x9
 2418 0a73 C7010000 		.4byte	.LASF151
 2419 0a77 10       		.byte	0x10
 2420 0a78 6001     		.2byte	0x160
 2421 0a7a 9A0A0000 		.4byte	0xa9a
 2422 0a7e 0C       		.byte	0xc
 2423 0a7f 08       		.uleb128 0x8
 2424 0a80 63723200 		.ascii	"cr2\000"
 2425 0a84 10       		.byte	0x10
 2426 0a85 6601     		.2byte	0x166
 2427 0a87 BB000000 		.4byte	0xbb
 2428 0a8b 2C       		.byte	0x2c
 2429 0a8c 09       		.uleb128 0x9
 2430 0a8d FF080000 		.4byte	.LASF162
 2431 0a91 10       		.byte	0x10
 2432 0a92 7301     		.2byte	0x173
 2433 0a94 BB000000 		.4byte	0xbb
 2434 0a98 30       		.byte	0x30
 2435 0a99 00       		.byte	0
ARM GAS  /tmp/cctOVqwV.s 			page 44


 2436 0a9a 10       		.uleb128 0x10
 2437 0a9b 360A0000 		.4byte	0xa36
 2438 0a9f AA0A0000 		.4byte	0xaaa
 2439 0aa3 11       		.uleb128 0x11
 2440 0aa4 54040000 		.4byte	0x454
 2441 0aa8 03       		.byte	0x3
 2442 0aa9 00       		.byte	0
 2443 0aaa 13       		.uleb128 0x13
 2444 0aab 3E080000 		.4byte	.LASF163
 2445 0aaf 10       		.byte	0x10
 2446 0ab0 7401     		.2byte	0x174
 2447 0ab2 420A0000 		.4byte	0xa42
 2448 0ab6 0A       		.uleb128 0xa
 2449 0ab7 04       		.byte	0x4
 2450 0ab8 BC0A0000 		.4byte	0xabc
 2451 0abc 18       		.uleb128 0x18
 2452 0abd AA0A0000 		.4byte	0xaaa
 2453 0ac1 0A       		.uleb128 0xa
 2454 0ac2 04       		.byte	0x4
 2455 0ac3 EC070000 		.4byte	0x7ec
 2456 0ac7 1B       		.uleb128 0x1b
 2457 0ac8 26000000 		.4byte	.LASF193
 2458 0acc 01       		.byte	0x1
 2459 0acd 6F       		.byte	0x6f
 2460 0ace 00000000 		.4byte	.LFB258
 2461 0ad2 5C000000 		.4byte	.LFE258-.LFB258
 2462 0ad6 01       		.uleb128 0x1
 2463 0ad7 9C       		.byte	0x9c
 2464 0ad8 470B0000 		.4byte	0xb47
 2465 0adc 1C       		.uleb128 0x1c
 2466 0add E2030000 		.4byte	.LASF171
 2467 0ae1 01       		.byte	0x1
 2468 0ae2 6F       		.byte	0x6f
 2469 0ae3 DC090000 		.4byte	0x9dc
 2470 0ae7 00000000 		.4byte	.LLST0
 2471 0aeb 1D       		.uleb128 0x1d
 2472 0aec 737200   		.ascii	"sr\000"
 2473 0aef 01       		.byte	0x1
 2474 0af0 70       		.byte	0x70
 2475 0af1 BB000000 		.4byte	0xbb
 2476 0af5 42000000 		.4byte	.LLST1
 2477 0af9 1E       		.uleb128 0x1e
 2478 0afa 1E000000 		.4byte	.LVL3
 2479 0afe 090B0000 		.4byte	0xb09
 2480 0b02 1F       		.uleb128 0x1f
 2481 0b03 01       		.uleb128 0x1
 2482 0b04 50       		.byte	0x50
 2483 0b05 02       		.uleb128 0x2
 2484 0b06 75       		.byte	0x75
 2485 0b07 00       		.sleb128 0
 2486 0b08 00       		.byte	0
 2487 0b09 1E       		.uleb128 0x1e
 2488 0b0a 2C000000 		.4byte	.LVL4
 2489 0b0e 190B0000 		.4byte	0xb19
 2490 0b12 1F       		.uleb128 0x1f
 2491 0b13 01       		.uleb128 0x1
 2492 0b14 50       		.byte	0x50
ARM GAS  /tmp/cctOVqwV.s 			page 45


 2493 0b15 02       		.uleb128 0x2
 2494 0b16 75       		.byte	0x75
 2495 0b17 00       		.sleb128 0
 2496 0b18 00       		.byte	0
 2497 0b19 1E       		.uleb128 0x1e
 2498 0b1a 3A000000 		.4byte	.LVL5
 2499 0b1e 290B0000 		.4byte	0xb29
 2500 0b22 1F       		.uleb128 0x1f
 2501 0b23 01       		.uleb128 0x1
 2502 0b24 50       		.byte	0x50
 2503 0b25 02       		.uleb128 0x2
 2504 0b26 75       		.byte	0x75
 2505 0b27 00       		.sleb128 0
 2506 0b28 00       		.byte	0
 2507 0b29 1E       		.uleb128 0x1e
 2508 0b2a 48000000 		.4byte	.LVL6
 2509 0b2e 390B0000 		.4byte	0xb39
 2510 0b32 1F       		.uleb128 0x1f
 2511 0b33 01       		.uleb128 0x1
 2512 0b34 50       		.byte	0x50
 2513 0b35 02       		.uleb128 0x2
 2514 0b36 75       		.byte	0x75
 2515 0b37 00       		.sleb128 0
 2516 0b38 00       		.byte	0
 2517 0b39 20       		.uleb128 0x20
 2518 0b3a 5A000000 		.4byte	.LVL8
 2519 0b3e 1F       		.uleb128 0x1f
 2520 0b3f 01       		.uleb128 0x1
 2521 0b40 50       		.byte	0x50
 2522 0b41 03       		.uleb128 0x3
 2523 0b42 F3       		.byte	0xf3
 2524 0b43 01       		.uleb128 0x1
 2525 0b44 50       		.byte	0x50
 2526 0b45 00       		.byte	0
 2527 0b46 00       		.byte	0
 2528 0b47 21       		.uleb128 0x21
 2529 0b48 4E000000 		.4byte	.LASF164
 2530 0b4c 01       		.byte	0x1
 2531 0b4d 96       		.byte	0x96
 2532 0b4e 00000000 		.4byte	.LFB259
 2533 0b52 24000000 		.4byte	.LFE259-.LFB259
 2534 0b56 01       		.uleb128 0x1
 2535 0b57 9C       		.byte	0x9c
 2536 0b58 790B0000 		.4byte	0xb79
 2537 0b5c 1E       		.uleb128 0x1e
 2538 0b5d 14000000 		.4byte	.LVL9
 2539 0b61 6F0B0000 		.4byte	0xb6f
 2540 0b65 1F       		.uleb128 0x1f
 2541 0b66 01       		.uleb128 0x1
 2542 0b67 50       		.byte	0x50
 2543 0b68 05       		.uleb128 0x5
 2544 0b69 03       		.byte	0x3
 2545 0b6a 00000000 		.4byte	.LANCHOR0
 2546 0b6e 00       		.byte	0
 2547 0b6f 22       		.uleb128 0x22
 2548 0b70 1C000000 		.4byte	.LVL10
 2549 0b74 03100000 		.4byte	0x1003
ARM GAS  /tmp/cctOVqwV.s 			page 46


 2550 0b78 00       		.byte	0
 2551 0b79 21       		.uleb128 0x21
 2552 0b7a 94000000 		.4byte	.LASF165
 2553 0b7e 01       		.byte	0x1
 2554 0b7f AC       		.byte	0xac
 2555 0b80 00000000 		.4byte	.LFB260
 2556 0b84 5C000000 		.4byte	.LFE260-.LFB260
 2557 0b88 01       		.uleb128 0x1
 2558 0b89 9C       		.byte	0x9c
 2559 0b8a F20B0000 		.4byte	0xbf2
 2560 0b8e 1D       		.uleb128 0x1d
 2561 0b8f 737200   		.ascii	"sr\000"
 2562 0b92 01       		.byte	0x1
 2563 0b93 AD       		.byte	0xad
 2564 0b94 BB000000 		.4byte	0xbb
 2565 0b98 75000000 		.4byte	.LLST2
 2566 0b9c 1E       		.uleb128 0x1e
 2567 0b9d 20000000 		.4byte	.LVL14
 2568 0ba1 AF0B0000 		.4byte	0xbaf
 2569 0ba5 1F       		.uleb128 0x1f
 2570 0ba6 01       		.uleb128 0x1
 2571 0ba7 50       		.byte	0x50
 2572 0ba8 05       		.uleb128 0x5
 2573 0ba9 03       		.byte	0x3
 2574 0baa 00000000 		.4byte	.LANCHOR0
 2575 0bae 00       		.byte	0
 2576 0baf 1E       		.uleb128 0x1e
 2577 0bb0 2E000000 		.4byte	.LVL15
 2578 0bb4 C20B0000 		.4byte	0xbc2
 2579 0bb8 1F       		.uleb128 0x1f
 2580 0bb9 01       		.uleb128 0x1
 2581 0bba 50       		.byte	0x50
 2582 0bbb 05       		.uleb128 0x5
 2583 0bbc 03       		.byte	0x3
 2584 0bbd 00000000 		.4byte	.LANCHOR0
 2585 0bc1 00       		.byte	0
 2586 0bc2 1E       		.uleb128 0x1e
 2587 0bc3 3C000000 		.4byte	.LVL16
 2588 0bc7 D50B0000 		.4byte	0xbd5
 2589 0bcb 1F       		.uleb128 0x1f
 2590 0bcc 01       		.uleb128 0x1
 2591 0bcd 50       		.byte	0x50
 2592 0bce 05       		.uleb128 0x5
 2593 0bcf 03       		.byte	0x3
 2594 0bd0 00000000 		.4byte	.LANCHOR0
 2595 0bd4 00       		.byte	0
 2596 0bd5 1E       		.uleb128 0x1e
 2597 0bd6 4A000000 		.4byte	.LVL17
 2598 0bda E80B0000 		.4byte	0xbe8
 2599 0bde 1F       		.uleb128 0x1f
 2600 0bdf 01       		.uleb128 0x1
 2601 0be0 50       		.byte	0x50
 2602 0be1 05       		.uleb128 0x5
 2603 0be2 03       		.byte	0x3
 2604 0be3 00000000 		.4byte	.LANCHOR0
 2605 0be7 00       		.byte	0
 2606 0be8 22       		.uleb128 0x22
ARM GAS  /tmp/cctOVqwV.s 			page 47


 2607 0be9 52000000 		.4byte	.LVL19
 2608 0bed 03100000 		.4byte	0x1003
 2609 0bf1 00       		.byte	0
 2610 0bf2 21       		.uleb128 0x21
 2611 0bf3 B8010000 		.4byte	.LASF166
 2612 0bf7 01       		.byte	0x1
 2613 0bf8 E3       		.byte	0xe3
 2614 0bf9 00000000 		.4byte	.LFB261
 2615 0bfd 14000000 		.4byte	.LFE261-.LFB261
 2616 0c01 01       		.uleb128 0x1
 2617 0c02 9C       		.byte	0x9c
 2618 0c03 280C0000 		.4byte	0xc28
 2619 0c07 23       		.uleb128 0x23
 2620 0c08 08000000 		.4byte	.LVL20
 2621 0c0c C70A0000 		.4byte	0xac7
 2622 0c10 1E0C0000 		.4byte	0xc1e
 2623 0c14 1F       		.uleb128 0x1f
 2624 0c15 01       		.uleb128 0x1
 2625 0c16 50       		.byte	0x50
 2626 0c17 05       		.uleb128 0x5
 2627 0c18 03       		.byte	0x3
 2628 0c19 00000000 		.4byte	.LANCHOR1
 2629 0c1d 00       		.byte	0
 2630 0c1e 22       		.uleb128 0x22
 2631 0c1f 10000000 		.4byte	.LVL21
 2632 0c23 03100000 		.4byte	0x1003
 2633 0c27 00       		.byte	0
 2634 0c28 24       		.uleb128 0x24
 2635 0c29 74030000 		.4byte	.LASF167
 2636 0c2d 01       		.byte	0x1
 2637 0c2e 0901     		.2byte	0x109
 2638 0c30 00000000 		.4byte	.LFB262
 2639 0c34 14000000 		.4byte	.LFE262-.LFB262
 2640 0c38 01       		.uleb128 0x1
 2641 0c39 9C       		.byte	0x9c
 2642 0c3a 5F0C0000 		.4byte	0xc5f
 2643 0c3e 23       		.uleb128 0x23
 2644 0c3f 08000000 		.4byte	.LVL22
 2645 0c43 C70A0000 		.4byte	0xac7
 2646 0c47 550C0000 		.4byte	0xc55
 2647 0c4b 1F       		.uleb128 0x1f
 2648 0c4c 01       		.uleb128 0x1
 2649 0c4d 50       		.byte	0x50
 2650 0c4e 05       		.uleb128 0x5
 2651 0c4f 03       		.byte	0x3
 2652 0c50 00000000 		.4byte	.LANCHOR2
 2653 0c54 00       		.byte	0
 2654 0c55 22       		.uleb128 0x22
 2655 0c56 10000000 		.4byte	.LVL23
 2656 0c5a 03100000 		.4byte	0x1003
 2657 0c5e 00       		.byte	0
 2658 0c5f 24       		.uleb128 0x24
 2659 0c60 45000000 		.4byte	.LASF168
 2660 0c64 01       		.byte	0x1
 2661 0c65 5901     		.2byte	0x159
 2662 0c67 00000000 		.4byte	.LFB263
 2663 0c6b 14000000 		.4byte	.LFE263-.LFB263
ARM GAS  /tmp/cctOVqwV.s 			page 48


 2664 0c6f 01       		.uleb128 0x1
 2665 0c70 9C       		.byte	0x9c
 2666 0c71 960C0000 		.4byte	0xc96
 2667 0c75 23       		.uleb128 0x23
 2668 0c76 08000000 		.4byte	.LVL24
 2669 0c7a C70A0000 		.4byte	0xac7
 2670 0c7e 8C0C0000 		.4byte	0xc8c
 2671 0c82 1F       		.uleb128 0x1f
 2672 0c83 01       		.uleb128 0x1
 2673 0c84 50       		.byte	0x50
 2674 0c85 05       		.uleb128 0x5
 2675 0c86 03       		.byte	0x3
 2676 0c87 00000000 		.4byte	.LANCHOR3
 2677 0c8b 00       		.byte	0
 2678 0c8c 22       		.uleb128 0x22
 2679 0c8d 10000000 		.4byte	.LVL25
 2680 0c91 03100000 		.4byte	0x1003
 2681 0c95 00       		.byte	0
 2682 0c96 24       		.uleb128 0x24
 2683 0c97 8B040000 		.4byte	.LASF169
 2684 0c9b 01       		.byte	0x1
 2685 0c9c 6C01     		.2byte	0x16c
 2686 0c9e 00000000 		.4byte	.LFB264
 2687 0ca2 6C000000 		.4byte	.LFE264-.LFB264
 2688 0ca6 01       		.uleb128 0x1
 2689 0ca7 9C       		.byte	0x9c
 2690 0ca8 F90C0000 		.4byte	0xcf9
 2691 0cac 23       		.uleb128 0x23
 2692 0cad 14000000 		.4byte	.LVL26
 2693 0cb1 0F100000 		.4byte	0x100f
 2694 0cb5 C00C0000 		.4byte	0xcc0
 2695 0cb9 1F       		.uleb128 0x1f
 2696 0cba 01       		.uleb128 0x1
 2697 0cbb 50       		.byte	0x50
 2698 0cbc 02       		.uleb128 0x2
 2699 0cbd 78       		.byte	0x78
 2700 0cbe 00       		.sleb128 0
 2701 0cbf 00       		.byte	0
 2702 0cc0 23       		.uleb128 0x23
 2703 0cc1 26000000 		.4byte	.LVL27
 2704 0cc5 0F100000 		.4byte	0x100f
 2705 0cc9 D40C0000 		.4byte	0xcd4
 2706 0ccd 1F       		.uleb128 0x1f
 2707 0cce 01       		.uleb128 0x1
 2708 0ccf 50       		.byte	0x50
 2709 0cd0 02       		.uleb128 0x2
 2710 0cd1 77       		.byte	0x77
 2711 0cd2 00       		.sleb128 0
 2712 0cd3 00       		.byte	0
 2713 0cd4 23       		.uleb128 0x23
 2714 0cd5 32000000 		.4byte	.LVL28
 2715 0cd9 0F100000 		.4byte	0x100f
 2716 0cdd E80C0000 		.4byte	0xce8
 2717 0ce1 1F       		.uleb128 0x1f
 2718 0ce2 01       		.uleb128 0x1
 2719 0ce3 50       		.byte	0x50
 2720 0ce4 02       		.uleb128 0x2
ARM GAS  /tmp/cctOVqwV.s 			page 49


 2721 0ce5 75       		.byte	0x75
 2722 0ce6 00       		.sleb128 0
 2723 0ce7 00       		.byte	0
 2724 0ce8 25       		.uleb128 0x25
 2725 0ce9 3E000000 		.4byte	.LVL29
 2726 0ced 0F100000 		.4byte	0x100f
 2727 0cf1 1F       		.uleb128 0x1f
 2728 0cf2 01       		.uleb128 0x1
 2729 0cf3 50       		.byte	0x50
 2730 0cf4 02       		.uleb128 0x2
 2731 0cf5 74       		.byte	0x74
 2732 0cf6 00       		.sleb128 0
 2733 0cf7 00       		.byte	0
 2734 0cf8 00       		.byte	0
 2735 0cf9 24       		.uleb128 0x24
 2736 0cfa D9010000 		.4byte	.LASF170
 2737 0cfe 01       		.byte	0x1
 2738 0cff A901     		.2byte	0x1a9
 2739 0d01 00000000 		.4byte	.LFB265
 2740 0d05 80010000 		.4byte	.LFE265-.LFB265
 2741 0d09 01       		.uleb128 0x1
 2742 0d0a 9C       		.byte	0x9c
 2743 0d0b BE0D0000 		.4byte	0xdbe
 2744 0d0f 26       		.uleb128 0x26
 2745 0d10 E2030000 		.4byte	.LASF171
 2746 0d14 01       		.byte	0x1
 2747 0d15 A901     		.2byte	0x1a9
 2748 0d17 DC090000 		.4byte	0x9dc
 2749 0d1b B4000000 		.4byte	.LLST3
 2750 0d1f 27       		.uleb128 0x27
 2751 0d20 70736300 		.ascii	"psc\000"
 2752 0d24 01       		.byte	0x1
 2753 0d25 AA01     		.2byte	0x1aa
 2754 0d27 BB000000 		.4byte	0xbb
 2755 0d2b 4E010000 		.4byte	.LLST4
 2756 0d2f 28       		.uleb128 0x28
 2757 0d30 D3030000 		.4byte	.LASF172
 2758 0d34 01       		.byte	0x1
 2759 0d35 AB01     		.2byte	0x1ab
 2760 0d37 BB000000 		.4byte	0xbb
 2761 0d3b 7D010000 		.4byte	.LLST5
 2762 0d3f 29       		.uleb128 0x29
 2763 0d40 C5060000 		.4byte	.LASF194
 2764 0d44 CE0D0000 		.4byte	0xdce
 2765 0d48 23       		.uleb128 0x23
 2766 0d49 EA000000 		.4byte	.LVL50
 2767 0d4d 1B100000 		.4byte	0x101b
 2768 0d51 600D0000 		.4byte	0xd60
 2769 0d55 1F       		.uleb128 0x1f
 2770 0d56 01       		.uleb128 0x1
 2771 0d57 50       		.byte	0x50
 2772 0d58 01       		.uleb128 0x1
 2773 0d59 49       		.byte	0x49
 2774 0d5a 1F       		.uleb128 0x1f
 2775 0d5b 01       		.uleb128 0x1
 2776 0d5c 51       		.byte	0x51
 2777 0d5d 01       		.uleb128 0x1
ARM GAS  /tmp/cctOVqwV.s 			page 50


 2778 0d5e 37       		.byte	0x37
 2779 0d5f 00       		.byte	0
 2780 0d60 23       		.uleb128 0x23
 2781 0d61 F2000000 		.4byte	.LVL51
 2782 0d65 1B100000 		.4byte	0x101b
 2783 0d69 780D0000 		.4byte	0xd78
 2784 0d6d 1F       		.uleb128 0x1f
 2785 0d6e 01       		.uleb128 0x1
 2786 0d6f 50       		.byte	0x50
 2787 0d70 01       		.uleb128 0x1
 2788 0d71 4B       		.byte	0x4b
 2789 0d72 1F       		.uleb128 0x1f
 2790 0d73 01       		.uleb128 0x1
 2791 0d74 51       		.byte	0x51
 2792 0d75 01       		.uleb128 0x1
 2793 0d76 37       		.byte	0x37
 2794 0d77 00       		.byte	0
 2795 0d78 23       		.uleb128 0x23
 2796 0d79 16010000 		.4byte	.LVL54
 2797 0d7d 1B100000 		.4byte	0x101b
 2798 0d81 900D0000 		.4byte	0xd90
 2799 0d85 1F       		.uleb128 0x1f
 2800 0d86 01       		.uleb128 0x1
 2801 0d87 50       		.byte	0x50
 2802 0d88 01       		.uleb128 0x1
 2803 0d89 4D       		.byte	0x4d
 2804 0d8a 1F       		.uleb128 0x1f
 2805 0d8b 01       		.uleb128 0x1
 2806 0d8c 51       		.byte	0x51
 2807 0d8d 01       		.uleb128 0x1
 2808 0d8e 37       		.byte	0x37
 2809 0d8f 00       		.byte	0
 2810 0d90 23       		.uleb128 0x23
 2811 0d91 3A010000 		.4byte	.LVL57
 2812 0d95 1B100000 		.4byte	0x101b
 2813 0d99 A90D0000 		.4byte	0xda9
 2814 0d9d 1F       		.uleb128 0x1f
 2815 0d9e 01       		.uleb128 0x1
 2816 0d9f 50       		.byte	0x50
 2817 0da0 02       		.uleb128 0x2
 2818 0da1 08       		.byte	0x8
 2819 0da2 32       		.byte	0x32
 2820 0da3 1F       		.uleb128 0x1f
 2821 0da4 01       		.uleb128 0x1
 2822 0da5 51       		.byte	0x51
 2823 0da6 01       		.uleb128 0x1
 2824 0da7 37       		.byte	0x37
 2825 0da8 00       		.byte	0
 2826 0da9 25       		.uleb128 0x25
 2827 0daa 5E010000 		.4byte	.LVL60
 2828 0dae 1B100000 		.4byte	0x101b
 2829 0db2 1F       		.uleb128 0x1f
 2830 0db3 01       		.uleb128 0x1
 2831 0db4 50       		.byte	0x50
 2832 0db5 01       		.uleb128 0x1
 2833 0db6 48       		.byte	0x48
 2834 0db7 1F       		.uleb128 0x1f
ARM GAS  /tmp/cctOVqwV.s 			page 51


 2835 0db8 01       		.uleb128 0x1
 2836 0db9 51       		.byte	0x51
 2837 0dba 01       		.uleb128 0x1
 2838 0dbb 37       		.byte	0x37
 2839 0dbc 00       		.byte	0
 2840 0dbd 00       		.byte	0
 2841 0dbe 10       		.uleb128 0x10
 2842 0dbf EA080000 		.4byte	0x8ea
 2843 0dc3 CE0D0000 		.4byte	0xdce
 2844 0dc7 11       		.uleb128 0x11
 2845 0dc8 54040000 		.4byte	0x454
 2846 0dcc 0D       		.byte	0xd
 2847 0dcd 00       		.byte	0
 2848 0dce 18       		.uleb128 0x18
 2849 0dcf BE0D0000 		.4byte	0xdbe
 2850 0dd3 24       		.uleb128 0x24
 2851 0dd4 0B070000 		.4byte	.LASF173
 2852 0dd8 01       		.byte	0x1
 2853 0dd9 7602     		.2byte	0x276
 2854 0ddb 00000000 		.4byte	.LFB266
 2855 0ddf 90000000 		.4byte	.LFE266-.LFB266
 2856 0de3 01       		.uleb128 0x1
 2857 0de4 9C       		.byte	0x9c
 2858 0de5 560E0000 		.4byte	0xe56
 2859 0de9 26       		.uleb128 0x26
 2860 0dea E2030000 		.4byte	.LASF171
 2861 0dee 01       		.byte	0x1
 2862 0def 7602     		.2byte	0x276
 2863 0df1 DC090000 		.4byte	0x9dc
 2864 0df5 B3010000 		.4byte	.LLST6
 2865 0df9 23       		.uleb128 0x23
 2866 0dfa 34000000 		.4byte	.LVL65
 2867 0dfe 26100000 		.4byte	0x1026
 2868 0e02 0C0E0000 		.4byte	0xe0c
 2869 0e06 1F       		.uleb128 0x1f
 2870 0e07 01       		.uleb128 0x1
 2871 0e08 50       		.byte	0x50
 2872 0e09 01       		.uleb128 0x1
 2873 0e0a 48       		.byte	0x48
 2874 0e0b 00       		.byte	0
 2875 0e0c 23       		.uleb128 0x23
 2876 0e0d 46000000 		.4byte	.LVL68
 2877 0e11 26100000 		.4byte	0x1026
 2878 0e15 1F0E0000 		.4byte	0xe1f
 2879 0e19 1F       		.uleb128 0x1f
 2880 0e1a 01       		.uleb128 0x1
 2881 0e1b 50       		.byte	0x50
 2882 0e1c 01       		.uleb128 0x1
 2883 0e1d 49       		.byte	0x49
 2884 0e1e 00       		.byte	0
 2885 0e1f 23       		.uleb128 0x23
 2886 0e20 4C000000 		.4byte	.LVL69
 2887 0e24 26100000 		.4byte	0x1026
 2888 0e28 320E0000 		.4byte	0xe32
 2889 0e2c 1F       		.uleb128 0x1f
 2890 0e2d 01       		.uleb128 0x1
 2891 0e2e 50       		.byte	0x50
ARM GAS  /tmp/cctOVqwV.s 			page 52


 2892 0e2f 01       		.uleb128 0x1
 2893 0e30 4B       		.byte	0x4b
 2894 0e31 00       		.byte	0
 2895 0e32 23       		.uleb128 0x23
 2896 0e33 5E000000 		.4byte	.LVL72
 2897 0e37 26100000 		.4byte	0x1026
 2898 0e3b 450E0000 		.4byte	0xe45
 2899 0e3f 1F       		.uleb128 0x1f
 2900 0e40 01       		.uleb128 0x1
 2901 0e41 50       		.byte	0x50
 2902 0e42 01       		.uleb128 0x1
 2903 0e43 4D       		.byte	0x4d
 2904 0e44 00       		.byte	0
 2905 0e45 25       		.uleb128 0x25
 2906 0e46 70000000 		.4byte	.LVL75
 2907 0e4a 26100000 		.4byte	0x1026
 2908 0e4e 1F       		.uleb128 0x1f
 2909 0e4f 01       		.uleb128 0x1
 2910 0e50 50       		.byte	0x50
 2911 0e51 02       		.uleb128 0x2
 2912 0e52 08       		.byte	0x8
 2913 0e53 32       		.byte	0x32
 2914 0e54 00       		.byte	0
 2915 0e55 00       		.byte	0
 2916 0e56 24       		.uleb128 0x24
 2917 0e57 5D070000 		.4byte	.LASF174
 2918 0e5b 01       		.byte	0x1
 2919 0e5c BD02     		.2byte	0x2bd
 2920 0e5e 00000000 		.4byte	.LFB267
 2921 0e62 0C000000 		.4byte	.LFE267-.LFB267
 2922 0e66 01       		.uleb128 0x1
 2923 0e67 9C       		.byte	0x9c
 2924 0e68 990E0000 		.4byte	0xe99
 2925 0e6c 2A       		.uleb128 0x2a
 2926 0e6d E2030000 		.4byte	.LASF171
 2927 0e71 01       		.byte	0x1
 2928 0e72 BD02     		.2byte	0x2bd
 2929 0e74 DC090000 		.4byte	0x9dc
 2930 0e78 01       		.uleb128 0x1
 2931 0e79 50       		.byte	0x50
 2932 0e7a 26       		.uleb128 0x26
 2933 0e7b E0060000 		.4byte	.LASF175
 2934 0e7f 01       		.byte	0x1
 2935 0e80 BE02     		.2byte	0x2be
 2936 0e82 EE090000 		.4byte	0x9ee
 2937 0e86 38020000 		.4byte	.LLST7
 2938 0e8a 2A       		.uleb128 0x2a
 2939 0e8b 23030000 		.4byte	.LASF176
 2940 0e8f 01       		.byte	0x1
 2941 0e90 BF02     		.2byte	0x2bf
 2942 0e92 060A0000 		.4byte	0xa06
 2943 0e96 01       		.uleb128 0x1
 2944 0e97 52       		.byte	0x52
 2945 0e98 00       		.byte	0
 2946 0e99 24       		.uleb128 0x24
 2947 0e9a 21010000 		.4byte	.LASF177
 2948 0e9e 01       		.byte	0x1
ARM GAS  /tmp/cctOVqwV.s 			page 53


 2949 0e9f D802     		.2byte	0x2d8
 2950 0ea1 00000000 		.4byte	.LFB268
 2951 0ea5 1E000000 		.4byte	.LFE268-.LFB268
 2952 0ea9 01       		.uleb128 0x1
 2953 0eaa 9C       		.byte	0x9c
 2954 0eab D00E0000 		.4byte	0xed0
 2955 0eaf 26       		.uleb128 0x26
 2956 0eb0 E2030000 		.4byte	.LASF171
 2957 0eb4 01       		.byte	0x1
 2958 0eb5 D802     		.2byte	0x2d8
 2959 0eb7 DC090000 		.4byte	0x9dc
 2960 0ebb 59020000 		.4byte	.LLST8
 2961 0ebf 26       		.uleb128 0x26
 2962 0ec0 E0060000 		.4byte	.LASF175
 2963 0ec4 01       		.byte	0x1
 2964 0ec5 D802     		.2byte	0x2d8
 2965 0ec7 EE090000 		.4byte	0x9ee
 2966 0ecb 7A020000 		.4byte	.LLST9
 2967 0ecf 00       		.byte	0
 2968 0ed0 24       		.uleb128 0x24
 2969 0ed1 F4020000 		.4byte	.LASF178
 2970 0ed5 01       		.byte	0x1
 2971 0ed6 F002     		.2byte	0x2f0
 2972 0ed8 00000000 		.4byte	.LFB269
 2973 0edc 18000000 		.4byte	.LFE269-.LFB269
 2974 0ee0 01       		.uleb128 0x1
 2975 0ee1 9C       		.byte	0x9c
 2976 0ee2 050F0000 		.4byte	0xf05
 2977 0ee6 2A       		.uleb128 0x2a
 2978 0ee7 E2030000 		.4byte	.LASF171
 2979 0eeb 01       		.byte	0x1
 2980 0eec F002     		.2byte	0x2f0
 2981 0eee DC090000 		.4byte	0x9dc
 2982 0ef2 01       		.uleb128 0x1
 2983 0ef3 50       		.byte	0x50
 2984 0ef4 28       		.uleb128 0x28
 2985 0ef5 FF080000 		.4byte	.LASF162
 2986 0ef9 01       		.byte	0x1
 2987 0efa F102     		.2byte	0x2f1
 2988 0efc BB000000 		.4byte	0xbb
 2989 0f00 9B020000 		.4byte	.LLST10
 2990 0f04 00       		.byte	0
 2991 0f05 24       		.uleb128 0x24
 2992 0f06 D7040000 		.4byte	.LASF179
 2993 0f0a 01       		.byte	0x1
 2994 0f0b 0403     		.2byte	0x304
 2995 0f0d 00000000 		.4byte	.LFB270
 2996 0f11 0C000000 		.4byte	.LFE270-.LFB270
 2997 0f15 01       		.uleb128 0x1
 2998 0f16 9C       		.byte	0x9c
 2999 0f17 2A0F0000 		.4byte	0xf2a
 3000 0f1b 2A       		.uleb128 0x2a
 3001 0f1c E2030000 		.4byte	.LASF171
 3002 0f20 01       		.byte	0x1
 3003 0f21 0403     		.2byte	0x304
 3004 0f23 DC090000 		.4byte	0x9dc
 3005 0f27 01       		.uleb128 0x1
ARM GAS  /tmp/cctOVqwV.s 			page 54


 3006 0f28 50       		.byte	0x50
 3007 0f29 00       		.byte	0
 3008 0f2a 24       		.uleb128 0x24
 3009 0f2b F0010000 		.4byte	.LASF180
 3010 0f2f 01       		.byte	0x1
 3011 0f30 1403     		.2byte	0x314
 3012 0f32 00000000 		.4byte	.LFB271
 3013 0f36 18000000 		.4byte	.LFE271-.LFB271
 3014 0f3a 01       		.uleb128 0x1
 3015 0f3b 9C       		.byte	0x9c
 3016 0f3c 710F0000 		.4byte	0xf71
 3017 0f40 26       		.uleb128 0x26
 3018 0f41 E2030000 		.4byte	.LASF171
 3019 0f45 01       		.byte	0x1
 3020 0f46 1403     		.2byte	0x314
 3021 0f48 DC090000 		.4byte	0x9dc
 3022 0f4c AE020000 		.4byte	.LLST11
 3023 0f50 26       		.uleb128 0x26
 3024 0f51 E0060000 		.4byte	.LASF175
 3025 0f55 01       		.byte	0x1
 3026 0f56 1503     		.2byte	0x315
 3027 0f58 EE090000 		.4byte	0x9ee
 3028 0f5c CF020000 		.4byte	.LLST12
 3029 0f60 28       		.uleb128 0x28
 3030 0f61 FF080000 		.4byte	.LASF162
 3031 0f65 01       		.byte	0x1
 3032 0f66 1603     		.2byte	0x316
 3033 0f68 BB000000 		.4byte	0xbb
 3034 0f6c F0020000 		.4byte	.LLST13
 3035 0f70 00       		.byte	0
 3036 0f71 24       		.uleb128 0x24
 3037 0f72 AE030000 		.4byte	.LASF181
 3038 0f76 01       		.byte	0x1
 3039 0f77 3003     		.2byte	0x330
 3040 0f79 00000000 		.4byte	.LFB272
 3041 0f7d 12000000 		.4byte	.LFE272-.LFB272
 3042 0f81 01       		.uleb128 0x1
 3043 0f82 9C       		.byte	0x9c
 3044 0f83 A80F0000 		.4byte	0xfa8
 3045 0f87 26       		.uleb128 0x26
 3046 0f88 E2030000 		.4byte	.LASF171
 3047 0f8c 01       		.byte	0x1
 3048 0f8d 3003     		.2byte	0x330
 3049 0f8f DC090000 		.4byte	0x9dc
 3050 0f93 03030000 		.4byte	.LLST14
 3051 0f97 26       		.uleb128 0x26
 3052 0f98 E0060000 		.4byte	.LASF175
 3053 0f9c 01       		.byte	0x1
 3054 0f9d 3103     		.2byte	0x331
 3055 0f9f EE090000 		.4byte	0x9ee
 3056 0fa3 24030000 		.4byte	.LLST15
 3057 0fa7 00       		.byte	0
 3058 0fa8 2B       		.uleb128 0x2b
 3059 0fa9 84050000 		.4byte	.LASF182
 3060 0fad 11       		.byte	0x11
 3061 0fae A706     		.2byte	0x6a7
 3062 0fb0 D1000000 		.4byte	0xd1
ARM GAS  /tmp/cctOVqwV.s 			page 55


 3063 0fb4 2C       		.uleb128 0x2c
 3064 0fb5 636800   		.ascii	"ch\000"
 3065 0fb8 07       		.byte	0x7
 3066 0fb9 0902     		.2byte	0x209
 3067 0fbb ED030000 		.4byte	0x3ed
 3068 0fbf 2D       		.uleb128 0x2d
 3069 0fc0 A5010000 		.4byte	.LASF183
 3070 0fc4 01       		.byte	0x1
 3071 0fc5 2A       		.byte	0x2a
 3072 0fc6 4C090000 		.4byte	0x94c
 3073 0fca 05       		.uleb128 0x5
 3074 0fcb 03       		.byte	0x3
 3075 0fcc 00000000 		.4byte	PWMD1
 3076 0fd0 2D       		.uleb128 0x2d
 3077 0fd1 B2010000 		.4byte	.LASF184
 3078 0fd5 01       		.byte	0x1
 3079 0fd6 3A       		.byte	0x3a
 3080 0fd7 4C090000 		.4byte	0x94c
 3081 0fdb 05       		.uleb128 0x5
 3082 0fdc 03       		.byte	0x3
 3083 0fdd 00000000 		.4byte	PWMD3
 3084 0fe1 2D       		.uleb128 0x2d
 3085 0fe2 77020000 		.4byte	.LASF185
 3086 0fe6 01       		.byte	0x1
 3087 0fe7 4A       		.byte	0x4a
 3088 0fe8 4C090000 		.4byte	0x94c
 3089 0fec 05       		.uleb128 0x5
 3090 0fed 03       		.byte	0x3
 3091 0fee 00000000 		.4byte	PWMD5
 3092 0ff2 2D       		.uleb128 0x2d
 3093 0ff3 93070000 		.4byte	.LASF186
 3094 0ff7 01       		.byte	0x1
 3095 0ff8 5A       		.byte	0x5a
 3096 0ff9 4C090000 		.4byte	0x94c
 3097 0ffd 05       		.uleb128 0x5
 3098 0ffe 03       		.byte	0x3
 3099 0fff 00000000 		.4byte	PWMD9
 3100 1003 2E       		.uleb128 0x2e
 3101 1004 58030000 		.4byte	.LASF187
 3102 1008 58030000 		.4byte	.LASF187
 3103 100c 0A       		.byte	0xa
 3104 100d 6601     		.2byte	0x166
 3105 100f 2E       		.uleb128 0x2e
 3106 1010 E3080000 		.4byte	.LASF188
 3107 1014 E3080000 		.4byte	.LASF188
 3108 1018 0F       		.byte	0xf
 3109 1019 2001     		.2byte	0x120
 3110 101b 2F       		.uleb128 0x2f
 3111 101c 63010000 		.4byte	.LASF189
 3112 1020 63010000 		.4byte	.LASF189
 3113 1024 12       		.byte	0x12
 3114 1025 4E       		.byte	0x4e
 3115 1026 2F       		.uleb128 0x2f
 3116 1027 D0020000 		.4byte	.LASF190
 3117 102b D0020000 		.4byte	.LASF190
 3118 102f 12       		.byte	0x12
 3119 1030 4F       		.byte	0x4f
ARM GAS  /tmp/cctOVqwV.s 			page 56


 3120 1031 00       		.byte	0
 3121              		.section	.debug_abbrev,"",%progbits
 3122              	.Ldebug_abbrev0:
 3123 0000 01       		.uleb128 0x1
 3124 0001 11       		.uleb128 0x11
 3125 0002 01       		.byte	0x1
 3126 0003 25       		.uleb128 0x25
 3127 0004 0E       		.uleb128 0xe
 3128 0005 13       		.uleb128 0x13
 3129 0006 0B       		.uleb128 0xb
 3130 0007 03       		.uleb128 0x3
 3131 0008 0E       		.uleb128 0xe
 3132 0009 55       		.uleb128 0x55
 3133 000a 17       		.uleb128 0x17
 3134 000b 11       		.uleb128 0x11
 3135 000c 01       		.uleb128 0x1
 3136 000d 10       		.uleb128 0x10
 3137 000e 17       		.uleb128 0x17
 3138 000f 00       		.byte	0
 3139 0010 00       		.byte	0
 3140 0011 02       		.uleb128 0x2
 3141 0012 24       		.uleb128 0x24
 3142 0013 00       		.byte	0
 3143 0014 0B       		.uleb128 0xb
 3144 0015 0B       		.uleb128 0xb
 3145 0016 3E       		.uleb128 0x3e
 3146 0017 0B       		.uleb128 0xb
 3147 0018 03       		.uleb128 0x3
 3148 0019 0E       		.uleb128 0xe
 3149 001a 00       		.byte	0
 3150 001b 00       		.byte	0
 3151 001c 03       		.uleb128 0x3
 3152 001d 24       		.uleb128 0x24
 3153 001e 00       		.byte	0
 3154 001f 0B       		.uleb128 0xb
 3155 0020 0B       		.uleb128 0xb
 3156 0021 3E       		.uleb128 0x3e
 3157 0022 0B       		.uleb128 0xb
 3158 0023 03       		.uleb128 0x3
 3159 0024 08       		.uleb128 0x8
 3160 0025 00       		.byte	0
 3161 0026 00       		.byte	0
 3162 0027 04       		.uleb128 0x4
 3163 0028 16       		.uleb128 0x16
 3164 0029 00       		.byte	0
 3165 002a 03       		.uleb128 0x3
 3166 002b 0E       		.uleb128 0xe
 3167 002c 3A       		.uleb128 0x3a
 3168 002d 0B       		.uleb128 0xb
 3169 002e 3B       		.uleb128 0x3b
 3170 002f 0B       		.uleb128 0xb
 3171 0030 49       		.uleb128 0x49
 3172 0031 13       		.uleb128 0x13
 3173 0032 00       		.byte	0
 3174 0033 00       		.byte	0
 3175 0034 05       		.uleb128 0x5
 3176 0035 35       		.uleb128 0x35
ARM GAS  /tmp/cctOVqwV.s 			page 57


 3177 0036 00       		.byte	0
 3178 0037 49       		.uleb128 0x49
 3179 0038 13       		.uleb128 0x13
 3180 0039 00       		.byte	0
 3181 003a 00       		.byte	0
 3182 003b 06       		.uleb128 0x6
 3183 003c 13       		.uleb128 0x13
 3184 003d 01       		.byte	0x1
 3185 003e 03       		.uleb128 0x3
 3186 003f 0E       		.uleb128 0xe
 3187 0040 0B       		.uleb128 0xb
 3188 0041 0B       		.uleb128 0xb
 3189 0042 3A       		.uleb128 0x3a
 3190 0043 0B       		.uleb128 0xb
 3191 0044 3B       		.uleb128 0x3b
 3192 0045 0B       		.uleb128 0xb
 3193 0046 01       		.uleb128 0x1
 3194 0047 13       		.uleb128 0x13
 3195 0048 00       		.byte	0
 3196 0049 00       		.byte	0
 3197 004a 07       		.uleb128 0x7
 3198 004b 0D       		.uleb128 0xd
 3199 004c 00       		.byte	0
 3200 004d 03       		.uleb128 0x3
 3201 004e 0E       		.uleb128 0xe
 3202 004f 3A       		.uleb128 0x3a
 3203 0050 0B       		.uleb128 0xb
 3204 0051 3B       		.uleb128 0x3b
 3205 0052 0B       		.uleb128 0xb
 3206 0053 49       		.uleb128 0x49
 3207 0054 13       		.uleb128 0x13
 3208 0055 38       		.uleb128 0x38
 3209 0056 0B       		.uleb128 0xb
 3210 0057 00       		.byte	0
 3211 0058 00       		.byte	0
 3212 0059 08       		.uleb128 0x8
 3213 005a 0D       		.uleb128 0xd
 3214 005b 00       		.byte	0
 3215 005c 03       		.uleb128 0x3
 3216 005d 08       		.uleb128 0x8
 3217 005e 3A       		.uleb128 0x3a
 3218 005f 0B       		.uleb128 0xb
 3219 0060 3B       		.uleb128 0x3b
 3220 0061 05       		.uleb128 0x5
 3221 0062 49       		.uleb128 0x49
 3222 0063 13       		.uleb128 0x13
 3223 0064 38       		.uleb128 0x38
 3224 0065 0B       		.uleb128 0xb
 3225 0066 00       		.byte	0
 3226 0067 00       		.byte	0
 3227 0068 09       		.uleb128 0x9
 3228 0069 0D       		.uleb128 0xd
 3229 006a 00       		.byte	0
 3230 006b 03       		.uleb128 0x3
 3231 006c 0E       		.uleb128 0xe
 3232 006d 3A       		.uleb128 0x3a
 3233 006e 0B       		.uleb128 0xb
ARM GAS  /tmp/cctOVqwV.s 			page 58


 3234 006f 3B       		.uleb128 0x3b
 3235 0070 05       		.uleb128 0x5
 3236 0071 49       		.uleb128 0x49
 3237 0072 13       		.uleb128 0x13
 3238 0073 38       		.uleb128 0x38
 3239 0074 0B       		.uleb128 0xb
 3240 0075 00       		.byte	0
 3241 0076 00       		.byte	0
 3242 0077 0A       		.uleb128 0xa
 3243 0078 0F       		.uleb128 0xf
 3244 0079 00       		.byte	0
 3245 007a 0B       		.uleb128 0xb
 3246 007b 0B       		.uleb128 0xb
 3247 007c 49       		.uleb128 0x49
 3248 007d 13       		.uleb128 0x13
 3249 007e 00       		.byte	0
 3250 007f 00       		.byte	0
 3251 0080 0B       		.uleb128 0xb
 3252 0081 13       		.uleb128 0x13
 3253 0082 01       		.byte	0x1
 3254 0083 03       		.uleb128 0x3
 3255 0084 0E       		.uleb128 0xe
 3256 0085 0B       		.uleb128 0xb
 3257 0086 0B       		.uleb128 0xb
 3258 0087 3A       		.uleb128 0x3a
 3259 0088 0B       		.uleb128 0xb
 3260 0089 3B       		.uleb128 0x3b
 3261 008a 05       		.uleb128 0x5
 3262 008b 01       		.uleb128 0x1
 3263 008c 13       		.uleb128 0x13
 3264 008d 00       		.byte	0
 3265 008e 00       		.byte	0
 3266 008f 0C       		.uleb128 0xc
 3267 0090 15       		.uleb128 0x15
 3268 0091 01       		.byte	0x1
 3269 0092 27       		.uleb128 0x27
 3270 0093 19       		.uleb128 0x19
 3271 0094 01       		.uleb128 0x1
 3272 0095 13       		.uleb128 0x13
 3273 0096 00       		.byte	0
 3274 0097 00       		.byte	0
 3275 0098 0D       		.uleb128 0xd
 3276 0099 05       		.uleb128 0x5
 3277 009a 00       		.byte	0
 3278 009b 49       		.uleb128 0x49
 3279 009c 13       		.uleb128 0x13
 3280 009d 00       		.byte	0
 3281 009e 00       		.byte	0
 3282 009f 0E       		.uleb128 0xe
 3283 00a0 0F       		.uleb128 0xf
 3284 00a1 00       		.byte	0
 3285 00a2 0B       		.uleb128 0xb
 3286 00a3 0B       		.uleb128 0xb
 3287 00a4 00       		.byte	0
 3288 00a5 00       		.byte	0
 3289 00a6 0F       		.uleb128 0xf
 3290 00a7 13       		.uleb128 0x13
ARM GAS  /tmp/cctOVqwV.s 			page 59


 3291 00a8 01       		.byte	0x1
 3292 00a9 03       		.uleb128 0x3
 3293 00aa 0E       		.uleb128 0xe
 3294 00ab 0B       		.uleb128 0xb
 3295 00ac 05       		.uleb128 0x5
 3296 00ad 3A       		.uleb128 0x3a
 3297 00ae 0B       		.uleb128 0xb
 3298 00af 3B       		.uleb128 0x3b
 3299 00b0 05       		.uleb128 0x5
 3300 00b1 01       		.uleb128 0x1
 3301 00b2 13       		.uleb128 0x13
 3302 00b3 00       		.byte	0
 3303 00b4 00       		.byte	0
 3304 00b5 10       		.uleb128 0x10
 3305 00b6 01       		.uleb128 0x1
 3306 00b7 01       		.byte	0x1
 3307 00b8 49       		.uleb128 0x49
 3308 00b9 13       		.uleb128 0x13
 3309 00ba 01       		.uleb128 0x1
 3310 00bb 13       		.uleb128 0x13
 3311 00bc 00       		.byte	0
 3312 00bd 00       		.byte	0
 3313 00be 11       		.uleb128 0x11
 3314 00bf 21       		.uleb128 0x21
 3315 00c0 00       		.byte	0
 3316 00c1 49       		.uleb128 0x49
 3317 00c2 13       		.uleb128 0x13
 3318 00c3 2F       		.uleb128 0x2f
 3319 00c4 0B       		.uleb128 0xb
 3320 00c5 00       		.byte	0
 3321 00c6 00       		.byte	0
 3322 00c7 12       		.uleb128 0x12
 3323 00c8 13       		.uleb128 0x13
 3324 00c9 01       		.byte	0x1
 3325 00ca 0B       		.uleb128 0xb
 3326 00cb 0B       		.uleb128 0xb
 3327 00cc 3A       		.uleb128 0x3a
 3328 00cd 0B       		.uleb128 0xb
 3329 00ce 3B       		.uleb128 0x3b
 3330 00cf 05       		.uleb128 0x5
 3331 00d0 01       		.uleb128 0x1
 3332 00d1 13       		.uleb128 0x13
 3333 00d2 00       		.byte	0
 3334 00d3 00       		.byte	0
 3335 00d4 13       		.uleb128 0x13
 3336 00d5 16       		.uleb128 0x16
 3337 00d6 00       		.byte	0
 3338 00d7 03       		.uleb128 0x3
 3339 00d8 0E       		.uleb128 0xe
 3340 00d9 3A       		.uleb128 0x3a
 3341 00da 0B       		.uleb128 0xb
 3342 00db 3B       		.uleb128 0x3b
 3343 00dc 05       		.uleb128 0x5
 3344 00dd 49       		.uleb128 0x49
 3345 00de 13       		.uleb128 0x13
 3346 00df 00       		.byte	0
 3347 00e0 00       		.byte	0
ARM GAS  /tmp/cctOVqwV.s 			page 60


 3348 00e1 14       		.uleb128 0x14
 3349 00e2 0D       		.uleb128 0xd
 3350 00e3 00       		.byte	0
 3351 00e4 03       		.uleb128 0x3
 3352 00e5 08       		.uleb128 0x8
 3353 00e6 3A       		.uleb128 0x3a
 3354 00e7 0B       		.uleb128 0xb
 3355 00e8 3B       		.uleb128 0x3b
 3356 00e9 0B       		.uleb128 0xb
 3357 00ea 49       		.uleb128 0x49
 3358 00eb 13       		.uleb128 0x13
 3359 00ec 38       		.uleb128 0x38
 3360 00ed 0B       		.uleb128 0xb
 3361 00ee 00       		.byte	0
 3362 00ef 00       		.byte	0
 3363 00f0 15       		.uleb128 0x15
 3364 00f1 13       		.uleb128 0x13
 3365 00f2 01       		.byte	0x1
 3366 00f3 0B       		.uleb128 0xb
 3367 00f4 0B       		.uleb128 0xb
 3368 00f5 3A       		.uleb128 0x3a
 3369 00f6 0B       		.uleb128 0xb
 3370 00f7 3B       		.uleb128 0x3b
 3371 00f8 0B       		.uleb128 0xb
 3372 00f9 01       		.uleb128 0x1
 3373 00fa 13       		.uleb128 0x13
 3374 00fb 00       		.byte	0
 3375 00fc 00       		.byte	0
 3376 00fd 16       		.uleb128 0x16
 3377 00fe 17       		.uleb128 0x17
 3378 00ff 01       		.byte	0x1
 3379 0100 0B       		.uleb128 0xb
 3380 0101 0B       		.uleb128 0xb
 3381 0102 3A       		.uleb128 0x3a
 3382 0103 0B       		.uleb128 0xb
 3383 0104 3B       		.uleb128 0x3b
 3384 0105 0B       		.uleb128 0xb
 3385 0106 01       		.uleb128 0x1
 3386 0107 13       		.uleb128 0x13
 3387 0108 00       		.byte	0
 3388 0109 00       		.byte	0
 3389 010a 17       		.uleb128 0x17
 3390 010b 0D       		.uleb128 0xd
 3391 010c 00       		.byte	0
 3392 010d 03       		.uleb128 0x3
 3393 010e 0E       		.uleb128 0xe
 3394 010f 3A       		.uleb128 0x3a
 3395 0110 0B       		.uleb128 0xb
 3396 0111 3B       		.uleb128 0x3b
 3397 0112 05       		.uleb128 0x5
 3398 0113 49       		.uleb128 0x49
 3399 0114 13       		.uleb128 0x13
 3400 0115 00       		.byte	0
 3401 0116 00       		.byte	0
 3402 0117 18       		.uleb128 0x18
 3403 0118 26       		.uleb128 0x26
 3404 0119 00       		.byte	0
ARM GAS  /tmp/cctOVqwV.s 			page 61


 3405 011a 49       		.uleb128 0x49
 3406 011b 13       		.uleb128 0x13
 3407 011c 00       		.byte	0
 3408 011d 00       		.byte	0
 3409 011e 19       		.uleb128 0x19
 3410 011f 04       		.uleb128 0x4
 3411 0120 01       		.byte	0x1
 3412 0121 0B       		.uleb128 0xb
 3413 0122 0B       		.uleb128 0xb
 3414 0123 49       		.uleb128 0x49
 3415 0124 13       		.uleb128 0x13
 3416 0125 3A       		.uleb128 0x3a
 3417 0126 0B       		.uleb128 0xb
 3418 0127 3B       		.uleb128 0x3b
 3419 0128 0B       		.uleb128 0xb
 3420 0129 01       		.uleb128 0x1
 3421 012a 13       		.uleb128 0x13
 3422 012b 00       		.byte	0
 3423 012c 00       		.byte	0
 3424 012d 1A       		.uleb128 0x1a
 3425 012e 28       		.uleb128 0x28
 3426 012f 00       		.byte	0
 3427 0130 03       		.uleb128 0x3
 3428 0131 0E       		.uleb128 0xe
 3429 0132 1C       		.uleb128 0x1c
 3430 0133 0B       		.uleb128 0xb
 3431 0134 00       		.byte	0
 3432 0135 00       		.byte	0
 3433 0136 1B       		.uleb128 0x1b
 3434 0137 2E       		.uleb128 0x2e
 3435 0138 01       		.byte	0x1
 3436 0139 03       		.uleb128 0x3
 3437 013a 0E       		.uleb128 0xe
 3438 013b 3A       		.uleb128 0x3a
 3439 013c 0B       		.uleb128 0xb
 3440 013d 3B       		.uleb128 0x3b
 3441 013e 0B       		.uleb128 0xb
 3442 013f 27       		.uleb128 0x27
 3443 0140 19       		.uleb128 0x19
 3444 0141 11       		.uleb128 0x11
 3445 0142 01       		.uleb128 0x1
 3446 0143 12       		.uleb128 0x12
 3447 0144 06       		.uleb128 0x6
 3448 0145 40       		.uleb128 0x40
 3449 0146 18       		.uleb128 0x18
 3450 0147 9742     		.uleb128 0x2117
 3451 0149 19       		.uleb128 0x19
 3452 014a 01       		.uleb128 0x1
 3453 014b 13       		.uleb128 0x13
 3454 014c 00       		.byte	0
 3455 014d 00       		.byte	0
 3456 014e 1C       		.uleb128 0x1c
 3457 014f 05       		.uleb128 0x5
 3458 0150 00       		.byte	0
 3459 0151 03       		.uleb128 0x3
 3460 0152 0E       		.uleb128 0xe
 3461 0153 3A       		.uleb128 0x3a
ARM GAS  /tmp/cctOVqwV.s 			page 62


 3462 0154 0B       		.uleb128 0xb
 3463 0155 3B       		.uleb128 0x3b
 3464 0156 0B       		.uleb128 0xb
 3465 0157 49       		.uleb128 0x49
 3466 0158 13       		.uleb128 0x13
 3467 0159 02       		.uleb128 0x2
 3468 015a 17       		.uleb128 0x17
 3469 015b 00       		.byte	0
 3470 015c 00       		.byte	0
 3471 015d 1D       		.uleb128 0x1d
 3472 015e 34       		.uleb128 0x34
 3473 015f 00       		.byte	0
 3474 0160 03       		.uleb128 0x3
 3475 0161 08       		.uleb128 0x8
 3476 0162 3A       		.uleb128 0x3a
 3477 0163 0B       		.uleb128 0xb
 3478 0164 3B       		.uleb128 0x3b
 3479 0165 0B       		.uleb128 0xb
 3480 0166 49       		.uleb128 0x49
 3481 0167 13       		.uleb128 0x13
 3482 0168 02       		.uleb128 0x2
 3483 0169 17       		.uleb128 0x17
 3484 016a 00       		.byte	0
 3485 016b 00       		.byte	0
 3486 016c 1E       		.uleb128 0x1e
 3487 016d 898201   		.uleb128 0x4109
 3488 0170 01       		.byte	0x1
 3489 0171 11       		.uleb128 0x11
 3490 0172 01       		.uleb128 0x1
 3491 0173 01       		.uleb128 0x1
 3492 0174 13       		.uleb128 0x13
 3493 0175 00       		.byte	0
 3494 0176 00       		.byte	0
 3495 0177 1F       		.uleb128 0x1f
 3496 0178 8A8201   		.uleb128 0x410a
 3497 017b 00       		.byte	0
 3498 017c 02       		.uleb128 0x2
 3499 017d 18       		.uleb128 0x18
 3500 017e 9142     		.uleb128 0x2111
 3501 0180 18       		.uleb128 0x18
 3502 0181 00       		.byte	0
 3503 0182 00       		.byte	0
 3504 0183 20       		.uleb128 0x20
 3505 0184 898201   		.uleb128 0x4109
 3506 0187 01       		.byte	0x1
 3507 0188 11       		.uleb128 0x11
 3508 0189 01       		.uleb128 0x1
 3509 018a 9542     		.uleb128 0x2115
 3510 018c 19       		.uleb128 0x19
 3511 018d 00       		.byte	0
 3512 018e 00       		.byte	0
 3513 018f 21       		.uleb128 0x21
 3514 0190 2E       		.uleb128 0x2e
 3515 0191 01       		.byte	0x1
 3516 0192 3F       		.uleb128 0x3f
 3517 0193 19       		.uleb128 0x19
 3518 0194 03       		.uleb128 0x3
ARM GAS  /tmp/cctOVqwV.s 			page 63


 3519 0195 0E       		.uleb128 0xe
 3520 0196 3A       		.uleb128 0x3a
 3521 0197 0B       		.uleb128 0xb
 3522 0198 3B       		.uleb128 0x3b
 3523 0199 0B       		.uleb128 0xb
 3524 019a 27       		.uleb128 0x27
 3525 019b 19       		.uleb128 0x19
 3526 019c 11       		.uleb128 0x11
 3527 019d 01       		.uleb128 0x1
 3528 019e 12       		.uleb128 0x12
 3529 019f 06       		.uleb128 0x6
 3530 01a0 40       		.uleb128 0x40
 3531 01a1 18       		.uleb128 0x18
 3532 01a2 9742     		.uleb128 0x2117
 3533 01a4 19       		.uleb128 0x19
 3534 01a5 01       		.uleb128 0x1
 3535 01a6 13       		.uleb128 0x13
 3536 01a7 00       		.byte	0
 3537 01a8 00       		.byte	0
 3538 01a9 22       		.uleb128 0x22
 3539 01aa 898201   		.uleb128 0x4109
 3540 01ad 00       		.byte	0
 3541 01ae 11       		.uleb128 0x11
 3542 01af 01       		.uleb128 0x1
 3543 01b0 9542     		.uleb128 0x2115
 3544 01b2 19       		.uleb128 0x19
 3545 01b3 31       		.uleb128 0x31
 3546 01b4 13       		.uleb128 0x13
 3547 01b5 00       		.byte	0
 3548 01b6 00       		.byte	0
 3549 01b7 23       		.uleb128 0x23
 3550 01b8 898201   		.uleb128 0x4109
 3551 01bb 01       		.byte	0x1
 3552 01bc 11       		.uleb128 0x11
 3553 01bd 01       		.uleb128 0x1
 3554 01be 31       		.uleb128 0x31
 3555 01bf 13       		.uleb128 0x13
 3556 01c0 01       		.uleb128 0x1
 3557 01c1 13       		.uleb128 0x13
 3558 01c2 00       		.byte	0
 3559 01c3 00       		.byte	0
 3560 01c4 24       		.uleb128 0x24
 3561 01c5 2E       		.uleb128 0x2e
 3562 01c6 01       		.byte	0x1
 3563 01c7 3F       		.uleb128 0x3f
 3564 01c8 19       		.uleb128 0x19
 3565 01c9 03       		.uleb128 0x3
 3566 01ca 0E       		.uleb128 0xe
 3567 01cb 3A       		.uleb128 0x3a
 3568 01cc 0B       		.uleb128 0xb
 3569 01cd 3B       		.uleb128 0x3b
 3570 01ce 05       		.uleb128 0x5
 3571 01cf 27       		.uleb128 0x27
 3572 01d0 19       		.uleb128 0x19
 3573 01d1 11       		.uleb128 0x11
 3574 01d2 01       		.uleb128 0x1
 3575 01d3 12       		.uleb128 0x12
ARM GAS  /tmp/cctOVqwV.s 			page 64


 3576 01d4 06       		.uleb128 0x6
 3577 01d5 40       		.uleb128 0x40
 3578 01d6 18       		.uleb128 0x18
 3579 01d7 9742     		.uleb128 0x2117
 3580 01d9 19       		.uleb128 0x19
 3581 01da 01       		.uleb128 0x1
 3582 01db 13       		.uleb128 0x13
 3583 01dc 00       		.byte	0
 3584 01dd 00       		.byte	0
 3585 01de 25       		.uleb128 0x25
 3586 01df 898201   		.uleb128 0x4109
 3587 01e2 01       		.byte	0x1
 3588 01e3 11       		.uleb128 0x11
 3589 01e4 01       		.uleb128 0x1
 3590 01e5 31       		.uleb128 0x31
 3591 01e6 13       		.uleb128 0x13
 3592 01e7 00       		.byte	0
 3593 01e8 00       		.byte	0
 3594 01e9 26       		.uleb128 0x26
 3595 01ea 05       		.uleb128 0x5
 3596 01eb 00       		.byte	0
 3597 01ec 03       		.uleb128 0x3
 3598 01ed 0E       		.uleb128 0xe
 3599 01ee 3A       		.uleb128 0x3a
 3600 01ef 0B       		.uleb128 0xb
 3601 01f0 3B       		.uleb128 0x3b
 3602 01f1 05       		.uleb128 0x5
 3603 01f2 49       		.uleb128 0x49
 3604 01f3 13       		.uleb128 0x13
 3605 01f4 02       		.uleb128 0x2
 3606 01f5 17       		.uleb128 0x17
 3607 01f6 00       		.byte	0
 3608 01f7 00       		.byte	0
 3609 01f8 27       		.uleb128 0x27
 3610 01f9 34       		.uleb128 0x34
 3611 01fa 00       		.byte	0
 3612 01fb 03       		.uleb128 0x3
 3613 01fc 08       		.uleb128 0x8
 3614 01fd 3A       		.uleb128 0x3a
 3615 01fe 0B       		.uleb128 0xb
 3616 01ff 3B       		.uleb128 0x3b
 3617 0200 05       		.uleb128 0x5
 3618 0201 49       		.uleb128 0x49
 3619 0202 13       		.uleb128 0x13
 3620 0203 02       		.uleb128 0x2
 3621 0204 17       		.uleb128 0x17
 3622 0205 00       		.byte	0
 3623 0206 00       		.byte	0
 3624 0207 28       		.uleb128 0x28
 3625 0208 34       		.uleb128 0x34
 3626 0209 00       		.byte	0
 3627 020a 03       		.uleb128 0x3
 3628 020b 0E       		.uleb128 0xe
 3629 020c 3A       		.uleb128 0x3a
 3630 020d 0B       		.uleb128 0xb
 3631 020e 3B       		.uleb128 0x3b
 3632 020f 05       		.uleb128 0x5
ARM GAS  /tmp/cctOVqwV.s 			page 65


 3633 0210 49       		.uleb128 0x49
 3634 0211 13       		.uleb128 0x13
 3635 0212 02       		.uleb128 0x2
 3636 0213 17       		.uleb128 0x17
 3637 0214 00       		.byte	0
 3638 0215 00       		.byte	0
 3639 0216 29       		.uleb128 0x29
 3640 0217 34       		.uleb128 0x34
 3641 0218 00       		.byte	0
 3642 0219 03       		.uleb128 0x3
 3643 021a 0E       		.uleb128 0xe
 3644 021b 49       		.uleb128 0x49
 3645 021c 13       		.uleb128 0x13
 3646 021d 34       		.uleb128 0x34
 3647 021e 19       		.uleb128 0x19
 3648 021f 00       		.byte	0
 3649 0220 00       		.byte	0
 3650 0221 2A       		.uleb128 0x2a
 3651 0222 05       		.uleb128 0x5
 3652 0223 00       		.byte	0
 3653 0224 03       		.uleb128 0x3
 3654 0225 0E       		.uleb128 0xe
 3655 0226 3A       		.uleb128 0x3a
 3656 0227 0B       		.uleb128 0xb
 3657 0228 3B       		.uleb128 0x3b
 3658 0229 05       		.uleb128 0x5
 3659 022a 49       		.uleb128 0x49
 3660 022b 13       		.uleb128 0x13
 3661 022c 02       		.uleb128 0x2
 3662 022d 18       		.uleb128 0x18
 3663 022e 00       		.byte	0
 3664 022f 00       		.byte	0
 3665 0230 2B       		.uleb128 0x2b
 3666 0231 34       		.uleb128 0x34
 3667 0232 00       		.byte	0
 3668 0233 03       		.uleb128 0x3
 3669 0234 0E       		.uleb128 0xe
 3670 0235 3A       		.uleb128 0x3a
 3671 0236 0B       		.uleb128 0xb
 3672 0237 3B       		.uleb128 0x3b
 3673 0238 05       		.uleb128 0x5
 3674 0239 49       		.uleb128 0x49
 3675 023a 13       		.uleb128 0x13
 3676 023b 3F       		.uleb128 0x3f
 3677 023c 19       		.uleb128 0x19
 3678 023d 3C       		.uleb128 0x3c
 3679 023e 19       		.uleb128 0x19
 3680 023f 00       		.byte	0
 3681 0240 00       		.byte	0
 3682 0241 2C       		.uleb128 0x2c
 3683 0242 34       		.uleb128 0x34
 3684 0243 00       		.byte	0
 3685 0244 03       		.uleb128 0x3
 3686 0245 08       		.uleb128 0x8
 3687 0246 3A       		.uleb128 0x3a
 3688 0247 0B       		.uleb128 0xb
 3689 0248 3B       		.uleb128 0x3b
ARM GAS  /tmp/cctOVqwV.s 			page 66


 3690 0249 05       		.uleb128 0x5
 3691 024a 49       		.uleb128 0x49
 3692 024b 13       		.uleb128 0x13
 3693 024c 3F       		.uleb128 0x3f
 3694 024d 19       		.uleb128 0x19
 3695 024e 3C       		.uleb128 0x3c
 3696 024f 19       		.uleb128 0x19
 3697 0250 00       		.byte	0
 3698 0251 00       		.byte	0
 3699 0252 2D       		.uleb128 0x2d
 3700 0253 34       		.uleb128 0x34
 3701 0254 00       		.byte	0
 3702 0255 03       		.uleb128 0x3
 3703 0256 0E       		.uleb128 0xe
 3704 0257 3A       		.uleb128 0x3a
 3705 0258 0B       		.uleb128 0xb
 3706 0259 3B       		.uleb128 0x3b
 3707 025a 0B       		.uleb128 0xb
 3708 025b 49       		.uleb128 0x49
 3709 025c 13       		.uleb128 0x13
 3710 025d 3F       		.uleb128 0x3f
 3711 025e 19       		.uleb128 0x19
 3712 025f 02       		.uleb128 0x2
 3713 0260 18       		.uleb128 0x18
 3714 0261 00       		.byte	0
 3715 0262 00       		.byte	0
 3716 0263 2E       		.uleb128 0x2e
 3717 0264 2E       		.uleb128 0x2e
 3718 0265 00       		.byte	0
 3719 0266 3F       		.uleb128 0x3f
 3720 0267 19       		.uleb128 0x19
 3721 0268 3C       		.uleb128 0x3c
 3722 0269 19       		.uleb128 0x19
 3723 026a 6E       		.uleb128 0x6e
 3724 026b 0E       		.uleb128 0xe
 3725 026c 03       		.uleb128 0x3
 3726 026d 0E       		.uleb128 0xe
 3727 026e 3A       		.uleb128 0x3a
 3728 026f 0B       		.uleb128 0xb
 3729 0270 3B       		.uleb128 0x3b
 3730 0271 05       		.uleb128 0x5
 3731 0272 00       		.byte	0
 3732 0273 00       		.byte	0
 3733 0274 2F       		.uleb128 0x2f
 3734 0275 2E       		.uleb128 0x2e
 3735 0276 00       		.byte	0
 3736 0277 3F       		.uleb128 0x3f
 3737 0278 19       		.uleb128 0x19
 3738 0279 3C       		.uleb128 0x3c
 3739 027a 19       		.uleb128 0x19
 3740 027b 6E       		.uleb128 0x6e
 3741 027c 0E       		.uleb128 0xe
 3742 027d 03       		.uleb128 0x3
 3743 027e 0E       		.uleb128 0xe
 3744 027f 3A       		.uleb128 0x3a
 3745 0280 0B       		.uleb128 0xb
 3746 0281 3B       		.uleb128 0x3b
ARM GAS  /tmp/cctOVqwV.s 			page 67


 3747 0282 0B       		.uleb128 0xb
 3748 0283 00       		.byte	0
 3749 0284 00       		.byte	0
 3750 0285 00       		.byte	0
 3751              		.section	.debug_loc,"",%progbits
 3752              	.Ldebug_loc0:
 3753              	.LLST0:
 3754 0000 00000000 		.4byte	.LVL0
 3755 0004 1D000000 		.4byte	.LVL3-1
 3756 0008 0100     		.2byte	0x1
 3757 000a 50       		.byte	0x50
 3758 000b 1D000000 		.4byte	.LVL3-1
 3759 000f 58000000 		.4byte	.LVL7
 3760 0013 0100     		.2byte	0x1
 3761 0015 55       		.byte	0x55
 3762 0016 58000000 		.4byte	.LVL7
 3763 001a 59000000 		.4byte	.LVL8-1
 3764 001e 0100     		.2byte	0x1
 3765 0020 50       		.byte	0x50
 3766 0021 59000000 		.4byte	.LVL8-1
 3767 0025 5A000000 		.4byte	.LVL8
 3768 0029 0400     		.2byte	0x4
 3769 002b F3       		.byte	0xf3
 3770 002c 01       		.uleb128 0x1
 3771 002d 50       		.byte	0x50
 3772 002e 9F       		.byte	0x9f
 3773 002f 5A000000 		.4byte	.LVL8
 3774 0033 5C000000 		.4byte	.LFE258
 3775 0037 0100     		.2byte	0x1
 3776 0039 55       		.byte	0x55
 3777 003a 00000000 		.4byte	0
 3778 003e 00000000 		.4byte	0
 3779              	.LLST1:
 3780 0042 06000000 		.4byte	.LVL1
 3781 0046 0A000000 		.4byte	.LVL2
 3782 004a 0100     		.2byte	0x1
 3783 004c 54       		.byte	0x54
 3784 004d 0A000000 		.4byte	.LVL2
 3785 0051 58000000 		.4byte	.LVL7
 3786 0055 0600     		.2byte	0x6
 3787 0057 74       		.byte	0x74
 3788 0058 00       		.sleb128 0
 3789 0059 08       		.byte	0x8
 3790 005a FF       		.byte	0xff
 3791 005b 1A       		.byte	0x1a
 3792 005c 9F       		.byte	0x9f
 3793 005d 5A000000 		.4byte	.LVL8
 3794 0061 5C000000 		.4byte	.LFE258
 3795 0065 0600     		.2byte	0x6
 3796 0067 74       		.byte	0x74
 3797 0068 00       		.sleb128 0
 3798 0069 08       		.byte	0x8
 3799 006a FF       		.byte	0xff
 3800 006b 1A       		.byte	0x1a
 3801 006c 9F       		.byte	0x9f
 3802 006d 00000000 		.4byte	0
 3803 0071 00000000 		.4byte	0
ARM GAS  /tmp/cctOVqwV.s 			page 68


 3804              	.LLST2:
 3805 0075 0A000000 		.4byte	.LVL11
 3806 0079 0E000000 		.4byte	.LVL12
 3807 007d 0500     		.2byte	0x5
 3808 007f 74       		.byte	0x74
 3809 0080 00       		.sleb128 0
 3810 0081 4E       		.byte	0x4e
 3811 0082 1A       		.byte	0x1a
 3812 0083 9F       		.byte	0x9f
 3813 0084 0E000000 		.4byte	.LVL12
 3814 0088 10000000 		.4byte	.LVL13
 3815 008c 0100     		.2byte	0x1
 3816 008e 52       		.byte	0x52
 3817 008f 10000000 		.4byte	.LVL13
 3818 0093 1F000000 		.4byte	.LVL14-1
 3819 0097 0400     		.2byte	0x4
 3820 0099 72       		.byte	0x72
 3821 009a 00       		.sleb128 0
 3822 009b 20       		.byte	0x20
 3823 009c 9F       		.byte	0x9f
 3824 009d 1F000000 		.4byte	.LVL14-1
 3825 00a1 4E000000 		.4byte	.LVL18
 3826 00a5 0500     		.2byte	0x5
 3827 00a7 74       		.byte	0x74
 3828 00a8 00       		.sleb128 0
 3829 00a9 4E       		.byte	0x4e
 3830 00aa 1A       		.byte	0x1a
 3831 00ab 9F       		.byte	0x9f
 3832 00ac 00000000 		.4byte	0
 3833 00b0 00000000 		.4byte	0
 3834              	.LLST3:
 3835 00b4 00000000 		.4byte	.LVL30
 3836 00b8 1A000000 		.4byte	.LVL31
 3837 00bc 0100     		.2byte	0x1
 3838 00be 50       		.byte	0x50
 3839 00bf 1A000000 		.4byte	.LVL31
 3840 00c3 30000000 		.4byte	.LVL32
 3841 00c7 0100     		.2byte	0x1
 3842 00c9 54       		.byte	0x54
 3843 00ca 30000000 		.4byte	.LVL32
 3844 00ce A8000000 		.4byte	.LVL46
 3845 00d2 0400     		.2byte	0x4
 3846 00d4 F3       		.byte	0xf3
 3847 00d5 01       		.uleb128 0x1
 3848 00d6 50       		.byte	0x50
 3849 00d7 9F       		.byte	0x9f
 3850 00d8 A8000000 		.4byte	.LVL46
 3851 00dc C0000000 		.4byte	.LVL47
 3852 00e0 0100     		.2byte	0x1
 3853 00e2 50       		.byte	0x50
 3854 00e3 C0000000 		.4byte	.LVL47
 3855 00e7 CC000000 		.4byte	.LVL48
 3856 00eb 0100     		.2byte	0x1
 3857 00ed 54       		.byte	0x54
 3858 00ee CC000000 		.4byte	.LVL48
 3859 00f2 DA000000 		.4byte	.LVL49
 3860 00f6 0100     		.2byte	0x1
ARM GAS  /tmp/cctOVqwV.s 			page 69


 3861 00f8 50       		.byte	0x50
 3862 00f9 DA000000 		.4byte	.LVL49
 3863 00fd F8000000 		.4byte	.LVL52
 3864 0101 0100     		.2byte	0x1
 3865 0103 54       		.byte	0x54
 3866 0104 F8000000 		.4byte	.LVL52
 3867 0108 06010000 		.4byte	.LVL53
 3868 010c 0100     		.2byte	0x1
 3869 010e 50       		.byte	0x50
 3870 010f 06010000 		.4byte	.LVL53
 3871 0113 1C010000 		.4byte	.LVL55
 3872 0117 0100     		.2byte	0x1
 3873 0119 54       		.byte	0x54
 3874 011a 1C010000 		.4byte	.LVL55
 3875 011e 2A010000 		.4byte	.LVL56
 3876 0122 0100     		.2byte	0x1
 3877 0124 50       		.byte	0x50
 3878 0125 2A010000 		.4byte	.LVL56
 3879 0129 40010000 		.4byte	.LVL58
 3880 012d 0100     		.2byte	0x1
 3881 012f 54       		.byte	0x54
 3882 0130 40010000 		.4byte	.LVL58
 3883 0134 4E010000 		.4byte	.LVL59
 3884 0138 0100     		.2byte	0x1
 3885 013a 50       		.byte	0x50
 3886 013b 4E010000 		.4byte	.LVL59
 3887 013f 80010000 		.4byte	.LFE265
 3888 0143 0100     		.2byte	0x1
 3889 0145 54       		.byte	0x54
 3890 0146 00000000 		.4byte	0
 3891 014a 00000000 		.4byte	0
 3892              	.LLST4:
 3893 014e 32000000 		.4byte	.LVL33
 3894 0152 46000000 		.4byte	.LVL36
 3895 0156 0100     		.2byte	0x1
 3896 0158 50       		.byte	0x50
 3897 0159 46000000 		.4byte	.LVL36
 3898 015d A8000000 		.4byte	.LVL46
 3899 0161 1200     		.2byte	0x12
 3900 0163 F3       		.byte	0xf3
 3901 0164 01       		.uleb128 0x1
 3902 0165 50       		.byte	0x50
 3903 0166 23       		.byte	0x23
 3904 0167 14       		.uleb128 0x14
 3905 0168 06       		.byte	0x6
 3906 0169 F7       		.byte	0xf7
 3907 016a 21       		.uleb128 0x21
 3908 016b 77       		.byte	0x77
 3909 016c 00       		.sleb128 0
 3910 016d F7       		.byte	0xf7
 3911 016e 21       		.uleb128 0x21
 3912 016f 1B       		.byte	0x1b
 3913 0170 F7       		.byte	0xf7
 3914 0171 00       		.uleb128 0
 3915 0172 31       		.byte	0x31
 3916 0173 1C       		.byte	0x1c
 3917 0174 9F       		.byte	0x9f
ARM GAS  /tmp/cctOVqwV.s 			page 70


 3918 0175 00000000 		.4byte	0
 3919 0179 00000000 		.4byte	0
 3920              	.LLST5:
 3921 017d 3A000000 		.4byte	.LVL34
 3922 0181 44000000 		.4byte	.LVL35
 3923 0185 0200     		.2byte	0x2
 3924 0187 30       		.byte	0x30
 3925 0188 9F       		.byte	0x9f
 3926 0189 44000000 		.4byte	.LVL35
 3927 018d 80000000 		.4byte	.LVL39
 3928 0191 0100     		.2byte	0x1
 3929 0193 52       		.byte	0x52
 3930 0194 80000000 		.4byte	.LVL39
 3931 0198 8A000000 		.4byte	.LVL40
 3932 019c 0200     		.2byte	0x2
 3933 019e 73       		.byte	0x73
 3934 019f 20       		.sleb128 32
 3935 01a0 94000000 		.4byte	.LVL41
 3936 01a4 A8000000 		.4byte	.LVL46
 3937 01a8 0100     		.2byte	0x1
 3938 01aa 52       		.byte	0x52
 3939 01ab 00000000 		.4byte	0
 3940 01af 00000000 		.4byte	0
 3941              	.LLST6:
 3942 01b3 00000000 		.4byte	.LVL61
 3943 01b7 08000000 		.4byte	.LVL62
 3944 01bb 0100     		.2byte	0x1
 3945 01bd 50       		.byte	0x50
 3946 01be 08000000 		.4byte	.LVL62
 3947 01c2 0A000000 		.4byte	.LVL63
 3948 01c6 0400     		.2byte	0x4
 3949 01c8 F3       		.byte	0xf3
 3950 01c9 01       		.uleb128 0x1
 3951 01ca 50       		.byte	0x50
 3952 01cb 9F       		.byte	0x9f
 3953 01cc 0A000000 		.4byte	.LVL63
 3954 01d0 30000000 		.4byte	.LVL64
 3955 01d4 0100     		.2byte	0x1
 3956 01d6 50       		.byte	0x50
 3957 01d7 30000000 		.4byte	.LVL64
 3958 01db 40000000 		.4byte	.LVL66
 3959 01df 0400     		.2byte	0x4
 3960 01e1 F3       		.byte	0xf3
 3961 01e2 01       		.uleb128 0x1
 3962 01e3 50       		.byte	0x50
 3963 01e4 9F       		.byte	0x9f
 3964 01e5 40000000 		.4byte	.LVL66
 3965 01e9 42000000 		.4byte	.LVL67
 3966 01ed 0100     		.2byte	0x1
 3967 01ef 50       		.byte	0x50
 3968 01f0 42000000 		.4byte	.LVL67
 3969 01f4 58000000 		.4byte	.LVL70
 3970 01f8 0400     		.2byte	0x4
 3971 01fa F3       		.byte	0xf3
 3972 01fb 01       		.uleb128 0x1
 3973 01fc 50       		.byte	0x50
 3974 01fd 9F       		.byte	0x9f
ARM GAS  /tmp/cctOVqwV.s 			page 71


 3975 01fe 58000000 		.4byte	.LVL70
 3976 0202 5A000000 		.4byte	.LVL71
 3977 0206 0100     		.2byte	0x1
 3978 0208 50       		.byte	0x50
 3979 0209 5A000000 		.4byte	.LVL71
 3980 020d 6A000000 		.4byte	.LVL73
 3981 0211 0400     		.2byte	0x4
 3982 0213 F3       		.byte	0xf3
 3983 0214 01       		.uleb128 0x1
 3984 0215 50       		.byte	0x50
 3985 0216 9F       		.byte	0x9f
 3986 0217 6A000000 		.4byte	.LVL73
 3987 021b 6C000000 		.4byte	.LVL74
 3988 021f 0100     		.2byte	0x1
 3989 0221 50       		.byte	0x50
 3990 0222 6C000000 		.4byte	.LVL74
 3991 0226 90000000 		.4byte	.LFE266
 3992 022a 0400     		.2byte	0x4
 3993 022c F3       		.byte	0xf3
 3994 022d 01       		.uleb128 0x1
 3995 022e 50       		.byte	0x50
 3996 022f 9F       		.byte	0x9f
 3997 0230 00000000 		.4byte	0
 3998 0234 00000000 		.4byte	0
 3999              	.LLST7:
 4000 0238 00000000 		.4byte	.LVL76
 4001 023c 04000000 		.4byte	.LVL77
 4002 0240 0100     		.2byte	0x1
 4003 0242 51       		.byte	0x51
 4004 0243 04000000 		.4byte	.LVL77
 4005 0247 0C000000 		.4byte	.LFE267
 4006 024b 0400     		.2byte	0x4
 4007 024d F3       		.byte	0xf3
 4008 024e 01       		.uleb128 0x1
 4009 024f 51       		.byte	0x51
 4010 0250 9F       		.byte	0x9f
 4011 0251 00000000 		.4byte	0
 4012 0255 00000000 		.4byte	0
 4013              	.LLST8:
 4014 0259 00000000 		.4byte	.LVL78
 4015 025d 0C000000 		.4byte	.LVL79
 4016 0261 0100     		.2byte	0x1
 4017 0263 50       		.byte	0x50
 4018 0264 0C000000 		.4byte	.LVL79
 4019 0268 1E000000 		.4byte	.LFE268
 4020 026c 0400     		.2byte	0x4
 4021 026e F3       		.byte	0xf3
 4022 026f 01       		.uleb128 0x1
 4023 0270 50       		.byte	0x50
 4024 0271 9F       		.byte	0x9f
 4025 0272 00000000 		.4byte	0
 4026 0276 00000000 		.4byte	0
 4027              	.LLST9:
 4028 027a 00000000 		.4byte	.LVL78
 4029 027e 16000000 		.4byte	.LVL80
 4030 0282 0100     		.2byte	0x1
 4031 0284 51       		.byte	0x51
ARM GAS  /tmp/cctOVqwV.s 			page 72


 4032 0285 16000000 		.4byte	.LVL80
 4033 0289 1E000000 		.4byte	.LFE268
 4034 028d 0400     		.2byte	0x4
 4035 028f F3       		.byte	0xf3
 4036 0290 01       		.uleb128 0x1
 4037 0291 51       		.byte	0x51
 4038 0292 9F       		.byte	0x9f
 4039 0293 00000000 		.4byte	0
 4040 0297 00000000 		.4byte	0
 4041              	.LLST10:
 4042 029b 04000000 		.4byte	.LVL82
 4043 029f 0C000000 		.4byte	.LVL83
 4044 02a3 0100     		.2byte	0x1
 4045 02a5 52       		.byte	0x52
 4046 02a6 00000000 		.4byte	0
 4047 02aa 00000000 		.4byte	0
 4048              	.LLST11:
 4049 02ae 00000000 		.4byte	.LVL85
 4050 02b2 02000000 		.4byte	.LVL86
 4051 02b6 0100     		.2byte	0x1
 4052 02b8 50       		.byte	0x50
 4053 02b9 02000000 		.4byte	.LVL86
 4054 02bd 18000000 		.4byte	.LFE271
 4055 02c1 0400     		.2byte	0x4
 4056 02c3 F3       		.byte	0xf3
 4057 02c4 01       		.uleb128 0x1
 4058 02c5 50       		.byte	0x50
 4059 02c6 9F       		.byte	0x9f
 4060 02c7 00000000 		.4byte	0
 4061 02cb 00000000 		.4byte	0
 4062              	.LLST12:
 4063 02cf 00000000 		.4byte	.LVL85
 4064 02d3 0A000000 		.4byte	.LVL88
 4065 02d7 0100     		.2byte	0x1
 4066 02d9 51       		.byte	0x51
 4067 02da 0A000000 		.4byte	.LVL88
 4068 02de 18000000 		.4byte	.LFE271
 4069 02e2 0400     		.2byte	0x4
 4070 02e4 F3       		.byte	0xf3
 4071 02e5 01       		.uleb128 0x1
 4072 02e6 51       		.byte	0x51
 4073 02e7 9F       		.byte	0x9f
 4074 02e8 00000000 		.4byte	0
 4075 02ec 00000000 		.4byte	0
 4076              	.LLST13:
 4077 02f0 06000000 		.4byte	.LVL87
 4078 02f4 10000000 		.4byte	.LVL89
 4079 02f8 0100     		.2byte	0x1
 4080 02fa 52       		.byte	0x52
 4081 02fb 00000000 		.4byte	0
 4082 02ff 00000000 		.4byte	0
 4083              	.LLST14:
 4084 0303 00000000 		.4byte	.LVL90
 4085 0307 02000000 		.4byte	.LVL91
 4086 030b 0100     		.2byte	0x1
 4087 030d 50       		.byte	0x50
 4088 030e 02000000 		.4byte	.LVL91
ARM GAS  /tmp/cctOVqwV.s 			page 73


 4089 0312 12000000 		.4byte	.LFE272
 4090 0316 0400     		.2byte	0x4
 4091 0318 F3       		.byte	0xf3
 4092 0319 01       		.uleb128 0x1
 4093 031a 50       		.byte	0x50
 4094 031b 9F       		.byte	0x9f
 4095 031c 00000000 		.4byte	0
 4096 0320 00000000 		.4byte	0
 4097              	.LLST15:
 4098 0324 00000000 		.4byte	.LVL90
 4099 0328 0A000000 		.4byte	.LVL92
 4100 032c 0100     		.2byte	0x1
 4101 032e 51       		.byte	0x51
 4102 032f 0A000000 		.4byte	.LVL92
 4103 0333 12000000 		.4byte	.LFE272
 4104 0337 0400     		.2byte	0x4
 4105 0339 F3       		.byte	0xf3
 4106 033a 01       		.uleb128 0x1
 4107 033b 51       		.byte	0x51
 4108 033c 9F       		.byte	0x9f
 4109 033d 00000000 		.4byte	0
 4110 0341 00000000 		.4byte	0
 4111              		.section	.debug_aranges,"",%progbits
 4112 0000 8C000000 		.4byte	0x8c
 4113 0004 0200     		.2byte	0x2
 4114 0006 00000000 		.4byte	.Ldebug_info0
 4115 000a 04       		.byte	0x4
 4116 000b 00       		.byte	0
 4117 000c 0000     		.2byte	0
 4118 000e 0000     		.2byte	0
 4119 0010 00000000 		.4byte	.LFB258
 4120 0014 5C000000 		.4byte	.LFE258-.LFB258
 4121 0018 00000000 		.4byte	.LFB259
 4122 001c 24000000 		.4byte	.LFE259-.LFB259
 4123 0020 00000000 		.4byte	.LFB260
 4124 0024 5C000000 		.4byte	.LFE260-.LFB260
 4125 0028 00000000 		.4byte	.LFB261
 4126 002c 14000000 		.4byte	.LFE261-.LFB261
 4127 0030 00000000 		.4byte	.LFB262
 4128 0034 14000000 		.4byte	.LFE262-.LFB262
 4129 0038 00000000 		.4byte	.LFB263
 4130 003c 14000000 		.4byte	.LFE263-.LFB263
 4131 0040 00000000 		.4byte	.LFB264
 4132 0044 6C000000 		.4byte	.LFE264-.LFB264
 4133 0048 00000000 		.4byte	.LFB265
 4134 004c 80010000 		.4byte	.LFE265-.LFB265
 4135 0050 00000000 		.4byte	.LFB266
 4136 0054 90000000 		.4byte	.LFE266-.LFB266
 4137 0058 00000000 		.4byte	.LFB267
 4138 005c 0C000000 		.4byte	.LFE267-.LFB267
 4139 0060 00000000 		.4byte	.LFB268
 4140 0064 1E000000 		.4byte	.LFE268-.LFB268
 4141 0068 00000000 		.4byte	.LFB269
 4142 006c 18000000 		.4byte	.LFE269-.LFB269
 4143 0070 00000000 		.4byte	.LFB270
 4144 0074 0C000000 		.4byte	.LFE270-.LFB270
 4145 0078 00000000 		.4byte	.LFB271
ARM GAS  /tmp/cctOVqwV.s 			page 74


 4146 007c 18000000 		.4byte	.LFE271-.LFB271
 4147 0080 00000000 		.4byte	.LFB272
 4148 0084 12000000 		.4byte	.LFE272-.LFB272
 4149 0088 00000000 		.4byte	0
 4150 008c 00000000 		.4byte	0
 4151              		.section	.debug_ranges,"",%progbits
 4152              	.Ldebug_ranges0:
 4153 0000 00000000 		.4byte	.LFB258
 4154 0004 5C000000 		.4byte	.LFE258
 4155 0008 00000000 		.4byte	.LFB259
 4156 000c 24000000 		.4byte	.LFE259
 4157 0010 00000000 		.4byte	.LFB260
 4158 0014 5C000000 		.4byte	.LFE260
 4159 0018 00000000 		.4byte	.LFB261
 4160 001c 14000000 		.4byte	.LFE261
 4161 0020 00000000 		.4byte	.LFB262
 4162 0024 14000000 		.4byte	.LFE262
 4163 0028 00000000 		.4byte	.LFB263
 4164 002c 14000000 		.4byte	.LFE263
 4165 0030 00000000 		.4byte	.LFB264
 4166 0034 6C000000 		.4byte	.LFE264
 4167 0038 00000000 		.4byte	.LFB265
 4168 003c 80010000 		.4byte	.LFE265
 4169 0040 00000000 		.4byte	.LFB266
 4170 0044 90000000 		.4byte	.LFE266
 4171 0048 00000000 		.4byte	.LFB267
 4172 004c 0C000000 		.4byte	.LFE267
 4173 0050 00000000 		.4byte	.LFB268
 4174 0054 1E000000 		.4byte	.LFE268
 4175 0058 00000000 		.4byte	.LFB269
 4176 005c 18000000 		.4byte	.LFE269
 4177 0060 00000000 		.4byte	.LFB270
 4178 0064 0C000000 		.4byte	.LFE270
 4179 0068 00000000 		.4byte	.LFB271
 4180 006c 18000000 		.4byte	.LFE271
 4181 0070 00000000 		.4byte	.LFB272
 4182 0074 12000000 		.4byte	.LFE272
 4183 0078 00000000 		.4byte	0
 4184 007c 00000000 		.4byte	0
 4185              		.section	.debug_line,"",%progbits
 4186              	.Ldebug_line0:
 4187 0000 63050000 		.section	.debug_str,"MS",%progbits,1
 4187      0200F902 
 4187      00000201 
 4187      FB0E0D00 
 4187      01010101 
 4188              	.LASF155:
 4189 0000 70776D63 		.ascii	"pwmchannel_t\000"
 4189      68616E6E 
 4189      656C5F74 
 4189      00
 4190              	.LASF52:
 4191 000d 72656164 		.ascii	"ready_list_t\000"
 4191      795F6C69 
 4191      73745F74 
 4191      00
 4192              	.LASF114:
ARM GAS  /tmp/cctOVqwV.s 			page 75


 4193 001a 44494552 		.ascii	"DIER\000"
 4193      00
 4194              	.LASF4:
 4195 001f 73697A65 		.ascii	"size_t\000"
 4195      5F7400
 4196              	.LASF193:
 4197 0026 70776D5F 		.ascii	"pwm_lld_serve_interrupt\000"
 4197      6C6C645F 
 4197      73657276 
 4197      655F696E 
 4197      74657272 
 4198              	.LASF125:
 4199 003e 7264796D 		.ascii	"rdymsg\000"
 4199      736700
 4200              	.LASF168:
 4201 0045 56656374 		.ascii	"VectorA0\000"
 4201      6F724130 
 4201      00
 4202              	.LASF164:
 4203 004e 56656374 		.ascii	"VectorA4\000"
 4203      6F724134 
 4203      00
 4204              	.LASF5:
 4205 0057 5F5F7569 		.ascii	"__uint8_t\000"
 4205      6E74385F 
 4205      7400
 4206              	.LASF112:
 4207 0061 706F7274 		.ascii	"port_intctx\000"
 4207      5F696E74 
 4207      63747800 
 4208              	.LASF51:
 4209 006d 63685F74 		.ascii	"ch_threads_queue\000"
 4209      68726561 
 4209      64735F71 
 4209      75657565 
 4209      00
 4210              	.LASF71:
 4211 007e 73797374 		.ascii	"system_debug_t\000"
 4211      656D5F64 
 4211      65627567 
 4211      5F7400
 4212              	.LASF149:
 4213 008d 70657269 		.ascii	"period\000"
 4213      6F6400
 4214              	.LASF165:
 4215 0094 56656374 		.ascii	"VectorAC\000"
 4215      6F724143 
 4215      00
 4216              	.LASF14:
 4217 009d 6C6F6E67 		.ascii	"long long unsigned int\000"
 4217      206C6F6E 
 4217      6720756E 
 4217      7369676E 
 4217      65642069 
 4218              	.LASF192:
 4219 00b4 2F686F6D 		.ascii	"/home/selim/working/ChibiOS/os/hal/ports/STM32/LLD/"
 4219      652F7365 
ARM GAS  /tmp/cctOVqwV.s 			page 76


 4219      6C696D2F 
 4219      776F726B 
 4219      696E672F 
 4220 00e7 54494D76 		.ascii	"TIMv1/pwm_lld.c\000"
 4220      312F7077 
 4220      6D5F6C6C 
 4220      642E6300 
 4221              	.LASF126:
 4222 00f7 65786974 		.ascii	"exitcode\000"
 4222      636F6465 
 4222      00
 4223              	.LASF78:
 4224 0100 6D61696E 		.ascii	"mainthread\000"
 4224      74687265 
 4224      616400
 4225              	.LASF68:
 4226 010b 76697274 		.ascii	"virtual_timers_list_t\000"
 4226      75616C5F 
 4226      74696D65 
 4226      72735F6C 
 4226      6973745F 
 4227              	.LASF177:
 4228 0121 70776D5F 		.ascii	"pwm_lld_disable_channel\000"
 4228      6C6C645F 
 4228      64697361 
 4228      626C655F 
 4228      6368616E 
 4229              	.LASF118:
 4230 0139 42445452 		.ascii	"BDTR\000"
 4230      00
 4231              	.LASF161:
 4232 013e 66726571 		.ascii	"frequency\000"
 4232      75656E63 
 4232      7900
 4233              	.LASF97:
 4234 0148 41484231 		.ascii	"AHB1LPENR\000"
 4234      4C50454E 
 4234      5200
 4235              	.LASF31:
 4236 0152 705F7072 		.ascii	"p_prio\000"
 4236      696F00
 4237              	.LASF144:
 4238 0159 50574D5F 		.ascii	"PWM_READY\000"
 4238      52454144 
 4238      5900
 4239              	.LASF189:
 4240 0163 6E766963 		.ascii	"nvicEnableVector\000"
 4240      456E6162 
 4240      6C655665 
 4240      63746F72 
 4240      00
 4241              	.LASF115:
 4242 0174 43434D52 		.ascii	"CCMR1\000"
 4242      3100
 4243              	.LASF116:
 4244 017a 43434D52 		.ascii	"CCMR2\000"
 4244      3200
ARM GAS  /tmp/cctOVqwV.s 			page 77


 4245              	.LASF120:
 4246 0180 43434D52 		.ascii	"CCMR3\000"
 4246      3300
 4247              	.LASF3:
 4248 0186 7369676E 		.ascii	"signed char\000"
 4248      65642063 
 4248      68617200 
 4249              	.LASF83:
 4250 0192 41484231 		.ascii	"AHB1RSTR\000"
 4250      52535452 
 4250      00
 4251              	.LASF154:
 4252 019b 70776D6D 		.ascii	"pwmmode_t\000"
 4252      6F64655F 
 4252      7400
 4253              	.LASF183:
 4254 01a5 50574D44 		.ascii	"PWMD1\000"
 4254      3100
 4255              	.LASF77:
 4256 01ab 76746C69 		.ascii	"vtlist\000"
 4256      737400
 4257              	.LASF184:
 4258 01b2 50574D44 		.ascii	"PWMD3\000"
 4258      3300
 4259              	.LASF166:
 4260 01b8 56656374 		.ascii	"VectorB4\000"
 4260      6F724234 
 4260      00
 4261              	.LASF147:
 4262 01c1 73746174 		.ascii	"state\000"
 4262      6500
 4263              	.LASF151:
 4264 01c7 6368616E 		.ascii	"channels\000"
 4264      6E656C73 
 4264      00
 4265              	.LASF10:
 4266 01d0 6C6F6E67 		.ascii	"long int\000"
 4266      20696E74 
 4266      00
 4267              	.LASF170:
 4268 01d9 70776D5F 		.ascii	"pwm_lld_start\000"
 4268      6C6C645F 
 4268      73746172 
 4268      7400
 4269              	.LASF88:
 4270 01e7 41504232 		.ascii	"APB2RSTR\000"
 4270      52535452 
 4270      00
 4271              	.LASF180:
 4272 01f0 70776D5F 		.ascii	"pwm_lld_enable_channel_notification\000"
 4272      6C6C645F 
 4272      656E6162 
 4272      6C655F63 
 4272      68616E6E 
 4273              	.LASF101:
 4274 0214 41504231 		.ascii	"APB1LPENR\000"
 4274      4C50454E 
ARM GAS  /tmp/cctOVqwV.s 			page 78


 4274      5200
 4275              	.LASF21:
 4276 021e 74737461 		.ascii	"tstate_t\000"
 4276      74655F74 
 4276      00
 4277              	.LASF117:
 4278 0227 43434552 		.ascii	"CCER\000"
 4278      00
 4279              	.LASF1:
 4280 022c 6C6F6E67 		.ascii	"long long int\000"
 4280      206C6F6E 
 4280      6720696E 
 4280      7400
 4281              	.LASF153:
 4282 023a 70776D63 		.ascii	"pwmcallback_t\000"
 4282      616C6C62 
 4282      61636B5F 
 4282      7400
 4283              	.LASF33:
 4284 0248 705F6E65 		.ascii	"p_newer\000"
 4284      77657200 
 4285              	.LASF81:
 4286 0250 504C4C43 		.ascii	"PLLCFGR\000"
 4286      46475200 
 4287              	.LASF8:
 4288 0258 73686F72 		.ascii	"short unsigned int\000"
 4288      7420756E 
 4288      7369676E 
 4288      65642069 
 4288      6E7400
 4289              	.LASF2:
 4290 026b 6C6F6E67 		.ascii	"long double\000"
 4290      20646F75 
 4290      626C6500 
 4291              	.LASF185:
 4292 0277 50574D44 		.ascii	"PWMD5\000"
 4292      3500
 4293              	.LASF57:
 4294 027d 725F6E65 		.ascii	"r_newer\000"
 4294      77657200 
 4295              	.LASF45:
 4296 0285 705F6D70 		.ascii	"p_mpool\000"
 4296      6F6F6C00 
 4297              	.LASF109:
 4298 028d 72656761 		.ascii	"regarm_t\000"
 4298      726D5F74 
 4298      00
 4299              	.LASF64:
 4300 0296 76745F70 		.ascii	"vt_prev\000"
 4300      72657600 
 4301              	.LASF140:
 4302 029e 6D757465 		.ascii	"mutex_t\000"
 4302      785F7400 
 4303              	.LASF79:
 4304 02a6 69646C65 		.ascii	"idle_thread_wa\000"
 4304      5F746872 
 4304      6561645F 
ARM GAS  /tmp/cctOVqwV.s 			page 79


 4304      776100
 4305              	.LASF26:
 4306 02b5 636E745F 		.ascii	"cnt_t\000"
 4306      7400
 4307              	.LASF0:
 4308 02bb 756E7369 		.ascii	"unsigned int\000"
 4308      676E6564 
 4308      20696E74 
 4308      00
 4309              	.LASF63:
 4310 02c8 76745F6E 		.ascii	"vt_next\000"
 4310      65787400 
 4311              	.LASF190:
 4312 02d0 6E766963 		.ascii	"nvicDisableVector\000"
 4312      44697361 
 4312      626C6556 
 4312      6563746F 
 4312      7200
 4313              	.LASF129:
 4314 02e2 77747365 		.ascii	"wtsemp\000"
 4314      6D7000
 4315              	.LASF40:
 4316 02e9 705F6D73 		.ascii	"p_msgqueue\000"
 4316      67717565 
 4316      756500
 4317              	.LASF178:
 4318 02f4 70776D5F 		.ascii	"pwm_lld_enable_periodic_notification\000"
 4318      6C6C645F 
 4318      656E6162 
 4318      6C655F70 
 4318      6572696F 
 4319              	.LASF48:
 4320 0319 63685F74 		.ascii	"ch_thread\000"
 4320      68726561 
 4320      6400
 4321              	.LASF176:
 4322 0323 77696474 		.ascii	"width\000"
 4322      6800
 4323              	.LASF113:
 4324 0329 534D4352 		.ascii	"SMCR\000"
 4324      00
 4325              	.LASF107:
 4326 032e 504C4C49 		.ascii	"PLLI2SCFGR\000"
 4326      32534346 
 4326      475200
 4327              	.LASF24:
 4328 0339 6D73675F 		.ascii	"msg_t\000"
 4328      7400
 4329              	.LASF85:
 4330 033f 41484233 		.ascii	"AHB3RSTR\000"
 4330      52535452 
 4330      00
 4331              	.LASF49:
 4332 0348 63685F74 		.ascii	"ch_threads_list\000"
 4332      68726561 
 4332      64735F6C 
 4332      69737400 
ARM GAS  /tmp/cctOVqwV.s 			page 80


 4333              	.LASF187:
 4334 0358 5F706F72 		.ascii	"_port_irq_epilogue\000"
 4334      745F6972 
 4334      715F6570 
 4334      696C6F67 
 4334      756500
 4335              	.LASF159:
 4336 036b 63616C6C 		.ascii	"callback\000"
 4336      6261636B 
 4336      00
 4337              	.LASF167:
 4338 0374 56656374 		.ascii	"Vector108\000"
 4338      6F723130 
 4338      3800
 4339              	.LASF122:
 4340 037e 73746D33 		.ascii	"stm32_tim_t\000"
 4340      325F7469 
 4340      6D5F7400 
 4341              	.LASF102:
 4342 038a 41504232 		.ascii	"APB2LPENR\000"
 4342      4C50454E 
 4342      5200
 4343              	.LASF53:
 4344 0394 63685F72 		.ascii	"ch_ready_list\000"
 4344      65616479 
 4344      5F6C6973 
 4344      7400
 4345              	.LASF25:
 4346 03a2 6576656E 		.ascii	"eventmask_t\000"
 4346      746D6173 
 4346      6B5F7400 
 4347              	.LASF181:
 4348 03ae 70776D5F 		.ascii	"pwm_lld_disable_channel_notification\000"
 4348      6C6C645F 
 4348      64697361 
 4348      626C655F 
 4348      6368616E 
 4349              	.LASF172:
 4350 03d3 63636572 		.ascii	"ccer\000"
 4350      00
 4351              	.LASF9:
 4352 03d8 5F5F696E 		.ascii	"__int32_t\000"
 4352      7433325F 
 4352      7400
 4353              	.LASF171:
 4354 03e2 70776D70 		.ascii	"pwmp\000"
 4354      00
 4355              	.LASF110:
 4356 03e7 73746B61 		.ascii	"stkalign_t\000"
 4356      6C69676E 
 4356      5F7400
 4357              	.LASF47:
 4358 03f2 74687265 		.ascii	"threads_list_t\000"
 4358      6164735F 
 4358      6C697374 
 4358      5F7400
 4359              	.LASF61:
ARM GAS  /tmp/cctOVqwV.s 			page 81


 4360 0401 76697274 		.ascii	"virtual_timer_t\000"
 4360      75616C5F 
 4360      74696D65 
 4360      725F7400 
 4361              	.LASF39:
 4362 0411 705F7761 		.ascii	"p_waiting\000"
 4362      6974696E 
 4362      6700
 4363              	.LASF80:
 4364 041b 73697A65 		.ascii	"sizetype\000"
 4364      74797065 
 4364      00
 4365              	.LASF46:
 4366 0424 74687265 		.ascii	"thread_reference_t\000"
 4366      61645F72 
 4366      65666572 
 4366      656E6365 
 4366      5F7400
 4367              	.LASF69:
 4368 0437 63685F76 		.ascii	"ch_virtual_timers_list\000"
 4368      69727475 
 4368      616C5F74 
 4368      696D6572 
 4368      735F6C69 
 4369              	.LASF128:
 4370 044e 77747472 		.ascii	"wttrp\000"
 4370      7000
 4371              	.LASF29:
 4372 0454 705F6E65 		.ascii	"p_next\000"
 4372      787400
 4373              	.LASF42:
 4374 045b 705F6570 		.ascii	"p_epending\000"
 4374      656E6469 
 4374      6E6700
 4375              	.LASF92:
 4376 0466 41484233 		.ascii	"AHB3ENR\000"
 4376      454E5200 
 4377              	.LASF70:
 4378 046e 76745F6C 		.ascii	"vt_lasttime\000"
 4378      61737474 
 4378      696D6500 
 4379              	.LASF18:
 4380 047a 75696E74 		.ascii	"uint64_t\000"
 4380      36345F74 
 4380      00
 4381              	.LASF34:
 4382 0483 705F6F6C 		.ascii	"p_older\000"
 4382      64657200 
 4383              	.LASF169:
 4384 048b 70776D5F 		.ascii	"pwm_lld_init\000"
 4384      6C6C645F 
 4384      696E6974 
 4384      00
 4385              	.LASF56:
 4386 0498 725F6374 		.ascii	"r_ctx\000"
 4386      7800
 4387              	.LASF98:
ARM GAS  /tmp/cctOVqwV.s 			page 82


 4388 049e 41484232 		.ascii	"AHB2LPENR\000"
 4388      4C50454E 
 4388      5200
 4389              	.LASF124:
 4390 04a8 746D5F63 		.ascii	"tm_calibration_t\000"
 4390      616C6962 
 4390      72617469 
 4390      6F6E5F74 
 4390      00
 4391              	.LASF59:
 4392 04b9 725F6375 		.ascii	"r_current\000"
 4392      7272656E 
 4392      7400
 4393              	.LASF87:
 4394 04c3 41504231 		.ascii	"APB1RSTR\000"
 4394      52535452 
 4394      00
 4395              	.LASF13:
 4396 04cc 5F5F7569 		.ascii	"__uint64_t\000"
 4396      6E743634 
 4396      5F7400
 4397              	.LASF179:
 4398 04d7 70776D5F 		.ascii	"pwm_lld_disable_periodic_notification\000"
 4398      6C6C645F 
 4398      64697361 
 4398      626C655F 
 4398      70657269 
 4399              	.LASF22:
 4400 04fd 74726566 		.ascii	"trefs_t\000"
 4400      735F7400 
 4401              	.LASF86:
 4402 0505 52455345 		.ascii	"RESERVED0\000"
 4402      52564544 
 4402      3000
 4403              	.LASF89:
 4404 050f 52455345 		.ascii	"RESERVED1\000"
 4404      52564544 
 4404      3100
 4405              	.LASF93:
 4406 0519 52455345 		.ascii	"RESERVED2\000"
 4406      52564544 
 4406      3200
 4407              	.LASF96:
 4408 0523 52455345 		.ascii	"RESERVED3\000"
 4408      52564544 
 4408      3300
 4409              	.LASF100:
 4410 052d 52455345 		.ascii	"RESERVED4\000"
 4410      52564544 
 4410      3400
 4411              	.LASF30:
 4412 0537 705F7072 		.ascii	"p_prev\000"
 4412      657600
 4413              	.LASF105:
 4414 053e 52455345 		.ascii	"RESERVED6\000"
 4414      52564544 
 4414      3600
ARM GAS  /tmp/cctOVqwV.s 			page 83


 4415              	.LASF23:
 4416 0548 74707269 		.ascii	"tprio_t\000"
 4416      6F5F7400 
 4417              	.LASF72:
 4418 0550 63685F73 		.ascii	"ch_system_debug\000"
 4418      79737465 
 4418      6D5F6465 
 4418      62756700 
 4419              	.LASF141:
 4420 0560 5F426F6F 		.ascii	"_Bool\000"
 4420      6C00
 4421              	.LASF16:
 4422 0566 696E7433 		.ascii	"int32_t\000"
 4422      325F7400 
 4423              	.LASF6:
 4424 056e 756E7369 		.ascii	"unsigned char\000"
 4424      676E6564 
 4424      20636861 
 4424      7200
 4425              	.LASF136:
 4426 057c 6D5F7175 		.ascii	"m_queue\000"
 4426      65756500 
 4427              	.LASF182:
 4428 0584 49544D5F 		.ascii	"ITM_RxBuffer\000"
 4428      52784275 
 4428      66666572 
 4428      00
 4429              	.LASF134:
 4430 0591 735F636E 		.ascii	"s_cnt\000"
 4430      7400
 4431              	.LASF108:
 4432 0597 5243435F 		.ascii	"RCC_TypeDef\000"
 4432      54797065 
 4432      44656600 
 4433              	.LASF43:
 4434 05a3 705F6D74 		.ascii	"p_mtxlist\000"
 4434      786C6973 
 4434      7400
 4435              	.LASF7:
 4436 05ad 73686F72 		.ascii	"short int\000"
 4436      7420696E 
 4436      7400
 4437              	.LASF36:
 4438 05b7 705F7374 		.ascii	"p_state\000"
 4438      61746500 
 4439              	.LASF99:
 4440 05bf 41484233 		.ascii	"AHB3LPENR\000"
 4440      4C50454E 
 4440      5200
 4441              	.LASF55:
 4442 05c9 725F7072 		.ascii	"r_prio\000"
 4442      696F00
 4443              	.LASF191:
 4444 05d0 474E5520 		.ascii	"GNU C11 5.3.1 20160307 (release) [ARM/embedded-5-br"
 4444      43313120 
 4444      352E332E 
 4444      31203230 
ARM GAS  /tmp/cctOVqwV.s 			page 84


 4444      31363033 
 4445 0603 616E6368 		.ascii	"anch revision 234589] -mcpu=cortex-m4 -mno-thumb-in"
 4445      20726576 
 4445      6973696F 
 4445      6E203233 
 4445      34353839 
 4446 0636 74657277 		.ascii	"terwork -mthumb -ggdb -O2 -fomit-frame-pointer -fal"
 4446      6F726B20 
 4446      2D6D7468 
 4446      756D6220 
 4446      2D676764 
 4447 0669 69676E2D 		.ascii	"ign-functions=16 -ffunction-sections -fdata-section"
 4447      66756E63 
 4447      74696F6E 
 4447      733D3136 
 4447      202D6666 
 4448 069c 73202D66 		.ascii	"s -fno-common\000"
 4448      6E6F2D63 
 4448      6F6D6D6F 
 4448      6E00
 4449              	.LASF131:
 4450 06aa 65776D61 		.ascii	"ewmask\000"
 4450      736B00
 4451              	.LASF156:
 4452 06b1 70776D63 		.ascii	"pwmchnmsk_t\000"
 4452      686E6D73 
 4452      6B5F7400 
 4453              	.LASF37:
 4454 06bd 705F666C 		.ascii	"p_flags\000"
 4454      61677300 
 4455              	.LASF194:
 4456 06c5 5F5F6675 		.ascii	"__func__\000"
 4456      6E635F5F 
 4456      00
 4457              	.LASF75:
 4458 06ce 63685F73 		.ascii	"ch_system\000"
 4458      79737465 
 4458      6D00
 4459              	.LASF95:
 4460 06d8 41504232 		.ascii	"APB2ENR\000"
 4460      454E5200 
 4461              	.LASF175:
 4462 06e0 6368616E 		.ascii	"channel\000"
 4462      6E656C00 
 4463              	.LASF62:
 4464 06e8 63685F76 		.ascii	"ch_virtual_timer\000"
 4464      69727475 
 4464      616C5F74 
 4464      696D6572 
 4464      00
 4465              	.LASF132:
 4466 06f9 63685F73 		.ascii	"ch_semaphore\000"
 4466      656D6170 
 4466      686F7265 
 4466      00
 4467              	.LASF121:
 4468 0706 43435852 		.ascii	"CCXR\000"
ARM GAS  /tmp/cctOVqwV.s 			page 85


 4468      00
 4469              	.LASF173:
 4470 070b 70776D5F 		.ascii	"pwm_lld_stop\000"
 4470      6C6C645F 
 4470      73746F70 
 4470      00
 4471              	.LASF103:
 4472 0718 52455345 		.ascii	"RESERVED5\000"
 4472      52564544 
 4472      3500
 4473              	.LASF17:
 4474 0722 75696E74 		.ascii	"uint32_t\000"
 4474      33325F74 
 4474      00
 4475              	.LASF130:
 4476 072b 77746D74 		.ascii	"wtmtxp\000"
 4476      787000
 4477              	.LASF54:
 4478 0732 725F7175 		.ascii	"r_queue\000"
 4478      65756500 
 4479              	.LASF65:
 4480 073a 76745F64 		.ascii	"vt_delta\000"
 4480      656C7461 
 4480      00
 4481              	.LASF150:
 4482 0743 656E6162 		.ascii	"enabled\000"
 4482      6C656400 
 4483              	.LASF12:
 4484 074b 6C6F6E67 		.ascii	"long unsigned int\000"
 4484      20756E73 
 4484      69676E65 
 4484      6420696E 
 4484      7400
 4485              	.LASF174:
 4486 075d 70776D5F 		.ascii	"pwm_lld_enable_channel\000"
 4486      6C6C645F 
 4486      656E6162 
 4486      6C655F63 
 4486      68616E6E 
 4487              	.LASF143:
 4488 0774 50574D5F 		.ascii	"PWM_STOP\000"
 4488      53544F50 
 4488      00
 4489              	.LASF139:
 4490 077d 63686172 		.ascii	"char\000"
 4490      00
 4491              	.LASF158:
 4492 0782 6D6F6465 		.ascii	"mode\000"
 4492      00
 4493              	.LASF148:
 4494 0787 636F6E66 		.ascii	"config\000"
 4494      696700
 4495              	.LASF119:
 4496 078e 444D4152 		.ascii	"DMAR\000"
 4496      00
 4497              	.LASF186:
 4498 0793 50574D44 		.ascii	"PWMD9\000"
ARM GAS  /tmp/cctOVqwV.s 			page 86


 4498      3900
 4499              	.LASF84:
 4500 0799 41484232 		.ascii	"AHB2RSTR\000"
 4500      52535452 
 4500      00
 4501              	.LASF28:
 4502 07a2 74687265 		.ascii	"thread_t\000"
 4502      61645F74 
 4502      00
 4503              	.LASF138:
 4504 07ab 6D5F6E65 		.ascii	"m_next\000"
 4504      787400
 4505              	.LASF27:
 4506 07b2 73797374 		.ascii	"systime_t\000"
 4506      696D655F 
 4506      7400
 4507              	.LASF44:
 4508 07bc 705F7265 		.ascii	"p_realprio\000"
 4508      616C7072 
 4508      696F00
 4509              	.LASF60:
 4510 07c7 76746675 		.ascii	"vtfunc_t\000"
 4510      6E635F74 
 4510      00
 4511              	.LASF11:
 4512 07d0 5F5F7569 		.ascii	"__uint32_t\000"
 4512      6E743332 
 4512      5F7400
 4513              	.LASF73:
 4514 07db 70616E69 		.ascii	"panic_msg\000"
 4514      635F6D73 
 4514      6700
 4515              	.LASF123:
 4516 07e5 6F666673 		.ascii	"offset\000"
 4516      657400
 4517              	.LASF94:
 4518 07ec 41504231 		.ascii	"APB1ENR\000"
 4518      454E5200 
 4519              	.LASF91:
 4520 07f4 41484232 		.ascii	"AHB2ENR\000"
 4520      454E5200 
 4521              	.LASF111:
 4522 07fc 636F6E74 		.ascii	"context\000"
 4522      65787400 
 4523              	.LASF58:
 4524 0804 725F6F6C 		.ascii	"r_older\000"
 4524      64657200 
 4525              	.LASF74:
 4526 080c 63685F73 		.ascii	"ch_system_t\000"
 4526      79737465 
 4526      6D5F7400 
 4527              	.LASF160:
 4528 0818 50574D43 		.ascii	"PWMChannelConfig\000"
 4528      68616E6E 
 4528      656C436F 
 4528      6E666967 
 4528      00
ARM GAS  /tmp/cctOVqwV.s 			page 87


 4529              	.LASF19:
 4530 0829 7274636E 		.ascii	"rtcnt_t\000"
 4530      745F7400 
 4531              	.LASF67:
 4532 0831 76745F70 		.ascii	"vt_par\000"
 4532      617200
 4533              	.LASF106:
 4534 0838 53534347 		.ascii	"SSCGR\000"
 4534      5200
 4535              	.LASF163:
 4536 083e 50574D43 		.ascii	"PWMConfig\000"
 4536      6F6E6669 
 4536      6700
 4537              	.LASF50:
 4538 0848 74687265 		.ascii	"threads_queue_t\000"
 4538      6164735F 
 4538      71756575 
 4538      655F7400 
 4539              	.LASF135:
 4540 0858 63685F6D 		.ascii	"ch_mutex\000"
 4540      75746578 
 4540      00
 4541              	.LASF38:
 4542 0861 705F7265 		.ascii	"p_refs\000"
 4542      667300
 4543              	.LASF104:
 4544 0868 42444352 		.ascii	"BDCR\000"
 4544      00
 4545              	.LASF76:
 4546 086d 726C6973 		.ascii	"rlist\000"
 4546      7400
 4547              	.LASF15:
 4548 0873 75696E74 		.ascii	"uint8_t\000"
 4548      385F7400 
 4549              	.LASF146:
 4550 087b 50574D44 		.ascii	"PWMDriver\000"
 4550      72697665 
 4550      7200
 4551              	.LASF145:
 4552 0885 70776D73 		.ascii	"pwmstate_t\000"
 4552      74617465 
 4552      5F7400
 4553              	.LASF157:
 4554 0890 70776D63 		.ascii	"pwmcnt_t\000"
 4554      6E745F74 
 4554      00
 4555              	.LASF127:
 4556 0899 77746F62 		.ascii	"wtobjp\000"
 4556      6A7000
 4557              	.LASF35:
 4558 08a0 705F6E61 		.ascii	"p_name\000"
 4558      6D6500
 4559              	.LASF90:
 4560 08a7 41484231 		.ascii	"AHB1ENR\000"
 4560      454E5200 
 4561              	.LASF82:
 4562 08af 43464752 		.ascii	"CFGR\000"
ARM GAS  /tmp/cctOVqwV.s 			page 88


 4562      00
 4563              	.LASF20:
 4564 08b4 746D6F64 		.ascii	"tmode_t\000"
 4564      655F7400 
 4565              	.LASF133:
 4566 08bc 735F7175 		.ascii	"s_queue\000"
 4566      65756500 
 4567              	.LASF152:
 4568 08c4 636C6F63 		.ascii	"clock\000"
 4568      6B00
 4569              	.LASF41:
 4570 08ca 705F6D73 		.ascii	"p_msg\000"
 4570      6700
 4571              	.LASF142:
 4572 08d0 50574D5F 		.ascii	"PWM_UNINIT\000"
 4572      554E494E 
 4572      495400
 4573              	.LASF137:
 4574 08db 6D5F6F77 		.ascii	"m_owner\000"
 4574      6E657200 
 4575              	.LASF188:
 4576 08e3 70776D4F 		.ascii	"pwmObjectInit\000"
 4576      626A6563 
 4576      74496E69 
 4576      7400
 4577              	.LASF32:
 4578 08f1 705F6374 		.ascii	"p_ctx\000"
 4578      7800
 4579              	.LASF66:
 4580 08f7 76745F66 		.ascii	"vt_func\000"
 4580      756E6300 
 4581              	.LASF162:
 4582 08ff 64696572 		.ascii	"dier\000"
 4582      00
 4583              		.ident	"GCC: (GNU Tools for ARM Embedded Processors) 5.3.1 20160307 (release) [ARM/embedded-5-bran
ARM GAS  /tmp/cctOVqwV.s 			page 89


DEFINED SYMBOLS
                            *ABS*:0000000000000000 pwm_lld.c
     /tmp/cctOVqwV.s:20     .text.pwm_lld_serve_interrupt:0000000000000000 $t
     /tmp/cctOVqwV.s:25     .text.pwm_lld_serve_interrupt:0000000000000000 pwm_lld_serve_interrupt
     /tmp/cctOVqwV.s:136    .text.VectorA4:0000000000000000 $t
     /tmp/cctOVqwV.s:142    .text.VectorA4:0000000000000000 VectorA4
     /tmp/cctOVqwV.s:180    .text.VectorA4:000000000000001c $d
     /tmp/cctOVqwV.s:186    .text.VectorAC:0000000000000000 $t
     /tmp/cctOVqwV.s:192    .text.VectorAC:0000000000000000 VectorAC
     /tmp/cctOVqwV.s:282    .text.VectorAC:0000000000000054 $d
     /tmp/cctOVqwV.s:288    .text.VectorB4:0000000000000000 $t
     /tmp/cctOVqwV.s:294    .text.VectorB4:0000000000000000 VectorB4
     /tmp/cctOVqwV.s:319    .text.VectorB4:0000000000000010 $d
     /tmp/cctOVqwV.s:324    .text.Vector108:0000000000000000 $t
     /tmp/cctOVqwV.s:330    .text.Vector108:0000000000000000 Vector108
     /tmp/cctOVqwV.s:355    .text.Vector108:0000000000000010 $d
     /tmp/cctOVqwV.s:360    .text.VectorA0:0000000000000000 $t
     /tmp/cctOVqwV.s:366    .text.VectorA0:0000000000000000 VectorA0
     /tmp/cctOVqwV.s:391    .text.VectorA0:0000000000000010 $d
     /tmp/cctOVqwV.s:396    .text.pwm_lld_init:0000000000000000 $t
     /tmp/cctOVqwV.s:402    .text.pwm_lld_init:0000000000000000 pwm_lld_init
     /tmp/cctOVqwV.s:472    .text.pwm_lld_init:000000000000004c $d
     /tmp/cctOVqwV.s:484    .text.pwm_lld_start:0000000000000000 $t
     /tmp/cctOVqwV.s:490    .text.pwm_lld_start:0000000000000000 pwm_lld_start
     /tmp/cctOVqwV.s:780    .text.pwm_lld_start:0000000000000164 $d
     /tmp/cctOVqwV.s:791    .text.pwm_lld_stop:0000000000000000 $t
     /tmp/cctOVqwV.s:797    .text.pwm_lld_stop:0000000000000000 pwm_lld_stop
     /tmp/cctOVqwV.s:904    .text.pwm_lld_stop:000000000000007c $d
     /tmp/cctOVqwV.s:913    .text.pwm_lld_enable_channel:0000000000000000 $t
     /tmp/cctOVqwV.s:919    .text.pwm_lld_enable_channel:0000000000000000 pwm_lld_enable_channel
     /tmp/cctOVqwV.s:938    .text.pwm_lld_disable_channel:0000000000000000 $t
     /tmp/cctOVqwV.s:944    .text.pwm_lld_disable_channel:0000000000000000 pwm_lld_disable_channel
     /tmp/cctOVqwV.s:971    .text.pwm_lld_enable_periodic_notification:0000000000000000 $t
     /tmp/cctOVqwV.s:977    .text.pwm_lld_enable_periodic_notification:0000000000000000 pwm_lld_enable_periodic_notification
     /tmp/cctOVqwV.s:1006   .text.pwm_lld_disable_periodic_notification:0000000000000000 $t
     /tmp/cctOVqwV.s:1012   .text.pwm_lld_disable_periodic_notification:0000000000000000 pwm_lld_disable_periodic_notification
     /tmp/cctOVqwV.s:1030   .text.pwm_lld_enable_channel_notification:0000000000000000 $t
     /tmp/cctOVqwV.s:1036   .text.pwm_lld_enable_channel_notification:0000000000000000 pwm_lld_enable_channel_notification
     /tmp/cctOVqwV.s:1072   .text.pwm_lld_disable_channel_notification:0000000000000000 $t
     /tmp/cctOVqwV.s:1078   .text.pwm_lld_disable_channel_notification:0000000000000000 pwm_lld_disable_channel_notification
     /tmp/cctOVqwV.s:1129   .bss.PWMD9:0000000000000000 PWMD9
     /tmp/cctOVqwV.s:1122   .bss.PWMD5:0000000000000000 PWMD5
     /tmp/cctOVqwV.s:1115   .bss.PWMD3:0000000000000000 PWMD3
     /tmp/cctOVqwV.s:1108   .bss.PWMD1:0000000000000000 PWMD1
     /tmp/cctOVqwV.s:1104   .bss.PWMD1:0000000000000000 $d
     /tmp/cctOVqwV.s:1111   .bss.PWMD3:0000000000000000 $d
     /tmp/cctOVqwV.s:1118   .bss.PWMD5:0000000000000000 $d
     /tmp/cctOVqwV.s:1125   .bss.PWMD9:0000000000000000 $d
                     .debug_frame:0000000000000010 $d

UNDEFINED SYMBOLS
_port_irq_epilogue
pwmObjectInit
nvicEnableVector
nvicDisableVector
