ARM GAS  /tmp/ccJZ6eb6.s 			page 1


   1              		.syntax unified
   2              		.cpu cortex-m4
   3              		.fpu softvfp
   4              		.eabi_attribute 20, 1
   5              		.eabi_attribute 21, 1
   6              		.eabi_attribute 23, 3
   7              		.eabi_attribute 24, 1
   8              		.eabi_attribute 25, 1
   9              		.eabi_attribute 26, 1
  10              		.eabi_attribute 30, 2
  11              		.eabi_attribute 34, 1
  12              		.eabi_attribute 18, 4
  13              		.thumb
  14              		.syntax unified
  15              		.file	"st_lld.c"
  16              		.text
  17              	.Ltext0:
  18              		.cfi_sections	.debug_frame
  19              		.section	.text.VectorB0,"ax",%progbits
  20              		.align	2
  21              		.p2align 4,,15
  22              		.global	VectorB0
  23              		.thumb
  24              		.thumb_func
  25              		.type	VectorB0, %function
  26              	VectorB0:
  27              	.LFB258:
  28              		.file 1 "/home/selim/working/ChibiOS/os/hal/ports/STM32/LLD/TIMv1/st_lld.c"
  29              		.loc 1 173 0
  30              		.cfi_startproc
  31              		@ args = 0, pretend = 0, frame = 0
  32              		@ frame_needed = 0, uses_anonymous_args = 0
  33              		.loc 1 180 0
  34 0000 4FF08043 		mov	r3, #1073741824
  35 0004 1A69     		ldr	r2, [r3, #16]
  36 0006 9207     		lsls	r2, r2, #30
  37 0008 01D4     		bmi	.L9
  38              		.loc 1 188 0
  39 000a FFF7FEBF 		b	_port_irq_epilogue
  40              	.LVL0:
  41              	.L9:
  42              		.loc 1 173 0
  43 000e 10B5     		push	{r4, lr}
  44              		.cfi_def_cfa_offset 8
  45              		.cfi_offset 4, -8
  46              		.cfi_offset 14, -4
  47              		.loc 1 181 0
  48 0010 0024     		movs	r4, #0
  49 0012 1C61     		str	r4, [r3, #16]
  50              	.LVL1:
  51              	.LBB52:
  52              	.LBB53:
  53              	.LBB54:
  54              	.LBB55:
  55              	.LBB56:
  56              	.LBB57:
  57              		.file 2 "/home/selim/working/ChibiOS/os/ext/CMSIS/include/core_cmFunc.h"
ARM GAS  /tmp/ccJZ6eb6.s 			page 2


  58              		.loc 2 546 0
  59 0014 2023     		movs	r3, #32
  60              		.syntax unified
  61              	@ 546 "/home/selim/working/ChibiOS/os/ext/CMSIS/include/core_cmFunc.h" 1
  62 0016 83F31188 		MSR basepri, r3
  63              	@ 0 "" 2
  64              	.LVL2:
  65              		.thumb
  66              		.syntax unified
  67              	.LBE57:
  68              	.LBE56:
  69              	.LBE55:
  70              	.LBE54:
  71              	.LBE53:
  72              	.LBE52:
  73              	.LBB58:
  74              	.LBB59:
  75              		.file 3 "/home/selim/working/ChibiOS/os/hal/osal/rt/osal.h"
  76              		.loc 3 539 0
  77 001a FFF7FEFF 		bl	chSysTimerHandlerI
  78              	.LVL3:
  79              	.LBE59:
  80              	.LBE58:
  81              	.LBB60:
  82              	.LBB61:
  83              	.LBB62:
  84              	.LBB63:
  85              	.LBB64:
  86              	.LBB65:
  87              		.loc 2 546 0
  88              		.syntax unified
  89              	@ 546 "/home/selim/working/ChibiOS/os/ext/CMSIS/include/core_cmFunc.h" 1
  90 001e 84F31188 		MSR basepri, r4
  91              	@ 0 "" 2
  92              	.LVL4:
  93              		.thumb
  94              		.syntax unified
  95              	.LBE65:
  96              	.LBE64:
  97              	.LBE63:
  98              	.LBE62:
  99              	.LBE61:
 100              	.LBE60:
 101              		.loc 1 189 0
 102 0022 BDE81040 		pop	{r4, lr}
 103              		.cfi_restore 14
 104              		.cfi_restore 4
 105              		.cfi_def_cfa_offset 0
 106              		.loc 1 188 0
 107 0026 FFF7FEBF 		b	_port_irq_epilogue
 108              	.LVL5:
 109              		.cfi_endproc
 110              	.LFE258:
 111              		.size	VectorB0, .-VectorB0
 112 002a 00BF     		.section	.text.st_lld_init,"ax",%progbits
 113              		.align	2
 114              		.p2align 4,,15
ARM GAS  /tmp/ccJZ6eb6.s 			page 3


 115              		.global	st_lld_init
 116              		.thumb
 117              		.thumb_func
 118              		.type	st_lld_init, %function
 119              	st_lld_init:
 120              	.LFB259:
 121              		.loc 1 201 0
 122              		.cfi_startproc
 123              		@ args = 0, pretend = 0, frame = 0
 124              		@ frame_needed = 0, uses_anonymous_args = 0
 125              		@ link register save eliminated.
 126              		.loc 1 207 0
 127 0000 0F4A     		ldr	r2, .L12
 128              		.loc 1 210 0
 129 0002 1048     		ldr	r0, .L12+4
 130              		.loc 1 207 0
 131 0004 136C     		ldr	r3, [r2, #64]
 132              		.loc 1 201 0
 133 0006 70B4     		push	{r4, r5, r6}
 134              		.cfi_def_cfa_offset 12
 135              		.cfi_offset 4, -12
 136              		.cfi_offset 5, -8
 137              		.cfi_offset 6, -4
 138              		.loc 1 207 0
 139 0008 43F00103 		orr	r3, r3, #1
 140 000c 1364     		str	r3, [r2, #64]
 141              		.loc 1 210 0
 142 000e 8168     		ldr	r1, [r0, #8]
 143              		.loc 1 213 0
 144 0010 4FF08043 		mov	r3, #1073741824
 145              		.loc 1 215 0
 146 0014 0022     		movs	r2, #0
 147              		.loc 1 219 0
 148 0016 0124     		movs	r4, #1
 149              		.loc 1 210 0
 150 0018 41F00101 		orr	r1, r1, #1
 151              		.loc 1 213 0
 152 001c 42F2CF06 		movw	r6, #8399
 153              		.loc 1 214 0
 154 0020 4FF0FF35 		mov	r5, #-1
 155              		.loc 1 210 0
 156 0024 8160     		str	r1, [r0, #8]
 157              		.loc 1 213 0
 158 0026 9E62     		str	r6, [r3, #40]
 159              		.loc 1 223 0
 160 0028 0821     		movs	r1, #8
 161              		.loc 1 214 0
 162 002a DD62     		str	r5, [r3, #44]
 163              		.loc 1 223 0
 164 002c 1C20     		movs	r0, #28
 165              		.loc 1 215 0
 166 002e 9A61     		str	r2, [r3, #24]
 167              		.loc 1 216 0
 168 0030 5A63     		str	r2, [r3, #52]
 169              		.loc 1 217 0
 170 0032 DA60     		str	r2, [r3, #12]
 171              		.loc 1 218 0
ARM GAS  /tmp/ccJZ6eb6.s 			page 4


 172 0034 5A60     		str	r2, [r3, #4]
 173              		.loc 1 219 0
 174 0036 5C61     		str	r4, [r3, #20]
 175              		.loc 1 220 0
 176 0038 1C60     		str	r4, [r3]
 177              		.loc 1 238 0
 178 003a 70BC     		pop	{r4, r5, r6}
 179              		.cfi_restore 6
 180              		.cfi_restore 5
 181              		.cfi_restore 4
 182              		.cfi_def_cfa_offset 0
 183              		.loc 1 223 0
 184 003c FFF7FEBF 		b	nvicEnableVector
 185              	.LVL6:
 186              	.L13:
 187              		.align	2
 188              	.L12:
 189 0040 00380240 		.word	1073887232
 190 0044 002004E0 		.word	-536600576
 191              		.cfi_endproc
 192              	.LFE259:
 193              		.size	st_lld_init, .-st_lld_init
 194              		.text
 195              	.Letext0:
 196              		.file 4 "/usr/arm-none-eabi/include/machine/_default_types.h"
 197              		.file 5 "/usr/arm-none-eabi/include/sys/_stdint.h"
 198              		.file 6 "/home/selim/working/ChibiOS/os/rt/ports/ARMCMx/compilers/GCC/chtypes.h"
 199              		.file 7 "/home/selim/working/ChibiOS/os/rt/include/chsystypes.h"
 200              		.file 8 "/home/selim/working/ChibiOS/os/rt/include/chschd.h"
 201              		.file 9 "/home/selim/working/ChibiOS/os/ext/CMSIS/ST/stm32f407xx.h"
 202              		.file 10 "/home/selim/working/ChibiOS/os/rt/ports/ARMCMx/chcore.h"
 203              		.file 11 "/home/selim/working/ChibiOS/os/rt/ports/ARMCMx/chcore_v7m.h"
 204              		.file 12 "/home/selim/working/ChibiOS/os/hal/ports/STM32/LLD/TIMv1/stm32_tim.h"
 205              		.file 13 "/home/selim/working/ChibiOS/os/rt/include/chtm.h"
 206              		.file 14 "/home/selim/working/ChibiOS/os/rt/include/chsem.h"
 207              		.file 15 "/home/selim/working/ChibiOS/os/rt/include/chmtx.h"
 208              		.file 16 "/home/selim/working/ChibiOS/os/rt/include/chsys.h"
 209              		.file 17 "/home/selim/working/ChibiOS/os/hal/ports/common/ARMCMx/nvic.h"
 210              		.file 18 "/home/selim/working/ChibiOS/os/ext/CMSIS/include/core_cm4.h"
 211              		.section	.debug_info,"",%progbits
 212              	.Ldebug_info0:
 213 0000 330B0000 		.4byte	0xb33
 214 0004 0400     		.2byte	0x4
 215 0006 00000000 		.4byte	.Ldebug_abbrev0
 216 000a 04       		.byte	0x4
 217 000b 01       		.uleb128 0x1
 218 000c 8A040000 		.4byte	.LASF160
 219 0010 0C       		.byte	0xc
 220 0011 C7050000 		.4byte	.LASF161
 221 0015 00000000 		.4byte	.Ldebug_ranges0+0
 222 0019 00000000 		.4byte	0
 223 001d 00000000 		.4byte	.Ldebug_line0
 224 0021 02       		.uleb128 0x2
 225 0022 04       		.byte	0x4
 226 0023 05       		.byte	0x5
 227 0024 696E7400 		.ascii	"int\000"
 228 0028 03       		.uleb128 0x3
ARM GAS  /tmp/ccJZ6eb6.s 			page 5


 229 0029 04       		.byte	0x4
 230 002a 07       		.byte	0x7
 231 002b FF010000 		.4byte	.LASF0
 232 002f 03       		.uleb128 0x3
 233 0030 08       		.byte	0x8
 234 0031 05       		.byte	0x5
 235 0032 70010000 		.4byte	.LASF1
 236 0036 03       		.uleb128 0x3
 237 0037 08       		.byte	0x8
 238 0038 04       		.byte	0x4
 239 0039 36030000 		.4byte	.LASF2
 240 003d 03       		.uleb128 0x3
 241 003e 01       		.byte	0x1
 242 003f 06       		.byte	0x6
 243 0040 0A010000 		.4byte	.LASF3
 244 0044 04       		.uleb128 0x4
 245 0045 28000000 		.4byte	.LASF7
 246 0049 04       		.byte	0x4
 247 004a 1D       		.byte	0x1d
 248 004b 4F000000 		.4byte	0x4f
 249 004f 03       		.uleb128 0x3
 250 0050 01       		.byte	0x1
 251 0051 08       		.byte	0x8
 252 0052 42040000 		.4byte	.LASF4
 253 0056 03       		.uleb128 0x3
 254 0057 02       		.byte	0x2
 255 0058 05       		.byte	0x5
 256 0059 67040000 		.4byte	.LASF5
 257 005d 03       		.uleb128 0x3
 258 005e 02       		.byte	0x2
 259 005f 07       		.byte	0x7
 260 0060 8E010000 		.4byte	.LASF6
 261 0064 04       		.uleb128 0x4
 262 0065 B1020000 		.4byte	.LASF8
 263 0069 04       		.byte	0x4
 264 006a 3F       		.byte	0x3f
 265 006b 6F000000 		.4byte	0x6f
 266 006f 03       		.uleb128 0x3
 267 0070 04       		.byte	0x4
 268 0071 05       		.byte	0x5
 269 0072 46010000 		.4byte	.LASF9
 270 0076 04       		.uleb128 0x4
 271 0077 92060000 		.4byte	.LASF10
 272 007b 04       		.byte	0x4
 273 007c 41       		.byte	0x41
 274 007d 81000000 		.4byte	0x81
 275 0081 03       		.uleb128 0x3
 276 0082 04       		.byte	0x4
 277 0083 07       		.byte	0x7
 278 0084 22060000 		.4byte	.LASF11
 279 0088 04       		.uleb128 0x4
 280 0089 AC030000 		.4byte	.LASF12
 281 008d 04       		.byte	0x4
 282 008e 5B       		.byte	0x5b
 283 008f 93000000 		.4byte	0x93
 284 0093 03       		.uleb128 0x3
 285 0094 08       		.byte	0x8
ARM GAS  /tmp/ccJZ6eb6.s 			page 6


 286 0095 07       		.byte	0x7
 287 0096 57000000 		.4byte	.LASF13
 288 009a 04       		.uleb128 0x4
 289 009b 47070000 		.4byte	.LASF14
 290 009f 05       		.byte	0x5
 291 00a0 14       		.byte	0x14
 292 00a1 44000000 		.4byte	0x44
 293 00a5 04       		.uleb128 0x4
 294 00a6 3A040000 		.4byte	.LASF15
 295 00aa 05       		.byte	0x5
 296 00ab 1F       		.byte	0x1f
 297 00ac 64000000 		.4byte	0x64
 298 00b0 04       		.uleb128 0x4
 299 00b1 B7050000 		.4byte	.LASF16
 300 00b5 05       		.byte	0x5
 301 00b6 20       		.byte	0x20
 302 00b7 76000000 		.4byte	0x76
 303 00bb 04       		.uleb128 0x4
 304 00bc 1F000000 		.4byte	.LASF17
 305 00c0 05       		.byte	0x5
 306 00c1 26       		.byte	0x26
 307 00c2 88000000 		.4byte	0x88
 308 00c6 05       		.uleb128 0x5
 309 00c7 A5000000 		.4byte	0xa5
 310 00cb 05       		.uleb128 0x5
 311 00cc B0000000 		.4byte	0xb0
 312 00d0 04       		.uleb128 0x4
 313 00d1 F1060000 		.4byte	.LASF18
 314 00d5 06       		.byte	0x6
 315 00d6 46       		.byte	0x46
 316 00d7 B0000000 		.4byte	0xb0
 317 00db 04       		.uleb128 0x4
 318 00dc 74070000 		.4byte	.LASF19
 319 00e0 06       		.byte	0x6
 320 00e1 49       		.byte	0x49
 321 00e2 9A000000 		.4byte	0x9a
 322 00e6 04       		.uleb128 0x4
 323 00e7 62010000 		.4byte	.LASF20
 324 00eb 06       		.byte	0x6
 325 00ec 4A       		.byte	0x4a
 326 00ed 9A000000 		.4byte	0x9a
 327 00f1 04       		.uleb128 0x4
 328 00f2 BE030000 		.4byte	.LASF21
 329 00f6 06       		.byte	0x6
 330 00f7 4B       		.byte	0x4b
 331 00f8 9A000000 		.4byte	0x9a
 332 00fc 04       		.uleb128 0x4
 333 00fd 09040000 		.4byte	.LASF22
 334 0101 06       		.byte	0x6
 335 0102 4D       		.byte	0x4d
 336 0103 B0000000 		.4byte	0xb0
 337 0107 04       		.uleb128 0x4
 338 0108 52020000 		.4byte	.LASF23
 339 010c 06       		.byte	0x6
 340 010d 4E       		.byte	0x4e
 341 010e A5000000 		.4byte	0xa5
 342 0112 04       		.uleb128 0x4
ARM GAS  /tmp/ccJZ6eb6.s 			page 7


 343 0113 A5020000 		.4byte	.LASF24
 344 0117 06       		.byte	0x6
 345 0118 50       		.byte	0x50
 346 0119 B0000000 		.4byte	0xb0
 347 011d 04       		.uleb128 0x4
 348 011e F9010000 		.4byte	.LASF25
 349 0122 06       		.byte	0x6
 350 0123 52       		.byte	0x52
 351 0124 A5000000 		.4byte	0xa5
 352 0128 04       		.uleb128 0x4
 353 0129 6C060000 		.4byte	.LASF26
 354 012d 07       		.byte	0x7
 355 012e 33       		.byte	0x33
 356 012f B0000000 		.4byte	0xb0
 357 0133 04       		.uleb128 0x4
 358 0134 5C060000 		.4byte	.LASF27
 359 0138 07       		.byte	0x7
 360 0139 3F       		.byte	0x3f
 361 013a 3E010000 		.4byte	0x13e
 362 013e 06       		.uleb128 0x6
 363 013f 3D020000 		.4byte	.LASF47
 364 0143 44       		.byte	0x44
 365 0144 08       		.byte	0x8
 366 0145 C2       		.byte	0xc2
 367 0146 2B020000 		.4byte	0x22b
 368 014a 07       		.uleb128 0x7
 369 014b 4A030000 		.4byte	.LASF28
 370 014f 08       		.byte	0x8
 371 0150 C3       		.byte	0xc3
 372 0151 36020000 		.4byte	0x236
 373 0155 00       		.byte	0
 374 0156 07       		.uleb128 0x7
 375 0157 F8030000 		.4byte	.LASF29
 376 015b 08       		.byte	0x8
 377 015c C5       		.byte	0xc5
 378 015d 36020000 		.4byte	0x236
 379 0161 04       		.byte	0x4
 380 0162 07       		.uleb128 0x7
 381 0163 E0000000 		.4byte	.LASF30
 382 0167 08       		.byte	0x8
 383 0168 C7       		.byte	0xc7
 384 0169 FC000000 		.4byte	0xfc
 385 016d 08       		.byte	0x8
 386 016e 07       		.uleb128 0x7
 387 016f 92070000 		.4byte	.LASF31
 388 0173 08       		.byte	0x8
 389 0174 C8       		.byte	0xc8
 390 0175 7A060000 		.4byte	0x67a
 391 0179 0C       		.byte	0xc
 392 017a 07       		.uleb128 0x7
 393 017b 7E010000 		.4byte	.LASF32
 394 017f 08       		.byte	0x8
 395 0180 CA       		.byte	0xca
 396 0181 36020000 		.4byte	0x236
 397 0185 10       		.byte	0x10
 398 0186 07       		.uleb128 0x7
 399 0187 70030000 		.4byte	.LASF33
ARM GAS  /tmp/ccJZ6eb6.s 			page 8


 400 018b 08       		.byte	0x8
 401 018c CB       		.byte	0xcb
 402 018d 36020000 		.4byte	0x236
 403 0191 14       		.byte	0x14
 404 0192 07       		.uleb128 0x7
 405 0193 60070000 		.4byte	.LASF34
 406 0197 08       		.byte	0x8
 407 0198 D2       		.byte	0xd2
 408 0199 1B090000 		.4byte	0x91b
 409 019d 18       		.byte	0x18
 410 019e 07       		.uleb128 0x7
 411 019f 71040000 		.4byte	.LASF35
 412 01a3 08       		.byte	0x8
 413 01a4 DD       		.byte	0xdd
 414 01a5 E6000000 		.4byte	0xe6
 415 01a9 1C       		.byte	0x1c
 416 01aa 07       		.uleb128 0x7
 417 01ab 6B050000 		.4byte	.LASF36
 418 01af 08       		.byte	0x8
 419 01b0 E1       		.byte	0xe1
 420 01b1 DB000000 		.4byte	0xdb
 421 01b5 1D       		.byte	0x1d
 422 01b6 07       		.uleb128 0x7
 423 01b7 35070000 		.4byte	.LASF37
 424 01bb 08       		.byte	0x8
 425 01bc E6       		.byte	0xe6
 426 01bd F1000000 		.4byte	0xf1
 427 01c1 1E       		.byte	0x1e
 428 01c2 08       		.uleb128 0x8
 429 01c3 705F7500 		.ascii	"p_u\000"
 430 01c7 08       		.byte	0x8
 431 01c8 3101     		.2byte	0x131
 432 01ca 56080000 		.4byte	0x856
 433 01ce 20       		.byte	0x20
 434 01cf 09       		.uleb128 0x9
 435 01d0 F9020000 		.4byte	.LASF38
 436 01d4 08       		.byte	0x8
 437 01d5 3601     		.2byte	0x136
 438 01d7 3C020000 		.4byte	0x23c
 439 01db 24       		.byte	0x24
 440 01dc 09       		.uleb128 0x9
 441 01dd 1B020000 		.4byte	.LASF39
 442 01e1 08       		.byte	0x8
 443 01e2 3C01     		.2byte	0x13c
 444 01e4 60020000 		.4byte	0x260
 445 01e8 28       		.byte	0x28
 446 01e9 09       		.uleb128 0x9
 447 01ea 84070000 		.4byte	.LASF40
 448 01ee 08       		.byte	0x8
 449 01ef 4001     		.2byte	0x140
 450 01f1 07010000 		.4byte	0x107
 451 01f5 30       		.byte	0x30
 452 01f6 09       		.uleb128 0x9
 453 01f7 51030000 		.4byte	.LASF41
 454 01fb 08       		.byte	0x8
 455 01fc 4601     		.2byte	0x146
 456 01fe 12010000 		.4byte	0x112
ARM GAS  /tmp/ccJZ6eb6.s 			page 9


 457 0202 34       		.byte	0x34
 458 0203 09       		.uleb128 0x9
 459 0204 5D040000 		.4byte	.LASF42
 460 0208 08       		.byte	0x8
 461 0209 4D01     		.2byte	0x14d
 462 020b 15090000 		.4byte	0x915
 463 020f 38       		.byte	0x38
 464 0210 09       		.uleb128 0x9
 465 0211 61020000 		.4byte	.LASF43
 466 0215 08       		.byte	0x8
 467 0216 5101     		.2byte	0x151
 468 0218 FC000000 		.4byte	0xfc
 469 021c 3C       		.byte	0x3c
 470 021d 09       		.uleb128 0x9
 471 021e A9010000 		.4byte	.LASF44
 472 0222 08       		.byte	0x8
 473 0223 5801     		.2byte	0x158
 474 0225 13030000 		.4byte	0x313
 475 0229 40       		.byte	0x40
 476 022a 00       		.byte	0
 477 022b 04       		.uleb128 0x4
 478 022c 0C030000 		.4byte	.LASF45
 479 0230 07       		.byte	0x7
 480 0231 44       		.byte	0x44
 481 0232 36020000 		.4byte	0x236
 482 0236 0A       		.uleb128 0xa
 483 0237 04       		.byte	0x4
 484 0238 33010000 		.4byte	0x133
 485 023c 04       		.uleb128 0x4
 486 023d DA020000 		.4byte	.LASF46
 487 0241 07       		.byte	0x7
 488 0242 49       		.byte	0x49
 489 0243 47020000 		.4byte	0x247
 490 0247 06       		.uleb128 0x6
 491 0248 12060000 		.4byte	.LASF48
 492 024c 04       		.byte	0x4
 493 024d 08       		.byte	0x8
 494 024e B0       		.byte	0xb0
 495 024f 60020000 		.4byte	0x260
 496 0253 07       		.uleb128 0x7
 497 0254 4A030000 		.4byte	.LASF28
 498 0258 08       		.byte	0x8
 499 0259 B1       		.byte	0xb1
 500 025a 36020000 		.4byte	0x236
 501 025e 00       		.byte	0
 502 025f 00       		.byte	0
 503 0260 04       		.uleb128 0x4
 504 0261 19070000 		.4byte	.LASF49
 505 0265 07       		.byte	0x7
 506 0266 50       		.byte	0x50
 507 0267 6B020000 		.4byte	0x26b
 508 026b 06       		.uleb128 0x6
 509 026c C5000000 		.4byte	.LASF50
 510 0270 08       		.byte	0x8
 511 0271 08       		.byte	0x8
 512 0272 B7       		.byte	0xb7
 513 0273 90020000 		.4byte	0x290
ARM GAS  /tmp/ccJZ6eb6.s 			page 10


 514 0277 07       		.uleb128 0x7
 515 0278 4A030000 		.4byte	.LASF28
 516 027c 08       		.byte	0x8
 517 027d B8       		.byte	0xb8
 518 027e 36020000 		.4byte	0x236
 519 0282 00       		.byte	0
 520 0283 07       		.uleb128 0x7
 521 0284 F8030000 		.4byte	.LASF29
 522 0288 08       		.byte	0x8
 523 0289 B9       		.byte	0xb9
 524 028a 36020000 		.4byte	0x236
 525 028e 04       		.byte	0x4
 526 028f 00       		.byte	0
 527 0290 04       		.uleb128 0x4
 528 0291 00000000 		.4byte	.LASF51
 529 0295 07       		.byte	0x7
 530 0296 57       		.byte	0x57
 531 0297 9B020000 		.4byte	0x29b
 532 029b 0B       		.uleb128 0xb
 533 029c 97020000 		.4byte	.LASF52
 534 02a0 1C       		.byte	0x1c
 535 02a1 08       		.byte	0x8
 536 02a2 9001     		.2byte	0x190
 537 02a4 F7020000 		.4byte	0x2f7
 538 02a8 09       		.uleb128 0x9
 539 02a9 42030000 		.4byte	.LASF53
 540 02ad 08       		.byte	0x8
 541 02ae 9101     		.2byte	0x191
 542 02b0 60020000 		.4byte	0x260
 543 02b4 00       		.byte	0
 544 02b5 09       		.uleb128 0x9
 545 02b6 83040000 		.4byte	.LASF54
 546 02ba 08       		.byte	0x8
 547 02bb 9201     		.2byte	0x192
 548 02bd FC000000 		.4byte	0xfc
 549 02c1 08       		.byte	0x8
 550 02c2 09       		.uleb128 0x9
 551 02c3 78030000 		.4byte	.LASF55
 552 02c7 08       		.byte	0x8
 553 02c8 9401     		.2byte	0x194
 554 02ca 7A060000 		.4byte	0x67a
 555 02ce 0C       		.byte	0xc
 556 02cf 09       		.uleb128 0x9
 557 02d0 A1010000 		.4byte	.LASF56
 558 02d4 08       		.byte	0x8
 559 02d5 9701     		.2byte	0x197
 560 02d7 36020000 		.4byte	0x236
 561 02db 10       		.byte	0x10
 562 02dc 09       		.uleb128 0x9
 563 02dd DD060000 		.4byte	.LASF57
 564 02e1 08       		.byte	0x8
 565 02e2 9801     		.2byte	0x198
 566 02e4 36020000 		.4byte	0x236
 567 02e8 14       		.byte	0x14
 568 02e9 09       		.uleb128 0x9
 569 02ea 99030000 		.4byte	.LASF58
 570 02ee 08       		.byte	0x8
ARM GAS  /tmp/ccJZ6eb6.s 			page 11


 571 02ef 9B01     		.2byte	0x19b
 572 02f1 36020000 		.4byte	0x236
 573 02f5 18       		.byte	0x18
 574 02f6 00       		.byte	0
 575 02f7 04       		.uleb128 0x4
 576 02f8 89060000 		.4byte	.LASF59
 577 02fc 07       		.byte	0x7
 578 02fd 5C       		.byte	0x5c
 579 02fe 02030000 		.4byte	0x302
 580 0302 0A       		.uleb128 0xa
 581 0303 04       		.byte	0x4
 582 0304 08030000 		.4byte	0x308
 583 0308 0C       		.uleb128 0xc
 584 0309 13030000 		.4byte	0x313
 585 030d 0D       		.uleb128 0xd
 586 030e 13030000 		.4byte	0x313
 587 0312 00       		.byte	0
 588 0313 0E       		.uleb128 0xe
 589 0314 04       		.byte	0x4
 590 0315 04       		.uleb128 0x4
 591 0316 E9020000 		.4byte	.LASF60
 592 031a 07       		.byte	0x7
 593 031b 61       		.byte	0x61
 594 031c 20030000 		.4byte	0x320
 595 0320 0B       		.uleb128 0xb
 596 0321 7B050000 		.4byte	.LASF61
 597 0325 14       		.byte	0x14
 598 0326 08       		.byte	0x8
 599 0327 6B01     		.2byte	0x16b
 600 0329 6F030000 		.4byte	0x36f
 601 032d 09       		.uleb128 0x9
 602 032e 0C020000 		.4byte	.LASF62
 603 0332 08       		.byte	0x8
 604 0333 6C01     		.2byte	0x16c
 605 0335 2D090000 		.4byte	0x92d
 606 0339 00       		.byte	0
 607 033a 09       		.uleb128 0x9
 608 033b BA010000 		.4byte	.LASF63
 609 033f 08       		.byte	0x8
 610 0340 6D01     		.2byte	0x16d
 611 0342 2D090000 		.4byte	0x92d
 612 0346 04       		.byte	0x4
 613 0347 09       		.uleb128 0x9
 614 0348 09060000 		.4byte	.LASF64
 615 034c 08       		.byte	0x8
 616 034d 6E01     		.2byte	0x16e
 617 034f 28010000 		.4byte	0x128
 618 0353 08       		.byte	0x8
 619 0354 09       		.uleb128 0x9
 620 0355 98070000 		.4byte	.LASF65
 621 0359 08       		.byte	0x8
 622 035a 6F01     		.2byte	0x16f
 623 035c F7020000 		.4byte	0x2f7
 624 0360 0C       		.byte	0xc
 625 0361 09       		.uleb128 0x9
 626 0362 0C070000 		.4byte	.LASF66
 627 0366 08       		.byte	0x8
ARM GAS  /tmp/ccJZ6eb6.s 			page 12


 628 0367 7101     		.2byte	0x171
 629 0369 13030000 		.4byte	0x313
 630 036d 10       		.byte	0x10
 631 036e 00       		.byte	0
 632 036f 04       		.uleb128 0x4
 633 0370 89000000 		.4byte	.LASF67
 634 0374 07       		.byte	0x7
 635 0375 66       		.byte	0x66
 636 0376 7A030000 		.4byte	0x37a
 637 037a 0B       		.uleb128 0xb
 638 037b 1F030000 		.4byte	.LASF68
 639 037f 10       		.byte	0x10
 640 0380 08       		.byte	0x8
 641 0381 7B01     		.2byte	0x17b
 642 0383 BC030000 		.4byte	0x3bc
 643 0387 09       		.uleb128 0x9
 644 0388 0C020000 		.4byte	.LASF62
 645 038c 08       		.byte	0x8
 646 038d 7C01     		.2byte	0x17c
 647 038f 2D090000 		.4byte	0x92d
 648 0393 00       		.byte	0
 649 0394 09       		.uleb128 0x9
 650 0395 BA010000 		.4byte	.LASF63
 651 0399 08       		.byte	0x8
 652 039a 7E01     		.2byte	0x17e
 653 039c 2D090000 		.4byte	0x92d
 654 03a0 04       		.byte	0x4
 655 03a1 09       		.uleb128 0x9
 656 03a2 09060000 		.4byte	.LASF64
 657 03a6 08       		.byte	0x8
 658 03a7 8001     		.2byte	0x180
 659 03a9 28010000 		.4byte	0x128
 660 03ad 08       		.byte	0x8
 661 03ae 09       		.uleb128 0x9
 662 03af 64030000 		.4byte	.LASF69
 663 03b3 08       		.byte	0x8
 664 03b4 8801     		.2byte	0x188
 665 03b6 28010000 		.4byte	0x128
 666 03ba 0C       		.byte	0xc
 667 03bb 00       		.byte	0
 668 03bc 04       		.uleb128 0x4
 669 03bd 3E000000 		.4byte	.LASF70
 670 03c1 07       		.byte	0x7
 671 03c2 6B       		.byte	0x6b
 672 03c3 C7030000 		.4byte	0x3c7
 673 03c7 0B       		.uleb128 0xb
 674 03c8 24040000 		.4byte	.LASF71
 675 03cc 04       		.byte	0x4
 676 03cd 08       		.byte	0x8
 677 03ce A201     		.2byte	0x1a2
 678 03d0 E2030000 		.4byte	0x3e2
 679 03d4 09       		.uleb128 0x9
 680 03d5 AB060000 		.4byte	.LASF72
 681 03d9 08       		.byte	0x8
 682 03da AA01     		.2byte	0x1aa
 683 03dc 33090000 		.4byte	0x933
 684 03e0 00       		.byte	0
ARM GAS  /tmp/ccJZ6eb6.s 			page 13


 685 03e1 00       		.byte	0
 686 03e2 04       		.uleb128 0x4
 687 03e3 E5060000 		.4byte	.LASF73
 688 03e7 07       		.byte	0x7
 689 03e8 70       		.byte	0x70
 690 03e9 ED030000 		.4byte	0x3ed
 691 03ed 0F       		.uleb128 0xf
 692 03ee 3C010000 		.4byte	.LASF74
 693 03f2 5001     		.2byte	0x150
 694 03f4 08       		.byte	0x8
 695 03f5 C201     		.2byte	0x1c2
 696 03f7 49040000 		.4byte	0x449
 697 03fb 09       		.uleb128 0x9
 698 03fc 41070000 		.4byte	.LASF75
 699 0400 08       		.byte	0x8
 700 0401 C601     		.2byte	0x1c6
 701 0403 90020000 		.4byte	0x290
 702 0407 00       		.byte	0
 703 0408 09       		.uleb128 0x9
 704 0409 C2010000 		.4byte	.LASF76
 705 040d 08       		.byte	0x8
 706 040e CA01     		.2byte	0x1ca
 707 0410 6F030000 		.4byte	0x36f
 708 0414 1C       		.byte	0x1c
 709 0415 08       		.uleb128 0x8
 710 0416 64626700 		.ascii	"dbg\000"
 711 041a 08       		.byte	0x8
 712 041b CE01     		.2byte	0x1ce
 713 041d BC030000 		.4byte	0x3bc
 714 0421 2C       		.byte	0x2c
 715 0422 09       		.uleb128 0x9
 716 0423 7E000000 		.4byte	.LASF77
 717 0427 08       		.byte	0x8
 718 0428 D201     		.2byte	0x1d2
 719 042a 33010000 		.4byte	0x133
 720 042e 30       		.byte	0x30
 721 042f 08       		.uleb128 0x8
 722 0430 746D00   		.ascii	"tm\000"
 723 0433 08       		.byte	0x8
 724 0434 D701     		.2byte	0x1d7
 725 0436 4B080000 		.4byte	0x84b
 726 043a 74       		.byte	0x74
 727 043b 09       		.uleb128 0x9
 728 043c EA010000 		.4byte	.LASF78
 729 0440 08       		.byte	0x8
 730 0441 E301     		.2byte	0x1e3
 731 0443 38090000 		.4byte	0x938
 732 0447 78       		.byte	0x78
 733 0448 00       		.byte	0
 734 0449 03       		.uleb128 0x3
 735 044a 04       		.byte	0x4
 736 044b 07       		.byte	0x7
 737 044c 03030000 		.4byte	.LASF79
 738 0450 10       		.uleb128 0x10
 739 0451 B0000000 		.4byte	0xb0
 740 0455 60040000 		.4byte	0x460
 741 0459 11       		.uleb128 0x11
ARM GAS  /tmp/ccJZ6eb6.s 			page 14


 742 045a 49040000 		.4byte	0x449
 743 045e 01       		.byte	0x1
 744 045f 00       		.byte	0
 745 0460 12       		.uleb128 0x12
 746 0461 10       		.byte	0x10
 747 0462 09       		.byte	0x9
 748 0463 4C01     		.2byte	0x14c
 749 0465 9D040000 		.4byte	0x49d
 750 0469 09       		.uleb128 0x9
 751 046a 6E000000 		.4byte	.LASF80
 752 046e 09       		.byte	0x9
 753 046f 4E01     		.2byte	0x14e
 754 0471 CB000000 		.4byte	0xcb
 755 0475 00       		.byte	0
 756 0476 08       		.uleb128 0x8
 757 0477 435200   		.ascii	"CR\000"
 758 047a 09       		.byte	0x9
 759 047b 4F01     		.2byte	0x14f
 760 047d CB000000 		.4byte	0xcb
 761 0481 04       		.byte	0x4
 762 0482 09       		.uleb128 0x9
 763 0483 B7030000 		.4byte	.LASF81
 764 0487 09       		.byte	0x9
 765 0488 5001     		.2byte	0x150
 766 048a CB000000 		.4byte	0xcb
 767 048e 08       		.byte	0x8
 768 048f 09       		.uleb128 0x9
 769 0490 6C020000 		.4byte	.LASF82
 770 0494 09       		.byte	0x9
 771 0495 5101     		.2byte	0x151
 772 0497 CB000000 		.4byte	0xcb
 773 049b 0C       		.byte	0xc
 774 049c 00       		.byte	0
 775 049d 13       		.uleb128 0x13
 776 049e 9E050000 		.4byte	.LASF83
 777 04a2 09       		.byte	0x9
 778 04a3 5201     		.2byte	0x152
 779 04a5 60040000 		.4byte	0x460
 780 04a9 10       		.uleb128 0x10
 781 04aa CB000000 		.4byte	0xcb
 782 04ae B9040000 		.4byte	0x4b9
 783 04b2 11       		.uleb128 0x11
 784 04b3 49040000 		.4byte	0x449
 785 04b7 01       		.byte	0x1
 786 04b8 00       		.byte	0
 787 04b9 10       		.uleb128 0x10
 788 04ba CB000000 		.4byte	0xcb
 789 04be C9040000 		.4byte	0x4c9
 790 04c2 11       		.uleb128 0x11
 791 04c3 49040000 		.4byte	0x449
 792 04c7 03       		.byte	0x3
 793 04c8 00       		.byte	0
 794 04c9 12       		.uleb128 0x12
 795 04ca 88       		.byte	0x88
 796 04cb 09       		.byte	0x9
 797 04cc 6702     		.2byte	0x267
 798 04ce 58060000 		.4byte	0x658
ARM GAS  /tmp/ccJZ6eb6.s 			page 15


 799 04d2 08       		.uleb128 0x8
 800 04d3 435200   		.ascii	"CR\000"
 801 04d6 09       		.byte	0x9
 802 04d7 6902     		.2byte	0x269
 803 04d9 CB000000 		.4byte	0xcb
 804 04dd 00       		.byte	0
 805 04de 09       		.uleb128 0x9
 806 04df 86010000 		.4byte	.LASF84
 807 04e3 09       		.byte	0x9
 808 04e4 6A02     		.2byte	0x26a
 809 04e6 CB000000 		.4byte	0xcb
 810 04ea 04       		.byte	0x4
 811 04eb 09       		.uleb128 0x9
 812 04ec 6F070000 		.4byte	.LASF85
 813 04f0 09       		.byte	0x9
 814 04f1 6B02     		.2byte	0x26b
 815 04f3 CB000000 		.4byte	0xcb
 816 04f7 08       		.byte	0x8
 817 04f8 08       		.uleb128 0x8
 818 04f9 43495200 		.ascii	"CIR\000"
 819 04fd 09       		.byte	0x9
 820 04fe 6C02     		.2byte	0x26c
 821 0500 CB000000 		.4byte	0xcb
 822 0504 0C       		.byte	0xc
 823 0505 09       		.uleb128 0x9
 824 0506 16010000 		.4byte	.LASF86
 825 050a 09       		.byte	0x9
 826 050b 6D02     		.2byte	0x26d
 827 050d CB000000 		.4byte	0xcb
 828 0511 10       		.byte	0x10
 829 0512 09       		.uleb128 0x9
 830 0513 3E060000 		.4byte	.LASF87
 831 0517 09       		.byte	0x9
 832 0518 6E02     		.2byte	0x26e
 833 051a CB000000 		.4byte	0xcb
 834 051e 14       		.byte	0x14
 835 051f 09       		.uleb128 0x9
 836 0520 58020000 		.4byte	.LASF88
 837 0524 09       		.byte	0x9
 838 0525 6F02     		.2byte	0x26f
 839 0527 CB000000 		.4byte	0xcb
 840 052b 18       		.byte	0x18
 841 052c 09       		.uleb128 0x9
 842 052d C6030000 		.4byte	.LASF89
 843 0531 09       		.byte	0x9
 844 0532 7002     		.2byte	0x270
 845 0534 B0000000 		.4byte	0xb0
 846 0538 1C       		.byte	0x1c
 847 0539 09       		.uleb128 0x9
 848 053a A3030000 		.4byte	.LASF90
 849 053e 09       		.byte	0x9
 850 053f 7102     		.2byte	0x271
 851 0541 CB000000 		.4byte	0xcb
 852 0545 20       		.byte	0x20
 853 0546 09       		.uleb128 0x9
 854 0547 4F010000 		.4byte	.LASF91
 855 054b 09       		.byte	0x9
ARM GAS  /tmp/ccJZ6eb6.s 			page 16


 856 054c 7202     		.2byte	0x272
 857 054e CB000000 		.4byte	0xcb
 858 0552 24       		.byte	0x24
 859 0553 09       		.uleb128 0x9
 860 0554 D0030000 		.4byte	.LASF92
 861 0558 09       		.byte	0x9
 862 0559 7302     		.2byte	0x273
 863 055b 50040000 		.4byte	0x450
 864 055f 28       		.byte	0x28
 865 0560 09       		.uleb128 0x9
 866 0561 67070000 		.4byte	.LASF93
 867 0565 09       		.byte	0x9
 868 0566 7402     		.2byte	0x274
 869 0568 CB000000 		.4byte	0xcb
 870 056c 30       		.byte	0x30
 871 056d 09       		.uleb128 0x9
 872 056e CD060000 		.4byte	.LASF94
 873 0572 09       		.byte	0x9
 874 0573 7502     		.2byte	0x275
 875 0575 CB000000 		.4byte	0xcb
 876 0579 34       		.byte	0x34
 877 057a 09       		.uleb128 0x9
 878 057b 5C030000 		.4byte	.LASF95
 879 057f 09       		.byte	0x9
 880 0580 7602     		.2byte	0x276
 881 0582 CB000000 		.4byte	0xcb
 882 0586 38       		.byte	0x38
 883 0587 09       		.uleb128 0x9
 884 0588 DA030000 		.4byte	.LASF96
 885 058c 09       		.byte	0x9
 886 058d 7702     		.2byte	0x277
 887 058f B0000000 		.4byte	0xb0
 888 0593 3C       		.byte	0x3c
 889 0594 09       		.uleb128 0x9
 890 0595 BC060000 		.4byte	.LASF97
 891 0599 09       		.byte	0x9
 892 059a 7802     		.2byte	0x278
 893 059c CB000000 		.4byte	0xcb
 894 05a0 40       		.byte	0x40
 895 05a1 09       		.uleb128 0x9
 896 05a2 73050000 		.4byte	.LASF98
 897 05a6 09       		.byte	0x9
 898 05a7 7902     		.2byte	0x279
 899 05a9 CB000000 		.4byte	0xcb
 900 05ad 44       		.byte	0x44
 901 05ae 09       		.uleb128 0x9
 902 05af E4030000 		.4byte	.LASF99
 903 05b3 09       		.byte	0x9
 904 05b4 7A02     		.2byte	0x27a
 905 05b6 50040000 		.4byte	0x450
 906 05ba 48       		.byte	0x48
 907 05bb 09       		.uleb128 0x9
 908 05bc D6000000 		.4byte	.LASF100
 909 05c0 09       		.byte	0x9
 910 05c1 7B02     		.2byte	0x27b
 911 05c3 CB000000 		.4byte	0xcb
 912 05c7 50       		.byte	0x50
ARM GAS  /tmp/ccJZ6eb6.s 			page 17


 913 05c8 09       		.uleb128 0x9
 914 05c9 7E030000 		.4byte	.LASF101
 915 05cd 09       		.byte	0x9
 916 05ce 7C02     		.2byte	0x27c
 917 05d0 CB000000 		.4byte	0xcb
 918 05d4 54       		.byte	0x54
 919 05d5 09       		.uleb128 0x9
 920 05d6 79040000 		.4byte	.LASF102
 921 05da 09       		.byte	0x9
 922 05db 7D02     		.2byte	0x27d
 923 05dd CB000000 		.4byte	0xcb
 924 05e1 58       		.byte	0x58
 925 05e2 09       		.uleb128 0x9
 926 05e3 EE030000 		.4byte	.LASF103
 927 05e7 09       		.byte	0x9
 928 05e8 7E02     		.2byte	0x27e
 929 05ea B0000000 		.4byte	0xb0
 930 05ee 5C       		.byte	0x5c
 931 05ef 09       		.uleb128 0x9
 932 05f0 58010000 		.4byte	.LASF104
 933 05f4 09       		.byte	0x9
 934 05f5 7F02     		.2byte	0x27f
 935 05f7 CB000000 		.4byte	0xcb
 936 05fb 60       		.byte	0x60
 937 05fc 09       		.uleb128 0x9
 938 05fd 8D020000 		.4byte	.LASF105
 939 0601 09       		.byte	0x9
 940 0602 8002     		.2byte	0x280
 941 0604 CB000000 		.4byte	0xcb
 942 0608 64       		.byte	0x64
 943 0609 09       		.uleb128 0x9
 944 060a AD050000 		.4byte	.LASF106
 945 060e 09       		.byte	0x9
 946 060f 8102     		.2byte	0x281
 947 0611 50040000 		.4byte	0x450
 948 0615 68       		.byte	0x68
 949 0616 09       		.uleb128 0x9
 950 0617 3C070000 		.4byte	.LASF107
 951 061b 09       		.byte	0x9
 952 061c 8202     		.2byte	0x282
 953 061e CB000000 		.4byte	0xcb
 954 0622 70       		.byte	0x70
 955 0623 08       		.uleb128 0x8
 956 0624 43535200 		.ascii	"CSR\000"
 957 0628 09       		.byte	0x9
 958 0629 8302     		.2byte	0x283
 959 062b CB000000 		.4byte	0xcb
 960 062f 74       		.byte	0x74
 961 0630 09       		.uleb128 0x9
 962 0631 FF030000 		.4byte	.LASF108
 963 0635 09       		.byte	0x9
 964 0636 8402     		.2byte	0x284
 965 0638 50040000 		.4byte	0x450
 966 063c 78       		.byte	0x78
 967 063d 09       		.uleb128 0x9
 968 063e 13070000 		.4byte	.LASF109
 969 0642 09       		.byte	0x9
ARM GAS  /tmp/ccJZ6eb6.s 			page 18


 970 0643 8502     		.2byte	0x285
 971 0645 CB000000 		.4byte	0xcb
 972 0649 80       		.byte	0x80
 973 064a 09       		.uleb128 0x9
 974 064b 47020000 		.4byte	.LASF110
 975 064f 09       		.byte	0x9
 976 0650 8602     		.2byte	0x286
 977 0652 CB000000 		.4byte	0xcb
 978 0656 84       		.byte	0x84
 979 0657 00       		.byte	0
 980 0658 13       		.uleb128 0x13
 981 0659 26020000 		.4byte	.LASF111
 982 065d 09       		.byte	0x9
 983 065e 8802     		.2byte	0x288
 984 0660 C9040000 		.4byte	0x4c9
 985 0664 04       		.uleb128 0x4
 986 0665 B1010000 		.4byte	.LASF112
 987 0669 0A       		.byte	0xa
 988 066a 65       		.byte	0x65
 989 066b 13030000 		.4byte	0x313
 990 066f 04       		.uleb128 0x4
 991 0670 BB020000 		.4byte	.LASF113
 992 0674 0A       		.byte	0xa
 993 0675 6D       		.byte	0x6d
 994 0676 BB000000 		.4byte	0xbb
 995 067a 06       		.uleb128 0x6
 996 067b D5060000 		.4byte	.LASF114
 997 067f 04       		.byte	0x4
 998 0680 0A       		.byte	0xa
 999 0681 89       		.byte	0x89
 1000 0682 93060000 		.4byte	0x693
 1001 0686 14       		.uleb128 0x14
 1002 0687 72313300 		.ascii	"r13\000"
 1003 068b 0A       		.byte	0xa
 1004 068c 8A       		.byte	0x8a
 1005 068d 0E070000 		.4byte	0x70e
 1006 0691 00       		.byte	0
 1007 0692 00       		.byte	0
 1008 0693 06       		.uleb128 0x6
 1009 0694 32000000 		.4byte	.LASF115
 1010 0698 24       		.byte	0x24
 1011 0699 0B       		.byte	0xb
 1012 069a F4       		.byte	0xf4
 1013 069b 0E070000 		.4byte	0x70e
 1014 069f 08       		.uleb128 0x8
 1015 06a0 723400   		.ascii	"r4\000"
 1016 06a3 0B       		.byte	0xb
 1017 06a4 0701     		.2byte	0x107
 1018 06a6 64060000 		.4byte	0x664
 1019 06aa 00       		.byte	0
 1020 06ab 08       		.uleb128 0x8
 1021 06ac 723500   		.ascii	"r5\000"
 1022 06af 0B       		.byte	0xb
 1023 06b0 0801     		.2byte	0x108
 1024 06b2 64060000 		.4byte	0x664
 1025 06b6 04       		.byte	0x4
 1026 06b7 08       		.uleb128 0x8
ARM GAS  /tmp/ccJZ6eb6.s 			page 19


 1027 06b8 723600   		.ascii	"r6\000"
 1028 06bb 0B       		.byte	0xb
 1029 06bc 0901     		.2byte	0x109
 1030 06be 64060000 		.4byte	0x664
 1031 06c2 08       		.byte	0x8
 1032 06c3 08       		.uleb128 0x8
 1033 06c4 723700   		.ascii	"r7\000"
 1034 06c7 0B       		.byte	0xb
 1035 06c8 0A01     		.2byte	0x10a
 1036 06ca 64060000 		.4byte	0x664
 1037 06ce 0C       		.byte	0xc
 1038 06cf 08       		.uleb128 0x8
 1039 06d0 723800   		.ascii	"r8\000"
 1040 06d3 0B       		.byte	0xb
 1041 06d4 0B01     		.2byte	0x10b
 1042 06d6 64060000 		.4byte	0x664
 1043 06da 10       		.byte	0x10
 1044 06db 08       		.uleb128 0x8
 1045 06dc 723900   		.ascii	"r9\000"
 1046 06df 0B       		.byte	0xb
 1047 06e0 0C01     		.2byte	0x10c
 1048 06e2 64060000 		.4byte	0x664
 1049 06e6 14       		.byte	0x14
 1050 06e7 08       		.uleb128 0x8
 1051 06e8 72313000 		.ascii	"r10\000"
 1052 06ec 0B       		.byte	0xb
 1053 06ed 0D01     		.2byte	0x10d
 1054 06ef 64060000 		.4byte	0x664
 1055 06f3 18       		.byte	0x18
 1056 06f4 08       		.uleb128 0x8
 1057 06f5 72313100 		.ascii	"r11\000"
 1058 06f9 0B       		.byte	0xb
 1059 06fa 0E01     		.2byte	0x10e
 1060 06fc 64060000 		.4byte	0x664
 1061 0700 1C       		.byte	0x1c
 1062 0701 08       		.uleb128 0x8
 1063 0702 6C7200   		.ascii	"lr\000"
 1064 0705 0B       		.byte	0xb
 1065 0706 0F01     		.2byte	0x10f
 1066 0708 64060000 		.4byte	0x664
 1067 070c 20       		.byte	0x20
 1068 070d 00       		.byte	0
 1069 070e 0A       		.uleb128 0xa
 1070 070f 04       		.byte	0x4
 1071 0710 93060000 		.4byte	0x693
 1072 0714 12       		.uleb128 0x12
 1073 0715 60       		.byte	0x60
 1074 0716 0C       		.byte	0xc
 1075 0717 9E01     		.2byte	0x19e
 1076 0719 20080000 		.4byte	0x820
 1077 071d 08       		.uleb128 0x8
 1078 071e 43523100 		.ascii	"CR1\000"
 1079 0722 0C       		.byte	0xc
 1080 0723 9F01     		.2byte	0x19f
 1081 0725 CB000000 		.4byte	0xcb
 1082 0729 00       		.byte	0
 1083 072a 08       		.uleb128 0x8
ARM GAS  /tmp/ccJZ6eb6.s 			page 20


 1084 072b 43523200 		.ascii	"CR2\000"
 1085 072f 0C       		.byte	0xc
 1086 0730 A001     		.2byte	0x1a0
 1087 0732 CB000000 		.4byte	0xcb
 1088 0736 04       		.byte	0x4
 1089 0737 09       		.uleb128 0x9
 1090 0738 38020000 		.4byte	.LASF116
 1091 073c 0C       		.byte	0xc
 1092 073d A101     		.2byte	0x1a1
 1093 073f CB000000 		.4byte	0xcb
 1094 0743 08       		.byte	0x8
 1095 0744 09       		.uleb128 0x9
 1096 0745 0D000000 		.4byte	.LASF117
 1097 0749 0C       		.byte	0xc
 1098 074a A201     		.2byte	0x1a2
 1099 074c CB000000 		.4byte	0xcb
 1100 0750 0C       		.byte	0xc
 1101 0751 08       		.uleb128 0x8
 1102 0752 535200   		.ascii	"SR\000"
 1103 0755 0C       		.byte	0xc
 1104 0756 A301     		.2byte	0x1a3
 1105 0758 CB000000 		.4byte	0xcb
 1106 075c 10       		.byte	0x10
 1107 075d 08       		.uleb128 0x8
 1108 075e 45475200 		.ascii	"EGR\000"
 1109 0762 0C       		.byte	0xc
 1110 0763 A401     		.2byte	0x1a4
 1111 0765 CB000000 		.4byte	0xcb
 1112 0769 14       		.byte	0x14
 1113 076a 09       		.uleb128 0x9
 1114 076b F8000000 		.4byte	.LASF118
 1115 076f 0C       		.byte	0xc
 1116 0770 A501     		.2byte	0x1a5
 1117 0772 CB000000 		.4byte	0xcb
 1118 0776 18       		.byte	0x18
 1119 0777 09       		.uleb128 0x9
 1120 0778 FE000000 		.4byte	.LASF119
 1121 077c 0C       		.byte	0xc
 1122 077d A601     		.2byte	0x1a6
 1123 077f CB000000 		.4byte	0xcb
 1124 0783 1C       		.byte	0x1c
 1125 0784 09       		.uleb128 0x9
 1126 0785 6B010000 		.4byte	.LASF120
 1127 0789 0C       		.byte	0xc
 1128 078a A701     		.2byte	0x1a7
 1129 078c CB000000 		.4byte	0xcb
 1130 0790 20       		.byte	0x20
 1131 0791 08       		.uleb128 0x8
 1132 0792 434E5400 		.ascii	"CNT\000"
 1133 0796 0C       		.byte	0xc
 1134 0797 A801     		.2byte	0x1a8
 1135 0799 CB000000 		.4byte	0xcb
 1136 079d 24       		.byte	0x24
 1137 079e 08       		.uleb128 0x8
 1138 079f 50534300 		.ascii	"PSC\000"
 1139 07a3 0C       		.byte	0xc
 1140 07a4 A901     		.2byte	0x1a9
ARM GAS  /tmp/ccJZ6eb6.s 			page 21


 1141 07a6 CB000000 		.4byte	0xcb
 1142 07aa 28       		.byte	0x28
 1143 07ab 08       		.uleb128 0x8
 1144 07ac 41525200 		.ascii	"ARR\000"
 1145 07b0 0C       		.byte	0xc
 1146 07b1 AA01     		.2byte	0x1aa
 1147 07b3 CB000000 		.4byte	0xcb
 1148 07b7 2C       		.byte	0x2c
 1149 07b8 08       		.uleb128 0x8
 1150 07b9 52435200 		.ascii	"RCR\000"
 1151 07bd 0C       		.byte	0xc
 1152 07be AB01     		.2byte	0x1ab
 1153 07c0 CB000000 		.4byte	0xcb
 1154 07c4 30       		.byte	0x30
 1155 07c5 08       		.uleb128 0x8
 1156 07c6 43435200 		.ascii	"CCR\000"
 1157 07ca 0C       		.byte	0xc
 1158 07cb AC01     		.2byte	0x1ac
 1159 07cd 20080000 		.4byte	0x820
 1160 07d1 34       		.byte	0x34
 1161 07d2 09       		.uleb128 0x9
 1162 07d3 C0000000 		.4byte	.LASF121
 1163 07d7 0C       		.byte	0xc
 1164 07d8 AD01     		.2byte	0x1ad
 1165 07da CB000000 		.4byte	0xcb
 1166 07de 44       		.byte	0x44
 1167 07df 08       		.uleb128 0x8
 1168 07e0 44435200 		.ascii	"DCR\000"
 1169 07e4 0C       		.byte	0xc
 1170 07e5 AE01     		.2byte	0x1ae
 1171 07e7 CB000000 		.4byte	0xcb
 1172 07eb 48       		.byte	0x48
 1173 07ec 09       		.uleb128 0x9
 1174 07ed 39060000 		.4byte	.LASF122
 1175 07f1 0C       		.byte	0xc
 1176 07f2 AF01     		.2byte	0x1af
 1177 07f4 CB000000 		.4byte	0xcb
 1178 07f8 4C       		.byte	0x4c
 1179 07f9 08       		.uleb128 0x8
 1180 07fa 4F5200   		.ascii	"OR\000"
 1181 07fd 0C       		.byte	0xc
 1182 07fe B001     		.2byte	0x1b0
 1183 0800 CB000000 		.4byte	0xcb
 1184 0804 50       		.byte	0x50
 1185 0805 09       		.uleb128 0x9
 1186 0806 04010000 		.4byte	.LASF123
 1187 080a 0C       		.byte	0xc
 1188 080b B101     		.2byte	0x1b1
 1189 080d CB000000 		.4byte	0xcb
 1190 0811 54       		.byte	0x54
 1191 0812 09       		.uleb128 0x9
 1192 0813 99050000 		.4byte	.LASF124
 1193 0817 0C       		.byte	0xc
 1194 0818 B201     		.2byte	0x1b2
 1195 081a 25080000 		.4byte	0x825
 1196 081e 58       		.byte	0x58
 1197 081f 00       		.byte	0
ARM GAS  /tmp/ccJZ6eb6.s 			page 22


 1198 0820 05       		.uleb128 0x5
 1199 0821 B9040000 		.4byte	0x4b9
 1200 0825 05       		.uleb128 0x5
 1201 0826 A9040000 		.4byte	0x4a9
 1202 082a 13       		.uleb128 0x13
 1203 082b 29070000 		.4byte	.LASF125
 1204 082f 0C       		.byte	0xc
 1205 0830 B301     		.2byte	0x1b3
 1206 0832 14070000 		.4byte	0x714
 1207 0836 15       		.uleb128 0x15
 1208 0837 04       		.byte	0x4
 1209 0838 0D       		.byte	0xd
 1210 0839 38       		.byte	0x38
 1211 083a 4B080000 		.4byte	0x84b
 1212 083e 07       		.uleb128 0x7
 1213 083f B5060000 		.4byte	.LASF126
 1214 0843 0D       		.byte	0xd
 1215 0844 3C       		.byte	0x3c
 1216 0845 D0000000 		.4byte	0xd0
 1217 0849 00       		.byte	0
 1218 084a 00       		.byte	0
 1219 084b 04       		.uleb128 0x4
 1220 084c 88030000 		.4byte	.LASF127
 1221 0850 0D       		.byte	0xd
 1222 0851 3D       		.byte	0x3d
 1223 0852 36080000 		.4byte	0x836
 1224 0856 16       		.uleb128 0x16
 1225 0857 04       		.byte	0x4
 1226 0858 08       		.byte	0x8
 1227 0859 FA       		.byte	0xfa
 1228 085a B3080000 		.4byte	0x8b3
 1229 085e 17       		.uleb128 0x17
 1230 085f 18000000 		.4byte	.LASF128
 1231 0863 08       		.byte	0x8
 1232 0864 0101     		.2byte	0x101
 1233 0866 07010000 		.4byte	0x107
 1234 086a 17       		.uleb128 0x17
 1235 086b 75000000 		.4byte	.LASF129
 1236 086f 08       		.byte	0x8
 1237 0870 0801     		.2byte	0x108
 1238 0872 07010000 		.4byte	0x107
 1239 0876 17       		.uleb128 0x17
 1240 0877 86020000 		.4byte	.LASF130
 1241 087b 08       		.byte	0x8
 1242 087c 0F01     		.2byte	0x10f
 1243 087e 13030000 		.4byte	0x313
 1244 0882 17       		.uleb128 0x17
 1245 0883 12000000 		.4byte	.LASF131
 1246 0887 08       		.byte	0x8
 1247 0888 1601     		.2byte	0x116
 1248 088a B3080000 		.4byte	0x8b3
 1249 088e 17       		.uleb128 0x17
 1250 088f 14020000 		.4byte	.LASF132
 1251 0893 08       		.byte	0x8
 1252 0894 1E01     		.2byte	0x11e
 1253 0896 DE080000 		.4byte	0x8de
 1254 089a 17       		.uleb128 0x17
ARM GAS  /tmp/ccJZ6eb6.s 			page 23


 1255 089b C0050000 		.4byte	.LASF133
 1256 089f 08       		.byte	0x8
 1257 08a0 2701     		.2byte	0x127
 1258 08a2 15090000 		.4byte	0x915
 1259 08a6 17       		.uleb128 0x17
 1260 08a7 64050000 		.4byte	.LASF134
 1261 08ab 08       		.byte	0x8
 1262 08ac 2F01     		.2byte	0x12f
 1263 08ae 12010000 		.4byte	0x112
 1264 08b2 00       		.byte	0
 1265 08b3 0A       		.uleb128 0xa
 1266 08b4 04       		.byte	0x4
 1267 08b5 2B020000 		.4byte	0x22b
 1268 08b9 06       		.uleb128 0x6
 1269 08ba 8C050000 		.4byte	.LASF135
 1270 08be 0C       		.byte	0xc
 1271 08bf 0E       		.byte	0xe
 1272 08c0 34       		.byte	0x34
 1273 08c1 DE080000 		.4byte	0x8de
 1274 08c5 07       		.uleb128 0x7
 1275 08c6 7C070000 		.4byte	.LASF136
 1276 08ca 0E       		.byte	0xe
 1277 08cb 35       		.byte	0x35
 1278 08cc 60020000 		.4byte	0x260
 1279 08d0 00       		.byte	0
 1280 08d1 07       		.uleb128 0x7
 1281 08d2 32020000 		.4byte	.LASF137
 1282 08d6 0E       		.byte	0xe
 1283 08d7 37       		.byte	0x37
 1284 08d8 1D010000 		.4byte	0x11d
 1285 08dc 08       		.byte	0x8
 1286 08dd 00       		.byte	0
 1287 08de 0A       		.uleb128 0xa
 1288 08df 04       		.byte	0x4
 1289 08e0 B9080000 		.4byte	0x8b9
 1290 08e4 06       		.uleb128 0x6
 1291 08e5 C4060000 		.4byte	.LASF138
 1292 08e9 10       		.byte	0x10
 1293 08ea 0F       		.byte	0xf
 1294 08eb 39       		.byte	0x39
 1295 08ec 15090000 		.4byte	0x915
 1296 08f0 07       		.uleb128 0x7
 1297 08f1 1F010000 		.4byte	.LASF139
 1298 08f5 0F       		.byte	0xf
 1299 08f6 3A       		.byte	0x3a
 1300 08f7 60020000 		.4byte	0x260
 1301 08fb 00       		.byte	0
 1302 08fc 07       		.uleb128 0x7
 1303 08fd 8A070000 		.4byte	.LASF140
 1304 0901 0F       		.byte	0xf
 1305 0902 3C       		.byte	0x3c
 1306 0903 36020000 		.4byte	0x236
 1307 0907 08       		.byte	0x8
 1308 0908 07       		.uleb128 0x7
 1309 0909 65060000 		.4byte	.LASF141
 1310 090d 0F       		.byte	0xf
 1311 090e 3E       		.byte	0x3e
ARM GAS  /tmp/ccJZ6eb6.s 			page 24


 1312 090f 53090000 		.4byte	0x953
 1313 0913 0C       		.byte	0xc
 1314 0914 00       		.byte	0
 1315 0915 0A       		.uleb128 0xa
 1316 0916 04       		.byte	0x4
 1317 0917 E4080000 		.4byte	0x8e4
 1318 091b 0A       		.uleb128 0xa
 1319 091c 04       		.byte	0x4
 1320 091d 28090000 		.4byte	0x928
 1321 0921 03       		.uleb128 0x3
 1322 0922 01       		.byte	0x1
 1323 0923 08       		.byte	0x8
 1324 0924 34060000 		.4byte	.LASF142
 1325 0928 18       		.uleb128 0x18
 1326 0929 21090000 		.4byte	0x921
 1327 092d 0A       		.uleb128 0xa
 1328 092e 04       		.byte	0x4
 1329 092f 15030000 		.4byte	0x315
 1330 0933 05       		.uleb128 0x5
 1331 0934 1B090000 		.4byte	0x91b
 1332 0938 10       		.uleb128 0x10
 1333 0939 6F060000 		.4byte	0x66f
 1334 093d 48090000 		.4byte	0x948
 1335 0941 11       		.uleb128 0x11
 1336 0942 49040000 		.4byte	0x449
 1337 0946 1A       		.byte	0x1a
 1338 0947 00       		.byte	0
 1339 0948 04       		.uleb128 0x4
 1340 0949 DC010000 		.4byte	.LASF143
 1341 094d 0F       		.byte	0xf
 1342 094e 34       		.byte	0x34
 1343 094f E4080000 		.4byte	0x8e4
 1344 0953 0A       		.uleb128 0xa
 1345 0954 04       		.byte	0x4
 1346 0955 48090000 		.4byte	0x948
 1347 0959 03       		.uleb128 0x3
 1348 095a 01       		.byte	0x1
 1349 095b 02       		.byte	0x2
 1350 095c 34040000 		.4byte	.LASF144
 1351 0960 19       		.uleb128 0x19
 1352 0961 9D060000 		.4byte	.LASF162
 1353 0965 02       		.byte	0x2
 1354 0966 2002     		.2byte	0x220
 1355 0968 03       		.byte	0x3
 1356 0969 7A090000 		.4byte	0x97a
 1357 096d 1A       		.uleb128 0x1a
 1358 096e E4010000 		.4byte	.LASF163
 1359 0972 02       		.byte	0x2
 1360 0973 2002     		.2byte	0x220
 1361 0975 B0000000 		.4byte	0xb0
 1362 0979 00       		.byte	0
 1363 097a 1B       		.uleb128 0x1b
 1364 097b 4D000000 		.4byte	.LASF145
 1365 097f 0B       		.byte	0xb
 1366 0980 BC01     		.2byte	0x1bc
 1367 0982 03       		.byte	0x3
 1368 0983 1B       		.uleb128 0x1b
ARM GAS  /tmp/ccJZ6eb6.s 			page 25


 1369 0984 30010000 		.4byte	.LASF146
 1370 0988 0B       		.byte	0xb
 1371 0989 CA01     		.2byte	0x1ca
 1372 098b 03       		.byte	0x3
 1373 098c 1B       		.uleb128 0x1b
 1374 098d F9060000 		.4byte	.LASF147
 1375 0991 0B       		.byte	0xb
 1376 0992 D901     		.2byte	0x1d9
 1377 0994 03       		.byte	0x3
 1378 0995 1B       		.uleb128 0x1b
 1379 0996 47060000 		.4byte	.LASF148
 1380 099a 0B       		.byte	0xb
 1381 099b E401     		.2byte	0x1e4
 1382 099d 03       		.byte	0x3
 1383 099e 1B       		.uleb128 0x1b
 1384 099f 4F070000 		.4byte	.LASF149
 1385 09a3 10       		.byte	0x10
 1386 09a4 8201     		.2byte	0x182
 1387 09a6 03       		.byte	0x3
 1388 09a7 1B       		.uleb128 0x1b
 1389 09a8 11040000 		.4byte	.LASF150
 1390 09ac 10       		.byte	0x10
 1391 09ad 9601     		.2byte	0x196
 1392 09af 03       		.byte	0x3
 1393 09b0 1B       		.uleb128 0x1b
 1394 09b1 9F000000 		.4byte	.LASF151
 1395 09b5 03       		.byte	0x3
 1396 09b6 DE01     		.2byte	0x1de
 1397 09b8 03       		.byte	0x3
 1398 09b9 1B       		.uleb128 0x1b
 1399 09ba C6020000 		.4byte	.LASF152
 1400 09be 03       		.byte	0x3
 1401 09bf 1902     		.2byte	0x219
 1402 09c1 03       		.byte	0x3
 1403 09c2 1B       		.uleb128 0x1b
 1404 09c3 C9010000 		.4byte	.LASF153
 1405 09c7 03       		.byte	0x3
 1406 09c8 D301     		.2byte	0x1d3
 1407 09ca 03       		.byte	0x3
 1408 09cb 1C       		.uleb128 0x1c
 1409 09cc 27010000 		.4byte	.LASF154
 1410 09d0 01       		.byte	0x1
 1411 09d1 AD       		.byte	0xad
 1412 09d2 00000000 		.4byte	.LFB258
 1413 09d6 2A000000 		.4byte	.LFE258-.LFB258
 1414 09da 01       		.uleb128 0x1
 1415 09db 9C       		.byte	0x9c
 1416 09dc D20A0000 		.4byte	0xad2
 1417 09e0 1D       		.uleb128 0x1d
 1418 09e1 C2090000 		.4byte	0x9c2
 1419 09e5 14000000 		.4byte	.LBB52
 1420 09e9 06000000 		.4byte	.LBE52-.LBB52
 1421 09ed 01       		.byte	0x1
 1422 09ee B7       		.byte	0xb7
 1423 09ef 410A0000 		.4byte	0xa41
 1424 09f3 1E       		.uleb128 0x1e
 1425 09f4 9E090000 		.4byte	0x99e
ARM GAS  /tmp/ccJZ6eb6.s 			page 26


 1426 09f8 14000000 		.4byte	.LBB53
 1427 09fc 06000000 		.4byte	.LBE53-.LBB53
 1428 0a00 03       		.byte	0x3
 1429 0a01 D501     		.2byte	0x1d5
 1430 0a03 1E       		.uleb128 0x1e
 1431 0a04 8C090000 		.4byte	0x98c
 1432 0a08 14000000 		.4byte	.LBB54
 1433 0a0c 06000000 		.4byte	.LBE54-.LBB54
 1434 0a10 10       		.byte	0x10
 1435 0a11 8401     		.2byte	0x184
 1436 0a13 1E       		.uleb128 0x1e
 1437 0a14 7A090000 		.4byte	0x97a
 1438 0a18 14000000 		.4byte	.LBB55
 1439 0a1c 06000000 		.4byte	.LBE55-.LBB55
 1440 0a20 0B       		.byte	0xb
 1441 0a21 DB01     		.2byte	0x1db
 1442 0a23 1E       		.uleb128 0x1e
 1443 0a24 60090000 		.4byte	0x960
 1444 0a28 14000000 		.4byte	.LBB56
 1445 0a2c 06000000 		.4byte	.LBE56-.LBB56
 1446 0a30 0B       		.byte	0xb
 1447 0a31 BF01     		.2byte	0x1bf
 1448 0a33 1F       		.uleb128 0x1f
 1449 0a34 6D090000 		.4byte	0x96d
 1450 0a38 00000000 		.4byte	.LLST0
 1451 0a3c 00       		.byte	0
 1452 0a3d 00       		.byte	0
 1453 0a3e 00       		.byte	0
 1454 0a3f 00       		.byte	0
 1455 0a40 00       		.byte	0
 1456 0a41 1D       		.uleb128 0x1d
 1457 0a42 B9090000 		.4byte	0x9b9
 1458 0a46 1A000000 		.4byte	.LBB58
 1459 0a4a 04000000 		.4byte	.LBE58-.LBB58
 1460 0a4e 01       		.byte	0x1
 1461 0a4f B8       		.byte	0xb8
 1462 0a50 5E0A0000 		.4byte	0xa5e
 1463 0a54 20       		.uleb128 0x20
 1464 0a55 1E000000 		.4byte	.LVL3
 1465 0a59 130B0000 		.4byte	0xb13
 1466 0a5d 00       		.byte	0
 1467 0a5e 1D       		.uleb128 0x1d
 1468 0a5f B0090000 		.4byte	0x9b0
 1469 0a63 1E000000 		.4byte	.LBB60
 1470 0a67 04000000 		.4byte	.LBE60-.LBB60
 1471 0a6b 01       		.byte	0x1
 1472 0a6c B9       		.byte	0xb9
 1473 0a6d BF0A0000 		.4byte	0xabf
 1474 0a71 1E       		.uleb128 0x1e
 1475 0a72 A7090000 		.4byte	0x9a7
 1476 0a76 1E000000 		.4byte	.LBB61
 1477 0a7a 04000000 		.4byte	.LBE61-.LBB61
 1478 0a7e 03       		.byte	0x3
 1479 0a7f E001     		.2byte	0x1e0
 1480 0a81 1E       		.uleb128 0x1e
 1481 0a82 95090000 		.4byte	0x995
 1482 0a86 1E000000 		.4byte	.LBB62
ARM GAS  /tmp/ccJZ6eb6.s 			page 27


 1483 0a8a 04000000 		.4byte	.LBE62-.LBB62
 1484 0a8e 10       		.byte	0x10
 1485 0a8f 9A01     		.2byte	0x19a
 1486 0a91 1E       		.uleb128 0x1e
 1487 0a92 83090000 		.4byte	0x983
 1488 0a96 1E000000 		.4byte	.LBB63
 1489 0a9a 04000000 		.4byte	.LBE63-.LBB63
 1490 0a9e 0B       		.byte	0xb
 1491 0a9f E601     		.2byte	0x1e6
 1492 0aa1 1E       		.uleb128 0x1e
 1493 0aa2 60090000 		.4byte	0x960
 1494 0aa6 1E000000 		.4byte	.LBB64
 1495 0aaa 04000000 		.4byte	.LBE64-.LBB64
 1496 0aae 0B       		.byte	0xb
 1497 0aaf CD01     		.2byte	0x1cd
 1498 0ab1 1F       		.uleb128 0x1f
 1499 0ab2 6D090000 		.4byte	0x96d
 1500 0ab6 15000000 		.4byte	.LLST1
 1501 0aba 00       		.byte	0
 1502 0abb 00       		.byte	0
 1503 0abc 00       		.byte	0
 1504 0abd 00       		.byte	0
 1505 0abe 00       		.byte	0
 1506 0abf 21       		.uleb128 0x21
 1507 0ac0 0E000000 		.4byte	.LVL0
 1508 0ac4 1F0B0000 		.4byte	0xb1f
 1509 0ac8 21       		.uleb128 0x21
 1510 0ac9 2A000000 		.4byte	.LVL5
 1511 0acd 1F0B0000 		.4byte	0xb1f
 1512 0ad1 00       		.byte	0
 1513 0ad2 1C       		.uleb128 0x1c
 1514 0ad3 B4000000 		.4byte	.LASF155
 1515 0ad7 01       		.byte	0x1
 1516 0ad8 C9       		.byte	0xc9
 1517 0ad9 00000000 		.4byte	.LFB259
 1518 0add 48000000 		.4byte	.LFE259-.LFB259
 1519 0ae1 01       		.uleb128 0x1
 1520 0ae2 9C       		.byte	0x9c
 1521 0ae3 FC0A0000 		.4byte	0xafc
 1522 0ae7 22       		.uleb128 0x22
 1523 0ae8 40000000 		.4byte	.LVL6
 1524 0aec 2B0B0000 		.4byte	0xb2b
 1525 0af0 23       		.uleb128 0x23
 1526 0af1 01       		.uleb128 0x1
 1527 0af2 50       		.byte	0x50
 1528 0af3 01       		.uleb128 0x1
 1529 0af4 4C       		.byte	0x4c
 1530 0af5 23       		.uleb128 0x23
 1531 0af6 01       		.uleb128 0x1
 1532 0af7 51       		.byte	0x51
 1533 0af8 01       		.uleb128 0x1
 1534 0af9 38       		.byte	0x38
 1535 0afa 00       		.byte	0
 1536 0afb 00       		.byte	0
 1537 0afc 24       		.uleb128 0x24
 1538 0afd 50040000 		.4byte	.LASF156
 1539 0b01 12       		.byte	0x12
ARM GAS  /tmp/ccJZ6eb6.s 			page 28


 1540 0b02 A706     		.2byte	0x6a7
 1541 0b04 C6000000 		.4byte	0xc6
 1542 0b08 25       		.uleb128 0x25
 1543 0b09 636800   		.ascii	"ch\000"
 1544 0b0c 08       		.byte	0x8
 1545 0b0d 0902     		.2byte	0x209
 1546 0b0f E2030000 		.4byte	0x3e2
 1547 0b13 26       		.uleb128 0x26
 1548 0b14 76060000 		.4byte	.LASF157
 1549 0b18 76060000 		.4byte	.LASF157
 1550 0b1c 10       		.byte	0x10
 1551 0b1d 1801     		.2byte	0x118
 1552 0b1f 26       		.uleb128 0x26
 1553 0b20 73020000 		.4byte	.LASF158
 1554 0b24 73020000 		.4byte	.LASF158
 1555 0b28 0B       		.byte	0xb
 1556 0b29 6601     		.2byte	0x166
 1557 0b2b 27       		.uleb128 0x27
 1558 0b2c E7000000 		.4byte	.LASF159
 1559 0b30 E7000000 		.4byte	.LASF159
 1560 0b34 11       		.byte	0x11
 1561 0b35 4E       		.byte	0x4e
 1562 0b36 00       		.byte	0
 1563              		.section	.debug_abbrev,"",%progbits
 1564              	.Ldebug_abbrev0:
 1565 0000 01       		.uleb128 0x1
 1566 0001 11       		.uleb128 0x11
 1567 0002 01       		.byte	0x1
 1568 0003 25       		.uleb128 0x25
 1569 0004 0E       		.uleb128 0xe
 1570 0005 13       		.uleb128 0x13
 1571 0006 0B       		.uleb128 0xb
 1572 0007 03       		.uleb128 0x3
 1573 0008 0E       		.uleb128 0xe
 1574 0009 55       		.uleb128 0x55
 1575 000a 17       		.uleb128 0x17
 1576 000b 11       		.uleb128 0x11
 1577 000c 01       		.uleb128 0x1
 1578 000d 10       		.uleb128 0x10
 1579 000e 17       		.uleb128 0x17
 1580 000f 00       		.byte	0
 1581 0010 00       		.byte	0
 1582 0011 02       		.uleb128 0x2
 1583 0012 24       		.uleb128 0x24
 1584 0013 00       		.byte	0
 1585 0014 0B       		.uleb128 0xb
 1586 0015 0B       		.uleb128 0xb
 1587 0016 3E       		.uleb128 0x3e
 1588 0017 0B       		.uleb128 0xb
 1589 0018 03       		.uleb128 0x3
 1590 0019 08       		.uleb128 0x8
 1591 001a 00       		.byte	0
 1592 001b 00       		.byte	0
 1593 001c 03       		.uleb128 0x3
 1594 001d 24       		.uleb128 0x24
 1595 001e 00       		.byte	0
 1596 001f 0B       		.uleb128 0xb
ARM GAS  /tmp/ccJZ6eb6.s 			page 29


 1597 0020 0B       		.uleb128 0xb
 1598 0021 3E       		.uleb128 0x3e
 1599 0022 0B       		.uleb128 0xb
 1600 0023 03       		.uleb128 0x3
 1601 0024 0E       		.uleb128 0xe
 1602 0025 00       		.byte	0
 1603 0026 00       		.byte	0
 1604 0027 04       		.uleb128 0x4
 1605 0028 16       		.uleb128 0x16
 1606 0029 00       		.byte	0
 1607 002a 03       		.uleb128 0x3
 1608 002b 0E       		.uleb128 0xe
 1609 002c 3A       		.uleb128 0x3a
 1610 002d 0B       		.uleb128 0xb
 1611 002e 3B       		.uleb128 0x3b
 1612 002f 0B       		.uleb128 0xb
 1613 0030 49       		.uleb128 0x49
 1614 0031 13       		.uleb128 0x13
 1615 0032 00       		.byte	0
 1616 0033 00       		.byte	0
 1617 0034 05       		.uleb128 0x5
 1618 0035 35       		.uleb128 0x35
 1619 0036 00       		.byte	0
 1620 0037 49       		.uleb128 0x49
 1621 0038 13       		.uleb128 0x13
 1622 0039 00       		.byte	0
 1623 003a 00       		.byte	0
 1624 003b 06       		.uleb128 0x6
 1625 003c 13       		.uleb128 0x13
 1626 003d 01       		.byte	0x1
 1627 003e 03       		.uleb128 0x3
 1628 003f 0E       		.uleb128 0xe
 1629 0040 0B       		.uleb128 0xb
 1630 0041 0B       		.uleb128 0xb
 1631 0042 3A       		.uleb128 0x3a
 1632 0043 0B       		.uleb128 0xb
 1633 0044 3B       		.uleb128 0x3b
 1634 0045 0B       		.uleb128 0xb
 1635 0046 01       		.uleb128 0x1
 1636 0047 13       		.uleb128 0x13
 1637 0048 00       		.byte	0
 1638 0049 00       		.byte	0
 1639 004a 07       		.uleb128 0x7
 1640 004b 0D       		.uleb128 0xd
 1641 004c 00       		.byte	0
 1642 004d 03       		.uleb128 0x3
 1643 004e 0E       		.uleb128 0xe
 1644 004f 3A       		.uleb128 0x3a
 1645 0050 0B       		.uleb128 0xb
 1646 0051 3B       		.uleb128 0x3b
 1647 0052 0B       		.uleb128 0xb
 1648 0053 49       		.uleb128 0x49
 1649 0054 13       		.uleb128 0x13
 1650 0055 38       		.uleb128 0x38
 1651 0056 0B       		.uleb128 0xb
 1652 0057 00       		.byte	0
 1653 0058 00       		.byte	0
ARM GAS  /tmp/ccJZ6eb6.s 			page 30


 1654 0059 08       		.uleb128 0x8
 1655 005a 0D       		.uleb128 0xd
 1656 005b 00       		.byte	0
 1657 005c 03       		.uleb128 0x3
 1658 005d 08       		.uleb128 0x8
 1659 005e 3A       		.uleb128 0x3a
 1660 005f 0B       		.uleb128 0xb
 1661 0060 3B       		.uleb128 0x3b
 1662 0061 05       		.uleb128 0x5
 1663 0062 49       		.uleb128 0x49
 1664 0063 13       		.uleb128 0x13
 1665 0064 38       		.uleb128 0x38
 1666 0065 0B       		.uleb128 0xb
 1667 0066 00       		.byte	0
 1668 0067 00       		.byte	0
 1669 0068 09       		.uleb128 0x9
 1670 0069 0D       		.uleb128 0xd
 1671 006a 00       		.byte	0
 1672 006b 03       		.uleb128 0x3
 1673 006c 0E       		.uleb128 0xe
 1674 006d 3A       		.uleb128 0x3a
 1675 006e 0B       		.uleb128 0xb
 1676 006f 3B       		.uleb128 0x3b
 1677 0070 05       		.uleb128 0x5
 1678 0071 49       		.uleb128 0x49
 1679 0072 13       		.uleb128 0x13
 1680 0073 38       		.uleb128 0x38
 1681 0074 0B       		.uleb128 0xb
 1682 0075 00       		.byte	0
 1683 0076 00       		.byte	0
 1684 0077 0A       		.uleb128 0xa
 1685 0078 0F       		.uleb128 0xf
 1686 0079 00       		.byte	0
 1687 007a 0B       		.uleb128 0xb
 1688 007b 0B       		.uleb128 0xb
 1689 007c 49       		.uleb128 0x49
 1690 007d 13       		.uleb128 0x13
 1691 007e 00       		.byte	0
 1692 007f 00       		.byte	0
 1693 0080 0B       		.uleb128 0xb
 1694 0081 13       		.uleb128 0x13
 1695 0082 01       		.byte	0x1
 1696 0083 03       		.uleb128 0x3
 1697 0084 0E       		.uleb128 0xe
 1698 0085 0B       		.uleb128 0xb
 1699 0086 0B       		.uleb128 0xb
 1700 0087 3A       		.uleb128 0x3a
 1701 0088 0B       		.uleb128 0xb
 1702 0089 3B       		.uleb128 0x3b
 1703 008a 05       		.uleb128 0x5
 1704 008b 01       		.uleb128 0x1
 1705 008c 13       		.uleb128 0x13
 1706 008d 00       		.byte	0
 1707 008e 00       		.byte	0
 1708 008f 0C       		.uleb128 0xc
 1709 0090 15       		.uleb128 0x15
 1710 0091 01       		.byte	0x1
ARM GAS  /tmp/ccJZ6eb6.s 			page 31


 1711 0092 27       		.uleb128 0x27
 1712 0093 19       		.uleb128 0x19
 1713 0094 01       		.uleb128 0x1
 1714 0095 13       		.uleb128 0x13
 1715 0096 00       		.byte	0
 1716 0097 00       		.byte	0
 1717 0098 0D       		.uleb128 0xd
 1718 0099 05       		.uleb128 0x5
 1719 009a 00       		.byte	0
 1720 009b 49       		.uleb128 0x49
 1721 009c 13       		.uleb128 0x13
 1722 009d 00       		.byte	0
 1723 009e 00       		.byte	0
 1724 009f 0E       		.uleb128 0xe
 1725 00a0 0F       		.uleb128 0xf
 1726 00a1 00       		.byte	0
 1727 00a2 0B       		.uleb128 0xb
 1728 00a3 0B       		.uleb128 0xb
 1729 00a4 00       		.byte	0
 1730 00a5 00       		.byte	0
 1731 00a6 0F       		.uleb128 0xf
 1732 00a7 13       		.uleb128 0x13
 1733 00a8 01       		.byte	0x1
 1734 00a9 03       		.uleb128 0x3
 1735 00aa 0E       		.uleb128 0xe
 1736 00ab 0B       		.uleb128 0xb
 1737 00ac 05       		.uleb128 0x5
 1738 00ad 3A       		.uleb128 0x3a
 1739 00ae 0B       		.uleb128 0xb
 1740 00af 3B       		.uleb128 0x3b
 1741 00b0 05       		.uleb128 0x5
 1742 00b1 01       		.uleb128 0x1
 1743 00b2 13       		.uleb128 0x13
 1744 00b3 00       		.byte	0
 1745 00b4 00       		.byte	0
 1746 00b5 10       		.uleb128 0x10
 1747 00b6 01       		.uleb128 0x1
 1748 00b7 01       		.byte	0x1
 1749 00b8 49       		.uleb128 0x49
 1750 00b9 13       		.uleb128 0x13
 1751 00ba 01       		.uleb128 0x1
 1752 00bb 13       		.uleb128 0x13
 1753 00bc 00       		.byte	0
 1754 00bd 00       		.byte	0
 1755 00be 11       		.uleb128 0x11
 1756 00bf 21       		.uleb128 0x21
 1757 00c0 00       		.byte	0
 1758 00c1 49       		.uleb128 0x49
 1759 00c2 13       		.uleb128 0x13
 1760 00c3 2F       		.uleb128 0x2f
 1761 00c4 0B       		.uleb128 0xb
 1762 00c5 00       		.byte	0
 1763 00c6 00       		.byte	0
 1764 00c7 12       		.uleb128 0x12
 1765 00c8 13       		.uleb128 0x13
 1766 00c9 01       		.byte	0x1
 1767 00ca 0B       		.uleb128 0xb
ARM GAS  /tmp/ccJZ6eb6.s 			page 32


 1768 00cb 0B       		.uleb128 0xb
 1769 00cc 3A       		.uleb128 0x3a
 1770 00cd 0B       		.uleb128 0xb
 1771 00ce 3B       		.uleb128 0x3b
 1772 00cf 05       		.uleb128 0x5
 1773 00d0 01       		.uleb128 0x1
 1774 00d1 13       		.uleb128 0x13
 1775 00d2 00       		.byte	0
 1776 00d3 00       		.byte	0
 1777 00d4 13       		.uleb128 0x13
 1778 00d5 16       		.uleb128 0x16
 1779 00d6 00       		.byte	0
 1780 00d7 03       		.uleb128 0x3
 1781 00d8 0E       		.uleb128 0xe
 1782 00d9 3A       		.uleb128 0x3a
 1783 00da 0B       		.uleb128 0xb
 1784 00db 3B       		.uleb128 0x3b
 1785 00dc 05       		.uleb128 0x5
 1786 00dd 49       		.uleb128 0x49
 1787 00de 13       		.uleb128 0x13
 1788 00df 00       		.byte	0
 1789 00e0 00       		.byte	0
 1790 00e1 14       		.uleb128 0x14
 1791 00e2 0D       		.uleb128 0xd
 1792 00e3 00       		.byte	0
 1793 00e4 03       		.uleb128 0x3
 1794 00e5 08       		.uleb128 0x8
 1795 00e6 3A       		.uleb128 0x3a
 1796 00e7 0B       		.uleb128 0xb
 1797 00e8 3B       		.uleb128 0x3b
 1798 00e9 0B       		.uleb128 0xb
 1799 00ea 49       		.uleb128 0x49
 1800 00eb 13       		.uleb128 0x13
 1801 00ec 38       		.uleb128 0x38
 1802 00ed 0B       		.uleb128 0xb
 1803 00ee 00       		.byte	0
 1804 00ef 00       		.byte	0
 1805 00f0 15       		.uleb128 0x15
 1806 00f1 13       		.uleb128 0x13
 1807 00f2 01       		.byte	0x1
 1808 00f3 0B       		.uleb128 0xb
 1809 00f4 0B       		.uleb128 0xb
 1810 00f5 3A       		.uleb128 0x3a
 1811 00f6 0B       		.uleb128 0xb
 1812 00f7 3B       		.uleb128 0x3b
 1813 00f8 0B       		.uleb128 0xb
 1814 00f9 01       		.uleb128 0x1
 1815 00fa 13       		.uleb128 0x13
 1816 00fb 00       		.byte	0
 1817 00fc 00       		.byte	0
 1818 00fd 16       		.uleb128 0x16
 1819 00fe 17       		.uleb128 0x17
 1820 00ff 01       		.byte	0x1
 1821 0100 0B       		.uleb128 0xb
 1822 0101 0B       		.uleb128 0xb
 1823 0102 3A       		.uleb128 0x3a
 1824 0103 0B       		.uleb128 0xb
ARM GAS  /tmp/ccJZ6eb6.s 			page 33


 1825 0104 3B       		.uleb128 0x3b
 1826 0105 0B       		.uleb128 0xb
 1827 0106 01       		.uleb128 0x1
 1828 0107 13       		.uleb128 0x13
 1829 0108 00       		.byte	0
 1830 0109 00       		.byte	0
 1831 010a 17       		.uleb128 0x17
 1832 010b 0D       		.uleb128 0xd
 1833 010c 00       		.byte	0
 1834 010d 03       		.uleb128 0x3
 1835 010e 0E       		.uleb128 0xe
 1836 010f 3A       		.uleb128 0x3a
 1837 0110 0B       		.uleb128 0xb
 1838 0111 3B       		.uleb128 0x3b
 1839 0112 05       		.uleb128 0x5
 1840 0113 49       		.uleb128 0x49
 1841 0114 13       		.uleb128 0x13
 1842 0115 00       		.byte	0
 1843 0116 00       		.byte	0
 1844 0117 18       		.uleb128 0x18
 1845 0118 26       		.uleb128 0x26
 1846 0119 00       		.byte	0
 1847 011a 49       		.uleb128 0x49
 1848 011b 13       		.uleb128 0x13
 1849 011c 00       		.byte	0
 1850 011d 00       		.byte	0
 1851 011e 19       		.uleb128 0x19
 1852 011f 2E       		.uleb128 0x2e
 1853 0120 01       		.byte	0x1
 1854 0121 03       		.uleb128 0x3
 1855 0122 0E       		.uleb128 0xe
 1856 0123 3A       		.uleb128 0x3a
 1857 0124 0B       		.uleb128 0xb
 1858 0125 3B       		.uleb128 0x3b
 1859 0126 05       		.uleb128 0x5
 1860 0127 27       		.uleb128 0x27
 1861 0128 19       		.uleb128 0x19
 1862 0129 20       		.uleb128 0x20
 1863 012a 0B       		.uleb128 0xb
 1864 012b 01       		.uleb128 0x1
 1865 012c 13       		.uleb128 0x13
 1866 012d 00       		.byte	0
 1867 012e 00       		.byte	0
 1868 012f 1A       		.uleb128 0x1a
 1869 0130 05       		.uleb128 0x5
 1870 0131 00       		.byte	0
 1871 0132 03       		.uleb128 0x3
 1872 0133 0E       		.uleb128 0xe
 1873 0134 3A       		.uleb128 0x3a
 1874 0135 0B       		.uleb128 0xb
 1875 0136 3B       		.uleb128 0x3b
 1876 0137 05       		.uleb128 0x5
 1877 0138 49       		.uleb128 0x49
 1878 0139 13       		.uleb128 0x13
 1879 013a 00       		.byte	0
 1880 013b 00       		.byte	0
 1881 013c 1B       		.uleb128 0x1b
ARM GAS  /tmp/ccJZ6eb6.s 			page 34


 1882 013d 2E       		.uleb128 0x2e
 1883 013e 00       		.byte	0
 1884 013f 03       		.uleb128 0x3
 1885 0140 0E       		.uleb128 0xe
 1886 0141 3A       		.uleb128 0x3a
 1887 0142 0B       		.uleb128 0xb
 1888 0143 3B       		.uleb128 0x3b
 1889 0144 05       		.uleb128 0x5
 1890 0145 27       		.uleb128 0x27
 1891 0146 19       		.uleb128 0x19
 1892 0147 20       		.uleb128 0x20
 1893 0148 0B       		.uleb128 0xb
 1894 0149 00       		.byte	0
 1895 014a 00       		.byte	0
 1896 014b 1C       		.uleb128 0x1c
 1897 014c 2E       		.uleb128 0x2e
 1898 014d 01       		.byte	0x1
 1899 014e 3F       		.uleb128 0x3f
 1900 014f 19       		.uleb128 0x19
 1901 0150 03       		.uleb128 0x3
 1902 0151 0E       		.uleb128 0xe
 1903 0152 3A       		.uleb128 0x3a
 1904 0153 0B       		.uleb128 0xb
 1905 0154 3B       		.uleb128 0x3b
 1906 0155 0B       		.uleb128 0xb
 1907 0156 27       		.uleb128 0x27
 1908 0157 19       		.uleb128 0x19
 1909 0158 11       		.uleb128 0x11
 1910 0159 01       		.uleb128 0x1
 1911 015a 12       		.uleb128 0x12
 1912 015b 06       		.uleb128 0x6
 1913 015c 40       		.uleb128 0x40
 1914 015d 18       		.uleb128 0x18
 1915 015e 9742     		.uleb128 0x2117
 1916 0160 19       		.uleb128 0x19
 1917 0161 01       		.uleb128 0x1
 1918 0162 13       		.uleb128 0x13
 1919 0163 00       		.byte	0
 1920 0164 00       		.byte	0
 1921 0165 1D       		.uleb128 0x1d
 1922 0166 1D       		.uleb128 0x1d
 1923 0167 01       		.byte	0x1
 1924 0168 31       		.uleb128 0x31
 1925 0169 13       		.uleb128 0x13
 1926 016a 11       		.uleb128 0x11
 1927 016b 01       		.uleb128 0x1
 1928 016c 12       		.uleb128 0x12
 1929 016d 06       		.uleb128 0x6
 1930 016e 58       		.uleb128 0x58
 1931 016f 0B       		.uleb128 0xb
 1932 0170 59       		.uleb128 0x59
 1933 0171 0B       		.uleb128 0xb
 1934 0172 01       		.uleb128 0x1
 1935 0173 13       		.uleb128 0x13
 1936 0174 00       		.byte	0
 1937 0175 00       		.byte	0
 1938 0176 1E       		.uleb128 0x1e
ARM GAS  /tmp/ccJZ6eb6.s 			page 35


 1939 0177 1D       		.uleb128 0x1d
 1940 0178 01       		.byte	0x1
 1941 0179 31       		.uleb128 0x31
 1942 017a 13       		.uleb128 0x13
 1943 017b 11       		.uleb128 0x11
 1944 017c 01       		.uleb128 0x1
 1945 017d 12       		.uleb128 0x12
 1946 017e 06       		.uleb128 0x6
 1947 017f 58       		.uleb128 0x58
 1948 0180 0B       		.uleb128 0xb
 1949 0181 59       		.uleb128 0x59
 1950 0182 05       		.uleb128 0x5
 1951 0183 00       		.byte	0
 1952 0184 00       		.byte	0
 1953 0185 1F       		.uleb128 0x1f
 1954 0186 05       		.uleb128 0x5
 1955 0187 00       		.byte	0
 1956 0188 31       		.uleb128 0x31
 1957 0189 13       		.uleb128 0x13
 1958 018a 02       		.uleb128 0x2
 1959 018b 17       		.uleb128 0x17
 1960 018c 00       		.byte	0
 1961 018d 00       		.byte	0
 1962 018e 20       		.uleb128 0x20
 1963 018f 898201   		.uleb128 0x4109
 1964 0192 00       		.byte	0
 1965 0193 11       		.uleb128 0x11
 1966 0194 01       		.uleb128 0x1
 1967 0195 31       		.uleb128 0x31
 1968 0196 13       		.uleb128 0x13
 1969 0197 00       		.byte	0
 1970 0198 00       		.byte	0
 1971 0199 21       		.uleb128 0x21
 1972 019a 898201   		.uleb128 0x4109
 1973 019d 00       		.byte	0
 1974 019e 11       		.uleb128 0x11
 1975 019f 01       		.uleb128 0x1
 1976 01a0 9542     		.uleb128 0x2115
 1977 01a2 19       		.uleb128 0x19
 1978 01a3 31       		.uleb128 0x31
 1979 01a4 13       		.uleb128 0x13
 1980 01a5 00       		.byte	0
 1981 01a6 00       		.byte	0
 1982 01a7 22       		.uleb128 0x22
 1983 01a8 898201   		.uleb128 0x4109
 1984 01ab 01       		.byte	0x1
 1985 01ac 11       		.uleb128 0x11
 1986 01ad 01       		.uleb128 0x1
 1987 01ae 9542     		.uleb128 0x2115
 1988 01b0 19       		.uleb128 0x19
 1989 01b1 31       		.uleb128 0x31
 1990 01b2 13       		.uleb128 0x13
 1991 01b3 00       		.byte	0
 1992 01b4 00       		.byte	0
 1993 01b5 23       		.uleb128 0x23
 1994 01b6 8A8201   		.uleb128 0x410a
 1995 01b9 00       		.byte	0
ARM GAS  /tmp/ccJZ6eb6.s 			page 36


 1996 01ba 02       		.uleb128 0x2
 1997 01bb 18       		.uleb128 0x18
 1998 01bc 9142     		.uleb128 0x2111
 1999 01be 18       		.uleb128 0x18
 2000 01bf 00       		.byte	0
 2001 01c0 00       		.byte	0
 2002 01c1 24       		.uleb128 0x24
 2003 01c2 34       		.uleb128 0x34
 2004 01c3 00       		.byte	0
 2005 01c4 03       		.uleb128 0x3
 2006 01c5 0E       		.uleb128 0xe
 2007 01c6 3A       		.uleb128 0x3a
 2008 01c7 0B       		.uleb128 0xb
 2009 01c8 3B       		.uleb128 0x3b
 2010 01c9 05       		.uleb128 0x5
 2011 01ca 49       		.uleb128 0x49
 2012 01cb 13       		.uleb128 0x13
 2013 01cc 3F       		.uleb128 0x3f
 2014 01cd 19       		.uleb128 0x19
 2015 01ce 3C       		.uleb128 0x3c
 2016 01cf 19       		.uleb128 0x19
 2017 01d0 00       		.byte	0
 2018 01d1 00       		.byte	0
 2019 01d2 25       		.uleb128 0x25
 2020 01d3 34       		.uleb128 0x34
 2021 01d4 00       		.byte	0
 2022 01d5 03       		.uleb128 0x3
 2023 01d6 08       		.uleb128 0x8
 2024 01d7 3A       		.uleb128 0x3a
 2025 01d8 0B       		.uleb128 0xb
 2026 01d9 3B       		.uleb128 0x3b
 2027 01da 05       		.uleb128 0x5
 2028 01db 49       		.uleb128 0x49
 2029 01dc 13       		.uleb128 0x13
 2030 01dd 3F       		.uleb128 0x3f
 2031 01de 19       		.uleb128 0x19
 2032 01df 3C       		.uleb128 0x3c
 2033 01e0 19       		.uleb128 0x19
 2034 01e1 00       		.byte	0
 2035 01e2 00       		.byte	0
 2036 01e3 26       		.uleb128 0x26
 2037 01e4 2E       		.uleb128 0x2e
 2038 01e5 00       		.byte	0
 2039 01e6 3F       		.uleb128 0x3f
 2040 01e7 19       		.uleb128 0x19
 2041 01e8 3C       		.uleb128 0x3c
 2042 01e9 19       		.uleb128 0x19
 2043 01ea 6E       		.uleb128 0x6e
 2044 01eb 0E       		.uleb128 0xe
 2045 01ec 03       		.uleb128 0x3
 2046 01ed 0E       		.uleb128 0xe
 2047 01ee 3A       		.uleb128 0x3a
 2048 01ef 0B       		.uleb128 0xb
 2049 01f0 3B       		.uleb128 0x3b
 2050 01f1 05       		.uleb128 0x5
 2051 01f2 00       		.byte	0
 2052 01f3 00       		.byte	0
ARM GAS  /tmp/ccJZ6eb6.s 			page 37


 2053 01f4 27       		.uleb128 0x27
 2054 01f5 2E       		.uleb128 0x2e
 2055 01f6 00       		.byte	0
 2056 01f7 3F       		.uleb128 0x3f
 2057 01f8 19       		.uleb128 0x19
 2058 01f9 3C       		.uleb128 0x3c
 2059 01fa 19       		.uleb128 0x19
 2060 01fb 6E       		.uleb128 0x6e
 2061 01fc 0E       		.uleb128 0xe
 2062 01fd 03       		.uleb128 0x3
 2063 01fe 0E       		.uleb128 0xe
 2064 01ff 3A       		.uleb128 0x3a
 2065 0200 0B       		.uleb128 0xb
 2066 0201 3B       		.uleb128 0x3b
 2067 0202 0B       		.uleb128 0xb
 2068 0203 00       		.byte	0
 2069 0204 00       		.byte	0
 2070 0205 00       		.byte	0
 2071              		.section	.debug_loc,"",%progbits
 2072              	.Ldebug_loc0:
 2073              	.LLST0:
 2074 0000 14000000 		.4byte	.LVL1
 2075 0004 1A000000 		.4byte	.LVL2
 2076 0008 0300     		.2byte	0x3
 2077 000a 08       		.byte	0x8
 2078 000b 20       		.byte	0x20
 2079 000c 9F       		.byte	0x9f
 2080 000d 00000000 		.4byte	0
 2081 0011 00000000 		.4byte	0
 2082              	.LLST1:
 2083 0015 1E000000 		.4byte	.LVL3
 2084 0019 22000000 		.4byte	.LVL4
 2085 001d 0200     		.2byte	0x2
 2086 001f 30       		.byte	0x30
 2087 0020 9F       		.byte	0x9f
 2088 0021 00000000 		.4byte	0
 2089 0025 00000000 		.4byte	0
 2090              		.section	.debug_aranges,"",%progbits
 2091 0000 24000000 		.4byte	0x24
 2092 0004 0200     		.2byte	0x2
 2093 0006 00000000 		.4byte	.Ldebug_info0
 2094 000a 04       		.byte	0x4
 2095 000b 00       		.byte	0
 2096 000c 0000     		.2byte	0
 2097 000e 0000     		.2byte	0
 2098 0010 00000000 		.4byte	.LFB258
 2099 0014 2A000000 		.4byte	.LFE258-.LFB258
 2100 0018 00000000 		.4byte	.LFB259
 2101 001c 48000000 		.4byte	.LFE259-.LFB259
 2102 0020 00000000 		.4byte	0
 2103 0024 00000000 		.4byte	0
 2104              		.section	.debug_ranges,"",%progbits
 2105              	.Ldebug_ranges0:
 2106 0000 00000000 		.4byte	.LFB258
 2107 0004 2A000000 		.4byte	.LFE258
 2108 0008 00000000 		.4byte	.LFB259
 2109 000c 48000000 		.4byte	.LFE259
ARM GAS  /tmp/ccJZ6eb6.s 			page 38


 2110 0010 00000000 		.4byte	0
 2111 0014 00000000 		.4byte	0
 2112              		.section	.debug_line,"",%progbits
 2113              	.Ldebug_line0:
 2114 0000 3D030000 		.section	.debug_str,"MS",%progbits,1
 2114      0200D302 
 2114      00000201 
 2114      FB0E0D00 
 2114      01010101 
 2115              	.LASF51:
 2116 0000 72656164 		.ascii	"ready_list_t\000"
 2116      795F6C69 
 2116      73745F74 
 2116      00
 2117              	.LASF117:
 2118 000d 44494552 		.ascii	"DIER\000"
 2118      00
 2119              	.LASF131:
 2120 0012 77747472 		.ascii	"wttrp\000"
 2120      7000
 2121              	.LASF128:
 2122 0018 7264796D 		.ascii	"rdymsg\000"
 2122      736700
 2123              	.LASF17:
 2124 001f 75696E74 		.ascii	"uint64_t\000"
 2124      36345F74 
 2124      00
 2125              	.LASF7:
 2126 0028 5F5F7569 		.ascii	"__uint8_t\000"
 2126      6E74385F 
 2126      7400
 2127              	.LASF115:
 2128 0032 706F7274 		.ascii	"port_intctx\000"
 2128      5F696E74 
 2128      63747800 
 2129              	.LASF70:
 2130 003e 73797374 		.ascii	"system_debug_t\000"
 2130      656D5F64 
 2130      65627567 
 2130      5F7400
 2131              	.LASF145:
 2132 004d 706F7274 		.ascii	"port_lock\000"
 2132      5F6C6F63 
 2132      6B00
 2133              	.LASF13:
 2134 0057 6C6F6E67 		.ascii	"long long unsigned int\000"
 2134      206C6F6E 
 2134      6720756E 
 2134      7369676E 
 2134      65642069 
 2135              	.LASF80:
 2136 006e 4944434F 		.ascii	"IDCODE\000"
 2136      444500
 2137              	.LASF129:
 2138 0075 65786974 		.ascii	"exitcode\000"
 2138      636F6465 
 2138      00
ARM GAS  /tmp/ccJZ6eb6.s 			page 39


 2139              	.LASF77:
 2140 007e 6D61696E 		.ascii	"mainthread\000"
 2140      74687265 
 2140      616400
 2141              	.LASF67:
 2142 0089 76697274 		.ascii	"virtual_timers_list_t\000"
 2142      75616C5F 
 2142      74696D65 
 2142      72735F6C 
 2142      6973745F 
 2143              	.LASF151:
 2144 009f 6F73616C 		.ascii	"osalSysUnlockFromISR\000"
 2144      53797355 
 2144      6E6C6F63 
 2144      6B46726F 
 2144      6D495352 
 2145              	.LASF155:
 2146 00b4 73745F6C 		.ascii	"st_lld_init\000"
 2146      6C645F69 
 2146      6E697400 
 2147              	.LASF121:
 2148 00c0 42445452 		.ascii	"BDTR\000"
 2148      00
 2149              	.LASF50:
 2150 00c5 63685F74 		.ascii	"ch_threads_queue\000"
 2150      68726561 
 2150      64735F71 
 2150      75657565 
 2150      00
 2151              	.LASF100:
 2152 00d6 41484231 		.ascii	"AHB1LPENR\000"
 2152      4C50454E 
 2152      5200
 2153              	.LASF30:
 2154 00e0 705F7072 		.ascii	"p_prio\000"
 2154      696F00
 2155              	.LASF159:
 2156 00e7 6E766963 		.ascii	"nvicEnableVector\000"
 2156      456E6162 
 2156      6C655665 
 2156      63746F72 
 2156      00
 2157              	.LASF118:
 2158 00f8 43434D52 		.ascii	"CCMR1\000"
 2158      3100
 2159              	.LASF119:
 2160 00fe 43434D52 		.ascii	"CCMR2\000"
 2160      3200
 2161              	.LASF123:
 2162 0104 43434D52 		.ascii	"CCMR3\000"
 2162      3300
 2163              	.LASF3:
 2164 010a 7369676E 		.ascii	"signed char\000"
 2164      65642063 
 2164      68617200 
 2165              	.LASF86:
 2166 0116 41484231 		.ascii	"AHB1RSTR\000"
ARM GAS  /tmp/ccJZ6eb6.s 			page 40


 2166      52535452 
 2166      00
 2167              	.LASF139:
 2168 011f 6D5F7175 		.ascii	"m_queue\000"
 2168      65756500 
 2169              	.LASF154:
 2170 0127 56656374 		.ascii	"VectorB0\000"
 2170      6F724230 
 2170      00
 2171              	.LASF146:
 2172 0130 706F7274 		.ascii	"port_unlock\000"
 2172      5F756E6C 
 2172      6F636B00 
 2173              	.LASF74:
 2174 013c 63685F73 		.ascii	"ch_system\000"
 2174      79737465 
 2174      6D00
 2175              	.LASF9:
 2176 0146 6C6F6E67 		.ascii	"long int\000"
 2176      20696E74 
 2176      00
 2177              	.LASF91:
 2178 014f 41504232 		.ascii	"APB2RSTR\000"
 2178      52535452 
 2178      00
 2179              	.LASF104:
 2180 0158 41504231 		.ascii	"APB1LPENR\000"
 2180      4C50454E 
 2180      5200
 2181              	.LASF20:
 2182 0162 74737461 		.ascii	"tstate_t\000"
 2182      74655F74 
 2182      00
 2183              	.LASF120:
 2184 016b 43434552 		.ascii	"CCER\000"
 2184      00
 2185              	.LASF1:
 2186 0170 6C6F6E67 		.ascii	"long long int\000"
 2186      206C6F6E 
 2186      6720696E 
 2186      7400
 2187              	.LASF32:
 2188 017e 705F6E65 		.ascii	"p_newer\000"
 2188      77657200 
 2189              	.LASF84:
 2190 0186 504C4C43 		.ascii	"PLLCFGR\000"
 2190      46475200 
 2191              	.LASF6:
 2192 018e 73686F72 		.ascii	"short unsigned int\000"
 2192      7420756E 
 2192      7369676E 
 2192      65642069 
 2192      6E7400
 2193              	.LASF56:
 2194 01a1 725F6E65 		.ascii	"r_newer\000"
 2194      77657200 
 2195              	.LASF44:
ARM GAS  /tmp/ccJZ6eb6.s 			page 41


 2196 01a9 705F6D70 		.ascii	"p_mpool\000"
 2196      6F6F6C00 
 2197              	.LASF112:
 2198 01b1 72656761 		.ascii	"regarm_t\000"
 2198      726D5F74 
 2198      00
 2199              	.LASF63:
 2200 01ba 76745F70 		.ascii	"vt_prev\000"
 2200      72657600 
 2201              	.LASF76:
 2202 01c2 76746C69 		.ascii	"vtlist\000"
 2202      737400
 2203              	.LASF153:
 2204 01c9 6F73616C 		.ascii	"osalSysLockFromISR\000"
 2204      5379734C 
 2204      6F636B46 
 2204      726F6D49 
 2204      535200
 2205              	.LASF143:
 2206 01dc 6D757465 		.ascii	"mutex_t\000"
 2206      785F7400 
 2207              	.LASF163:
 2208 01e4 76616C75 		.ascii	"value\000"
 2208      6500
 2209              	.LASF78:
 2210 01ea 69646C65 		.ascii	"idle_thread_wa\000"
 2210      5F746872 
 2210      6561645F 
 2210      776100
 2211              	.LASF25:
 2212 01f9 636E745F 		.ascii	"cnt_t\000"
 2212      7400
 2213              	.LASF0:
 2214 01ff 756E7369 		.ascii	"unsigned int\000"
 2214      676E6564 
 2214      20696E74 
 2214      00
 2215              	.LASF62:
 2216 020c 76745F6E 		.ascii	"vt_next\000"
 2216      65787400 
 2217              	.LASF132:
 2218 0214 77747365 		.ascii	"wtsemp\000"
 2218      6D7000
 2219              	.LASF39:
 2220 021b 705F6D73 		.ascii	"p_msgqueue\000"
 2220      67717565 
 2220      756500
 2221              	.LASF111:
 2222 0226 5243435F 		.ascii	"RCC_TypeDef\000"
 2222      54797065 
 2222      44656600 
 2223              	.LASF137:
 2224 0232 735F636E 		.ascii	"s_cnt\000"
 2224      7400
 2225              	.LASF116:
 2226 0238 534D4352 		.ascii	"SMCR\000"
 2226      00
ARM GAS  /tmp/ccJZ6eb6.s 			page 42


 2227              	.LASF47:
 2228 023d 63685F74 		.ascii	"ch_thread\000"
 2228      68726561 
 2228      6400
 2229              	.LASF110:
 2230 0247 504C4C49 		.ascii	"PLLI2SCFGR\000"
 2230      32534346 
 2230      475200
 2231              	.LASF23:
 2232 0252 6D73675F 		.ascii	"msg_t\000"
 2232      7400
 2233              	.LASF88:
 2234 0258 41484233 		.ascii	"AHB3RSTR\000"
 2234      52535452 
 2234      00
 2235              	.LASF43:
 2236 0261 705F7265 		.ascii	"p_realprio\000"
 2236      616C7072 
 2236      696F00
 2237              	.LASF82:
 2238 026c 41504232 		.ascii	"APB2FZ\000"
 2238      465A00
 2239              	.LASF158:
 2240 0273 5F706F72 		.ascii	"_port_irq_epilogue\000"
 2240      745F6972 
 2240      715F6570 
 2240      696C6F67 
 2240      756500
 2241              	.LASF130:
 2242 0286 77746F62 		.ascii	"wtobjp\000"
 2242      6A7000
 2243              	.LASF105:
 2244 028d 41504232 		.ascii	"APB2LPENR\000"
 2244      4C50454E 
 2244      5200
 2245              	.LASF52:
 2246 0297 63685F72 		.ascii	"ch_ready_list\000"
 2246      65616479 
 2246      5F6C6973 
 2246      7400
 2247              	.LASF24:
 2248 02a5 6576656E 		.ascii	"eventmask_t\000"
 2248      746D6173 
 2248      6B5F7400 
 2249              	.LASF8:
 2250 02b1 5F5F696E 		.ascii	"__int32_t\000"
 2250      7433325F 
 2250      7400
 2251              	.LASF113:
 2252 02bb 73746B61 		.ascii	"stkalign_t\000"
 2252      6C69676E 
 2252      5F7400
 2253              	.LASF152:
 2254 02c6 6F73616C 		.ascii	"osalOsTimerHandlerI\000"
 2254      4F735469 
 2254      6D657248 
 2254      616E646C 
ARM GAS  /tmp/ccJZ6eb6.s 			page 43


 2254      65724900 
 2255              	.LASF46:
 2256 02da 74687265 		.ascii	"threads_list_t\000"
 2256      6164735F 
 2256      6C697374 
 2256      5F7400
 2257              	.LASF60:
 2258 02e9 76697274 		.ascii	"virtual_timer_t\000"
 2258      75616C5F 
 2258      74696D65 
 2258      725F7400 
 2259              	.LASF38:
 2260 02f9 705F7761 		.ascii	"p_waiting\000"
 2260      6974696E 
 2260      6700
 2261              	.LASF79:
 2262 0303 73697A65 		.ascii	"sizetype\000"
 2262      74797065 
 2262      00
 2263              	.LASF45:
 2264 030c 74687265 		.ascii	"thread_reference_t\000"
 2264      61645F72 
 2264      65666572 
 2264      656E6365 
 2264      5F7400
 2265              	.LASF68:
 2266 031f 63685F76 		.ascii	"ch_virtual_timers_list\000"
 2266      69727475 
 2266      616C5F74 
 2266      696D6572 
 2266      735F6C69 
 2267              	.LASF2:
 2268 0336 6C6F6E67 		.ascii	"long double\000"
 2268      20646F75 
 2268      626C6500 
 2269              	.LASF53:
 2270 0342 725F7175 		.ascii	"r_queue\000"
 2270      65756500 
 2271              	.LASF28:
 2272 034a 705F6E65 		.ascii	"p_next\000"
 2272      787400
 2273              	.LASF41:
 2274 0351 705F6570 		.ascii	"p_epending\000"
 2274      656E6469 
 2274      6E6700
 2275              	.LASF95:
 2276 035c 41484233 		.ascii	"AHB3ENR\000"
 2276      454E5200 
 2277              	.LASF69:
 2278 0364 76745F6C 		.ascii	"vt_lasttime\000"
 2278      61737474 
 2278      696D6500 
 2279              	.LASF33:
 2280 0370 705F6F6C 		.ascii	"p_older\000"
 2280      64657200 
 2281              	.LASF55:
 2282 0378 725F6374 		.ascii	"r_ctx\000"
ARM GAS  /tmp/ccJZ6eb6.s 			page 44


 2282      7800
 2283              	.LASF101:
 2284 037e 41484232 		.ascii	"AHB2LPENR\000"
 2284      4C50454E 
 2284      5200
 2285              	.LASF127:
 2286 0388 746D5F63 		.ascii	"tm_calibration_t\000"
 2286      616C6962 
 2286      72617469 
 2286      6F6E5F74 
 2286      00
 2287              	.LASF58:
 2288 0399 725F6375 		.ascii	"r_current\000"
 2288      7272656E 
 2288      7400
 2289              	.LASF90:
 2290 03a3 41504231 		.ascii	"APB1RSTR\000"
 2290      52535452 
 2290      00
 2291              	.LASF12:
 2292 03ac 5F5F7569 		.ascii	"__uint64_t\000"
 2292      6E743634 
 2292      5F7400
 2293              	.LASF81:
 2294 03b7 41504231 		.ascii	"APB1FZ\000"
 2294      465A00
 2295              	.LASF21:
 2296 03be 74726566 		.ascii	"trefs_t\000"
 2296      735F7400 
 2297              	.LASF89:
 2298 03c6 52455345 		.ascii	"RESERVED0\000"
 2298      52564544 
 2298      3000
 2299              	.LASF92:
 2300 03d0 52455345 		.ascii	"RESERVED1\000"
 2300      52564544 
 2300      3100
 2301              	.LASF96:
 2302 03da 52455345 		.ascii	"RESERVED2\000"
 2302      52564544 
 2302      3200
 2303              	.LASF99:
 2304 03e4 52455345 		.ascii	"RESERVED3\000"
 2304      52564544 
 2304      3300
 2305              	.LASF103:
 2306 03ee 52455345 		.ascii	"RESERVED4\000"
 2306      52564544 
 2306      3400
 2307              	.LASF29:
 2308 03f8 705F7072 		.ascii	"p_prev\000"
 2308      657600
 2309              	.LASF108:
 2310 03ff 52455345 		.ascii	"RESERVED6\000"
 2310      52564544 
 2310      3600
 2311              	.LASF22:
ARM GAS  /tmp/ccJZ6eb6.s 			page 45


 2312 0409 74707269 		.ascii	"tprio_t\000"
 2312      6F5F7400 
 2313              	.LASF150:
 2314 0411 63685379 		.ascii	"chSysUnlockFromISR\000"
 2314      73556E6C 
 2314      6F636B46 
 2314      726F6D49 
 2314      535200
 2315              	.LASF71:
 2316 0424 63685F73 		.ascii	"ch_system_debug\000"
 2316      79737465 
 2316      6D5F6465 
 2316      62756700 
 2317              	.LASF144:
 2318 0434 5F426F6F 		.ascii	"_Bool\000"
 2318      6C00
 2319              	.LASF15:
 2320 043a 696E7433 		.ascii	"int32_t\000"
 2320      325F7400 
 2321              	.LASF4:
 2322 0442 756E7369 		.ascii	"unsigned char\000"
 2322      676E6564 
 2322      20636861 
 2322      7200
 2323              	.LASF156:
 2324 0450 49544D5F 		.ascii	"ITM_RxBuffer\000"
 2324      52784275 
 2324      66666572 
 2324      00
 2325              	.LASF42:
 2326 045d 705F6D74 		.ascii	"p_mtxlist\000"
 2326      786C6973 
 2326      7400
 2327              	.LASF5:
 2328 0467 73686F72 		.ascii	"short int\000"
 2328      7420696E 
 2328      7400
 2329              	.LASF35:
 2330 0471 705F7374 		.ascii	"p_state\000"
 2330      61746500 
 2331              	.LASF102:
 2332 0479 41484233 		.ascii	"AHB3LPENR\000"
 2332      4C50454E 
 2332      5200
 2333              	.LASF54:
 2334 0483 725F7072 		.ascii	"r_prio\000"
 2334      696F00
 2335              	.LASF160:
 2336 048a 474E5520 		.ascii	"GNU C11 5.3.1 20160307 (release) [ARM/embedded-5-br"
 2336      43313120 
 2336      352E332E 
 2336      31203230 
 2336      31363033 
 2337 04bd 616E6368 		.ascii	"anch revision 234589] -mcpu=cortex-m4 -mno-thumb-in"
 2337      20726576 
 2337      6973696F 
 2337      6E203233 
ARM GAS  /tmp/ccJZ6eb6.s 			page 46


 2337      34353839 
 2338 04f0 74657277 		.ascii	"terwork -mthumb -ggdb -O2 -fomit-frame-pointer -fal"
 2338      6F726B20 
 2338      2D6D7468 
 2338      756D6220 
 2338      2D676764 
 2339 0523 69676E2D 		.ascii	"ign-functions=16 -ffunction-sections -fdata-section"
 2339      66756E63 
 2339      74696F6E 
 2339      733D3136 
 2339      202D6666 
 2340 0556 73202D66 		.ascii	"s -fno-common\000"
 2340      6E6F2D63 
 2340      6F6D6D6F 
 2340      6E00
 2341              	.LASF134:
 2342 0564 65776D61 		.ascii	"ewmask\000"
 2342      736B00
 2343              	.LASF36:
 2344 056b 705F666C 		.ascii	"p_flags\000"
 2344      61677300 
 2345              	.LASF98:
 2346 0573 41504232 		.ascii	"APB2ENR\000"
 2346      454E5200 
 2347              	.LASF61:
 2348 057b 63685F76 		.ascii	"ch_virtual_timer\000"
 2348      69727475 
 2348      616C5F74 
 2348      696D6572 
 2348      00
 2349              	.LASF135:
 2350 058c 63685F73 		.ascii	"ch_semaphore\000"
 2350      656D6170 
 2350      686F7265 
 2350      00
 2351              	.LASF124:
 2352 0599 43435852 		.ascii	"CCXR\000"
 2352      00
 2353              	.LASF83:
 2354 059e 4442474D 		.ascii	"DBGMCU_TypeDef\000"
 2354      43555F54 
 2354      79706544 
 2354      656600
 2355              	.LASF106:
 2356 05ad 52455345 		.ascii	"RESERVED5\000"
 2356      52564544 
 2356      3500
 2357              	.LASF16:
 2358 05b7 75696E74 		.ascii	"uint32_t\000"
 2358      33325F74 
 2358      00
 2359              	.LASF133:
 2360 05c0 77746D74 		.ascii	"wtmtxp\000"
 2360      787000
 2361              	.LASF161:
 2362 05c7 2F686F6D 		.ascii	"/home/selim/working/ChibiOS/os/hal/ports/STM32/LLD/"
 2362      652F7365 
ARM GAS  /tmp/ccJZ6eb6.s 			page 47


 2362      6C696D2F 
 2362      776F726B 
 2362      696E672F 
 2363 05fa 54494D76 		.ascii	"TIMv1/st_lld.c\000"
 2363      312F7374 
 2363      5F6C6C64 
 2363      2E6300
 2364              	.LASF64:
 2365 0609 76745F64 		.ascii	"vt_delta\000"
 2365      656C7461 
 2365      00
 2366              	.LASF48:
 2367 0612 63685F74 		.ascii	"ch_threads_list\000"
 2367      68726561 
 2367      64735F6C 
 2367      69737400 
 2368              	.LASF11:
 2369 0622 6C6F6E67 		.ascii	"long unsigned int\000"
 2369      20756E73 
 2369      69676E65 
 2369      6420696E 
 2369      7400
 2370              	.LASF142:
 2371 0634 63686172 		.ascii	"char\000"
 2371      00
 2372              	.LASF122:
 2373 0639 444D4152 		.ascii	"DMAR\000"
 2373      00
 2374              	.LASF87:
 2375 063e 41484232 		.ascii	"AHB2RSTR\000"
 2375      52535452 
 2375      00
 2376              	.LASF148:
 2377 0647 706F7274 		.ascii	"port_unlock_from_isr\000"
 2377      5F756E6C 
 2377      6F636B5F 
 2377      66726F6D 
 2377      5F697372 
 2378              	.LASF27:
 2379 065c 74687265 		.ascii	"thread_t\000"
 2379      61645F74 
 2379      00
 2380              	.LASF141:
 2381 0665 6D5F6E65 		.ascii	"m_next\000"
 2381      787400
 2382              	.LASF26:
 2383 066c 73797374 		.ascii	"systime_t\000"
 2383      696D655F 
 2383      7400
 2384              	.LASF157:
 2385 0676 63685379 		.ascii	"chSysTimerHandlerI\000"
 2385      7354696D 
 2385      65724861 
 2385      6E646C65 
 2385      724900
 2386              	.LASF59:
 2387 0689 76746675 		.ascii	"vtfunc_t\000"
ARM GAS  /tmp/ccJZ6eb6.s 			page 48


 2387      6E635F74 
 2387      00
 2388              	.LASF10:
 2389 0692 5F5F7569 		.ascii	"__uint32_t\000"
 2389      6E743332 
 2389      5F7400
 2390              	.LASF162:
 2391 069d 5F5F7365 		.ascii	"__set_BASEPRI\000"
 2391      745F4241 
 2391      53455052 
 2391      4900
 2392              	.LASF72:
 2393 06ab 70616E69 		.ascii	"panic_msg\000"
 2393      635F6D73 
 2393      6700
 2394              	.LASF126:
 2395 06b5 6F666673 		.ascii	"offset\000"
 2395      657400
 2396              	.LASF97:
 2397 06bc 41504231 		.ascii	"APB1ENR\000"
 2397      454E5200 
 2398              	.LASF138:
 2399 06c4 63685F6D 		.ascii	"ch_mutex\000"
 2399      75746578 
 2399      00
 2400              	.LASF94:
 2401 06cd 41484232 		.ascii	"AHB2ENR\000"
 2401      454E5200 
 2402              	.LASF114:
 2403 06d5 636F6E74 		.ascii	"context\000"
 2403      65787400 
 2404              	.LASF57:
 2405 06dd 725F6F6C 		.ascii	"r_older\000"
 2405      64657200 
 2406              	.LASF73:
 2407 06e5 63685F73 		.ascii	"ch_system_t\000"
 2407      79737465 
 2407      6D5F7400 
 2408              	.LASF18:
 2409 06f1 7274636E 		.ascii	"rtcnt_t\000"
 2409      745F7400 
 2410              	.LASF147:
 2411 06f9 706F7274 		.ascii	"port_lock_from_isr\000"
 2411      5F6C6F63 
 2411      6B5F6672 
 2411      6F6D5F69 
 2411      737200
 2412              	.LASF66:
 2413 070c 76745F70 		.ascii	"vt_par\000"
 2413      617200
 2414              	.LASF109:
 2415 0713 53534347 		.ascii	"SSCGR\000"
 2415      5200
 2416              	.LASF49:
 2417 0719 74687265 		.ascii	"threads_queue_t\000"
 2417      6164735F 
 2417      71756575 
ARM GAS  /tmp/ccJZ6eb6.s 			page 49


 2417      655F7400 
 2418              	.LASF125:
 2419 0729 73746D33 		.ascii	"stm32_tim_t\000"
 2419      325F7469 
 2419      6D5F7400 
 2420              	.LASF37:
 2421 0735 705F7265 		.ascii	"p_refs\000"
 2421      667300
 2422              	.LASF107:
 2423 073c 42444352 		.ascii	"BDCR\000"
 2423      00
 2424              	.LASF75:
 2425 0741 726C6973 		.ascii	"rlist\000"
 2425      7400
 2426              	.LASF14:
 2427 0747 75696E74 		.ascii	"uint8_t\000"
 2427      385F7400 
 2428              	.LASF149:
 2429 074f 63685379 		.ascii	"chSysLockFromISR\000"
 2429      734C6F63 
 2429      6B46726F 
 2429      6D495352 
 2429      00
 2430              	.LASF34:
 2431 0760 705F6E61 		.ascii	"p_name\000"
 2431      6D6500
 2432              	.LASF93:
 2433 0767 41484231 		.ascii	"AHB1ENR\000"
 2433      454E5200 
 2434              	.LASF85:
 2435 076f 43464752 		.ascii	"CFGR\000"
 2435      00
 2436              	.LASF19:
 2437 0774 746D6F64 		.ascii	"tmode_t\000"
 2437      655F7400 
 2438              	.LASF136:
 2439 077c 735F7175 		.ascii	"s_queue\000"
 2439      65756500 
 2440              	.LASF40:
 2441 0784 705F6D73 		.ascii	"p_msg\000"
 2441      6700
 2442              	.LASF140:
 2443 078a 6D5F6F77 		.ascii	"m_owner\000"
 2443      6E657200 
 2444              	.LASF31:
 2445 0792 705F6374 		.ascii	"p_ctx\000"
 2445      7800
 2446              	.LASF65:
 2447 0798 76745F66 		.ascii	"vt_func\000"
 2447      756E6300 
 2448              		.ident	"GCC: (GNU Tools for ARM Embedded Processors) 5.3.1 20160307 (release) [ARM/embedded-5-bran
ARM GAS  /tmp/ccJZ6eb6.s 			page 50


DEFINED SYMBOLS
                            *ABS*:0000000000000000 st_lld.c
     /tmp/ccJZ6eb6.s:20     .text.VectorB0:0000000000000000 $t
     /tmp/ccJZ6eb6.s:26     .text.VectorB0:0000000000000000 VectorB0
     /tmp/ccJZ6eb6.s:113    .text.st_lld_init:0000000000000000 $t
     /tmp/ccJZ6eb6.s:119    .text.st_lld_init:0000000000000000 st_lld_init
     /tmp/ccJZ6eb6.s:189    .text.st_lld_init:0000000000000040 $d
                     .debug_frame:0000000000000010 $d

UNDEFINED SYMBOLS
_port_irq_epilogue
chSysTimerHandlerI
nvicEnableVector
