ARM GAS  /tmp/ccJZ6eb6.s 			page 1


   1              		.syntax unified
   2              		.cpu cortex-m4
   3              		.fpu softvfp
   4              		.eabi_attribute 20, 1
   5              		.eabi_attribute 21, 1
   6              		.eabi_attribute 23, 3
   7              		.eabi_attribute 24, 1
   8              		.eabi_attribute 25, 1
   9              		.eabi_attribute 26, 1
  10              		.eabi_attribute 30, 2
  11              		.eabi_attribute 34, 1
  12              		.eabi_attribute 18, 4
  13              		.thumb
  14              		.syntax unified
  15              		.file	"st_lld.c"
  16              		.text
  17              	.Ltext0:
  18              		.cfi_sections	.debug_frame
  19              		.section	.text.VectorB0,"ax",%progbits
  20              		.align	2
  21              		.p2align 4,,15
  22              		.global	VectorB0
  23              		.thumb
  24              		.thumb_func
  25              		.type	VectorB0, %function
  26              	VectorB0:
  27              	.LFB258:
  28              		.file 1 "/home/selim/working/ChibiOS/os/hal/ports/STM32/LLD/TIMv1/st_lld.c"
  29              		.loc 1 173 0
  30              		.cfi_startproc
  31              		@ args = 0, pretend = 0, frame = 0
  32              		@ frame_needed = 0, uses_anonymous_args = 0
  33              		.loc 1 180 0
  34 0000 4FF08043 		mov	r3, #1073741824
  35 0004 1A69     		ldr	r2, [r3, #16]
  36 0006 9207     		lsls	r2, r2, #30
  37 0008 01D4     		bmi	.L9
  38              		.loc 1 188 0
  39 000a FFF7FEBF 		b	_port_irq_epilogue
  40              	.LVL0:
  41              	.L9:
  42              		.loc 1 173 0
  43 000e 10B5     		push	{r4, lr}
  44              		.cfi_def_cfa_offset 8
  45              		.cfi_offset 4, -8
  46              		.cfi_offset 14, -4
  47              		.loc 1 181 0
  48 0010 0024     		movs	r4, #0
  49 0012 1C61     		str	r4, [r3, #16]
  50              	.LVL1:
  51              	.LBB52:
  52              	.LBB53:
  53              	.LBB54:
  54              	.LBB55:
  55              	.LBB56:
  56              	.LBB57:
  57              		.file 2 "/home/selim/working/ChibiOS/os/ext/CMSIS/include/core_cmFunc.h"
ARM GAS  /tmp/ccJZ6eb6.s 			page 2


  58              		.loc 2 546 0
  59 0014 2023     		movs	r3, #32
  60              		.syntax unified
  61              	@ 546 "/home/selim/working/ChibiOS/os/ext/CMSIS/include/core_cmFunc.h" 1
  62 0016 83F31188 		MSR basepri, r3
  63              	@ 0 "" 2
  64              	.LVL2:
  65              		.thumb
  66              		.syntax unified
  67              	.LBE57:
  68              	.LBE56:
  69              	.LBE55:
  70              	.LBE54:
  71              	.LBE53:
  72              	.LBE52:
  73              	.LBB58:
  74              	.LBB59:
  75              		.file 3 "/home/selim/working/ChibiOS/os/hal/osal/rt/osal.h"
  76              		.loc 3 539 0
  77 001a FFF7FEFF 		bl	chSysTimerHandlerI
  78              	.LVL3:
  79              	.LBE59:
  80              	.LBE58:
  81              	.LBB60:
  82              	.LBB61:
  83              	.LBB62:
  84              	.LBB63:
  85              	.LBB64:
  86              	.LBB65:
  87              		.loc 2 546 0
  88              		.syntax unified
  89              	@ 546 "/home/selim/working/ChibiOS/os/ext/CMSIS/include/core_cmFunc.h" 1
  90 001e 84F31188 		MSR basepri, r4
  91              	@ 0 "" 2
  92              	.LVL4:
  93              		.thumb
  94              		.syntax unified
  95              	.LBE65:
  96              	.LBE64:
  97              	.LBE63:
  98              	.LBE62:
  99              	.LBE61:
 100              	.LBE60:
 101              		.loc 1 189 0
 102 0022 BDE81040 		pop	{r4, lr}
 103              		.cfi_restore 14
 104              		.cfi_restore 4
 105              		.cfi_def_cfa_offset 0
 106              		.loc 1 188 0
 107 0026 FFF7FEBF 		b	_port_irq_epilogue
 108              	.LVL5:
 109              		.cfi_endproc
 110              	.LFE258:
 111              		.size	VectorB0, .-VectorB0
 112 002a 00BF     		.section	.text.st_lld_init,"ax",%progbits
 113              		.align	2
 114              		.p2align 4,,15
ARM GAS  /tmp/ccJZ6eb6.s 			page 3


 115              		.global	st_lld_init
 116              		.thumb
 117              		.thumb_func
 118              		.type	st_lld_init, %function
 119              	st_lld_init:
 120              	.LFB259:
 121              		.loc 1 201 0
 122              		.cfi_startproc
 123              		@ args = 0, pretend = 0, frame = 0
 124              		@ frame_needed = 0, uses_anonymous_args = 0
 125              		@ link register save eliminated.
 126              		.loc 1 207 0
 127 0000 0F4A     		ldr	r2, .L12
 128              		.loc 1 210 0
 129 0002 1048     		ldr	r0, .L12+4
 130              		.loc 1 207 0
 131 0004 136C     		ldr	r3, [r2, #64]
 132              		.loc 1 201 0
 133 0006 70B4     		push	{r4, r5, r6}
 134              		.cfi_def_cfa_offset 12
 135              		.cfi_offset 4, -12
 136              		.cfi_offset 5, -8
 137              		.cfi_offset 6, -4
 138              		.loc 1 207 0
 139 0008 43F00103 		orr	r3, r3, #1
 140 000c 1364     		str	r3, [r2, #64]
 141              		.loc 1 210 0
 142 000e 8168     		ldr	r1, [r0, #8]
 143              		.loc 1 213 0
 144 0010 4FF08043 		mov	r3, #1073741824
 145              		.loc 1 215 0
 146 0014 0022     		movs	r2, #0
 147              		.loc 1 219 0
 148 0016 0124     		movs	r4, #1
 149              		.loc 1 210 0
 150 0018 41F00101 		orr	r1, r1, #1
 151              		.loc 1 213 0
 152 001c 42F2CF06 		movw	r6, #8399
 153              		.loc 1 214 0
 154 0020 4FF0FF35 		mov	r5, #-1
 155              		.loc 1 210 0
 156 0024 8160     		str	r1, [r0, #8]
 157              		.loc 1 213 0
 158 0026 9E62     		str	r6, [r3, #40]
 159              		.loc 1 223 0
 160 0028 0821     		movs	r1, #8
 161              		.loc 1 214 0
 162 002a DD62     		str	r5, [r3, #44]
 163              		.loc 1 223 0
 164 002c 1C20     		movs	r0, #28
 165              		.loc 1 215 0
 166 002e 9A61     		str	r2, [r3, #24]
 167              		.loc 1 216 0
 168 0030 5A63     		str	r2, [r3, #52]
 169              		.loc 1 217 0
 170 0032 DA60     		str	r2, [r3, #12]
 171              		.loc 1 218 0
ARM GAS  /tmp/ccJZ6eb6.s 			page 4


 172 0034 5A60     		str	r2, [r3, #4]
 173              		.loc 1 219 0
 174 0036 5C61     		str	r4, [r3, #20]
 175              		.loc 1 220 0
 176 0038 1C60     		str	r4, [r3]
 177              		.loc 1 238 0
 178 003a 70BC     		pop	{r4, r5, r6}
 179              		.cfi_restore 6
 180              		.cfi_restore 5
 181              		.cfi_restore 4
 182              		.cfi_def_cfa_offset 0
 183              		.loc 1 223 0
 184 003c FFF7FEBF 		b	nvicEnableVector
 185              	.LVL6:
 186              	.L13:
 187              		.align	2
 188              	.L12:
 189 0040 00380240 		.word	1073887232
 190 0044 002004E0 		.word	-536600576
 191              		.cfi_endproc
 192              	.LFE259:
 193              		.size	st_lld_init, .-st_lld_init
 194              		.text
 195              	.Letext0:
 196              		.file 4 "/usr/arm-none-eabi/include/machine/_default_types.h"
 197              		.file 5 "/usr/arm-none-eabi/include/sys/_stdint.h"
 198              		.file 6 "/home/selim/working/ChibiOS/os/rt/ports/ARMCMx/compilers/GCC/chtypes.h"
 199              		.file 7 "/home/selim/working/ChibiOS/os/rt/include/chsystypes.h"
 200              		.file 8 "/home/selim/working/ChibiOS/os/rt/include/chschd.h"
 201              		.file 9 "/home/selim/working/ChibiOS/os/ext/CMSIS/ST/stm32f407xx.h"
 202              		.file 10 "/home/selim/working/ChibiOS/os/rt/ports/ARMCMx/chcore.h"
 203              		.file 11 "/home/selim/working/ChibiOS/os/rt/ports/ARMCMx/chcore_v7m.h"
 204              		.file 12 "/home/selim/working/ChibiOS/os/hal/ports/STM32/LLD/TIMv1/stm32_tim.h"
 205              		.file 13 "/home/selim/working/ChibiOS/os/rt/include/chtm.h"
 206              		.file 14 "/home/selim/working/ChibiOS/os/rt/include/chsem.h"
 207              		.file 15 "/home/selim/working/ChibiOS/os/rt/include/chmtx.h"
 208              		.file 16 "/home/selim/working/ChibiOS/os/rt/include/chsys.h"
 209              		.file 17 "/home/selim/working/ChibiOS/os/hal/ports/common/ARMCMx/nvic.h"
 210              		.file 18 "/home/selim/working/ChibiOS/os/ext/CMSIS/include/core_cm4.h"