ARM GAS  /tmp/cc2P83O2.s 			page 1


   1              		.syntax unified
   2              		.cpu cortex-m4
   3              		.fpu softvfp
   4              		.eabi_attribute 20, 1
   5              		.eabi_attribute 21, 1
   6              		.eabi_attribute 23, 3
   7              		.eabi_attribute 24, 1
   8              		.eabi_attribute 25, 1
   9              		.eabi_attribute 26, 1
  10              		.eabi_attribute 30, 2
  11              		.eabi_attribute 34, 1
  12              		.eabi_attribute 18, 4
  13              		.thumb
  14              		.syntax unified
  15              		.file	"testbmk.c"
  16              		.text
  17              	.Ltext0:
  18              		.cfi_sections	.debug_frame
  19              		.section	.text.tmo,"ax",%progbits
  20              		.align	2
  21              		.p2align 4,,15
  22              		.thumb
  23              		.thumb_func
  24              		.type	tmo, %function
  25              	tmo:
  26              	.LFB243:
  27              		.file 1 "/home/selim/working/ChibiOS/test/rt/testbmk.c"
  28              		.loc 1 505 0
  29              		.cfi_startproc
  30              		@ args = 0, pretend = 0, frame = 0
  31              		@ frame_needed = 0, uses_anonymous_args = 0
  32              		@ link register save eliminated.
  33              	.LVL0:
  34 0000 7047     		bx	lr
  35              		.cfi_endproc
  36              	.LFE243:
  37              		.size	tmo, .-tmo
  38 0002 00BF     		.section	.text.bmk13_execute,"ax",%progbits
  39              		.align	2
  40              		.p2align 4,,15
  41              		.thumb
  42              		.thumb_func
  43              		.type	bmk13_execute, %function
  44              	bmk13_execute:
  45              	.LFB249:
  46              		.loc 1 640 0
  47              		.cfi_startproc
  48              		@ args = 0, pretend = 0, frame = 0
  49              		@ frame_needed = 0, uses_anonymous_args = 0
  50              		.loc 1 640 0
  51 0000 10B5     		push	{r4, lr}
  52              		.cfi_def_cfa_offset 8
  53              		.cfi_offset 4, -8
  54              		.cfi_offset 14, -4
  55              		.loc 1 642 0
  56 0002 2F48     		ldr	r0, .L4
  57              		.loc 1 644 0
ARM GAS  /tmp/cc2P83O2.s 			page 2


  58 0004 2F4C     		ldr	r4, .L4+4
  59              		.loc 1 642 0
  60 0006 FFF7FEFF 		bl	test_print
  61              	.LVL1:
  62              		.loc 1 643 0
  63 000a 4FF4A870 		mov	r0, #336
  64 000e FFF7FEFF 		bl	test_printn
  65              	.LVL2:
  66              		.loc 1 644 0
  67 0012 2046     		mov	r0, r4
  68 0014 FFF7FEFF 		bl	test_println
  69              	.LVL3:
  70              		.loc 1 645 0
  71 0018 2B48     		ldr	r0, .L4+8
  72 001a FFF7FEFF 		bl	test_print
  73              	.LVL4:
  74              		.loc 1 646 0
  75 001e 4420     		movs	r0, #68
  76 0020 FFF7FEFF 		bl	test_printn
  77              	.LVL5:
  78              		.loc 1 647 0
  79 0024 2046     		mov	r0, r4
  80 0026 FFF7FEFF 		bl	test_println
  81              	.LVL6:
  82              		.loc 1 648 0
  83 002a 2848     		ldr	r0, .L4+12
  84 002c FFF7FEFF 		bl	test_print
  85              	.LVL7:
  86              		.loc 1 649 0
  87 0030 1420     		movs	r0, #20
  88 0032 FFF7FEFF 		bl	test_printn
  89              	.LVL8:
  90              		.loc 1 650 0
  91 0036 2046     		mov	r0, r4
  92 0038 FFF7FEFF 		bl	test_println
  93              	.LVL9:
  94              		.loc 1 652 0
  95 003c 2448     		ldr	r0, .L4+16
  96 003e FFF7FEFF 		bl	test_print
  97              	.LVL10:
  98              		.loc 1 653 0
  99 0042 0C20     		movs	r0, #12
 100 0044 FFF7FEFF 		bl	test_printn
 101              	.LVL11:
 102              		.loc 1 654 0
 103 0048 2046     		mov	r0, r4
 104 004a FFF7FEFF 		bl	test_println
 105              	.LVL12:
 106              		.loc 1 657 0
 107 004e 2148     		ldr	r0, .L4+20
 108 0050 FFF7FEFF 		bl	test_print
 109              	.LVL13:
 110              		.loc 1 658 0
 111 0054 0420     		movs	r0, #4
 112 0056 FFF7FEFF 		bl	test_printn
 113              	.LVL14:
 114              		.loc 1 659 0
ARM GAS  /tmp/cc2P83O2.s 			page 3


 115 005a 2046     		mov	r0, r4
 116 005c FFF7FEFF 		bl	test_println
 117              	.LVL15:
 118              		.loc 1 660 0
 119 0060 1D48     		ldr	r0, .L4+24
 120 0062 FFF7FEFF 		bl	test_print
 121              	.LVL16:
 122              		.loc 1 661 0
 123 0066 1420     		movs	r0, #20
 124 0068 FFF7FEFF 		bl	test_printn
 125              	.LVL17:
 126              		.loc 1 662 0
 127 006c 2046     		mov	r0, r4
 128 006e FFF7FEFF 		bl	test_println
 129              	.LVL18:
 130              		.loc 1 665 0
 131 0072 1A48     		ldr	r0, .L4+28
 132 0074 FFF7FEFF 		bl	test_print
 133              	.LVL19:
 134              		.loc 1 666 0
 135 0078 1020     		movs	r0, #16
 136 007a FFF7FEFF 		bl	test_printn
 137              	.LVL20:
 138              		.loc 1 667 0
 139 007e 2046     		mov	r0, r4
 140 0080 FFF7FEFF 		bl	test_println
 141              	.LVL21:
 142              		.loc 1 670 0
 143 0084 1648     		ldr	r0, .L4+32
 144 0086 FFF7FEFF 		bl	test_print
 145              	.LVL22:
 146              		.loc 1 671 0
 147 008a 0820     		movs	r0, #8
 148 008c FFF7FEFF 		bl	test_printn
 149              	.LVL23:
 150              		.loc 1 672 0
 151 0090 2046     		mov	r0, r4
 152 0092 FFF7FEFF 		bl	test_println
 153              	.LVL24:
 154              		.loc 1 675 0
 155 0096 1348     		ldr	r0, .L4+36
 156 0098 FFF7FEFF 		bl	test_print
 157              	.LVL25:
 158              		.loc 1 676 0
 159 009c 2420     		movs	r0, #36
 160 009e FFF7FEFF 		bl	test_printn
 161              	.LVL26:
 162              		.loc 1 677 0
 163 00a2 2046     		mov	r0, r4
 164 00a4 FFF7FEFF 		bl	test_println
 165              	.LVL27:
 166              		.loc 1 680 0
 167 00a8 0F48     		ldr	r0, .L4+40
 168 00aa FFF7FEFF 		bl	test_print
 169              	.LVL28:
 170              		.loc 1 681 0
 171 00ae 2820     		movs	r0, #40
ARM GAS  /tmp/cc2P83O2.s 			page 4


 172 00b0 FFF7FEFF 		bl	test_printn
 173              	.LVL29:
 174              		.loc 1 682 0
 175 00b4 2046     		mov	r0, r4
 176              		.loc 1 684 0
 177 00b6 BDE81040 		pop	{r4, lr}
 178              		.cfi_restore 14
 179              		.cfi_restore 4
 180              		.cfi_def_cfa_offset 0
 181              		.loc 1 682 0
 182 00ba FFF7FEBF 		b	test_println
 183              	.LVL30:
 184              	.L5:
 185 00be 00BF     		.align	2
 186              	.L4:
 187 00c0 00000000 		.word	.LC0
 188 00c4 10000000 		.word	.LC1
 189 00c8 18000000 		.word	.LC2
 190 00cc 28000000 		.word	.LC3
 191 00d0 38000000 		.word	.LC4
 192 00d4 48000000 		.word	.LC5
 193 00d8 58000000 		.word	.LC6
 194 00dc 68000000 		.word	.LC7
 195 00e0 78000000 		.word	.LC8
 196 00e4 88000000 		.word	.LC9
 197 00e8 98000000 		.word	.LC10
 198              		.cfi_endproc
 199              	.LFE249:
 200              		.size	bmk13_execute, .-bmk13_execute
 201              		.section	.text.thread2,"ax",%progbits
 202              		.align	2
 203              		.p2align 4,,15
 204              		.thumb
 205              		.thumb_func
 206              		.type	thread2, %function
 207              	thread2:
 208              	.LFB228:
 209              		.loc 1 72 0
 210              		.cfi_startproc
 211              		@ args = 0, pretend = 0, frame = 0
 212              		@ frame_needed = 0, uses_anonymous_args = 0
 213              	.LVL31:
 214 0000 10B5     		push	{r4, lr}
 215              		.cfi_def_cfa_offset 8
 216              		.cfi_offset 4, -8
 217              		.cfi_offset 14, -4
 218              	.LVL32:
 219              	.L7:
 220              		.loc 1 78 0 discriminator 1
 221 0002 FFF7FEFF 		bl	chMsgWait
 222              	.LVL33:
 223 0006 046B     		ldr	r4, [r0, #48]
 224              	.LVL34:
 225              		.loc 1 80 0 discriminator 1
 226 0008 2146     		mov	r1, r4
 227 000a FFF7FEFF 		bl	chMsgRelease
 228              	.LVL35:
ARM GAS  /tmp/cc2P83O2.s 			page 5


 229              		.loc 1 81 0 discriminator 1
 230 000e 002C     		cmp	r4, #0
 231 0010 F7D1     		bne	.L7
 232              		.loc 1 82 0
 233 0012 10BD     		pop	{r4, pc}
 234              		.cfi_endproc
 235              	.LFE228:
 236              		.size	thread2, .-thread2
 237              		.section	.text.bmk6_execute,"ax",%progbits
 238              		.align	2
 239              		.p2align 4,,15
 240              		.thumb
 241              		.thumb_func
 242              		.type	bmk6_execute, %function
 243              	bmk6_execute:
 244              	.LFB236:
 245              		.loc 1 307 0
 246              		.cfi_startproc
 247              		@ args = 0, pretend = 0, frame = 0
 248              		@ frame_needed = 0, uses_anonymous_args = 0
 249              	.LVL36:
 250 0000 2DE9F041 		push	{r4, r5, r6, r7, r8, lr}
 251              		.cfi_def_cfa_offset 24
 252              		.cfi_offset 4, -24
 253              		.cfi_offset 5, -20
 254              		.cfi_offset 6, -16
 255              		.cfi_offset 7, -12
 256              		.cfi_offset 8, -8
 257              		.cfi_offset 14, -4
 258              	.LBB168:
 259              	.LBB169:
 260              	.LBB170:
 261              	.LBB171:
 262              		.file 2 "/home/selim/working/ChibiOS/os/rt/include/chthreads.h"
 263              		.loc 2 176 0
 264 0004 144B     		ldr	r3, .L16
 265              	.LBE171:
 266              	.LBE170:
 267              	.LBE169:
 268              	.LBE168:
 269              		.loc 1 310 0
 270 0006 154A     		ldr	r2, .L16+4
 271              	.LBB173:
 272              	.LBB172:
 273              		.loc 2 189 0
 274 0008 9B69     		ldr	r3, [r3, #24]
 275              	.LBE172:
 276              	.LBE173:
 277              		.loc 1 310 0
 278 000a D2F80080 		ldr	r8, [r2]
 279              	.LVL37:
 280              		.loc 1 311 0
 281 000e 9D68     		ldr	r5, [r3, #8]
 282 0010 134F     		ldr	r7, .L16+8
 283              		.loc 1 307 0
 284 0012 82B0     		sub	sp, sp, #8
 285              		.cfi_def_cfa_offset 32
ARM GAS  /tmp/cc2P83O2.s 			page 6


 286              		.loc 1 312 0
 287 0014 FFF7FEFF 		bl	test_wait_tick
 288              	.LVL38:
 289              		.loc 1 313 0
 290 0018 4FF47A70 		mov	r0, #1000
 291 001c FFF7FEFF 		bl	test_start_timer
 292              	.LVL39:
 293              		.loc 1 309 0
 294 0020 0024     		movs	r4, #0
 295              		.loc 1 311 0
 296 0022 0135     		adds	r5, r5, #1
 297              	.LVL40:
 298              		.loc 1 315 0
 299 0024 2646     		mov	r6, r4
 300              	.LVL41:
 301              	.L12:
 302              		.loc 1 315 0 is_stmt 0 discriminator 1
 303 0026 0F4B     		ldr	r3, .L16+12
 304 0028 0096     		str	r6, [sp]
 305 002a 2A46     		mov	r2, r5
 306 002c 4FF4A471 		mov	r1, #328
 307 0030 4046     		mov	r0, r8
 308 0032 FFF7FEFF 		bl	chThdCreateStatic
 309              	.LVL42:
 310              		.loc 1 320 0 is_stmt 1 discriminator 1
 311 0036 3B78     		ldrb	r3, [r7]	@ zero_extendqisi2
 312              		.loc 1 316 0 discriminator 1
 313 0038 0134     		adds	r4, r4, #1
 314              	.LVL43:
 315              		.loc 1 320 0 discriminator 1
 316 003a 002B     		cmp	r3, #0
 317 003c F3D0     		beq	.L12
 318              		.loc 1 321 0
 319 003e 0A48     		ldr	r0, .L16+16
 320 0040 FFF7FEFF 		bl	test_print
 321              	.LVL44:
 322              		.loc 1 322 0
 323 0044 2046     		mov	r0, r4
 324 0046 FFF7FEFF 		bl	test_printn
 325              	.LVL45:
 326              		.loc 1 323 0
 327 004a 0848     		ldr	r0, .L16+20
 328              		.loc 1 324 0
 329 004c 02B0     		add	sp, sp, #8
 330              		.cfi_def_cfa_offset 24
 331              		@ sp needed
 332 004e BDE8F041 		pop	{r4, r5, r6, r7, r8, lr}
 333              		.cfi_restore 14
 334              		.cfi_restore 8
 335              		.cfi_restore 7
 336              		.cfi_restore 6
 337              		.cfi_restore 5
 338              		.cfi_restore 4
 339              		.cfi_def_cfa_offset 0
 340              	.LVL46:
 341              		.loc 1 323 0
 342 0052 FFF7FEBF 		b	test_println
ARM GAS  /tmp/cc2P83O2.s 			page 7


 343              	.LVL47:
 344              	.L17:
 345 0056 00BF     		.align	2
 346              	.L16:
 347 0058 00000000 		.word	ch
 348 005c 00000000 		.word	wa
 349 0060 00000000 		.word	test_timer_done
 350 0064 00000000 		.word	thread1
 351 0068 A8000000 		.word	.LC11
 352 006c B8000000 		.word	.LC12
 353              		.cfi_endproc
 354              	.LFE236:
 355              		.size	bmk6_execute, .-bmk6_execute
 356              		.section	.text.msg_loop_test,"ax",%progbits
 357              		.align	2
 358              		.p2align 4,,15
 359              		.thumb
 360              		.thumb_func
 361              		.type	msg_loop_test, %function
 362              	msg_loop_test:
 363              	.LFB229:
 364              		.loc 1 87 0
 365              		.cfi_startproc
 366              		@ args = 0, pretend = 0, frame = 0
 367              		@ frame_needed = 0, uses_anonymous_args = 0
 368              	.LVL48:
 369 0000 70B5     		push	{r4, r5, r6, lr}
 370              		.cfi_def_cfa_offset 16
 371              		.cfi_offset 4, -16
 372              		.cfi_offset 5, -12
 373              		.cfi_offset 6, -8
 374              		.cfi_offset 14, -4
 375              		.loc 1 87 0
 376 0002 0546     		mov	r5, r0
 377              		.loc 1 90 0
 378 0004 FFF7FEFF 		bl	test_wait_tick
 379              	.LVL49:
 380              		.loc 1 91 0
 381 0008 4FF47A70 		mov	r0, #1000
 382 000c FFF7FEFF 		bl	test_start_timer
 383              	.LVL50:
 384 0010 074E     		ldr	r6, .L23
 385              		.loc 1 89 0
 386 0012 0024     		movs	r4, #0
 387              	.LVL51:
 388              	.L19:
 389              		.loc 1 93 0 discriminator 1
 390 0014 0121     		movs	r1, #1
 391 0016 2846     		mov	r0, r5
 392 0018 FFF7FEFF 		bl	chMsgSend
 393              	.LVL52:
 394              		.loc 1 98 0 discriminator 1
 395 001c 3378     		ldrb	r3, [r6]	@ zero_extendqisi2
 396              		.loc 1 94 0 discriminator 1
 397 001e 0134     		adds	r4, r4, #1
 398              	.LVL53:
 399              		.loc 1 98 0 discriminator 1
ARM GAS  /tmp/cc2P83O2.s 			page 8


 400 0020 002B     		cmp	r3, #0
 401 0022 F7D0     		beq	.L19
 402              		.loc 1 99 0
 403 0024 2846     		mov	r0, r5
 404 0026 0021     		movs	r1, #0
 405 0028 FFF7FEFF 		bl	chMsgSend
 406              	.LVL54:
 407              		.loc 1 101 0
 408 002c 2046     		mov	r0, r4
 409 002e 70BD     		pop	{r4, r5, r6, pc}
 410              	.LVL55:
 411              	.L24:
 412              		.align	2
 413              	.L23:
 414 0030 00000000 		.word	test_timer_done
 415              		.cfi_endproc
 416              	.LFE229:
 417              		.size	msg_loop_test, .-msg_loop_test
 418              		.section	.text.bmk1_execute,"ax",%progbits
 419              		.align	2
 420              		.p2align 4,,15
 421              		.thumb
 422              		.thumb_func
 423              		.type	bmk1_execute, %function
 424              	bmk1_execute:
 425              	.LFB230:
 426              		.loc 1 112 0
 427              		.cfi_startproc
 428              		@ args = 0, pretend = 0, frame = 0
 429              		@ frame_needed = 0, uses_anonymous_args = 0
 430 0000 10B5     		push	{r4, lr}
 431              		.cfi_def_cfa_offset 8
 432              		.cfi_offset 4, -8
 433              		.cfi_offset 14, -4
 434              	.LBB174:
 435              	.LBB175:
 436              	.LBB176:
 437              	.LBB177:
 438              		.loc 2 176 0
 439 0002 134B     		ldr	r3, .L27
 440              	.LBE177:
 441              	.LBE176:
 442              	.LBE175:
 443              	.LBE174:
 444              		.loc 1 115 0
 445 0004 134A     		ldr	r2, .L27+4
 446              	.LBB179:
 447              	.LBB178:
 448              		.loc 2 189 0
 449 0006 9B69     		ldr	r3, [r3, #24]
 450              	.LBE178:
 451              	.LBE179:
 452              		.loc 1 115 0
 453 0008 1068     		ldr	r0, [r2]
 454 000a 9A68     		ldr	r2, [r3, #8]
 455 000c 124B     		ldr	r3, .L27+8
 456              		.loc 1 112 0
ARM GAS  /tmp/cc2P83O2.s 			page 9


 457 000e 82B0     		sub	sp, sp, #8
 458              		.cfi_def_cfa_offset 16
 459              		.loc 1 115 0
 460 0010 0021     		movs	r1, #0
 461 0012 013A     		subs	r2, r2, #1
 462 0014 0091     		str	r1, [sp]
 463 0016 4FF4A471 		mov	r1, #328
 464 001a FFF7FEFF 		bl	chThdCreateStatic
 465              	.LVL56:
 466 001e 0F4B     		ldr	r3, .L27+12
 467 0020 1860     		str	r0, [r3]
 468              		.loc 1 116 0
 469 0022 FFF7FEFF 		bl	msg_loop_test
 470              	.LVL57:
 471 0026 0446     		mov	r4, r0
 472              	.LVL58:
 473              		.loc 1 117 0
 474 0028 FFF7FEFF 		bl	test_wait_threads
 475              	.LVL59:
 476              		.loc 1 118 0
 477 002c 0C48     		ldr	r0, .L27+16
 478 002e FFF7FEFF 		bl	test_print
 479              	.LVL60:
 480              		.loc 1 119 0
 481 0032 2046     		mov	r0, r4
 482 0034 FFF7FEFF 		bl	test_printn
 483              	.LVL61:
 484              		.loc 1 120 0
 485 0038 0A48     		ldr	r0, .L27+20
 486 003a FFF7FEFF 		bl	test_print
 487              	.LVL62:
 488              		.loc 1 121 0
 489 003e 6000     		lsls	r0, r4, #1
 490 0040 FFF7FEFF 		bl	test_printn
 491              	.LVL63:
 492              		.loc 1 122 0
 493 0044 0848     		ldr	r0, .L27+24
 494              		.loc 1 123 0
 495 0046 02B0     		add	sp, sp, #8
 496              		.cfi_def_cfa_offset 8
 497              		@ sp needed
 498 0048 BDE81040 		pop	{r4, lr}
 499              		.cfi_restore 14
 500              		.cfi_restore 4
 501              		.cfi_def_cfa_offset 0
 502              	.LVL64:
 503              		.loc 1 122 0
 504 004c FFF7FEBF 		b	test_println
 505              	.LVL65:
 506              	.L28:
 507              		.align	2
 508              	.L27:
 509 0050 00000000 		.word	ch
 510 0054 00000000 		.word	wa
 511 0058 00000000 		.word	thread2
 512 005c 00000000 		.word	threads
 513 0060 A8000000 		.word	.LC11
ARM GAS  /tmp/cc2P83O2.s 			page 10


 514 0064 C4000000 		.word	.LC13
 515 0068 D0000000 		.word	.LC14
 516              		.cfi_endproc
 517              	.LFE230:
 518              		.size	bmk1_execute, .-bmk1_execute
 519              		.section	.text.bmk2_execute,"ax",%progbits
 520              		.align	2
 521              		.p2align 4,,15
 522              		.thumb
 523              		.thumb_func
 524              		.type	bmk2_execute, %function
 525              	bmk2_execute:
 526              	.LFB231:
 527              		.loc 1 141 0
 528              		.cfi_startproc
 529              		@ args = 0, pretend = 0, frame = 0
 530              		@ frame_needed = 0, uses_anonymous_args = 0
 531 0000 10B5     		push	{r4, lr}
 532              		.cfi_def_cfa_offset 8
 533              		.cfi_offset 4, -8
 534              		.cfi_offset 14, -4
 535              	.LBB180:
 536              	.LBB181:
 537              	.LBB182:
 538              	.LBB183:
 539              		.loc 2 176 0
 540 0002 134B     		ldr	r3, .L31
 541              	.LBE183:
 542              	.LBE182:
 543              	.LBE181:
 544              	.LBE180:
 545              		.loc 1 144 0
 546 0004 134A     		ldr	r2, .L31+4
 547              	.LBB185:
 548              	.LBB184:
 549              		.loc 2 189 0
 550 0006 9B69     		ldr	r3, [r3, #24]
 551              	.LBE184:
 552              	.LBE185:
 553              		.loc 1 144 0
 554 0008 1068     		ldr	r0, [r2]
 555 000a 9A68     		ldr	r2, [r3, #8]
 556 000c 124B     		ldr	r3, .L31+8
 557              		.loc 1 141 0
 558 000e 82B0     		sub	sp, sp, #8
 559              		.cfi_def_cfa_offset 16
 560              		.loc 1 144 0
 561 0010 0021     		movs	r1, #0
 562 0012 0132     		adds	r2, r2, #1
 563 0014 0091     		str	r1, [sp]
 564 0016 4FF4A471 		mov	r1, #328
 565 001a FFF7FEFF 		bl	chThdCreateStatic
 566              	.LVL66:
 567 001e 0F4B     		ldr	r3, .L31+12
 568 0020 1860     		str	r0, [r3]
 569              		.loc 1 145 0
 570 0022 FFF7FEFF 		bl	msg_loop_test
ARM GAS  /tmp/cc2P83O2.s 			page 11


 571              	.LVL67:
 572 0026 0446     		mov	r4, r0
 573              	.LVL68:
 574              		.loc 1 146 0
 575 0028 FFF7FEFF 		bl	test_wait_threads
 576              	.LVL69:
 577              		.loc 1 147 0
 578 002c 0C48     		ldr	r0, .L31+16
 579 002e FFF7FEFF 		bl	test_print
 580              	.LVL70:
 581              		.loc 1 148 0
 582 0032 2046     		mov	r0, r4
 583 0034 FFF7FEFF 		bl	test_printn
 584              	.LVL71:
 585              		.loc 1 149 0
 586 0038 0A48     		ldr	r0, .L31+20
 587 003a FFF7FEFF 		bl	test_print
 588              	.LVL72:
 589              		.loc 1 150 0
 590 003e 6000     		lsls	r0, r4, #1
 591 0040 FFF7FEFF 		bl	test_printn
 592              	.LVL73:
 593              		.loc 1 151 0
 594 0044 0848     		ldr	r0, .L31+24
 595              		.loc 1 152 0
 596 0046 02B0     		add	sp, sp, #8
 597              		.cfi_def_cfa_offset 8
 598              		@ sp needed
 599 0048 BDE81040 		pop	{r4, lr}
 600              		.cfi_restore 14
 601              		.cfi_restore 4
 602              		.cfi_def_cfa_offset 0
 603              	.LVL74:
 604              		.loc 1 151 0
 605 004c FFF7FEBF 		b	test_println
 606              	.LVL75:
 607              	.L32:
 608              		.align	2
 609              	.L31:
 610 0050 00000000 		.word	ch
 611 0054 00000000 		.word	wa
 612 0058 00000000 		.word	thread2
 613 005c 00000000 		.word	threads
 614 0060 A8000000 		.word	.LC11
 615 0064 C4000000 		.word	.LC13
 616 0068 D0000000 		.word	.LC14
 617              		.cfi_endproc
 618              	.LFE231:
 619              		.size	bmk2_execute, .-bmk2_execute
 620              		.section	.text.bmk3_execute,"ax",%progbits
 621              		.align	2
 622              		.p2align 4,,15
 623              		.thumb
 624              		.thumb_func
 625              		.type	bmk3_execute, %function
 626              	bmk3_execute:
 627              	.LFB232:
ARM GAS  /tmp/cc2P83O2.s 			page 12


 628              		.loc 1 171 0
 629              		.cfi_startproc
 630              		@ args = 0, pretend = 0, frame = 0
 631              		@ frame_needed = 0, uses_anonymous_args = 0
 632 0000 2DE9F041 		push	{r4, r5, r6, r7, r8, lr}
 633              		.cfi_def_cfa_offset 24
 634              		.cfi_offset 4, -24
 635              		.cfi_offset 5, -20
 636              		.cfi_offset 6, -16
 637              		.cfi_offset 7, -12
 638              		.cfi_offset 8, -8
 639              		.cfi_offset 14, -4
 640              	.LBB186:
 641              	.LBB187:
 642              	.LBB188:
 643              	.LBB189:
 644              		.loc 2 176 0
 645 0004 2C4F     		ldr	r7, .L35
 646              	.LBE189:
 647              	.LBE188:
 648              	.LBE187:
 649              	.LBE186:
 650              		.loc 1 174 0
 651 0006 2D4E     		ldr	r6, .L35+4
 652              	.LBB191:
 653              	.LBB190:
 654              		.loc 2 189 0
 655 0008 BB69     		ldr	r3, [r7, #24]
 656              	.LBE190:
 657              	.LBE191:
 658              		.loc 1 174 0
 659 000a 3068     		ldr	r0, [r6]
 660 000c 9A68     		ldr	r2, [r3, #8]
 661 000e 2C4B     		ldr	r3, .L35+8
 662 0010 2C4C     		ldr	r4, .L35+12
 663              		.loc 1 175 0
 664 0012 DFF8C080 		ldr	r8, .L35+28
 665              		.loc 1 171 0
 666 0016 82B0     		sub	sp, sp, #8
 667              		.cfi_def_cfa_offset 32
 668              		.loc 1 174 0
 669 0018 0025     		movs	r5, #0
 670 001a 0132     		adds	r2, r2, #1
 671 001c 0095     		str	r5, [sp]
 672 001e 4FF4A471 		mov	r1, #328
 673 0022 FFF7FEFF 		bl	chThdCreateStatic
 674              	.LVL76:
 675              	.LBB192:
 676              	.LBB193:
 677              		.loc 2 189 0
 678 0026 BA69     		ldr	r2, [r7, #24]
 679              	.LBE193:
 680              	.LBE192:
 681              		.loc 1 175 0
 682 0028 7368     		ldr	r3, [r6, #4]
 683 002a 9268     		ldr	r2, [r2, #8]
 684              		.loc 1 174 0
ARM GAS  /tmp/cc2P83O2.s 			page 13


 685 002c 2060     		str	r0, [r4]
 686              		.loc 1 175 0
 687 002e 023A     		subs	r2, r2, #2
 688 0030 0095     		str	r5, [sp]
 689 0032 1846     		mov	r0, r3
 690 0034 4FF4A471 		mov	r1, #328
 691 0038 4346     		mov	r3, r8
 692 003a FFF7FEFF 		bl	chThdCreateStatic
 693              	.LVL77:
 694              	.LBB194:
 695              	.LBB195:
 696              		.loc 2 189 0
 697 003e BA69     		ldr	r2, [r7, #24]
 698              	.LBE195:
 699              	.LBE194:
 700              		.loc 1 176 0
 701 0040 B368     		ldr	r3, [r6, #8]
 702 0042 9268     		ldr	r2, [r2, #8]
 703              		.loc 1 175 0
 704 0044 6060     		str	r0, [r4, #4]
 705              		.loc 1 176 0
 706 0046 033A     		subs	r2, r2, #3
 707 0048 0095     		str	r5, [sp]
 708 004a 1846     		mov	r0, r3
 709 004c 4FF4A471 		mov	r1, #328
 710 0050 4346     		mov	r3, r8
 711 0052 FFF7FEFF 		bl	chThdCreateStatic
 712              	.LVL78:
 713              	.LBB196:
 714              	.LBB197:
 715              		.loc 2 189 0
 716 0056 BA69     		ldr	r2, [r7, #24]
 717              	.LBE197:
 718              	.LBE196:
 719              		.loc 1 177 0
 720 0058 F368     		ldr	r3, [r6, #12]
 721 005a 9268     		ldr	r2, [r2, #8]
 722              		.loc 1 176 0
 723 005c A060     		str	r0, [r4, #8]
 724              		.loc 1 177 0
 725 005e 043A     		subs	r2, r2, #4
 726 0060 0095     		str	r5, [sp]
 727 0062 1846     		mov	r0, r3
 728 0064 4FF4A471 		mov	r1, #328
 729 0068 4346     		mov	r3, r8
 730 006a FFF7FEFF 		bl	chThdCreateStatic
 731              	.LVL79:
 732              	.LBB198:
 733              	.LBB199:
 734              		.loc 2 189 0
 735 006e BA69     		ldr	r2, [r7, #24]
 736              	.LBE199:
 737              	.LBE198:
 738              		.loc 1 178 0
 739 0070 3369     		ldr	r3, [r6, #16]
 740 0072 9268     		ldr	r2, [r2, #8]
 741              		.loc 1 177 0
ARM GAS  /tmp/cc2P83O2.s 			page 14


 742 0074 E060     		str	r0, [r4, #12]
 743              		.loc 1 178 0
 744 0076 053A     		subs	r2, r2, #5
 745 0078 4FF4A471 		mov	r1, #328
 746 007c 1846     		mov	r0, r3
 747 007e 0095     		str	r5, [sp]
 748 0080 4346     		mov	r3, r8
 749 0082 FFF7FEFF 		bl	chThdCreateStatic
 750              	.LVL80:
 751 0086 2061     		str	r0, [r4, #16]
 752              		.loc 1 179 0
 753 0088 2068     		ldr	r0, [r4]
 754 008a FFF7FEFF 		bl	msg_loop_test
 755              	.LVL81:
 756 008e 0446     		mov	r4, r0
 757              	.LVL82:
 758              		.loc 1 180 0
 759 0090 FFF7FEFF 		bl	test_wait_threads
 760              	.LVL83:
 761              		.loc 1 181 0
 762 0094 0C48     		ldr	r0, .L35+16
 763 0096 FFF7FEFF 		bl	test_print
 764              	.LVL84:
 765              		.loc 1 182 0
 766 009a 2046     		mov	r0, r4
 767 009c FFF7FEFF 		bl	test_printn
 768              	.LVL85:
 769              		.loc 1 183 0
 770 00a0 0A48     		ldr	r0, .L35+20
 771 00a2 FFF7FEFF 		bl	test_print
 772              	.LVL86:
 773              		.loc 1 184 0
 774 00a6 6000     		lsls	r0, r4, #1
 775 00a8 FFF7FEFF 		bl	test_printn
 776              	.LVL87:
 777              		.loc 1 185 0
 778 00ac 0848     		ldr	r0, .L35+24
 779              		.loc 1 186 0
 780 00ae 02B0     		add	sp, sp, #8
 781              		.cfi_def_cfa_offset 24
 782              		@ sp needed
 783 00b0 BDE8F041 		pop	{r4, r5, r6, r7, r8, lr}
 784              		.cfi_restore 14
 785              		.cfi_restore 8
 786              		.cfi_restore 7
 787              		.cfi_restore 6
 788              		.cfi_restore 5
 789              		.cfi_restore 4
 790              		.cfi_def_cfa_offset 0
 791              	.LVL88:
 792              		.loc 1 185 0
 793 00b4 FFF7FEBF 		b	test_println
 794              	.LVL89:
 795              	.L36:
 796              		.align	2
 797              	.L35:
 798 00b8 00000000 		.word	ch
ARM GAS  /tmp/cc2P83O2.s 			page 15


 799 00bc 00000000 		.word	wa
 800 00c0 00000000 		.word	thread2
 801 00c4 00000000 		.word	threads
 802 00c8 A8000000 		.word	.LC11
 803 00cc C4000000 		.word	.LC13
 804 00d0 D0000000 		.word	.LC14
 805 00d4 00000000 		.word	thread1
 806              		.cfi_endproc
 807              	.LFE232:
 808              		.size	bmk3_execute, .-bmk3_execute
 809              		.section	.text.thread1,"ax",%progbits
 810              		.align	2
 811              		.p2align 4,,15
 812              		.thumb
 813              		.thumb_func
 814              		.type	thread1, %function
 815              	thread1:
 816              	.LFB227:
 817              		.loc 1 66 0
 818              		.cfi_startproc
 819              		@ args = 0, pretend = 0, frame = 0
 820              		@ frame_needed = 0, uses_anonymous_args = 0
 821              		@ link register save eliminated.
 822              	.LVL90:
 823              		.loc 1 68 0
 824 0000 FFF7FEBF 		b	chThdExit
 825              	.LVL91:
 826              		.cfi_endproc
 827              	.LFE227:
 828              		.size	thread1, .-thread1
 829              		.section	.text.bmk4_execute,"ax",%progbits
 830              		.align	2
 831              		.p2align 4,,15
 832              		.thumb
 833              		.thumb_func
 834              		.type	bmk4_execute, %function
 835              	bmk4_execute:
 836              	.LFB234:
 837              		.loc 1 219 0
 838              		.cfi_startproc
 839              		@ args = 0, pretend = 0, frame = 0
 840              		@ frame_needed = 0, uses_anonymous_args = 0
 841 0000 2DE9F047 		push	{r4, r5, r6, r7, r8, r9, r10, lr}
 842              		.cfi_def_cfa_offset 32
 843              		.cfi_offset 4, -32
 844              		.cfi_offset 5, -28
 845              		.cfi_offset 6, -24
 846              		.cfi_offset 7, -20
 847              		.cfi_offset 8, -16
 848              		.cfi_offset 9, -12
 849              		.cfi_offset 10, -8
 850              		.cfi_offset 14, -4
 851              	.LBB200:
 852              	.LBB201:
 853              	.LBB202:
 854              	.LBB203:
 855              		.loc 2 176 0
ARM GAS  /tmp/cc2P83O2.s 			page 16


 856 0004 264B     		ldr	r3, .L43
 857              	.LBE203:
 858              	.LBE202:
 859              	.LBE201:
 860              	.LBE200:
 861              		.loc 1 223 0
 862 0006 274A     		ldr	r2, .L43+4
 863              	.LBB205:
 864              	.LBB204:
 865              		.loc 2 189 0
 866 0008 9B69     		ldr	r3, [r3, #24]
 867              	.LBE204:
 868              	.LBE205:
 869              		.loc 1 223 0
 870 000a 1068     		ldr	r0, [r2]
 871 000c 9A68     		ldr	r2, [r3, #8]
 872 000e 264B     		ldr	r3, .L43+8
 873 0010 DFF8A490 		ldr	r9, .L43+24
 874              		.loc 1 219 0
 875 0014 82B0     		sub	sp, sp, #8
 876              		.cfi_def_cfa_offset 40
 877              		.loc 1 223 0
 878 0016 0025     		movs	r5, #0
 879 0018 0132     		adds	r2, r2, #1
 880 001a 4FF4A471 		mov	r1, #328
 881 001e 0095     		str	r5, [sp]
 882 0020 FFF7FEFF 		bl	chThdCreateStatic
 883              	.LVL92:
 884 0024 214B     		ldr	r3, .L43+12
 885 0026 0446     		mov	r4, r0
 886 0028 1860     		str	r0, [r3]
 887              	.LVL93:
 888              		.loc 1 226 0
 889 002a FFF7FEFF 		bl	test_wait_tick
 890              	.LVL94:
 891              		.loc 1 227 0
 892 002e 4FF47A70 		mov	r0, #1000
 893 0032 FFF7FEFF 		bl	test_start_timer
 894              	.LVL95:
 895              		.loc 1 230 0
 896 0036 AA46     		mov	r10, r5
 897              	.LBB206:
 898              	.LBB207:
 899              	.LBB208:
 900              	.LBB209:
 901              		.file 3 "/home/selim/working/ChibiOS/os/ext/CMSIS/include/core_cmFunc.h"
 902              		.loc 3 546 0
 903 0038 4FF02008 		mov	r8, #32
 904              	.LVL96:
 905              	.L39:
 906              		.loc 3 546 0 is_stmt 0 discriminator 1
 907 003c 2027     		movs	r7, #32
 908              		.syntax unified
 909              	@ 546 "/home/selim/working/ChibiOS/os/ext/CMSIS/include/core_cmFunc.h" 1
 910 003e 88F31188 		MSR basepri, r8
 911              	@ 0 "" 2
 912              	.LVL97:
ARM GAS  /tmp/cc2P83O2.s 			page 17


 913              		.thumb
 914              		.syntax unified
 915              	.LBE209:
 916              	.LBE208:
 917              	.LBE207:
 918              	.LBE206:
 919              		.loc 1 230 0 is_stmt 1 discriminator 1
 920 0042 0021     		movs	r1, #0
 921 0044 2046     		mov	r0, r4
 922 0046 FFF7FEFF 		bl	chSchWakeupS
 923              	.LVL98:
 924              		.loc 1 231 0 discriminator 1
 925 004a 2046     		mov	r0, r4
 926 004c 0021     		movs	r1, #0
 927 004e FFF7FEFF 		bl	chSchWakeupS
 928              	.LVL99:
 929              		.loc 1 232 0 discriminator 1
 930 0052 2046     		mov	r0, r4
 931 0054 0021     		movs	r1, #0
 932 0056 FFF7FEFF 		bl	chSchWakeupS
 933              	.LVL100:
 934              		.loc 1 233 0 discriminator 1
 935 005a 2046     		mov	r0, r4
 936 005c 0021     		movs	r1, #0
 937 005e FFF7FEFF 		bl	chSchWakeupS
 938              	.LVL101:
 939              	.LBB210:
 940              	.LBB211:
 941              	.LBB212:
 942              	.LBB213:
 943              	.LBB214:
 944              		.loc 3 546 0 discriminator 1
 945 0062 0026     		movs	r6, #0
 946              		.syntax unified
 947              	@ 546 "/home/selim/working/ChibiOS/os/ext/CMSIS/include/core_cmFunc.h" 1
 948 0064 8AF31188 		MSR basepri, r10
 949              	@ 0 "" 2
 950              	.LVL102:
 951              		.thumb
 952              		.syntax unified
 953              	.LBE214:
 954              	.LBE213:
 955              	.LBE212:
 956              	.LBE211:
 957              	.LBE210:
 958              		.loc 1 239 0 discriminator 1
 959 0068 99F80030 		ldrb	r3, [r9]	@ zero_extendqisi2
 960              		.loc 1 235 0 discriminator 1
 961 006c 0435     		adds	r5, r5, #4
 962              	.LVL103:
 963              		.loc 1 239 0 discriminator 1
 964 006e 002B     		cmp	r3, #0
 965 0070 E4D0     		beq	.L39
 966              	.LVL104:
 967              	.LBB215:
 968              	.LBB216:
 969              	.LBB217:
ARM GAS  /tmp/cc2P83O2.s 			page 18


 970              	.LBB218:
 971              		.loc 3 546 0
 972              		.syntax unified
 973              	@ 546 "/home/selim/working/ChibiOS/os/ext/CMSIS/include/core_cmFunc.h" 1
 974 0072 87F31188 		MSR basepri, r7
 975              	@ 0 "" 2
 976              	.LVL105:
 977              		.thumb
 978              		.syntax unified
 979              	.LBE218:
 980              	.LBE217:
 981              	.LBE216:
 982              	.LBE215:
 983              		.loc 1 241 0
 984 0076 4FF0FF31 		mov	r1, #-1
 985 007a 2046     		mov	r0, r4
 986 007c FFF7FEFF 		bl	chSchWakeupS
 987              	.LVL106:
 988              	.LBB219:
 989              	.LBB220:
 990              	.LBB221:
 991              	.LBB222:
 992              	.LBB223:
 993              		.loc 3 546 0
 994              		.syntax unified
 995              	@ 546 "/home/selim/working/ChibiOS/os/ext/CMSIS/include/core_cmFunc.h" 1
 996 0080 86F31188 		MSR basepri, r6
 997              	@ 0 "" 2
 998              	.LVL107:
 999              		.thumb
 1000              		.syntax unified
 1001              	.LBE223:
 1002              	.LBE222:
 1003              	.LBE221:
 1004              	.LBE220:
 1005              	.LBE219:
 1006              		.loc 1 244 0
 1007 0084 FFF7FEFF 		bl	test_wait_threads
 1008              	.LVL108:
 1009              		.loc 1 245 0
 1010 0088 0948     		ldr	r0, .L43+16
 1011 008a FFF7FEFF 		bl	test_print
 1012              	.LVL109:
 1013              		.loc 1 246 0
 1014 008e 6800     		lsls	r0, r5, #1
 1015 0090 FFF7FEFF 		bl	test_printn
 1016              	.LVL110:
 1017              		.loc 1 247 0
 1018 0094 0748     		ldr	r0, .L43+20
 1019              		.loc 1 248 0
 1020 0096 02B0     		add	sp, sp, #8
 1021              		.cfi_def_cfa_offset 32
 1022              		@ sp needed
 1023 0098 BDE8F047 		pop	{r4, r5, r6, r7, r8, r9, r10, lr}
 1024              		.cfi_restore 14
 1025              		.cfi_restore 10
 1026              		.cfi_restore 9
ARM GAS  /tmp/cc2P83O2.s 			page 19


 1027              		.cfi_restore 8
 1028              		.cfi_restore 7
 1029              		.cfi_restore 6
 1030              		.cfi_restore 5
 1031              		.cfi_restore 4
 1032              		.cfi_def_cfa_offset 0
 1033              	.LVL111:
 1034              		.loc 1 247 0
 1035 009c FFF7FEBF 		b	test_println
 1036              	.LVL112:
 1037              	.L44:
 1038              		.align	2
 1039              	.L43:
 1040 00a0 00000000 		.word	ch
 1041 00a4 00000000 		.word	wa
 1042 00a8 00000000 		.word	thread4
 1043 00ac 00000000 		.word	threads
 1044 00b0 A8000000 		.word	.LC11
 1045 00b4 D0000000 		.word	.LC14
 1046 00b8 00000000 		.word	test_timer_done
 1047              		.cfi_endproc
 1048              	.LFE234:
 1049              		.size	bmk4_execute, .-bmk4_execute
 1050              		.section	.text.thread4,"ax",%progbits
 1051              		.align	2
 1052              		.p2align 4,,15
 1053              		.thumb
 1054              		.thumb_func
 1055              		.type	thread4, %function
 1056              	thread4:
 1057              	.LFB233:
 1058              		.loc 1 206 0
 1059              		.cfi_startproc
 1060              		@ args = 0, pretend = 0, frame = 0
 1061              		@ frame_needed = 0, uses_anonymous_args = 0
 1062              	.LVL113:
 1063              	.LBB224:
 1064              	.LBB225:
 1065              		.loc 2 176 0
 1066 0000 074A     		ldr	r2, .L50
 1067              	.LBE225:
 1068              	.LBE224:
 1069              		.loc 1 206 0
 1070 0002 10B5     		push	{r4, lr}
 1071              		.cfi_def_cfa_offset 8
 1072              		.cfi_offset 4, -8
 1073              		.cfi_offset 14, -4
 1074              	.LBB227:
 1075              	.LBB228:
 1076              	.LBB229:
 1077              	.LBB230:
 1078              		.loc 3 546 0
 1079 0004 2023     		movs	r3, #32
 1080              	.LBE230:
 1081              	.LBE229:
 1082              	.LBE228:
 1083              	.LBE227:
ARM GAS  /tmp/cc2P83O2.s 			page 20


 1084              	.LBB234:
 1085              	.LBB226:
 1086              		.loc 2 176 0
 1087 0006 9469     		ldr	r4, [r2, #24]
 1088              	.LVL114:
 1089              	.LBE226:
 1090              	.LBE234:
 1091              	.LBB235:
 1092              	.LBB233:
 1093              	.LBB232:
 1094              	.LBB231:
 1095              		.loc 3 546 0
 1096              		.syntax unified
 1097              	@ 546 "/home/selim/working/ChibiOS/os/ext/CMSIS/include/core_cmFunc.h" 1
 1098 0008 83F31188 		MSR basepri, r3
 1099              	@ 0 "" 2
 1100              	.LVL115:
 1101              		.thumb
 1102              		.syntax unified
 1103              	.L46:
 1104              	.LBE231:
 1105              	.LBE232:
 1106              	.LBE233:
 1107              	.LBE235:
 1108              		.loc 1 213 0 discriminator 1
 1109 000c 0320     		movs	r0, #3
 1110 000e FFF7FEFF 		bl	chSchGoSleepS
 1111              	.LVL116:
 1112              		.loc 1 215 0 discriminator 1
 1113 0012 236A     		ldr	r3, [r4, #32]
 1114 0014 002B     		cmp	r3, #0
 1115 0016 F9D0     		beq	.L46
 1116              	.LVL117:
 1117              	.LBB236:
 1118              	.LBB237:
 1119              	.LBB238:
 1120              	.LBB239:
 1121              	.LBB240:
 1122              		.loc 3 546 0
 1123 0018 0023     		movs	r3, #0
 1124              		.syntax unified
 1125              	@ 546 "/home/selim/working/ChibiOS/os/ext/CMSIS/include/core_cmFunc.h" 1
 1126 001a 83F31188 		MSR basepri, r3
 1127              	@ 0 "" 2
 1128              	.LVL118:
 1129              		.thumb
 1130              		.syntax unified
 1131 001e 10BD     		pop	{r4, pc}
 1132              	.LVL119:
 1133              	.L51:
 1134              		.align	2
 1135              	.L50:
 1136 0020 00000000 		.word	ch
 1137              	.LBE240:
 1138              	.LBE239:
 1139              	.LBE238:
 1140              	.LBE237:
ARM GAS  /tmp/cc2P83O2.s 			page 21


 1141              	.LBE236:
 1142              		.cfi_endproc
 1143              	.LFE233:
 1144              		.size	thread4, .-thread4
 1145              		.section	.text.bmk5_execute,"ax",%progbits
 1146              		.align	2
 1147              		.p2align 4,,15
 1148              		.thumb
 1149              		.thumb_func
 1150              		.type	bmk5_execute, %function
 1151              	bmk5_execute:
 1152              	.LFB235:
 1153              		.loc 1 268 0
 1154              		.cfi_startproc
 1155              		@ args = 0, pretend = 0, frame = 0
 1156              		@ frame_needed = 0, uses_anonymous_args = 0
 1157              	.LVL120:
 1158 0000 2DE9F041 		push	{r4, r5, r6, r7, r8, lr}
 1159              		.cfi_def_cfa_offset 24
 1160              		.cfi_offset 4, -24
 1161              		.cfi_offset 5, -20
 1162              		.cfi_offset 6, -16
 1163              		.cfi_offset 7, -12
 1164              		.cfi_offset 8, -8
 1165              		.cfi_offset 14, -4
 1166              	.LBB241:
 1167              	.LBB242:
 1168              	.LBB243:
 1169              	.LBB244:
 1170              		.loc 2 176 0
 1171 0004 154B     		ldr	r3, .L57
 1172              	.LBE244:
 1173              	.LBE243:
 1174              	.LBE242:
 1175              	.LBE241:
 1176              		.loc 1 271 0
 1177 0006 164A     		ldr	r2, .L57+4
 1178              	.LBB246:
 1179              	.LBB245:
 1180              		.loc 2 189 0
 1181 0008 9B69     		ldr	r3, [r3, #24]
 1182              	.LBE245:
 1183              	.LBE246:
 1184              		.loc 1 271 0
 1185 000a D2F80080 		ldr	r8, [r2]
 1186              	.LVL121:
 1187              		.loc 1 272 0
 1188 000e 9D68     		ldr	r5, [r3, #8]
 1189 0010 144F     		ldr	r7, .L57+8
 1190              		.loc 1 268 0
 1191 0012 82B0     		sub	sp, sp, #8
 1192              		.cfi_def_cfa_offset 32
 1193              		.loc 1 273 0
 1194 0014 FFF7FEFF 		bl	test_wait_tick
 1195              	.LVL122:
 1196              		.loc 1 274 0
 1197 0018 4FF47A70 		mov	r0, #1000
ARM GAS  /tmp/cc2P83O2.s 			page 22


 1198 001c FFF7FEFF 		bl	test_start_timer
 1199              	.LVL123:
 1200              		.loc 1 270 0
 1201 0020 0024     		movs	r4, #0
 1202              		.loc 1 272 0
 1203 0022 013D     		subs	r5, r5, #1
 1204              	.LVL124:
 1205              		.loc 1 276 0
 1206 0024 2646     		mov	r6, r4
 1207              	.LVL125:
 1208              	.L53:
 1209              		.loc 1 276 0 is_stmt 0 discriminator 1
 1210 0026 104B     		ldr	r3, .L57+12
 1211 0028 0096     		str	r6, [sp]
 1212 002a 2A46     		mov	r2, r5
 1213 002c 4FF4A471 		mov	r1, #328
 1214 0030 4046     		mov	r0, r8
 1215 0032 FFF7FEFF 		bl	chThdCreateStatic
 1216              	.LVL126:
 1217 0036 FFF7FEFF 		bl	chThdWait
 1218              	.LVL127:
 1219              		.loc 1 281 0 is_stmt 1 discriminator 1
 1220 003a 3B78     		ldrb	r3, [r7]	@ zero_extendqisi2
 1221              		.loc 1 277 0 discriminator 1
 1222 003c 0134     		adds	r4, r4, #1
 1223              	.LVL128:
 1224              		.loc 1 281 0 discriminator 1
 1225 003e 002B     		cmp	r3, #0
 1226 0040 F1D0     		beq	.L53
 1227              		.loc 1 282 0
 1228 0042 0A48     		ldr	r0, .L57+16
 1229 0044 FFF7FEFF 		bl	test_print
 1230              	.LVL129:
 1231              		.loc 1 283 0
 1232 0048 2046     		mov	r0, r4
 1233 004a FFF7FEFF 		bl	test_printn
 1234              	.LVL130:
 1235              		.loc 1 284 0
 1236 004e 0848     		ldr	r0, .L57+20
 1237              		.loc 1 285 0
 1238 0050 02B0     		add	sp, sp, #8
 1239              		.cfi_def_cfa_offset 24
 1240              		@ sp needed
 1241 0052 BDE8F041 		pop	{r4, r5, r6, r7, r8, lr}
 1242              		.cfi_restore 14
 1243              		.cfi_restore 8
 1244              		.cfi_restore 7
 1245              		.cfi_restore 6
 1246              		.cfi_restore 5
 1247              		.cfi_restore 4
 1248              		.cfi_def_cfa_offset 0
 1249              	.LVL131:
 1250              		.loc 1 284 0
 1251 0056 FFF7FEBF 		b	test_println
 1252              	.LVL132:
 1253              	.L58:
 1254 005a 00BF     		.align	2
ARM GAS  /tmp/cc2P83O2.s 			page 23


 1255              	.L57:
 1256 005c 00000000 		.word	ch
 1257 0060 00000000 		.word	wa
 1258 0064 00000000 		.word	test_timer_done
 1259 0068 00000000 		.word	thread1
 1260 006c A8000000 		.word	.LC11
 1261 0070 B8000000 		.word	.LC12
 1262              		.cfi_endproc
 1263              	.LFE235:
 1264              		.size	bmk5_execute, .-bmk5_execute
 1265              		.section	.text.bmk7_execute,"ax",%progbits
 1266              		.align	2
 1267              		.p2align 4,,15
 1268              		.thumb
 1269              		.thumb_func
 1270              		.type	bmk7_execute, %function
 1271              	bmk7_execute:
 1272              	.LFB239:
 1273              		.loc 1 357 0
 1274              		.cfi_startproc
 1275              		@ args = 0, pretend = 0, frame = 0
 1276              		@ frame_needed = 0, uses_anonymous_args = 0
 1277 0000 2DE9F041 		push	{r4, r5, r6, r7, r8, lr}
 1278              		.cfi_def_cfa_offset 24
 1279              		.cfi_offset 4, -24
 1280              		.cfi_offset 5, -20
 1281              		.cfi_offset 6, -16
 1282              		.cfi_offset 7, -12
 1283              		.cfi_offset 8, -8
 1284              		.cfi_offset 14, -4
 1285              	.LBB247:
 1286              	.LBB248:
 1287              	.LBB249:
 1288              	.LBB250:
 1289              		.loc 2 176 0
 1290 0004 DFF80081 		ldr	r8, .L64+32
 1291              	.LBE250:
 1292              	.LBE249:
 1293              	.LBE248:
 1294              	.LBE247:
 1295              		.loc 1 360 0
 1296 0008 374F     		ldr	r7, .L64
 1297              	.LBB252:
 1298              	.LBB251:
 1299              		.loc 2 189 0
 1300 000a D8F81830 		ldr	r3, [r8, #24]
 1301              	.LBE251:
 1302              	.LBE252:
 1303              		.loc 1 360 0
 1304 000e 3868     		ldr	r0, [r7]
 1305 0010 9A68     		ldr	r2, [r3, #8]
 1306 0012 364B     		ldr	r3, .L64+4
 1307 0014 364E     		ldr	r6, .L64+8
 1308 0016 374D     		ldr	r5, .L64+12
 1309              		.loc 1 357 0
 1310 0018 82B0     		sub	sp, sp, #8
 1311              		.cfi_def_cfa_offset 32
ARM GAS  /tmp/cc2P83O2.s 			page 24


 1312              		.loc 1 360 0
 1313 001a 0024     		movs	r4, #0
 1314 001c 0532     		adds	r2, r2, #5
 1315 001e 4FF4A471 		mov	r1, #328
 1316 0022 0094     		str	r4, [sp]
 1317 0024 FFF7FEFF 		bl	chThdCreateStatic
 1318              	.LVL133:
 1319              	.LBB253:
 1320              	.LBB254:
 1321              		.loc 2 189 0
 1322 0028 D8F81820 		ldr	r2, [r8, #24]
 1323              	.LBE254:
 1324              	.LBE253:
 1325              		.loc 1 361 0
 1326 002c 7B68     		ldr	r3, [r7, #4]
 1327 002e 9268     		ldr	r2, [r2, #8]
 1328              		.loc 1 360 0
 1329 0030 3060     		str	r0, [r6]
 1330              		.loc 1 361 0
 1331 0032 0432     		adds	r2, r2, #4
 1332 0034 1846     		mov	r0, r3
 1333 0036 4FF4A471 		mov	r1, #328
 1334 003a 2C4B     		ldr	r3, .L64+4
 1335 003c 0094     		str	r4, [sp]
 1336 003e FFF7FEFF 		bl	chThdCreateStatic
 1337              	.LVL134:
 1338              	.LBB255:
 1339              	.LBB256:
 1340              		.loc 2 189 0
 1341 0042 D8F81820 		ldr	r2, [r8, #24]
 1342              	.LBE256:
 1343              	.LBE255:
 1344              		.loc 1 362 0
 1345 0046 BB68     		ldr	r3, [r7, #8]
 1346 0048 9268     		ldr	r2, [r2, #8]
 1347              		.loc 1 361 0
 1348 004a 7060     		str	r0, [r6, #4]
 1349              		.loc 1 362 0
 1350 004c 0332     		adds	r2, r2, #3
 1351 004e 1846     		mov	r0, r3
 1352 0050 4FF4A471 		mov	r1, #328
 1353 0054 254B     		ldr	r3, .L64+4
 1354 0056 0094     		str	r4, [sp]
 1355 0058 FFF7FEFF 		bl	chThdCreateStatic
 1356              	.LVL135:
 1357              	.LBB257:
 1358              	.LBB258:
 1359              		.loc 2 189 0
 1360 005c D8F81820 		ldr	r2, [r8, #24]
 1361              	.LBE258:
 1362              	.LBE257:
 1363              		.loc 1 363 0
 1364 0060 FB68     		ldr	r3, [r7, #12]
 1365 0062 9268     		ldr	r2, [r2, #8]
 1366              		.loc 1 362 0
 1367 0064 B060     		str	r0, [r6, #8]
 1368              		.loc 1 363 0
ARM GAS  /tmp/cc2P83O2.s 			page 25


 1369 0066 0232     		adds	r2, r2, #2
 1370 0068 1846     		mov	r0, r3
 1371 006a 4FF4A471 		mov	r1, #328
 1372 006e 1F4B     		ldr	r3, .L64+4
 1373 0070 0094     		str	r4, [sp]
 1374 0072 FFF7FEFF 		bl	chThdCreateStatic
 1375              	.LVL136:
 1376              	.LBB259:
 1377              	.LBB260:
 1378              		.loc 2 189 0
 1379 0076 D8F81820 		ldr	r2, [r8, #24]
 1380              	.LBE260:
 1381              	.LBE259:
 1382              		.loc 1 364 0
 1383 007a 3B69     		ldr	r3, [r7, #16]
 1384 007c 9268     		ldr	r2, [r2, #8]
 1385              		.loc 1 363 0
 1386 007e F060     		str	r0, [r6, #12]
 1387              		.loc 1 364 0
 1388 0080 0132     		adds	r2, r2, #1
 1389 0082 1846     		mov	r0, r3
 1390 0084 4FF4A471 		mov	r1, #328
 1391 0088 184B     		ldr	r3, .L64+4
 1392 008a 0094     		str	r4, [sp]
 1393 008c FFF7FEFF 		bl	chThdCreateStatic
 1394              	.LVL137:
 1395 0090 3061     		str	r0, [r6, #16]
 1396              	.LVL138:
 1397              		.loc 1 367 0
 1398 0092 FFF7FEFF 		bl	test_wait_tick
 1399              	.LVL139:
 1400              		.loc 1 368 0
 1401 0096 4FF47A70 		mov	r0, #1000
 1402 009a FFF7FEFF 		bl	test_start_timer
 1403              	.LVL140:
 1404              	.L60:
 1405              		.loc 1 370 0 discriminator 1
 1406 009e 0021     		movs	r1, #0
 1407 00a0 1548     		ldr	r0, .L64+16
 1408 00a2 FFF7FEFF 		bl	chSemReset
 1409              	.LVL141:
 1410              		.loc 1 375 0 discriminator 1
 1411 00a6 2B78     		ldrb	r3, [r5]	@ zero_extendqisi2
 1412              		.loc 1 371 0 discriminator 1
 1413 00a8 0134     		adds	r4, r4, #1
 1414              	.LVL142:
 1415              		.loc 1 375 0 discriminator 1
 1416 00aa 002B     		cmp	r3, #0
 1417 00ac F7D0     		beq	.L60
 1418              		.loc 1 376 0
 1419 00ae FFF7FEFF 		bl	test_terminate_threads
 1420              	.LVL143:
 1421              		.loc 1 377 0
 1422 00b2 0021     		movs	r1, #0
 1423 00b4 1048     		ldr	r0, .L64+16
 1424 00b6 FFF7FEFF 		bl	chSemReset
 1425              	.LVL144:
ARM GAS  /tmp/cc2P83O2.s 			page 26


 1426              		.loc 1 378 0
 1427 00ba FFF7FEFF 		bl	test_wait_threads
 1428              	.LVL145:
 1429              		.loc 1 380 0
 1430 00be 0F48     		ldr	r0, .L64+20
 1431 00c0 FFF7FEFF 		bl	test_print
 1432              	.LVL146:
 1433              		.loc 1 381 0
 1434 00c4 2046     		mov	r0, r4
 1435 00c6 FFF7FEFF 		bl	test_printn
 1436              	.LVL147:
 1437              		.loc 1 382 0
 1438 00ca 0D48     		ldr	r0, .L64+24
 1439 00cc FFF7FEFF 		bl	test_print
 1440              	.LVL148:
 1441              		.loc 1 383 0
 1442 00d0 04EB4400 		add	r0, r4, r4, lsl #1
 1443 00d4 4000     		lsls	r0, r0, #1
 1444 00d6 FFF7FEFF 		bl	test_printn
 1445              	.LVL149:
 1446              		.loc 1 384 0
 1447 00da 0A48     		ldr	r0, .L64+28
 1448              		.loc 1 385 0
 1449 00dc 02B0     		add	sp, sp, #8
 1450              		.cfi_def_cfa_offset 24
 1451              		@ sp needed
 1452 00de BDE8F041 		pop	{r4, r5, r6, r7, r8, lr}
 1453              		.cfi_restore 14
 1454              		.cfi_restore 8
 1455              		.cfi_restore 7
 1456              		.cfi_restore 6
 1457              		.cfi_restore 5
 1458              		.cfi_restore 4
 1459              		.cfi_def_cfa_offset 0
 1460              	.LVL150:
 1461              		.loc 1 384 0
 1462 00e2 FFF7FEBF 		b	test_println
 1463              	.LVL151:
 1464              	.L65:
 1465 00e6 00BF     		.align	2
 1466              	.L64:
 1467 00e8 00000000 		.word	wa
 1468 00ec 00000000 		.word	thread3
 1469 00f0 00000000 		.word	threads
 1470 00f4 00000000 		.word	test_timer_done
 1471 00f8 00000000 		.word	.LANCHOR0
 1472 00fc A8000000 		.word	.LC11
 1473 0100 DC000000 		.word	.LC15
 1474 0104 D0000000 		.word	.LC14
 1475 0108 00000000 		.word	ch
 1476              		.cfi_endproc
 1477              	.LFE239:
 1478              		.size	bmk7_execute, .-bmk7_execute
 1479              		.section	.text.thread3,"ax",%progbits
 1480              		.align	2
 1481              		.p2align 4,,15
 1482              		.thumb
ARM GAS  /tmp/cc2P83O2.s 			page 27


 1483              		.thumb_func
 1484              		.type	thread3, %function
 1485              	thread3:
 1486              	.LFB237:
 1487              		.loc 1 345 0
 1488              		.cfi_startproc
 1489              		@ args = 0, pretend = 0, frame = 0
 1490              		@ frame_needed = 0, uses_anonymous_args = 0
 1491              	.LVL152:
 1492 0000 10B5     		push	{r4, lr}
 1493              		.cfi_def_cfa_offset 8
 1494              		.cfi_offset 4, -8
 1495              		.cfi_offset 14, -4
 1496              	.LBB261:
 1497              	.LBB262:
 1498              	.LBB263:
 1499              	.LBB264:
 1500              		.loc 2 176 0
 1501 0002 064C     		ldr	r4, .L73
 1502              	.LBE264:
 1503              	.LBE263:
 1504              		.loc 2 233 0
 1505 0004 A369     		ldr	r3, [r4, #24]
 1506              	.LBE262:
 1507              	.LBE261:
 1508              		.loc 1 348 0
 1509 0006 5B7F     		ldrb	r3, [r3, #29]	@ zero_extendqisi2
 1510 0008 5A07     		lsls	r2, r3, #29
 1511 000a 06D4     		bmi	.L66
 1512              	.LVL153:
 1513              	.L67:
 1514              		.loc 1 349 0
 1515 000c 0448     		ldr	r0, .L73+4
 1516 000e FFF7FEFF 		bl	chSemWait
 1517              	.LVL154:
 1518              	.LBB266:
 1519              	.LBB265:
 1520              		.loc 2 233 0
 1521 0012 A369     		ldr	r3, [r4, #24]
 1522              	.LBE265:
 1523              	.LBE266:
 1524              		.loc 1 348 0
 1525 0014 5B7F     		ldrb	r3, [r3, #29]	@ zero_extendqisi2
 1526 0016 5B07     		lsls	r3, r3, #29
 1527 0018 F8D5     		bpl	.L67
 1528              	.L66:
 1529 001a 10BD     		pop	{r4, pc}
 1530              	.L74:
 1531              		.align	2
 1532              	.L73:
 1533 001c 00000000 		.word	ch
 1534 0020 00000000 		.word	.LANCHOR0
 1535              		.cfi_endproc
 1536              	.LFE237:
 1537              		.size	thread3, .-thread3
 1538              		.section	.text.bmk7_setup,"ax",%progbits
 1539              		.align	2
ARM GAS  /tmp/cc2P83O2.s 			page 28


 1540              		.p2align 4,,15
 1541              		.thumb
 1542              		.thumb_func
 1543              		.type	bmk7_setup, %function
 1544              	bmk7_setup:
 1545              	.LFB238:
 1546              		.loc 1 352 0
 1547              		.cfi_startproc
 1548              		@ args = 0, pretend = 0, frame = 0
 1549              		@ frame_needed = 0, uses_anonymous_args = 0
 1550              		@ link register save eliminated.
 1551              		.loc 1 354 0
 1552 0000 0021     		movs	r1, #0
 1553 0002 0148     		ldr	r0, .L76
 1554 0004 FFF7FEBF 		b	chSemObjectInit
 1555              	.LVL155:
 1556              	.L77:
 1557              		.align	2
 1558              	.L76:
 1559 0008 00000000 		.word	.LANCHOR0
 1560              		.cfi_endproc
 1561              	.LFE238:
 1562              		.size	bmk7_setup, .-bmk7_setup
 1563              		.section	.text.bmk11_setup,"ax",%progbits
 1564              		.align	2
 1565              		.p2align 4,,15
 1566              		.thumb
 1567              		.thumb_func
 1568              		.type	bmk11_setup, %function
 1569              	bmk11_setup:
 1570              	.LFB245:
 1571              		.loc 1 548 0
 1572              		.cfi_startproc
 1573              		@ args = 0, pretend = 0, frame = 0
 1574              		@ frame_needed = 0, uses_anonymous_args = 0
 1575              		@ link register save eliminated.
 1576              		.loc 1 550 0
 1577 0000 0121     		movs	r1, #1
 1578 0002 0148     		ldr	r0, .L79
 1579 0004 FFF7FEBF 		b	chSemObjectInit
 1580              	.LVL156:
 1581              	.L80:
 1582              		.align	2
 1583              	.L79:
 1584 0008 00000000 		.word	.LANCHOR0
 1585              		.cfi_endproc
 1586              	.LFE245:
 1587              		.size	bmk11_setup, .-bmk11_setup
 1588              		.section	.text.bmk8_execute,"ax",%progbits
 1589              		.align	2
 1590              		.p2align 4,,15
 1591              		.thumb
 1592              		.thumb_func
 1593              		.type	bmk8_execute, %function
 1594              	bmk8_execute:
 1595              	.LFB241:
 1596              		.loc 1 419 0
ARM GAS  /tmp/cc2P83O2.s 			page 29


 1597              		.cfi_startproc
 1598              		@ args = 0, pretend = 0, frame = 8
 1599              		@ frame_needed = 0, uses_anonymous_args = 0
 1600 0000 2DE9F041 		push	{r4, r5, r6, r7, r8, lr}
 1601              		.cfi_def_cfa_offset 24
 1602              		.cfi_offset 4, -24
 1603              		.cfi_offset 5, -20
 1604              		.cfi_offset 6, -16
 1605              		.cfi_offset 7, -12
 1606              		.cfi_offset 8, -8
 1607              		.cfi_offset 14, -4
 1608 0004 84B0     		sub	sp, sp, #16
 1609              		.cfi_def_cfa_offset 40
 1610              		.loc 1 422 0
 1611 0006 04AC     		add	r4, sp, #16
 1612              	.LBB267:
 1613              	.LBB268:
 1614              	.LBB269:
 1615              	.LBB270:
 1616              		.loc 2 176 0
 1617 0008 DFF8CC80 		ldr	r8, .L83+20
 1618              	.LBE270:
 1619              	.LBE269:
 1620              	.LBE268:
 1621              	.LBE267:
 1622              		.loc 1 425 0
 1623 000c 2D4F     		ldr	r7, .L83
 1624 000e 2E4E     		ldr	r6, .L83+4
 1625 0010 2E4D     		ldr	r5, .L83+8
 1626              		.loc 1 422 0
 1627 0012 0023     		movs	r3, #0
 1628 0014 44F8043D 		str	r3, [r4, #-4]!
 1629              		.loc 1 423 0
 1630 0018 FFF7FEFF 		bl	test_wait_tick
 1631              	.LVL157:
 1632              	.LBB272:
 1633              	.LBB271:
 1634              		.loc 2 189 0
 1635 001c D8F81830 		ldr	r3, [r8, #24]
 1636              	.LBE271:
 1637              	.LBE272:
 1638              		.loc 1 425 0
 1639 0020 3868     		ldr	r0, [r7]
 1640 0022 9A68     		ldr	r2, [r3, #8]
 1641 0024 0094     		str	r4, [sp]
 1642 0026 3346     		mov	r3, r6
 1643 0028 013A     		subs	r2, r2, #1
 1644 002a 4FF4A471 		mov	r1, #328
 1645 002e FFF7FEFF 		bl	chThdCreateStatic
 1646              	.LVL158:
 1647              	.LBB273:
 1648              	.LBB274:
 1649              		.loc 2 189 0
 1650 0032 D8F81820 		ldr	r2, [r8, #24]
 1651              	.LBE274:
 1652              	.LBE273:
 1653              		.loc 1 426 0
ARM GAS  /tmp/cc2P83O2.s 			page 30


 1654 0036 7B68     		ldr	r3, [r7, #4]
 1655 0038 9268     		ldr	r2, [r2, #8]
 1656              		.loc 1 425 0
 1657 003a 2860     		str	r0, [r5]
 1658              		.loc 1 426 0
 1659 003c 013A     		subs	r2, r2, #1
 1660 003e 0094     		str	r4, [sp]
 1661 0040 1846     		mov	r0, r3
 1662 0042 4FF4A471 		mov	r1, #328
 1663 0046 3346     		mov	r3, r6
 1664 0048 FFF7FEFF 		bl	chThdCreateStatic
 1665              	.LVL159:
 1666              	.LBB275:
 1667              	.LBB276:
 1668              		.loc 2 189 0
 1669 004c D8F81820 		ldr	r2, [r8, #24]
 1670              	.LBE276:
 1671              	.LBE275:
 1672              		.loc 1 427 0
 1673 0050 BB68     		ldr	r3, [r7, #8]
 1674 0052 9268     		ldr	r2, [r2, #8]
 1675              		.loc 1 426 0
 1676 0054 6860     		str	r0, [r5, #4]
 1677              		.loc 1 427 0
 1678 0056 013A     		subs	r2, r2, #1
 1679 0058 0094     		str	r4, [sp]
 1680 005a 1846     		mov	r0, r3
 1681 005c 4FF4A471 		mov	r1, #328
 1682 0060 3346     		mov	r3, r6
 1683 0062 FFF7FEFF 		bl	chThdCreateStatic
 1684              	.LVL160:
 1685              	.LBB277:
 1686              	.LBB278:
 1687              		.loc 2 189 0
 1688 0066 D8F81820 		ldr	r2, [r8, #24]
 1689              	.LBE278:
 1690              	.LBE277:
 1691              		.loc 1 428 0
 1692 006a FB68     		ldr	r3, [r7, #12]
 1693 006c 9268     		ldr	r2, [r2, #8]
 1694              		.loc 1 427 0
 1695 006e A860     		str	r0, [r5, #8]
 1696              		.loc 1 428 0
 1697 0070 013A     		subs	r2, r2, #1
 1698 0072 0094     		str	r4, [sp]
 1699 0074 1846     		mov	r0, r3
 1700 0076 4FF4A471 		mov	r1, #328
 1701 007a 3346     		mov	r3, r6
 1702 007c FFF7FEFF 		bl	chThdCreateStatic
 1703              	.LVL161:
 1704              	.LBB279:
 1705              	.LBB280:
 1706              		.loc 2 189 0
 1707 0080 D8F81820 		ldr	r2, [r8, #24]
 1708              	.LBE280:
 1709              	.LBE279:
 1710              		.loc 1 429 0
ARM GAS  /tmp/cc2P83O2.s 			page 31


 1711 0084 3B69     		ldr	r3, [r7, #16]
 1712 0086 9268     		ldr	r2, [r2, #8]
 1713              		.loc 1 428 0
 1714 0088 E860     		str	r0, [r5, #12]
 1715              		.loc 1 429 0
 1716 008a 013A     		subs	r2, r2, #1
 1717 008c 4FF4A471 		mov	r1, #328
 1718 0090 0094     		str	r4, [sp]
 1719 0092 1846     		mov	r0, r3
 1720 0094 3346     		mov	r3, r6
 1721 0096 FFF7FEFF 		bl	chThdCreateStatic
 1722              	.LVL162:
 1723 009a 2861     		str	r0, [r5, #16]
 1724              		.loc 1 431 0
 1725 009c 42F21070 		movw	r0, #10000
 1726 00a0 FFF7FEFF 		bl	chThdSleep
 1727              	.LVL163:
 1728              		.loc 1 432 0
 1729 00a4 FFF7FEFF 		bl	test_terminate_threads
 1730              	.LVL164:
 1731              		.loc 1 433 0
 1732 00a8 FFF7FEFF 		bl	test_wait_threads
 1733              	.LVL165:
 1734              		.loc 1 435 0
 1735 00ac 0848     		ldr	r0, .L83+12
 1736 00ae FFF7FEFF 		bl	test_print
 1737              	.LVL166:
 1738              		.loc 1 436 0
 1739 00b2 0398     		ldr	r0, [sp, #12]
 1740 00b4 FFF7FEFF 		bl	test_printn
 1741              	.LVL167:
 1742              		.loc 1 437 0
 1743 00b8 0648     		ldr	r0, .L83+16
 1744 00ba FFF7FEFF 		bl	test_println
 1745              	.LVL168:
 1746              		.loc 1 438 0
 1747 00be 04B0     		add	sp, sp, #16
 1748              		.cfi_def_cfa_offset 24
 1749              		@ sp needed
 1750 00c0 BDE8F081 		pop	{r4, r5, r6, r7, r8, pc}
 1751              	.L84:
 1752              		.align	2
 1753              	.L83:
 1754 00c4 00000000 		.word	wa
 1755 00c8 00000000 		.word	thread8
 1756 00cc 00000000 		.word	threads
 1757 00d0 A8000000 		.word	.LC11
 1758 00d4 D0000000 		.word	.LC14
 1759 00d8 00000000 		.word	ch
 1760              		.cfi_endproc
 1761              	.LFE241:
 1762              		.size	bmk8_execute, .-bmk8_execute
 1763              		.section	.text.thread8,"ax",%progbits
 1764              		.align	2
 1765              		.p2align 4,,15
 1766              		.thumb
 1767              		.thumb_func
ARM GAS  /tmp/cc2P83O2.s 			page 32


 1768              		.type	thread8, %function
 1769              	thread8:
 1770              	.LFB240:
 1771              		.loc 1 405 0
 1772              		.cfi_startproc
 1773              		@ args = 0, pretend = 0, frame = 0
 1774              		@ frame_needed = 0, uses_anonymous_args = 0
 1775              	.LVL169:
 1776 0000 38B5     		push	{r3, r4, r5, lr}
 1777              		.cfi_def_cfa_offset 16
 1778              		.cfi_offset 3, -16
 1779              		.cfi_offset 4, -12
 1780              		.cfi_offset 5, -8
 1781              		.cfi_offset 14, -4
 1782 0002 094D     		ldr	r5, .L90
 1783              		.loc 1 405 0
 1784 0004 0446     		mov	r4, r0
 1785              	.LVL170:
 1786              	.L86:
 1787              		.loc 1 408 0 discriminator 1
 1788 0006 FFF7FEFF 		bl	chThdYield
 1789              	.LVL171:
 1790              		.loc 1 409 0 discriminator 1
 1791 000a FFF7FEFF 		bl	chThdYield
 1792              	.LVL172:
 1793              		.loc 1 410 0 discriminator 1
 1794 000e FFF7FEFF 		bl	chThdYield
 1795              	.LVL173:
 1796              		.loc 1 411 0 discriminator 1
 1797 0012 FFF7FEFF 		bl	chThdYield
 1798              	.LVL174:
 1799              		.loc 1 412 0 discriminator 1
 1800 0016 2368     		ldr	r3, [r4]
 1801              	.LBB281:
 1802              	.LBB282:
 1803              		.loc 2 233 0 discriminator 1
 1804 0018 AA69     		ldr	r2, [r5, #24]
 1805              	.LBE282:
 1806              	.LBE281:
 1807              		.loc 1 412 0 discriminator 1
 1808 001a 0433     		adds	r3, r3, #4
 1809 001c 2360     		str	r3, [r4]
 1810              		.loc 1 416 0 discriminator 1
 1811 001e 537F     		ldrb	r3, [r2, #29]	@ zero_extendqisi2
 1812 0020 5B07     		lsls	r3, r3, #29
 1813 0022 F0D5     		bpl	.L86
 1814              		.loc 1 417 0
 1815 0024 38BD     		pop	{r3, r4, r5, pc}
 1816              	.LVL175:
 1817              	.L91:
 1818 0026 00BF     		.align	2
 1819              	.L90:
 1820 0028 00000000 		.word	ch
 1821              		.cfi_endproc
 1822              	.LFE240:
 1823              		.size	thread8, .-thread8
 1824              		.section	.text.bmk9_execute,"ax",%progbits
ARM GAS  /tmp/cc2P83O2.s 			page 33


 1825              		.align	2
 1826              		.p2align 4,,15
 1827              		.thumb
 1828              		.thumb_func
 1829              		.type	bmk9_execute, %function
 1830              	bmk9_execute:
 1831              	.LFB242:
 1832              		.loc 1 458 0
 1833              		.cfi_startproc
 1834              		@ args = 0, pretend = 0, frame = 0
 1835              		@ frame_needed = 0, uses_anonymous_args = 0
 1836 0000 70B5     		push	{r4, r5, r6, lr}
 1837              		.cfi_def_cfa_offset 16
 1838              		.cfi_offset 4, -16
 1839              		.cfi_offset 5, -12
 1840              		.cfi_offset 6, -8
 1841              		.cfi_offset 14, -4
 1842 0002 82B0     		sub	sp, sp, #8
 1843              		.cfi_def_cfa_offset 24
 1844              		.loc 1 463 0
 1845 0004 0024     		movs	r4, #0
 1846 0006 2346     		mov	r3, r4
 1847 0008 1022     		movs	r2, #16
 1848 000a 2349     		ldr	r1, .L97
 1849 000c 2348     		ldr	r0, .L97+4
 1850 000e 0094     		str	r4, [sp]
 1851 0010 FFF7FEFF 		bl	chIQObjectInit
 1852              	.LVL176:
 1853              		.loc 1 465 0
 1854 0014 FFF7FEFF 		bl	test_wait_tick
 1855              	.LVL177:
 1856              		.loc 1 466 0
 1857 0018 4FF47A70 		mov	r0, #1000
 1858 001c FFF7FEFF 		bl	test_start_timer
 1859              	.LVL178:
 1860 0020 1F4E     		ldr	r6, .L97+8
 1861              		.loc 1 469 0
 1862 0022 2546     		mov	r5, r4
 1863              	.LVL179:
 1864              	.L93:
 1865              	.LBB283:
 1866              	.LBB284:
 1867              	.LBB285:
 1868              	.LBB286:
 1869              		.loc 3 546 0 discriminator 1
 1870 0024 2023     		movs	r3, #32
 1871              		.syntax unified
 1872              	@ 546 "/home/selim/working/ChibiOS/os/ext/CMSIS/include/core_cmFunc.h" 1
 1873 0026 83F31188 		MSR basepri, r3
 1874              	@ 0 "" 2
 1875              	.LVL180:
 1876              		.thumb
 1877              		.syntax unified
 1878              	.LBE286:
 1879              	.LBE285:
 1880              	.LBE284:
 1881              	.LBE283:
ARM GAS  /tmp/cc2P83O2.s 			page 34


 1882              		.loc 1 469 0 discriminator 1
 1883 002a 0021     		movs	r1, #0
 1884 002c 1B48     		ldr	r0, .L97+4
 1885 002e FFF7FEFF 		bl	chIQPutI
 1886              	.LVL181:
 1887              		.loc 1 470 0 discriminator 1
 1888 0032 0121     		movs	r1, #1
 1889 0034 1948     		ldr	r0, .L97+4
 1890 0036 FFF7FEFF 		bl	chIQPutI
 1891              	.LVL182:
 1892              		.loc 1 471 0 discriminator 1
 1893 003a 0221     		movs	r1, #2
 1894 003c 1748     		ldr	r0, .L97+4
 1895 003e FFF7FEFF 		bl	chIQPutI
 1896              	.LVL183:
 1897              		.loc 1 472 0 discriminator 1
 1898 0042 0321     		movs	r1, #3
 1899 0044 1548     		ldr	r0, .L97+4
 1900 0046 FFF7FEFF 		bl	chIQPutI
 1901              	.LVL184:
 1902              	.LBB287:
 1903              	.LBB288:
 1904              	.LBB289:
 1905              	.LBB290:
 1906              	.LBB291:
 1907              		.loc 3 546 0 discriminator 1
 1908              		.syntax unified
 1909              	@ 546 "/home/selim/working/ChibiOS/os/ext/CMSIS/include/core_cmFunc.h" 1
 1910 004a 85F31188 		MSR basepri, r5
 1911              	@ 0 "" 2
 1912              	.LVL185:
 1913              		.thumb
 1914              		.syntax unified
 1915              	.LBE291:
 1916              	.LBE290:
 1917              	.LBE289:
 1918              	.LBE288:
 1919              	.LBE287:
 1920              	.LBB292:
 1921              	.LBB293:
 1922              		.file 4 "/home/selim/working/ChibiOS/os/rt/include/chqueues.h"
 1923              		.loc 4 341 0 discriminator 1
 1924 004e 4FF0FF31 		mov	r1, #-1
 1925 0052 1248     		ldr	r0, .L97+4
 1926 0054 FFF7FEFF 		bl	chIQGetTimeout
 1927              	.LVL186:
 1928              	.LBE293:
 1929              	.LBE292:
 1930              	.LBB294:
 1931              	.LBB295:
 1932 0058 4FF0FF31 		mov	r1, #-1
 1933 005c 0F48     		ldr	r0, .L97+4
 1934 005e FFF7FEFF 		bl	chIQGetTimeout
 1935              	.LVL187:
 1936              	.LBE295:
 1937              	.LBE294:
 1938              	.LBB296:
ARM GAS  /tmp/cc2P83O2.s 			page 35


 1939              	.LBB297:
 1940 0062 4FF0FF31 		mov	r1, #-1
 1941 0066 0D48     		ldr	r0, .L97+4
 1942 0068 FFF7FEFF 		bl	chIQGetTimeout
 1943              	.LVL188:
 1944              	.LBE297:
 1945              	.LBE296:
 1946              	.LBB298:
 1947              	.LBB299:
 1948 006c 4FF0FF31 		mov	r1, #-1
 1949 0070 0A48     		ldr	r0, .L97+4
 1950 0072 FFF7FEFF 		bl	chIQGetTimeout
 1951              	.LVL189:
 1952              	.LBE299:
 1953              	.LBE298:
 1954              		.loc 1 482 0 discriminator 1
 1955 0076 3378     		ldrb	r3, [r6]	@ zero_extendqisi2
 1956              		.loc 1 478 0 discriminator 1
 1957 0078 0134     		adds	r4, r4, #1
 1958              	.LVL190:
 1959              		.loc 1 482 0 discriminator 1
 1960 007a 002B     		cmp	r3, #0
 1961 007c D2D0     		beq	.L93
 1962              		.loc 1 483 0
 1963 007e 0948     		ldr	r0, .L97+12
 1964 0080 FFF7FEFF 		bl	test_print
 1965              	.LVL191:
 1966              		.loc 1 484 0
 1967 0084 A000     		lsls	r0, r4, #2
 1968 0086 FFF7FEFF 		bl	test_printn
 1969              	.LVL192:
 1970              		.loc 1 485 0
 1971 008a 0748     		ldr	r0, .L97+16
 1972              		.loc 1 486 0
 1973 008c 02B0     		add	sp, sp, #8
 1974              		.cfi_def_cfa_offset 16
 1975              		@ sp needed
 1976 008e BDE87040 		pop	{r4, r5, r6, lr}
 1977              		.cfi_restore 14
 1978              		.cfi_restore 6
 1979              		.cfi_restore 5
 1980              		.cfi_restore 4
 1981              		.cfi_def_cfa_offset 0
 1982              	.LVL193:
 1983              		.loc 1 485 0
 1984 0092 FFF7FEBF 		b	test_println
 1985              	.LVL194:
 1986              	.L98:
 1987 0096 00BF     		.align	2
 1988              	.L97:
 1989 0098 00000000 		.word	.LANCHOR1
 1990 009c 00000000 		.word	.LANCHOR2
 1991 00a0 00000000 		.word	test_timer_done
 1992 00a4 A8000000 		.word	.LC11
 1993 00a8 F0000000 		.word	.LC16
 1994              		.cfi_endproc
 1995              	.LFE242:
ARM GAS  /tmp/cc2P83O2.s 			page 36


 1996              		.size	bmk9_execute, .-bmk9_execute
 1997              		.section	.text.bmk10_execute,"ax",%progbits
 1998              		.align	2
 1999              		.p2align 4,,15
 2000              		.thumb
 2001              		.thumb_func
 2002              		.type	bmk10_execute, %function
 2003              	bmk10_execute:
 2004              	.LFB244:
 2005              		.loc 1 507 0
 2006              		.cfi_startproc
 2007              		@ args = 0, pretend = 0, frame = 0
 2008              		@ frame_needed = 0, uses_anonymous_args = 0
 2009              	.LVL195:
 2010 0000 F8B5     		push	{r3, r4, r5, r6, r7, lr}
 2011              		.cfi_def_cfa_offset 24
 2012              		.cfi_offset 3, -24
 2013              		.cfi_offset 4, -20
 2014              		.cfi_offset 5, -16
 2015              		.cfi_offset 6, -12
 2016              		.cfi_offset 7, -8
 2017              		.cfi_offset 14, -4
 2018              		.loc 1 511 0
 2019 0002 FFF7FEFF 		bl	test_wait_tick
 2020              	.LVL196:
 2021              		.loc 1 512 0
 2022 0006 4FF47A70 		mov	r0, #1000
 2023 000a FFF7FEFF 		bl	test_start_timer
 2024              	.LVL197:
 2025              		.loc 1 509 0
 2026 000e 0024     		movs	r4, #0
 2027 0010 144F     		ldr	r7, .L104
 2028              		.loc 1 515 0
 2029 0012 2646     		mov	r6, r4
 2030              	.LBB300:
 2031              	.LBB301:
 2032              	.LBB302:
 2033              	.LBB303:
 2034              		.loc 3 546 0
 2035 0014 2025     		movs	r5, #32
 2036              	.LVL198:
 2037              	.L100:
 2038              		.loc 3 546 0 is_stmt 0 discriminator 1
 2039              		.syntax unified
 2040              	@ 546 "/home/selim/working/ChibiOS/os/ext/CMSIS/include/core_cmFunc.h" 1
 2041 0016 85F31188 		MSR basepri, r5
 2042              	@ 0 "" 2
 2043              	.LVL199:
 2044              		.thumb
 2045              		.syntax unified
 2046              	.LBE303:
 2047              	.LBE302:
 2048              	.LBE301:
 2049              	.LBE300:
 2050              		.loc 1 515 0 is_stmt 1 discriminator 1
 2051 001a 0023     		movs	r3, #0
 2052 001c 124A     		ldr	r2, .L104+4
ARM GAS  /tmp/cc2P83O2.s 			page 37


 2053 001e 1348     		ldr	r0, .L104+8
 2054 0020 0121     		movs	r1, #1
 2055 0022 FFF7FEFF 		bl	chVTDoSetI
 2056              	.LVL200:
 2057              		.loc 1 516 0 discriminator 1
 2058 0026 0023     		movs	r3, #0
 2059 0028 0F4A     		ldr	r2, .L104+4
 2060 002a 1148     		ldr	r0, .L104+12
 2061 002c 42F21071 		movw	r1, #10000
 2062 0030 FFF7FEFF 		bl	chVTDoSetI
 2063              	.LVL201:
 2064              		.loc 1 517 0 discriminator 1
 2065 0034 0D48     		ldr	r0, .L104+8
 2066 0036 FFF7FEFF 		bl	chVTDoResetI
 2067              	.LVL202:
 2068              		.loc 1 518 0 discriminator 1
 2069 003a 0D48     		ldr	r0, .L104+12
 2070 003c FFF7FEFF 		bl	chVTDoResetI
 2071              	.LVL203:
 2072              	.LBB304:
 2073              	.LBB305:
 2074              	.LBB306:
 2075              	.LBB307:
 2076              	.LBB308:
 2077              		.loc 3 546 0 discriminator 1
 2078              		.syntax unified
 2079              	@ 546 "/home/selim/working/ChibiOS/os/ext/CMSIS/include/core_cmFunc.h" 1
 2080 0040 86F31188 		MSR basepri, r6
 2081              	@ 0 "" 2
 2082              	.LVL204:
 2083              		.thumb
 2084              		.syntax unified
 2085              	.LBE308:
 2086              	.LBE307:
 2087              	.LBE306:
 2088              	.LBE305:
 2089              	.LBE304:
 2090              		.loc 1 524 0 discriminator 1
 2091 0044 3B78     		ldrb	r3, [r7]	@ zero_extendqisi2
 2092              		.loc 1 520 0 discriminator 1
 2093 0046 0134     		adds	r4, r4, #1
 2094              	.LVL205:
 2095              		.loc 1 524 0 discriminator 1
 2096 0048 002B     		cmp	r3, #0
 2097 004a E4D0     		beq	.L100
 2098              		.loc 1 525 0
 2099 004c 0948     		ldr	r0, .L104+16
 2100 004e FFF7FEFF 		bl	test_print
 2101              	.LVL206:
 2102              		.loc 1 526 0
 2103 0052 6000     		lsls	r0, r4, #1
 2104 0054 FFF7FEFF 		bl	test_printn
 2105              	.LVL207:
 2106              		.loc 1 527 0
 2107 0058 0748     		ldr	r0, .L104+20
 2108              		.loc 1 528 0
 2109 005a BDE8F840 		pop	{r3, r4, r5, r6, r7, lr}
ARM GAS  /tmp/cc2P83O2.s 			page 38


 2110              		.cfi_restore 14
 2111              		.cfi_restore 7
 2112              		.cfi_restore 6
 2113              		.cfi_restore 5
 2114              		.cfi_restore 4
 2115              		.cfi_restore 3
 2116              		.cfi_def_cfa_offset 0
 2117              	.LVL208:
 2118              		.loc 1 527 0
 2119 005e FFF7FEBF 		b	test_println
 2120              	.LVL209:
 2121              	.L105:
 2122 0062 00BF     		.align	2
 2123              	.L104:
 2124 0064 00000000 		.word	test_timer_done
 2125 0068 00000000 		.word	tmo
 2126 006c 00000000 		.word	.LANCHOR3
 2127 0070 00000000 		.word	.LANCHOR4
 2128 0074 A8000000 		.word	.LC11
 2129 0078 FC000000 		.word	.LC17
 2130              		.cfi_endproc
 2131              	.LFE244:
 2132              		.size	bmk10_execute, .-bmk10_execute
 2133              		.section	.text.bmk11_execute,"ax",%progbits
 2134              		.align	2
 2135              		.p2align 4,,15
 2136              		.thumb
 2137              		.thumb_func
 2138              		.type	bmk11_execute, %function
 2139              	bmk11_execute:
 2140              	.LFB246:
 2141              		.loc 1 553 0
 2142              		.cfi_startproc
 2143              		@ args = 0, pretend = 0, frame = 0
 2144              		@ frame_needed = 0, uses_anonymous_args = 0
 2145              	.LVL210:
 2146 0000 38B5     		push	{r3, r4, r5, lr}
 2147              		.cfi_def_cfa_offset 16
 2148              		.cfi_offset 3, -16
 2149              		.cfi_offset 4, -12
 2150              		.cfi_offset 5, -8
 2151              		.cfi_offset 14, -4
 2152              		.loc 1 556 0
 2153 0002 FFF7FEFF 		bl	test_wait_tick
 2154              	.LVL211:
 2155              		.loc 1 557 0
 2156 0006 4FF47A70 		mov	r0, #1000
 2157 000a FFF7FEFF 		bl	test_start_timer
 2158              	.LVL212:
 2159 000e 144D     		ldr	r5, .L111
 2160              		.loc 1 554 0
 2161 0010 0024     		movs	r4, #0
 2162              	.LVL213:
 2163              	.L107:
 2164              		.loc 1 559 0 discriminator 1
 2165 0012 1448     		ldr	r0, .L111+4
 2166 0014 FFF7FEFF 		bl	chSemWait
ARM GAS  /tmp/cc2P83O2.s 			page 39


 2167              	.LVL214:
 2168              		.loc 1 560 0 discriminator 1
 2169 0018 1248     		ldr	r0, .L111+4
 2170 001a FFF7FEFF 		bl	chSemSignal
 2171              	.LVL215:
 2172              		.loc 1 561 0 discriminator 1
 2173 001e 1148     		ldr	r0, .L111+4
 2174 0020 FFF7FEFF 		bl	chSemWait
 2175              	.LVL216:
 2176              		.loc 1 562 0 discriminator 1
 2177 0024 0F48     		ldr	r0, .L111+4
 2178 0026 FFF7FEFF 		bl	chSemSignal
 2179              	.LVL217:
 2180              		.loc 1 563 0 discriminator 1
 2181 002a 0E48     		ldr	r0, .L111+4
 2182 002c FFF7FEFF 		bl	chSemWait
 2183              	.LVL218:
 2184              		.loc 1 564 0 discriminator 1
 2185 0030 0C48     		ldr	r0, .L111+4
 2186 0032 FFF7FEFF 		bl	chSemSignal
 2187              	.LVL219:
 2188              		.loc 1 565 0 discriminator 1
 2189 0036 0B48     		ldr	r0, .L111+4
 2190 0038 FFF7FEFF 		bl	chSemWait
 2191              	.LVL220:
 2192              		.loc 1 566 0 discriminator 1
 2193 003c 0948     		ldr	r0, .L111+4
 2194 003e FFF7FEFF 		bl	chSemSignal
 2195              	.LVL221:
 2196              		.loc 1 571 0 discriminator 1
 2197 0042 2B78     		ldrb	r3, [r5]	@ zero_extendqisi2
 2198              		.loc 1 567 0 discriminator 1
 2199 0044 0134     		adds	r4, r4, #1
 2200              	.LVL222:
 2201              		.loc 1 571 0 discriminator 1
 2202 0046 002B     		cmp	r3, #0
 2203 0048 E3D0     		beq	.L107
 2204              		.loc 1 572 0
 2205 004a 0748     		ldr	r0, .L111+8
 2206 004c FFF7FEFF 		bl	test_print
 2207              	.LVL223:
 2208              		.loc 1 573 0
 2209 0050 A000     		lsls	r0, r4, #2
 2210 0052 FFF7FEFF 		bl	test_printn
 2211              	.LVL224:
 2212              		.loc 1 574 0
 2213 0056 0548     		ldr	r0, .L111+12
 2214              		.loc 1 575 0
 2215 0058 BDE83840 		pop	{r3, r4, r5, lr}
 2216              		.cfi_restore 14
 2217              		.cfi_restore 5
 2218              		.cfi_restore 4
 2219              		.cfi_restore 3
 2220              		.cfi_def_cfa_offset 0
 2221              	.LVL225:
 2222              		.loc 1 574 0
 2223 005c FFF7FEBF 		b	test_println
ARM GAS  /tmp/cc2P83O2.s 			page 40


 2224              	.LVL226:
 2225              	.L112:
 2226              		.align	2
 2227              	.L111:
 2228 0060 00000000 		.word	test_timer_done
 2229 0064 00000000 		.word	.LANCHOR0
 2230 0068 A8000000 		.word	.LC11
 2231 006c 08010000 		.word	.LC18
 2232              		.cfi_endproc
 2233              	.LFE246:
 2234              		.size	bmk11_execute, .-bmk11_execute
 2235              		.section	.text.bmk12_execute,"ax",%progbits
 2236              		.align	2
 2237              		.p2align 4,,15
 2238              		.thumb
 2239              		.thumb_func
 2240              		.type	bmk12_execute, %function
 2241              	bmk12_execute:
 2242              	.LFB248:
 2243              		.loc 1 601 0
 2244              		.cfi_startproc
 2245              		@ args = 0, pretend = 0, frame = 0
 2246              		@ frame_needed = 0, uses_anonymous_args = 0
 2247              	.LVL227:
 2248 0000 38B5     		push	{r3, r4, r5, lr}
 2249              		.cfi_def_cfa_offset 16
 2250              		.cfi_offset 3, -16
 2251              		.cfi_offset 4, -12
 2252              		.cfi_offset 5, -8
 2253              		.cfi_offset 14, -4
 2254              		.loc 1 604 0
 2255 0002 FFF7FEFF 		bl	test_wait_tick
 2256              	.LVL228:
 2257              		.loc 1 605 0
 2258 0006 4FF47A70 		mov	r0, #1000
 2259 000a FFF7FEFF 		bl	test_start_timer
 2260              	.LVL229:
 2261 000e 144D     		ldr	r5, .L118
 2262              		.loc 1 602 0
 2263 0010 0024     		movs	r4, #0
 2264              	.LVL230:
 2265              	.L114:
 2266              		.loc 1 607 0 discriminator 1
 2267 0012 1448     		ldr	r0, .L118+4
 2268 0014 FFF7FEFF 		bl	chMtxLock
 2269              	.LVL231:
 2270              		.loc 1 608 0 discriminator 1
 2271 0018 1248     		ldr	r0, .L118+4
 2272 001a FFF7FEFF 		bl	chMtxUnlock
 2273              	.LVL232:
 2274              		.loc 1 609 0 discriminator 1
 2275 001e 1148     		ldr	r0, .L118+4
 2276 0020 FFF7FEFF 		bl	chMtxLock
 2277              	.LVL233:
 2278              		.loc 1 610 0 discriminator 1
 2279 0024 0F48     		ldr	r0, .L118+4
 2280 0026 FFF7FEFF 		bl	chMtxUnlock
ARM GAS  /tmp/cc2P83O2.s 			page 41


 2281              	.LVL234:
 2282              		.loc 1 611 0 discriminator 1
 2283 002a 0E48     		ldr	r0, .L118+4
 2284 002c FFF7FEFF 		bl	chMtxLock
 2285              	.LVL235:
 2286              		.loc 1 612 0 discriminator 1
 2287 0030 0C48     		ldr	r0, .L118+4
 2288 0032 FFF7FEFF 		bl	chMtxUnlock
 2289              	.LVL236:
 2290              		.loc 1 613 0 discriminator 1
 2291 0036 0B48     		ldr	r0, .L118+4
 2292 0038 FFF7FEFF 		bl	chMtxLock
 2293              	.LVL237:
 2294              		.loc 1 614 0 discriminator 1
 2295 003c 0948     		ldr	r0, .L118+4
 2296 003e FFF7FEFF 		bl	chMtxUnlock
 2297              	.LVL238:
 2298              		.loc 1 619 0 discriminator 1
 2299 0042 2B78     		ldrb	r3, [r5]	@ zero_extendqisi2
 2300              		.loc 1 615 0 discriminator 1
 2301 0044 0134     		adds	r4, r4, #1
 2302              	.LVL239:
 2303              		.loc 1 619 0 discriminator 1
 2304 0046 002B     		cmp	r3, #0
 2305 0048 E3D0     		beq	.L114
 2306              		.loc 1 620 0
 2307 004a 0748     		ldr	r0, .L118+8
 2308 004c FFF7FEFF 		bl	test_print
 2309              	.LVL240:
 2310              		.loc 1 621 0
 2311 0050 A000     		lsls	r0, r4, #2
 2312 0052 FFF7FEFF 		bl	test_printn
 2313              	.LVL241:
 2314              		.loc 1 622 0
 2315 0056 0548     		ldr	r0, .L118+12
 2316              		.loc 1 623 0
 2317 0058 BDE83840 		pop	{r3, r4, r5, lr}
 2318              		.cfi_restore 14
 2319              		.cfi_restore 5
 2320              		.cfi_restore 4
 2321              		.cfi_restore 3
 2322              		.cfi_def_cfa_offset 0
 2323              	.LVL242:
 2324              		.loc 1 622 0
 2325 005c FFF7FEBF 		b	test_println
 2326              	.LVL243:
 2327              	.L119:
 2328              		.align	2
 2329              	.L118:
 2330 0060 00000000 		.word	test_timer_done
 2331 0064 00000000 		.word	.LANCHOR5
 2332 0068 A8000000 		.word	.LC11
 2333 006c 18010000 		.word	.LC19
 2334              		.cfi_endproc
 2335              	.LFE248:
 2336              		.size	bmk12_execute, .-bmk12_execute
 2337              		.section	.text.bmk12_setup,"ax",%progbits
ARM GAS  /tmp/cc2P83O2.s 			page 42


 2338              		.align	2
 2339              		.p2align 4,,15
 2340              		.thumb
 2341              		.thumb_func
 2342              		.type	bmk12_setup, %function
 2343              	bmk12_setup:
 2344              	.LFB247:
 2345              		.loc 1 596 0
 2346              		.cfi_startproc
 2347              		@ args = 0, pretend = 0, frame = 0
 2348              		@ frame_needed = 0, uses_anonymous_args = 0
 2349              		@ link register save eliminated.
 2350              		.loc 1 598 0
 2351 0000 0148     		ldr	r0, .L121
 2352 0002 FFF7FEBF 		b	chMtxObjectInit
 2353              	.LVL244:
 2354              	.L122:
 2355 0006 00BF     		.align	2
 2356              	.L121:
 2357 0008 00000000 		.word	.LANCHOR5
 2358              		.cfi_endproc
 2359              	.LFE247:
 2360              		.size	bmk12_setup, .-bmk12_setup
 2361              		.global	patternbmk
 2362              		.global	testbmk13
 2363              		.global	testbmk12
 2364              		.global	testbmk11
 2365              		.global	testbmk10
 2366              		.global	testbmk9
 2367              		.global	testbmk8
 2368              		.global	testbmk7
 2369              		.global	testbmk6
 2370              		.global	testbmk5
 2371              		.global	testbmk4
 2372              		.global	testbmk3
 2373              		.global	testbmk2
 2374              		.global	testbmk1
 2375              		.section	.rodata.testbmk8,"a",%progbits
 2376              		.align	2
 2377              		.type	testbmk8, %object
 2378              		.size	testbmk8, 16
 2379              	testbmk8:
 2380 0000 D0010000 		.word	.LC25
 2381 0004 00000000 		.word	0
 2382 0008 00000000 		.word	0
 2383 000c 00000000 		.word	bmk8_execute
 2384              		.section	.rodata.patternbmk,"a",%progbits
 2385              		.align	2
 2386              		.type	patternbmk, %object
 2387              		.size	patternbmk, 56
 2388              	patternbmk:
 2389 0000 00000000 		.word	testbmk1
 2390 0004 00000000 		.word	testbmk2
 2391 0008 00000000 		.word	testbmk3
 2392 000c 00000000 		.word	testbmk4
 2393 0010 00000000 		.word	testbmk5
 2394 0014 00000000 		.word	testbmk6
ARM GAS  /tmp/cc2P83O2.s 			page 43


 2395 0018 00000000 		.word	testbmk7
 2396 001c 00000000 		.word	testbmk8
 2397 0020 00000000 		.word	testbmk9
 2398 0024 00000000 		.word	testbmk10
 2399 0028 00000000 		.word	testbmk11
 2400 002c 00000000 		.word	testbmk12
 2401 0030 00000000 		.word	testbmk13
 2402 0034 00000000 		.word	0
 2403              		.section	.rodata.testbmk1,"a",%progbits
 2404              		.align	2
 2405              		.type	testbmk1, %object
 2406              		.size	testbmk1, 16
 2407              	testbmk1:
 2408 0000 B0020000 		.word	.LC32
 2409 0004 00000000 		.word	0
 2410 0008 00000000 		.word	0
 2411 000c 00000000 		.word	bmk1_execute
 2412              		.section	.rodata.testbmk2,"a",%progbits
 2413              		.align	2
 2414              		.type	testbmk2, %object
 2415              		.size	testbmk2, 16
 2416              	testbmk2:
 2417 0000 98020000 		.word	.LC31
 2418 0004 00000000 		.word	0
 2419 0008 00000000 		.word	0
 2420 000c 00000000 		.word	bmk2_execute
 2421              		.section	.rodata.testbmk9,"a",%progbits
 2422              		.align	2
 2423              		.type	testbmk9, %object
 2424              		.size	testbmk9, 16
 2425              	testbmk9:
 2426 0000 AC010000 		.word	.LC24
 2427 0004 00000000 		.word	0
 2428 0008 00000000 		.word	0
 2429 000c 00000000 		.word	bmk9_execute
 2430              		.section	.rodata.testbmk3,"a",%progbits
 2431              		.align	2
 2432              		.type	testbmk3, %object
 2433              		.size	testbmk3, 16
 2434              	testbmk3:
 2435 0000 80020000 		.word	.LC30
 2436 0004 00000000 		.word	0
 2437 0008 00000000 		.word	0
 2438 000c 00000000 		.word	bmk3_execute
 2439              		.section	.rodata.testbmk5,"a",%progbits
 2440              		.align	2
 2441              		.type	testbmk5, %object
 2442              		.size	testbmk5, 16
 2443              	testbmk5:
 2444 0000 44020000 		.word	.LC28
 2445 0004 00000000 		.word	0
 2446 0008 00000000 		.word	0
 2447 000c 00000000 		.word	bmk5_execute
 2448              		.section	.rodata.testbmk4,"a",%progbits
 2449              		.align	2
 2450              		.type	testbmk4, %object
 2451              		.size	testbmk4, 16
ARM GAS  /tmp/cc2P83O2.s 			page 44


 2452              	testbmk4:
 2453 0000 64020000 		.word	.LC29
 2454 0004 00000000 		.word	0
 2455 0008 00000000 		.word	0
 2456 000c 00000000 		.word	bmk4_execute
 2457              		.section	.bss.mtx1,"aw",%nobits
 2458              		.align	2
 2459              		.set	.LANCHOR5,. + 0
 2460              		.type	mtx1, %object
 2461              		.size	mtx1, 16
 2462              	mtx1:
 2463 0000 00000000 		.space	16
 2463      00000000 
 2463      00000000 
 2463      00000000 
 2464              		.section	.bss.ib.6734,"aw",%nobits
 2465              		.align	2
 2466              		.set	.LANCHOR1,. + 0
 2467              		.type	ib.6734, %object
 2468              		.size	ib.6734, 16
 2469              	ib.6734:
 2470 0000 00000000 		.space	16
 2470      00000000 
 2470      00000000 
 2470      00000000 
 2471              		.section	.rodata.str1.4,"aMS",%progbits,1
 2472              		.align	2
 2473              	.LC0:
 2474 0000 2D2D2D20 		.ascii	"--- System: \000"
 2474      53797374 
 2474      656D3A20 
 2474      00
 2475 000d 000000   		.space	3
 2476              	.LC1:
 2477 0010 20627974 		.ascii	" bytes\000"
 2477      657300
 2478 0017 00       		.space	1
 2479              	.LC2:
 2480 0018 2D2D2D20 		.ascii	"--- Thread: \000"
 2480      54687265 
 2480      61643A20 
 2480      00
 2481 0025 000000   		.space	3
 2482              	.LC3:
 2483 0028 2D2D2D20 		.ascii	"--- Timer : \000"
 2483      54696D65 
 2483      72203A20 
 2483      00
 2484 0035 000000   		.space	3
 2485              	.LC4:
 2486 0038 2D2D2D20 		.ascii	"--- Semaph: \000"
 2486      53656D61 
 2486      70683A20 
 2486      00
 2487 0045 000000   		.space	3
 2488              	.LC5:
 2489 0048 2D2D2D20 		.ascii	"--- EventS: \000"
ARM GAS  /tmp/cc2P83O2.s 			page 45


 2489      4576656E 
 2489      74533A20 
 2489      00
 2490 0055 000000   		.space	3
 2491              	.LC6:
 2492 0058 2D2D2D20 		.ascii	"--- EventL: \000"
 2492      4576656E 
 2492      744C3A20 
 2492      00
 2493 0065 000000   		.space	3
 2494              	.LC7:
 2495 0068 2D2D2D20 		.ascii	"--- Mutex : \000"
 2495      4D757465 
 2495      78203A20 
 2495      00
 2496 0075 000000   		.space	3
 2497              	.LC8:
 2498 0078 2D2D2D20 		.ascii	"--- CondV.: \000"
 2498      436F6E64 
 2498      562E3A20 
 2498      00
 2499 0085 000000   		.space	3
 2500              	.LC9:
 2501 0088 2D2D2D20 		.ascii	"--- Queue : \000"
 2501      51756575 
 2501      65203A20 
 2501      00
 2502 0095 000000   		.space	3
 2503              	.LC10:
 2504 0098 2D2D2D20 		.ascii	"--- MailB.: \000"
 2504      4D61696C 
 2504      422E3A20 
 2504      00
 2505 00a5 000000   		.space	3
 2506              	.LC11:
 2507 00a8 2D2D2D20 		.ascii	"--- Score : \000"
 2507      53636F72 
 2507      65203A20 
 2507      00
 2508 00b5 000000   		.space	3
 2509              	.LC12:
 2510 00b8 20746872 		.ascii	" threads/S\000"
 2510      65616473 
 2510      2F5300
 2511 00c3 00       		.space	1
 2512              	.LC13:
 2513 00c4 206D7367 		.ascii	" msgs/S, \000"
 2513      732F532C 
 2513      2000
 2514 00ce 0000     		.space	2
 2515              	.LC14:
 2516 00d0 20637478 		.ascii	" ctxswc/S\000"
 2516      7377632F 
 2516      5300
 2517 00da 0000     		.space	2
 2518              	.LC15:
 2519 00dc 20726573 		.ascii	" reschedules/S, \000"
ARM GAS  /tmp/cc2P83O2.s 			page 46


 2519      63686564 
 2519      756C6573 
 2519      2F532C20 
 2519      00
 2520 00ed 000000   		.space	3
 2521              	.LC16:
 2522 00f0 20627974 		.ascii	" bytes/S\000"
 2522      65732F53 
 2522      00
 2523 00f9 000000   		.space	3
 2524              	.LC17:
 2525 00fc 2074696D 		.ascii	" timers/S\000"
 2525      6572732F 
 2525      5300
 2526 0106 0000     		.space	2
 2527              	.LC18:
 2528 0108 20776169 		.ascii	" wait+signal/S\000"
 2528      742B7369 
 2528      676E616C 
 2528      2F5300
 2529 0117 00       		.space	1
 2530              	.LC19:
 2531 0118 206C6F63 		.ascii	" lock+unlock/S\000"
 2531      6B2B756E 
 2531      6C6F636B 
 2531      2F5300
 2532 0127 00       		.space	1
 2533              	.LC20:
 2534 0128 42656E63 		.ascii	"Benchmark, RAM footprint\000"
 2534      686D6172 
 2534      6B2C2052 
 2534      414D2066 
 2534      6F6F7470 
 2535 0141 000000   		.space	3
 2536              	.LC21:
 2537 0144 42656E63 		.ascii	"Benchmark, mutexes lock/unlock\000"
 2537      686D6172 
 2537      6B2C206D 
 2537      75746578 
 2537      6573206C 
 2538 0163 00       		.space	1
 2539              	.LC22:
 2540 0164 42656E63 		.ascii	"Benchmark, semaphores wait/signal\000"
 2540      686D6172 
 2540      6B2C2073 
 2540      656D6170 
 2540      686F7265 
 2541 0186 0000     		.space	2
 2542              	.LC23:
 2543 0188 42656E63 		.ascii	"Benchmark, virtual timers set/reset\000"
 2543      686D6172 
 2543      6B2C2076 
 2543      69727475 
 2543      616C2074 
 2544              	.LC24:
 2545 01ac 42656E63 		.ascii	"Benchmark, I/O Queues throughput\000"
 2545      686D6172 
ARM GAS  /tmp/cc2P83O2.s 			page 47


 2545      6B2C2049 
 2545      2F4F2051 
 2545      75657565 
 2546 01cd 000000   		.space	3
 2547              	.LC25:
 2548 01d0 42656E63 		.ascii	"Benchmark, round robin context switching\000"
 2548      686D6172 
 2548      6B2C2072 
 2548      6F756E64 
 2548      20726F62 
 2549 01f9 000000   		.space	3
 2550              	.LC26:
 2551 01fc 42656E63 		.ascii	"Benchmark, mass reschedule, 5 threads\000"
 2551      686D6172 
 2551      6B2C206D 
 2551      61737320 
 2551      72657363 
 2552 0222 0000     		.space	2
 2553              	.LC27:
 2554 0224 42656E63 		.ascii	"Benchmark, threads, create only\000"
 2554      686D6172 
 2554      6B2C2074 
 2554      68726561 
 2554      64732C20 
 2555              	.LC28:
 2556 0244 42656E63 		.ascii	"Benchmark, threads, full cycle\000"
 2556      686D6172 
 2556      6B2C2074 
 2556      68726561 
 2556      64732C20 
 2557 0263 00       		.space	1
 2558              	.LC29:
 2559 0264 42656E63 		.ascii	"Benchmark, context switch\000"
 2559      686D6172 
 2559      6B2C2063 
 2559      6F6E7465 
 2559      78742073 
 2560 027e 0000     		.space	2
 2561              	.LC30:
 2562 0280 42656E63 		.ascii	"Benchmark, messages #3\000"
 2562      686D6172 
 2562      6B2C206D 
 2562      65737361 
 2562      67657320 
 2563 0297 00       		.space	1
 2564              	.LC31:
 2565 0298 42656E63 		.ascii	"Benchmark, messages #2\000"
 2565      686D6172 
 2565      6B2C206D 
 2565      65737361 
 2565      67657320 
 2566 02af 00       		.space	1
 2567              	.LC32:
 2568 02b0 42656E63 		.ascii	"Benchmark, messages #1\000"
 2568      686D6172 
 2568      6B2C206D 
 2568      65737361 
ARM GAS  /tmp/cc2P83O2.s 			page 48


 2568      67657320 
 2569              		.section	.bss.vt1.6745,"aw",%nobits
 2570              		.align	2
 2571              		.set	.LANCHOR3,. + 0
 2572              		.type	vt1.6745, %object
 2573              		.size	vt1.6745, 20
 2574              	vt1.6745:
 2575 0000 00000000 		.space	20
 2575      00000000 
 2575      00000000 
 2575      00000000 
 2575      00000000 
 2576              		.section	.bss.vt2.6746,"aw",%nobits
 2577              		.align	2
 2578              		.set	.LANCHOR4,. + 0
 2579              		.type	vt2.6746, %object
 2580              		.size	vt2.6746, 20
 2581              	vt2.6746:
 2582 0000 00000000 		.space	20
 2582      00000000 
 2582      00000000 
 2582      00000000 
 2582      00000000 
 2583              		.section	.bss.sem1,"aw",%nobits
 2584              		.align	2
 2585              		.set	.LANCHOR0,. + 0
 2586              		.type	sem1, %object
 2587              		.size	sem1, 12
 2588              	sem1:
 2589 0000 00000000 		.space	12
 2589      00000000 
 2589      00000000 
 2590              		.section	.rodata.testbmk10,"a",%progbits
 2591              		.align	2
 2592              		.type	testbmk10, %object
 2593              		.size	testbmk10, 16
 2594              	testbmk10:
 2595 0000 88010000 		.word	.LC23
 2596 0004 00000000 		.word	0
 2597 0008 00000000 		.word	0
 2598 000c 00000000 		.word	bmk10_execute
 2599              		.section	.rodata.testbmk11,"a",%progbits
 2600              		.align	2
 2601              		.type	testbmk11, %object
 2602              		.size	testbmk11, 16
 2603              	testbmk11:
 2604 0000 64010000 		.word	.LC22
 2605 0004 00000000 		.word	bmk11_setup
 2606 0008 00000000 		.word	0
 2607 000c 00000000 		.word	bmk11_execute
 2608              		.section	.rodata.testbmk12,"a",%progbits
 2609              		.align	2
 2610              		.type	testbmk12, %object
 2611              		.size	testbmk12, 16
 2612              	testbmk12:
 2613 0000 44010000 		.word	.LC21
 2614 0004 00000000 		.word	bmk12_setup
ARM GAS  /tmp/cc2P83O2.s 			page 49


 2615 0008 00000000 		.word	0
 2616 000c 00000000 		.word	bmk12_execute
 2617              		.section	.rodata.testbmk13,"a",%progbits
 2618              		.align	2
 2619              		.type	testbmk13, %object
 2620              		.size	testbmk13, 16
 2621              	testbmk13:
 2622 0000 28010000 		.word	.LC20
 2623 0004 00000000 		.word	0
 2624 0008 00000000 		.word	0
 2625 000c 00000000 		.word	bmk13_execute
 2626              		.section	.bss.iq.6735,"aw",%nobits
 2627              		.align	2
 2628              		.set	.LANCHOR2,. + 0
 2629              		.type	iq.6735, %object
 2630              		.size	iq.6735, 36
 2631              	iq.6735:
 2632 0000 00000000 		.space	36
 2632      00000000 
 2632      00000000 
 2632      00000000 
 2632      00000000 
 2633              		.section	.rodata.testbmk6,"a",%progbits
 2634              		.align	2
 2635              		.type	testbmk6, %object
 2636              		.size	testbmk6, 16
 2637              	testbmk6:
 2638 0000 24020000 		.word	.LC27
 2639 0004 00000000 		.word	0
 2640 0008 00000000 		.word	0
 2641 000c 00000000 		.word	bmk6_execute
 2642              		.section	.rodata.testbmk7,"a",%progbits
 2643              		.align	2
 2644              		.type	testbmk7, %object
 2645              		.size	testbmk7, 16
 2646              	testbmk7:
 2647 0000 FC010000 		.word	.LC26
 2648 0004 00000000 		.word	bmk7_setup
 2649 0008 00000000 		.word	0
 2650 000c 00000000 		.word	bmk7_execute
 2651              		.text
 2652              	.Letext0:
 2653              		.file 5 "/usr/lib/gcc/arm-none-eabi/5.3.1/include/stddef.h"
 2654              		.file 6 "/usr/arm-none-eabi/include/machine/_default_types.h"
 2655              		.file 7 "/usr/arm-none-eabi/include/sys/_stdint.h"
 2656              		.file 8 "/home/selim/working/ChibiOS/os/rt/ports/ARMCMx/compilers/GCC/chtypes.h"
 2657              		.file 9 "/home/selim/working/ChibiOS/os/rt/include/chsystypes.h"
 2658              		.file 10 "/home/selim/working/ChibiOS/os/rt/include/chschd.h"
 2659              		.file 11 "/home/selim/working/ChibiOS/os/rt/ports/ARMCMx/chcore.h"
 2660              		.file 12 "/home/selim/working/ChibiOS/os/rt/ports/ARMCMx/chcore_v7m.h"
 2661              		.file 13 "/home/selim/working/ChibiOS/os/rt/include/chtm.h"
 2662              		.file 14 "/home/selim/working/ChibiOS/os/rt/include/chsem.h"
 2663              		.file 15 "/home/selim/working/ChibiOS/os/rt/include/chmtx.h"
 2664              		.file 16 "/home/selim/working/ChibiOS/test/rt/test.h"
 2665              		.file 17 "/home/selim/working/ChibiOS/os/rt/include/chsys.h"
 2666              		.file 18 "/home/selim/working/ChibiOS/os/rt/include/chmsg.h"
 2667              		.file 19 "/home/selim/working/ChibiOS/os/ext/CMSIS/include/core_cm4.h"
ARM GAS  /tmp/cc2P83O2.s 			page 50


 2668              		.file 20 "/home/selim/working/ChibiOS/os/rt/include/chvt.h"