ARM GAS  /tmp/cc0ISoZf.s 			page 1


   1              		.syntax unified
   2              		.cpu cortex-m4
   3              		.fpu softvfp
   4              		.eabi_attribute 20, 1
   5              		.eabi_attribute 21, 1
   6              		.eabi_attribute 23, 3
   7              		.eabi_attribute 24, 1
   8              		.eabi_attribute 25, 1
   9              		.eabi_attribute 26, 1
  10              		.eabi_attribute 30, 2
  11              		.eabi_attribute 34, 1
  12              		.eabi_attribute 18, 4
  13              		.thumb
  14              		.syntax unified
  15              		.file	"testevt.c"
  16              		.text
  17              	.Ltext0:
  18              		.cfi_sections	.debug_frame
  19              		.section	.text.h3,"ax",%progbits
  20              		.align	2
  21              		.p2align 4,,15
  22              		.thumb
  23              		.thumb_func
  24              		.type	h3, %function
  25              	h3:
  26              	.LFB230:
  27              		.file 1 "/home/selim/working/ChibiOS/test/rt/testevt.c"
  28              		.loc 1 82 0
  29              		.cfi_startproc
  30              		@ args = 0, pretend = 0, frame = 0
  31              		@ frame_needed = 0, uses_anonymous_args = 0
  32              		@ link register save eliminated.
  33              	.LVL0:
  34              		.loc 1 82 0
  35 0000 4320     		movs	r0, #67
  36              	.LVL1:
  37 0002 FFF7FEBF 		b	test_emit_token
  38              	.LVL2:
  39              		.cfi_endproc
  40              	.LFE230:
  41              		.size	h3, .-h3
  42 0006 00BF     		.section	.text.h2,"ax",%progbits
  43              		.align	2
  44              		.p2align 4,,15
  45              		.thumb
  46              		.thumb_func
  47              		.type	h2, %function
  48              	h2:
  49              	.LFB229:
  50              		.loc 1 81 0
  51              		.cfi_startproc
  52              		@ args = 0, pretend = 0, frame = 0
  53              		@ frame_needed = 0, uses_anonymous_args = 0
  54              		@ link register save eliminated.
  55              	.LVL3:
  56              		.loc 1 81 0
  57 0000 4220     		movs	r0, #66
ARM GAS  /tmp/cc0ISoZf.s 			page 2


  58              	.LVL4:
  59 0002 FFF7FEBF 		b	test_emit_token
  60              	.LVL5:
  61              		.cfi_endproc
  62              	.LFE229:
  63              		.size	h2, .-h2
  64 0006 00BF     		.section	.text.h1,"ax",%progbits
  65              		.align	2
  66              		.p2align 4,,15
  67              		.thumb
  68              		.thumb_func
  69              		.type	h1, %function
  70              	h1:
  71              	.LFB228:
  72              		.loc 1 80 0
  73              		.cfi_startproc
  74              		@ args = 0, pretend = 0, frame = 0
  75              		@ frame_needed = 0, uses_anonymous_args = 0
  76              		@ link register save eliminated.
  77              	.LVL6:
  78              		.loc 1 80 0
  79 0000 4120     		movs	r0, #65
  80              	.LVL7:
  81 0002 FFF7FEBF 		b	test_emit_token
  82              	.LVL8:
  83              		.cfi_endproc
  84              	.LFE228:
  85              		.size	h1, .-h1
  86 0006 00BF     		.section	.text.evt1_execute,"ax",%progbits
  87              		.align	2
  88              		.p2align 4,,15
  89              		.thumb
  90              		.thumb_func
  91              		.type	evt1_execute, %function
  92              	evt1_execute:
  93              	.LFB231:
  94              		.loc 1 85 0
  95              		.cfi_startproc
  96              		@ args = 0, pretend = 0, frame = 40
  97              		@ frame_needed = 0, uses_anonymous_args = 0
  98              	.LVL9:
  99 0000 10B5     		push	{r4, lr}
 100              		.cfi_def_cfa_offset 8
 101              		.cfi_offset 4, -8
 102              		.cfi_offset 14, -4
 103              	.LBB126:
 104              	.LBB127:
 105              		.file 2 "/home/selim/working/ChibiOS/os/rt/include/chevents.h"
 106              		.loc 2 172 0
 107 0002 1F4C     		ldr	r4, .L10
 108              	.LBE127:
 109              	.LBE126:
 110              		.loc 1 85 0
 111 0004 8AB0     		sub	sp, sp, #40
 112              		.cfi_def_cfa_offset 48
 113              	.LBB129:
 114              	.LBB130:
ARM GAS  /tmp/cc0ISoZf.s 			page 3


 115              		.loc 2 193 0
 116 0006 2046     		mov	r0, r4
 117 0008 6946     		mov	r1, sp
 118 000a 4FF0FF33 		mov	r3, #-1
 119 000e 0122     		movs	r2, #1
 120              	.LBE130:
 121              	.LBE129:
 122              	.LBB132:
 123              	.LBB128:
 124              		.loc 2 172 0
 125 0010 2460     		str	r4, [r4]
 126              	.LVL10:
 127              	.LBE128:
 128              	.LBE132:
 129              	.LBB133:
 130              	.LBB131:
 131              		.loc 2 193 0
 132 0012 FFF7FEFF 		bl	chEvtRegisterMaskWithFlags
 133              	.LVL11:
 134              	.LBE131:
 135              	.LBE133:
 136              	.LBB134:
 137              	.LBB135:
 138 0016 2046     		mov	r0, r4
 139 0018 05A9     		add	r1, sp, #20
 140              	.LVL12:
 141 001a 4FF0FF33 		mov	r3, #-1
 142 001e 0222     		movs	r2, #2
 143 0020 FFF7FEFF 		bl	chEvtRegisterMaskWithFlags
 144              	.LVL13:
 145              	.LBE135:
 146              	.LBE134:
 147              		.loc 1 94 0
 148 0024 2168     		ldr	r1, [r4]
 149 0026 091B     		subs	r1, r1, r4
 150 0028 18BF     		it	ne
 151 002a 0121     		movne	r1, #1
 152 002c 0120     		movs	r0, #1
 153 002e FFF7FEFF 		bl	_test_assert
 154              	.LVL14:
 155 0032 08B1     		cbz	r0, .L9
 156              	.L4:
 157              		.loc 1 105 0
 158 0034 0AB0     		add	sp, sp, #40
 159              		.cfi_remember_state
 160              		.cfi_def_cfa_offset 8
 161              		@ sp needed
 162 0036 10BD     		pop	{r4, pc}
 163              	.L9:
 164              		.cfi_restore_state
 165              		.loc 1 95 0
 166 0038 6946     		mov	r1, sp
 167 003a 2046     		mov	r0, r4
 168 003c FFF7FEFF 		bl	chEvtUnregister
 169              	.LVL15:
 170              		.loc 1 96 0
 171 0040 2168     		ldr	r1, [r4]
ARM GAS  /tmp/cc0ISoZf.s 			page 4


 172 0042 091B     		subs	r1, r1, r4
 173 0044 18BF     		it	ne
 174 0046 0121     		movne	r1, #1
 175 0048 0220     		movs	r0, #2
 176 004a FFF7FEFF 		bl	_test_assert
 177              	.LVL16:
 178 004e 0028     		cmp	r0, #0
 179 0050 F0D1     		bne	.L4
 180              		.loc 1 97 0
 181 0052 05A9     		add	r1, sp, #20
 182 0054 2046     		mov	r0, r4
 183 0056 FFF7FEFF 		bl	chEvtUnregister
 184              	.LVL17:
 185              		.loc 1 98 0
 186 005a 2168     		ldr	r1, [r4]
 187 005c 091B     		subs	r1, r1, r4
 188 005e B1FA81F1 		clz	r1, r1
 189 0062 0320     		movs	r0, #3
 190 0064 4909     		lsrs	r1, r1, #5
 191 0066 FFF7FEFF 		bl	_test_assert
 192              	.LVL18:
 193 006a 0028     		cmp	r0, #0
 194 006c E2D1     		bne	.L4
 195              		.loc 1 103 0
 196 006e 0721     		movs	r1, #7
 197 0070 0448     		ldr	r0, .L10+4
 198 0072 FFF7FEFF 		bl	chEvtDispatch
 199              	.LVL19:
 200              		.loc 1 104 0
 201 0076 0449     		ldr	r1, .L10+8
 202 0078 0420     		movs	r0, #4
 203 007a FFF7FEFF 		bl	_test_assert_sequence
 204              	.LVL20:
 205 007e D9E7     		b	.L4
 206              	.L11:
 207              		.align	2
 208              	.L10:
 209 0080 00000000 		.word	.LANCHOR0
 210 0084 00000000 		.word	.LANCHOR1
 211 0088 00000000 		.word	.LC0
 212              		.cfi_endproc
 213              	.LFE231:
 214              		.size	evt1_execute, .-evt1_execute
 215              		.section	.text.evt3_setup,"ax",%progbits
 216              		.align	2
 217              		.p2align 4,,15
 218              		.thumb
 219              		.thumb_func
 220              		.type	evt3_setup, %function
 221              	evt3_setup:
 222              	.LFB236:
 223              		.loc 1 247 0
 224              		.cfi_startproc
 225              		@ args = 0, pretend = 0, frame = 0
 226              		@ frame_needed = 0, uses_anonymous_args = 0
 227              		@ link register save eliminated.
 228              		.loc 1 249 0
ARM GAS  /tmp/cc0ISoZf.s 			page 5


 229 0000 4FF0FF30 		mov	r0, #-1
 230 0004 FFF7FEBF 		b	chEvtGetAndClearEvents
 231              	.LVL21:
 232              		.cfi_endproc
 233              	.LFE236:
 234              		.size	evt3_setup, .-evt3_setup
 235              		.section	.text.evt2_setup,"ax",%progbits
 236              		.align	2
 237              		.p2align 4,,15
 238              		.thumb
 239              		.thumb_func
 240              		.type	evt2_setup, %function
 241              	evt2_setup:
 242              	.LFB240:
 243              		.cfi_startproc
 244              		@ args = 0, pretend = 0, frame = 0
 245              		@ frame_needed = 0, uses_anonymous_args = 0
 246              		@ link register save eliminated.
 247 0000 FFF7FEBF 		b	evt3_setup
 248              		.cfi_endproc
 249              	.LFE240:
 250              		.size	evt2_setup, .-evt2_setup
 251              		.section	.text.evt1_setup,"ax",%progbits
 252              		.align	2
 253              		.p2align 4,,15
 254              		.thumb
 255              		.thumb_func
 256              		.type	evt1_setup, %function
 257              	evt1_setup:
 258              	.LFB242:
 259              		.cfi_startproc
 260              		@ args = 0, pretend = 0, frame = 0
 261              		@ frame_needed = 0, uses_anonymous_args = 0
 262              		@ link register save eliminated.
 263 0000 FFF7FEBF 		b	evt3_setup
 264              		.cfi_endproc
 265              	.LFE242:
 266              		.size	evt1_setup, .-evt1_setup
 267              		.section	.text.evt2_execute,"ax",%progbits
 268              		.align	2
 269              		.p2align 4,,15
 270              		.thumb
 271              		.thumb_func
 272              		.type	evt2_execute, %function
 273              	evt2_execute:
 274              	.LFB235:
 275              		.loc 1 147 0
 276              		.cfi_startproc
 277              		@ args = 0, pretend = 0, frame = 40
 278              		@ frame_needed = 0, uses_anonymous_args = 0
 279              		.loc 1 147 0
 280 0000 2DE9F04F 		push	{r4, r5, r6, r7, r8, r9, r10, fp, lr}
 281              		.cfi_def_cfa_offset 36
 282              		.cfi_offset 4, -36
 283              		.cfi_offset 5, -32
 284              		.cfi_offset 6, -28
 285              		.cfi_offset 7, -24
ARM GAS  /tmp/cc0ISoZf.s 			page 6


 286              		.cfi_offset 8, -20
 287              		.cfi_offset 9, -16
 288              		.cfi_offset 10, -12
 289              		.cfi_offset 11, -8
 290              		.cfi_offset 14, -4
 291              		.loc 1 155 0
 292 0004 0720     		movs	r0, #7
 293              		.loc 1 147 0
 294 0006 8DB0     		sub	sp, sp, #52
 295              		.cfi_def_cfa_offset 88
 296              		.loc 1 155 0
 297 0008 FFF7FEFF 		bl	chEvtAddEvents
 298              	.LVL22:
 299              		.loc 1 156 0
 300 000c 4FF0FF30 		mov	r0, #-1
 301 0010 FFF7FEFF 		bl	chEvtWaitOne
 302              	.LVL23:
 303              		.loc 1 157 0
 304 0014 A0F10101 		sub	r1, r0, #1
 305 0018 B1FA81F1 		clz	r1, r1
 306 001c 4909     		lsrs	r1, r1, #5
 307 001e 0120     		movs	r0, #1
 308              	.LVL24:
 309 0020 FFF7FEFF 		bl	_test_assert
 310              	.LVL25:
 311 0024 10B1     		cbz	r0, .L19
 312              	.L15:
 313              		.loc 1 222 0
 314 0026 0DB0     		add	sp, sp, #52
 315              		.cfi_remember_state
 316              		.cfi_def_cfa_offset 36
 317              		@ sp needed
 318 0028 BDE8F08F 		pop	{r4, r5, r6, r7, r8, r9, r10, fp, pc}
 319              	.L19:
 320              		.cfi_restore_state
 321              		.loc 1 158 0
 322 002c 4FF0FF30 		mov	r0, #-1
 323 0030 FFF7FEFF 		bl	chEvtWaitOne
 324              	.LVL26:
 325              		.loc 1 159 0
 326 0034 A0F10201 		sub	r1, r0, #2
 327 0038 B1FA81F1 		clz	r1, r1
 328 003c 4909     		lsrs	r1, r1, #5
 329 003e 0220     		movs	r0, #2
 330              	.LVL27:
 331 0040 FFF7FEFF 		bl	_test_assert
 332              	.LVL28:
 333 0044 0028     		cmp	r0, #0
 334 0046 EED1     		bne	.L15
 335              		.loc 1 160 0
 336 0048 4FF0FF30 		mov	r0, #-1
 337 004c FFF7FEFF 		bl	chEvtWaitOne
 338              	.LVL29:
 339              		.loc 1 161 0
 340 0050 A0F10401 		sub	r1, r0, #4
 341 0054 B1FA81F1 		clz	r1, r1
 342 0058 4909     		lsrs	r1, r1, #5
ARM GAS  /tmp/cc0ISoZf.s 			page 7


 343 005a 0320     		movs	r0, #3
 344              	.LVL30:
 345 005c FFF7FEFF 		bl	_test_assert
 346              	.LVL31:
 347 0060 0028     		cmp	r0, #0
 348 0062 E0D1     		bne	.L15
 349              		.loc 1 162 0
 350 0064 4FF0FF30 		mov	r0, #-1
 351 0068 FFF7FEFF 		bl	chEvtGetAndClearEvents
 352              	.LVL32:
 353              		.loc 1 163 0
 354 006c B0FA80F1 		clz	r1, r0
 355 0070 4909     		lsrs	r1, r1, #5
 356 0072 0420     		movs	r0, #4
 357              	.LVL33:
 358 0074 FFF7FEFF 		bl	_test_assert
 359              	.LVL34:
 360 0078 0446     		mov	r4, r0
 361 007a 0028     		cmp	r0, #0
 362 007c D3D1     		bne	.L15
 363              		.loc 1 168 0
 364 007e FFF7FEFF 		bl	test_wait_tick
 365              	.LVL35:
 366              	.LBB136:
 367              	.LBB137:
 368              	.LBB138:
 369              	.LBB139:
 370              	.LBB140:
 371              	.LBB141:
 372              		.file 3 "/home/selim/working/ChibiOS/os/ext/CMSIS/include/core_cmFunc.h"
 373              		.loc 3 546 0
 374 0082 4FF02009 		mov	r9, #32
 375              		.syntax unified
 376              	@ 546 "/home/selim/working/ChibiOS/os/ext/CMSIS/include/core_cmFunc.h" 1
 377 0086 89F31188 		MSR basepri, r9
 378              	@ 0 "" 2
 379              	.LVL36:
 380              		.thumb
 381              		.syntax unified
 382              	.LBE141:
 383              	.LBE140:
 384              	.LBE139:
 385              	.LBE138:
 386              	.LBB142:
 387              	.LBB143:
 388              	.LBB144:
 389              	.LBB145:
 390              		.file 4 "/home/selim/working/ChibiOS/os/hal/ports/STM32/LLD/TIMv1/st_lld.h"
 391              		.loc 4 129 0
 392 008a 4FF08048 		mov	r8, #1073741824
 393 008e D8F82450 		ldr	r5, [r8, #36]
 394              	.LVL37:
 395              	.LBE145:
 396              	.LBE144:
 397              	.LBE143:
 398              	.LBE142:
 399              	.LBB146:
ARM GAS  /tmp/cc0ISoZf.s 			page 8


 400              	.LBB147:
 401              	.LBB148:
 402              	.LBB149:
 403              	.LBB150:
 404              		.loc 3 546 0
 405              		.syntax unified
 406              	@ 546 "/home/selim/working/ChibiOS/os/ext/CMSIS/include/core_cmFunc.h" 1
 407 0092 84F31188 		MSR basepri, r4
 408              	@ 0 "" 2
 409              	.LVL38:
 410              		.thumb
 411              		.syntax unified
 412              	.LBE150:
 413              	.LBE149:
 414              	.LBE148:
 415              	.LBE147:
 416              	.LBE146:
 417              	.LBE137:
 418              	.LBE136:
 419              	.LBB151:
 420              	.LBB152:
 421              	.LBB153:
 422              	.LBB154:
 423              		.file 5 "/home/selim/working/ChibiOS/os/rt/include/chthreads.h"
 424              		.loc 5 176 0
 425 0096 764F     		ldr	r7, .L20
 426              	.LBE154:
 427              	.LBE153:
 428              	.LBE152:
 429              	.LBE151:
 430              		.loc 1 170 0
 431 0098 DFF8F0A1 		ldr	r10, .L20+28
 432              	.LBB158:
 433              	.LBB157:
 434              	.LBB156:
 435              	.LBB155:
 436              		.loc 5 176 0
 437 009c B969     		ldr	r1, [r7, #24]
 438              	.LBE155:
 439              	.LBE156:
 440              	.LBE157:
 441              	.LBE158:
 442              		.loc 1 170 0
 443 009e DAF80060 		ldr	r6, [r10]
 444 00a2 8A68     		ldr	r2, [r1, #8]
 445 00a4 734B     		ldr	r3, .L20+4
 446 00a6 0091     		str	r1, [sp]
 447 00a8 013A     		subs	r2, r2, #1
 448 00aa 4FF4A471 		mov	r1, #328
 449 00ae 3046     		mov	r0, r6
 450 00b0 FFF7FEFF 		bl	chThdCreateStatic
 451              	.LVL39:
 452 00b4 704C     		ldr	r4, .L20+8
 453 00b6 2060     		str	r0, [r4]
 454              		.loc 1 172 0
 455 00b8 4FF0FF30 		mov	r0, #-1
 456 00bc FFF7FEFF 		bl	chEvtWaitOne
ARM GAS  /tmp/cc0ISoZf.s 			page 9


 457              	.LVL40:
 458              		.loc 1 173 0
 459 00c0 05F22622 		addw	r2, r5, #550
 460              		.loc 1 172 0
 461 00c4 8346     		mov	fp, r0
 462              	.LVL41:
 463              		.loc 1 173 0
 464 00c6 05F5FA71 		add	r1, r5, #500
 465              	.LVL42:
 466 00ca 0520     		movs	r0, #5
 467              	.LVL43:
 468 00cc FFF7FEFF 		bl	_test_assert_time_window
 469              	.LVL44:
 470 00d0 0028     		cmp	r0, #0
 471 00d2 A8D1     		bne	.L15
 472              		.loc 1 174 0
 473 00d4 ABF10101 		sub	r1, fp, #1
 474 00d8 B1FA81F1 		clz	r1, r1
 475 00dc 4909     		lsrs	r1, r1, #5
 476 00de 0620     		movs	r0, #6
 477 00e0 FFF7FEFF 		bl	_test_assert
 478              	.LVL45:
 479 00e4 0028     		cmp	r0, #0
 480 00e6 9ED1     		bne	.L15
 481              		.loc 1 175 0
 482 00e8 4FF0FF30 		mov	r0, #-1
 483 00ec FFF7FEFF 		bl	chEvtGetAndClearEvents
 484              	.LVL46:
 485              		.loc 1 176 0
 486 00f0 B0FA80F1 		clz	r1, r0
 487 00f4 4909     		lsrs	r1, r1, #5
 488 00f6 0720     		movs	r0, #7
 489              	.LVL47:
 490 00f8 FFF7FEFF 		bl	_test_assert
 491              	.LVL48:
 492 00fc 0028     		cmp	r0, #0
 493 00fe 92D1     		bne	.L15
 494              		.loc 1 177 0
 495 0100 FFF7FEFF 		bl	test_wait_threads
 496              	.LVL49:
 497              		.loc 1 182 0
 498 0104 0520     		movs	r0, #5
 499 0106 FFF7FEFF 		bl	chEvtAddEvents
 500              	.LVL50:
 501              		.loc 1 183 0
 502 010a 4FF0FF30 		mov	r0, #-1
 503 010e FFF7FEFF 		bl	chEvtWaitAny
 504              	.LVL51:
 505              		.loc 1 184 0
 506 0112 451F     		subs	r5, r0, #5
 507              	.LVL52:
 508 0114 6942     		rsbs	r1, r5, #0
 509 0116 6941     		adcs	r1, r1, r5
 510 0118 0820     		movs	r0, #8
 511              	.LVL53:
 512 011a FFF7FEFF 		bl	_test_assert
 513              	.LVL54:
ARM GAS  /tmp/cc0ISoZf.s 			page 10


 514 011e 0028     		cmp	r0, #0
 515 0120 81D1     		bne	.L15
 516              		.loc 1 185 0
 517 0122 4FF0FF30 		mov	r0, #-1
 518 0126 FFF7FEFF 		bl	chEvtGetAndClearEvents
 519              	.LVL55:
 520              		.loc 1 186 0
 521 012a B0FA80F1 		clz	r1, r0
 522 012e 4909     		lsrs	r1, r1, #5
 523 0130 0920     		movs	r0, #9
 524              	.LVL56:
 525 0132 FFF7FEFF 		bl	_test_assert
 526              	.LVL57:
 527 0136 8346     		mov	fp, r0
 528 0138 0028     		cmp	r0, #0
 529 013a 7FF474AF 		bne	.L15
 530              		.loc 1 191 0
 531 013e FFF7FEFF 		bl	test_wait_tick
 532              	.LVL58:
 533              	.LBB159:
 534              	.LBB160:
 535              	.LBB161:
 536              	.LBB162:
 537              	.LBB163:
 538              	.LBB164:
 539              		.loc 3 546 0
 540              		.syntax unified
 541              	@ 546 "/home/selim/working/ChibiOS/os/ext/CMSIS/include/core_cmFunc.h" 1
 542 0142 89F31188 		MSR basepri, r9
 543              	@ 0 "" 2
 544              	.LVL59:
 545              		.thumb
 546              		.syntax unified
 547              	.LBE164:
 548              	.LBE163:
 549              	.LBE162:
 550              	.LBE161:
 551              	.LBB165:
 552              	.LBB166:
 553              	.LBB167:
 554              	.LBB168:
 555              		.loc 4 129 0
 556 0146 D8F82450 		ldr	r5, [r8, #36]
 557              	.LVL60:
 558              	.LBE168:
 559              	.LBE167:
 560              	.LBE166:
 561              	.LBE165:
 562              	.LBB169:
 563              	.LBB170:
 564              	.LBB171:
 565              	.LBB172:
 566              	.LBB173:
 567              		.loc 3 546 0
 568              		.syntax unified
 569              	@ 546 "/home/selim/working/ChibiOS/os/ext/CMSIS/include/core_cmFunc.h" 1
 570 014a 8BF31188 		MSR basepri, fp
ARM GAS  /tmp/cc0ISoZf.s 			page 11


 571              	@ 0 "" 2
 572              	.LVL61:
 573              		.thumb
 574              		.syntax unified
 575              	.LBE173:
 576              	.LBE172:
 577              	.LBE171:
 578              	.LBE170:
 579              	.LBE169:
 580              	.LBE160:
 581              	.LBE159:
 582              	.LBB174:
 583              	.LBB175:
 584              	.LBB176:
 585              	.LBB177:
 586              		.loc 5 176 0
 587 014e B969     		ldr	r1, [r7, #24]
 588              	.LBE177:
 589              	.LBE176:
 590              	.LBE175:
 591              	.LBE174:
 592              		.loc 1 193 0
 593 0150 484B     		ldr	r3, .L20+4
 594 0152 8A68     		ldr	r2, [r1, #8]
 595 0154 0091     		str	r1, [sp]
 596 0156 013A     		subs	r2, r2, #1
 597 0158 4FF4A471 		mov	r1, #328
 598 015c 3046     		mov	r0, r6
 599 015e FFF7FEFF 		bl	chThdCreateStatic
 600              	.LVL62:
 601 0162 2060     		str	r0, [r4]
 602              		.loc 1 195 0
 603 0164 4FF0FF30 		mov	r0, #-1
 604 0168 FFF7FEFF 		bl	chEvtWaitAny
 605              	.LVL63:
 606              		.loc 1 196 0
 607 016c 05F22622 		addw	r2, r5, #550
 608              		.loc 1 195 0
 609 0170 0646     		mov	r6, r0
 610              	.LVL64:
 611              		.loc 1 196 0
 612 0172 05F5FA71 		add	r1, r5, #500
 613              	.LVL65:
 614 0176 0A20     		movs	r0, #10
 615              	.LVL66:
 616 0178 FFF7FEFF 		bl	_test_assert_time_window
 617              	.LVL67:
 618 017c 0028     		cmp	r0, #0
 619 017e 7FF452AF 		bne	.L15
 620              		.loc 1 197 0
 621 0182 701E     		subs	r0, r6, #1
 622 0184 4142     		rsbs	r1, r0, #0
 623 0186 4141     		adcs	r1, r1, r0
 624 0188 0B20     		movs	r0, #11
 625 018a FFF7FEFF 		bl	_test_assert
 626              	.LVL68:
 627 018e 0028     		cmp	r0, #0
ARM GAS  /tmp/cc0ISoZf.s 			page 12


 628 0190 7FF449AF 		bne	.L15
 629              		.loc 1 198 0
 630 0194 4FF0FF30 		mov	r0, #-1
 631 0198 FFF7FEFF 		bl	chEvtGetAndClearEvents
 632              	.LVL69:
 633              		.loc 1 199 0
 634 019c B0FA80F1 		clz	r1, r0
 635 01a0 4909     		lsrs	r1, r1, #5
 636 01a2 0C20     		movs	r0, #12
 637              	.LVL70:
 638 01a4 FFF7FEFF 		bl	_test_assert
 639              	.LVL71:
 640 01a8 8146     		mov	r9, r0
 641 01aa 0028     		cmp	r0, #0
 642 01ac 7FF43BAF 		bne	.L15
 643              	.LBB178:
 644              	.LBB179:
 645              		.loc 2 172 0
 646 01b0 324E     		ldr	r6, .L20+12
 647              	.LBE179:
 648              	.LBE178:
 649              	.LBB181:
 650              	.LBB182:
 651 01b2 334D     		ldr	r5, .L20+16
 652              	.LVL72:
 653              	.LBE182:
 654              	.LBE181:
 655              		.loc 1 200 0
 656 01b4 FFF7FEFF 		bl	test_wait_threads
 657              	.LVL73:
 658              	.LBB184:
 659              	.LBB185:
 660              		.loc 2 193 0
 661 01b8 3046     		mov	r0, r6
 662 01ba 02A9     		add	r1, sp, #8
 663 01bc 4FF0FF33 		mov	r3, #-1
 664 01c0 0122     		movs	r2, #1
 665              	.LBE185:
 666              	.LBE184:
 667              	.LBB187:
 668              	.LBB180:
 669              		.loc 2 172 0
 670 01c2 3660     		str	r6, [r6]
 671              	.LVL74:
 672              	.LBE180:
 673              	.LBE187:
 674              	.LBB188:
 675              	.LBB183:
 676 01c4 2D60     		str	r5, [r5]
 677              	.LVL75:
 678              	.LBE183:
 679              	.LBE188:
 680              	.LBB189:
 681              	.LBB186:
 682              		.loc 2 193 0
 683 01c6 FFF7FEFF 		bl	chEvtRegisterMaskWithFlags
 684              	.LVL76:
ARM GAS  /tmp/cc0ISoZf.s 			page 13


 685              	.LBE186:
 686              	.LBE189:
 687              	.LBB190:
 688              	.LBB191:
 689 01ca 2846     		mov	r0, r5
 690 01cc 07A9     		add	r1, sp, #28
 691              	.LVL77:
 692 01ce 4FF0FF33 		mov	r3, #-1
 693 01d2 0422     		movs	r2, #4
 694 01d4 FFF7FEFF 		bl	chEvtRegisterMaskWithFlags
 695              	.LVL78:
 696              	.LBE191:
 697              	.LBE190:
 698              		.loc 1 209 0
 699 01d8 FFF7FEFF 		bl	test_wait_tick
 700              	.LVL79:
 701              	.LBB192:
 702              	.LBB193:
 703              	.LBB194:
 704              	.LBB195:
 705              	.LBB196:
 706              	.LBB197:
 707              		.loc 3 546 0
 708 01dc 2023     		movs	r3, #32
 709              		.syntax unified
 710              	@ 546 "/home/selim/working/ChibiOS/os/ext/CMSIS/include/core_cmFunc.h" 1
 711 01de 83F31188 		MSR basepri, r3
 712              	@ 0 "" 2
 713              	.LVL80:
 714              		.thumb
 715              		.syntax unified
 716              	.LBE197:
 717              	.LBE196:
 718              	.LBE195:
 719              	.LBE194:
 720              	.LBB198:
 721              	.LBB199:
 722              	.LBB200:
 723              	.LBB201:
 724              		.loc 4 129 0
 725 01e2 D8F82480 		ldr	r8, [r8, #36]
 726              	.LVL81:
 727              	.LBE201:
 728              	.LBE200:
 729              	.LBE199:
 730              	.LBE198:
 731              	.LBB202:
 732              	.LBB203:
 733              	.LBB204:
 734              	.LBB205:
 735              	.LBB206:
 736              		.loc 3 546 0
 737              		.syntax unified
 738              	@ 546 "/home/selim/working/ChibiOS/os/ext/CMSIS/include/core_cmFunc.h" 1
 739 01e6 89F31188 		MSR basepri, r9
 740              	@ 0 "" 2
 741              	.LVL82:
ARM GAS  /tmp/cc0ISoZf.s 			page 14


 742              		.thumb
 743              		.syntax unified
 744              	.LBE206:
 745              	.LBE205:
 746              	.LBE204:
 747              	.LBE203:
 748              	.LBE202:
 749              	.LBE193:
 750              	.LBE192:
 751              	.LBB207:
 752              	.LBB208:
 753              		.loc 5 189 0
 754 01ea BA69     		ldr	r2, [r7, #24]
 755              	.LBE208:
 756              	.LBE207:
 757              		.loc 1 211 0
 758 01ec 254B     		ldr	r3, .L20+20
 759 01ee 9268     		ldr	r2, [r2, #8]
 760 01f0 DAF80000 		ldr	r0, [r10]
 761 01f4 0093     		str	r3, [sp]
 762 01f6 013A     		subs	r2, r2, #1
 763 01f8 4FF4A471 		mov	r1, #328
 764 01fc 224B     		ldr	r3, .L20+24
 765 01fe FFF7FEFF 		bl	chThdCreateStatic
 766              	.LVL83:
 767 0202 2060     		str	r0, [r4]
 768              		.loc 1 213 0
 769 0204 0520     		movs	r0, #5
 770 0206 FFF7FEFF 		bl	chEvtWaitAll
 771              	.LVL84:
 772              		.loc 1 214 0
 773 020a 08F22622 		addw	r2, r8, #550
 774 020e 08F5FA71 		add	r1, r8, #500
 775              	.LVL85:
 776 0212 0D20     		movs	r0, #13
 777 0214 FFF7FEFF 		bl	_test_assert_time_window
 778              	.LVL86:
 779 0218 0028     		cmp	r0, #0
 780 021a 7FF404AF 		bne	.L15
 781              		.loc 1 215 0
 782 021e 4FF0FF30 		mov	r0, #-1
 783 0222 FFF7FEFF 		bl	chEvtGetAndClearEvents
 784              	.LVL87:
 785              		.loc 1 216 0
 786 0226 B0FA80F1 		clz	r1, r0
 787 022a 4909     		lsrs	r1, r1, #5
 788 022c 0E20     		movs	r0, #14
 789              	.LVL88:
 790 022e FFF7FEFF 		bl	_test_assert
 791              	.LVL89:
 792 0232 0028     		cmp	r0, #0
 793 0234 7FF4F7AE 		bne	.L15
 794              		.loc 1 217 0
 795 0238 FFF7FEFF 		bl	test_wait_threads
 796              	.LVL90:
 797              		.loc 1 218 0
 798 023c 02A9     		add	r1, sp, #8
ARM GAS  /tmp/cc0ISoZf.s 			page 15


 799 023e 3046     		mov	r0, r6
 800 0240 FFF7FEFF 		bl	chEvtUnregister
 801              	.LVL91:
 802              		.loc 1 219 0
 803 0244 07A9     		add	r1, sp, #28
 804 0246 2846     		mov	r0, r5
 805 0248 FFF7FEFF 		bl	chEvtUnregister
 806              	.LVL92:
 807              		.loc 1 220 0
 808 024c 3168     		ldr	r1, [r6]
 809 024e 8A1B     		subs	r2, r1, r6
 810 0250 5142     		rsbs	r1, r2, #0
 811 0252 5141     		adcs	r1, r1, r2
 812 0254 0F20     		movs	r0, #15
 813 0256 FFF7FEFF 		bl	_test_assert
 814              	.LVL93:
 815 025a 0028     		cmp	r0, #0
 816 025c 7FF4E3AE 		bne	.L15
 817              		.loc 1 221 0
 818 0260 2968     		ldr	r1, [r5]
 819 0262 4B1B     		subs	r3, r1, r5
 820 0264 5942     		rsbs	r1, r3, #0
 821 0266 5941     		adcs	r1, r1, r3
 822 0268 1020     		movs	r0, #16
 823 026a FFF7FEFF 		bl	_test_assert
 824              	.LVL94:
 825 026e DAE6     		b	.L15
 826              	.L21:
 827              		.align	2
 828              	.L20:
 829 0270 00000000 		.word	ch
 830 0274 00000000 		.word	thread1
 831 0278 00000000 		.word	threads
 832 027c 00000000 		.word	.LANCHOR0
 833 0280 00000000 		.word	.LANCHOR2
 834 0284 04000000 		.word	.LC1
 835 0288 00000000 		.word	thread2
 836 028c 00000000 		.word	wa
 837              		.cfi_endproc
 838              	.LFE235:
 839              		.size	evt2_execute, .-evt2_execute
 840              		.section	.text.thread2,"ax",%progbits
 841              		.align	2
 842              		.p2align 4,,15
 843              		.thumb
 844              		.thumb_func
 845              		.type	thread2, %function
 846              	thread2:
 847              	.LFB234:
 848              		.loc 1 139 0
 849              		.cfi_startproc
 850              		@ args = 0, pretend = 0, frame = 0
 851              		@ frame_needed = 0, uses_anonymous_args = 0
 852              	.LVL95:
 853 0000 08B5     		push	{r3, lr}
 854              		.cfi_def_cfa_offset 8
 855              		.cfi_offset 3, -8
ARM GAS  /tmp/cc0ISoZf.s 			page 16


 856              		.cfi_offset 14, -4
 857              	.LBB209:
 858              	.LBB210:
 859              		.loc 2 239 0
 860 0002 0021     		movs	r1, #0
 861 0004 0648     		ldr	r0, .L24
 862              	.LVL96:
 863 0006 FFF7FEFF 		bl	chEvtBroadcastFlags
 864              	.LVL97:
 865              	.LBE210:
 866              	.LBE209:
 867              		.loc 1 143 0
 868 000a 4FF4FA70 		mov	r0, #500
 869 000e FFF7FEFF 		bl	chThdSleep
 870              	.LVL98:
 871              	.LBB211:
 872              	.LBB212:
 873              		.loc 2 239 0
 874 0012 0021     		movs	r1, #0
 875 0014 0348     		ldr	r0, .L24+4
 876              	.LBE212:
 877              	.LBE211:
 878              		.loc 1 145 0
 879 0016 BDE80840 		pop	{r3, lr}
 880              		.cfi_restore 14
 881              		.cfi_restore 3
 882              		.cfi_def_cfa_offset 0
 883              	.LBB214:
 884              	.LBB213:
 885              		.loc 2 239 0
 886 001a FFF7FEBF 		b	chEvtBroadcastFlags
 887              	.LVL99:
 888              	.L25:
 889 001e 00BF     		.align	2
 890              	.L24:
 891 0020 00000000 		.word	.LANCHOR0
 892 0024 00000000 		.word	.LANCHOR2
 893              	.LBE213:
 894              	.LBE214:
 895              		.cfi_endproc
 896              	.LFE234:
 897              		.size	thread2, .-thread2
 898              		.section	.text.thread1,"ax",%progbits
 899              		.align	2
 900              		.p2align 4,,15
 901              		.thumb
 902              		.thumb_func
 903              		.type	thread1, %function
 904              	thread1:
 905              	.LFB233:
 906              		.loc 1 133 0
 907              		.cfi_startproc
 908              		@ args = 0, pretend = 0, frame = 0
 909              		@ frame_needed = 0, uses_anonymous_args = 0
 910              	.LVL100:
 911 0000 10B5     		push	{r4, lr}
 912              		.cfi_def_cfa_offset 8
ARM GAS  /tmp/cc0ISoZf.s 			page 17


 913              		.cfi_offset 4, -8
 914              		.cfi_offset 14, -4
 915              		.loc 1 133 0
 916 0002 0446     		mov	r4, r0
 917              		.loc 1 135 0
 918 0004 4FF4FA70 		mov	r0, #500
 919              	.LVL101:
 920 0008 FFF7FEFF 		bl	chThdSleep
 921              	.LVL102:
 922              		.loc 1 136 0
 923 000c 2046     		mov	r0, r4
 924 000e 0121     		movs	r1, #1
 925              		.loc 1 137 0
 926 0010 BDE81040 		pop	{r4, lr}
 927              		.cfi_restore 14
 928              		.cfi_restore 4
 929              		.cfi_def_cfa_offset 0
 930              	.LVL103:
 931              		.loc 1 136 0
 932 0014 FFF7FEBF 		b	chEvtSignal
 933              	.LVL104:
 934              		.cfi_endproc
 935              	.LFE233:
 936              		.size	thread1, .-thread1
 937              		.section	.text.evt3_execute,"ax",%progbits
 938              		.align	2
 939              		.p2align 4,,15
 940              		.thumb
 941              		.thumb_func
 942              		.type	evt3_execute, %function
 943              	evt3_execute:
 944              	.LFB237:
 945              		.loc 1 252 0
 946              		.cfi_startproc
 947              		@ args = 0, pretend = 0, frame = 0
 948              		@ frame_needed = 0, uses_anonymous_args = 0
 949 0000 08B5     		push	{r3, lr}
 950              		.cfi_def_cfa_offset 8
 951              		.cfi_offset 3, -8
 952              		.cfi_offset 14, -4
 953              		.loc 1 258 0
 954 0002 0021     		movs	r1, #0
 955 0004 4FF0FF30 		mov	r0, #-1
 956 0008 FFF7FEFF 		bl	chEvtWaitOneTimeout
 957              	.LVL105:
 958              		.loc 1 259 0
 959 000c B0FA80F1 		clz	r1, r0
 960 0010 4909     		lsrs	r1, r1, #5
 961 0012 0120     		movs	r0, #1
 962              	.LVL106:
 963 0014 FFF7FEFF 		bl	_test_assert
 964              	.LVL107:
 965 0018 00B1     		cbz	r0, .L33
 966              	.L28:
 967 001a 08BD     		pop	{r3, pc}
 968              	.L33:
 969              		.loc 1 260 0
ARM GAS  /tmp/cc0ISoZf.s 			page 18


 970 001c 0146     		mov	r1, r0
 971 001e 4FF0FF30 		mov	r0, #-1
 972 0022 FFF7FEFF 		bl	chEvtWaitAnyTimeout
 973              	.LVL108:
 974              		.loc 1 261 0
 975 0026 B0FA80F1 		clz	r1, r0
 976 002a 4909     		lsrs	r1, r1, #5
 977 002c 0220     		movs	r0, #2
 978              	.LVL109:
 979 002e FFF7FEFF 		bl	_test_assert
 980              	.LVL110:
 981 0032 0028     		cmp	r0, #0
 982 0034 F1D1     		bne	.L28
 983              		.loc 1 262 0
 984 0036 0146     		mov	r1, r0
 985 0038 4FF0FF30 		mov	r0, #-1
 986 003c FFF7FEFF 		bl	chEvtWaitAllTimeout
 987              	.LVL111:
 988              		.loc 1 263 0
 989 0040 B0FA80F1 		clz	r1, r0
 990 0044 4909     		lsrs	r1, r1, #5
 991 0046 0320     		movs	r0, #3
 992              	.LVL112:
 993 0048 FFF7FEFF 		bl	_test_assert
 994              	.LVL113:
 995 004c 0028     		cmp	r0, #0
 996 004e E4D1     		bne	.L28
 997              	.LBB217:
 998              	.LBB218:
 999              		.loc 1 264 0
 1000 0050 0A21     		movs	r1, #10
 1001 0052 4FF0FF30 		mov	r0, #-1
 1002 0056 FFF7FEFF 		bl	chEvtWaitOneTimeout
 1003              	.LVL114:
 1004              		.loc 1 265 0
 1005 005a B0FA80F1 		clz	r1, r0
 1006 005e 4909     		lsrs	r1, r1, #5
 1007 0060 0420     		movs	r0, #4
 1008              	.LVL115:
 1009 0062 FFF7FEFF 		bl	_test_assert
 1010              	.LVL116:
 1011 0066 0028     		cmp	r0, #0
 1012 0068 D7D1     		bne	.L28
 1013              		.loc 1 266 0
 1014 006a 0A21     		movs	r1, #10
 1015 006c 4FF0FF30 		mov	r0, #-1
 1016 0070 FFF7FEFF 		bl	chEvtWaitAnyTimeout
 1017              	.LVL117:
 1018              		.loc 1 267 0
 1019 0074 B0FA80F1 		clz	r1, r0
 1020 0078 4909     		lsrs	r1, r1, #5
 1021 007a 0520     		movs	r0, #5
 1022              	.LVL118:
 1023 007c FFF7FEFF 		bl	_test_assert
 1024              	.LVL119:
 1025 0080 0028     		cmp	r0, #0
 1026 0082 CAD1     		bne	.L28
ARM GAS  /tmp/cc0ISoZf.s 			page 19


 1027              		.loc 1 268 0
 1028 0084 0A21     		movs	r1, #10
 1029 0086 4FF0FF30 		mov	r0, #-1
 1030 008a FFF7FEFF 		bl	chEvtWaitAllTimeout
 1031              	.LVL120:
 1032              		.loc 1 269 0
 1033 008e B0FA80F1 		clz	r1, r0
 1034 0092 4909     		lsrs	r1, r1, #5
 1035 0094 0620     		movs	r0, #6
 1036              	.LVL121:
 1037              	.LBE218:
 1038              	.LBE217:
 1039              		.loc 1 270 0
 1040 0096 BDE80840 		pop	{r3, lr}
 1041              		.cfi_restore 14
 1042              		.cfi_restore 3
 1043              		.cfi_def_cfa_offset 0
 1044              	.LBB220:
 1045              	.LBB219:
 1046              		.loc 1 269 0
 1047 009a FFF7FEBF 		b	_test_assert
 1048              	.LVL122:
 1049              	.LBE219:
 1050              	.LBE220:
 1051              		.cfi_endproc
 1052              	.LFE237:
 1053              		.size	evt3_execute, .-evt3_execute
 1054              		.global	patternevt
 1055              		.global	testevt3
 1056              		.global	testevt2
 1057              		.global	testevt1
 1058 009e 00BF     		.section	.rodata.patternevt,"a",%progbits
 1059              		.align	2
 1060              		.type	patternevt, %object
 1061              		.size	patternevt, 16
 1062              	patternevt:
 1063 0000 00000000 		.word	testevt1
 1064 0004 00000000 		.word	testevt2
 1065 0008 00000000 		.word	testevt3
 1066 000c 00000000 		.word	0
 1067              		.section	.rodata.testevt2,"a",%progbits
 1068              		.align	2
 1069              		.type	testevt2, %object
 1070              		.size	testevt2, 16
 1071              	testevt2:
 1072 0000 1C000000 		.word	.LC3
 1073 0004 00000000 		.word	evt2_setup
 1074 0008 00000000 		.word	0
 1075 000c 00000000 		.word	evt2_execute
 1076              		.section	.rodata.str1.4,"aMS",%progbits,1
 1077              		.align	2
 1078              	.LC0:
 1079 0000 41424300 		.ascii	"ABC\000"
 1080              	.LC1:
 1081 0004 4100     		.ascii	"A\000"
 1082 0006 0000     		.space	2
 1083              	.LC2:
ARM GAS  /tmp/cc0ISoZf.s 			page 20


 1084 0008 4576656E 		.ascii	"Events, timeouts\000"
 1084      74732C20 
 1084      74696D65 
 1084      6F757473 
 1084      00
 1085 0019 000000   		.space	3
 1086              	.LC3:
 1087 001c 4576656E 		.ascii	"Events, wait and broadcast\000"
 1087      74732C20 
 1087      77616974 
 1087      20616E64 
 1087      2062726F 
 1088 0037 00       		.space	1
 1089              	.LC4:
 1090 0038 4576656E 		.ascii	"Events, registration and dispatch\000"
 1090      74732C20 
 1090      72656769 
 1090      73747261 
 1090      74696F6E 
 1091              		.section	.rodata.testevt1,"a",%progbits
 1092              		.align	2
 1093              		.type	testevt1, %object
 1094              		.size	testevt1, 16
 1095              	testevt1:
 1096 0000 38000000 		.word	.LC4
 1097 0004 00000000 		.word	evt1_setup
 1098 0008 00000000 		.word	0
 1099 000c 00000000 		.word	evt1_execute
 1100              		.section	.rodata.evhndl,"a",%progbits
 1101              		.align	2
 1102              		.set	.LANCHOR1,. + 0
 1103              		.type	evhndl, %object
 1104              		.size	evhndl, 12
 1105              	evhndl:
 1106 0000 00000000 		.word	h1
 1107 0004 00000000 		.word	h2
 1108 0008 00000000 		.word	h3
 1109              		.section	.rodata.testevt3,"a",%progbits
 1110              		.align	2
 1111              		.type	testevt3, %object
 1112              		.size	testevt3, 16
 1113              	testevt3:
 1114 0000 08000000 		.word	.LC2
 1115 0004 00000000 		.word	evt3_setup
 1116 0008 00000000 		.word	0
 1117 000c 00000000 		.word	evt3_execute
 1118              		.section	.data.es1,"aw",%progbits
 1119              		.align	2
 1120              		.set	.LANCHOR0,. + 0
 1121              		.type	es1, %object
 1122              		.size	es1, 4
 1123              	es1:
 1124 0000 00000000 		.word	es1
 1125              		.section	.data.es2,"aw",%progbits
 1126              		.align	2
 1127              		.set	.LANCHOR2,. + 0
 1128              		.type	es2, %object
ARM GAS  /tmp/cc0ISoZf.s 			page 21


 1129              		.size	es2, 4
 1130              	es2:
 1131 0000 00000000 		.word	es2
 1132              		.text
 1133              	.Letext0:
 1134              		.file 6 "/usr/lib/gcc/arm-none-eabi/5.3.1/include/stddef.h"
 1135              		.file 7 "/usr/arm-none-eabi/include/machine/_default_types.h"
 1136              		.file 8 "/usr/arm-none-eabi/include/sys/_stdint.h"
 1137              		.file 9 "/home/selim/working/ChibiOS/os/rt/ports/ARMCMx/compilers/GCC/chtypes.h"
 1138              		.file 10 "/home/selim/working/ChibiOS/os/rt/include/chsystypes.h"
 1139              		.file 11 "/home/selim/working/ChibiOS/os/rt/include/chschd.h"
 1140              		.file 12 "/home/selim/working/ChibiOS/os/rt/ports/ARMCMx/chcore.h"
 1141              		.file 13 "/home/selim/working/ChibiOS/os/rt/ports/ARMCMx/chcore_v7m.h"
 1142              		.file 14 "/home/selim/working/ChibiOS/os/hal/ports/STM32/LLD/TIMv1/stm32_tim.h"
 1143              		.file 15 "/home/selim/working/ChibiOS/os/rt/include/chtm.h"
 1144              		.file 16 "/home/selim/working/ChibiOS/os/rt/include/chsem.h"
 1145              		.file 17 "/home/selim/working/ChibiOS/os/rt/include/chmtx.h"
 1146              		.file 18 "/home/selim/working/ChibiOS/test/rt/test.h"
 1147              		.file 19 "/home/selim/working/ChibiOS/os/rt/ports/ARMCMx/chcore_timer.h"
 1148              		.file 20 "/home/selim/working/ChibiOS/os/rt/include/chsys.h"
 1149              		.file 21 "/home/selim/working/ChibiOS/os/rt/include/chvt.h"
 1150              		.file 22 "/home/selim/working/ChibiOS/os/ext/CMSIS/include/core_cm4.h"