ARM GAS  /tmp/ccaQp240.s 			page 1


   1              		.syntax unified
   2              		.cpu cortex-m4
   3              		.fpu softvfp
   4              		.eabi_attribute 20, 1
   5              		.eabi_attribute 21, 1
   6              		.eabi_attribute 23, 3
   7              		.eabi_attribute 24, 1
   8              		.eabi_attribute 25, 1
   9              		.eabi_attribute 26, 1
  10              		.eabi_attribute 30, 2
  11              		.eabi_attribute 34, 1
  12              		.eabi_attribute 18, 4
  13              		.thumb
  14              		.syntax unified
  15              		.file	"testmtx.c"
  16              		.text
  17              	.Ltext0:
  18              		.cfi_sections	.debug_frame
  19              		.section	.text.mtx1_execute,"ax",%progbits
  20              		.align	2
  21              		.p2align 4,,15
  22              		.thumb
  23              		.thumb_func
  24              		.type	mtx1_execute, %function
  25              	mtx1_execute:
  26              	.LFB229:
  27              		.file 1 "/home/selim/working/ChibiOS/test/rt/testmtx.c"
  28              		.loc 1 96 0
  29              		.cfi_startproc
  30              		@ args = 0, pretend = 0, frame = 0
  31              		@ frame_needed = 0, uses_anonymous_args = 0
  32 0000 F0B5     		push	{r4, r5, r6, r7, lr}
  33              		.cfi_def_cfa_offset 20
  34              		.cfi_offset 4, -20
  35              		.cfi_offset 5, -16
  36              		.cfi_offset 6, -12
  37              		.cfi_offset 7, -8
  38              		.cfi_offset 14, -4
  39              	.LBB138:
  40              	.LBB139:
  41              	.LBB140:
  42              	.LBB141:
  43              		.file 2 "/home/selim/working/ChibiOS/os/rt/include/chthreads.h"
  44              		.loc 2 176 0
  45 0002 2B4F     		ldr	r7, .L6
  46              	.LBE141:
  47              	.LBE140:
  48              	.LBE139:
  49              	.LBE138:
  50              		.loc 1 100 0
  51 0004 2B4E     		ldr	r6, .L6+4
  52              	.LBB144:
  53              	.LBB142:
  54              		.loc 2 189 0
  55 0006 BB69     		ldr	r3, [r7, #24]
  56              	.LBE142:
  57              	.LBE144:
ARM GAS  /tmp/ccaQp240.s 			page 2


  58              		.loc 1 99 0
  59 0008 2B48     		ldr	r0, .L6+8
  60              	.LBB145:
  61              	.LBB143:
  62              		.loc 2 189 0
  63 000a 9C68     		ldr	r4, [r3, #8]
  64              	.LBE143:
  65              	.LBE145:
  66              		.loc 1 100 0
  67 000c 2B4D     		ldr	r5, .L6+12
  68              		.loc 1 96 0
  69 000e 83B0     		sub	sp, sp, #12
  70              		.cfi_def_cfa_offset 32
  71              		.loc 1 99 0
  72 0010 FFF7FEFF 		bl	chMtxLock
  73              	.LVL0:
  74              		.loc 1 100 0
  75 0014 2A4B     		ldr	r3, .L6+16
  76 0016 0093     		str	r3, [sp]
  77 0018 621C     		adds	r2, r4, #1
  78 001a 2A4B     		ldr	r3, .L6+20
  79 001c 3068     		ldr	r0, [r6]
  80 001e 4FF4A471 		mov	r1, #328
  81 0022 FFF7FEFF 		bl	chThdCreateStatic
  82              	.LVL1:
  83              		.loc 1 101 0
  84 0026 7168     		ldr	r1, [r6, #4]
  85 0028 274B     		ldr	r3, .L6+24
  86              		.loc 1 100 0
  87 002a 2860     		str	r0, [r5]
  88              		.loc 1 101 0
  89 002c A21C     		adds	r2, r4, #2
  90 002e 0846     		mov	r0, r1
  91 0030 0093     		str	r3, [sp]
  92 0032 4FF4A471 		mov	r1, #328
  93 0036 234B     		ldr	r3, .L6+20
  94 0038 FFF7FEFF 		bl	chThdCreateStatic
  95              	.LVL2:
  96              		.loc 1 102 0
  97 003c B168     		ldr	r1, [r6, #8]
  98 003e 234B     		ldr	r3, .L6+28
  99              		.loc 1 101 0
 100 0040 6860     		str	r0, [r5, #4]
 101              		.loc 1 102 0
 102 0042 E21C     		adds	r2, r4, #3
 103 0044 0846     		mov	r0, r1
 104 0046 0093     		str	r3, [sp]
 105 0048 4FF4A471 		mov	r1, #328
 106 004c 1D4B     		ldr	r3, .L6+20
 107 004e FFF7FEFF 		bl	chThdCreateStatic
 108              	.LVL3:
 109              		.loc 1 103 0
 110 0052 F168     		ldr	r1, [r6, #12]
 111 0054 1E4B     		ldr	r3, .L6+32
 112              		.loc 1 102 0
 113 0056 A860     		str	r0, [r5, #8]
 114              		.loc 1 103 0
ARM GAS  /tmp/ccaQp240.s 			page 3


 115 0058 221D     		adds	r2, r4, #4
 116 005a 0846     		mov	r0, r1
 117 005c 0093     		str	r3, [sp]
 118 005e 4FF4A471 		mov	r1, #328
 119 0062 184B     		ldr	r3, .L6+20
 120 0064 FFF7FEFF 		bl	chThdCreateStatic
 121              	.LVL4:
 122              		.loc 1 104 0
 123 0068 3169     		ldr	r1, [r6, #16]
 124 006a 1A4B     		ldr	r3, .L6+36
 125              		.loc 1 103 0
 126 006c E860     		str	r0, [r5, #12]
 127              		.loc 1 104 0
 128 006e 621D     		adds	r2, r4, #5
 129 0070 0846     		mov	r0, r1
 130 0072 0093     		str	r3, [sp]
 131 0074 4FF4A471 		mov	r1, #328
 132 0078 124B     		ldr	r3, .L6+20
 133 007a FFF7FEFF 		bl	chThdCreateStatic
 134              	.LVL5:
 135 007e 2861     		str	r0, [r5, #16]
 136              		.loc 1 105 0
 137 0080 0D48     		ldr	r0, .L6+8
 138 0082 FFF7FEFF 		bl	chMtxUnlock
 139              	.LVL6:
 140              		.loc 1 106 0
 141 0086 FFF7FEFF 		bl	test_wait_threads
 142              	.LVL7:
 143              	.LBB146:
 144              	.LBB147:
 145              		.loc 2 189 0
 146 008a BB69     		ldr	r3, [r7, #24]
 147              	.LBE147:
 148              	.LBE146:
 149              		.loc 1 107 0
 150 008c 9968     		ldr	r1, [r3, #8]
 151 008e 091B     		subs	r1, r1, r4
 152 0090 B1FA81F1 		clz	r1, r1
 153 0094 0120     		movs	r0, #1
 154 0096 4909     		lsrs	r1, r1, #5
 155 0098 FFF7FEFF 		bl	_test_assert
 156              	.LVL8:
 157 009c 08B1     		cbz	r0, .L5
 158              		.loc 1 109 0
 159 009e 03B0     		add	sp, sp, #12
 160              		.cfi_remember_state
 161              		.cfi_def_cfa_offset 20
 162              		@ sp needed
 163 00a0 F0BD     		pop	{r4, r5, r6, r7, pc}
 164              	.L5:
 165              		.cfi_restore_state
 166              		.loc 1 108 0
 167 00a2 0D49     		ldr	r1, .L6+40
 168 00a4 0220     		movs	r0, #2
 169              		.loc 1 109 0
 170 00a6 03B0     		add	sp, sp, #12
 171              		.cfi_def_cfa_offset 20
ARM GAS  /tmp/ccaQp240.s 			page 4


 172              		@ sp needed
 173 00a8 BDE8F040 		pop	{r4, r5, r6, r7, lr}
 174              		.cfi_restore 14
 175              		.cfi_restore 7
 176              		.cfi_restore 6
 177              		.cfi_restore 5
 178              		.cfi_restore 4
 179              		.cfi_def_cfa_offset 0
 180              		.loc 1 108 0
 181 00ac FFF7FEBF 		b	_test_assert_sequence
 182              	.LVL9:
 183              	.L7:
 184              		.align	2
 185              	.L6:
 186 00b0 00000000 		.word	ch
 187 00b4 00000000 		.word	wa
 188 00b8 00000000 		.word	.LANCHOR0
 189 00bc 00000000 		.word	threads
 190 00c0 00000000 		.word	.LC0
 191 00c4 00000000 		.word	thread1
 192 00c8 04000000 		.word	.LC1
 193 00cc 08000000 		.word	.LC2
 194 00d0 0C000000 		.word	.LC3
 195 00d4 10000000 		.word	.LC4
 196 00d8 14000000 		.word	.LC5
 197              		.cfi_endproc
 198              	.LFE229:
 199              		.size	mtx1_execute, .-mtx1_execute
 200              		.section	.text.thread1,"ax",%progbits
 201              		.align	2
 202              		.p2align 4,,15
 203              		.thumb
 204              		.thumb_func
 205              		.type	thread1, %function
 206              	thread1:
 207              	.LFB228:
 208              		.loc 1 89 0
 209              		.cfi_startproc
 210              		@ args = 0, pretend = 0, frame = 0
 211              		@ frame_needed = 0, uses_anonymous_args = 0
 212              	.LVL10:
 213 0000 38B5     		push	{r3, r4, r5, lr}
 214              		.cfi_def_cfa_offset 16
 215              		.cfi_offset 3, -16
 216              		.cfi_offset 4, -12
 217              		.cfi_offset 5, -8
 218              		.cfi_offset 14, -4
 219              		.loc 1 91 0
 220 0002 064C     		ldr	r4, .L10
 221              		.loc 1 89 0
 222 0004 0546     		mov	r5, r0
 223              		.loc 1 91 0
 224 0006 2046     		mov	r0, r4
 225              	.LVL11:
 226 0008 FFF7FEFF 		bl	chMtxLock
 227              	.LVL12:
 228              		.loc 1 92 0
ARM GAS  /tmp/ccaQp240.s 			page 5


 229 000c 2878     		ldrb	r0, [r5]	@ zero_extendqisi2
 230 000e FFF7FEFF 		bl	test_emit_token
 231              	.LVL13:
 232              		.loc 1 93 0
 233 0012 2046     		mov	r0, r4
 234              		.loc 1 94 0
 235 0014 BDE83840 		pop	{r3, r4, r5, lr}
 236              		.cfi_restore 14
 237              		.cfi_restore 5
 238              		.cfi_restore 4
 239              		.cfi_restore 3
 240              		.cfi_def_cfa_offset 0
 241              	.LVL14:
 242              		.loc 1 93 0
 243 0018 FFF7FEBF 		b	chMtxUnlock
 244              	.LVL15:
 245              	.L11:
 246              		.align	2
 247              	.L10:
 248 001c 00000000 		.word	.LANCHOR0
 249              		.cfi_endproc
 250              	.LFE228:
 251              		.size	thread1, .-thread1
 252              		.section	.text.thread12,"ax",%progbits
 253              		.align	2
 254              		.p2align 4,,15
 255              		.thumb
 256              		.thumb_func
 257              		.type	thread12, %function
 258              	thread12:
 259              	.LFB243:
 260              		.loc 1 576 0
 261              		.cfi_startproc
 262              		@ args = 0, pretend = 0, frame = 0
 263              		@ frame_needed = 0, uses_anonymous_args = 0
 264              	.LVL16:
 265 0000 38B5     		push	{r3, r4, r5, lr}
 266              		.cfi_def_cfa_offset 16
 267              		.cfi_offset 3, -16
 268              		.cfi_offset 4, -12
 269              		.cfi_offset 5, -8
 270              		.cfi_offset 14, -4
 271              		.loc 1 578 0
 272 0002 064C     		ldr	r4, .L14
 273              		.loc 1 576 0
 274 0004 0546     		mov	r5, r0
 275              		.loc 1 578 0
 276 0006 2046     		mov	r0, r4
 277              	.LVL17:
 278 0008 FFF7FEFF 		bl	chMtxLock
 279              	.LVL18:
 280              		.loc 1 579 0
 281 000c 2878     		ldrb	r0, [r5]	@ zero_extendqisi2
 282 000e FFF7FEFF 		bl	test_emit_token
 283              	.LVL19:
 284              		.loc 1 580 0
 285 0012 2046     		mov	r0, r4
ARM GAS  /tmp/ccaQp240.s 			page 6


 286              		.loc 1 581 0
 287 0014 BDE83840 		pop	{r3, r4, r5, lr}
 288              		.cfi_restore 14
 289              		.cfi_restore 5
 290              		.cfi_restore 4
 291              		.cfi_restore 3
 292              		.cfi_def_cfa_offset 0
 293              	.LVL20:
 294              		.loc 1 580 0
 295 0018 FFF7FEBF 		b	chMtxUnlock
 296              	.LVL21:
 297              	.L15:
 298              		.align	2
 299              	.L14:
 300 001c 00000000 		.word	.LANCHOR1
 301              		.cfi_endproc
 302              	.LFE243:
 303              		.size	thread12, .-thread12
 304              		.section	.text.mtx4_setup,"ax",%progbits
 305              		.align	2
 306              		.p2align 4,,15
 307              		.thumb
 308              		.thumb_func
 309              		.type	mtx4_setup, %function
 310              	mtx4_setup:
 311              	.LFB230:
 312              		.loc 1 332 0
 313              		.cfi_startproc
 314              		@ args = 0, pretend = 0, frame = 0
 315              		@ frame_needed = 0, uses_anonymous_args = 0
 316 0000 08B5     		push	{r3, lr}
 317              		.cfi_def_cfa_offset 8
 318              		.cfi_offset 3, -8
 319              		.cfi_offset 14, -4
 320              		.loc 1 334 0
 321 0002 0448     		ldr	r0, .L18
 322 0004 FFF7FEFF 		bl	chMtxObjectInit
 323              	.LVL22:
 324              		.loc 1 335 0
 325 0008 0348     		ldr	r0, .L18+4
 326              		.loc 1 336 0
 327 000a BDE80840 		pop	{r3, lr}
 328              		.cfi_restore 14
 329              		.cfi_restore 3
 330              		.cfi_def_cfa_offset 0
 331              		.loc 1 335 0
 332 000e FFF7FEBF 		b	chMtxObjectInit
 333              	.LVL23:
 334              	.L19:
 335 0012 00BF     		.align	2
 336              	.L18:
 337 0014 00000000 		.word	.LANCHOR0
 338 0018 00000000 		.word	.LANCHOR1
 339              		.cfi_endproc
 340              	.LFE230:
 341              		.size	mtx4_setup, .-mtx4_setup
 342              		.section	.text.mtx5_setup,"ax",%progbits
ARM GAS  /tmp/ccaQp240.s 			page 7


 343              		.align	2
 344              		.p2align 4,,15
 345              		.thumb
 346              		.thumb_func
 347              		.type	mtx5_setup, %function
 348              	mtx5_setup:
 349              	.LFB234:
 350              		.loc 1 418 0
 351              		.cfi_startproc
 352              		@ args = 0, pretend = 0, frame = 0
 353              		@ frame_needed = 0, uses_anonymous_args = 0
 354              		@ link register save eliminated.
 355              		.loc 1 420 0
 356 0000 0148     		ldr	r0, .L21
 357 0002 FFF7FEBF 		b	chMtxObjectInit
 358              	.LVL24:
 359              	.L22:
 360 0006 00BF     		.align	2
 361              	.L21:
 362 0008 00000000 		.word	.LANCHOR0
 363              		.cfi_endproc
 364              	.LFE234:
 365              		.size	mtx5_setup, .-mtx5_setup
 366              		.section	.text.mtx1_setup,"ax",%progbits
 367              		.align	2
 368              		.p2align 4,,15
 369              		.thumb
 370              		.thumb_func
 371              		.type	mtx1_setup, %function
 372              	mtx1_setup:
 373              	.LFB246:
 374              		.cfi_startproc
 375              		@ args = 0, pretend = 0, frame = 0
 376              		@ frame_needed = 0, uses_anonymous_args = 0
 377              		@ link register save eliminated.
 378 0000 FFF7FEBF 		b	mtx5_setup
 379              		.cfi_endproc
 380              	.LFE246:
 381              		.size	mtx1_setup, .-mtx1_setup
 382              		.section	.text.thread4b,"ax",%progbits
 383              		.align	2
 384              		.p2align 4,,15
 385              		.thumb
 386              		.thumb_func
 387              		.type	thread4b, %function
 388              	thread4b:
 389              	.LFB232:
 390              		.loc 1 346 0
 391              		.cfi_startproc
 392              		@ args = 0, pretend = 0, frame = 0
 393              		@ frame_needed = 0, uses_anonymous_args = 0
 394              	.LVL25:
 395              		.loc 1 346 0
 396 0000 10B5     		push	{r4, lr}
 397              		.cfi_def_cfa_offset 8
 398              		.cfi_offset 4, -8
 399              		.cfi_offset 14, -4
ARM GAS  /tmp/ccaQp240.s 			page 8


 400              		.loc 1 350 0
 401 0002 064C     		ldr	r4, .L26
 402              		.loc 1 349 0
 403 0004 40F2DC50 		movw	r0, #1500
 404              	.LVL26:
 405 0008 FFF7FEFF 		bl	chThdSleep
 406              	.LVL27:
 407              		.loc 1 350 0
 408 000c 2046     		mov	r0, r4
 409 000e FFF7FEFF 		bl	chMtxLock
 410              	.LVL28:
 411              		.loc 1 351 0
 412 0012 2046     		mov	r0, r4
 413              		.loc 1 352 0
 414 0014 BDE81040 		pop	{r4, lr}
 415              		.cfi_restore 14
 416              		.cfi_restore 4
 417              		.cfi_def_cfa_offset 0
 418              		.loc 1 351 0
 419 0018 FFF7FEBF 		b	chMtxUnlock
 420              	.LVL29:
 421              	.L27:
 422              		.align	2
 423              	.L26:
 424 001c 00000000 		.word	.LANCHOR0
 425              		.cfi_endproc
 426              	.LFE232:
 427              		.size	thread4b, .-thread4b
 428              		.section	.text.thread4a,"ax",%progbits
 429              		.align	2
 430              		.p2align 4,,15
 431              		.thumb
 432              		.thumb_func
 433              		.type	thread4a, %function
 434              	thread4a:
 435              	.LFB231:
 436              		.loc 1 338 0
 437              		.cfi_startproc
 438              		@ args = 0, pretend = 0, frame = 0
 439              		@ frame_needed = 0, uses_anonymous_args = 0
 440              	.LVL30:
 441 0000 10B5     		push	{r4, lr}
 442              		.cfi_def_cfa_offset 8
 443              		.cfi_offset 4, -8
 444              		.cfi_offset 14, -4
 445              		.loc 1 342 0
 446 0002 064C     		ldr	r4, .L30
 447              		.loc 1 341 0
 448 0004 4FF4FA70 		mov	r0, #500
 449              	.LVL31:
 450 0008 FFF7FEFF 		bl	chThdSleep
 451              	.LVL32:
 452              		.loc 1 342 0
 453 000c 2046     		mov	r0, r4
 454 000e FFF7FEFF 		bl	chMtxLock
 455              	.LVL33:
 456              		.loc 1 343 0
ARM GAS  /tmp/ccaQp240.s 			page 9


 457 0012 2046     		mov	r0, r4
 458              		.loc 1 344 0
 459 0014 BDE81040 		pop	{r4, lr}
 460              		.cfi_restore 14
 461              		.cfi_restore 4
 462              		.cfi_def_cfa_offset 0
 463              		.loc 1 343 0
 464 0018 FFF7FEBF 		b	chMtxUnlock
 465              	.LVL34:
 466              	.L31:
 467              		.align	2
 468              	.L30:
 469 001c 00000000 		.word	.LANCHOR1
 470              		.cfi_endproc
 471              	.LFE231:
 472              		.size	thread4a, .-thread4a
 473              		.section	.text.mtx4_execute,"ax",%progbits
 474              		.align	2
 475              		.p2align 4,,15
 476              		.thumb
 477              		.thumb_func
 478              		.type	mtx4_execute, %function
 479              	mtx4_execute:
 480              	.LFB233:
 481              		.loc 1 354 0
 482              		.cfi_startproc
 483              		@ args = 0, pretend = 0, frame = 8
 484              		@ frame_needed = 0, uses_anonymous_args = 0
 485 0000 2DE9F046 		push	{r4, r5, r6, r7, r9, r10, lr}
 486              		.cfi_def_cfa_offset 28
 487              		.cfi_offset 4, -28
 488              		.cfi_offset 5, -24
 489              		.cfi_offset 6, -20
 490              		.cfi_offset 7, -16
 491              		.cfi_offset 9, -12
 492              		.cfi_offset 10, -8
 493              		.cfi_offset 14, -4
 494              	.LBB148:
 495              	.LBB149:
 496              	.LBB150:
 497              	.LBB151:
 498              		.loc 2 176 0
 499 0004 8E4D     		ldr	r5, .L38
 500              	.LBE151:
 501              	.LBE150:
 502              	.LBE149:
 503              	.LBE148:
 504              		.loc 1 360 0
 505 0006 8F4E     		ldr	r6, .L38+4
 506              	.LBB154:
 507              	.LBB152:
 508              		.loc 2 189 0
 509 0008 AB69     		ldr	r3, [r5, #24]
 510              	.LBE152:
 511              	.LBE154:
 512              		.loc 1 360 0
 513 000a 3268     		ldr	r2, [r6]
ARM GAS  /tmp/ccaQp240.s 			page 10


 514              	.LBB155:
 515              	.LBB153:
 516              		.loc 2 189 0
 517 000c 9C68     		ldr	r4, [r3, #8]
 518              	.LBE153:
 519              	.LBE155:
 520              		.loc 1 360 0
 521 000e 8E4B     		ldr	r3, .L38+8
 522 0010 8E4F     		ldr	r7, .L38+12
 523              		.loc 1 354 0
 524 0012 85B0     		sub	sp, sp, #20
 525              		.cfi_def_cfa_offset 48
 526              		.loc 1 358 0
 527 0014 04F10109 		add	r9, r4, #1
 528              	.LVL35:
 529              		.loc 1 360 0
 530 0018 1046     		mov	r0, r2
 531 001a 0392     		str	r2, [sp, #12]
 532 001c 0093     		str	r3, [sp]
 533 001e 4A46     		mov	r2, r9
 534 0020 8B4B     		ldr	r3, .L38+16
 535 0022 4FF4A471 		mov	r1, #328
 536 0026 FFF7FEFF 		bl	chThdCreateStatic
 537              	.LVL36:
 538              		.loc 1 361 0
 539 002a 7668     		ldr	r6, [r6, #4]
 540 002c 894B     		ldr	r3, .L38+20
 541              		.loc 1 360 0
 542 002e 3860     		str	r0, [r7]
 543              		.loc 1 359 0
 544 0030 04F1020A 		add	r10, r4, #2
 545              	.LVL37:
 546              		.loc 1 361 0
 547 0034 4FF4A471 		mov	r1, #328
 548 0038 5246     		mov	r2, r10
 549 003a 0093     		str	r3, [sp]
 550 003c 3046     		mov	r0, r6
 551 003e 864B     		ldr	r3, .L38+24
 552 0040 FFF7FEFF 		bl	chThdCreateStatic
 553              	.LVL38:
 554 0044 7860     		str	r0, [r7, #4]
 555              		.loc 1 362 0
 556 0046 8548     		ldr	r0, .L38+28
 557 0048 FFF7FEFF 		bl	chMtxLock
 558              	.LVL39:
 559              	.LBB156:
 560              	.LBB157:
 561              		.loc 2 189 0
 562 004c AB69     		ldr	r3, [r5, #24]
 563              	.LBE157:
 564              	.LBE156:
 565              		.loc 1 363 0
 566 004e 9968     		ldr	r1, [r3, #8]
 567 0050 091B     		subs	r1, r1, r4
 568 0052 B1FA81F1 		clz	r1, r1
 569 0056 0120     		movs	r0, #1
 570 0058 4909     		lsrs	r1, r1, #5
ARM GAS  /tmp/ccaQp240.s 			page 11


 571 005a FFF7FEFF 		bl	_test_assert
 572              	.LVL40:
 573 005e 10B1     		cbz	r0, .L37
 574              	.L32:
 575              		.loc 1 399 0
 576 0060 05B0     		add	sp, sp, #20
 577              		.cfi_remember_state
 578              		.cfi_def_cfa_offset 28
 579              		@ sp needed
 580 0062 BDE8F086 		pop	{r4, r5, r6, r7, r9, r10, pc}
 581              	.LVL41:
 582              	.L37:
 583              		.cfi_restore_state
 584              		.loc 1 364 0
 585 0066 4FF47A70 		mov	r0, #1000
 586 006a FFF7FEFF 		bl	chThdSleep
 587              	.LVL42:
 588              	.LBB158:
 589              	.LBB159:
 590              		.loc 2 189 0
 591 006e AB69     		ldr	r3, [r5, #24]
 592              	.LBE159:
 593              	.LBE158:
 594              		.loc 1 365 0
 595 0070 9968     		ldr	r1, [r3, #8]
 596 0072 C9EB0101 		rsb	r1, r9, r1
 597 0076 B1FA81F1 		clz	r1, r1
 598 007a 0220     		movs	r0, #2
 599 007c 4909     		lsrs	r1, r1, #5
 600 007e FFF7FEFF 		bl	_test_assert
 601              	.LVL43:
 602 0082 0028     		cmp	r0, #0
 603 0084 ECD1     		bne	.L32
 604              		.loc 1 366 0
 605 0086 7648     		ldr	r0, .L38+32
 606 0088 FFF7FEFF 		bl	chMtxLock
 607              	.LVL44:
 608              	.LBB160:
 609              	.LBB161:
 610              		.loc 2 189 0
 611 008c AB69     		ldr	r3, [r5, #24]
 612              	.LBE161:
 613              	.LBE160:
 614              		.loc 1 367 0
 615 008e 9968     		ldr	r1, [r3, #8]
 616 0090 C9EB0101 		rsb	r1, r9, r1
 617 0094 B1FA81F1 		clz	r1, r1
 618 0098 0320     		movs	r0, #3
 619 009a 4909     		lsrs	r1, r1, #5
 620 009c FFF7FEFF 		bl	_test_assert
 621              	.LVL45:
 622 00a0 0028     		cmp	r0, #0
 623 00a2 DDD1     		bne	.L32
 624              		.loc 1 368 0
 625 00a4 4FF47A70 		mov	r0, #1000
 626 00a8 FFF7FEFF 		bl	chThdSleep
 627              	.LVL46:
ARM GAS  /tmp/ccaQp240.s 			page 12


 628              	.LBB162:
 629              	.LBB163:
 630              		.loc 2 189 0
 631 00ac AB69     		ldr	r3, [r5, #24]
 632              	.LBE163:
 633              	.LBE162:
 634              		.loc 1 369 0
 635 00ae 9968     		ldr	r1, [r3, #8]
 636 00b0 CAEB0101 		rsb	r1, r10, r1
 637 00b4 B1FA81F1 		clz	r1, r1
 638 00b8 0420     		movs	r0, #4
 639 00ba 4909     		lsrs	r1, r1, #5
 640 00bc FFF7FEFF 		bl	_test_assert
 641              	.LVL47:
 642 00c0 0028     		cmp	r0, #0
 643 00c2 CDD1     		bne	.L32
 644              		.loc 1 370 0
 645 00c4 6648     		ldr	r0, .L38+32
 646 00c6 FFF7FEFF 		bl	chMtxUnlock
 647              	.LVL48:
 648              	.LBB164:
 649              	.LBB165:
 650              		.loc 2 189 0
 651 00ca AB69     		ldr	r3, [r5, #24]
 652              	.LBE165:
 653              	.LBE164:
 654              		.loc 1 371 0
 655 00cc 9968     		ldr	r1, [r3, #8]
 656 00ce C9EB0101 		rsb	r1, r9, r1
 657 00d2 B1FA81F1 		clz	r1, r1
 658 00d6 0520     		movs	r0, #5
 659 00d8 4909     		lsrs	r1, r1, #5
 660 00da FFF7FEFF 		bl	_test_assert
 661              	.LVL49:
 662 00de 0028     		cmp	r0, #0
 663 00e0 BED1     		bne	.L32
 664              		.loc 1 372 0
 665 00e2 4FF47A70 		mov	r0, #1000
 666 00e6 FFF7FEFF 		bl	chThdSleep
 667              	.LVL50:
 668              	.LBB166:
 669              	.LBB167:
 670              		.loc 2 189 0
 671 00ea AB69     		ldr	r3, [r5, #24]
 672              	.LBE167:
 673              	.LBE166:
 674              		.loc 1 373 0
 675 00ec 9968     		ldr	r1, [r3, #8]
 676 00ee C9EB0101 		rsb	r1, r9, r1
 677 00f2 B1FA81F1 		clz	r1, r1
 678 00f6 0620     		movs	r0, #6
 679 00f8 4909     		lsrs	r1, r1, #5
 680 00fa FFF7FEFF 		bl	_test_assert
 681              	.LVL51:
 682 00fe 0028     		cmp	r0, #0
 683 0100 AED1     		bne	.L32
 684              		.loc 1 374 0
ARM GAS  /tmp/ccaQp240.s 			page 13


 685 0102 FFF7FEFF 		bl	chMtxUnlockAll
 686              	.LVL52:
 687              	.LBB168:
 688              	.LBB169:
 689              		.loc 2 189 0
 690 0106 AB69     		ldr	r3, [r5, #24]
 691              	.LBE169:
 692              	.LBE168:
 693              		.loc 1 375 0
 694 0108 9968     		ldr	r1, [r3, #8]
 695 010a 091B     		subs	r1, r1, r4
 696 010c B1FA81F1 		clz	r1, r1
 697 0110 0720     		movs	r0, #7
 698 0112 4909     		lsrs	r1, r1, #5
 699 0114 FFF7FEFF 		bl	_test_assert
 700              	.LVL53:
 701 0118 0028     		cmp	r0, #0
 702 011a A1D1     		bne	.L32
 703              		.loc 1 376 0
 704 011c FFF7FEFF 		bl	test_wait_threads
 705              	.LVL54:
 706              		.loc 1 379 0
 707 0120 504B     		ldr	r3, .L38+36
 708 0122 0093     		str	r3, [sp]
 709 0124 4A46     		mov	r2, r9
 710 0126 4A4B     		ldr	r3, .L38+16
 711 0128 0398     		ldr	r0, [sp, #12]
 712 012a 4FF4A471 		mov	r1, #328
 713 012e FFF7FEFF 		bl	chThdCreateStatic
 714              	.LVL55:
 715              		.loc 1 380 0
 716 0132 4D4B     		ldr	r3, .L38+40
 717              		.loc 1 379 0
 718 0134 3860     		str	r0, [r7]
 719              		.loc 1 380 0
 720 0136 4FF4A471 		mov	r1, #328
 721 013a 0093     		str	r3, [sp]
 722 013c 5246     		mov	r2, r10
 723 013e 464B     		ldr	r3, .L38+24
 724 0140 3046     		mov	r0, r6
 725 0142 FFF7FEFF 		bl	chThdCreateStatic
 726              	.LVL56:
 727 0146 7860     		str	r0, [r7, #4]
 728              		.loc 1 381 0
 729 0148 4448     		ldr	r0, .L38+28
 730 014a FFF7FEFF 		bl	chMtxLock
 731              	.LVL57:
 732              	.LBB170:
 733              	.LBB171:
 734              		.loc 2 189 0
 735 014e AB69     		ldr	r3, [r5, #24]
 736              	.LBE171:
 737              	.LBE170:
 738              		.loc 1 382 0
 739 0150 9968     		ldr	r1, [r3, #8]
 740 0152 091B     		subs	r1, r1, r4
 741 0154 B1FA81F1 		clz	r1, r1
ARM GAS  /tmp/ccaQp240.s 			page 14


 742 0158 0820     		movs	r0, #8
 743 015a 4909     		lsrs	r1, r1, #5
 744 015c FFF7FEFF 		bl	_test_assert
 745              	.LVL58:
 746 0160 0028     		cmp	r0, #0
 747 0162 7FF47DAF 		bne	.L32
 748              		.loc 1 383 0
 749 0166 4FF47A70 		mov	r0, #1000
 750 016a FFF7FEFF 		bl	chThdSleep
 751              	.LVL59:
 752              	.LBB172:
 753              	.LBB173:
 754              		.loc 2 189 0
 755 016e AB69     		ldr	r3, [r5, #24]
 756              	.LBE173:
 757              	.LBE172:
 758              		.loc 1 384 0
 759 0170 9968     		ldr	r1, [r3, #8]
 760 0172 C9EB010C 		rsb	ip, r9, r1
 761 0176 DCF10001 		rsbs	r1, ip, #0
 762 017a 41EB0C01 		adc	r1, r1, ip
 763 017e 0920     		movs	r0, #9
 764 0180 FFF7FEFF 		bl	_test_assert
 765              	.LVL60:
 766 0184 0028     		cmp	r0, #0
 767 0186 7FF46BAF 		bne	.L32
 768              		.loc 1 385 0
 769 018a 3548     		ldr	r0, .L38+32
 770 018c FFF7FEFF 		bl	chMtxLock
 771              	.LVL61:
 772              	.LBB174:
 773              	.LBB175:
 774              		.loc 2 189 0
 775 0190 AB69     		ldr	r3, [r5, #24]
 776              	.LBE175:
 777              	.LBE174:
 778              		.loc 1 386 0
 779 0192 9968     		ldr	r1, [r3, #8]
 780 0194 C9EB010E 		rsb	lr, r9, r1
 781 0198 DEF10001 		rsbs	r1, lr, #0
 782 019c 41EB0E01 		adc	r1, r1, lr
 783 01a0 0A20     		movs	r0, #10
 784 01a2 FFF7FEFF 		bl	_test_assert
 785              	.LVL62:
 786 01a6 0028     		cmp	r0, #0
 787 01a8 7FF45AAF 		bne	.L32
 788              		.loc 1 387 0
 789 01ac 4FF47A70 		mov	r0, #1000
 790 01b0 FFF7FEFF 		bl	chThdSleep
 791              	.LVL63:
 792              	.LBB176:
 793              	.LBB177:
 794              		.loc 2 189 0
 795 01b4 AB69     		ldr	r3, [r5, #24]
 796              	.LBE177:
 797              	.LBE176:
 798              		.loc 1 388 0
ARM GAS  /tmp/ccaQp240.s 			page 15


 799 01b6 9968     		ldr	r1, [r3, #8]
 800 01b8 CAEB0107 		rsb	r7, r10, r1
 801 01bc 7942     		rsbs	r1, r7, #0
 802 01be 4FF00B00 		mov	r0, #11
 803 01c2 7941     		adcs	r1, r1, r7
 804 01c4 FFF7FEFF 		bl	_test_assert
 805              	.LVL64:
 806 01c8 0646     		mov	r6, r0
 807 01ca 0028     		cmp	r0, #0
 808 01cc 7FF448AF 		bne	.L32
 809              	.LVL65:
 810              	.LBB178:
 811              	.LBB179:
 812              	.LBB180:
 813              	.LBB181:
 814              		.file 3 "/home/selim/working/ChibiOS/os/ext/CMSIS/include/core_cmFunc.h"
 815              		.loc 3 546 0
 816 01d0 2023     		movs	r3, #32
 817              		.syntax unified
 818              	@ 546 "/home/selim/working/ChibiOS/os/ext/CMSIS/include/core_cmFunc.h" 1
 819 01d2 83F31188 		MSR basepri, r3
 820              	@ 0 "" 2
 821              	.LVL66:
 822              		.thumb
 823              		.syntax unified
 824              	.LBE181:
 825              	.LBE180:
 826              	.LBE179:
 827              	.LBE178:
 828              		.loc 1 390 0
 829 01d6 2248     		ldr	r0, .L38+32
 830 01d8 FFF7FEFF 		bl	chMtxUnlockS
 831              	.LVL67:
 832              		.loc 1 391 0
 833 01dc FFF7FEFF 		bl	chSchRescheduleS
 834              	.LVL68:
 835              	.LBB182:
 836              	.LBB183:
 837              	.LBB184:
 838              	.LBB185:
 839              	.LBB186:
 840              		.loc 3 546 0
 841              		.syntax unified
 842              	@ 546 "/home/selim/working/ChibiOS/os/ext/CMSIS/include/core_cmFunc.h" 1
 843 01e0 86F31188 		MSR basepri, r6
 844              	@ 0 "" 2
 845              	.LVL69:
 846              		.thumb
 847              		.syntax unified
 848              	.LBE186:
 849              	.LBE185:
 850              	.LBE184:
 851              	.LBE183:
 852              	.LBE182:
 853              	.LBB187:
 854              	.LBB188:
 855              		.loc 2 189 0
ARM GAS  /tmp/ccaQp240.s 			page 16


 856 01e4 AB69     		ldr	r3, [r5, #24]
 857              	.LBE188:
 858              	.LBE187:
 859              		.loc 1 393 0
 860 01e6 9968     		ldr	r1, [r3, #8]
 861 01e8 C9EB0106 		rsb	r6, r9, r1
 862 01ec 7142     		rsbs	r1, r6, #0
 863 01ee 7141     		adcs	r1, r1, r6
 864 01f0 0C20     		movs	r0, #12
 865 01f2 FFF7FEFF 		bl	_test_assert
 866              	.LVL70:
 867 01f6 0028     		cmp	r0, #0
 868 01f8 7FF432AF 		bne	.L32
 869              		.loc 1 394 0
 870 01fc 4FF47A70 		mov	r0, #1000
 871 0200 FFF7FEFF 		bl	chThdSleep
 872              	.LVL71:
 873              	.LBB189:
 874              	.LBB190:
 875              		.loc 2 189 0
 876 0204 AB69     		ldr	r3, [r5, #24]
 877              	.LBE190:
 878              	.LBE189:
 879              		.loc 1 395 0
 880 0206 9968     		ldr	r1, [r3, #8]
 881 0208 C9EB0102 		rsb	r2, r9, r1
 882 020c 5142     		rsbs	r1, r2, #0
 883 020e 5141     		adcs	r1, r1, r2
 884 0210 0D20     		movs	r0, #13
 885 0212 FFF7FEFF 		bl	_test_assert
 886              	.LVL72:
 887 0216 0028     		cmp	r0, #0
 888 0218 7FF422AF 		bne	.L32
 889              		.loc 1 396 0
 890 021c FFF7FEFF 		bl	chMtxUnlockAll
 891              	.LVL73:
 892              	.LBB191:
 893              	.LBB192:
 894              		.loc 2 189 0
 895 0220 AB69     		ldr	r3, [r5, #24]
 896              	.LBE192:
 897              	.LBE191:
 898              		.loc 1 397 0
 899 0222 9968     		ldr	r1, [r3, #8]
 900 0224 0B1B     		subs	r3, r1, r4
 901 0226 5942     		rsbs	r1, r3, #0
 902 0228 5941     		adcs	r1, r1, r3
 903 022a 0E20     		movs	r0, #14
 904 022c FFF7FEFF 		bl	_test_assert
 905              	.LVL74:
 906 0230 0028     		cmp	r0, #0
 907 0232 7FF415AF 		bne	.L32
 908              		.loc 1 399 0
 909 0236 05B0     		add	sp, sp, #20
 910              		.cfi_def_cfa_offset 28
 911              		@ sp needed
 912 0238 BDE8F046 		pop	{r4, r5, r6, r7, r9, r10, lr}
ARM GAS  /tmp/ccaQp240.s 			page 17


 913              		.cfi_restore 14
 914              		.cfi_restore 10
 915              		.cfi_restore 9
 916              		.cfi_restore 7
 917              		.cfi_restore 6
 918              		.cfi_restore 5
 919              		.cfi_restore 4
 920              		.cfi_def_cfa_offset 0
 921              	.LVL75:
 922              		.loc 1 398 0
 923 023c FFF7FEBF 		b	test_wait_threads
 924              	.LVL76:
 925              	.L39:
 926              		.align	2
 927              	.L38:
 928 0240 00000000 		.word	ch
 929 0244 00000000 		.word	wa
 930 0248 0C000000 		.word	.LC3
 931 024c 00000000 		.word	threads
 932 0250 00000000 		.word	thread4a
 933 0254 10000000 		.word	.LC4
 934 0258 00000000 		.word	thread4b
 935 025c 00000000 		.word	.LANCHOR1
 936 0260 00000000 		.word	.LANCHOR0
 937 0264 04000000 		.word	.LC1
 938 0268 08000000 		.word	.LC2
 939              		.cfi_endproc
 940              	.LFE233:
 941              		.size	mtx4_execute, .-mtx4_execute
 942              		.section	.text.mtx5_execute,"ax",%progbits
 943              		.align	2
 944              		.p2align 4,,15
 945              		.thumb
 946              		.thumb_func
 947              		.type	mtx5_execute, %function
 948              	mtx5_execute:
 949              	.LFB235:
 950              		.loc 1 423 0
 951              		.cfi_startproc
 952              		@ args = 0, pretend = 0, frame = 0
 953              		@ frame_needed = 0, uses_anonymous_args = 0
 954 0000 F8B5     		push	{r3, r4, r5, r6, r7, lr}
 955              		.cfi_def_cfa_offset 24
 956              		.cfi_offset 3, -24
 957              		.cfi_offset 4, -20
 958              		.cfi_offset 5, -16
 959              		.cfi_offset 6, -12
 960              		.cfi_offset 7, -8
 961              		.cfi_offset 14, -4
 962              	.LBB193:
 963              	.LBB194:
 964              	.LBB195:
 965              	.LBB196:
 966              		.loc 2 176 0
 967 0002 2B4D     		ldr	r5, .L46
 968              	.LBE196:
 969              	.LBE195:
ARM GAS  /tmp/ccaQp240.s 			page 18


 970              	.LBE194:
 971              	.LBE193:
 972              		.loc 1 429 0
 973 0004 2B4C     		ldr	r4, .L46+4
 974              	.LBB199:
 975              	.LBB197:
 976              		.loc 2 189 0
 977 0006 AB69     		ldr	r3, [r5, #24]
 978              	.LBE197:
 979              	.LBE199:
 980              		.loc 1 429 0
 981 0008 2046     		mov	r0, r4
 982              	.LBB200:
 983              	.LBB198:
 984              		.loc 2 189 0
 985 000a 9E68     		ldr	r6, [r3, #8]
 986              	.LBE198:
 987              	.LBE200:
 988              		.loc 1 429 0
 989 000c FFF7FEFF 		bl	chMtxTryLock
 990              	.LVL77:
 991              		.loc 1 430 0
 992 0010 0146     		mov	r1, r0
 993 0012 0120     		movs	r0, #1
 994              	.LVL78:
 995 0014 FFF7FEFF 		bl	_test_assert
 996              	.LVL79:
 997 0018 00B1     		cbz	r0, .L45
 998              	.L40:
 999 001a F8BD     		pop	{r3, r4, r5, r6, r7, pc}
 1000              	.L45:
 1001              		.loc 1 432 0
 1002 001c 2046     		mov	r0, r4
 1003 001e FFF7FEFF 		bl	chMtxTryLock
 1004              	.LVL80:
 1005              		.loc 1 433 0
 1006 0022 80F00101 		eor	r1, r0, #1
 1007 0026 C9B2     		uxtb	r1, r1
 1008 0028 0220     		movs	r0, #2
 1009              	.LVL81:
 1010 002a FFF7FEFF 		bl	_test_assert
 1011              	.LVL82:
 1012 002e 0746     		mov	r7, r0
 1013 0030 0028     		cmp	r0, #0
 1014 0032 F2D1     		bne	.L40
 1015              	.LVL83:
 1016              	.LBB201:
 1017              	.LBB202:
 1018              	.LBB203:
 1019              	.LBB204:
 1020              		.loc 3 546 0
 1021 0034 2023     		movs	r3, #32
 1022              		.syntax unified
 1023              	@ 546 "/home/selim/working/ChibiOS/os/ext/CMSIS/include/core_cmFunc.h" 1
 1024 0036 83F31188 		MSR basepri, r3
 1025              	@ 0 "" 2
 1026              	.LVL84:
ARM GAS  /tmp/ccaQp240.s 			page 19


 1027              		.thumb
 1028              		.syntax unified
 1029              	.LBE204:
 1030              	.LBE203:
 1031              	.LBE202:
 1032              	.LBE201:
 1033              		.loc 1 436 0
 1034 003a 2046     		mov	r0, r4
 1035 003c FFF7FEFF 		bl	chMtxUnlockS
 1036              	.LVL85:
 1037              	.LBB205:
 1038              	.LBB206:
 1039              	.LBB207:
 1040              	.LBB208:
 1041              	.LBB209:
 1042              		.loc 3 546 0
 1043              		.syntax unified
 1044              	@ 546 "/home/selim/working/ChibiOS/os/ext/CMSIS/include/core_cmFunc.h" 1
 1045 0040 87F31188 		MSR basepri, r7
 1046              	@ 0 "" 2
 1047              	.LVL86:
 1048              		.thumb
 1049              		.syntax unified
 1050              	.LBE209:
 1051              	.LBE208:
 1052              	.LBE207:
 1053              	.LBE206:
 1054              	.LBE205:
 1055              		.loc 1 439 0
 1056 0044 2168     		ldr	r1, [r4]
 1057 0046 091B     		subs	r1, r1, r4
 1058 0048 B1FA81F1 		clz	r1, r1
 1059 004c 0320     		movs	r0, #3
 1060 004e 4909     		lsrs	r1, r1, #5
 1061 0050 FFF7FEFF 		bl	_test_assert
 1062              	.LVL87:
 1063 0054 0028     		cmp	r0, #0
 1064 0056 E0D1     		bne	.L40
 1065              		.loc 1 440 0
 1066 0058 A168     		ldr	r1, [r4, #8]
 1067 005a B1FA81F1 		clz	r1, r1
 1068 005e 4909     		lsrs	r1, r1, #5
 1069 0060 0420     		movs	r0, #4
 1070 0062 FFF7FEFF 		bl	_test_assert
 1071              	.LVL88:
 1072 0066 0028     		cmp	r0, #0
 1073 0068 D7D1     		bne	.L40
 1074              	.LBB210:
 1075              	.LBB211:
 1076              		.loc 2 189 0
 1077 006a AB69     		ldr	r3, [r5, #24]
 1078              	.LBE211:
 1079              	.LBE210:
 1080              		.loc 1 441 0
 1081 006c 9968     		ldr	r1, [r3, #8]
 1082 006e 891B     		subs	r1, r1, r6
 1083 0070 B1FA81F1 		clz	r1, r1
ARM GAS  /tmp/ccaQp240.s 			page 20


 1084 0074 0520     		movs	r0, #5
 1085 0076 4909     		lsrs	r1, r1, #5
 1086 0078 FFF7FEFF 		bl	_test_assert
 1087              	.LVL89:
 1088 007c 0028     		cmp	r0, #0
 1089 007e CCD1     		bne	.L40
 1090              		.loc 1 444 0
 1091 0080 2046     		mov	r0, r4
 1092 0082 FFF7FEFF 		bl	chMtxLock
 1093              	.LVL90:
 1094              		.loc 1 445 0
 1095 0086 FFF7FEFF 		bl	chMtxUnlockAll
 1096              	.LVL91:
 1097              		.loc 1 446 0
 1098 008a 2168     		ldr	r1, [r4]
 1099 008c 091B     		subs	r1, r1, r4
 1100 008e B1FA81F1 		clz	r1, r1
 1101 0092 0620     		movs	r0, #6
 1102 0094 4909     		lsrs	r1, r1, #5
 1103 0096 FFF7FEFF 		bl	_test_assert
 1104              	.LVL92:
 1105 009a 0028     		cmp	r0, #0
 1106 009c BDD1     		bne	.L40
 1107              		.loc 1 447 0
 1108 009e A168     		ldr	r1, [r4, #8]
 1109 00a0 B1FA81F1 		clz	r1, r1
 1110 00a4 4909     		lsrs	r1, r1, #5
 1111 00a6 0720     		movs	r0, #7
 1112              		.loc 1 448 0
 1113 00a8 BDE8F840 		pop	{r3, r4, r5, r6, r7, lr}
 1114              		.cfi_restore 14
 1115              		.cfi_restore 7
 1116              		.cfi_restore 6
 1117              		.cfi_restore 5
 1118              		.cfi_restore 4
 1119              		.cfi_restore 3
 1120              		.cfi_def_cfa_offset 0
 1121              		.loc 1 447 0
 1122 00ac FFF7FEBF 		b	_test_assert
 1123              	.LVL93:
 1124              	.L47:
 1125              		.align	2
 1126              	.L46:
 1127 00b0 00000000 		.word	ch
 1128 00b4 00000000 		.word	.LANCHOR0
 1129              		.cfi_endproc
 1130              	.LFE235:
 1131              		.size	mtx5_execute, .-mtx5_execute
 1132              		.section	.text.mtx6_execute,"ax",%progbits
 1133              		.align	2
 1134              		.p2align 4,,15
 1135              		.thumb
 1136              		.thumb_func
 1137              		.type	mtx6_execute, %function
 1138              	mtx6_execute:
 1139              	.LFB238:
 1140              		.loc 1 483 0
ARM GAS  /tmp/ccaQp240.s 			page 21


 1141              		.cfi_startproc
 1142              		@ args = 0, pretend = 0, frame = 0
 1143              		@ frame_needed = 0, uses_anonymous_args = 0
 1144 0000 F0B5     		push	{r4, r5, r6, r7, lr}
 1145              		.cfi_def_cfa_offset 20
 1146              		.cfi_offset 4, -20
 1147              		.cfi_offset 5, -16
 1148              		.cfi_offset 6, -12
 1149              		.cfi_offset 7, -8
 1150              		.cfi_offset 14, -4
 1151              	.LBB212:
 1152              	.LBB213:
 1153              	.LBB214:
 1154              	.LBB215:
 1155              		.loc 2 176 0
 1156 0002 2F4B     		ldr	r3, .L50
 1157              	.LBE215:
 1158              	.LBE214:
 1159              	.LBE213:
 1160              	.LBE212:
 1161              		.loc 1 486 0
 1162 0004 2F4F     		ldr	r7, .L50+4
 1163              	.LBB218:
 1164              	.LBB216:
 1165              		.loc 2 189 0
 1166 0006 9B69     		ldr	r3, [r3, #24]
 1167              	.LBE216:
 1168              	.LBE218:
 1169              		.loc 1 486 0
 1170 0008 2F4D     		ldr	r5, .L50+8
 1171              	.LBB219:
 1172              	.LBB217:
 1173              		.loc 2 189 0
 1174 000a 9E68     		ldr	r6, [r3, #8]
 1175              	.LBE217:
 1176              	.LBE219:
 1177              		.loc 1 486 0
 1178 000c 2F4B     		ldr	r3, .L50+12
 1179 000e 3868     		ldr	r0, [r7]
 1180 0010 2F4C     		ldr	r4, .L50+16
 1181              		.loc 1 483 0
 1182 0012 83B0     		sub	sp, sp, #12
 1183              		.cfi_def_cfa_offset 32
 1184              		.loc 1 486 0
 1185 0014 721C     		adds	r2, r6, #1
 1186 0016 0093     		str	r3, [sp]
 1187 0018 4FF4A471 		mov	r1, #328
 1188 001c 2B46     		mov	r3, r5
 1189 001e FFF7FEFF 		bl	chThdCreateStatic
 1190              	.LVL94:
 1191              		.loc 1 487 0
 1192 0022 7B68     		ldr	r3, [r7, #4]
 1193 0024 2B49     		ldr	r1, .L50+20
 1194              		.loc 1 486 0
 1195 0026 2060     		str	r0, [r4]
 1196              		.loc 1 487 0
 1197 0028 B21C     		adds	r2, r6, #2
ARM GAS  /tmp/ccaQp240.s 			page 22


 1198 002a 0091     		str	r1, [sp]
 1199 002c 1846     		mov	r0, r3
 1200 002e 4FF4A471 		mov	r1, #328
 1201 0032 2B46     		mov	r3, r5
 1202 0034 FFF7FEFF 		bl	chThdCreateStatic
 1203              	.LVL95:
 1204              		.loc 1 488 0
 1205 0038 BB68     		ldr	r3, [r7, #8]
 1206 003a 2749     		ldr	r1, .L50+24
 1207              		.loc 1 487 0
 1208 003c 6060     		str	r0, [r4, #4]
 1209              		.loc 1 488 0
 1210 003e F21C     		adds	r2, r6, #3
 1211 0040 0091     		str	r1, [sp]
 1212 0042 1846     		mov	r0, r3
 1213 0044 4FF4A471 		mov	r1, #328
 1214 0048 2B46     		mov	r3, r5
 1215 004a FFF7FEFF 		bl	chThdCreateStatic
 1216              	.LVL96:
 1217              		.loc 1 489 0
 1218 004e FB68     		ldr	r3, [r7, #12]
 1219 0050 2249     		ldr	r1, .L50+28
 1220              		.loc 1 488 0
 1221 0052 A060     		str	r0, [r4, #8]
 1222              		.loc 1 489 0
 1223 0054 321D     		adds	r2, r6, #4
 1224 0056 0091     		str	r1, [sp]
 1225 0058 1846     		mov	r0, r3
 1226 005a 4FF4A471 		mov	r1, #328
 1227 005e 2B46     		mov	r3, r5
 1228 0060 FFF7FEFF 		bl	chThdCreateStatic
 1229              	.LVL97:
 1230              		.loc 1 490 0
 1231 0064 3B69     		ldr	r3, [r7, #16]
 1232 0066 1E49     		ldr	r1, .L50+32
 1233              		.loc 1 489 0
 1234 0068 E060     		str	r0, [r4, #12]
 1235              		.loc 1 490 0
 1236 006a 721D     		adds	r2, r6, #5
 1237 006c 0091     		str	r1, [sp]
 1238 006e 1846     		mov	r0, r3
 1239 0070 4FF4A471 		mov	r1, #328
 1240 0074 2B46     		mov	r3, r5
 1241 0076 FFF7FEFF 		bl	chThdCreateStatic
 1242              	.LVL98:
 1243              	.LBB220:
 1244              	.LBB221:
 1245              	.LBB222:
 1246              	.LBB223:
 1247              		.loc 3 546 0
 1248 007a 2023     		movs	r3, #32
 1249              	.LBE223:
 1250              	.LBE222:
 1251              	.LBE221:
 1252              	.LBE220:
 1253              		.loc 1 490 0
 1254 007c 2061     		str	r0, [r4, #16]
ARM GAS  /tmp/ccaQp240.s 			page 23


 1255              	.LVL99:
 1256              	.LBB227:
 1257              	.LBB226:
 1258              	.LBB225:
 1259              	.LBB224:
 1260              		.loc 3 546 0
 1261              		.syntax unified
 1262              	@ 546 "/home/selim/working/ChibiOS/os/ext/CMSIS/include/core_cmFunc.h" 1
 1263 007e 83F31188 		MSR basepri, r3
 1264              	@ 0 "" 2
 1265              	.LVL100:
 1266              		.thumb
 1267              		.syntax unified
 1268              	.LBE224:
 1269              	.LBE225:
 1270              	.LBE226:
 1271              	.LBE227:
 1272              		.loc 1 492 0
 1273 0082 184C     		ldr	r4, .L50+36
 1274 0084 2046     		mov	r0, r4
 1275 0086 FFF7FEFF 		bl	chCondSignalI
 1276              	.LVL101:
 1277              		.loc 1 493 0
 1278 008a 2046     		mov	r0, r4
 1279 008c FFF7FEFF 		bl	chCondSignalI
 1280              	.LVL102:
 1281              		.loc 1 494 0
 1282 0090 2046     		mov	r0, r4
 1283 0092 FFF7FEFF 		bl	chCondSignalI
 1284              	.LVL103:
 1285              		.loc 1 495 0
 1286 0096 2046     		mov	r0, r4
 1287 0098 FFF7FEFF 		bl	chCondSignalI
 1288              	.LVL104:
 1289              		.loc 1 496 0
 1290 009c 2046     		mov	r0, r4
 1291 009e FFF7FEFF 		bl	chCondSignalI
 1292              	.LVL105:
 1293              		.loc 1 497 0
 1294 00a2 FFF7FEFF 		bl	chSchRescheduleS
 1295              	.LVL106:
 1296              	.LBB228:
 1297              	.LBB229:
 1298              	.LBB230:
 1299              	.LBB231:
 1300              	.LBB232:
 1301              		.loc 3 546 0
 1302 00a6 0023     		movs	r3, #0
 1303              		.syntax unified
 1304              	@ 546 "/home/selim/working/ChibiOS/os/ext/CMSIS/include/core_cmFunc.h" 1
 1305 00a8 83F31188 		MSR basepri, r3
 1306              	@ 0 "" 2
 1307              	.LVL107:
 1308              		.thumb
 1309              		.syntax unified
 1310              	.LBE232:
 1311              	.LBE231:
ARM GAS  /tmp/ccaQp240.s 			page 24


 1312              	.LBE230:
 1313              	.LBE229:
 1314              	.LBE228:
 1315              		.loc 1 499 0
 1316 00ac FFF7FEFF 		bl	test_wait_threads
 1317              	.LVL108:
 1318              		.loc 1 500 0
 1319 00b0 0D49     		ldr	r1, .L50+40
 1320 00b2 0120     		movs	r0, #1
 1321              		.loc 1 501 0
 1322 00b4 03B0     		add	sp, sp, #12
 1323              		.cfi_def_cfa_offset 20
 1324              		@ sp needed
 1325 00b6 BDE8F040 		pop	{r4, r5, r6, r7, lr}
 1326              		.cfi_restore 14
 1327              		.cfi_restore 7
 1328              		.cfi_restore 6
 1329              		.cfi_restore 5
 1330              		.cfi_restore 4
 1331              		.cfi_def_cfa_offset 0
 1332              		.loc 1 500 0
 1333 00ba FFF7FEBF 		b	_test_assert_sequence
 1334              	.LVL109:
 1335              	.L51:
 1336 00be 00BF     		.align	2
 1337              	.L50:
 1338 00c0 00000000 		.word	ch
 1339 00c4 00000000 		.word	wa
 1340 00c8 00000000 		.word	thread10
 1341 00cc 00000000 		.word	.LC0
 1342 00d0 00000000 		.word	threads
 1343 00d4 04000000 		.word	.LC1
 1344 00d8 08000000 		.word	.LC2
 1345 00dc 0C000000 		.word	.LC3
 1346 00e0 10000000 		.word	.LC4
 1347 00e4 00000000 		.word	.LANCHOR2
 1348 00e8 14000000 		.word	.LC5
 1349              		.cfi_endproc
 1350              	.LFE238:
 1351              		.size	mtx6_execute, .-mtx6_execute
 1352              		.section	.text.thread10,"ax",%progbits
 1353              		.align	2
 1354              		.p2align 4,,15
 1355              		.thumb
 1356              		.thumb_func
 1357              		.type	thread10, %function
 1358              	thread10:
 1359              	.LFB237:
 1360              		.loc 1 475 0
 1361              		.cfi_startproc
 1362              		@ args = 0, pretend = 0, frame = 0
 1363              		@ frame_needed = 0, uses_anonymous_args = 0
 1364              	.LVL110:
 1365 0000 38B5     		push	{r3, r4, r5, lr}
 1366              		.cfi_def_cfa_offset 16
 1367              		.cfi_offset 3, -16
 1368              		.cfi_offset 4, -12
ARM GAS  /tmp/ccaQp240.s 			page 25


 1369              		.cfi_offset 5, -8
 1370              		.cfi_offset 14, -4
 1371              		.loc 1 477 0
 1372 0002 084C     		ldr	r4, .L54
 1373              		.loc 1 475 0
 1374 0004 0546     		mov	r5, r0
 1375              		.loc 1 477 0
 1376 0006 2046     		mov	r0, r4
 1377              	.LVL111:
 1378 0008 FFF7FEFF 		bl	chMtxLock
 1379              	.LVL112:
 1380              		.loc 1 478 0
 1381 000c 0648     		ldr	r0, .L54+4
 1382 000e FFF7FEFF 		bl	chCondWait
 1383              	.LVL113:
 1384              		.loc 1 479 0
 1385 0012 2878     		ldrb	r0, [r5]	@ zero_extendqisi2
 1386 0014 FFF7FEFF 		bl	test_emit_token
 1387              	.LVL114:
 1388              		.loc 1 480 0
 1389 0018 2046     		mov	r0, r4
 1390              		.loc 1 481 0
 1391 001a BDE83840 		pop	{r3, r4, r5, lr}
 1392              		.cfi_restore 14
 1393              		.cfi_restore 5
 1394              		.cfi_restore 4
 1395              		.cfi_restore 3
 1396              		.cfi_def_cfa_offset 0
 1397              	.LVL115:
 1398              		.loc 1 480 0
 1399 001e FFF7FEBF 		b	chMtxUnlock
 1400              	.LVL116:
 1401              	.L55:
 1402 0022 00BF     		.align	2
 1403              	.L54:
 1404 0024 00000000 		.word	.LANCHOR0
 1405 0028 00000000 		.word	.LANCHOR2
 1406              		.cfi_endproc
 1407              	.LFE237:
 1408              		.size	thread10, .-thread10
 1409              		.section	.text.mtx7_setup,"ax",%progbits
 1410              		.align	2
 1411              		.p2align 4,,15
 1412              		.thumb
 1413              		.thumb_func
 1414              		.type	mtx7_setup, %function
 1415              	mtx7_setup:
 1416              	.LFB239:
 1417              		.loc 1 520 0
 1418              		.cfi_startproc
 1419              		@ args = 0, pretend = 0, frame = 0
 1420              		@ frame_needed = 0, uses_anonymous_args = 0
 1421 0000 08B5     		push	{r3, lr}
 1422              		.cfi_def_cfa_offset 8
 1423              		.cfi_offset 3, -8
 1424              		.cfi_offset 14, -4
 1425              		.loc 1 522 0
ARM GAS  /tmp/ccaQp240.s 			page 26


 1426 0002 0448     		ldr	r0, .L58
 1427 0004 FFF7FEFF 		bl	chCondObjectInit
 1428              	.LVL117:
 1429              		.loc 1 523 0
 1430 0008 0348     		ldr	r0, .L58+4
 1431              		.loc 1 524 0
 1432 000a BDE80840 		pop	{r3, lr}
 1433              		.cfi_restore 14
 1434              		.cfi_restore 3
 1435              		.cfi_def_cfa_offset 0
 1436              		.loc 1 523 0
 1437 000e FFF7FEBF 		b	chMtxObjectInit
 1438              	.LVL118:
 1439              	.L59:
 1440 0012 00BF     		.align	2
 1441              	.L58:
 1442 0014 00000000 		.word	.LANCHOR2
 1443 0018 00000000 		.word	.LANCHOR0
 1444              		.cfi_endproc
 1445              	.LFE239:
 1446              		.size	mtx7_setup, .-mtx7_setup
 1447              		.section	.text.mtx6_setup,"ax",%progbits
 1448              		.align	2
 1449              		.p2align 4,,15
 1450              		.thumb
 1451              		.thumb_func
 1452              		.type	mtx6_setup, %function
 1453              	mtx6_setup:
 1454              	.LFB248:
 1455              		.cfi_startproc
 1456              		@ args = 0, pretend = 0, frame = 0
 1457              		@ frame_needed = 0, uses_anonymous_args = 0
 1458              		@ link register save eliminated.
 1459 0000 FFF7FEBF 		b	mtx7_setup
 1460              		.cfi_endproc
 1461              	.LFE248:
 1462              		.size	mtx6_setup, .-mtx6_setup
 1463              		.section	.text.mtx8_setup,"ax",%progbits
 1464              		.align	2
 1465              		.p2align 4,,15
 1466              		.thumb
 1467              		.thumb_func
 1468              		.type	mtx8_setup, %function
 1469              	mtx8_setup:
 1470              	.LFB241:
 1471              		.loc 1 555 0
 1472              		.cfi_startproc
 1473              		@ args = 0, pretend = 0, frame = 0
 1474              		@ frame_needed = 0, uses_anonymous_args = 0
 1475              		.loc 1 555 0
 1476 0000 08B5     		push	{r3, lr}
 1477              		.cfi_def_cfa_offset 8
 1478              		.cfi_offset 3, -8
 1479              		.cfi_offset 14, -4
 1480              		.loc 1 557 0
 1481 0002 0548     		ldr	r0, .L63
 1482 0004 FFF7FEFF 		bl	chCondObjectInit
ARM GAS  /tmp/ccaQp240.s 			page 27


 1483              	.LVL119:
 1484              		.loc 1 558 0
 1485 0008 0448     		ldr	r0, .L63+4
 1486 000a FFF7FEFF 		bl	chMtxObjectInit
 1487              	.LVL120:
 1488              		.loc 1 559 0
 1489 000e 0448     		ldr	r0, .L63+8
 1490              		.loc 1 560 0
 1491 0010 BDE80840 		pop	{r3, lr}
 1492              		.cfi_restore 14
 1493              		.cfi_restore 3
 1494              		.cfi_def_cfa_offset 0
 1495              		.loc 1 559 0
 1496 0014 FFF7FEBF 		b	chMtxObjectInit
 1497              	.LVL121:
 1498              	.L64:
 1499              		.align	2
 1500              	.L63:
 1501 0018 00000000 		.word	.LANCHOR2
 1502 001c 00000000 		.word	.LANCHOR0
 1503 0020 00000000 		.word	.LANCHOR1
 1504              		.cfi_endproc
 1505              	.LFE241:
 1506              		.size	mtx8_setup, .-mtx8_setup
 1507              		.section	.text.mtx7_execute,"ax",%progbits
 1508              		.align	2
 1509              		.p2align 4,,15
 1510              		.thumb
 1511              		.thumb_func
 1512              		.type	mtx7_execute, %function
 1513              	mtx7_execute:
 1514              	.LFB240:
 1515              		.loc 1 526 0
 1516              		.cfi_startproc
 1517              		@ args = 0, pretend = 0, frame = 0
 1518              		@ frame_needed = 0, uses_anonymous_args = 0
 1519 0000 F0B5     		push	{r4, r5, r6, r7, lr}
 1520              		.cfi_def_cfa_offset 20
 1521              		.cfi_offset 4, -20
 1522              		.cfi_offset 5, -16
 1523              		.cfi_offset 6, -12
 1524              		.cfi_offset 7, -8
 1525              		.cfi_offset 14, -4
 1526              	.LBB233:
 1527              	.LBB234:
 1528              	.LBB235:
 1529              	.LBB236:
 1530              		.loc 2 176 0
 1531 0002 244B     		ldr	r3, .L67
 1532              	.LBE236:
 1533              	.LBE235:
 1534              	.LBE234:
 1535              	.LBE233:
 1536              		.loc 1 529 0
 1537 0004 244F     		ldr	r7, .L67+4
 1538              	.LBB239:
 1539              	.LBB237:
ARM GAS  /tmp/ccaQp240.s 			page 28


 1540              		.loc 2 189 0
 1541 0006 9B69     		ldr	r3, [r3, #24]
 1542              	.LBE237:
 1543              	.LBE239:
 1544              		.loc 1 529 0
 1545 0008 244D     		ldr	r5, .L67+8
 1546              	.LBB240:
 1547              	.LBB238:
 1548              		.loc 2 189 0
 1549 000a 9E68     		ldr	r6, [r3, #8]
 1550              	.LBE238:
 1551              	.LBE240:
 1552              		.loc 1 529 0
 1553 000c 244B     		ldr	r3, .L67+12
 1554 000e 3868     		ldr	r0, [r7]
 1555 0010 244C     		ldr	r4, .L67+16
 1556              		.loc 1 526 0
 1557 0012 83B0     		sub	sp, sp, #12
 1558              		.cfi_def_cfa_offset 32
 1559              		.loc 1 529 0
 1560 0014 721C     		adds	r2, r6, #1
 1561 0016 0093     		str	r3, [sp]
 1562 0018 4FF4A471 		mov	r1, #328
 1563 001c 2B46     		mov	r3, r5
 1564 001e FFF7FEFF 		bl	chThdCreateStatic
 1565              	.LVL122:
 1566              		.loc 1 530 0
 1567 0022 7B68     		ldr	r3, [r7, #4]
 1568 0024 2049     		ldr	r1, .L67+20
 1569              		.loc 1 529 0
 1570 0026 2060     		str	r0, [r4]
 1571              		.loc 1 530 0
 1572 0028 B21C     		adds	r2, r6, #2
 1573 002a 0091     		str	r1, [sp]
 1574 002c 1846     		mov	r0, r3
 1575 002e 4FF4A471 		mov	r1, #328
 1576 0032 2B46     		mov	r3, r5
 1577 0034 FFF7FEFF 		bl	chThdCreateStatic
 1578              	.LVL123:
 1579              		.loc 1 531 0
 1580 0038 BB68     		ldr	r3, [r7, #8]
 1581 003a 1C49     		ldr	r1, .L67+24
 1582              		.loc 1 530 0
 1583 003c 6060     		str	r0, [r4, #4]
 1584              		.loc 1 531 0
 1585 003e F21C     		adds	r2, r6, #3
 1586 0040 0091     		str	r1, [sp]
 1587 0042 1846     		mov	r0, r3
 1588 0044 4FF4A471 		mov	r1, #328
 1589 0048 2B46     		mov	r3, r5
 1590 004a FFF7FEFF 		bl	chThdCreateStatic
 1591              	.LVL124:
 1592              		.loc 1 532 0
 1593 004e FB68     		ldr	r3, [r7, #12]
 1594 0050 1749     		ldr	r1, .L67+28
 1595              		.loc 1 531 0
 1596 0052 A060     		str	r0, [r4, #8]
ARM GAS  /tmp/ccaQp240.s 			page 29


 1597              		.loc 1 532 0
 1598 0054 321D     		adds	r2, r6, #4
 1599 0056 0091     		str	r1, [sp]
 1600 0058 1846     		mov	r0, r3
 1601 005a 4FF4A471 		mov	r1, #328
 1602 005e 2B46     		mov	r3, r5
 1603 0060 FFF7FEFF 		bl	chThdCreateStatic
 1604              	.LVL125:
 1605              		.loc 1 533 0
 1606 0064 3B69     		ldr	r3, [r7, #16]
 1607 0066 1349     		ldr	r1, .L67+32
 1608              		.loc 1 532 0
 1609 0068 E060     		str	r0, [r4, #12]
 1610              		.loc 1 533 0
 1611 006a 721D     		adds	r2, r6, #5
 1612 006c 0091     		str	r1, [sp]
 1613 006e 1846     		mov	r0, r3
 1614 0070 4FF4A471 		mov	r1, #328
 1615 0074 2B46     		mov	r3, r5
 1616 0076 FFF7FEFF 		bl	chThdCreateStatic
 1617              	.LVL126:
 1618 007a 2061     		str	r0, [r4, #16]
 1619              		.loc 1 534 0
 1620 007c 0E48     		ldr	r0, .L67+36
 1621 007e FFF7FEFF 		bl	chCondBroadcast
 1622              	.LVL127:
 1623              		.loc 1 535 0
 1624 0082 FFF7FEFF 		bl	test_wait_threads
 1625              	.LVL128:
 1626              		.loc 1 536 0
 1627 0086 0D49     		ldr	r1, .L67+40
 1628 0088 0120     		movs	r0, #1
 1629              		.loc 1 537 0
 1630 008a 03B0     		add	sp, sp, #12
 1631              		.cfi_def_cfa_offset 20
 1632              		@ sp needed
 1633 008c BDE8F040 		pop	{r4, r5, r6, r7, lr}
 1634              		.cfi_restore 14
 1635              		.cfi_restore 7
 1636              		.cfi_restore 6
 1637              		.cfi_restore 5
 1638              		.cfi_restore 4
 1639              		.cfi_def_cfa_offset 0
 1640              		.loc 1 536 0
 1641 0090 FFF7FEBF 		b	_test_assert_sequence
 1642              	.LVL129:
 1643              	.L68:
 1644              		.align	2
 1645              	.L67:
 1646 0094 00000000 		.word	ch
 1647 0098 00000000 		.word	wa
 1648 009c 00000000 		.word	thread10
 1649 00a0 00000000 		.word	.LC0
 1650 00a4 00000000 		.word	threads
 1651 00a8 04000000 		.word	.LC1
 1652 00ac 08000000 		.word	.LC2
 1653 00b0 0C000000 		.word	.LC3
ARM GAS  /tmp/ccaQp240.s 			page 30


 1654 00b4 10000000 		.word	.LC4
 1655 00b8 00000000 		.word	.LANCHOR2
 1656 00bc 14000000 		.word	.LC5
 1657              		.cfi_endproc
 1658              	.LFE240:
 1659              		.size	mtx7_execute, .-mtx7_execute
 1660              		.section	.text.mtx8_execute,"ax",%progbits
 1661              		.align	2
 1662              		.p2align 4,,15
 1663              		.thumb
 1664              		.thumb_func
 1665              		.type	mtx8_execute, %function
 1666              	mtx8_execute:
 1667              	.LFB244:
 1668              		.loc 1 583 0
 1669              		.cfi_startproc
 1670              		@ args = 0, pretend = 0, frame = 0
 1671              		@ frame_needed = 0, uses_anonymous_args = 0
 1672 0000 F0B5     		push	{r4, r5, r6, r7, lr}
 1673              		.cfi_def_cfa_offset 20
 1674              		.cfi_offset 4, -20
 1675              		.cfi_offset 5, -16
 1676              		.cfi_offset 6, -12
 1677              		.cfi_offset 7, -8
 1678              		.cfi_offset 14, -4
 1679              	.LBB241:
 1680              	.LBB242:
 1681              	.LBB243:
 1682              	.LBB244:
 1683              		.loc 2 176 0
 1684 0002 1B4B     		ldr	r3, .L71
 1685              	.LBE244:
 1686              	.LBE243:
 1687              	.LBE242:
 1688              	.LBE241:
 1689              		.loc 1 586 0
 1690 0004 1B4E     		ldr	r6, .L71+4
 1691              	.LBB247:
 1692              	.LBB245:
 1693              		.loc 2 189 0
 1694 0006 9B69     		ldr	r3, [r3, #24]
 1695              	.LBE245:
 1696              	.LBE247:
 1697              		.loc 1 586 0
 1698 0008 3068     		ldr	r0, [r6]
 1699              	.LBB248:
 1700              	.LBB246:
 1701              		.loc 2 189 0
 1702 000a 9D68     		ldr	r5, [r3, #8]
 1703              	.LBE246:
 1704              	.LBE248:
 1705              		.loc 1 586 0
 1706 000c 1A4B     		ldr	r3, .L71+8
 1707 000e 1B4C     		ldr	r4, .L71+12
 1708              		.loc 1 589 0
 1709 0010 1B4F     		ldr	r7, .L71+16
 1710              		.loc 1 583 0
ARM GAS  /tmp/ccaQp240.s 			page 31


 1711 0012 83B0     		sub	sp, sp, #12
 1712              		.cfi_def_cfa_offset 32
 1713              		.loc 1 586 0
 1714 0014 6A1C     		adds	r2, r5, #1
 1715 0016 0093     		str	r3, [sp]
 1716 0018 4FF4A471 		mov	r1, #328
 1717 001c 194B     		ldr	r3, .L71+20
 1718 001e FFF7FEFF 		bl	chThdCreateStatic
 1719              	.LVL130:
 1720              		.loc 1 587 0
 1721 0022 7168     		ldr	r1, [r6, #4]
 1722 0024 184B     		ldr	r3, .L71+24
 1723              		.loc 1 586 0
 1724 0026 2060     		str	r0, [r4]
 1725              		.loc 1 587 0
 1726 0028 AA1C     		adds	r2, r5, #2
 1727 002a 0093     		str	r3, [sp]
 1728 002c 0846     		mov	r0, r1
 1729 002e 174B     		ldr	r3, .L71+28
 1730 0030 4FF4A471 		mov	r1, #328
 1731 0034 FFF7FEFF 		bl	chThdCreateStatic
 1732              	.LVL131:
 1733              		.loc 1 588 0
 1734 0038 B168     		ldr	r1, [r6, #8]
 1735 003a 154B     		ldr	r3, .L71+32
 1736              		.loc 1 587 0
 1737 003c 6060     		str	r0, [r4, #4]
 1738              		.loc 1 588 0
 1739 003e EA1C     		adds	r2, r5, #3
 1740 0040 0093     		str	r3, [sp]
 1741 0042 0846     		mov	r0, r1
 1742 0044 134B     		ldr	r3, .L71+36
 1743 0046 4FF4A471 		mov	r1, #328
 1744 004a FFF7FEFF 		bl	chThdCreateStatic
 1745              	.LVL132:
 1746 004e A060     		str	r0, [r4, #8]
 1747              		.loc 1 589 0
 1748 0050 3846     		mov	r0, r7
 1749 0052 FFF7FEFF 		bl	chCondSignal
 1750              	.LVL133:
 1751              		.loc 1 590 0
 1752 0056 3846     		mov	r0, r7
 1753 0058 FFF7FEFF 		bl	chCondSignal
 1754              	.LVL134:
 1755              		.loc 1 591 0
 1756 005c FFF7FEFF 		bl	test_wait_threads
 1757              	.LVL135:
 1758              		.loc 1 592 0
 1759 0060 0D49     		ldr	r1, .L71+40
 1760 0062 0120     		movs	r0, #1
 1761              		.loc 1 593 0
 1762 0064 03B0     		add	sp, sp, #12
 1763              		.cfi_def_cfa_offset 20
 1764              		@ sp needed
 1765 0066 BDE8F040 		pop	{r4, r5, r6, r7, lr}
 1766              		.cfi_restore 14
 1767              		.cfi_restore 7
ARM GAS  /tmp/ccaQp240.s 			page 32


 1768              		.cfi_restore 6
 1769              		.cfi_restore 5
 1770              		.cfi_restore 4
 1771              		.cfi_def_cfa_offset 0
 1772              		.loc 1 592 0
 1773 006a FFF7FEBF 		b	_test_assert_sequence
 1774              	.LVL136:
 1775              	.L72:
 1776 006e 00BF     		.align	2
 1777              	.L71:
 1778 0070 00000000 		.word	ch
 1779 0074 00000000 		.word	wa
 1780 0078 10000000 		.word	.LC4
 1781 007c 00000000 		.word	threads
 1782 0080 00000000 		.word	.LANCHOR2
 1783 0084 00000000 		.word	thread11
 1784 0088 08000000 		.word	.LC2
 1785 008c 00000000 		.word	thread10
 1786 0090 0C000000 		.word	.LC3
 1787 0094 00000000 		.word	thread12
 1788 0098 1C000000 		.word	.LC6
 1789              		.cfi_endproc
 1790              	.LFE244:
 1791              		.size	mtx8_execute, .-mtx8_execute
 1792              		.section	.text.thread11,"ax",%progbits
 1793              		.align	2
 1794              		.p2align 4,,15
 1795              		.thumb
 1796              		.thumb_func
 1797              		.type	thread11, %function
 1798              	thread11:
 1799              	.LFB242:
 1800              		.loc 1 562 0
 1801              		.cfi_startproc
 1802              		@ args = 0, pretend = 0, frame = 0
 1803              		@ frame_needed = 0, uses_anonymous_args = 0
 1804              	.LVL137:
 1805 0000 70B5     		push	{r4, r5, r6, lr}
 1806              		.cfi_def_cfa_offset 16
 1807              		.cfi_offset 4, -16
 1808              		.cfi_offset 5, -12
 1809              		.cfi_offset 6, -8
 1810              		.cfi_offset 14, -4
 1811              		.loc 1 564 0
 1812 0002 0C4C     		ldr	r4, .L75
 1813              		.loc 1 565 0
 1814 0004 0C4D     		ldr	r5, .L75+4
 1815              		.loc 1 562 0
 1816 0006 0646     		mov	r6, r0
 1817              		.loc 1 564 0
 1818 0008 2046     		mov	r0, r4
 1819              	.LVL138:
 1820 000a FFF7FEFF 		bl	chMtxLock
 1821              	.LVL139:
 1822              		.loc 1 565 0
 1823 000e 2846     		mov	r0, r5
 1824 0010 FFF7FEFF 		bl	chMtxLock
ARM GAS  /tmp/ccaQp240.s 			page 33


 1825              	.LVL140:
 1826              		.loc 1 567 0
 1827 0014 4FF0FF31 		mov	r1, #-1
 1828 0018 0848     		ldr	r0, .L75+8
 1829 001a FFF7FEFF 		bl	chCondWaitTimeout
 1830              	.LVL141:
 1831              		.loc 1 571 0
 1832 001e 3078     		ldrb	r0, [r6]	@ zero_extendqisi2
 1833 0020 FFF7FEFF 		bl	test_emit_token
 1834              	.LVL142:
 1835              		.loc 1 572 0
 1836 0024 2846     		mov	r0, r5
 1837 0026 FFF7FEFF 		bl	chMtxUnlock
 1838              	.LVL143:
 1839              		.loc 1 573 0
 1840 002a 2046     		mov	r0, r4
 1841              		.loc 1 574 0
 1842 002c BDE87040 		pop	{r4, r5, r6, lr}
 1843              		.cfi_restore 14
 1844              		.cfi_restore 6
 1845              		.cfi_restore 5
 1846              		.cfi_restore 4
 1847              		.cfi_def_cfa_offset 0
 1848              	.LVL144:
 1849              		.loc 1 573 0
 1850 0030 FFF7FEBF 		b	chMtxUnlock
 1851              	.LVL145:
 1852              	.L76:
 1853              		.align	2
 1854              	.L75:
 1855 0034 00000000 		.word	.LANCHOR1
 1856 0038 00000000 		.word	.LANCHOR0
 1857 003c 00000000 		.word	.LANCHOR2
 1858              		.cfi_endproc
 1859              	.LFE242:
 1860              		.size	thread11, .-thread11
 1861              		.global	patternmtx
 1862              		.global	testmtx8
 1863              		.global	testmtx7
 1864              		.global	testmtx6
 1865              		.global	testmtx5
 1866              		.global	testmtx4
 1867              		.global	testmtx1
 1868              		.section	.rodata.testmtx5,"a",%progbits
 1869              		.align	2
 1870              		.type	testmtx5, %object
 1871              		.size	testmtx5, 16
 1872              	testmtx5:
 1873 0000 64000000 		.word	.LC10
 1874 0004 00000000 		.word	mtx5_setup
 1875 0008 00000000 		.word	0
 1876 000c 00000000 		.word	mtx5_execute
 1877              		.section	.rodata.testmtx6,"a",%progbits
 1878              		.align	2
 1879              		.type	testmtx6, %object
 1880              		.size	testmtx6, 16
 1881              	testmtx6:
ARM GAS  /tmp/ccaQp240.s 			page 34


 1882 0000 4C000000 		.word	.LC9
 1883 0004 00000000 		.word	mtx6_setup
 1884 0008 00000000 		.word	0
 1885 000c 00000000 		.word	mtx6_execute
 1886              		.section	.rodata.testmtx7,"a",%progbits
 1887              		.align	2
 1888              		.type	testmtx7, %object
 1889              		.size	testmtx7, 16
 1890              	testmtx7:
 1891 0000 34000000 		.word	.LC8
 1892 0004 00000000 		.word	mtx7_setup
 1893 0008 00000000 		.word	0
 1894 000c 00000000 		.word	mtx7_execute
 1895              		.section	.rodata.testmtx8,"a",%progbits
 1896              		.align	2
 1897              		.type	testmtx8, %object
 1898              		.size	testmtx8, 16
 1899              	testmtx8:
 1900 0000 20000000 		.word	.LC7
 1901 0004 00000000 		.word	mtx8_setup
 1902 0008 00000000 		.word	0
 1903 000c 00000000 		.word	mtx8_execute
 1904              		.section	.data.m1,"aw",%progbits
 1905              		.align	2
 1906              		.set	.LANCHOR0,. + 0
 1907              		.type	m1, %object
 1908              		.size	m1, 16
 1909              	m1:
 1910 0000 00000000 		.word	m1
 1911 0004 00000000 		.word	m1
 1912 0008 00000000 		.word	0
 1913 000c 00000000 		.word	0
 1914              		.section	.data.m2,"aw",%progbits
 1915              		.align	2
 1916              		.set	.LANCHOR1,. + 0
 1917              		.type	m2, %object
 1918              		.size	m2, 16
 1919              	m2:
 1920 0000 00000000 		.word	m2
 1921 0004 00000000 		.word	m2
 1922 0008 00000000 		.word	0
 1923 000c 00000000 		.word	0
 1924              		.section	.rodata.str1.4,"aMS",%progbits,1
 1925              		.align	2
 1926              	.LC0:
 1927 0000 4500     		.ascii	"E\000"
 1928 0002 0000     		.space	2
 1929              	.LC1:
 1930 0004 4400     		.ascii	"D\000"
 1931 0006 0000     		.space	2
 1932              	.LC2:
 1933 0008 4300     		.ascii	"C\000"
 1934 000a 0000     		.space	2
 1935              	.LC3:
 1936 000c 4200     		.ascii	"B\000"
 1937 000e 0000     		.space	2
 1938              	.LC4:
ARM GAS  /tmp/ccaQp240.s 			page 35


 1939 0010 4100     		.ascii	"A\000"
 1940 0012 0000     		.space	2
 1941              	.LC5:
 1942 0014 41424344 		.ascii	"ABCDE\000"
 1942      4500
 1943 001a 0000     		.space	2
 1944              	.LC6:
 1945 001c 41424300 		.ascii	"ABC\000"
 1946              	.LC7:
 1947 0020 436F6E64 		.ascii	"CondVar, boost test\000"
 1947      5661722C 
 1947      20626F6F 
 1947      73742074 
 1947      65737400 
 1948              	.LC8:
 1949 0034 436F6E64 		.ascii	"CondVar, broadcast test\000"
 1949      5661722C 
 1949      2062726F 
 1949      61646361 
 1949      73742074 
 1950              	.LC9:
 1951 004c 436F6E64 		.ascii	"CondVar, signal test\000"
 1951      5661722C 
 1951      20736967 
 1951      6E616C20 
 1951      74657374 
 1952 0061 000000   		.space	3
 1953              	.LC10:
 1954 0064 4D757465 		.ascii	"Mutexes, status\000"
 1954      7865732C 
 1954      20737461 
 1954      74757300 
 1955              	.LC11:
 1956 0074 4D757465 		.ascii	"Mutexes, priority return\000"
 1956      7865732C 
 1956      20707269 
 1956      6F726974 
 1956      79207265 
 1957 008d 000000   		.space	3
 1958              	.LC12:
 1959 0090 4D757465 		.ascii	"Mutexes, priority enqueuing test\000"
 1959      7865732C 
 1959      20707269 
 1959      6F726974 
 1959      7920656E 
 1960              		.section	.rodata.patternmtx,"a",%progbits
 1961              		.align	2
 1962              		.type	patternmtx, %object
 1963              		.size	patternmtx, 28
 1964              	patternmtx:
 1965 0000 00000000 		.word	testmtx1
 1966 0004 00000000 		.word	testmtx4
 1967 0008 00000000 		.word	testmtx5
 1968 000c 00000000 		.word	testmtx6
 1969 0010 00000000 		.word	testmtx7
 1970 0014 00000000 		.word	testmtx8
 1971 0018 00000000 		.word	0
ARM GAS  /tmp/ccaQp240.s 			page 36


 1972              		.section	.data.c1,"aw",%progbits
 1973              		.align	2
 1974              		.set	.LANCHOR2,. + 0
 1975              		.type	c1, %object
 1976              		.size	c1, 8
 1977              	c1:
 1978 0000 00000000 		.word	c1
 1979 0004 00000000 		.word	c1
 1980              		.section	.rodata.testmtx1,"a",%progbits
 1981              		.align	2
 1982              		.type	testmtx1, %object
 1983              		.size	testmtx1, 16
 1984              	testmtx1:
 1985 0000 90000000 		.word	.LC12
 1986 0004 00000000 		.word	mtx1_setup
 1987 0008 00000000 		.word	0
 1988 000c 00000000 		.word	mtx1_execute
 1989              		.section	.rodata.testmtx4,"a",%progbits
 1990              		.align	2
 1991              		.type	testmtx4, %object
 1992              		.size	testmtx4, 16
 1993              	testmtx4:
 1994 0000 74000000 		.word	.LC11
 1995 0004 00000000 		.word	mtx4_setup
 1996 0008 00000000 		.word	0
 1997 000c 00000000 		.word	mtx4_execute
 1998              		.text
 1999              	.Letext0:
 2000              		.file 4 "/usr/lib/gcc/arm-none-eabi/5.3.1/include/stddef.h"
 2001              		.file 5 "/usr/arm-none-eabi/include/machine/_default_types.h"
 2002              		.file 6 "/usr/arm-none-eabi/include/sys/_stdint.h"
 2003              		.file 7 "/home/selim/working/ChibiOS/os/rt/ports/ARMCMx/compilers/GCC/chtypes.h"
 2004              		.file 8 "/home/selim/working/ChibiOS/os/rt/include/chsystypes.h"
 2005              		.file 9 "/home/selim/working/ChibiOS/os/rt/include/chschd.h"
 2006              		.file 10 "/home/selim/working/ChibiOS/os/rt/ports/ARMCMx/chcore.h"
 2007              		.file 11 "/home/selim/working/ChibiOS/os/rt/ports/ARMCMx/chcore_v7m.h"
 2008              		.file 12 "/home/selim/working/ChibiOS/os/rt/include/chtm.h"
 2009              		.file 13 "/home/selim/working/ChibiOS/os/rt/include/chsem.h"
 2010              		.file 14 "/home/selim/working/ChibiOS/os/rt/include/chmtx.h"
 2011              		.file 15 "/home/selim/working/ChibiOS/os/rt/include/chcond.h"
 2012              		.file 16 "/home/selim/working/ChibiOS/test/rt/test.h"
 2013              		.file 17 "/home/selim/working/ChibiOS/os/rt/include/chsys.h"
 2014              		.file 18 "/home/selim/working/ChibiOS/os/ext/CMSIS/include/core_cm4.h"