ARM GAS  /tmp/ccOHiGfK.s 			page 1


   1              		.syntax unified
   2              		.cpu cortex-m4
   3              		.fpu softvfp
   4              		.eabi_attribute 20, 1
   5              		.eabi_attribute 21, 1
   6              		.eabi_attribute 23, 3
   7              		.eabi_attribute 24, 1
   8              		.eabi_attribute 25, 1
   9              		.eabi_attribute 26, 1
  10              		.eabi_attribute 30, 2
  11              		.eabi_attribute 34, 1
  12              		.eabi_attribute 18, 4
  13              		.thumb
  14              		.syntax unified
  15              		.file	"testsem.c"
  16              		.text
  17              	.Ltext0:
  18              		.cfi_sections	.debug_frame
  19              		.section	.text.sem1_execute,"ax",%progbits
  20              		.align	2
  21              		.p2align 4,,15
  22              		.thumb
  23              		.thumb_func
  24              		.type	sem1_execute, %function
  25              	sem1_execute:
  26              	.LFB229:
  27              		.file 1 "/home/selim/working/ChibiOS/test/rt/testsem.c"
  28              		.loc 1 83 0
  29              		.cfi_startproc
  30              		@ args = 0, pretend = 0, frame = 0
  31              		@ frame_needed = 0, uses_anonymous_args = 0
  32 0000 2DE9F043 		push	{r4, r5, r6, r7, r8, r9, lr}
  33              		.cfi_def_cfa_offset 28
  34              		.cfi_offset 4, -28
  35              		.cfi_offset 5, -24
  36              		.cfi_offset 6, -20
  37              		.cfi_offset 7, -16
  38              		.cfi_offset 8, -12
  39              		.cfi_offset 9, -8
  40              		.cfi_offset 14, -4
  41              	.LBB288:
  42              	.LBB289:
  43              	.LBB290:
  44              	.LBB291:
  45              		.file 2 "/home/selim/working/ChibiOS/os/rt/include/chthreads.h"
  46              		.loc 2 176 0
  47 0004 484E     		ldr	r6, .L8
  48              	.LBE291:
  49              	.LBE290:
  50              	.LBE289:
  51              	.LBE288:
  52              		.loc 1 85 0
  53 0006 494F     		ldr	r7, .L8+4
  54              	.LBB293:
  55              	.LBB292:
  56              		.loc 2 189 0
  57 0008 B369     		ldr	r3, [r6, #24]
ARM GAS  /tmp/ccOHiGfK.s 			page 2


  58              	.LBE292:
  59              	.LBE293:
  60              		.loc 1 85 0
  61 000a D7F80080 		ldr	r8, [r7]
  62 000e 9A68     		ldr	r2, [r3, #8]
  63 0010 DFF83C91 		ldr	r9, .L8+40
  64 0014 464B     		ldr	r3, .L8+8
  65 0016 474D     		ldr	r5, .L8+12
  66              		.loc 1 90 0
  67 0018 474C     		ldr	r4, .L8+16
  68              		.loc 1 83 0
  69 001a 83B0     		sub	sp, sp, #12
  70              		.cfi_def_cfa_offset 40
  71              		.loc 1 85 0
  72 001c 0532     		adds	r2, r2, #5
  73 001e 4FF4A471 		mov	r1, #328
  74 0022 CDF80090 		str	r9, [sp]
  75 0026 4046     		mov	r0, r8
  76 0028 FFF7FEFF 		bl	chThdCreateStatic
  77              	.LVL0:
  78              	.LBB294:
  79              	.LBB295:
  80              		.loc 2 189 0
  81 002c B369     		ldr	r3, [r6, #24]
  82              	.LBE295:
  83              	.LBE294:
  84              		.loc 1 86 0
  85 002e 7968     		ldr	r1, [r7, #4]
  86 0030 9A68     		ldr	r2, [r3, #8]
  87 0032 424B     		ldr	r3, .L8+20
  88              		.loc 1 85 0
  89 0034 2860     		str	r0, [r5]
  90              		.loc 1 86 0
  91 0036 0132     		adds	r2, r2, #1
  92 0038 0846     		mov	r0, r1
  93 003a 0093     		str	r3, [sp]
  94 003c 4FF4A471 		mov	r1, #328
  95 0040 3B4B     		ldr	r3, .L8+8
  96 0042 FFF7FEFF 		bl	chThdCreateStatic
  97              	.LVL1:
  98              	.LBB296:
  99              	.LBB297:
 100              		.loc 2 189 0
 101 0046 B369     		ldr	r3, [r6, #24]
 102              	.LBE297:
 103              	.LBE296:
 104              		.loc 1 87 0
 105 0048 B968     		ldr	r1, [r7, #8]
 106 004a 9A68     		ldr	r2, [r3, #8]
 107 004c 3C4B     		ldr	r3, .L8+24
 108              		.loc 1 86 0
 109 004e 6860     		str	r0, [r5, #4]
 110              		.loc 1 87 0
 111 0050 0332     		adds	r2, r2, #3
 112 0052 0846     		mov	r0, r1
 113 0054 0093     		str	r3, [sp]
 114 0056 4FF4A471 		mov	r1, #328
ARM GAS  /tmp/ccOHiGfK.s 			page 3


 115 005a 354B     		ldr	r3, .L8+8
 116 005c FFF7FEFF 		bl	chThdCreateStatic
 117              	.LVL2:
 118              	.LBB298:
 119              	.LBB299:
 120              		.loc 2 189 0
 121 0060 B369     		ldr	r3, [r6, #24]
 122              	.LBE299:
 123              	.LBE298:
 124              		.loc 1 88 0
 125 0062 F968     		ldr	r1, [r7, #12]
 126 0064 9A68     		ldr	r2, [r3, #8]
 127 0066 374B     		ldr	r3, .L8+28
 128              		.loc 1 87 0
 129 0068 A860     		str	r0, [r5, #8]
 130              		.loc 1 88 0
 131 006a 0432     		adds	r2, r2, #4
 132 006c 0846     		mov	r0, r1
 133 006e 0093     		str	r3, [sp]
 134 0070 4FF4A471 		mov	r1, #328
 135 0074 2E4B     		ldr	r3, .L8+8
 136 0076 FFF7FEFF 		bl	chThdCreateStatic
 137              	.LVL3:
 138              	.LBB300:
 139              	.LBB301:
 140              		.loc 2 189 0
 141 007a B369     		ldr	r3, [r6, #24]
 142              	.LBE301:
 143              	.LBE300:
 144              		.loc 1 89 0
 145 007c 3969     		ldr	r1, [r7, #16]
 146 007e 9A68     		ldr	r2, [r3, #8]
 147 0080 314B     		ldr	r3, .L8+32
 148              		.loc 1 88 0
 149 0082 E860     		str	r0, [r5, #12]
 150              		.loc 1 89 0
 151 0084 0232     		adds	r2, r2, #2
 152 0086 0846     		mov	r0, r1
 153 0088 0093     		str	r3, [sp]
 154 008a 4FF4A471 		mov	r1, #328
 155 008e 284B     		ldr	r3, .L8+8
 156 0090 FFF7FEFF 		bl	chThdCreateStatic
 157              	.LVL4:
 158 0094 2861     		str	r0, [r5, #16]
 159              		.loc 1 90 0
 160 0096 2046     		mov	r0, r4
 161 0098 FFF7FEFF 		bl	chSemSignal
 162              	.LVL5:
 163              		.loc 1 91 0
 164 009c 2046     		mov	r0, r4
 165 009e FFF7FEFF 		bl	chSemSignal
 166              	.LVL6:
 167              		.loc 1 92 0
 168 00a2 2046     		mov	r0, r4
 169 00a4 FFF7FEFF 		bl	chSemSignal
 170              	.LVL7:
 171              		.loc 1 93 0
ARM GAS  /tmp/ccOHiGfK.s 			page 4


 172 00a8 2046     		mov	r0, r4
 173 00aa FFF7FEFF 		bl	chSemSignal
 174              	.LVL8:
 175              		.loc 1 94 0
 176 00ae 2046     		mov	r0, r4
 177 00b0 FFF7FEFF 		bl	chSemSignal
 178              	.LVL9:
 179              		.loc 1 95 0
 180 00b4 FFF7FEFF 		bl	test_wait_threads
 181              	.LVL10:
 182              		.loc 1 99 0
 183 00b8 2449     		ldr	r1, .L8+36
 184 00ba 0120     		movs	r0, #1
 185 00bc FFF7FEFF 		bl	_test_assert_sequence
 186              	.LVL11:
 187 00c0 10B1     		cbz	r0, .L6
 188              		.loc 1 108 0
 189 00c2 03B0     		add	sp, sp, #12
 190              		.cfi_remember_state
 191              		.cfi_def_cfa_offset 28
 192              		@ sp needed
 193 00c4 BDE8F083 		pop	{r4, r5, r6, r7, r8, r9, pc}
 194              	.L6:
 195              		.cfi_restore_state
 196              	.LBB302:
 197              	.LBB303:
 198              		.loc 2 189 0
 199 00c8 B269     		ldr	r2, [r6, #24]
 200              	.LBE303:
 201              	.LBE302:
 202              		.loc 1 101 0
 203 00ca 194B     		ldr	r3, .L8+8
 204 00cc 9268     		ldr	r2, [r2, #8]
 205 00ce CDF80090 		str	r9, [sp]
 206 00d2 0746     		mov	r7, r0
 207 00d4 0532     		adds	r2, r2, #5
 208 00d6 4046     		mov	r0, r8
 209 00d8 4FF4A471 		mov	r1, #328
 210 00dc FFF7FEFF 		bl	chThdCreateStatic
 211              	.LVL12:
 212              	.LBB304:
 213              	.LBB305:
 214              	.LBB306:
 215              	.LBB307:
 216              		.file 3 "/home/selim/working/ChibiOS/os/ext/CMSIS/include/core_cmFunc.h"
 217              		.loc 3 546 0
 218 00e0 2026     		movs	r6, #32
 219              	.LBE307:
 220              	.LBE306:
 221              	.LBE305:
 222              	.LBE304:
 223              		.loc 1 101 0
 224 00e2 2860     		str	r0, [r5]
 225              	.LVL13:
 226              	.LBB311:
 227              	.LBB310:
 228              	.LBB309:
ARM GAS  /tmp/ccOHiGfK.s 			page 5


 229              	.LBB308:
 230              		.loc 3 546 0
 231              		.syntax unified
 232              	@ 546 "/home/selim/working/ChibiOS/os/ext/CMSIS/include/core_cmFunc.h" 1
 233 00e4 86F31188 		MSR basepri, r6
 234              	@ 0 "" 2
 235              	.LVL14:
 236              		.thumb
 237              		.syntax unified
 238              	.LBE308:
 239              	.LBE309:
 240              	.LBE310:
 241              	.LBE311:
 242              		.loc 1 103 0
 243 00e8 0221     		movs	r1, #2
 244 00ea 2046     		mov	r0, r4
 245 00ec FFF7FEFF 		bl	chSemAddCounterI
 246              	.LVL15:
 247              		.loc 1 104 0
 248 00f0 FFF7FEFF 		bl	chSchRescheduleS
 249              	.LVL16:
 250              	.LBB312:
 251              	.LBB313:
 252              	.LBB314:
 253              	.LBB315:
 254              	.LBB316:
 255              		.loc 3 546 0
 256              		.syntax unified
 257              	@ 546 "/home/selim/working/ChibiOS/os/ext/CMSIS/include/core_cmFunc.h" 1
 258 00f4 87F31188 		MSR basepri, r7
 259              	@ 0 "" 2
 260              	.LVL17:
 261              		.thumb
 262              		.syntax unified
 263              	.LBE316:
 264              	.LBE315:
 265              	.LBE314:
 266              	.LBE313:
 267              	.LBE312:
 268              		.loc 1 106 0
 269 00f8 FFF7FEFF 		bl	test_wait_threads
 270              	.LVL18:
 271              	.LBB317:
 272              	.LBB318:
 273              	.LBB319:
 274              	.LBB320:
 275              		.loc 3 546 0
 276              		.syntax unified
 277              	@ 546 "/home/selim/working/ChibiOS/os/ext/CMSIS/include/core_cmFunc.h" 1
 278 00fc 86F31188 		MSR basepri, r6
 279              	@ 0 "" 2
 280              	.LVL19:
 281              		.thumb
 282              		.syntax unified
 283              	.LBE320:
 284              	.LBE319:
 285              	.LBE318:
ARM GAS  /tmp/ccOHiGfK.s 			page 6


 286              	.LBE317:
 287              		.loc 1 107 0
 288 0100 A168     		ldr	r1, [r4, #8]
 289 0102 A1F10101 		sub	r1, #1
 290 0106 B1FA81F1 		clz	r1, r1
 291 010a 0220     		movs	r0, #2
 292 010c 4909     		lsrs	r1, r1, #5
 293 010e FFF7FEFF 		bl	_test_assert
 294              	.LVL20:
 295 0112 20B9     		cbnz	r0, .L7
 296              	.LVL21:
 297              	.LBB321:
 298              	.LBB322:
 299              	.LBB323:
 300              	.LBB324:
 301              	.LBB325:
 302              		.loc 3 546 0
 303              		.syntax unified
 304              	@ 546 "/home/selim/working/ChibiOS/os/ext/CMSIS/include/core_cmFunc.h" 1
 305 0114 80F31188 		MSR basepri, r0
 306              	@ 0 "" 2
 307              	.LVL22:
 308              		.thumb
 309              		.syntax unified
 310              	.LBE325:
 311              	.LBE324:
 312              	.LBE323:
 313              	.LBE322:
 314              	.LBE321:
 315              		.loc 1 108 0
 316 0118 03B0     		add	sp, sp, #12
 317              		.cfi_remember_state
 318              		.cfi_def_cfa_offset 28
 319              		@ sp needed
 320 011a BDE8F083 		pop	{r4, r5, r6, r7, r8, r9, pc}
 321              	.L7:
 322              		.cfi_restore_state
 323              	.LVL23:
 324              	.LBB326:
 325              	.LBB327:
 326              	.LBB328:
 327              	.LBB329:
 328              	.LBB330:
 329              		.loc 3 546 0
 330              		.syntax unified
 331              	@ 546 "/home/selim/working/ChibiOS/os/ext/CMSIS/include/core_cmFunc.h" 1
 332 011e 87F31188 		MSR basepri, r7
 333              	@ 0 "" 2
 334              	.LVL24:
 335              		.thumb
 336              		.syntax unified
 337              	.LBE330:
 338              	.LBE329:
 339              	.LBE328:
 340              	.LBE327:
 341              	.LBE326:
 342              		.loc 1 108 0
ARM GAS  /tmp/ccOHiGfK.s 			page 7


 343 0122 03B0     		add	sp, sp, #12
 344              		.cfi_def_cfa_offset 28
 345              		@ sp needed
 346 0124 BDE8F083 		pop	{r4, r5, r6, r7, r8, r9, pc}
 347              	.L9:
 348              		.align	2
 349              	.L8:
 350 0128 00000000 		.word	ch
 351 012c 00000000 		.word	wa
 352 0130 00000000 		.word	thread1
 353 0134 00000000 		.word	threads
 354 0138 00000000 		.word	.LANCHOR0
 355 013c 04000000 		.word	.LC1
 356 0140 08000000 		.word	.LC2
 357 0144 0C000000 		.word	.LC3
 358 0148 10000000 		.word	.LC4
 359 014c 14000000 		.word	.LC5
 360 0150 00000000 		.word	.LC0
 361              		.cfi_endproc
 362              	.LFE229:
 363              		.size	sem1_execute, .-sem1_execute
 364              		.section	.text.thread3,"ax",%progbits
 365              		.align	2
 366              		.p2align 4,,15
 367              		.thumb
 368              		.thumb_func
 369              		.type	thread3, %function
 370              	thread3:
 371              	.LFB234:
 372              		.loc 1 207 0
 373              		.cfi_startproc
 374              		@ args = 0, pretend = 0, frame = 0
 375              		@ frame_needed = 0, uses_anonymous_args = 0
 376              	.LVL25:
 377 0000 10B5     		push	{r4, lr}
 378              		.cfi_def_cfa_offset 8
 379              		.cfi_offset 4, -8
 380              		.cfi_offset 14, -4
 381              		.loc 1 210 0
 382 0002 044C     		ldr	r4, .L12
 383 0004 2046     		mov	r0, r4
 384              	.LVL26:
 385 0006 FFF7FEFF 		bl	chSemWait
 386              	.LVL27:
 387              		.loc 1 211 0
 388 000a 2046     		mov	r0, r4
 389              		.loc 1 212 0
 390 000c BDE81040 		pop	{r4, lr}
 391              		.cfi_restore 14
 392              		.cfi_restore 4
 393              		.cfi_def_cfa_offset 0
 394              		.loc 1 211 0
 395 0010 FFF7FEBF 		b	chSemSignal
 396              	.LVL28:
 397              	.L13:
 398              		.align	2
 399              	.L12:
ARM GAS  /tmp/ccOHiGfK.s 			page 8


 400 0014 00000000 		.word	.LANCHOR0
 401              		.cfi_endproc
 402              	.LFE234:
 403              		.size	thread3, .-thread3
 404              		.section	.text.thread1,"ax",%progbits
 405              		.align	2
 406              		.p2align 4,,15
 407              		.thumb
 408              		.thumb_func
 409              		.type	thread1, %function
 410              	thread1:
 411              	.LFB228:
 412              		.loc 1 77 0
 413              		.cfi_startproc
 414              		@ args = 0, pretend = 0, frame = 0
 415              		@ frame_needed = 0, uses_anonymous_args = 0
 416              	.LVL29:
 417 0000 10B5     		push	{r4, lr}
 418              		.cfi_def_cfa_offset 8
 419              		.cfi_offset 4, -8
 420              		.cfi_offset 14, -4
 421              		.loc 1 77 0
 422 0002 0446     		mov	r4, r0
 423              		.loc 1 79 0
 424 0004 0348     		ldr	r0, .L16
 425              	.LVL30:
 426 0006 FFF7FEFF 		bl	chSemWait
 427              	.LVL31:
 428              		.loc 1 80 0
 429 000a 2078     		ldrb	r0, [r4]	@ zero_extendqisi2
 430              		.loc 1 81 0
 431 000c BDE81040 		pop	{r4, lr}
 432              		.cfi_restore 14
 433              		.cfi_restore 4
 434              		.cfi_def_cfa_offset 0
 435              	.LVL32:
 436              		.loc 1 80 0
 437 0010 FFF7FEBF 		b	test_emit_token
 438              	.LVL33:
 439              	.L17:
 440              		.align	2
 441              	.L16:
 442 0014 00000000 		.word	.LANCHOR0
 443              		.cfi_endproc
 444              	.LFE228:
 445              		.size	thread1, .-thread1
 446              		.section	.text.sem3_setup,"ax",%progbits
 447              		.align	2
 448              		.p2align 4,,15
 449              		.thumb
 450              		.thumb_func
 451              		.type	sem3_setup, %function
 452              	sem3_setup:
 453              	.LFB233:
 454              		.loc 1 202 0
 455              		.cfi_startproc
 456              		@ args = 0, pretend = 0, frame = 0
ARM GAS  /tmp/ccOHiGfK.s 			page 9


 457              		@ frame_needed = 0, uses_anonymous_args = 0
 458              		@ link register save eliminated.
 459              		.loc 1 204 0
 460 0000 0021     		movs	r1, #0
 461 0002 0148     		ldr	r0, .L19
 462 0004 FFF7FEBF 		b	chSemObjectInit
 463              	.LVL34:
 464              	.L20:
 465              		.align	2
 466              	.L19:
 467 0008 00000000 		.word	.LANCHOR0
 468              		.cfi_endproc
 469              	.LFE233:
 470              		.size	sem3_setup, .-sem3_setup
 471              		.section	.text.sem2_setup,"ax",%progbits
 472              		.align	2
 473              		.p2align 4,,15
 474              		.thumb
 475              		.thumb_func
 476              		.type	sem2_setup, %function
 477              	sem2_setup:
 478              	.LFB243:
 479              		.cfi_startproc
 480              		@ args = 0, pretend = 0, frame = 0
 481              		@ frame_needed = 0, uses_anonymous_args = 0
 482              		@ link register save eliminated.
 483 0000 FFF7FEBF 		b	sem3_setup
 484              		.cfi_endproc
 485              	.LFE243:
 486              		.size	sem2_setup, .-sem2_setup
 487              		.section	.text.sem1_setup,"ax",%progbits
 488              		.align	2
 489              		.p2align 4,,15
 490              		.thumb
 491              		.thumb_func
 492              		.type	sem1_setup, %function
 493              	sem1_setup:
 494              	.LFB245:
 495              		.cfi_startproc
 496              		@ args = 0, pretend = 0, frame = 0
 497              		@ frame_needed = 0, uses_anonymous_args = 0
 498              		@ link register save eliminated.
 499 0000 FFF7FEBF 		b	sem3_setup
 500              		.cfi_endproc
 501              	.LFE245:
 502              		.size	sem1_setup, .-sem1_setup
 503              		.section	.text.thread2,"ax",%progbits
 504              		.align	2
 505              		.p2align 4,,15
 506              		.thumb
 507              		.thumb_func
 508              		.type	thread2, %function
 509              	thread2:
 510              	.LFB231:
 511              		.loc 1 133 0
 512              		.cfi_startproc
 513              		@ args = 0, pretend = 0, frame = 0
ARM GAS  /tmp/ccOHiGfK.s 			page 10


 514              		@ frame_needed = 0, uses_anonymous_args = 0
 515              	.LVL35:
 516              		.loc 1 133 0
 517 0000 08B5     		push	{r3, lr}
 518              		.cfi_def_cfa_offset 8
 519              		.cfi_offset 3, -8
 520              		.cfi_offset 14, -4
 521              		.loc 1 136 0
 522 0002 4FF4FA70 		mov	r0, #500
 523              	.LVL36:
 524 0006 FFF7FEFF 		bl	chThdSleep
 525              	.LVL37:
 526              	.LBB331:
 527              	.LBB332:
 528              	.LBB333:
 529              	.LBB334:
 530              		.loc 3 546 0
 531 000a 2023     		movs	r3, #32
 532              		.syntax unified
 533              	@ 546 "/home/selim/working/ChibiOS/os/ext/CMSIS/include/core_cmFunc.h" 1
 534 000c 83F31188 		MSR basepri, r3
 535              	@ 0 "" 2
 536              	.LVL38:
 537              		.thumb
 538              		.syntax unified
 539              	.LBE334:
 540              	.LBE333:
 541              	.LBE332:
 542              	.LBE331:
 543              		.loc 1 138 0
 544 0010 0448     		ldr	r0, .L25
 545 0012 FFF7FEFF 		bl	chSemSignalI
 546              	.LVL39:
 547              		.loc 1 139 0
 548 0016 FFF7FEFF 		bl	chSchRescheduleS
 549              	.LVL40:
 550              	.LBB335:
 551              	.LBB336:
 552              	.LBB337:
 553              	.LBB338:
 554              	.LBB339:
 555              		.loc 3 546 0
 556 001a 0023     		movs	r3, #0
 557              		.syntax unified
 558              	@ 546 "/home/selim/working/ChibiOS/os/ext/CMSIS/include/core_cmFunc.h" 1
 559 001c 83F31188 		MSR basepri, r3
 560              	@ 0 "" 2
 561              	.LVL41:
 562              		.thumb
 563              		.syntax unified
 564 0020 08BD     		pop	{r3, pc}
 565              	.L26:
 566 0022 00BF     		.align	2
 567              	.L25:
 568 0024 00000000 		.word	.LANCHOR0
 569              	.LBE339:
 570              	.LBE338:
ARM GAS  /tmp/ccOHiGfK.s 			page 11


 571              	.LBE337:
 572              	.LBE336:
 573              	.LBE335:
 574              		.cfi_endproc
 575              	.LFE231:
 576              		.size	thread2, .-thread2
 577              		.section	.text.sem2_execute,"ax",%progbits
 578              		.align	2
 579              		.p2align 4,,15
 580              		.thumb
 581              		.thumb_func
 582              		.type	sem2_execute, %function
 583              	sem2_execute:
 584              	.LFB232:
 585              		.loc 1 143 0
 586              		.cfi_startproc
 587              		@ args = 0, pretend = 0, frame = 0
 588              		@ frame_needed = 0, uses_anonymous_args = 0
 589 0000 70B5     		push	{r4, r5, r6, lr}
 590              		.cfi_def_cfa_offset 16
 591              		.cfi_offset 4, -16
 592              		.cfi_offset 5, -12
 593              		.cfi_offset 6, -8
 594              		.cfi_offset 14, -4
 595              		.loc 1 151 0
 596 0002 4E4C     		ldr	r4, .L35
 597              		.loc 1 143 0
 598 0004 82B0     		sub	sp, sp, #8
 599              		.cfi_def_cfa_offset 24
 600              		.loc 1 151 0
 601 0006 0021     		movs	r1, #0
 602 0008 2046     		mov	r0, r4
 603 000a FFF7FEFF 		bl	chSemWaitTimeout
 604              	.LVL42:
 605              		.loc 1 152 0
 606 000e A0F1FF31 		sub	r1, r0, #-1
 607 0012 B1FA81F1 		clz	r1, r1
 608 0016 4909     		lsrs	r1, r1, #5
 609 0018 0120     		movs	r0, #1
 610              	.LVL43:
 611 001a FFF7FEFF 		bl	_test_assert
 612              	.LVL44:
 613 001e 08B1     		cbz	r0, .L34
 614              	.L27:
 615              		.loc 1 181 0
 616 0020 02B0     		add	sp, sp, #8
 617              		.cfi_remember_state
 618              		.cfi_def_cfa_offset 16
 619              		@ sp needed
 620 0022 70BD     		pop	{r4, r5, r6, pc}
 621              	.L34:
 622              		.cfi_restore_state
 623              		.loc 1 153 0
 624 0024 2168     		ldr	r1, [r4]
 625 0026 091B     		subs	r1, r1, r4
 626 0028 B1FA81F1 		clz	r1, r1
 627 002c 0220     		movs	r0, #2
ARM GAS  /tmp/ccOHiGfK.s 			page 12


 628 002e 4909     		lsrs	r1, r1, #5
 629 0030 FFF7FEFF 		bl	_test_assert
 630              	.LVL45:
 631 0034 0028     		cmp	r0, #0
 632 0036 F3D1     		bne	.L27
 633              		.loc 1 154 0
 634 0038 A168     		ldr	r1, [r4, #8]
 635 003a B1FA81F1 		clz	r1, r1
 636 003e 4909     		lsrs	r1, r1, #5
 637 0040 0320     		movs	r0, #3
 638 0042 FFF7FEFF 		bl	_test_assert
 639              	.LVL46:
 640 0046 0028     		cmp	r0, #0
 641 0048 EAD1     		bne	.L27
 642              	.LBB369:
 643              	.LBB370:
 644              	.LBB371:
 645              	.LBB372:
 646              	.LBB373:
 647              	.LBB374:
 648              		.loc 2 176 0
 649 004a 3D4B     		ldr	r3, .L35+4
 650              	.LBE374:
 651              	.LBE373:
 652              	.LBE372:
 653              	.LBE371:
 654              		.loc 1 159 0
 655 004c 3D4A     		ldr	r2, .L35+8
 656              	.LBB376:
 657              	.LBB375:
 658              		.loc 2 189 0
 659 004e 9B69     		ldr	r3, [r3, #24]
 660              	.LBE375:
 661              	.LBE376:
 662              		.loc 1 159 0
 663 0050 1168     		ldr	r1, [r2]
 664 0052 9A68     		ldr	r2, [r3, #8]
 665 0054 3C4B     		ldr	r3, .L35+12
 666 0056 0090     		str	r0, [sp]
 667 0058 013A     		subs	r2, r2, #1
 668 005a 0846     		mov	r0, r1
 669 005c 4FF4A471 		mov	r1, #328
 670 0060 FFF7FEFF 		bl	chThdCreateStatic
 671              	.LVL47:
 672 0064 394B     		ldr	r3, .L35+16
 673              		.loc 1 161 0
 674 0066 41F28831 		movw	r1, #5000
 675              		.loc 1 159 0
 676 006a 1860     		str	r0, [r3]
 677              		.loc 1 161 0
 678 006c 2046     		mov	r0, r4
 679 006e FFF7FEFF 		bl	chSemWaitTimeout
 680              	.LVL48:
 681 0072 0546     		mov	r5, r0
 682              	.LVL49:
 683              		.loc 1 162 0
 684 0074 FFF7FEFF 		bl	test_wait_threads
ARM GAS  /tmp/ccOHiGfK.s 			page 13


 685              	.LVL50:
 686              		.loc 1 163 0
 687 0078 B5FA85F1 		clz	r1, r5
 688 007c 4909     		lsrs	r1, r1, #5
 689 007e 0420     		movs	r0, #4
 690 0080 FFF7FEFF 		bl	_test_assert
 691              	.LVL51:
 692 0084 0028     		cmp	r0, #0
 693 0086 CBD1     		bne	.L27
 694              		.loc 1 164 0
 695 0088 2168     		ldr	r1, [r4]
 696 008a 091B     		subs	r1, r1, r4
 697 008c B1FA81F1 		clz	r1, r1
 698 0090 0520     		movs	r0, #5
 699 0092 4909     		lsrs	r1, r1, #5
 700 0094 FFF7FEFF 		bl	_test_assert
 701              	.LVL52:
 702 0098 0028     		cmp	r0, #0
 703 009a C1D1     		bne	.L27
 704              		.loc 1 165 0
 705 009c A168     		ldr	r1, [r4, #8]
 706 009e B1FA81F1 		clz	r1, r1
 707 00a2 4909     		lsrs	r1, r1, #5
 708 00a4 0620     		movs	r0, #6
 709 00a6 FFF7FEFF 		bl	_test_assert
 710              	.LVL53:
 711 00aa 0546     		mov	r5, r0
 712              	.LVL54:
 713 00ac 0028     		cmp	r0, #0
 714 00ae B7D1     		bne	.L27
 715              		.loc 1 170 0
 716 00b0 FFF7FEFF 		bl	test_wait_tick
 717              	.LVL55:
 718              	.LBB377:
 719              	.LBB378:
 720              	.LBB379:
 721              	.LBB380:
 722              	.LBB381:
 723              	.LBB382:
 724              		.loc 3 546 0
 725 00b4 2023     		movs	r3, #32
 726              		.syntax unified
 727              	@ 546 "/home/selim/working/ChibiOS/os/ext/CMSIS/include/core_cmFunc.h" 1
 728 00b6 83F31188 		MSR basepri, r3
 729              	@ 0 "" 2
 730              	.LVL56:
 731              		.thumb
 732              		.syntax unified
 733              	.LBE382:
 734              	.LBE381:
 735              	.LBE380:
 736              	.LBE379:
 737              	.LBB383:
 738              	.LBB384:
 739              	.LBB385:
 740              	.LBB386:
 741              		.file 4 "/home/selim/working/ChibiOS/os/hal/ports/STM32/LLD/TIMv1/st_lld.h"
ARM GAS  /tmp/ccOHiGfK.s 			page 14


 742              		.loc 4 129 0
 743 00ba 4FF08043 		mov	r3, #1073741824
 744 00be 5E6A     		ldr	r6, [r3, #36]
 745              	.LVL57:
 746              	.LBE386:
 747              	.LBE385:
 748              	.LBE384:
 749              	.LBE383:
 750              	.LBB387:
 751              	.LBB388:
 752              	.LBB389:
 753              	.LBB390:
 754              	.LBB391:
 755              		.loc 3 546 0
 756              		.syntax unified
 757              	@ 546 "/home/selim/working/ChibiOS/os/ext/CMSIS/include/core_cmFunc.h" 1
 758 00c0 85F31188 		MSR basepri, r5
 759              	@ 0 "" 2
 760              	.LVL58:
 761              		.thumb
 762              		.syntax unified
 763 00c4 4125     		movs	r5, #65
 764              	.LVL59:
 765              	.L31:
 766              	.LBE391:
 767              	.LBE390:
 768              	.LBE389:
 769              	.LBE388:
 770              	.LBE387:
 771              	.LBE378:
 772              	.LBE377:
 773              		.loc 1 173 0
 774 00c6 2846     		mov	r0, r5
 775 00c8 FFF7FEFF 		bl	test_emit_token
 776              	.LVL60:
 777              		.loc 1 174 0
 778 00cc 4FF4FA71 		mov	r1, #500
 779 00d0 1A48     		ldr	r0, .L35
 780 00d2 FFF7FEFF 		bl	chSemWaitTimeout
 781              	.LVL61:
 782              		.loc 1 175 0
 783 00d6 A0F1FF31 		sub	r1, r0, #-1
 784 00da B1FA81F1 		clz	r1, r1
 785 00de 4909     		lsrs	r1, r1, #5
 786 00e0 0720     		movs	r0, #7
 787              	.LVL62:
 788 00e2 FFF7FEFF 		bl	_test_assert
 789              	.LVL63:
 790 00e6 0028     		cmp	r0, #0
 791 00e8 9AD1     		bne	.L27
 792              		.loc 1 176 0
 793 00ea 2168     		ldr	r1, [r4]
 794 00ec 091B     		subs	r1, r1, r4
 795 00ee B1FA81F1 		clz	r1, r1
 796 00f2 0820     		movs	r0, #8
 797 00f4 4909     		lsrs	r1, r1, #5
 798 00f6 FFF7FEFF 		bl	_test_assert
ARM GAS  /tmp/ccOHiGfK.s 			page 15


 799              	.LVL64:
 800 00fa 0028     		cmp	r0, #0
 801 00fc 90D1     		bne	.L27
 802              		.loc 1 177 0
 803 00fe A168     		ldr	r1, [r4, #8]
 804 0100 B1FA81F1 		clz	r1, r1
 805 0104 4909     		lsrs	r1, r1, #5
 806 0106 0920     		movs	r0, #9
 807 0108 FFF7FEFF 		bl	_test_assert
 808              	.LVL65:
 809 010c 0135     		adds	r5, r5, #1
 810 010e EDB2     		uxtb	r5, r5
 811 0110 0028     		cmp	r0, #0
 812 0112 85D1     		bne	.L27
 813              		.loc 1 172 0
 814 0114 462D     		cmp	r5, #70
 815 0116 D6D1     		bne	.L31
 816              		.loc 1 179 0
 817 0118 0D49     		ldr	r1, .L35+20
 818 011a 0A20     		movs	r0, #10
 819 011c FFF7FEFF 		bl	_test_assert_sequence
 820              	.LVL66:
 821 0120 0028     		cmp	r0, #0
 822 0122 7FF47DAF 		bne	.L27
 823              		.loc 1 180 0
 824 0126 06F6D812 		addw	r2, r6, #2520
 825 012a 06F6C411 		addw	r1, r6, #2500
 826 012e 0B20     		movs	r0, #11
 827              	.LBE370:
 828              	.LBE369:
 829              		.loc 1 181 0
 830 0130 02B0     		add	sp, sp, #8
 831              		.cfi_def_cfa_offset 16
 832              		@ sp needed
 833 0132 BDE87040 		pop	{r4, r5, r6, lr}
 834              		.cfi_restore 14
 835              		.cfi_restore 6
 836              		.cfi_restore 5
 837              		.cfi_restore 4
 838              		.cfi_def_cfa_offset 0
 839              	.LVL67:
 840              	.LBB393:
 841              	.LBB392:
 842              		.loc 1 180 0
 843 0136 FFF7FEBF 		b	_test_assert_time_window
 844              	.LVL68:
 845              	.L36:
 846 013a 00BF     		.align	2
 847              	.L35:
 848 013c 00000000 		.word	.LANCHOR0
 849 0140 00000000 		.word	ch
 850 0144 00000000 		.word	wa
 851 0148 00000000 		.word	thread2
 852 014c 00000000 		.word	threads
 853 0150 14000000 		.word	.LC5
 854              	.LBE392:
 855              	.LBE393:
ARM GAS  /tmp/ccOHiGfK.s 			page 16


 856              		.cfi_endproc
 857              	.LFE232:
 858              		.size	sem2_execute, .-sem2_execute
 859              		.section	.text.sem3_execute,"ax",%progbits
 860              		.align	2
 861              		.p2align 4,,15
 862              		.thumb
 863              		.thumb_func
 864              		.type	sem3_execute, %function
 865              	sem3_execute:
 866              	.LFB235:
 867              		.loc 1 214 0
 868              		.cfi_startproc
 869              		@ args = 0, pretend = 0, frame = 0
 870              		@ frame_needed = 0, uses_anonymous_args = 0
 871 0000 10B5     		push	{r4, lr}
 872              		.cfi_def_cfa_offset 8
 873              		.cfi_offset 4, -8
 874              		.cfi_offset 14, -4
 875              	.LBB410:
 876              	.LBB411:
 877              	.LBB412:
 878              	.LBB413:
 879              		.loc 2 176 0
 880 0002 204B     		ldr	r3, .L43
 881              	.LBE413:
 882              	.LBE412:
 883              	.LBE411:
 884              	.LBE410:
 885              		.loc 1 216 0
 886 0004 204A     		ldr	r2, .L43+4
 887              	.LBB415:
 888              	.LBB414:
 889              		.loc 2 189 0
 890 0006 9B69     		ldr	r3, [r3, #24]
 891              	.LBE414:
 892              	.LBE415:
 893              		.loc 1 216 0
 894 0008 1068     		ldr	r0, [r2]
 895 000a 9A68     		ldr	r2, [r3, #8]
 896 000c 1F4B     		ldr	r3, .L43+8
 897              		.loc 1 217 0
 898 000e 204C     		ldr	r4, .L43+12
 899              		.loc 1 214 0
 900 0010 82B0     		sub	sp, sp, #8
 901              		.cfi_def_cfa_offset 16
 902              		.loc 1 216 0
 903 0012 0021     		movs	r1, #0
 904 0014 0132     		adds	r2, r2, #1
 905 0016 0091     		str	r1, [sp]
 906 0018 4FF4A471 		mov	r1, #328
 907 001c FFF7FEFF 		bl	chThdCreateStatic
 908              	.LVL69:
 909 0020 1C4B     		ldr	r3, .L43+16
 910              		.loc 1 217 0
 911 0022 2146     		mov	r1, r4
 912              		.loc 1 216 0
ARM GAS  /tmp/ccOHiGfK.s 			page 17


 913 0024 1860     		str	r0, [r3]
 914              		.loc 1 217 0
 915 0026 2046     		mov	r0, r4
 916 0028 FFF7FEFF 		bl	chSemSignalWait
 917              	.LVL70:
 918              		.loc 1 218 0
 919 002c 2168     		ldr	r1, [r4]
 920 002e 091B     		subs	r1, r1, r4
 921 0030 B1FA81F1 		clz	r1, r1
 922 0034 0120     		movs	r0, #1
 923 0036 4909     		lsrs	r1, r1, #5
 924 0038 FFF7FEFF 		bl	_test_assert
 925              	.LVL71:
 926 003c 08B1     		cbz	r0, .L42
 927              	.L37:
 928              		.loc 1 224 0
 929 003e 02B0     		add	sp, sp, #8
 930              		.cfi_remember_state
 931              		.cfi_def_cfa_offset 8
 932              		@ sp needed
 933 0040 10BD     		pop	{r4, pc}
 934              	.L42:
 935              		.cfi_restore_state
 936              		.loc 1 219 0
 937 0042 A168     		ldr	r1, [r4, #8]
 938 0044 B1FA81F1 		clz	r1, r1
 939 0048 4909     		lsrs	r1, r1, #5
 940 004a 0220     		movs	r0, #2
 941 004c FFF7FEFF 		bl	_test_assert
 942              	.LVL72:
 943 0050 0028     		cmp	r0, #0
 944 0052 F4D1     		bne	.L37
 945              	.LBB416:
 946              	.LBB417:
 947              		.loc 1 221 0
 948 0054 2146     		mov	r1, r4
 949 0056 2046     		mov	r0, r4
 950 0058 FFF7FEFF 		bl	chSemSignalWait
 951              	.LVL73:
 952              		.loc 1 222 0
 953 005c 2168     		ldr	r1, [r4]
 954 005e 091B     		subs	r1, r1, r4
 955 0060 B1FA81F1 		clz	r1, r1
 956 0064 0320     		movs	r0, #3
 957 0066 4909     		lsrs	r1, r1, #5
 958 0068 FFF7FEFF 		bl	_test_assert
 959              	.LVL74:
 960 006c 0028     		cmp	r0, #0
 961 006e E6D1     		bne	.L37
 962              		.loc 1 223 0
 963 0070 A168     		ldr	r1, [r4, #8]
 964 0072 B1FA81F1 		clz	r1, r1
 965 0076 4909     		lsrs	r1, r1, #5
 966 0078 0420     		movs	r0, #4
 967              	.LBE417:
 968              	.LBE416:
 969              		.loc 1 224 0
ARM GAS  /tmp/ccOHiGfK.s 			page 18


 970 007a 02B0     		add	sp, sp, #8
 971              		.cfi_def_cfa_offset 8
 972              		@ sp needed
 973 007c BDE81040 		pop	{r4, lr}
 974              		.cfi_restore 14
 975              		.cfi_restore 4
 976              		.cfi_def_cfa_offset 0
 977              	.LBB419:
 978              	.LBB418:
 979              		.loc 1 223 0
 980 0080 FFF7FEBF 		b	_test_assert
 981              	.LVL75:
 982              	.L44:
 983              		.align	2
 984              	.L43:
 985 0084 00000000 		.word	ch
 986 0088 00000000 		.word	wa
 987 008c 00000000 		.word	thread3
 988 0090 00000000 		.word	.LANCHOR0
 989 0094 00000000 		.word	threads
 990              	.LBE418:
 991              	.LBE419:
 992              		.cfi_endproc
 993              	.LFE235:
 994              		.size	sem3_execute, .-sem3_execute
 995              		.section	.text.thread4,"ax",%progbits
 996              		.align	2
 997              		.p2align 4,,15
 998              		.thumb
 999              		.thumb_func
 1000              		.type	thread4, %function
 1001              	thread4:
 1002              	.LFB236:
 1003              		.loc 1 241 0
 1004              		.cfi_startproc
 1005              		@ args = 0, pretend = 0, frame = 0
 1006              		@ frame_needed = 0, uses_anonymous_args = 0
 1007              	.LVL76:
 1008 0000 08B5     		push	{r3, lr}
 1009              		.cfi_def_cfa_offset 8
 1010              		.cfi_offset 3, -8
 1011              		.cfi_offset 14, -4
 1012              	.LBB433:
 1013              	.LBB434:
 1014              	.LBB435:
 1015              	.LBB436:
 1016              	.LBB437:
 1017              	.LBB438:
 1018              		.loc 3 546 0
 1019 0002 2022     		movs	r2, #32
 1020              		.syntax unified
 1021              	@ 546 "/home/selim/working/ChibiOS/os/ext/CMSIS/include/core_cmFunc.h" 1
 1022 0004 82F31188 		MSR basepri, r2
 1023              	@ 0 "" 2
 1024              	.LVL77:
 1025              		.thumb
 1026              		.syntax unified
ARM GAS  /tmp/ccOHiGfK.s 			page 19


 1027              	.LBE438:
 1028              	.LBE437:
 1029              	.LBE436:
 1030              	.LBE435:
 1031              	.LBB439:
 1032              	.LBB440:
 1033              		.file 5 "/home/selim/working/ChibiOS/os/rt/include/chbsem.h"
 1034              		.loc 5 270 0
 1035 0008 8368     		ldr	r3, [r0, #8]
 1036 000a 002B     		cmp	r3, #0
 1037 000c 05DD     		ble	.L48
 1038              	.LVL78:
 1039              	.LBE440:
 1040              	.LBE439:
 1041              		.loc 5 286 0
 1042 000e FFF7FEFF 		bl	chSchRescheduleS
 1043              	.LVL79:
 1044              	.LBB442:
 1045              	.LBB443:
 1046              	.LBB444:
 1047              	.LBB445:
 1048              	.LBB446:
 1049              		.loc 3 546 0
 1050 0012 0023     		movs	r3, #0
 1051              		.syntax unified
 1052              	@ 546 "/home/selim/working/ChibiOS/os/ext/CMSIS/include/core_cmFunc.h" 1
 1053 0014 83F31188 		MSR basepri, r3
 1054              	@ 0 "" 2
 1055              	.LVL80:
 1056              		.thumb
 1057              		.syntax unified
 1058 0018 08BD     		pop	{r3, pc}
 1059              	.LVL81:
 1060              	.L48:
 1061              	.LBE446:
 1062              	.LBE445:
 1063              	.LBE444:
 1064              	.LBE443:
 1065              	.LBE442:
 1066              	.LBB451:
 1067              	.LBB441:
 1068              		.loc 5 271 0
 1069 001a FFF7FEFF 		bl	chSemSignalI
 1070              	.LVL82:
 1071              	.LBE441:
 1072              	.LBE451:
 1073              		.loc 5 286 0
 1074 001e FFF7FEFF 		bl	chSchRescheduleS
 1075              	.LVL83:
 1076              	.LBB452:
 1077              	.LBB450:
 1078              	.LBB449:
 1079              	.LBB448:
 1080              	.LBB447:
 1081              		.loc 3 546 0
 1082 0022 0023     		movs	r3, #0
 1083              		.syntax unified
ARM GAS  /tmp/ccOHiGfK.s 			page 20


 1084              	@ 546 "/home/selim/working/ChibiOS/os/ext/CMSIS/include/core_cmFunc.h" 1
 1085 0024 83F31188 		MSR basepri, r3
 1086              	@ 0 "" 2
 1087              	.LVL84:
 1088              		.thumb
 1089              		.syntax unified
 1090 0028 08BD     		pop	{r3, pc}
 1091              	.LBE447:
 1092              	.LBE448:
 1093              	.LBE449:
 1094              	.LBE450:
 1095              	.LBE452:
 1096              	.LBE434:
 1097              	.LBE433:
 1098              		.cfi_endproc
 1099              	.LFE236:
 1100              		.size	thread4, .-thread4
 1101 002a 00BF     		.section	.text.sem4_execute,"ax",%progbits
 1102              		.align	2
 1103              		.p2align 4,,15
 1104              		.thumb
 1105              		.thumb_func
 1106              		.type	sem4_execute, %function
 1107              	sem4_execute:
 1108              	.LFB237:
 1109              		.loc 1 246 0
 1110              		.cfi_startproc
 1111              		@ args = 0, pretend = 0, frame = 16
 1112              		@ frame_needed = 0, uses_anonymous_args = 0
 1113 0000 70B5     		push	{r4, r5, r6, lr}
 1114              		.cfi_def_cfa_offset 16
 1115              		.cfi_offset 4, -16
 1116              		.cfi_offset 5, -12
 1117              		.cfi_offset 6, -8
 1118              		.cfi_offset 14, -4
 1119 0002 86B0     		sub	sp, sp, #24
 1120              		.cfi_def_cfa_offset 40
 1121              	.LVL85:
 1122              	.LBB577:
 1123              	.LBB578:
 1124              		.loc 5 126 0
 1125 0004 03A8     		add	r0, sp, #12
 1126              	.LVL86:
 1127 0006 0021     		movs	r1, #0
 1128 0008 FFF7FEFF 		bl	chSemObjectInit
 1129              	.LVL87:
 1130              	.LBE578:
 1131              	.LBE577:
 1132              	.LBB579:
 1133              	.LBB580:
 1134              		.loc 5 255 0
 1135 000c 03A8     		add	r0, sp, #12
 1136              	.LVL88:
 1137 000e 0021     		movs	r1, #0
 1138 0010 FFF7FEFF 		bl	chSemReset
 1139              	.LVL89:
 1140              	.LBE580:
ARM GAS  /tmp/ccOHiGfK.s 			page 21


 1141              	.LBE579:
 1142              	.LBB581:
 1143              	.LBB582:
 1144              	.LBB583:
 1145              	.LBB584:
 1146              		.loc 3 546 0
 1147 0014 2025     		movs	r5, #32
 1148              		.syntax unified
 1149              	@ 546 "/home/selim/working/ChibiOS/os/ext/CMSIS/include/core_cmFunc.h" 1
 1150 0016 85F31188 		MSR basepri, r5
 1151              	@ 0 "" 2
 1152              	.LVL90:
 1153              		.thumb
 1154              		.syntax unified
 1155              	.LBE584:
 1156              	.LBE583:
 1157              	.LBE582:
 1158              	.LBE581:
 1159              		.loc 1 252 0
 1160 001a 0599     		ldr	r1, [sp, #20]
 1161 001c 0029     		cmp	r1, #0
 1162 001e CCBF     		ite	gt
 1163 0020 0021     		movgt	r1, #0
 1164 0022 0121     		movle	r1, #1
 1165 0024 0120     		movs	r0, #1
 1166 0026 FFF7FEFF 		bl	_test_assert
 1167              	.LVL91:
 1168 002a 20B1     		cbz	r0, .L50
 1169              	.LVL92:
 1170              	.LBB585:
 1171              	.LBB586:
 1172              	.LBB587:
 1173              	.LBB588:
 1174              	.LBB589:
 1175              		.loc 3 546 0
 1176 002c 0023     		movs	r3, #0
 1177              		.syntax unified
 1178              	@ 546 "/home/selim/working/ChibiOS/os/ext/CMSIS/include/core_cmFunc.h" 1
 1179 002e 83F31188 		MSR basepri, r3
 1180              	@ 0 "" 2
 1181              	.LVL93:
 1182              		.thumb
 1183              		.syntax unified
 1184              	.L49:
 1185              	.LBE589:
 1186              	.LBE588:
 1187              	.LBE587:
 1188              	.LBE586:
 1189              	.LBE585:
 1190              		.loc 1 274 0
 1191 0032 06B0     		add	sp, sp, #24
 1192              		.cfi_remember_state
 1193              		.cfi_def_cfa_offset 16
 1194              		@ sp needed
 1195 0034 70BD     		pop	{r4, r5, r6, pc}
 1196              	.LVL94:
 1197              	.L50:
ARM GAS  /tmp/ccOHiGfK.s 			page 22


 1198              		.cfi_restore_state
 1199 0036 0446     		mov	r4, r0
 1200              	.LBB590:
 1201              	.LBB591:
 1202              	.LBB592:
 1203              	.LBB593:
 1204              	.LBB594:
 1205              		.loc 3 546 0
 1206              		.syntax unified
 1207              	@ 546 "/home/selim/working/ChibiOS/os/ext/CMSIS/include/core_cmFunc.h" 1
 1208 0038 80F31188 		MSR basepri, r0
 1209              	@ 0 "" 2
 1210              	.LVL95:
 1211              		.thumb
 1212              		.syntax unified
 1213              	.LBE594:
 1214              	.LBE593:
 1215              	.LBE592:
 1216              	.LBE591:
 1217              	.LBE590:
 1218              	.LBB595:
 1219              	.LBB596:
 1220              	.LBB597:
 1221              	.LBB598:
 1222              		.loc 2 176 0
 1223 003c 404B     		ldr	r3, .L67
 1224              	.LBE598:
 1225              	.LBE597:
 1226              	.LBE596:
 1227              	.LBE595:
 1228              		.loc 1 255 0
 1229 003e 414A     		ldr	r2, .L67+4
 1230              	.LBB600:
 1231              	.LBB599:
 1232              		.loc 2 189 0
 1233 0040 9B69     		ldr	r3, [r3, #24]
 1234              	.LBE599:
 1235              	.LBE600:
 1236              		.loc 1 255 0
 1237 0042 1068     		ldr	r0, [r2]
 1238 0044 9A68     		ldr	r2, [r3, #8]
 1239 0046 404B     		ldr	r3, .L67+8
 1240 0048 03A9     		add	r1, sp, #12
 1241              	.LVL96:
 1242 004a 0091     		str	r1, [sp]
 1243 004c 013A     		subs	r2, r2, #1
 1244 004e 4FF4A471 		mov	r1, #328
 1245              	.LVL97:
 1246 0052 FFF7FEFF 		bl	chThdCreateStatic
 1247              	.LVL98:
 1248 0056 3D4B     		ldr	r3, .L67+12
 1249 0058 1860     		str	r0, [r3]
 1250              	.LVL99:
 1251              	.LBB601:
 1252              	.LBB602:
 1253              		.loc 5 143 0
 1254 005a 03A8     		add	r0, sp, #12
ARM GAS  /tmp/ccOHiGfK.s 			page 23


 1255              	.LVL100:
 1256 005c FFF7FEFF 		bl	chSemWait
 1257              	.LVL101:
 1258              	.LBE602:
 1259              	.LBE601:
 1260              	.LBB603:
 1261              	.LBB604:
 1262              	.LBB605:
 1263              	.LBB606:
 1264              		.loc 3 546 0
 1265              		.syntax unified
 1266              	@ 546 "/home/selim/working/ChibiOS/os/ext/CMSIS/include/core_cmFunc.h" 1
 1267 0060 85F31188 		MSR basepri, r5
 1268              	@ 0 "" 2
 1269              	.LVL102:
 1270              		.thumb
 1271              		.syntax unified
 1272              	.LBE606:
 1273              	.LBE605:
 1274              	.LBE604:
 1275              	.LBE603:
 1276              		.loc 1 262 0
 1277 0064 0599     		ldr	r1, [sp, #20]
 1278 0066 0029     		cmp	r1, #0
 1279 0068 CCBF     		ite	gt
 1280 006a 0021     		movgt	r1, #0
 1281 006c 0121     		movle	r1, #1
 1282 006e 0220     		movs	r0, #2
 1283 0070 FFF7FEFF 		bl	_test_assert
 1284              	.LVL103:
 1285 0074 18B1     		cbz	r0, .L63
 1286              	.L61:
 1287              	.LVL104:
 1288              	.LBB607:
 1289              	.LBB608:
 1290              	.LBB609:
 1291              	.LBB610:
 1292              	.LBB611:
 1293              		.loc 3 546 0
 1294              		.syntax unified
 1295              	@ 546 "/home/selim/working/ChibiOS/os/ext/CMSIS/include/core_cmFunc.h" 1
 1296 0076 84F31188 		MSR basepri, r4
 1297              	@ 0 "" 2
 1298              	.LVL105:
 1299              		.thumb
 1300              		.syntax unified
 1301              	.LBE611:
 1302              	.LBE610:
 1303              	.LBE609:
 1304              	.LBE608:
 1305              	.LBE607:
 1306              		.loc 1 274 0
 1307 007a 06B0     		add	sp, sp, #24
 1308              		.cfi_remember_state
 1309              		.cfi_def_cfa_offset 16
 1310              		@ sp needed
 1311 007c 70BD     		pop	{r4, r5, r6, pc}
ARM GAS  /tmp/ccOHiGfK.s 			page 24


 1312              	.LVL106:
 1313              	.L63:
 1314              		.cfi_restore_state
 1315              	.LBB612:
 1316              	.LBB613:
 1317              	.LBB614:
 1318              	.LBB615:
 1319              	.LBB616:
 1320              		.loc 3 546 0
 1321              		.syntax unified
 1322              	@ 546 "/home/selim/working/ChibiOS/os/ext/CMSIS/include/core_cmFunc.h" 1
 1323 007e 80F31188 		MSR basepri, r0
 1324              	@ 0 "" 2
 1325              	.LVL107:
 1326              		.thumb
 1327              		.syntax unified
 1328              	.LBE616:
 1329              	.LBE615:
 1330              	.LBE614:
 1331              	.LBE613:
 1332              	.LBE612:
 1333              	.LBB617:
 1334              	.LBB618:
 1335              	.LBB619:
 1336              	.LBB620:
 1337              	.LBB621:
 1338              	.LBB622:
 1339              		.syntax unified
 1340              	@ 546 "/home/selim/working/ChibiOS/os/ext/CMSIS/include/core_cmFunc.h" 1
 1341 0082 85F31188 		MSR basepri, r5
 1342              	@ 0 "" 2
 1343              	.LVL108:
 1344              		.thumb
 1345              		.syntax unified
 1346              	.LBE622:
 1347              	.LBE621:
 1348              	.LBE620:
 1349              	.LBE619:
 1350              	.LBB623:
 1351              	.LBB624:
 1352              		.loc 5 270 0
 1353 0086 059B     		ldr	r3, [sp, #20]
 1354 0088 002B     		cmp	r3, #0
 1355 008a 24DD     		ble	.L64
 1356              	.L53:
 1357              	.LVL109:
 1358              	.LBE624:
 1359              	.LBE623:
 1360              		.loc 5 286 0
 1361 008c FFF7FEFF 		bl	chSchRescheduleS
 1362              	.LVL110:
 1363              	.LBB626:
 1364              	.LBB627:
 1365              	.LBB628:
 1366              	.LBB629:
 1367              	.LBB630:
 1368              		.loc 3 546 0
ARM GAS  /tmp/ccOHiGfK.s 			page 25


 1369 0090 0024     		movs	r4, #0
 1370              		.syntax unified
 1371              	@ 546 "/home/selim/working/ChibiOS/os/ext/CMSIS/include/core_cmFunc.h" 1
 1372 0092 84F31188 		MSR basepri, r4
 1373              	@ 0 "" 2
 1374              	.LVL111:
 1375              		.thumb
 1376              		.syntax unified
 1377              	.LBE630:
 1378              	.LBE629:
 1379              	.LBE628:
 1380              	.LBE627:
 1381              	.LBE626:
 1382              	.LBE618:
 1383              	.LBE617:
 1384              	.LBB633:
 1385              	.LBB634:
 1386              	.LBB635:
 1387              	.LBB636:
 1388 0096 2026     		movs	r6, #32
 1389              		.syntax unified
 1390              	@ 546 "/home/selim/working/ChibiOS/os/ext/CMSIS/include/core_cmFunc.h" 1
 1391 0098 86F31188 		MSR basepri, r6
 1392              	@ 0 "" 2
 1393              	.LVL112:
 1394              		.thumb
 1395              		.syntax unified
 1396              	.LBE636:
 1397              	.LBE635:
 1398              	.LBE634:
 1399              	.LBE633:
 1400              		.loc 1 267 0
 1401 009c 0599     		ldr	r1, [sp, #20]
 1402 009e A142     		cmp	r1, r4
 1403 00a0 4FF00300 		mov	r0, #3
 1404 00a4 D4BF     		ite	le
 1405 00a6 0021     		movle	r1, #0
 1406 00a8 0121     		movgt	r1, #1
 1407 00aa FFF7FEFF 		bl	_test_assert
 1408              	.LVL113:
 1409 00ae 0546     		mov	r5, r0
 1410 00b0 0028     		cmp	r0, #0
 1411 00b2 E0D1     		bne	.L61
 1412              	.LVL114:
 1413              	.LBB637:
 1414              	.LBB638:
 1415              	.LBB639:
 1416              	.LBB640:
 1417              	.LBB641:
 1418              		.loc 3 546 0
 1419              		.syntax unified
 1420              	@ 546 "/home/selim/working/ChibiOS/os/ext/CMSIS/include/core_cmFunc.h" 1
 1421 00b4 80F31188 		MSR basepri, r0
 1422              	@ 0 "" 2
 1423              	.LVL115:
 1424              		.thumb
 1425              		.syntax unified
ARM GAS  /tmp/ccOHiGfK.s 			page 26


 1426              	.LBE641:
 1427              	.LBE640:
 1428              	.LBE639:
 1429              	.LBE638:
 1430              	.LBE637:
 1431              	.LBB642:
 1432              	.LBB643:
 1433              	.LBB644:
 1434              	.LBB645:
 1435              		.syntax unified
 1436              	@ 546 "/home/selim/working/ChibiOS/os/ext/CMSIS/include/core_cmFunc.h" 1
 1437 00b8 86F31188 		MSR basepri, r6
 1438              	@ 0 "" 2
 1439              	.LVL116:
 1440              		.thumb
 1441              		.syntax unified
 1442              	.LBE645:
 1443              	.LBE644:
 1444              	.LBE643:
 1445              	.LBE642:
 1446              		.loc 1 268 0
 1447 00bc 0599     		ldr	r1, [sp, #20]
 1448 00be A1F10101 		sub	r1, #1
 1449 00c2 B1FA81F1 		clz	r1, r1
 1450 00c6 0420     		movs	r0, #4
 1451 00c8 4909     		lsrs	r1, r1, #5
 1452 00ca FFF7FEFF 		bl	_test_assert
 1453              	.LVL117:
 1454 00ce 30B1     		cbz	r0, .L65
 1455              	.L62:
 1456              	.LVL118:
 1457              	.LBB646:
 1458              	.LBB647:
 1459              	.LBB648:
 1460              	.LBB649:
 1461              	.LBB650:
 1462              		.loc 3 546 0
 1463              		.syntax unified
 1464              	@ 546 "/home/selim/working/ChibiOS/os/ext/CMSIS/include/core_cmFunc.h" 1
 1465 00d0 85F31188 		MSR basepri, r5
 1466              	@ 0 "" 2
 1467              	.LVL119:
 1468              		.thumb
 1469              		.syntax unified
 1470 00d4 ADE7     		b	.L49
 1471              	.LVL120:
 1472              	.L64:
 1473              	.LBE650:
 1474              	.LBE649:
 1475              	.LBE648:
 1476              	.LBE647:
 1477              	.LBE646:
 1478              	.LBB651:
 1479              	.LBB632:
 1480              	.LBB631:
 1481              	.LBB625:
 1482              		.loc 5 271 0
ARM GAS  /tmp/ccOHiGfK.s 			page 27


 1483 00d6 03A8     		add	r0, sp, #12
 1484              	.LVL121:
 1485 00d8 FFF7FEFF 		bl	chSemSignalI
 1486              	.LVL122:
 1487 00dc D6E7     		b	.L53
 1488              	.LVL123:
 1489              	.L65:
 1490              	.LBE625:
 1491              	.LBE631:
 1492              	.LBE632:
 1493              	.LBE651:
 1494              	.LBB652:
 1495              	.LBB653:
 1496              	.LBB654:
 1497              	.LBB655:
 1498              	.LBB656:
 1499              		.loc 3 546 0
 1500              		.syntax unified
 1501              	@ 546 "/home/selim/working/ChibiOS/os/ext/CMSIS/include/core_cmFunc.h" 1
 1502 00de 80F31188 		MSR basepri, r0
 1503              	@ 0 "" 2
 1504              	.LVL124:
 1505              		.thumb
 1506              		.syntax unified
 1507              	.LBE656:
 1508              	.LBE655:
 1509              	.LBE654:
 1510              	.LBE653:
 1511              	.LBE652:
 1512              	.LBB657:
 1513              	.LBB658:
 1514              	.LBB659:
 1515              	.LBB660:
 1516              	.LBB661:
 1517              	.LBB662:
 1518              		.syntax unified
 1519              	@ 546 "/home/selim/working/ChibiOS/os/ext/CMSIS/include/core_cmFunc.h" 1
 1520 00e2 86F31188 		MSR basepri, r6
 1521              	@ 0 "" 2
 1522              	.LVL125:
 1523              		.thumb
 1524              		.syntax unified
 1525              	.LBE662:
 1526              	.LBE661:
 1527              	.LBE660:
 1528              	.LBE659:
 1529              	.LBB663:
 1530              	.LBB664:
 1531              		.loc 5 270 0
 1532 00e6 059B     		ldr	r3, [sp, #20]
 1533 00e8 002B     		cmp	r3, #0
 1534 00ea 25DD     		ble	.L66
 1535              	.L56:
 1536              	.LVL126:
 1537              	.LBE664:
 1538              	.LBE663:
 1539              		.loc 5 286 0
ARM GAS  /tmp/ccOHiGfK.s 			page 28


 1540 00ec FFF7FEFF 		bl	chSchRescheduleS
 1541              	.LVL127:
 1542              	.LBB666:
 1543              	.LBB667:
 1544              	.LBB668:
 1545              	.LBB669:
 1546              	.LBB670:
 1547              		.loc 3 546 0
 1548 00f0 0024     		movs	r4, #0
 1549              		.syntax unified
 1550              	@ 546 "/home/selim/working/ChibiOS/os/ext/CMSIS/include/core_cmFunc.h" 1
 1551 00f2 84F31188 		MSR basepri, r4
 1552              	@ 0 "" 2
 1553              	.LVL128:
 1554              		.thumb
 1555              		.syntax unified
 1556              	.LBE670:
 1557              	.LBE669:
 1558              	.LBE668:
 1559              	.LBE667:
 1560              	.LBE666:
 1561              	.LBE658:
 1562              	.LBE657:
 1563              	.LBB673:
 1564              	.LBB674:
 1565              	.LBB675:
 1566              	.LBB676:
 1567 00f6 2026     		movs	r6, #32
 1568              		.syntax unified
 1569              	@ 546 "/home/selim/working/ChibiOS/os/ext/CMSIS/include/core_cmFunc.h" 1
 1570 00f8 86F31188 		MSR basepri, r6
 1571              	@ 0 "" 2
 1572              	.LVL129:
 1573              		.thumb
 1574              		.syntax unified
 1575              	.LBE676:
 1576              	.LBE675:
 1577              	.LBE674:
 1578              	.LBE673:
 1579              		.loc 1 272 0
 1580 00fc 0599     		ldr	r1, [sp, #20]
 1581 00fe A142     		cmp	r1, r4
 1582 0100 4FF00300 		mov	r0, #3
 1583 0104 D4BF     		ite	le
 1584 0106 0021     		movle	r1, #0
 1585 0108 0121     		movgt	r1, #1
 1586 010a FFF7FEFF 		bl	_test_assert
 1587              	.LVL130:
 1588 010e 0546     		mov	r5, r0
 1589 0110 0028     		cmp	r0, #0
 1590 0112 B0D1     		bne	.L61
 1591              	.LVL131:
 1592              	.LBB677:
 1593              	.LBB678:
 1594              	.LBB679:
 1595              	.LBB680:
 1596              	.LBB681:
ARM GAS  /tmp/ccOHiGfK.s 			page 29


 1597              		.loc 3 546 0
 1598              		.syntax unified
 1599              	@ 546 "/home/selim/working/ChibiOS/os/ext/CMSIS/include/core_cmFunc.h" 1
 1600 0114 80F31188 		MSR basepri, r0
 1601              	@ 0 "" 2
 1602              	.LVL132:
 1603              		.thumb
 1604              		.syntax unified
 1605              	.LBE681:
 1606              	.LBE680:
 1607              	.LBE679:
 1608              	.LBE678:
 1609              	.LBE677:
 1610              	.LBB682:
 1611              	.LBB683:
 1612              	.LBB684:
 1613              	.LBB685:
 1614              		.syntax unified
 1615              	@ 546 "/home/selim/working/ChibiOS/os/ext/CMSIS/include/core_cmFunc.h" 1
 1616 0118 86F31188 		MSR basepri, r6
 1617              	@ 0 "" 2
 1618              	.LVL133:
 1619              		.thumb
 1620              		.syntax unified
 1621              	.LBE685:
 1622              	.LBE684:
 1623              	.LBE683:
 1624              	.LBE682:
 1625              		.loc 1 273 0
 1626 011c 0599     		ldr	r1, [sp, #20]
 1627 011e A1F10101 		sub	r1, #1
 1628 0122 B1FA81F1 		clz	r1, r1
 1629 0126 0520     		movs	r0, #5
 1630 0128 4909     		lsrs	r1, r1, #5
 1631 012a FFF7FEFF 		bl	_test_assert
 1632              	.LVL134:
 1633 012e 0028     		cmp	r0, #0
 1634 0130 CED1     		bne	.L62
 1635              	.LVL135:
 1636              	.LBB686:
 1637              	.LBB687:
 1638              	.LBB688:
 1639              	.LBB689:
 1640              	.LBB690:
 1641              		.loc 3 546 0
 1642              		.syntax unified
 1643              	@ 546 "/home/selim/working/ChibiOS/os/ext/CMSIS/include/core_cmFunc.h" 1
 1644 0132 80F31188 		MSR basepri, r0
 1645              	@ 0 "" 2
 1646              	.LVL136:
 1647              		.thumb
 1648              		.syntax unified
 1649              	.LBE690:
 1650              	.LBE689:
 1651              	.LBE688:
 1652              	.LBE687:
 1653              	.LBE686:
ARM GAS  /tmp/ccOHiGfK.s 			page 30


 1654 0136 7CE7     		b	.L49
 1655              	.LVL137:
 1656              	.L66:
 1657              	.LBB691:
 1658              	.LBB672:
 1659              	.LBB671:
 1660              	.LBB665:
 1661              		.loc 5 271 0
 1662 0138 03A8     		add	r0, sp, #12
 1663              	.LVL138:
 1664 013a FFF7FEFF 		bl	chSemSignalI
 1665              	.LVL139:
 1666 013e D5E7     		b	.L56
 1667              	.L68:
 1668              		.align	2
 1669              	.L67:
 1670 0140 00000000 		.word	ch
 1671 0144 00000000 		.word	wa
 1672 0148 00000000 		.word	thread4
 1673 014c 00000000 		.word	threads
 1674              	.LBE665:
 1675              	.LBE671:
 1676              	.LBE672:
 1677              	.LBE691:
 1678              		.cfi_endproc
 1679              	.LFE237:
 1680              		.size	sem4_execute, .-sem4_execute
 1681              		.global	patternsem
 1682              		.global	testsem4
 1683              		.global	testsem3
 1684              		.global	testsem2
 1685              		.global	testsem1
 1686              		.section	.rodata.testsem1,"a",%progbits
 1687              		.align	2
 1688              		.type	testsem1, %object
 1689              		.size	testsem1, 16
 1690              	testsem1:
 1691 0000 74000000 		.word	.LC9
 1692 0004 00000000 		.word	sem1_setup
 1693 0008 00000000 		.word	0
 1694 000c 00000000 		.word	sem1_execute
 1695              		.section	.rodata.testsem2,"a",%progbits
 1696              		.align	2
 1697              		.type	testsem2, %object
 1698              		.size	testsem2, 16
 1699              	testsem2:
 1700 0000 60000000 		.word	.LC8
 1701 0004 00000000 		.word	sem2_setup
 1702 0008 00000000 		.word	0
 1703 000c 00000000 		.word	sem2_execute
 1704              		.section	.rodata.testsem3,"a",%progbits
 1705              		.align	2
 1706              		.type	testsem3, %object
 1707              		.size	testsem3, 16
 1708              	testsem3:
 1709 0000 40000000 		.word	.LC7
 1710 0004 00000000 		.word	sem3_setup
ARM GAS  /tmp/ccOHiGfK.s 			page 31


 1711 0008 00000000 		.word	0
 1712 000c 00000000 		.word	sem3_execute
 1713              		.section	.rodata.testsem4,"a",%progbits
 1714              		.align	2
 1715              		.type	testsem4, %object
 1716              		.size	testsem4, 16
 1717              	testsem4:
 1718 0000 1C000000 		.word	.LC6
 1719 0004 00000000 		.word	0
 1720 0008 00000000 		.word	0
 1721 000c 00000000 		.word	sem4_execute
 1722              		.section	.data.sem1,"aw",%progbits
 1723              		.align	2
 1724              		.set	.LANCHOR0,. + 0
 1725              		.type	sem1, %object
 1726              		.size	sem1, 12
 1727              	sem1:
 1728 0000 00000000 		.word	sem1
 1729 0004 00000000 		.word	sem1
 1730 0008 00000000 		.word	0
 1731              		.section	.rodata.patternsem,"a",%progbits
 1732              		.align	2
 1733              		.type	patternsem, %object
 1734              		.size	patternsem, 20
 1735              	patternsem:
 1736 0000 00000000 		.word	testsem1
 1737 0004 00000000 		.word	testsem2
 1738 0008 00000000 		.word	testsem3
 1739 000c 00000000 		.word	testsem4
 1740 0010 00000000 		.word	0
 1741              		.section	.rodata.str1.4,"aMS",%progbits,1
 1742              		.align	2
 1743              	.LC0:
 1744 0000 4100     		.ascii	"A\000"
 1745 0002 0000     		.space	2
 1746              	.LC1:
 1747 0004 4200     		.ascii	"B\000"
 1748 0006 0000     		.space	2
 1749              	.LC2:
 1750 0008 4300     		.ascii	"C\000"
 1751 000a 0000     		.space	2
 1752              	.LC3:
 1753 000c 4400     		.ascii	"D\000"
 1754 000e 0000     		.space	2
 1755              	.LC4:
 1756 0010 4500     		.ascii	"E\000"
 1757 0012 0000     		.space	2
 1758              	.LC5:
 1759 0014 41424344 		.ascii	"ABCDE\000"
 1759      4500
 1760 001a 0000     		.space	2
 1761              	.LC6:
 1762 001c 42696E61 		.ascii	"Binary Semaphores, functionality\000"
 1762      72792053 
 1762      656D6170 
 1762      686F7265 
 1762      732C2066 
ARM GAS  /tmp/ccOHiGfK.s 			page 32


 1763 003d 000000   		.space	3
 1764              	.LC7:
 1765 0040 53656D61 		.ascii	"Semaphores, atomic signal-wait\000"
 1765      70686F72 
 1765      65732C20 
 1765      61746F6D 
 1765      69632073 
 1766 005f 00       		.space	1
 1767              	.LC8:
 1768 0060 53656D61 		.ascii	"Semaphores, timeout\000"
 1768      70686F72 
 1768      65732C20 
 1768      74696D65 
 1768      6F757400 
 1769              	.LC9:
 1770 0074 53656D61 		.ascii	"Semaphores, enqueuing\000"
 1770      70686F72 
 1770      65732C20 
 1770      656E7175 
 1770      6575696E 
 1771              		.text
 1772              	.Letext0:
 1773              		.file 6 "/usr/lib/gcc/arm-none-eabi/5.3.1/include/stddef.h"
 1774              		.file 7 "/usr/arm-none-eabi/include/machine/_default_types.h"
 1775              		.file 8 "/usr/arm-none-eabi/include/sys/_stdint.h"
 1776              		.file 9 "/home/selim/working/ChibiOS/os/rt/ports/ARMCMx/compilers/GCC/chtypes.h"
 1777              		.file 10 "/home/selim/working/ChibiOS/os/rt/include/chsystypes.h"
 1778              		.file 11 "/home/selim/working/ChibiOS/os/rt/include/chschd.h"
 1779              		.file 12 "/home/selim/working/ChibiOS/os/rt/ports/ARMCMx/chcore.h"
 1780              		.file 13 "/home/selim/working/ChibiOS/os/rt/ports/ARMCMx/chcore_v7m.h"
 1781              		.file 14 "/home/selim/working/ChibiOS/os/hal/ports/STM32/LLD/TIMv1/stm32_tim.h"
 1782              		.file 15 "/home/selim/working/ChibiOS/os/rt/include/chtm.h"
 1783              		.file 16 "/home/selim/working/ChibiOS/os/rt/include/chsem.h"
 1784              		.file 17 "/home/selim/working/ChibiOS/os/rt/include/chmtx.h"
 1785              		.file 18 "/home/selim/working/ChibiOS/test/rt/test.h"
 1786              		.file 19 "/home/selim/working/ChibiOS/os/rt/ports/ARMCMx/chcore_timer.h"
 1787              		.file 20 "/home/selim/working/ChibiOS/os/rt/include/chsys.h"
 1788              		.file 21 "/home/selim/working/ChibiOS/os/rt/include/chvt.h"
 1789              		.file 22 "/home/selim/working/ChibiOS/os/ext/CMSIS/include/core_cm4.h"